
vl53l1x_l443:     file format elf32-littlearm


Disassembly of section .text:

08000000 <__vectors0>:
 8000000:	2000cb18 	.word	0x2000cb18
 8000004:	080091a1 	.word	0x080091a1
 8000008:	08009272 	.word	0x08009272
 800000c:	08009272 	.word	0x08009272
 8000010:	08009272 	.word	0x08009272

08000014 <vl53l1x_l443__initialize_range_sensor.5035>:
 8000014:	e92d 43b0 	stmdb	sp!, {r4, r5, r7, r8, r9, lr}
 8000018:	b08e      	sub	sp, #56	; 0x38
 800001a:	af00      	add	r7, sp, #0
 800001c:	6178      	str	r0, [r7, #20]
 800001e:	60fa      	str	r2, [r7, #12]
 8000020:	60bb      	str	r3, [r7, #8]
 8000022:	460b      	mov	r3, r1
 8000024:	74fb      	strb	r3, [r7, #19]
 8000026:	f8c7 c004 	str.w	ip, [r7, #4]
 800002a:	f107 0318 	add.w	r3, r7, #24
 800002e:	4698      	mov	r8, r3
 8000030:	f8df 90fc 	ldr.w	r9, [pc, #252]	; 8000130 <vl53l1x_l443__initialize_range_sensor.5035+0x11c>
 8000034:	4640      	mov	r0, r8
 8000036:	4649      	mov	r1, r9
 8000038:	f005 fa4c 	bl	80054d4 <stm32__gpio__gpio_pointsIP>
 800003c:	f107 0318 	add.w	r3, r7, #24
 8000040:	4618      	mov	r0, r3
 8000042:	68b9      	ldr	r1, [r7, #8]
 8000044:	f005 fa0e 	bl	8005464 <stm32__gpio___assign>
 8000048:	f107 0318 	add.w	r3, r7, #24
 800004c:	330c      	adds	r3, #12
 800004e:	4618      	mov	r0, r3
 8000050:	68f9      	ldr	r1, [r7, #12]
 8000052:	f005 fa07 	bl	8005464 <stm32__gpio___assign>
 8000056:	f107 0318 	add.w	r3, r7, #24
 800005a:	637b      	str	r3, [r7, #52]	; 0x34
 800005c:	68f8      	ldr	r0, [r7, #12]
 800005e:	f002 f8af 	bl	80021c0 <stm32__device__enable_clock__2>
 8000062:	68b8      	ldr	r0, [r7, #8]
 8000064:	f002 f8ac 	bl	80021c0 <stm32__device__enable_clock__2>
 8000068:	6d38      	ldr	r0, [r7, #80]	; 0x50
 800006a:	f002 f8a9 	bl	80021c0 <stm32__device__enable_clock__2>
 800006e:	6d78      	ldr	r0, [r7, #84]	; 0x54
 8000070:	f002 f8a6 	bl	80021c0 <stm32__device__enable_clock__2>
 8000074:	697b      	ldr	r3, [r7, #20]
 8000076:	2b00      	cmp	r3, #0
 8000078:	d103      	bne.n	8000082 <vl53l1x_l443__initialize_range_sensor.5035+0x6e>
 800007a:	482c      	ldr	r0, [pc, #176]	; (800012c <vl53l1x_l443__initialize_range_sensor.5035+0x118>)
 800007c:	2136      	movs	r1, #54	; 0x36
 800007e:	f00a fcb1 	bl	800a9e4 <__gnat_rcheck_CE_Access_Check>
 8000082:	6978      	ldr	r0, [r7, #20]
 8000084:	f002 f8ea 	bl	800225c <stm32__device__enable_clock__6>
 8000088:	697b      	ldr	r3, [r7, #20]
 800008a:	2b00      	cmp	r3, #0
 800008c:	d103      	bne.n	8000096 <vl53l1x_l443__initialize_range_sensor.5035+0x82>
 800008e:	4827      	ldr	r0, [pc, #156]	; (800012c <vl53l1x_l443__initialize_range_sensor.5035+0x118>)
 8000090:	2138      	movs	r1, #56	; 0x38
 8000092:	f00a fca7 	bl	800a9e4 <__gnat_rcheck_CE_Access_Check>
 8000096:	6978      	ldr	r0, [r7, #20]
 8000098:	f002 f92c 	bl	80022f4 <stm32__device__reset__6>
 800009c:	2300      	movs	r3, #0
 800009e:	f887 3032 	strb.w	r3, [r7, #50]	; 0x32
 80000a2:	2302      	movs	r3, #2
 80000a4:	f887 3030 	strb.w	r3, [r7, #48]	; 0x30
 80000a8:	2301      	movs	r3, #1
 80000aa:	f887 3031 	strb.w	r3, [r7, #49]	; 0x31
 80000ae:	2301      	movs	r3, #1
 80000b0:	f887 3033 	strb.w	r3, [r7, #51]	; 0x33
 80000b4:	68f8      	ldr	r0, [r7, #12]
 80000b6:	6b39      	ldr	r1, [r7, #48]	; 0x30
 80000b8:	f005 fd0e 	bl	8005ad8 <stm32__gpio__configure_io>
 80000bc:	68b8      	ldr	r0, [r7, #8]
 80000be:	6b39      	ldr	r1, [r7, #48]	; 0x30
 80000c0:	f005 fd0a 	bl	8005ad8 <stm32__gpio__configure_io>
 80000c4:	f107 0318 	add.w	r3, r7, #24
 80000c8:	461c      	mov	r4, r3
 80000ca:	4d19      	ldr	r5, [pc, #100]	; (8000130 <vl53l1x_l443__initialize_range_sensor.5035+0x11c>)
 80000cc:	7cfb      	ldrb	r3, [r7, #19]
 80000ce:	4620      	mov	r0, r4
 80000d0:	4629      	mov	r1, r5
 80000d2:	461a      	mov	r2, r3
 80000d4:	f005 fe4a 	bl	8005d6c <stm32__gpio__configure_alternate_function__2>
 80000d8:	697b      	ldr	r3, [r7, #20]
 80000da:	2b00      	cmp	r3, #0
 80000dc:	d103      	bne.n	80000e6 <vl53l1x_l443__initialize_range_sensor.5035+0xd2>
 80000de:	4813      	ldr	r0, [pc, #76]	; (800012c <vl53l1x_l443__initialize_range_sensor.5035+0x118>)
 80000e0:	2144      	movs	r1, #68	; 0x44
 80000e2:	f00a fc7f 	bl	800a9e4 <__gnat_rcheck_CE_Access_Check>
 80000e6:	6978      	ldr	r0, [r7, #20]
 80000e8:	4912      	ldr	r1, [pc, #72]	; (8000134 <vl53l1x_l443__initialize_range_sensor.5035+0x120>)
 80000ea:	f003 fa69 	bl	80035c0 <stm32__i2c__configure>
 80000ee:	2301      	movs	r3, #1
 80000f0:	f887 3030 	strb.w	r3, [r7, #48]	; 0x30
 80000f4:	2300      	movs	r3, #0
 80000f6:	f887 3031 	strb.w	r3, [r7, #49]	; 0x31
 80000fa:	2300      	movs	r3, #0
 80000fc:	f887 3032 	strb.w	r3, [r7, #50]	; 0x32
 8000100:	2300      	movs	r3, #0
 8000102:	f887 3033 	strb.w	r3, [r7, #51]	; 0x33
 8000106:	6d38      	ldr	r0, [r7, #80]	; 0x50
 8000108:	6b39      	ldr	r1, [r7, #48]	; 0x30
 800010a:	f005 fce5 	bl	8005ad8 <stm32__gpio__configure_io>
 800010e:	2300      	movs	r3, #0
 8000110:	f887 3030 	strb.w	r3, [r7, #48]	; 0x30
 8000114:	2300      	movs	r3, #0
 8000116:	f887 3033 	strb.w	r3, [r7, #51]	; 0x33
 800011a:	6d78      	ldr	r0, [r7, #84]	; 0x54
 800011c:	6b39      	ldr	r1, [r7, #48]	; 0x30
 800011e:	f005 fcdb 	bl	8005ad8 <stm32__gpio__configure_io>
 8000122:	3738      	adds	r7, #56	; 0x38
 8000124:	46bd      	mov	sp, r7
 8000126:	e8bd 83b0 	ldmia.w	sp!, {r4, r5, r7, r8, r9, pc}
 800012a:	bf00      	nop
 800012c:	0800e9a0 	.word	0x0800e9a0
 8000130:	0800e9b4 	.word	0x0800e9b4
 8000134:	0800e9bc 	.word	0x0800e9bc

08000138 <_ada_vl53l1x_l443>:
 8000138:	e92d 4ff0 	stmdb	sp!, {r4, r5, r6, r7, r8, r9, sl, fp, lr}
 800013c:	b0a9      	sub	sp, #164	; 0xa4
 800013e:	af04      	add	r7, sp, #16
 8000140:	f107 03b8 	add.w	r3, r7, #184	; 0xb8
 8000144:	623b      	str	r3, [r7, #32]
 8000146:	f107 0324 	add.w	r3, r7, #36	; 0x24
 800014a:	4618      	mov	r0, r3
 800014c:	4984      	ldr	r1, [pc, #528]	; (8000360 <_ada_vl53l1x_l443+0x228>)
 800014e:	f000 fcbf 	bl	8000ad0 <vl53l1x__vl53l1x_ranging_sensorIP>
 8000152:	2304      	movs	r3, #4
 8000154:	f887 308f 	strb.w	r3, [r7, #143]	; 0x8f
 8000158:	f001 ffb0 	bl	80020bc <stm32__board__initialize_board>
 800015c:	4881      	ldr	r0, [pc, #516]	; (8000364 <_ada_vl53l1x_l443+0x22c>)
 800015e:	f005 fb8f 	bl	8005880 <stm32__gpio__set__2>
 8000162:	f107 021c 	add.w	r2, r7, #28
 8000166:	4b80      	ldr	r3, [pc, #512]	; (8000368 <_ada_vl53l1x_l443+0x230>)
 8000168:	9300      	str	r3, [sp, #0]
 800016a:	4b80      	ldr	r3, [pc, #512]	; (800036c <_ada_vl53l1x_l443+0x234>)
 800016c:	9301      	str	r3, [sp, #4]
 800016e:	2300      	movs	r3, #0
 8000170:	9302      	str	r3, [sp, #8]
 8000172:	4694      	mov	ip, r2
 8000174:	487a      	ldr	r0, [pc, #488]	; (8000360 <_ada_vl53l1x_l443+0x228>)
 8000176:	2104      	movs	r1, #4
 8000178:	4a7d      	ldr	r2, [pc, #500]	; (8000370 <_ada_vl53l1x_l443+0x238>)
 800017a:	4b7e      	ldr	r3, [pc, #504]	; (8000374 <_ada_vl53l1x_l443+0x23c>)
 800017c:	f7ff ff4a 	bl	8000014 <vl53l1x_l443__initialize_range_sensor.5035>
 8000180:	f107 031c 	add.w	r3, r7, #28
 8000184:	469c      	mov	ip, r3
 8000186:	f000 f8ff 	bl	8000388 <vl53l1x_l443__reset.4555>
 800018a:	f107 0324 	add.w	r3, r7, #36	; 0x24
 800018e:	4618      	mov	r0, r3
 8000190:	f001 fbf8 	bl	8001984 <vl53l1x__initialize>
 8000194:	f000 faf8 	bl	8000788 <trace__configure_tracing>
 8000198:	2000      	movs	r0, #0
 800019a:	2102      	movs	r1, #2
 800019c:	2203      	movs	r2, #3
 800019e:	4b76      	ldr	r3, [pc, #472]	; (8000378 <_ada_vl53l1x_l443+0x240>)
 80001a0:	f000 fbd8 	bl	8000954 <trace__configure_watchpoint>
 80001a4:	f107 0324 	add.w	r3, r7, #36	; 0x24
 80001a8:	4618      	mov	r0, r3
 80001aa:	2102      	movs	r1, #2
 80001ac:	f001 f894 	bl	80012d8 <vl53l1x__setdistancemode>
 80001b0:	f107 0324 	add.w	r3, r7, #36	; 0x24
 80001b4:	4618      	mov	r0, r3
 80001b6:	f24c 3150 	movw	r1, #50000	; 0xc350
 80001ba:	f000 ff8f 	bl	80010dc <vl53l1x__setmeasurementtimingbudget>
 80001be:	4603      	mov	r3, r0
 80001c0:	f887 308e 	strb.w	r3, [r7, #142]	; 0x8e
 80001c4:	f107 0324 	add.w	r3, r7, #36	; 0x24
 80001c8:	4618      	mov	r0, r3
 80001ca:	2132      	movs	r1, #50	; 0x32
 80001cc:	f001 f942 	bl	8001454 <vl53l1x__startcontinuous>
 80001d0:	f107 0324 	add.w	r3, r7, #36	; 0x24
 80001d4:	4618      	mov	r0, r3
 80001d6:	f001 fb5f 	bl	8001898 <vl53l1x__read_range>
 80001da:	4603      	mov	r3, r0
 80001dc:	f3c3 4207 	ubfx	r2, r3, #16, #8
 80001e0:	f887 208e 	strb.w	r2, [r7, #142]	; 0x8e
 80001e4:	f8a7 308c 	strh.w	r3, [r7, #140]	; 0x8c
 80001e8:	f897 308e 	ldrb.w	r3, [r7, #142]	; 0x8e
 80001ec:	2b00      	cmp	r3, #0
 80001ee:	d0ef      	beq.n	80001d0 <_ada_vl53l1x_l443+0x98>
 80001f0:	466b      	mov	r3, sp
 80001f2:	461c      	mov	r4, r3
 80001f4:	f8b7 308c 	ldrh.w	r3, [r7, #140]	; 0x8c
 80001f8:	f107 0214 	add.w	r2, r7, #20
 80001fc:	4690      	mov	r8, r2
 80001fe:	f8df 9184 	ldr.w	r9, [pc, #388]	; 8000384 <_ada_vl53l1x_l443+0x24c>
 8000202:	4618      	mov	r0, r3
 8000204:	4642      	mov	r2, r8
 8000206:	464b      	mov	r3, r9
 8000208:	f009 fe42 	bl	8009e90 <system__img_uns__image_unsigned>
 800020c:	4603      	mov	r3, r0
 800020e:	ea23 73e3 	bic.w	r3, r3, r3, asr #31
 8000212:	1dd9      	adds	r1, r3, #7
 8000214:	f8c7 1088 	str.w	r1, [r7, #136]	; 0x88
 8000218:	f8d7 3088 	ldr.w	r3, [r7, #136]	; 0x88
 800021c:	ea23 73e3 	bic.w	r3, r3, r3, asr #31
 8000220:	f8c7 3084 	str.w	r3, [r7, #132]	; 0x84
 8000224:	f8d7 3088 	ldr.w	r3, [r7, #136]	; 0x88
 8000228:	ea23 73e3 	bic.w	r3, r3, r3, asr #31
 800022c:	3307      	adds	r3, #7
 800022e:	08db      	lsrs	r3, r3, #3
 8000230:	00db      	lsls	r3, r3, #3
 8000232:	ebad 0d03 	sub.w	sp, sp, r3
 8000236:	ab04      	add	r3, sp, #16
 8000238:	3300      	adds	r3, #0
 800023a:	f8c7 3080 	str.w	r3, [r7, #128]	; 0x80
 800023e:	f8d7 3080 	ldr.w	r3, [r7, #128]	; 0x80
 8000242:	4a4e      	ldr	r2, [pc, #312]	; (800037c <_ada_vl53l1x_l443+0x244>)
 8000244:	6810      	ldr	r0, [r2, #0]
 8000246:	6018      	str	r0, [r3, #0]
 8000248:	8890      	ldrh	r0, [r2, #4]
 800024a:	7992      	ldrb	r2, [r2, #6]
 800024c:	8098      	strh	r0, [r3, #4]
 800024e:	719a      	strb	r2, [r3, #6]
 8000250:	460b      	mov	r3, r1
 8000252:	2b07      	cmp	r3, #7
 8000254:	bfb8      	it	lt
 8000256:	2307      	movlt	r3, #7
 8000258:	1fda      	subs	r2, r3, #7
 800025a:	f8d7 3080 	ldr.w	r3, [r7, #128]	; 0x80
 800025e:	1dd9      	adds	r1, r3, #7
 8000260:	f107 0314 	add.w	r3, r7, #20
 8000264:	4608      	mov	r0, r1
 8000266:	4619      	mov	r1, r3
 8000268:	4613      	mov	r3, r2
 800026a:	461a      	mov	r2, r3
 800026c:	f00a fd06 	bl	800ac7c <memcpy>
 8000270:	f8d7 3080 	ldr.w	r3, [r7, #128]	; 0x80
 8000274:	60bb      	str	r3, [r7, #8]
 8000276:	2301      	movs	r3, #1
 8000278:	65bb      	str	r3, [r7, #88]	; 0x58
 800027a:	f8d7 3088 	ldr.w	r3, [r7, #136]	; 0x88
 800027e:	65fb      	str	r3, [r7, #92]	; 0x5c
 8000280:	f107 0358 	add.w	r3, r7, #88	; 0x58
 8000284:	60fb      	str	r3, [r7, #12]
 8000286:	e9d7 0102 	ldrd	r0, r1, [r7, #8]
 800028a:	f009 fba9 	bl	80099e0 <ada__text_io__put__2>
 800028e:	46a5      	mov	sp, r4
 8000290:	f00a ff74 	bl	800b17c <system__secondary_stack__ss_mark>
 8000294:	4603      	mov	r3, r0
 8000296:	61fb      	str	r3, [r7, #28]
 8000298:	466b      	mov	r3, sp
 800029a:	607b      	str	r3, [r7, #4]
 800029c:	f107 0260 	add.w	r2, r7, #96	; 0x60
 80002a0:	f107 0324 	add.w	r3, r7, #36	; 0x24
 80002a4:	4610      	mov	r0, r2
 80002a6:	4619      	mov	r1, r3
 80002a8:	f001 fd00 	bl	8001cac <vl53l1x__range_status_string>
 80002ac:	e9d7 4518 	ldrd	r4, r5, [r7, #96]	; 0x60
 80002b0:	462b      	mov	r3, r5
 80002b2:	685a      	ldr	r2, [r3, #4]
 80002b4:	462b      	mov	r3, r5
 80002b6:	681b      	ldr	r3, [r3, #0]
 80002b8:	429a      	cmp	r2, r3
 80002ba:	db06      	blt.n	80002ca <_ada_vl53l1x_l443+0x192>
 80002bc:	462b      	mov	r3, r5
 80002be:	685a      	ldr	r2, [r3, #4]
 80002c0:	462b      	mov	r3, r5
 80002c2:	681b      	ldr	r3, [r3, #0]
 80002c4:	1ad3      	subs	r3, r2, r3
 80002c6:	3301      	adds	r3, #1
 80002c8:	e000      	b.n	80002cc <_ada_vl53l1x_l443+0x194>
 80002ca:	2300      	movs	r3, #0
 80002cc:	f103 0609 	add.w	r6, r3, #9
 80002d0:	67fe      	str	r6, [r7, #124]	; 0x7c
 80002d2:	6ffb      	ldr	r3, [r7, #124]	; 0x7c
 80002d4:	ea23 73e3 	bic.w	r3, r3, r3, asr #31
 80002d8:	67bb      	str	r3, [r7, #120]	; 0x78
 80002da:	6ffb      	ldr	r3, [r7, #124]	; 0x7c
 80002dc:	ea23 73e3 	bic.w	r3, r3, r3, asr #31
 80002e0:	3307      	adds	r3, #7
 80002e2:	08db      	lsrs	r3, r3, #3
 80002e4:	00db      	lsls	r3, r3, #3
 80002e6:	ebad 0d03 	sub.w	sp, sp, r3
 80002ea:	ab04      	add	r3, sp, #16
 80002ec:	3300      	adds	r3, #0
 80002ee:	677b      	str	r3, [r7, #116]	; 0x74
 80002f0:	6f7b      	ldr	r3, [r7, #116]	; 0x74
 80002f2:	4923      	ldr	r1, [pc, #140]	; (8000380 <_ada_vl53l1x_l443+0x248>)
 80002f4:	461a      	mov	r2, r3
 80002f6:	460b      	mov	r3, r1
 80002f8:	cb03      	ldmia	r3!, {r0, r1}
 80002fa:	6010      	str	r0, [r2, #0]
 80002fc:	6051      	str	r1, [r2, #4]
 80002fe:	781b      	ldrb	r3, [r3, #0]
 8000300:	7213      	strb	r3, [r2, #8]
 8000302:	4633      	mov	r3, r6
 8000304:	2b09      	cmp	r3, #9
 8000306:	bfb8      	it	lt
 8000308:	2309      	movlt	r3, #9
 800030a:	f1a3 0209 	sub.w	r2, r3, #9
 800030e:	4621      	mov	r1, r4
 8000310:	6f7b      	ldr	r3, [r7, #116]	; 0x74
 8000312:	3309      	adds	r3, #9
 8000314:	4618      	mov	r0, r3
 8000316:	4613      	mov	r3, r2
 8000318:	461a      	mov	r2, r3
 800031a:	f00a fcaf 	bl	800ac7c <memcpy>
 800031e:	6f7b      	ldr	r3, [r7, #116]	; 0x74
 8000320:	469a      	mov	sl, r3
 8000322:	2301      	movs	r3, #1
 8000324:	66fb      	str	r3, [r7, #108]	; 0x6c
 8000326:	6ffb      	ldr	r3, [r7, #124]	; 0x7c
 8000328:	673b      	str	r3, [r7, #112]	; 0x70
 800032a:	f107 036c 	add.w	r3, r7, #108	; 0x6c
 800032e:	469b      	mov	fp, r3
 8000330:	4650      	mov	r0, sl
 8000332:	4659      	mov	r1, fp
 8000334:	f009 fb62 	bl	80099fc <ada__text_io__put_line>
 8000338:	2401      	movs	r4, #1
 800033a:	f107 031c 	add.w	r3, r7, #28
 800033e:	469c      	mov	ip, r3
 8000340:	f000 f85c 	bl	80003fc <vl53l1x_l443__L_1__B23b___finalizer.5249>
 8000344:	2c01      	cmp	r4, #1
 8000346:	d106      	bne.n	8000356 <_ada_vl53l1x_l443+0x21e>
 8000348:	bf00      	nop
 800034a:	f8d7 d004 	ldr.w	sp, [r7, #4]
 800034e:	e73f      	b.n	80001d0 <_ada_vl53l1x_l443+0x98>
 8000350:	6038      	str	r0, [r7, #0]
 8000352:	2400      	movs	r4, #0
 8000354:	e7f1      	b.n	800033a <_ada_vl53l1x_l443+0x202>
 8000356:	683b      	ldr	r3, [r7, #0]
 8000358:	4618      	mov	r0, r3
 800035a:	f00c fbd9 	bl	800cb10 <_Unwind_Resume>
 800035e:	bf00      	nop
 8000360:	20000694 	.word	0x20000694
 8000364:	200004f0 	.word	0x200004f0
 8000368:	200003c4 	.word	0x200003c4
 800036c:	200003d0 	.word	0x200003d0
 8000370:	200003dc 	.word	0x200003dc
 8000374:	200003e8 	.word	0x200003e8
 8000378:	48000818 	.word	0x48000818
 800037c:	0800e9c8 	.word	0x0800e9c8
 8000380:	0800e9d0 	.word	0x0800e9d0
 8000384:	0800e9dc 	.word	0x0800e9dc

08000388 <vl53l1x_l443__reset.4555>:
 8000388:	b5f0      	push	{r4, r5, r6, r7, lr}
 800038a:	b083      	sub	sp, #12
 800038c:	af00      	add	r7, sp, #0
 800038e:	f8c7 c004 	str.w	ip, [r7, #4]
 8000392:	4819      	ldr	r0, [pc, #100]	; (80003f8 <vl53l1x_l443__reset.4555+0x70>)
 8000394:	f005 faa2 	bl	80058dc <stm32__gpio__clear>
 8000398:	f007 fcda 	bl	8007d50 <ada__real_time__clock>
 800039c:	4605      	mov	r5, r0
 800039e:	460e      	mov	r6, r1
 80003a0:	2064      	movs	r0, #100	; 0x64
 80003a2:	f007 fd1d 	bl	8007de0 <ada__real_time__milliseconds>
 80003a6:	4603      	mov	r3, r0
 80003a8:	460c      	mov	r4, r1
 80003aa:	4628      	mov	r0, r5
 80003ac:	4631      	mov	r1, r6
 80003ae:	461a      	mov	r2, r3
 80003b0:	4623      	mov	r3, r4
 80003b2:	f007 fc73 	bl	8007c9c <ada__real_time__Oadd>
 80003b6:	4603      	mov	r3, r0
 80003b8:	460c      	mov	r4, r1
 80003ba:	4618      	mov	r0, r3
 80003bc:	4621      	mov	r1, r4
 80003be:	f008 fb01 	bl	80089c4 <ada__real_time__delays__delay_until>
 80003c2:	480d      	ldr	r0, [pc, #52]	; (80003f8 <vl53l1x_l443__reset.4555+0x70>)
 80003c4:	f005 fa5c 	bl	8005880 <stm32__gpio__set__2>
 80003c8:	f007 fcc2 	bl	8007d50 <ada__real_time__clock>
 80003cc:	4605      	mov	r5, r0
 80003ce:	460e      	mov	r6, r1
 80003d0:	2064      	movs	r0, #100	; 0x64
 80003d2:	f007 fd05 	bl	8007de0 <ada__real_time__milliseconds>
 80003d6:	4603      	mov	r3, r0
 80003d8:	460c      	mov	r4, r1
 80003da:	4628      	mov	r0, r5
 80003dc:	4631      	mov	r1, r6
 80003de:	461a      	mov	r2, r3
 80003e0:	4623      	mov	r3, r4
 80003e2:	f007 fc5b 	bl	8007c9c <ada__real_time__Oadd>
 80003e6:	4603      	mov	r3, r0
 80003e8:	460c      	mov	r4, r1
 80003ea:	4618      	mov	r0, r3
 80003ec:	4621      	mov	r1, r4
 80003ee:	f008 fae9 	bl	80089c4 <ada__real_time__delays__delay_until>
 80003f2:	370c      	adds	r7, #12
 80003f4:	46bd      	mov	sp, r7
 80003f6:	bdf0      	pop	{r4, r5, r6, r7, pc}
 80003f8:	200003c4 	.word	0x200003c4

080003fc <vl53l1x_l443__L_1__B23b___finalizer.5249>:
 80003fc:	b580      	push	{r7, lr}
 80003fe:	b082      	sub	sp, #8
 8000400:	af00      	add	r7, sp, #0
 8000402:	4663      	mov	r3, ip
 8000404:	f8c7 c004 	str.w	ip, [r7, #4]
 8000408:	681b      	ldr	r3, [r3, #0]
 800040a:	4618      	mov	r0, r3
 800040c:	f00a febc 	bl	800b188 <system__secondary_stack__ss_release>
 8000410:	3708      	adds	r7, #8
 8000412:	46bd      	mov	sp, r7
 8000414:	bd80      	pop	{r7, pc}
 8000416:	bf00      	nop

08000418 <adafinal>:
 8000418:	b580      	push	{r7, lr}
 800041a:	af00      	add	r7, sp, #0
 800041c:	4b08      	ldr	r3, [pc, #32]	; (8000440 <adafinal+0x28>)
 800041e:	781b      	ldrb	r3, [r3, #0]
 8000420:	f083 0301 	eor.w	r3, r3, #1
 8000424:	b2db      	uxtb	r3, r3
 8000426:	2b00      	cmp	r3, #0
 8000428:	d107      	bne.n	800043a <adafinal+0x22>
 800042a:	4b05      	ldr	r3, [pc, #20]	; (8000440 <adafinal+0x28>)
 800042c:	2200      	movs	r2, #0
 800042e:	701a      	strb	r2, [r3, #0]
 8000430:	f009 fa2c 	bl	800988c <__gnat_runtime_finalize>
 8000434:	f00a fba6 	bl	800ab84 <system__standard_library__adafinal>
 8000438:	e000      	b.n	800043c <adafinal+0x24>
 800043a:	bf00      	nop
 800043c:	bd80      	pop	{r7, pc}
 800043e:	bf00      	nop
 8000440:	20000000 	.word	0x20000000

08000444 <adainit>:
 8000444:	b580      	push	{r7, lr}
 8000446:	af00      	add	r7, sp, #0
 8000448:	4b91      	ldr	r3, [pc, #580]	; (8000690 <adainit+0x24c>)
 800044a:	781b      	ldrb	r3, [r3, #0]
 800044c:	2b00      	cmp	r3, #0
 800044e:	f040 811d 	bne.w	800068c <adainit+0x248>
 8000452:	4b8f      	ldr	r3, [pc, #572]	; (8000690 <adainit+0x24c>)
 8000454:	2201      	movs	r2, #1
 8000456:	701a      	strb	r2, [r3, #0]
 8000458:	4b8e      	ldr	r3, [pc, #568]	; (8000694 <adainit+0x250>)
 800045a:	f04f 32ff 	mov.w	r2, #4294967295
 800045e:	601a      	str	r2, [r3, #0]
 8000460:	4b8d      	ldr	r3, [pc, #564]	; (8000698 <adainit+0x254>)
 8000462:	2200      	movs	r2, #0
 8000464:	601a      	str	r2, [r3, #0]
 8000466:	4b8d      	ldr	r3, [pc, #564]	; (800069c <adainit+0x258>)
 8000468:	2262      	movs	r2, #98	; 0x62
 800046a:	701a      	strb	r2, [r3, #0]
 800046c:	4b8c      	ldr	r3, [pc, #560]	; (80006a0 <adainit+0x25c>)
 800046e:	2243      	movs	r2, #67	; 0x43
 8000470:	701a      	strb	r2, [r3, #0]
 8000472:	4b8c      	ldr	r3, [pc, #560]	; (80006a4 <adainit+0x260>)
 8000474:	2220      	movs	r2, #32
 8000476:	701a      	strb	r2, [r3, #0]
 8000478:	4b8b      	ldr	r3, [pc, #556]	; (80006a8 <adainit+0x264>)
 800047a:	2246      	movs	r2, #70	; 0x46
 800047c:	701a      	strb	r2, [r3, #0]
 800047e:	4a8b      	ldr	r2, [pc, #556]	; (80006ac <adainit+0x268>)
 8000480:	4b8b      	ldr	r3, [pc, #556]	; (80006b0 <adainit+0x26c>)
 8000482:	601a      	str	r2, [r3, #0]
 8000484:	4b8b      	ldr	r3, [pc, #556]	; (80006b4 <adainit+0x270>)
 8000486:	2200      	movs	r2, #0
 8000488:	601a      	str	r2, [r3, #0]
 800048a:	4b8b      	ldr	r3, [pc, #556]	; (80006b8 <adainit+0x274>)
 800048c:	f04f 32ff 	mov.w	r2, #4294967295
 8000490:	601a      	str	r2, [r3, #0]
 8000492:	4a8a      	ldr	r2, [pc, #552]	; (80006bc <adainit+0x278>)
 8000494:	4b8a      	ldr	r3, [pc, #552]	; (80006c0 <adainit+0x27c>)
 8000496:	601a      	str	r2, [r3, #0]
 8000498:	4b8a      	ldr	r3, [pc, #552]	; (80006c4 <adainit+0x280>)
 800049a:	2200      	movs	r2, #0
 800049c:	601a      	str	r2, [r3, #0]
 800049e:	4b8a      	ldr	r3, [pc, #552]	; (80006c8 <adainit+0x284>)
 80004a0:	2200      	movs	r2, #0
 80004a2:	601a      	str	r2, [r3, #0]
 80004a4:	4b89      	ldr	r3, [pc, #548]	; (80006cc <adainit+0x288>)
 80004a6:	2201      	movs	r2, #1
 80004a8:	601a      	str	r2, [r3, #0]
 80004aa:	4b89      	ldr	r3, [pc, #548]	; (80006d0 <adainit+0x28c>)
 80004ac:	f04f 32ff 	mov.w	r2, #4294967295
 80004b0:	601a      	str	r2, [r3, #0]
 80004b2:	4b88      	ldr	r3, [pc, #544]	; (80006d4 <adainit+0x290>)
 80004b4:	2200      	movs	r2, #0
 80004b6:	601a      	str	r2, [r3, #0]
 80004b8:	2001      	movs	r0, #1
 80004ba:	f009 f9bb 	bl	8009834 <__gnat_runtime_initialize>
 80004be:	f00a fceb 	bl	800ae98 <ada__streams___elabs>
 80004c2:	4b85      	ldr	r3, [pc, #532]	; (80006d8 <adainit+0x294>)
 80004c4:	881b      	ldrh	r3, [r3, #0]
 80004c6:	b29b      	uxth	r3, r3
 80004c8:	3301      	adds	r3, #1
 80004ca:	b29a      	uxth	r2, r3
 80004cc:	4b82      	ldr	r3, [pc, #520]	; (80006d8 <adainit+0x294>)
 80004ce:	801a      	strh	r2, [r3, #0]
 80004d0:	f00a fc22 	bl	800ad18 <system__finalization_root___elabs>
 80004d4:	4b81      	ldr	r3, [pc, #516]	; (80006dc <adainit+0x298>)
 80004d6:	881b      	ldrh	r3, [r3, #0]
 80004d8:	b29b      	uxth	r3, r3
 80004da:	3301      	adds	r3, #1
 80004dc:	b29a      	uxth	r2, r3
 80004de:	4b7f      	ldr	r3, [pc, #508]	; (80006dc <adainit+0x298>)
 80004e0:	801a      	strh	r2, [r3, #0]
 80004e2:	f00a fb41 	bl	800ab68 <ada__finalization___elabs>
 80004e6:	4b7e      	ldr	r3, [pc, #504]	; (80006e0 <adainit+0x29c>)
 80004e8:	881b      	ldrh	r3, [r3, #0]
 80004ea:	b29b      	uxth	r3, r3
 80004ec:	3301      	adds	r3, #1
 80004ee:	b29a      	uxth	r2, r3
 80004f0:	4b7b      	ldr	r3, [pc, #492]	; (80006e0 <adainit+0x29c>)
 80004f2:	801a      	strh	r2, [r3, #0]
 80004f4:	f009 fa42 	bl	800997c <system__soft_links___elabs>
 80004f8:	f009 fa54 	bl	80099a4 <system__storage_pools___elabs>
 80004fc:	4b79      	ldr	r3, [pc, #484]	; (80006e4 <adainit+0x2a0>)
 80004fe:	881b      	ldrh	r3, [r3, #0]
 8000500:	b29b      	uxth	r3, r3
 8000502:	3301      	adds	r3, #1
 8000504:	b29a      	uxth	r2, r3
 8000506:	4b77      	ldr	r3, [pc, #476]	; (80006e4 <adainit+0x2a0>)
 8000508:	801a      	strh	r2, [r3, #0]
 800050a:	f00b f8b5 	bl	800b678 <system__finalization_masters___elabs>
 800050e:	f007 fd6f 	bl	8007ff0 <system__bb__timing_events___elabs>
 8000512:	4b75      	ldr	r3, [pc, #468]	; (80006e8 <adainit+0x2a4>)
 8000514:	881b      	ldrh	r3, [r3, #0]
 8000516:	b29b      	uxth	r3, r3
 8000518:	3301      	adds	r3, #1
 800051a:	b29a      	uxth	r2, r3
 800051c:	4b72      	ldr	r3, [pc, #456]	; (80006e8 <adainit+0x2a4>)
 800051e:	801a      	strh	r2, [r3, #0]
 8000520:	4b72      	ldr	r3, [pc, #456]	; (80006ec <adainit+0x2a8>)
 8000522:	881b      	ldrh	r3, [r3, #0]
 8000524:	b29b      	uxth	r3, r3
 8000526:	3301      	adds	r3, #1
 8000528:	b29a      	uxth	r2, r3
 800052a:	4b70      	ldr	r3, [pc, #448]	; (80006ec <adainit+0x2a8>)
 800052c:	801a      	strh	r2, [r3, #0]
 800052e:	f009 fa6d 	bl	8009a0c <ada__text_io___elabb>
 8000532:	4b6f      	ldr	r3, [pc, #444]	; (80006f0 <adainit+0x2ac>)
 8000534:	881b      	ldrh	r3, [r3, #0]
 8000536:	b29b      	uxth	r3, r3
 8000538:	3301      	adds	r3, #1
 800053a:	b29a      	uxth	r2, r3
 800053c:	4b6c      	ldr	r3, [pc, #432]	; (80006f0 <adainit+0x2ac>)
 800053e:	801a      	strh	r2, [r3, #0]
 8000540:	f00a fb5e 	bl	800ac00 <system__exception_table___elabb>
 8000544:	4b6b      	ldr	r3, [pc, #428]	; (80006f4 <adainit+0x2b0>)
 8000546:	881b      	ldrh	r3, [r3, #0]
 8000548:	b29b      	uxth	r3, r3
 800054a:	3301      	adds	r3, #1
 800054c:	b29a      	uxth	r2, r3
 800054e:	4b69      	ldr	r3, [pc, #420]	; (80006f4 <adainit+0x2b0>)
 8000550:	801a      	strh	r2, [r3, #0]
 8000552:	f009 fb8f 	bl	8009c74 <system__pool_global___elabs>
 8000556:	4b68      	ldr	r3, [pc, #416]	; (80006f8 <adainit+0x2b4>)
 8000558:	881b      	ldrh	r3, [r3, #0]
 800055a:	b29b      	uxth	r3, r3
 800055c:	3301      	adds	r3, #1
 800055e:	b29a      	uxth	r2, r3
 8000560:	4b65      	ldr	r3, [pc, #404]	; (80006f8 <adainit+0x2b4>)
 8000562:	801a      	strh	r2, [r3, #0]
 8000564:	f00b f87c 	bl	800b660 <system__finalization_masters___elabb>
 8000568:	4b64      	ldr	r3, [pc, #400]	; (80006fc <adainit+0x2b8>)
 800056a:	881b      	ldrh	r3, [r3, #0]
 800056c:	b29b      	uxth	r3, r3
 800056e:	3301      	adds	r3, #1
 8000570:	b29a      	uxth	r2, r3
 8000572:	4b62      	ldr	r3, [pc, #392]	; (80006fc <adainit+0x2b8>)
 8000574:	801a      	strh	r2, [r3, #0]
 8000576:	f009 fb41 	bl	8009bfc <ada__tags___elabb>
 800057a:	4b61      	ldr	r3, [pc, #388]	; (8000700 <adainit+0x2bc>)
 800057c:	881b      	ldrh	r3, [r3, #0]
 800057e:	b29b      	uxth	r3, r3
 8000580:	3301      	adds	r3, #1
 8000582:	b29a      	uxth	r2, r3
 8000584:	4b5e      	ldr	r3, [pc, #376]	; (8000700 <adainit+0x2bc>)
 8000586:	801a      	strh	r2, [r3, #0]
 8000588:	f007 fc48 	bl	8007e1c <ada__real_time___elabb>
 800058c:	4b5d      	ldr	r3, [pc, #372]	; (8000704 <adainit+0x2c0>)
 800058e:	881b      	ldrh	r3, [r3, #0]
 8000590:	b29b      	uxth	r3, r3
 8000592:	3301      	adds	r3, #1
 8000594:	b29a      	uxth	r2, r3
 8000596:	4b5b      	ldr	r3, [pc, #364]	; (8000704 <adainit+0x2c0>)
 8000598:	801a      	strh	r2, [r3, #0]
 800059a:	f007 fb57 	bl	8007c4c <hal__gpio___elabs>
 800059e:	4b5a      	ldr	r3, [pc, #360]	; (8000708 <adainit+0x2c4>)
 80005a0:	881b      	ldrh	r3, [r3, #0]
 80005a2:	b29b      	uxth	r3, r3
 80005a4:	3301      	adds	r3, #1
 80005a6:	b29a      	uxth	r2, r3
 80005a8:	4b57      	ldr	r3, [pc, #348]	; (8000708 <adainit+0x2c4>)
 80005aa:	801a      	strh	r2, [r3, #0]
 80005ac:	f007 face 	bl	8007b4c <hal__i2c___elabs>
 80005b0:	4b56      	ldr	r3, [pc, #344]	; (800070c <adainit+0x2c8>)
 80005b2:	881b      	ldrh	r3, [r3, #0]
 80005b4:	b29b      	uxth	r3, r3
 80005b6:	3301      	adds	r3, #1
 80005b8:	b29a      	uxth	r2, r3
 80005ba:	4b54      	ldr	r3, [pc, #336]	; (800070c <adainit+0x2c8>)
 80005bc:	801a      	strh	r2, [r3, #0]
 80005be:	f007 fb05 	bl	8007bcc <hal__spi___elabs>
 80005c2:	4b53      	ldr	r3, [pc, #332]	; (8000710 <adainit+0x2cc>)
 80005c4:	881b      	ldrh	r3, [r3, #0]
 80005c6:	b29b      	uxth	r3, r3
 80005c8:	3301      	adds	r3, #1
 80005ca:	b29a      	uxth	r2, r3
 80005cc:	4b50      	ldr	r3, [pc, #320]	; (8000710 <adainit+0x2cc>)
 80005ce:	801a      	strh	r2, [r3, #0]
 80005d0:	f007 f8a2 	bl	8007718 <stm32__adc___elabs>
 80005d4:	4b4f      	ldr	r3, [pc, #316]	; (8000714 <adainit+0x2d0>)
 80005d6:	881b      	ldrh	r3, [r3, #0]
 80005d8:	b29b      	uxth	r3, r3
 80005da:	3301      	adds	r3, #1
 80005dc:	b29a      	uxth	r2, r3
 80005de:	4b4d      	ldr	r3, [pc, #308]	; (8000714 <adainit+0x2d0>)
 80005e0:	801a      	strh	r2, [r3, #0]
 80005e2:	4b4d      	ldr	r3, [pc, #308]	; (8000718 <adainit+0x2d4>)
 80005e4:	881b      	ldrh	r3, [r3, #0]
 80005e6:	b29b      	uxth	r3, r3
 80005e8:	3301      	adds	r3, #1
 80005ea:	b29a      	uxth	r2, r3
 80005ec:	4b4a      	ldr	r3, [pc, #296]	; (8000718 <adainit+0x2d4>)
 80005ee:	801a      	strh	r2, [r3, #0]
 80005f0:	4b4a      	ldr	r3, [pc, #296]	; (800071c <adainit+0x2d8>)
 80005f2:	881b      	ldrh	r3, [r3, #0]
 80005f4:	b29b      	uxth	r3, r3
 80005f6:	3301      	adds	r3, #1
 80005f8:	b29a      	uxth	r2, r3
 80005fa:	4b48      	ldr	r3, [pc, #288]	; (800071c <adainit+0x2d8>)
 80005fc:	801a      	strh	r2, [r3, #0]
 80005fe:	f005 fc43 	bl	8005e88 <stm32__gpio___elabs>
 8000602:	f004 fe0b 	bl	800521c <stm32__i2c___elabs>
 8000606:	4b46      	ldr	r3, [pc, #280]	; (8000720 <adainit+0x2dc>)
 8000608:	881b      	ldrh	r3, [r3, #0]
 800060a:	b29b      	uxth	r3, r3
 800060c:	3301      	adds	r3, #1
 800060e:	b29a      	uxth	r2, r3
 8000610:	4b43      	ldr	r3, [pc, #268]	; (8000720 <adainit+0x2dc>)
 8000612:	801a      	strh	r2, [r3, #0]
 8000614:	4b43      	ldr	r3, [pc, #268]	; (8000724 <adainit+0x2e0>)
 8000616:	881b      	ldrh	r3, [r3, #0]
 8000618:	b29b      	uxth	r3, r3
 800061a:	3301      	adds	r3, #1
 800061c:	b29a      	uxth	r2, r3
 800061e:	4b41      	ldr	r3, [pc, #260]	; (8000724 <adainit+0x2e0>)
 8000620:	801a      	strh	r2, [r3, #0]
 8000622:	f007 f86b 	bl	80076fc <stm32__spi___elabs>
 8000626:	4b40      	ldr	r3, [pc, #256]	; (8000728 <adainit+0x2e4>)
 8000628:	881b      	ldrh	r3, [r3, #0]
 800062a:	b29b      	uxth	r3, r3
 800062c:	3301      	adds	r3, #1
 800062e:	b29a      	uxth	r2, r3
 8000630:	4b3d      	ldr	r3, [pc, #244]	; (8000728 <adainit+0x2e4>)
 8000632:	801a      	strh	r2, [r3, #0]
 8000634:	4b3d      	ldr	r3, [pc, #244]	; (800072c <adainit+0x2e8>)
 8000636:	881b      	ldrh	r3, [r3, #0]
 8000638:	b29b      	uxth	r3, r3
 800063a:	3301      	adds	r3, #1
 800063c:	b29a      	uxth	r2, r3
 800063e:	4b3b      	ldr	r3, [pc, #236]	; (800072c <adainit+0x2e8>)
 8000640:	801a      	strh	r2, [r3, #0]
 8000642:	f001 febd 	bl	80023c0 <stm32__device___elabs>
 8000646:	4b3a      	ldr	r3, [pc, #232]	; (8000730 <adainit+0x2ec>)
 8000648:	881b      	ldrh	r3, [r3, #0]
 800064a:	b29b      	uxth	r3, r3
 800064c:	3301      	adds	r3, #1
 800064e:	b29a      	uxth	r2, r3
 8000650:	4b37      	ldr	r3, [pc, #220]	; (8000730 <adainit+0x2ec>)
 8000652:	801a      	strh	r2, [r3, #0]
 8000654:	4b37      	ldr	r3, [pc, #220]	; (8000734 <adainit+0x2f0>)
 8000656:	881b      	ldrh	r3, [r3, #0]
 8000658:	b29b      	uxth	r3, r3
 800065a:	3301      	adds	r3, #1
 800065c:	b29a      	uxth	r2, r3
 800065e:	4b35      	ldr	r3, [pc, #212]	; (8000734 <adainit+0x2f0>)
 8000660:	801a      	strh	r2, [r3, #0]
 8000662:	f000 f9d3 	bl	8000a0c <trace___elabs>
 8000666:	f000 f9c7 	bl	80009f8 <trace___elabb>
 800066a:	4b33      	ldr	r3, [pc, #204]	; (8000738 <adainit+0x2f4>)
 800066c:	881b      	ldrh	r3, [r3, #0]
 800066e:	b29b      	uxth	r3, r3
 8000670:	3301      	adds	r3, #1
 8000672:	b29a      	uxth	r2, r3
 8000674:	4b30      	ldr	r3, [pc, #192]	; (8000738 <adainit+0x2f4>)
 8000676:	801a      	strh	r2, [r3, #0]
 8000678:	4b30      	ldr	r3, [pc, #192]	; (800073c <adainit+0x2f8>)
 800067a:	881b      	ldrh	r3, [r3, #0]
 800067c:	b29b      	uxth	r3, r3
 800067e:	3301      	adds	r3, #1
 8000680:	b29a      	uxth	r2, r3
 8000682:	4b2e      	ldr	r3, [pc, #184]	; (800073c <adainit+0x2f8>)
 8000684:	801a      	strh	r2, [r3, #0]
 8000686:	f007 fcb9 	bl	8007ffc <__gnat_start_slave_cpus>
 800068a:	e000      	b.n	800068e <adainit+0x24a>
 800068c:	bf00      	nop
 800068e:	bd80      	pop	{r7, pc}
 8000690:	20000000 	.word	0x20000000
 8000694:	20000124 	.word	0x20000124
 8000698:	20000174 	.word	0x20000174
 800069c:	2000017c 	.word	0x2000017c
 80006a0:	20000170 	.word	0x20000170
 80006a4:	20000168 	.word	0x20000168
 80006a8:	20000184 	.word	0x20000184
 80006ac:	0800e9f8 	.word	0x0800e9f8
 80006b0:	20000164 	.word	0x20000164
 80006b4:	20000178 	.word	0x20000178
 80006b8:	20000134 	.word	0x20000134
 80006bc:	0800e9fc 	.word	0x0800e9fc
 80006c0:	20000198 	.word	0x20000198
 80006c4:	20000194 	.word	0x20000194
 80006c8:	20000180 	.word	0x20000180
 80006cc:	2000018c 	.word	0x2000018c
 80006d0:	20000190 	.word	0x20000190
 80006d4:	2000016c 	.word	0x2000016c
 80006d8:	2000029c 	.word	0x2000029c
 80006dc:	20000292 	.word	0x20000292
 80006e0:	200001ea 	.word	0x200001ea
 80006e4:	200001b8 	.word	0x200001b8
 80006e8:	200000f0 	.word	0x200000f0
 80006ec:	200001a0 	.word	0x200001a0
 80006f0:	200001ba 	.word	0x200001ba
 80006f4:	20000290 	.word	0x20000290
 80006f8:	200001c4 	.word	0x200001c4
 80006fc:	200002c0 	.word	0x200002c0
 8000700:	200001bc 	.word	0x200001bc
 8000704:	200000e8 	.word	0x200000e8
 8000708:	200000dc 	.word	0x200000dc
 800070c:	200000c4 	.word	0x200000c4
 8000710:	200000d0 	.word	0x200000d0
 8000714:	200000bc 	.word	0x200000bc
 8000718:	200000c0 	.word	0x200000c0
 800071c:	200000be 	.word	0x200000be
 8000720:	2000005c 	.word	0x2000005c
 8000724:	20000012 	.word	0x20000012
 8000728:	2000009c 	.word	0x2000009c
 800072c:	2000007c 	.word	0x2000007c
 8000730:	20000014 	.word	0x20000014
 8000734:	200000c2 	.word	0x200000c2
 8000738:	20000002 	.word	0x20000002
 800073c:	20000010 	.word	0x20000010

08000740 <main>:
 8000740:	b580      	push	{r7, lr}
 8000742:	b084      	sub	sp, #16
 8000744:	af00      	add	r7, sp, #0
 8000746:	4b09      	ldr	r3, [pc, #36]	; (800076c <main+0x2c>)
 8000748:	607b      	str	r3, [r7, #4]
 800074a:	f107 0308 	add.w	r3, r7, #8
 800074e:	4618      	mov	r0, r3
 8000750:	f009 f86e 	bl	8009830 <__gnat_initialize>
 8000754:	f7ff fe76 	bl	8000444 <adainit>
 8000758:	f7ff fcee 	bl	8000138 <_ada_vl53l1x_l443>
 800075c:	f7ff fe5c 	bl	8000418 <adafinal>
 8000760:	f009 f864 	bl	800982c <__gnat_finalize>
 8000764:	3710      	adds	r7, #16
 8000766:	46bd      	mov	sp, r7
 8000768:	bd80      	pop	{r7, pc}
 800076a:	bf00      	nop
 800076c:	0800e9e4 	.word	0x0800e9e4

08000770 <trace__tcr_registerIP>:
 8000770:	b480      	push	{r7}
 8000772:	b083      	sub	sp, #12
 8000774:	af00      	add	r7, sp, #0
 8000776:	6078      	str	r0, [r7, #4]
 8000778:	460b      	mov	r3, r1
 800077a:	70fb      	strb	r3, [r7, #3]
 800077c:	370c      	adds	r7, #12
 800077e:	46bd      	mov	sp, r7
 8000780:	f85d 7b04 	ldr.w	r7, [sp], #4
 8000784:	4770      	bx	lr
 8000786:	bf00      	nop

08000788 <trace__configure_tracing>:
 8000788:	b480      	push	{r7}
 800078a:	b089      	sub	sp, #36	; 0x24
 800078c:	af00      	add	r7, sp, #0
 800078e:	f44f 6380 	mov.w	r3, #1024	; 0x400
 8000792:	61fb      	str	r3, [r7, #28]
 8000794:	f44f 6300 	mov.w	r3, #2048	; 0x800
 8000798:	61bb      	str	r3, [r7, #24]
 800079a:	2380      	movs	r3, #128	; 0x80
 800079c:	617b      	str	r3, [r7, #20]
 800079e:	f44f 7380 	mov.w	r3, #256	; 0x100
 80007a2:	613b      	str	r3, [r7, #16]
 80007a4:	2301      	movs	r3, #1
 80007a6:	60fb      	str	r3, [r7, #12]
 80007a8:	f04f 7380 	mov.w	r3, #16777216	; 0x1000000
 80007ac:	60bb      	str	r3, [r7, #8]
 80007ae:	f04f 7380 	mov.w	r3, #16777216	; 0x1000000
 80007b2:	607b      	str	r3, [r7, #4]
 80007b4:	4b60      	ldr	r3, [pc, #384]	; (8000938 <trace__configure_tracing+0x1b0>)
 80007b6:	681b      	ldr	r3, [r3, #0]
 80007b8:	3304      	adds	r3, #4
 80007ba:	681b      	ldr	r3, [r3, #0]
 80007bc:	461a      	mov	r2, r3
 80007be:	4613      	mov	r3, r2
 80007c0:	f043 0220 	orr.w	r2, r3, #32
 80007c4:	4b5c      	ldr	r3, [pc, #368]	; (8000938 <trace__configure_tracing+0x1b0>)
 80007c6:	681b      	ldr	r3, [r3, #0]
 80007c8:	3304      	adds	r3, #4
 80007ca:	601a      	str	r2, [r3, #0]
 80007cc:	4b5a      	ldr	r3, [pc, #360]	; (8000938 <trace__configure_tracing+0x1b0>)
 80007ce:	681b      	ldr	r3, [r3, #0]
 80007d0:	3304      	adds	r3, #4
 80007d2:	681b      	ldr	r3, [r3, #0]
 80007d4:	f3c3 1340 	ubfx	r3, r3, #5, #1
 80007d8:	b2db      	uxtb	r3, r3
 80007da:	f083 0301 	eor.w	r3, r3, #1
 80007de:	b2db      	uxtb	r3, r3
 80007e0:	2b00      	cmp	r3, #0
 80007e2:	f040 80a3 	bne.w	800092c <trace__configure_tracing+0x1a4>
 80007e6:	4b55      	ldr	r3, [pc, #340]	; (800093c <trace__configure_tracing+0x1b4>)
 80007e8:	681b      	ldr	r3, [r3, #0]
 80007ea:	33fc      	adds	r3, #252	; 0xfc
 80007ec:	681b      	ldr	r3, [r3, #0]
 80007ee:	461a      	mov	r2, r3
 80007f0:	4613      	mov	r3, r2
 80007f2:	f043 7280 	orr.w	r2, r3, #16777216	; 0x1000000
 80007f6:	4b51      	ldr	r3, [pc, #324]	; (800093c <trace__configure_tracing+0x1b4>)
 80007f8:	681b      	ldr	r3, [r3, #0]
 80007fa:	33fc      	adds	r3, #252	; 0xfc
 80007fc:	601a      	str	r2, [r3, #0]
 80007fe:	4b50      	ldr	r3, [pc, #320]	; (8000940 <trace__configure_tracing+0x1b8>)
 8000800:	2208      	movs	r2, #8
 8000802:	611a      	str	r2, [r3, #16]
 8000804:	4b4e      	ldr	r3, [pc, #312]	; (8000940 <trace__configure_tracing+0x1b8>)
 8000806:	2202      	movs	r2, #2
 8000808:	f8c3 20f0 	str.w	r2, [r3, #240]	; 0xf0
 800080c:	4b4c      	ldr	r3, [pc, #304]	; (8000940 <trace__configure_tracing+0x1b8>)
 800080e:	f44f 7280 	mov.w	r2, #256	; 0x100
 8000812:	f8c3 2304 	str.w	r2, [r3, #772]	; 0x304
 8000816:	4b4b      	ldr	r3, [pc, #300]	; (8000944 <trace__configure_tracing+0x1bc>)
 8000818:	681b      	ldr	r3, [r3, #0]
 800081a:	681b      	ldr	r3, [r3, #0]
 800081c:	f043 0301 	orr.w	r3, r3, #1
 8000820:	4a48      	ldr	r2, [pc, #288]	; (8000944 <trace__configure_tracing+0x1bc>)
 8000822:	6812      	ldr	r2, [r2, #0]
 8000824:	6013      	str	r3, [r2, #0]
 8000826:	4b47      	ldr	r3, [pc, #284]	; (8000944 <trace__configure_tracing+0x1bc>)
 8000828:	681b      	ldr	r3, [r3, #0]
 800082a:	681b      	ldr	r3, [r3, #0]
 800082c:	f443 3380 	orr.w	r3, r3, #65536	; 0x10000
 8000830:	4a44      	ldr	r2, [pc, #272]	; (8000944 <trace__configure_tracing+0x1bc>)
 8000832:	6812      	ldr	r2, [r2, #0]
 8000834:	6013      	str	r3, [r2, #0]
 8000836:	4b43      	ldr	r3, [pc, #268]	; (8000944 <trace__configure_tracing+0x1bc>)
 8000838:	681b      	ldr	r3, [r3, #0]
 800083a:	681b      	ldr	r3, [r3, #0]
 800083c:	f443 7300 	orr.w	r3, r3, #512	; 0x200
 8000840:	4a40      	ldr	r2, [pc, #256]	; (8000944 <trace__configure_tracing+0x1bc>)
 8000842:	6812      	ldr	r2, [r2, #0]
 8000844:	6013      	str	r3, [r2, #0]
 8000846:	4b3f      	ldr	r3, [pc, #252]	; (8000944 <trace__configure_tracing+0x1bc>)
 8000848:	681b      	ldr	r3, [r3, #0]
 800084a:	681b      	ldr	r3, [r3, #0]
 800084c:	f443 5380 	orr.w	r3, r3, #4096	; 0x1000
 8000850:	4a3c      	ldr	r2, [pc, #240]	; (8000944 <trace__configure_tracing+0x1bc>)
 8000852:	6812      	ldr	r2, [r2, #0]
 8000854:	6013      	str	r3, [r2, #0]
 8000856:	4b3b      	ldr	r3, [pc, #236]	; (8000944 <trace__configure_tracing+0x1bc>)
 8000858:	681b      	ldr	r3, [r3, #0]
 800085a:	681b      	ldr	r3, [r3, #0]
 800085c:	f36f 0344 	bfc	r3, #1, #4
 8000860:	4a38      	ldr	r2, [pc, #224]	; (8000944 <trace__configure_tracing+0x1bc>)
 8000862:	6812      	ldr	r2, [r2, #0]
 8000864:	6013      	str	r3, [r2, #0]
 8000866:	4b37      	ldr	r3, [pc, #220]	; (8000944 <trace__configure_tracing+0x1bc>)
 8000868:	681b      	ldr	r3, [r3, #0]
 800086a:	681b      	ldr	r3, [r3, #0]
 800086c:	2202      	movs	r2, #2
 800086e:	f362 238b 	bfi	r3, r2, #10, #2
 8000872:	4a34      	ldr	r2, [pc, #208]	; (8000944 <trace__configure_tracing+0x1bc>)
 8000874:	6812      	ldr	r2, [r2, #0]
 8000876:	6013      	str	r3, [r2, #0]
 8000878:	f04f 4360 	mov.w	r3, #3758096384	; 0xe0000000
 800087c:	4a32      	ldr	r2, [pc, #200]	; (8000948 <trace__configure_tracing+0x1c0>)
 800087e:	f8c3 2fb0 	str.w	r2, [r3, #4016]	; 0xfb0
 8000882:	4b32      	ldr	r3, [pc, #200]	; (800094c <trace__configure_tracing+0x1c4>)
 8000884:	681b      	ldr	r3, [r3, #0]
 8000886:	2201      	movs	r2, #1
 8000888:	f362 4316 	bfi	r3, r2, #16, #7
 800088c:	461a      	mov	r2, r3
 800088e:	4b2f      	ldr	r3, [pc, #188]	; (800094c <trace__configure_tracing+0x1c4>)
 8000890:	601a      	str	r2, [r3, #0]
 8000892:	4b2e      	ldr	r3, [pc, #184]	; (800094c <trace__configure_tracing+0x1c4>)
 8000894:	681b      	ldr	r3, [r3, #0]
 8000896:	f043 0308 	orr.w	r3, r3, #8
 800089a:	461a      	mov	r2, r3
 800089c:	4b2b      	ldr	r3, [pc, #172]	; (800094c <trace__configure_tracing+0x1c4>)
 800089e:	601a      	str	r2, [r3, #0]
 80008a0:	4b2a      	ldr	r3, [pc, #168]	; (800094c <trace__configure_tracing+0x1c4>)
 80008a2:	681b      	ldr	r3, [r3, #0]
 80008a4:	f043 0304 	orr.w	r3, r3, #4
 80008a8:	461a      	mov	r2, r3
 80008aa:	4b28      	ldr	r3, [pc, #160]	; (800094c <trace__configure_tracing+0x1c4>)
 80008ac:	601a      	str	r2, [r3, #0]
 80008ae:	4b27      	ldr	r3, [pc, #156]	; (800094c <trace__configure_tracing+0x1c4>)
 80008b0:	681b      	ldr	r3, [r3, #0]
 80008b2:	f043 0301 	orr.w	r3, r3, #1
 80008b6:	461a      	mov	r2, r3
 80008b8:	4b24      	ldr	r3, [pc, #144]	; (800094c <trace__configure_tracing+0x1c4>)
 80008ba:	601a      	str	r2, [r3, #0]
 80008bc:	f04f 4260 	mov.w	r2, #3758096384	; 0xe0000000
 80008c0:	4b22      	ldr	r3, [pc, #136]	; (800094c <trace__configure_tracing+0x1c4>)
 80008c2:	681b      	ldr	r3, [r3, #0]
 80008c4:	f8c2 3e80 	str.w	r3, [r2, #3712]	; 0xe80
 80008c8:	f04f 4360 	mov.w	r3, #3758096384	; 0xe0000000
 80008cc:	f04f 32ff 	mov.w	r2, #4294967295
 80008d0:	f8c3 2e00 	str.w	r2, [r3, #3584]	; 0xe00
 80008d4:	4b1e      	ldr	r3, [pc, #120]	; (8000950 <trace__configure_tracing+0x1c8>)
 80008d6:	4a1c      	ldr	r2, [pc, #112]	; (8000948 <trace__configure_tracing+0x1c0>)
 80008d8:	f8c3 2fb0 	str.w	r2, [r3, #4016]	; 0xfb0
 80008dc:	4a1c      	ldr	r2, [pc, #112]	; (8000950 <trace__configure_tracing+0x1c8>)
 80008de:	4b1c      	ldr	r3, [pc, #112]	; (8000950 <trace__configure_tracing+0x1c8>)
 80008e0:	681b      	ldr	r3, [r3, #0]
 80008e2:	f023 0301 	bic.w	r3, r3, #1
 80008e6:	6013      	str	r3, [r2, #0]
 80008e8:	4a19      	ldr	r2, [pc, #100]	; (8000950 <trace__configure_tracing+0x1c8>)
 80008ea:	4b19      	ldr	r3, [pc, #100]	; (8000950 <trace__configure_tracing+0x1c8>)
 80008ec:	681b      	ldr	r3, [r3, #0]
 80008ee:	f443 6380 	orr.w	r3, r3, #1024	; 0x400
 80008f2:	6013      	str	r3, [r2, #0]
 80008f4:	4a16      	ldr	r2, [pc, #88]	; (8000950 <trace__configure_tracing+0x1c8>)
 80008f6:	4b16      	ldr	r3, [pc, #88]	; (8000950 <trace__configure_tracing+0x1c8>)
 80008f8:	681b      	ldr	r3, [r3, #0]
 80008fa:	f443 6318 	orr.w	r3, r3, #2432	; 0x980
 80008fe:	6013      	str	r3, [r2, #0]
 8000900:	4b13      	ldr	r3, [pc, #76]	; (8000950 <trace__configure_tracing+0x1c8>)
 8000902:	2202      	movs	r2, #2
 8000904:	f8c3 2200 	str.w	r2, [r3, #512]	; 0x200
 8000908:	4b11      	ldr	r3, [pc, #68]	; (8000950 <trace__configure_tracing+0x1c8>)
 800090a:	f04f 7280 	mov.w	r2, #16777216	; 0x1000000
 800090e:	625a      	str	r2, [r3, #36]	; 0x24
 8000910:	4b0f      	ldr	r3, [pc, #60]	; (8000950 <trace__configure_tracing+0x1c8>)
 8000912:	f04f 7280 	mov.w	r2, #16777216	; 0x1000000
 8000916:	629a      	str	r2, [r3, #40]	; 0x28
 8000918:	4b0d      	ldr	r3, [pc, #52]	; (8000950 <trace__configure_tracing+0x1c8>)
 800091a:	2218      	movs	r2, #24
 800091c:	62da      	str	r2, [r3, #44]	; 0x2c
 800091e:	4a0c      	ldr	r2, [pc, #48]	; (8000950 <trace__configure_tracing+0x1c8>)
 8000920:	4b0b      	ldr	r3, [pc, #44]	; (8000950 <trace__configure_tracing+0x1c8>)
 8000922:	681b      	ldr	r3, [r3, #0]
 8000924:	f423 6380 	bic.w	r3, r3, #1024	; 0x400
 8000928:	6013      	str	r3, [r2, #0]
 800092a:	e000      	b.n	800092e <trace__configure_tracing+0x1a6>
 800092c:	bf00      	nop
 800092e:	3724      	adds	r7, #36	; 0x24
 8000930:	46bd      	mov	sp, r7
 8000932:	f85d 7b04 	ldr.w	r7, [sp], #4
 8000936:	4770      	bx	lr
 8000938:	20000004 	.word	0x20000004
 800093c:	20000008 	.word	0x20000008
 8000940:	e0040000 	.word	0xe0040000
 8000944:	2000000c 	.word	0x2000000c
 8000948:	c5acce55 	.word	0xc5acce55
 800094c:	200002d0 	.word	0x200002d0
 8000950:	e0041000 	.word	0xe0041000

08000954 <trace__configure_watchpoint>:
 8000954:	b580      	push	{r7, lr}
 8000956:	b084      	sub	sp, #16
 8000958:	af00      	add	r7, sp, #0
 800095a:	60b9      	str	r1, [r7, #8]
 800095c:	607a      	str	r2, [r7, #4]
 800095e:	603b      	str	r3, [r7, #0]
 8000960:	4603      	mov	r3, r0
 8000962:	73fb      	strb	r3, [r7, #15]
 8000964:	7bfb      	ldrb	r3, [r7, #15]
 8000966:	2b03      	cmp	r3, #3
 8000968:	d903      	bls.n	8000972 <trace__configure_watchpoint+0x1e>
 800096a:	4821      	ldr	r0, [pc, #132]	; (80009f0 <trace__configure_watchpoint+0x9c>)
 800096c:	21a5      	movs	r1, #165	; 0xa5
 800096e:	f00a f861 	bl	800aa34 <__gnat_rcheck_CE_Invalid_Data>
 8000972:	7bfb      	ldrb	r3, [r7, #15]
 8000974:	b25b      	sxtb	r3, r3
 8000976:	2b01      	cmp	r3, #1
 8000978:	d010      	beq.n	800099c <trace__configure_watchpoint+0x48>
 800097a:	2b02      	cmp	r3, #2
 800097c:	d01b      	beq.n	80009b6 <trace__configure_watchpoint+0x62>
 800097e:	2b00      	cmp	r3, #0
 8000980:	d126      	bne.n	80009d0 <trace__configure_watchpoint+0x7c>
 8000982:	4b1c      	ldr	r3, [pc, #112]	; (80009f4 <trace__configure_watchpoint+0xa0>)
 8000984:	681b      	ldr	r3, [r3, #0]
 8000986:	683a      	ldr	r2, [r7, #0]
 8000988:	621a      	str	r2, [r3, #32]
 800098a:	4b1a      	ldr	r3, [pc, #104]	; (80009f4 <trace__configure_watchpoint+0xa0>)
 800098c:	681b      	ldr	r3, [r3, #0]
 800098e:	68ba      	ldr	r2, [r7, #8]
 8000990:	625a      	str	r2, [r3, #36]	; 0x24
 8000992:	4b18      	ldr	r3, [pc, #96]	; (80009f4 <trace__configure_watchpoint+0xa0>)
 8000994:	681b      	ldr	r3, [r3, #0]
 8000996:	687a      	ldr	r2, [r7, #4]
 8000998:	629a      	str	r2, [r3, #40]	; 0x28
 800099a:	e025      	b.n	80009e8 <trace__configure_watchpoint+0x94>
 800099c:	4b15      	ldr	r3, [pc, #84]	; (80009f4 <trace__configure_watchpoint+0xa0>)
 800099e:	681b      	ldr	r3, [r3, #0]
 80009a0:	683a      	ldr	r2, [r7, #0]
 80009a2:	631a      	str	r2, [r3, #48]	; 0x30
 80009a4:	4b13      	ldr	r3, [pc, #76]	; (80009f4 <trace__configure_watchpoint+0xa0>)
 80009a6:	681b      	ldr	r3, [r3, #0]
 80009a8:	68ba      	ldr	r2, [r7, #8]
 80009aa:	635a      	str	r2, [r3, #52]	; 0x34
 80009ac:	4b11      	ldr	r3, [pc, #68]	; (80009f4 <trace__configure_watchpoint+0xa0>)
 80009ae:	681b      	ldr	r3, [r3, #0]
 80009b0:	687a      	ldr	r2, [r7, #4]
 80009b2:	639a      	str	r2, [r3, #56]	; 0x38
 80009b4:	e018      	b.n	80009e8 <trace__configure_watchpoint+0x94>
 80009b6:	4b0f      	ldr	r3, [pc, #60]	; (80009f4 <trace__configure_watchpoint+0xa0>)
 80009b8:	681b      	ldr	r3, [r3, #0]
 80009ba:	683a      	ldr	r2, [r7, #0]
 80009bc:	641a      	str	r2, [r3, #64]	; 0x40
 80009be:	4b0d      	ldr	r3, [pc, #52]	; (80009f4 <trace__configure_watchpoint+0xa0>)
 80009c0:	681b      	ldr	r3, [r3, #0]
 80009c2:	68ba      	ldr	r2, [r7, #8]
 80009c4:	645a      	str	r2, [r3, #68]	; 0x44
 80009c6:	4b0b      	ldr	r3, [pc, #44]	; (80009f4 <trace__configure_watchpoint+0xa0>)
 80009c8:	681b      	ldr	r3, [r3, #0]
 80009ca:	687a      	ldr	r2, [r7, #4]
 80009cc:	649a      	str	r2, [r3, #72]	; 0x48
 80009ce:	e00b      	b.n	80009e8 <trace__configure_watchpoint+0x94>
 80009d0:	4b08      	ldr	r3, [pc, #32]	; (80009f4 <trace__configure_watchpoint+0xa0>)
 80009d2:	681b      	ldr	r3, [r3, #0]
 80009d4:	683a      	ldr	r2, [r7, #0]
 80009d6:	651a      	str	r2, [r3, #80]	; 0x50
 80009d8:	4b06      	ldr	r3, [pc, #24]	; (80009f4 <trace__configure_watchpoint+0xa0>)
 80009da:	681b      	ldr	r3, [r3, #0]
 80009dc:	68ba      	ldr	r2, [r7, #8]
 80009de:	655a      	str	r2, [r3, #84]	; 0x54
 80009e0:	4b04      	ldr	r3, [pc, #16]	; (80009f4 <trace__configure_watchpoint+0xa0>)
 80009e2:	681b      	ldr	r3, [r3, #0]
 80009e4:	687a      	ldr	r2, [r7, #4]
 80009e6:	659a      	str	r2, [r3, #88]	; 0x58
 80009e8:	bf00      	nop
 80009ea:	3710      	adds	r7, #16
 80009ec:	46bd      	mov	sp, r7
 80009ee:	bd80      	pop	{r7, pc}
 80009f0:	0800ea00 	.word	0x0800ea00
 80009f4:	2000000c 	.word	0x2000000c

080009f8 <trace___elabb>:
 80009f8:	b580      	push	{r7, lr}
 80009fa:	af00      	add	r7, sp, #0
 80009fc:	4802      	ldr	r0, [pc, #8]	; (8000a08 <trace___elabb+0x10>)
 80009fe:	2100      	movs	r1, #0
 8000a00:	f7ff feb6 	bl	8000770 <trace__tcr_registerIP>
 8000a04:	bd80      	pop	{r7, pc}
 8000a06:	bf00      	nop
 8000a08:	200002d0 	.word	0x200002d0

08000a0c <trace___elabs>:
 8000a0c:	b480      	push	{r7}
 8000a0e:	af00      	add	r7, sp, #0
 8000a10:	46bd      	mov	sp, r7
 8000a12:	f85d 7b04 	ldr.w	r7, [sp], #4
 8000a16:	4770      	bx	lr

08000a18 <vl53l1x__vl53l1_range_statusRP>:
 8000a18:	b580      	push	{r7, lr}
 8000a1a:	b082      	sub	sp, #8
 8000a1c:	af00      	add	r7, sp, #0
 8000a1e:	4603      	mov	r3, r0
 8000a20:	460a      	mov	r2, r1
 8000a22:	71fb      	strb	r3, [r7, #7]
 8000a24:	4613      	mov	r3, r2
 8000a26:	71bb      	strb	r3, [r7, #6]
 8000a28:	79fb      	ldrb	r3, [r7, #7]
 8000a2a:	2b07      	cmp	r3, #7
 8000a2c:	d02f      	beq.n	8000a8e <vl53l1x__vl53l1_range_statusRP+0x76>
 8000a2e:	2b07      	cmp	r3, #7
 8000a30:	d80d      	bhi.n	8000a4e <vl53l1x__vl53l1_range_statusRP+0x36>
 8000a32:	2b03      	cmp	r3, #3
 8000a34:	d023      	beq.n	8000a7e <vl53l1x__vl53l1_range_statusRP+0x66>
 8000a36:	2b03      	cmp	r3, #3
 8000a38:	d804      	bhi.n	8000a44 <vl53l1x__vl53l1_range_statusRP+0x2c>
 8000a3a:	2b01      	cmp	r3, #1
 8000a3c:	d01b      	beq.n	8000a76 <vl53l1x__vl53l1_range_statusRP+0x5e>
 8000a3e:	2b01      	cmp	r3, #1
 8000a40:	d81b      	bhi.n	8000a7a <vl53l1x__vl53l1_range_statusRP+0x62>
 8000a42:	e016      	b.n	8000a72 <vl53l1x__vl53l1_range_statusRP+0x5a>
 8000a44:	2b05      	cmp	r3, #5
 8000a46:	d01e      	beq.n	8000a86 <vl53l1x__vl53l1_range_statusRP+0x6e>
 8000a48:	2b05      	cmp	r3, #5
 8000a4a:	d81e      	bhi.n	8000a8a <vl53l1x__vl53l1_range_statusRP+0x72>
 8000a4c:	e019      	b.n	8000a82 <vl53l1x__vl53l1_range_statusRP+0x6a>
 8000a4e:	2b0b      	cmp	r3, #11
 8000a50:	d025      	beq.n	8000a9e <vl53l1x__vl53l1_range_statusRP+0x86>
 8000a52:	2b0b      	cmp	r3, #11
 8000a54:	d804      	bhi.n	8000a60 <vl53l1x__vl53l1_range_statusRP+0x48>
 8000a56:	2b09      	cmp	r3, #9
 8000a58:	d01d      	beq.n	8000a96 <vl53l1x__vl53l1_range_statusRP+0x7e>
 8000a5a:	2b09      	cmp	r3, #9
 8000a5c:	d81d      	bhi.n	8000a9a <vl53l1x__vl53l1_range_statusRP+0x82>
 8000a5e:	e018      	b.n	8000a92 <vl53l1x__vl53l1_range_statusRP+0x7a>
 8000a60:	2b0d      	cmp	r3, #13
 8000a62:	d020      	beq.n	8000aa6 <vl53l1x__vl53l1_range_statusRP+0x8e>
 8000a64:	2b0d      	cmp	r3, #13
 8000a66:	d31c      	bcc.n	8000aa2 <vl53l1x__vl53l1_range_statusRP+0x8a>
 8000a68:	2b0e      	cmp	r3, #14
 8000a6a:	d01e      	beq.n	8000aaa <vl53l1x__vl53l1_range_statusRP+0x92>
 8000a6c:	2bff      	cmp	r3, #255	; 0xff
 8000a6e:	d01e      	beq.n	8000aae <vl53l1x__vl53l1_range_statusRP+0x96>
 8000a70:	e01f      	b.n	8000ab2 <vl53l1x__vl53l1_range_statusRP+0x9a>
 8000a72:	2300      	movs	r3, #0
 8000a74:	e026      	b.n	8000ac4 <vl53l1x__vl53l1_range_statusRP+0xac>
 8000a76:	2301      	movs	r3, #1
 8000a78:	e024      	b.n	8000ac4 <vl53l1x__vl53l1_range_statusRP+0xac>
 8000a7a:	2302      	movs	r3, #2
 8000a7c:	e022      	b.n	8000ac4 <vl53l1x__vl53l1_range_statusRP+0xac>
 8000a7e:	2303      	movs	r3, #3
 8000a80:	e020      	b.n	8000ac4 <vl53l1x__vl53l1_range_statusRP+0xac>
 8000a82:	2304      	movs	r3, #4
 8000a84:	e01e      	b.n	8000ac4 <vl53l1x__vl53l1_range_statusRP+0xac>
 8000a86:	2305      	movs	r3, #5
 8000a88:	e01c      	b.n	8000ac4 <vl53l1x__vl53l1_range_statusRP+0xac>
 8000a8a:	2306      	movs	r3, #6
 8000a8c:	e01a      	b.n	8000ac4 <vl53l1x__vl53l1_range_statusRP+0xac>
 8000a8e:	2307      	movs	r3, #7
 8000a90:	e018      	b.n	8000ac4 <vl53l1x__vl53l1_range_statusRP+0xac>
 8000a92:	2308      	movs	r3, #8
 8000a94:	e016      	b.n	8000ac4 <vl53l1x__vl53l1_range_statusRP+0xac>
 8000a96:	2309      	movs	r3, #9
 8000a98:	e014      	b.n	8000ac4 <vl53l1x__vl53l1_range_statusRP+0xac>
 8000a9a:	230a      	movs	r3, #10
 8000a9c:	e012      	b.n	8000ac4 <vl53l1x__vl53l1_range_statusRP+0xac>
 8000a9e:	230b      	movs	r3, #11
 8000aa0:	e010      	b.n	8000ac4 <vl53l1x__vl53l1_range_statusRP+0xac>
 8000aa2:	230c      	movs	r3, #12
 8000aa4:	e00e      	b.n	8000ac4 <vl53l1x__vl53l1_range_statusRP+0xac>
 8000aa6:	230d      	movs	r3, #13
 8000aa8:	e00c      	b.n	8000ac4 <vl53l1x__vl53l1_range_statusRP+0xac>
 8000aaa:	230e      	movs	r3, #14
 8000aac:	e00a      	b.n	8000ac4 <vl53l1x__vl53l1_range_statusRP+0xac>
 8000aae:	230f      	movs	r3, #15
 8000ab0:	e008      	b.n	8000ac4 <vl53l1x__vl53l1_range_statusRP+0xac>
 8000ab2:	79bb      	ldrb	r3, [r7, #6]
 8000ab4:	2b00      	cmp	r3, #0
 8000ab6:	d003      	beq.n	8000ac0 <vl53l1x__vl53l1_range_statusRP+0xa8>
 8000ab8:	4804      	ldr	r0, [pc, #16]	; (8000acc <vl53l1x__vl53l1_range_statusRP+0xb4>)
 8000aba:	2142      	movs	r1, #66	; 0x42
 8000abc:	f009 ffba 	bl	800aa34 <__gnat_rcheck_CE_Invalid_Data>
 8000ac0:	f04f 33ff 	mov.w	r3, #4294967295
 8000ac4:	4618      	mov	r0, r3
 8000ac6:	3708      	adds	r7, #8
 8000ac8:	46bd      	mov	sp, r7
 8000aca:	bd80      	pop	{r7, pc}
 8000acc:	0800ea0c 	.word	0x0800ea0c

08000ad0 <vl53l1x__vl53l1x_ranging_sensorIP>:
 8000ad0:	b480      	push	{r7}
 8000ad2:	b083      	sub	sp, #12
 8000ad4:	af00      	add	r7, sp, #0
 8000ad6:	6078      	str	r0, [r7, #4]
 8000ad8:	6039      	str	r1, [r7, #0]
 8000ada:	687b      	ldr	r3, [r7, #4]
 8000adc:	683a      	ldr	r2, [r7, #0]
 8000ade:	601a      	str	r2, [r3, #0]
 8000ae0:	687b      	ldr	r3, [r7, #4]
 8000ae2:	2252      	movs	r2, #82	; 0x52
 8000ae4:	809a      	strh	r2, [r3, #4]
 8000ae6:	370c      	adds	r7, #12
 8000ae8:	46bd      	mov	sp, r7
 8000aea:	f85d 7b04 	ldr.w	r7, [sp], #4
 8000aee:	4770      	bx	lr

08000af0 <vl53l1x__i2c_write>:
 8000af0:	b590      	push	{r4, r7, lr}
 8000af2:	b089      	sub	sp, #36	; 0x24
 8000af4:	af02      	add	r7, sp, #8
 8000af6:	60f8      	str	r0, [r7, #12]
 8000af8:	e9c7 2300 	strd	r2, r3, [r7]
 8000afc:	68fb      	ldr	r3, [r7, #12]
 8000afe:	681b      	ldr	r3, [r3, #0]
 8000b00:	681b      	ldr	r3, [r3, #0]
 8000b02:	681c      	ldr	r4, [r3, #0]
 8000b04:	68fb      	ldr	r3, [r7, #12]
 8000b06:	6819      	ldr	r1, [r3, #0]
 8000b08:	68fb      	ldr	r3, [r7, #12]
 8000b0a:	889a      	ldrh	r2, [r3, #4]
 8000b0c:	f44f 737a 	mov.w	r3, #1000	; 0x3e8
 8000b10:	9300      	str	r3, [sp, #0]
 8000b12:	4608      	mov	r0, r1
 8000b14:	4611      	mov	r1, r2
 8000b16:	e9d7 2300 	ldrd	r2, r3, [r7]
 8000b1a:	47a0      	blx	r4
 8000b1c:	4603      	mov	r3, r0
 8000b1e:	75fb      	strb	r3, [r7, #23]
 8000b20:	7dfb      	ldrb	r3, [r7, #23]
 8000b22:	2b00      	cmp	r3, #0
 8000b24:	bf0c      	ite	eq
 8000b26:	2301      	moveq	r3, #1
 8000b28:	2300      	movne	r3, #0
 8000b2a:	b2db      	uxtb	r3, r3
 8000b2c:	75bb      	strb	r3, [r7, #22]
 8000b2e:	7dbb      	ldrb	r3, [r7, #22]
 8000b30:	bf00      	nop
 8000b32:	4618      	mov	r0, r3
 8000b34:	371c      	adds	r7, #28
 8000b36:	46bd      	mov	sp, r7
 8000b38:	bd90      	pop	{r4, r7, pc}
 8000b3a:	bf00      	nop

08000b3c <vl53l1x__i2c_read>:
 8000b3c:	b590      	push	{r4, r7, lr}
 8000b3e:	b089      	sub	sp, #36	; 0x24
 8000b40:	af02      	add	r7, sp, #8
 8000b42:	60f8      	str	r0, [r7, #12]
 8000b44:	e9c7 2300 	strd	r2, r3, [r7]
 8000b48:	68fb      	ldr	r3, [r7, #12]
 8000b4a:	681b      	ldr	r3, [r3, #0]
 8000b4c:	681b      	ldr	r3, [r3, #0]
 8000b4e:	685c      	ldr	r4, [r3, #4]
 8000b50:	68fb      	ldr	r3, [r7, #12]
 8000b52:	6819      	ldr	r1, [r3, #0]
 8000b54:	68fb      	ldr	r3, [r7, #12]
 8000b56:	889a      	ldrh	r2, [r3, #4]
 8000b58:	f44f 737a 	mov.w	r3, #1000	; 0x3e8
 8000b5c:	9300      	str	r3, [sp, #0]
 8000b5e:	4608      	mov	r0, r1
 8000b60:	4611      	mov	r1, r2
 8000b62:	e9d7 2300 	ldrd	r2, r3, [r7]
 8000b66:	47a0      	blx	r4
 8000b68:	4603      	mov	r3, r0
 8000b6a:	75fb      	strb	r3, [r7, #23]
 8000b6c:	7dfb      	ldrb	r3, [r7, #23]
 8000b6e:	2b00      	cmp	r3, #0
 8000b70:	bf0c      	ite	eq
 8000b72:	2301      	moveq	r3, #1
 8000b74:	2300      	movne	r3, #0
 8000b76:	b2db      	uxtb	r3, r3
 8000b78:	75bb      	strb	r3, [r7, #22]
 8000b7a:	7dbb      	ldrb	r3, [r7, #22]
 8000b7c:	bf00      	nop
 8000b7e:	4618      	mov	r0, r3
 8000b80:	371c      	adds	r7, #28
 8000b82:	46bd      	mov	sp, r7
 8000b84:	bd90      	pop	{r4, r7, pc}
 8000b86:	bf00      	nop

08000b88 <vl53l1x__write__2>:
 8000b88:	b5b0      	push	{r4, r5, r7, lr}
 8000b8a:	b084      	sub	sp, #16
 8000b8c:	af00      	add	r7, sp, #0
 8000b8e:	6078      	str	r0, [r7, #4]
 8000b90:	460b      	mov	r3, r1
 8000b92:	807b      	strh	r3, [r7, #2]
 8000b94:	4613      	mov	r3, r2
 8000b96:	707b      	strb	r3, [r7, #1]
 8000b98:	887b      	ldrh	r3, [r7, #2]
 8000b9a:	0a1b      	lsrs	r3, r3, #8
 8000b9c:	b29b      	uxth	r3, r3
 8000b9e:	2bff      	cmp	r3, #255	; 0xff
 8000ba0:	d903      	bls.n	8000baa <vl53l1x__write__2+0x22>
 8000ba2:	4815      	ldr	r0, [pc, #84]	; (8000bf8 <vl53l1x__write__2+0x70>)
 8000ba4:	216d      	movs	r1, #109	; 0x6d
 8000ba6:	f009 ff55 	bl	800aa54 <__gnat_rcheck_CE_Range_Check>
 8000baa:	887b      	ldrh	r3, [r7, #2]
 8000bac:	0a1b      	lsrs	r3, r3, #8
 8000bae:	b29b      	uxth	r3, r3
 8000bb0:	73fb      	strb	r3, [r7, #15]
 8000bb2:	887b      	ldrh	r3, [r7, #2]
 8000bb4:	b2db      	uxtb	r3, r3
 8000bb6:	b29b      	uxth	r3, r3
 8000bb8:	2bff      	cmp	r3, #255	; 0xff
 8000bba:	d903      	bls.n	8000bc4 <vl53l1x__write__2+0x3c>
 8000bbc:	480e      	ldr	r0, [pc, #56]	; (8000bf8 <vl53l1x__write__2+0x70>)
 8000bbe:	216e      	movs	r1, #110	; 0x6e
 8000bc0:	f009 ff48 	bl	800aa54 <__gnat_rcheck_CE_Range_Check>
 8000bc4:	887b      	ldrh	r3, [r7, #2]
 8000bc6:	73bb      	strb	r3, [r7, #14]
 8000bc8:	7bfb      	ldrb	r3, [r7, #15]
 8000bca:	723b      	strb	r3, [r7, #8]
 8000bcc:	7bbb      	ldrb	r3, [r7, #14]
 8000bce:	727b      	strb	r3, [r7, #9]
 8000bd0:	787b      	ldrb	r3, [r7, #1]
 8000bd2:	72bb      	strb	r3, [r7, #10]
 8000bd4:	f107 0308 	add.w	r3, r7, #8
 8000bd8:	461c      	mov	r4, r3
 8000bda:	4d08      	ldr	r5, [pc, #32]	; (8000bfc <vl53l1x__write__2+0x74>)
 8000bdc:	6878      	ldr	r0, [r7, #4]
 8000bde:	4622      	mov	r2, r4
 8000be0:	462b      	mov	r3, r5
 8000be2:	f7ff ff85 	bl	8000af0 <vl53l1x__i2c_write>
 8000be6:	4603      	mov	r3, r0
 8000be8:	737b      	strb	r3, [r7, #13]
 8000bea:	7b7b      	ldrb	r3, [r7, #13]
 8000bec:	bf00      	nop
 8000bee:	4618      	mov	r0, r3
 8000bf0:	3710      	adds	r7, #16
 8000bf2:	46bd      	mov	sp, r7
 8000bf4:	bdb0      	pop	{r4, r5, r7, pc}
 8000bf6:	bf00      	nop
 8000bf8:	0800ea18 	.word	0x0800ea18
 8000bfc:	0800ea24 	.word	0x0800ea24

08000c00 <vl53l1x__write__3>:
 8000c00:	b5b0      	push	{r4, r5, r7, lr}
 8000c02:	b084      	sub	sp, #16
 8000c04:	af00      	add	r7, sp, #0
 8000c06:	6078      	str	r0, [r7, #4]
 8000c08:	460b      	mov	r3, r1
 8000c0a:	807b      	strh	r3, [r7, #2]
 8000c0c:	4613      	mov	r3, r2
 8000c0e:	803b      	strh	r3, [r7, #0]
 8000c10:	887b      	ldrh	r3, [r7, #2]
 8000c12:	0a1b      	lsrs	r3, r3, #8
 8000c14:	b29b      	uxth	r3, r3
 8000c16:	2bff      	cmp	r3, #255	; 0xff
 8000c18:	d903      	bls.n	8000c22 <vl53l1x__write__3+0x22>
 8000c1a:	4821      	ldr	r0, [pc, #132]	; (8000ca0 <vl53l1x__write__3+0xa0>)
 8000c1c:	217d      	movs	r1, #125	; 0x7d
 8000c1e:	f009 ff19 	bl	800aa54 <__gnat_rcheck_CE_Range_Check>
 8000c22:	887b      	ldrh	r3, [r7, #2]
 8000c24:	0a1b      	lsrs	r3, r3, #8
 8000c26:	b29b      	uxth	r3, r3
 8000c28:	73fb      	strb	r3, [r7, #15]
 8000c2a:	887b      	ldrh	r3, [r7, #2]
 8000c2c:	b2db      	uxtb	r3, r3
 8000c2e:	b29b      	uxth	r3, r3
 8000c30:	2bff      	cmp	r3, #255	; 0xff
 8000c32:	d903      	bls.n	8000c3c <vl53l1x__write__3+0x3c>
 8000c34:	481a      	ldr	r0, [pc, #104]	; (8000ca0 <vl53l1x__write__3+0xa0>)
 8000c36:	217e      	movs	r1, #126	; 0x7e
 8000c38:	f009 ff0c 	bl	800aa54 <__gnat_rcheck_CE_Range_Check>
 8000c3c:	887b      	ldrh	r3, [r7, #2]
 8000c3e:	73bb      	strb	r3, [r7, #14]
 8000c40:	883b      	ldrh	r3, [r7, #0]
 8000c42:	0a1b      	lsrs	r3, r3, #8
 8000c44:	b29b      	uxth	r3, r3
 8000c46:	2bff      	cmp	r3, #255	; 0xff
 8000c48:	d903      	bls.n	8000c52 <vl53l1x__write__3+0x52>
 8000c4a:	4815      	ldr	r0, [pc, #84]	; (8000ca0 <vl53l1x__write__3+0xa0>)
 8000c4c:	2183      	movs	r1, #131	; 0x83
 8000c4e:	f009 ff01 	bl	800aa54 <__gnat_rcheck_CE_Range_Check>
 8000c52:	883b      	ldrh	r3, [r7, #0]
 8000c54:	b2db      	uxtb	r3, r3
 8000c56:	b29b      	uxth	r3, r3
 8000c58:	2bff      	cmp	r3, #255	; 0xff
 8000c5a:	d903      	bls.n	8000c64 <vl53l1x__write__3+0x64>
 8000c5c:	4810      	ldr	r0, [pc, #64]	; (8000ca0 <vl53l1x__write__3+0xa0>)
 8000c5e:	2184      	movs	r1, #132	; 0x84
 8000c60:	f009 fef8 	bl	800aa54 <__gnat_rcheck_CE_Range_Check>
 8000c64:	7bfb      	ldrb	r3, [r7, #15]
 8000c66:	723b      	strb	r3, [r7, #8]
 8000c68:	7bbb      	ldrb	r3, [r7, #14]
 8000c6a:	727b      	strb	r3, [r7, #9]
 8000c6c:	883b      	ldrh	r3, [r7, #0]
 8000c6e:	0a1b      	lsrs	r3, r3, #8
 8000c70:	b29b      	uxth	r3, r3
 8000c72:	b2db      	uxtb	r3, r3
 8000c74:	72bb      	strb	r3, [r7, #10]
 8000c76:	883b      	ldrh	r3, [r7, #0]
 8000c78:	b2db      	uxtb	r3, r3
 8000c7a:	72fb      	strb	r3, [r7, #11]
 8000c7c:	f107 0308 	add.w	r3, r7, #8
 8000c80:	461c      	mov	r4, r3
 8000c82:	4d08      	ldr	r5, [pc, #32]	; (8000ca4 <vl53l1x__write__3+0xa4>)
 8000c84:	6878      	ldr	r0, [r7, #4]
 8000c86:	4622      	mov	r2, r4
 8000c88:	462b      	mov	r3, r5
 8000c8a:	f7ff ff31 	bl	8000af0 <vl53l1x__i2c_write>
 8000c8e:	4603      	mov	r3, r0
 8000c90:	737b      	strb	r3, [r7, #13]
 8000c92:	7b7b      	ldrb	r3, [r7, #13]
 8000c94:	bf00      	nop
 8000c96:	4618      	mov	r0, r3
 8000c98:	3710      	adds	r7, #16
 8000c9a:	46bd      	mov	sp, r7
 8000c9c:	bdb0      	pop	{r4, r5, r7, pc}
 8000c9e:	bf00      	nop
 8000ca0:	0800ea18 	.word	0x0800ea18
 8000ca4:	0800ea2c 	.word	0x0800ea2c

08000ca8 <vl53l1x__write__4>:
 8000ca8:	b5b0      	push	{r4, r5, r7, lr}
 8000caa:	b088      	sub	sp, #32
 8000cac:	af00      	add	r7, sp, #0
 8000cae:	60f8      	str	r0, [r7, #12]
 8000cb0:	460b      	mov	r3, r1
 8000cb2:	607a      	str	r2, [r7, #4]
 8000cb4:	817b      	strh	r3, [r7, #10]
 8000cb6:	897b      	ldrh	r3, [r7, #10]
 8000cb8:	0a1b      	lsrs	r3, r3, #8
 8000cba:	b29b      	uxth	r3, r3
 8000cbc:	2bff      	cmp	r3, #255	; 0xff
 8000cbe:	d903      	bls.n	8000cc8 <vl53l1x__write__4+0x20>
 8000cc0:	482c      	ldr	r0, [pc, #176]	; (8000d74 <vl53l1x__write__4+0xcc>)
 8000cc2:	2192      	movs	r1, #146	; 0x92
 8000cc4:	f009 fec6 	bl	800aa54 <__gnat_rcheck_CE_Range_Check>
 8000cc8:	897b      	ldrh	r3, [r7, #10]
 8000cca:	0a1b      	lsrs	r3, r3, #8
 8000ccc:	b29b      	uxth	r3, r3
 8000cce:	77fb      	strb	r3, [r7, #31]
 8000cd0:	897b      	ldrh	r3, [r7, #10]
 8000cd2:	b2db      	uxtb	r3, r3
 8000cd4:	b29b      	uxth	r3, r3
 8000cd6:	2bff      	cmp	r3, #255	; 0xff
 8000cd8:	d903      	bls.n	8000ce2 <vl53l1x__write__4+0x3a>
 8000cda:	4826      	ldr	r0, [pc, #152]	; (8000d74 <vl53l1x__write__4+0xcc>)
 8000cdc:	2193      	movs	r1, #147	; 0x93
 8000cde:	f009 feb9 	bl	800aa54 <__gnat_rcheck_CE_Range_Check>
 8000ce2:	897b      	ldrh	r3, [r7, #10]
 8000ce4:	77bb      	strb	r3, [r7, #30]
 8000ce6:	687b      	ldr	r3, [r7, #4]
 8000ce8:	0e1b      	lsrs	r3, r3, #24
 8000cea:	2bff      	cmp	r3, #255	; 0xff
 8000cec:	d903      	bls.n	8000cf6 <vl53l1x__write__4+0x4e>
 8000cee:	4821      	ldr	r0, [pc, #132]	; (8000d74 <vl53l1x__write__4+0xcc>)
 8000cf0:	2198      	movs	r1, #152	; 0x98
 8000cf2:	f009 feaf 	bl	800aa54 <__gnat_rcheck_CE_Range_Check>
 8000cf6:	687b      	ldr	r3, [r7, #4]
 8000cf8:	0c1b      	lsrs	r3, r3, #16
 8000cfa:	b2db      	uxtb	r3, r3
 8000cfc:	2bff      	cmp	r3, #255	; 0xff
 8000cfe:	d903      	bls.n	8000d08 <vl53l1x__write__4+0x60>
 8000d00:	481c      	ldr	r0, [pc, #112]	; (8000d74 <vl53l1x__write__4+0xcc>)
 8000d02:	2199      	movs	r1, #153	; 0x99
 8000d04:	f009 fea6 	bl	800aa54 <__gnat_rcheck_CE_Range_Check>
 8000d08:	687b      	ldr	r3, [r7, #4]
 8000d0a:	0a1b      	lsrs	r3, r3, #8
 8000d0c:	b2db      	uxtb	r3, r3
 8000d0e:	2bff      	cmp	r3, #255	; 0xff
 8000d10:	d903      	bls.n	8000d1a <vl53l1x__write__4+0x72>
 8000d12:	4818      	ldr	r0, [pc, #96]	; (8000d74 <vl53l1x__write__4+0xcc>)
 8000d14:	219a      	movs	r1, #154	; 0x9a
 8000d16:	f009 fe9d 	bl	800aa54 <__gnat_rcheck_CE_Range_Check>
 8000d1a:	687b      	ldr	r3, [r7, #4]
 8000d1c:	b2db      	uxtb	r3, r3
 8000d1e:	2bff      	cmp	r3, #255	; 0xff
 8000d20:	d903      	bls.n	8000d2a <vl53l1x__write__4+0x82>
 8000d22:	4814      	ldr	r0, [pc, #80]	; (8000d74 <vl53l1x__write__4+0xcc>)
 8000d24:	219b      	movs	r1, #155	; 0x9b
 8000d26:	f009 fe95 	bl	800aa54 <__gnat_rcheck_CE_Range_Check>
 8000d2a:	7ffb      	ldrb	r3, [r7, #31]
 8000d2c:	753b      	strb	r3, [r7, #20]
 8000d2e:	7fbb      	ldrb	r3, [r7, #30]
 8000d30:	757b      	strb	r3, [r7, #21]
 8000d32:	687b      	ldr	r3, [r7, #4]
 8000d34:	0e1b      	lsrs	r3, r3, #24
 8000d36:	b2db      	uxtb	r3, r3
 8000d38:	75bb      	strb	r3, [r7, #22]
 8000d3a:	687b      	ldr	r3, [r7, #4]
 8000d3c:	0c1b      	lsrs	r3, r3, #16
 8000d3e:	b2db      	uxtb	r3, r3
 8000d40:	75fb      	strb	r3, [r7, #23]
 8000d42:	687b      	ldr	r3, [r7, #4]
 8000d44:	0a1b      	lsrs	r3, r3, #8
 8000d46:	b2db      	uxtb	r3, r3
 8000d48:	763b      	strb	r3, [r7, #24]
 8000d4a:	687b      	ldr	r3, [r7, #4]
 8000d4c:	b2db      	uxtb	r3, r3
 8000d4e:	767b      	strb	r3, [r7, #25]
 8000d50:	f107 0314 	add.w	r3, r7, #20
 8000d54:	461c      	mov	r4, r3
 8000d56:	4d08      	ldr	r5, [pc, #32]	; (8000d78 <vl53l1x__write__4+0xd0>)
 8000d58:	68f8      	ldr	r0, [r7, #12]
 8000d5a:	4622      	mov	r2, r4
 8000d5c:	462b      	mov	r3, r5
 8000d5e:	f7ff fec7 	bl	8000af0 <vl53l1x__i2c_write>
 8000d62:	4603      	mov	r3, r0
 8000d64:	777b      	strb	r3, [r7, #29]
 8000d66:	7f7b      	ldrb	r3, [r7, #29]
 8000d68:	bf00      	nop
 8000d6a:	4618      	mov	r0, r3
 8000d6c:	3720      	adds	r7, #32
 8000d6e:	46bd      	mov	sp, r7
 8000d70:	bdb0      	pop	{r4, r5, r7, pc}
 8000d72:	bf00      	nop
 8000d74:	0800ea18 	.word	0x0800ea18
 8000d78:	0800ea34 	.word	0x0800ea34

08000d7c <vl53l1x__read>:
 8000d7c:	b5b0      	push	{r4, r5, r7, lr}
 8000d7e:	b086      	sub	sp, #24
 8000d80:	af00      	add	r7, sp, #0
 8000d82:	60f8      	str	r0, [r7, #12]
 8000d84:	e9c7 2300 	strd	r2, r3, [r7]
 8000d88:	460b      	mov	r3, r1
 8000d8a:	817b      	strh	r3, [r7, #10]
 8000d8c:	897b      	ldrh	r3, [r7, #10]
 8000d8e:	0a1b      	lsrs	r3, r3, #8
 8000d90:	b29b      	uxth	r3, r3
 8000d92:	2bff      	cmp	r3, #255	; 0xff
 8000d94:	d903      	bls.n	8000d9e <vl53l1x__read+0x22>
 8000d96:	4819      	ldr	r0, [pc, #100]	; (8000dfc <vl53l1x__read+0x80>)
 8000d98:	21a9      	movs	r1, #169	; 0xa9
 8000d9a:	f009 fe5b 	bl	800aa54 <__gnat_rcheck_CE_Range_Check>
 8000d9e:	897b      	ldrh	r3, [r7, #10]
 8000da0:	0a1b      	lsrs	r3, r3, #8
 8000da2:	b29b      	uxth	r3, r3
 8000da4:	75fb      	strb	r3, [r7, #23]
 8000da6:	897b      	ldrh	r3, [r7, #10]
 8000da8:	b2db      	uxtb	r3, r3
 8000daa:	b29b      	uxth	r3, r3
 8000dac:	2bff      	cmp	r3, #255	; 0xff
 8000dae:	d903      	bls.n	8000db8 <vl53l1x__read+0x3c>
 8000db0:	4812      	ldr	r0, [pc, #72]	; (8000dfc <vl53l1x__read+0x80>)
 8000db2:	21aa      	movs	r1, #170	; 0xaa
 8000db4:	f009 fe4e 	bl	800aa54 <__gnat_rcheck_CE_Range_Check>
 8000db8:	897b      	ldrh	r3, [r7, #10]
 8000dba:	75bb      	strb	r3, [r7, #22]
 8000dbc:	7dfb      	ldrb	r3, [r7, #23]
 8000dbe:	743b      	strb	r3, [r7, #16]
 8000dc0:	7dbb      	ldrb	r3, [r7, #22]
 8000dc2:	747b      	strb	r3, [r7, #17]
 8000dc4:	f107 0310 	add.w	r3, r7, #16
 8000dc8:	461c      	mov	r4, r3
 8000dca:	4d0d      	ldr	r5, [pc, #52]	; (8000e00 <vl53l1x__read+0x84>)
 8000dcc:	68f8      	ldr	r0, [r7, #12]
 8000dce:	4622      	mov	r2, r4
 8000dd0:	462b      	mov	r3, r5
 8000dd2:	f7ff fe8d 	bl	8000af0 <vl53l1x__i2c_write>
 8000dd6:	4603      	mov	r3, r0
 8000dd8:	757b      	strb	r3, [r7, #21]
 8000dda:	7d7b      	ldrb	r3, [r7, #21]
 8000ddc:	2b00      	cmp	r3, #0
 8000dde:	d006      	beq.n	8000dee <vl53l1x__read+0x72>
 8000de0:	68f8      	ldr	r0, [r7, #12]
 8000de2:	e9d7 2300 	ldrd	r2, r3, [r7]
 8000de6:	f7ff fea9 	bl	8000b3c <vl53l1x__i2c_read>
 8000dea:	4603      	mov	r3, r0
 8000dec:	757b      	strb	r3, [r7, #21]
 8000dee:	7d7b      	ldrb	r3, [r7, #21]
 8000df0:	bf00      	nop
 8000df2:	4618      	mov	r0, r3
 8000df4:	3718      	adds	r7, #24
 8000df6:	46bd      	mov	sp, r7
 8000df8:	bdb0      	pop	{r4, r5, r7, pc}
 8000dfa:	bf00      	nop
 8000dfc:	0800ea18 	.word	0x0800ea18
 8000e00:	0800ea3c 	.word	0x0800ea3c

08000e04 <vl53l1x__read__2>:
 8000e04:	e92d 43f0 	stmdb	sp!, {r4, r5, r6, r7, r8, r9, lr}
 8000e08:	b087      	sub	sp, #28
 8000e0a:	af00      	add	r7, sp, #0
 8000e0c:	6078      	str	r0, [r7, #4]
 8000e0e:	460b      	mov	r3, r1
 8000e10:	807b      	strh	r3, [r7, #2]
 8000e12:	887b      	ldrh	r3, [r7, #2]
 8000e14:	0a1b      	lsrs	r3, r3, #8
 8000e16:	b29b      	uxth	r3, r3
 8000e18:	2bff      	cmp	r3, #255	; 0xff
 8000e1a:	d903      	bls.n	8000e24 <vl53l1x__read__2+0x20>
 8000e1c:	4821      	ldr	r0, [pc, #132]	; (8000ea4 <vl53l1x__read__2+0xa0>)
 8000e1e:	21bc      	movs	r1, #188	; 0xbc
 8000e20:	f009 fe18 	bl	800aa54 <__gnat_rcheck_CE_Range_Check>
 8000e24:	887b      	ldrh	r3, [r7, #2]
 8000e26:	0a1b      	lsrs	r3, r3, #8
 8000e28:	b29b      	uxth	r3, r3
 8000e2a:	75fb      	strb	r3, [r7, #23]
 8000e2c:	887b      	ldrh	r3, [r7, #2]
 8000e2e:	b2db      	uxtb	r3, r3
 8000e30:	b29b      	uxth	r3, r3
 8000e32:	2bff      	cmp	r3, #255	; 0xff
 8000e34:	d903      	bls.n	8000e3e <vl53l1x__read__2+0x3a>
 8000e36:	481b      	ldr	r0, [pc, #108]	; (8000ea4 <vl53l1x__read__2+0xa0>)
 8000e38:	21bd      	movs	r1, #189	; 0xbd
 8000e3a:	f009 fe0b 	bl	800aa54 <__gnat_rcheck_CE_Range_Check>
 8000e3e:	887b      	ldrh	r3, [r7, #2]
 8000e40:	75bb      	strb	r3, [r7, #22]
 8000e42:	7dfb      	ldrb	r3, [r7, #23]
 8000e44:	733b      	strb	r3, [r7, #12]
 8000e46:	7dbb      	ldrb	r3, [r7, #22]
 8000e48:	737b      	strb	r3, [r7, #13]
 8000e4a:	f107 030c 	add.w	r3, r7, #12
 8000e4e:	4698      	mov	r8, r3
 8000e50:	f8df 9058 	ldr.w	r9, [pc, #88]	; 8000eac <vl53l1x__read__2+0xa8>
 8000e54:	6878      	ldr	r0, [r7, #4]
 8000e56:	4642      	mov	r2, r8
 8000e58:	464b      	mov	r3, r9
 8000e5a:	f7ff fe49 	bl	8000af0 <vl53l1x__i2c_write>
 8000e5e:	4603      	mov	r3, r0
 8000e60:	753b      	strb	r3, [r7, #20]
 8000e62:	7d3b      	ldrb	r3, [r7, #20]
 8000e64:	2b00      	cmp	r3, #0
 8000e66:	d00c      	beq.n	8000e82 <vl53l1x__read__2+0x7e>
 8000e68:	f107 0310 	add.w	r3, r7, #16
 8000e6c:	461d      	mov	r5, r3
 8000e6e:	4e0e      	ldr	r6, [pc, #56]	; (8000ea8 <vl53l1x__read__2+0xa4>)
 8000e70:	6878      	ldr	r0, [r7, #4]
 8000e72:	462a      	mov	r2, r5
 8000e74:	4633      	mov	r3, r6
 8000e76:	f7ff fe61 	bl	8000b3c <vl53l1x__i2c_read>
 8000e7a:	4603      	mov	r3, r0
 8000e7c:	753b      	strb	r3, [r7, #20]
 8000e7e:	7c3b      	ldrb	r3, [r7, #16]
 8000e80:	757b      	strb	r3, [r7, #21]
 8000e82:	7d7b      	ldrb	r3, [r7, #21]
 8000e84:	f363 0407 	bfi	r4, r3, #0, #8
 8000e88:	7d3b      	ldrb	r3, [r7, #20]
 8000e8a:	f363 240f 	bfi	r4, r3, #8, #8
 8000e8e:	4623      	mov	r3, r4
 8000e90:	e003      	b.n	8000e9a <vl53l1x__read__2+0x96>
 8000e92:	4603      	mov	r3, r0
 8000e94:	4618      	mov	r0, r3
 8000e96:	f00b fe3b 	bl	800cb10 <_Unwind_Resume>
 8000e9a:	4618      	mov	r0, r3
 8000e9c:	371c      	adds	r7, #28
 8000e9e:	46bd      	mov	sp, r7
 8000ea0:	e8bd 83f0 	ldmia.w	sp!, {r4, r5, r6, r7, r8, r9, pc}
 8000ea4:	0800ea18 	.word	0x0800ea18
 8000ea8:	0800ea44 	.word	0x0800ea44
 8000eac:	0800ea3c 	.word	0x0800ea3c

08000eb0 <vl53l1x__read__3>:
 8000eb0:	e92d 43f0 	stmdb	sp!, {r4, r5, r6, r7, r8, r9, lr}
 8000eb4:	b087      	sub	sp, #28
 8000eb6:	af00      	add	r7, sp, #0
 8000eb8:	6078      	str	r0, [r7, #4]
 8000eba:	460b      	mov	r3, r1
 8000ebc:	807b      	strh	r3, [r7, #2]
 8000ebe:	887b      	ldrh	r3, [r7, #2]
 8000ec0:	0a1b      	lsrs	r3, r3, #8
 8000ec2:	b29b      	uxth	r3, r3
 8000ec4:	2bff      	cmp	r3, #255	; 0xff
 8000ec6:	d903      	bls.n	8000ed0 <vl53l1x__read__3+0x20>
 8000ec8:	4825      	ldr	r0, [pc, #148]	; (8000f60 <vl53l1x__read__3+0xb0>)
 8000eca:	21d1      	movs	r1, #209	; 0xd1
 8000ecc:	f009 fdc2 	bl	800aa54 <__gnat_rcheck_CE_Range_Check>
 8000ed0:	887b      	ldrh	r3, [r7, #2]
 8000ed2:	0a1b      	lsrs	r3, r3, #8
 8000ed4:	b29b      	uxth	r3, r3
 8000ed6:	75fb      	strb	r3, [r7, #23]
 8000ed8:	887b      	ldrh	r3, [r7, #2]
 8000eda:	b2db      	uxtb	r3, r3
 8000edc:	b29b      	uxth	r3, r3
 8000ede:	2bff      	cmp	r3, #255	; 0xff
 8000ee0:	d903      	bls.n	8000eea <vl53l1x__read__3+0x3a>
 8000ee2:	481f      	ldr	r0, [pc, #124]	; (8000f60 <vl53l1x__read__3+0xb0>)
 8000ee4:	21d2      	movs	r1, #210	; 0xd2
 8000ee6:	f009 fdb5 	bl	800aa54 <__gnat_rcheck_CE_Range_Check>
 8000eea:	887b      	ldrh	r3, [r7, #2]
 8000eec:	75bb      	strb	r3, [r7, #22]
 8000eee:	7dfb      	ldrb	r3, [r7, #23]
 8000ef0:	733b      	strb	r3, [r7, #12]
 8000ef2:	7dbb      	ldrb	r3, [r7, #22]
 8000ef4:	737b      	strb	r3, [r7, #13]
 8000ef6:	f107 030c 	add.w	r3, r7, #12
 8000efa:	4698      	mov	r8, r3
 8000efc:	f8df 9064 	ldr.w	r9, [pc, #100]	; 8000f64 <vl53l1x__read__3+0xb4>
 8000f00:	6878      	ldr	r0, [r7, #4]
 8000f02:	4642      	mov	r2, r8
 8000f04:	464b      	mov	r3, r9
 8000f06:	f7ff fdf3 	bl	8000af0 <vl53l1x__i2c_write>
 8000f0a:	4603      	mov	r3, r0
 8000f0c:	74fb      	strb	r3, [r7, #19]
 8000f0e:	7cfb      	ldrb	r3, [r7, #19]
 8000f10:	2b00      	cmp	r3, #0
 8000f12:	d013      	beq.n	8000f3c <vl53l1x__read__3+0x8c>
 8000f14:	f107 0310 	add.w	r3, r7, #16
 8000f18:	461d      	mov	r5, r3
 8000f1a:	4e12      	ldr	r6, [pc, #72]	; (8000f64 <vl53l1x__read__3+0xb4>)
 8000f1c:	6878      	ldr	r0, [r7, #4]
 8000f1e:	462a      	mov	r2, r5
 8000f20:	4633      	mov	r3, r6
 8000f22:	f7ff fe0b 	bl	8000b3c <vl53l1x__i2c_read>
 8000f26:	4603      	mov	r3, r0
 8000f28:	74fb      	strb	r3, [r7, #19]
 8000f2a:	7c3b      	ldrb	r3, [r7, #16]
 8000f2c:	b29b      	uxth	r3, r3
 8000f2e:	021b      	lsls	r3, r3, #8
 8000f30:	b29a      	uxth	r2, r3
 8000f32:	7c7b      	ldrb	r3, [r7, #17]
 8000f34:	b29b      	uxth	r3, r3
 8000f36:	4313      	orrs	r3, r2
 8000f38:	b29b      	uxth	r3, r3
 8000f3a:	82bb      	strh	r3, [r7, #20]
 8000f3c:	8abb      	ldrh	r3, [r7, #20]
 8000f3e:	f363 040f 	bfi	r4, r3, #0, #16
 8000f42:	7cfb      	ldrb	r3, [r7, #19]
 8000f44:	f363 4417 	bfi	r4, r3, #16, #8
 8000f48:	4623      	mov	r3, r4
 8000f4a:	e003      	b.n	8000f54 <vl53l1x__read__3+0xa4>
 8000f4c:	4603      	mov	r3, r0
 8000f4e:	4618      	mov	r0, r3
 8000f50:	f00b fdde 	bl	800cb10 <_Unwind_Resume>
 8000f54:	4618      	mov	r0, r3
 8000f56:	371c      	adds	r7, #28
 8000f58:	46bd      	mov	sp, r7
 8000f5a:	e8bd 83f0 	ldmia.w	sp!, {r4, r5, r6, r7, r8, r9, pc}
 8000f5e:	bf00      	nop
 8000f60:	0800ea18 	.word	0x0800ea18
 8000f64:	0800ea3c 	.word	0x0800ea3c

08000f68 <vl53l1x__calcmacroperiod>:
 8000f68:	b580      	push	{r7, lr}
 8000f6a:	b086      	sub	sp, #24
 8000f6c:	af00      	add	r7, sp, #0
 8000f6e:	6078      	str	r0, [r7, #4]
 8000f70:	460b      	mov	r3, r1
 8000f72:	70fb      	strb	r3, [r7, #3]
 8000f74:	687b      	ldr	r3, [r7, #4]
 8000f76:	891b      	ldrh	r3, [r3, #8]
 8000f78:	2b00      	cmp	r3, #0
 8000f7a:	d103      	bne.n	8000f84 <vl53l1x__calcmacroperiod+0x1c>
 8000f7c:	4813      	ldr	r0, [pc, #76]	; (8000fcc <vl53l1x__calcmacroperiod+0x64>)
 8000f7e:	21f9      	movs	r1, #249	; 0xf9
 8000f80:	f009 fd40 	bl	800aa04 <__gnat_rcheck_CE_Divide_By_Zero>
 8000f84:	687b      	ldr	r3, [r7, #4]
 8000f86:	891b      	ldrh	r3, [r3, #8]
 8000f88:	461a      	mov	r2, r3
 8000f8a:	f04f 4380 	mov.w	r3, #1073741824	; 0x40000000
 8000f8e:	fbb3 f3f2 	udiv	r3, r3, r2
 8000f92:	617b      	str	r3, [r7, #20]
 8000f94:	78fb      	ldrb	r3, [r7, #3]
 8000f96:	3301      	adds	r3, #1
 8000f98:	b2db      	uxtb	r3, r3
 8000f9a:	005b      	lsls	r3, r3, #1
 8000f9c:	74fb      	strb	r3, [r7, #19]
 8000f9e:	697a      	ldr	r2, [r7, #20]
 8000fa0:	4613      	mov	r3, r2
 8000fa2:	00db      	lsls	r3, r3, #3
 8000fa4:	4413      	add	r3, r2
 8000fa6:	021b      	lsls	r3, r3, #8
 8000fa8:	60fb      	str	r3, [r7, #12]
 8000faa:	68fb      	ldr	r3, [r7, #12]
 8000fac:	099b      	lsrs	r3, r3, #6
 8000fae:	60fb      	str	r3, [r7, #12]
 8000fb0:	7cfa      	ldrb	r2, [r7, #19]
 8000fb2:	68fb      	ldr	r3, [r7, #12]
 8000fb4:	fb02 f303 	mul.w	r3, r2, r3
 8000fb8:	60fb      	str	r3, [r7, #12]
 8000fba:	68fb      	ldr	r3, [r7, #12]
 8000fbc:	099b      	lsrs	r3, r3, #6
 8000fbe:	60fb      	str	r3, [r7, #12]
 8000fc0:	68fb      	ldr	r3, [r7, #12]
 8000fc2:	bf00      	nop
 8000fc4:	4618      	mov	r0, r3
 8000fc6:	3718      	adds	r7, #24
 8000fc8:	46bd      	mov	sp, r7
 8000fca:	bd80      	pop	{r7, pc}
 8000fcc:	0800ea18 	.word	0x0800ea18

08000fd0 <vl53l1x__timeoutmclkstomicroseconds>:
 8000fd0:	b590      	push	{r4, r7, lr}
 8000fd2:	b087      	sub	sp, #28
 8000fd4:	af00      	add	r7, sp, #0
 8000fd6:	6078      	str	r0, [r7, #4]
 8000fd8:	6039      	str	r1, [r7, #0]
 8000fda:	687a      	ldr	r2, [r7, #4]
 8000fdc:	6839      	ldr	r1, [r7, #0]
 8000fde:	fb01 f202 	mul.w	r2, r1, r2
 8000fe2:	f502 6200 	add.w	r2, r2, #2048	; 0x800
 8000fe6:	4611      	mov	r1, r2
 8000fe8:	f04f 0200 	mov.w	r2, #0
 8000fec:	e9c7 1204 	strd	r1, r2, [r7, #16]
 8000ff0:	e9d7 1204 	ldrd	r1, r2, [r7, #16]
 8000ff4:	0b0b      	lsrs	r3, r1, #12
 8000ff6:	ea43 5302 	orr.w	r3, r3, r2, lsl #20
 8000ffa:	0b14      	lsrs	r4, r2, #12
 8000ffc:	2c01      	cmp	r4, #1
 8000ffe:	bf08      	it	eq
 8001000:	2b00      	cmpeq	r3, #0
 8001002:	d304      	bcc.n	800100e <vl53l1x__timeoutmclkstomicroseconds+0x3e>
 8001004:	4805      	ldr	r0, [pc, #20]	; (800101c <vl53l1x__timeoutmclkstomicroseconds+0x4c>)
 8001006:	f44f 7189 	mov.w	r1, #274	; 0x112
 800100a:	f009 fd23 	bl	800aa54 <__gnat_rcheck_CE_Range_Check>
 800100e:	60fb      	str	r3, [r7, #12]
 8001010:	68fb      	ldr	r3, [r7, #12]
 8001012:	bf00      	nop
 8001014:	4618      	mov	r0, r3
 8001016:	371c      	adds	r7, #28
 8001018:	46bd      	mov	sp, r7
 800101a:	bd90      	pop	{r4, r7, pc}
 800101c:	0800ea18 	.word	0x0800ea18

08001020 <vl53l1x__timeoutmicrosecondstomclks>:
 8001020:	b580      	push	{r7, lr}
 8001022:	b082      	sub	sp, #8
 8001024:	af00      	add	r7, sp, #0
 8001026:	6078      	str	r0, [r7, #4]
 8001028:	6039      	str	r1, [r7, #0]
 800102a:	683b      	ldr	r3, [r7, #0]
 800102c:	2b00      	cmp	r3, #0
 800102e:	d104      	bne.n	800103a <vl53l1x__timeoutmicrosecondstomclks+0x1a>
 8001030:	4808      	ldr	r0, [pc, #32]	; (8001054 <vl53l1x__timeoutmicrosecondstomclks+0x34>)
 8001032:	f240 1119 	movw	r1, #281	; 0x119
 8001036:	f009 fce5 	bl	800aa04 <__gnat_rcheck_CE_Divide_By_Zero>
 800103a:	687b      	ldr	r3, [r7, #4]
 800103c:	031a      	lsls	r2, r3, #12
 800103e:	683b      	ldr	r3, [r7, #0]
 8001040:	085b      	lsrs	r3, r3, #1
 8001042:	441a      	add	r2, r3
 8001044:	683b      	ldr	r3, [r7, #0]
 8001046:	fbb2 f3f3 	udiv	r3, r2, r3
 800104a:	bf00      	nop
 800104c:	4618      	mov	r0, r3
 800104e:	3708      	adds	r7, #8
 8001050:	46bd      	mov	sp, r7
 8001052:	bd80      	pop	{r7, pc}
 8001054:	0800ea18 	.word	0x0800ea18

08001058 <vl53l1x__encodetimeout>:
 8001058:	b580      	push	{r7, lr}
 800105a:	b084      	sub	sp, #16
 800105c:	af00      	add	r7, sp, #0
 800105e:	6078      	str	r0, [r7, #4]
 8001060:	2300      	movs	r3, #0
 8001062:	60fb      	str	r3, [r7, #12]
 8001064:	2300      	movs	r3, #0
 8001066:	817b      	strh	r3, [r7, #10]
 8001068:	687b      	ldr	r3, [r7, #4]
 800106a:	2b00      	cmp	r3, #0
 800106c:	d01f      	beq.n	80010ae <vl53l1x__encodetimeout+0x56>
 800106e:	687b      	ldr	r3, [r7, #4]
 8001070:	3b01      	subs	r3, #1
 8001072:	60fb      	str	r3, [r7, #12]
 8001074:	68fb      	ldr	r3, [r7, #12]
 8001076:	f023 03ff 	bic.w	r3, r3, #255	; 0xff
 800107a:	2b00      	cmp	r3, #0
 800107c:	d006      	beq.n	800108c <vl53l1x__encodetimeout+0x34>
 800107e:	68fb      	ldr	r3, [r7, #12]
 8001080:	085b      	lsrs	r3, r3, #1
 8001082:	60fb      	str	r3, [r7, #12]
 8001084:	897b      	ldrh	r3, [r7, #10]
 8001086:	3301      	adds	r3, #1
 8001088:	817b      	strh	r3, [r7, #10]
 800108a:	e7f3      	b.n	8001074 <vl53l1x__encodetimeout+0x1c>
 800108c:	68fb      	ldr	r3, [r7, #12]
 800108e:	b2db      	uxtb	r3, r3
 8001090:	f5b3 3f80 	cmp.w	r3, #65536	; 0x10000
 8001094:	d304      	bcc.n	80010a0 <vl53l1x__encodetimeout+0x48>
 8001096:	4809      	ldr	r0, [pc, #36]	; (80010bc <vl53l1x__encodetimeout+0x64>)
 8001098:	f44f 7195 	mov.w	r1, #298	; 0x12a
 800109c:	f009 fcda 	bl	800aa54 <__gnat_rcheck_CE_Range_Check>
 80010a0:	897a      	ldrh	r2, [r7, #10]
 80010a2:	0212      	lsls	r2, r2, #8
 80010a4:	b292      	uxth	r2, r2
 80010a6:	b29b      	uxth	r3, r3
 80010a8:	4313      	orrs	r3, r2
 80010aa:	b29b      	uxth	r3, r3
 80010ac:	e000      	b.n	80010b0 <vl53l1x__encodetimeout+0x58>
 80010ae:	2300      	movs	r3, #0
 80010b0:	bf00      	nop
 80010b2:	4618      	mov	r0, r3
 80010b4:	3710      	adds	r7, #16
 80010b6:	46bd      	mov	sp, r7
 80010b8:	bd80      	pop	{r7, pc}
 80010ba:	bf00      	nop
 80010bc:	0800ea18 	.word	0x0800ea18

080010c0 <vl53l1x__gettimeout>:
 80010c0:	b480      	push	{r7}
 80010c2:	b083      	sub	sp, #12
 80010c4:	af00      	add	r7, sp, #0
 80010c6:	6078      	str	r0, [r7, #4]
 80010c8:	687b      	ldr	r3, [r7, #4]
 80010ca:	89db      	ldrh	r3, [r3, #14]
 80010cc:	bf00      	nop
 80010ce:	4618      	mov	r0, r3
 80010d0:	370c      	adds	r7, #12
 80010d2:	46bd      	mov	sp, r7
 80010d4:	f85d 7b04 	ldr.w	r7, [sp], #4
 80010d8:	4770      	bx	lr
 80010da:	bf00      	nop

080010dc <vl53l1x__setmeasurementtimingbudget>:
 80010dc:	b580      	push	{r7, lr}
 80010de:	b088      	sub	sp, #32
 80010e0:	af00      	add	r7, sp, #0
 80010e2:	6078      	str	r0, [r7, #4]
 80010e4:	6039      	str	r1, [r7, #0]
 80010e6:	683b      	ldr	r3, [r7, #0]
 80010e8:	f5a3 538d 	sub.w	r3, r3, #4512	; 0x11a0
 80010ec:	3b10      	subs	r3, #16
 80010ee:	61bb      	str	r3, [r7, #24]
 80010f0:	69bb      	ldr	r3, [r7, #24]
 80010f2:	617b      	str	r3, [r7, #20]
 80010f4:	683b      	ldr	r3, [r7, #0]
 80010f6:	f241 12b0 	movw	r2, #4528	; 0x11b0
 80010fa:	4293      	cmp	r3, r2
 80010fc:	d802      	bhi.n	8001104 <vl53l1x__setmeasurementtimingbudget+0x28>
 80010fe:	2300      	movs	r3, #0
 8001100:	72fb      	strb	r3, [r7, #11]
 8001102:	e08a      	b.n	800121a <vl53l1x__setmeasurementtimingbudget+0x13e>
 8001104:	697b      	ldr	r3, [r7, #20]
 8001106:	4a48      	ldr	r2, [pc, #288]	; (8001228 <vl53l1x__setmeasurementtimingbudget+0x14c>)
 8001108:	4293      	cmp	r3, r2
 800110a:	d902      	bls.n	8001112 <vl53l1x__setmeasurementtimingbudget+0x36>
 800110c:	2300      	movs	r3, #0
 800110e:	72fb      	strb	r3, [r7, #11]
 8001110:	e083      	b.n	800121a <vl53l1x__setmeasurementtimingbudget+0x13e>
 8001112:	697b      	ldr	r3, [r7, #20]
 8001114:	085b      	lsrs	r3, r3, #1
 8001116:	617b      	str	r3, [r7, #20]
 8001118:	6878      	ldr	r0, [r7, #4]
 800111a:	2160      	movs	r1, #96	; 0x60
 800111c:	f7ff fe72 	bl	8000e04 <vl53l1x__read__2>
 8001120:	4603      	mov	r3, r0
 8001122:	461a      	mov	r2, r3
 8001124:	74fa      	strb	r2, [r7, #19]
 8001126:	f3c3 2307 	ubfx	r3, r3, #8, #8
 800112a:	74bb      	strb	r3, [r7, #18]
 800112c:	7cfb      	ldrb	r3, [r7, #19]
 800112e:	6878      	ldr	r0, [r7, #4]
 8001130:	4619      	mov	r1, r3
 8001132:	f7ff ff19 	bl	8000f68 <vl53l1x__calcmacroperiod>
 8001136:	4603      	mov	r3, r0
 8001138:	60fb      	str	r3, [r7, #12]
 800113a:	f44f 707a 	mov.w	r0, #1000	; 0x3e8
 800113e:	68f9      	ldr	r1, [r7, #12]
 8001140:	f7ff ff6e 	bl	8001020 <vl53l1x__timeoutmicrosecondstomclks>
 8001144:	4603      	mov	r3, r0
 8001146:	61fb      	str	r3, [r7, #28]
 8001148:	69fb      	ldr	r3, [r7, #28]
 800114a:	2bff      	cmp	r3, #255	; 0xff
 800114c:	d901      	bls.n	8001152 <vl53l1x__setmeasurementtimingbudget+0x76>
 800114e:	23ff      	movs	r3, #255	; 0xff
 8001150:	61fb      	str	r3, [r7, #28]
 8001152:	69fb      	ldr	r3, [r7, #28]
 8001154:	b2db      	uxtb	r3, r3
 8001156:	2bff      	cmp	r3, #255	; 0xff
 8001158:	d904      	bls.n	8001164 <vl53l1x__setmeasurementtimingbudget+0x88>
 800115a:	4834      	ldr	r0, [pc, #208]	; (800122c <vl53l1x__setmeasurementtimingbudget+0x150>)
 800115c:	f240 1161 	movw	r1, #353	; 0x161
 8001160:	f009 fc78 	bl	800aa54 <__gnat_rcheck_CE_Range_Check>
 8001164:	b2db      	uxtb	r3, r3
 8001166:	6878      	ldr	r0, [r7, #4]
 8001168:	214b      	movs	r1, #75	; 0x4b
 800116a:	461a      	mov	r2, r3
 800116c:	f7ff fd0c 	bl	8000b88 <vl53l1x__write__2>
 8001170:	4603      	mov	r3, r0
 8001172:	74bb      	strb	r3, [r7, #18]
 8001174:	2001      	movs	r0, #1
 8001176:	68f9      	ldr	r1, [r7, #12]
 8001178:	f7ff ff52 	bl	8001020 <vl53l1x__timeoutmicrosecondstomclks>
 800117c:	4603      	mov	r3, r0
 800117e:	4618      	mov	r0, r3
 8001180:	f7ff ff6a 	bl	8001058 <vl53l1x__encodetimeout>
 8001184:	4603      	mov	r3, r0
 8001186:	6878      	ldr	r0, [r7, #4]
 8001188:	215a      	movs	r1, #90	; 0x5a
 800118a:	461a      	mov	r2, r3
 800118c:	f7ff fd38 	bl	8000c00 <vl53l1x__write__3>
 8001190:	4603      	mov	r3, r0
 8001192:	74bb      	strb	r3, [r7, #18]
 8001194:	6978      	ldr	r0, [r7, #20]
 8001196:	68f9      	ldr	r1, [r7, #12]
 8001198:	f7ff ff42 	bl	8001020 <vl53l1x__timeoutmicrosecondstomclks>
 800119c:	4603      	mov	r3, r0
 800119e:	4618      	mov	r0, r3
 80011a0:	f7ff ff5a 	bl	8001058 <vl53l1x__encodetimeout>
 80011a4:	4603      	mov	r3, r0
 80011a6:	6878      	ldr	r0, [r7, #4]
 80011a8:	215e      	movs	r1, #94	; 0x5e
 80011aa:	461a      	mov	r2, r3
 80011ac:	f7ff fd28 	bl	8000c00 <vl53l1x__write__3>
 80011b0:	4603      	mov	r3, r0
 80011b2:	74bb      	strb	r3, [r7, #18]
 80011b4:	6878      	ldr	r0, [r7, #4]
 80011b6:	2163      	movs	r1, #99	; 0x63
 80011b8:	f7ff fe24 	bl	8000e04 <vl53l1x__read__2>
 80011bc:	4603      	mov	r3, r0
 80011be:	461a      	mov	r2, r3
 80011c0:	74fa      	strb	r2, [r7, #19]
 80011c2:	f3c3 2307 	ubfx	r3, r3, #8, #8
 80011c6:	74bb      	strb	r3, [r7, #18]
 80011c8:	7cfb      	ldrb	r3, [r7, #19]
 80011ca:	6878      	ldr	r0, [r7, #4]
 80011cc:	4619      	mov	r1, r3
 80011ce:	f7ff fecb 	bl	8000f68 <vl53l1x__calcmacroperiod>
 80011d2:	4603      	mov	r3, r0
 80011d4:	60fb      	str	r3, [r7, #12]
 80011d6:	2001      	movs	r0, #1
 80011d8:	68f9      	ldr	r1, [r7, #12]
 80011da:	f7ff ff21 	bl	8001020 <vl53l1x__timeoutmicrosecondstomclks>
 80011de:	4603      	mov	r3, r0
 80011e0:	4618      	mov	r0, r3
 80011e2:	f7ff ff39 	bl	8001058 <vl53l1x__encodetimeout>
 80011e6:	4603      	mov	r3, r0
 80011e8:	6878      	ldr	r0, [r7, #4]
 80011ea:	215c      	movs	r1, #92	; 0x5c
 80011ec:	461a      	mov	r2, r3
 80011ee:	f7ff fd07 	bl	8000c00 <vl53l1x__write__3>
 80011f2:	4603      	mov	r3, r0
 80011f4:	74bb      	strb	r3, [r7, #18]
 80011f6:	6978      	ldr	r0, [r7, #20]
 80011f8:	68f9      	ldr	r1, [r7, #12]
 80011fa:	f7ff ff11 	bl	8001020 <vl53l1x__timeoutmicrosecondstomclks>
 80011fe:	4603      	mov	r3, r0
 8001200:	4618      	mov	r0, r3
 8001202:	f7ff ff29 	bl	8001058 <vl53l1x__encodetimeout>
 8001206:	4603      	mov	r3, r0
 8001208:	6878      	ldr	r0, [r7, #4]
 800120a:	2161      	movs	r1, #97	; 0x61
 800120c:	461a      	mov	r2, r3
 800120e:	f7ff fcf7 	bl	8000c00 <vl53l1x__write__3>
 8001212:	4603      	mov	r3, r0
 8001214:	74bb      	strb	r3, [r7, #18]
 8001216:	2301      	movs	r3, #1
 8001218:	72fb      	strb	r3, [r7, #11]
 800121a:	7afb      	ldrb	r3, [r7, #11]
 800121c:	bf00      	nop
 800121e:	4618      	mov	r0, r3
 8001220:	3720      	adds	r7, #32
 8001222:	46bd      	mov	sp, r7
 8001224:	bd80      	pop	{r7, pc}
 8001226:	bf00      	nop
 8001228:	0010c8e0 	.word	0x0010c8e0
 800122c:	0800ea18 	.word	0x0800ea18

08001230 <vl53l1x__decodetimeout>:
 8001230:	b480      	push	{r7}
 8001232:	b085      	sub	sp, #20
 8001234:	af00      	add	r7, sp, #0
 8001236:	4603      	mov	r3, r0
 8001238:	80fb      	strh	r3, [r7, #6]
 800123a:	88fb      	ldrh	r3, [r7, #6]
 800123c:	0a1b      	lsrs	r3, r3, #8
 800123e:	b29b      	uxth	r3, r3
 8001240:	60fb      	str	r3, [r7, #12]
 8001242:	68fb      	ldr	r3, [r7, #12]
 8001244:	2b0f      	cmp	r3, #15
 8001246:	dc09      	bgt.n	800125c <vl53l1x__decodetimeout+0x2c>
 8001248:	88fb      	ldrh	r3, [r7, #6]
 800124a:	b2db      	uxtb	r3, r3
 800124c:	b29a      	uxth	r2, r3
 800124e:	68fb      	ldr	r3, [r7, #12]
 8001250:	fa02 f303 	lsl.w	r3, r2, r3
 8001254:	b29b      	uxth	r3, r3
 8001256:	3301      	adds	r3, #1
 8001258:	b29b      	uxth	r3, r3
 800125a:	e000      	b.n	800125e <vl53l1x__decodetimeout+0x2e>
 800125c:	2301      	movs	r3, #1
 800125e:	60bb      	str	r3, [r7, #8]
 8001260:	68bb      	ldr	r3, [r7, #8]
 8001262:	bf00      	nop
 8001264:	4618      	mov	r0, r3
 8001266:	3714      	adds	r7, #20
 8001268:	46bd      	mov	sp, r7
 800126a:	f85d 7b04 	ldr.w	r7, [sp], #4
 800126e:	4770      	bx	lr

08001270 <vl53l1x__getmeasurementtimingbudget>:
 8001270:	b580      	push	{r7, lr}
 8001272:	b086      	sub	sp, #24
 8001274:	af00      	add	r7, sp, #0
 8001276:	6078      	str	r0, [r7, #4]
 8001278:	6878      	ldr	r0, [r7, #4]
 800127a:	2160      	movs	r1, #96	; 0x60
 800127c:	f7ff fdc2 	bl	8000e04 <vl53l1x__read__2>
 8001280:	4603      	mov	r3, r0
 8001282:	461a      	mov	r2, r3
 8001284:	75fa      	strb	r2, [r7, #23]
 8001286:	f3c3 2307 	ubfx	r3, r3, #8, #8
 800128a:	75bb      	strb	r3, [r7, #22]
 800128c:	7dfb      	ldrb	r3, [r7, #23]
 800128e:	6878      	ldr	r0, [r7, #4]
 8001290:	4619      	mov	r1, r3
 8001292:	f7ff fe69 	bl	8000f68 <vl53l1x__calcmacroperiod>
 8001296:	4603      	mov	r3, r0
 8001298:	613b      	str	r3, [r7, #16]
 800129a:	6878      	ldr	r0, [r7, #4]
 800129c:	215e      	movs	r1, #94	; 0x5e
 800129e:	f7ff fe07 	bl	8000eb0 <vl53l1x__read__3>
 80012a2:	4603      	mov	r3, r0
 80012a4:	461a      	mov	r2, r3
 80012a6:	81fa      	strh	r2, [r7, #14]
 80012a8:	f3c3 4307 	ubfx	r3, r3, #16, #8
 80012ac:	75bb      	strb	r3, [r7, #22]
 80012ae:	89fb      	ldrh	r3, [r7, #14]
 80012b0:	4618      	mov	r0, r3
 80012b2:	f7ff ffbd 	bl	8001230 <vl53l1x__decodetimeout>
 80012b6:	4603      	mov	r3, r0
 80012b8:	4618      	mov	r0, r3
 80012ba:	6939      	ldr	r1, [r7, #16]
 80012bc:	f7ff fe88 	bl	8000fd0 <vl53l1x__timeoutmclkstomicroseconds>
 80012c0:	4603      	mov	r3, r0
 80012c2:	60bb      	str	r3, [r7, #8]
 80012c4:	68bb      	ldr	r3, [r7, #8]
 80012c6:	f603 03d8 	addw	r3, r3, #2264	; 0x8d8
 80012ca:	005b      	lsls	r3, r3, #1
 80012cc:	bf00      	nop
 80012ce:	4618      	mov	r0, r3
 80012d0:	3718      	adds	r7, #24
 80012d2:	46bd      	mov	sp, r7
 80012d4:	bd80      	pop	{r7, pc}
 80012d6:	bf00      	nop

080012d8 <vl53l1x__setdistancemode>:
 80012d8:	b580      	push	{r7, lr}
 80012da:	b084      	sub	sp, #16
 80012dc:	af00      	add	r7, sp, #0
 80012de:	6078      	str	r0, [r7, #4]
 80012e0:	460b      	mov	r3, r1
 80012e2:	70fb      	strb	r3, [r7, #3]
 80012e4:	6878      	ldr	r0, [r7, #4]
 80012e6:	f7ff ffc3 	bl	8001270 <vl53l1x__getmeasurementtimingbudget>
 80012ea:	4603      	mov	r3, r0
 80012ec:	60fb      	str	r3, [r7, #12]
 80012ee:	78fb      	ldrb	r3, [r7, #3]
 80012f0:	2b02      	cmp	r3, #2
 80012f2:	d904      	bls.n	80012fe <vl53l1x__setdistancemode+0x26>
 80012f4:	4856      	ldr	r0, [pc, #344]	; (8001450 <vl53l1x__setdistancemode+0x178>)
 80012f6:	f240 11b5 	movw	r1, #437	; 0x1b5
 80012fa:	f009 fb9b 	bl	800aa34 <__gnat_rcheck_CE_Invalid_Data>
 80012fe:	78fb      	ldrb	r3, [r7, #3]
 8001300:	2b00      	cmp	r3, #0
 8001302:	d002      	beq.n	800130a <vl53l1x__setdistancemode+0x32>
 8001304:	2b01      	cmp	r3, #1
 8001306:	d032      	beq.n	800136e <vl53l1x__setdistancemode+0x96>
 8001308:	e063      	b.n	80013d2 <vl53l1x__setdistancemode+0xfa>
 800130a:	6878      	ldr	r0, [r7, #4]
 800130c:	2160      	movs	r1, #96	; 0x60
 800130e:	2207      	movs	r2, #7
 8001310:	f7ff fc3a 	bl	8000b88 <vl53l1x__write__2>
 8001314:	4603      	mov	r3, r0
 8001316:	72fb      	strb	r3, [r7, #11]
 8001318:	6878      	ldr	r0, [r7, #4]
 800131a:	2163      	movs	r1, #99	; 0x63
 800131c:	2205      	movs	r2, #5
 800131e:	f7ff fc33 	bl	8000b88 <vl53l1x__write__2>
 8001322:	4603      	mov	r3, r0
 8001324:	72fb      	strb	r3, [r7, #11]
 8001326:	6878      	ldr	r0, [r7, #4]
 8001328:	2169      	movs	r1, #105	; 0x69
 800132a:	2238      	movs	r2, #56	; 0x38
 800132c:	f7ff fc2c 	bl	8000b88 <vl53l1x__write__2>
 8001330:	4603      	mov	r3, r0
 8001332:	72fb      	strb	r3, [r7, #11]
 8001334:	6878      	ldr	r0, [r7, #4]
 8001336:	2178      	movs	r1, #120	; 0x78
 8001338:	2207      	movs	r2, #7
 800133a:	f7ff fc25 	bl	8000b88 <vl53l1x__write__2>
 800133e:	4603      	mov	r3, r0
 8001340:	72fb      	strb	r3, [r7, #11]
 8001342:	6878      	ldr	r0, [r7, #4]
 8001344:	2179      	movs	r1, #121	; 0x79
 8001346:	2205      	movs	r2, #5
 8001348:	f7ff fc1e 	bl	8000b88 <vl53l1x__write__2>
 800134c:	4603      	mov	r3, r0
 800134e:	72fb      	strb	r3, [r7, #11]
 8001350:	6878      	ldr	r0, [r7, #4]
 8001352:	217a      	movs	r1, #122	; 0x7a
 8001354:	2206      	movs	r2, #6
 8001356:	f7ff fc17 	bl	8000b88 <vl53l1x__write__2>
 800135a:	4603      	mov	r3, r0
 800135c:	72fb      	strb	r3, [r7, #11]
 800135e:	6878      	ldr	r0, [r7, #4]
 8001360:	217b      	movs	r1, #123	; 0x7b
 8001362:	2206      	movs	r2, #6
 8001364:	f7ff fc10 	bl	8000b88 <vl53l1x__write__2>
 8001368:	4603      	mov	r3, r0
 800136a:	72fb      	strb	r3, [r7, #11]
 800136c:	e062      	b.n	8001434 <vl53l1x__setdistancemode+0x15c>
 800136e:	6878      	ldr	r0, [r7, #4]
 8001370:	2160      	movs	r1, #96	; 0x60
 8001372:	220b      	movs	r2, #11
 8001374:	f7ff fc08 	bl	8000b88 <vl53l1x__write__2>
 8001378:	4603      	mov	r3, r0
 800137a:	72fb      	strb	r3, [r7, #11]
 800137c:	6878      	ldr	r0, [r7, #4]
 800137e:	2163      	movs	r1, #99	; 0x63
 8001380:	2209      	movs	r2, #9
 8001382:	f7ff fc01 	bl	8000b88 <vl53l1x__write__2>
 8001386:	4603      	mov	r3, r0
 8001388:	72fb      	strb	r3, [r7, #11]
 800138a:	6878      	ldr	r0, [r7, #4]
 800138c:	2169      	movs	r1, #105	; 0x69
 800138e:	2278      	movs	r2, #120	; 0x78
 8001390:	f7ff fbfa 	bl	8000b88 <vl53l1x__write__2>
 8001394:	4603      	mov	r3, r0
 8001396:	72fb      	strb	r3, [r7, #11]
 8001398:	6878      	ldr	r0, [r7, #4]
 800139a:	2178      	movs	r1, #120	; 0x78
 800139c:	220b      	movs	r2, #11
 800139e:	f7ff fbf3 	bl	8000b88 <vl53l1x__write__2>
 80013a2:	4603      	mov	r3, r0
 80013a4:	72fb      	strb	r3, [r7, #11]
 80013a6:	6878      	ldr	r0, [r7, #4]
 80013a8:	2179      	movs	r1, #121	; 0x79
 80013aa:	2209      	movs	r2, #9
 80013ac:	f7ff fbec 	bl	8000b88 <vl53l1x__write__2>
 80013b0:	4603      	mov	r3, r0
 80013b2:	72fb      	strb	r3, [r7, #11]
 80013b4:	6878      	ldr	r0, [r7, #4]
 80013b6:	217a      	movs	r1, #122	; 0x7a
 80013b8:	220a      	movs	r2, #10
 80013ba:	f7ff fbe5 	bl	8000b88 <vl53l1x__write__2>
 80013be:	4603      	mov	r3, r0
 80013c0:	72fb      	strb	r3, [r7, #11]
 80013c2:	6878      	ldr	r0, [r7, #4]
 80013c4:	217b      	movs	r1, #123	; 0x7b
 80013c6:	220a      	movs	r2, #10
 80013c8:	f7ff fbde 	bl	8000b88 <vl53l1x__write__2>
 80013cc:	4603      	mov	r3, r0
 80013ce:	72fb      	strb	r3, [r7, #11]
 80013d0:	e030      	b.n	8001434 <vl53l1x__setdistancemode+0x15c>
 80013d2:	6878      	ldr	r0, [r7, #4]
 80013d4:	2160      	movs	r1, #96	; 0x60
 80013d6:	220f      	movs	r2, #15
 80013d8:	f7ff fbd6 	bl	8000b88 <vl53l1x__write__2>
 80013dc:	4603      	mov	r3, r0
 80013de:	72fb      	strb	r3, [r7, #11]
 80013e0:	6878      	ldr	r0, [r7, #4]
 80013e2:	2163      	movs	r1, #99	; 0x63
 80013e4:	220d      	movs	r2, #13
 80013e6:	f7ff fbcf 	bl	8000b88 <vl53l1x__write__2>
 80013ea:	4603      	mov	r3, r0
 80013ec:	72fb      	strb	r3, [r7, #11]
 80013ee:	6878      	ldr	r0, [r7, #4]
 80013f0:	2169      	movs	r1, #105	; 0x69
 80013f2:	22b8      	movs	r2, #184	; 0xb8
 80013f4:	f7ff fbc8 	bl	8000b88 <vl53l1x__write__2>
 80013f8:	4603      	mov	r3, r0
 80013fa:	72fb      	strb	r3, [r7, #11]
 80013fc:	6878      	ldr	r0, [r7, #4]
 80013fe:	2178      	movs	r1, #120	; 0x78
 8001400:	220f      	movs	r2, #15
 8001402:	f7ff fbc1 	bl	8000b88 <vl53l1x__write__2>
 8001406:	4603      	mov	r3, r0
 8001408:	72fb      	strb	r3, [r7, #11]
 800140a:	6878      	ldr	r0, [r7, #4]
 800140c:	2179      	movs	r1, #121	; 0x79
 800140e:	220d      	movs	r2, #13
 8001410:	f7ff fbba 	bl	8000b88 <vl53l1x__write__2>
 8001414:	4603      	mov	r3, r0
 8001416:	72fb      	strb	r3, [r7, #11]
 8001418:	6878      	ldr	r0, [r7, #4]
 800141a:	217a      	movs	r1, #122	; 0x7a
 800141c:	220e      	movs	r2, #14
 800141e:	f7ff fbb3 	bl	8000b88 <vl53l1x__write__2>
 8001422:	4603      	mov	r3, r0
 8001424:	72fb      	strb	r3, [r7, #11]
 8001426:	6878      	ldr	r0, [r7, #4]
 8001428:	217b      	movs	r1, #123	; 0x7b
 800142a:	220e      	movs	r2, #14
 800142c:	f7ff fbac 	bl	8000b88 <vl53l1x__write__2>
 8001430:	4603      	mov	r3, r0
 8001432:	72fb      	strb	r3, [r7, #11]
 8001434:	bf00      	nop
 8001436:	6878      	ldr	r0, [r7, #4]
 8001438:	68f9      	ldr	r1, [r7, #12]
 800143a:	f7ff fe4f 	bl	80010dc <vl53l1x__setmeasurementtimingbudget>
 800143e:	4603      	mov	r3, r0
 8001440:	72fb      	strb	r3, [r7, #11]
 8001442:	687b      	ldr	r3, [r7, #4]
 8001444:	78fa      	ldrb	r2, [r7, #3]
 8001446:	731a      	strb	r2, [r3, #12]
 8001448:	3710      	adds	r7, #16
 800144a:	46bd      	mov	sp, r7
 800144c:	bd80      	pop	{r7, pc}
 800144e:	bf00      	nop
 8001450:	0800ea18 	.word	0x0800ea18

08001454 <vl53l1x__startcontinuous>:
 8001454:	b580      	push	{r7, lr}
 8001456:	b084      	sub	sp, #16
 8001458:	af00      	add	r7, sp, #0
 800145a:	6078      	str	r0, [r7, #4]
 800145c:	6039      	str	r1, [r7, #0]
 800145e:	687b      	ldr	r3, [r7, #4]
 8001460:	895b      	ldrh	r3, [r3, #10]
 8001462:	461a      	mov	r2, r3
 8001464:	683b      	ldr	r3, [r7, #0]
 8001466:	fb03 f302 	mul.w	r3, r3, r2
 800146a:	60fb      	str	r3, [r7, #12]
 800146c:	6878      	ldr	r0, [r7, #4]
 800146e:	216c      	movs	r1, #108	; 0x6c
 8001470:	68fa      	ldr	r2, [r7, #12]
 8001472:	f7ff fc19 	bl	8000ca8 <vl53l1x__write__4>
 8001476:	4603      	mov	r3, r0
 8001478:	72fb      	strb	r3, [r7, #11]
 800147a:	6878      	ldr	r0, [r7, #4]
 800147c:	2186      	movs	r1, #134	; 0x86
 800147e:	2201      	movs	r2, #1
 8001480:	f7ff fb82 	bl	8000b88 <vl53l1x__write__2>
 8001484:	4603      	mov	r3, r0
 8001486:	72fb      	strb	r3, [r7, #11]
 8001488:	6878      	ldr	r0, [r7, #4]
 800148a:	2187      	movs	r1, #135	; 0x87
 800148c:	2240      	movs	r2, #64	; 0x40
 800148e:	f7ff fb7b 	bl	8000b88 <vl53l1x__write__2>
 8001492:	4603      	mov	r3, r0
 8001494:	72fb      	strb	r3, [r7, #11]
 8001496:	3710      	adds	r7, #16
 8001498:	46bd      	mov	sp, r7
 800149a:	bd80      	pop	{r7, pc}

0800149c <vl53l1x__setupmanualcalibration>:
 800149c:	b580      	push	{r7, lr}
 800149e:	b084      	sub	sp, #16
 80014a0:	af00      	add	r7, sp, #0
 80014a2:	6078      	str	r0, [r7, #4]
 80014a4:	6878      	ldr	r0, [r7, #4]
 80014a6:	210b      	movs	r1, #11
 80014a8:	f7ff fcac 	bl	8000e04 <vl53l1x__read__2>
 80014ac:	4603      	mov	r3, r0
 80014ae:	461a      	mov	r2, r3
 80014b0:	73fa      	strb	r2, [r7, #15]
 80014b2:	f3c3 2307 	ubfx	r3, r3, #8, #8
 80014b6:	73bb      	strb	r3, [r7, #14]
 80014b8:	687b      	ldr	r3, [r7, #4]
 80014ba:	7bfa      	ldrb	r2, [r7, #15]
 80014bc:	745a      	strb	r2, [r3, #17]
 80014be:	6878      	ldr	r0, [r7, #4]
 80014c0:	2108      	movs	r1, #8
 80014c2:	f7ff fc9f 	bl	8000e04 <vl53l1x__read__2>
 80014c6:	4603      	mov	r3, r0
 80014c8:	461a      	mov	r2, r3
 80014ca:	73fa      	strb	r2, [r7, #15]
 80014cc:	f3c3 2307 	ubfx	r3, r3, #8, #8
 80014d0:	73bb      	strb	r3, [r7, #14]
 80014d2:	687b      	ldr	r3, [r7, #4]
 80014d4:	7bfa      	ldrb	r2, [r7, #15]
 80014d6:	749a      	strb	r2, [r3, #18]
 80014d8:	687b      	ldr	r3, [r7, #4]
 80014da:	7c5b      	ldrb	r3, [r3, #17]
 80014dc:	f003 037f 	and.w	r3, r3, #127	; 0x7f
 80014e0:	b2db      	uxtb	r3, r3
 80014e2:	6878      	ldr	r0, [r7, #4]
 80014e4:	210b      	movs	r1, #11
 80014e6:	461a      	mov	r2, r3
 80014e8:	f7ff fb4e 	bl	8000b88 <vl53l1x__write__2>
 80014ec:	4603      	mov	r3, r0
 80014ee:	73bb      	strb	r3, [r7, #14]
 80014f0:	687b      	ldr	r3, [r7, #4]
 80014f2:	7c9b      	ldrb	r3, [r3, #18]
 80014f4:	f003 0303 	and.w	r3, r3, #3
 80014f8:	b2db      	uxtb	r3, r3
 80014fa:	330c      	adds	r3, #12
 80014fc:	b2db      	uxtb	r3, r3
 80014fe:	6878      	ldr	r0, [r7, #4]
 8001500:	2108      	movs	r1, #8
 8001502:	461a      	mov	r2, r3
 8001504:	f7ff fb40 	bl	8000b88 <vl53l1x__write__2>
 8001508:	4603      	mov	r3, r0
 800150a:	73bb      	strb	r3, [r7, #14]
 800150c:	6878      	ldr	r0, [r7, #4]
 800150e:	214d      	movs	r1, #77	; 0x4d
 8001510:	2201      	movs	r2, #1
 8001512:	f7ff fb39 	bl	8000b88 <vl53l1x__write__2>
 8001516:	4603      	mov	r3, r0
 8001518:	73bb      	strb	r3, [r7, #14]
 800151a:	6878      	ldr	r0, [r7, #4]
 800151c:	21d8      	movs	r1, #216	; 0xd8
 800151e:	f7ff fc71 	bl	8000e04 <vl53l1x__read__2>
 8001522:	4603      	mov	r3, r0
 8001524:	461a      	mov	r2, r3
 8001526:	73fa      	strb	r2, [r7, #15]
 8001528:	f3c3 2307 	ubfx	r3, r3, #8, #8
 800152c:	73bb      	strb	r3, [r7, #14]
 800152e:	7bfb      	ldrb	r3, [r7, #15]
 8001530:	6878      	ldr	r0, [r7, #4]
 8001532:	2147      	movs	r1, #71	; 0x47
 8001534:	461a      	mov	r2, r3
 8001536:	f7ff fb27 	bl	8000b88 <vl53l1x__write__2>
 800153a:	4603      	mov	r3, r0
 800153c:	73bb      	strb	r3, [r7, #14]
 800153e:	687b      	ldr	r3, [r7, #4]
 8001540:	2201      	movs	r2, #1
 8001542:	741a      	strb	r2, [r3, #16]
 8001544:	3710      	adds	r7, #16
 8001546:	46bd      	mov	sp, r7
 8001548:	bd80      	pop	{r7, pc}
 800154a:	bf00      	nop

0800154c <vl53l1x__to_uint16>:
 800154c:	b580      	push	{r7, lr}
 800154e:	b084      	sub	sp, #16
 8001550:	af00      	add	r7, sp, #0
 8001552:	4603      	mov	r3, r0
 8001554:	460a      	mov	r2, r1
 8001556:	71fb      	strb	r3, [r7, #7]
 8001558:	4613      	mov	r3, r2
 800155a:	71bb      	strb	r3, [r7, #6]
 800155c:	79fb      	ldrb	r3, [r7, #7]
 800155e:	021b      	lsls	r3, r3, #8
 8001560:	60fb      	str	r3, [r7, #12]
 8001562:	79bb      	ldrb	r3, [r7, #6]
 8001564:	68fa      	ldr	r2, [r7, #12]
 8001566:	4413      	add	r3, r2
 8001568:	60fb      	str	r3, [r7, #12]
 800156a:	68fb      	ldr	r3, [r7, #12]
 800156c:	f5b3 3f80 	cmp.w	r3, #65536	; 0x10000
 8001570:	d304      	bcc.n	800157c <vl53l1x__to_uint16+0x30>
 8001572:	4806      	ldr	r0, [pc, #24]	; (800158c <vl53l1x__to_uint16+0x40>)
 8001574:	f240 2115 	movw	r1, #533	; 0x215
 8001578:	f009 fa6c 	bl	800aa54 <__gnat_rcheck_CE_Range_Check>
 800157c:	68fb      	ldr	r3, [r7, #12]
 800157e:	b29b      	uxth	r3, r3
 8001580:	bf00      	nop
 8001582:	4618      	mov	r0, r3
 8001584:	3710      	adds	r7, #16
 8001586:	46bd      	mov	sp, r7
 8001588:	bd80      	pop	{r7, pc}
 800158a:	bf00      	nop
 800158c:	0800ea18 	.word	0x0800ea18

08001590 <vl53l1x__readresults>:
 8001590:	b5b0      	push	{r4, r5, r7, lr}
 8001592:	b088      	sub	sp, #32
 8001594:	af00      	add	r7, sp, #0
 8001596:	6078      	str	r0, [r7, #4]
 8001598:	687b      	ldr	r3, [r7, #4]
 800159a:	3314      	adds	r3, #20
 800159c:	61fb      	str	r3, [r7, #28]
 800159e:	f107 0308 	add.w	r3, r7, #8
 80015a2:	461c      	mov	r4, r3
 80015a4:	4d2d      	ldr	r5, [pc, #180]	; (800165c <vl53l1x__readresults+0xcc>)
 80015a6:	6878      	ldr	r0, [r7, #4]
 80015a8:	2189      	movs	r1, #137	; 0x89
 80015aa:	4622      	mov	r2, r4
 80015ac:	462b      	mov	r3, r5
 80015ae:	f7ff fbe5 	bl	8000d7c <vl53l1x__read>
 80015b2:	4603      	mov	r3, r0
 80015b4:	76fb      	strb	r3, [r7, #27]
 80015b6:	7a3a      	ldrb	r2, [r7, #8]
 80015b8:	687b      	ldr	r3, [r7, #4]
 80015ba:	751a      	strb	r2, [r3, #20]
 80015bc:	7a7a      	ldrb	r2, [r7, #9]
 80015be:	687b      	ldr	r3, [r7, #4]
 80015c0:	755a      	strb	r2, [r3, #21]
 80015c2:	7aba      	ldrb	r2, [r7, #10]
 80015c4:	687b      	ldr	r3, [r7, #4]
 80015c6:	759a      	strb	r2, [r3, #22]
 80015c8:	7afa      	ldrb	r2, [r7, #11]
 80015ca:	7b3b      	ldrb	r3, [r7, #12]
 80015cc:	4610      	mov	r0, r2
 80015ce:	4619      	mov	r1, r3
 80015d0:	f7ff ffbc 	bl	800154c <vl53l1x__to_uint16>
 80015d4:	4603      	mov	r3, r0
 80015d6:	461a      	mov	r2, r3
 80015d8:	687b      	ldr	r3, [r7, #4]
 80015da:	831a      	strh	r2, [r3, #24]
 80015dc:	7b7a      	ldrb	r2, [r7, #13]
 80015de:	7bbb      	ldrb	r3, [r7, #14]
 80015e0:	4610      	mov	r0, r2
 80015e2:	4619      	mov	r1, r3
 80015e4:	f7ff ffb2 	bl	800154c <vl53l1x__to_uint16>
 80015e8:	4603      	mov	r3, r0
 80015ea:	461a      	mov	r2, r3
 80015ec:	687b      	ldr	r3, [r7, #4]
 80015ee:	835a      	strh	r2, [r3, #26]
 80015f0:	7bfa      	ldrb	r2, [r7, #15]
 80015f2:	7c3b      	ldrb	r3, [r7, #16]
 80015f4:	4610      	mov	r0, r2
 80015f6:	4619      	mov	r1, r3
 80015f8:	f7ff ffa8 	bl	800154c <vl53l1x__to_uint16>
 80015fc:	4603      	mov	r3, r0
 80015fe:	461a      	mov	r2, r3
 8001600:	687b      	ldr	r3, [r7, #4]
 8001602:	839a      	strh	r2, [r3, #28]
 8001604:	7c7a      	ldrb	r2, [r7, #17]
 8001606:	7cbb      	ldrb	r3, [r7, #18]
 8001608:	4610      	mov	r0, r2
 800160a:	4619      	mov	r1, r3
 800160c:	f7ff ff9e 	bl	800154c <vl53l1x__to_uint16>
 8001610:	4603      	mov	r3, r0
 8001612:	461a      	mov	r2, r3
 8001614:	687b      	ldr	r3, [r7, #4]
 8001616:	83da      	strh	r2, [r3, #30]
 8001618:	7cfa      	ldrb	r2, [r7, #19]
 800161a:	7d3b      	ldrb	r3, [r7, #20]
 800161c:	4610      	mov	r0, r2
 800161e:	4619      	mov	r1, r3
 8001620:	f7ff ff94 	bl	800154c <vl53l1x__to_uint16>
 8001624:	4603      	mov	r3, r0
 8001626:	461a      	mov	r2, r3
 8001628:	687b      	ldr	r3, [r7, #4]
 800162a:	841a      	strh	r2, [r3, #32]
 800162c:	7d7a      	ldrb	r2, [r7, #21]
 800162e:	7dbb      	ldrb	r3, [r7, #22]
 8001630:	4610      	mov	r0, r2
 8001632:	4619      	mov	r1, r3
 8001634:	f7ff ff8a 	bl	800154c <vl53l1x__to_uint16>
 8001638:	4603      	mov	r3, r0
 800163a:	461a      	mov	r2, r3
 800163c:	687b      	ldr	r3, [r7, #4]
 800163e:	845a      	strh	r2, [r3, #34]	; 0x22
 8001640:	7dfa      	ldrb	r2, [r7, #23]
 8001642:	7e3b      	ldrb	r3, [r7, #24]
 8001644:	4610      	mov	r0, r2
 8001646:	4619      	mov	r1, r3
 8001648:	f7ff ff80 	bl	800154c <vl53l1x__to_uint16>
 800164c:	4603      	mov	r3, r0
 800164e:	461a      	mov	r2, r3
 8001650:	687b      	ldr	r3, [r7, #4]
 8001652:	849a      	strh	r2, [r3, #36]	; 0x24
 8001654:	3720      	adds	r7, #32
 8001656:	46bd      	mov	sp, r7
 8001658:	bdb0      	pop	{r4, r5, r7, pc}
 800165a:	bf00      	nop
 800165c:	0800ea54 	.word	0x0800ea54

08001660 <vl53l1x__updatedss>:
 8001660:	b580      	push	{r7, lr}
 8001662:	b086      	sub	sp, #24
 8001664:	af00      	add	r7, sp, #0
 8001666:	6078      	str	r0, [r7, #4]
 8001668:	687b      	ldr	r3, [r7, #4]
 800166a:	3314      	adds	r3, #20
 800166c:	60fb      	str	r3, [r7, #12]
 800166e:	687b      	ldr	r3, [r7, #4]
 8001670:	8b1b      	ldrh	r3, [r3, #24]
 8001672:	817b      	strh	r3, [r7, #10]
 8001674:	897b      	ldrh	r3, [r7, #10]
 8001676:	2b00      	cmp	r3, #0
 8001678:	d048      	beq.n	800170c <vl53l1x__updatedss+0xac>
 800167a:	687b      	ldr	r3, [r7, #4]
 800167c:	8c9b      	ldrh	r3, [r3, #36]	; 0x24
 800167e:	461a      	mov	r2, r3
 8001680:	687b      	ldr	r3, [r7, #4]
 8001682:	8b9b      	ldrh	r3, [r3, #28]
 8001684:	4413      	add	r3, r2
 8001686:	617b      	str	r3, [r7, #20]
 8001688:	697b      	ldr	r3, [r7, #20]
 800168a:	f5b3 3f80 	cmp.w	r3, #65536	; 0x10000
 800168e:	d302      	bcc.n	8001696 <vl53l1x__updatedss+0x36>
 8001690:	f64f 73ff 	movw	r3, #65535	; 0xffff
 8001694:	617b      	str	r3, [r7, #20]
 8001696:	697b      	ldr	r3, [r7, #20]
 8001698:	041b      	lsls	r3, r3, #16
 800169a:	617b      	str	r3, [r7, #20]
 800169c:	897b      	ldrh	r3, [r7, #10]
 800169e:	2b00      	cmp	r3, #0
 80016a0:	d104      	bne.n	80016ac <vl53l1x__updatedss+0x4c>
 80016a2:	4820      	ldr	r0, [pc, #128]	; (8001724 <vl53l1x__updatedss+0xc4>)
 80016a4:	f240 2145 	movw	r1, #581	; 0x245
 80016a8:	f009 f9ac 	bl	800aa04 <__gnat_rcheck_CE_Divide_By_Zero>
 80016ac:	897b      	ldrh	r3, [r7, #10]
 80016ae:	697a      	ldr	r2, [r7, #20]
 80016b0:	fbb2 f3f3 	udiv	r3, r2, r3
 80016b4:	617b      	str	r3, [r7, #20]
 80016b6:	697b      	ldr	r3, [r7, #20]
 80016b8:	2b00      	cmp	r3, #0
 80016ba:	d027      	beq.n	800170c <vl53l1x__updatedss+0xac>
 80016bc:	697b      	ldr	r3, [r7, #20]
 80016be:	2b00      	cmp	r3, #0
 80016c0:	d104      	bne.n	80016cc <vl53l1x__updatedss+0x6c>
 80016c2:	4818      	ldr	r0, [pc, #96]	; (8001724 <vl53l1x__updatedss+0xc4>)
 80016c4:	f240 2149 	movw	r1, #585	; 0x249
 80016c8:	f009 f99c 	bl	800aa04 <__gnat_rcheck_CE_Divide_By_Zero>
 80016cc:	f04f 6220 	mov.w	r2, #167772160	; 0xa000000
 80016d0:	697b      	ldr	r3, [r7, #20]
 80016d2:	fbb2 f3f3 	udiv	r3, r2, r3
 80016d6:	613b      	str	r3, [r7, #16]
 80016d8:	693b      	ldr	r3, [r7, #16]
 80016da:	f5b3 3f80 	cmp.w	r3, #65536	; 0x10000
 80016de:	d302      	bcc.n	80016e6 <vl53l1x__updatedss+0x86>
 80016e0:	f64f 73ff 	movw	r3, #65535	; 0xffff
 80016e4:	613b      	str	r3, [r7, #16]
 80016e6:	693b      	ldr	r3, [r7, #16]
 80016e8:	f5b3 3f80 	cmp.w	r3, #65536	; 0x10000
 80016ec:	d304      	bcc.n	80016f8 <vl53l1x__updatedss+0x98>
 80016ee:	480d      	ldr	r0, [pc, #52]	; (8001724 <vl53l1x__updatedss+0xc4>)
 80016f0:	f240 2151 	movw	r1, #593	; 0x251
 80016f4:	f009 f9ae 	bl	800aa54 <__gnat_rcheck_CE_Range_Check>
 80016f8:	693b      	ldr	r3, [r7, #16]
 80016fa:	b29b      	uxth	r3, r3
 80016fc:	6878      	ldr	r0, [r7, #4]
 80016fe:	2154      	movs	r1, #84	; 0x54
 8001700:	461a      	mov	r2, r3
 8001702:	f7ff fa7d 	bl	8000c00 <vl53l1x__write__3>
 8001706:	4603      	mov	r3, r0
 8001708:	727b      	strb	r3, [r7, #9]
 800170a:	e007      	b.n	800171c <vl53l1x__updatedss+0xbc>
 800170c:	6878      	ldr	r0, [r7, #4]
 800170e:	2154      	movs	r1, #84	; 0x54
 8001710:	f44f 4200 	mov.w	r2, #32768	; 0x8000
 8001714:	f7ff fa74 	bl	8000c00 <vl53l1x__write__3>
 8001718:	4603      	mov	r3, r0
 800171a:	727b      	strb	r3, [r7, #9]
 800171c:	3718      	adds	r7, #24
 800171e:	46bd      	mov	sp, r7
 8001720:	bd80      	pop	{r7, pc}
 8001722:	bf00      	nop
 8001724:	0800ea18 	.word	0x0800ea18

08001728 <vl53l1x__countratefixedtofloat>:
 8001728:	b480      	push	{r7}
 800172a:	b083      	sub	sp, #12
 800172c:	af00      	add	r7, sp, #0
 800172e:	4603      	mov	r3, r0
 8001730:	80fb      	strh	r3, [r7, #6]
 8001732:	88fb      	ldrh	r3, [r7, #6]
 8001734:	ee07 3a90 	vmov	s15, r3
 8001738:	eef8 7a67 	vcvt.f32.u32	s15, s15
 800173c:	ed9f 7a05 	vldr	s14, [pc, #20]	; 8001754 <vl53l1x__countratefixedtofloat+0x2c>
 8001740:	eec7 7a87 	vdiv.f32	s15, s15, s14
 8001744:	bf00      	nop
 8001746:	eeb0 0a67 	vmov.f32	s0, s15
 800174a:	370c      	adds	r7, #12
 800174c:	46bd      	mov	sp, r7
 800174e:	f85d 7b04 	ldr.w	r7, [sp], #4
 8001752:	4770      	bx	lr
 8001754:	43000000 	.word	0x43000000

08001758 <vl53l1x__getrangingdata>:
 8001758:	b580      	push	{r7, lr}
 800175a:	b086      	sub	sp, #24
 800175c:	af00      	add	r7, sp, #0
 800175e:	6078      	str	r0, [r7, #4]
 8001760:	687b      	ldr	r3, [r7, #4]
 8001762:	3314      	adds	r3, #20
 8001764:	617b      	str	r3, [r7, #20]
 8001766:	687b      	ldr	r3, [r7, #4]
 8001768:	3328      	adds	r3, #40	; 0x28
 800176a:	613b      	str	r3, [r7, #16]
 800176c:	687b      	ldr	r3, [r7, #4]
 800176e:	8c5b      	ldrh	r3, [r3, #34]	; 0x22
 8001770:	81fb      	strh	r3, [r7, #14]
 8001772:	89fb      	ldrh	r3, [r7, #14]
 8001774:	f240 72db 	movw	r2, #2011	; 0x7db
 8001778:	fb02 f303 	mul.w	r3, r2, r3
 800177c:	f503 6380 	add.w	r3, r3, #1024	; 0x400
 8001780:	0adb      	lsrs	r3, r3, #11
 8001782:	f5b3 3f80 	cmp.w	r3, #65536	; 0x10000
 8001786:	d304      	bcc.n	8001792 <vl53l1x__getrangingdata+0x3a>
 8001788:	4842      	ldr	r0, [pc, #264]	; (8001894 <vl53l1x__getrangingdata+0x13c>)
 800178a:	f240 2175 	movw	r1, #629	; 0x275
 800178e:	f009 f961 	bl	800aa54 <__gnat_rcheck_CE_Range_Check>
 8001792:	b29a      	uxth	r2, r3
 8001794:	687b      	ldr	r3, [r7, #4]
 8001796:	851a      	strh	r2, [r3, #40]	; 0x28
 8001798:	687b      	ldr	r3, [r7, #4]
 800179a:	7d1b      	ldrb	r3, [r3, #20]
 800179c:	3b01      	subs	r3, #1
 800179e:	2b11      	cmp	r3, #17
 80017a0:	d85c      	bhi.n	800185c <vl53l1x__getrangingdata+0x104>
 80017a2:	a201      	add	r2, pc, #4	; (adr r2, 80017a8 <vl53l1x__getrangingdata+0x50>)
 80017a4:	f852 f023 	ldr.w	pc, [r2, r3, lsl #2]
 80017a8:	080017f1 	.word	0x080017f1
 80017ac:	080017f1 	.word	0x080017f1
 80017b0:	080017f1 	.word	0x080017f1
 80017b4:	08001819 	.word	0x08001819
 80017b8:	0800180f 	.word	0x0800180f
 80017bc:	08001819 	.word	0x08001819
 80017c0:	08001823 	.word	0x08001823
 80017c4:	08001837 	.word	0x08001837
 80017c8:	08001841 	.word	0x08001841
 80017cc:	0800185d 	.word	0x0800185d
 80017d0:	0800185d 	.word	0x0800185d
 80017d4:	0800182d 	.word	0x0800182d
 80017d8:	080017fb 	.word	0x080017fb
 80017dc:	0800185d 	.word	0x0800185d
 80017e0:	0800185d 	.word	0x0800185d
 80017e4:	0800185d 	.word	0x0800185d
 80017e8:	080017f1 	.word	0x080017f1
 80017ec:	08001805 	.word	0x08001805
 80017f0:	687b      	ldr	r3, [r7, #4]
 80017f2:	2205      	movs	r2, #5
 80017f4:	f883 202a 	strb.w	r2, [r3, #42]	; 0x2a
 80017f8:	e034      	b.n	8001864 <vl53l1x__getrangingdata+0x10c>
 80017fa:	687b      	ldr	r3, [r7, #4]
 80017fc:	220d      	movs	r2, #13
 80017fe:	f883 202a 	strb.w	r2, [r3, #42]	; 0x2a
 8001802:	e02f      	b.n	8001864 <vl53l1x__getrangingdata+0x10c>
 8001804:	687b      	ldr	r3, [r7, #4]
 8001806:	220a      	movs	r2, #10
 8001808:	f883 202a 	strb.w	r2, [r3, #42]	; 0x2a
 800180c:	e02a      	b.n	8001864 <vl53l1x__getrangingdata+0x10c>
 800180e:	687b      	ldr	r3, [r7, #4]
 8001810:	2204      	movs	r2, #4
 8001812:	f883 202a 	strb.w	r2, [r3, #42]	; 0x2a
 8001816:	e025      	b.n	8001864 <vl53l1x__getrangingdata+0x10c>
 8001818:	687b      	ldr	r3, [r7, #4]
 800181a:	2202      	movs	r2, #2
 800181c:	f883 202a 	strb.w	r2, [r3, #42]	; 0x2a
 8001820:	e020      	b.n	8001864 <vl53l1x__getrangingdata+0x10c>
 8001822:	687b      	ldr	r3, [r7, #4]
 8001824:	2207      	movs	r2, #7
 8001826:	f883 202a 	strb.w	r2, [r3, #42]	; 0x2a
 800182a:	e01b      	b.n	8001864 <vl53l1x__getrangingdata+0x10c>
 800182c:	687b      	ldr	r3, [r7, #4]
 800182e:	2209      	movs	r2, #9
 8001830:	f883 202a 	strb.w	r2, [r3, #42]	; 0x2a
 8001834:	e016      	b.n	8001864 <vl53l1x__getrangingdata+0x10c>
 8001836:	687b      	ldr	r3, [r7, #4]
 8001838:	2203      	movs	r2, #3
 800183a:	f883 202a 	strb.w	r2, [r3, #42]	; 0x2a
 800183e:	e011      	b.n	8001864 <vl53l1x__getrangingdata+0x10c>
 8001840:	687b      	ldr	r3, [r7, #4]
 8001842:	7d9b      	ldrb	r3, [r3, #22]
 8001844:	2b00      	cmp	r3, #0
 8001846:	d104      	bne.n	8001852 <vl53l1x__getrangingdata+0xfa>
 8001848:	687b      	ldr	r3, [r7, #4]
 800184a:	2206      	movs	r2, #6
 800184c:	f883 202a 	strb.w	r2, [r3, #42]	; 0x2a
 8001850:	e008      	b.n	8001864 <vl53l1x__getrangingdata+0x10c>
 8001852:	687b      	ldr	r3, [r7, #4]
 8001854:	2200      	movs	r2, #0
 8001856:	f883 202a 	strb.w	r2, [r3, #42]	; 0x2a
 800185a:	e003      	b.n	8001864 <vl53l1x__getrangingdata+0x10c>
 800185c:	687b      	ldr	r3, [r7, #4]
 800185e:	22ff      	movs	r2, #255	; 0xff
 8001860:	f883 202a 	strb.w	r2, [r3, #42]	; 0x2a
 8001864:	bf00      	nop
 8001866:	687b      	ldr	r3, [r7, #4]
 8001868:	8c9b      	ldrh	r3, [r3, #36]	; 0x24
 800186a:	4618      	mov	r0, r3
 800186c:	f7ff ff5c 	bl	8001728 <vl53l1x__countratefixedtofloat>
 8001870:	eef0 7a40 	vmov.f32	s15, s0
 8001874:	687b      	ldr	r3, [r7, #4]
 8001876:	edc3 7a0b 	vstr	s15, [r3, #44]	; 0x2c
 800187a:	687b      	ldr	r3, [r7, #4]
 800187c:	8b9b      	ldrh	r3, [r3, #28]
 800187e:	4618      	mov	r0, r3
 8001880:	f7ff ff52 	bl	8001728 <vl53l1x__countratefixedtofloat>
 8001884:	eef0 7a40 	vmov.f32	s15, s0
 8001888:	687b      	ldr	r3, [r7, #4]
 800188a:	edc3 7a0c 	vstr	s15, [r3, #48]	; 0x30
 800188e:	3718      	adds	r7, #24
 8001890:	46bd      	mov	sp, r7
 8001892:	bd80      	pop	{r7, pc}
 8001894:	0800ea18 	.word	0x0800ea18

08001898 <vl53l1x__read_range>:
 8001898:	e92d 41f0 	stmdb	sp!, {r4, r5, r6, r7, r8, lr}
 800189c:	b088      	sub	sp, #32
 800189e:	af00      	add	r7, sp, #0
 80018a0:	6078      	str	r0, [r7, #4]
 80018a2:	687b      	ldr	r3, [r7, #4]
 80018a4:	3328      	adds	r3, #40	; 0x28
 80018a6:	61fb      	str	r3, [r7, #28]
 80018a8:	f006 fa52 	bl	8007d50 <ada__real_time__clock>
 80018ac:	4602      	mov	r2, r0
 80018ae:	460b      	mov	r3, r1
 80018b0:	e9c7 2304 	strd	r2, r3, [r7, #16]
 80018b4:	6878      	ldr	r0, [r7, #4]
 80018b6:	f7ff fc03 	bl	80010c0 <vl53l1x__gettimeout>
 80018ba:	4603      	mov	r3, r0
 80018bc:	60fb      	str	r3, [r7, #12]
 80018be:	6878      	ldr	r0, [r7, #4]
 80018c0:	2131      	movs	r1, #49	; 0x31
 80018c2:	f7ff fa9f 	bl	8000e04 <vl53l1x__read__2>
 80018c6:	4603      	mov	r3, r0
 80018c8:	461a      	mov	r2, r3
 80018ca:	72fa      	strb	r2, [r7, #11]
 80018cc:	f3c3 2307 	ubfx	r3, r3, #8, #8
 80018d0:	72bb      	strb	r3, [r7, #10]
 80018d2:	7afb      	ldrb	r3, [r7, #11]
 80018d4:	f003 0301 	and.w	r3, r3, #1
 80018d8:	b2db      	uxtb	r3, r3
 80018da:	2b00      	cmp	r3, #0
 80018dc:	d027      	beq.n	800192e <vl53l1x__read_range+0x96>
 80018de:	68fb      	ldr	r3, [r7, #12]
 80018e0:	2b00      	cmp	r3, #0
 80018e2:	bfcc      	ite	gt
 80018e4:	2301      	movgt	r3, #1
 80018e6:	2300      	movle	r3, #0
 80018e8:	fa5f f883 	uxtb.w	r8, r3
 80018ec:	f006 fa30 	bl	8007d50 <ada__real_time__clock>
 80018f0:	4602      	mov	r2, r0
 80018f2:	460b      	mov	r3, r1
 80018f4:	4610      	mov	r0, r2
 80018f6:	4619      	mov	r1, r3
 80018f8:	e9d7 2304 	ldrd	r2, r3, [r7, #16]
 80018fc:	f006 fa06 	bl	8007d0c <ada__real_time__Osubtract__2>
 8001900:	4605      	mov	r5, r0
 8001902:	460e      	mov	r6, r1
 8001904:	68fb      	ldr	r3, [r7, #12]
 8001906:	4618      	mov	r0, r3
 8001908:	f006 fa6a 	bl	8007de0 <ada__real_time__milliseconds>
 800190c:	4602      	mov	r2, r0
 800190e:	460b      	mov	r3, r1
 8001910:	42aa      	cmp	r2, r5
 8001912:	41b3      	sbcs	r3, r6
 8001914:	bfb4      	ite	lt
 8001916:	2301      	movlt	r3, #1
 8001918:	2300      	movge	r3, #0
 800191a:	b2db      	uxtb	r3, r3
 800191c:	ea08 0303 	and.w	r3, r8, r3
 8001920:	b2db      	uxtb	r3, r3
 8001922:	2b00      	cmp	r3, #0
 8001924:	d0cb      	beq.n	80018be <vl53l1x__read_range+0x26>
 8001926:	2300      	movs	r3, #0
 8001928:	727b      	strb	r3, [r7, #9]
 800192a:	2300      	movs	r3, #0
 800192c:	e01e      	b.n	800196c <vl53l1x__read_range+0xd4>
 800192e:	6878      	ldr	r0, [r7, #4]
 8001930:	f7ff fe2e 	bl	8001590 <vl53l1x__readresults>
 8001934:	687b      	ldr	r3, [r7, #4]
 8001936:	7c1b      	ldrb	r3, [r3, #16]
 8001938:	f083 0301 	eor.w	r3, r3, #1
 800193c:	b2db      	uxtb	r3, r3
 800193e:	2b00      	cmp	r3, #0
 8001940:	d002      	beq.n	8001948 <vl53l1x__read_range+0xb0>
 8001942:	6878      	ldr	r0, [r7, #4]
 8001944:	f7ff fdaa 	bl	800149c <vl53l1x__setupmanualcalibration>
 8001948:	6878      	ldr	r0, [r7, #4]
 800194a:	f7ff fe89 	bl	8001660 <vl53l1x__updatedss>
 800194e:	6878      	ldr	r0, [r7, #4]
 8001950:	f7ff ff02 	bl	8001758 <vl53l1x__getrangingdata>
 8001954:	6878      	ldr	r0, [r7, #4]
 8001956:	2186      	movs	r1, #134	; 0x86
 8001958:	2201      	movs	r2, #1
 800195a:	f7ff f915 	bl	8000b88 <vl53l1x__write__2>
 800195e:	4603      	mov	r3, r0
 8001960:	727b      	strb	r3, [r7, #9]
 8001962:	2301      	movs	r3, #1
 8001964:	727b      	strb	r3, [r7, #9]
 8001966:	687b      	ldr	r3, [r7, #4]
 8001968:	8d1b      	ldrh	r3, [r3, #40]	; 0x28
 800196a:	bf00      	nop
 800196c:	f363 040f 	bfi	r4, r3, #0, #16
 8001970:	7a7b      	ldrb	r3, [r7, #9]
 8001972:	f363 4417 	bfi	r4, r3, #16, #8
 8001976:	4623      	mov	r3, r4
 8001978:	4618      	mov	r0, r3
 800197a:	3720      	adds	r7, #32
 800197c:	46bd      	mov	sp, r7
 800197e:	e8bd 81f0 	ldmia.w	sp!, {r4, r5, r6, r7, r8, pc}
 8001982:	bf00      	nop

08001984 <vl53l1x__initialize>:
 8001984:	e92d 43b0 	stmdb	sp!, {r4, r5, r7, r8, r9, lr}
 8001988:	b088      	sub	sp, #32
 800198a:	af00      	add	r7, sp, #0
 800198c:	6078      	str	r0, [r7, #4]
 800198e:	687b      	ldr	r3, [r7, #4]
 8001990:	2252      	movs	r2, #82	; 0x52
 8001992:	809a      	strh	r2, [r3, #4]
 8001994:	6878      	ldr	r0, [r7, #4]
 8001996:	f000 f96b 	bl	8001c70 <vl53l1x__read_id>
 800199a:	4603      	mov	r3, r0
 800199c:	461a      	mov	r2, r3
 800199e:	f64e 23cc 	movw	r3, #60108	; 0xeacc
 80019a2:	429a      	cmp	r2, r3
 80019a4:	d008      	beq.n	80019b8 <vl53l1x__initialize+0x34>
 80019a6:	f8df 82c0 	ldr.w	r8, [pc, #704]	; 8001c68 <vl53l1x__initialize+0x2e4>
 80019aa:	f8df 92c0 	ldr.w	r9, [pc, #704]	; 8001c6c <vl53l1x__initialize+0x2e8>
 80019ae:	48ab      	ldr	r0, [pc, #684]	; (8001c5c <vl53l1x__initialize+0x2d8>)
 80019b0:	4642      	mov	r2, r8
 80019b2:	464b      	mov	r3, r9
 80019b4:	f008 ffd4 	bl	800a960 <__gnat_raise_exception>
 80019b8:	6878      	ldr	r0, [r7, #4]
 80019ba:	2100      	movs	r1, #0
 80019bc:	2200      	movs	r2, #0
 80019be:	f7ff f8e3 	bl	8000b88 <vl53l1x__write__2>
 80019c2:	4603      	mov	r3, r0
 80019c4:	77fb      	strb	r3, [r7, #31]
 80019c6:	f006 f9c3 	bl	8007d50 <ada__real_time__clock>
 80019ca:	4680      	mov	r8, r0
 80019cc:	4689      	mov	r9, r1
 80019ce:	200a      	movs	r0, #10
 80019d0:	f006 fa06 	bl	8007de0 <ada__real_time__milliseconds>
 80019d4:	4602      	mov	r2, r0
 80019d6:	460b      	mov	r3, r1
 80019d8:	4640      	mov	r0, r8
 80019da:	4649      	mov	r1, r9
 80019dc:	f006 f95e 	bl	8007c9c <ada__real_time__Oadd>
 80019e0:	4602      	mov	r2, r0
 80019e2:	460b      	mov	r3, r1
 80019e4:	4610      	mov	r0, r2
 80019e6:	4619      	mov	r1, r3
 80019e8:	f006 ffec 	bl	80089c4 <ada__real_time__delays__delay_until>
 80019ec:	6878      	ldr	r0, [r7, #4]
 80019ee:	2100      	movs	r1, #0
 80019f0:	2201      	movs	r2, #1
 80019f2:	f7ff f8c9 	bl	8000b88 <vl53l1x__write__2>
 80019f6:	4603      	mov	r3, r0
 80019f8:	77fb      	strb	r3, [r7, #31]
 80019fa:	f006 f9a9 	bl	8007d50 <ada__real_time__clock>
 80019fe:	4680      	mov	r8, r0
 8001a00:	4689      	mov	r9, r1
 8001a02:	200a      	movs	r0, #10
 8001a04:	f006 f9ec 	bl	8007de0 <ada__real_time__milliseconds>
 8001a08:	4602      	mov	r2, r0
 8001a0a:	460b      	mov	r3, r1
 8001a0c:	4640      	mov	r0, r8
 8001a0e:	4649      	mov	r1, r9
 8001a10:	f006 f944 	bl	8007c9c <ada__real_time__Oadd>
 8001a14:	4602      	mov	r2, r0
 8001a16:	460b      	mov	r3, r1
 8001a18:	4610      	mov	r0, r2
 8001a1a:	4619      	mov	r1, r3
 8001a1c:	f006 ffd2 	bl	80089c4 <ada__real_time__delays__delay_until>
 8001a20:	f006 f996 	bl	8007d50 <ada__real_time__clock>
 8001a24:	4602      	mov	r2, r0
 8001a26:	460b      	mov	r3, r1
 8001a28:	e9c7 2304 	strd	r2, r3, [r7, #16]
 8001a2c:	6878      	ldr	r0, [r7, #4]
 8001a2e:	21e5      	movs	r1, #229	; 0xe5
 8001a30:	f7ff f9e8 	bl	8000e04 <vl53l1x__read__2>
 8001a34:	4603      	mov	r3, r0
 8001a36:	461a      	mov	r2, r3
 8001a38:	73fa      	strb	r2, [r7, #15]
 8001a3a:	f3c3 2307 	ubfx	r3, r3, #8, #8
 8001a3e:	77fb      	strb	r3, [r7, #31]
 8001a40:	7bfb      	ldrb	r3, [r7, #15]
 8001a42:	f003 0301 	and.w	r3, r3, #1
 8001a46:	b2db      	uxtb	r3, r3
 8001a48:	2b00      	cmp	r3, #0
 8001a4a:	d11c      	bne.n	8001a86 <vl53l1x__initialize+0x102>
 8001a4c:	f006 f980 	bl	8007d50 <ada__real_time__clock>
 8001a50:	4602      	mov	r2, r0
 8001a52:	460b      	mov	r3, r1
 8001a54:	4610      	mov	r0, r2
 8001a56:	4619      	mov	r1, r3
 8001a58:	e9d7 2304 	ldrd	r2, r3, [r7, #16]
 8001a5c:	f006 f956 	bl	8007d0c <ada__real_time__Osubtract__2>
 8001a60:	4680      	mov	r8, r0
 8001a62:	4689      	mov	r9, r1
 8001a64:	f44f 707a 	mov.w	r0, #1000	; 0x3e8
 8001a68:	f006 f9ba 	bl	8007de0 <ada__real_time__milliseconds>
 8001a6c:	4602      	mov	r2, r0
 8001a6e:	460b      	mov	r3, r1
 8001a70:	4542      	cmp	r2, r8
 8001a72:	eb73 0309 	sbcs.w	r3, r3, r9
 8001a76:	dad9      	bge.n	8001a2c <vl53l1x__initialize+0xa8>
 8001a78:	4c79      	ldr	r4, [pc, #484]	; (8001c60 <vl53l1x__initialize+0x2dc>)
 8001a7a:	4d7a      	ldr	r5, [pc, #488]	; (8001c64 <vl53l1x__initialize+0x2e0>)
 8001a7c:	4877      	ldr	r0, [pc, #476]	; (8001c5c <vl53l1x__initialize+0x2d8>)
 8001a7e:	4622      	mov	r2, r4
 8001a80:	462b      	mov	r3, r5
 8001a82:	f008 ff6d 	bl	800a960 <__gnat_raise_exception>
 8001a86:	6878      	ldr	r0, [r7, #4]
 8001a88:	212e      	movs	r1, #46	; 0x2e
 8001a8a:	f7ff f9bb 	bl	8000e04 <vl53l1x__read__2>
 8001a8e:	4603      	mov	r3, r0
 8001a90:	461a      	mov	r2, r3
 8001a92:	73fa      	strb	r2, [r7, #15]
 8001a94:	f3c3 2307 	ubfx	r3, r3, #8, #8
 8001a98:	77fb      	strb	r3, [r7, #31]
 8001a9a:	7bfb      	ldrb	r3, [r7, #15]
 8001a9c:	f043 0301 	orr.w	r3, r3, #1
 8001aa0:	b2db      	uxtb	r3, r3
 8001aa2:	6878      	ldr	r0, [r7, #4]
 8001aa4:	212e      	movs	r1, #46	; 0x2e
 8001aa6:	461a      	mov	r2, r3
 8001aa8:	f7ff f86e 	bl	8000b88 <vl53l1x__write__2>
 8001aac:	4603      	mov	r3, r0
 8001aae:	77fb      	strb	r3, [r7, #31]
 8001ab0:	6878      	ldr	r0, [r7, #4]
 8001ab2:	2106      	movs	r1, #6
 8001ab4:	f7ff f9fc 	bl	8000eb0 <vl53l1x__read__3>
 8001ab8:	4602      	mov	r2, r0
 8001aba:	b291      	uxth	r1, r2
 8001abc:	687b      	ldr	r3, [r7, #4]
 8001abe:	8119      	strh	r1, [r3, #8]
 8001ac0:	f3c2 4307 	ubfx	r3, r2, #16, #8
 8001ac4:	77fb      	strb	r3, [r7, #31]
 8001ac6:	6878      	ldr	r0, [r7, #4]
 8001ac8:	21de      	movs	r1, #222	; 0xde
 8001aca:	f7ff f9f1 	bl	8000eb0 <vl53l1x__read__3>
 8001ace:	4602      	mov	r2, r0
 8001ad0:	b291      	uxth	r1, r2
 8001ad2:	687b      	ldr	r3, [r7, #4]
 8001ad4:	8159      	strh	r1, [r3, #10]
 8001ad6:	f3c2 4307 	ubfx	r3, r2, #16, #8
 8001ada:	77fb      	strb	r3, [r7, #31]
 8001adc:	6878      	ldr	r0, [r7, #4]
 8001ade:	2124      	movs	r1, #36	; 0x24
 8001ae0:	f44f 6220 	mov.w	r2, #2560	; 0xa00
 8001ae4:	f7ff f88c 	bl	8000c00 <vl53l1x__write__3>
 8001ae8:	4603      	mov	r3, r0
 8001aea:	77fb      	strb	r3, [r7, #31]
 8001aec:	6878      	ldr	r0, [r7, #4]
 8001aee:	2131      	movs	r1, #49	; 0x31
 8001af0:	2202      	movs	r2, #2
 8001af2:	f7ff f849 	bl	8000b88 <vl53l1x__write__2>
 8001af6:	4603      	mov	r3, r0
 8001af8:	77fb      	strb	r3, [r7, #31]
 8001afa:	6878      	ldr	r0, [r7, #4]
 8001afc:	2136      	movs	r1, #54	; 0x36
 8001afe:	2208      	movs	r2, #8
 8001b00:	f7ff f842 	bl	8000b88 <vl53l1x__write__2>
 8001b04:	4603      	mov	r3, r0
 8001b06:	77fb      	strb	r3, [r7, #31]
 8001b08:	6878      	ldr	r0, [r7, #4]
 8001b0a:	2137      	movs	r1, #55	; 0x37
 8001b0c:	2210      	movs	r2, #16
 8001b0e:	f7ff f83b 	bl	8000b88 <vl53l1x__write__2>
 8001b12:	4603      	mov	r3, r0
 8001b14:	77fb      	strb	r3, [r7, #31]
 8001b16:	6878      	ldr	r0, [r7, #4]
 8001b18:	2139      	movs	r1, #57	; 0x39
 8001b1a:	2201      	movs	r2, #1
 8001b1c:	f7ff f834 	bl	8000b88 <vl53l1x__write__2>
 8001b20:	4603      	mov	r3, r0
 8001b22:	77fb      	strb	r3, [r7, #31]
 8001b24:	6878      	ldr	r0, [r7, #4]
 8001b26:	213e      	movs	r1, #62	; 0x3e
 8001b28:	22ff      	movs	r2, #255	; 0xff
 8001b2a:	f7ff f82d 	bl	8000b88 <vl53l1x__write__2>
 8001b2e:	4603      	mov	r3, r0
 8001b30:	77fb      	strb	r3, [r7, #31]
 8001b32:	6878      	ldr	r0, [r7, #4]
 8001b34:	213f      	movs	r1, #63	; 0x3f
 8001b36:	2200      	movs	r2, #0
 8001b38:	f7ff f826 	bl	8000b88 <vl53l1x__write__2>
 8001b3c:	4603      	mov	r3, r0
 8001b3e:	77fb      	strb	r3, [r7, #31]
 8001b40:	6878      	ldr	r0, [r7, #4]
 8001b42:	2140      	movs	r1, #64	; 0x40
 8001b44:	2202      	movs	r2, #2
 8001b46:	f7ff f81f 	bl	8000b88 <vl53l1x__write__2>
 8001b4a:	4603      	mov	r3, r0
 8001b4c:	77fb      	strb	r3, [r7, #31]
 8001b4e:	6878      	ldr	r0, [r7, #4]
 8001b50:	2150      	movs	r1, #80	; 0x50
 8001b52:	2200      	movs	r2, #0
 8001b54:	f7ff f854 	bl	8000c00 <vl53l1x__write__3>
 8001b58:	4603      	mov	r3, r0
 8001b5a:	77fb      	strb	r3, [r7, #31]
 8001b5c:	6878      	ldr	r0, [r7, #4]
 8001b5e:	2152      	movs	r1, #82	; 0x52
 8001b60:	2200      	movs	r2, #0
 8001b62:	f7ff f84d 	bl	8000c00 <vl53l1x__write__3>
 8001b66:	4603      	mov	r3, r0
 8001b68:	77fb      	strb	r3, [r7, #31]
 8001b6a:	6878      	ldr	r0, [r7, #4]
 8001b6c:	2157      	movs	r1, #87	; 0x57
 8001b6e:	2238      	movs	r2, #56	; 0x38
 8001b70:	f7ff f80a 	bl	8000b88 <vl53l1x__write__2>
 8001b74:	4603      	mov	r3, r0
 8001b76:	77fb      	strb	r3, [r7, #31]
 8001b78:	6878      	ldr	r0, [r7, #4]
 8001b7a:	2164      	movs	r1, #100	; 0x64
 8001b7c:	f44f 72b4 	mov.w	r2, #360	; 0x168
 8001b80:	f7ff f83e 	bl	8000c00 <vl53l1x__write__3>
 8001b84:	4603      	mov	r3, r0
 8001b86:	77fb      	strb	r3, [r7, #31]
 8001b88:	6878      	ldr	r0, [r7, #4]
 8001b8a:	2166      	movs	r1, #102	; 0x66
 8001b8c:	22c0      	movs	r2, #192	; 0xc0
 8001b8e:	f7ff f837 	bl	8000c00 <vl53l1x__write__3>
 8001b92:	4603      	mov	r3, r0
 8001b94:	77fb      	strb	r3, [r7, #31]
 8001b96:	6878      	ldr	r0, [r7, #4]
 8001b98:	2171      	movs	r1, #113	; 0x71
 8001b9a:	2201      	movs	r2, #1
 8001b9c:	f7fe fff4 	bl	8000b88 <vl53l1x__write__2>
 8001ba0:	4603      	mov	r3, r0
 8001ba2:	77fb      	strb	r3, [r7, #31]
 8001ba4:	6878      	ldr	r0, [r7, #4]
 8001ba6:	217c      	movs	r1, #124	; 0x7c
 8001ba8:	2201      	movs	r2, #1
 8001baa:	f7fe ffed 	bl	8000b88 <vl53l1x__write__2>
 8001bae:	4603      	mov	r3, r0
 8001bb0:	77fb      	strb	r3, [r7, #31]
 8001bb2:	6878      	ldr	r0, [r7, #4]
 8001bb4:	217e      	movs	r1, #126	; 0x7e
 8001bb6:	2202      	movs	r2, #2
 8001bb8:	f7fe ffe6 	bl	8000b88 <vl53l1x__write__2>
 8001bbc:	4603      	mov	r3, r0
 8001bbe:	77fb      	strb	r3, [r7, #31]
 8001bc0:	6878      	ldr	r0, [r7, #4]
 8001bc2:	2182      	movs	r1, #130	; 0x82
 8001bc4:	2200      	movs	r2, #0
 8001bc6:	f7fe ffdf 	bl	8000b88 <vl53l1x__write__2>
 8001bca:	4603      	mov	r3, r0
 8001bcc:	77fb      	strb	r3, [r7, #31]
 8001bce:	6878      	ldr	r0, [r7, #4]
 8001bd0:	2177      	movs	r1, #119	; 0x77
 8001bd2:	2201      	movs	r2, #1
 8001bd4:	f7fe ffd8 	bl	8000b88 <vl53l1x__write__2>
 8001bd8:	4603      	mov	r3, r0
 8001bda:	77fb      	strb	r3, [r7, #31]
 8001bdc:	6878      	ldr	r0, [r7, #4]
 8001bde:	2181      	movs	r1, #129	; 0x81
 8001be0:	228b      	movs	r2, #139	; 0x8b
 8001be2:	f7fe ffd1 	bl	8000b88 <vl53l1x__write__2>
 8001be6:	4603      	mov	r3, r0
 8001be8:	77fb      	strb	r3, [r7, #31]
 8001bea:	f44f 4348 	mov.w	r3, #51200	; 0xc800
 8001bee:	81bb      	strh	r3, [r7, #12]
 8001bf0:	89bb      	ldrh	r3, [r7, #12]
 8001bf2:	6878      	ldr	r0, [r7, #4]
 8001bf4:	2154      	movs	r1, #84	; 0x54
 8001bf6:	461a      	mov	r2, r3
 8001bf8:	f7ff f802 	bl	8000c00 <vl53l1x__write__3>
 8001bfc:	4603      	mov	r3, r0
 8001bfe:	77fb      	strb	r3, [r7, #31]
 8001c00:	6878      	ldr	r0, [r7, #4]
 8001c02:	214f      	movs	r1, #79	; 0x4f
 8001c04:	2202      	movs	r2, #2
 8001c06:	f7fe ffbf 	bl	8000b88 <vl53l1x__write__2>
 8001c0a:	4603      	mov	r3, r0
 8001c0c:	77fb      	strb	r3, [r7, #31]
 8001c0e:	6878      	ldr	r0, [r7, #4]
 8001c10:	2102      	movs	r1, #2
 8001c12:	f7ff fb61 	bl	80012d8 <vl53l1x__setdistancemode>
 8001c16:	6878      	ldr	r0, [r7, #4]
 8001c18:	f24c 3150 	movw	r1, #50000	; 0xc350
 8001c1c:	f7ff fa5e 	bl	80010dc <vl53l1x__setmeasurementtimingbudget>
 8001c20:	4603      	mov	r3, r0
 8001c22:	77fb      	strb	r3, [r7, #31]
 8001c24:	6878      	ldr	r0, [r7, #4]
 8001c26:	2122      	movs	r1, #34	; 0x22
 8001c28:	f7ff f942 	bl	8000eb0 <vl53l1x__read__3>
 8001c2c:	4603      	mov	r3, r0
 8001c2e:	461a      	mov	r2, r3
 8001c30:	817a      	strh	r2, [r7, #10]
 8001c32:	f3c3 4307 	ubfx	r3, r3, #16, #8
 8001c36:	77fb      	strb	r3, [r7, #31]
 8001c38:	897b      	ldrh	r3, [r7, #10]
 8001c3a:	009b      	lsls	r3, r3, #2
 8001c3c:	817b      	strh	r3, [r7, #10]
 8001c3e:	897b      	ldrh	r3, [r7, #10]
 8001c40:	6878      	ldr	r0, [r7, #4]
 8001c42:	211e      	movs	r1, #30
 8001c44:	461a      	mov	r2, r3
 8001c46:	f7fe ffdb 	bl	8000c00 <vl53l1x__write__3>
 8001c4a:	4603      	mov	r3, r0
 8001c4c:	77fb      	strb	r3, [r7, #31]
 8001c4e:	687b      	ldr	r3, [r7, #4]
 8001c50:	2200      	movs	r2, #0
 8001c52:	741a      	strb	r2, [r3, #16]
 8001c54:	3720      	adds	r7, #32
 8001c56:	46bd      	mov	sp, r7
 8001c58:	e8bd 83b0 	ldmia.w	sp!, {r4, r5, r7, r8, r9, pc}
 8001c5c:	2000025c 	.word	0x2000025c
 8001c60:	0800ea68 	.word	0x0800ea68
 8001c64:	0800ea7c 	.word	0x0800ea7c
 8001c68:	0800ea5c 	.word	0x0800ea5c
 8001c6c:	0800ea84 	.word	0x0800ea84

08001c70 <vl53l1x__read_id>:
 8001c70:	b580      	push	{r7, lr}
 8001c72:	b084      	sub	sp, #16
 8001c74:	af00      	add	r7, sp, #0
 8001c76:	6078      	str	r0, [r7, #4]
 8001c78:	6878      	ldr	r0, [r7, #4]
 8001c7a:	f240 110f 	movw	r1, #271	; 0x10f
 8001c7e:	f7ff f917 	bl	8000eb0 <vl53l1x__read__3>
 8001c82:	4603      	mov	r3, r0
 8001c84:	461a      	mov	r2, r3
 8001c86:	81fa      	strh	r2, [r7, #14]
 8001c88:	f3c3 4307 	ubfx	r3, r3, #16, #8
 8001c8c:	737b      	strb	r3, [r7, #13]
 8001c8e:	7b7b      	ldrb	r3, [r7, #13]
 8001c90:	f083 0301 	eor.w	r3, r3, #1
 8001c94:	b2db      	uxtb	r3, r3
 8001c96:	2b00      	cmp	r3, #0
 8001c98:	d001      	beq.n	8001c9e <vl53l1x__read_id+0x2e>
 8001c9a:	2300      	movs	r3, #0
 8001c9c:	e000      	b.n	8001ca0 <vl53l1x__read_id+0x30>
 8001c9e:	89fb      	ldrh	r3, [r7, #14]
 8001ca0:	bf00      	nop
 8001ca2:	4618      	mov	r0, r3
 8001ca4:	3710      	adds	r7, #16
 8001ca6:	46bd      	mov	sp, r7
 8001ca8:	bd80      	pop	{r7, pc}
 8001caa:	bf00      	nop

08001cac <vl53l1x__range_status_string>:
 8001cac:	b5f0      	push	{r4, r5, r6, r7, lr}
 8001cae:	b085      	sub	sp, #20
 8001cb0:	af00      	add	r7, sp, #0
 8001cb2:	6078      	str	r0, [r7, #4]
 8001cb4:	6039      	str	r1, [r7, #0]
 8001cb6:	683b      	ldr	r3, [r7, #0]
 8001cb8:	3328      	adds	r3, #40	; 0x28
 8001cba:	60fb      	str	r3, [r7, #12]
 8001cbc:	683b      	ldr	r3, [r7, #0]
 8001cbe:	f893 302a 	ldrb.w	r3, [r3, #42]	; 0x2a
 8001cc2:	4618      	mov	r0, r3
 8001cc4:	2100      	movs	r1, #0
 8001cc6:	f7fe fea7 	bl	8000a18 <vl53l1x__vl53l1_range_statusRP>
 8001cca:	4603      	mov	r3, r0
 8001ccc:	2b00      	cmp	r3, #0
 8001cce:	da04      	bge.n	8001cda <vl53l1x__range_status_string+0x2e>
 8001cd0:	48b1      	ldr	r0, [pc, #708]	; (8001f98 <vl53l1x__range_status_string+0x2ec>)
 8001cd2:	f240 3151 	movw	r1, #849	; 0x351
 8001cd6:	f008 fead 	bl	800aa34 <__gnat_rcheck_CE_Invalid_Data>
 8001cda:	683b      	ldr	r3, [r7, #0]
 8001cdc:	f893 302a 	ldrb.w	r3, [r3, #42]	; 0x2a
 8001ce0:	2b07      	cmp	r3, #7
 8001ce2:	f000 80cb 	beq.w	8001e7c <vl53l1x__range_status_string+0x1d0>
 8001ce6:	2b07      	cmp	r3, #7
 8001ce8:	d80f      	bhi.n	8001d0a <vl53l1x__range_status_string+0x5e>
 8001cea:	2b03      	cmp	r3, #3
 8001cec:	d068      	beq.n	8001dc0 <vl53l1x__range_status_string+0x114>
 8001cee:	2b03      	cmp	r3, #3
 8001cf0:	d804      	bhi.n	8001cfc <vl53l1x__range_status_string+0x50>
 8001cf2:	2b01      	cmp	r3, #1
 8001cf4:	d038      	beq.n	8001d68 <vl53l1x__range_status_string+0xbc>
 8001cf6:	2b01      	cmp	r3, #1
 8001cf8:	d84c      	bhi.n	8001d94 <vl53l1x__range_status_string+0xe8>
 8001cfa:	e01f      	b.n	8001d3c <vl53l1x__range_status_string+0x90>
 8001cfc:	2b05      	cmp	r3, #5
 8001cfe:	f000 808f 	beq.w	8001e20 <vl53l1x__range_status_string+0x174>
 8001d02:	2b05      	cmp	r3, #5
 8001d04:	f200 80a2 	bhi.w	8001e4c <vl53l1x__range_status_string+0x1a0>
 8001d08:	e072      	b.n	8001df0 <vl53l1x__range_status_string+0x144>
 8001d0a:	2b0b      	cmp	r3, #11
 8001d0c:	f000 8116 	beq.w	8001f3c <vl53l1x__range_status_string+0x290>
 8001d10:	2b0b      	cmp	r3, #11
 8001d12:	d806      	bhi.n	8001d22 <vl53l1x__range_status_string+0x76>
 8001d14:	2b09      	cmp	r3, #9
 8001d16:	f000 80e1 	beq.w	8001edc <vl53l1x__range_status_string+0x230>
 8001d1a:	2b09      	cmp	r3, #9
 8001d1c:	f200 80f6 	bhi.w	8001f0c <vl53l1x__range_status_string+0x260>
 8001d20:	e0c4      	b.n	8001eac <vl53l1x__range_status_string+0x200>
 8001d22:	2b0d      	cmp	r3, #13
 8001d24:	f000 8154 	beq.w	8001fd0 <vl53l1x__range_status_string+0x324>
 8001d28:	2b0d      	cmp	r3, #13
 8001d2a:	f0c0 811d 	bcc.w	8001f68 <vl53l1x__range_status_string+0x2bc>
 8001d2e:	2b0e      	cmp	r3, #14
 8001d30:	f000 8164 	beq.w	8001ffc <vl53l1x__range_status_string+0x350>
 8001d34:	2bff      	cmp	r3, #255	; 0xff
 8001d36:	f000 8177 	beq.w	8002028 <vl53l1x__range_status_string+0x37c>
 8001d3a:	e188      	b.n	800204e <vl53l1x__range_status_string+0x3a2>
 8001d3c:	2014      	movs	r0, #20
 8001d3e:	f009 f9ff 	bl	800b140 <system__secondary_stack__ss_allocate>
 8001d42:	4606      	mov	r6, r0
 8001d44:	4632      	mov	r2, r6
 8001d46:	4b95      	ldr	r3, [pc, #596]	; (8001f9c <vl53l1x__range_status_string+0x2f0>)
 8001d48:	4614      	mov	r4, r2
 8001d4a:	461d      	mov	r5, r3
 8001d4c:	cd0f      	ldmia	r5!, {r0, r1, r2, r3}
 8001d4e:	c40f      	stmia	r4!, {r0, r1, r2, r3}
 8001d50:	682b      	ldr	r3, [r5, #0]
 8001d52:	6023      	str	r3, [r4, #0]
 8001d54:	4633      	mov	r3, r6
 8001d56:	f103 0208 	add.w	r2, r3, #8
 8001d5a:	687b      	ldr	r3, [r7, #4]
 8001d5c:	601a      	str	r2, [r3, #0]
 8001d5e:	4633      	mov	r3, r6
 8001d60:	461a      	mov	r2, r3
 8001d62:	687b      	ldr	r3, [r7, #4]
 8001d64:	605a      	str	r2, [r3, #4]
 8001d66:	e185      	b.n	8002074 <vl53l1x__range_status_string+0x3c8>
 8001d68:	2014      	movs	r0, #20
 8001d6a:	f009 f9e9 	bl	800b140 <system__secondary_stack__ss_allocate>
 8001d6e:	4606      	mov	r6, r0
 8001d70:	4632      	mov	r2, r6
 8001d72:	4b8b      	ldr	r3, [pc, #556]	; (8001fa0 <vl53l1x__range_status_string+0x2f4>)
 8001d74:	4614      	mov	r4, r2
 8001d76:	461d      	mov	r5, r3
 8001d78:	cd0f      	ldmia	r5!, {r0, r1, r2, r3}
 8001d7a:	c40f      	stmia	r4!, {r0, r1, r2, r3}
 8001d7c:	682b      	ldr	r3, [r5, #0]
 8001d7e:	6023      	str	r3, [r4, #0]
 8001d80:	4633      	mov	r3, r6
 8001d82:	f103 0208 	add.w	r2, r3, #8
 8001d86:	687b      	ldr	r3, [r7, #4]
 8001d88:	601a      	str	r2, [r3, #0]
 8001d8a:	4633      	mov	r3, r6
 8001d8c:	461a      	mov	r2, r3
 8001d8e:	687b      	ldr	r3, [r7, #4]
 8001d90:	605a      	str	r2, [r3, #4]
 8001d92:	e16f      	b.n	8002074 <vl53l1x__range_status_string+0x3c8>
 8001d94:	2014      	movs	r0, #20
 8001d96:	f009 f9d3 	bl	800b140 <system__secondary_stack__ss_allocate>
 8001d9a:	4606      	mov	r6, r0
 8001d9c:	4632      	mov	r2, r6
 8001d9e:	4b81      	ldr	r3, [pc, #516]	; (8001fa4 <vl53l1x__range_status_string+0x2f8>)
 8001da0:	4614      	mov	r4, r2
 8001da2:	461d      	mov	r5, r3
 8001da4:	cd0f      	ldmia	r5!, {r0, r1, r2, r3}
 8001da6:	c40f      	stmia	r4!, {r0, r1, r2, r3}
 8001da8:	682b      	ldr	r3, [r5, #0]
 8001daa:	6023      	str	r3, [r4, #0]
 8001dac:	4633      	mov	r3, r6
 8001dae:	f103 0208 	add.w	r2, r3, #8
 8001db2:	687b      	ldr	r3, [r7, #4]
 8001db4:	601a      	str	r2, [r3, #0]
 8001db6:	4633      	mov	r3, r6
 8001db8:	461a      	mov	r2, r3
 8001dba:	687b      	ldr	r3, [r7, #4]
 8001dbc:	605a      	str	r2, [r3, #4]
 8001dbe:	e159      	b.n	8002074 <vl53l1x__range_status_string+0x3c8>
 8001dc0:	2024      	movs	r0, #36	; 0x24
 8001dc2:	f009 f9bd 	bl	800b140 <system__secondary_stack__ss_allocate>
 8001dc6:	4606      	mov	r6, r0
 8001dc8:	4632      	mov	r2, r6
 8001dca:	4b77      	ldr	r3, [pc, #476]	; (8001fa8 <vl53l1x__range_status_string+0x2fc>)
 8001dcc:	4614      	mov	r4, r2
 8001dce:	461d      	mov	r5, r3
 8001dd0:	cd0f      	ldmia	r5!, {r0, r1, r2, r3}
 8001dd2:	c40f      	stmia	r4!, {r0, r1, r2, r3}
 8001dd4:	cd0f      	ldmia	r5!, {r0, r1, r2, r3}
 8001dd6:	c40f      	stmia	r4!, {r0, r1, r2, r3}
 8001dd8:	682b      	ldr	r3, [r5, #0]
 8001dda:	6023      	str	r3, [r4, #0]
 8001ddc:	4633      	mov	r3, r6
 8001dde:	f103 0208 	add.w	r2, r3, #8
 8001de2:	687b      	ldr	r3, [r7, #4]
 8001de4:	601a      	str	r2, [r3, #0]
 8001de6:	4633      	mov	r3, r6
 8001de8:	461a      	mov	r2, r3
 8001dea:	687b      	ldr	r3, [r7, #4]
 8001dec:	605a      	str	r2, [r3, #4]
 8001dee:	e141      	b.n	8002074 <vl53l1x__range_status_string+0x3c8>
 8001df0:	2018      	movs	r0, #24
 8001df2:	f009 f9a5 	bl	800b140 <system__secondary_stack__ss_allocate>
 8001df6:	4606      	mov	r6, r0
 8001df8:	4632      	mov	r2, r6
 8001dfa:	4b6c      	ldr	r3, [pc, #432]	; (8001fac <vl53l1x__range_status_string+0x300>)
 8001dfc:	4614      	mov	r4, r2
 8001dfe:	461d      	mov	r5, r3
 8001e00:	cd0f      	ldmia	r5!, {r0, r1, r2, r3}
 8001e02:	c40f      	stmia	r4!, {r0, r1, r2, r3}
 8001e04:	e895 0003 	ldmia.w	r5, {r0, r1}
 8001e08:	e884 0003 	stmia.w	r4, {r0, r1}
 8001e0c:	4633      	mov	r3, r6
 8001e0e:	f103 0208 	add.w	r2, r3, #8
 8001e12:	687b      	ldr	r3, [r7, #4]
 8001e14:	601a      	str	r2, [r3, #0]
 8001e16:	4633      	mov	r3, r6
 8001e18:	461a      	mov	r2, r3
 8001e1a:	687b      	ldr	r3, [r7, #4]
 8001e1c:	605a      	str	r2, [r3, #4]
 8001e1e:	e129      	b.n	8002074 <vl53l1x__range_status_string+0x3c8>
 8001e20:	2014      	movs	r0, #20
 8001e22:	f009 f98d 	bl	800b140 <system__secondary_stack__ss_allocate>
 8001e26:	4606      	mov	r6, r0
 8001e28:	4632      	mov	r2, r6
 8001e2a:	4b61      	ldr	r3, [pc, #388]	; (8001fb0 <vl53l1x__range_status_string+0x304>)
 8001e2c:	4614      	mov	r4, r2
 8001e2e:	461d      	mov	r5, r3
 8001e30:	cd0f      	ldmia	r5!, {r0, r1, r2, r3}
 8001e32:	c40f      	stmia	r4!, {r0, r1, r2, r3}
 8001e34:	682b      	ldr	r3, [r5, #0]
 8001e36:	6023      	str	r3, [r4, #0]
 8001e38:	4633      	mov	r3, r6
 8001e3a:	f103 0208 	add.w	r2, r3, #8
 8001e3e:	687b      	ldr	r3, [r7, #4]
 8001e40:	601a      	str	r2, [r3, #0]
 8001e42:	4633      	mov	r3, r6
 8001e44:	461a      	mov	r2, r3
 8001e46:	687b      	ldr	r3, [r7, #4]
 8001e48:	605a      	str	r2, [r3, #4]
 8001e4a:	e113      	b.n	8002074 <vl53l1x__range_status_string+0x3c8>
 8001e4c:	2024      	movs	r0, #36	; 0x24
 8001e4e:	f009 f977 	bl	800b140 <system__secondary_stack__ss_allocate>
 8001e52:	4606      	mov	r6, r0
 8001e54:	4632      	mov	r2, r6
 8001e56:	4b57      	ldr	r3, [pc, #348]	; (8001fb4 <vl53l1x__range_status_string+0x308>)
 8001e58:	4614      	mov	r4, r2
 8001e5a:	461d      	mov	r5, r3
 8001e5c:	cd0f      	ldmia	r5!, {r0, r1, r2, r3}
 8001e5e:	c40f      	stmia	r4!, {r0, r1, r2, r3}
 8001e60:	cd0f      	ldmia	r5!, {r0, r1, r2, r3}
 8001e62:	c40f      	stmia	r4!, {r0, r1, r2, r3}
 8001e64:	682b      	ldr	r3, [r5, #0]
 8001e66:	6023      	str	r3, [r4, #0]
 8001e68:	4633      	mov	r3, r6
 8001e6a:	f103 0208 	add.w	r2, r3, #8
 8001e6e:	687b      	ldr	r3, [r7, #4]
 8001e70:	601a      	str	r2, [r3, #0]
 8001e72:	4633      	mov	r3, r6
 8001e74:	461a      	mov	r2, r3
 8001e76:	687b      	ldr	r3, [r7, #4]
 8001e78:	605a      	str	r2, [r3, #4]
 8001e7a:	e0fb      	b.n	8002074 <vl53l1x__range_status_string+0x3c8>
 8001e7c:	2018      	movs	r0, #24
 8001e7e:	f009 f95f 	bl	800b140 <system__secondary_stack__ss_allocate>
 8001e82:	4606      	mov	r6, r0
 8001e84:	4632      	mov	r2, r6
 8001e86:	4b4c      	ldr	r3, [pc, #304]	; (8001fb8 <vl53l1x__range_status_string+0x30c>)
 8001e88:	4614      	mov	r4, r2
 8001e8a:	461d      	mov	r5, r3
 8001e8c:	cd0f      	ldmia	r5!, {r0, r1, r2, r3}
 8001e8e:	c40f      	stmia	r4!, {r0, r1, r2, r3}
 8001e90:	e895 0003 	ldmia.w	r5, {r0, r1}
 8001e94:	e884 0003 	stmia.w	r4, {r0, r1}
 8001e98:	4633      	mov	r3, r6
 8001e9a:	f103 0208 	add.w	r2, r3, #8
 8001e9e:	687b      	ldr	r3, [r7, #4]
 8001ea0:	601a      	str	r2, [r3, #0]
 8001ea2:	4633      	mov	r3, r6
 8001ea4:	461a      	mov	r2, r3
 8001ea6:	687b      	ldr	r3, [r7, #4]
 8001ea8:	605a      	str	r2, [r3, #4]
 8001eaa:	e0e3      	b.n	8002074 <vl53l1x__range_status_string+0x3c8>
 8001eac:	2018      	movs	r0, #24
 8001eae:	f009 f947 	bl	800b140 <system__secondary_stack__ss_allocate>
 8001eb2:	4606      	mov	r6, r0
 8001eb4:	4632      	mov	r2, r6
 8001eb6:	4b41      	ldr	r3, [pc, #260]	; (8001fbc <vl53l1x__range_status_string+0x310>)
 8001eb8:	4614      	mov	r4, r2
 8001eba:	461d      	mov	r5, r3
 8001ebc:	cd0f      	ldmia	r5!, {r0, r1, r2, r3}
 8001ebe:	c40f      	stmia	r4!, {r0, r1, r2, r3}
 8001ec0:	e895 0003 	ldmia.w	r5, {r0, r1}
 8001ec4:	e884 0003 	stmia.w	r4, {r0, r1}
 8001ec8:	4633      	mov	r3, r6
 8001eca:	f103 0208 	add.w	r2, r3, #8
 8001ece:	687b      	ldr	r3, [r7, #4]
 8001ed0:	601a      	str	r2, [r3, #0]
 8001ed2:	4633      	mov	r3, r6
 8001ed4:	461a      	mov	r2, r3
 8001ed6:	687b      	ldr	r3, [r7, #4]
 8001ed8:	605a      	str	r2, [r3, #4]
 8001eda:	e0cb      	b.n	8002074 <vl53l1x__range_status_string+0x3c8>
 8001edc:	2018      	movs	r0, #24
 8001ede:	f009 f92f 	bl	800b140 <system__secondary_stack__ss_allocate>
 8001ee2:	4606      	mov	r6, r0
 8001ee4:	4632      	mov	r2, r6
 8001ee6:	4b36      	ldr	r3, [pc, #216]	; (8001fc0 <vl53l1x__range_status_string+0x314>)
 8001ee8:	4614      	mov	r4, r2
 8001eea:	461d      	mov	r5, r3
 8001eec:	cd0f      	ldmia	r5!, {r0, r1, r2, r3}
 8001eee:	c40f      	stmia	r4!, {r0, r1, r2, r3}
 8001ef0:	e895 0003 	ldmia.w	r5, {r0, r1}
 8001ef4:	e884 0003 	stmia.w	r4, {r0, r1}
 8001ef8:	4633      	mov	r3, r6
 8001efa:	f103 0208 	add.w	r2, r3, #8
 8001efe:	687b      	ldr	r3, [r7, #4]
 8001f00:	601a      	str	r2, [r3, #0]
 8001f02:	4633      	mov	r3, r6
 8001f04:	461a      	mov	r2, r3
 8001f06:	687b      	ldr	r3, [r7, #4]
 8001f08:	605a      	str	r2, [r3, #4]
 8001f0a:	e0b3      	b.n	8002074 <vl53l1x__range_status_string+0x3c8>
 8001f0c:	201c      	movs	r0, #28
 8001f0e:	f009 f917 	bl	800b140 <system__secondary_stack__ss_allocate>
 8001f12:	4606      	mov	r6, r0
 8001f14:	4632      	mov	r2, r6
 8001f16:	4b2b      	ldr	r3, [pc, #172]	; (8001fc4 <vl53l1x__range_status_string+0x318>)
 8001f18:	4614      	mov	r4, r2
 8001f1a:	461d      	mov	r5, r3
 8001f1c:	cd0f      	ldmia	r5!, {r0, r1, r2, r3}
 8001f1e:	c40f      	stmia	r4!, {r0, r1, r2, r3}
 8001f20:	e895 0007 	ldmia.w	r5, {r0, r1, r2}
 8001f24:	e884 0007 	stmia.w	r4, {r0, r1, r2}
 8001f28:	4633      	mov	r3, r6
 8001f2a:	f103 0208 	add.w	r2, r3, #8
 8001f2e:	687b      	ldr	r3, [r7, #4]
 8001f30:	601a      	str	r2, [r3, #0]
 8001f32:	4633      	mov	r3, r6
 8001f34:	461a      	mov	r2, r3
 8001f36:	687b      	ldr	r3, [r7, #4]
 8001f38:	605a      	str	r2, [r3, #4]
 8001f3a:	e09b      	b.n	8002074 <vl53l1x__range_status_string+0x3c8>
 8001f3c:	2014      	movs	r0, #20
 8001f3e:	f009 f8ff 	bl	800b140 <system__secondary_stack__ss_allocate>
 8001f42:	4606      	mov	r6, r0
 8001f44:	4632      	mov	r2, r6
 8001f46:	4b20      	ldr	r3, [pc, #128]	; (8001fc8 <vl53l1x__range_status_string+0x31c>)
 8001f48:	4614      	mov	r4, r2
 8001f4a:	461d      	mov	r5, r3
 8001f4c:	cd0f      	ldmia	r5!, {r0, r1, r2, r3}
 8001f4e:	c40f      	stmia	r4!, {r0, r1, r2, r3}
 8001f50:	682b      	ldr	r3, [r5, #0]
 8001f52:	6023      	str	r3, [r4, #0]
 8001f54:	4633      	mov	r3, r6
 8001f56:	f103 0208 	add.w	r2, r3, #8
 8001f5a:	687b      	ldr	r3, [r7, #4]
 8001f5c:	601a      	str	r2, [r3, #0]
 8001f5e:	4633      	mov	r3, r6
 8001f60:	461a      	mov	r2, r3
 8001f62:	687b      	ldr	r3, [r7, #4]
 8001f64:	605a      	str	r2, [r3, #4]
 8001f66:	e085      	b.n	8002074 <vl53l1x__range_status_string+0x3c8>
 8001f68:	2024      	movs	r0, #36	; 0x24
 8001f6a:	f009 f8e9 	bl	800b140 <system__secondary_stack__ss_allocate>
 8001f6e:	4606      	mov	r6, r0
 8001f70:	4632      	mov	r2, r6
 8001f72:	4b16      	ldr	r3, [pc, #88]	; (8001fcc <vl53l1x__range_status_string+0x320>)
 8001f74:	4614      	mov	r4, r2
 8001f76:	461d      	mov	r5, r3
 8001f78:	cd0f      	ldmia	r5!, {r0, r1, r2, r3}
 8001f7a:	c40f      	stmia	r4!, {r0, r1, r2, r3}
 8001f7c:	cd0f      	ldmia	r5!, {r0, r1, r2, r3}
 8001f7e:	c40f      	stmia	r4!, {r0, r1, r2, r3}
 8001f80:	682b      	ldr	r3, [r5, #0]
 8001f82:	6023      	str	r3, [r4, #0]
 8001f84:	4633      	mov	r3, r6
 8001f86:	f103 0208 	add.w	r2, r3, #8
 8001f8a:	687b      	ldr	r3, [r7, #4]
 8001f8c:	601a      	str	r2, [r3, #0]
 8001f8e:	4633      	mov	r3, r6
 8001f90:	461a      	mov	r2, r3
 8001f92:	687b      	ldr	r3, [r7, #4]
 8001f94:	605a      	str	r2, [r3, #4]
 8001f96:	e06d      	b.n	8002074 <vl53l1x__range_status_string+0x3c8>
 8001f98:	0800ea18 	.word	0x0800ea18
 8001f9c:	0800ea8c 	.word	0x0800ea8c
 8001fa0:	0800eaa0 	.word	0x0800eaa0
 8001fa4:	0800eab4 	.word	0x0800eab4
 8001fa8:	0800eac8 	.word	0x0800eac8
 8001fac:	0800eaec 	.word	0x0800eaec
 8001fb0:	0800eb04 	.word	0x0800eb04
 8001fb4:	0800eb18 	.word	0x0800eb18
 8001fb8:	0800eb3c 	.word	0x0800eb3c
 8001fbc:	0800eb54 	.word	0x0800eb54
 8001fc0:	0800eb6c 	.word	0x0800eb6c
 8001fc4:	0800eb84 	.word	0x0800eb84
 8001fc8:	0800eba0 	.word	0x0800eba0
 8001fcc:	0800ebb4 	.word	0x0800ebb4
 8001fd0:	2014      	movs	r0, #20
 8001fd2:	f009 f8b5 	bl	800b140 <system__secondary_stack__ss_allocate>
 8001fd6:	4606      	mov	r6, r0
 8001fd8:	4632      	mov	r2, r6
 8001fda:	4b28      	ldr	r3, [pc, #160]	; (800207c <vl53l1x__range_status_string+0x3d0>)
 8001fdc:	4614      	mov	r4, r2
 8001fde:	461d      	mov	r5, r3
 8001fe0:	cd0f      	ldmia	r5!, {r0, r1, r2, r3}
 8001fe2:	c40f      	stmia	r4!, {r0, r1, r2, r3}
 8001fe4:	682b      	ldr	r3, [r5, #0]
 8001fe6:	6023      	str	r3, [r4, #0]
 8001fe8:	4633      	mov	r3, r6
 8001fea:	f103 0208 	add.w	r2, r3, #8
 8001fee:	687b      	ldr	r3, [r7, #4]
 8001ff0:	601a      	str	r2, [r3, #0]
 8001ff2:	4633      	mov	r3, r6
 8001ff4:	461a      	mov	r2, r3
 8001ff6:	687b      	ldr	r3, [r7, #4]
 8001ff8:	605a      	str	r2, [r3, #4]
 8001ffa:	e03b      	b.n	8002074 <vl53l1x__range_status_string+0x3c8>
 8001ffc:	2014      	movs	r0, #20
 8001ffe:	f009 f89f 	bl	800b140 <system__secondary_stack__ss_allocate>
 8002002:	4606      	mov	r6, r0
 8002004:	4632      	mov	r2, r6
 8002006:	4b1e      	ldr	r3, [pc, #120]	; (8002080 <vl53l1x__range_status_string+0x3d4>)
 8002008:	4614      	mov	r4, r2
 800200a:	461d      	mov	r5, r3
 800200c:	cd0f      	ldmia	r5!, {r0, r1, r2, r3}
 800200e:	c40f      	stmia	r4!, {r0, r1, r2, r3}
 8002010:	682b      	ldr	r3, [r5, #0]
 8002012:	6023      	str	r3, [r4, #0]
 8002014:	4633      	mov	r3, r6
 8002016:	f103 0208 	add.w	r2, r3, #8
 800201a:	687b      	ldr	r3, [r7, #4]
 800201c:	601a      	str	r2, [r3, #0]
 800201e:	4633      	mov	r3, r6
 8002020:	461a      	mov	r2, r3
 8002022:	687b      	ldr	r3, [r7, #4]
 8002024:	605a      	str	r2, [r3, #4]
 8002026:	e025      	b.n	8002074 <vl53l1x__range_status_string+0x3c8>
 8002028:	200c      	movs	r0, #12
 800202a:	f009 f889 	bl	800b140 <system__secondary_stack__ss_allocate>
 800202e:	4604      	mov	r4, r0
 8002030:	4623      	mov	r3, r4
 8002032:	4a14      	ldr	r2, [pc, #80]	; (8002084 <vl53l1x__range_status_string+0x3d8>)
 8002034:	ca07      	ldmia	r2, {r0, r1, r2}
 8002036:	e883 0007 	stmia.w	r3, {r0, r1, r2}
 800203a:	4623      	mov	r3, r4
 800203c:	f103 0208 	add.w	r2, r3, #8
 8002040:	687b      	ldr	r3, [r7, #4]
 8002042:	601a      	str	r2, [r3, #0]
 8002044:	4623      	mov	r3, r4
 8002046:	461a      	mov	r2, r3
 8002048:	687b      	ldr	r3, [r7, #4]
 800204a:	605a      	str	r2, [r3, #4]
 800204c:	e012      	b.n	8002074 <vl53l1x__range_status_string+0x3c8>
 800204e:	2010      	movs	r0, #16
 8002050:	f009 f876 	bl	800b140 <system__secondary_stack__ss_allocate>
 8002054:	4605      	mov	r5, r0
 8002056:	462a      	mov	r2, r5
 8002058:	4b0b      	ldr	r3, [pc, #44]	; (8002088 <vl53l1x__range_status_string+0x3dc>)
 800205a:	4614      	mov	r4, r2
 800205c:	cb0f      	ldmia	r3, {r0, r1, r2, r3}
 800205e:	e884 000f 	stmia.w	r4, {r0, r1, r2, r3}
 8002062:	462b      	mov	r3, r5
 8002064:	f103 0208 	add.w	r2, r3, #8
 8002068:	687b      	ldr	r3, [r7, #4]
 800206a:	601a      	str	r2, [r3, #0]
 800206c:	462b      	mov	r3, r5
 800206e:	461a      	mov	r2, r3
 8002070:	687b      	ldr	r3, [r7, #4]
 8002072:	605a      	str	r2, [r3, #4]
 8002074:	6878      	ldr	r0, [r7, #4]
 8002076:	3714      	adds	r7, #20
 8002078:	46bd      	mov	sp, r7
 800207a:	bdf0      	pop	{r4, r5, r6, r7, pc}
 800207c:	0800ebd8 	.word	0x0800ebd8
 8002080:	0800ebec 	.word	0x0800ebec
 8002084:	0800ec00 	.word	0x0800ec00
 8002088:	0800ec0c 	.word	0x0800ec0c

0800208c <stm32__board__initialize_leds>:
 800208c:	b580      	push	{r7, lr}
 800208e:	b082      	sub	sp, #8
 8002090:	af00      	add	r7, sp, #0
 8002092:	4809      	ldr	r0, [pc, #36]	; (80020b8 <stm32__board__initialize_leds+0x2c>)
 8002094:	f000 f894 	bl	80021c0 <stm32__device__enable_clock__2>
 8002098:	2301      	movs	r3, #1
 800209a:	713b      	strb	r3, [r7, #4]
 800209c:	2300      	movs	r3, #0
 800209e:	717b      	strb	r3, [r7, #5]
 80020a0:	2300      	movs	r3, #0
 80020a2:	71bb      	strb	r3, [r7, #6]
 80020a4:	2300      	movs	r3, #0
 80020a6:	71fb      	strb	r3, [r7, #7]
 80020a8:	4803      	ldr	r0, [pc, #12]	; (80020b8 <stm32__board__initialize_leds+0x2c>)
 80020aa:	6879      	ldr	r1, [r7, #4]
 80020ac:	f003 fd14 	bl	8005ad8 <stm32__gpio__configure_io>
 80020b0:	3708      	adds	r7, #8
 80020b2:	46bd      	mov	sp, r7
 80020b4:	bd80      	pop	{r7, pc}
 80020b6:	bf00      	nop
 80020b8:	200004f0 	.word	0x200004f0

080020bc <stm32__board__initialize_board>:
 80020bc:	b580      	push	{r7, lr}
 80020be:	af00      	add	r7, sp, #0
 80020c0:	f7ff ffe4 	bl	800208c <stm32__board__initialize_leds>
 80020c4:	bd80      	pop	{r7, pc}
 80020c6:	bf00      	nop

080020c8 <stm32__rcc__syscfg_clock_enable>:
 80020c8:	b480      	push	{r7}
 80020ca:	af00      	add	r7, sp, #0
 80020cc:	4b06      	ldr	r3, [pc, #24]	; (80020e8 <stm32__rcc__syscfg_clock_enable+0x20>)
 80020ce:	3360      	adds	r3, #96	; 0x60
 80020d0:	681b      	ldr	r3, [r3, #0]
 80020d2:	461a      	mov	r2, r3
 80020d4:	4613      	mov	r3, r2
 80020d6:	f043 0201 	orr.w	r2, r3, #1
 80020da:	4b03      	ldr	r3, [pc, #12]	; (80020e8 <stm32__rcc__syscfg_clock_enable+0x20>)
 80020dc:	3360      	adds	r3, #96	; 0x60
 80020de:	601a      	str	r2, [r3, #0]
 80020e0:	46bd      	mov	sp, r7
 80020e2:	f85d 7b04 	ldr.w	r7, [sp], #4
 80020e6:	4770      	bx	lr
 80020e8:	40021000 	.word	0x40021000

080020ec <stm32__device__enable_clock>:
 80020ec:	b590      	push	{r4, r7, lr}
 80020ee:	b083      	sub	sp, #12
 80020f0:	af00      	add	r7, sp, #0
 80020f2:	6078      	str	r0, [r7, #4]
 80020f4:	687a      	ldr	r2, [r7, #4]
 80020f6:	f1b2 4f90 	cmp.w	r2, #1207959552	; 0x48000000
 80020fa:	d10a      	bne.n	8002112 <stm32__device__enable_clock+0x26>
 80020fc:	4b28      	ldr	r3, [pc, #160]	; (80021a0 <stm32__device__enable_clock+0xb4>)
 80020fe:	334c      	adds	r3, #76	; 0x4c
 8002100:	681b      	ldr	r3, [r3, #0]
 8002102:	461a      	mov	r2, r3
 8002104:	4613      	mov	r3, r2
 8002106:	f043 0201 	orr.w	r2, r3, #1
 800210a:	4b25      	ldr	r3, [pc, #148]	; (80021a0 <stm32__device__enable_clock+0xb4>)
 800210c:	334c      	adds	r3, #76	; 0x4c
 800210e:	601a      	str	r2, [r3, #0]
 8002110:	e042      	b.n	8002198 <stm32__device__enable_clock+0xac>
 8002112:	687a      	ldr	r2, [r7, #4]
 8002114:	4923      	ldr	r1, [pc, #140]	; (80021a4 <stm32__device__enable_clock+0xb8>)
 8002116:	428a      	cmp	r2, r1
 8002118:	d10a      	bne.n	8002130 <stm32__device__enable_clock+0x44>
 800211a:	4b21      	ldr	r3, [pc, #132]	; (80021a0 <stm32__device__enable_clock+0xb4>)
 800211c:	334c      	adds	r3, #76	; 0x4c
 800211e:	681b      	ldr	r3, [r3, #0]
 8002120:	461a      	mov	r2, r3
 8002122:	4613      	mov	r3, r2
 8002124:	f043 0202 	orr.w	r2, r3, #2
 8002128:	4b1d      	ldr	r3, [pc, #116]	; (80021a0 <stm32__device__enable_clock+0xb4>)
 800212a:	334c      	adds	r3, #76	; 0x4c
 800212c:	601a      	str	r2, [r3, #0]
 800212e:	e033      	b.n	8002198 <stm32__device__enable_clock+0xac>
 8002130:	687a      	ldr	r2, [r7, #4]
 8002132:	491d      	ldr	r1, [pc, #116]	; (80021a8 <stm32__device__enable_clock+0xbc>)
 8002134:	428a      	cmp	r2, r1
 8002136:	d10a      	bne.n	800214e <stm32__device__enable_clock+0x62>
 8002138:	4b19      	ldr	r3, [pc, #100]	; (80021a0 <stm32__device__enable_clock+0xb4>)
 800213a:	334c      	adds	r3, #76	; 0x4c
 800213c:	681b      	ldr	r3, [r3, #0]
 800213e:	461a      	mov	r2, r3
 8002140:	4613      	mov	r3, r2
 8002142:	f043 0204 	orr.w	r2, r3, #4
 8002146:	4b16      	ldr	r3, [pc, #88]	; (80021a0 <stm32__device__enable_clock+0xb4>)
 8002148:	334c      	adds	r3, #76	; 0x4c
 800214a:	601a      	str	r2, [r3, #0]
 800214c:	e024      	b.n	8002198 <stm32__device__enable_clock+0xac>
 800214e:	687a      	ldr	r2, [r7, #4]
 8002150:	4916      	ldr	r1, [pc, #88]	; (80021ac <stm32__device__enable_clock+0xc0>)
 8002152:	428a      	cmp	r2, r1
 8002154:	d10a      	bne.n	800216c <stm32__device__enable_clock+0x80>
 8002156:	4b12      	ldr	r3, [pc, #72]	; (80021a0 <stm32__device__enable_clock+0xb4>)
 8002158:	334c      	adds	r3, #76	; 0x4c
 800215a:	681b      	ldr	r3, [r3, #0]
 800215c:	461a      	mov	r2, r3
 800215e:	4613      	mov	r3, r2
 8002160:	f043 0208 	orr.w	r2, r3, #8
 8002164:	4b0e      	ldr	r3, [pc, #56]	; (80021a0 <stm32__device__enable_clock+0xb4>)
 8002166:	334c      	adds	r3, #76	; 0x4c
 8002168:	601a      	str	r2, [r3, #0]
 800216a:	e015      	b.n	8002198 <stm32__device__enable_clock+0xac>
 800216c:	687a      	ldr	r2, [r7, #4]
 800216e:	4910      	ldr	r1, [pc, #64]	; (80021b0 <stm32__device__enable_clock+0xc4>)
 8002170:	428a      	cmp	r2, r1
 8002172:	d10a      	bne.n	800218a <stm32__device__enable_clock+0x9e>
 8002174:	4b0a      	ldr	r3, [pc, #40]	; (80021a0 <stm32__device__enable_clock+0xb4>)
 8002176:	334c      	adds	r3, #76	; 0x4c
 8002178:	681b      	ldr	r3, [r3, #0]
 800217a:	461a      	mov	r2, r3
 800217c:	4613      	mov	r3, r2
 800217e:	f043 0210 	orr.w	r2, r3, #16
 8002182:	4b07      	ldr	r3, [pc, #28]	; (80021a0 <stm32__device__enable_clock+0xb4>)
 8002184:	334c      	adds	r3, #76	; 0x4c
 8002186:	601a      	str	r2, [r3, #0]
 8002188:	e006      	b.n	8002198 <stm32__device__enable_clock+0xac>
 800218a:	4b0a      	ldr	r3, [pc, #40]	; (80021b4 <stm32__device__enable_clock+0xc8>)
 800218c:	4c0a      	ldr	r4, [pc, #40]	; (80021b8 <stm32__device__enable_clock+0xcc>)
 800218e:	480b      	ldr	r0, [pc, #44]	; (80021bc <stm32__device__enable_clock+0xd0>)
 8002190:	461a      	mov	r2, r3
 8002192:	4623      	mov	r3, r4
 8002194:	f008 fbe4 	bl	800a960 <__gnat_raise_exception>
 8002198:	370c      	adds	r7, #12
 800219a:	46bd      	mov	sp, r7
 800219c:	bd90      	pop	{r4, r7, pc}
 800219e:	bf00      	nop
 80021a0:	40021000 	.word	0x40021000
 80021a4:	48000400 	.word	0x48000400
 80021a8:	48000800 	.word	0x48000800
 80021ac:	48000c00 	.word	0x48000c00
 80021b0:	48001000 	.word	0x48001000
 80021b4:	0800ec38 	.word	0x0800ec38
 80021b8:	0800ec4c 	.word	0x0800ec4c
 80021bc:	20000018 	.word	0x20000018

080021c0 <stm32__device__enable_clock__2>:
 80021c0:	b580      	push	{r7, lr}
 80021c2:	b082      	sub	sp, #8
 80021c4:	af00      	add	r7, sp, #0
 80021c6:	6078      	str	r0, [r7, #4]
 80021c8:	687b      	ldr	r3, [r7, #4]
 80021ca:	685b      	ldr	r3, [r3, #4]
 80021cc:	2b00      	cmp	r3, #0
 80021ce:	d103      	bne.n	80021d8 <stm32__device__enable_clock__2+0x18>
 80021d0:	4805      	ldr	r0, [pc, #20]	; (80021e8 <stm32__device__enable_clock__2+0x28>)
 80021d2:	2151      	movs	r1, #81	; 0x51
 80021d4:	f008 fc06 	bl	800a9e4 <__gnat_rcheck_CE_Access_Check>
 80021d8:	687b      	ldr	r3, [r7, #4]
 80021da:	685b      	ldr	r3, [r3, #4]
 80021dc:	4618      	mov	r0, r3
 80021de:	f7ff ff85 	bl	80020ec <stm32__device__enable_clock>
 80021e2:	3708      	adds	r7, #8
 80021e4:	46bd      	mov	sp, r7
 80021e6:	bd80      	pop	{r7, pc}
 80021e8:	0800ec54 	.word	0x0800ec54

080021ec <stm32__device__as_port_id>:
 80021ec:	b590      	push	{r4, r7, lr}
 80021ee:	b085      	sub	sp, #20
 80021f0:	af00      	add	r7, sp, #0
 80021f2:	6078      	str	r0, [r7, #4]
 80021f4:	f107 0220 	add.w	r2, r7, #32
 80021f8:	60fa      	str	r2, [r7, #12]
 80021fa:	687a      	ldr	r2, [r7, #4]
 80021fc:	6852      	ldr	r2, [r2, #4]
 80021fe:	4611      	mov	r1, r2
 8002200:	4a10      	ldr	r2, [pc, #64]	; (8002244 <stm32__device__as_port_id+0x58>)
 8002202:	4291      	cmp	r1, r2
 8002204:	d101      	bne.n	800220a <stm32__device__as_port_id+0x1e>
 8002206:	2300      	movs	r3, #0
 8002208:	e016      	b.n	8002238 <stm32__device__as_port_id+0x4c>
 800220a:	687a      	ldr	r2, [r7, #4]
 800220c:	6852      	ldr	r2, [r2, #4]
 800220e:	4611      	mov	r1, r2
 8002210:	4a0d      	ldr	r2, [pc, #52]	; (8002248 <stm32__device__as_port_id+0x5c>)
 8002212:	4291      	cmp	r1, r2
 8002214:	d101      	bne.n	800221a <stm32__device__as_port_id+0x2e>
 8002216:	2301      	movs	r3, #1
 8002218:	e00e      	b.n	8002238 <stm32__device__as_port_id+0x4c>
 800221a:	687a      	ldr	r2, [r7, #4]
 800221c:	6852      	ldr	r2, [r2, #4]
 800221e:	4611      	mov	r1, r2
 8002220:	4a0a      	ldr	r2, [pc, #40]	; (800224c <stm32__device__as_port_id+0x60>)
 8002222:	4291      	cmp	r1, r2
 8002224:	d101      	bne.n	800222a <stm32__device__as_port_id+0x3e>
 8002226:	2302      	movs	r3, #2
 8002228:	e006      	b.n	8002238 <stm32__device__as_port_id+0x4c>
 800222a:	4b09      	ldr	r3, [pc, #36]	; (8002250 <stm32__device__as_port_id+0x64>)
 800222c:	4c09      	ldr	r4, [pc, #36]	; (8002254 <stm32__device__as_port_id+0x68>)
 800222e:	480a      	ldr	r0, [pc, #40]	; (8002258 <stm32__device__as_port_id+0x6c>)
 8002230:	461a      	mov	r2, r3
 8002232:	4623      	mov	r3, r4
 8002234:	f008 fb94 	bl	800a960 <__gnat_raise_exception>
 8002238:	bf00      	nop
 800223a:	4618      	mov	r0, r3
 800223c:	3714      	adds	r7, #20
 800223e:	46bd      	mov	sp, r7
 8002240:	bd90      	pop	{r4, r7, pc}
 8002242:	bf00      	nop
 8002244:	40005400 	.word	0x40005400
 8002248:	40005800 	.word	0x40005800
 800224c:	40005c00 	.word	0x40005c00
 8002250:	0800ecac 	.word	0x0800ecac
 8002254:	0800ec7c 	.word	0x0800ec7c
 8002258:	20000018 	.word	0x20000018

0800225c <stm32__device__enable_clock__6>:
 800225c:	b580      	push	{r7, lr}
 800225e:	b084      	sub	sp, #16
 8002260:	af00      	add	r7, sp, #0
 8002262:	6078      	str	r0, [r7, #4]
 8002264:	f107 0318 	add.w	r3, r7, #24
 8002268:	60fb      	str	r3, [r7, #12]
 800226a:	6878      	ldr	r0, [r7, #4]
 800226c:	f7ff ffbe 	bl	80021ec <stm32__device__as_port_id>
 8002270:	4603      	mov	r3, r0
 8002272:	4618      	mov	r0, r3
 8002274:	f000 f804 	bl	8002280 <stm32__device__enable_clock__7>
 8002278:	3710      	adds	r7, #16
 800227a:	46bd      	mov	sp, r7
 800227c:	bd80      	pop	{r7, pc}
 800227e:	bf00      	nop

08002280 <stm32__device__enable_clock__7>:
 8002280:	b580      	push	{r7, lr}
 8002282:	b082      	sub	sp, #8
 8002284:	af00      	add	r7, sp, #0
 8002286:	4603      	mov	r3, r0
 8002288:	71fb      	strb	r3, [r7, #7]
 800228a:	79fb      	ldrb	r3, [r7, #7]
 800228c:	2b02      	cmp	r3, #2
 800228e:	d903      	bls.n	8002298 <stm32__device__enable_clock__7+0x18>
 8002290:	4816      	ldr	r0, [pc, #88]	; (80022ec <stm32__device__enable_clock__7+0x6c>)
 8002292:	21f0      	movs	r1, #240	; 0xf0
 8002294:	f008 fbce 	bl	800aa34 <__gnat_rcheck_CE_Invalid_Data>
 8002298:	79fb      	ldrb	r3, [r7, #7]
 800229a:	2b00      	cmp	r3, #0
 800229c:	d002      	beq.n	80022a4 <stm32__device__enable_clock__7+0x24>
 800229e:	2b01      	cmp	r3, #1
 80022a0:	d00b      	beq.n	80022ba <stm32__device__enable_clock__7+0x3a>
 80022a2:	e015      	b.n	80022d0 <stm32__device__enable_clock__7+0x50>
 80022a4:	4b12      	ldr	r3, [pc, #72]	; (80022f0 <stm32__device__enable_clock__7+0x70>)
 80022a6:	3358      	adds	r3, #88	; 0x58
 80022a8:	681b      	ldr	r3, [r3, #0]
 80022aa:	461a      	mov	r2, r3
 80022ac:	4613      	mov	r3, r2
 80022ae:	f443 1200 	orr.w	r2, r3, #2097152	; 0x200000
 80022b2:	4b0f      	ldr	r3, [pc, #60]	; (80022f0 <stm32__device__enable_clock__7+0x70>)
 80022b4:	3358      	adds	r3, #88	; 0x58
 80022b6:	601a      	str	r2, [r3, #0]
 80022b8:	e014      	b.n	80022e4 <stm32__device__enable_clock__7+0x64>
 80022ba:	4b0d      	ldr	r3, [pc, #52]	; (80022f0 <stm32__device__enable_clock__7+0x70>)
 80022bc:	3358      	adds	r3, #88	; 0x58
 80022be:	681b      	ldr	r3, [r3, #0]
 80022c0:	461a      	mov	r2, r3
 80022c2:	4613      	mov	r3, r2
 80022c4:	f443 0280 	orr.w	r2, r3, #4194304	; 0x400000
 80022c8:	4b09      	ldr	r3, [pc, #36]	; (80022f0 <stm32__device__enable_clock__7+0x70>)
 80022ca:	3358      	adds	r3, #88	; 0x58
 80022cc:	601a      	str	r2, [r3, #0]
 80022ce:	e009      	b.n	80022e4 <stm32__device__enable_clock__7+0x64>
 80022d0:	4b07      	ldr	r3, [pc, #28]	; (80022f0 <stm32__device__enable_clock__7+0x70>)
 80022d2:	3358      	adds	r3, #88	; 0x58
 80022d4:	681b      	ldr	r3, [r3, #0]
 80022d6:	461a      	mov	r2, r3
 80022d8:	4613      	mov	r3, r2
 80022da:	f443 0200 	orr.w	r2, r3, #8388608	; 0x800000
 80022de:	4b04      	ldr	r3, [pc, #16]	; (80022f0 <stm32__device__enable_clock__7+0x70>)
 80022e0:	3358      	adds	r3, #88	; 0x58
 80022e2:	601a      	str	r2, [r3, #0]
 80022e4:	bf00      	nop
 80022e6:	3708      	adds	r7, #8
 80022e8:	46bd      	mov	sp, r7
 80022ea:	bd80      	pop	{r7, pc}
 80022ec:	0800ec54 	.word	0x0800ec54
 80022f0:	40021000 	.word	0x40021000

080022f4 <stm32__device__reset__6>:
 80022f4:	b580      	push	{r7, lr}
 80022f6:	b084      	sub	sp, #16
 80022f8:	af00      	add	r7, sp, #0
 80022fa:	6078      	str	r0, [r7, #4]
 80022fc:	f107 0318 	add.w	r3, r7, #24
 8002300:	60fb      	str	r3, [r7, #12]
 8002302:	6878      	ldr	r0, [r7, #4]
 8002304:	f7ff ff72 	bl	80021ec <stm32__device__as_port_id>
 8002308:	4603      	mov	r3, r0
 800230a:	4618      	mov	r0, r3
 800230c:	f000 f804 	bl	8002318 <stm32__device__reset__7>
 8002310:	3710      	adds	r7, #16
 8002312:	46bd      	mov	sp, r7
 8002314:	bd80      	pop	{r7, pc}
 8002316:	bf00      	nop

08002318 <stm32__device__reset__7>:
 8002318:	b580      	push	{r7, lr}
 800231a:	b082      	sub	sp, #8
 800231c:	af00      	add	r7, sp, #0
 800231e:	4603      	mov	r3, r0
 8002320:	71fb      	strb	r3, [r7, #7]
 8002322:	79fb      	ldrb	r3, [r7, #7]
 8002324:	2b02      	cmp	r3, #2
 8002326:	d904      	bls.n	8002332 <stm32__device__reset__7+0x1a>
 8002328:	4823      	ldr	r0, [pc, #140]	; (80023b8 <stm32__device__reset__7+0xa0>)
 800232a:	f240 1109 	movw	r1, #265	; 0x109
 800232e:	f008 fb81 	bl	800aa34 <__gnat_rcheck_CE_Invalid_Data>
 8002332:	79fb      	ldrb	r3, [r7, #7]
 8002334:	2b00      	cmp	r3, #0
 8002336:	d002      	beq.n	800233e <stm32__device__reset__7+0x26>
 8002338:	2b01      	cmp	r3, #1
 800233a:	d013      	beq.n	8002364 <stm32__device__reset__7+0x4c>
 800233c:	e025      	b.n	800238a <stm32__device__reset__7+0x72>
 800233e:	4b1f      	ldr	r3, [pc, #124]	; (80023bc <stm32__device__reset__7+0xa4>)
 8002340:	3338      	adds	r3, #56	; 0x38
 8002342:	681b      	ldr	r3, [r3, #0]
 8002344:	461a      	mov	r2, r3
 8002346:	4613      	mov	r3, r2
 8002348:	f443 1200 	orr.w	r2, r3, #2097152	; 0x200000
 800234c:	4b1b      	ldr	r3, [pc, #108]	; (80023bc <stm32__device__reset__7+0xa4>)
 800234e:	3338      	adds	r3, #56	; 0x38
 8002350:	601a      	str	r2, [r3, #0]
 8002352:	4b1a      	ldr	r3, [pc, #104]	; (80023bc <stm32__device__reset__7+0xa4>)
 8002354:	3338      	adds	r3, #56	; 0x38
 8002356:	681b      	ldr	r3, [r3, #0]
 8002358:	f36f 5355 	bfc	r3, #21, #1
 800235c:	4a17      	ldr	r2, [pc, #92]	; (80023bc <stm32__device__reset__7+0xa4>)
 800235e:	3238      	adds	r2, #56	; 0x38
 8002360:	6013      	str	r3, [r2, #0]
 8002362:	e024      	b.n	80023ae <stm32__device__reset__7+0x96>
 8002364:	4b15      	ldr	r3, [pc, #84]	; (80023bc <stm32__device__reset__7+0xa4>)
 8002366:	3338      	adds	r3, #56	; 0x38
 8002368:	681b      	ldr	r3, [r3, #0]
 800236a:	461a      	mov	r2, r3
 800236c:	4613      	mov	r3, r2
 800236e:	f443 0280 	orr.w	r2, r3, #4194304	; 0x400000
 8002372:	4b12      	ldr	r3, [pc, #72]	; (80023bc <stm32__device__reset__7+0xa4>)
 8002374:	3338      	adds	r3, #56	; 0x38
 8002376:	601a      	str	r2, [r3, #0]
 8002378:	4b10      	ldr	r3, [pc, #64]	; (80023bc <stm32__device__reset__7+0xa4>)
 800237a:	3338      	adds	r3, #56	; 0x38
 800237c:	681b      	ldr	r3, [r3, #0]
 800237e:	f36f 5396 	bfc	r3, #22, #1
 8002382:	4a0e      	ldr	r2, [pc, #56]	; (80023bc <stm32__device__reset__7+0xa4>)
 8002384:	3238      	adds	r2, #56	; 0x38
 8002386:	6013      	str	r3, [r2, #0]
 8002388:	e011      	b.n	80023ae <stm32__device__reset__7+0x96>
 800238a:	4b0c      	ldr	r3, [pc, #48]	; (80023bc <stm32__device__reset__7+0xa4>)
 800238c:	3338      	adds	r3, #56	; 0x38
 800238e:	681b      	ldr	r3, [r3, #0]
 8002390:	461a      	mov	r2, r3
 8002392:	4613      	mov	r3, r2
 8002394:	f443 0200 	orr.w	r2, r3, #8388608	; 0x800000
 8002398:	4b08      	ldr	r3, [pc, #32]	; (80023bc <stm32__device__reset__7+0xa4>)
 800239a:	3338      	adds	r3, #56	; 0x38
 800239c:	601a      	str	r2, [r3, #0]
 800239e:	4b07      	ldr	r3, [pc, #28]	; (80023bc <stm32__device__reset__7+0xa4>)
 80023a0:	3338      	adds	r3, #56	; 0x38
 80023a2:	681b      	ldr	r3, [r3, #0]
 80023a4:	f36f 53d7 	bfc	r3, #23, #1
 80023a8:	4a04      	ldr	r2, [pc, #16]	; (80023bc <stm32__device__reset__7+0xa4>)
 80023aa:	3238      	adds	r2, #56	; 0x38
 80023ac:	6013      	str	r3, [r2, #0]
 80023ae:	bf00      	nop
 80023b0:	3708      	adds	r7, #8
 80023b2:	46bd      	mov	sp, r7
 80023b4:	bd80      	pop	{r7, pc}
 80023b6:	bf00      	nop
 80023b8:	0800ec54 	.word	0x0800ec54
 80023bc:	40021000 	.word	0x40021000

080023c0 <stm32__device___elabs>:
 80023c0:	b580      	push	{r7, lr}
 80023c2:	b082      	sub	sp, #8
 80023c4:	af02      	add	r7, sp, #8
 80023c6:	4b9d      	ldr	r3, [pc, #628]	; (800263c <stm32__device___elabs+0x27c>)
 80023c8:	681b      	ldr	r3, [r3, #0]
 80023ca:	4a9d      	ldr	r2, [pc, #628]	; (8002640 <stm32__device___elabs+0x280>)
 80023cc:	6053      	str	r3, [r2, #4]
 80023ce:	4b9c      	ldr	r3, [pc, #624]	; (8002640 <stm32__device___elabs+0x280>)
 80023d0:	2201      	movs	r2, #1
 80023d2:	811a      	strh	r2, [r3, #8]
 80023d4:	4b9a      	ldr	r3, [pc, #616]	; (8002640 <stm32__device___elabs+0x280>)
 80023d6:	4a9b      	ldr	r2, [pc, #620]	; (8002644 <stm32__device___elabs+0x284>)
 80023d8:	601a      	str	r2, [r3, #0]
 80023da:	4a99      	ldr	r2, [pc, #612]	; (8002640 <stm32__device___elabs+0x280>)
 80023dc:	2300      	movs	r3, #0
 80023de:	9300      	str	r3, [sp, #0]
 80023e0:	4610      	mov	r0, r2
 80023e2:	4999      	ldr	r1, [pc, #612]	; (8002648 <stm32__device___elabs+0x288>)
 80023e4:	2201      	movs	r2, #1
 80023e6:	2300      	movs	r3, #0
 80023e8:	f007 fbd6 	bl	8009b98 <ada__tags__register_interface_offset>
 80023ec:	4b93      	ldr	r3, [pc, #588]	; (800263c <stm32__device___elabs+0x27c>)
 80023ee:	681b      	ldr	r3, [r3, #0]
 80023f0:	4a96      	ldr	r2, [pc, #600]	; (800264c <stm32__device___elabs+0x28c>)
 80023f2:	6053      	str	r3, [r2, #4]
 80023f4:	4b95      	ldr	r3, [pc, #596]	; (800264c <stm32__device___elabs+0x28c>)
 80023f6:	2202      	movs	r2, #2
 80023f8:	811a      	strh	r2, [r3, #8]
 80023fa:	4b94      	ldr	r3, [pc, #592]	; (800264c <stm32__device___elabs+0x28c>)
 80023fc:	4a91      	ldr	r2, [pc, #580]	; (8002644 <stm32__device___elabs+0x284>)
 80023fe:	601a      	str	r2, [r3, #0]
 8002400:	4a92      	ldr	r2, [pc, #584]	; (800264c <stm32__device___elabs+0x28c>)
 8002402:	2300      	movs	r3, #0
 8002404:	9300      	str	r3, [sp, #0]
 8002406:	4610      	mov	r0, r2
 8002408:	498f      	ldr	r1, [pc, #572]	; (8002648 <stm32__device___elabs+0x288>)
 800240a:	2201      	movs	r2, #1
 800240c:	2300      	movs	r3, #0
 800240e:	f007 fbc3 	bl	8009b98 <ada__tags__register_interface_offset>
 8002412:	4b8a      	ldr	r3, [pc, #552]	; (800263c <stm32__device___elabs+0x27c>)
 8002414:	681b      	ldr	r3, [r3, #0]
 8002416:	4a8e      	ldr	r2, [pc, #568]	; (8002650 <stm32__device___elabs+0x290>)
 8002418:	6053      	str	r3, [r2, #4]
 800241a:	4b8d      	ldr	r3, [pc, #564]	; (8002650 <stm32__device___elabs+0x290>)
 800241c:	2204      	movs	r2, #4
 800241e:	811a      	strh	r2, [r3, #8]
 8002420:	4b8b      	ldr	r3, [pc, #556]	; (8002650 <stm32__device___elabs+0x290>)
 8002422:	4a88      	ldr	r2, [pc, #544]	; (8002644 <stm32__device___elabs+0x284>)
 8002424:	601a      	str	r2, [r3, #0]
 8002426:	4a8a      	ldr	r2, [pc, #552]	; (8002650 <stm32__device___elabs+0x290>)
 8002428:	2300      	movs	r3, #0
 800242a:	9300      	str	r3, [sp, #0]
 800242c:	4610      	mov	r0, r2
 800242e:	4986      	ldr	r1, [pc, #536]	; (8002648 <stm32__device___elabs+0x288>)
 8002430:	2201      	movs	r2, #1
 8002432:	2300      	movs	r3, #0
 8002434:	f007 fbb0 	bl	8009b98 <ada__tags__register_interface_offset>
 8002438:	4b80      	ldr	r3, [pc, #512]	; (800263c <stm32__device___elabs+0x27c>)
 800243a:	681b      	ldr	r3, [r3, #0]
 800243c:	4a85      	ldr	r2, [pc, #532]	; (8002654 <stm32__device___elabs+0x294>)
 800243e:	6053      	str	r3, [r2, #4]
 8002440:	4b84      	ldr	r3, [pc, #528]	; (8002654 <stm32__device___elabs+0x294>)
 8002442:	2208      	movs	r2, #8
 8002444:	811a      	strh	r2, [r3, #8]
 8002446:	4b83      	ldr	r3, [pc, #524]	; (8002654 <stm32__device___elabs+0x294>)
 8002448:	4a7e      	ldr	r2, [pc, #504]	; (8002644 <stm32__device___elabs+0x284>)
 800244a:	601a      	str	r2, [r3, #0]
 800244c:	4a81      	ldr	r2, [pc, #516]	; (8002654 <stm32__device___elabs+0x294>)
 800244e:	2300      	movs	r3, #0
 8002450:	9300      	str	r3, [sp, #0]
 8002452:	4610      	mov	r0, r2
 8002454:	497c      	ldr	r1, [pc, #496]	; (8002648 <stm32__device___elabs+0x288>)
 8002456:	2201      	movs	r2, #1
 8002458:	2300      	movs	r3, #0
 800245a:	f007 fb9d 	bl	8009b98 <ada__tags__register_interface_offset>
 800245e:	4b77      	ldr	r3, [pc, #476]	; (800263c <stm32__device___elabs+0x27c>)
 8002460:	681b      	ldr	r3, [r3, #0]
 8002462:	4a7d      	ldr	r2, [pc, #500]	; (8002658 <stm32__device___elabs+0x298>)
 8002464:	6053      	str	r3, [r2, #4]
 8002466:	4b7c      	ldr	r3, [pc, #496]	; (8002658 <stm32__device___elabs+0x298>)
 8002468:	2210      	movs	r2, #16
 800246a:	811a      	strh	r2, [r3, #8]
 800246c:	4b7a      	ldr	r3, [pc, #488]	; (8002658 <stm32__device___elabs+0x298>)
 800246e:	4a75      	ldr	r2, [pc, #468]	; (8002644 <stm32__device___elabs+0x284>)
 8002470:	601a      	str	r2, [r3, #0]
 8002472:	4a79      	ldr	r2, [pc, #484]	; (8002658 <stm32__device___elabs+0x298>)
 8002474:	2300      	movs	r3, #0
 8002476:	9300      	str	r3, [sp, #0]
 8002478:	4610      	mov	r0, r2
 800247a:	4973      	ldr	r1, [pc, #460]	; (8002648 <stm32__device___elabs+0x288>)
 800247c:	2201      	movs	r2, #1
 800247e:	2300      	movs	r3, #0
 8002480:	f007 fb8a 	bl	8009b98 <ada__tags__register_interface_offset>
 8002484:	4b6d      	ldr	r3, [pc, #436]	; (800263c <stm32__device___elabs+0x27c>)
 8002486:	681b      	ldr	r3, [r3, #0]
 8002488:	4a74      	ldr	r2, [pc, #464]	; (800265c <stm32__device___elabs+0x29c>)
 800248a:	6053      	str	r3, [r2, #4]
 800248c:	4b73      	ldr	r3, [pc, #460]	; (800265c <stm32__device___elabs+0x29c>)
 800248e:	2220      	movs	r2, #32
 8002490:	811a      	strh	r2, [r3, #8]
 8002492:	4b72      	ldr	r3, [pc, #456]	; (800265c <stm32__device___elabs+0x29c>)
 8002494:	4a6b      	ldr	r2, [pc, #428]	; (8002644 <stm32__device___elabs+0x284>)
 8002496:	601a      	str	r2, [r3, #0]
 8002498:	4a70      	ldr	r2, [pc, #448]	; (800265c <stm32__device___elabs+0x29c>)
 800249a:	2300      	movs	r3, #0
 800249c:	9300      	str	r3, [sp, #0]
 800249e:	4610      	mov	r0, r2
 80024a0:	4969      	ldr	r1, [pc, #420]	; (8002648 <stm32__device___elabs+0x288>)
 80024a2:	2201      	movs	r2, #1
 80024a4:	2300      	movs	r3, #0
 80024a6:	f007 fb77 	bl	8009b98 <ada__tags__register_interface_offset>
 80024aa:	4b64      	ldr	r3, [pc, #400]	; (800263c <stm32__device___elabs+0x27c>)
 80024ac:	681b      	ldr	r3, [r3, #0]
 80024ae:	4a6c      	ldr	r2, [pc, #432]	; (8002660 <stm32__device___elabs+0x2a0>)
 80024b0:	6053      	str	r3, [r2, #4]
 80024b2:	4b6b      	ldr	r3, [pc, #428]	; (8002660 <stm32__device___elabs+0x2a0>)
 80024b4:	2240      	movs	r2, #64	; 0x40
 80024b6:	811a      	strh	r2, [r3, #8]
 80024b8:	4b69      	ldr	r3, [pc, #420]	; (8002660 <stm32__device___elabs+0x2a0>)
 80024ba:	4a62      	ldr	r2, [pc, #392]	; (8002644 <stm32__device___elabs+0x284>)
 80024bc:	601a      	str	r2, [r3, #0]
 80024be:	4a68      	ldr	r2, [pc, #416]	; (8002660 <stm32__device___elabs+0x2a0>)
 80024c0:	2300      	movs	r3, #0
 80024c2:	9300      	str	r3, [sp, #0]
 80024c4:	4610      	mov	r0, r2
 80024c6:	4960      	ldr	r1, [pc, #384]	; (8002648 <stm32__device___elabs+0x288>)
 80024c8:	2201      	movs	r2, #1
 80024ca:	2300      	movs	r3, #0
 80024cc:	f007 fb64 	bl	8009b98 <ada__tags__register_interface_offset>
 80024d0:	4b5a      	ldr	r3, [pc, #360]	; (800263c <stm32__device___elabs+0x27c>)
 80024d2:	681b      	ldr	r3, [r3, #0]
 80024d4:	4a63      	ldr	r2, [pc, #396]	; (8002664 <stm32__device___elabs+0x2a4>)
 80024d6:	6053      	str	r3, [r2, #4]
 80024d8:	4b62      	ldr	r3, [pc, #392]	; (8002664 <stm32__device___elabs+0x2a4>)
 80024da:	2280      	movs	r2, #128	; 0x80
 80024dc:	811a      	strh	r2, [r3, #8]
 80024de:	4b61      	ldr	r3, [pc, #388]	; (8002664 <stm32__device___elabs+0x2a4>)
 80024e0:	4a58      	ldr	r2, [pc, #352]	; (8002644 <stm32__device___elabs+0x284>)
 80024e2:	601a      	str	r2, [r3, #0]
 80024e4:	4a5f      	ldr	r2, [pc, #380]	; (8002664 <stm32__device___elabs+0x2a4>)
 80024e6:	2300      	movs	r3, #0
 80024e8:	9300      	str	r3, [sp, #0]
 80024ea:	4610      	mov	r0, r2
 80024ec:	4956      	ldr	r1, [pc, #344]	; (8002648 <stm32__device___elabs+0x288>)
 80024ee:	2201      	movs	r2, #1
 80024f0:	2300      	movs	r3, #0
 80024f2:	f007 fb51 	bl	8009b98 <ada__tags__register_interface_offset>
 80024f6:	4b51      	ldr	r3, [pc, #324]	; (800263c <stm32__device___elabs+0x27c>)
 80024f8:	681b      	ldr	r3, [r3, #0]
 80024fa:	4a5b      	ldr	r2, [pc, #364]	; (8002668 <stm32__device___elabs+0x2a8>)
 80024fc:	6053      	str	r3, [r2, #4]
 80024fe:	4b5a      	ldr	r3, [pc, #360]	; (8002668 <stm32__device___elabs+0x2a8>)
 8002500:	f44f 7280 	mov.w	r2, #256	; 0x100
 8002504:	811a      	strh	r2, [r3, #8]
 8002506:	4b58      	ldr	r3, [pc, #352]	; (8002668 <stm32__device___elabs+0x2a8>)
 8002508:	4a4e      	ldr	r2, [pc, #312]	; (8002644 <stm32__device___elabs+0x284>)
 800250a:	601a      	str	r2, [r3, #0]
 800250c:	4a56      	ldr	r2, [pc, #344]	; (8002668 <stm32__device___elabs+0x2a8>)
 800250e:	2300      	movs	r3, #0
 8002510:	9300      	str	r3, [sp, #0]
 8002512:	4610      	mov	r0, r2
 8002514:	494c      	ldr	r1, [pc, #304]	; (8002648 <stm32__device___elabs+0x288>)
 8002516:	2201      	movs	r2, #1
 8002518:	2300      	movs	r3, #0
 800251a:	f007 fb3d 	bl	8009b98 <ada__tags__register_interface_offset>
 800251e:	4b47      	ldr	r3, [pc, #284]	; (800263c <stm32__device___elabs+0x27c>)
 8002520:	681b      	ldr	r3, [r3, #0]
 8002522:	4a52      	ldr	r2, [pc, #328]	; (800266c <stm32__device___elabs+0x2ac>)
 8002524:	6053      	str	r3, [r2, #4]
 8002526:	4b51      	ldr	r3, [pc, #324]	; (800266c <stm32__device___elabs+0x2ac>)
 8002528:	f44f 7200 	mov.w	r2, #512	; 0x200
 800252c:	811a      	strh	r2, [r3, #8]
 800252e:	4b4f      	ldr	r3, [pc, #316]	; (800266c <stm32__device___elabs+0x2ac>)
 8002530:	4a44      	ldr	r2, [pc, #272]	; (8002644 <stm32__device___elabs+0x284>)
 8002532:	601a      	str	r2, [r3, #0]
 8002534:	4a4d      	ldr	r2, [pc, #308]	; (800266c <stm32__device___elabs+0x2ac>)
 8002536:	2300      	movs	r3, #0
 8002538:	9300      	str	r3, [sp, #0]
 800253a:	4610      	mov	r0, r2
 800253c:	4942      	ldr	r1, [pc, #264]	; (8002648 <stm32__device___elabs+0x288>)
 800253e:	2201      	movs	r2, #1
 8002540:	2300      	movs	r3, #0
 8002542:	f007 fb29 	bl	8009b98 <ada__tags__register_interface_offset>
 8002546:	4b3d      	ldr	r3, [pc, #244]	; (800263c <stm32__device___elabs+0x27c>)
 8002548:	681b      	ldr	r3, [r3, #0]
 800254a:	4a49      	ldr	r2, [pc, #292]	; (8002670 <stm32__device___elabs+0x2b0>)
 800254c:	6053      	str	r3, [r2, #4]
 800254e:	4b48      	ldr	r3, [pc, #288]	; (8002670 <stm32__device___elabs+0x2b0>)
 8002550:	f44f 6280 	mov.w	r2, #1024	; 0x400
 8002554:	811a      	strh	r2, [r3, #8]
 8002556:	4b46      	ldr	r3, [pc, #280]	; (8002670 <stm32__device___elabs+0x2b0>)
 8002558:	4a3a      	ldr	r2, [pc, #232]	; (8002644 <stm32__device___elabs+0x284>)
 800255a:	601a      	str	r2, [r3, #0]
 800255c:	4a44      	ldr	r2, [pc, #272]	; (8002670 <stm32__device___elabs+0x2b0>)
 800255e:	2300      	movs	r3, #0
 8002560:	9300      	str	r3, [sp, #0]
 8002562:	4610      	mov	r0, r2
 8002564:	4938      	ldr	r1, [pc, #224]	; (8002648 <stm32__device___elabs+0x288>)
 8002566:	2201      	movs	r2, #1
 8002568:	2300      	movs	r3, #0
 800256a:	f007 fb15 	bl	8009b98 <ada__tags__register_interface_offset>
 800256e:	4b33      	ldr	r3, [pc, #204]	; (800263c <stm32__device___elabs+0x27c>)
 8002570:	681b      	ldr	r3, [r3, #0]
 8002572:	4a40      	ldr	r2, [pc, #256]	; (8002674 <stm32__device___elabs+0x2b4>)
 8002574:	6053      	str	r3, [r2, #4]
 8002576:	4b3f      	ldr	r3, [pc, #252]	; (8002674 <stm32__device___elabs+0x2b4>)
 8002578:	f44f 6200 	mov.w	r2, #2048	; 0x800
 800257c:	811a      	strh	r2, [r3, #8]
 800257e:	4b3d      	ldr	r3, [pc, #244]	; (8002674 <stm32__device___elabs+0x2b4>)
 8002580:	4a30      	ldr	r2, [pc, #192]	; (8002644 <stm32__device___elabs+0x284>)
 8002582:	601a      	str	r2, [r3, #0]
 8002584:	4a3b      	ldr	r2, [pc, #236]	; (8002674 <stm32__device___elabs+0x2b4>)
 8002586:	2300      	movs	r3, #0
 8002588:	9300      	str	r3, [sp, #0]
 800258a:	4610      	mov	r0, r2
 800258c:	492e      	ldr	r1, [pc, #184]	; (8002648 <stm32__device___elabs+0x288>)
 800258e:	2201      	movs	r2, #1
 8002590:	2300      	movs	r3, #0
 8002592:	f007 fb01 	bl	8009b98 <ada__tags__register_interface_offset>
 8002596:	4b29      	ldr	r3, [pc, #164]	; (800263c <stm32__device___elabs+0x27c>)
 8002598:	681b      	ldr	r3, [r3, #0]
 800259a:	4a37      	ldr	r2, [pc, #220]	; (8002678 <stm32__device___elabs+0x2b8>)
 800259c:	6053      	str	r3, [r2, #4]
 800259e:	4b36      	ldr	r3, [pc, #216]	; (8002678 <stm32__device___elabs+0x2b8>)
 80025a0:	f44f 5280 	mov.w	r2, #4096	; 0x1000
 80025a4:	811a      	strh	r2, [r3, #8]
 80025a6:	4b34      	ldr	r3, [pc, #208]	; (8002678 <stm32__device___elabs+0x2b8>)
 80025a8:	4a26      	ldr	r2, [pc, #152]	; (8002644 <stm32__device___elabs+0x284>)
 80025aa:	601a      	str	r2, [r3, #0]
 80025ac:	4a32      	ldr	r2, [pc, #200]	; (8002678 <stm32__device___elabs+0x2b8>)
 80025ae:	2300      	movs	r3, #0
 80025b0:	9300      	str	r3, [sp, #0]
 80025b2:	4610      	mov	r0, r2
 80025b4:	4924      	ldr	r1, [pc, #144]	; (8002648 <stm32__device___elabs+0x288>)
 80025b6:	2201      	movs	r2, #1
 80025b8:	2300      	movs	r3, #0
 80025ba:	f007 faed 	bl	8009b98 <ada__tags__register_interface_offset>
 80025be:	4b1f      	ldr	r3, [pc, #124]	; (800263c <stm32__device___elabs+0x27c>)
 80025c0:	681b      	ldr	r3, [r3, #0]
 80025c2:	4a2e      	ldr	r2, [pc, #184]	; (800267c <stm32__device___elabs+0x2bc>)
 80025c4:	6053      	str	r3, [r2, #4]
 80025c6:	4b2d      	ldr	r3, [pc, #180]	; (800267c <stm32__device___elabs+0x2bc>)
 80025c8:	f44f 5200 	mov.w	r2, #8192	; 0x2000
 80025cc:	811a      	strh	r2, [r3, #8]
 80025ce:	4b2b      	ldr	r3, [pc, #172]	; (800267c <stm32__device___elabs+0x2bc>)
 80025d0:	4a1c      	ldr	r2, [pc, #112]	; (8002644 <stm32__device___elabs+0x284>)
 80025d2:	601a      	str	r2, [r3, #0]
 80025d4:	4a29      	ldr	r2, [pc, #164]	; (800267c <stm32__device___elabs+0x2bc>)
 80025d6:	2300      	movs	r3, #0
 80025d8:	9300      	str	r3, [sp, #0]
 80025da:	4610      	mov	r0, r2
 80025dc:	491a      	ldr	r1, [pc, #104]	; (8002648 <stm32__device___elabs+0x288>)
 80025de:	2201      	movs	r2, #1
 80025e0:	2300      	movs	r3, #0
 80025e2:	f007 fad9 	bl	8009b98 <ada__tags__register_interface_offset>
 80025e6:	4b15      	ldr	r3, [pc, #84]	; (800263c <stm32__device___elabs+0x27c>)
 80025e8:	681b      	ldr	r3, [r3, #0]
 80025ea:	4a25      	ldr	r2, [pc, #148]	; (8002680 <stm32__device___elabs+0x2c0>)
 80025ec:	6053      	str	r3, [r2, #4]
 80025ee:	4b24      	ldr	r3, [pc, #144]	; (8002680 <stm32__device___elabs+0x2c0>)
 80025f0:	f44f 4280 	mov.w	r2, #16384	; 0x4000
 80025f4:	811a      	strh	r2, [r3, #8]
 80025f6:	4b22      	ldr	r3, [pc, #136]	; (8002680 <stm32__device___elabs+0x2c0>)
 80025f8:	4a12      	ldr	r2, [pc, #72]	; (8002644 <stm32__device___elabs+0x284>)
 80025fa:	601a      	str	r2, [r3, #0]
 80025fc:	4a20      	ldr	r2, [pc, #128]	; (8002680 <stm32__device___elabs+0x2c0>)
 80025fe:	2300      	movs	r3, #0
 8002600:	9300      	str	r3, [sp, #0]
 8002602:	4610      	mov	r0, r2
 8002604:	4910      	ldr	r1, [pc, #64]	; (8002648 <stm32__device___elabs+0x288>)
 8002606:	2201      	movs	r2, #1
 8002608:	2300      	movs	r3, #0
 800260a:	f007 fac5 	bl	8009b98 <ada__tags__register_interface_offset>
 800260e:	4b0b      	ldr	r3, [pc, #44]	; (800263c <stm32__device___elabs+0x27c>)
 8002610:	681b      	ldr	r3, [r3, #0]
 8002612:	4a1c      	ldr	r2, [pc, #112]	; (8002684 <stm32__device___elabs+0x2c4>)
 8002614:	6053      	str	r3, [r2, #4]
 8002616:	4b1b      	ldr	r3, [pc, #108]	; (8002684 <stm32__device___elabs+0x2c4>)
 8002618:	f44f 4200 	mov.w	r2, #32768	; 0x8000
 800261c:	811a      	strh	r2, [r3, #8]
 800261e:	4b19      	ldr	r3, [pc, #100]	; (8002684 <stm32__device___elabs+0x2c4>)
 8002620:	4a08      	ldr	r2, [pc, #32]	; (8002644 <stm32__device___elabs+0x284>)
 8002622:	601a      	str	r2, [r3, #0]
 8002624:	4a17      	ldr	r2, [pc, #92]	; (8002684 <stm32__device___elabs+0x2c4>)
 8002626:	2300      	movs	r3, #0
 8002628:	9300      	str	r3, [sp, #0]
 800262a:	4610      	mov	r0, r2
 800262c:	4906      	ldr	r1, [pc, #24]	; (8002648 <stm32__device___elabs+0x288>)
 800262e:	2201      	movs	r2, #1
 8002630:	2300      	movs	r3, #0
 8002632:	f007 fab1 	bl	8009b98 <ada__tags__register_interface_offset>
 8002636:	4b14      	ldr	r3, [pc, #80]	; (8002688 <stm32__device___elabs+0x2c8>)
 8002638:	681b      	ldr	r3, [r3, #0]
 800263a:	e027      	b.n	800268c <stm32__device___elabs+0x2cc>
 800263c:	20000030 	.word	0x20000030
 8002640:	200002d4 	.word	0x200002d4
 8002644:	0800ef84 	.word	0x0800ef84
 8002648:	0800f3e8 	.word	0x0800f3e8
 800264c:	200002e0 	.word	0x200002e0
 8002650:	200002ec 	.word	0x200002ec
 8002654:	200002f8 	.word	0x200002f8
 8002658:	20000304 	.word	0x20000304
 800265c:	20000310 	.word	0x20000310
 8002660:	2000031c 	.word	0x2000031c
 8002664:	20000328 	.word	0x20000328
 8002668:	20000334 	.word	0x20000334
 800266c:	20000340 	.word	0x20000340
 8002670:	2000034c 	.word	0x2000034c
 8002674:	20000358 	.word	0x20000358
 8002678:	20000364 	.word	0x20000364
 800267c:	20000370 	.word	0x20000370
 8002680:	2000037c 	.word	0x2000037c
 8002684:	20000388 	.word	0x20000388
 8002688:	20000034 	.word	0x20000034
 800268c:	4a9d      	ldr	r2, [pc, #628]	; (8002904 <stm32__device___elabs+0x544>)
 800268e:	6053      	str	r3, [r2, #4]
 8002690:	4b9c      	ldr	r3, [pc, #624]	; (8002904 <stm32__device___elabs+0x544>)
 8002692:	2201      	movs	r2, #1
 8002694:	811a      	strh	r2, [r3, #8]
 8002696:	4b9b      	ldr	r3, [pc, #620]	; (8002904 <stm32__device___elabs+0x544>)
 8002698:	4a9b      	ldr	r2, [pc, #620]	; (8002908 <stm32__device___elabs+0x548>)
 800269a:	601a      	str	r2, [r3, #0]
 800269c:	4a99      	ldr	r2, [pc, #612]	; (8002904 <stm32__device___elabs+0x544>)
 800269e:	2300      	movs	r3, #0
 80026a0:	9300      	str	r3, [sp, #0]
 80026a2:	4610      	mov	r0, r2
 80026a4:	4999      	ldr	r1, [pc, #612]	; (800290c <stm32__device___elabs+0x54c>)
 80026a6:	2201      	movs	r2, #1
 80026a8:	2300      	movs	r3, #0
 80026aa:	f007 fa75 	bl	8009b98 <ada__tags__register_interface_offset>
 80026ae:	4b98      	ldr	r3, [pc, #608]	; (8002910 <stm32__device___elabs+0x550>)
 80026b0:	681b      	ldr	r3, [r3, #0]
 80026b2:	4a98      	ldr	r2, [pc, #608]	; (8002914 <stm32__device___elabs+0x554>)
 80026b4:	6053      	str	r3, [r2, #4]
 80026b6:	4b97      	ldr	r3, [pc, #604]	; (8002914 <stm32__device___elabs+0x554>)
 80026b8:	2202      	movs	r2, #2
 80026ba:	811a      	strh	r2, [r3, #8]
 80026bc:	4b95      	ldr	r3, [pc, #596]	; (8002914 <stm32__device___elabs+0x554>)
 80026be:	4a92      	ldr	r2, [pc, #584]	; (8002908 <stm32__device___elabs+0x548>)
 80026c0:	601a      	str	r2, [r3, #0]
 80026c2:	4a94      	ldr	r2, [pc, #592]	; (8002914 <stm32__device___elabs+0x554>)
 80026c4:	2300      	movs	r3, #0
 80026c6:	9300      	str	r3, [sp, #0]
 80026c8:	4610      	mov	r0, r2
 80026ca:	4990      	ldr	r1, [pc, #576]	; (800290c <stm32__device___elabs+0x54c>)
 80026cc:	2201      	movs	r2, #1
 80026ce:	2300      	movs	r3, #0
 80026d0:	f007 fa62 	bl	8009b98 <ada__tags__register_interface_offset>
 80026d4:	4b8e      	ldr	r3, [pc, #568]	; (8002910 <stm32__device___elabs+0x550>)
 80026d6:	681b      	ldr	r3, [r3, #0]
 80026d8:	4a8f      	ldr	r2, [pc, #572]	; (8002918 <stm32__device___elabs+0x558>)
 80026da:	6053      	str	r3, [r2, #4]
 80026dc:	4b8e      	ldr	r3, [pc, #568]	; (8002918 <stm32__device___elabs+0x558>)
 80026de:	2204      	movs	r2, #4
 80026e0:	811a      	strh	r2, [r3, #8]
 80026e2:	4b8d      	ldr	r3, [pc, #564]	; (8002918 <stm32__device___elabs+0x558>)
 80026e4:	4a88      	ldr	r2, [pc, #544]	; (8002908 <stm32__device___elabs+0x548>)
 80026e6:	601a      	str	r2, [r3, #0]
 80026e8:	4a8b      	ldr	r2, [pc, #556]	; (8002918 <stm32__device___elabs+0x558>)
 80026ea:	2300      	movs	r3, #0
 80026ec:	9300      	str	r3, [sp, #0]
 80026ee:	4610      	mov	r0, r2
 80026f0:	4986      	ldr	r1, [pc, #536]	; (800290c <stm32__device___elabs+0x54c>)
 80026f2:	2201      	movs	r2, #1
 80026f4:	2300      	movs	r3, #0
 80026f6:	f007 fa4f 	bl	8009b98 <ada__tags__register_interface_offset>
 80026fa:	4b85      	ldr	r3, [pc, #532]	; (8002910 <stm32__device___elabs+0x550>)
 80026fc:	681b      	ldr	r3, [r3, #0]
 80026fe:	4a87      	ldr	r2, [pc, #540]	; (800291c <stm32__device___elabs+0x55c>)
 8002700:	6053      	str	r3, [r2, #4]
 8002702:	4b86      	ldr	r3, [pc, #536]	; (800291c <stm32__device___elabs+0x55c>)
 8002704:	2208      	movs	r2, #8
 8002706:	811a      	strh	r2, [r3, #8]
 8002708:	4b84      	ldr	r3, [pc, #528]	; (800291c <stm32__device___elabs+0x55c>)
 800270a:	4a7f      	ldr	r2, [pc, #508]	; (8002908 <stm32__device___elabs+0x548>)
 800270c:	601a      	str	r2, [r3, #0]
 800270e:	4a83      	ldr	r2, [pc, #524]	; (800291c <stm32__device___elabs+0x55c>)
 8002710:	2300      	movs	r3, #0
 8002712:	9300      	str	r3, [sp, #0]
 8002714:	4610      	mov	r0, r2
 8002716:	497d      	ldr	r1, [pc, #500]	; (800290c <stm32__device___elabs+0x54c>)
 8002718:	2201      	movs	r2, #1
 800271a:	2300      	movs	r3, #0
 800271c:	f007 fa3c 	bl	8009b98 <ada__tags__register_interface_offset>
 8002720:	4b7b      	ldr	r3, [pc, #492]	; (8002910 <stm32__device___elabs+0x550>)
 8002722:	681b      	ldr	r3, [r3, #0]
 8002724:	4a7e      	ldr	r2, [pc, #504]	; (8002920 <stm32__device___elabs+0x560>)
 8002726:	6053      	str	r3, [r2, #4]
 8002728:	4b7d      	ldr	r3, [pc, #500]	; (8002920 <stm32__device___elabs+0x560>)
 800272a:	2210      	movs	r2, #16
 800272c:	811a      	strh	r2, [r3, #8]
 800272e:	4b7c      	ldr	r3, [pc, #496]	; (8002920 <stm32__device___elabs+0x560>)
 8002730:	4a75      	ldr	r2, [pc, #468]	; (8002908 <stm32__device___elabs+0x548>)
 8002732:	601a      	str	r2, [r3, #0]
 8002734:	4a7a      	ldr	r2, [pc, #488]	; (8002920 <stm32__device___elabs+0x560>)
 8002736:	2300      	movs	r3, #0
 8002738:	9300      	str	r3, [sp, #0]
 800273a:	4610      	mov	r0, r2
 800273c:	4973      	ldr	r1, [pc, #460]	; (800290c <stm32__device___elabs+0x54c>)
 800273e:	2201      	movs	r2, #1
 8002740:	2300      	movs	r3, #0
 8002742:	f007 fa29 	bl	8009b98 <ada__tags__register_interface_offset>
 8002746:	4b72      	ldr	r3, [pc, #456]	; (8002910 <stm32__device___elabs+0x550>)
 8002748:	681b      	ldr	r3, [r3, #0]
 800274a:	4a76      	ldr	r2, [pc, #472]	; (8002924 <stm32__device___elabs+0x564>)
 800274c:	6053      	str	r3, [r2, #4]
 800274e:	4b75      	ldr	r3, [pc, #468]	; (8002924 <stm32__device___elabs+0x564>)
 8002750:	2220      	movs	r2, #32
 8002752:	811a      	strh	r2, [r3, #8]
 8002754:	4b73      	ldr	r3, [pc, #460]	; (8002924 <stm32__device___elabs+0x564>)
 8002756:	4a6c      	ldr	r2, [pc, #432]	; (8002908 <stm32__device___elabs+0x548>)
 8002758:	601a      	str	r2, [r3, #0]
 800275a:	4a72      	ldr	r2, [pc, #456]	; (8002924 <stm32__device___elabs+0x564>)
 800275c:	2300      	movs	r3, #0
 800275e:	9300      	str	r3, [sp, #0]
 8002760:	4610      	mov	r0, r2
 8002762:	496a      	ldr	r1, [pc, #424]	; (800290c <stm32__device___elabs+0x54c>)
 8002764:	2201      	movs	r2, #1
 8002766:	2300      	movs	r3, #0
 8002768:	f007 fa16 	bl	8009b98 <ada__tags__register_interface_offset>
 800276c:	4b68      	ldr	r3, [pc, #416]	; (8002910 <stm32__device___elabs+0x550>)
 800276e:	681b      	ldr	r3, [r3, #0]
 8002770:	4a6d      	ldr	r2, [pc, #436]	; (8002928 <stm32__device___elabs+0x568>)
 8002772:	6053      	str	r3, [r2, #4]
 8002774:	4b6c      	ldr	r3, [pc, #432]	; (8002928 <stm32__device___elabs+0x568>)
 8002776:	2240      	movs	r2, #64	; 0x40
 8002778:	811a      	strh	r2, [r3, #8]
 800277a:	4b6b      	ldr	r3, [pc, #428]	; (8002928 <stm32__device___elabs+0x568>)
 800277c:	4a62      	ldr	r2, [pc, #392]	; (8002908 <stm32__device___elabs+0x548>)
 800277e:	601a      	str	r2, [r3, #0]
 8002780:	4a69      	ldr	r2, [pc, #420]	; (8002928 <stm32__device___elabs+0x568>)
 8002782:	2300      	movs	r3, #0
 8002784:	9300      	str	r3, [sp, #0]
 8002786:	4610      	mov	r0, r2
 8002788:	4960      	ldr	r1, [pc, #384]	; (800290c <stm32__device___elabs+0x54c>)
 800278a:	2201      	movs	r2, #1
 800278c:	2300      	movs	r3, #0
 800278e:	f007 fa03 	bl	8009b98 <ada__tags__register_interface_offset>
 8002792:	4b5f      	ldr	r3, [pc, #380]	; (8002910 <stm32__device___elabs+0x550>)
 8002794:	681b      	ldr	r3, [r3, #0]
 8002796:	4a65      	ldr	r2, [pc, #404]	; (800292c <stm32__device___elabs+0x56c>)
 8002798:	6053      	str	r3, [r2, #4]
 800279a:	4b64      	ldr	r3, [pc, #400]	; (800292c <stm32__device___elabs+0x56c>)
 800279c:	2280      	movs	r2, #128	; 0x80
 800279e:	811a      	strh	r2, [r3, #8]
 80027a0:	4b62      	ldr	r3, [pc, #392]	; (800292c <stm32__device___elabs+0x56c>)
 80027a2:	4a59      	ldr	r2, [pc, #356]	; (8002908 <stm32__device___elabs+0x548>)
 80027a4:	601a      	str	r2, [r3, #0]
 80027a6:	4a61      	ldr	r2, [pc, #388]	; (800292c <stm32__device___elabs+0x56c>)
 80027a8:	2300      	movs	r3, #0
 80027aa:	9300      	str	r3, [sp, #0]
 80027ac:	4610      	mov	r0, r2
 80027ae:	4957      	ldr	r1, [pc, #348]	; (800290c <stm32__device___elabs+0x54c>)
 80027b0:	2201      	movs	r2, #1
 80027b2:	2300      	movs	r3, #0
 80027b4:	f007 f9f0 	bl	8009b98 <ada__tags__register_interface_offset>
 80027b8:	4b55      	ldr	r3, [pc, #340]	; (8002910 <stm32__device___elabs+0x550>)
 80027ba:	681b      	ldr	r3, [r3, #0]
 80027bc:	4a5c      	ldr	r2, [pc, #368]	; (8002930 <stm32__device___elabs+0x570>)
 80027be:	6053      	str	r3, [r2, #4]
 80027c0:	4b5b      	ldr	r3, [pc, #364]	; (8002930 <stm32__device___elabs+0x570>)
 80027c2:	f44f 7280 	mov.w	r2, #256	; 0x100
 80027c6:	811a      	strh	r2, [r3, #8]
 80027c8:	4b59      	ldr	r3, [pc, #356]	; (8002930 <stm32__device___elabs+0x570>)
 80027ca:	4a4f      	ldr	r2, [pc, #316]	; (8002908 <stm32__device___elabs+0x548>)
 80027cc:	601a      	str	r2, [r3, #0]
 80027ce:	4a58      	ldr	r2, [pc, #352]	; (8002930 <stm32__device___elabs+0x570>)
 80027d0:	2300      	movs	r3, #0
 80027d2:	9300      	str	r3, [sp, #0]
 80027d4:	4610      	mov	r0, r2
 80027d6:	494d      	ldr	r1, [pc, #308]	; (800290c <stm32__device___elabs+0x54c>)
 80027d8:	2201      	movs	r2, #1
 80027da:	2300      	movs	r3, #0
 80027dc:	f007 f9dc 	bl	8009b98 <ada__tags__register_interface_offset>
 80027e0:	4b4b      	ldr	r3, [pc, #300]	; (8002910 <stm32__device___elabs+0x550>)
 80027e2:	681b      	ldr	r3, [r3, #0]
 80027e4:	4a53      	ldr	r2, [pc, #332]	; (8002934 <stm32__device___elabs+0x574>)
 80027e6:	6053      	str	r3, [r2, #4]
 80027e8:	4b52      	ldr	r3, [pc, #328]	; (8002934 <stm32__device___elabs+0x574>)
 80027ea:	f44f 7200 	mov.w	r2, #512	; 0x200
 80027ee:	811a      	strh	r2, [r3, #8]
 80027f0:	4b50      	ldr	r3, [pc, #320]	; (8002934 <stm32__device___elabs+0x574>)
 80027f2:	4a45      	ldr	r2, [pc, #276]	; (8002908 <stm32__device___elabs+0x548>)
 80027f4:	601a      	str	r2, [r3, #0]
 80027f6:	4a4f      	ldr	r2, [pc, #316]	; (8002934 <stm32__device___elabs+0x574>)
 80027f8:	2300      	movs	r3, #0
 80027fa:	9300      	str	r3, [sp, #0]
 80027fc:	4610      	mov	r0, r2
 80027fe:	4943      	ldr	r1, [pc, #268]	; (800290c <stm32__device___elabs+0x54c>)
 8002800:	2201      	movs	r2, #1
 8002802:	2300      	movs	r3, #0
 8002804:	f007 f9c8 	bl	8009b98 <ada__tags__register_interface_offset>
 8002808:	4b41      	ldr	r3, [pc, #260]	; (8002910 <stm32__device___elabs+0x550>)
 800280a:	681b      	ldr	r3, [r3, #0]
 800280c:	4a4a      	ldr	r2, [pc, #296]	; (8002938 <stm32__device___elabs+0x578>)
 800280e:	6053      	str	r3, [r2, #4]
 8002810:	4b49      	ldr	r3, [pc, #292]	; (8002938 <stm32__device___elabs+0x578>)
 8002812:	f44f 6280 	mov.w	r2, #1024	; 0x400
 8002816:	811a      	strh	r2, [r3, #8]
 8002818:	4b47      	ldr	r3, [pc, #284]	; (8002938 <stm32__device___elabs+0x578>)
 800281a:	4a3b      	ldr	r2, [pc, #236]	; (8002908 <stm32__device___elabs+0x548>)
 800281c:	601a      	str	r2, [r3, #0]
 800281e:	4a46      	ldr	r2, [pc, #280]	; (8002938 <stm32__device___elabs+0x578>)
 8002820:	2300      	movs	r3, #0
 8002822:	9300      	str	r3, [sp, #0]
 8002824:	4610      	mov	r0, r2
 8002826:	4939      	ldr	r1, [pc, #228]	; (800290c <stm32__device___elabs+0x54c>)
 8002828:	2201      	movs	r2, #1
 800282a:	2300      	movs	r3, #0
 800282c:	f007 f9b4 	bl	8009b98 <ada__tags__register_interface_offset>
 8002830:	4b37      	ldr	r3, [pc, #220]	; (8002910 <stm32__device___elabs+0x550>)
 8002832:	681b      	ldr	r3, [r3, #0]
 8002834:	4a41      	ldr	r2, [pc, #260]	; (800293c <stm32__device___elabs+0x57c>)
 8002836:	6053      	str	r3, [r2, #4]
 8002838:	4b40      	ldr	r3, [pc, #256]	; (800293c <stm32__device___elabs+0x57c>)
 800283a:	f44f 6200 	mov.w	r2, #2048	; 0x800
 800283e:	811a      	strh	r2, [r3, #8]
 8002840:	4b3e      	ldr	r3, [pc, #248]	; (800293c <stm32__device___elabs+0x57c>)
 8002842:	4a31      	ldr	r2, [pc, #196]	; (8002908 <stm32__device___elabs+0x548>)
 8002844:	601a      	str	r2, [r3, #0]
 8002846:	4a3d      	ldr	r2, [pc, #244]	; (800293c <stm32__device___elabs+0x57c>)
 8002848:	2300      	movs	r3, #0
 800284a:	9300      	str	r3, [sp, #0]
 800284c:	4610      	mov	r0, r2
 800284e:	492f      	ldr	r1, [pc, #188]	; (800290c <stm32__device___elabs+0x54c>)
 8002850:	2201      	movs	r2, #1
 8002852:	2300      	movs	r3, #0
 8002854:	f007 f9a0 	bl	8009b98 <ada__tags__register_interface_offset>
 8002858:	4b2d      	ldr	r3, [pc, #180]	; (8002910 <stm32__device___elabs+0x550>)
 800285a:	681b      	ldr	r3, [r3, #0]
 800285c:	4a38      	ldr	r2, [pc, #224]	; (8002940 <stm32__device___elabs+0x580>)
 800285e:	6053      	str	r3, [r2, #4]
 8002860:	4b37      	ldr	r3, [pc, #220]	; (8002940 <stm32__device___elabs+0x580>)
 8002862:	f44f 5280 	mov.w	r2, #4096	; 0x1000
 8002866:	811a      	strh	r2, [r3, #8]
 8002868:	4b35      	ldr	r3, [pc, #212]	; (8002940 <stm32__device___elabs+0x580>)
 800286a:	4a27      	ldr	r2, [pc, #156]	; (8002908 <stm32__device___elabs+0x548>)
 800286c:	601a      	str	r2, [r3, #0]
 800286e:	4a34      	ldr	r2, [pc, #208]	; (8002940 <stm32__device___elabs+0x580>)
 8002870:	2300      	movs	r3, #0
 8002872:	9300      	str	r3, [sp, #0]
 8002874:	4610      	mov	r0, r2
 8002876:	4925      	ldr	r1, [pc, #148]	; (800290c <stm32__device___elabs+0x54c>)
 8002878:	2201      	movs	r2, #1
 800287a:	2300      	movs	r3, #0
 800287c:	f007 f98c 	bl	8009b98 <ada__tags__register_interface_offset>
 8002880:	4b23      	ldr	r3, [pc, #140]	; (8002910 <stm32__device___elabs+0x550>)
 8002882:	681b      	ldr	r3, [r3, #0]
 8002884:	4a2f      	ldr	r2, [pc, #188]	; (8002944 <stm32__device___elabs+0x584>)
 8002886:	6053      	str	r3, [r2, #4]
 8002888:	4b2e      	ldr	r3, [pc, #184]	; (8002944 <stm32__device___elabs+0x584>)
 800288a:	f44f 5200 	mov.w	r2, #8192	; 0x2000
 800288e:	811a      	strh	r2, [r3, #8]
 8002890:	4b2c      	ldr	r3, [pc, #176]	; (8002944 <stm32__device___elabs+0x584>)
 8002892:	4a1d      	ldr	r2, [pc, #116]	; (8002908 <stm32__device___elabs+0x548>)
 8002894:	601a      	str	r2, [r3, #0]
 8002896:	4a2b      	ldr	r2, [pc, #172]	; (8002944 <stm32__device___elabs+0x584>)
 8002898:	2300      	movs	r3, #0
 800289a:	9300      	str	r3, [sp, #0]
 800289c:	4610      	mov	r0, r2
 800289e:	491b      	ldr	r1, [pc, #108]	; (800290c <stm32__device___elabs+0x54c>)
 80028a0:	2201      	movs	r2, #1
 80028a2:	2300      	movs	r3, #0
 80028a4:	f007 f978 	bl	8009b98 <ada__tags__register_interface_offset>
 80028a8:	4b19      	ldr	r3, [pc, #100]	; (8002910 <stm32__device___elabs+0x550>)
 80028aa:	681b      	ldr	r3, [r3, #0]
 80028ac:	4a26      	ldr	r2, [pc, #152]	; (8002948 <stm32__device___elabs+0x588>)
 80028ae:	6053      	str	r3, [r2, #4]
 80028b0:	4b25      	ldr	r3, [pc, #148]	; (8002948 <stm32__device___elabs+0x588>)
 80028b2:	f44f 4280 	mov.w	r2, #16384	; 0x4000
 80028b6:	811a      	strh	r2, [r3, #8]
 80028b8:	4b23      	ldr	r3, [pc, #140]	; (8002948 <stm32__device___elabs+0x588>)
 80028ba:	4a13      	ldr	r2, [pc, #76]	; (8002908 <stm32__device___elabs+0x548>)
 80028bc:	601a      	str	r2, [r3, #0]
 80028be:	4a22      	ldr	r2, [pc, #136]	; (8002948 <stm32__device___elabs+0x588>)
 80028c0:	2300      	movs	r3, #0
 80028c2:	9300      	str	r3, [sp, #0]
 80028c4:	4610      	mov	r0, r2
 80028c6:	4911      	ldr	r1, [pc, #68]	; (800290c <stm32__device___elabs+0x54c>)
 80028c8:	2201      	movs	r2, #1
 80028ca:	2300      	movs	r3, #0
 80028cc:	f007 f964 	bl	8009b98 <ada__tags__register_interface_offset>
 80028d0:	4b0f      	ldr	r3, [pc, #60]	; (8002910 <stm32__device___elabs+0x550>)
 80028d2:	681b      	ldr	r3, [r3, #0]
 80028d4:	4a1d      	ldr	r2, [pc, #116]	; (800294c <stm32__device___elabs+0x58c>)
 80028d6:	6053      	str	r3, [r2, #4]
 80028d8:	4b1c      	ldr	r3, [pc, #112]	; (800294c <stm32__device___elabs+0x58c>)
 80028da:	f44f 4200 	mov.w	r2, #32768	; 0x8000
 80028de:	811a      	strh	r2, [r3, #8]
 80028e0:	4b1a      	ldr	r3, [pc, #104]	; (800294c <stm32__device___elabs+0x58c>)
 80028e2:	4a09      	ldr	r2, [pc, #36]	; (8002908 <stm32__device___elabs+0x548>)
 80028e4:	601a      	str	r2, [r3, #0]
 80028e6:	4a19      	ldr	r2, [pc, #100]	; (800294c <stm32__device___elabs+0x58c>)
 80028e8:	2300      	movs	r3, #0
 80028ea:	9300      	str	r3, [sp, #0]
 80028ec:	4610      	mov	r0, r2
 80028ee:	4907      	ldr	r1, [pc, #28]	; (800290c <stm32__device___elabs+0x54c>)
 80028f0:	2201      	movs	r2, #1
 80028f2:	2300      	movs	r3, #0
 80028f4:	f007 f950 	bl	8009b98 <ada__tags__register_interface_offset>
 80028f8:	4b15      	ldr	r3, [pc, #84]	; (8002950 <stm32__device___elabs+0x590>)
 80028fa:	681b      	ldr	r3, [r3, #0]
 80028fc:	4a15      	ldr	r2, [pc, #84]	; (8002954 <stm32__device___elabs+0x594>)
 80028fe:	6053      	str	r3, [r2, #4]
 8002900:	e02a      	b.n	8002958 <stm32__device___elabs+0x598>
 8002902:	bf00      	nop
 8002904:	20000394 	.word	0x20000394
 8002908:	0800ef84 	.word	0x0800ef84
 800290c:	0800f3e8 	.word	0x0800f3e8
 8002910:	20000034 	.word	0x20000034
 8002914:	200003a0 	.word	0x200003a0
 8002918:	200003ac 	.word	0x200003ac
 800291c:	200003b8 	.word	0x200003b8
 8002920:	200003c4 	.word	0x200003c4
 8002924:	200003d0 	.word	0x200003d0
 8002928:	200003dc 	.word	0x200003dc
 800292c:	200003e8 	.word	0x200003e8
 8002930:	200003f4 	.word	0x200003f4
 8002934:	20000400 	.word	0x20000400
 8002938:	2000040c 	.word	0x2000040c
 800293c:	20000418 	.word	0x20000418
 8002940:	20000424 	.word	0x20000424
 8002944:	20000430 	.word	0x20000430
 8002948:	2000043c 	.word	0x2000043c
 800294c:	20000448 	.word	0x20000448
 8002950:	20000038 	.word	0x20000038
 8002954:	20000454 	.word	0x20000454
 8002958:	4b9d      	ldr	r3, [pc, #628]	; (8002bd0 <stm32__device___elabs+0x810>)
 800295a:	2201      	movs	r2, #1
 800295c:	811a      	strh	r2, [r3, #8]
 800295e:	4b9c      	ldr	r3, [pc, #624]	; (8002bd0 <stm32__device___elabs+0x810>)
 8002960:	4a9c      	ldr	r2, [pc, #624]	; (8002bd4 <stm32__device___elabs+0x814>)
 8002962:	601a      	str	r2, [r3, #0]
 8002964:	4a9a      	ldr	r2, [pc, #616]	; (8002bd0 <stm32__device___elabs+0x810>)
 8002966:	2300      	movs	r3, #0
 8002968:	9300      	str	r3, [sp, #0]
 800296a:	4610      	mov	r0, r2
 800296c:	499a      	ldr	r1, [pc, #616]	; (8002bd8 <stm32__device___elabs+0x818>)
 800296e:	2201      	movs	r2, #1
 8002970:	2300      	movs	r3, #0
 8002972:	f007 f911 	bl	8009b98 <ada__tags__register_interface_offset>
 8002976:	4b99      	ldr	r3, [pc, #612]	; (8002bdc <stm32__device___elabs+0x81c>)
 8002978:	681b      	ldr	r3, [r3, #0]
 800297a:	4a99      	ldr	r2, [pc, #612]	; (8002be0 <stm32__device___elabs+0x820>)
 800297c:	6053      	str	r3, [r2, #4]
 800297e:	4b98      	ldr	r3, [pc, #608]	; (8002be0 <stm32__device___elabs+0x820>)
 8002980:	2202      	movs	r2, #2
 8002982:	811a      	strh	r2, [r3, #8]
 8002984:	4b96      	ldr	r3, [pc, #600]	; (8002be0 <stm32__device___elabs+0x820>)
 8002986:	4a93      	ldr	r2, [pc, #588]	; (8002bd4 <stm32__device___elabs+0x814>)
 8002988:	601a      	str	r2, [r3, #0]
 800298a:	4a95      	ldr	r2, [pc, #596]	; (8002be0 <stm32__device___elabs+0x820>)
 800298c:	2300      	movs	r3, #0
 800298e:	9300      	str	r3, [sp, #0]
 8002990:	4610      	mov	r0, r2
 8002992:	4991      	ldr	r1, [pc, #580]	; (8002bd8 <stm32__device___elabs+0x818>)
 8002994:	2201      	movs	r2, #1
 8002996:	2300      	movs	r3, #0
 8002998:	f007 f8fe 	bl	8009b98 <ada__tags__register_interface_offset>
 800299c:	4b8f      	ldr	r3, [pc, #572]	; (8002bdc <stm32__device___elabs+0x81c>)
 800299e:	681b      	ldr	r3, [r3, #0]
 80029a0:	4a90      	ldr	r2, [pc, #576]	; (8002be4 <stm32__device___elabs+0x824>)
 80029a2:	6053      	str	r3, [r2, #4]
 80029a4:	4b8f      	ldr	r3, [pc, #572]	; (8002be4 <stm32__device___elabs+0x824>)
 80029a6:	2204      	movs	r2, #4
 80029a8:	811a      	strh	r2, [r3, #8]
 80029aa:	4b8e      	ldr	r3, [pc, #568]	; (8002be4 <stm32__device___elabs+0x824>)
 80029ac:	4a89      	ldr	r2, [pc, #548]	; (8002bd4 <stm32__device___elabs+0x814>)
 80029ae:	601a      	str	r2, [r3, #0]
 80029b0:	4a8c      	ldr	r2, [pc, #560]	; (8002be4 <stm32__device___elabs+0x824>)
 80029b2:	2300      	movs	r3, #0
 80029b4:	9300      	str	r3, [sp, #0]
 80029b6:	4610      	mov	r0, r2
 80029b8:	4987      	ldr	r1, [pc, #540]	; (8002bd8 <stm32__device___elabs+0x818>)
 80029ba:	2201      	movs	r2, #1
 80029bc:	2300      	movs	r3, #0
 80029be:	f007 f8eb 	bl	8009b98 <ada__tags__register_interface_offset>
 80029c2:	4b86      	ldr	r3, [pc, #536]	; (8002bdc <stm32__device___elabs+0x81c>)
 80029c4:	681b      	ldr	r3, [r3, #0]
 80029c6:	4a88      	ldr	r2, [pc, #544]	; (8002be8 <stm32__device___elabs+0x828>)
 80029c8:	6053      	str	r3, [r2, #4]
 80029ca:	4b87      	ldr	r3, [pc, #540]	; (8002be8 <stm32__device___elabs+0x828>)
 80029cc:	2208      	movs	r2, #8
 80029ce:	811a      	strh	r2, [r3, #8]
 80029d0:	4b85      	ldr	r3, [pc, #532]	; (8002be8 <stm32__device___elabs+0x828>)
 80029d2:	4a80      	ldr	r2, [pc, #512]	; (8002bd4 <stm32__device___elabs+0x814>)
 80029d4:	601a      	str	r2, [r3, #0]
 80029d6:	4a84      	ldr	r2, [pc, #528]	; (8002be8 <stm32__device___elabs+0x828>)
 80029d8:	2300      	movs	r3, #0
 80029da:	9300      	str	r3, [sp, #0]
 80029dc:	4610      	mov	r0, r2
 80029de:	497e      	ldr	r1, [pc, #504]	; (8002bd8 <stm32__device___elabs+0x818>)
 80029e0:	2201      	movs	r2, #1
 80029e2:	2300      	movs	r3, #0
 80029e4:	f007 f8d8 	bl	8009b98 <ada__tags__register_interface_offset>
 80029e8:	4b7c      	ldr	r3, [pc, #496]	; (8002bdc <stm32__device___elabs+0x81c>)
 80029ea:	681b      	ldr	r3, [r3, #0]
 80029ec:	4a7f      	ldr	r2, [pc, #508]	; (8002bec <stm32__device___elabs+0x82c>)
 80029ee:	6053      	str	r3, [r2, #4]
 80029f0:	4b7e      	ldr	r3, [pc, #504]	; (8002bec <stm32__device___elabs+0x82c>)
 80029f2:	2210      	movs	r2, #16
 80029f4:	811a      	strh	r2, [r3, #8]
 80029f6:	4b7d      	ldr	r3, [pc, #500]	; (8002bec <stm32__device___elabs+0x82c>)
 80029f8:	4a76      	ldr	r2, [pc, #472]	; (8002bd4 <stm32__device___elabs+0x814>)
 80029fa:	601a      	str	r2, [r3, #0]
 80029fc:	4a7b      	ldr	r2, [pc, #492]	; (8002bec <stm32__device___elabs+0x82c>)
 80029fe:	2300      	movs	r3, #0
 8002a00:	9300      	str	r3, [sp, #0]
 8002a02:	4610      	mov	r0, r2
 8002a04:	4974      	ldr	r1, [pc, #464]	; (8002bd8 <stm32__device___elabs+0x818>)
 8002a06:	2201      	movs	r2, #1
 8002a08:	2300      	movs	r3, #0
 8002a0a:	f007 f8c5 	bl	8009b98 <ada__tags__register_interface_offset>
 8002a0e:	4b73      	ldr	r3, [pc, #460]	; (8002bdc <stm32__device___elabs+0x81c>)
 8002a10:	681b      	ldr	r3, [r3, #0]
 8002a12:	4a77      	ldr	r2, [pc, #476]	; (8002bf0 <stm32__device___elabs+0x830>)
 8002a14:	6053      	str	r3, [r2, #4]
 8002a16:	4b76      	ldr	r3, [pc, #472]	; (8002bf0 <stm32__device___elabs+0x830>)
 8002a18:	2220      	movs	r2, #32
 8002a1a:	811a      	strh	r2, [r3, #8]
 8002a1c:	4b74      	ldr	r3, [pc, #464]	; (8002bf0 <stm32__device___elabs+0x830>)
 8002a1e:	4a6d      	ldr	r2, [pc, #436]	; (8002bd4 <stm32__device___elabs+0x814>)
 8002a20:	601a      	str	r2, [r3, #0]
 8002a22:	4a73      	ldr	r2, [pc, #460]	; (8002bf0 <stm32__device___elabs+0x830>)
 8002a24:	2300      	movs	r3, #0
 8002a26:	9300      	str	r3, [sp, #0]
 8002a28:	4610      	mov	r0, r2
 8002a2a:	496b      	ldr	r1, [pc, #428]	; (8002bd8 <stm32__device___elabs+0x818>)
 8002a2c:	2201      	movs	r2, #1
 8002a2e:	2300      	movs	r3, #0
 8002a30:	f007 f8b2 	bl	8009b98 <ada__tags__register_interface_offset>
 8002a34:	4b69      	ldr	r3, [pc, #420]	; (8002bdc <stm32__device___elabs+0x81c>)
 8002a36:	681b      	ldr	r3, [r3, #0]
 8002a38:	4a6e      	ldr	r2, [pc, #440]	; (8002bf4 <stm32__device___elabs+0x834>)
 8002a3a:	6053      	str	r3, [r2, #4]
 8002a3c:	4b6d      	ldr	r3, [pc, #436]	; (8002bf4 <stm32__device___elabs+0x834>)
 8002a3e:	2240      	movs	r2, #64	; 0x40
 8002a40:	811a      	strh	r2, [r3, #8]
 8002a42:	4b6c      	ldr	r3, [pc, #432]	; (8002bf4 <stm32__device___elabs+0x834>)
 8002a44:	4a63      	ldr	r2, [pc, #396]	; (8002bd4 <stm32__device___elabs+0x814>)
 8002a46:	601a      	str	r2, [r3, #0]
 8002a48:	4a6a      	ldr	r2, [pc, #424]	; (8002bf4 <stm32__device___elabs+0x834>)
 8002a4a:	2300      	movs	r3, #0
 8002a4c:	9300      	str	r3, [sp, #0]
 8002a4e:	4610      	mov	r0, r2
 8002a50:	4961      	ldr	r1, [pc, #388]	; (8002bd8 <stm32__device___elabs+0x818>)
 8002a52:	2201      	movs	r2, #1
 8002a54:	2300      	movs	r3, #0
 8002a56:	f007 f89f 	bl	8009b98 <ada__tags__register_interface_offset>
 8002a5a:	4b60      	ldr	r3, [pc, #384]	; (8002bdc <stm32__device___elabs+0x81c>)
 8002a5c:	681b      	ldr	r3, [r3, #0]
 8002a5e:	4a66      	ldr	r2, [pc, #408]	; (8002bf8 <stm32__device___elabs+0x838>)
 8002a60:	6053      	str	r3, [r2, #4]
 8002a62:	4b65      	ldr	r3, [pc, #404]	; (8002bf8 <stm32__device___elabs+0x838>)
 8002a64:	2280      	movs	r2, #128	; 0x80
 8002a66:	811a      	strh	r2, [r3, #8]
 8002a68:	4b63      	ldr	r3, [pc, #396]	; (8002bf8 <stm32__device___elabs+0x838>)
 8002a6a:	4a5a      	ldr	r2, [pc, #360]	; (8002bd4 <stm32__device___elabs+0x814>)
 8002a6c:	601a      	str	r2, [r3, #0]
 8002a6e:	4a62      	ldr	r2, [pc, #392]	; (8002bf8 <stm32__device___elabs+0x838>)
 8002a70:	2300      	movs	r3, #0
 8002a72:	9300      	str	r3, [sp, #0]
 8002a74:	4610      	mov	r0, r2
 8002a76:	4958      	ldr	r1, [pc, #352]	; (8002bd8 <stm32__device___elabs+0x818>)
 8002a78:	2201      	movs	r2, #1
 8002a7a:	2300      	movs	r3, #0
 8002a7c:	f007 f88c 	bl	8009b98 <ada__tags__register_interface_offset>
 8002a80:	4b56      	ldr	r3, [pc, #344]	; (8002bdc <stm32__device___elabs+0x81c>)
 8002a82:	681b      	ldr	r3, [r3, #0]
 8002a84:	4a5d      	ldr	r2, [pc, #372]	; (8002bfc <stm32__device___elabs+0x83c>)
 8002a86:	6053      	str	r3, [r2, #4]
 8002a88:	4b5c      	ldr	r3, [pc, #368]	; (8002bfc <stm32__device___elabs+0x83c>)
 8002a8a:	f44f 7280 	mov.w	r2, #256	; 0x100
 8002a8e:	811a      	strh	r2, [r3, #8]
 8002a90:	4b5a      	ldr	r3, [pc, #360]	; (8002bfc <stm32__device___elabs+0x83c>)
 8002a92:	4a50      	ldr	r2, [pc, #320]	; (8002bd4 <stm32__device___elabs+0x814>)
 8002a94:	601a      	str	r2, [r3, #0]
 8002a96:	4a59      	ldr	r2, [pc, #356]	; (8002bfc <stm32__device___elabs+0x83c>)
 8002a98:	2300      	movs	r3, #0
 8002a9a:	9300      	str	r3, [sp, #0]
 8002a9c:	4610      	mov	r0, r2
 8002a9e:	494e      	ldr	r1, [pc, #312]	; (8002bd8 <stm32__device___elabs+0x818>)
 8002aa0:	2201      	movs	r2, #1
 8002aa2:	2300      	movs	r3, #0
 8002aa4:	f007 f878 	bl	8009b98 <ada__tags__register_interface_offset>
 8002aa8:	4b4c      	ldr	r3, [pc, #304]	; (8002bdc <stm32__device___elabs+0x81c>)
 8002aaa:	681b      	ldr	r3, [r3, #0]
 8002aac:	4a54      	ldr	r2, [pc, #336]	; (8002c00 <stm32__device___elabs+0x840>)
 8002aae:	6053      	str	r3, [r2, #4]
 8002ab0:	4b53      	ldr	r3, [pc, #332]	; (8002c00 <stm32__device___elabs+0x840>)
 8002ab2:	f44f 7200 	mov.w	r2, #512	; 0x200
 8002ab6:	811a      	strh	r2, [r3, #8]
 8002ab8:	4b51      	ldr	r3, [pc, #324]	; (8002c00 <stm32__device___elabs+0x840>)
 8002aba:	4a46      	ldr	r2, [pc, #280]	; (8002bd4 <stm32__device___elabs+0x814>)
 8002abc:	601a      	str	r2, [r3, #0]
 8002abe:	4a50      	ldr	r2, [pc, #320]	; (8002c00 <stm32__device___elabs+0x840>)
 8002ac0:	2300      	movs	r3, #0
 8002ac2:	9300      	str	r3, [sp, #0]
 8002ac4:	4610      	mov	r0, r2
 8002ac6:	4944      	ldr	r1, [pc, #272]	; (8002bd8 <stm32__device___elabs+0x818>)
 8002ac8:	2201      	movs	r2, #1
 8002aca:	2300      	movs	r3, #0
 8002acc:	f007 f864 	bl	8009b98 <ada__tags__register_interface_offset>
 8002ad0:	4b42      	ldr	r3, [pc, #264]	; (8002bdc <stm32__device___elabs+0x81c>)
 8002ad2:	681b      	ldr	r3, [r3, #0]
 8002ad4:	4a4b      	ldr	r2, [pc, #300]	; (8002c04 <stm32__device___elabs+0x844>)
 8002ad6:	6053      	str	r3, [r2, #4]
 8002ad8:	4b4a      	ldr	r3, [pc, #296]	; (8002c04 <stm32__device___elabs+0x844>)
 8002ada:	f44f 6280 	mov.w	r2, #1024	; 0x400
 8002ade:	811a      	strh	r2, [r3, #8]
 8002ae0:	4b48      	ldr	r3, [pc, #288]	; (8002c04 <stm32__device___elabs+0x844>)
 8002ae2:	4a3c      	ldr	r2, [pc, #240]	; (8002bd4 <stm32__device___elabs+0x814>)
 8002ae4:	601a      	str	r2, [r3, #0]
 8002ae6:	4a47      	ldr	r2, [pc, #284]	; (8002c04 <stm32__device___elabs+0x844>)
 8002ae8:	2300      	movs	r3, #0
 8002aea:	9300      	str	r3, [sp, #0]
 8002aec:	4610      	mov	r0, r2
 8002aee:	493a      	ldr	r1, [pc, #232]	; (8002bd8 <stm32__device___elabs+0x818>)
 8002af0:	2201      	movs	r2, #1
 8002af2:	2300      	movs	r3, #0
 8002af4:	f007 f850 	bl	8009b98 <ada__tags__register_interface_offset>
 8002af8:	4b38      	ldr	r3, [pc, #224]	; (8002bdc <stm32__device___elabs+0x81c>)
 8002afa:	681b      	ldr	r3, [r3, #0]
 8002afc:	4a42      	ldr	r2, [pc, #264]	; (8002c08 <stm32__device___elabs+0x848>)
 8002afe:	6053      	str	r3, [r2, #4]
 8002b00:	4b41      	ldr	r3, [pc, #260]	; (8002c08 <stm32__device___elabs+0x848>)
 8002b02:	f44f 6200 	mov.w	r2, #2048	; 0x800
 8002b06:	811a      	strh	r2, [r3, #8]
 8002b08:	4b3f      	ldr	r3, [pc, #252]	; (8002c08 <stm32__device___elabs+0x848>)
 8002b0a:	4a32      	ldr	r2, [pc, #200]	; (8002bd4 <stm32__device___elabs+0x814>)
 8002b0c:	601a      	str	r2, [r3, #0]
 8002b0e:	4a3e      	ldr	r2, [pc, #248]	; (8002c08 <stm32__device___elabs+0x848>)
 8002b10:	2300      	movs	r3, #0
 8002b12:	9300      	str	r3, [sp, #0]
 8002b14:	4610      	mov	r0, r2
 8002b16:	4930      	ldr	r1, [pc, #192]	; (8002bd8 <stm32__device___elabs+0x818>)
 8002b18:	2201      	movs	r2, #1
 8002b1a:	2300      	movs	r3, #0
 8002b1c:	f007 f83c 	bl	8009b98 <ada__tags__register_interface_offset>
 8002b20:	4b2e      	ldr	r3, [pc, #184]	; (8002bdc <stm32__device___elabs+0x81c>)
 8002b22:	681b      	ldr	r3, [r3, #0]
 8002b24:	4a39      	ldr	r2, [pc, #228]	; (8002c0c <stm32__device___elabs+0x84c>)
 8002b26:	6053      	str	r3, [r2, #4]
 8002b28:	4b38      	ldr	r3, [pc, #224]	; (8002c0c <stm32__device___elabs+0x84c>)
 8002b2a:	f44f 5280 	mov.w	r2, #4096	; 0x1000
 8002b2e:	811a      	strh	r2, [r3, #8]
 8002b30:	4b36      	ldr	r3, [pc, #216]	; (8002c0c <stm32__device___elabs+0x84c>)
 8002b32:	4a28      	ldr	r2, [pc, #160]	; (8002bd4 <stm32__device___elabs+0x814>)
 8002b34:	601a      	str	r2, [r3, #0]
 8002b36:	4a35      	ldr	r2, [pc, #212]	; (8002c0c <stm32__device___elabs+0x84c>)
 8002b38:	2300      	movs	r3, #0
 8002b3a:	9300      	str	r3, [sp, #0]
 8002b3c:	4610      	mov	r0, r2
 8002b3e:	4926      	ldr	r1, [pc, #152]	; (8002bd8 <stm32__device___elabs+0x818>)
 8002b40:	2201      	movs	r2, #1
 8002b42:	2300      	movs	r3, #0
 8002b44:	f007 f828 	bl	8009b98 <ada__tags__register_interface_offset>
 8002b48:	4b24      	ldr	r3, [pc, #144]	; (8002bdc <stm32__device___elabs+0x81c>)
 8002b4a:	681b      	ldr	r3, [r3, #0]
 8002b4c:	4a30      	ldr	r2, [pc, #192]	; (8002c10 <stm32__device___elabs+0x850>)
 8002b4e:	6053      	str	r3, [r2, #4]
 8002b50:	4b2f      	ldr	r3, [pc, #188]	; (8002c10 <stm32__device___elabs+0x850>)
 8002b52:	f44f 5200 	mov.w	r2, #8192	; 0x2000
 8002b56:	811a      	strh	r2, [r3, #8]
 8002b58:	4b2d      	ldr	r3, [pc, #180]	; (8002c10 <stm32__device___elabs+0x850>)
 8002b5a:	4a1e      	ldr	r2, [pc, #120]	; (8002bd4 <stm32__device___elabs+0x814>)
 8002b5c:	601a      	str	r2, [r3, #0]
 8002b5e:	4a2c      	ldr	r2, [pc, #176]	; (8002c10 <stm32__device___elabs+0x850>)
 8002b60:	2300      	movs	r3, #0
 8002b62:	9300      	str	r3, [sp, #0]
 8002b64:	4610      	mov	r0, r2
 8002b66:	491c      	ldr	r1, [pc, #112]	; (8002bd8 <stm32__device___elabs+0x818>)
 8002b68:	2201      	movs	r2, #1
 8002b6a:	2300      	movs	r3, #0
 8002b6c:	f007 f814 	bl	8009b98 <ada__tags__register_interface_offset>
 8002b70:	4b1a      	ldr	r3, [pc, #104]	; (8002bdc <stm32__device___elabs+0x81c>)
 8002b72:	681b      	ldr	r3, [r3, #0]
 8002b74:	4a27      	ldr	r2, [pc, #156]	; (8002c14 <stm32__device___elabs+0x854>)
 8002b76:	6053      	str	r3, [r2, #4]
 8002b78:	4b26      	ldr	r3, [pc, #152]	; (8002c14 <stm32__device___elabs+0x854>)
 8002b7a:	f44f 4280 	mov.w	r2, #16384	; 0x4000
 8002b7e:	811a      	strh	r2, [r3, #8]
 8002b80:	4b24      	ldr	r3, [pc, #144]	; (8002c14 <stm32__device___elabs+0x854>)
 8002b82:	4a14      	ldr	r2, [pc, #80]	; (8002bd4 <stm32__device___elabs+0x814>)
 8002b84:	601a      	str	r2, [r3, #0]
 8002b86:	4a23      	ldr	r2, [pc, #140]	; (8002c14 <stm32__device___elabs+0x854>)
 8002b88:	2300      	movs	r3, #0
 8002b8a:	9300      	str	r3, [sp, #0]
 8002b8c:	4610      	mov	r0, r2
 8002b8e:	4912      	ldr	r1, [pc, #72]	; (8002bd8 <stm32__device___elabs+0x818>)
 8002b90:	2201      	movs	r2, #1
 8002b92:	2300      	movs	r3, #0
 8002b94:	f007 f800 	bl	8009b98 <ada__tags__register_interface_offset>
 8002b98:	4b10      	ldr	r3, [pc, #64]	; (8002bdc <stm32__device___elabs+0x81c>)
 8002b9a:	681b      	ldr	r3, [r3, #0]
 8002b9c:	4a1e      	ldr	r2, [pc, #120]	; (8002c18 <stm32__device___elabs+0x858>)
 8002b9e:	6053      	str	r3, [r2, #4]
 8002ba0:	4b1d      	ldr	r3, [pc, #116]	; (8002c18 <stm32__device___elabs+0x858>)
 8002ba2:	f44f 4200 	mov.w	r2, #32768	; 0x8000
 8002ba6:	811a      	strh	r2, [r3, #8]
 8002ba8:	4b1b      	ldr	r3, [pc, #108]	; (8002c18 <stm32__device___elabs+0x858>)
 8002baa:	4a0a      	ldr	r2, [pc, #40]	; (8002bd4 <stm32__device___elabs+0x814>)
 8002bac:	601a      	str	r2, [r3, #0]
 8002bae:	4a1a      	ldr	r2, [pc, #104]	; (8002c18 <stm32__device___elabs+0x858>)
 8002bb0:	2300      	movs	r3, #0
 8002bb2:	9300      	str	r3, [sp, #0]
 8002bb4:	4610      	mov	r0, r2
 8002bb6:	4908      	ldr	r1, [pc, #32]	; (8002bd8 <stm32__device___elabs+0x818>)
 8002bb8:	2201      	movs	r2, #1
 8002bba:	2300      	movs	r3, #0
 8002bbc:	f006 ffec 	bl	8009b98 <ada__tags__register_interface_offset>
 8002bc0:	4b16      	ldr	r3, [pc, #88]	; (8002c1c <stm32__device___elabs+0x85c>)
 8002bc2:	681b      	ldr	r3, [r3, #0]
 8002bc4:	4a16      	ldr	r2, [pc, #88]	; (8002c20 <stm32__device___elabs+0x860>)
 8002bc6:	6053      	str	r3, [r2, #4]
 8002bc8:	4b15      	ldr	r3, [pc, #84]	; (8002c20 <stm32__device___elabs+0x860>)
 8002bca:	2201      	movs	r2, #1
 8002bcc:	e02a      	b.n	8002c24 <stm32__device___elabs+0x864>
 8002bce:	bf00      	nop
 8002bd0:	20000454 	.word	0x20000454
 8002bd4:	0800ef84 	.word	0x0800ef84
 8002bd8:	0800f3e8 	.word	0x0800f3e8
 8002bdc:	20000038 	.word	0x20000038
 8002be0:	20000460 	.word	0x20000460
 8002be4:	2000046c 	.word	0x2000046c
 8002be8:	20000478 	.word	0x20000478
 8002bec:	20000484 	.word	0x20000484
 8002bf0:	20000490 	.word	0x20000490
 8002bf4:	2000049c 	.word	0x2000049c
 8002bf8:	200004a8 	.word	0x200004a8
 8002bfc:	200004b4 	.word	0x200004b4
 8002c00:	200004c0 	.word	0x200004c0
 8002c04:	200004cc 	.word	0x200004cc
 8002c08:	200004d8 	.word	0x200004d8
 8002c0c:	200004e4 	.word	0x200004e4
 8002c10:	200004f0 	.word	0x200004f0
 8002c14:	200004fc 	.word	0x200004fc
 8002c18:	20000508 	.word	0x20000508
 8002c1c:	2000003c 	.word	0x2000003c
 8002c20:	20000514 	.word	0x20000514
 8002c24:	811a      	strh	r2, [r3, #8]
 8002c26:	4b9d      	ldr	r3, [pc, #628]	; (8002e9c <stm32__device___elabs+0xadc>)
 8002c28:	4a9d      	ldr	r2, [pc, #628]	; (8002ea0 <stm32__device___elabs+0xae0>)
 8002c2a:	601a      	str	r2, [r3, #0]
 8002c2c:	4a9b      	ldr	r2, [pc, #620]	; (8002e9c <stm32__device___elabs+0xadc>)
 8002c2e:	2300      	movs	r3, #0
 8002c30:	9300      	str	r3, [sp, #0]
 8002c32:	4610      	mov	r0, r2
 8002c34:	499b      	ldr	r1, [pc, #620]	; (8002ea4 <stm32__device___elabs+0xae4>)
 8002c36:	2201      	movs	r2, #1
 8002c38:	2300      	movs	r3, #0
 8002c3a:	f006 ffad 	bl	8009b98 <ada__tags__register_interface_offset>
 8002c3e:	4b9a      	ldr	r3, [pc, #616]	; (8002ea8 <stm32__device___elabs+0xae8>)
 8002c40:	681b      	ldr	r3, [r3, #0]
 8002c42:	4a9a      	ldr	r2, [pc, #616]	; (8002eac <stm32__device___elabs+0xaec>)
 8002c44:	6053      	str	r3, [r2, #4]
 8002c46:	4b99      	ldr	r3, [pc, #612]	; (8002eac <stm32__device___elabs+0xaec>)
 8002c48:	2202      	movs	r2, #2
 8002c4a:	811a      	strh	r2, [r3, #8]
 8002c4c:	4b97      	ldr	r3, [pc, #604]	; (8002eac <stm32__device___elabs+0xaec>)
 8002c4e:	4a94      	ldr	r2, [pc, #592]	; (8002ea0 <stm32__device___elabs+0xae0>)
 8002c50:	601a      	str	r2, [r3, #0]
 8002c52:	4a96      	ldr	r2, [pc, #600]	; (8002eac <stm32__device___elabs+0xaec>)
 8002c54:	2300      	movs	r3, #0
 8002c56:	9300      	str	r3, [sp, #0]
 8002c58:	4610      	mov	r0, r2
 8002c5a:	4992      	ldr	r1, [pc, #584]	; (8002ea4 <stm32__device___elabs+0xae4>)
 8002c5c:	2201      	movs	r2, #1
 8002c5e:	2300      	movs	r3, #0
 8002c60:	f006 ff9a 	bl	8009b98 <ada__tags__register_interface_offset>
 8002c64:	4b90      	ldr	r3, [pc, #576]	; (8002ea8 <stm32__device___elabs+0xae8>)
 8002c66:	681b      	ldr	r3, [r3, #0]
 8002c68:	4a91      	ldr	r2, [pc, #580]	; (8002eb0 <stm32__device___elabs+0xaf0>)
 8002c6a:	6053      	str	r3, [r2, #4]
 8002c6c:	4b90      	ldr	r3, [pc, #576]	; (8002eb0 <stm32__device___elabs+0xaf0>)
 8002c6e:	2204      	movs	r2, #4
 8002c70:	811a      	strh	r2, [r3, #8]
 8002c72:	4b8f      	ldr	r3, [pc, #572]	; (8002eb0 <stm32__device___elabs+0xaf0>)
 8002c74:	4a8a      	ldr	r2, [pc, #552]	; (8002ea0 <stm32__device___elabs+0xae0>)
 8002c76:	601a      	str	r2, [r3, #0]
 8002c78:	4a8d      	ldr	r2, [pc, #564]	; (8002eb0 <stm32__device___elabs+0xaf0>)
 8002c7a:	2300      	movs	r3, #0
 8002c7c:	9300      	str	r3, [sp, #0]
 8002c7e:	4610      	mov	r0, r2
 8002c80:	4988      	ldr	r1, [pc, #544]	; (8002ea4 <stm32__device___elabs+0xae4>)
 8002c82:	2201      	movs	r2, #1
 8002c84:	2300      	movs	r3, #0
 8002c86:	f006 ff87 	bl	8009b98 <ada__tags__register_interface_offset>
 8002c8a:	4b87      	ldr	r3, [pc, #540]	; (8002ea8 <stm32__device___elabs+0xae8>)
 8002c8c:	681b      	ldr	r3, [r3, #0]
 8002c8e:	4a89      	ldr	r2, [pc, #548]	; (8002eb4 <stm32__device___elabs+0xaf4>)
 8002c90:	6053      	str	r3, [r2, #4]
 8002c92:	4b88      	ldr	r3, [pc, #544]	; (8002eb4 <stm32__device___elabs+0xaf4>)
 8002c94:	2208      	movs	r2, #8
 8002c96:	811a      	strh	r2, [r3, #8]
 8002c98:	4b86      	ldr	r3, [pc, #536]	; (8002eb4 <stm32__device___elabs+0xaf4>)
 8002c9a:	4a81      	ldr	r2, [pc, #516]	; (8002ea0 <stm32__device___elabs+0xae0>)
 8002c9c:	601a      	str	r2, [r3, #0]
 8002c9e:	4a85      	ldr	r2, [pc, #532]	; (8002eb4 <stm32__device___elabs+0xaf4>)
 8002ca0:	2300      	movs	r3, #0
 8002ca2:	9300      	str	r3, [sp, #0]
 8002ca4:	4610      	mov	r0, r2
 8002ca6:	497f      	ldr	r1, [pc, #508]	; (8002ea4 <stm32__device___elabs+0xae4>)
 8002ca8:	2201      	movs	r2, #1
 8002caa:	2300      	movs	r3, #0
 8002cac:	f006 ff74 	bl	8009b98 <ada__tags__register_interface_offset>
 8002cb0:	4b7d      	ldr	r3, [pc, #500]	; (8002ea8 <stm32__device___elabs+0xae8>)
 8002cb2:	681b      	ldr	r3, [r3, #0]
 8002cb4:	4a80      	ldr	r2, [pc, #512]	; (8002eb8 <stm32__device___elabs+0xaf8>)
 8002cb6:	6053      	str	r3, [r2, #4]
 8002cb8:	4b7f      	ldr	r3, [pc, #508]	; (8002eb8 <stm32__device___elabs+0xaf8>)
 8002cba:	2210      	movs	r2, #16
 8002cbc:	811a      	strh	r2, [r3, #8]
 8002cbe:	4b7e      	ldr	r3, [pc, #504]	; (8002eb8 <stm32__device___elabs+0xaf8>)
 8002cc0:	4a77      	ldr	r2, [pc, #476]	; (8002ea0 <stm32__device___elabs+0xae0>)
 8002cc2:	601a      	str	r2, [r3, #0]
 8002cc4:	4a7c      	ldr	r2, [pc, #496]	; (8002eb8 <stm32__device___elabs+0xaf8>)
 8002cc6:	2300      	movs	r3, #0
 8002cc8:	9300      	str	r3, [sp, #0]
 8002cca:	4610      	mov	r0, r2
 8002ccc:	4975      	ldr	r1, [pc, #468]	; (8002ea4 <stm32__device___elabs+0xae4>)
 8002cce:	2201      	movs	r2, #1
 8002cd0:	2300      	movs	r3, #0
 8002cd2:	f006 ff61 	bl	8009b98 <ada__tags__register_interface_offset>
 8002cd6:	4b74      	ldr	r3, [pc, #464]	; (8002ea8 <stm32__device___elabs+0xae8>)
 8002cd8:	681b      	ldr	r3, [r3, #0]
 8002cda:	4a78      	ldr	r2, [pc, #480]	; (8002ebc <stm32__device___elabs+0xafc>)
 8002cdc:	6053      	str	r3, [r2, #4]
 8002cde:	4b77      	ldr	r3, [pc, #476]	; (8002ebc <stm32__device___elabs+0xafc>)
 8002ce0:	2220      	movs	r2, #32
 8002ce2:	811a      	strh	r2, [r3, #8]
 8002ce4:	4b75      	ldr	r3, [pc, #468]	; (8002ebc <stm32__device___elabs+0xafc>)
 8002ce6:	4a6e      	ldr	r2, [pc, #440]	; (8002ea0 <stm32__device___elabs+0xae0>)
 8002ce8:	601a      	str	r2, [r3, #0]
 8002cea:	4a74      	ldr	r2, [pc, #464]	; (8002ebc <stm32__device___elabs+0xafc>)
 8002cec:	2300      	movs	r3, #0
 8002cee:	9300      	str	r3, [sp, #0]
 8002cf0:	4610      	mov	r0, r2
 8002cf2:	496c      	ldr	r1, [pc, #432]	; (8002ea4 <stm32__device___elabs+0xae4>)
 8002cf4:	2201      	movs	r2, #1
 8002cf6:	2300      	movs	r3, #0
 8002cf8:	f006 ff4e 	bl	8009b98 <ada__tags__register_interface_offset>
 8002cfc:	4b6a      	ldr	r3, [pc, #424]	; (8002ea8 <stm32__device___elabs+0xae8>)
 8002cfe:	681b      	ldr	r3, [r3, #0]
 8002d00:	4a6f      	ldr	r2, [pc, #444]	; (8002ec0 <stm32__device___elabs+0xb00>)
 8002d02:	6053      	str	r3, [r2, #4]
 8002d04:	4b6e      	ldr	r3, [pc, #440]	; (8002ec0 <stm32__device___elabs+0xb00>)
 8002d06:	2240      	movs	r2, #64	; 0x40
 8002d08:	811a      	strh	r2, [r3, #8]
 8002d0a:	4b6d      	ldr	r3, [pc, #436]	; (8002ec0 <stm32__device___elabs+0xb00>)
 8002d0c:	4a64      	ldr	r2, [pc, #400]	; (8002ea0 <stm32__device___elabs+0xae0>)
 8002d0e:	601a      	str	r2, [r3, #0]
 8002d10:	4a6b      	ldr	r2, [pc, #428]	; (8002ec0 <stm32__device___elabs+0xb00>)
 8002d12:	2300      	movs	r3, #0
 8002d14:	9300      	str	r3, [sp, #0]
 8002d16:	4610      	mov	r0, r2
 8002d18:	4962      	ldr	r1, [pc, #392]	; (8002ea4 <stm32__device___elabs+0xae4>)
 8002d1a:	2201      	movs	r2, #1
 8002d1c:	2300      	movs	r3, #0
 8002d1e:	f006 ff3b 	bl	8009b98 <ada__tags__register_interface_offset>
 8002d22:	4b61      	ldr	r3, [pc, #388]	; (8002ea8 <stm32__device___elabs+0xae8>)
 8002d24:	681b      	ldr	r3, [r3, #0]
 8002d26:	4a67      	ldr	r2, [pc, #412]	; (8002ec4 <stm32__device___elabs+0xb04>)
 8002d28:	6053      	str	r3, [r2, #4]
 8002d2a:	4b66      	ldr	r3, [pc, #408]	; (8002ec4 <stm32__device___elabs+0xb04>)
 8002d2c:	2280      	movs	r2, #128	; 0x80
 8002d2e:	811a      	strh	r2, [r3, #8]
 8002d30:	4b64      	ldr	r3, [pc, #400]	; (8002ec4 <stm32__device___elabs+0xb04>)
 8002d32:	4a5b      	ldr	r2, [pc, #364]	; (8002ea0 <stm32__device___elabs+0xae0>)
 8002d34:	601a      	str	r2, [r3, #0]
 8002d36:	4a63      	ldr	r2, [pc, #396]	; (8002ec4 <stm32__device___elabs+0xb04>)
 8002d38:	2300      	movs	r3, #0
 8002d3a:	9300      	str	r3, [sp, #0]
 8002d3c:	4610      	mov	r0, r2
 8002d3e:	4959      	ldr	r1, [pc, #356]	; (8002ea4 <stm32__device___elabs+0xae4>)
 8002d40:	2201      	movs	r2, #1
 8002d42:	2300      	movs	r3, #0
 8002d44:	f006 ff28 	bl	8009b98 <ada__tags__register_interface_offset>
 8002d48:	4b57      	ldr	r3, [pc, #348]	; (8002ea8 <stm32__device___elabs+0xae8>)
 8002d4a:	681b      	ldr	r3, [r3, #0]
 8002d4c:	4a5e      	ldr	r2, [pc, #376]	; (8002ec8 <stm32__device___elabs+0xb08>)
 8002d4e:	6053      	str	r3, [r2, #4]
 8002d50:	4b5d      	ldr	r3, [pc, #372]	; (8002ec8 <stm32__device___elabs+0xb08>)
 8002d52:	f44f 7280 	mov.w	r2, #256	; 0x100
 8002d56:	811a      	strh	r2, [r3, #8]
 8002d58:	4b5b      	ldr	r3, [pc, #364]	; (8002ec8 <stm32__device___elabs+0xb08>)
 8002d5a:	4a51      	ldr	r2, [pc, #324]	; (8002ea0 <stm32__device___elabs+0xae0>)
 8002d5c:	601a      	str	r2, [r3, #0]
 8002d5e:	4a5a      	ldr	r2, [pc, #360]	; (8002ec8 <stm32__device___elabs+0xb08>)
 8002d60:	2300      	movs	r3, #0
 8002d62:	9300      	str	r3, [sp, #0]
 8002d64:	4610      	mov	r0, r2
 8002d66:	494f      	ldr	r1, [pc, #316]	; (8002ea4 <stm32__device___elabs+0xae4>)
 8002d68:	2201      	movs	r2, #1
 8002d6a:	2300      	movs	r3, #0
 8002d6c:	f006 ff14 	bl	8009b98 <ada__tags__register_interface_offset>
 8002d70:	4b4d      	ldr	r3, [pc, #308]	; (8002ea8 <stm32__device___elabs+0xae8>)
 8002d72:	681b      	ldr	r3, [r3, #0]
 8002d74:	4a55      	ldr	r2, [pc, #340]	; (8002ecc <stm32__device___elabs+0xb0c>)
 8002d76:	6053      	str	r3, [r2, #4]
 8002d78:	4b54      	ldr	r3, [pc, #336]	; (8002ecc <stm32__device___elabs+0xb0c>)
 8002d7a:	f44f 7200 	mov.w	r2, #512	; 0x200
 8002d7e:	811a      	strh	r2, [r3, #8]
 8002d80:	4b52      	ldr	r3, [pc, #328]	; (8002ecc <stm32__device___elabs+0xb0c>)
 8002d82:	4a47      	ldr	r2, [pc, #284]	; (8002ea0 <stm32__device___elabs+0xae0>)
 8002d84:	601a      	str	r2, [r3, #0]
 8002d86:	4a51      	ldr	r2, [pc, #324]	; (8002ecc <stm32__device___elabs+0xb0c>)
 8002d88:	2300      	movs	r3, #0
 8002d8a:	9300      	str	r3, [sp, #0]
 8002d8c:	4610      	mov	r0, r2
 8002d8e:	4945      	ldr	r1, [pc, #276]	; (8002ea4 <stm32__device___elabs+0xae4>)
 8002d90:	2201      	movs	r2, #1
 8002d92:	2300      	movs	r3, #0
 8002d94:	f006 ff00 	bl	8009b98 <ada__tags__register_interface_offset>
 8002d98:	4b43      	ldr	r3, [pc, #268]	; (8002ea8 <stm32__device___elabs+0xae8>)
 8002d9a:	681b      	ldr	r3, [r3, #0]
 8002d9c:	4a4c      	ldr	r2, [pc, #304]	; (8002ed0 <stm32__device___elabs+0xb10>)
 8002d9e:	6053      	str	r3, [r2, #4]
 8002da0:	4b4b      	ldr	r3, [pc, #300]	; (8002ed0 <stm32__device___elabs+0xb10>)
 8002da2:	f44f 6280 	mov.w	r2, #1024	; 0x400
 8002da6:	811a      	strh	r2, [r3, #8]
 8002da8:	4b49      	ldr	r3, [pc, #292]	; (8002ed0 <stm32__device___elabs+0xb10>)
 8002daa:	4a3d      	ldr	r2, [pc, #244]	; (8002ea0 <stm32__device___elabs+0xae0>)
 8002dac:	601a      	str	r2, [r3, #0]
 8002dae:	4a48      	ldr	r2, [pc, #288]	; (8002ed0 <stm32__device___elabs+0xb10>)
 8002db0:	2300      	movs	r3, #0
 8002db2:	9300      	str	r3, [sp, #0]
 8002db4:	4610      	mov	r0, r2
 8002db6:	493b      	ldr	r1, [pc, #236]	; (8002ea4 <stm32__device___elabs+0xae4>)
 8002db8:	2201      	movs	r2, #1
 8002dba:	2300      	movs	r3, #0
 8002dbc:	f006 feec 	bl	8009b98 <ada__tags__register_interface_offset>
 8002dc0:	4b39      	ldr	r3, [pc, #228]	; (8002ea8 <stm32__device___elabs+0xae8>)
 8002dc2:	681b      	ldr	r3, [r3, #0]
 8002dc4:	4a43      	ldr	r2, [pc, #268]	; (8002ed4 <stm32__device___elabs+0xb14>)
 8002dc6:	6053      	str	r3, [r2, #4]
 8002dc8:	4b42      	ldr	r3, [pc, #264]	; (8002ed4 <stm32__device___elabs+0xb14>)
 8002dca:	f44f 6200 	mov.w	r2, #2048	; 0x800
 8002dce:	811a      	strh	r2, [r3, #8]
 8002dd0:	4b40      	ldr	r3, [pc, #256]	; (8002ed4 <stm32__device___elabs+0xb14>)
 8002dd2:	4a33      	ldr	r2, [pc, #204]	; (8002ea0 <stm32__device___elabs+0xae0>)
 8002dd4:	601a      	str	r2, [r3, #0]
 8002dd6:	4a3f      	ldr	r2, [pc, #252]	; (8002ed4 <stm32__device___elabs+0xb14>)
 8002dd8:	2300      	movs	r3, #0
 8002dda:	9300      	str	r3, [sp, #0]
 8002ddc:	4610      	mov	r0, r2
 8002dde:	4931      	ldr	r1, [pc, #196]	; (8002ea4 <stm32__device___elabs+0xae4>)
 8002de0:	2201      	movs	r2, #1
 8002de2:	2300      	movs	r3, #0
 8002de4:	f006 fed8 	bl	8009b98 <ada__tags__register_interface_offset>
 8002de8:	4b2f      	ldr	r3, [pc, #188]	; (8002ea8 <stm32__device___elabs+0xae8>)
 8002dea:	681b      	ldr	r3, [r3, #0]
 8002dec:	4a3a      	ldr	r2, [pc, #232]	; (8002ed8 <stm32__device___elabs+0xb18>)
 8002dee:	6053      	str	r3, [r2, #4]
 8002df0:	4b39      	ldr	r3, [pc, #228]	; (8002ed8 <stm32__device___elabs+0xb18>)
 8002df2:	f44f 5280 	mov.w	r2, #4096	; 0x1000
 8002df6:	811a      	strh	r2, [r3, #8]
 8002df8:	4b37      	ldr	r3, [pc, #220]	; (8002ed8 <stm32__device___elabs+0xb18>)
 8002dfa:	4a29      	ldr	r2, [pc, #164]	; (8002ea0 <stm32__device___elabs+0xae0>)
 8002dfc:	601a      	str	r2, [r3, #0]
 8002dfe:	4a36      	ldr	r2, [pc, #216]	; (8002ed8 <stm32__device___elabs+0xb18>)
 8002e00:	2300      	movs	r3, #0
 8002e02:	9300      	str	r3, [sp, #0]
 8002e04:	4610      	mov	r0, r2
 8002e06:	4927      	ldr	r1, [pc, #156]	; (8002ea4 <stm32__device___elabs+0xae4>)
 8002e08:	2201      	movs	r2, #1
 8002e0a:	2300      	movs	r3, #0
 8002e0c:	f006 fec4 	bl	8009b98 <ada__tags__register_interface_offset>
 8002e10:	4b25      	ldr	r3, [pc, #148]	; (8002ea8 <stm32__device___elabs+0xae8>)
 8002e12:	681b      	ldr	r3, [r3, #0]
 8002e14:	4a31      	ldr	r2, [pc, #196]	; (8002edc <stm32__device___elabs+0xb1c>)
 8002e16:	6053      	str	r3, [r2, #4]
 8002e18:	4b30      	ldr	r3, [pc, #192]	; (8002edc <stm32__device___elabs+0xb1c>)
 8002e1a:	f44f 5200 	mov.w	r2, #8192	; 0x2000
 8002e1e:	811a      	strh	r2, [r3, #8]
 8002e20:	4b2e      	ldr	r3, [pc, #184]	; (8002edc <stm32__device___elabs+0xb1c>)
 8002e22:	4a1f      	ldr	r2, [pc, #124]	; (8002ea0 <stm32__device___elabs+0xae0>)
 8002e24:	601a      	str	r2, [r3, #0]
 8002e26:	4a2d      	ldr	r2, [pc, #180]	; (8002edc <stm32__device___elabs+0xb1c>)
 8002e28:	2300      	movs	r3, #0
 8002e2a:	9300      	str	r3, [sp, #0]
 8002e2c:	4610      	mov	r0, r2
 8002e2e:	491d      	ldr	r1, [pc, #116]	; (8002ea4 <stm32__device___elabs+0xae4>)
 8002e30:	2201      	movs	r2, #1
 8002e32:	2300      	movs	r3, #0
 8002e34:	f006 feb0 	bl	8009b98 <ada__tags__register_interface_offset>
 8002e38:	4b1b      	ldr	r3, [pc, #108]	; (8002ea8 <stm32__device___elabs+0xae8>)
 8002e3a:	681b      	ldr	r3, [r3, #0]
 8002e3c:	4a28      	ldr	r2, [pc, #160]	; (8002ee0 <stm32__device___elabs+0xb20>)
 8002e3e:	6053      	str	r3, [r2, #4]
 8002e40:	4b27      	ldr	r3, [pc, #156]	; (8002ee0 <stm32__device___elabs+0xb20>)
 8002e42:	f44f 4280 	mov.w	r2, #16384	; 0x4000
 8002e46:	811a      	strh	r2, [r3, #8]
 8002e48:	4b25      	ldr	r3, [pc, #148]	; (8002ee0 <stm32__device___elabs+0xb20>)
 8002e4a:	4a15      	ldr	r2, [pc, #84]	; (8002ea0 <stm32__device___elabs+0xae0>)
 8002e4c:	601a      	str	r2, [r3, #0]
 8002e4e:	4a24      	ldr	r2, [pc, #144]	; (8002ee0 <stm32__device___elabs+0xb20>)
 8002e50:	2300      	movs	r3, #0
 8002e52:	9300      	str	r3, [sp, #0]
 8002e54:	4610      	mov	r0, r2
 8002e56:	4913      	ldr	r1, [pc, #76]	; (8002ea4 <stm32__device___elabs+0xae4>)
 8002e58:	2201      	movs	r2, #1
 8002e5a:	2300      	movs	r3, #0
 8002e5c:	f006 fe9c 	bl	8009b98 <ada__tags__register_interface_offset>
 8002e60:	4b11      	ldr	r3, [pc, #68]	; (8002ea8 <stm32__device___elabs+0xae8>)
 8002e62:	681b      	ldr	r3, [r3, #0]
 8002e64:	4a1f      	ldr	r2, [pc, #124]	; (8002ee4 <stm32__device___elabs+0xb24>)
 8002e66:	6053      	str	r3, [r2, #4]
 8002e68:	4b1e      	ldr	r3, [pc, #120]	; (8002ee4 <stm32__device___elabs+0xb24>)
 8002e6a:	f44f 4200 	mov.w	r2, #32768	; 0x8000
 8002e6e:	811a      	strh	r2, [r3, #8]
 8002e70:	4b1c      	ldr	r3, [pc, #112]	; (8002ee4 <stm32__device___elabs+0xb24>)
 8002e72:	4a0b      	ldr	r2, [pc, #44]	; (8002ea0 <stm32__device___elabs+0xae0>)
 8002e74:	601a      	str	r2, [r3, #0]
 8002e76:	4a1b      	ldr	r2, [pc, #108]	; (8002ee4 <stm32__device___elabs+0xb24>)
 8002e78:	2300      	movs	r3, #0
 8002e7a:	9300      	str	r3, [sp, #0]
 8002e7c:	4610      	mov	r0, r2
 8002e7e:	4909      	ldr	r1, [pc, #36]	; (8002ea4 <stm32__device___elabs+0xae4>)
 8002e80:	2201      	movs	r2, #1
 8002e82:	2300      	movs	r3, #0
 8002e84:	f006 fe88 	bl	8009b98 <ada__tags__register_interface_offset>
 8002e88:	4b17      	ldr	r3, [pc, #92]	; (8002ee8 <stm32__device___elabs+0xb28>)
 8002e8a:	681b      	ldr	r3, [r3, #0]
 8002e8c:	4a17      	ldr	r2, [pc, #92]	; (8002eec <stm32__device___elabs+0xb2c>)
 8002e8e:	6053      	str	r3, [r2, #4]
 8002e90:	4b16      	ldr	r3, [pc, #88]	; (8002eec <stm32__device___elabs+0xb2c>)
 8002e92:	2201      	movs	r2, #1
 8002e94:	811a      	strh	r2, [r3, #8]
 8002e96:	4b15      	ldr	r3, [pc, #84]	; (8002eec <stm32__device___elabs+0xb2c>)
 8002e98:	e02a      	b.n	8002ef0 <stm32__device___elabs+0xb30>
 8002e9a:	bf00      	nop
 8002e9c:	20000514 	.word	0x20000514
 8002ea0:	0800ef84 	.word	0x0800ef84
 8002ea4:	0800f3e8 	.word	0x0800f3e8
 8002ea8:	2000003c 	.word	0x2000003c
 8002eac:	20000520 	.word	0x20000520
 8002eb0:	2000052c 	.word	0x2000052c
 8002eb4:	20000538 	.word	0x20000538
 8002eb8:	20000544 	.word	0x20000544
 8002ebc:	20000550 	.word	0x20000550
 8002ec0:	2000055c 	.word	0x2000055c
 8002ec4:	20000568 	.word	0x20000568
 8002ec8:	20000574 	.word	0x20000574
 8002ecc:	20000580 	.word	0x20000580
 8002ed0:	2000058c 	.word	0x2000058c
 8002ed4:	20000598 	.word	0x20000598
 8002ed8:	200005a4 	.word	0x200005a4
 8002edc:	200005b0 	.word	0x200005b0
 8002ee0:	200005bc 	.word	0x200005bc
 8002ee4:	200005c8 	.word	0x200005c8
 8002ee8:	20000040 	.word	0x20000040
 8002eec:	200005d4 	.word	0x200005d4
 8002ef0:	4a9e      	ldr	r2, [pc, #632]	; (800316c <stm32__device___elabs+0xdac>)
 8002ef2:	601a      	str	r2, [r3, #0]
 8002ef4:	4a9e      	ldr	r2, [pc, #632]	; (8003170 <stm32__device___elabs+0xdb0>)
 8002ef6:	2300      	movs	r3, #0
 8002ef8:	9300      	str	r3, [sp, #0]
 8002efa:	4610      	mov	r0, r2
 8002efc:	499d      	ldr	r1, [pc, #628]	; (8003174 <stm32__device___elabs+0xdb4>)
 8002efe:	2201      	movs	r2, #1
 8002f00:	2300      	movs	r3, #0
 8002f02:	f006 fe49 	bl	8009b98 <ada__tags__register_interface_offset>
 8002f06:	4b9c      	ldr	r3, [pc, #624]	; (8003178 <stm32__device___elabs+0xdb8>)
 8002f08:	681b      	ldr	r3, [r3, #0]
 8002f0a:	4a9c      	ldr	r2, [pc, #624]	; (800317c <stm32__device___elabs+0xdbc>)
 8002f0c:	6053      	str	r3, [r2, #4]
 8002f0e:	4b9b      	ldr	r3, [pc, #620]	; (800317c <stm32__device___elabs+0xdbc>)
 8002f10:	2202      	movs	r2, #2
 8002f12:	811a      	strh	r2, [r3, #8]
 8002f14:	4b99      	ldr	r3, [pc, #612]	; (800317c <stm32__device___elabs+0xdbc>)
 8002f16:	4a95      	ldr	r2, [pc, #596]	; (800316c <stm32__device___elabs+0xdac>)
 8002f18:	601a      	str	r2, [r3, #0]
 8002f1a:	4a98      	ldr	r2, [pc, #608]	; (800317c <stm32__device___elabs+0xdbc>)
 8002f1c:	2300      	movs	r3, #0
 8002f1e:	9300      	str	r3, [sp, #0]
 8002f20:	4610      	mov	r0, r2
 8002f22:	4994      	ldr	r1, [pc, #592]	; (8003174 <stm32__device___elabs+0xdb4>)
 8002f24:	2201      	movs	r2, #1
 8002f26:	2300      	movs	r3, #0
 8002f28:	f006 fe36 	bl	8009b98 <ada__tags__register_interface_offset>
 8002f2c:	4b92      	ldr	r3, [pc, #584]	; (8003178 <stm32__device___elabs+0xdb8>)
 8002f2e:	681b      	ldr	r3, [r3, #0]
 8002f30:	4a93      	ldr	r2, [pc, #588]	; (8003180 <stm32__device___elabs+0xdc0>)
 8002f32:	6053      	str	r3, [r2, #4]
 8002f34:	4b92      	ldr	r3, [pc, #584]	; (8003180 <stm32__device___elabs+0xdc0>)
 8002f36:	2204      	movs	r2, #4
 8002f38:	811a      	strh	r2, [r3, #8]
 8002f3a:	4b91      	ldr	r3, [pc, #580]	; (8003180 <stm32__device___elabs+0xdc0>)
 8002f3c:	4a8b      	ldr	r2, [pc, #556]	; (800316c <stm32__device___elabs+0xdac>)
 8002f3e:	601a      	str	r2, [r3, #0]
 8002f40:	4a8f      	ldr	r2, [pc, #572]	; (8003180 <stm32__device___elabs+0xdc0>)
 8002f42:	2300      	movs	r3, #0
 8002f44:	9300      	str	r3, [sp, #0]
 8002f46:	4610      	mov	r0, r2
 8002f48:	498a      	ldr	r1, [pc, #552]	; (8003174 <stm32__device___elabs+0xdb4>)
 8002f4a:	2201      	movs	r2, #1
 8002f4c:	2300      	movs	r3, #0
 8002f4e:	f006 fe23 	bl	8009b98 <ada__tags__register_interface_offset>
 8002f52:	4b89      	ldr	r3, [pc, #548]	; (8003178 <stm32__device___elabs+0xdb8>)
 8002f54:	681b      	ldr	r3, [r3, #0]
 8002f56:	4a8b      	ldr	r2, [pc, #556]	; (8003184 <stm32__device___elabs+0xdc4>)
 8002f58:	6053      	str	r3, [r2, #4]
 8002f5a:	4b8a      	ldr	r3, [pc, #552]	; (8003184 <stm32__device___elabs+0xdc4>)
 8002f5c:	2208      	movs	r2, #8
 8002f5e:	811a      	strh	r2, [r3, #8]
 8002f60:	4b88      	ldr	r3, [pc, #544]	; (8003184 <stm32__device___elabs+0xdc4>)
 8002f62:	4a82      	ldr	r2, [pc, #520]	; (800316c <stm32__device___elabs+0xdac>)
 8002f64:	601a      	str	r2, [r3, #0]
 8002f66:	4a87      	ldr	r2, [pc, #540]	; (8003184 <stm32__device___elabs+0xdc4>)
 8002f68:	2300      	movs	r3, #0
 8002f6a:	9300      	str	r3, [sp, #0]
 8002f6c:	4610      	mov	r0, r2
 8002f6e:	4981      	ldr	r1, [pc, #516]	; (8003174 <stm32__device___elabs+0xdb4>)
 8002f70:	2201      	movs	r2, #1
 8002f72:	2300      	movs	r3, #0
 8002f74:	f006 fe10 	bl	8009b98 <ada__tags__register_interface_offset>
 8002f78:	4b7f      	ldr	r3, [pc, #508]	; (8003178 <stm32__device___elabs+0xdb8>)
 8002f7a:	681b      	ldr	r3, [r3, #0]
 8002f7c:	4a82      	ldr	r2, [pc, #520]	; (8003188 <stm32__device___elabs+0xdc8>)
 8002f7e:	6053      	str	r3, [r2, #4]
 8002f80:	4b81      	ldr	r3, [pc, #516]	; (8003188 <stm32__device___elabs+0xdc8>)
 8002f82:	2210      	movs	r2, #16
 8002f84:	811a      	strh	r2, [r3, #8]
 8002f86:	4b80      	ldr	r3, [pc, #512]	; (8003188 <stm32__device___elabs+0xdc8>)
 8002f88:	4a78      	ldr	r2, [pc, #480]	; (800316c <stm32__device___elabs+0xdac>)
 8002f8a:	601a      	str	r2, [r3, #0]
 8002f8c:	4a7e      	ldr	r2, [pc, #504]	; (8003188 <stm32__device___elabs+0xdc8>)
 8002f8e:	2300      	movs	r3, #0
 8002f90:	9300      	str	r3, [sp, #0]
 8002f92:	4610      	mov	r0, r2
 8002f94:	4977      	ldr	r1, [pc, #476]	; (8003174 <stm32__device___elabs+0xdb4>)
 8002f96:	2201      	movs	r2, #1
 8002f98:	2300      	movs	r3, #0
 8002f9a:	f006 fdfd 	bl	8009b98 <ada__tags__register_interface_offset>
 8002f9e:	4b76      	ldr	r3, [pc, #472]	; (8003178 <stm32__device___elabs+0xdb8>)
 8002fa0:	681b      	ldr	r3, [r3, #0]
 8002fa2:	4a7a      	ldr	r2, [pc, #488]	; (800318c <stm32__device___elabs+0xdcc>)
 8002fa4:	6053      	str	r3, [r2, #4]
 8002fa6:	4b79      	ldr	r3, [pc, #484]	; (800318c <stm32__device___elabs+0xdcc>)
 8002fa8:	2220      	movs	r2, #32
 8002faa:	811a      	strh	r2, [r3, #8]
 8002fac:	4b77      	ldr	r3, [pc, #476]	; (800318c <stm32__device___elabs+0xdcc>)
 8002fae:	4a6f      	ldr	r2, [pc, #444]	; (800316c <stm32__device___elabs+0xdac>)
 8002fb0:	601a      	str	r2, [r3, #0]
 8002fb2:	4a76      	ldr	r2, [pc, #472]	; (800318c <stm32__device___elabs+0xdcc>)
 8002fb4:	2300      	movs	r3, #0
 8002fb6:	9300      	str	r3, [sp, #0]
 8002fb8:	4610      	mov	r0, r2
 8002fba:	496e      	ldr	r1, [pc, #440]	; (8003174 <stm32__device___elabs+0xdb4>)
 8002fbc:	2201      	movs	r2, #1
 8002fbe:	2300      	movs	r3, #0
 8002fc0:	f006 fdea 	bl	8009b98 <ada__tags__register_interface_offset>
 8002fc4:	4b6c      	ldr	r3, [pc, #432]	; (8003178 <stm32__device___elabs+0xdb8>)
 8002fc6:	681b      	ldr	r3, [r3, #0]
 8002fc8:	4a71      	ldr	r2, [pc, #452]	; (8003190 <stm32__device___elabs+0xdd0>)
 8002fca:	6053      	str	r3, [r2, #4]
 8002fcc:	4b70      	ldr	r3, [pc, #448]	; (8003190 <stm32__device___elabs+0xdd0>)
 8002fce:	2240      	movs	r2, #64	; 0x40
 8002fd0:	811a      	strh	r2, [r3, #8]
 8002fd2:	4b6f      	ldr	r3, [pc, #444]	; (8003190 <stm32__device___elabs+0xdd0>)
 8002fd4:	4a65      	ldr	r2, [pc, #404]	; (800316c <stm32__device___elabs+0xdac>)
 8002fd6:	601a      	str	r2, [r3, #0]
 8002fd8:	4a6d      	ldr	r2, [pc, #436]	; (8003190 <stm32__device___elabs+0xdd0>)
 8002fda:	2300      	movs	r3, #0
 8002fdc:	9300      	str	r3, [sp, #0]
 8002fde:	4610      	mov	r0, r2
 8002fe0:	4964      	ldr	r1, [pc, #400]	; (8003174 <stm32__device___elabs+0xdb4>)
 8002fe2:	2201      	movs	r2, #1
 8002fe4:	2300      	movs	r3, #0
 8002fe6:	f006 fdd7 	bl	8009b98 <ada__tags__register_interface_offset>
 8002fea:	4b63      	ldr	r3, [pc, #396]	; (8003178 <stm32__device___elabs+0xdb8>)
 8002fec:	681b      	ldr	r3, [r3, #0]
 8002fee:	4a69      	ldr	r2, [pc, #420]	; (8003194 <stm32__device___elabs+0xdd4>)
 8002ff0:	6053      	str	r3, [r2, #4]
 8002ff2:	4b68      	ldr	r3, [pc, #416]	; (8003194 <stm32__device___elabs+0xdd4>)
 8002ff4:	2280      	movs	r2, #128	; 0x80
 8002ff6:	811a      	strh	r2, [r3, #8]
 8002ff8:	4b66      	ldr	r3, [pc, #408]	; (8003194 <stm32__device___elabs+0xdd4>)
 8002ffa:	4a5c      	ldr	r2, [pc, #368]	; (800316c <stm32__device___elabs+0xdac>)
 8002ffc:	601a      	str	r2, [r3, #0]
 8002ffe:	4a65      	ldr	r2, [pc, #404]	; (8003194 <stm32__device___elabs+0xdd4>)
 8003000:	2300      	movs	r3, #0
 8003002:	9300      	str	r3, [sp, #0]
 8003004:	4610      	mov	r0, r2
 8003006:	495b      	ldr	r1, [pc, #364]	; (8003174 <stm32__device___elabs+0xdb4>)
 8003008:	2201      	movs	r2, #1
 800300a:	2300      	movs	r3, #0
 800300c:	f006 fdc4 	bl	8009b98 <ada__tags__register_interface_offset>
 8003010:	4b59      	ldr	r3, [pc, #356]	; (8003178 <stm32__device___elabs+0xdb8>)
 8003012:	681b      	ldr	r3, [r3, #0]
 8003014:	4a60      	ldr	r2, [pc, #384]	; (8003198 <stm32__device___elabs+0xdd8>)
 8003016:	6053      	str	r3, [r2, #4]
 8003018:	4b5f      	ldr	r3, [pc, #380]	; (8003198 <stm32__device___elabs+0xdd8>)
 800301a:	f44f 7280 	mov.w	r2, #256	; 0x100
 800301e:	811a      	strh	r2, [r3, #8]
 8003020:	4b5d      	ldr	r3, [pc, #372]	; (8003198 <stm32__device___elabs+0xdd8>)
 8003022:	4a52      	ldr	r2, [pc, #328]	; (800316c <stm32__device___elabs+0xdac>)
 8003024:	601a      	str	r2, [r3, #0]
 8003026:	4a5c      	ldr	r2, [pc, #368]	; (8003198 <stm32__device___elabs+0xdd8>)
 8003028:	2300      	movs	r3, #0
 800302a:	9300      	str	r3, [sp, #0]
 800302c:	4610      	mov	r0, r2
 800302e:	4951      	ldr	r1, [pc, #324]	; (8003174 <stm32__device___elabs+0xdb4>)
 8003030:	2201      	movs	r2, #1
 8003032:	2300      	movs	r3, #0
 8003034:	f006 fdb0 	bl	8009b98 <ada__tags__register_interface_offset>
 8003038:	4b4f      	ldr	r3, [pc, #316]	; (8003178 <stm32__device___elabs+0xdb8>)
 800303a:	681b      	ldr	r3, [r3, #0]
 800303c:	4a57      	ldr	r2, [pc, #348]	; (800319c <stm32__device___elabs+0xddc>)
 800303e:	6053      	str	r3, [r2, #4]
 8003040:	4b56      	ldr	r3, [pc, #344]	; (800319c <stm32__device___elabs+0xddc>)
 8003042:	f44f 7200 	mov.w	r2, #512	; 0x200
 8003046:	811a      	strh	r2, [r3, #8]
 8003048:	4b54      	ldr	r3, [pc, #336]	; (800319c <stm32__device___elabs+0xddc>)
 800304a:	4a48      	ldr	r2, [pc, #288]	; (800316c <stm32__device___elabs+0xdac>)
 800304c:	601a      	str	r2, [r3, #0]
 800304e:	4a53      	ldr	r2, [pc, #332]	; (800319c <stm32__device___elabs+0xddc>)
 8003050:	2300      	movs	r3, #0
 8003052:	9300      	str	r3, [sp, #0]
 8003054:	4610      	mov	r0, r2
 8003056:	4947      	ldr	r1, [pc, #284]	; (8003174 <stm32__device___elabs+0xdb4>)
 8003058:	2201      	movs	r2, #1
 800305a:	2300      	movs	r3, #0
 800305c:	f006 fd9c 	bl	8009b98 <ada__tags__register_interface_offset>
 8003060:	4b45      	ldr	r3, [pc, #276]	; (8003178 <stm32__device___elabs+0xdb8>)
 8003062:	681b      	ldr	r3, [r3, #0]
 8003064:	4a4e      	ldr	r2, [pc, #312]	; (80031a0 <stm32__device___elabs+0xde0>)
 8003066:	6053      	str	r3, [r2, #4]
 8003068:	4b4d      	ldr	r3, [pc, #308]	; (80031a0 <stm32__device___elabs+0xde0>)
 800306a:	f44f 6280 	mov.w	r2, #1024	; 0x400
 800306e:	811a      	strh	r2, [r3, #8]
 8003070:	4b4b      	ldr	r3, [pc, #300]	; (80031a0 <stm32__device___elabs+0xde0>)
 8003072:	4a3e      	ldr	r2, [pc, #248]	; (800316c <stm32__device___elabs+0xdac>)
 8003074:	601a      	str	r2, [r3, #0]
 8003076:	4a4a      	ldr	r2, [pc, #296]	; (80031a0 <stm32__device___elabs+0xde0>)
 8003078:	2300      	movs	r3, #0
 800307a:	9300      	str	r3, [sp, #0]
 800307c:	4610      	mov	r0, r2
 800307e:	493d      	ldr	r1, [pc, #244]	; (8003174 <stm32__device___elabs+0xdb4>)
 8003080:	2201      	movs	r2, #1
 8003082:	2300      	movs	r3, #0
 8003084:	f006 fd88 	bl	8009b98 <ada__tags__register_interface_offset>
 8003088:	4b3b      	ldr	r3, [pc, #236]	; (8003178 <stm32__device___elabs+0xdb8>)
 800308a:	681b      	ldr	r3, [r3, #0]
 800308c:	4a45      	ldr	r2, [pc, #276]	; (80031a4 <stm32__device___elabs+0xde4>)
 800308e:	6053      	str	r3, [r2, #4]
 8003090:	4b44      	ldr	r3, [pc, #272]	; (80031a4 <stm32__device___elabs+0xde4>)
 8003092:	f44f 6200 	mov.w	r2, #2048	; 0x800
 8003096:	811a      	strh	r2, [r3, #8]
 8003098:	4b42      	ldr	r3, [pc, #264]	; (80031a4 <stm32__device___elabs+0xde4>)
 800309a:	4a34      	ldr	r2, [pc, #208]	; (800316c <stm32__device___elabs+0xdac>)
 800309c:	601a      	str	r2, [r3, #0]
 800309e:	4a41      	ldr	r2, [pc, #260]	; (80031a4 <stm32__device___elabs+0xde4>)
 80030a0:	2300      	movs	r3, #0
 80030a2:	9300      	str	r3, [sp, #0]
 80030a4:	4610      	mov	r0, r2
 80030a6:	4933      	ldr	r1, [pc, #204]	; (8003174 <stm32__device___elabs+0xdb4>)
 80030a8:	2201      	movs	r2, #1
 80030aa:	2300      	movs	r3, #0
 80030ac:	f006 fd74 	bl	8009b98 <ada__tags__register_interface_offset>
 80030b0:	4b31      	ldr	r3, [pc, #196]	; (8003178 <stm32__device___elabs+0xdb8>)
 80030b2:	681b      	ldr	r3, [r3, #0]
 80030b4:	4a3c      	ldr	r2, [pc, #240]	; (80031a8 <stm32__device___elabs+0xde8>)
 80030b6:	6053      	str	r3, [r2, #4]
 80030b8:	4b3b      	ldr	r3, [pc, #236]	; (80031a8 <stm32__device___elabs+0xde8>)
 80030ba:	f44f 5280 	mov.w	r2, #4096	; 0x1000
 80030be:	811a      	strh	r2, [r3, #8]
 80030c0:	4b39      	ldr	r3, [pc, #228]	; (80031a8 <stm32__device___elabs+0xde8>)
 80030c2:	4a2a      	ldr	r2, [pc, #168]	; (800316c <stm32__device___elabs+0xdac>)
 80030c4:	601a      	str	r2, [r3, #0]
 80030c6:	4a38      	ldr	r2, [pc, #224]	; (80031a8 <stm32__device___elabs+0xde8>)
 80030c8:	2300      	movs	r3, #0
 80030ca:	9300      	str	r3, [sp, #0]
 80030cc:	4610      	mov	r0, r2
 80030ce:	4929      	ldr	r1, [pc, #164]	; (8003174 <stm32__device___elabs+0xdb4>)
 80030d0:	2201      	movs	r2, #1
 80030d2:	2300      	movs	r3, #0
 80030d4:	f006 fd60 	bl	8009b98 <ada__tags__register_interface_offset>
 80030d8:	4b27      	ldr	r3, [pc, #156]	; (8003178 <stm32__device___elabs+0xdb8>)
 80030da:	681b      	ldr	r3, [r3, #0]
 80030dc:	4a33      	ldr	r2, [pc, #204]	; (80031ac <stm32__device___elabs+0xdec>)
 80030de:	6053      	str	r3, [r2, #4]
 80030e0:	4b32      	ldr	r3, [pc, #200]	; (80031ac <stm32__device___elabs+0xdec>)
 80030e2:	f44f 5200 	mov.w	r2, #8192	; 0x2000
 80030e6:	811a      	strh	r2, [r3, #8]
 80030e8:	4b30      	ldr	r3, [pc, #192]	; (80031ac <stm32__device___elabs+0xdec>)
 80030ea:	4a20      	ldr	r2, [pc, #128]	; (800316c <stm32__device___elabs+0xdac>)
 80030ec:	601a      	str	r2, [r3, #0]
 80030ee:	4a2f      	ldr	r2, [pc, #188]	; (80031ac <stm32__device___elabs+0xdec>)
 80030f0:	2300      	movs	r3, #0
 80030f2:	9300      	str	r3, [sp, #0]
 80030f4:	4610      	mov	r0, r2
 80030f6:	491f      	ldr	r1, [pc, #124]	; (8003174 <stm32__device___elabs+0xdb4>)
 80030f8:	2201      	movs	r2, #1
 80030fa:	2300      	movs	r3, #0
 80030fc:	f006 fd4c 	bl	8009b98 <ada__tags__register_interface_offset>
 8003100:	4b1d      	ldr	r3, [pc, #116]	; (8003178 <stm32__device___elabs+0xdb8>)
 8003102:	681b      	ldr	r3, [r3, #0]
 8003104:	4a2a      	ldr	r2, [pc, #168]	; (80031b0 <stm32__device___elabs+0xdf0>)
 8003106:	6053      	str	r3, [r2, #4]
 8003108:	4b29      	ldr	r3, [pc, #164]	; (80031b0 <stm32__device___elabs+0xdf0>)
 800310a:	f44f 4280 	mov.w	r2, #16384	; 0x4000
 800310e:	811a      	strh	r2, [r3, #8]
 8003110:	4b27      	ldr	r3, [pc, #156]	; (80031b0 <stm32__device___elabs+0xdf0>)
 8003112:	4a16      	ldr	r2, [pc, #88]	; (800316c <stm32__device___elabs+0xdac>)
 8003114:	601a      	str	r2, [r3, #0]
 8003116:	4a26      	ldr	r2, [pc, #152]	; (80031b0 <stm32__device___elabs+0xdf0>)
 8003118:	2300      	movs	r3, #0
 800311a:	9300      	str	r3, [sp, #0]
 800311c:	4610      	mov	r0, r2
 800311e:	4915      	ldr	r1, [pc, #84]	; (8003174 <stm32__device___elabs+0xdb4>)
 8003120:	2201      	movs	r2, #1
 8003122:	2300      	movs	r3, #0
 8003124:	f006 fd38 	bl	8009b98 <ada__tags__register_interface_offset>
 8003128:	4b13      	ldr	r3, [pc, #76]	; (8003178 <stm32__device___elabs+0xdb8>)
 800312a:	681b      	ldr	r3, [r3, #0]
 800312c:	4a21      	ldr	r2, [pc, #132]	; (80031b4 <stm32__device___elabs+0xdf4>)
 800312e:	6053      	str	r3, [r2, #4]
 8003130:	4b20      	ldr	r3, [pc, #128]	; (80031b4 <stm32__device___elabs+0xdf4>)
 8003132:	f44f 4200 	mov.w	r2, #32768	; 0x8000
 8003136:	811a      	strh	r2, [r3, #8]
 8003138:	4b1e      	ldr	r3, [pc, #120]	; (80031b4 <stm32__device___elabs+0xdf4>)
 800313a:	4a0c      	ldr	r2, [pc, #48]	; (800316c <stm32__device___elabs+0xdac>)
 800313c:	601a      	str	r2, [r3, #0]
 800313e:	4a1d      	ldr	r2, [pc, #116]	; (80031b4 <stm32__device___elabs+0xdf4>)
 8003140:	2300      	movs	r3, #0
 8003142:	9300      	str	r3, [sp, #0]
 8003144:	4610      	mov	r0, r2
 8003146:	490b      	ldr	r1, [pc, #44]	; (8003174 <stm32__device___elabs+0xdb4>)
 8003148:	2201      	movs	r2, #1
 800314a:	2300      	movs	r3, #0
 800314c:	f006 fd24 	bl	8009b98 <ada__tags__register_interface_offset>
 8003150:	4b19      	ldr	r3, [pc, #100]	; (80031b8 <stm32__device___elabs+0xdf8>)
 8003152:	681b      	ldr	r3, [r3, #0]
 8003154:	4819      	ldr	r0, [pc, #100]	; (80031bc <stm32__device___elabs+0xdfc>)
 8003156:	4619      	mov	r1, r3
 8003158:	2201      	movs	r2, #1
 800315a:	f000 f875 	bl	8003248 <stm32__i2c__i2c_portIP>
 800315e:	4b18      	ldr	r3, [pc, #96]	; (80031c0 <stm32__device___elabs+0xe00>)
 8003160:	681b      	ldr	r3, [r3, #0]
 8003162:	4818      	ldr	r0, [pc, #96]	; (80031c4 <stm32__device___elabs+0xe04>)
 8003164:	4619      	mov	r1, r3
 8003166:	2201      	movs	r2, #1
 8003168:	e02e      	b.n	80031c8 <stm32__device___elabs+0xe08>
 800316a:	bf00      	nop
 800316c:	0800ef84 	.word	0x0800ef84
 8003170:	200005d4 	.word	0x200005d4
 8003174:	0800f3e8 	.word	0x0800f3e8
 8003178:	20000040 	.word	0x20000040
 800317c:	200005e0 	.word	0x200005e0
 8003180:	200005ec 	.word	0x200005ec
 8003184:	200005f8 	.word	0x200005f8
 8003188:	20000604 	.word	0x20000604
 800318c:	20000610 	.word	0x20000610
 8003190:	2000061c 	.word	0x2000061c
 8003194:	20000628 	.word	0x20000628
 8003198:	20000634 	.word	0x20000634
 800319c:	20000640 	.word	0x20000640
 80031a0:	2000064c 	.word	0x2000064c
 80031a4:	20000658 	.word	0x20000658
 80031a8:	20000664 	.word	0x20000664
 80031ac:	20000670 	.word	0x20000670
 80031b0:	2000067c 	.word	0x2000067c
 80031b4:	20000688 	.word	0x20000688
 80031b8:	20000044 	.word	0x20000044
 80031bc:	20000694 	.word	0x20000694
 80031c0:	20000048 	.word	0x20000048
 80031c4:	200006ac 	.word	0x200006ac
 80031c8:	f000 f83e 	bl	8003248 <stm32__i2c__i2c_portIP>
 80031cc:	4b0e      	ldr	r3, [pc, #56]	; (8003208 <stm32__device___elabs+0xe48>)
 80031ce:	681b      	ldr	r3, [r3, #0]
 80031d0:	480e      	ldr	r0, [pc, #56]	; (800320c <stm32__device___elabs+0xe4c>)
 80031d2:	4619      	mov	r1, r3
 80031d4:	2201      	movs	r2, #1
 80031d6:	f000 f837 	bl	8003248 <stm32__i2c__i2c_portIP>
 80031da:	4b0d      	ldr	r3, [pc, #52]	; (8003210 <stm32__device___elabs+0xe50>)
 80031dc:	681b      	ldr	r3, [r3, #0]
 80031de:	480d      	ldr	r0, [pc, #52]	; (8003214 <stm32__device___elabs+0xe54>)
 80031e0:	4619      	mov	r1, r3
 80031e2:	2201      	movs	r2, #1
 80031e4:	f002 fe5e 	bl	8005ea4 <stm32__spi__spi_portIP>
 80031e8:	4b0b      	ldr	r3, [pc, #44]	; (8003218 <stm32__device___elabs+0xe58>)
 80031ea:	681b      	ldr	r3, [r3, #0]
 80031ec:	480b      	ldr	r0, [pc, #44]	; (800321c <stm32__device___elabs+0xe5c>)
 80031ee:	4619      	mov	r1, r3
 80031f0:	2201      	movs	r2, #1
 80031f2:	f002 fe57 	bl	8005ea4 <stm32__spi__spi_portIP>
 80031f6:	4b0a      	ldr	r3, [pc, #40]	; (8003220 <stm32__device___elabs+0xe60>)
 80031f8:	681b      	ldr	r3, [r3, #0]
 80031fa:	480a      	ldr	r0, [pc, #40]	; (8003224 <stm32__device___elabs+0xe64>)
 80031fc:	4619      	mov	r1, r3
 80031fe:	2201      	movs	r2, #1
 8003200:	f002 fe50 	bl	8005ea4 <stm32__spi__spi_portIP>
 8003204:	46bd      	mov	sp, r7
 8003206:	bd80      	pop	{r7, pc}
 8003208:	2000004c 	.word	0x2000004c
 800320c:	200006c4 	.word	0x200006c4
 8003210:	20000050 	.word	0x20000050
 8003214:	200006dc 	.word	0x200006dc
 8003218:	20000054 	.word	0x20000054
 800321c:	200006e4 	.word	0x200006e4
 8003220:	20000058 	.word	0x20000058
 8003224:	200006ec 	.word	0x200006ec

08003228 <stm32__i2c__i2c_configurationIP>:
 8003228:	b480      	push	{r7}
 800322a:	b083      	sub	sp, #12
 800322c:	af00      	add	r7, sp, #0
 800322e:	6078      	str	r0, [r7, #4]
 8003230:	687b      	ldr	r3, [r7, #4]
 8003232:	2200      	movs	r2, #0
 8003234:	721a      	strb	r2, [r3, #8]
 8003236:	687b      	ldr	r3, [r7, #4]
 8003238:	2201      	movs	r2, #1
 800323a:	725a      	strb	r2, [r3, #9]
 800323c:	370c      	adds	r7, #12
 800323e:	46bd      	mov	sp, r7
 8003240:	f85d 7b04 	ldr.w	r7, [sp], #4
 8003244:	4770      	bx	lr
 8003246:	bf00      	nop

08003248 <stm32__i2c__i2c_portIP>:
 8003248:	b580      	push	{r7, lr}
 800324a:	b086      	sub	sp, #24
 800324c:	af02      	add	r7, sp, #8
 800324e:	60f8      	str	r0, [r7, #12]
 8003250:	60b9      	str	r1, [r7, #8]
 8003252:	4613      	mov	r3, r2
 8003254:	71fb      	strb	r3, [r7, #7]
 8003256:	79fb      	ldrb	r3, [r7, #7]
 8003258:	2b00      	cmp	r3, #0
 800325a:	d00b      	beq.n	8003274 <stm32__i2c__i2c_portIP+0x2c>
 800325c:	68fb      	ldr	r3, [r7, #12]
 800325e:	4a0c      	ldr	r2, [pc, #48]	; (8003290 <stm32__i2c__i2c_portIP+0x48>)
 8003260:	601a      	str	r2, [r3, #0]
 8003262:	68fa      	ldr	r2, [r7, #12]
 8003264:	2300      	movs	r3, #0
 8003266:	9300      	str	r3, [sp, #0]
 8003268:	4610      	mov	r0, r2
 800326a:	490a      	ldr	r1, [pc, #40]	; (8003294 <stm32__i2c__i2c_portIP+0x4c>)
 800326c:	2201      	movs	r2, #1
 800326e:	2300      	movs	r3, #0
 8003270:	f006 fc92 	bl	8009b98 <ada__tags__register_interface_offset>
 8003274:	68fb      	ldr	r3, [r7, #12]
 8003276:	68ba      	ldr	r2, [r7, #8]
 8003278:	605a      	str	r2, [r3, #4]
 800327a:	68fb      	ldr	r3, [r7, #12]
 800327c:	3308      	adds	r3, #8
 800327e:	4618      	mov	r0, r3
 8003280:	f7ff ffd2 	bl	8003228 <stm32__i2c__i2c_configurationIP>
 8003284:	68fb      	ldr	r3, [r7, #12]
 8003286:	2200      	movs	r2, #0
 8003288:	751a      	strb	r2, [r3, #20]
 800328a:	3710      	adds	r7, #16
 800328c:	46bd      	mov	sp, r7
 800328e:	bd80      	pop	{r7, pc}
 8003290:	0800eda8 	.word	0x0800eda8
 8003294:	0800f358 	.word	0x0800f358

08003298 <stm32__i2c___size__2>:
 8003298:	b490      	push	{r4, r7}
 800329a:	b082      	sub	sp, #8
 800329c:	af00      	add	r7, sp, #0
 800329e:	6078      	str	r0, [r7, #4]
 80032a0:	f04f 03c0 	mov.w	r3, #192	; 0xc0
 80032a4:	f04f 0400 	mov.w	r4, #0
 80032a8:	4618      	mov	r0, r3
 80032aa:	4621      	mov	r1, r4
 80032ac:	3708      	adds	r7, #8
 80032ae:	46bd      	mov	sp, r7
 80032b0:	bc90      	pop	{r4, r7}
 80032b2:	4770      	bx	lr

080032b4 <stm32__i2c__i2c_portSR__i2c_configuration_39SR__2.5131>:
 80032b4:	b580      	push	{r7, lr}
 80032b6:	b084      	sub	sp, #16
 80032b8:	af00      	add	r7, sp, #0
 80032ba:	60f8      	str	r0, [r7, #12]
 80032bc:	60b9      	str	r1, [r7, #8]
 80032be:	607a      	str	r2, [r7, #4]
 80032c0:	f8c7 c000 	str.w	ip, [r7]
 80032c4:	68f8      	ldr	r0, [r7, #12]
 80032c6:	f006 fd57 	bl	8009d78 <system__stream_attributes__i_u>
 80032ca:	4602      	mov	r2, r0
 80032cc:	68bb      	ldr	r3, [r7, #8]
 80032ce:	601a      	str	r2, [r3, #0]
 80032d0:	68f8      	ldr	r0, [r7, #12]
 80032d2:	f006 fd19 	bl	8009d08 <system__stream_attributes__i_ssu>
 80032d6:	4603      	mov	r3, r0
 80032d8:	461a      	mov	r2, r3
 80032da:	68bb      	ldr	r3, [r7, #8]
 80032dc:	711a      	strb	r2, [r3, #4]
 80032de:	68f8      	ldr	r0, [r7, #12]
 80032e0:	f006 fd2e 	bl	8009d40 <system__stream_attributes__i_su>
 80032e4:	4603      	mov	r3, r0
 80032e6:	461a      	mov	r2, r3
 80032e8:	68bb      	ldr	r3, [r7, #8]
 80032ea:	80da      	strh	r2, [r3, #6]
 80032ec:	68f8      	ldr	r0, [r7, #12]
 80032ee:	f006 fcef 	bl	8009cd0 <system__stream_attributes__i_b>
 80032f2:	4603      	mov	r3, r0
 80032f4:	461a      	mov	r2, r3
 80032f6:	68bb      	ldr	r3, [r7, #8]
 80032f8:	721a      	strb	r2, [r3, #8]
 80032fa:	68f8      	ldr	r0, [r7, #12]
 80032fc:	f006 fce8 	bl	8009cd0 <system__stream_attributes__i_b>
 8003300:	4603      	mov	r3, r0
 8003302:	461a      	mov	r2, r3
 8003304:	68bb      	ldr	r3, [r7, #8]
 8003306:	725a      	strb	r2, [r3, #9]
 8003308:	3710      	adds	r7, #16
 800330a:	46bd      	mov	sp, r7
 800330c:	bd80      	pop	{r7, pc}
 800330e:	bf00      	nop

08003310 <stm32__i2c__i2c_portSR__2>:
 8003310:	b580      	push	{r7, lr}
 8003312:	b086      	sub	sp, #24
 8003314:	af00      	add	r7, sp, #0
 8003316:	60f8      	str	r0, [r7, #12]
 8003318:	60b9      	str	r1, [r7, #8]
 800331a:	607a      	str	r2, [r7, #4]
 800331c:	f107 0320 	add.w	r3, r7, #32
 8003320:	617b      	str	r3, [r7, #20]
 8003322:	68bb      	ldr	r3, [r7, #8]
 8003324:	f103 0208 	add.w	r2, r3, #8
 8003328:	f107 0314 	add.w	r3, r7, #20
 800332c:	469c      	mov	ip, r3
 800332e:	68f8      	ldr	r0, [r7, #12]
 8003330:	4611      	mov	r1, r2
 8003332:	687a      	ldr	r2, [r7, #4]
 8003334:	f7ff ffbe 	bl	80032b4 <stm32__i2c__i2c_portSR__i2c_configuration_39SR__2.5131>
 8003338:	68f8      	ldr	r0, [r7, #12]
 800333a:	f006 fce5 	bl	8009d08 <system__stream_attributes__i_ssu>
 800333e:	4603      	mov	r3, r0
 8003340:	461a      	mov	r2, r3
 8003342:	68bb      	ldr	r3, [r7, #8]
 8003344:	751a      	strb	r2, [r3, #20]
 8003346:	3718      	adds	r7, #24
 8003348:	46bd      	mov	sp, r7
 800334a:	bd80      	pop	{r7, pc}

0800334c <stm32__i2c__i2c_portSW__i2c_configuration_43SW__2.5163>:
 800334c:	b580      	push	{r7, lr}
 800334e:	b084      	sub	sp, #16
 8003350:	af00      	add	r7, sp, #0
 8003352:	60f8      	str	r0, [r7, #12]
 8003354:	60b9      	str	r1, [r7, #8]
 8003356:	607a      	str	r2, [r7, #4]
 8003358:	f8c7 c000 	str.w	ip, [r7]
 800335c:	68bb      	ldr	r3, [r7, #8]
 800335e:	681b      	ldr	r3, [r3, #0]
 8003360:	68f8      	ldr	r0, [r7, #12]
 8003362:	4619      	mov	r1, r3
 8003364:	f006 fd60 	bl	8009e28 <system__stream_attributes__w_u>
 8003368:	68bb      	ldr	r3, [r7, #8]
 800336a:	791b      	ldrb	r3, [r3, #4]
 800336c:	68f8      	ldr	r0, [r7, #12]
 800336e:	4619      	mov	r1, r3
 8003370:	f006 fd3c 	bl	8009dec <system__stream_attributes__w_ssu>
 8003374:	68bb      	ldr	r3, [r7, #8]
 8003376:	88db      	ldrh	r3, [r3, #6]
 8003378:	68f8      	ldr	r0, [r7, #12]
 800337a:	4619      	mov	r1, r3
 800337c:	f006 fd44 	bl	8009e08 <system__stream_attributes__w_su>
 8003380:	68bb      	ldr	r3, [r7, #8]
 8003382:	7a1b      	ldrb	r3, [r3, #8]
 8003384:	68f8      	ldr	r0, [r7, #12]
 8003386:	4619      	mov	r1, r3
 8003388:	f006 fd22 	bl	8009dd0 <system__stream_attributes__w_b>
 800338c:	68bb      	ldr	r3, [r7, #8]
 800338e:	7a5b      	ldrb	r3, [r3, #9]
 8003390:	68f8      	ldr	r0, [r7, #12]
 8003392:	4619      	mov	r1, r3
 8003394:	f006 fd1c 	bl	8009dd0 <system__stream_attributes__w_b>
 8003398:	3710      	adds	r7, #16
 800339a:	46bd      	mov	sp, r7
 800339c:	bd80      	pop	{r7, pc}
 800339e:	bf00      	nop

080033a0 <stm32__i2c__i2c_portSW__2>:
 80033a0:	b580      	push	{r7, lr}
 80033a2:	b086      	sub	sp, #24
 80033a4:	af00      	add	r7, sp, #0
 80033a6:	60f8      	str	r0, [r7, #12]
 80033a8:	60b9      	str	r1, [r7, #8]
 80033aa:	607a      	str	r2, [r7, #4]
 80033ac:	f107 0320 	add.w	r3, r7, #32
 80033b0:	617b      	str	r3, [r7, #20]
 80033b2:	68bb      	ldr	r3, [r7, #8]
 80033b4:	f103 0208 	add.w	r2, r3, #8
 80033b8:	f107 0314 	add.w	r3, r7, #20
 80033bc:	469c      	mov	ip, r3
 80033be:	68f8      	ldr	r0, [r7, #12]
 80033c0:	4611      	mov	r1, r2
 80033c2:	687a      	ldr	r2, [r7, #4]
 80033c4:	f7ff ffc2 	bl	800334c <stm32__i2c__i2c_portSW__i2c_configuration_43SW__2.5163>
 80033c8:	68bb      	ldr	r3, [r7, #8]
 80033ca:	7d1b      	ldrb	r3, [r3, #20]
 80033cc:	68f8      	ldr	r0, [r7, #12]
 80033ce:	4619      	mov	r1, r3
 80033d0:	f006 fd0c 	bl	8009dec <system__stream_attributes__w_ssu>
 80033d4:	3718      	adds	r7, #24
 80033d6:	46bd      	mov	sp, r7
 80033d8:	bd80      	pop	{r7, pc}
 80033da:	bf00      	nop

080033dc <stm32__i2c__i2c_portSI__2>:
 80033dc:	b5f0      	push	{r4, r5, r6, r7, lr}
 80033de:	b089      	sub	sp, #36	; 0x24
 80033e0:	af00      	add	r7, sp, #0
 80033e2:	6078      	str	r0, [r7, #4]
 80033e4:	6039      	str	r1, [r7, #0]
 80033e6:	6878      	ldr	r0, [r7, #4]
 80033e8:	f006 fc56 	bl	8009c98 <system__stream_attributes__i_as>
 80033ec:	4603      	mov	r3, r0
 80033ee:	461a      	mov	r2, r3
 80033f0:	f107 0308 	add.w	r3, r7, #8
 80033f4:	4618      	mov	r0, r3
 80033f6:	4611      	mov	r1, r2
 80033f8:	2201      	movs	r2, #1
 80033fa:	f7ff ff25 	bl	8003248 <stm32__i2c__i2c_portIP>
 80033fe:	f107 0308 	add.w	r3, r7, #8
 8003402:	6878      	ldr	r0, [r7, #4]
 8003404:	4619      	mov	r1, r3
 8003406:	683a      	ldr	r2, [r7, #0]
 8003408:	f7ff ff82 	bl	8003310 <stm32__i2c__i2c_portSR__2>
 800340c:	2018      	movs	r0, #24
 800340e:	f007 fe97 	bl	800b140 <system__secondary_stack__ss_allocate>
 8003412:	4606      	mov	r6, r0
 8003414:	4633      	mov	r3, r6
 8003416:	461d      	mov	r5, r3
 8003418:	f107 0408 	add.w	r4, r7, #8
 800341c:	cc0f      	ldmia	r4!, {r0, r1, r2, r3}
 800341e:	c50f      	stmia	r5!, {r0, r1, r2, r3}
 8003420:	e894 0003 	ldmia.w	r4, {r0, r1}
 8003424:	e885 0003 	stmia.w	r5, {r0, r1}
 8003428:	4633      	mov	r3, r6
 800342a:	4618      	mov	r0, r3
 800342c:	3724      	adds	r7, #36	; 0x24
 800342e:	46bd      	mov	sp, r7
 8003430:	bdf0      	pop	{r4, r5, r6, r7, pc}
 8003432:	bf00      	nop

08003434 <stm32__i2c__i2c_portSO__2>:
 8003434:	b580      	push	{r7, lr}
 8003436:	b084      	sub	sp, #16
 8003438:	af00      	add	r7, sp, #0
 800343a:	60f8      	str	r0, [r7, #12]
 800343c:	60b9      	str	r1, [r7, #8]
 800343e:	607a      	str	r2, [r7, #4]
 8003440:	68bb      	ldr	r3, [r7, #8]
 8003442:	68f8      	ldr	r0, [r7, #12]
 8003444:	6859      	ldr	r1, [r3, #4]
 8003446:	f006 fcb3 	bl	8009db0 <system__stream_attributes__w_as>
 800344a:	68f8      	ldr	r0, [r7, #12]
 800344c:	68b9      	ldr	r1, [r7, #8]
 800344e:	687a      	ldr	r2, [r7, #4]
 8003450:	f7ff ffa6 	bl	80033a0 <stm32__i2c__i2c_portSW__2>
 8003454:	3710      	adds	r7, #16
 8003456:	46bd      	mov	sp, r7
 8003458:	bd80      	pop	{r7, pc}
 800345a:	bf00      	nop

0800345c <stm32__i2c__Oeq>:
 800345c:	b480      	push	{r7}
 800345e:	b083      	sub	sp, #12
 8003460:	af00      	add	r7, sp, #0
 8003462:	6078      	str	r0, [r7, #4]
 8003464:	6039      	str	r1, [r7, #0]
 8003466:	687b      	ldr	r3, [r7, #4]
 8003468:	685a      	ldr	r2, [r3, #4]
 800346a:	683b      	ldr	r3, [r7, #0]
 800346c:	685b      	ldr	r3, [r3, #4]
 800346e:	429a      	cmp	r2, r3
 8003470:	d125      	bne.n	80034be <stm32__i2c__Oeq+0x62>
 8003472:	687b      	ldr	r3, [r7, #4]
 8003474:	689a      	ldr	r2, [r3, #8]
 8003476:	683b      	ldr	r3, [r7, #0]
 8003478:	689b      	ldr	r3, [r3, #8]
 800347a:	429a      	cmp	r2, r3
 800347c:	d11f      	bne.n	80034be <stm32__i2c__Oeq+0x62>
 800347e:	687b      	ldr	r3, [r7, #4]
 8003480:	7b1a      	ldrb	r2, [r3, #12]
 8003482:	683b      	ldr	r3, [r7, #0]
 8003484:	7b1b      	ldrb	r3, [r3, #12]
 8003486:	429a      	cmp	r2, r3
 8003488:	d119      	bne.n	80034be <stm32__i2c__Oeq+0x62>
 800348a:	687b      	ldr	r3, [r7, #4]
 800348c:	89da      	ldrh	r2, [r3, #14]
 800348e:	683b      	ldr	r3, [r7, #0]
 8003490:	89db      	ldrh	r3, [r3, #14]
 8003492:	429a      	cmp	r2, r3
 8003494:	d113      	bne.n	80034be <stm32__i2c__Oeq+0x62>
 8003496:	687b      	ldr	r3, [r7, #4]
 8003498:	7c1a      	ldrb	r2, [r3, #16]
 800349a:	683b      	ldr	r3, [r7, #0]
 800349c:	7c1b      	ldrb	r3, [r3, #16]
 800349e:	429a      	cmp	r2, r3
 80034a0:	d10d      	bne.n	80034be <stm32__i2c__Oeq+0x62>
 80034a2:	687b      	ldr	r3, [r7, #4]
 80034a4:	7c5a      	ldrb	r2, [r3, #17]
 80034a6:	683b      	ldr	r3, [r7, #0]
 80034a8:	7c5b      	ldrb	r3, [r3, #17]
 80034aa:	429a      	cmp	r2, r3
 80034ac:	d107      	bne.n	80034be <stm32__i2c__Oeq+0x62>
 80034ae:	687b      	ldr	r3, [r7, #4]
 80034b0:	7d1a      	ldrb	r2, [r3, #20]
 80034b2:	683b      	ldr	r3, [r7, #0]
 80034b4:	7d1b      	ldrb	r3, [r3, #20]
 80034b6:	429a      	cmp	r2, r3
 80034b8:	d101      	bne.n	80034be <stm32__i2c__Oeq+0x62>
 80034ba:	2301      	movs	r3, #1
 80034bc:	e000      	b.n	80034c0 <stm32__i2c__Oeq+0x64>
 80034be:	2300      	movs	r3, #0
 80034c0:	4618      	mov	r0, r3
 80034c2:	370c      	adds	r7, #12
 80034c4:	46bd      	mov	sp, r7
 80034c6:	f85d 7b04 	ldr.w	r7, [sp], #4
 80034ca:	4770      	bx	lr

080034cc <stm32__i2c___assign>:
 80034cc:	b5f0      	push	{r4, r5, r6, r7, lr}
 80034ce:	b0ed      	sub	sp, #436	; 0x1b4
 80034d0:	af00      	add	r7, sp, #0
 80034d2:	1d3b      	adds	r3, r7, #4
 80034d4:	6018      	str	r0, [r3, #0]
 80034d6:	463b      	mov	r3, r7
 80034d8:	6019      	str	r1, [r3, #0]
 80034da:	1d3b      	adds	r3, r7, #4
 80034dc:	681b      	ldr	r3, [r3, #0]
 80034de:	685b      	ldr	r3, [r3, #4]
 80034e0:	463a      	mov	r2, r7
 80034e2:	6812      	ldr	r2, [r2, #0]
 80034e4:	6852      	ldr	r2, [r2, #4]
 80034e6:	429a      	cmp	r2, r3
 80034e8:	d003      	beq.n	80034f2 <stm32__i2c___assign+0x26>
 80034ea:	4810      	ldr	r0, [pc, #64]	; (800352c <stm32__i2c___assign+0x60>)
 80034ec:	2185      	movs	r1, #133	; 0x85
 80034ee:	f007 fa81 	bl	800a9f4 <__gnat_rcheck_CE_Discriminant_Check>
 80034f2:	1d3b      	adds	r3, r7, #4
 80034f4:	681a      	ldr	r2, [r3, #0]
 80034f6:	463b      	mov	r3, r7
 80034f8:	681b      	ldr	r3, [r3, #0]
 80034fa:	429a      	cmp	r2, r3
 80034fc:	d011      	beq.n	8003522 <stm32__i2c___assign+0x56>
 80034fe:	1d3b      	adds	r3, r7, #4
 8003500:	681b      	ldr	r3, [r3, #0]
 8003502:	681e      	ldr	r6, [r3, #0]
 8003504:	1d3b      	adds	r3, r7, #4
 8003506:	681a      	ldr	r2, [r3, #0]
 8003508:	463b      	mov	r3, r7
 800350a:	681b      	ldr	r3, [r3, #0]
 800350c:	4614      	mov	r4, r2
 800350e:	461d      	mov	r5, r3
 8003510:	cd0f      	ldmia	r5!, {r0, r1, r2, r3}
 8003512:	c40f      	stmia	r4!, {r0, r1, r2, r3}
 8003514:	e895 0003 	ldmia.w	r5, {r0, r1}
 8003518:	e884 0003 	stmia.w	r4, {r0, r1}
 800351c:	1d3b      	adds	r3, r7, #4
 800351e:	681b      	ldr	r3, [r3, #0]
 8003520:	601e      	str	r6, [r3, #0]
 8003522:	f507 77da 	add.w	r7, r7, #436	; 0x1b4
 8003526:	46bd      	mov	sp, r7
 8003528:	bdf0      	pop	{r4, r5, r6, r7, pc}
 800352a:	bf00      	nop
 800352c:	0800edc4 	.word	0x0800edc4

08003530 <stm32__i2c__i2c_portDA>:
 8003530:	b480      	push	{r7}
 8003532:	b083      	sub	sp, #12
 8003534:	af00      	add	r7, sp, #0
 8003536:	6078      	str	r0, [r7, #4]
 8003538:	460b      	mov	r3, r1
 800353a:	70fb      	strb	r3, [r7, #3]
 800353c:	370c      	adds	r7, #12
 800353e:	46bd      	mov	sp, r7
 8003540:	f85d 7b04 	ldr.w	r7, [sp], #4
 8003544:	4770      	bx	lr
 8003546:	bf00      	nop

08003548 <stm32__i2c__i2c_portDF__2>:
 8003548:	b480      	push	{r7}
 800354a:	b083      	sub	sp, #12
 800354c:	af00      	add	r7, sp, #0
 800354e:	6078      	str	r0, [r7, #4]
 8003550:	460b      	mov	r3, r1
 8003552:	70fb      	strb	r3, [r7, #3]
 8003554:	370c      	adds	r7, #12
 8003556:	46bd      	mov	sp, r7
 8003558:	f85d 7b04 	ldr.w	r7, [sp], #4
 800355c:	4770      	bx	lr
 800355e:	bf00      	nop

08003560 <stm32__i2c__port_enabled>:
 8003560:	b480      	push	{r7}
 8003562:	b083      	sub	sp, #12
 8003564:	af00      	add	r7, sp, #0
 8003566:	6078      	str	r0, [r7, #4]
 8003568:	687b      	ldr	r3, [r7, #4]
 800356a:	685b      	ldr	r3, [r3, #4]
 800356c:	681b      	ldr	r3, [r3, #0]
 800356e:	f3c3 0300 	ubfx	r3, r3, #0, #1
 8003572:	b2db      	uxtb	r3, r3
 8003574:	bf00      	nop
 8003576:	4618      	mov	r0, r3
 8003578:	370c      	adds	r7, #12
 800357a:	46bd      	mov	sp, r7
 800357c:	f85d 7b04 	ldr.w	r7, [sp], #4
 8003580:	4770      	bx	lr
 8003582:	bf00      	nop

08003584 <stm32__i2c__configure___postconditions.5466>:
 8003584:	b5b0      	push	{r4, r5, r7, lr}
 8003586:	b082      	sub	sp, #8
 8003588:	af00      	add	r7, sp, #0
 800358a:	4663      	mov	r3, ip
 800358c:	f8c7 c004 	str.w	ip, [r7, #4]
 8003590:	681b      	ldr	r3, [r3, #0]
 8003592:	4618      	mov	r0, r3
 8003594:	f000 f960 	bl	8003858 <stm32__i2c__is_configured>
 8003598:	4603      	mov	r3, r0
 800359a:	f083 0301 	eor.w	r3, r3, #1
 800359e:	b2db      	uxtb	r3, r3
 80035a0:	2b00      	cmp	r3, #0
 80035a2:	d005      	beq.n	80035b0 <stm32__i2c__configure___postconditions.5466+0x2c>
 80035a4:	4c04      	ldr	r4, [pc, #16]	; (80035b8 <stm32__i2c__configure___postconditions.5466+0x34>)
 80035a6:	4d05      	ldr	r5, [pc, #20]	; (80035bc <stm32__i2c__configure___postconditions.5466+0x38>)
 80035a8:	4620      	mov	r0, r4
 80035aa:	4629      	mov	r1, r5
 80035ac:	f007 fe28 	bl	800b200 <system__assertions__raise_assert_failure>
 80035b0:	3708      	adds	r7, #8
 80035b2:	46bd      	mov	sp, r7
 80035b4:	bdb0      	pop	{r4, r5, r7, pc}
 80035b6:	bf00      	nop
 80035b8:	0800edd4 	.word	0x0800edd4
 80035bc:	0800ee00 	.word	0x0800ee00

080035c0 <stm32__i2c__configure>:
 80035c0:	b5b0      	push	{r4, r5, r7, lr}
 80035c2:	b088      	sub	sp, #32
 80035c4:	af00      	add	r7, sp, #0
 80035c6:	6078      	str	r0, [r7, #4]
 80035c8:	6039      	str	r1, [r7, #0]
 80035ca:	f107 0330 	add.w	r3, r7, #48	; 0x30
 80035ce:	60fb      	str	r3, [r7, #12]
 80035d0:	687b      	ldr	r3, [r7, #4]
 80035d2:	60bb      	str	r3, [r7, #8]
 80035d4:	68bb      	ldr	r3, [r7, #8]
 80035d6:	4618      	mov	r0, r3
 80035d8:	f000 f93e 	bl	8003858 <stm32__i2c__is_configured>
 80035dc:	4603      	mov	r3, r0
 80035de:	2b00      	cmp	r3, #0
 80035e0:	d005      	beq.n	80035ee <stm32__i2c__configure+0x2e>
 80035e2:	4c9b      	ldr	r4, [pc, #620]	; (8003850 <stm32__i2c__configure+0x290>)
 80035e4:	4d9b      	ldr	r5, [pc, #620]	; (8003854 <stm32__i2c__configure+0x294>)
 80035e6:	4620      	mov	r0, r4
 80035e8:	4629      	mov	r1, r5
 80035ea:	f007 fe09 	bl	800b200 <system__assertions__raise_assert_failure>
 80035ee:	68bb      	ldr	r3, [r7, #8]
 80035f0:	7d1b      	ldrb	r3, [r3, #20]
 80035f2:	2b00      	cmp	r3, #0
 80035f4:	d005      	beq.n	8003602 <stm32__i2c__configure+0x42>
 80035f6:	f107 0308 	add.w	r3, r7, #8
 80035fa:	469c      	mov	ip, r3
 80035fc:	f7ff ffc2 	bl	8003584 <stm32__i2c__configure___postconditions.5466>
 8003600:	e122      	b.n	8003848 <stm32__i2c__configure+0x288>
 8003602:	68bb      	ldr	r3, [r7, #8]
 8003604:	683a      	ldr	r2, [r7, #0]
 8003606:	3308      	adds	r3, #8
 8003608:	ca07      	ldmia	r2, {r0, r1, r2}
 800360a:	e883 0007 	stmia.w	r3, {r0, r1, r2}
 800360e:	68bb      	ldr	r3, [r7, #8]
 8003610:	685b      	ldr	r3, [r3, #4]
 8003612:	681b      	ldr	r3, [r3, #0]
 8003614:	f36f 0300 	bfc	r3, #0, #1
 8003618:	68ba      	ldr	r2, [r7, #8]
 800361a:	6852      	ldr	r2, [r2, #4]
 800361c:	6013      	str	r3, [r2, #0]
 800361e:	69fb      	ldr	r3, [r7, #28]
 8003620:	2232      	movs	r2, #50	; 0x32
 8003622:	f362 0307 	bfi	r3, r2, #0, #8
 8003626:	61fb      	str	r3, [r7, #28]
 8003628:	69fb      	ldr	r3, [r7, #28]
 800362a:	2227      	movs	r2, #39	; 0x27
 800362c:	f362 230f 	bfi	r3, r2, #8, #8
 8003630:	61fb      	str	r3, [r7, #28]
 8003632:	69fb      	ldr	r3, [r7, #28]
 8003634:	2201      	movs	r2, #1
 8003636:	f362 4313 	bfi	r3, r2, #16, #4
 800363a:	61fb      	str	r3, [r7, #28]
 800363c:	69fb      	ldr	r3, [r7, #28]
 800363e:	2209      	movs	r2, #9
 8003640:	f362 5317 	bfi	r3, r2, #20, #4
 8003644:	61fb      	str	r3, [r7, #28]
 8003646:	69fb      	ldr	r3, [r7, #28]
 8003648:	f36f 631b 	bfc	r3, #24, #4
 800364c:	61fb      	str	r3, [r7, #28]
 800364e:	69fb      	ldr	r3, [r7, #28]
 8003650:	2204      	movs	r2, #4
 8003652:	f362 731f 	bfi	r3, r2, #28, #4
 8003656:	61fb      	str	r3, [r7, #28]
 8003658:	68bb      	ldr	r3, [r7, #8]
 800365a:	685b      	ldr	r3, [r3, #4]
 800365c:	3310      	adds	r3, #16
 800365e:	69fa      	ldr	r2, [r7, #28]
 8003660:	601a      	str	r2, [r3, #0]
 8003662:	68bb      	ldr	r3, [r7, #8]
 8003664:	685b      	ldr	r3, [r3, #4]
 8003666:	3308      	adds	r3, #8
 8003668:	681b      	ldr	r3, [r3, #0]
 800366a:	f36f 33cf 	bfc	r3, #15, #1
 800366e:	68ba      	ldr	r2, [r7, #8]
 8003670:	6852      	ldr	r2, [r2, #4]
 8003672:	3208      	adds	r2, #8
 8003674:	6013      	str	r3, [r2, #0]
 8003676:	683b      	ldr	r3, [r7, #0]
 8003678:	88db      	ldrh	r3, [r3, #6]
 800367a:	2b00      	cmp	r3, #0
 800367c:	d027      	beq.n	80036ce <stm32__i2c__configure+0x10e>
 800367e:	69bb      	ldr	r3, [r7, #24]
 8003680:	683a      	ldr	r2, [r7, #0]
 8003682:	88d2      	ldrh	r2, [r2, #6]
 8003684:	f3c2 0209 	ubfx	r2, r2, #0, #10
 8003688:	b292      	uxth	r2, r2
 800368a:	f362 0309 	bfi	r3, r2, #0, #10
 800368e:	61bb      	str	r3, [r7, #24]
 8003690:	69bb      	ldr	r3, [r7, #24]
 8003692:	683a      	ldr	r2, [r7, #0]
 8003694:	7912      	ldrb	r2, [r2, #4]
 8003696:	2a01      	cmp	r2, #1
 8003698:	bf0c      	ite	eq
 800369a:	2201      	moveq	r2, #1
 800369c:	2200      	movne	r2, #0
 800369e:	b2d2      	uxtb	r2, r2
 80036a0:	f002 0201 	and.w	r2, r2, #1
 80036a4:	b2d2      	uxtb	r2, r2
 80036a6:	f362 238a 	bfi	r3, r2, #10, #1
 80036aa:	61bb      	str	r3, [r7, #24]
 80036ac:	69bb      	ldr	r3, [r7, #24]
 80036ae:	f36f 23ce 	bfc	r3, #11, #4
 80036b2:	61bb      	str	r3, [r7, #24]
 80036b4:	69bb      	ldr	r3, [r7, #24]
 80036b6:	f443 4300 	orr.w	r3, r3, #32768	; 0x8000
 80036ba:	61bb      	str	r3, [r7, #24]
 80036bc:	69bb      	ldr	r3, [r7, #24]
 80036be:	f36f 431f 	bfc	r3, #16, #16
 80036c2:	61bb      	str	r3, [r7, #24]
 80036c4:	68bb      	ldr	r3, [r7, #8]
 80036c6:	685b      	ldr	r3, [r3, #4]
 80036c8:	3308      	adds	r3, #8
 80036ca:	69ba      	ldr	r2, [r7, #24]
 80036cc:	601a      	str	r2, [r3, #0]
 80036ce:	68bb      	ldr	r3, [r7, #8]
 80036d0:	685b      	ldr	r3, [r3, #4]
 80036d2:	3304      	adds	r3, #4
 80036d4:	681b      	ldr	r3, [r3, #0]
 80036d6:	683a      	ldr	r2, [r7, #0]
 80036d8:	7912      	ldrb	r2, [r2, #4]
 80036da:	2a01      	cmp	r2, #1
 80036dc:	bf0c      	ite	eq
 80036de:	2201      	moveq	r2, #1
 80036e0:	2200      	movne	r2, #0
 80036e2:	b2d2      	uxtb	r2, r2
 80036e4:	f002 0201 	and.w	r2, r2, #1
 80036e8:	b2d2      	uxtb	r2, r2
 80036ea:	f362 23cb 	bfi	r3, r2, #11, #1
 80036ee:	68ba      	ldr	r2, [r7, #8]
 80036f0:	6852      	ldr	r2, [r2, #4]
 80036f2:	3204      	adds	r2, #4
 80036f4:	6013      	str	r3, [r2, #0]
 80036f6:	68bb      	ldr	r3, [r7, #8]
 80036f8:	685b      	ldr	r3, [r3, #4]
 80036fa:	3304      	adds	r3, #4
 80036fc:	681b      	ldr	r3, [r3, #0]
 80036fe:	461a      	mov	r2, r3
 8003700:	4613      	mov	r3, r2
 8003702:	f043 7200 	orr.w	r2, r3, #33554432	; 0x2000000
 8003706:	68bb      	ldr	r3, [r7, #8]
 8003708:	685b      	ldr	r3, [r3, #4]
 800370a:	3304      	adds	r3, #4
 800370c:	601a      	str	r2, [r3, #0]
 800370e:	68bb      	ldr	r3, [r7, #8]
 8003710:	685b      	ldr	r3, [r3, #4]
 8003712:	3304      	adds	r3, #4
 8003714:	681b      	ldr	r3, [r3, #0]
 8003716:	461a      	mov	r2, r3
 8003718:	4613      	mov	r3, r2
 800371a:	f443 4200 	orr.w	r2, r3, #32768	; 0x8000
 800371e:	68bb      	ldr	r3, [r7, #8]
 8003720:	685b      	ldr	r3, [r3, #4]
 8003722:	3304      	adds	r3, #4
 8003724:	601a      	str	r2, [r3, #0]
 8003726:	697b      	ldr	r3, [r7, #20]
 8003728:	f36f 0300 	bfc	r3, #0, #1
 800372c:	617b      	str	r3, [r7, #20]
 800372e:	697b      	ldr	r3, [r7, #20]
 8003730:	f36f 0347 	bfc	r3, #1, #7
 8003734:	617b      	str	r3, [r7, #20]
 8003736:	697b      	ldr	r3, [r7, #20]
 8003738:	f36f 230a 	bfc	r3, #8, #3
 800373c:	617b      	str	r3, [r7, #20]
 800373e:	697b      	ldr	r3, [r7, #20]
 8003740:	f36f 23ce 	bfc	r3, #11, #4
 8003744:	617b      	str	r3, [r7, #20]
 8003746:	697b      	ldr	r3, [r7, #20]
 8003748:	f36f 33cf 	bfc	r3, #15, #1
 800374c:	617b      	str	r3, [r7, #20]
 800374e:	697b      	ldr	r3, [r7, #20]
 8003750:	f36f 431f 	bfc	r3, #16, #16
 8003754:	617b      	str	r3, [r7, #20]
 8003756:	68bb      	ldr	r3, [r7, #8]
 8003758:	685b      	ldr	r3, [r3, #4]
 800375a:	330c      	adds	r3, #12
 800375c:	697a      	ldr	r2, [r7, #20]
 800375e:	601a      	str	r2, [r3, #0]
 8003760:	693b      	ldr	r3, [r7, #16]
 8003762:	f36f 0300 	bfc	r3, #0, #1
 8003766:	613b      	str	r3, [r7, #16]
 8003768:	693b      	ldr	r3, [r7, #16]
 800376a:	f36f 0341 	bfc	r3, #1, #1
 800376e:	613b      	str	r3, [r7, #16]
 8003770:	693b      	ldr	r3, [r7, #16]
 8003772:	f36f 0382 	bfc	r3, #2, #1
 8003776:	613b      	str	r3, [r7, #16]
 8003778:	693b      	ldr	r3, [r7, #16]
 800377a:	f36f 03c3 	bfc	r3, #3, #1
 800377e:	613b      	str	r3, [r7, #16]
 8003780:	693b      	ldr	r3, [r7, #16]
 8003782:	f36f 1304 	bfc	r3, #4, #1
 8003786:	613b      	str	r3, [r7, #16]
 8003788:	693b      	ldr	r3, [r7, #16]
 800378a:	f36f 1345 	bfc	r3, #5, #1
 800378e:	613b      	str	r3, [r7, #16]
 8003790:	693b      	ldr	r3, [r7, #16]
 8003792:	f36f 1386 	bfc	r3, #6, #1
 8003796:	613b      	str	r3, [r7, #16]
 8003798:	693b      	ldr	r3, [r7, #16]
 800379a:	f36f 13c7 	bfc	r3, #7, #1
 800379e:	613b      	str	r3, [r7, #16]
 80037a0:	693b      	ldr	r3, [r7, #16]
 80037a2:	f36f 230b 	bfc	r3, #8, #4
 80037a6:	613b      	str	r3, [r7, #16]
 80037a8:	693b      	ldr	r3, [r7, #16]
 80037aa:	f36f 330c 	bfc	r3, #12, #1
 80037ae:	613b      	str	r3, [r7, #16]
 80037b0:	693b      	ldr	r3, [r7, #16]
 80037b2:	f36f 334d 	bfc	r3, #13, #1
 80037b6:	613b      	str	r3, [r7, #16]
 80037b8:	693b      	ldr	r3, [r7, #16]
 80037ba:	f36f 338e 	bfc	r3, #14, #1
 80037be:	613b      	str	r3, [r7, #16]
 80037c0:	693b      	ldr	r3, [r7, #16]
 80037c2:	f36f 33cf 	bfc	r3, #15, #1
 80037c6:	613b      	str	r3, [r7, #16]
 80037c8:	693b      	ldr	r3, [r7, #16]
 80037ca:	f36f 4310 	bfc	r3, #16, #1
 80037ce:	613b      	str	r3, [r7, #16]
 80037d0:	693b      	ldr	r3, [r7, #16]
 80037d2:	f36f 4351 	bfc	r3, #17, #1
 80037d6:	613b      	str	r3, [r7, #16]
 80037d8:	693b      	ldr	r3, [r7, #16]
 80037da:	f36f 4392 	bfc	r3, #18, #1
 80037de:	613b      	str	r3, [r7, #16]
 80037e0:	693b      	ldr	r3, [r7, #16]
 80037e2:	683a      	ldr	r2, [r7, #0]
 80037e4:	7a12      	ldrb	r2, [r2, #8]
 80037e6:	f002 0201 	and.w	r2, r2, #1
 80037ea:	b2d2      	uxtb	r2, r2
 80037ec:	f362 43d3 	bfi	r3, r2, #19, #1
 80037f0:	613b      	str	r3, [r7, #16]
 80037f2:	693b      	ldr	r3, [r7, #16]
 80037f4:	f36f 5314 	bfc	r3, #20, #1
 80037f8:	613b      	str	r3, [r7, #16]
 80037fa:	693b      	ldr	r3, [r7, #16]
 80037fc:	f36f 5355 	bfc	r3, #21, #1
 8003800:	613b      	str	r3, [r7, #16]
 8003802:	693b      	ldr	r3, [r7, #16]
 8003804:	f36f 5396 	bfc	r3, #22, #1
 8003808:	613b      	str	r3, [r7, #16]
 800380a:	693b      	ldr	r3, [r7, #16]
 800380c:	f36f 53d7 	bfc	r3, #23, #1
 8003810:	613b      	str	r3, [r7, #16]
 8003812:	693b      	ldr	r3, [r7, #16]
 8003814:	f36f 631f 	bfc	r3, #24, #8
 8003818:	613b      	str	r3, [r7, #16]
 800381a:	68bb      	ldr	r3, [r7, #8]
 800381c:	685b      	ldr	r3, [r3, #4]
 800381e:	461a      	mov	r2, r3
 8003820:	693b      	ldr	r3, [r7, #16]
 8003822:	6013      	str	r3, [r2, #0]
 8003824:	68bb      	ldr	r3, [r7, #8]
 8003826:	2201      	movs	r2, #1
 8003828:	751a      	strb	r2, [r3, #20]
 800382a:	68bb      	ldr	r3, [r7, #8]
 800382c:	685b      	ldr	r3, [r3, #4]
 800382e:	681b      	ldr	r3, [r3, #0]
 8003830:	461a      	mov	r2, r3
 8003832:	4613      	mov	r3, r2
 8003834:	f043 0201 	orr.w	r2, r3, #1
 8003838:	68bb      	ldr	r3, [r7, #8]
 800383a:	685b      	ldr	r3, [r3, #4]
 800383c:	601a      	str	r2, [r3, #0]
 800383e:	f107 0308 	add.w	r3, r7, #8
 8003842:	469c      	mov	ip, r3
 8003844:	f7ff fe9e 	bl	8003584 <stm32__i2c__configure___postconditions.5466>
 8003848:	3720      	adds	r7, #32
 800384a:	46bd      	mov	sp, r7
 800384c:	bdb0      	pop	{r4, r5, r7, pc}
 800384e:	bf00      	nop
 8003850:	0800ee08 	.word	0x0800ee08
 8003854:	0800ee34 	.word	0x0800ee34

08003858 <stm32__i2c__is_configured>:
 8003858:	b480      	push	{r7}
 800385a:	b083      	sub	sp, #12
 800385c:	af00      	add	r7, sp, #0
 800385e:	6078      	str	r0, [r7, #4]
 8003860:	687b      	ldr	r3, [r7, #4]
 8003862:	7d1b      	ldrb	r3, [r3, #20]
 8003864:	2b00      	cmp	r3, #0
 8003866:	bf14      	ite	ne
 8003868:	2301      	movne	r3, #1
 800386a:	2300      	moveq	r3, #0
 800386c:	b2db      	uxtb	r3, r3
 800386e:	bf00      	nop
 8003870:	4618      	mov	r0, r3
 8003872:	370c      	adds	r7, #12
 8003874:	46bd      	mov	sp, r7
 8003876:	f85d 7b04 	ldr.w	r7, [sp], #4
 800387a:	4770      	bx	lr

0800387c <stm32__i2c__config_transfer>:
 800387c:	b580      	push	{r7, lr}
 800387e:	b086      	sub	sp, #24
 8003880:	af00      	add	r7, sp, #0
 8003882:	60f8      	str	r0, [r7, #12]
 8003884:	4608      	mov	r0, r1
 8003886:	4611      	mov	r1, r2
 8003888:	461a      	mov	r2, r3
 800388a:	4603      	mov	r3, r0
 800388c:	817b      	strh	r3, [r7, #10]
 800388e:	460b      	mov	r3, r1
 8003890:	727b      	strb	r3, [r7, #9]
 8003892:	4613      	mov	r3, r2
 8003894:	723b      	strb	r3, [r7, #8]
 8003896:	68fb      	ldr	r3, [r7, #12]
 8003898:	685b      	ldr	r3, [r3, #4]
 800389a:	3304      	adds	r3, #4
 800389c:	681b      	ldr	r3, [r3, #0]
 800389e:	607b      	str	r3, [r7, #4]
 80038a0:	687b      	ldr	r3, [r7, #4]
 80038a2:	617b      	str	r3, [r7, #20]
 80038a4:	697b      	ldr	r3, [r7, #20]
 80038a6:	897a      	ldrh	r2, [r7, #10]
 80038a8:	f3c2 0209 	ubfx	r2, r2, #0, #10
 80038ac:	b292      	uxth	r2, r2
 80038ae:	f362 0309 	bfi	r3, r2, #0, #10
 80038b2:	617b      	str	r3, [r7, #20]
 80038b4:	697b      	ldr	r3, [r7, #20]
 80038b6:	7a7a      	ldrb	r2, [r7, #9]
 80038b8:	f362 4317 	bfi	r3, r2, #16, #8
 80038bc:	617b      	str	r3, [r7, #20]
 80038be:	697b      	ldr	r3, [r7, #20]
 80038c0:	7a3a      	ldrb	r2, [r7, #8]
 80038c2:	2a00      	cmp	r2, #0
 80038c4:	bf0c      	ite	eq
 80038c6:	2201      	moveq	r2, #1
 80038c8:	2200      	movne	r2, #0
 80038ca:	b2d2      	uxtb	r2, r2
 80038cc:	f002 0201 	and.w	r2, r2, #1
 80038d0:	b2d2      	uxtb	r2, r2
 80038d2:	f362 6318 	bfi	r3, r2, #24, #1
 80038d6:	617b      	str	r3, [r7, #20]
 80038d8:	697b      	ldr	r3, [r7, #20]
 80038da:	7a3a      	ldrb	r2, [r7, #8]
 80038dc:	2a01      	cmp	r2, #1
 80038de:	bf0c      	ite	eq
 80038e0:	2201      	moveq	r2, #1
 80038e2:	2200      	movne	r2, #0
 80038e4:	b2d2      	uxtb	r2, r2
 80038e6:	f002 0201 	and.w	r2, r2, #1
 80038ea:	b2d2      	uxtb	r2, r2
 80038ec:	f362 6359 	bfi	r3, r2, #25, #1
 80038f0:	617b      	str	r3, [r7, #20]
 80038f2:	697b      	ldr	r3, [r7, #20]
 80038f4:	f36f 238a 	bfc	r3, #10, #1
 80038f8:	617b      	str	r3, [r7, #20]
 80038fa:	697b      	ldr	r3, [r7, #20]
 80038fc:	f36f 334d 	bfc	r3, #13, #1
 8003900:	617b      	str	r3, [r7, #20]
 8003902:	697b      	ldr	r3, [r7, #20]
 8003904:	f36f 338e 	bfc	r3, #14, #1
 8003908:	617b      	str	r3, [r7, #20]
 800390a:	f897 3020 	ldrb.w	r3, [r7, #32]
 800390e:	2b03      	cmp	r3, #3
 8003910:	d903      	bls.n	800391a <stm32__i2c__config_transfer+0x9e>
 8003912:	4815      	ldr	r0, [pc, #84]	; (8003968 <stm32__i2c__config_transfer+0xec>)
 8003914:	21b8      	movs	r1, #184	; 0xb8
 8003916:	f007 f88d 	bl	800aa34 <__gnat_rcheck_CE_Invalid_Data>
 800391a:	f897 3020 	ldrb.w	r3, [r7, #32]
 800391e:	2b01      	cmp	r3, #1
 8003920:	d006      	beq.n	8003930 <stm32__i2c__config_transfer+0xb4>
 8003922:	2b01      	cmp	r3, #1
 8003924:	d302      	bcc.n	800392c <stm32__i2c__config_transfer+0xb0>
 8003926:	2b02      	cmp	r3, #2
 8003928:	d007      	beq.n	800393a <stm32__i2c__config_transfer+0xbe>
 800392a:	e00f      	b.n	800394c <stm32__i2c__config_transfer+0xd0>
 800392c:	bf00      	nop
 800392e:	e011      	b.n	8003954 <stm32__i2c__config_transfer+0xd8>
 8003930:	697b      	ldr	r3, [r7, #20]
 8003932:	f443 4380 	orr.w	r3, r3, #16384	; 0x4000
 8003936:	617b      	str	r3, [r7, #20]
 8003938:	e00c      	b.n	8003954 <stm32__i2c__config_transfer+0xd8>
 800393a:	697b      	ldr	r3, [r7, #20]
 800393c:	f443 6380 	orr.w	r3, r3, #1024	; 0x400
 8003940:	617b      	str	r3, [r7, #20]
 8003942:	697b      	ldr	r3, [r7, #20]
 8003944:	f443 5300 	orr.w	r3, r3, #8192	; 0x2000
 8003948:	617b      	str	r3, [r7, #20]
 800394a:	e003      	b.n	8003954 <stm32__i2c__config_transfer+0xd8>
 800394c:	697b      	ldr	r3, [r7, #20]
 800394e:	f443 5300 	orr.w	r3, r3, #8192	; 0x2000
 8003952:	617b      	str	r3, [r7, #20]
 8003954:	bf00      	nop
 8003956:	68fb      	ldr	r3, [r7, #12]
 8003958:	685b      	ldr	r3, [r3, #4]
 800395a:	3304      	adds	r3, #4
 800395c:	697a      	ldr	r2, [r7, #20]
 800395e:	601a      	str	r2, [r3, #0]
 8003960:	3718      	adds	r7, #24
 8003962:	46bd      	mov	sp, r7
 8003964:	bd80      	pop	{r7, pc}
 8003966:	bf00      	nop
 8003968:	0800ee3c 	.word	0x0800ee3c

0800396c <stm32__i2c__reset_config>:
 800396c:	b480      	push	{r7}
 800396e:	b085      	sub	sp, #20
 8003970:	af00      	add	r7, sp, #0
 8003972:	6078      	str	r0, [r7, #4]
 8003974:	687b      	ldr	r3, [r7, #4]
 8003976:	685b      	ldr	r3, [r3, #4]
 8003978:	3304      	adds	r3, #4
 800397a:	681b      	ldr	r3, [r3, #0]
 800397c:	603b      	str	r3, [r7, #0]
 800397e:	683b      	ldr	r3, [r7, #0]
 8003980:	60fb      	str	r3, [r7, #12]
 8003982:	68fb      	ldr	r3, [r7, #12]
 8003984:	f36f 0309 	bfc	r3, #0, #10
 8003988:	60fb      	str	r3, [r7, #12]
 800398a:	68fb      	ldr	r3, [r7, #12]
 800398c:	f36f 330c 	bfc	r3, #12, #1
 8003990:	60fb      	str	r3, [r7, #12]
 8003992:	68fb      	ldr	r3, [r7, #12]
 8003994:	f36f 4317 	bfc	r3, #16, #8
 8003998:	60fb      	str	r3, [r7, #12]
 800399a:	68fb      	ldr	r3, [r7, #12]
 800399c:	f36f 6318 	bfc	r3, #24, #1
 80039a0:	60fb      	str	r3, [r7, #12]
 80039a2:	68fb      	ldr	r3, [r7, #12]
 80039a4:	f36f 238a 	bfc	r3, #10, #1
 80039a8:	60fb      	str	r3, [r7, #12]
 80039aa:	687b      	ldr	r3, [r7, #4]
 80039ac:	685b      	ldr	r3, [r3, #4]
 80039ae:	3304      	adds	r3, #4
 80039b0:	68fa      	ldr	r2, [r7, #12]
 80039b2:	601a      	str	r2, [r3, #0]
 80039b4:	3714      	adds	r7, #20
 80039b6:	46bd      	mov	sp, r7
 80039b8:	f85d 7b04 	ldr.w	r7, [sp], #4
 80039bc:	4770      	bx	lr
 80039be:	bf00      	nop

080039c0 <stm32__i2c__check_nack>:
 80039c0:	b5f0      	push	{r4, r5, r6, r7, lr}
 80039c2:	b087      	sub	sp, #28
 80039c4:	af00      	add	r7, sp, #0
 80039c6:	6078      	str	r0, [r7, #4]
 80039c8:	6039      	str	r1, [r7, #0]
 80039ca:	f004 f9c1 	bl	8007d50 <ada__real_time__clock>
 80039ce:	4603      	mov	r3, r0
 80039d0:	460c      	mov	r4, r1
 80039d2:	e9c7 3404 	strd	r3, r4, [r7, #16]
 80039d6:	687b      	ldr	r3, [r7, #4]
 80039d8:	685b      	ldr	r3, [r3, #4]
 80039da:	3318      	adds	r3, #24
 80039dc:	681b      	ldr	r3, [r3, #0]
 80039de:	f3c3 1300 	ubfx	r3, r3, #4, #1
 80039e2:	b2db      	uxtb	r3, r3
 80039e4:	2b00      	cmp	r3, #0
 80039e6:	d06f      	beq.n	8003ac8 <stm32__i2c__check_nack+0x108>
 80039e8:	687b      	ldr	r3, [r7, #4]
 80039ea:	7d1b      	ldrb	r3, [r3, #20]
 80039ec:	2b02      	cmp	r3, #2
 80039ee:	d007      	beq.n	8003a00 <stm32__i2c__check_nack+0x40>
 80039f0:	687b      	ldr	r3, [r7, #4]
 80039f2:	7d1b      	ldrb	r3, [r3, #20]
 80039f4:	2b04      	cmp	r3, #4
 80039f6:	d003      	beq.n	8003a00 <stm32__i2c__check_nack+0x40>
 80039f8:	687b      	ldr	r3, [r7, #4]
 80039fa:	7d1b      	ldrb	r3, [r3, #20]
 80039fc:	2b05      	cmp	r3, #5
 80039fe:	d117      	bne.n	8003a30 <stm32__i2c__check_nack+0x70>
 8003a00:	687b      	ldr	r3, [r7, #4]
 8003a02:	685b      	ldr	r3, [r3, #4]
 8003a04:	3304      	adds	r3, #4
 8003a06:	681b      	ldr	r3, [r3, #0]
 8003a08:	f3c3 6340 	ubfx	r3, r3, #25, #1
 8003a0c:	b2db      	uxtb	r3, r3
 8003a0e:	f083 0301 	eor.w	r3, r3, #1
 8003a12:	b2db      	uxtb	r3, r3
 8003a14:	2b00      	cmp	r3, #0
 8003a16:	d00b      	beq.n	8003a30 <stm32__i2c__check_nack+0x70>
 8003a18:	687b      	ldr	r3, [r7, #4]
 8003a1a:	685b      	ldr	r3, [r3, #4]
 8003a1c:	3304      	adds	r3, #4
 8003a1e:	681b      	ldr	r3, [r3, #0]
 8003a20:	461a      	mov	r2, r3
 8003a22:	4613      	mov	r3, r2
 8003a24:	f443 4280 	orr.w	r2, r3, #16384	; 0x4000
 8003a28:	687b      	ldr	r3, [r7, #4]
 8003a2a:	685b      	ldr	r3, [r3, #4]
 8003a2c:	3304      	adds	r3, #4
 8003a2e:	601a      	str	r2, [r3, #0]
 8003a30:	687b      	ldr	r3, [r7, #4]
 8003a32:	685b      	ldr	r3, [r3, #4]
 8003a34:	3318      	adds	r3, #24
 8003a36:	681b      	ldr	r3, [r3, #0]
 8003a38:	f3c3 1340 	ubfx	r3, r3, #5, #1
 8003a3c:	b2db      	uxtb	r3, r3
 8003a3e:	f083 0301 	eor.w	r3, r3, #1
 8003a42:	b2db      	uxtb	r3, r3
 8003a44:	2b00      	cmp	r3, #0
 8003a46:	d01e      	beq.n	8003a86 <stm32__i2c__check_nack+0xc6>
 8003a48:	683b      	ldr	r3, [r7, #0]
 8003a4a:	2b00      	cmp	r3, #0
 8003a4c:	ddf0      	ble.n	8003a30 <stm32__i2c__check_nack+0x70>
 8003a4e:	683b      	ldr	r3, [r7, #0]
 8003a50:	4618      	mov	r0, r3
 8003a52:	f004 f9c5 	bl	8007de0 <ada__real_time__milliseconds>
 8003a56:	4603      	mov	r3, r0
 8003a58:	460c      	mov	r4, r1
 8003a5a:	e9d7 0104 	ldrd	r0, r1, [r7, #16]
 8003a5e:	461a      	mov	r2, r3
 8003a60:	4623      	mov	r3, r4
 8003a62:	f004 f91b 	bl	8007c9c <ada__real_time__Oadd>
 8003a66:	4605      	mov	r5, r0
 8003a68:	460e      	mov	r6, r1
 8003a6a:	f004 f971 	bl	8007d50 <ada__real_time__clock>
 8003a6e:	4603      	mov	r3, r0
 8003a70:	460c      	mov	r4, r1
 8003a72:	42a6      	cmp	r6, r4
 8003a74:	bf08      	it	eq
 8003a76:	429d      	cmpeq	r5, r3
 8003a78:	d2da      	bcs.n	8003a30 <stm32__i2c__check_nack+0x70>
 8003a7a:	687b      	ldr	r3, [r7, #4]
 8003a7c:	2201      	movs	r2, #1
 8003a7e:	751a      	strb	r2, [r3, #20]
 8003a80:	2302      	movs	r3, #2
 8003a82:	73fb      	strb	r3, [r7, #15]
 8003a84:	e022      	b.n	8003acc <stm32__i2c__check_nack+0x10c>
 8003a86:	687b      	ldr	r3, [r7, #4]
 8003a88:	685b      	ldr	r3, [r3, #4]
 8003a8a:	331c      	adds	r3, #28
 8003a8c:	681b      	ldr	r3, [r3, #0]
 8003a8e:	461a      	mov	r2, r3
 8003a90:	4613      	mov	r3, r2
 8003a92:	f043 0210 	orr.w	r2, r3, #16
 8003a96:	687b      	ldr	r3, [r7, #4]
 8003a98:	685b      	ldr	r3, [r3, #4]
 8003a9a:	331c      	adds	r3, #28
 8003a9c:	601a      	str	r2, [r3, #0]
 8003a9e:	687b      	ldr	r3, [r7, #4]
 8003aa0:	685b      	ldr	r3, [r3, #4]
 8003aa2:	331c      	adds	r3, #28
 8003aa4:	681b      	ldr	r3, [r3, #0]
 8003aa6:	461a      	mov	r2, r3
 8003aa8:	4613      	mov	r3, r2
 8003aaa:	f043 0220 	orr.w	r2, r3, #32
 8003aae:	687b      	ldr	r3, [r7, #4]
 8003ab0:	685b      	ldr	r3, [r3, #4]
 8003ab2:	331c      	adds	r3, #28
 8003ab4:	601a      	str	r2, [r3, #0]
 8003ab6:	6878      	ldr	r0, [r7, #4]
 8003ab8:	f7ff ff58 	bl	800396c <stm32__i2c__reset_config>
 8003abc:	687b      	ldr	r3, [r7, #4]
 8003abe:	2201      	movs	r2, #1
 8003ac0:	751a      	strb	r2, [r3, #20]
 8003ac2:	2301      	movs	r3, #1
 8003ac4:	73fb      	strb	r3, [r7, #15]
 8003ac6:	e001      	b.n	8003acc <stm32__i2c__check_nack+0x10c>
 8003ac8:	2300      	movs	r3, #0
 8003aca:	73fb      	strb	r3, [r7, #15]
 8003acc:	7bfb      	ldrb	r3, [r7, #15]
 8003ace:	bf00      	nop
 8003ad0:	4618      	mov	r0, r3
 8003ad2:	371c      	adds	r7, #28
 8003ad4:	46bd      	mov	sp, r7
 8003ad6:	bdf0      	pop	{r4, r5, r6, r7, pc}

08003ad8 <stm32__i2c__wait_tx_interrupt_status>:
 8003ad8:	b5f0      	push	{r4, r5, r6, r7, lr}
 8003ada:	b087      	sub	sp, #28
 8003adc:	af00      	add	r7, sp, #0
 8003ade:	6078      	str	r0, [r7, #4]
 8003ae0:	6039      	str	r1, [r7, #0]
 8003ae2:	f004 f935 	bl	8007d50 <ada__real_time__clock>
 8003ae6:	4603      	mov	r3, r0
 8003ae8:	460c      	mov	r4, r1
 8003aea:	e9c7 3404 	strd	r3, r4, [r7, #16]
 8003aee:	687b      	ldr	r3, [r7, #4]
 8003af0:	685b      	ldr	r3, [r3, #4]
 8003af2:	3318      	adds	r3, #24
 8003af4:	681b      	ldr	r3, [r3, #0]
 8003af6:	f3c3 0340 	ubfx	r3, r3, #1, #1
 8003afa:	b2db      	uxtb	r3, r3
 8003afc:	f083 0301 	eor.w	r3, r3, #1
 8003b00:	b2db      	uxtb	r3, r3
 8003b02:	2b00      	cmp	r3, #0
 8003b04:	d030      	beq.n	8003b68 <stm32__i2c__wait_tx_interrupt_status+0x90>
 8003b06:	6878      	ldr	r0, [r7, #4]
 8003b08:	6839      	ldr	r1, [r7, #0]
 8003b0a:	f7ff ff59 	bl	80039c0 <stm32__i2c__check_nack>
 8003b0e:	4603      	mov	r3, r0
 8003b10:	73fb      	strb	r3, [r7, #15]
 8003b12:	7bfb      	ldrb	r3, [r7, #15]
 8003b14:	2b00      	cmp	r3, #0
 8003b16:	d005      	beq.n	8003b24 <stm32__i2c__wait_tx_interrupt_status+0x4c>
 8003b18:	687b      	ldr	r3, [r7, #4]
 8003b1a:	2201      	movs	r2, #1
 8003b1c:	751a      	strb	r2, [r3, #20]
 8003b1e:	2301      	movs	r3, #1
 8003b20:	73fb      	strb	r3, [r7, #15]
 8003b22:	e023      	b.n	8003b6c <stm32__i2c__wait_tx_interrupt_status+0x94>
 8003b24:	683b      	ldr	r3, [r7, #0]
 8003b26:	2b00      	cmp	r3, #0
 8003b28:	dde1      	ble.n	8003aee <stm32__i2c__wait_tx_interrupt_status+0x16>
 8003b2a:	683b      	ldr	r3, [r7, #0]
 8003b2c:	4618      	mov	r0, r3
 8003b2e:	f004 f957 	bl	8007de0 <ada__real_time__milliseconds>
 8003b32:	4603      	mov	r3, r0
 8003b34:	460c      	mov	r4, r1
 8003b36:	e9d7 0104 	ldrd	r0, r1, [r7, #16]
 8003b3a:	461a      	mov	r2, r3
 8003b3c:	4623      	mov	r3, r4
 8003b3e:	f004 f8ad 	bl	8007c9c <ada__real_time__Oadd>
 8003b42:	4605      	mov	r5, r0
 8003b44:	460e      	mov	r6, r1
 8003b46:	f004 f903 	bl	8007d50 <ada__real_time__clock>
 8003b4a:	4603      	mov	r3, r0
 8003b4c:	460c      	mov	r4, r1
 8003b4e:	42a6      	cmp	r6, r4
 8003b50:	bf08      	it	eq
 8003b52:	429d      	cmpeq	r5, r3
 8003b54:	d2cb      	bcs.n	8003aee <stm32__i2c__wait_tx_interrupt_status+0x16>
 8003b56:	6878      	ldr	r0, [r7, #4]
 8003b58:	f7ff ff08 	bl	800396c <stm32__i2c__reset_config>
 8003b5c:	687b      	ldr	r3, [r7, #4]
 8003b5e:	2201      	movs	r2, #1
 8003b60:	751a      	strb	r2, [r3, #20]
 8003b62:	2302      	movs	r3, #2
 8003b64:	73fb      	strb	r3, [r7, #15]
 8003b66:	e001      	b.n	8003b6c <stm32__i2c__wait_tx_interrupt_status+0x94>
 8003b68:	2300      	movs	r3, #0
 8003b6a:	73fb      	strb	r3, [r7, #15]
 8003b6c:	7bfb      	ldrb	r3, [r7, #15]
 8003b6e:	bf00      	nop
 8003b70:	4618      	mov	r0, r3
 8003b72:	371c      	adds	r7, #28
 8003b74:	46bd      	mov	sp, r7
 8003b76:	bdf0      	pop	{r4, r5, r6, r7, pc}

08003b78 <stm32__i2c__wait_transfer_complete_reset_flag>:
 8003b78:	b5f0      	push	{r4, r5, r6, r7, lr}
 8003b7a:	b087      	sub	sp, #28
 8003b7c:	af00      	add	r7, sp, #0
 8003b7e:	6078      	str	r0, [r7, #4]
 8003b80:	6039      	str	r1, [r7, #0]
 8003b82:	f004 f8e5 	bl	8007d50 <ada__real_time__clock>
 8003b86:	4603      	mov	r3, r0
 8003b88:	460c      	mov	r4, r1
 8003b8a:	e9c7 3404 	strd	r3, r4, [r7, #16]
 8003b8e:	687b      	ldr	r3, [r7, #4]
 8003b90:	685b      	ldr	r3, [r3, #4]
 8003b92:	3318      	adds	r3, #24
 8003b94:	681b      	ldr	r3, [r3, #0]
 8003b96:	f3c3 13c0 	ubfx	r3, r3, #7, #1
 8003b9a:	b2db      	uxtb	r3, r3
 8003b9c:	f083 0301 	eor.w	r3, r3, #1
 8003ba0:	b2db      	uxtb	r3, r3
 8003ba2:	2b00      	cmp	r3, #0
 8003ba4:	d021      	beq.n	8003bea <stm32__i2c__wait_transfer_complete_reset_flag+0x72>
 8003ba6:	683b      	ldr	r3, [r7, #0]
 8003ba8:	2b00      	cmp	r3, #0
 8003baa:	ddf0      	ble.n	8003b8e <stm32__i2c__wait_transfer_complete_reset_flag+0x16>
 8003bac:	683b      	ldr	r3, [r7, #0]
 8003bae:	4618      	mov	r0, r3
 8003bb0:	f004 f916 	bl	8007de0 <ada__real_time__milliseconds>
 8003bb4:	4603      	mov	r3, r0
 8003bb6:	460c      	mov	r4, r1
 8003bb8:	e9d7 0104 	ldrd	r0, r1, [r7, #16]
 8003bbc:	461a      	mov	r2, r3
 8003bbe:	4623      	mov	r3, r4
 8003bc0:	f004 f86c 	bl	8007c9c <ada__real_time__Oadd>
 8003bc4:	4605      	mov	r5, r0
 8003bc6:	460e      	mov	r6, r1
 8003bc8:	f004 f8c2 	bl	8007d50 <ada__real_time__clock>
 8003bcc:	4603      	mov	r3, r0
 8003bce:	460c      	mov	r4, r1
 8003bd0:	42a6      	cmp	r6, r4
 8003bd2:	bf08      	it	eq
 8003bd4:	429d      	cmpeq	r5, r3
 8003bd6:	d2da      	bcs.n	8003b8e <stm32__i2c__wait_transfer_complete_reset_flag+0x16>
 8003bd8:	6878      	ldr	r0, [r7, #4]
 8003bda:	f7ff fec7 	bl	800396c <stm32__i2c__reset_config>
 8003bde:	2302      	movs	r3, #2
 8003be0:	73fb      	strb	r3, [r7, #15]
 8003be2:	687b      	ldr	r3, [r7, #4]
 8003be4:	2201      	movs	r2, #1
 8003be6:	751a      	strb	r2, [r3, #20]
 8003be8:	e001      	b.n	8003bee <stm32__i2c__wait_transfer_complete_reset_flag+0x76>
 8003bea:	2300      	movs	r3, #0
 8003bec:	73fb      	strb	r3, [r7, #15]
 8003bee:	7bfb      	ldrb	r3, [r7, #15]
 8003bf0:	bf00      	nop
 8003bf2:	4618      	mov	r0, r3
 8003bf4:	371c      	adds	r7, #28
 8003bf6:	46bd      	mov	sp, r7
 8003bf8:	bdf0      	pop	{r4, r5, r6, r7, pc}
 8003bfa:	bf00      	nop

08003bfc <stm32__i2c__wait_stop_flag>:
 8003bfc:	b5f0      	push	{r4, r5, r6, r7, lr}
 8003bfe:	b087      	sub	sp, #28
 8003c00:	af00      	add	r7, sp, #0
 8003c02:	6078      	str	r0, [r7, #4]
 8003c04:	6039      	str	r1, [r7, #0]
 8003c06:	f004 f8a3 	bl	8007d50 <ada__real_time__clock>
 8003c0a:	4603      	mov	r3, r0
 8003c0c:	460c      	mov	r4, r1
 8003c0e:	e9c7 3404 	strd	r3, r4, [r7, #16]
 8003c12:	687b      	ldr	r3, [r7, #4]
 8003c14:	685b      	ldr	r3, [r3, #4]
 8003c16:	3318      	adds	r3, #24
 8003c18:	681b      	ldr	r3, [r3, #0]
 8003c1a:	f3c3 1340 	ubfx	r3, r3, #5, #1
 8003c1e:	b2db      	uxtb	r3, r3
 8003c20:	f083 0301 	eor.w	r3, r3, #1
 8003c24:	b2db      	uxtb	r3, r3
 8003c26:	2b00      	cmp	r3, #0
 8003c28:	d030      	beq.n	8003c8c <stm32__i2c__wait_stop_flag+0x90>
 8003c2a:	6878      	ldr	r0, [r7, #4]
 8003c2c:	6839      	ldr	r1, [r7, #0]
 8003c2e:	f7ff fec7 	bl	80039c0 <stm32__i2c__check_nack>
 8003c32:	4603      	mov	r3, r0
 8003c34:	73fb      	strb	r3, [r7, #15]
 8003c36:	7bfb      	ldrb	r3, [r7, #15]
 8003c38:	2b00      	cmp	r3, #0
 8003c3a:	d005      	beq.n	8003c48 <stm32__i2c__wait_stop_flag+0x4c>
 8003c3c:	687b      	ldr	r3, [r7, #4]
 8003c3e:	2201      	movs	r2, #1
 8003c40:	751a      	strb	r2, [r3, #20]
 8003c42:	2301      	movs	r3, #1
 8003c44:	73fb      	strb	r3, [r7, #15]
 8003c46:	e02f      	b.n	8003ca8 <stm32__i2c__wait_stop_flag+0xac>
 8003c48:	683b      	ldr	r3, [r7, #0]
 8003c4a:	2b00      	cmp	r3, #0
 8003c4c:	dde1      	ble.n	8003c12 <stm32__i2c__wait_stop_flag+0x16>
 8003c4e:	683b      	ldr	r3, [r7, #0]
 8003c50:	4618      	mov	r0, r3
 8003c52:	f004 f8c5 	bl	8007de0 <ada__real_time__milliseconds>
 8003c56:	4603      	mov	r3, r0
 8003c58:	460c      	mov	r4, r1
 8003c5a:	e9d7 0104 	ldrd	r0, r1, [r7, #16]
 8003c5e:	461a      	mov	r2, r3
 8003c60:	4623      	mov	r3, r4
 8003c62:	f004 f81b 	bl	8007c9c <ada__real_time__Oadd>
 8003c66:	4605      	mov	r5, r0
 8003c68:	460e      	mov	r6, r1
 8003c6a:	f004 f871 	bl	8007d50 <ada__real_time__clock>
 8003c6e:	4603      	mov	r3, r0
 8003c70:	460c      	mov	r4, r1
 8003c72:	42a6      	cmp	r6, r4
 8003c74:	bf08      	it	eq
 8003c76:	429d      	cmpeq	r5, r3
 8003c78:	d2cb      	bcs.n	8003c12 <stm32__i2c__wait_stop_flag+0x16>
 8003c7a:	6878      	ldr	r0, [r7, #4]
 8003c7c:	f7ff fe76 	bl	800396c <stm32__i2c__reset_config>
 8003c80:	2302      	movs	r3, #2
 8003c82:	73fb      	strb	r3, [r7, #15]
 8003c84:	687b      	ldr	r3, [r7, #4]
 8003c86:	2201      	movs	r2, #1
 8003c88:	751a      	strb	r2, [r3, #20]
 8003c8a:	e00d      	b.n	8003ca8 <stm32__i2c__wait_stop_flag+0xac>
 8003c8c:	687b      	ldr	r3, [r7, #4]
 8003c8e:	685b      	ldr	r3, [r3, #4]
 8003c90:	331c      	adds	r3, #28
 8003c92:	681b      	ldr	r3, [r3, #0]
 8003c94:	461a      	mov	r2, r3
 8003c96:	4613      	mov	r3, r2
 8003c98:	f043 0220 	orr.w	r2, r3, #32
 8003c9c:	687b      	ldr	r3, [r7, #4]
 8003c9e:	685b      	ldr	r3, [r3, #4]
 8003ca0:	331c      	adds	r3, #28
 8003ca2:	601a      	str	r2, [r3, #0]
 8003ca4:	2300      	movs	r3, #0
 8003ca6:	73fb      	strb	r3, [r7, #15]
 8003ca8:	7bfb      	ldrb	r3, [r7, #15]
 8003caa:	bf00      	nop
 8003cac:	4618      	mov	r0, r3
 8003cae:	371c      	adds	r7, #28
 8003cb0:	46bd      	mov	sp, r7
 8003cb2:	bdf0      	pop	{r4, r5, r6, r7, pc}

08003cb4 <stm32__i2c__master_transmit>:
 8003cb4:	e92d 4ff0 	stmdb	sp!, {r4, r5, r6, r7, r8, r9, sl, fp, lr}
 8003cb8:	b08b      	sub	sp, #44	; 0x2c
 8003cba:	af02      	add	r7, sp, #8
 8003cbc:	60f8      	str	r0, [r7, #12]
 8003cbe:	e9c7 2300 	strd	r2, r3, [r7]
 8003cc2:	460b      	mov	r3, r1
 8003cc4:	817b      	strh	r3, [r7, #10]
 8003cc6:	687b      	ldr	r3, [r7, #4]
 8003cc8:	681c      	ldr	r4, [r3, #0]
 8003cca:	687b      	ldr	r3, [r7, #4]
 8003ccc:	685d      	ldr	r5, [r3, #4]
 8003cce:	42a5      	cmp	r5, r4
 8003cd0:	db0d      	blt.n	8003cee <stm32__i2c__master_transmit+0x3a>
 8003cd2:	4628      	mov	r0, r5
 8003cd4:	ea4f 71e0 	mov.w	r1, r0, asr #31
 8003cd8:	4622      	mov	r2, r4
 8003cda:	ea4f 73e2 	mov.w	r3, r2, asr #31
 8003cde:	1a82      	subs	r2, r0, r2
 8003ce0:	eb61 0303 	sbc.w	r3, r1, r3
 8003ce4:	f112 0801 	adds.w	r8, r2, #1
 8003ce8:	f143 0900 	adc.w	r9, r3, #0
 8003cec:	e003      	b.n	8003cf6 <stm32__i2c__master_transmit+0x42>
 8003cee:	f04f 0800 	mov.w	r8, #0
 8003cf2:	f04f 0900 	mov.w	r9, #0
 8003cf6:	68f8      	ldr	r0, [r7, #12]
 8003cf8:	f7ff fdae 	bl	8003858 <stm32__i2c__is_configured>
 8003cfc:	4603      	mov	r3, r0
 8003cfe:	f083 0301 	eor.w	r3, r3, #1
 8003d02:	b2db      	uxtb	r3, r3
 8003d04:	2b00      	cmp	r3, #0
 8003d06:	d007      	beq.n	8003d18 <stm32__i2c__master_transmit+0x64>
 8003d08:	f8df a37c 	ldr.w	sl, [pc, #892]	; 8004088 <stm32__i2c__master_transmit+0x3d4>
 8003d0c:	f8df b37c 	ldr.w	fp, [pc, #892]	; 800408c <stm32__i2c__master_transmit+0x3d8>
 8003d10:	4650      	mov	r0, sl
 8003d12:	4659      	mov	r1, fp
 8003d14:	f007 fa74 	bl	800b200 <system__assertions__raise_assert_failure>
 8003d18:	4626      	mov	r6, r4
 8003d1a:	2300      	movs	r3, #0
 8003d1c:	61fb      	str	r3, [r7, #28]
 8003d1e:	2300      	movs	r3, #0
 8003d20:	61bb      	str	r3, [r7, #24]
 8003d22:	68fb      	ldr	r3, [r7, #12]
 8003d24:	685b      	ldr	r3, [r3, #4]
 8003d26:	3318      	adds	r3, #24
 8003d28:	681b      	ldr	r3, [r3, #0]
 8003d2a:	f3c3 33c0 	ubfx	r3, r3, #15, #1
 8003d2e:	b2db      	uxtb	r3, r3
 8003d30:	2b00      	cmp	r3, #0
 8003d32:	d002      	beq.n	8003d3a <stm32__i2c__master_transmit+0x86>
 8003d34:	2303      	movs	r3, #3
 8003d36:	75fb      	strb	r3, [r7, #23]
 8003d38:	e19a      	b.n	8004070 <stm32__i2c__master_transmit+0x3bc>
 8003d3a:	42ac      	cmp	r4, r5
 8003d3c:	dd02      	ble.n	8003d44 <stm32__i2c__master_transmit+0x90>
 8003d3e:	2301      	movs	r3, #1
 8003d40:	75fb      	strb	r3, [r7, #23]
 8003d42:	e195      	b.n	8004070 <stm32__i2c__master_transmit+0x3bc>
 8003d44:	68fb      	ldr	r3, [r7, #12]
 8003d46:	7d1b      	ldrb	r3, [r3, #20]
 8003d48:	2b01      	cmp	r3, #1
 8003d4a:	d002      	beq.n	8003d52 <stm32__i2c__master_transmit+0x9e>
 8003d4c:	2303      	movs	r3, #3
 8003d4e:	75fb      	strb	r3, [r7, #23]
 8003d50:	e18e      	b.n	8004070 <stm32__i2c__master_transmit+0x3bc>
 8003d52:	68fb      	ldr	r3, [r7, #12]
 8003d54:	2202      	movs	r2, #2
 8003d56:	751a      	strb	r2, [r3, #20]
 8003d58:	4622      	mov	r2, r4
 8003d5a:	ea4f 73e2 	mov.w	r3, r2, asr #31
 8003d5e:	f06f 00fe 	mvn.w	r0, #254	; 0xfe
 8003d62:	f06f 4100 	mvn.w	r1, #2147483648	; 0x80000000
 8003d66:	4290      	cmp	r0, r2
 8003d68:	eb71 0303 	sbcs.w	r3, r1, r3
 8003d6c:	da04      	bge.n	8003d78 <stm32__i2c__master_transmit+0xc4>
 8003d6e:	48c4      	ldr	r0, [pc, #784]	; (8004080 <stm32__i2c__master_transmit+0x3cc>)
 8003d70:	f44f 71c7 	mov.w	r1, #398	; 0x18e
 8003d74:	f006 fe66 	bl	800aa44 <__gnat_rcheck_CE_Overflow_Check>
 8003d78:	4622      	mov	r2, r4
 8003d7a:	ea4f 73e2 	mov.w	r3, r2, asr #31
 8003d7e:	f112 00fe 	adds.w	r0, r2, #254	; 0xfe
 8003d82:	f143 0100 	adc.w	r1, r3, #0
 8003d86:	462a      	mov	r2, r5
 8003d88:	ea4f 73e2 	mov.w	r3, r2, asr #31
 8003d8c:	4290      	cmp	r0, r2
 8003d8e:	eb71 0303 	sbcs.w	r3, r1, r3
 8003d92:	da0b      	bge.n	8003dac <stm32__i2c__master_transmit+0xf8>
 8003d94:	897a      	ldrh	r2, [r7, #10]
 8003d96:	2303      	movs	r3, #3
 8003d98:	9300      	str	r3, [sp, #0]
 8003d9a:	68f8      	ldr	r0, [r7, #12]
 8003d9c:	4611      	mov	r1, r2
 8003d9e:	22ff      	movs	r2, #255	; 0xff
 8003da0:	2300      	movs	r3, #0
 8003da2:	f7ff fd6b 	bl	800387c <stm32__i2c__config_transfer>
 8003da6:	23ff      	movs	r3, #255	; 0xff
 8003da8:	61fb      	str	r3, [r7, #28]
 8003daa:	e032      	b.n	8003e12 <stm32__i2c__master_transmit+0x15e>
 8003dac:	4622      	mov	r2, r4
 8003dae:	ea4f 73e2 	mov.w	r3, r2, asr #31
 8003db2:	f112 00fe 	adds.w	r0, r2, #254	; 0xfe
 8003db6:	f143 0100 	adc.w	r1, r3, #0
 8003dba:	462a      	mov	r2, r5
 8003dbc:	ea4f 73e2 	mov.w	r3, r2, asr #31
 8003dc0:	4290      	cmp	r0, r2
 8003dc2:	eb71 0303 	sbcs.w	r3, r1, r3
 8003dc6:	da04      	bge.n	8003dd2 <stm32__i2c__master_transmit+0x11e>
 8003dc8:	48ad      	ldr	r0, [pc, #692]	; (8004080 <stm32__i2c__master_transmit+0x3cc>)
 8003dca:	f44f 71ca 	mov.w	r1, #404	; 0x194
 8003dce:	f006 fe41 	bl	800aa54 <__gnat_rcheck_CE_Range_Check>
 8003dd2:	fa5f f288 	uxtb.w	r2, r8
 8003dd6:	8979      	ldrh	r1, [r7, #10]
 8003dd8:	2303      	movs	r3, #3
 8003dda:	9300      	str	r3, [sp, #0]
 8003ddc:	68f8      	ldr	r0, [r7, #12]
 8003dde:	2301      	movs	r3, #1
 8003de0:	f7ff fd4c 	bl	800387c <stm32__i2c__config_transfer>
 8003de4:	4622      	mov	r2, r4
 8003de6:	ea4f 73e2 	mov.w	r3, r2, asr #31
 8003dea:	48a6      	ldr	r0, [pc, #664]	; (8004084 <stm32__i2c__master_transmit+0x3d0>)
 8003dec:	f04f 0100 	mov.w	r1, #0
 8003df0:	1880      	adds	r0, r0, r2
 8003df2:	eb41 0103 	adc.w	r1, r1, r3
 8003df6:	462a      	mov	r2, r5
 8003df8:	ea4f 73e2 	mov.w	r3, r2, asr #31
 8003dfc:	4290      	cmp	r0, r2
 8003dfe:	eb71 0303 	sbcs.w	r3, r1, r3
 8003e02:	da04      	bge.n	8003e0e <stm32__i2c__master_transmit+0x15a>
 8003e04:	489e      	ldr	r0, [pc, #632]	; (8004080 <stm32__i2c__master_transmit+0x3cc>)
 8003e06:	f240 1195 	movw	r1, #405	; 0x195
 8003e0a:	f006 fe23 	bl	800aa54 <__gnat_rcheck_CE_Range_Check>
 8003e0e:	4643      	mov	r3, r8
 8003e10:	61fb      	str	r3, [r7, #28]
 8003e12:	4622      	mov	r2, r4
 8003e14:	ea4f 73e2 	mov.w	r3, r2, asr #31
 8003e18:	489a      	ldr	r0, [pc, #616]	; (8004084 <stm32__i2c__master_transmit+0x3d0>)
 8003e1a:	f04f 0100 	mov.w	r1, #0
 8003e1e:	1880      	adds	r0, r0, r2
 8003e20:	eb41 0103 	adc.w	r1, r1, r3
 8003e24:	462a      	mov	r2, r5
 8003e26:	ea4f 73e2 	mov.w	r3, r2, asr #31
 8003e2a:	4290      	cmp	r0, r2
 8003e2c:	eb71 0303 	sbcs.w	r3, r1, r3
 8003e30:	da04      	bge.n	8003e3c <stm32__i2c__master_transmit+0x188>
 8003e32:	4893      	ldr	r0, [pc, #588]	; (8004080 <stm32__i2c__master_transmit+0x3cc>)
 8003e34:	f240 1199 	movw	r1, #409	; 0x199
 8003e38:	f006 fe0c 	bl	800aa54 <__gnat_rcheck_CE_Range_Check>
 8003e3c:	69bb      	ldr	r3, [r7, #24]
 8003e3e:	4642      	mov	r2, r8
 8003e40:	4293      	cmp	r3, r2
 8003e42:	f280 80fe 	bge.w	8004042 <stm32__i2c__master_transmit+0x38e>
 8003e46:	68f8      	ldr	r0, [r7, #12]
 8003e48:	6cb9      	ldr	r1, [r7, #72]	; 0x48
 8003e4a:	f7ff fe45 	bl	8003ad8 <stm32__i2c__wait_tx_interrupt_status>
 8003e4e:	4603      	mov	r3, r0
 8003e50:	75fb      	strb	r3, [r7, #23]
 8003e52:	7dfb      	ldrb	r3, [r7, #23]
 8003e54:	2b00      	cmp	r3, #0
 8003e56:	f040 8106 	bne.w	8004066 <stm32__i2c__master_transmit+0x3b2>
 8003e5a:	4622      	mov	r2, r4
 8003e5c:	69bb      	ldr	r3, [r7, #24]
 8003e5e:	4413      	add	r3, r2
 8003e60:	42a3      	cmp	r3, r4
 8003e62:	da04      	bge.n	8003e6e <stm32__i2c__master_transmit+0x1ba>
 8003e64:	4886      	ldr	r0, [pc, #536]	; (8004080 <stm32__i2c__master_transmit+0x3cc>)
 8003e66:	f44f 71d0 	mov.w	r1, #416	; 0x1a0
 8003e6a:	f006 fdeb 	bl	800aa44 <__gnat_rcheck_CE_Overflow_Check>
 8003e6e:	69bb      	ldr	r3, [r7, #24]
 8003e70:	4423      	add	r3, r4
 8003e72:	429c      	cmp	r4, r3
 8003e74:	dc01      	bgt.n	8003e7a <stm32__i2c__master_transmit+0x1c6>
 8003e76:	429d      	cmp	r5, r3
 8003e78:	da04      	bge.n	8003e84 <stm32__i2c__master_transmit+0x1d0>
 8003e7a:	4881      	ldr	r0, [pc, #516]	; (8004080 <stm32__i2c__master_transmit+0x3cc>)
 8003e7c:	f44f 71d0 	mov.w	r1, #416	; 0x1a0
 8003e80:	f006 fdd0 	bl	800aa24 <__gnat_rcheck_CE_Index_Check>
 8003e84:	68fa      	ldr	r2, [r7, #12]
 8003e86:	6852      	ldr	r2, [r2, #4]
 8003e88:	3228      	adds	r2, #40	; 0x28
 8003e8a:	6812      	ldr	r2, [r2, #0]
 8003e8c:	6839      	ldr	r1, [r7, #0]
 8003e8e:	1b9b      	subs	r3, r3, r6
 8003e90:	5ccb      	ldrb	r3, [r1, r3]
 8003e92:	f363 0207 	bfi	r2, r3, #0, #8
 8003e96:	68fb      	ldr	r3, [r7, #12]
 8003e98:	685b      	ldr	r3, [r3, #4]
 8003e9a:	3328      	adds	r3, #40	; 0x28
 8003e9c:	601a      	str	r2, [r3, #0]
 8003e9e:	69bb      	ldr	r3, [r7, #24]
 8003ea0:	f06f 4200 	mvn.w	r2, #2147483648	; 0x80000000
 8003ea4:	4293      	cmp	r3, r2
 8003ea6:	d104      	bne.n	8003eb2 <stm32__i2c__master_transmit+0x1fe>
 8003ea8:	4875      	ldr	r0, [pc, #468]	; (8004080 <stm32__i2c__master_transmit+0x3cc>)
 8003eaa:	f240 11a1 	movw	r1, #417	; 0x1a1
 8003eae:	f006 fdc9 	bl	800aa44 <__gnat_rcheck_CE_Overflow_Check>
 8003eb2:	69bb      	ldr	r3, [r7, #24]
 8003eb4:	3301      	adds	r3, #1
 8003eb6:	61bb      	str	r3, [r7, #24]
 8003eb8:	69ba      	ldr	r2, [r7, #24]
 8003eba:	69fb      	ldr	r3, [r7, #28]
 8003ebc:	429a      	cmp	r2, r3
 8003ebe:	d1a8      	bne.n	8003e12 <stm32__i2c__master_transmit+0x15e>
 8003ec0:	4622      	mov	r2, r4
 8003ec2:	ea4f 73e2 	mov.w	r3, r2, asr #31
 8003ec6:	486f      	ldr	r0, [pc, #444]	; (8004084 <stm32__i2c__master_transmit+0x3d0>)
 8003ec8:	f04f 0100 	mov.w	r1, #0
 8003ecc:	1880      	adds	r0, r0, r2
 8003ece:	eb41 0103 	adc.w	r1, r1, r3
 8003ed2:	462a      	mov	r2, r5
 8003ed4:	ea4f 73e2 	mov.w	r3, r2, asr #31
 8003ed8:	4290      	cmp	r0, r2
 8003eda:	eb71 0303 	sbcs.w	r3, r1, r3
 8003ede:	da04      	bge.n	8003eea <stm32__i2c__master_transmit+0x236>
 8003ee0:	4867      	ldr	r0, [pc, #412]	; (8004080 <stm32__i2c__master_transmit+0x3cc>)
 8003ee2:	f44f 71d2 	mov.w	r1, #420	; 0x1a4
 8003ee6:	f006 fdb5 	bl	800aa54 <__gnat_rcheck_CE_Range_Check>
 8003eea:	69bb      	ldr	r3, [r7, #24]
 8003eec:	4642      	mov	r2, r8
 8003eee:	4293      	cmp	r3, r2
 8003ef0:	bfb4      	ite	lt
 8003ef2:	2301      	movlt	r3, #1
 8003ef4:	2300      	movge	r3, #0
 8003ef6:	b2db      	uxtb	r3, r3
 8003ef8:	2b00      	cmp	r3, #0
 8003efa:	d08a      	beq.n	8003e12 <stm32__i2c__master_transmit+0x15e>
 8003efc:	68f8      	ldr	r0, [r7, #12]
 8003efe:	6cb9      	ldr	r1, [r7, #72]	; 0x48
 8003f00:	f7ff fe3a 	bl	8003b78 <stm32__i2c__wait_transfer_complete_reset_flag>
 8003f04:	4603      	mov	r3, r0
 8003f06:	75fb      	strb	r3, [r7, #23]
 8003f08:	7dfb      	ldrb	r3, [r7, #23]
 8003f0a:	2b00      	cmp	r3, #0
 8003f0c:	f040 80ad 	bne.w	800406a <stm32__i2c__master_transmit+0x3b6>
 8003f10:	4622      	mov	r2, r4
 8003f12:	ea4f 73e2 	mov.w	r3, r2, asr #31
 8003f16:	485b      	ldr	r0, [pc, #364]	; (8004084 <stm32__i2c__master_transmit+0x3d0>)
 8003f18:	f04f 0100 	mov.w	r1, #0
 8003f1c:	1880      	adds	r0, r0, r2
 8003f1e:	eb41 0103 	adc.w	r1, r1, r3
 8003f22:	462a      	mov	r2, r5
 8003f24:	ea4f 73e2 	mov.w	r3, r2, asr #31
 8003f28:	4290      	cmp	r0, r2
 8003f2a:	eb71 0303 	sbcs.w	r3, r1, r3
 8003f2e:	da04      	bge.n	8003f3a <stm32__i2c__master_transmit+0x286>
 8003f30:	4853      	ldr	r0, [pc, #332]	; (8004080 <stm32__i2c__master_transmit+0x3cc>)
 8003f32:	f44f 71d6 	mov.w	r1, #428	; 0x1ac
 8003f36:	f006 fd8d 	bl	800aa54 <__gnat_rcheck_CE_Range_Check>
 8003f3a:	4642      	mov	r2, r8
 8003f3c:	69bb      	ldr	r3, [r7, #24]
 8003f3e:	1ad3      	subs	r3, r2, r3
 8003f40:	461a      	mov	r2, r3
 8003f42:	4643      	mov	r3, r8
 8003f44:	429a      	cmp	r2, r3
 8003f46:	dd04      	ble.n	8003f52 <stm32__i2c__master_transmit+0x29e>
 8003f48:	484d      	ldr	r0, [pc, #308]	; (8004080 <stm32__i2c__master_transmit+0x3cc>)
 8003f4a:	f44f 71d6 	mov.w	r1, #428	; 0x1ac
 8003f4e:	f006 fd79 	bl	800aa44 <__gnat_rcheck_CE_Overflow_Check>
 8003f52:	4642      	mov	r2, r8
 8003f54:	69bb      	ldr	r3, [r7, #24]
 8003f56:	1ad3      	subs	r3, r2, r3
 8003f58:	2bff      	cmp	r3, #255	; 0xff
 8003f5a:	bfcc      	ite	gt
 8003f5c:	2301      	movgt	r3, #1
 8003f5e:	2300      	movle	r3, #0
 8003f60:	b2db      	uxtb	r3, r3
 8003f62:	2b00      	cmp	r3, #0
 8003f64:	d00b      	beq.n	8003f7e <stm32__i2c__master_transmit+0x2ca>
 8003f66:	897a      	ldrh	r2, [r7, #10]
 8003f68:	2300      	movs	r3, #0
 8003f6a:	9300      	str	r3, [sp, #0]
 8003f6c:	68f8      	ldr	r0, [r7, #12]
 8003f6e:	4611      	mov	r1, r2
 8003f70:	22ff      	movs	r2, #255	; 0xff
 8003f72:	2300      	movs	r3, #0
 8003f74:	f7ff fc82 	bl	800387c <stm32__i2c__config_transfer>
 8003f78:	23ff      	movs	r3, #255	; 0xff
 8003f7a:	61fb      	str	r3, [r7, #28]
 8003f7c:	e749      	b.n	8003e12 <stm32__i2c__master_transmit+0x15e>
 8003f7e:	4622      	mov	r2, r4
 8003f80:	ea4f 73e2 	mov.w	r3, r2, asr #31
 8003f84:	483f      	ldr	r0, [pc, #252]	; (8004084 <stm32__i2c__master_transmit+0x3d0>)
 8003f86:	f04f 0100 	mov.w	r1, #0
 8003f8a:	1880      	adds	r0, r0, r2
 8003f8c:	eb41 0103 	adc.w	r1, r1, r3
 8003f90:	462a      	mov	r2, r5
 8003f92:	ea4f 73e2 	mov.w	r3, r2, asr #31
 8003f96:	4290      	cmp	r0, r2
 8003f98:	eb71 0303 	sbcs.w	r3, r1, r3
 8003f9c:	da04      	bge.n	8003fa8 <stm32__i2c__master_transmit+0x2f4>
 8003f9e:	4838      	ldr	r0, [pc, #224]	; (8004080 <stm32__i2c__master_transmit+0x3cc>)
 8003fa0:	f44f 71d9 	mov.w	r1, #434	; 0x1b2
 8003fa4:	f006 fd56 	bl	800aa54 <__gnat_rcheck_CE_Range_Check>
 8003fa8:	4642      	mov	r2, r8
 8003faa:	69bb      	ldr	r3, [r7, #24]
 8003fac:	1ad3      	subs	r3, r2, r3
 8003fae:	461a      	mov	r2, r3
 8003fb0:	4643      	mov	r3, r8
 8003fb2:	429a      	cmp	r2, r3
 8003fb4:	dd04      	ble.n	8003fc0 <stm32__i2c__master_transmit+0x30c>
 8003fb6:	4832      	ldr	r0, [pc, #200]	; (8004080 <stm32__i2c__master_transmit+0x3cc>)
 8003fb8:	f44f 71d9 	mov.w	r1, #434	; 0x1b2
 8003fbc:	f006 fd42 	bl	800aa44 <__gnat_rcheck_CE_Overflow_Check>
 8003fc0:	4642      	mov	r2, r8
 8003fc2:	69bb      	ldr	r3, [r7, #24]
 8003fc4:	1ad3      	subs	r3, r2, r3
 8003fc6:	2b00      	cmp	r3, #0
 8003fc8:	db01      	blt.n	8003fce <stm32__i2c__master_transmit+0x31a>
 8003fca:	2bff      	cmp	r3, #255	; 0xff
 8003fcc:	dd04      	ble.n	8003fd8 <stm32__i2c__master_transmit+0x324>
 8003fce:	482c      	ldr	r0, [pc, #176]	; (8004080 <stm32__i2c__master_transmit+0x3cc>)
 8003fd0:	f44f 71d9 	mov.w	r1, #434	; 0x1b2
 8003fd4:	f006 fd3e 	bl	800aa54 <__gnat_rcheck_CE_Range_Check>
 8003fd8:	b2da      	uxtb	r2, r3
 8003fda:	8979      	ldrh	r1, [r7, #10]
 8003fdc:	2300      	movs	r3, #0
 8003fde:	9300      	str	r3, [sp, #0]
 8003fe0:	68f8      	ldr	r0, [r7, #12]
 8003fe2:	2301      	movs	r3, #1
 8003fe4:	f7ff fc4a 	bl	800387c <stm32__i2c__config_transfer>
 8003fe8:	4622      	mov	r2, r4
 8003fea:	ea4f 73e2 	mov.w	r3, r2, asr #31
 8003fee:	4825      	ldr	r0, [pc, #148]	; (8004084 <stm32__i2c__master_transmit+0x3d0>)
 8003ff0:	f04f 0100 	mov.w	r1, #0
 8003ff4:	1880      	adds	r0, r0, r2
 8003ff6:	eb41 0103 	adc.w	r1, r1, r3
 8003ffa:	462a      	mov	r2, r5
 8003ffc:	ea4f 73e2 	mov.w	r3, r2, asr #31
 8004000:	4290      	cmp	r0, r2
 8004002:	eb71 0303 	sbcs.w	r3, r1, r3
 8004006:	da04      	bge.n	8004012 <stm32__i2c__master_transmit+0x35e>
 8004008:	481d      	ldr	r0, [pc, #116]	; (8004080 <stm32__i2c__master_transmit+0x3cc>)
 800400a:	f44f 71da 	mov.w	r1, #436	; 0x1b4
 800400e:	f006 fd21 	bl	800aa54 <__gnat_rcheck_CE_Range_Check>
 8004012:	4642      	mov	r2, r8
 8004014:	69bb      	ldr	r3, [r7, #24]
 8004016:	1ad3      	subs	r3, r2, r3
 8004018:	461a      	mov	r2, r3
 800401a:	4643      	mov	r3, r8
 800401c:	429a      	cmp	r2, r3
 800401e:	dd04      	ble.n	800402a <stm32__i2c__master_transmit+0x376>
 8004020:	4817      	ldr	r0, [pc, #92]	; (8004080 <stm32__i2c__master_transmit+0x3cc>)
 8004022:	f44f 71da 	mov.w	r1, #436	; 0x1b4
 8004026:	f006 fd0d 	bl	800aa44 <__gnat_rcheck_CE_Overflow_Check>
 800402a:	4642      	mov	r2, r8
 800402c:	69bb      	ldr	r3, [r7, #24]
 800402e:	1ad3      	subs	r3, r2, r3
 8004030:	2b00      	cmp	r3, #0
 8004032:	da04      	bge.n	800403e <stm32__i2c__master_transmit+0x38a>
 8004034:	4812      	ldr	r0, [pc, #72]	; (8004080 <stm32__i2c__master_transmit+0x3cc>)
 8004036:	f44f 71da 	mov.w	r1, #436	; 0x1b4
 800403a:	f006 fd0b 	bl	800aa54 <__gnat_rcheck_CE_Range_Check>
 800403e:	61fb      	str	r3, [r7, #28]
 8004040:	e6e7      	b.n	8003e12 <stm32__i2c__master_transmit+0x15e>
 8004042:	68f8      	ldr	r0, [r7, #12]
 8004044:	6cb9      	ldr	r1, [r7, #72]	; 0x48
 8004046:	f7ff fdd9 	bl	8003bfc <stm32__i2c__wait_stop_flag>
 800404a:	4603      	mov	r3, r0
 800404c:	75fb      	strb	r3, [r7, #23]
 800404e:	7dfb      	ldrb	r3, [r7, #23]
 8004050:	2b00      	cmp	r3, #0
 8004052:	d10c      	bne.n	800406e <stm32__i2c__master_transmit+0x3ba>
 8004054:	68f8      	ldr	r0, [r7, #12]
 8004056:	f7ff fc89 	bl	800396c <stm32__i2c__reset_config>
 800405a:	68fb      	ldr	r3, [r7, #12]
 800405c:	2201      	movs	r2, #1
 800405e:	751a      	strb	r2, [r3, #20]
 8004060:	2300      	movs	r3, #0
 8004062:	75fb      	strb	r3, [r7, #23]
 8004064:	e004      	b.n	8004070 <stm32__i2c__master_transmit+0x3bc>
 8004066:	bf00      	nop
 8004068:	e002      	b.n	8004070 <stm32__i2c__master_transmit+0x3bc>
 800406a:	bf00      	nop
 800406c:	e000      	b.n	8004070 <stm32__i2c__master_transmit+0x3bc>
 800406e:	bf00      	nop
 8004070:	7dfb      	ldrb	r3, [r7, #23]
 8004072:	bf00      	nop
 8004074:	4618      	mov	r0, r3
 8004076:	3724      	adds	r7, #36	; 0x24
 8004078:	46bd      	mov	sp, r7
 800407a:	e8bd 8ff0 	ldmia.w	sp!, {r4, r5, r6, r7, r8, r9, sl, fp, pc}
 800407e:	bf00      	nop
 8004080:	0800ee3c 	.word	0x0800ee3c
 8004084:	7ffffffe 	.word	0x7ffffffe
 8004088:	0800ee4c 	.word	0x0800ee4c
 800408c:	0800ee34 	.word	0x0800ee34

08004090 <stm32__i2c__master_receive>:
 8004090:	b5b0      	push	{r4, r5, r7, lr}
 8004092:	b08a      	sub	sp, #40	; 0x28
 8004094:	af02      	add	r7, sp, #8
 8004096:	60f8      	str	r0, [r7, #12]
 8004098:	e9c7 2300 	strd	r2, r3, [r7]
 800409c:	460b      	mov	r3, r1
 800409e:	817b      	strh	r3, [r7, #10]
 80040a0:	68f8      	ldr	r0, [r7, #12]
 80040a2:	f7ff fbd9 	bl	8003858 <stm32__i2c__is_configured>
 80040a6:	4603      	mov	r3, r0
 80040a8:	f083 0301 	eor.w	r3, r3, #1
 80040ac:	b2db      	uxtb	r3, r3
 80040ae:	2b00      	cmp	r3, #0
 80040b0:	d005      	beq.n	80040be <stm32__i2c__master_receive+0x2e>
 80040b2:	4ca8      	ldr	r4, [pc, #672]	; (8004354 <stm32__i2c__master_receive+0x2c4>)
 80040b4:	4da8      	ldr	r5, [pc, #672]	; (8004358 <stm32__i2c__master_receive+0x2c8>)
 80040b6:	4620      	mov	r0, r4
 80040b8:	4629      	mov	r1, r5
 80040ba:	f007 f8a1 	bl	800b200 <system__assertions__raise_assert_failure>
 80040be:	687b      	ldr	r3, [r7, #4]
 80040c0:	681b      	ldr	r3, [r3, #0]
 80040c2:	461d      	mov	r5, r3
 80040c4:	2300      	movs	r3, #0
 80040c6:	61fb      	str	r3, [r7, #28]
 80040c8:	2300      	movs	r3, #0
 80040ca:	61bb      	str	r3, [r7, #24]
 80040cc:	68fb      	ldr	r3, [r7, #12]
 80040ce:	685b      	ldr	r3, [r3, #4]
 80040d0:	3318      	adds	r3, #24
 80040d2:	681b      	ldr	r3, [r3, #0]
 80040d4:	f3c3 33c0 	ubfx	r3, r3, #15, #1
 80040d8:	b2db      	uxtb	r3, r3
 80040da:	2b00      	cmp	r3, #0
 80040dc:	d002      	beq.n	80040e4 <stm32__i2c__master_receive+0x54>
 80040de:	2303      	movs	r3, #3
 80040e0:	75fb      	strb	r3, [r7, #23]
 80040e2:	e286      	b.n	80045f2 <stm32__i2c__master_receive+0x562>
 80040e4:	68fb      	ldr	r3, [r7, #12]
 80040e6:	7d1b      	ldrb	r3, [r3, #20]
 80040e8:	2b01      	cmp	r3, #1
 80040ea:	d002      	beq.n	80040f2 <stm32__i2c__master_receive+0x62>
 80040ec:	2303      	movs	r3, #3
 80040ee:	75fb      	strb	r3, [r7, #23]
 80040f0:	e27f      	b.n	80045f2 <stm32__i2c__master_receive+0x562>
 80040f2:	68fb      	ldr	r3, [r7, #12]
 80040f4:	2203      	movs	r2, #3
 80040f6:	751a      	strb	r2, [r3, #20]
 80040f8:	687b      	ldr	r3, [r7, #4]
 80040fa:	681a      	ldr	r2, [r3, #0]
 80040fc:	687b      	ldr	r3, [r7, #4]
 80040fe:	685b      	ldr	r3, [r3, #4]
 8004100:	429a      	cmp	r2, r3
 8004102:	dd02      	ble.n	800410a <stm32__i2c__master_receive+0x7a>
 8004104:	2301      	movs	r3, #1
 8004106:	75fb      	strb	r3, [r7, #23]
 8004108:	e273      	b.n	80045f2 <stm32__i2c__master_receive+0x562>
 800410a:	687b      	ldr	r3, [r7, #4]
 800410c:	681b      	ldr	r3, [r3, #0]
 800410e:	ea4f 74e3 	mov.w	r4, r3, asr #31
 8004112:	f06f 01fe 	mvn.w	r1, #254	; 0xfe
 8004116:	f06f 4200 	mvn.w	r2, #2147483648	; 0x80000000
 800411a:	4299      	cmp	r1, r3
 800411c:	eb72 0304 	sbcs.w	r3, r2, r4
 8004120:	da04      	bge.n	800412c <stm32__i2c__master_receive+0x9c>
 8004122:	488e      	ldr	r0, [pc, #568]	; (800435c <stm32__i2c__master_receive+0x2cc>)
 8004124:	f240 11e5 	movw	r1, #485	; 0x1e5
 8004128:	f006 fc8c 	bl	800aa44 <__gnat_rcheck_CE_Overflow_Check>
 800412c:	687b      	ldr	r3, [r7, #4]
 800412e:	681b      	ldr	r3, [r3, #0]
 8004130:	ea4f 74e3 	mov.w	r4, r3, asr #31
 8004134:	f113 01fe 	adds.w	r1, r3, #254	; 0xfe
 8004138:	f144 0200 	adc.w	r2, r4, #0
 800413c:	687b      	ldr	r3, [r7, #4]
 800413e:	685b      	ldr	r3, [r3, #4]
 8004140:	ea4f 74e3 	mov.w	r4, r3, asr #31
 8004144:	4299      	cmp	r1, r3
 8004146:	eb72 0304 	sbcs.w	r3, r2, r4
 800414a:	da0b      	bge.n	8004164 <stm32__i2c__master_receive+0xd4>
 800414c:	897a      	ldrh	r2, [r7, #10]
 800414e:	2302      	movs	r3, #2
 8004150:	9300      	str	r3, [sp, #0]
 8004152:	68f8      	ldr	r0, [r7, #12]
 8004154:	4611      	mov	r1, r2
 8004156:	22ff      	movs	r2, #255	; 0xff
 8004158:	2300      	movs	r3, #0
 800415a:	f7ff fb8f 	bl	800387c <stm32__i2c__config_transfer>
 800415e:	23ff      	movs	r3, #255	; 0xff
 8004160:	61fb      	str	r3, [r7, #28]
 8004162:	e055      	b.n	8004210 <stm32__i2c__master_receive+0x180>
 8004164:	687b      	ldr	r3, [r7, #4]
 8004166:	681b      	ldr	r3, [r3, #0]
 8004168:	ea4f 74e3 	mov.w	r4, r3, asr #31
 800416c:	f113 01fe 	adds.w	r1, r3, #254	; 0xfe
 8004170:	f144 0200 	adc.w	r2, r4, #0
 8004174:	687b      	ldr	r3, [r7, #4]
 8004176:	685b      	ldr	r3, [r3, #4]
 8004178:	ea4f 74e3 	mov.w	r4, r3, asr #31
 800417c:	4299      	cmp	r1, r3
 800417e:	eb72 0304 	sbcs.w	r3, r2, r4
 8004182:	da04      	bge.n	800418e <stm32__i2c__master_receive+0xfe>
 8004184:	4875      	ldr	r0, [pc, #468]	; (800435c <stm32__i2c__master_receive+0x2cc>)
 8004186:	f240 11eb 	movw	r1, #491	; 0x1eb
 800418a:	f006 fc63 	bl	800aa54 <__gnat_rcheck_CE_Range_Check>
 800418e:	687b      	ldr	r3, [r7, #4]
 8004190:	685a      	ldr	r2, [r3, #4]
 8004192:	687b      	ldr	r3, [r7, #4]
 8004194:	681b      	ldr	r3, [r3, #0]
 8004196:	429a      	cmp	r2, r3
 8004198:	db0a      	blt.n	80041b0 <stm32__i2c__master_receive+0x120>
 800419a:	687b      	ldr	r3, [r7, #4]
 800419c:	685b      	ldr	r3, [r3, #4]
 800419e:	b2da      	uxtb	r2, r3
 80041a0:	687b      	ldr	r3, [r7, #4]
 80041a2:	681b      	ldr	r3, [r3, #0]
 80041a4:	b2db      	uxtb	r3, r3
 80041a6:	1ad3      	subs	r3, r2, r3
 80041a8:	b2db      	uxtb	r3, r3
 80041aa:	3301      	adds	r3, #1
 80041ac:	b2db      	uxtb	r3, r3
 80041ae:	e000      	b.n	80041b2 <stm32__i2c__master_receive+0x122>
 80041b0:	2300      	movs	r3, #0
 80041b2:	8979      	ldrh	r1, [r7, #10]
 80041b4:	2202      	movs	r2, #2
 80041b6:	9200      	str	r2, [sp, #0]
 80041b8:	68f8      	ldr	r0, [r7, #12]
 80041ba:	461a      	mov	r2, r3
 80041bc:	2301      	movs	r3, #1
 80041be:	f7ff fb5d 	bl	800387c <stm32__i2c__config_transfer>
 80041c2:	687b      	ldr	r3, [r7, #4]
 80041c4:	681b      	ldr	r3, [r3, #0]
 80041c6:	ea4f 74e3 	mov.w	r4, r3, asr #31
 80041ca:	4965      	ldr	r1, [pc, #404]	; (8004360 <stm32__i2c__master_receive+0x2d0>)
 80041cc:	f04f 0200 	mov.w	r2, #0
 80041d0:	18c9      	adds	r1, r1, r3
 80041d2:	eb42 0204 	adc.w	r2, r2, r4
 80041d6:	687b      	ldr	r3, [r7, #4]
 80041d8:	685b      	ldr	r3, [r3, #4]
 80041da:	ea4f 74e3 	mov.w	r4, r3, asr #31
 80041de:	4299      	cmp	r1, r3
 80041e0:	eb72 0304 	sbcs.w	r3, r2, r4
 80041e4:	da04      	bge.n	80041f0 <stm32__i2c__master_receive+0x160>
 80041e6:	485d      	ldr	r0, [pc, #372]	; (800435c <stm32__i2c__master_receive+0x2cc>)
 80041e8:	f44f 71f6 	mov.w	r1, #492	; 0x1ec
 80041ec:	f006 fc32 	bl	800aa54 <__gnat_rcheck_CE_Range_Check>
 80041f0:	687b      	ldr	r3, [r7, #4]
 80041f2:	685a      	ldr	r2, [r3, #4]
 80041f4:	687b      	ldr	r3, [r7, #4]
 80041f6:	681b      	ldr	r3, [r3, #0]
 80041f8:	429a      	cmp	r2, r3
 80041fa:	db07      	blt.n	800420c <stm32__i2c__master_receive+0x17c>
 80041fc:	687b      	ldr	r3, [r7, #4]
 80041fe:	685b      	ldr	r3, [r3, #4]
 8004200:	461a      	mov	r2, r3
 8004202:	687b      	ldr	r3, [r7, #4]
 8004204:	681b      	ldr	r3, [r3, #0]
 8004206:	1ad3      	subs	r3, r2, r3
 8004208:	3301      	adds	r3, #1
 800420a:	e000      	b.n	800420e <stm32__i2c__master_receive+0x17e>
 800420c:	2300      	movs	r3, #0
 800420e:	61fb      	str	r3, [r7, #28]
 8004210:	687b      	ldr	r3, [r7, #4]
 8004212:	681b      	ldr	r3, [r3, #0]
 8004214:	ea4f 74e3 	mov.w	r4, r3, asr #31
 8004218:	4951      	ldr	r1, [pc, #324]	; (8004360 <stm32__i2c__master_receive+0x2d0>)
 800421a:	f04f 0200 	mov.w	r2, #0
 800421e:	18c9      	adds	r1, r1, r3
 8004220:	eb42 0204 	adc.w	r2, r2, r4
 8004224:	687b      	ldr	r3, [r7, #4]
 8004226:	685b      	ldr	r3, [r3, #4]
 8004228:	ea4f 74e3 	mov.w	r4, r3, asr #31
 800422c:	4299      	cmp	r1, r3
 800422e:	eb72 0304 	sbcs.w	r3, r2, r4
 8004232:	da04      	bge.n	800423e <stm32__i2c__master_receive+0x1ae>
 8004234:	4849      	ldr	r0, [pc, #292]	; (800435c <stm32__i2c__master_receive+0x2cc>)
 8004236:	f44f 71f8 	mov.w	r1, #496	; 0x1f0
 800423a:	f006 fc0b 	bl	800aa54 <__gnat_rcheck_CE_Range_Check>
 800423e:	69bb      	ldr	r3, [r7, #24]
 8004240:	687a      	ldr	r2, [r7, #4]
 8004242:	6851      	ldr	r1, [r2, #4]
 8004244:	687a      	ldr	r2, [r7, #4]
 8004246:	6812      	ldr	r2, [r2, #0]
 8004248:	4291      	cmp	r1, r2
 800424a:	db07      	blt.n	800425c <stm32__i2c__master_receive+0x1cc>
 800424c:	687a      	ldr	r2, [r7, #4]
 800424e:	6852      	ldr	r2, [r2, #4]
 8004250:	4611      	mov	r1, r2
 8004252:	687a      	ldr	r2, [r7, #4]
 8004254:	6812      	ldr	r2, [r2, #0]
 8004256:	1a8a      	subs	r2, r1, r2
 8004258:	3201      	adds	r2, #1
 800425a:	e000      	b.n	800425e <stm32__i2c__master_receive+0x1ce>
 800425c:	2200      	movs	r2, #0
 800425e:	4293      	cmp	r3, r2
 8004260:	f280 81b4 	bge.w	80045cc <stm32__i2c__master_receive+0x53c>
 8004264:	68fb      	ldr	r3, [r7, #12]
 8004266:	685b      	ldr	r3, [r3, #4]
 8004268:	3318      	adds	r3, #24
 800426a:	681b      	ldr	r3, [r3, #0]
 800426c:	f3c3 0380 	ubfx	r3, r3, #2, #1
 8004270:	b2db      	uxtb	r3, r3
 8004272:	f083 0301 	eor.w	r3, r3, #1
 8004276:	b2db      	uxtb	r3, r3
 8004278:	2b00      	cmp	r3, #0
 800427a:	d001      	beq.n	8004280 <stm32__i2c__master_receive+0x1f0>
 800427c:	bf00      	nop
 800427e:	e7f1      	b.n	8004264 <stm32__i2c__master_receive+0x1d4>
 8004280:	687b      	ldr	r3, [r7, #4]
 8004282:	681b      	ldr	r3, [r3, #0]
 8004284:	461a      	mov	r2, r3
 8004286:	69bb      	ldr	r3, [r7, #24]
 8004288:	4413      	add	r3, r2
 800428a:	461a      	mov	r2, r3
 800428c:	687b      	ldr	r3, [r7, #4]
 800428e:	681b      	ldr	r3, [r3, #0]
 8004290:	429a      	cmp	r2, r3
 8004292:	da04      	bge.n	800429e <stm32__i2c__master_receive+0x20e>
 8004294:	4831      	ldr	r0, [pc, #196]	; (800435c <stm32__i2c__master_receive+0x2cc>)
 8004296:	f240 11f5 	movw	r1, #501	; 0x1f5
 800429a:	f006 fbd3 	bl	800aa44 <__gnat_rcheck_CE_Overflow_Check>
 800429e:	687b      	ldr	r3, [r7, #4]
 80042a0:	681a      	ldr	r2, [r3, #0]
 80042a2:	69bb      	ldr	r3, [r7, #24]
 80042a4:	4413      	add	r3, r2
 80042a6:	687a      	ldr	r2, [r7, #4]
 80042a8:	6812      	ldr	r2, [r2, #0]
 80042aa:	429a      	cmp	r2, r3
 80042ac:	dc03      	bgt.n	80042b6 <stm32__i2c__master_receive+0x226>
 80042ae:	687a      	ldr	r2, [r7, #4]
 80042b0:	6852      	ldr	r2, [r2, #4]
 80042b2:	429a      	cmp	r2, r3
 80042b4:	da04      	bge.n	80042c0 <stm32__i2c__master_receive+0x230>
 80042b6:	4829      	ldr	r0, [pc, #164]	; (800435c <stm32__i2c__master_receive+0x2cc>)
 80042b8:	f240 11f5 	movw	r1, #501	; 0x1f5
 80042bc:	f006 fbb2 	bl	800aa24 <__gnat_rcheck_CE_Index_Check>
 80042c0:	683a      	ldr	r2, [r7, #0]
 80042c2:	4618      	mov	r0, r3
 80042c4:	68fb      	ldr	r3, [r7, #12]
 80042c6:	685b      	ldr	r3, [r3, #4]
 80042c8:	3324      	adds	r3, #36	; 0x24
 80042ca:	681b      	ldr	r3, [r3, #0]
 80042cc:	b2d9      	uxtb	r1, r3
 80042ce:	1b43      	subs	r3, r0, r5
 80042d0:	54d1      	strb	r1, [r2, r3]
 80042d2:	69bb      	ldr	r3, [r7, #24]
 80042d4:	f06f 4200 	mvn.w	r2, #2147483648	; 0x80000000
 80042d8:	4293      	cmp	r3, r2
 80042da:	d104      	bne.n	80042e6 <stm32__i2c__master_receive+0x256>
 80042dc:	481f      	ldr	r0, [pc, #124]	; (800435c <stm32__i2c__master_receive+0x2cc>)
 80042de:	f44f 71fb 	mov.w	r1, #502	; 0x1f6
 80042e2:	f006 fbaf 	bl	800aa44 <__gnat_rcheck_CE_Overflow_Check>
 80042e6:	69bb      	ldr	r3, [r7, #24]
 80042e8:	3301      	adds	r3, #1
 80042ea:	61bb      	str	r3, [r7, #24]
 80042ec:	69fb      	ldr	r3, [r7, #28]
 80042ee:	3b01      	subs	r3, #1
 80042f0:	2b00      	cmp	r3, #0
 80042f2:	da04      	bge.n	80042fe <stm32__i2c__master_receive+0x26e>
 80042f4:	4819      	ldr	r0, [pc, #100]	; (800435c <stm32__i2c__master_receive+0x2cc>)
 80042f6:	f240 11f7 	movw	r1, #503	; 0x1f7
 80042fa:	f006 fbab 	bl	800aa54 <__gnat_rcheck_CE_Range_Check>
 80042fe:	61fb      	str	r3, [r7, #28]
 8004300:	69fb      	ldr	r3, [r7, #28]
 8004302:	2b00      	cmp	r3, #0
 8004304:	d184      	bne.n	8004210 <stm32__i2c__master_receive+0x180>
 8004306:	687b      	ldr	r3, [r7, #4]
 8004308:	681b      	ldr	r3, [r3, #0]
 800430a:	ea4f 74e3 	mov.w	r4, r3, asr #31
 800430e:	4914      	ldr	r1, [pc, #80]	; (8004360 <stm32__i2c__master_receive+0x2d0>)
 8004310:	f04f 0200 	mov.w	r2, #0
 8004314:	18c9      	adds	r1, r1, r3
 8004316:	eb42 0204 	adc.w	r2, r2, r4
 800431a:	687b      	ldr	r3, [r7, #4]
 800431c:	685b      	ldr	r3, [r3, #4]
 800431e:	ea4f 74e3 	mov.w	r4, r3, asr #31
 8004322:	4299      	cmp	r1, r3
 8004324:	eb72 0304 	sbcs.w	r3, r2, r4
 8004328:	da04      	bge.n	8004334 <stm32__i2c__master_receive+0x2a4>
 800432a:	480c      	ldr	r0, [pc, #48]	; (800435c <stm32__i2c__master_receive+0x2cc>)
 800432c:	f44f 71fd 	mov.w	r1, #506	; 0x1fa
 8004330:	f006 fb90 	bl	800aa54 <__gnat_rcheck_CE_Range_Check>
 8004334:	69bb      	ldr	r3, [r7, #24]
 8004336:	687a      	ldr	r2, [r7, #4]
 8004338:	6851      	ldr	r1, [r2, #4]
 800433a:	687a      	ldr	r2, [r7, #4]
 800433c:	6812      	ldr	r2, [r2, #0]
 800433e:	4291      	cmp	r1, r2
 8004340:	db10      	blt.n	8004364 <stm32__i2c__master_receive+0x2d4>
 8004342:	687a      	ldr	r2, [r7, #4]
 8004344:	6852      	ldr	r2, [r2, #4]
 8004346:	4611      	mov	r1, r2
 8004348:	687a      	ldr	r2, [r7, #4]
 800434a:	6812      	ldr	r2, [r2, #0]
 800434c:	1a8a      	subs	r2, r1, r2
 800434e:	3201      	adds	r2, #1
 8004350:	e009      	b.n	8004366 <stm32__i2c__master_receive+0x2d6>
 8004352:	bf00      	nop
 8004354:	0800ee78 	.word	0x0800ee78
 8004358:	0800ee34 	.word	0x0800ee34
 800435c:	0800ee3c 	.word	0x0800ee3c
 8004360:	7ffffffe 	.word	0x7ffffffe
 8004364:	2200      	movs	r2, #0
 8004366:	4293      	cmp	r3, r2
 8004368:	bfb4      	ite	lt
 800436a:	2301      	movlt	r3, #1
 800436c:	2300      	movge	r3, #0
 800436e:	b2db      	uxtb	r3, r3
 8004370:	2b00      	cmp	r3, #0
 8004372:	f43f af4d 	beq.w	8004210 <stm32__i2c__master_receive+0x180>
 8004376:	68fb      	ldr	r3, [r7, #12]
 8004378:	685b      	ldr	r3, [r3, #4]
 800437a:	3318      	adds	r3, #24
 800437c:	681b      	ldr	r3, [r3, #0]
 800437e:	f3c3 13c0 	ubfx	r3, r3, #7, #1
 8004382:	b2db      	uxtb	r3, r3
 8004384:	2b00      	cmp	r3, #0
 8004386:	d001      	beq.n	800438c <stm32__i2c__master_receive+0x2fc>
 8004388:	bf00      	nop
 800438a:	e7f4      	b.n	8004376 <stm32__i2c__master_receive+0x2e6>
 800438c:	687b      	ldr	r3, [r7, #4]
 800438e:	681b      	ldr	r3, [r3, #0]
 8004390:	ea4f 74e3 	mov.w	r4, r3, asr #31
 8004394:	499a      	ldr	r1, [pc, #616]	; (8004600 <stm32__i2c__master_receive+0x570>)
 8004396:	f04f 0200 	mov.w	r2, #0
 800439a:	18c9      	adds	r1, r1, r3
 800439c:	eb42 0204 	adc.w	r2, r2, r4
 80043a0:	687b      	ldr	r3, [r7, #4]
 80043a2:	685b      	ldr	r3, [r3, #4]
 80043a4:	ea4f 74e3 	mov.w	r4, r3, asr #31
 80043a8:	4299      	cmp	r1, r3
 80043aa:	eb72 0304 	sbcs.w	r3, r2, r4
 80043ae:	da04      	bge.n	80043ba <stm32__i2c__master_receive+0x32a>
 80043b0:	4894      	ldr	r0, [pc, #592]	; (8004604 <stm32__i2c__master_receive+0x574>)
 80043b2:	f240 2101 	movw	r1, #513	; 0x201
 80043b6:	f006 fb4d 	bl	800aa54 <__gnat_rcheck_CE_Range_Check>
 80043ba:	687b      	ldr	r3, [r7, #4]
 80043bc:	685a      	ldr	r2, [r3, #4]
 80043be:	687b      	ldr	r3, [r7, #4]
 80043c0:	681b      	ldr	r3, [r3, #0]
 80043c2:	429a      	cmp	r2, r3
 80043c4:	db07      	blt.n	80043d6 <stm32__i2c__master_receive+0x346>
 80043c6:	687b      	ldr	r3, [r7, #4]
 80043c8:	685b      	ldr	r3, [r3, #4]
 80043ca:	461a      	mov	r2, r3
 80043cc:	687b      	ldr	r3, [r7, #4]
 80043ce:	681b      	ldr	r3, [r3, #0]
 80043d0:	1ad3      	subs	r3, r2, r3
 80043d2:	3301      	adds	r3, #1
 80043d4:	e000      	b.n	80043d8 <stm32__i2c__master_receive+0x348>
 80043d6:	2300      	movs	r3, #0
 80043d8:	69ba      	ldr	r2, [r7, #24]
 80043da:	1a9b      	subs	r3, r3, r2
 80043dc:	4619      	mov	r1, r3
 80043de:	687b      	ldr	r3, [r7, #4]
 80043e0:	685a      	ldr	r2, [r3, #4]
 80043e2:	687b      	ldr	r3, [r7, #4]
 80043e4:	681b      	ldr	r3, [r3, #0]
 80043e6:	429a      	cmp	r2, r3
 80043e8:	db07      	blt.n	80043fa <stm32__i2c__master_receive+0x36a>
 80043ea:	687b      	ldr	r3, [r7, #4]
 80043ec:	685b      	ldr	r3, [r3, #4]
 80043ee:	461a      	mov	r2, r3
 80043f0:	687b      	ldr	r3, [r7, #4]
 80043f2:	681b      	ldr	r3, [r3, #0]
 80043f4:	1ad3      	subs	r3, r2, r3
 80043f6:	3301      	adds	r3, #1
 80043f8:	e000      	b.n	80043fc <stm32__i2c__master_receive+0x36c>
 80043fa:	2300      	movs	r3, #0
 80043fc:	4299      	cmp	r1, r3
 80043fe:	dd04      	ble.n	800440a <stm32__i2c__master_receive+0x37a>
 8004400:	4880      	ldr	r0, [pc, #512]	; (8004604 <stm32__i2c__master_receive+0x574>)
 8004402:	f240 2101 	movw	r1, #513	; 0x201
 8004406:	f006 fb1d 	bl	800aa44 <__gnat_rcheck_CE_Overflow_Check>
 800440a:	687b      	ldr	r3, [r7, #4]
 800440c:	685a      	ldr	r2, [r3, #4]
 800440e:	687b      	ldr	r3, [r7, #4]
 8004410:	681b      	ldr	r3, [r3, #0]
 8004412:	429a      	cmp	r2, r3
 8004414:	db08      	blt.n	8004428 <stm32__i2c__master_receive+0x398>
 8004416:	687b      	ldr	r3, [r7, #4]
 8004418:	685b      	ldr	r3, [r3, #4]
 800441a:	461a      	mov	r2, r3
 800441c:	687b      	ldr	r3, [r7, #4]
 800441e:	681b      	ldr	r3, [r3, #0]
 8004420:	1ad3      	subs	r3, r2, r3
 8004422:	3301      	adds	r3, #1
 8004424:	461a      	mov	r2, r3
 8004426:	e000      	b.n	800442a <stm32__i2c__master_receive+0x39a>
 8004428:	2200      	movs	r2, #0
 800442a:	69bb      	ldr	r3, [r7, #24]
 800442c:	1ad3      	subs	r3, r2, r3
 800442e:	2bff      	cmp	r3, #255	; 0xff
 8004430:	bfcc      	ite	gt
 8004432:	2301      	movgt	r3, #1
 8004434:	2300      	movle	r3, #0
 8004436:	b2db      	uxtb	r3, r3
 8004438:	2b00      	cmp	r3, #0
 800443a:	d00b      	beq.n	8004454 <stm32__i2c__master_receive+0x3c4>
 800443c:	897a      	ldrh	r2, [r7, #10]
 800443e:	2300      	movs	r3, #0
 8004440:	9300      	str	r3, [sp, #0]
 8004442:	68f8      	ldr	r0, [r7, #12]
 8004444:	4611      	mov	r1, r2
 8004446:	22ff      	movs	r2, #255	; 0xff
 8004448:	2300      	movs	r3, #0
 800444a:	f7ff fa17 	bl	800387c <stm32__i2c__config_transfer>
 800444e:	23ff      	movs	r3, #255	; 0xff
 8004450:	61fb      	str	r3, [r7, #28]
 8004452:	e6dd      	b.n	8004210 <stm32__i2c__master_receive+0x180>
 8004454:	687b      	ldr	r3, [r7, #4]
 8004456:	681b      	ldr	r3, [r3, #0]
 8004458:	ea4f 74e3 	mov.w	r4, r3, asr #31
 800445c:	4968      	ldr	r1, [pc, #416]	; (8004600 <stm32__i2c__master_receive+0x570>)
 800445e:	f04f 0200 	mov.w	r2, #0
 8004462:	18c9      	adds	r1, r1, r3
 8004464:	eb42 0204 	adc.w	r2, r2, r4
 8004468:	687b      	ldr	r3, [r7, #4]
 800446a:	685b      	ldr	r3, [r3, #4]
 800446c:	ea4f 74e3 	mov.w	r4, r3, asr #31
 8004470:	4299      	cmp	r1, r3
 8004472:	eb72 0304 	sbcs.w	r3, r2, r4
 8004476:	da04      	bge.n	8004482 <stm32__i2c__master_receive+0x3f2>
 8004478:	4862      	ldr	r0, [pc, #392]	; (8004604 <stm32__i2c__master_receive+0x574>)
 800447a:	f240 2107 	movw	r1, #519	; 0x207
 800447e:	f006 fae9 	bl	800aa54 <__gnat_rcheck_CE_Range_Check>
 8004482:	687b      	ldr	r3, [r7, #4]
 8004484:	685a      	ldr	r2, [r3, #4]
 8004486:	687b      	ldr	r3, [r7, #4]
 8004488:	681b      	ldr	r3, [r3, #0]
 800448a:	429a      	cmp	r2, r3
 800448c:	db07      	blt.n	800449e <stm32__i2c__master_receive+0x40e>
 800448e:	687b      	ldr	r3, [r7, #4]
 8004490:	685b      	ldr	r3, [r3, #4]
 8004492:	461a      	mov	r2, r3
 8004494:	687b      	ldr	r3, [r7, #4]
 8004496:	681b      	ldr	r3, [r3, #0]
 8004498:	1ad3      	subs	r3, r2, r3
 800449a:	3301      	adds	r3, #1
 800449c:	e000      	b.n	80044a0 <stm32__i2c__master_receive+0x410>
 800449e:	2300      	movs	r3, #0
 80044a0:	69ba      	ldr	r2, [r7, #24]
 80044a2:	1a9b      	subs	r3, r3, r2
 80044a4:	4619      	mov	r1, r3
 80044a6:	687b      	ldr	r3, [r7, #4]
 80044a8:	685a      	ldr	r2, [r3, #4]
 80044aa:	687b      	ldr	r3, [r7, #4]
 80044ac:	681b      	ldr	r3, [r3, #0]
 80044ae:	429a      	cmp	r2, r3
 80044b0:	db07      	blt.n	80044c2 <stm32__i2c__master_receive+0x432>
 80044b2:	687b      	ldr	r3, [r7, #4]
 80044b4:	685b      	ldr	r3, [r3, #4]
 80044b6:	461a      	mov	r2, r3
 80044b8:	687b      	ldr	r3, [r7, #4]
 80044ba:	681b      	ldr	r3, [r3, #0]
 80044bc:	1ad3      	subs	r3, r2, r3
 80044be:	3301      	adds	r3, #1
 80044c0:	e000      	b.n	80044c4 <stm32__i2c__master_receive+0x434>
 80044c2:	2300      	movs	r3, #0
 80044c4:	4299      	cmp	r1, r3
 80044c6:	dd04      	ble.n	80044d2 <stm32__i2c__master_receive+0x442>
 80044c8:	484e      	ldr	r0, [pc, #312]	; (8004604 <stm32__i2c__master_receive+0x574>)
 80044ca:	f240 2107 	movw	r1, #519	; 0x207
 80044ce:	f006 fab9 	bl	800aa44 <__gnat_rcheck_CE_Overflow_Check>
 80044d2:	687b      	ldr	r3, [r7, #4]
 80044d4:	685a      	ldr	r2, [r3, #4]
 80044d6:	687b      	ldr	r3, [r7, #4]
 80044d8:	681b      	ldr	r3, [r3, #0]
 80044da:	429a      	cmp	r2, r3
 80044dc:	db08      	blt.n	80044f0 <stm32__i2c__master_receive+0x460>
 80044de:	687b      	ldr	r3, [r7, #4]
 80044e0:	685b      	ldr	r3, [r3, #4]
 80044e2:	461a      	mov	r2, r3
 80044e4:	687b      	ldr	r3, [r7, #4]
 80044e6:	681b      	ldr	r3, [r3, #0]
 80044e8:	1ad3      	subs	r3, r2, r3
 80044ea:	3301      	adds	r3, #1
 80044ec:	461a      	mov	r2, r3
 80044ee:	e000      	b.n	80044f2 <stm32__i2c__master_receive+0x462>
 80044f0:	2200      	movs	r2, #0
 80044f2:	69bb      	ldr	r3, [r7, #24]
 80044f4:	1ad3      	subs	r3, r2, r3
 80044f6:	2b00      	cmp	r3, #0
 80044f8:	db01      	blt.n	80044fe <stm32__i2c__master_receive+0x46e>
 80044fa:	2bff      	cmp	r3, #255	; 0xff
 80044fc:	dd04      	ble.n	8004508 <stm32__i2c__master_receive+0x478>
 80044fe:	4841      	ldr	r0, [pc, #260]	; (8004604 <stm32__i2c__master_receive+0x574>)
 8004500:	f240 2107 	movw	r1, #519	; 0x207
 8004504:	f006 faa6 	bl	800aa54 <__gnat_rcheck_CE_Range_Check>
 8004508:	b2da      	uxtb	r2, r3
 800450a:	8979      	ldrh	r1, [r7, #10]
 800450c:	2300      	movs	r3, #0
 800450e:	9300      	str	r3, [sp, #0]
 8004510:	68f8      	ldr	r0, [r7, #12]
 8004512:	2301      	movs	r3, #1
 8004514:	f7ff f9b2 	bl	800387c <stm32__i2c__config_transfer>
 8004518:	687b      	ldr	r3, [r7, #4]
 800451a:	681b      	ldr	r3, [r3, #0]
 800451c:	ea4f 74e3 	mov.w	r4, r3, asr #31
 8004520:	4937      	ldr	r1, [pc, #220]	; (8004600 <stm32__i2c__master_receive+0x570>)
 8004522:	f04f 0200 	mov.w	r2, #0
 8004526:	18c9      	adds	r1, r1, r3
 8004528:	eb42 0204 	adc.w	r2, r2, r4
 800452c:	687b      	ldr	r3, [r7, #4]
 800452e:	685b      	ldr	r3, [r3, #4]
 8004530:	ea4f 74e3 	mov.w	r4, r3, asr #31
 8004534:	4299      	cmp	r1, r3
 8004536:	eb72 0304 	sbcs.w	r3, r2, r4
 800453a:	da04      	bge.n	8004546 <stm32__i2c__master_receive+0x4b6>
 800453c:	4831      	ldr	r0, [pc, #196]	; (8004604 <stm32__i2c__master_receive+0x574>)
 800453e:	f240 2109 	movw	r1, #521	; 0x209
 8004542:	f006 fa87 	bl	800aa54 <__gnat_rcheck_CE_Range_Check>
 8004546:	687b      	ldr	r3, [r7, #4]
 8004548:	685a      	ldr	r2, [r3, #4]
 800454a:	687b      	ldr	r3, [r7, #4]
 800454c:	681b      	ldr	r3, [r3, #0]
 800454e:	429a      	cmp	r2, r3
 8004550:	db07      	blt.n	8004562 <stm32__i2c__master_receive+0x4d2>
 8004552:	687b      	ldr	r3, [r7, #4]
 8004554:	685b      	ldr	r3, [r3, #4]
 8004556:	461a      	mov	r2, r3
 8004558:	687b      	ldr	r3, [r7, #4]
 800455a:	681b      	ldr	r3, [r3, #0]
 800455c:	1ad3      	subs	r3, r2, r3
 800455e:	3301      	adds	r3, #1
 8004560:	e000      	b.n	8004564 <stm32__i2c__master_receive+0x4d4>
 8004562:	2300      	movs	r3, #0
 8004564:	69ba      	ldr	r2, [r7, #24]
 8004566:	1a9b      	subs	r3, r3, r2
 8004568:	4619      	mov	r1, r3
 800456a:	687b      	ldr	r3, [r7, #4]
 800456c:	685a      	ldr	r2, [r3, #4]
 800456e:	687b      	ldr	r3, [r7, #4]
 8004570:	681b      	ldr	r3, [r3, #0]
 8004572:	429a      	cmp	r2, r3
 8004574:	db07      	blt.n	8004586 <stm32__i2c__master_receive+0x4f6>
 8004576:	687b      	ldr	r3, [r7, #4]
 8004578:	685b      	ldr	r3, [r3, #4]
 800457a:	461a      	mov	r2, r3
 800457c:	687b      	ldr	r3, [r7, #4]
 800457e:	681b      	ldr	r3, [r3, #0]
 8004580:	1ad3      	subs	r3, r2, r3
 8004582:	3301      	adds	r3, #1
 8004584:	e000      	b.n	8004588 <stm32__i2c__master_receive+0x4f8>
 8004586:	2300      	movs	r3, #0
 8004588:	4299      	cmp	r1, r3
 800458a:	dd04      	ble.n	8004596 <stm32__i2c__master_receive+0x506>
 800458c:	481d      	ldr	r0, [pc, #116]	; (8004604 <stm32__i2c__master_receive+0x574>)
 800458e:	f240 2109 	movw	r1, #521	; 0x209
 8004592:	f006 fa57 	bl	800aa44 <__gnat_rcheck_CE_Overflow_Check>
 8004596:	687b      	ldr	r3, [r7, #4]
 8004598:	685a      	ldr	r2, [r3, #4]
 800459a:	687b      	ldr	r3, [r7, #4]
 800459c:	681b      	ldr	r3, [r3, #0]
 800459e:	429a      	cmp	r2, r3
 80045a0:	db08      	blt.n	80045b4 <stm32__i2c__master_receive+0x524>
 80045a2:	687b      	ldr	r3, [r7, #4]
 80045a4:	685b      	ldr	r3, [r3, #4]
 80045a6:	461a      	mov	r2, r3
 80045a8:	687b      	ldr	r3, [r7, #4]
 80045aa:	681b      	ldr	r3, [r3, #0]
 80045ac:	1ad3      	subs	r3, r2, r3
 80045ae:	3301      	adds	r3, #1
 80045b0:	461a      	mov	r2, r3
 80045b2:	e000      	b.n	80045b6 <stm32__i2c__master_receive+0x526>
 80045b4:	2200      	movs	r2, #0
 80045b6:	69bb      	ldr	r3, [r7, #24]
 80045b8:	1ad3      	subs	r3, r2, r3
 80045ba:	2b00      	cmp	r3, #0
 80045bc:	da04      	bge.n	80045c8 <stm32__i2c__master_receive+0x538>
 80045be:	4811      	ldr	r0, [pc, #68]	; (8004604 <stm32__i2c__master_receive+0x574>)
 80045c0:	f240 2109 	movw	r1, #521	; 0x209
 80045c4:	f006 fa46 	bl	800aa54 <__gnat_rcheck_CE_Range_Check>
 80045c8:	61fb      	str	r3, [r7, #28]
 80045ca:	e621      	b.n	8004210 <stm32__i2c__master_receive+0x180>
 80045cc:	68f8      	ldr	r0, [r7, #12]
 80045ce:	6b39      	ldr	r1, [r7, #48]	; 0x30
 80045d0:	f7ff fb14 	bl	8003bfc <stm32__i2c__wait_stop_flag>
 80045d4:	4603      	mov	r3, r0
 80045d6:	75fb      	strb	r3, [r7, #23]
 80045d8:	7dfb      	ldrb	r3, [r7, #23]
 80045da:	2b00      	cmp	r3, #0
 80045dc:	d108      	bne.n	80045f0 <stm32__i2c__master_receive+0x560>
 80045de:	68f8      	ldr	r0, [r7, #12]
 80045e0:	f7ff f9c4 	bl	800396c <stm32__i2c__reset_config>
 80045e4:	68fb      	ldr	r3, [r7, #12]
 80045e6:	2201      	movs	r2, #1
 80045e8:	751a      	strb	r2, [r3, #20]
 80045ea:	2300      	movs	r3, #0
 80045ec:	75fb      	strb	r3, [r7, #23]
 80045ee:	e000      	b.n	80045f2 <stm32__i2c__master_receive+0x562>
 80045f0:	bf00      	nop
 80045f2:	7dfb      	ldrb	r3, [r7, #23]
 80045f4:	bf00      	nop
 80045f6:	4618      	mov	r0, r3
 80045f8:	3720      	adds	r7, #32
 80045fa:	46bd      	mov	sp, r7
 80045fc:	bdb0      	pop	{r4, r5, r7, pc}
 80045fe:	bf00      	nop
 8004600:	7ffffffe 	.word	0x7ffffffe
 8004604:	0800ee3c 	.word	0x0800ee3c

08004608 <stm32__i2c__mem_write>:
 8004608:	e92d 4ff0 	stmdb	sp!, {r4, r5, r6, r7, r8, r9, sl, fp, lr}
 800460c:	b08d      	sub	sp, #52	; 0x34
 800460e:	af02      	add	r7, sp, #8
 8004610:	60f8      	str	r0, [r7, #12]
 8004612:	4608      	mov	r0, r1
 8004614:	4611      	mov	r1, r2
 8004616:	461a      	mov	r2, r3
 8004618:	4603      	mov	r3, r0
 800461a:	817b      	strh	r3, [r7, #10]
 800461c:	460b      	mov	r3, r1
 800461e:	813b      	strh	r3, [r7, #8]
 8004620:	4613      	mov	r3, r2
 8004622:	71fb      	strb	r3, [r7, #7]
 8004624:	6d7b      	ldr	r3, [r7, #84]	; 0x54
 8004626:	681c      	ldr	r4, [r3, #0]
 8004628:	6d7b      	ldr	r3, [r7, #84]	; 0x54
 800462a:	685d      	ldr	r5, [r3, #4]
 800462c:	42a5      	cmp	r5, r4
 800462e:	db0d      	blt.n	800464c <stm32__i2c__mem_write+0x44>
 8004630:	4628      	mov	r0, r5
 8004632:	ea4f 71e0 	mov.w	r1, r0, asr #31
 8004636:	4622      	mov	r2, r4
 8004638:	ea4f 73e2 	mov.w	r3, r2, asr #31
 800463c:	1a82      	subs	r2, r0, r2
 800463e:	eb61 0303 	sbc.w	r3, r1, r3
 8004642:	f112 0801 	adds.w	r8, r2, #1
 8004646:	f143 0900 	adc.w	r9, r3, #0
 800464a:	e003      	b.n	8004654 <stm32__i2c__mem_write+0x4c>
 800464c:	f04f 0800 	mov.w	r8, #0
 8004650:	f04f 0900 	mov.w	r9, #0
 8004654:	68f8      	ldr	r0, [r7, #12]
 8004656:	f7ff f8ff 	bl	8003858 <stm32__i2c__is_configured>
 800465a:	4603      	mov	r3, r0
 800465c:	f083 0301 	eor.w	r3, r3, #1
 8004660:	b2db      	uxtb	r3, r3
 8004662:	2b00      	cmp	r3, #0
 8004664:	d007      	beq.n	8004676 <stm32__i2c__mem_write+0x6e>
 8004666:	f8df a37c 	ldr.w	sl, [pc, #892]	; 80049e4 <stm32__i2c__mem_write+0x3dc>
 800466a:	f8df b37c 	ldr.w	fp, [pc, #892]	; 80049e8 <stm32__i2c__mem_write+0x3e0>
 800466e:	4650      	mov	r0, sl
 8004670:	4659      	mov	r1, fp
 8004672:	f006 fdc5 	bl	800b200 <system__assertions__raise_assert_failure>
 8004676:	4626      	mov	r6, r4
 8004678:	2300      	movs	r3, #0
 800467a:	627b      	str	r3, [r7, #36]	; 0x24
 800467c:	2300      	movs	r3, #0
 800467e:	623b      	str	r3, [r7, #32]
 8004680:	f003 fb66 	bl	8007d50 <ada__real_time__clock>
 8004684:	4602      	mov	r2, r0
 8004686:	460b      	mov	r3, r1
 8004688:	e9c7 2306 	strd	r2, r3, [r7, #24]
 800468c:	68fb      	ldr	r3, [r7, #12]
 800468e:	685b      	ldr	r3, [r3, #4]
 8004690:	3318      	adds	r3, #24
 8004692:	681b      	ldr	r3, [r3, #0]
 8004694:	f3c3 33c0 	ubfx	r3, r3, #15, #1
 8004698:	b2db      	uxtb	r3, r3
 800469a:	2b00      	cmp	r3, #0
 800469c:	d018      	beq.n	80046d0 <stm32__i2c__mem_write+0xc8>
 800469e:	f003 fb57 	bl	8007d50 <ada__real_time__clock>
 80046a2:	4602      	mov	r2, r0
 80046a4:	460b      	mov	r3, r1
 80046a6:	4610      	mov	r0, r2
 80046a8:	4619      	mov	r1, r3
 80046aa:	e9d7 2306 	ldrd	r2, r3, [r7, #24]
 80046ae:	f003 fb2d 	bl	8007d0c <ada__real_time__Osubtract__2>
 80046b2:	4682      	mov	sl, r0
 80046b4:	468b      	mov	fp, r1
 80046b6:	6dbb      	ldr	r3, [r7, #88]	; 0x58
 80046b8:	4618      	mov	r0, r3
 80046ba:	f003 fb91 	bl	8007de0 <ada__real_time__milliseconds>
 80046be:	4602      	mov	r2, r0
 80046c0:	460b      	mov	r3, r1
 80046c2:	4552      	cmp	r2, sl
 80046c4:	eb73 030b 	sbcs.w	r3, r3, fp
 80046c8:	dae0      	bge.n	800468c <stm32__i2c__mem_write+0x84>
 80046ca:	2303      	movs	r3, #3
 80046cc:	757b      	strb	r3, [r7, #21]
 80046ce:	e22c      	b.n	8004b2a <stm32__i2c__mem_write+0x522>
 80046d0:	42ac      	cmp	r4, r5
 80046d2:	dd02      	ble.n	80046da <stm32__i2c__mem_write+0xd2>
 80046d4:	2301      	movs	r3, #1
 80046d6:	757b      	strb	r3, [r7, #21]
 80046d8:	e227      	b.n	8004b2a <stm32__i2c__mem_write+0x522>
 80046da:	68fb      	ldr	r3, [r7, #12]
 80046dc:	7d1b      	ldrb	r3, [r3, #20]
 80046de:	2b01      	cmp	r3, #1
 80046e0:	d002      	beq.n	80046e8 <stm32__i2c__mem_write+0xe0>
 80046e2:	2303      	movs	r3, #3
 80046e4:	757b      	strb	r3, [r7, #21]
 80046e6:	e220      	b.n	8004b2a <stm32__i2c__mem_write+0x522>
 80046e8:	68fb      	ldr	r3, [r7, #12]
 80046ea:	2204      	movs	r2, #4
 80046ec:	751a      	strb	r2, [r3, #20]
 80046ee:	79fb      	ldrb	r3, [r7, #7]
 80046f0:	2b01      	cmp	r3, #1
 80046f2:	d904      	bls.n	80046fe <stm32__i2c__mem_write+0xf6>
 80046f4:	48b9      	ldr	r0, [pc, #740]	; (80049dc <stm32__i2c__mem_write+0x3d4>)
 80046f6:	f44f 7111 	mov.w	r1, #580	; 0x244
 80046fa:	f006 f99b 	bl	800aa34 <__gnat_rcheck_CE_Invalid_Data>
 80046fe:	79fb      	ldrb	r3, [r7, #7]
 8004700:	2b00      	cmp	r3, #0
 8004702:	d101      	bne.n	8004708 <stm32__i2c__mem_write+0x100>
 8004704:	2201      	movs	r2, #1
 8004706:	e000      	b.n	800470a <stm32__i2c__mem_write+0x102>
 8004708:	2202      	movs	r2, #2
 800470a:	8979      	ldrh	r1, [r7, #10]
 800470c:	2303      	movs	r3, #3
 800470e:	9300      	str	r3, [sp, #0]
 8004710:	68f8      	ldr	r0, [r7, #12]
 8004712:	2300      	movs	r3, #0
 8004714:	f7ff f8b2 	bl	800387c <stm32__i2c__config_transfer>
 8004718:	68f8      	ldr	r0, [r7, #12]
 800471a:	6db9      	ldr	r1, [r7, #88]	; 0x58
 800471c:	f7ff f9dc 	bl	8003ad8 <stm32__i2c__wait_tx_interrupt_status>
 8004720:	4603      	mov	r3, r0
 8004722:	757b      	strb	r3, [r7, #21]
 8004724:	7d7b      	ldrb	r3, [r7, #21]
 8004726:	2b00      	cmp	r3, #0
 8004728:	d003      	beq.n	8004732 <stm32__i2c__mem_write+0x12a>
 800472a:	68fb      	ldr	r3, [r7, #12]
 800472c:	2201      	movs	r2, #1
 800472e:	751a      	strb	r2, [r3, #20]
 8004730:	e1fb      	b.n	8004b2a <stm32__i2c__mem_write+0x522>
 8004732:	79fb      	ldrb	r3, [r7, #7]
 8004734:	2b01      	cmp	r3, #1
 8004736:	d904      	bls.n	8004742 <stm32__i2c__mem_write+0x13a>
 8004738:	48a8      	ldr	r0, [pc, #672]	; (80049dc <stm32__i2c__mem_write+0x3d4>)
 800473a:	f240 2152 	movw	r1, #594	; 0x252
 800473e:	f006 f979 	bl	800aa34 <__gnat_rcheck_CE_Invalid_Data>
 8004742:	79fb      	ldrb	r3, [r7, #7]
 8004744:	2b00      	cmp	r3, #0
 8004746:	d114      	bne.n	8004772 <stm32__i2c__mem_write+0x16a>
 8004748:	893b      	ldrh	r3, [r7, #8]
 800474a:	2bff      	cmp	r3, #255	; 0xff
 800474c:	d904      	bls.n	8004758 <stm32__i2c__mem_write+0x150>
 800474e:	48a3      	ldr	r0, [pc, #652]	; (80049dc <stm32__i2c__mem_write+0x3d4>)
 8004750:	f44f 7115 	mov.w	r1, #596	; 0x254
 8004754:	f006 f97e 	bl	800aa54 <__gnat_rcheck_CE_Range_Check>
 8004758:	68fb      	ldr	r3, [r7, #12]
 800475a:	685b      	ldr	r3, [r3, #4]
 800475c:	3328      	adds	r3, #40	; 0x28
 800475e:	681b      	ldr	r3, [r3, #0]
 8004760:	893a      	ldrh	r2, [r7, #8]
 8004762:	b2d2      	uxtb	r2, r2
 8004764:	f362 0307 	bfi	r3, r2, #0, #8
 8004768:	68fa      	ldr	r2, [r7, #12]
 800476a:	6852      	ldr	r2, [r2, #4]
 800476c:	3228      	adds	r2, #40	; 0x28
 800476e:	6013      	str	r3, [r2, #0]
 8004770:	e039      	b.n	80047e6 <stm32__i2c__mem_write+0x1de>
 8004772:	893b      	ldrh	r3, [r7, #8]
 8004774:	0a1b      	lsrs	r3, r3, #8
 8004776:	b29b      	uxth	r3, r3
 8004778:	2bff      	cmp	r3, #255	; 0xff
 800477a:	d904      	bls.n	8004786 <stm32__i2c__mem_write+0x17e>
 800477c:	4897      	ldr	r0, [pc, #604]	; (80049dc <stm32__i2c__mem_write+0x3d4>)
 800477e:	f44f 7116 	mov.w	r1, #600	; 0x258
 8004782:	f006 f967 	bl	800aa54 <__gnat_rcheck_CE_Range_Check>
 8004786:	893b      	ldrh	r3, [r7, #8]
 8004788:	0a1b      	lsrs	r3, r3, #8
 800478a:	b29b      	uxth	r3, r3
 800478c:	75fb      	strb	r3, [r7, #23]
 800478e:	893b      	ldrh	r3, [r7, #8]
 8004790:	b2db      	uxtb	r3, r3
 8004792:	b29b      	uxth	r3, r3
 8004794:	2bff      	cmp	r3, #255	; 0xff
 8004796:	d904      	bls.n	80047a2 <stm32__i2c__mem_write+0x19a>
 8004798:	4890      	ldr	r0, [pc, #576]	; (80049dc <stm32__i2c__mem_write+0x3d4>)
 800479a:	f240 2159 	movw	r1, #601	; 0x259
 800479e:	f006 f959 	bl	800aa54 <__gnat_rcheck_CE_Range_Check>
 80047a2:	893b      	ldrh	r3, [r7, #8]
 80047a4:	75bb      	strb	r3, [r7, #22]
 80047a6:	68fb      	ldr	r3, [r7, #12]
 80047a8:	685b      	ldr	r3, [r3, #4]
 80047aa:	3328      	adds	r3, #40	; 0x28
 80047ac:	681b      	ldr	r3, [r3, #0]
 80047ae:	7dfa      	ldrb	r2, [r7, #23]
 80047b0:	f362 0307 	bfi	r3, r2, #0, #8
 80047b4:	68fa      	ldr	r2, [r7, #12]
 80047b6:	6852      	ldr	r2, [r2, #4]
 80047b8:	3228      	adds	r2, #40	; 0x28
 80047ba:	6013      	str	r3, [r2, #0]
 80047bc:	68f8      	ldr	r0, [r7, #12]
 80047be:	6db9      	ldr	r1, [r7, #88]	; 0x58
 80047c0:	f7ff f98a 	bl	8003ad8 <stm32__i2c__wait_tx_interrupt_status>
 80047c4:	4603      	mov	r3, r0
 80047c6:	757b      	strb	r3, [r7, #21]
 80047c8:	7d7b      	ldrb	r3, [r7, #21]
 80047ca:	2b00      	cmp	r3, #0
 80047cc:	f040 81a4 	bne.w	8004b18 <stm32__i2c__mem_write+0x510>
 80047d0:	68fb      	ldr	r3, [r7, #12]
 80047d2:	685b      	ldr	r3, [r3, #4]
 80047d4:	3328      	adds	r3, #40	; 0x28
 80047d6:	681b      	ldr	r3, [r3, #0]
 80047d8:	7dba      	ldrb	r2, [r7, #22]
 80047da:	f362 0307 	bfi	r3, r2, #0, #8
 80047de:	68fa      	ldr	r2, [r7, #12]
 80047e0:	6852      	ldr	r2, [r2, #4]
 80047e2:	3228      	adds	r2, #40	; 0x28
 80047e4:	6013      	str	r3, [r2, #0]
 80047e6:	68f8      	ldr	r0, [r7, #12]
 80047e8:	6db9      	ldr	r1, [r7, #88]	; 0x58
 80047ea:	f7ff f9c5 	bl	8003b78 <stm32__i2c__wait_transfer_complete_reset_flag>
 80047ee:	4603      	mov	r3, r0
 80047f0:	757b      	strb	r3, [r7, #21]
 80047f2:	7d7b      	ldrb	r3, [r7, #21]
 80047f4:	2b00      	cmp	r3, #0
 80047f6:	f040 8191 	bne.w	8004b1c <stm32__i2c__mem_write+0x514>
 80047fa:	4622      	mov	r2, r4
 80047fc:	ea4f 73e2 	mov.w	r3, r2, asr #31
 8004800:	f06f 00fe 	mvn.w	r0, #254	; 0xfe
 8004804:	f06f 4100 	mvn.w	r1, #2147483648	; 0x80000000
 8004808:	4290      	cmp	r0, r2
 800480a:	eb71 0303 	sbcs.w	r3, r1, r3
 800480e:	da04      	bge.n	800481a <stm32__i2c__mem_write+0x212>
 8004810:	4872      	ldr	r0, [pc, #456]	; (80049dc <stm32__i2c__mem_write+0x3d4>)
 8004812:	f240 216d 	movw	r1, #621	; 0x26d
 8004816:	f006 f915 	bl	800aa44 <__gnat_rcheck_CE_Overflow_Check>
 800481a:	4622      	mov	r2, r4
 800481c:	ea4f 73e2 	mov.w	r3, r2, asr #31
 8004820:	f112 00fe 	adds.w	r0, r2, #254	; 0xfe
 8004824:	f143 0100 	adc.w	r1, r3, #0
 8004828:	462a      	mov	r2, r5
 800482a:	ea4f 73e2 	mov.w	r3, r2, asr #31
 800482e:	4290      	cmp	r0, r2
 8004830:	eb71 0303 	sbcs.w	r3, r1, r3
 8004834:	da0b      	bge.n	800484e <stm32__i2c__mem_write+0x246>
 8004836:	897a      	ldrh	r2, [r7, #10]
 8004838:	2300      	movs	r3, #0
 800483a:	9300      	str	r3, [sp, #0]
 800483c:	68f8      	ldr	r0, [r7, #12]
 800483e:	4611      	mov	r1, r2
 8004840:	22ff      	movs	r2, #255	; 0xff
 8004842:	2300      	movs	r3, #0
 8004844:	f7ff f81a 	bl	800387c <stm32__i2c__config_transfer>
 8004848:	23ff      	movs	r3, #255	; 0xff
 800484a:	627b      	str	r3, [r7, #36]	; 0x24
 800484c:	e032      	b.n	80048b4 <stm32__i2c__mem_write+0x2ac>
 800484e:	4622      	mov	r2, r4
 8004850:	ea4f 73e2 	mov.w	r3, r2, asr #31
 8004854:	f112 00fe 	adds.w	r0, r2, #254	; 0xfe
 8004858:	f143 0100 	adc.w	r1, r3, #0
 800485c:	462a      	mov	r2, r5
 800485e:	ea4f 73e2 	mov.w	r3, r2, asr #31
 8004862:	4290      	cmp	r0, r2
 8004864:	eb71 0303 	sbcs.w	r3, r1, r3
 8004868:	da04      	bge.n	8004874 <stm32__i2c__mem_write+0x26c>
 800486a:	485c      	ldr	r0, [pc, #368]	; (80049dc <stm32__i2c__mem_write+0x3d4>)
 800486c:	f240 2173 	movw	r1, #627	; 0x273
 8004870:	f006 f8f0 	bl	800aa54 <__gnat_rcheck_CE_Range_Check>
 8004874:	fa5f f288 	uxtb.w	r2, r8
 8004878:	8979      	ldrh	r1, [r7, #10]
 800487a:	2300      	movs	r3, #0
 800487c:	9300      	str	r3, [sp, #0]
 800487e:	68f8      	ldr	r0, [r7, #12]
 8004880:	2301      	movs	r3, #1
 8004882:	f7fe fffb 	bl	800387c <stm32__i2c__config_transfer>
 8004886:	4622      	mov	r2, r4
 8004888:	ea4f 73e2 	mov.w	r3, r2, asr #31
 800488c:	4854      	ldr	r0, [pc, #336]	; (80049e0 <stm32__i2c__mem_write+0x3d8>)
 800488e:	f04f 0100 	mov.w	r1, #0
 8004892:	1880      	adds	r0, r0, r2
 8004894:	eb41 0103 	adc.w	r1, r1, r3
 8004898:	462a      	mov	r2, r5
 800489a:	ea4f 73e2 	mov.w	r3, r2, asr #31
 800489e:	4290      	cmp	r0, r2
 80048a0:	eb71 0303 	sbcs.w	r3, r1, r3
 80048a4:	da04      	bge.n	80048b0 <stm32__i2c__mem_write+0x2a8>
 80048a6:	484d      	ldr	r0, [pc, #308]	; (80049dc <stm32__i2c__mem_write+0x3d4>)
 80048a8:	f44f 711d 	mov.w	r1, #628	; 0x274
 80048ac:	f006 f8d2 	bl	800aa54 <__gnat_rcheck_CE_Range_Check>
 80048b0:	4643      	mov	r3, r8
 80048b2:	627b      	str	r3, [r7, #36]	; 0x24
 80048b4:	4622      	mov	r2, r4
 80048b6:	ea4f 73e2 	mov.w	r3, r2, asr #31
 80048ba:	4849      	ldr	r0, [pc, #292]	; (80049e0 <stm32__i2c__mem_write+0x3d8>)
 80048bc:	f04f 0100 	mov.w	r1, #0
 80048c0:	1880      	adds	r0, r0, r2
 80048c2:	eb41 0103 	adc.w	r1, r1, r3
 80048c6:	462a      	mov	r2, r5
 80048c8:	ea4f 73e2 	mov.w	r3, r2, asr #31
 80048cc:	4290      	cmp	r0, r2
 80048ce:	eb71 0303 	sbcs.w	r3, r1, r3
 80048d2:	da04      	bge.n	80048de <stm32__i2c__mem_write+0x2d6>
 80048d4:	4841      	ldr	r0, [pc, #260]	; (80049dc <stm32__i2c__mem_write+0x3d4>)
 80048d6:	f44f 711e 	mov.w	r1, #632	; 0x278
 80048da:	f006 f8bb 	bl	800aa54 <__gnat_rcheck_CE_Range_Check>
 80048de:	6a3b      	ldr	r3, [r7, #32]
 80048e0:	4642      	mov	r2, r8
 80048e2:	4293      	cmp	r3, r2
 80048e4:	f280 8106 	bge.w	8004af4 <stm32__i2c__mem_write+0x4ec>
 80048e8:	68f8      	ldr	r0, [r7, #12]
 80048ea:	6db9      	ldr	r1, [r7, #88]	; 0x58
 80048ec:	f7ff f8f4 	bl	8003ad8 <stm32__i2c__wait_tx_interrupt_status>
 80048f0:	4603      	mov	r3, r0
 80048f2:	757b      	strb	r3, [r7, #21]
 80048f4:	7d7b      	ldrb	r3, [r7, #21]
 80048f6:	2b00      	cmp	r3, #0
 80048f8:	f040 8112 	bne.w	8004b20 <stm32__i2c__mem_write+0x518>
 80048fc:	4622      	mov	r2, r4
 80048fe:	6a3b      	ldr	r3, [r7, #32]
 8004900:	4413      	add	r3, r2
 8004902:	42a3      	cmp	r3, r4
 8004904:	da04      	bge.n	8004910 <stm32__i2c__mem_write+0x308>
 8004906:	4835      	ldr	r0, [pc, #212]	; (80049dc <stm32__i2c__mem_write+0x3d4>)
 8004908:	f240 217f 	movw	r1, #639	; 0x27f
 800490c:	f006 f89a 	bl	800aa44 <__gnat_rcheck_CE_Overflow_Check>
 8004910:	6a3b      	ldr	r3, [r7, #32]
 8004912:	4423      	add	r3, r4
 8004914:	429c      	cmp	r4, r3
 8004916:	dc01      	bgt.n	800491c <stm32__i2c__mem_write+0x314>
 8004918:	429d      	cmp	r5, r3
 800491a:	da04      	bge.n	8004926 <stm32__i2c__mem_write+0x31e>
 800491c:	482f      	ldr	r0, [pc, #188]	; (80049dc <stm32__i2c__mem_write+0x3d4>)
 800491e:	f240 217f 	movw	r1, #639	; 0x27f
 8004922:	f006 f87f 	bl	800aa24 <__gnat_rcheck_CE_Index_Check>
 8004926:	68fa      	ldr	r2, [r7, #12]
 8004928:	6852      	ldr	r2, [r2, #4]
 800492a:	3228      	adds	r2, #40	; 0x28
 800492c:	6812      	ldr	r2, [r2, #0]
 800492e:	6d39      	ldr	r1, [r7, #80]	; 0x50
 8004930:	1b9b      	subs	r3, r3, r6
 8004932:	5ccb      	ldrb	r3, [r1, r3]
 8004934:	f363 0207 	bfi	r2, r3, #0, #8
 8004938:	68fb      	ldr	r3, [r7, #12]
 800493a:	685b      	ldr	r3, [r3, #4]
 800493c:	3328      	adds	r3, #40	; 0x28
 800493e:	601a      	str	r2, [r3, #0]
 8004940:	6a3b      	ldr	r3, [r7, #32]
 8004942:	f06f 4200 	mvn.w	r2, #2147483648	; 0x80000000
 8004946:	4293      	cmp	r3, r2
 8004948:	d104      	bne.n	8004954 <stm32__i2c__mem_write+0x34c>
 800494a:	4824      	ldr	r0, [pc, #144]	; (80049dc <stm32__i2c__mem_write+0x3d4>)
 800494c:	f44f 7120 	mov.w	r1, #640	; 0x280
 8004950:	f006 f878 	bl	800aa44 <__gnat_rcheck_CE_Overflow_Check>
 8004954:	6a3b      	ldr	r3, [r7, #32]
 8004956:	3301      	adds	r3, #1
 8004958:	623b      	str	r3, [r7, #32]
 800495a:	6a3a      	ldr	r2, [r7, #32]
 800495c:	6a7b      	ldr	r3, [r7, #36]	; 0x24
 800495e:	429a      	cmp	r2, r3
 8004960:	d1a8      	bne.n	80048b4 <stm32__i2c__mem_write+0x2ac>
 8004962:	4622      	mov	r2, r4
 8004964:	ea4f 73e2 	mov.w	r3, r2, asr #31
 8004968:	481d      	ldr	r0, [pc, #116]	; (80049e0 <stm32__i2c__mem_write+0x3d8>)
 800496a:	f04f 0100 	mov.w	r1, #0
 800496e:	1880      	adds	r0, r0, r2
 8004970:	eb41 0103 	adc.w	r1, r1, r3
 8004974:	462a      	mov	r2, r5
 8004976:	ea4f 73e2 	mov.w	r3, r2, asr #31
 800497a:	4290      	cmp	r0, r2
 800497c:	eb71 0303 	sbcs.w	r3, r1, r3
 8004980:	da04      	bge.n	800498c <stm32__i2c__mem_write+0x384>
 8004982:	4816      	ldr	r0, [pc, #88]	; (80049dc <stm32__i2c__mem_write+0x3d4>)
 8004984:	f240 2183 	movw	r1, #643	; 0x283
 8004988:	f006 f864 	bl	800aa54 <__gnat_rcheck_CE_Range_Check>
 800498c:	6a3b      	ldr	r3, [r7, #32]
 800498e:	4642      	mov	r2, r8
 8004990:	4293      	cmp	r3, r2
 8004992:	bfb4      	ite	lt
 8004994:	2301      	movlt	r3, #1
 8004996:	2300      	movge	r3, #0
 8004998:	b2db      	uxtb	r3, r3
 800499a:	2b00      	cmp	r3, #0
 800499c:	d08a      	beq.n	80048b4 <stm32__i2c__mem_write+0x2ac>
 800499e:	68f8      	ldr	r0, [r7, #12]
 80049a0:	6db9      	ldr	r1, [r7, #88]	; 0x58
 80049a2:	f7ff f8e9 	bl	8003b78 <stm32__i2c__wait_transfer_complete_reset_flag>
 80049a6:	4603      	mov	r3, r0
 80049a8:	757b      	strb	r3, [r7, #21]
 80049aa:	7d7b      	ldrb	r3, [r7, #21]
 80049ac:	2b00      	cmp	r3, #0
 80049ae:	f040 80b9 	bne.w	8004b24 <stm32__i2c__mem_write+0x51c>
 80049b2:	4622      	mov	r2, r4
 80049b4:	ea4f 73e2 	mov.w	r3, r2, asr #31
 80049b8:	4809      	ldr	r0, [pc, #36]	; (80049e0 <stm32__i2c__mem_write+0x3d8>)
 80049ba:	f04f 0100 	mov.w	r1, #0
 80049be:	1880      	adds	r0, r0, r2
 80049c0:	eb41 0103 	adc.w	r1, r1, r3
 80049c4:	462a      	mov	r2, r5
 80049c6:	ea4f 73e2 	mov.w	r3, r2, asr #31
 80049ca:	4290      	cmp	r0, r2
 80049cc:	eb71 0303 	sbcs.w	r3, r1, r3
 80049d0:	da0c      	bge.n	80049ec <stm32__i2c__mem_write+0x3e4>
 80049d2:	4802      	ldr	r0, [pc, #8]	; (80049dc <stm32__i2c__mem_write+0x3d4>)
 80049d4:	f44f 7123 	mov.w	r1, #652	; 0x28c
 80049d8:	f006 f83c 	bl	800aa54 <__gnat_rcheck_CE_Range_Check>
 80049dc:	0800ee3c 	.word	0x0800ee3c
 80049e0:	7ffffffe 	.word	0x7ffffffe
 80049e4:	0800eea4 	.word	0x0800eea4
 80049e8:	0800ee00 	.word	0x0800ee00
 80049ec:	4642      	mov	r2, r8
 80049ee:	6a3b      	ldr	r3, [r7, #32]
 80049f0:	1ad3      	subs	r3, r2, r3
 80049f2:	461a      	mov	r2, r3
 80049f4:	4643      	mov	r3, r8
 80049f6:	429a      	cmp	r2, r3
 80049f8:	dd04      	ble.n	8004a04 <stm32__i2c__mem_write+0x3fc>
 80049fa:	484f      	ldr	r0, [pc, #316]	; (8004b38 <stm32__i2c__mem_write+0x530>)
 80049fc:	f44f 7123 	mov.w	r1, #652	; 0x28c
 8004a00:	f006 f820 	bl	800aa44 <__gnat_rcheck_CE_Overflow_Check>
 8004a04:	4642      	mov	r2, r8
 8004a06:	6a3b      	ldr	r3, [r7, #32]
 8004a08:	1ad3      	subs	r3, r2, r3
 8004a0a:	2bff      	cmp	r3, #255	; 0xff
 8004a0c:	bfcc      	ite	gt
 8004a0e:	2301      	movgt	r3, #1
 8004a10:	2300      	movle	r3, #0
 8004a12:	b2db      	uxtb	r3, r3
 8004a14:	2b00      	cmp	r3, #0
 8004a16:	d00b      	beq.n	8004a30 <stm32__i2c__mem_write+0x428>
 8004a18:	897a      	ldrh	r2, [r7, #10]
 8004a1a:	2300      	movs	r3, #0
 8004a1c:	9300      	str	r3, [sp, #0]
 8004a1e:	68f8      	ldr	r0, [r7, #12]
 8004a20:	4611      	mov	r1, r2
 8004a22:	22ff      	movs	r2, #255	; 0xff
 8004a24:	2300      	movs	r3, #0
 8004a26:	f7fe ff29 	bl	800387c <stm32__i2c__config_transfer>
 8004a2a:	23ff      	movs	r3, #255	; 0xff
 8004a2c:	627b      	str	r3, [r7, #36]	; 0x24
 8004a2e:	e741      	b.n	80048b4 <stm32__i2c__mem_write+0x2ac>
 8004a30:	4622      	mov	r2, r4
 8004a32:	ea4f 73e2 	mov.w	r3, r2, asr #31
 8004a36:	4841      	ldr	r0, [pc, #260]	; (8004b3c <stm32__i2c__mem_write+0x534>)
 8004a38:	f04f 0100 	mov.w	r1, #0
 8004a3c:	1880      	adds	r0, r0, r2
 8004a3e:	eb41 0103 	adc.w	r1, r1, r3
 8004a42:	462a      	mov	r2, r5
 8004a44:	ea4f 73e2 	mov.w	r3, r2, asr #31
 8004a48:	4290      	cmp	r0, r2
 8004a4a:	eb71 0303 	sbcs.w	r3, r1, r3
 8004a4e:	da04      	bge.n	8004a5a <stm32__i2c__mem_write+0x452>
 8004a50:	4839      	ldr	r0, [pc, #228]	; (8004b38 <stm32__i2c__mem_write+0x530>)
 8004a52:	f240 2193 	movw	r1, #659	; 0x293
 8004a56:	f005 fffd 	bl	800aa54 <__gnat_rcheck_CE_Range_Check>
 8004a5a:	4642      	mov	r2, r8
 8004a5c:	6a3b      	ldr	r3, [r7, #32]
 8004a5e:	1ad3      	subs	r3, r2, r3
 8004a60:	461a      	mov	r2, r3
 8004a62:	4643      	mov	r3, r8
 8004a64:	429a      	cmp	r2, r3
 8004a66:	dd04      	ble.n	8004a72 <stm32__i2c__mem_write+0x46a>
 8004a68:	4833      	ldr	r0, [pc, #204]	; (8004b38 <stm32__i2c__mem_write+0x530>)
 8004a6a:	f240 2193 	movw	r1, #659	; 0x293
 8004a6e:	f005 ffe9 	bl	800aa44 <__gnat_rcheck_CE_Overflow_Check>
 8004a72:	4642      	mov	r2, r8
 8004a74:	6a3b      	ldr	r3, [r7, #32]
 8004a76:	1ad3      	subs	r3, r2, r3
 8004a78:	2b00      	cmp	r3, #0
 8004a7a:	db01      	blt.n	8004a80 <stm32__i2c__mem_write+0x478>
 8004a7c:	2bff      	cmp	r3, #255	; 0xff
 8004a7e:	dd04      	ble.n	8004a8a <stm32__i2c__mem_write+0x482>
 8004a80:	482d      	ldr	r0, [pc, #180]	; (8004b38 <stm32__i2c__mem_write+0x530>)
 8004a82:	f240 2193 	movw	r1, #659	; 0x293
 8004a86:	f005 ffe5 	bl	800aa54 <__gnat_rcheck_CE_Range_Check>
 8004a8a:	b2da      	uxtb	r2, r3
 8004a8c:	8979      	ldrh	r1, [r7, #10]
 8004a8e:	2300      	movs	r3, #0
 8004a90:	9300      	str	r3, [sp, #0]
 8004a92:	68f8      	ldr	r0, [r7, #12]
 8004a94:	2301      	movs	r3, #1
 8004a96:	f7fe fef1 	bl	800387c <stm32__i2c__config_transfer>
 8004a9a:	4622      	mov	r2, r4
 8004a9c:	ea4f 73e2 	mov.w	r3, r2, asr #31
 8004aa0:	4826      	ldr	r0, [pc, #152]	; (8004b3c <stm32__i2c__mem_write+0x534>)
 8004aa2:	f04f 0100 	mov.w	r1, #0
 8004aa6:	1880      	adds	r0, r0, r2
 8004aa8:	eb41 0103 	adc.w	r1, r1, r3
 8004aac:	462a      	mov	r2, r5
 8004aae:	ea4f 73e2 	mov.w	r3, r2, asr #31
 8004ab2:	4290      	cmp	r0, r2
 8004ab4:	eb71 0303 	sbcs.w	r3, r1, r3
 8004ab8:	da04      	bge.n	8004ac4 <stm32__i2c__mem_write+0x4bc>
 8004aba:	481f      	ldr	r0, [pc, #124]	; (8004b38 <stm32__i2c__mem_write+0x530>)
 8004abc:	f240 2196 	movw	r1, #662	; 0x296
 8004ac0:	f005 ffc8 	bl	800aa54 <__gnat_rcheck_CE_Range_Check>
 8004ac4:	4642      	mov	r2, r8
 8004ac6:	6a3b      	ldr	r3, [r7, #32]
 8004ac8:	1ad3      	subs	r3, r2, r3
 8004aca:	461a      	mov	r2, r3
 8004acc:	4643      	mov	r3, r8
 8004ace:	429a      	cmp	r2, r3
 8004ad0:	dd04      	ble.n	8004adc <stm32__i2c__mem_write+0x4d4>
 8004ad2:	4819      	ldr	r0, [pc, #100]	; (8004b38 <stm32__i2c__mem_write+0x530>)
 8004ad4:	f240 2196 	movw	r1, #662	; 0x296
 8004ad8:	f005 ffb4 	bl	800aa44 <__gnat_rcheck_CE_Overflow_Check>
 8004adc:	4642      	mov	r2, r8
 8004ade:	6a3b      	ldr	r3, [r7, #32]
 8004ae0:	1ad3      	subs	r3, r2, r3
 8004ae2:	2b00      	cmp	r3, #0
 8004ae4:	da04      	bge.n	8004af0 <stm32__i2c__mem_write+0x4e8>
 8004ae6:	4814      	ldr	r0, [pc, #80]	; (8004b38 <stm32__i2c__mem_write+0x530>)
 8004ae8:	f240 2196 	movw	r1, #662	; 0x296
 8004aec:	f005 ffb2 	bl	800aa54 <__gnat_rcheck_CE_Range_Check>
 8004af0:	627b      	str	r3, [r7, #36]	; 0x24
 8004af2:	e6df      	b.n	80048b4 <stm32__i2c__mem_write+0x2ac>
 8004af4:	68f8      	ldr	r0, [r7, #12]
 8004af6:	6db9      	ldr	r1, [r7, #88]	; 0x58
 8004af8:	f7ff f880 	bl	8003bfc <stm32__i2c__wait_stop_flag>
 8004afc:	4603      	mov	r3, r0
 8004afe:	757b      	strb	r3, [r7, #21]
 8004b00:	7d7b      	ldrb	r3, [r7, #21]
 8004b02:	2b00      	cmp	r3, #0
 8004b04:	d110      	bne.n	8004b28 <stm32__i2c__mem_write+0x520>
 8004b06:	68f8      	ldr	r0, [r7, #12]
 8004b08:	f7fe ff30 	bl	800396c <stm32__i2c__reset_config>
 8004b0c:	68fb      	ldr	r3, [r7, #12]
 8004b0e:	2201      	movs	r2, #1
 8004b10:	751a      	strb	r2, [r3, #20]
 8004b12:	2300      	movs	r3, #0
 8004b14:	757b      	strb	r3, [r7, #21]
 8004b16:	e008      	b.n	8004b2a <stm32__i2c__mem_write+0x522>
 8004b18:	bf00      	nop
 8004b1a:	e006      	b.n	8004b2a <stm32__i2c__mem_write+0x522>
 8004b1c:	bf00      	nop
 8004b1e:	e004      	b.n	8004b2a <stm32__i2c__mem_write+0x522>
 8004b20:	bf00      	nop
 8004b22:	e002      	b.n	8004b2a <stm32__i2c__mem_write+0x522>
 8004b24:	bf00      	nop
 8004b26:	e000      	b.n	8004b2a <stm32__i2c__mem_write+0x522>
 8004b28:	bf00      	nop
 8004b2a:	7d7b      	ldrb	r3, [r7, #21]
 8004b2c:	bf00      	nop
 8004b2e:	4618      	mov	r0, r3
 8004b30:	372c      	adds	r7, #44	; 0x2c
 8004b32:	46bd      	mov	sp, r7
 8004b34:	e8bd 8ff0 	ldmia.w	sp!, {r4, r5, r6, r7, r8, r9, sl, fp, pc}
 8004b38:	0800ee3c 	.word	0x0800ee3c
 8004b3c:	7ffffffe 	.word	0x7ffffffe

08004b40 <stm32__i2c__mem_read>:
 8004b40:	b5f0      	push	{r4, r5, r6, r7, lr}
 8004b42:	b08d      	sub	sp, #52	; 0x34
 8004b44:	af02      	add	r7, sp, #8
 8004b46:	60f8      	str	r0, [r7, #12]
 8004b48:	4608      	mov	r0, r1
 8004b4a:	4611      	mov	r1, r2
 8004b4c:	461a      	mov	r2, r3
 8004b4e:	4603      	mov	r3, r0
 8004b50:	817b      	strh	r3, [r7, #10]
 8004b52:	460b      	mov	r3, r1
 8004b54:	813b      	strh	r3, [r7, #8]
 8004b56:	4613      	mov	r3, r2
 8004b58:	71fb      	strb	r3, [r7, #7]
 8004b5a:	68f8      	ldr	r0, [r7, #12]
 8004b5c:	f7fe fe7c 	bl	8003858 <stm32__i2c__is_configured>
 8004b60:	4603      	mov	r3, r0
 8004b62:	f083 0301 	eor.w	r3, r3, #1
 8004b66:	b2db      	uxtb	r3, r3
 8004b68:	2b00      	cmp	r3, #0
 8004b6a:	d005      	beq.n	8004b78 <stm32__i2c__mem_read+0x38>
 8004b6c:	4ca7      	ldr	r4, [pc, #668]	; (8004e0c <stm32__i2c__mem_read+0x2cc>)
 8004b6e:	4da8      	ldr	r5, [pc, #672]	; (8004e10 <stm32__i2c__mem_read+0x2d0>)
 8004b70:	4620      	mov	r0, r4
 8004b72:	4629      	mov	r1, r5
 8004b74:	f006 fb44 	bl	800b200 <system__assertions__raise_assert_failure>
 8004b78:	6c7b      	ldr	r3, [r7, #68]	; 0x44
 8004b7a:	681b      	ldr	r3, [r3, #0]
 8004b7c:	461e      	mov	r6, r3
 8004b7e:	2300      	movs	r3, #0
 8004b80:	627b      	str	r3, [r7, #36]	; 0x24
 8004b82:	2300      	movs	r3, #0
 8004b84:	623b      	str	r3, [r7, #32]
 8004b86:	f003 f8e3 	bl	8007d50 <ada__real_time__clock>
 8004b8a:	4603      	mov	r3, r0
 8004b8c:	460c      	mov	r4, r1
 8004b8e:	e9c7 3406 	strd	r3, r4, [r7, #24]
 8004b92:	68fb      	ldr	r3, [r7, #12]
 8004b94:	685b      	ldr	r3, [r3, #4]
 8004b96:	3318      	adds	r3, #24
 8004b98:	681b      	ldr	r3, [r3, #0]
 8004b9a:	f3c3 33c0 	ubfx	r3, r3, #15, #1
 8004b9e:	b2db      	uxtb	r3, r3
 8004ba0:	2b00      	cmp	r3, #0
 8004ba2:	d017      	beq.n	8004bd4 <stm32__i2c__mem_read+0x94>
 8004ba4:	f003 f8d4 	bl	8007d50 <ada__real_time__clock>
 8004ba8:	4603      	mov	r3, r0
 8004baa:	460c      	mov	r4, r1
 8004bac:	4618      	mov	r0, r3
 8004bae:	4621      	mov	r1, r4
 8004bb0:	e9d7 2306 	ldrd	r2, r3, [r7, #24]
 8004bb4:	f003 f8aa 	bl	8007d0c <ada__real_time__Osubtract__2>
 8004bb8:	4604      	mov	r4, r0
 8004bba:	460d      	mov	r5, r1
 8004bbc:	6cbb      	ldr	r3, [r7, #72]	; 0x48
 8004bbe:	4618      	mov	r0, r3
 8004bc0:	f003 f90e 	bl	8007de0 <ada__real_time__milliseconds>
 8004bc4:	4602      	mov	r2, r0
 8004bc6:	460b      	mov	r3, r1
 8004bc8:	42a2      	cmp	r2, r4
 8004bca:	41ab      	sbcs	r3, r5
 8004bcc:	dae1      	bge.n	8004b92 <stm32__i2c__mem_read+0x52>
 8004bce:	2303      	movs	r3, #3
 8004bd0:	757b      	strb	r3, [r7, #21]
 8004bd2:	e319      	b.n	8005208 <stm32__i2c__mem_read+0x6c8>
 8004bd4:	6c7b      	ldr	r3, [r7, #68]	; 0x44
 8004bd6:	681a      	ldr	r2, [r3, #0]
 8004bd8:	6c7b      	ldr	r3, [r7, #68]	; 0x44
 8004bda:	685b      	ldr	r3, [r3, #4]
 8004bdc:	429a      	cmp	r2, r3
 8004bde:	dd02      	ble.n	8004be6 <stm32__i2c__mem_read+0xa6>
 8004be0:	2301      	movs	r3, #1
 8004be2:	757b      	strb	r3, [r7, #21]
 8004be4:	e310      	b.n	8005208 <stm32__i2c__mem_read+0x6c8>
 8004be6:	68fb      	ldr	r3, [r7, #12]
 8004be8:	7d1b      	ldrb	r3, [r3, #20]
 8004bea:	2b01      	cmp	r3, #1
 8004bec:	d002      	beq.n	8004bf4 <stm32__i2c__mem_read+0xb4>
 8004bee:	2303      	movs	r3, #3
 8004bf0:	757b      	strb	r3, [r7, #21]
 8004bf2:	e309      	b.n	8005208 <stm32__i2c__mem_read+0x6c8>
 8004bf4:	68fb      	ldr	r3, [r7, #12]
 8004bf6:	2205      	movs	r2, #5
 8004bf8:	751a      	strb	r2, [r3, #20]
 8004bfa:	79fb      	ldrb	r3, [r7, #7]
 8004bfc:	2b01      	cmp	r3, #1
 8004bfe:	d904      	bls.n	8004c0a <stm32__i2c__mem_read+0xca>
 8004c00:	4884      	ldr	r0, [pc, #528]	; (8004e14 <stm32__i2c__mem_read+0x2d4>)
 8004c02:	f240 21d2 	movw	r1, #722	; 0x2d2
 8004c06:	f005 ff15 	bl	800aa34 <__gnat_rcheck_CE_Invalid_Data>
 8004c0a:	79fb      	ldrb	r3, [r7, #7]
 8004c0c:	2b00      	cmp	r3, #0
 8004c0e:	d101      	bne.n	8004c14 <stm32__i2c__mem_read+0xd4>
 8004c10:	2201      	movs	r2, #1
 8004c12:	e000      	b.n	8004c16 <stm32__i2c__mem_read+0xd6>
 8004c14:	2202      	movs	r2, #2
 8004c16:	8979      	ldrh	r1, [r7, #10]
 8004c18:	2303      	movs	r3, #3
 8004c1a:	9300      	str	r3, [sp, #0]
 8004c1c:	68f8      	ldr	r0, [r7, #12]
 8004c1e:	2302      	movs	r3, #2
 8004c20:	f7fe fe2c 	bl	800387c <stm32__i2c__config_transfer>
 8004c24:	68f8      	ldr	r0, [r7, #12]
 8004c26:	6cb9      	ldr	r1, [r7, #72]	; 0x48
 8004c28:	f7fe ff56 	bl	8003ad8 <stm32__i2c__wait_tx_interrupt_status>
 8004c2c:	4603      	mov	r3, r0
 8004c2e:	757b      	strb	r3, [r7, #21]
 8004c30:	7d7b      	ldrb	r3, [r7, #21]
 8004c32:	2b00      	cmp	r3, #0
 8004c34:	f040 82e3 	bne.w	80051fe <stm32__i2c__mem_read+0x6be>
 8004c38:	79fb      	ldrb	r3, [r7, #7]
 8004c3a:	2b01      	cmp	r3, #1
 8004c3c:	d904      	bls.n	8004c48 <stm32__i2c__mem_read+0x108>
 8004c3e:	4875      	ldr	r0, [pc, #468]	; (8004e14 <stm32__i2c__mem_read+0x2d4>)
 8004c40:	f240 21de 	movw	r1, #734	; 0x2de
 8004c44:	f005 fef6 	bl	800aa34 <__gnat_rcheck_CE_Invalid_Data>
 8004c48:	79fb      	ldrb	r3, [r7, #7]
 8004c4a:	2b00      	cmp	r3, #0
 8004c4c:	d114      	bne.n	8004c78 <stm32__i2c__mem_read+0x138>
 8004c4e:	893b      	ldrh	r3, [r7, #8]
 8004c50:	2bff      	cmp	r3, #255	; 0xff
 8004c52:	d904      	bls.n	8004c5e <stm32__i2c__mem_read+0x11e>
 8004c54:	486f      	ldr	r0, [pc, #444]	; (8004e14 <stm32__i2c__mem_read+0x2d4>)
 8004c56:	f44f 7138 	mov.w	r1, #736	; 0x2e0
 8004c5a:	f005 fefb 	bl	800aa54 <__gnat_rcheck_CE_Range_Check>
 8004c5e:	68fb      	ldr	r3, [r7, #12]
 8004c60:	685b      	ldr	r3, [r3, #4]
 8004c62:	3328      	adds	r3, #40	; 0x28
 8004c64:	681b      	ldr	r3, [r3, #0]
 8004c66:	893a      	ldrh	r2, [r7, #8]
 8004c68:	b2d2      	uxtb	r2, r2
 8004c6a:	f362 0307 	bfi	r3, r2, #0, #8
 8004c6e:	68fa      	ldr	r2, [r7, #12]
 8004c70:	6852      	ldr	r2, [r2, #4]
 8004c72:	3228      	adds	r2, #40	; 0x28
 8004c74:	6013      	str	r3, [r2, #0]
 8004c76:	e039      	b.n	8004cec <stm32__i2c__mem_read+0x1ac>
 8004c78:	893b      	ldrh	r3, [r7, #8]
 8004c7a:	0a1b      	lsrs	r3, r3, #8
 8004c7c:	b29b      	uxth	r3, r3
 8004c7e:	2bff      	cmp	r3, #255	; 0xff
 8004c80:	d904      	bls.n	8004c8c <stm32__i2c__mem_read+0x14c>
 8004c82:	4864      	ldr	r0, [pc, #400]	; (8004e14 <stm32__i2c__mem_read+0x2d4>)
 8004c84:	f44f 7139 	mov.w	r1, #740	; 0x2e4
 8004c88:	f005 fee4 	bl	800aa54 <__gnat_rcheck_CE_Range_Check>
 8004c8c:	893b      	ldrh	r3, [r7, #8]
 8004c8e:	0a1b      	lsrs	r3, r3, #8
 8004c90:	b29b      	uxth	r3, r3
 8004c92:	75fb      	strb	r3, [r7, #23]
 8004c94:	893b      	ldrh	r3, [r7, #8]
 8004c96:	b2db      	uxtb	r3, r3
 8004c98:	b29b      	uxth	r3, r3
 8004c9a:	2bff      	cmp	r3, #255	; 0xff
 8004c9c:	d904      	bls.n	8004ca8 <stm32__i2c__mem_read+0x168>
 8004c9e:	485d      	ldr	r0, [pc, #372]	; (8004e14 <stm32__i2c__mem_read+0x2d4>)
 8004ca0:	f240 21e5 	movw	r1, #741	; 0x2e5
 8004ca4:	f005 fed6 	bl	800aa54 <__gnat_rcheck_CE_Range_Check>
 8004ca8:	893b      	ldrh	r3, [r7, #8]
 8004caa:	75bb      	strb	r3, [r7, #22]
 8004cac:	68fb      	ldr	r3, [r7, #12]
 8004cae:	685b      	ldr	r3, [r3, #4]
 8004cb0:	3328      	adds	r3, #40	; 0x28
 8004cb2:	681b      	ldr	r3, [r3, #0]
 8004cb4:	7dfa      	ldrb	r2, [r7, #23]
 8004cb6:	f362 0307 	bfi	r3, r2, #0, #8
 8004cba:	68fa      	ldr	r2, [r7, #12]
 8004cbc:	6852      	ldr	r2, [r2, #4]
 8004cbe:	3228      	adds	r2, #40	; 0x28
 8004cc0:	6013      	str	r3, [r2, #0]
 8004cc2:	68f8      	ldr	r0, [r7, #12]
 8004cc4:	6cb9      	ldr	r1, [r7, #72]	; 0x48
 8004cc6:	f7fe ff07 	bl	8003ad8 <stm32__i2c__wait_tx_interrupt_status>
 8004cca:	4603      	mov	r3, r0
 8004ccc:	757b      	strb	r3, [r7, #21]
 8004cce:	7d7b      	ldrb	r3, [r7, #21]
 8004cd0:	2b00      	cmp	r3, #0
 8004cd2:	f040 8296 	bne.w	8005202 <stm32__i2c__mem_read+0x6c2>
 8004cd6:	68fb      	ldr	r3, [r7, #12]
 8004cd8:	685b      	ldr	r3, [r3, #4]
 8004cda:	3328      	adds	r3, #40	; 0x28
 8004cdc:	681b      	ldr	r3, [r3, #0]
 8004cde:	7dba      	ldrb	r2, [r7, #22]
 8004ce0:	f362 0307 	bfi	r3, r2, #0, #8
 8004ce4:	68fa      	ldr	r2, [r7, #12]
 8004ce6:	6852      	ldr	r2, [r2, #4]
 8004ce8:	3228      	adds	r2, #40	; 0x28
 8004cea:	6013      	str	r3, [r2, #0]
 8004cec:	68fb      	ldr	r3, [r7, #12]
 8004cee:	685b      	ldr	r3, [r3, #4]
 8004cf0:	3318      	adds	r3, #24
 8004cf2:	681b      	ldr	r3, [r3, #0]
 8004cf4:	f3c3 1380 	ubfx	r3, r3, #6, #1
 8004cf8:	b2db      	uxtb	r3, r3
 8004cfa:	f083 0301 	eor.w	r3, r3, #1
 8004cfe:	b2db      	uxtb	r3, r3
 8004d00:	2b00      	cmp	r3, #0
 8004d02:	d001      	beq.n	8004d08 <stm32__i2c__mem_read+0x1c8>
 8004d04:	bf00      	nop
 8004d06:	e7f1      	b.n	8004cec <stm32__i2c__mem_read+0x1ac>
 8004d08:	6c7b      	ldr	r3, [r7, #68]	; 0x44
 8004d0a:	681b      	ldr	r3, [r3, #0]
 8004d0c:	ea4f 74e3 	mov.w	r4, r3, asr #31
 8004d10:	f06f 01fe 	mvn.w	r1, #254	; 0xfe
 8004d14:	f06f 4200 	mvn.w	r2, #2147483648	; 0x80000000
 8004d18:	4299      	cmp	r1, r3
 8004d1a:	eb72 0304 	sbcs.w	r3, r2, r4
 8004d1e:	da04      	bge.n	8004d2a <stm32__i2c__mem_read+0x1ea>
 8004d20:	483c      	ldr	r0, [pc, #240]	; (8004e14 <stm32__i2c__mem_read+0x2d4>)
 8004d22:	f240 21f9 	movw	r1, #761	; 0x2f9
 8004d26:	f005 fe8d 	bl	800aa44 <__gnat_rcheck_CE_Overflow_Check>
 8004d2a:	6c7b      	ldr	r3, [r7, #68]	; 0x44
 8004d2c:	681b      	ldr	r3, [r3, #0]
 8004d2e:	ea4f 74e3 	mov.w	r4, r3, asr #31
 8004d32:	f113 01fe 	adds.w	r1, r3, #254	; 0xfe
 8004d36:	f144 0200 	adc.w	r2, r4, #0
 8004d3a:	6c7b      	ldr	r3, [r7, #68]	; 0x44
 8004d3c:	685b      	ldr	r3, [r3, #4]
 8004d3e:	ea4f 74e3 	mov.w	r4, r3, asr #31
 8004d42:	4299      	cmp	r1, r3
 8004d44:	eb72 0304 	sbcs.w	r3, r2, r4
 8004d48:	da0b      	bge.n	8004d62 <stm32__i2c__mem_read+0x222>
 8004d4a:	897a      	ldrh	r2, [r7, #10]
 8004d4c:	2302      	movs	r3, #2
 8004d4e:	9300      	str	r3, [sp, #0]
 8004d50:	68f8      	ldr	r0, [r7, #12]
 8004d52:	4611      	mov	r1, r2
 8004d54:	22ff      	movs	r2, #255	; 0xff
 8004d56:	2300      	movs	r3, #0
 8004d58:	f7fe fd90 	bl	800387c <stm32__i2c__config_transfer>
 8004d5c:	23ff      	movs	r3, #255	; 0xff
 8004d5e:	627b      	str	r3, [r7, #36]	; 0x24
 8004d60:	e05e      	b.n	8004e20 <stm32__i2c__mem_read+0x2e0>
 8004d62:	6c7b      	ldr	r3, [r7, #68]	; 0x44
 8004d64:	681b      	ldr	r3, [r3, #0]
 8004d66:	ea4f 74e3 	mov.w	r4, r3, asr #31
 8004d6a:	f113 01fe 	adds.w	r1, r3, #254	; 0xfe
 8004d6e:	f144 0200 	adc.w	r2, r4, #0
 8004d72:	6c7b      	ldr	r3, [r7, #68]	; 0x44
 8004d74:	685b      	ldr	r3, [r3, #4]
 8004d76:	ea4f 74e3 	mov.w	r4, r3, asr #31
 8004d7a:	4299      	cmp	r1, r3
 8004d7c:	eb72 0304 	sbcs.w	r3, r2, r4
 8004d80:	da04      	bge.n	8004d8c <stm32__i2c__mem_read+0x24c>
 8004d82:	4824      	ldr	r0, [pc, #144]	; (8004e14 <stm32__i2c__mem_read+0x2d4>)
 8004d84:	f240 21ff 	movw	r1, #767	; 0x2ff
 8004d88:	f005 fe64 	bl	800aa54 <__gnat_rcheck_CE_Range_Check>
 8004d8c:	6c7b      	ldr	r3, [r7, #68]	; 0x44
 8004d8e:	685a      	ldr	r2, [r3, #4]
 8004d90:	6c7b      	ldr	r3, [r7, #68]	; 0x44
 8004d92:	681b      	ldr	r3, [r3, #0]
 8004d94:	429a      	cmp	r2, r3
 8004d96:	db0a      	blt.n	8004dae <stm32__i2c__mem_read+0x26e>
 8004d98:	6c7b      	ldr	r3, [r7, #68]	; 0x44
 8004d9a:	685b      	ldr	r3, [r3, #4]
 8004d9c:	b2da      	uxtb	r2, r3
 8004d9e:	6c7b      	ldr	r3, [r7, #68]	; 0x44
 8004da0:	681b      	ldr	r3, [r3, #0]
 8004da2:	b2db      	uxtb	r3, r3
 8004da4:	1ad3      	subs	r3, r2, r3
 8004da6:	b2db      	uxtb	r3, r3
 8004da8:	3301      	adds	r3, #1
 8004daa:	b2db      	uxtb	r3, r3
 8004dac:	e000      	b.n	8004db0 <stm32__i2c__mem_read+0x270>
 8004dae:	2300      	movs	r3, #0
 8004db0:	8979      	ldrh	r1, [r7, #10]
 8004db2:	2202      	movs	r2, #2
 8004db4:	9200      	str	r2, [sp, #0]
 8004db6:	68f8      	ldr	r0, [r7, #12]
 8004db8:	461a      	mov	r2, r3
 8004dba:	2301      	movs	r3, #1
 8004dbc:	f7fe fd5e 	bl	800387c <stm32__i2c__config_transfer>
 8004dc0:	6c7b      	ldr	r3, [r7, #68]	; 0x44
 8004dc2:	681b      	ldr	r3, [r3, #0]
 8004dc4:	ea4f 74e3 	mov.w	r4, r3, asr #31
 8004dc8:	4913      	ldr	r1, [pc, #76]	; (8004e18 <stm32__i2c__mem_read+0x2d8>)
 8004dca:	f04f 0200 	mov.w	r2, #0
 8004dce:	18c9      	adds	r1, r1, r3
 8004dd0:	eb42 0204 	adc.w	r2, r2, r4
 8004dd4:	6c7b      	ldr	r3, [r7, #68]	; 0x44
 8004dd6:	685b      	ldr	r3, [r3, #4]
 8004dd8:	ea4f 74e3 	mov.w	r4, r3, asr #31
 8004ddc:	4299      	cmp	r1, r3
 8004dde:	eb72 0304 	sbcs.w	r3, r2, r4
 8004de2:	da04      	bge.n	8004dee <stm32__i2c__mem_read+0x2ae>
 8004de4:	480b      	ldr	r0, [pc, #44]	; (8004e14 <stm32__i2c__mem_read+0x2d4>)
 8004de6:	f44f 7140 	mov.w	r1, #768	; 0x300
 8004dea:	f005 fe33 	bl	800aa54 <__gnat_rcheck_CE_Range_Check>
 8004dee:	6c7b      	ldr	r3, [r7, #68]	; 0x44
 8004df0:	685a      	ldr	r2, [r3, #4]
 8004df2:	6c7b      	ldr	r3, [r7, #68]	; 0x44
 8004df4:	681b      	ldr	r3, [r3, #0]
 8004df6:	429a      	cmp	r2, r3
 8004df8:	db10      	blt.n	8004e1c <stm32__i2c__mem_read+0x2dc>
 8004dfa:	6c7b      	ldr	r3, [r7, #68]	; 0x44
 8004dfc:	685b      	ldr	r3, [r3, #4]
 8004dfe:	461a      	mov	r2, r3
 8004e00:	6c7b      	ldr	r3, [r7, #68]	; 0x44
 8004e02:	681b      	ldr	r3, [r3, #0]
 8004e04:	1ad3      	subs	r3, r2, r3
 8004e06:	3301      	adds	r3, #1
 8004e08:	e009      	b.n	8004e1e <stm32__i2c__mem_read+0x2de>
 8004e0a:	bf00      	nop
 8004e0c:	0800eed0 	.word	0x0800eed0
 8004e10:	0800ee00 	.word	0x0800ee00
 8004e14:	0800ee3c 	.word	0x0800ee3c
 8004e18:	7ffffffe 	.word	0x7ffffffe
 8004e1c:	2300      	movs	r3, #0
 8004e1e:	627b      	str	r3, [r7, #36]	; 0x24
 8004e20:	6c7b      	ldr	r3, [r7, #68]	; 0x44
 8004e22:	681b      	ldr	r3, [r3, #0]
 8004e24:	ea4f 74e3 	mov.w	r4, r3, asr #31
 8004e28:	49a7      	ldr	r1, [pc, #668]	; (80050c8 <stm32__i2c__mem_read+0x588>)
 8004e2a:	f04f 0200 	mov.w	r2, #0
 8004e2e:	18c9      	adds	r1, r1, r3
 8004e30:	eb42 0204 	adc.w	r2, r2, r4
 8004e34:	6c7b      	ldr	r3, [r7, #68]	; 0x44
 8004e36:	685b      	ldr	r3, [r3, #4]
 8004e38:	ea4f 74e3 	mov.w	r4, r3, asr #31
 8004e3c:	4299      	cmp	r1, r3
 8004e3e:	eb72 0304 	sbcs.w	r3, r2, r4
 8004e42:	da04      	bge.n	8004e4e <stm32__i2c__mem_read+0x30e>
 8004e44:	48a1      	ldr	r0, [pc, #644]	; (80050cc <stm32__i2c__mem_read+0x58c>)
 8004e46:	f44f 7141 	mov.w	r1, #772	; 0x304
 8004e4a:	f005 fe03 	bl	800aa54 <__gnat_rcheck_CE_Range_Check>
 8004e4e:	6a3b      	ldr	r3, [r7, #32]
 8004e50:	6c7a      	ldr	r2, [r7, #68]	; 0x44
 8004e52:	6851      	ldr	r1, [r2, #4]
 8004e54:	6c7a      	ldr	r2, [r7, #68]	; 0x44
 8004e56:	6812      	ldr	r2, [r2, #0]
 8004e58:	4291      	cmp	r1, r2
 8004e5a:	db07      	blt.n	8004e6c <stm32__i2c__mem_read+0x32c>
 8004e5c:	6c7a      	ldr	r2, [r7, #68]	; 0x44
 8004e5e:	6852      	ldr	r2, [r2, #4]
 8004e60:	4611      	mov	r1, r2
 8004e62:	6c7a      	ldr	r2, [r7, #68]	; 0x44
 8004e64:	6812      	ldr	r2, [r2, #0]
 8004e66:	1a8a      	subs	r2, r1, r2
 8004e68:	3201      	adds	r2, #1
 8004e6a:	e000      	b.n	8004e6e <stm32__i2c__mem_read+0x32e>
 8004e6c:	2200      	movs	r2, #0
 8004e6e:	4293      	cmp	r3, r2
 8004e70:	f280 81b3 	bge.w	80051da <stm32__i2c__mem_read+0x69a>
 8004e74:	68fb      	ldr	r3, [r7, #12]
 8004e76:	685b      	ldr	r3, [r3, #4]
 8004e78:	3318      	adds	r3, #24
 8004e7a:	681b      	ldr	r3, [r3, #0]
 8004e7c:	f3c3 0380 	ubfx	r3, r3, #2, #1
 8004e80:	b2db      	uxtb	r3, r3
 8004e82:	f083 0301 	eor.w	r3, r3, #1
 8004e86:	b2db      	uxtb	r3, r3
 8004e88:	2b00      	cmp	r3, #0
 8004e8a:	d001      	beq.n	8004e90 <stm32__i2c__mem_read+0x350>
 8004e8c:	bf00      	nop
 8004e8e:	e7f1      	b.n	8004e74 <stm32__i2c__mem_read+0x334>
 8004e90:	6c7b      	ldr	r3, [r7, #68]	; 0x44
 8004e92:	681b      	ldr	r3, [r3, #0]
 8004e94:	461a      	mov	r2, r3
 8004e96:	6a3b      	ldr	r3, [r7, #32]
 8004e98:	4413      	add	r3, r2
 8004e9a:	461a      	mov	r2, r3
 8004e9c:	6c7b      	ldr	r3, [r7, #68]	; 0x44
 8004e9e:	681b      	ldr	r3, [r3, #0]
 8004ea0:	429a      	cmp	r2, r3
 8004ea2:	da04      	bge.n	8004eae <stm32__i2c__mem_read+0x36e>
 8004ea4:	4889      	ldr	r0, [pc, #548]	; (80050cc <stm32__i2c__mem_read+0x58c>)
 8004ea6:	f240 3109 	movw	r1, #777	; 0x309
 8004eaa:	f005 fdcb 	bl	800aa44 <__gnat_rcheck_CE_Overflow_Check>
 8004eae:	6c7b      	ldr	r3, [r7, #68]	; 0x44
 8004eb0:	681a      	ldr	r2, [r3, #0]
 8004eb2:	6a3b      	ldr	r3, [r7, #32]
 8004eb4:	4413      	add	r3, r2
 8004eb6:	6c7a      	ldr	r2, [r7, #68]	; 0x44
 8004eb8:	6812      	ldr	r2, [r2, #0]
 8004eba:	429a      	cmp	r2, r3
 8004ebc:	dc03      	bgt.n	8004ec6 <stm32__i2c__mem_read+0x386>
 8004ebe:	6c7a      	ldr	r2, [r7, #68]	; 0x44
 8004ec0:	6852      	ldr	r2, [r2, #4]
 8004ec2:	429a      	cmp	r2, r3
 8004ec4:	da04      	bge.n	8004ed0 <stm32__i2c__mem_read+0x390>
 8004ec6:	4881      	ldr	r0, [pc, #516]	; (80050cc <stm32__i2c__mem_read+0x58c>)
 8004ec8:	f240 3109 	movw	r1, #777	; 0x309
 8004ecc:	f005 fdaa 	bl	800aa24 <__gnat_rcheck_CE_Index_Check>
 8004ed0:	6c3a      	ldr	r2, [r7, #64]	; 0x40
 8004ed2:	4618      	mov	r0, r3
 8004ed4:	68fb      	ldr	r3, [r7, #12]
 8004ed6:	685b      	ldr	r3, [r3, #4]
 8004ed8:	3324      	adds	r3, #36	; 0x24
 8004eda:	681b      	ldr	r3, [r3, #0]
 8004edc:	b2d9      	uxtb	r1, r3
 8004ede:	1b83      	subs	r3, r0, r6
 8004ee0:	54d1      	strb	r1, [r2, r3]
 8004ee2:	6a3b      	ldr	r3, [r7, #32]
 8004ee4:	f06f 4200 	mvn.w	r2, #2147483648	; 0x80000000
 8004ee8:	4293      	cmp	r3, r2
 8004eea:	d104      	bne.n	8004ef6 <stm32__i2c__mem_read+0x3b6>
 8004eec:	4877      	ldr	r0, [pc, #476]	; (80050cc <stm32__i2c__mem_read+0x58c>)
 8004eee:	f240 310a 	movw	r1, #778	; 0x30a
 8004ef2:	f005 fda7 	bl	800aa44 <__gnat_rcheck_CE_Overflow_Check>
 8004ef6:	6a3b      	ldr	r3, [r7, #32]
 8004ef8:	3301      	adds	r3, #1
 8004efa:	623b      	str	r3, [r7, #32]
 8004efc:	6a7b      	ldr	r3, [r7, #36]	; 0x24
 8004efe:	3b01      	subs	r3, #1
 8004f00:	2b00      	cmp	r3, #0
 8004f02:	da04      	bge.n	8004f0e <stm32__i2c__mem_read+0x3ce>
 8004f04:	4871      	ldr	r0, [pc, #452]	; (80050cc <stm32__i2c__mem_read+0x58c>)
 8004f06:	f240 310b 	movw	r1, #779	; 0x30b
 8004f0a:	f005 fda3 	bl	800aa54 <__gnat_rcheck_CE_Range_Check>
 8004f0e:	627b      	str	r3, [r7, #36]	; 0x24
 8004f10:	6a7b      	ldr	r3, [r7, #36]	; 0x24
 8004f12:	2b00      	cmp	r3, #0
 8004f14:	d184      	bne.n	8004e20 <stm32__i2c__mem_read+0x2e0>
 8004f16:	6c7b      	ldr	r3, [r7, #68]	; 0x44
 8004f18:	681b      	ldr	r3, [r3, #0]
 8004f1a:	ea4f 74e3 	mov.w	r4, r3, asr #31
 8004f1e:	496a      	ldr	r1, [pc, #424]	; (80050c8 <stm32__i2c__mem_read+0x588>)
 8004f20:	f04f 0200 	mov.w	r2, #0
 8004f24:	18c9      	adds	r1, r1, r3
 8004f26:	eb42 0204 	adc.w	r2, r2, r4
 8004f2a:	6c7b      	ldr	r3, [r7, #68]	; 0x44
 8004f2c:	685b      	ldr	r3, [r3, #4]
 8004f2e:	ea4f 74e3 	mov.w	r4, r3, asr #31
 8004f32:	4299      	cmp	r1, r3
 8004f34:	eb72 0304 	sbcs.w	r3, r2, r4
 8004f38:	da04      	bge.n	8004f44 <stm32__i2c__mem_read+0x404>
 8004f3a:	4864      	ldr	r0, [pc, #400]	; (80050cc <stm32__i2c__mem_read+0x58c>)
 8004f3c:	f240 310e 	movw	r1, #782	; 0x30e
 8004f40:	f005 fd88 	bl	800aa54 <__gnat_rcheck_CE_Range_Check>
 8004f44:	6a3b      	ldr	r3, [r7, #32]
 8004f46:	6c7a      	ldr	r2, [r7, #68]	; 0x44
 8004f48:	6851      	ldr	r1, [r2, #4]
 8004f4a:	6c7a      	ldr	r2, [r7, #68]	; 0x44
 8004f4c:	6812      	ldr	r2, [r2, #0]
 8004f4e:	4291      	cmp	r1, r2
 8004f50:	db07      	blt.n	8004f62 <stm32__i2c__mem_read+0x422>
 8004f52:	6c7a      	ldr	r2, [r7, #68]	; 0x44
 8004f54:	6852      	ldr	r2, [r2, #4]
 8004f56:	4611      	mov	r1, r2
 8004f58:	6c7a      	ldr	r2, [r7, #68]	; 0x44
 8004f5a:	6812      	ldr	r2, [r2, #0]
 8004f5c:	1a8a      	subs	r2, r1, r2
 8004f5e:	3201      	adds	r2, #1
 8004f60:	e000      	b.n	8004f64 <stm32__i2c__mem_read+0x424>
 8004f62:	2200      	movs	r2, #0
 8004f64:	4293      	cmp	r3, r2
 8004f66:	bfb4      	ite	lt
 8004f68:	2301      	movlt	r3, #1
 8004f6a:	2300      	movge	r3, #0
 8004f6c:	b2db      	uxtb	r3, r3
 8004f6e:	2b00      	cmp	r3, #0
 8004f70:	f43f af56 	beq.w	8004e20 <stm32__i2c__mem_read+0x2e0>
 8004f74:	68fb      	ldr	r3, [r7, #12]
 8004f76:	685b      	ldr	r3, [r3, #4]
 8004f78:	3318      	adds	r3, #24
 8004f7a:	681b      	ldr	r3, [r3, #0]
 8004f7c:	f3c3 13c0 	ubfx	r3, r3, #7, #1
 8004f80:	b2db      	uxtb	r3, r3
 8004f82:	f083 0301 	eor.w	r3, r3, #1
 8004f86:	b2db      	uxtb	r3, r3
 8004f88:	2b00      	cmp	r3, #0
 8004f8a:	d001      	beq.n	8004f90 <stm32__i2c__mem_read+0x450>
 8004f8c:	bf00      	nop
 8004f8e:	e7f1      	b.n	8004f74 <stm32__i2c__mem_read+0x434>
 8004f90:	6c7b      	ldr	r3, [r7, #68]	; 0x44
 8004f92:	681b      	ldr	r3, [r3, #0]
 8004f94:	ea4f 74e3 	mov.w	r4, r3, asr #31
 8004f98:	494b      	ldr	r1, [pc, #300]	; (80050c8 <stm32__i2c__mem_read+0x588>)
 8004f9a:	f04f 0200 	mov.w	r2, #0
 8004f9e:	18c9      	adds	r1, r1, r3
 8004fa0:	eb42 0204 	adc.w	r2, r2, r4
 8004fa4:	6c7b      	ldr	r3, [r7, #68]	; 0x44
 8004fa6:	685b      	ldr	r3, [r3, #4]
 8004fa8:	ea4f 74e3 	mov.w	r4, r3, asr #31
 8004fac:	4299      	cmp	r1, r3
 8004fae:	eb72 0304 	sbcs.w	r3, r2, r4
 8004fb2:	da04      	bge.n	8004fbe <stm32__i2c__mem_read+0x47e>
 8004fb4:	4845      	ldr	r0, [pc, #276]	; (80050cc <stm32__i2c__mem_read+0x58c>)
 8004fb6:	f240 3115 	movw	r1, #789	; 0x315
 8004fba:	f005 fd4b 	bl	800aa54 <__gnat_rcheck_CE_Range_Check>
 8004fbe:	6c7b      	ldr	r3, [r7, #68]	; 0x44
 8004fc0:	685a      	ldr	r2, [r3, #4]
 8004fc2:	6c7b      	ldr	r3, [r7, #68]	; 0x44
 8004fc4:	681b      	ldr	r3, [r3, #0]
 8004fc6:	429a      	cmp	r2, r3
 8004fc8:	db07      	blt.n	8004fda <stm32__i2c__mem_read+0x49a>
 8004fca:	6c7b      	ldr	r3, [r7, #68]	; 0x44
 8004fcc:	685b      	ldr	r3, [r3, #4]
 8004fce:	461a      	mov	r2, r3
 8004fd0:	6c7b      	ldr	r3, [r7, #68]	; 0x44
 8004fd2:	681b      	ldr	r3, [r3, #0]
 8004fd4:	1ad3      	subs	r3, r2, r3
 8004fd6:	3301      	adds	r3, #1
 8004fd8:	e000      	b.n	8004fdc <stm32__i2c__mem_read+0x49c>
 8004fda:	2300      	movs	r3, #0
 8004fdc:	6a3a      	ldr	r2, [r7, #32]
 8004fde:	1a9b      	subs	r3, r3, r2
 8004fe0:	4619      	mov	r1, r3
 8004fe2:	6c7b      	ldr	r3, [r7, #68]	; 0x44
 8004fe4:	685a      	ldr	r2, [r3, #4]
 8004fe6:	6c7b      	ldr	r3, [r7, #68]	; 0x44
 8004fe8:	681b      	ldr	r3, [r3, #0]
 8004fea:	429a      	cmp	r2, r3
 8004fec:	db07      	blt.n	8004ffe <stm32__i2c__mem_read+0x4be>
 8004fee:	6c7b      	ldr	r3, [r7, #68]	; 0x44
 8004ff0:	685b      	ldr	r3, [r3, #4]
 8004ff2:	461a      	mov	r2, r3
 8004ff4:	6c7b      	ldr	r3, [r7, #68]	; 0x44
 8004ff6:	681b      	ldr	r3, [r3, #0]
 8004ff8:	1ad3      	subs	r3, r2, r3
 8004ffa:	3301      	adds	r3, #1
 8004ffc:	e000      	b.n	8005000 <stm32__i2c__mem_read+0x4c0>
 8004ffe:	2300      	movs	r3, #0
 8005000:	4299      	cmp	r1, r3
 8005002:	dd04      	ble.n	800500e <stm32__i2c__mem_read+0x4ce>
 8005004:	4831      	ldr	r0, [pc, #196]	; (80050cc <stm32__i2c__mem_read+0x58c>)
 8005006:	f240 3115 	movw	r1, #789	; 0x315
 800500a:	f005 fd1b 	bl	800aa44 <__gnat_rcheck_CE_Overflow_Check>
 800500e:	6c7b      	ldr	r3, [r7, #68]	; 0x44
 8005010:	685a      	ldr	r2, [r3, #4]
 8005012:	6c7b      	ldr	r3, [r7, #68]	; 0x44
 8005014:	681b      	ldr	r3, [r3, #0]
 8005016:	429a      	cmp	r2, r3
 8005018:	db08      	blt.n	800502c <stm32__i2c__mem_read+0x4ec>
 800501a:	6c7b      	ldr	r3, [r7, #68]	; 0x44
 800501c:	685b      	ldr	r3, [r3, #4]
 800501e:	461a      	mov	r2, r3
 8005020:	6c7b      	ldr	r3, [r7, #68]	; 0x44
 8005022:	681b      	ldr	r3, [r3, #0]
 8005024:	1ad3      	subs	r3, r2, r3
 8005026:	3301      	adds	r3, #1
 8005028:	461a      	mov	r2, r3
 800502a:	e000      	b.n	800502e <stm32__i2c__mem_read+0x4ee>
 800502c:	2200      	movs	r2, #0
 800502e:	6a3b      	ldr	r3, [r7, #32]
 8005030:	1ad3      	subs	r3, r2, r3
 8005032:	2bff      	cmp	r3, #255	; 0xff
 8005034:	bfcc      	ite	gt
 8005036:	2301      	movgt	r3, #1
 8005038:	2300      	movle	r3, #0
 800503a:	b2db      	uxtb	r3, r3
 800503c:	2b00      	cmp	r3, #0
 800503e:	d00b      	beq.n	8005058 <stm32__i2c__mem_read+0x518>
 8005040:	897a      	ldrh	r2, [r7, #10]
 8005042:	2300      	movs	r3, #0
 8005044:	9300      	str	r3, [sp, #0]
 8005046:	68f8      	ldr	r0, [r7, #12]
 8005048:	4611      	mov	r1, r2
 800504a:	22ff      	movs	r2, #255	; 0xff
 800504c:	2300      	movs	r3, #0
 800504e:	f7fe fc15 	bl	800387c <stm32__i2c__config_transfer>
 8005052:	23ff      	movs	r3, #255	; 0xff
 8005054:	627b      	str	r3, [r7, #36]	; 0x24
 8005056:	e6e3      	b.n	8004e20 <stm32__i2c__mem_read+0x2e0>
 8005058:	6c7b      	ldr	r3, [r7, #68]	; 0x44
 800505a:	681b      	ldr	r3, [r3, #0]
 800505c:	ea4f 74e3 	mov.w	r4, r3, asr #31
 8005060:	4919      	ldr	r1, [pc, #100]	; (80050c8 <stm32__i2c__mem_read+0x588>)
 8005062:	f04f 0200 	mov.w	r2, #0
 8005066:	18c9      	adds	r1, r1, r3
 8005068:	eb42 0204 	adc.w	r2, r2, r4
 800506c:	6c7b      	ldr	r3, [r7, #68]	; 0x44
 800506e:	685b      	ldr	r3, [r3, #4]
 8005070:	ea4f 74e3 	mov.w	r4, r3, asr #31
 8005074:	4299      	cmp	r1, r3
 8005076:	eb72 0304 	sbcs.w	r3, r2, r4
 800507a:	da04      	bge.n	8005086 <stm32__i2c__mem_read+0x546>
 800507c:	4813      	ldr	r0, [pc, #76]	; (80050cc <stm32__i2c__mem_read+0x58c>)
 800507e:	f44f 7147 	mov.w	r1, #796	; 0x31c
 8005082:	f005 fce7 	bl	800aa54 <__gnat_rcheck_CE_Range_Check>
 8005086:	6c7b      	ldr	r3, [r7, #68]	; 0x44
 8005088:	685a      	ldr	r2, [r3, #4]
 800508a:	6c7b      	ldr	r3, [r7, #68]	; 0x44
 800508c:	681b      	ldr	r3, [r3, #0]
 800508e:	429a      	cmp	r2, r3
 8005090:	db07      	blt.n	80050a2 <stm32__i2c__mem_read+0x562>
 8005092:	6c7b      	ldr	r3, [r7, #68]	; 0x44
 8005094:	685b      	ldr	r3, [r3, #4]
 8005096:	461a      	mov	r2, r3
 8005098:	6c7b      	ldr	r3, [r7, #68]	; 0x44
 800509a:	681b      	ldr	r3, [r3, #0]
 800509c:	1ad3      	subs	r3, r2, r3
 800509e:	3301      	adds	r3, #1
 80050a0:	e000      	b.n	80050a4 <stm32__i2c__mem_read+0x564>
 80050a2:	2300      	movs	r3, #0
 80050a4:	6a3a      	ldr	r2, [r7, #32]
 80050a6:	1a9b      	subs	r3, r3, r2
 80050a8:	4619      	mov	r1, r3
 80050aa:	6c7b      	ldr	r3, [r7, #68]	; 0x44
 80050ac:	685a      	ldr	r2, [r3, #4]
 80050ae:	6c7b      	ldr	r3, [r7, #68]	; 0x44
 80050b0:	681b      	ldr	r3, [r3, #0]
 80050b2:	429a      	cmp	r2, r3
 80050b4:	db0c      	blt.n	80050d0 <stm32__i2c__mem_read+0x590>
 80050b6:	6c7b      	ldr	r3, [r7, #68]	; 0x44
 80050b8:	685b      	ldr	r3, [r3, #4]
 80050ba:	461a      	mov	r2, r3
 80050bc:	6c7b      	ldr	r3, [r7, #68]	; 0x44
 80050be:	681b      	ldr	r3, [r3, #0]
 80050c0:	1ad3      	subs	r3, r2, r3
 80050c2:	3301      	adds	r3, #1
 80050c4:	e005      	b.n	80050d2 <stm32__i2c__mem_read+0x592>
 80050c6:	bf00      	nop
 80050c8:	7ffffffe 	.word	0x7ffffffe
 80050cc:	0800ee3c 	.word	0x0800ee3c
 80050d0:	2300      	movs	r3, #0
 80050d2:	4299      	cmp	r1, r3
 80050d4:	dd04      	ble.n	80050e0 <stm32__i2c__mem_read+0x5a0>
 80050d6:	484f      	ldr	r0, [pc, #316]	; (8005214 <stm32__i2c__mem_read+0x6d4>)
 80050d8:	f44f 7147 	mov.w	r1, #796	; 0x31c
 80050dc:	f005 fcb2 	bl	800aa44 <__gnat_rcheck_CE_Overflow_Check>
 80050e0:	6c7b      	ldr	r3, [r7, #68]	; 0x44
 80050e2:	685a      	ldr	r2, [r3, #4]
 80050e4:	6c7b      	ldr	r3, [r7, #68]	; 0x44
 80050e6:	681b      	ldr	r3, [r3, #0]
 80050e8:	429a      	cmp	r2, r3
 80050ea:	db08      	blt.n	80050fe <stm32__i2c__mem_read+0x5be>
 80050ec:	6c7b      	ldr	r3, [r7, #68]	; 0x44
 80050ee:	685b      	ldr	r3, [r3, #4]
 80050f0:	461a      	mov	r2, r3
 80050f2:	6c7b      	ldr	r3, [r7, #68]	; 0x44
 80050f4:	681b      	ldr	r3, [r3, #0]
 80050f6:	1ad3      	subs	r3, r2, r3
 80050f8:	3301      	adds	r3, #1
 80050fa:	461a      	mov	r2, r3
 80050fc:	e000      	b.n	8005100 <stm32__i2c__mem_read+0x5c0>
 80050fe:	2200      	movs	r2, #0
 8005100:	6a3b      	ldr	r3, [r7, #32]
 8005102:	1ad3      	subs	r3, r2, r3
 8005104:	2b00      	cmp	r3, #0
 8005106:	db01      	blt.n	800510c <stm32__i2c__mem_read+0x5cc>
 8005108:	2bff      	cmp	r3, #255	; 0xff
 800510a:	dd04      	ble.n	8005116 <stm32__i2c__mem_read+0x5d6>
 800510c:	4841      	ldr	r0, [pc, #260]	; (8005214 <stm32__i2c__mem_read+0x6d4>)
 800510e:	f44f 7147 	mov.w	r1, #796	; 0x31c
 8005112:	f005 fc9f 	bl	800aa54 <__gnat_rcheck_CE_Range_Check>
 8005116:	b2da      	uxtb	r2, r3
 8005118:	8979      	ldrh	r1, [r7, #10]
 800511a:	2300      	movs	r3, #0
 800511c:	9300      	str	r3, [sp, #0]
 800511e:	68f8      	ldr	r0, [r7, #12]
 8005120:	2301      	movs	r3, #1
 8005122:	f7fe fbab 	bl	800387c <stm32__i2c__config_transfer>
 8005126:	6c7b      	ldr	r3, [r7, #68]	; 0x44
 8005128:	681b      	ldr	r3, [r3, #0]
 800512a:	ea4f 74e3 	mov.w	r4, r3, asr #31
 800512e:	493a      	ldr	r1, [pc, #232]	; (8005218 <stm32__i2c__mem_read+0x6d8>)
 8005130:	f04f 0200 	mov.w	r2, #0
 8005134:	18c9      	adds	r1, r1, r3
 8005136:	eb42 0204 	adc.w	r2, r2, r4
 800513a:	6c7b      	ldr	r3, [r7, #68]	; 0x44
 800513c:	685b      	ldr	r3, [r3, #4]
 800513e:	ea4f 74e3 	mov.w	r4, r3, asr #31
 8005142:	4299      	cmp	r1, r3
 8005144:	eb72 0304 	sbcs.w	r3, r2, r4
 8005148:	da04      	bge.n	8005154 <stm32__i2c__mem_read+0x614>
 800514a:	4832      	ldr	r0, [pc, #200]	; (8005214 <stm32__i2c__mem_read+0x6d4>)
 800514c:	f240 311f 	movw	r1, #799	; 0x31f
 8005150:	f005 fc80 	bl	800aa54 <__gnat_rcheck_CE_Range_Check>
 8005154:	6c7b      	ldr	r3, [r7, #68]	; 0x44
 8005156:	685a      	ldr	r2, [r3, #4]
 8005158:	6c7b      	ldr	r3, [r7, #68]	; 0x44
 800515a:	681b      	ldr	r3, [r3, #0]
 800515c:	429a      	cmp	r2, r3
 800515e:	db07      	blt.n	8005170 <stm32__i2c__mem_read+0x630>
 8005160:	6c7b      	ldr	r3, [r7, #68]	; 0x44
 8005162:	685b      	ldr	r3, [r3, #4]
 8005164:	461a      	mov	r2, r3
 8005166:	6c7b      	ldr	r3, [r7, #68]	; 0x44
 8005168:	681b      	ldr	r3, [r3, #0]
 800516a:	1ad3      	subs	r3, r2, r3
 800516c:	3301      	adds	r3, #1
 800516e:	e000      	b.n	8005172 <stm32__i2c__mem_read+0x632>
 8005170:	2300      	movs	r3, #0
 8005172:	6a3a      	ldr	r2, [r7, #32]
 8005174:	1a9b      	subs	r3, r3, r2
 8005176:	4619      	mov	r1, r3
 8005178:	6c7b      	ldr	r3, [r7, #68]	; 0x44
 800517a:	685a      	ldr	r2, [r3, #4]
 800517c:	6c7b      	ldr	r3, [r7, #68]	; 0x44
 800517e:	681b      	ldr	r3, [r3, #0]
 8005180:	429a      	cmp	r2, r3
 8005182:	db07      	blt.n	8005194 <stm32__i2c__mem_read+0x654>
 8005184:	6c7b      	ldr	r3, [r7, #68]	; 0x44
 8005186:	685b      	ldr	r3, [r3, #4]
 8005188:	461a      	mov	r2, r3
 800518a:	6c7b      	ldr	r3, [r7, #68]	; 0x44
 800518c:	681b      	ldr	r3, [r3, #0]
 800518e:	1ad3      	subs	r3, r2, r3
 8005190:	3301      	adds	r3, #1
 8005192:	e000      	b.n	8005196 <stm32__i2c__mem_read+0x656>
 8005194:	2300      	movs	r3, #0
 8005196:	4299      	cmp	r1, r3
 8005198:	dd04      	ble.n	80051a4 <stm32__i2c__mem_read+0x664>
 800519a:	481e      	ldr	r0, [pc, #120]	; (8005214 <stm32__i2c__mem_read+0x6d4>)
 800519c:	f240 311f 	movw	r1, #799	; 0x31f
 80051a0:	f005 fc50 	bl	800aa44 <__gnat_rcheck_CE_Overflow_Check>
 80051a4:	6c7b      	ldr	r3, [r7, #68]	; 0x44
 80051a6:	685a      	ldr	r2, [r3, #4]
 80051a8:	6c7b      	ldr	r3, [r7, #68]	; 0x44
 80051aa:	681b      	ldr	r3, [r3, #0]
 80051ac:	429a      	cmp	r2, r3
 80051ae:	db08      	blt.n	80051c2 <stm32__i2c__mem_read+0x682>
 80051b0:	6c7b      	ldr	r3, [r7, #68]	; 0x44
 80051b2:	685b      	ldr	r3, [r3, #4]
 80051b4:	461a      	mov	r2, r3
 80051b6:	6c7b      	ldr	r3, [r7, #68]	; 0x44
 80051b8:	681b      	ldr	r3, [r3, #0]
 80051ba:	1ad3      	subs	r3, r2, r3
 80051bc:	3301      	adds	r3, #1
 80051be:	461a      	mov	r2, r3
 80051c0:	e000      	b.n	80051c4 <stm32__i2c__mem_read+0x684>
 80051c2:	2200      	movs	r2, #0
 80051c4:	6a3b      	ldr	r3, [r7, #32]
 80051c6:	1ad3      	subs	r3, r2, r3
 80051c8:	2b00      	cmp	r3, #0
 80051ca:	da04      	bge.n	80051d6 <stm32__i2c__mem_read+0x696>
 80051cc:	4811      	ldr	r0, [pc, #68]	; (8005214 <stm32__i2c__mem_read+0x6d4>)
 80051ce:	f240 311f 	movw	r1, #799	; 0x31f
 80051d2:	f005 fc3f 	bl	800aa54 <__gnat_rcheck_CE_Range_Check>
 80051d6:	627b      	str	r3, [r7, #36]	; 0x24
 80051d8:	e622      	b.n	8004e20 <stm32__i2c__mem_read+0x2e0>
 80051da:	68f8      	ldr	r0, [r7, #12]
 80051dc:	6cb9      	ldr	r1, [r7, #72]	; 0x48
 80051de:	f7fe fd0d 	bl	8003bfc <stm32__i2c__wait_stop_flag>
 80051e2:	4603      	mov	r3, r0
 80051e4:	757b      	strb	r3, [r7, #21]
 80051e6:	7d7b      	ldrb	r3, [r7, #21]
 80051e8:	2b00      	cmp	r3, #0
 80051ea:	d10c      	bne.n	8005206 <stm32__i2c__mem_read+0x6c6>
 80051ec:	68f8      	ldr	r0, [r7, #12]
 80051ee:	f7fe fbbd 	bl	800396c <stm32__i2c__reset_config>
 80051f2:	68fb      	ldr	r3, [r7, #12]
 80051f4:	2201      	movs	r2, #1
 80051f6:	751a      	strb	r2, [r3, #20]
 80051f8:	2300      	movs	r3, #0
 80051fa:	757b      	strb	r3, [r7, #21]
 80051fc:	e004      	b.n	8005208 <stm32__i2c__mem_read+0x6c8>
 80051fe:	bf00      	nop
 8005200:	e002      	b.n	8005208 <stm32__i2c__mem_read+0x6c8>
 8005202:	bf00      	nop
 8005204:	e000      	b.n	8005208 <stm32__i2c__mem_read+0x6c8>
 8005206:	bf00      	nop
 8005208:	7d7b      	ldrb	r3, [r7, #21]
 800520a:	bf00      	nop
 800520c:	4618      	mov	r0, r3
 800520e:	372c      	adds	r7, #44	; 0x2c
 8005210:	46bd      	mov	sp, r7
 8005212:	bdf0      	pop	{r4, r5, r6, r7, pc}
 8005214:	0800ee3c 	.word	0x0800ee3c
 8005218:	7ffffffe 	.word	0x7ffffffe

0800521c <stm32__i2c___elabs>:
 800521c:	b580      	push	{r7, lr}
 800521e:	af00      	add	r7, sp, #0
 8005220:	4803      	ldr	r0, [pc, #12]	; (8005230 <stm32__i2c___elabs+0x14>)
 8005222:	f004 fc6f 	bl	8009b04 <ada__tags__check_tsd>
 8005226:	4803      	ldr	r0, [pc, #12]	; (8005234 <stm32__i2c___elabs+0x18>)
 8005228:	f004 fce6 	bl	8009bf8 <ada__tags__register_tag>
 800522c:	bd80      	pop	{r7, pc}
 800522e:	bf00      	nop
 8005230:	0800ed38 	.word	0x0800ed38
 8005234:	0800eda8 	.word	0x0800eda8

08005238 <stm32__gpio__gpio_pinRP>:
 8005238:	b580      	push	{r7, lr}
 800523a:	b082      	sub	sp, #8
 800523c:	af00      	add	r7, sp, #0
 800523e:	4603      	mov	r3, r0
 8005240:	460a      	mov	r2, r1
 8005242:	80fb      	strh	r3, [r7, #6]
 8005244:	4613      	mov	r3, r2
 8005246:	717b      	strb	r3, [r7, #5]
 8005248:	88fb      	ldrh	r3, [r7, #6]
 800524a:	2b80      	cmp	r3, #128	; 0x80
 800524c:	d042      	beq.n	80052d4 <stm32__gpio__gpio_pinRP+0x9c>
 800524e:	2b80      	cmp	r3, #128	; 0x80
 8005250:	d811      	bhi.n	8005276 <stm32__gpio__gpio_pinRP+0x3e>
 8005252:	2b08      	cmp	r3, #8
 8005254:	d036      	beq.n	80052c4 <stm32__gpio__gpio_pinRP+0x8c>
 8005256:	2b08      	cmp	r3, #8
 8005258:	d806      	bhi.n	8005268 <stm32__gpio__gpio_pinRP+0x30>
 800525a:	2b02      	cmp	r3, #2
 800525c:	d02e      	beq.n	80052bc <stm32__gpio__gpio_pinRP+0x84>
 800525e:	2b04      	cmp	r3, #4
 8005260:	d02e      	beq.n	80052c0 <stm32__gpio__gpio_pinRP+0x88>
 8005262:	2b01      	cmp	r3, #1
 8005264:	d028      	beq.n	80052b8 <stm32__gpio__gpio_pinRP+0x80>
 8005266:	e047      	b.n	80052f8 <stm32__gpio__gpio_pinRP+0xc0>
 8005268:	2b20      	cmp	r3, #32
 800526a:	d02f      	beq.n	80052cc <stm32__gpio__gpio_pinRP+0x94>
 800526c:	2b40      	cmp	r3, #64	; 0x40
 800526e:	d02f      	beq.n	80052d0 <stm32__gpio__gpio_pinRP+0x98>
 8005270:	2b10      	cmp	r3, #16
 8005272:	d029      	beq.n	80052c8 <stm32__gpio__gpio_pinRP+0x90>
 8005274:	e040      	b.n	80052f8 <stm32__gpio__gpio_pinRP+0xc0>
 8005276:	f5b3 6f00 	cmp.w	r3, #2048	; 0x800
 800527a:	d033      	beq.n	80052e4 <stm32__gpio__gpio_pinRP+0xac>
 800527c:	f5b3 6f00 	cmp.w	r3, #2048	; 0x800
 8005280:	d809      	bhi.n	8005296 <stm32__gpio__gpio_pinRP+0x5e>
 8005282:	f5b3 7f00 	cmp.w	r3, #512	; 0x200
 8005286:	d029      	beq.n	80052dc <stm32__gpio__gpio_pinRP+0xa4>
 8005288:	f5b3 6f80 	cmp.w	r3, #1024	; 0x400
 800528c:	d028      	beq.n	80052e0 <stm32__gpio__gpio_pinRP+0xa8>
 800528e:	f5b3 7f80 	cmp.w	r3, #256	; 0x100
 8005292:	d021      	beq.n	80052d8 <stm32__gpio__gpio_pinRP+0xa0>
 8005294:	e030      	b.n	80052f8 <stm32__gpio__gpio_pinRP+0xc0>
 8005296:	f5b3 5f00 	cmp.w	r3, #8192	; 0x2000
 800529a:	d027      	beq.n	80052ec <stm32__gpio__gpio_pinRP+0xb4>
 800529c:	f5b3 5f00 	cmp.w	r3, #8192	; 0x2000
 80052a0:	d803      	bhi.n	80052aa <stm32__gpio__gpio_pinRP+0x72>
 80052a2:	f5b3 5f80 	cmp.w	r3, #4096	; 0x1000
 80052a6:	d01f      	beq.n	80052e8 <stm32__gpio__gpio_pinRP+0xb0>
 80052a8:	e026      	b.n	80052f8 <stm32__gpio__gpio_pinRP+0xc0>
 80052aa:	f5b3 4f80 	cmp.w	r3, #16384	; 0x4000
 80052ae:	d01f      	beq.n	80052f0 <stm32__gpio__gpio_pinRP+0xb8>
 80052b0:	f5b3 4f00 	cmp.w	r3, #32768	; 0x8000
 80052b4:	d01e      	beq.n	80052f4 <stm32__gpio__gpio_pinRP+0xbc>
 80052b6:	e01f      	b.n	80052f8 <stm32__gpio__gpio_pinRP+0xc0>
 80052b8:	2300      	movs	r3, #0
 80052ba:	e026      	b.n	800530a <stm32__gpio__gpio_pinRP+0xd2>
 80052bc:	2301      	movs	r3, #1
 80052be:	e024      	b.n	800530a <stm32__gpio__gpio_pinRP+0xd2>
 80052c0:	2302      	movs	r3, #2
 80052c2:	e022      	b.n	800530a <stm32__gpio__gpio_pinRP+0xd2>
 80052c4:	2303      	movs	r3, #3
 80052c6:	e020      	b.n	800530a <stm32__gpio__gpio_pinRP+0xd2>
 80052c8:	2304      	movs	r3, #4
 80052ca:	e01e      	b.n	800530a <stm32__gpio__gpio_pinRP+0xd2>
 80052cc:	2305      	movs	r3, #5
 80052ce:	e01c      	b.n	800530a <stm32__gpio__gpio_pinRP+0xd2>
 80052d0:	2306      	movs	r3, #6
 80052d2:	e01a      	b.n	800530a <stm32__gpio__gpio_pinRP+0xd2>
 80052d4:	2307      	movs	r3, #7
 80052d6:	e018      	b.n	800530a <stm32__gpio__gpio_pinRP+0xd2>
 80052d8:	2308      	movs	r3, #8
 80052da:	e016      	b.n	800530a <stm32__gpio__gpio_pinRP+0xd2>
 80052dc:	2309      	movs	r3, #9
 80052de:	e014      	b.n	800530a <stm32__gpio__gpio_pinRP+0xd2>
 80052e0:	230a      	movs	r3, #10
 80052e2:	e012      	b.n	800530a <stm32__gpio__gpio_pinRP+0xd2>
 80052e4:	230b      	movs	r3, #11
 80052e6:	e010      	b.n	800530a <stm32__gpio__gpio_pinRP+0xd2>
 80052e8:	230c      	movs	r3, #12
 80052ea:	e00e      	b.n	800530a <stm32__gpio__gpio_pinRP+0xd2>
 80052ec:	230d      	movs	r3, #13
 80052ee:	e00c      	b.n	800530a <stm32__gpio__gpio_pinRP+0xd2>
 80052f0:	230e      	movs	r3, #14
 80052f2:	e00a      	b.n	800530a <stm32__gpio__gpio_pinRP+0xd2>
 80052f4:	230f      	movs	r3, #15
 80052f6:	e008      	b.n	800530a <stm32__gpio__gpio_pinRP+0xd2>
 80052f8:	797b      	ldrb	r3, [r7, #5]
 80052fa:	2b00      	cmp	r3, #0
 80052fc:	d003      	beq.n	8005306 <stm32__gpio__gpio_pinRP+0xce>
 80052fe:	4805      	ldr	r0, [pc, #20]	; (8005314 <stm32__gpio__gpio_pinRP+0xdc>)
 8005300:	2135      	movs	r1, #53	; 0x35
 8005302:	f005 fb97 	bl	800aa34 <__gnat_rcheck_CE_Invalid_Data>
 8005306:	f04f 33ff 	mov.w	r3, #4294967295
 800530a:	4618      	mov	r0, r3
 800530c:	3708      	adds	r7, #8
 800530e:	46bd      	mov	sp, r7
 8005310:	bd80      	pop	{r7, pc}
 8005312:	bf00      	nop
 8005314:	0800efbc 	.word	0x0800efbc

08005318 <stm32__gpio__gpio_pointIP>:
 8005318:	b580      	push	{r7, lr}
 800531a:	b084      	sub	sp, #16
 800531c:	af02      	add	r7, sp, #8
 800531e:	6078      	str	r0, [r7, #4]
 8005320:	460b      	mov	r3, r1
 8005322:	70fb      	strb	r3, [r7, #3]
 8005324:	78fb      	ldrb	r3, [r7, #3]
 8005326:	2b00      	cmp	r3, #0
 8005328:	d00b      	beq.n	8005342 <stm32__gpio__gpio_pointIP+0x2a>
 800532a:	687b      	ldr	r3, [r7, #4]
 800532c:	4a08      	ldr	r2, [pc, #32]	; (8005350 <stm32__gpio__gpio_pointIP+0x38>)
 800532e:	601a      	str	r2, [r3, #0]
 8005330:	687a      	ldr	r2, [r7, #4]
 8005332:	2300      	movs	r3, #0
 8005334:	9300      	str	r3, [sp, #0]
 8005336:	4610      	mov	r0, r2
 8005338:	4906      	ldr	r1, [pc, #24]	; (8005354 <stm32__gpio__gpio_pointIP+0x3c>)
 800533a:	2201      	movs	r2, #1
 800533c:	2300      	movs	r3, #0
 800533e:	f004 fc2b 	bl	8009b98 <ada__tags__register_interface_offset>
 8005342:	687b      	ldr	r3, [r7, #4]
 8005344:	2200      	movs	r2, #0
 8005346:	605a      	str	r2, [r3, #4]
 8005348:	3708      	adds	r7, #8
 800534a:	46bd      	mov	sp, r7
 800534c:	bd80      	pop	{r7, pc}
 800534e:	bf00      	nop
 8005350:	0800ef84 	.word	0x0800ef84
 8005354:	0800f3e8 	.word	0x0800f3e8

08005358 <stm32__gpio___size__2>:
 8005358:	b490      	push	{r4, r7}
 800535a:	b082      	sub	sp, #8
 800535c:	af00      	add	r7, sp, #0
 800535e:	6078      	str	r0, [r7, #4]
 8005360:	f04f 0360 	mov.w	r3, #96	; 0x60
 8005364:	f04f 0400 	mov.w	r4, #0
 8005368:	4618      	mov	r0, r3
 800536a:	4621      	mov	r1, r4
 800536c:	3708      	adds	r7, #8
 800536e:	46bd      	mov	sp, r7
 8005370:	bc90      	pop	{r4, r7}
 8005372:	4770      	bx	lr

08005374 <stm32__gpio__gpio_pointSR__2>:
 8005374:	b580      	push	{r7, lr}
 8005376:	b084      	sub	sp, #16
 8005378:	af00      	add	r7, sp, #0
 800537a:	60f8      	str	r0, [r7, #12]
 800537c:	60b9      	str	r1, [r7, #8]
 800537e:	607a      	str	r2, [r7, #4]
 8005380:	68f8      	ldr	r0, [r7, #12]
 8005382:	f004 fc89 	bl	8009c98 <system__stream_attributes__i_as>
 8005386:	4603      	mov	r3, r0
 8005388:	461a      	mov	r2, r3
 800538a:	68bb      	ldr	r3, [r7, #8]
 800538c:	605a      	str	r2, [r3, #4]
 800538e:	68f8      	ldr	r0, [r7, #12]
 8005390:	f004 fcd6 	bl	8009d40 <system__stream_attributes__i_su>
 8005394:	4603      	mov	r3, r0
 8005396:	461a      	mov	r2, r3
 8005398:	68bb      	ldr	r3, [r7, #8]
 800539a:	811a      	strh	r2, [r3, #8]
 800539c:	3710      	adds	r7, #16
 800539e:	46bd      	mov	sp, r7
 80053a0:	bd80      	pop	{r7, pc}
 80053a2:	bf00      	nop

080053a4 <stm32__gpio__gpio_pointSW__2>:
 80053a4:	b580      	push	{r7, lr}
 80053a6:	b084      	sub	sp, #16
 80053a8:	af00      	add	r7, sp, #0
 80053aa:	60f8      	str	r0, [r7, #12]
 80053ac:	60b9      	str	r1, [r7, #8]
 80053ae:	607a      	str	r2, [r7, #4]
 80053b0:	68bb      	ldr	r3, [r7, #8]
 80053b2:	68f8      	ldr	r0, [r7, #12]
 80053b4:	6859      	ldr	r1, [r3, #4]
 80053b6:	f004 fcfb 	bl	8009db0 <system__stream_attributes__w_as>
 80053ba:	68bb      	ldr	r3, [r7, #8]
 80053bc:	891b      	ldrh	r3, [r3, #8]
 80053be:	68f8      	ldr	r0, [r7, #12]
 80053c0:	4619      	mov	r1, r3
 80053c2:	f004 fd21 	bl	8009e08 <system__stream_attributes__w_su>
 80053c6:	3710      	adds	r7, #16
 80053c8:	46bd      	mov	sp, r7
 80053ca:	bd80      	pop	{r7, pc}

080053cc <stm32__gpio__gpio_pointSI__2>:
 80053cc:	b5b0      	push	{r4, r5, r7, lr}
 80053ce:	b086      	sub	sp, #24
 80053d0:	af00      	add	r7, sp, #0
 80053d2:	6078      	str	r0, [r7, #4]
 80053d4:	6039      	str	r1, [r7, #0]
 80053d6:	f107 030c 	add.w	r3, r7, #12
 80053da:	4618      	mov	r0, r3
 80053dc:	2101      	movs	r1, #1
 80053de:	f7ff ff9b 	bl	8005318 <stm32__gpio__gpio_pointIP>
 80053e2:	f107 030c 	add.w	r3, r7, #12
 80053e6:	6878      	ldr	r0, [r7, #4]
 80053e8:	4619      	mov	r1, r3
 80053ea:	683a      	ldr	r2, [r7, #0]
 80053ec:	f7ff ffc2 	bl	8005374 <stm32__gpio__gpio_pointSR__2>
 80053f0:	200c      	movs	r0, #12
 80053f2:	f005 fea5 	bl	800b140 <system__secondary_stack__ss_allocate>
 80053f6:	4605      	mov	r5, r0
 80053f8:	462b      	mov	r3, r5
 80053fa:	461c      	mov	r4, r3
 80053fc:	f107 030c 	add.w	r3, r7, #12
 8005400:	e893 0007 	ldmia.w	r3, {r0, r1, r2}
 8005404:	e884 0007 	stmia.w	r4, {r0, r1, r2}
 8005408:	462b      	mov	r3, r5
 800540a:	4618      	mov	r0, r3
 800540c:	3718      	adds	r7, #24
 800540e:	46bd      	mov	sp, r7
 8005410:	bdb0      	pop	{r4, r5, r7, pc}
 8005412:	bf00      	nop

08005414 <stm32__gpio__gpio_pointSO__2>:
 8005414:	b580      	push	{r7, lr}
 8005416:	b084      	sub	sp, #16
 8005418:	af00      	add	r7, sp, #0
 800541a:	60f8      	str	r0, [r7, #12]
 800541c:	60b9      	str	r1, [r7, #8]
 800541e:	607a      	str	r2, [r7, #4]
 8005420:	68f8      	ldr	r0, [r7, #12]
 8005422:	68b9      	ldr	r1, [r7, #8]
 8005424:	687a      	ldr	r2, [r7, #4]
 8005426:	f7ff ffbd 	bl	80053a4 <stm32__gpio__gpio_pointSW__2>
 800542a:	3710      	adds	r7, #16
 800542c:	46bd      	mov	sp, r7
 800542e:	bd80      	pop	{r7, pc}

08005430 <stm32__gpio__Oeq>:
 8005430:	b480      	push	{r7}
 8005432:	b083      	sub	sp, #12
 8005434:	af00      	add	r7, sp, #0
 8005436:	6078      	str	r0, [r7, #4]
 8005438:	6039      	str	r1, [r7, #0]
 800543a:	687b      	ldr	r3, [r7, #4]
 800543c:	685a      	ldr	r2, [r3, #4]
 800543e:	683b      	ldr	r3, [r7, #0]
 8005440:	685b      	ldr	r3, [r3, #4]
 8005442:	429a      	cmp	r2, r3
 8005444:	d107      	bne.n	8005456 <stm32__gpio__Oeq+0x26>
 8005446:	687b      	ldr	r3, [r7, #4]
 8005448:	891a      	ldrh	r2, [r3, #8]
 800544a:	683b      	ldr	r3, [r7, #0]
 800544c:	891b      	ldrh	r3, [r3, #8]
 800544e:	429a      	cmp	r2, r3
 8005450:	d101      	bne.n	8005456 <stm32__gpio__Oeq+0x26>
 8005452:	2301      	movs	r3, #1
 8005454:	e000      	b.n	8005458 <stm32__gpio__Oeq+0x28>
 8005456:	2300      	movs	r3, #0
 8005458:	4618      	mov	r0, r3
 800545a:	370c      	adds	r7, #12
 800545c:	46bd      	mov	sp, r7
 800545e:	f85d 7b04 	ldr.w	r7, [sp], #4
 8005462:	4770      	bx	lr

08005464 <stm32__gpio___assign>:
 8005464:	b490      	push	{r4, r7}
 8005466:	b0ec      	sub	sp, #432	; 0x1b0
 8005468:	af00      	add	r7, sp, #0
 800546a:	1d3b      	adds	r3, r7, #4
 800546c:	6018      	str	r0, [r3, #0]
 800546e:	463b      	mov	r3, r7
 8005470:	6019      	str	r1, [r3, #0]
 8005472:	1d3b      	adds	r3, r7, #4
 8005474:	681a      	ldr	r2, [r3, #0]
 8005476:	463b      	mov	r3, r7
 8005478:	681b      	ldr	r3, [r3, #0]
 800547a:	429a      	cmp	r2, r3
 800547c:	d00d      	beq.n	800549a <stm32__gpio___assign+0x36>
 800547e:	1d3b      	adds	r3, r7, #4
 8005480:	681b      	ldr	r3, [r3, #0]
 8005482:	681c      	ldr	r4, [r3, #0]
 8005484:	1d3b      	adds	r3, r7, #4
 8005486:	6819      	ldr	r1, [r3, #0]
 8005488:	463b      	mov	r3, r7
 800548a:	681a      	ldr	r2, [r3, #0]
 800548c:	460b      	mov	r3, r1
 800548e:	ca07      	ldmia	r2, {r0, r1, r2}
 8005490:	e883 0007 	stmia.w	r3, {r0, r1, r2}
 8005494:	1d3b      	adds	r3, r7, #4
 8005496:	681b      	ldr	r3, [r3, #0]
 8005498:	601c      	str	r4, [r3, #0]
 800549a:	f507 77d8 	add.w	r7, r7, #432	; 0x1b0
 800549e:	46bd      	mov	sp, r7
 80054a0:	bc90      	pop	{r4, r7}
 80054a2:	4770      	bx	lr

080054a4 <stm32__gpio__gpio_pointDA>:
 80054a4:	b480      	push	{r7}
 80054a6:	b083      	sub	sp, #12
 80054a8:	af00      	add	r7, sp, #0
 80054aa:	6078      	str	r0, [r7, #4]
 80054ac:	460b      	mov	r3, r1
 80054ae:	70fb      	strb	r3, [r7, #3]
 80054b0:	370c      	adds	r7, #12
 80054b2:	46bd      	mov	sp, r7
 80054b4:	f85d 7b04 	ldr.w	r7, [sp], #4
 80054b8:	4770      	bx	lr
 80054ba:	bf00      	nop

080054bc <stm32__gpio__gpio_pointDF__2>:
 80054bc:	b480      	push	{r7}
 80054be:	b083      	sub	sp, #12
 80054c0:	af00      	add	r7, sp, #0
 80054c2:	6078      	str	r0, [r7, #4]
 80054c4:	460b      	mov	r3, r1
 80054c6:	70fb      	strb	r3, [r7, #3]
 80054c8:	370c      	adds	r7, #12
 80054ca:	46bd      	mov	sp, r7
 80054cc:	f85d 7b04 	ldr.w	r7, [sp], #4
 80054d0:	4770      	bx	lr
 80054d2:	bf00      	nop

080054d4 <stm32__gpio__gpio_pointsIP>:
 80054d4:	b5f0      	push	{r4, r5, r6, r7, lr}
 80054d6:	b083      	sub	sp, #12
 80054d8:	af00      	add	r7, sp, #0
 80054da:	e9c7 0100 	strd	r0, r1, [r7]
 80054de:	687b      	ldr	r3, [r7, #4]
 80054e0:	681b      	ldr	r3, [r3, #0]
 80054e2:	461e      	mov	r6, r3
 80054e4:	687b      	ldr	r3, [r7, #4]
 80054e6:	681c      	ldr	r4, [r3, #0]
 80054e8:	687b      	ldr	r3, [r7, #4]
 80054ea:	685d      	ldr	r5, [r3, #4]
 80054ec:	42ac      	cmp	r4, r5
 80054ee:	dc0f      	bgt.n	8005510 <stm32__gpio__gpio_pointsIP+0x3c>
 80054f0:	6839      	ldr	r1, [r7, #0]
 80054f2:	4623      	mov	r3, r4
 80054f4:	1b9a      	subs	r2, r3, r6
 80054f6:	4613      	mov	r3, r2
 80054f8:	005b      	lsls	r3, r3, #1
 80054fa:	4413      	add	r3, r2
 80054fc:	009b      	lsls	r3, r3, #2
 80054fe:	440b      	add	r3, r1
 8005500:	4618      	mov	r0, r3
 8005502:	2101      	movs	r1, #1
 8005504:	f7ff ff08 	bl	8005318 <stm32__gpio__gpio_pointIP>
 8005508:	42ac      	cmp	r4, r5
 800550a:	d001      	beq.n	8005510 <stm32__gpio__gpio_pointsIP+0x3c>
 800550c:	3401      	adds	r4, #1
 800550e:	e7ef      	b.n	80054f0 <stm32__gpio__gpio_pointsIP+0x1c>
 8005510:	370c      	adds	r7, #12
 8005512:	46bd      	mov	sp, r7
 8005514:	bdf0      	pop	{r4, r5, r6, r7, pc}
 8005516:	bf00      	nop

08005518 <stm32__gpio__mode>:
 8005518:	b580      	push	{r7, lr}
 800551a:	b084      	sub	sp, #16
 800551c:	af00      	add	r7, sp, #0
 800551e:	6078      	str	r0, [r7, #4]
 8005520:	687b      	ldr	r3, [r7, #4]
 8005522:	891b      	ldrh	r3, [r3, #8]
 8005524:	4618      	mov	r0, r3
 8005526:	2101      	movs	r1, #1
 8005528:	f7ff fe86 	bl	8005238 <stm32__gpio__gpio_pinRP>
 800552c:	4603      	mov	r3, r0
 800552e:	2b00      	cmp	r3, #0
 8005530:	db01      	blt.n	8005536 <stm32__gpio__mode+0x1e>
 8005532:	2b0f      	cmp	r3, #15
 8005534:	dd03      	ble.n	800553e <stm32__gpio__mode+0x26>
 8005536:	481a      	ldr	r0, [pc, #104]	; (80055a0 <stm32__gpio__mode+0x88>)
 8005538:	2153      	movs	r1, #83	; 0x53
 800553a:	f005 fa8b 	bl	800aa54 <__gnat_rcheck_CE_Range_Check>
 800553e:	687b      	ldr	r3, [r7, #4]
 8005540:	891b      	ldrh	r3, [r3, #8]
 8005542:	4618      	mov	r0, r3
 8005544:	2101      	movs	r1, #1
 8005546:	f7ff fe77 	bl	8005238 <stm32__gpio__gpio_pinRP>
 800554a:	4603      	mov	r3, r0
 800554c:	60fb      	str	r3, [r7, #12]
 800554e:	687b      	ldr	r3, [r7, #4]
 8005550:	685b      	ldr	r3, [r3, #4]
 8005552:	2b00      	cmp	r3, #0
 8005554:	d103      	bne.n	800555e <stm32__gpio__mode+0x46>
 8005556:	4812      	ldr	r0, [pc, #72]	; (80055a0 <stm32__gpio__mode+0x88>)
 8005558:	2155      	movs	r1, #85	; 0x55
 800555a:	f005 fa43 	bl	800a9e4 <__gnat_rcheck_CE_Access_Check>
 800555e:	687b      	ldr	r3, [r7, #4]
 8005560:	685b      	ldr	r3, [r3, #4]
 8005562:	681b      	ldr	r3, [r3, #0]
 8005564:	461a      	mov	r2, r3
 8005566:	68fb      	ldr	r3, [r7, #12]
 8005568:	005b      	lsls	r3, r3, #1
 800556a:	fa22 f303 	lsr.w	r3, r2, r3
 800556e:	b2db      	uxtb	r3, r3
 8005570:	f003 0303 	and.w	r3, r3, #3
 8005574:	b2db      	uxtb	r3, r3
 8005576:	2b03      	cmp	r3, #3
 8005578:	d903      	bls.n	8005582 <stm32__gpio__mode+0x6a>
 800557a:	4809      	ldr	r0, [pc, #36]	; (80055a0 <stm32__gpio__mode+0x88>)
 800557c:	2155      	movs	r1, #85	; 0x55
 800557e:	f005 fa59 	bl	800aa34 <__gnat_rcheck_CE_Invalid_Data>
 8005582:	2b00      	cmp	r3, #0
 8005584:	d003      	beq.n	800558e <stm32__gpio__mode+0x76>
 8005586:	2b01      	cmp	r3, #1
 8005588:	d103      	bne.n	8005592 <stm32__gpio__mode+0x7a>
 800558a:	2302      	movs	r3, #2
 800558c:	e002      	b.n	8005594 <stm32__gpio__mode+0x7c>
 800558e:	2301      	movs	r3, #1
 8005590:	e000      	b.n	8005594 <stm32__gpio__mode+0x7c>
 8005592:	2300      	movs	r3, #0
 8005594:	bf00      	nop
 8005596:	4618      	mov	r0, r3
 8005598:	3710      	adds	r7, #16
 800559a:	46bd      	mov	sp, r7
 800559c:	bd80      	pop	{r7, pc}
 800559e:	bf00      	nop
 80055a0:	0800efcc 	.word	0x0800efcc

080055a4 <stm32__gpio__set_mode>:
 80055a4:	b580      	push	{r7, lr}
 80055a6:	b086      	sub	sp, #24
 80055a8:	af00      	add	r7, sp, #0
 80055aa:	6078      	str	r0, [r7, #4]
 80055ac:	460b      	mov	r3, r1
 80055ae:	70fb      	strb	r3, [r7, #3]
 80055b0:	687b      	ldr	r3, [r7, #4]
 80055b2:	891b      	ldrh	r3, [r3, #8]
 80055b4:	4618      	mov	r0, r3
 80055b6:	2101      	movs	r1, #1
 80055b8:	f7ff fe3e 	bl	8005238 <stm32__gpio__gpio_pinRP>
 80055bc:	4603      	mov	r3, r0
 80055be:	2b00      	cmp	r3, #0
 80055c0:	db01      	blt.n	80055c6 <stm32__gpio__set_mode+0x22>
 80055c2:	2b0f      	cmp	r3, #15
 80055c4:	dd03      	ble.n	80055ce <stm32__gpio__set_mode+0x2a>
 80055c6:	482a      	ldr	r0, [pc, #168]	; (8005670 <stm32__gpio__set_mode+0xcc>)
 80055c8:	2166      	movs	r1, #102	; 0x66
 80055ca:	f005 fa43 	bl	800aa54 <__gnat_rcheck_CE_Range_Check>
 80055ce:	617b      	str	r3, [r7, #20]
 80055d0:	78fb      	ldrb	r3, [r7, #3]
 80055d2:	2b00      	cmp	r3, #0
 80055d4:	d002      	beq.n	80055dc <stm32__gpio__set_mode+0x38>
 80055d6:	78fb      	ldrb	r3, [r7, #3]
 80055d8:	2b02      	cmp	r3, #2
 80055da:	d903      	bls.n	80055e4 <stm32__gpio__set_mode+0x40>
 80055dc:	4824      	ldr	r0, [pc, #144]	; (8005670 <stm32__gpio__set_mode+0xcc>)
 80055de:	2168      	movs	r1, #104	; 0x68
 80055e0:	f005 fa28 	bl	800aa34 <__gnat_rcheck_CE_Invalid_Data>
 80055e4:	78fb      	ldrb	r3, [r7, #3]
 80055e6:	2b02      	cmp	r3, #2
 80055e8:	d121      	bne.n	800562e <stm32__gpio__set_mode+0x8a>
 80055ea:	687b      	ldr	r3, [r7, #4]
 80055ec:	685b      	ldr	r3, [r3, #4]
 80055ee:	2b00      	cmp	r3, #0
 80055f0:	d103      	bne.n	80055fa <stm32__gpio__set_mode+0x56>
 80055f2:	481f      	ldr	r0, [pc, #124]	; (8005670 <stm32__gpio__set_mode+0xcc>)
 80055f4:	216a      	movs	r1, #106	; 0x6a
 80055f6:	f005 f9f5 	bl	800a9e4 <__gnat_rcheck_CE_Access_Check>
 80055fa:	687b      	ldr	r3, [r7, #4]
 80055fc:	6859      	ldr	r1, [r3, #4]
 80055fe:	460b      	mov	r3, r1
 8005600:	681b      	ldr	r3, [r3, #0]
 8005602:	613b      	str	r3, [r7, #16]
 8005604:	460b      	mov	r3, r1
 8005606:	681b      	ldr	r3, [r3, #0]
 8005608:	461a      	mov	r2, r3
 800560a:	693a      	ldr	r2, [r7, #16]
 800560c:	697b      	ldr	r3, [r7, #20]
 800560e:	005b      	lsls	r3, r3, #1
 8005610:	2003      	movs	r0, #3
 8005612:	fa00 f303 	lsl.w	r3, r0, r3
 8005616:	43db      	mvns	r3, r3
 8005618:	401a      	ands	r2, r3
 800561a:	697b      	ldr	r3, [r7, #20]
 800561c:	005b      	lsls	r3, r3, #1
 800561e:	2001      	movs	r0, #1
 8005620:	fa00 f303 	lsl.w	r3, r0, r3
 8005624:	4313      	orrs	r3, r2
 8005626:	461a      	mov	r2, r3
 8005628:	460b      	mov	r3, r1
 800562a:	601a      	str	r2, [r3, #0]
 800562c:	e01a      	b.n	8005664 <stm32__gpio__set_mode+0xc0>
 800562e:	687b      	ldr	r3, [r7, #4]
 8005630:	685b      	ldr	r3, [r3, #4]
 8005632:	2b00      	cmp	r3, #0
 8005634:	d103      	bne.n	800563e <stm32__gpio__set_mode+0x9a>
 8005636:	480e      	ldr	r0, [pc, #56]	; (8005670 <stm32__gpio__set_mode+0xcc>)
 8005638:	216c      	movs	r1, #108	; 0x6c
 800563a:	f005 f9d3 	bl	800a9e4 <__gnat_rcheck_CE_Access_Check>
 800563e:	687b      	ldr	r3, [r7, #4]
 8005640:	6859      	ldr	r1, [r3, #4]
 8005642:	460b      	mov	r3, r1
 8005644:	681b      	ldr	r3, [r3, #0]
 8005646:	60fb      	str	r3, [r7, #12]
 8005648:	460b      	mov	r3, r1
 800564a:	681b      	ldr	r3, [r3, #0]
 800564c:	461a      	mov	r2, r3
 800564e:	68fa      	ldr	r2, [r7, #12]
 8005650:	697b      	ldr	r3, [r7, #20]
 8005652:	005b      	lsls	r3, r3, #1
 8005654:	2003      	movs	r0, #3
 8005656:	fa00 f303 	lsl.w	r3, r0, r3
 800565a:	43db      	mvns	r3, r3
 800565c:	4013      	ands	r3, r2
 800565e:	461a      	mov	r2, r3
 8005660:	460b      	mov	r3, r1
 8005662:	601a      	str	r2, [r3, #0]
 8005664:	2301      	movs	r3, #1
 8005666:	bf00      	nop
 8005668:	4618      	mov	r0, r3
 800566a:	3718      	adds	r7, #24
 800566c:	46bd      	mov	sp, r7
 800566e:	bd80      	pop	{r7, pc}
 8005670:	0800efcc 	.word	0x0800efcc

08005674 <stm32__gpio__pull_resistor>:
 8005674:	b580      	push	{r7, lr}
 8005676:	b084      	sub	sp, #16
 8005678:	af00      	add	r7, sp, #0
 800567a:	6078      	str	r0, [r7, #4]
 800567c:	687b      	ldr	r3, [r7, #4]
 800567e:	891b      	ldrh	r3, [r3, #8]
 8005680:	4618      	mov	r0, r3
 8005682:	2101      	movs	r1, #1
 8005684:	f7ff fdd8 	bl	8005238 <stm32__gpio__gpio_pinRP>
 8005688:	4603      	mov	r3, r0
 800568a:	2b00      	cmp	r3, #0
 800568c:	db01      	blt.n	8005692 <stm32__gpio__pull_resistor+0x1e>
 800568e:	2b0f      	cmp	r3, #15
 8005690:	dd03      	ble.n	800569a <stm32__gpio__pull_resistor+0x26>
 8005692:	4822      	ldr	r0, [pc, #136]	; (800571c <stm32__gpio__pull_resistor+0xa8>)
 8005694:	217a      	movs	r1, #122	; 0x7a
 8005696:	f005 f9dd 	bl	800aa54 <__gnat_rcheck_CE_Range_Check>
 800569a:	687b      	ldr	r3, [r7, #4]
 800569c:	891b      	ldrh	r3, [r3, #8]
 800569e:	4618      	mov	r0, r3
 80056a0:	2101      	movs	r1, #1
 80056a2:	f7ff fdc9 	bl	8005238 <stm32__gpio__gpio_pinRP>
 80056a6:	4603      	mov	r3, r0
 80056a8:	60fb      	str	r3, [r7, #12]
 80056aa:	687b      	ldr	r3, [r7, #4]
 80056ac:	685b      	ldr	r3, [r3, #4]
 80056ae:	2b00      	cmp	r3, #0
 80056b0:	d103      	bne.n	80056ba <stm32__gpio__pull_resistor+0x46>
 80056b2:	481a      	ldr	r0, [pc, #104]	; (800571c <stm32__gpio__pull_resistor+0xa8>)
 80056b4:	217c      	movs	r1, #124	; 0x7c
 80056b6:	f005 f995 	bl	800a9e4 <__gnat_rcheck_CE_Access_Check>
 80056ba:	687b      	ldr	r3, [r7, #4]
 80056bc:	685b      	ldr	r3, [r3, #4]
 80056be:	330c      	adds	r3, #12
 80056c0:	681b      	ldr	r3, [r3, #0]
 80056c2:	461a      	mov	r2, r3
 80056c4:	68fb      	ldr	r3, [r7, #12]
 80056c6:	005b      	lsls	r3, r3, #1
 80056c8:	fa22 f303 	lsr.w	r3, r2, r3
 80056cc:	b2db      	uxtb	r3, r3
 80056ce:	f003 0303 	and.w	r3, r3, #3
 80056d2:	b2db      	uxtb	r3, r3
 80056d4:	2b00      	cmp	r3, #0
 80056d6:	d101      	bne.n	80056dc <stm32__gpio__pull_resistor+0x68>
 80056d8:	2300      	movs	r3, #0
 80056da:	e019      	b.n	8005710 <stm32__gpio__pull_resistor+0x9c>
 80056dc:	687b      	ldr	r3, [r7, #4]
 80056de:	685b      	ldr	r3, [r3, #4]
 80056e0:	2b00      	cmp	r3, #0
 80056e2:	d103      	bne.n	80056ec <stm32__gpio__pull_resistor+0x78>
 80056e4:	480d      	ldr	r0, [pc, #52]	; (800571c <stm32__gpio__pull_resistor+0xa8>)
 80056e6:	217e      	movs	r1, #126	; 0x7e
 80056e8:	f005 f97c 	bl	800a9e4 <__gnat_rcheck_CE_Access_Check>
 80056ec:	687b      	ldr	r3, [r7, #4]
 80056ee:	685b      	ldr	r3, [r3, #4]
 80056f0:	330c      	adds	r3, #12
 80056f2:	681b      	ldr	r3, [r3, #0]
 80056f4:	461a      	mov	r2, r3
 80056f6:	68fb      	ldr	r3, [r7, #12]
 80056f8:	005b      	lsls	r3, r3, #1
 80056fa:	fa22 f303 	lsr.w	r3, r2, r3
 80056fe:	b2db      	uxtb	r3, r3
 8005700:	f003 0303 	and.w	r3, r3, #3
 8005704:	b2db      	uxtb	r3, r3
 8005706:	2b01      	cmp	r3, #1
 8005708:	d101      	bne.n	800570e <stm32__gpio__pull_resistor+0x9a>
 800570a:	2301      	movs	r3, #1
 800570c:	e000      	b.n	8005710 <stm32__gpio__pull_resistor+0x9c>
 800570e:	2302      	movs	r3, #2
 8005710:	bf00      	nop
 8005712:	4618      	mov	r0, r3
 8005714:	3710      	adds	r7, #16
 8005716:	46bd      	mov	sp, r7
 8005718:	bd80      	pop	{r7, pc}
 800571a:	bf00      	nop
 800571c:	0800efcc 	.word	0x0800efcc

08005720 <stm32__gpio__set_pull_resistor>:
 8005720:	b580      	push	{r7, lr}
 8005722:	b086      	sub	sp, #24
 8005724:	af00      	add	r7, sp, #0
 8005726:	6078      	str	r0, [r7, #4]
 8005728:	460b      	mov	r3, r1
 800572a:	70fb      	strb	r3, [r7, #3]
 800572c:	687b      	ldr	r3, [r7, #4]
 800572e:	891b      	ldrh	r3, [r3, #8]
 8005730:	4618      	mov	r0, r3
 8005732:	2101      	movs	r1, #1
 8005734:	f7ff fd80 	bl	8005238 <stm32__gpio__gpio_pinRP>
 8005738:	4603      	mov	r3, r0
 800573a:	2b00      	cmp	r3, #0
 800573c:	db01      	blt.n	8005742 <stm32__gpio__set_pull_resistor+0x22>
 800573e:	2b0f      	cmp	r3, #15
 8005740:	dd03      	ble.n	800574a <stm32__gpio__set_pull_resistor+0x2a>
 8005742:	483c      	ldr	r0, [pc, #240]	; (8005834 <stm32__gpio__set_pull_resistor+0x114>)
 8005744:	218f      	movs	r1, #143	; 0x8f
 8005746:	f005 f985 	bl	800aa54 <__gnat_rcheck_CE_Range_Check>
 800574a:	617b      	str	r3, [r7, #20]
 800574c:	78fb      	ldrb	r3, [r7, #3]
 800574e:	2b02      	cmp	r3, #2
 8005750:	d903      	bls.n	800575a <stm32__gpio__set_pull_resistor+0x3a>
 8005752:	4838      	ldr	r0, [pc, #224]	; (8005834 <stm32__gpio__set_pull_resistor+0x114>)
 8005754:	2191      	movs	r1, #145	; 0x91
 8005756:	f005 f96d 	bl	800aa34 <__gnat_rcheck_CE_Invalid_Data>
 800575a:	78fb      	ldrb	r3, [r7, #3]
 800575c:	2b00      	cmp	r3, #0
 800575e:	d002      	beq.n	8005766 <stm32__gpio__set_pull_resistor+0x46>
 8005760:	2b01      	cmp	r3, #1
 8005762:	d01c      	beq.n	800579e <stm32__gpio__set_pull_resistor+0x7e>
 8005764:	e03d      	b.n	80057e2 <stm32__gpio__set_pull_resistor+0xc2>
 8005766:	687b      	ldr	r3, [r7, #4]
 8005768:	685b      	ldr	r3, [r3, #4]
 800576a:	2b00      	cmp	r3, #0
 800576c:	d103      	bne.n	8005776 <stm32__gpio__set_pull_resistor+0x56>
 800576e:	4831      	ldr	r0, [pc, #196]	; (8005834 <stm32__gpio__set_pull_resistor+0x114>)
 8005770:	2193      	movs	r1, #147	; 0x93
 8005772:	f005 f937 	bl	800a9e4 <__gnat_rcheck_CE_Access_Check>
 8005776:	687b      	ldr	r3, [r7, #4]
 8005778:	685b      	ldr	r3, [r3, #4]
 800577a:	f103 020c 	add.w	r2, r3, #12
 800577e:	6812      	ldr	r2, [r2, #0]
 8005780:	613a      	str	r2, [r7, #16]
 8005782:	f103 020c 	add.w	r2, r3, #12
 8005786:	6812      	ldr	r2, [r2, #0]
 8005788:	6939      	ldr	r1, [r7, #16]
 800578a:	697a      	ldr	r2, [r7, #20]
 800578c:	0052      	lsls	r2, r2, #1
 800578e:	2003      	movs	r0, #3
 8005790:	fa00 f202 	lsl.w	r2, r0, r2
 8005794:	43d2      	mvns	r2, r2
 8005796:	400a      	ands	r2, r1
 8005798:	330c      	adds	r3, #12
 800579a:	601a      	str	r2, [r3, #0]
 800579c:	e042      	b.n	8005824 <stm32__gpio__set_pull_resistor+0x104>
 800579e:	687b      	ldr	r3, [r7, #4]
 80057a0:	685b      	ldr	r3, [r3, #4]
 80057a2:	2b00      	cmp	r3, #0
 80057a4:	d103      	bne.n	80057ae <stm32__gpio__set_pull_resistor+0x8e>
 80057a6:	4823      	ldr	r0, [pc, #140]	; (8005834 <stm32__gpio__set_pull_resistor+0x114>)
 80057a8:	2195      	movs	r1, #149	; 0x95
 80057aa:	f005 f91b 	bl	800a9e4 <__gnat_rcheck_CE_Access_Check>
 80057ae:	687b      	ldr	r3, [r7, #4]
 80057b0:	685b      	ldr	r3, [r3, #4]
 80057b2:	f103 020c 	add.w	r2, r3, #12
 80057b6:	6812      	ldr	r2, [r2, #0]
 80057b8:	60fa      	str	r2, [r7, #12]
 80057ba:	f103 020c 	add.w	r2, r3, #12
 80057be:	6812      	ldr	r2, [r2, #0]
 80057c0:	68f9      	ldr	r1, [r7, #12]
 80057c2:	697a      	ldr	r2, [r7, #20]
 80057c4:	0052      	lsls	r2, r2, #1
 80057c6:	2003      	movs	r0, #3
 80057c8:	fa00 f202 	lsl.w	r2, r0, r2
 80057cc:	43d2      	mvns	r2, r2
 80057ce:	4011      	ands	r1, r2
 80057d0:	697a      	ldr	r2, [r7, #20]
 80057d2:	0052      	lsls	r2, r2, #1
 80057d4:	2001      	movs	r0, #1
 80057d6:	fa00 f202 	lsl.w	r2, r0, r2
 80057da:	430a      	orrs	r2, r1
 80057dc:	330c      	adds	r3, #12
 80057de:	601a      	str	r2, [r3, #0]
 80057e0:	e020      	b.n	8005824 <stm32__gpio__set_pull_resistor+0x104>
 80057e2:	687b      	ldr	r3, [r7, #4]
 80057e4:	685b      	ldr	r3, [r3, #4]
 80057e6:	2b00      	cmp	r3, #0
 80057e8:	d103      	bne.n	80057f2 <stm32__gpio__set_pull_resistor+0xd2>
 80057ea:	4812      	ldr	r0, [pc, #72]	; (8005834 <stm32__gpio__set_pull_resistor+0x114>)
 80057ec:	2197      	movs	r1, #151	; 0x97
 80057ee:	f005 f8f9 	bl	800a9e4 <__gnat_rcheck_CE_Access_Check>
 80057f2:	687b      	ldr	r3, [r7, #4]
 80057f4:	685b      	ldr	r3, [r3, #4]
 80057f6:	f103 020c 	add.w	r2, r3, #12
 80057fa:	6812      	ldr	r2, [r2, #0]
 80057fc:	60ba      	str	r2, [r7, #8]
 80057fe:	f103 020c 	add.w	r2, r3, #12
 8005802:	6812      	ldr	r2, [r2, #0]
 8005804:	68b9      	ldr	r1, [r7, #8]
 8005806:	697a      	ldr	r2, [r7, #20]
 8005808:	0052      	lsls	r2, r2, #1
 800580a:	2003      	movs	r0, #3
 800580c:	fa00 f202 	lsl.w	r2, r0, r2
 8005810:	43d2      	mvns	r2, r2
 8005812:	4011      	ands	r1, r2
 8005814:	697a      	ldr	r2, [r7, #20]
 8005816:	0052      	lsls	r2, r2, #1
 8005818:	2002      	movs	r0, #2
 800581a:	fa00 f202 	lsl.w	r2, r0, r2
 800581e:	430a      	orrs	r2, r1
 8005820:	330c      	adds	r3, #12
 8005822:	601a      	str	r2, [r3, #0]
 8005824:	bf00      	nop
 8005826:	2301      	movs	r3, #1
 8005828:	bf00      	nop
 800582a:	4618      	mov	r0, r3
 800582c:	3718      	adds	r7, #24
 800582e:	46bd      	mov	sp, r7
 8005830:	bd80      	pop	{r7, pc}
 8005832:	bf00      	nop
 8005834:	0800efcc 	.word	0x0800efcc

08005838 <stm32__gpio__set>:
 8005838:	b580      	push	{r7, lr}
 800583a:	b084      	sub	sp, #16
 800583c:	af00      	add	r7, sp, #0
 800583e:	6078      	str	r0, [r7, #4]
 8005840:	687b      	ldr	r3, [r7, #4]
 8005842:	891b      	ldrh	r3, [r3, #8]
 8005844:	81fb      	strh	r3, [r7, #14]
 8005846:	687b      	ldr	r3, [r7, #4]
 8005848:	685b      	ldr	r3, [r3, #4]
 800584a:	2b00      	cmp	r3, #0
 800584c:	d103      	bne.n	8005856 <stm32__gpio__set+0x1e>
 800584e:	480b      	ldr	r0, [pc, #44]	; (800587c <stm32__gpio__set+0x44>)
 8005850:	21a4      	movs	r1, #164	; 0xa4
 8005852:	f005 f8c7 	bl	800a9e4 <__gnat_rcheck_CE_Access_Check>
 8005856:	687b      	ldr	r3, [r7, #4]
 8005858:	685b      	ldr	r3, [r3, #4]
 800585a:	3310      	adds	r3, #16
 800585c:	681b      	ldr	r3, [r3, #0]
 800585e:	b29a      	uxth	r2, r3
 8005860:	89fb      	ldrh	r3, [r7, #14]
 8005862:	4013      	ands	r3, r2
 8005864:	b29b      	uxth	r3, r3
 8005866:	89fa      	ldrh	r2, [r7, #14]
 8005868:	429a      	cmp	r2, r3
 800586a:	bf0c      	ite	eq
 800586c:	2301      	moveq	r3, #1
 800586e:	2300      	movne	r3, #0
 8005870:	b2db      	uxtb	r3, r3
 8005872:	bf00      	nop
 8005874:	4618      	mov	r0, r3
 8005876:	3710      	adds	r7, #16
 8005878:	46bd      	mov	sp, r7
 800587a:	bd80      	pop	{r7, pc}
 800587c:	0800efcc 	.word	0x0800efcc

08005880 <stm32__gpio__set__2>:
 8005880:	b5b0      	push	{r4, r5, r7, lr}
 8005882:	b082      	sub	sp, #8
 8005884:	af00      	add	r7, sp, #0
 8005886:	6078      	str	r0, [r7, #4]
 8005888:	6878      	ldr	r0, [r7, #4]
 800588a:	f7ff fe45 	bl	8005518 <stm32__gpio__mode>
 800588e:	4603      	mov	r3, r0
 8005890:	2b02      	cmp	r3, #2
 8005892:	d005      	beq.n	80058a0 <stm32__gpio__set__2+0x20>
 8005894:	4c0e      	ldr	r4, [pc, #56]	; (80058d0 <stm32__gpio__set__2+0x50>)
 8005896:	4d0f      	ldr	r5, [pc, #60]	; (80058d4 <stm32__gpio__set__2+0x54>)
 8005898:	4620      	mov	r0, r4
 800589a:	4629      	mov	r1, r5
 800589c:	f005 fcb0 	bl	800b200 <system__assertions__raise_assert_failure>
 80058a0:	687b      	ldr	r3, [r7, #4]
 80058a2:	685b      	ldr	r3, [r3, #4]
 80058a4:	2b00      	cmp	r3, #0
 80058a6:	d103      	bne.n	80058b0 <stm32__gpio__set__2+0x30>
 80058a8:	480b      	ldr	r0, [pc, #44]	; (80058d8 <stm32__gpio__set__2+0x58>)
 80058aa:	21bd      	movs	r1, #189	; 0xbd
 80058ac:	f005 f89a 	bl	800a9e4 <__gnat_rcheck_CE_Access_Check>
 80058b0:	687b      	ldr	r3, [r7, #4]
 80058b2:	685b      	ldr	r3, [r3, #4]
 80058b4:	3318      	adds	r3, #24
 80058b6:	681b      	ldr	r3, [r3, #0]
 80058b8:	687a      	ldr	r2, [r7, #4]
 80058ba:	8912      	ldrh	r2, [r2, #8]
 80058bc:	f362 030f 	bfi	r3, r2, #0, #16
 80058c0:	687a      	ldr	r2, [r7, #4]
 80058c2:	6852      	ldr	r2, [r2, #4]
 80058c4:	3218      	adds	r2, #24
 80058c6:	6013      	str	r3, [r2, #0]
 80058c8:	3708      	adds	r7, #8
 80058ca:	46bd      	mov	sp, r7
 80058cc:	bdb0      	pop	{r4, r5, r7, pc}
 80058ce:	bf00      	nop
 80058d0:	0800efdc 	.word	0x0800efdc
 80058d4:	0800f010 	.word	0x0800f010
 80058d8:	0800efcc 	.word	0x0800efcc

080058dc <stm32__gpio__clear>:
 80058dc:	b5b0      	push	{r4, r5, r7, lr}
 80058de:	b082      	sub	sp, #8
 80058e0:	af00      	add	r7, sp, #0
 80058e2:	6078      	str	r0, [r7, #4]
 80058e4:	6878      	ldr	r0, [r7, #4]
 80058e6:	f7ff fe17 	bl	8005518 <stm32__gpio__mode>
 80058ea:	4603      	mov	r3, r0
 80058ec:	2b02      	cmp	r3, #2
 80058ee:	d005      	beq.n	80058fc <stm32__gpio__clear+0x20>
 80058f0:	4c0e      	ldr	r4, [pc, #56]	; (800592c <stm32__gpio__clear+0x50>)
 80058f2:	4d0f      	ldr	r5, [pc, #60]	; (8005930 <stm32__gpio__clear+0x54>)
 80058f4:	4620      	mov	r0, r4
 80058f6:	4629      	mov	r1, r5
 80058f8:	f005 fc82 	bl	800b200 <system__assertions__raise_assert_failure>
 80058fc:	687b      	ldr	r3, [r7, #4]
 80058fe:	685b      	ldr	r3, [r3, #4]
 8005900:	2b00      	cmp	r3, #0
 8005902:	d103      	bne.n	800590c <stm32__gpio__clear+0x30>
 8005904:	480b      	ldr	r0, [pc, #44]	; (8005934 <stm32__gpio__clear+0x58>)
 8005906:	21d4      	movs	r1, #212	; 0xd4
 8005908:	f005 f86c 	bl	800a9e4 <__gnat_rcheck_CE_Access_Check>
 800590c:	687b      	ldr	r3, [r7, #4]
 800590e:	685b      	ldr	r3, [r3, #4]
 8005910:	3318      	adds	r3, #24
 8005912:	681b      	ldr	r3, [r3, #0]
 8005914:	687a      	ldr	r2, [r7, #4]
 8005916:	8912      	ldrh	r2, [r2, #8]
 8005918:	f362 431f 	bfi	r3, r2, #16, #16
 800591c:	687a      	ldr	r2, [r7, #4]
 800591e:	6852      	ldr	r2, [r2, #4]
 8005920:	3218      	adds	r2, #24
 8005922:	6013      	str	r3, [r2, #0]
 8005924:	3708      	adds	r7, #8
 8005926:	46bd      	mov	sp, r7
 8005928:	bdb0      	pop	{r4, r5, r7, pc}
 800592a:	bf00      	nop
 800592c:	0800f018 	.word	0x0800f018
 8005930:	0800f010 	.word	0x0800f010
 8005934:	0800efcc 	.word	0x0800efcc

08005938 <stm32__gpio__toggle>:
 8005938:	b5b0      	push	{r4, r5, r7, lr}
 800593a:	b082      	sub	sp, #8
 800593c:	af00      	add	r7, sp, #0
 800593e:	6078      	str	r0, [r7, #4]
 8005940:	6878      	ldr	r0, [r7, #4]
 8005942:	f7ff fde9 	bl	8005518 <stm32__gpio__mode>
 8005946:	4603      	mov	r3, r0
 8005948:	2b02      	cmp	r3, #2
 800594a:	d005      	beq.n	8005958 <stm32__gpio__toggle+0x20>
 800594c:	4c15      	ldr	r4, [pc, #84]	; (80059a4 <stm32__gpio__toggle+0x6c>)
 800594e:	4d16      	ldr	r5, [pc, #88]	; (80059a8 <stm32__gpio__toggle+0x70>)
 8005950:	4620      	mov	r0, r4
 8005952:	4629      	mov	r1, r5
 8005954:	f005 fc54 	bl	800b200 <system__assertions__raise_assert_failure>
 8005958:	687b      	ldr	r3, [r7, #4]
 800595a:	685b      	ldr	r3, [r3, #4]
 800595c:	2b00      	cmp	r3, #0
 800595e:	d103      	bne.n	8005968 <stm32__gpio__toggle+0x30>
 8005960:	4812      	ldr	r0, [pc, #72]	; (80059ac <stm32__gpio__toggle+0x74>)
 8005962:	21eb      	movs	r1, #235	; 0xeb
 8005964:	f005 f83e 	bl	800a9e4 <__gnat_rcheck_CE_Access_Check>
 8005968:	687b      	ldr	r3, [r7, #4]
 800596a:	685b      	ldr	r3, [r3, #4]
 800596c:	2b00      	cmp	r3, #0
 800596e:	d103      	bne.n	8005978 <stm32__gpio__toggle+0x40>
 8005970:	480e      	ldr	r0, [pc, #56]	; (80059ac <stm32__gpio__toggle+0x74>)
 8005972:	21eb      	movs	r1, #235	; 0xeb
 8005974:	f005 f836 	bl	800a9e4 <__gnat_rcheck_CE_Access_Check>
 8005978:	687b      	ldr	r3, [r7, #4]
 800597a:	685b      	ldr	r3, [r3, #4]
 800597c:	3314      	adds	r3, #20
 800597e:	681b      	ldr	r3, [r3, #0]
 8005980:	687a      	ldr	r2, [r7, #4]
 8005982:	6852      	ldr	r2, [r2, #4]
 8005984:	3214      	adds	r2, #20
 8005986:	6812      	ldr	r2, [r2, #0]
 8005988:	b291      	uxth	r1, r2
 800598a:	687a      	ldr	r2, [r7, #4]
 800598c:	8912      	ldrh	r2, [r2, #8]
 800598e:	404a      	eors	r2, r1
 8005990:	b292      	uxth	r2, r2
 8005992:	f362 030f 	bfi	r3, r2, #0, #16
 8005996:	687a      	ldr	r2, [r7, #4]
 8005998:	6852      	ldr	r2, [r2, #4]
 800599a:	3214      	adds	r2, #20
 800599c:	6013      	str	r3, [r2, #0]
 800599e:	3708      	adds	r7, #8
 80059a0:	46bd      	mov	sp, r7
 80059a2:	bdb0      	pop	{r4, r5, r7, pc}
 80059a4:	0800f04c 	.word	0x0800f04c
 80059a8:	0800f010 	.word	0x0800f010
 80059ac:	0800efcc 	.word	0x0800efcc

080059b0 <stm32__gpio__locked>:
 80059b0:	b580      	push	{r7, lr}
 80059b2:	b084      	sub	sp, #16
 80059b4:	af00      	add	r7, sp, #0
 80059b6:	6078      	str	r0, [r7, #4]
 80059b8:	687b      	ldr	r3, [r7, #4]
 80059ba:	891b      	ldrh	r3, [r3, #8]
 80059bc:	81fb      	strh	r3, [r7, #14]
 80059be:	687b      	ldr	r3, [r7, #4]
 80059c0:	685b      	ldr	r3, [r3, #4]
 80059c2:	2b00      	cmp	r3, #0
 80059c4:	d104      	bne.n	80059d0 <stm32__gpio__locked+0x20>
 80059c6:	480c      	ldr	r0, [pc, #48]	; (80059f8 <stm32__gpio__locked+0x48>)
 80059c8:	f44f 7180 	mov.w	r1, #256	; 0x100
 80059cc:	f005 f80a 	bl	800a9e4 <__gnat_rcheck_CE_Access_Check>
 80059d0:	687b      	ldr	r3, [r7, #4]
 80059d2:	685b      	ldr	r3, [r3, #4]
 80059d4:	331c      	adds	r3, #28
 80059d6:	681b      	ldr	r3, [r3, #0]
 80059d8:	b29a      	uxth	r2, r3
 80059da:	89fb      	ldrh	r3, [r7, #14]
 80059dc:	4013      	ands	r3, r2
 80059de:	b29b      	uxth	r3, r3
 80059e0:	89fa      	ldrh	r2, [r7, #14]
 80059e2:	429a      	cmp	r2, r3
 80059e4:	bf0c      	ite	eq
 80059e6:	2301      	moveq	r3, #1
 80059e8:	2300      	movne	r3, #0
 80059ea:	b2db      	uxtb	r3, r3
 80059ec:	bf00      	nop
 80059ee:	4618      	mov	r0, r3
 80059f0:	3710      	adds	r7, #16
 80059f2:	46bd      	mov	sp, r7
 80059f4:	bd80      	pop	{r7, pc}
 80059f6:	bf00      	nop
 80059f8:	0800efcc 	.word	0x0800efcc

080059fc <stm32__gpio__lock_the_pin>:
 80059fc:	b480      	push	{r7}
 80059fe:	b085      	sub	sp, #20
 8005a00:	af00      	add	r7, sp, #0
 8005a02:	6078      	str	r0, [r7, #4]
 8005a04:	460b      	mov	r3, r1
 8005a06:	807b      	strh	r3, [r7, #2]
 8005a08:	6879      	ldr	r1, [r7, #4]
 8005a0a:	8878      	ldrh	r0, [r7, #2]
 8005a0c:	f440 3380 	orr.w	r3, r0, #65536	; 0x10000
 8005a10:	60fb      	str	r3, [r7, #12]
 8005a12:	68fb      	ldr	r3, [r7, #12]
 8005a14:	61cb      	str	r3, [r1, #28]
 8005a16:	61c8      	str	r0, [r1, #28]
 8005a18:	68fb      	ldr	r3, [r7, #12]
 8005a1a:	61cb      	str	r3, [r1, #28]
 8005a1c:	69cb      	ldr	r3, [r1, #28]
 8005a1e:	60fb      	str	r3, [r7, #12]
 8005a20:	69cb      	ldr	r3, [r1, #28]
 8005a22:	60fb      	str	r3, [r7, #12]
 8005a24:	3714      	adds	r7, #20
 8005a26:	46bd      	mov	sp, r7
 8005a28:	f85d 7b04 	ldr.w	r7, [sp], #4
 8005a2c:	4770      	bx	lr
 8005a2e:	bf00      	nop

08005a30 <stm32__gpio__lock___postconditions.5851>:
 8005a30:	b5b0      	push	{r4, r5, r7, lr}
 8005a32:	b082      	sub	sp, #8
 8005a34:	af00      	add	r7, sp, #0
 8005a36:	4663      	mov	r3, ip
 8005a38:	f8c7 c004 	str.w	ip, [r7, #4]
 8005a3c:	681b      	ldr	r3, [r3, #0]
 8005a3e:	4618      	mov	r0, r3
 8005a40:	f7ff ffb6 	bl	80059b0 <stm32__gpio__locked>
 8005a44:	4603      	mov	r3, r0
 8005a46:	f083 0301 	eor.w	r3, r3, #1
 8005a4a:	b2db      	uxtb	r3, r3
 8005a4c:	2b00      	cmp	r3, #0
 8005a4e:	d005      	beq.n	8005a5c <stm32__gpio__lock___postconditions.5851+0x2c>
 8005a50:	4c04      	ldr	r4, [pc, #16]	; (8005a64 <stm32__gpio__lock___postconditions.5851+0x34>)
 8005a52:	4d05      	ldr	r5, [pc, #20]	; (8005a68 <stm32__gpio__lock___postconditions.5851+0x38>)
 8005a54:	4620      	mov	r0, r4
 8005a56:	4629      	mov	r1, r5
 8005a58:	f005 fbd2 	bl	800b200 <system__assertions__raise_assert_failure>
 8005a5c:	3708      	adds	r7, #8
 8005a5e:	46bd      	mov	sp, r7
 8005a60:	bdb0      	pop	{r4, r5, r7, pc}
 8005a62:	bf00      	nop
 8005a64:	0800f080 	.word	0x0800f080
 8005a68:	0800f0ac 	.word	0x0800f0ac

08005a6c <stm32__gpio__lock>:
 8005a6c:	b5b0      	push	{r4, r5, r7, lr}
 8005a6e:	b084      	sub	sp, #16
 8005a70:	af00      	add	r7, sp, #0
 8005a72:	6078      	str	r0, [r7, #4]
 8005a74:	f107 0320 	add.w	r3, r7, #32
 8005a78:	60fb      	str	r3, [r7, #12]
 8005a7a:	687b      	ldr	r3, [r7, #4]
 8005a7c:	60bb      	str	r3, [r7, #8]
 8005a7e:	68bb      	ldr	r3, [r7, #8]
 8005a80:	4618      	mov	r0, r3
 8005a82:	f7ff ff95 	bl	80059b0 <stm32__gpio__locked>
 8005a86:	4603      	mov	r3, r0
 8005a88:	2b00      	cmp	r3, #0
 8005a8a:	d005      	beq.n	8005a98 <stm32__gpio__lock+0x2c>
 8005a8c:	4c0f      	ldr	r4, [pc, #60]	; (8005acc <stm32__gpio__lock+0x60>)
 8005a8e:	4d10      	ldr	r5, [pc, #64]	; (8005ad0 <stm32__gpio__lock+0x64>)
 8005a90:	4620      	mov	r0, r4
 8005a92:	4629      	mov	r1, r5
 8005a94:	f005 fbb4 	bl	800b200 <system__assertions__raise_assert_failure>
 8005a98:	68bb      	ldr	r3, [r7, #8]
 8005a9a:	685b      	ldr	r3, [r3, #4]
 8005a9c:	2b00      	cmp	r3, #0
 8005a9e:	d104      	bne.n	8005aaa <stm32__gpio__lock+0x3e>
 8005aa0:	480c      	ldr	r0, [pc, #48]	; (8005ad4 <stm32__gpio__lock+0x68>)
 8005aa2:	f44f 71a2 	mov.w	r1, #324	; 0x144
 8005aa6:	f004 ff9d 	bl	800a9e4 <__gnat_rcheck_CE_Access_Check>
 8005aaa:	68bb      	ldr	r3, [r7, #8]
 8005aac:	685a      	ldr	r2, [r3, #4]
 8005aae:	68bb      	ldr	r3, [r7, #8]
 8005ab0:	891b      	ldrh	r3, [r3, #8]
 8005ab2:	4610      	mov	r0, r2
 8005ab4:	4619      	mov	r1, r3
 8005ab6:	f7ff ffa1 	bl	80059fc <stm32__gpio__lock_the_pin>
 8005aba:	f107 0308 	add.w	r3, r7, #8
 8005abe:	469c      	mov	ip, r3
 8005ac0:	f7ff ffb6 	bl	8005a30 <stm32__gpio__lock___postconditions.5851>
 8005ac4:	3710      	adds	r7, #16
 8005ac6:	46bd      	mov	sp, r7
 8005ac8:	bdb0      	pop	{r4, r5, r7, pc}
 8005aca:	bf00      	nop
 8005acc:	0800f0b4 	.word	0x0800f0b4
 8005ad0:	0800f0e0 	.word	0x0800f0e0
 8005ad4:	0800efcc 	.word	0x0800efcc

08005ad8 <stm32__gpio__configure_io>:
 8005ad8:	b580      	push	{r7, lr}
 8005ada:	b088      	sub	sp, #32
 8005adc:	af00      	add	r7, sp, #0
 8005ade:	6078      	str	r0, [r7, #4]
 8005ae0:	6039      	str	r1, [r7, #0]
 8005ae2:	687b      	ldr	r3, [r7, #4]
 8005ae4:	891b      	ldrh	r3, [r3, #8]
 8005ae6:	4618      	mov	r0, r3
 8005ae8:	2101      	movs	r1, #1
 8005aea:	f7ff fba5 	bl	8005238 <stm32__gpio__gpio_pinRP>
 8005aee:	4603      	mov	r3, r0
 8005af0:	2b00      	cmp	r3, #0
 8005af2:	db01      	blt.n	8005af8 <stm32__gpio__configure_io+0x20>
 8005af4:	2b0f      	cmp	r3, #15
 8005af6:	dd04      	ble.n	8005b02 <stm32__gpio__configure_io+0x2a>
 8005af8:	4858      	ldr	r0, [pc, #352]	; (8005c5c <stm32__gpio__configure_io+0x184>)
 8005afa:	f44f 71ae 	mov.w	r1, #348	; 0x15c
 8005afe:	f004 ffa9 	bl	800aa54 <__gnat_rcheck_CE_Range_Check>
 8005b02:	687b      	ldr	r3, [r7, #4]
 8005b04:	891b      	ldrh	r3, [r3, #8]
 8005b06:	4618      	mov	r0, r3
 8005b08:	2101      	movs	r1, #1
 8005b0a:	f7ff fb95 	bl	8005238 <stm32__gpio__gpio_pinRP>
 8005b0e:	4603      	mov	r3, r0
 8005b10:	61fb      	str	r3, [r7, #28]
 8005b12:	687b      	ldr	r3, [r7, #4]
 8005b14:	685b      	ldr	r3, [r3, #4]
 8005b16:	2b00      	cmp	r3, #0
 8005b18:	d104      	bne.n	8005b24 <stm32__gpio__configure_io+0x4c>
 8005b1a:	4850      	ldr	r0, [pc, #320]	; (8005c5c <stm32__gpio__configure_io+0x184>)
 8005b1c:	f44f 71af 	mov.w	r1, #350	; 0x15e
 8005b20:	f004 ff60 	bl	800a9e4 <__gnat_rcheck_CE_Access_Check>
 8005b24:	687b      	ldr	r3, [r7, #4]
 8005b26:	685b      	ldr	r3, [r3, #4]
 8005b28:	681b      	ldr	r3, [r3, #0]
 8005b2a:	61bb      	str	r3, [r7, #24]
 8005b2c:	687b      	ldr	r3, [r7, #4]
 8005b2e:	685b      	ldr	r3, [r3, #4]
 8005b30:	681b      	ldr	r3, [r3, #0]
 8005b32:	461a      	mov	r2, r3
 8005b34:	69ba      	ldr	r2, [r7, #24]
 8005b36:	69fb      	ldr	r3, [r7, #28]
 8005b38:	005b      	lsls	r3, r3, #1
 8005b3a:	2103      	movs	r1, #3
 8005b3c:	fa01 f303 	lsl.w	r3, r1, r3
 8005b40:	43db      	mvns	r3, r3
 8005b42:	401a      	ands	r2, r3
 8005b44:	783b      	ldrb	r3, [r7, #0]
 8005b46:	4619      	mov	r1, r3
 8005b48:	69fb      	ldr	r3, [r7, #28]
 8005b4a:	005b      	lsls	r3, r3, #1
 8005b4c:	fa01 f303 	lsl.w	r3, r1, r3
 8005b50:	4313      	orrs	r3, r2
 8005b52:	461a      	mov	r2, r3
 8005b54:	687b      	ldr	r3, [r7, #4]
 8005b56:	685b      	ldr	r3, [r3, #4]
 8005b58:	601a      	str	r2, [r3, #0]
 8005b5a:	687b      	ldr	r3, [r7, #4]
 8005b5c:	685b      	ldr	r3, [r3, #4]
 8005b5e:	2b00      	cmp	r3, #0
 8005b60:	d104      	bne.n	8005b6c <stm32__gpio__configure_io+0x94>
 8005b62:	483e      	ldr	r0, [pc, #248]	; (8005c5c <stm32__gpio__configure_io+0x184>)
 8005b64:	f240 115f 	movw	r1, #351	; 0x15f
 8005b68:	f004 ff3c 	bl	800a9e4 <__gnat_rcheck_CE_Access_Check>
 8005b6c:	687b      	ldr	r3, [r7, #4]
 8005b6e:	685b      	ldr	r3, [r3, #4]
 8005b70:	3304      	adds	r3, #4
 8005b72:	681b      	ldr	r3, [r3, #0]
 8005b74:	b29b      	uxth	r3, r3
 8005b76:	82bb      	strh	r3, [r7, #20]
 8005b78:	687b      	ldr	r3, [r7, #4]
 8005b7a:	685b      	ldr	r3, [r3, #4]
 8005b7c:	3304      	adds	r3, #4
 8005b7e:	681b      	ldr	r3, [r3, #0]
 8005b80:	8ab9      	ldrh	r1, [r7, #20]
 8005b82:	69fa      	ldr	r2, [r7, #28]
 8005b84:	2001      	movs	r0, #1
 8005b86:	fa00 f202 	lsl.w	r2, r0, r2
 8005b8a:	b292      	uxth	r2, r2
 8005b8c:	43d2      	mvns	r2, r2
 8005b8e:	b292      	uxth	r2, r2
 8005b90:	400a      	ands	r2, r1
 8005b92:	b291      	uxth	r1, r2
 8005b94:	787a      	ldrb	r2, [r7, #1]
 8005b96:	2a01      	cmp	r2, #1
 8005b98:	bf0c      	ite	eq
 8005b9a:	2201      	moveq	r2, #1
 8005b9c:	2200      	movne	r2, #0
 8005b9e:	b2d2      	uxtb	r2, r2
 8005ba0:	b290      	uxth	r0, r2
 8005ba2:	69fa      	ldr	r2, [r7, #28]
 8005ba4:	fa00 f202 	lsl.w	r2, r0, r2
 8005ba8:	b292      	uxth	r2, r2
 8005baa:	430a      	orrs	r2, r1
 8005bac:	b292      	uxth	r2, r2
 8005bae:	f362 030f 	bfi	r3, r2, #0, #16
 8005bb2:	687a      	ldr	r2, [r7, #4]
 8005bb4:	6852      	ldr	r2, [r2, #4]
 8005bb6:	3204      	adds	r2, #4
 8005bb8:	6013      	str	r3, [r2, #0]
 8005bba:	687b      	ldr	r3, [r7, #4]
 8005bbc:	685b      	ldr	r3, [r3, #4]
 8005bbe:	2b00      	cmp	r3, #0
 8005bc0:	d104      	bne.n	8005bcc <stm32__gpio__configure_io+0xf4>
 8005bc2:	4826      	ldr	r0, [pc, #152]	; (8005c5c <stm32__gpio__configure_io+0x184>)
 8005bc4:	f44f 71b0 	mov.w	r1, #352	; 0x160
 8005bc8:	f004 ff0c 	bl	800a9e4 <__gnat_rcheck_CE_Access_Check>
 8005bcc:	687b      	ldr	r3, [r7, #4]
 8005bce:	685b      	ldr	r3, [r3, #4]
 8005bd0:	3308      	adds	r3, #8
 8005bd2:	681b      	ldr	r3, [r3, #0]
 8005bd4:	613b      	str	r3, [r7, #16]
 8005bd6:	687b      	ldr	r3, [r7, #4]
 8005bd8:	685b      	ldr	r3, [r3, #4]
 8005bda:	3308      	adds	r3, #8
 8005bdc:	681b      	ldr	r3, [r3, #0]
 8005bde:	461a      	mov	r2, r3
 8005be0:	693a      	ldr	r2, [r7, #16]
 8005be2:	69fb      	ldr	r3, [r7, #28]
 8005be4:	005b      	lsls	r3, r3, #1
 8005be6:	2103      	movs	r1, #3
 8005be8:	fa01 f303 	lsl.w	r3, r1, r3
 8005bec:	43db      	mvns	r3, r3
 8005bee:	401a      	ands	r2, r3
 8005bf0:	78bb      	ldrb	r3, [r7, #2]
 8005bf2:	4619      	mov	r1, r3
 8005bf4:	69fb      	ldr	r3, [r7, #28]
 8005bf6:	005b      	lsls	r3, r3, #1
 8005bf8:	fa01 f303 	lsl.w	r3, r1, r3
 8005bfc:	4313      	orrs	r3, r2
 8005bfe:	461a      	mov	r2, r3
 8005c00:	687b      	ldr	r3, [r7, #4]
 8005c02:	685b      	ldr	r3, [r3, #4]
 8005c04:	3308      	adds	r3, #8
 8005c06:	601a      	str	r2, [r3, #0]
 8005c08:	687b      	ldr	r3, [r7, #4]
 8005c0a:	685b      	ldr	r3, [r3, #4]
 8005c0c:	2b00      	cmp	r3, #0
 8005c0e:	d104      	bne.n	8005c1a <stm32__gpio__configure_io+0x142>
 8005c10:	4812      	ldr	r0, [pc, #72]	; (8005c5c <stm32__gpio__configure_io+0x184>)
 8005c12:	f240 1161 	movw	r1, #353	; 0x161
 8005c16:	f004 fee5 	bl	800a9e4 <__gnat_rcheck_CE_Access_Check>
 8005c1a:	687b      	ldr	r3, [r7, #4]
 8005c1c:	685b      	ldr	r3, [r3, #4]
 8005c1e:	330c      	adds	r3, #12
 8005c20:	681b      	ldr	r3, [r3, #0]
 8005c22:	60fb      	str	r3, [r7, #12]
 8005c24:	687b      	ldr	r3, [r7, #4]
 8005c26:	685b      	ldr	r3, [r3, #4]
 8005c28:	330c      	adds	r3, #12
 8005c2a:	681b      	ldr	r3, [r3, #0]
 8005c2c:	461a      	mov	r2, r3
 8005c2e:	68fa      	ldr	r2, [r7, #12]
 8005c30:	69fb      	ldr	r3, [r7, #28]
 8005c32:	005b      	lsls	r3, r3, #1
 8005c34:	2103      	movs	r1, #3
 8005c36:	fa01 f303 	lsl.w	r3, r1, r3
 8005c3a:	43db      	mvns	r3, r3
 8005c3c:	401a      	ands	r2, r3
 8005c3e:	78fb      	ldrb	r3, [r7, #3]
 8005c40:	4619      	mov	r1, r3
 8005c42:	69fb      	ldr	r3, [r7, #28]
 8005c44:	005b      	lsls	r3, r3, #1
 8005c46:	fa01 f303 	lsl.w	r3, r1, r3
 8005c4a:	4313      	orrs	r3, r2
 8005c4c:	461a      	mov	r2, r3
 8005c4e:	687b      	ldr	r3, [r7, #4]
 8005c50:	685b      	ldr	r3, [r3, #4]
 8005c52:	330c      	adds	r3, #12
 8005c54:	601a      	str	r2, [r3, #0]
 8005c56:	3720      	adds	r7, #32
 8005c58:	46bd      	mov	sp, r7
 8005c5a:	bd80      	pop	{r7, pc}
 8005c5c:	0800efcc 	.word	0x0800efcc

08005c60 <stm32__gpio__configure_alternate_function>:
 8005c60:	b580      	push	{r7, lr}
 8005c62:	b086      	sub	sp, #24
 8005c64:	af00      	add	r7, sp, #0
 8005c66:	6078      	str	r0, [r7, #4]
 8005c68:	460b      	mov	r3, r1
 8005c6a:	70fb      	strb	r3, [r7, #3]
 8005c6c:	687b      	ldr	r3, [r7, #4]
 8005c6e:	891b      	ldrh	r3, [r3, #8]
 8005c70:	4618      	mov	r0, r3
 8005c72:	2101      	movs	r1, #1
 8005c74:	f7ff fae0 	bl	8005238 <stm32__gpio__gpio_pinRP>
 8005c78:	4603      	mov	r3, r0
 8005c7a:	2b00      	cmp	r3, #0
 8005c7c:	db01      	blt.n	8005c82 <stm32__gpio__configure_alternate_function+0x22>
 8005c7e:	2b0f      	cmp	r3, #15
 8005c80:	dd04      	ble.n	8005c8c <stm32__gpio__configure_alternate_function+0x2c>
 8005c82:	4839      	ldr	r0, [pc, #228]	; (8005d68 <stm32__gpio__configure_alternate_function+0x108>)
 8005c84:	f44f 71bd 	mov.w	r1, #378	; 0x17a
 8005c88:	f004 fee4 	bl	800aa54 <__gnat_rcheck_CE_Range_Check>
 8005c8c:	687b      	ldr	r3, [r7, #4]
 8005c8e:	891b      	ldrh	r3, [r3, #8]
 8005c90:	4618      	mov	r0, r3
 8005c92:	2101      	movs	r1, #1
 8005c94:	f7ff fad0 	bl	8005238 <stm32__gpio__gpio_pinRP>
 8005c98:	4603      	mov	r3, r0
 8005c9a:	617b      	str	r3, [r7, #20]
 8005c9c:	697b      	ldr	r3, [r7, #20]
 8005c9e:	2b07      	cmp	r3, #7
 8005ca0:	dc2e      	bgt.n	8005d00 <stm32__gpio__configure_alternate_function+0xa0>
 8005ca2:	687b      	ldr	r3, [r7, #4]
 8005ca4:	685b      	ldr	r3, [r3, #4]
 8005ca6:	2b00      	cmp	r3, #0
 8005ca8:	d104      	bne.n	8005cb4 <stm32__gpio__configure_alternate_function+0x54>
 8005caa:	482f      	ldr	r0, [pc, #188]	; (8005d68 <stm32__gpio__configure_alternate_function+0x108>)
 8005cac:	f240 117d 	movw	r1, #381	; 0x17d
 8005cb0:	f004 fe98 	bl	800a9e4 <__gnat_rcheck_CE_Access_Check>
 8005cb4:	697b      	ldr	r3, [r7, #20]
 8005cb6:	2b07      	cmp	r3, #7
 8005cb8:	dd04      	ble.n	8005cc4 <stm32__gpio__configure_alternate_function+0x64>
 8005cba:	482b      	ldr	r0, [pc, #172]	; (8005d68 <stm32__gpio__configure_alternate_function+0x108>)
 8005cbc:	f240 117d 	movw	r1, #381	; 0x17d
 8005cc0:	f004 feb0 	bl	800aa24 <__gnat_rcheck_CE_Index_Check>
 8005cc4:	687b      	ldr	r3, [r7, #4]
 8005cc6:	685b      	ldr	r3, [r3, #4]
 8005cc8:	3320      	adds	r3, #32
 8005cca:	681b      	ldr	r3, [r3, #0]
 8005ccc:	613b      	str	r3, [r7, #16]
 8005cce:	687b      	ldr	r3, [r7, #4]
 8005cd0:	685b      	ldr	r3, [r3, #4]
 8005cd2:	3320      	adds	r3, #32
 8005cd4:	681b      	ldr	r3, [r3, #0]
 8005cd6:	461a      	mov	r2, r3
 8005cd8:	693a      	ldr	r2, [r7, #16]
 8005cda:	697b      	ldr	r3, [r7, #20]
 8005cdc:	009b      	lsls	r3, r3, #2
 8005cde:	210f      	movs	r1, #15
 8005ce0:	fa01 f303 	lsl.w	r3, r1, r3
 8005ce4:	43db      	mvns	r3, r3
 8005ce6:	401a      	ands	r2, r3
 8005ce8:	78f9      	ldrb	r1, [r7, #3]
 8005cea:	697b      	ldr	r3, [r7, #20]
 8005cec:	009b      	lsls	r3, r3, #2
 8005cee:	fa01 f303 	lsl.w	r3, r1, r3
 8005cf2:	4313      	orrs	r3, r2
 8005cf4:	461a      	mov	r2, r3
 8005cf6:	687b      	ldr	r3, [r7, #4]
 8005cf8:	685b      	ldr	r3, [r3, #4]
 8005cfa:	3320      	adds	r3, #32
 8005cfc:	601a      	str	r2, [r3, #0]
 8005cfe:	e02f      	b.n	8005d60 <stm32__gpio__configure_alternate_function+0x100>
 8005d00:	687b      	ldr	r3, [r7, #4]
 8005d02:	685b      	ldr	r3, [r3, #4]
 8005d04:	2b00      	cmp	r3, #0
 8005d06:	d104      	bne.n	8005d12 <stm32__gpio__configure_alternate_function+0xb2>
 8005d08:	4817      	ldr	r0, [pc, #92]	; (8005d68 <stm32__gpio__configure_alternate_function+0x108>)
 8005d0a:	f240 117f 	movw	r1, #383	; 0x17f
 8005d0e:	f004 fe69 	bl	800a9e4 <__gnat_rcheck_CE_Access_Check>
 8005d12:	697b      	ldr	r3, [r7, #20]
 8005d14:	2b07      	cmp	r3, #7
 8005d16:	dc04      	bgt.n	8005d22 <stm32__gpio__configure_alternate_function+0xc2>
 8005d18:	4813      	ldr	r0, [pc, #76]	; (8005d68 <stm32__gpio__configure_alternate_function+0x108>)
 8005d1a:	f240 117f 	movw	r1, #383	; 0x17f
 8005d1e:	f004 fe81 	bl	800aa24 <__gnat_rcheck_CE_Index_Check>
 8005d22:	687b      	ldr	r3, [r7, #4]
 8005d24:	685b      	ldr	r3, [r3, #4]
 8005d26:	3324      	adds	r3, #36	; 0x24
 8005d28:	681b      	ldr	r3, [r3, #0]
 8005d2a:	60fb      	str	r3, [r7, #12]
 8005d2c:	687b      	ldr	r3, [r7, #4]
 8005d2e:	685b      	ldr	r3, [r3, #4]
 8005d30:	3324      	adds	r3, #36	; 0x24
 8005d32:	681b      	ldr	r3, [r3, #0]
 8005d34:	461a      	mov	r2, r3
 8005d36:	68fa      	ldr	r2, [r7, #12]
 8005d38:	697b      	ldr	r3, [r7, #20]
 8005d3a:	3b08      	subs	r3, #8
 8005d3c:	009b      	lsls	r3, r3, #2
 8005d3e:	210f      	movs	r1, #15
 8005d40:	fa01 f303 	lsl.w	r3, r1, r3
 8005d44:	43db      	mvns	r3, r3
 8005d46:	401a      	ands	r2, r3
 8005d48:	78f9      	ldrb	r1, [r7, #3]
 8005d4a:	697b      	ldr	r3, [r7, #20]
 8005d4c:	3b08      	subs	r3, #8
 8005d4e:	009b      	lsls	r3, r3, #2
 8005d50:	fa01 f303 	lsl.w	r3, r1, r3
 8005d54:	4313      	orrs	r3, r2
 8005d56:	461a      	mov	r2, r3
 8005d58:	687b      	ldr	r3, [r7, #4]
 8005d5a:	685b      	ldr	r3, [r3, #4]
 8005d5c:	3324      	adds	r3, #36	; 0x24
 8005d5e:	601a      	str	r2, [r3, #0]
 8005d60:	3718      	adds	r7, #24
 8005d62:	46bd      	mov	sp, r7
 8005d64:	bd80      	pop	{r7, pc}
 8005d66:	bf00      	nop
 8005d68:	0800efcc 	.word	0x0800efcc

08005d6c <stm32__gpio__configure_alternate_function__2>:
 8005d6c:	b5f0      	push	{r4, r5, r6, r7, lr}
 8005d6e:	b087      	sub	sp, #28
 8005d70:	af00      	add	r7, sp, #0
 8005d72:	e9c7 0102 	strd	r0, r1, [r7, #8]
 8005d76:	4613      	mov	r3, r2
 8005d78:	71fb      	strb	r3, [r7, #7]
 8005d7a:	68fb      	ldr	r3, [r7, #12]
 8005d7c:	681c      	ldr	r4, [r3, #0]
 8005d7e:	68fb      	ldr	r3, [r7, #12]
 8005d80:	685d      	ldr	r5, [r3, #4]
 8005d82:	4626      	mov	r6, r4
 8005d84:	42ac      	cmp	r4, r5
 8005d86:	dc18      	bgt.n	8005dba <stm32__gpio__configure_alternate_function__2+0x4e>
 8005d88:	68b8      	ldr	r0, [r7, #8]
 8005d8a:	4622      	mov	r2, r4
 8005d8c:	1b91      	subs	r1, r2, r6
 8005d8e:	460b      	mov	r3, r1
 8005d90:	005b      	lsls	r3, r3, #1
 8005d92:	440b      	add	r3, r1
 8005d94:	009b      	lsls	r3, r3, #2
 8005d96:	4403      	add	r3, r0
 8005d98:	617b      	str	r3, [r7, #20]
 8005d9a:	68b9      	ldr	r1, [r7, #8]
 8005d9c:	1b92      	subs	r2, r2, r6
 8005d9e:	4613      	mov	r3, r2
 8005da0:	005b      	lsls	r3, r3, #1
 8005da2:	4413      	add	r3, r2
 8005da4:	009b      	lsls	r3, r3, #2
 8005da6:	18ca      	adds	r2, r1, r3
 8005da8:	79fb      	ldrb	r3, [r7, #7]
 8005daa:	4610      	mov	r0, r2
 8005dac:	4619      	mov	r1, r3
 8005dae:	f7ff ff57 	bl	8005c60 <stm32__gpio__configure_alternate_function>
 8005db2:	42ac      	cmp	r4, r5
 8005db4:	d001      	beq.n	8005dba <stm32__gpio__configure_alternate_function__2+0x4e>
 8005db6:	3401      	adds	r4, #1
 8005db8:	e7e6      	b.n	8005d88 <stm32__gpio__configure_alternate_function__2+0x1c>
 8005dba:	371c      	adds	r7, #28
 8005dbc:	46bd      	mov	sp, r7
 8005dbe:	bdf0      	pop	{r4, r5, r6, r7, pc}

08005dc0 <stm32__gpio__interrupt_line_number>:
 8005dc0:	b580      	push	{r7, lr}
 8005dc2:	b082      	sub	sp, #8
 8005dc4:	af00      	add	r7, sp, #0
 8005dc6:	6078      	str	r0, [r7, #4]
 8005dc8:	687b      	ldr	r3, [r7, #4]
 8005dca:	891b      	ldrh	r3, [r3, #8]
 8005dcc:	4618      	mov	r0, r3
 8005dce:	2101      	movs	r1, #1
 8005dd0:	f7ff fa32 	bl	8005238 <stm32__gpio__gpio_pinRP>
 8005dd4:	4603      	mov	r3, r0
 8005dd6:	2b00      	cmp	r3, #0
 8005dd8:	db01      	blt.n	8005dde <stm32__gpio__interrupt_line_number+0x1e>
 8005dda:	2b16      	cmp	r3, #22
 8005ddc:	dd04      	ble.n	8005de8 <stm32__gpio__interrupt_line_number+0x28>
 8005dde:	4809      	ldr	r0, [pc, #36]	; (8005e04 <stm32__gpio__interrupt_line_number+0x44>)
 8005de0:	f240 1199 	movw	r1, #409	; 0x199
 8005de4:	f004 fe36 	bl	800aa54 <__gnat_rcheck_CE_Range_Check>
 8005de8:	687b      	ldr	r3, [r7, #4]
 8005dea:	891b      	ldrh	r3, [r3, #8]
 8005dec:	4618      	mov	r0, r3
 8005dee:	2101      	movs	r1, #1
 8005df0:	f7ff fa22 	bl	8005238 <stm32__gpio__gpio_pinRP>
 8005df4:	4603      	mov	r3, r0
 8005df6:	b2db      	uxtb	r3, r3
 8005df8:	bf00      	nop
 8005dfa:	4618      	mov	r0, r3
 8005dfc:	3708      	adds	r7, #8
 8005dfe:	46bd      	mov	sp, r7
 8005e00:	bd80      	pop	{r7, pc}
 8005e02:	bf00      	nop
 8005e04:	0800efcc 	.word	0x0800efcc

08005e08 <stm32__gpio__configure_trigger>:
 8005e08:	b580      	push	{r7, lr}
 8005e0a:	b084      	sub	sp, #16
 8005e0c:	af00      	add	r7, sp, #0
 8005e0e:	6078      	str	r0, [r7, #4]
 8005e10:	460b      	mov	r3, r1
 8005e12:	70fb      	strb	r3, [r7, #3]
 8005e14:	687b      	ldr	r3, [r7, #4]
 8005e16:	891b      	ldrh	r3, [r3, #8]
 8005e18:	4618      	mov	r0, r3
 8005e1a:	2101      	movs	r1, #1
 8005e1c:	f7ff fa0c 	bl	8005238 <stm32__gpio__gpio_pinRP>
 8005e20:	4603      	mov	r3, r0
 8005e22:	2b00      	cmp	r3, #0
 8005e24:	db01      	blt.n	8005e2a <stm32__gpio__configure_trigger+0x22>
 8005e26:	2b16      	cmp	r3, #22
 8005e28:	dd04      	ble.n	8005e34 <stm32__gpio__configure_trigger+0x2c>
 8005e2a:	4816      	ldr	r0, [pc, #88]	; (8005e84 <stm32__gpio__configure_trigger+0x7c>)
 8005e2c:	f240 11a5 	movw	r1, #421	; 0x1a5
 8005e30:	f004 fe10 	bl	800aa54 <__gnat_rcheck_CE_Range_Check>
 8005e34:	687b      	ldr	r3, [r7, #4]
 8005e36:	891b      	ldrh	r3, [r3, #8]
 8005e38:	4618      	mov	r0, r3
 8005e3a:	2101      	movs	r1, #1
 8005e3c:	f7ff f9fc 	bl	8005238 <stm32__gpio__gpio_pinRP>
 8005e40:	4603      	mov	r3, r0
 8005e42:	73fb      	strb	r3, [r7, #15]
 8005e44:	f7fc f940 	bl	80020c8 <stm32__rcc__syscfg_clock_enable>
 8005e48:	6878      	ldr	r0, [r7, #4]
 8005e4a:	f001 fe0d 	bl	8007a68 <stm32__syscfg__connect_external_interrupt__2>
 8005e4e:	78fb      	ldrb	r3, [r7, #3]
 8005e50:	2b02      	cmp	r3, #2
 8005e52:	d806      	bhi.n	8005e62 <stm32__gpio__configure_trigger+0x5a>
 8005e54:	7bfa      	ldrb	r2, [r7, #15]
 8005e56:	78fb      	ldrb	r3, [r7, #3]
 8005e58:	4610      	mov	r0, r2
 8005e5a:	4619      	mov	r1, r3
 8005e5c:	f001 fc88 	bl	8007770 <stm32__exti__enable_external_interrupt>
 8005e60:	e00d      	b.n	8005e7e <stm32__gpio__configure_trigger+0x76>
 8005e62:	78fb      	ldrb	r3, [r7, #3]
 8005e64:	2b02      	cmp	r3, #2
 8005e66:	d804      	bhi.n	8005e72 <stm32__gpio__configure_trigger+0x6a>
 8005e68:	4806      	ldr	r0, [pc, #24]	; (8005e84 <stm32__gpio__configure_trigger+0x7c>)
 8005e6a:	f44f 71d7 	mov.w	r1, #430	; 0x1ae
 8005e6e:	f004 fdf1 	bl	800aa54 <__gnat_rcheck_CE_Range_Check>
 8005e72:	7bfa      	ldrb	r2, [r7, #15]
 8005e74:	78fb      	ldrb	r3, [r7, #3]
 8005e76:	4610      	mov	r0, r2
 8005e78:	4619      	mov	r1, r3
 8005e7a:	f001 fd1d 	bl	80078b8 <stm32__exti__enable_external_event>
 8005e7e:	3710      	adds	r7, #16
 8005e80:	46bd      	mov	sp, r7
 8005e82:	bd80      	pop	{r7, pc}
 8005e84:	0800efcc 	.word	0x0800efcc

08005e88 <stm32__gpio___elabs>:
 8005e88:	b580      	push	{r7, lr}
 8005e8a:	af00      	add	r7, sp, #0
 8005e8c:	4803      	ldr	r0, [pc, #12]	; (8005e9c <stm32__gpio___elabs+0x14>)
 8005e8e:	f003 fe39 	bl	8009b04 <ada__tags__check_tsd>
 8005e92:	4803      	ldr	r0, [pc, #12]	; (8005ea0 <stm32__gpio___elabs+0x18>)
 8005e94:	f003 feb0 	bl	8009bf8 <ada__tags__register_tag>
 8005e98:	bd80      	pop	{r7, pc}
 8005e9a:	bf00      	nop
 8005e9c:	0800ef14 	.word	0x0800ef14
 8005ea0:	0800ef84 	.word	0x0800ef84

08005ea4 <stm32__spi__spi_portIP>:
 8005ea4:	b580      	push	{r7, lr}
 8005ea6:	b086      	sub	sp, #24
 8005ea8:	af02      	add	r7, sp, #8
 8005eaa:	60f8      	str	r0, [r7, #12]
 8005eac:	60b9      	str	r1, [r7, #8]
 8005eae:	4613      	mov	r3, r2
 8005eb0:	71fb      	strb	r3, [r7, #7]
 8005eb2:	79fb      	ldrb	r3, [r7, #7]
 8005eb4:	2b00      	cmp	r3, #0
 8005eb6:	d00b      	beq.n	8005ed0 <stm32__spi__spi_portIP+0x2c>
 8005eb8:	68fb      	ldr	r3, [r7, #12]
 8005eba:	4a08      	ldr	r2, [pc, #32]	; (8005edc <stm32__spi__spi_portIP+0x38>)
 8005ebc:	601a      	str	r2, [r3, #0]
 8005ebe:	68fa      	ldr	r2, [r7, #12]
 8005ec0:	2300      	movs	r3, #0
 8005ec2:	9300      	str	r3, [sp, #0]
 8005ec4:	4610      	mov	r0, r2
 8005ec6:	4906      	ldr	r1, [pc, #24]	; (8005ee0 <stm32__spi__spi_portIP+0x3c>)
 8005ec8:	2201      	movs	r2, #1
 8005eca:	2300      	movs	r3, #0
 8005ecc:	f003 fe64 	bl	8009b98 <ada__tags__register_interface_offset>
 8005ed0:	68fb      	ldr	r3, [r7, #12]
 8005ed2:	68ba      	ldr	r2, [r7, #8]
 8005ed4:	605a      	str	r2, [r3, #4]
 8005ed6:	3710      	adds	r7, #16
 8005ed8:	46bd      	mov	sp, r7
 8005eda:	bd80      	pop	{r7, pc}
 8005edc:	0800f16c 	.word	0x0800f16c
 8005ee0:	0800f3a0 	.word	0x0800f3a0

08005ee4 <stm32__spi___size__2>:
 8005ee4:	b490      	push	{r4, r7}
 8005ee6:	b082      	sub	sp, #8
 8005ee8:	af00      	add	r7, sp, #0
 8005eea:	6078      	str	r0, [r7, #4]
 8005eec:	f04f 0340 	mov.w	r3, #64	; 0x40
 8005ef0:	f04f 0400 	mov.w	r4, #0
 8005ef4:	4618      	mov	r0, r3
 8005ef6:	4621      	mov	r1, r4
 8005ef8:	3708      	adds	r7, #8
 8005efa:	46bd      	mov	sp, r7
 8005efc:	bc90      	pop	{r4, r7}
 8005efe:	4770      	bx	lr

08005f00 <stm32__spi__spi_portDF__2>:
 8005f00:	b480      	push	{r7}
 8005f02:	b083      	sub	sp, #12
 8005f04:	af00      	add	r7, sp, #0
 8005f06:	6078      	str	r0, [r7, #4]
 8005f08:	460b      	mov	r3, r1
 8005f0a:	70fb      	strb	r3, [r7, #3]
 8005f0c:	370c      	adds	r7, #12
 8005f0e:	46bd      	mov	sp, r7
 8005f10:	f85d 7b04 	ldr.w	r7, [sp], #4
 8005f14:	4770      	bx	lr
 8005f16:	bf00      	nop

08005f18 <stm32__spi__configure>:
 8005f18:	b580      	push	{r7, lr}
 8005f1a:	b082      	sub	sp, #8
 8005f1c:	af00      	add	r7, sp, #0
 8005f1e:	6078      	str	r0, [r7, #4]
 8005f20:	6039      	str	r1, [r7, #0]
 8005f22:	683b      	ldr	r3, [r7, #0]
 8005f24:	785b      	ldrb	r3, [r3, #1]
 8005f26:	2b01      	cmp	r3, #1
 8005f28:	d903      	bls.n	8005f32 <stm32__spi__configure+0x1a>
 8005f2a:	4846      	ldr	r0, [pc, #280]	; (8006044 <stm32__spi__configure+0x12c>)
 8005f2c:	214a      	movs	r1, #74	; 0x4a
 8005f2e:	f004 fd81 	bl	800aa34 <__gnat_rcheck_CE_Invalid_Data>
 8005f32:	683b      	ldr	r3, [r7, #0]
 8005f34:	785b      	ldrb	r3, [r3, #1]
 8005f36:	2b00      	cmp	r3, #0
 8005f38:	d114      	bne.n	8005f64 <stm32__spi__configure+0x4c>
 8005f3a:	687b      	ldr	r3, [r7, #4]
 8005f3c:	685b      	ldr	r3, [r3, #4]
 8005f3e:	681b      	ldr	r3, [r3, #0]
 8005f40:	461a      	mov	r2, r3
 8005f42:	4613      	mov	r3, r2
 8005f44:	f043 0204 	orr.w	r2, r3, #4
 8005f48:	687b      	ldr	r3, [r7, #4]
 8005f4a:	685b      	ldr	r3, [r3, #4]
 8005f4c:	601a      	str	r2, [r3, #0]
 8005f4e:	687b      	ldr	r3, [r7, #4]
 8005f50:	685b      	ldr	r3, [r3, #4]
 8005f52:	681b      	ldr	r3, [r3, #0]
 8005f54:	461a      	mov	r2, r3
 8005f56:	4613      	mov	r3, r2
 8005f58:	f443 7280 	orr.w	r2, r3, #256	; 0x100
 8005f5c:	687b      	ldr	r3, [r7, #4]
 8005f5e:	685b      	ldr	r3, [r3, #4]
 8005f60:	601a      	str	r2, [r3, #0]
 8005f62:	e00f      	b.n	8005f84 <stm32__spi__configure+0x6c>
 8005f64:	687b      	ldr	r3, [r7, #4]
 8005f66:	685b      	ldr	r3, [r3, #4]
 8005f68:	681b      	ldr	r3, [r3, #0]
 8005f6a:	f36f 0382 	bfc	r3, #2, #1
 8005f6e:	687a      	ldr	r2, [r7, #4]
 8005f70:	6852      	ldr	r2, [r2, #4]
 8005f72:	6013      	str	r3, [r2, #0]
 8005f74:	687b      	ldr	r3, [r7, #4]
 8005f76:	685b      	ldr	r3, [r3, #4]
 8005f78:	681b      	ldr	r3, [r3, #0]
 8005f7a:	f36f 2308 	bfc	r3, #8, #1
 8005f7e:	687a      	ldr	r2, [r7, #4]
 8005f80:	6852      	ldr	r2, [r2, #4]
 8005f82:	6013      	str	r3, [r2, #0]
 8005f84:	683b      	ldr	r3, [r7, #0]
 8005f86:	781b      	ldrb	r3, [r3, #0]
 8005f88:	2b03      	cmp	r3, #3
 8005f8a:	d903      	bls.n	8005f94 <stm32__spi__configure+0x7c>
 8005f8c:	482d      	ldr	r0, [pc, #180]	; (8006044 <stm32__spi__configure+0x12c>)
 8005f8e:	2153      	movs	r1, #83	; 0x53
 8005f90:	f004 fd50 	bl	800aa34 <__gnat_rcheck_CE_Invalid_Data>
 8005f94:	683b      	ldr	r3, [r7, #0]
 8005f96:	781b      	ldrb	r3, [r3, #0]
 8005f98:	2b01      	cmp	r3, #1
 8005f9a:	d01d      	beq.n	8005fd8 <stm32__spi__configure+0xc0>
 8005f9c:	2b01      	cmp	r3, #1
 8005f9e:	d302      	bcc.n	8005fa6 <stm32__spi__configure+0x8e>
 8005fa0:	2b02      	cmp	r3, #2
 8005fa2:	d034      	beq.n	800600e <stm32__spi__configure+0xf6>
 8005fa4:	e050      	b.n	8006048 <stm32__spi__configure+0x130>
 8005fa6:	687b      	ldr	r3, [r7, #4]
 8005fa8:	685b      	ldr	r3, [r3, #4]
 8005faa:	681b      	ldr	r3, [r3, #0]
 8005fac:	f36f 33cf 	bfc	r3, #15, #1
 8005fb0:	687a      	ldr	r2, [r7, #4]
 8005fb2:	6852      	ldr	r2, [r2, #4]
 8005fb4:	6013      	str	r3, [r2, #0]
 8005fb6:	687b      	ldr	r3, [r7, #4]
 8005fb8:	685b      	ldr	r3, [r3, #4]
 8005fba:	681b      	ldr	r3, [r3, #0]
 8005fbc:	f36f 338e 	bfc	r3, #14, #1
 8005fc0:	687a      	ldr	r2, [r7, #4]
 8005fc2:	6852      	ldr	r2, [r2, #4]
 8005fc4:	6013      	str	r3, [r2, #0]
 8005fc6:	687b      	ldr	r3, [r7, #4]
 8005fc8:	685b      	ldr	r3, [r3, #4]
 8005fca:	681b      	ldr	r3, [r3, #0]
 8005fcc:	f36f 238a 	bfc	r3, #10, #1
 8005fd0:	687a      	ldr	r2, [r7, #4]
 8005fd2:	6852      	ldr	r2, [r2, #4]
 8005fd4:	6013      	str	r3, [r2, #0]
 8005fd6:	e053      	b.n	8006080 <stm32__spi__configure+0x168>
 8005fd8:	687b      	ldr	r3, [r7, #4]
 8005fda:	685b      	ldr	r3, [r3, #4]
 8005fdc:	681b      	ldr	r3, [r3, #0]
 8005fde:	f36f 33cf 	bfc	r3, #15, #1
 8005fe2:	687a      	ldr	r2, [r7, #4]
 8005fe4:	6852      	ldr	r2, [r2, #4]
 8005fe6:	6013      	str	r3, [r2, #0]
 8005fe8:	687b      	ldr	r3, [r7, #4]
 8005fea:	685b      	ldr	r3, [r3, #4]
 8005fec:	681b      	ldr	r3, [r3, #0]
 8005fee:	f36f 338e 	bfc	r3, #14, #1
 8005ff2:	687a      	ldr	r2, [r7, #4]
 8005ff4:	6852      	ldr	r2, [r2, #4]
 8005ff6:	6013      	str	r3, [r2, #0]
 8005ff8:	687b      	ldr	r3, [r7, #4]
 8005ffa:	685b      	ldr	r3, [r3, #4]
 8005ffc:	681b      	ldr	r3, [r3, #0]
 8005ffe:	461a      	mov	r2, r3
 8006000:	4613      	mov	r3, r2
 8006002:	f443 6280 	orr.w	r2, r3, #1024	; 0x400
 8006006:	687b      	ldr	r3, [r7, #4]
 8006008:	685b      	ldr	r3, [r3, #4]
 800600a:	601a      	str	r2, [r3, #0]
 800600c:	e038      	b.n	8006080 <stm32__spi__configure+0x168>
 800600e:	687b      	ldr	r3, [r7, #4]
 8006010:	685b      	ldr	r3, [r3, #4]
 8006012:	681b      	ldr	r3, [r3, #0]
 8006014:	461a      	mov	r2, r3
 8006016:	4613      	mov	r3, r2
 8006018:	f443 4200 	orr.w	r2, r3, #32768	; 0x8000
 800601c:	687b      	ldr	r3, [r7, #4]
 800601e:	685b      	ldr	r3, [r3, #4]
 8006020:	601a      	str	r2, [r3, #0]
 8006022:	687b      	ldr	r3, [r7, #4]
 8006024:	685b      	ldr	r3, [r3, #4]
 8006026:	681b      	ldr	r3, [r3, #0]
 8006028:	f36f 338e 	bfc	r3, #14, #1
 800602c:	687a      	ldr	r2, [r7, #4]
 800602e:	6852      	ldr	r2, [r2, #4]
 8006030:	6013      	str	r3, [r2, #0]
 8006032:	687b      	ldr	r3, [r7, #4]
 8006034:	685b      	ldr	r3, [r3, #4]
 8006036:	681b      	ldr	r3, [r3, #0]
 8006038:	f36f 238a 	bfc	r3, #10, #1
 800603c:	687a      	ldr	r2, [r7, #4]
 800603e:	6852      	ldr	r2, [r2, #4]
 8006040:	6013      	str	r3, [r2, #0]
 8006042:	e01d      	b.n	8006080 <stm32__spi__configure+0x168>
 8006044:	0800f208 	.word	0x0800f208
 8006048:	687b      	ldr	r3, [r7, #4]
 800604a:	685b      	ldr	r3, [r3, #4]
 800604c:	681b      	ldr	r3, [r3, #0]
 800604e:	461a      	mov	r2, r3
 8006050:	4613      	mov	r3, r2
 8006052:	f443 4200 	orr.w	r2, r3, #32768	; 0x8000
 8006056:	687b      	ldr	r3, [r7, #4]
 8006058:	685b      	ldr	r3, [r3, #4]
 800605a:	601a      	str	r2, [r3, #0]
 800605c:	687b      	ldr	r3, [r7, #4]
 800605e:	685b      	ldr	r3, [r3, #4]
 8006060:	681b      	ldr	r3, [r3, #0]
 8006062:	461a      	mov	r2, r3
 8006064:	4613      	mov	r3, r2
 8006066:	f443 4280 	orr.w	r2, r3, #16384	; 0x4000
 800606a:	687b      	ldr	r3, [r7, #4]
 800606c:	685b      	ldr	r3, [r3, #4]
 800606e:	601a      	str	r2, [r3, #0]
 8006070:	687b      	ldr	r3, [r7, #4]
 8006072:	685b      	ldr	r3, [r3, #4]
 8006074:	681b      	ldr	r3, [r3, #0]
 8006076:	f36f 238a 	bfc	r3, #10, #1
 800607a:	687a      	ldr	r2, [r7, #4]
 800607c:	6852      	ldr	r2, [r2, #4]
 800607e:	6013      	str	r3, [r2, #0]
 8006080:	bf00      	nop
 8006082:	687b      	ldr	r3, [r7, #4]
 8006084:	685b      	ldr	r3, [r3, #4]
 8006086:	681b      	ldr	r3, [r3, #0]
 8006088:	683a      	ldr	r2, [r7, #0]
 800608a:	7892      	ldrb	r2, [r2, #2]
 800608c:	2a01      	cmp	r2, #1
 800608e:	bf0c      	ite	eq
 8006090:	2201      	moveq	r2, #1
 8006092:	2200      	movne	r2, #0
 8006094:	b2d2      	uxtb	r2, r2
 8006096:	f002 0201 	and.w	r2, r2, #1
 800609a:	b2d2      	uxtb	r2, r2
 800609c:	f362 23cb 	bfi	r3, r2, #11, #1
 80060a0:	687a      	ldr	r2, [r7, #4]
 80060a2:	6852      	ldr	r2, [r2, #4]
 80060a4:	6013      	str	r3, [r2, #0]
 80060a6:	687b      	ldr	r3, [r7, #4]
 80060a8:	685b      	ldr	r3, [r3, #4]
 80060aa:	681b      	ldr	r3, [r3, #0]
 80060ac:	683a      	ldr	r2, [r7, #0]
 80060ae:	78d2      	ldrb	r2, [r2, #3]
 80060b0:	2a00      	cmp	r2, #0
 80060b2:	bf0c      	ite	eq
 80060b4:	2201      	moveq	r2, #1
 80060b6:	2200      	movne	r2, #0
 80060b8:	b2d2      	uxtb	r2, r2
 80060ba:	f002 0201 	and.w	r2, r2, #1
 80060be:	b2d2      	uxtb	r2, r2
 80060c0:	f362 0341 	bfi	r3, r2, #1, #1
 80060c4:	687a      	ldr	r2, [r7, #4]
 80060c6:	6852      	ldr	r2, [r2, #4]
 80060c8:	6013      	str	r3, [r2, #0]
 80060ca:	687b      	ldr	r3, [r7, #4]
 80060cc:	685b      	ldr	r3, [r3, #4]
 80060ce:	681b      	ldr	r3, [r3, #0]
 80060d0:	683a      	ldr	r2, [r7, #0]
 80060d2:	7912      	ldrb	r2, [r2, #4]
 80060d4:	2a01      	cmp	r2, #1
 80060d6:	bf0c      	ite	eq
 80060d8:	2201      	moveq	r2, #1
 80060da:	2200      	movne	r2, #0
 80060dc:	b2d2      	uxtb	r2, r2
 80060de:	f002 0201 	and.w	r2, r2, #1
 80060e2:	b2d2      	uxtb	r2, r2
 80060e4:	f362 0300 	bfi	r3, r2, #0, #1
 80060e8:	687a      	ldr	r2, [r7, #4]
 80060ea:	6852      	ldr	r2, [r2, #4]
 80060ec:	6013      	str	r3, [r2, #0]
 80060ee:	687b      	ldr	r3, [r7, #4]
 80060f0:	685b      	ldr	r3, [r3, #4]
 80060f2:	681b      	ldr	r3, [r3, #0]
 80060f4:	683a      	ldr	r2, [r7, #0]
 80060f6:	7952      	ldrb	r2, [r2, #5]
 80060f8:	2a00      	cmp	r2, #0
 80060fa:	bf0c      	ite	eq
 80060fc:	2201      	moveq	r2, #1
 80060fe:	2200      	movne	r2, #0
 8006100:	b2d2      	uxtb	r2, r2
 8006102:	f002 0201 	and.w	r2, r2, #1
 8006106:	b2d2      	uxtb	r2, r2
 8006108:	f362 2349 	bfi	r3, r2, #9, #1
 800610c:	687a      	ldr	r2, [r7, #4]
 800610e:	6852      	ldr	r2, [r2, #4]
 8006110:	6013      	str	r3, [r2, #0]
 8006112:	687b      	ldr	r3, [r7, #4]
 8006114:	685b      	ldr	r3, [r3, #4]
 8006116:	681b      	ldr	r3, [r3, #0]
 8006118:	683a      	ldr	r2, [r7, #0]
 800611a:	7992      	ldrb	r2, [r2, #6]
 800611c:	4611      	mov	r1, r2
 800611e:	4a3b      	ldr	r2, [pc, #236]	; (800620c <stm32__spi__configure+0x2f4>)
 8006120:	5c52      	ldrb	r2, [r2, r1]
 8006122:	f002 0207 	and.w	r2, r2, #7
 8006126:	b2d2      	uxtb	r2, r2
 8006128:	f362 03c5 	bfi	r3, r2, #3, #3
 800612c:	687a      	ldr	r2, [r7, #4]
 800612e:	6852      	ldr	r2, [r2, #4]
 8006130:	6013      	str	r3, [r2, #0]
 8006132:	687b      	ldr	r3, [r7, #4]
 8006134:	685b      	ldr	r3, [r3, #4]
 8006136:	681b      	ldr	r3, [r3, #0]
 8006138:	683a      	ldr	r2, [r7, #0]
 800613a:	79d2      	ldrb	r2, [r2, #7]
 800613c:	2a01      	cmp	r2, #1
 800613e:	bf0c      	ite	eq
 8006140:	2201      	moveq	r2, #1
 8006142:	2200      	movne	r2, #0
 8006144:	b2d2      	uxtb	r2, r2
 8006146:	f002 0201 	and.w	r2, r2, #1
 800614a:	b2d2      	uxtb	r2, r2
 800614c:	f362 13c7 	bfi	r3, r2, #7, #1
 8006150:	687a      	ldr	r2, [r7, #4]
 8006152:	6852      	ldr	r2, [r2, #4]
 8006154:	6013      	str	r3, [r2, #0]
 8006156:	687b      	ldr	r3, [r7, #4]
 8006158:	685b      	ldr	r3, [r3, #4]
 800615a:	3304      	adds	r3, #4
 800615c:	681b      	ldr	r3, [r3, #0]
 800615e:	683a      	ldr	r2, [r7, #0]
 8006160:	7a92      	ldrb	r2, [r2, #10]
 8006162:	f002 0201 	and.w	r2, r2, #1
 8006166:	b2d2      	uxtb	r2, r2
 8006168:	f362 0341 	bfi	r3, r2, #1, #1
 800616c:	687a      	ldr	r2, [r7, #4]
 800616e:	6852      	ldr	r2, [r2, #4]
 8006170:	3204      	adds	r2, #4
 8006172:	6013      	str	r3, [r2, #0]
 8006174:	687b      	ldr	r3, [r7, #4]
 8006176:	685b      	ldr	r3, [r3, #4]
 8006178:	3304      	adds	r3, #4
 800617a:	681b      	ldr	r3, [r3, #0]
 800617c:	683a      	ldr	r2, [r7, #0]
 800617e:	7a92      	ldrb	r2, [r2, #10]
 8006180:	f002 0201 	and.w	r2, r2, #1
 8006184:	b2d2      	uxtb	r2, r2
 8006186:	f362 13c7 	bfi	r3, r2, #7, #1
 800618a:	687a      	ldr	r2, [r7, #4]
 800618c:	6852      	ldr	r2, [r2, #4]
 800618e:	3204      	adds	r2, #4
 8006190:	6013      	str	r3, [r2, #0]
 8006192:	687b      	ldr	r3, [r7, #4]
 8006194:	685b      	ldr	r3, [r3, #4]
 8006196:	3304      	adds	r3, #4
 8006198:	681b      	ldr	r3, [r3, #0]
 800619a:	683a      	ldr	r2, [r7, #0]
 800619c:	7ad2      	ldrb	r2, [r2, #11]
 800619e:	f002 0201 	and.w	r2, r2, #1
 80061a2:	b2d2      	uxtb	r2, r2
 80061a4:	f362 0300 	bfi	r3, r2, #0, #1
 80061a8:	687a      	ldr	r2, [r7, #4]
 80061aa:	6852      	ldr	r2, [r2, #4]
 80061ac:	3204      	adds	r2, #4
 80061ae:	6013      	str	r3, [r2, #0]
 80061b0:	687b      	ldr	r3, [r7, #4]
 80061b2:	685b      	ldr	r3, [r3, #4]
 80061b4:	3304      	adds	r3, #4
 80061b6:	681b      	ldr	r3, [r3, #0]
 80061b8:	683a      	ldr	r2, [r7, #0]
 80061ba:	7ad2      	ldrb	r2, [r2, #11]
 80061bc:	f002 0201 	and.w	r2, r2, #1
 80061c0:	b2d2      	uxtb	r2, r2
 80061c2:	f362 1386 	bfi	r3, r2, #6, #1
 80061c6:	687a      	ldr	r2, [r7, #4]
 80061c8:	6852      	ldr	r2, [r2, #4]
 80061ca:	3204      	adds	r2, #4
 80061cc:	6013      	str	r3, [r2, #0]
 80061ce:	687b      	ldr	r3, [r7, #4]
 80061d0:	685b      	ldr	r3, [r3, #4]
 80061d2:	3304      	adds	r3, #4
 80061d4:	681b      	ldr	r3, [r3, #0]
 80061d6:	683a      	ldr	r2, [r7, #0]
 80061d8:	7b12      	ldrb	r2, [r2, #12]
 80061da:	f002 0201 	and.w	r2, r2, #1
 80061de:	b2d2      	uxtb	r2, r2
 80061e0:	f362 330c 	bfi	r3, r2, #12, #1
 80061e4:	687a      	ldr	r2, [r7, #4]
 80061e6:	6852      	ldr	r2, [r2, #4]
 80061e8:	3204      	adds	r2, #4
 80061ea:	6013      	str	r3, [r2, #0]
 80061ec:	687b      	ldr	r3, [r7, #4]
 80061ee:	685b      	ldr	r3, [r3, #4]
 80061f0:	3310      	adds	r3, #16
 80061f2:	681b      	ldr	r3, [r3, #0]
 80061f4:	683a      	ldr	r2, [r7, #0]
 80061f6:	8912      	ldrh	r2, [r2, #8]
 80061f8:	f362 030f 	bfi	r3, r2, #0, #16
 80061fc:	687a      	ldr	r2, [r7, #4]
 80061fe:	6852      	ldr	r2, [r2, #4]
 8006200:	3210      	adds	r2, #16
 8006202:	6013      	str	r3, [r2, #0]
 8006204:	3708      	adds	r7, #8
 8006206:	46bd      	mov	sp, r7
 8006208:	bd80      	pop	{r7, pc}
 800620a:	bf00      	nop
 800620c:	0800f200 	.word	0x0800f200

08006210 <stm32__spi__enable>:
 8006210:	b480      	push	{r7}
 8006212:	b083      	sub	sp, #12
 8006214:	af00      	add	r7, sp, #0
 8006216:	6078      	str	r0, [r7, #4]
 8006218:	687b      	ldr	r3, [r7, #4]
 800621a:	685b      	ldr	r3, [r3, #4]
 800621c:	681b      	ldr	r3, [r3, #0]
 800621e:	461a      	mov	r2, r3
 8006220:	4613      	mov	r3, r2
 8006222:	f043 0240 	orr.w	r2, r3, #64	; 0x40
 8006226:	687b      	ldr	r3, [r7, #4]
 8006228:	685b      	ldr	r3, [r3, #4]
 800622a:	601a      	str	r2, [r3, #0]
 800622c:	370c      	adds	r7, #12
 800622e:	46bd      	mov	sp, r7
 8006230:	f85d 7b04 	ldr.w	r7, [sp], #4
 8006234:	4770      	bx	lr
 8006236:	bf00      	nop

08006238 <stm32__spi__disable>:
 8006238:	b480      	push	{r7}
 800623a:	b083      	sub	sp, #12
 800623c:	af00      	add	r7, sp, #0
 800623e:	6078      	str	r0, [r7, #4]
 8006240:	687b      	ldr	r3, [r7, #4]
 8006242:	685b      	ldr	r3, [r3, #4]
 8006244:	681b      	ldr	r3, [r3, #0]
 8006246:	f36f 1386 	bfc	r3, #6, #1
 800624a:	687a      	ldr	r2, [r7, #4]
 800624c:	6852      	ldr	r2, [r2, #4]
 800624e:	6013      	str	r3, [r2, #0]
 8006250:	370c      	adds	r7, #12
 8006252:	46bd      	mov	sp, r7
 8006254:	f85d 7b04 	ldr.w	r7, [sp], #4
 8006258:	4770      	bx	lr
 800625a:	bf00      	nop

0800625c <stm32__spi__enabled>:
 800625c:	b480      	push	{r7}
 800625e:	b083      	sub	sp, #12
 8006260:	af00      	add	r7, sp, #0
 8006262:	6078      	str	r0, [r7, #4]
 8006264:	687b      	ldr	r3, [r7, #4]
 8006266:	685b      	ldr	r3, [r3, #4]
 8006268:	681b      	ldr	r3, [r3, #0]
 800626a:	f3c3 1380 	ubfx	r3, r3, #6, #1
 800626e:	b2db      	uxtb	r3, r3
 8006270:	bf00      	nop
 8006272:	4618      	mov	r0, r3
 8006274:	370c      	adds	r7, #12
 8006276:	46bd      	mov	sp, r7
 8006278:	f85d 7b04 	ldr.w	r7, [sp], #4
 800627c:	4770      	bx	lr
 800627e:	bf00      	nop

08006280 <stm32__spi__send>:
 8006280:	b480      	push	{r7}
 8006282:	b083      	sub	sp, #12
 8006284:	af00      	add	r7, sp, #0
 8006286:	6078      	str	r0, [r7, #4]
 8006288:	460b      	mov	r3, r1
 800628a:	807b      	strh	r3, [r7, #2]
 800628c:	687b      	ldr	r3, [r7, #4]
 800628e:	685b      	ldr	r3, [r3, #4]
 8006290:	330c      	adds	r3, #12
 8006292:	881b      	ldrh	r3, [r3, #0]
 8006294:	b29b      	uxth	r3, r3
 8006296:	461a      	mov	r2, r3
 8006298:	887a      	ldrh	r2, [r7, #2]
 800629a:	687b      	ldr	r3, [r7, #4]
 800629c:	685b      	ldr	r3, [r3, #4]
 800629e:	330c      	adds	r3, #12
 80062a0:	b292      	uxth	r2, r2
 80062a2:	801a      	strh	r2, [r3, #0]
 80062a4:	370c      	adds	r7, #12
 80062a6:	46bd      	mov	sp, r7
 80062a8:	f85d 7b04 	ldr.w	r7, [sp], #4
 80062ac:	4770      	bx	lr
 80062ae:	bf00      	nop

080062b0 <stm32__spi__data>:
 80062b0:	b480      	push	{r7}
 80062b2:	b083      	sub	sp, #12
 80062b4:	af00      	add	r7, sp, #0
 80062b6:	6078      	str	r0, [r7, #4]
 80062b8:	687b      	ldr	r3, [r7, #4]
 80062ba:	685b      	ldr	r3, [r3, #4]
 80062bc:	330c      	adds	r3, #12
 80062be:	881b      	ldrh	r3, [r3, #0]
 80062c0:	b29b      	uxth	r3, r3
 80062c2:	b29b      	uxth	r3, r3
 80062c4:	bf00      	nop
 80062c6:	4618      	mov	r0, r3
 80062c8:	370c      	adds	r7, #12
 80062ca:	46bd      	mov	sp, r7
 80062cc:	f85d 7b04 	ldr.w	r7, [sp], #4
 80062d0:	4770      	bx	lr
 80062d2:	bf00      	nop

080062d4 <stm32__spi__send__2>:
 80062d4:	b480      	push	{r7}
 80062d6:	b085      	sub	sp, #20
 80062d8:	af00      	add	r7, sp, #0
 80062da:	6078      	str	r0, [r7, #4]
 80062dc:	460b      	mov	r3, r1
 80062de:	70fb      	strb	r3, [r7, #3]
 80062e0:	687b      	ldr	r3, [r7, #4]
 80062e2:	685b      	ldr	r3, [r3, #4]
 80062e4:	330c      	adds	r3, #12
 80062e6:	60fb      	str	r3, [r7, #12]
 80062e8:	68fb      	ldr	r3, [r7, #12]
 80062ea:	78fa      	ldrb	r2, [r7, #3]
 80062ec:	701a      	strb	r2, [r3, #0]
 80062ee:	3714      	adds	r7, #20
 80062f0:	46bd      	mov	sp, r7
 80062f2:	f85d 7b04 	ldr.w	r7, [sp], #4
 80062f6:	4770      	bx	lr

080062f8 <stm32__spi__data__2>:
 80062f8:	b580      	push	{r7, lr}
 80062fa:	b082      	sub	sp, #8
 80062fc:	af00      	add	r7, sp, #0
 80062fe:	6078      	str	r0, [r7, #4]
 8006300:	6878      	ldr	r0, [r7, #4]
 8006302:	f7ff ffd5 	bl	80062b0 <stm32__spi__data>
 8006306:	4603      	mov	r3, r0
 8006308:	2bff      	cmp	r3, #255	; 0xff
 800630a:	d903      	bls.n	8006314 <stm32__spi__data__2+0x1c>
 800630c:	4804      	ldr	r0, [pc, #16]	; (8006320 <stm32__spi__data__2+0x28>)
 800630e:	21b9      	movs	r1, #185	; 0xb9
 8006310:	f004 fba0 	bl	800aa54 <__gnat_rcheck_CE_Range_Check>
 8006314:	b2db      	uxtb	r3, r3
 8006316:	bf00      	nop
 8006318:	4618      	mov	r0, r3
 800631a:	3708      	adds	r7, #8
 800631c:	46bd      	mov	sp, r7
 800631e:	bd80      	pop	{r7, pc}
 8006320:	0800f208 	.word	0x0800f208

08006324 <stm32__spi__is_busy>:
 8006324:	b580      	push	{r7, lr}
 8006326:	b082      	sub	sp, #8
 8006328:	af00      	add	r7, sp, #0
 800632a:	6078      	str	r0, [r7, #4]
 800632c:	6878      	ldr	r0, [r7, #4]
 800632e:	f000 f82d 	bl	800638c <stm32__spi__rx_is_empty>
 8006332:	4603      	mov	r3, r0
 8006334:	2b00      	cmp	r3, #0
 8006336:	d008      	beq.n	800634a <stm32__spi__is_busy+0x26>
 8006338:	6878      	ldr	r0, [r7, #4]
 800633a:	f000 f815 	bl	8006368 <stm32__spi__tx_is_empty>
 800633e:	4603      	mov	r3, r0
 8006340:	f083 0301 	eor.w	r3, r3, #1
 8006344:	b2db      	uxtb	r3, r3
 8006346:	2b00      	cmp	r3, #0
 8006348:	d105      	bne.n	8006356 <stm32__spi__is_busy+0x32>
 800634a:	6878      	ldr	r0, [r7, #4]
 800634c:	f000 f834 	bl	80063b8 <stm32__spi__busy>
 8006350:	4603      	mov	r3, r0
 8006352:	2b00      	cmp	r3, #0
 8006354:	d001      	beq.n	800635a <stm32__spi__is_busy+0x36>
 8006356:	2301      	movs	r3, #1
 8006358:	e000      	b.n	800635c <stm32__spi__is_busy+0x38>
 800635a:	2300      	movs	r3, #0
 800635c:	bf00      	nop
 800635e:	4618      	mov	r0, r3
 8006360:	3708      	adds	r7, #8
 8006362:	46bd      	mov	sp, r7
 8006364:	bd80      	pop	{r7, pc}
 8006366:	bf00      	nop

08006368 <stm32__spi__tx_is_empty>:
 8006368:	b480      	push	{r7}
 800636a:	b083      	sub	sp, #12
 800636c:	af00      	add	r7, sp, #0
 800636e:	6078      	str	r0, [r7, #4]
 8006370:	687b      	ldr	r3, [r7, #4]
 8006372:	685b      	ldr	r3, [r3, #4]
 8006374:	3308      	adds	r3, #8
 8006376:	681b      	ldr	r3, [r3, #0]
 8006378:	f3c3 0340 	ubfx	r3, r3, #1, #1
 800637c:	b2db      	uxtb	r3, r3
 800637e:	bf00      	nop
 8006380:	4618      	mov	r0, r3
 8006382:	370c      	adds	r7, #12
 8006384:	46bd      	mov	sp, r7
 8006386:	f85d 7b04 	ldr.w	r7, [sp], #4
 800638a:	4770      	bx	lr

0800638c <stm32__spi__rx_is_empty>:
 800638c:	b480      	push	{r7}
 800638e:	b083      	sub	sp, #12
 8006390:	af00      	add	r7, sp, #0
 8006392:	6078      	str	r0, [r7, #4]
 8006394:	687b      	ldr	r3, [r7, #4]
 8006396:	685b      	ldr	r3, [r3, #4]
 8006398:	3308      	adds	r3, #8
 800639a:	681b      	ldr	r3, [r3, #0]
 800639c:	f3c3 0300 	ubfx	r3, r3, #0, #1
 80063a0:	b2db      	uxtb	r3, r3
 80063a2:	f083 0301 	eor.w	r3, r3, #1
 80063a6:	b2db      	uxtb	r3, r3
 80063a8:	bf00      	nop
 80063aa:	4618      	mov	r0, r3
 80063ac:	370c      	adds	r7, #12
 80063ae:	46bd      	mov	sp, r7
 80063b0:	f85d 7b04 	ldr.w	r7, [sp], #4
 80063b4:	4770      	bx	lr
 80063b6:	bf00      	nop

080063b8 <stm32__spi__busy>:
 80063b8:	b480      	push	{r7}
 80063ba:	b083      	sub	sp, #12
 80063bc:	af00      	add	r7, sp, #0
 80063be:	6078      	str	r0, [r7, #4]
 80063c0:	687b      	ldr	r3, [r7, #4]
 80063c2:	685b      	ldr	r3, [r3, #4]
 80063c4:	3308      	adds	r3, #8
 80063c6:	681b      	ldr	r3, [r3, #0]
 80063c8:	f3c3 13c0 	ubfx	r3, r3, #7, #1
 80063cc:	b2db      	uxtb	r3, r3
 80063ce:	bf00      	nop
 80063d0:	4618      	mov	r0, r3
 80063d2:	370c      	adds	r7, #12
 80063d4:	46bd      	mov	sp, r7
 80063d6:	f85d 7b04 	ldr.w	r7, [sp], #4
 80063da:	4770      	bx	lr

080063dc <stm32__spi__current_mode>:
 80063dc:	b480      	push	{r7}
 80063de:	b083      	sub	sp, #12
 80063e0:	af00      	add	r7, sp, #0
 80063e2:	6078      	str	r0, [r7, #4]
 80063e4:	687b      	ldr	r3, [r7, #4]
 80063e6:	685b      	ldr	r3, [r3, #4]
 80063e8:	681b      	ldr	r3, [r3, #0]
 80063ea:	f3c3 0380 	ubfx	r3, r3, #2, #1
 80063ee:	b2db      	uxtb	r3, r3
 80063f0:	461a      	mov	r2, r3
 80063f2:	687b      	ldr	r3, [r7, #4]
 80063f4:	685b      	ldr	r3, [r3, #4]
 80063f6:	681b      	ldr	r3, [r3, #0]
 80063f8:	f3c3 2300 	ubfx	r3, r3, #8, #1
 80063fc:	b2db      	uxtb	r3, r3
 80063fe:	4013      	ands	r3, r2
 8006400:	b2db      	uxtb	r3, r3
 8006402:	2b00      	cmp	r3, #0
 8006404:	d001      	beq.n	800640a <stm32__spi__current_mode+0x2e>
 8006406:	2300      	movs	r3, #0
 8006408:	e000      	b.n	800640c <stm32__spi__current_mode+0x30>
 800640a:	2301      	movs	r3, #1
 800640c:	bf00      	nop
 800640e:	4618      	mov	r0, r3
 8006410:	370c      	adds	r7, #12
 8006412:	46bd      	mov	sp, r7
 8006414:	f85d 7b04 	ldr.w	r7, [sp], #4
 8006418:	4770      	bx	lr
 800641a:	bf00      	nop

0800641c <stm32__spi__current_data_direction>:
 800641c:	b480      	push	{r7}
 800641e:	b083      	sub	sp, #12
 8006420:	af00      	add	r7, sp, #0
 8006422:	6078      	str	r0, [r7, #4]
 8006424:	687b      	ldr	r3, [r7, #4]
 8006426:	685b      	ldr	r3, [r3, #4]
 8006428:	681b      	ldr	r3, [r3, #0]
 800642a:	f3c3 33c0 	ubfx	r3, r3, #15, #1
 800642e:	b2db      	uxtb	r3, r3
 8006430:	f083 0301 	eor.w	r3, r3, #1
 8006434:	b2db      	uxtb	r3, r3
 8006436:	2b00      	cmp	r3, #0
 8006438:	d00e      	beq.n	8006458 <stm32__spi__current_data_direction+0x3c>
 800643a:	687b      	ldr	r3, [r7, #4]
 800643c:	685b      	ldr	r3, [r3, #4]
 800643e:	681b      	ldr	r3, [r3, #0]
 8006440:	f3c3 2380 	ubfx	r3, r3, #10, #1
 8006444:	b2db      	uxtb	r3, r3
 8006446:	f083 0301 	eor.w	r3, r3, #1
 800644a:	b2db      	uxtb	r3, r3
 800644c:	2b00      	cmp	r3, #0
 800644e:	d001      	beq.n	8006454 <stm32__spi__current_data_direction+0x38>
 8006450:	2300      	movs	r3, #0
 8006452:	e00f      	b.n	8006474 <stm32__spi__current_data_direction+0x58>
 8006454:	2301      	movs	r3, #1
 8006456:	e00d      	b.n	8006474 <stm32__spi__current_data_direction+0x58>
 8006458:	687b      	ldr	r3, [r7, #4]
 800645a:	685b      	ldr	r3, [r3, #4]
 800645c:	681b      	ldr	r3, [r3, #0]
 800645e:	f3c3 3380 	ubfx	r3, r3, #14, #1
 8006462:	b2db      	uxtb	r3, r3
 8006464:	f083 0301 	eor.w	r3, r3, #1
 8006468:	b2db      	uxtb	r3, r3
 800646a:	2b00      	cmp	r3, #0
 800646c:	d001      	beq.n	8006472 <stm32__spi__current_data_direction+0x56>
 800646e:	2302      	movs	r3, #2
 8006470:	e000      	b.n	8006474 <stm32__spi__current_data_direction+0x58>
 8006472:	2303      	movs	r3, #3
 8006474:	bf00      	nop
 8006476:	4618      	mov	r0, r3
 8006478:	370c      	adds	r7, #12
 800647a:	46bd      	mov	sp, r7
 800647c:	f85d 7b04 	ldr.w	r7, [sp], #4
 8006480:	4770      	bx	lr
 8006482:	bf00      	nop

08006484 <stm32__spi__crc_enabled>:
 8006484:	b480      	push	{r7}
 8006486:	b083      	sub	sp, #12
 8006488:	af00      	add	r7, sp, #0
 800648a:	6078      	str	r0, [r7, #4]
 800648c:	687b      	ldr	r3, [r7, #4]
 800648e:	685b      	ldr	r3, [r3, #4]
 8006490:	681b      	ldr	r3, [r3, #0]
 8006492:	f3c3 3340 	ubfx	r3, r3, #13, #1
 8006496:	b2db      	uxtb	r3, r3
 8006498:	bf00      	nop
 800649a:	4618      	mov	r0, r3
 800649c:	370c      	adds	r7, #12
 800649e:	46bd      	mov	sp, r7
 80064a0:	f85d 7b04 	ldr.w	r7, [sp], #4
 80064a4:	4770      	bx	lr
 80064a6:	bf00      	nop

080064a8 <stm32__spi__crc_error_indicated>:
 80064a8:	b480      	push	{r7}
 80064aa:	b083      	sub	sp, #12
 80064ac:	af00      	add	r7, sp, #0
 80064ae:	6078      	str	r0, [r7, #4]
 80064b0:	687b      	ldr	r3, [r7, #4]
 80064b2:	685b      	ldr	r3, [r3, #4]
 80064b4:	3308      	adds	r3, #8
 80064b6:	681b      	ldr	r3, [r3, #0]
 80064b8:	f3c3 1300 	ubfx	r3, r3, #4, #1
 80064bc:	b2db      	uxtb	r3, r3
 80064be:	bf00      	nop
 80064c0:	4618      	mov	r0, r3
 80064c2:	370c      	adds	r7, #12
 80064c4:	46bd      	mov	sp, r7
 80064c6:	f85d 7b04 	ldr.w	r7, [sp], #4
 80064ca:	4770      	bx	lr

080064cc <stm32__spi__mode_fault_indicated>:
 80064cc:	b480      	push	{r7}
 80064ce:	b083      	sub	sp, #12
 80064d0:	af00      	add	r7, sp, #0
 80064d2:	6078      	str	r0, [r7, #4]
 80064d4:	687b      	ldr	r3, [r7, #4]
 80064d6:	685b      	ldr	r3, [r3, #4]
 80064d8:	3308      	adds	r3, #8
 80064da:	681b      	ldr	r3, [r3, #0]
 80064dc:	f3c3 1340 	ubfx	r3, r3, #5, #1
 80064e0:	b2db      	uxtb	r3, r3
 80064e2:	bf00      	nop
 80064e4:	4618      	mov	r0, r3
 80064e6:	370c      	adds	r7, #12
 80064e8:	46bd      	mov	sp, r7
 80064ea:	f85d 7b04 	ldr.w	r7, [sp], #4
 80064ee:	4770      	bx	lr

080064f0 <stm32__spi__overrun_indicated>:
 80064f0:	b480      	push	{r7}
 80064f2:	b083      	sub	sp, #12
 80064f4:	af00      	add	r7, sp, #0
 80064f6:	6078      	str	r0, [r7, #4]
 80064f8:	687b      	ldr	r3, [r7, #4]
 80064fa:	685b      	ldr	r3, [r3, #4]
 80064fc:	3308      	adds	r3, #8
 80064fe:	681b      	ldr	r3, [r3, #0]
 8006500:	f3c3 1380 	ubfx	r3, r3, #6, #1
 8006504:	b2db      	uxtb	r3, r3
 8006506:	bf00      	nop
 8006508:	4618      	mov	r0, r3
 800650a:	370c      	adds	r7, #12
 800650c:	46bd      	mov	sp, r7
 800650e:	f85d 7b04 	ldr.w	r7, [sp], #4
 8006512:	4770      	bx	lr

08006514 <stm32__spi__frame_fmt_error_indicated>:
 8006514:	b480      	push	{r7}
 8006516:	b083      	sub	sp, #12
 8006518:	af00      	add	r7, sp, #0
 800651a:	6078      	str	r0, [r7, #4]
 800651c:	687b      	ldr	r3, [r7, #4]
 800651e:	685b      	ldr	r3, [r3, #4]
 8006520:	3308      	adds	r3, #8
 8006522:	681b      	ldr	r3, [r3, #0]
 8006524:	f3c3 2300 	ubfx	r3, r3, #8, #1
 8006528:	b2db      	uxtb	r3, r3
 800652a:	bf00      	nop
 800652c:	4618      	mov	r0, r3
 800652e:	370c      	adds	r7, #12
 8006530:	46bd      	mov	sp, r7
 8006532:	f85d 7b04 	ldr.w	r7, [sp], #4
 8006536:	4770      	bx	lr

08006538 <stm32__spi__clear_overrun>:
 8006538:	b580      	push	{r7, lr}
 800653a:	b084      	sub	sp, #16
 800653c:	af00      	add	r7, sp, #0
 800653e:	6078      	str	r0, [r7, #4]
 8006540:	f107 0308 	add.w	r3, r7, #8
 8006544:	4618      	mov	r0, r3
 8006546:	f001 faa9 	bl	8007a9c <stm32_svd__spi__sr_registerIP>
 800654a:	687b      	ldr	r3, [r7, #4]
 800654c:	685b      	ldr	r3, [r3, #4]
 800654e:	330c      	adds	r3, #12
 8006550:	881b      	ldrh	r3, [r3, #0]
 8006552:	b29b      	uxth	r3, r3
 8006554:	81fb      	strh	r3, [r7, #14]
 8006556:	687b      	ldr	r3, [r7, #4]
 8006558:	685b      	ldr	r3, [r3, #4]
 800655a:	3308      	adds	r3, #8
 800655c:	681b      	ldr	r3, [r3, #0]
 800655e:	60bb      	str	r3, [r7, #8]
 8006560:	3710      	adds	r7, #16
 8006562:	46bd      	mov	sp, r7
 8006564:	bd80      	pop	{r7, pc}
 8006566:	bf00      	nop

08006568 <stm32__spi__reset_crc>:
 8006568:	b480      	push	{r7}
 800656a:	b083      	sub	sp, #12
 800656c:	af00      	add	r7, sp, #0
 800656e:	6078      	str	r0, [r7, #4]
 8006570:	687b      	ldr	r3, [r7, #4]
 8006572:	685b      	ldr	r3, [r3, #4]
 8006574:	681b      	ldr	r3, [r3, #0]
 8006576:	f36f 334d 	bfc	r3, #13, #1
 800657a:	687a      	ldr	r2, [r7, #4]
 800657c:	6852      	ldr	r2, [r2, #4]
 800657e:	6013      	str	r3, [r2, #0]
 8006580:	687b      	ldr	r3, [r7, #4]
 8006582:	685b      	ldr	r3, [r3, #4]
 8006584:	681b      	ldr	r3, [r3, #0]
 8006586:	461a      	mov	r2, r3
 8006588:	4613      	mov	r3, r2
 800658a:	f443 5200 	orr.w	r2, r3, #8192	; 0x2000
 800658e:	687b      	ldr	r3, [r7, #4]
 8006590:	685b      	ldr	r3, [r3, #4]
 8006592:	601a      	str	r2, [r3, #0]
 8006594:	370c      	adds	r7, #12
 8006596:	46bd      	mov	sp, r7
 8006598:	f85d 7b04 	ldr.w	r7, [sp], #4
 800659c:	4770      	bx	lr
 800659e:	bf00      	nop

080065a0 <stm32__spi__is_data_frame_16bit>:
 80065a0:	b480      	push	{r7}
 80065a2:	b083      	sub	sp, #12
 80065a4:	af00      	add	r7, sp, #0
 80065a6:	6078      	str	r0, [r7, #4]
 80065a8:	687b      	ldr	r3, [r7, #4]
 80065aa:	685b      	ldr	r3, [r3, #4]
 80065ac:	681b      	ldr	r3, [r3, #0]
 80065ae:	f3c3 23c0 	ubfx	r3, r3, #11, #1
 80065b2:	b2db      	uxtb	r3, r3
 80065b4:	bf00      	nop
 80065b6:	4618      	mov	r0, r3
 80065b8:	370c      	adds	r7, #12
 80065ba:	46bd      	mov	sp, r7
 80065bc:	f85d 7b04 	ldr.w	r7, [sp], #4
 80065c0:	4770      	bx	lr
 80065c2:	bf00      	nop

080065c4 <stm32__spi__data_size>:
 80065c4:	b480      	push	{r7}
 80065c6:	b083      	sub	sp, #12
 80065c8:	af00      	add	r7, sp, #0
 80065ca:	6078      	str	r0, [r7, #4]
 80065cc:	687b      	ldr	r3, [r7, #4]
 80065ce:	685b      	ldr	r3, [r3, #4]
 80065d0:	681b      	ldr	r3, [r3, #0]
 80065d2:	f3c3 23c0 	ubfx	r3, r3, #11, #1
 80065d6:	b2db      	uxtb	r3, r3
 80065d8:	2b00      	cmp	r3, #0
 80065da:	d001      	beq.n	80065e0 <stm32__spi__data_size+0x1c>
 80065dc:	2301      	movs	r3, #1
 80065de:	e000      	b.n	80065e2 <stm32__spi__data_size+0x1e>
 80065e0:	2300      	movs	r3, #0
 80065e2:	bf00      	nop
 80065e4:	4618      	mov	r0, r3
 80065e6:	370c      	adds	r7, #12
 80065e8:	46bd      	mov	sp, r7
 80065ea:	f85d 7b04 	ldr.w	r7, [sp], #4
 80065ee:	4770      	bx	lr

080065f0 <stm32__spi__transmit>:
 80065f0:	b5b0      	push	{r4, r5, r7, lr}
 80065f2:	b086      	sub	sp, #24
 80065f4:	af00      	add	r7, sp, #0
 80065f6:	60f8      	str	r0, [r7, #12]
 80065f8:	e9c7 2300 	strd	r2, r3, [r7]
 80065fc:	68f8      	ldr	r0, [r7, #12]
 80065fe:	f7ff ffe1 	bl	80065c4 <stm32__spi__data_size>
 8006602:	4603      	mov	r3, r0
 8006604:	2b00      	cmp	r3, #0
 8006606:	d005      	beq.n	8006614 <stm32__spi__transmit+0x24>
 8006608:	4c2c      	ldr	r4, [pc, #176]	; (80066bc <stm32__spi__transmit+0xcc>)
 800660a:	4d2d      	ldr	r5, [pc, #180]	; (80066c0 <stm32__spi__transmit+0xd0>)
 800660c:	4620      	mov	r0, r4
 800660e:	4629      	mov	r1, r5
 8006610:	f004 fdf6 	bl	800b200 <system__assertions__raise_assert_failure>
 8006614:	68f8      	ldr	r0, [r7, #12]
 8006616:	f7ff ff35 	bl	8006484 <stm32__spi__crc_enabled>
 800661a:	4603      	mov	r3, r0
 800661c:	2b00      	cmp	r3, #0
 800661e:	d002      	beq.n	8006626 <stm32__spi__transmit+0x36>
 8006620:	68f8      	ldr	r0, [r7, #12]
 8006622:	f7ff ffa1 	bl	8006568 <stm32__spi__reset_crc>
 8006626:	68f8      	ldr	r0, [r7, #12]
 8006628:	f7ff fef8 	bl	800641c <stm32__spi__current_data_direction>
 800662c:	4603      	mov	r3, r0
 800662e:	2b03      	cmp	r3, #3
 8006630:	d109      	bne.n	8006646 <stm32__spi__transmit+0x56>
 8006632:	68fb      	ldr	r3, [r7, #12]
 8006634:	685b      	ldr	r3, [r3, #4]
 8006636:	681b      	ldr	r3, [r3, #0]
 8006638:	461a      	mov	r2, r3
 800663a:	4613      	mov	r3, r2
 800663c:	f443 4280 	orr.w	r2, r3, #16384	; 0x4000
 8006640:	68fb      	ldr	r3, [r7, #12]
 8006642:	685b      	ldr	r3, [r3, #4]
 8006644:	601a      	str	r2, [r3, #0]
 8006646:	68f8      	ldr	r0, [r7, #12]
 8006648:	f7ff ff76 	bl	8006538 <stm32__spi__clear_overrun>
 800664c:	68f8      	ldr	r0, [r7, #12]
 800664e:	f7ff fe05 	bl	800625c <stm32__spi__enabled>
 8006652:	4603      	mov	r3, r0
 8006654:	f083 0301 	eor.w	r3, r3, #1
 8006658:	b2db      	uxtb	r3, r3
 800665a:	2b00      	cmp	r3, #0
 800665c:	d002      	beq.n	8006664 <stm32__spi__transmit+0x74>
 800665e:	68f8      	ldr	r0, [r7, #12]
 8006660:	f7ff fdd6 	bl	8006210 <stm32__spi__enable>
 8006664:	68f8      	ldr	r0, [r7, #12]
 8006666:	e9d7 2300 	ldrd	r2, r3, [r7]
 800666a:	f000 fef7 	bl	800745c <stm32__spi__send_8bit_mode>
 800666e:	68f8      	ldr	r0, [r7, #12]
 8006670:	f7ff fe7a 	bl	8006368 <stm32__spi__tx_is_empty>
 8006674:	4603      	mov	r3, r0
 8006676:	f083 0301 	eor.w	r3, r3, #1
 800667a:	b2db      	uxtb	r3, r3
 800667c:	2b00      	cmp	r3, #0
 800667e:	d001      	beq.n	8006684 <stm32__spi__transmit+0x94>
 8006680:	bf00      	nop
 8006682:	e7f4      	b.n	800666e <stm32__spi__transmit+0x7e>
 8006684:	68f8      	ldr	r0, [r7, #12]
 8006686:	f7ff fe97 	bl	80063b8 <stm32__spi__busy>
 800668a:	4603      	mov	r3, r0
 800668c:	2b00      	cmp	r3, #0
 800668e:	d001      	beq.n	8006694 <stm32__spi__transmit+0xa4>
 8006690:	bf00      	nop
 8006692:	e7f7      	b.n	8006684 <stm32__spi__transmit+0x94>
 8006694:	68f8      	ldr	r0, [r7, #12]
 8006696:	f7ff fec1 	bl	800641c <stm32__spi__current_data_direction>
 800669a:	4603      	mov	r3, r0
 800669c:	2b01      	cmp	r3, #1
 800669e:	d001      	beq.n	80066a4 <stm32__spi__transmit+0xb4>
 80066a0:	2b00      	cmp	r3, #0
 80066a2:	d102      	bne.n	80066aa <stm32__spi__transmit+0xba>
 80066a4:	68f8      	ldr	r0, [r7, #12]
 80066a6:	f7ff ff47 	bl	8006538 <stm32__spi__clear_overrun>
 80066aa:	2300      	movs	r3, #0
 80066ac:	75fb      	strb	r3, [r7, #23]
 80066ae:	7dfb      	ldrb	r3, [r7, #23]
 80066b0:	bf00      	nop
 80066b2:	4618      	mov	r0, r3
 80066b4:	3718      	adds	r7, #24
 80066b6:	46bd      	mov	sp, r7
 80066b8:	bdb0      	pop	{r4, r5, r7, pc}
 80066ba:	bf00      	nop
 80066bc:	0800f218 	.word	0x0800f218
 80066c0:	0800f24c 	.word	0x0800f24c

080066c4 <stm32__spi__transmit__2>:
 80066c4:	b5b0      	push	{r4, r5, r7, lr}
 80066c6:	b086      	sub	sp, #24
 80066c8:	af00      	add	r7, sp, #0
 80066ca:	60f8      	str	r0, [r7, #12]
 80066cc:	e9c7 2300 	strd	r2, r3, [r7]
 80066d0:	68f8      	ldr	r0, [r7, #12]
 80066d2:	f7ff ff77 	bl	80065c4 <stm32__spi__data_size>
 80066d6:	4603      	mov	r3, r0
 80066d8:	2b01      	cmp	r3, #1
 80066da:	d005      	beq.n	80066e8 <stm32__spi__transmit__2+0x24>
 80066dc:	4c2d      	ldr	r4, [pc, #180]	; (8006794 <stm32__spi__transmit__2+0xd0>)
 80066de:	4d2e      	ldr	r5, [pc, #184]	; (8006798 <stm32__spi__transmit__2+0xd4>)
 80066e0:	4620      	mov	r0, r4
 80066e2:	4629      	mov	r1, r5
 80066e4:	f004 fd8c 	bl	800b200 <system__assertions__raise_assert_failure>
 80066e8:	68f8      	ldr	r0, [r7, #12]
 80066ea:	f7ff fecb 	bl	8006484 <stm32__spi__crc_enabled>
 80066ee:	4603      	mov	r3, r0
 80066f0:	2b00      	cmp	r3, #0
 80066f2:	d002      	beq.n	80066fa <stm32__spi__transmit__2+0x36>
 80066f4:	68f8      	ldr	r0, [r7, #12]
 80066f6:	f7ff ff37 	bl	8006568 <stm32__spi__reset_crc>
 80066fa:	68f8      	ldr	r0, [r7, #12]
 80066fc:	f7ff fe8e 	bl	800641c <stm32__spi__current_data_direction>
 8006700:	4603      	mov	r3, r0
 8006702:	2b03      	cmp	r3, #3
 8006704:	d109      	bne.n	800671a <stm32__spi__transmit__2+0x56>
 8006706:	68fb      	ldr	r3, [r7, #12]
 8006708:	685b      	ldr	r3, [r3, #4]
 800670a:	681b      	ldr	r3, [r3, #0]
 800670c:	461a      	mov	r2, r3
 800670e:	4613      	mov	r3, r2
 8006710:	f443 4280 	orr.w	r2, r3, #16384	; 0x4000
 8006714:	68fb      	ldr	r3, [r7, #12]
 8006716:	685b      	ldr	r3, [r3, #4]
 8006718:	601a      	str	r2, [r3, #0]
 800671a:	68f8      	ldr	r0, [r7, #12]
 800671c:	f7ff ff0c 	bl	8006538 <stm32__spi__clear_overrun>
 8006720:	68f8      	ldr	r0, [r7, #12]
 8006722:	f7ff fd9b 	bl	800625c <stm32__spi__enabled>
 8006726:	4603      	mov	r3, r0
 8006728:	f083 0301 	eor.w	r3, r3, #1
 800672c:	b2db      	uxtb	r3, r3
 800672e:	2b00      	cmp	r3, #0
 8006730:	d002      	beq.n	8006738 <stm32__spi__transmit__2+0x74>
 8006732:	68f8      	ldr	r0, [r7, #12]
 8006734:	f7ff fd6c 	bl	8006210 <stm32__spi__enable>
 8006738:	68f8      	ldr	r0, [r7, #12]
 800673a:	e9d7 2300 	ldrd	r2, r3, [r7]
 800673e:	f000 fd9b 	bl	8007278 <stm32__spi__send_16bit_mode>
 8006742:	68f8      	ldr	r0, [r7, #12]
 8006744:	f7ff fe10 	bl	8006368 <stm32__spi__tx_is_empty>
 8006748:	4603      	mov	r3, r0
 800674a:	f083 0301 	eor.w	r3, r3, #1
 800674e:	b2db      	uxtb	r3, r3
 8006750:	2b00      	cmp	r3, #0
 8006752:	d001      	beq.n	8006758 <stm32__spi__transmit__2+0x94>
 8006754:	bf00      	nop
 8006756:	e7f4      	b.n	8006742 <stm32__spi__transmit__2+0x7e>
 8006758:	68f8      	ldr	r0, [r7, #12]
 800675a:	f7ff fe2d 	bl	80063b8 <stm32__spi__busy>
 800675e:	4603      	mov	r3, r0
 8006760:	2b00      	cmp	r3, #0
 8006762:	d001      	beq.n	8006768 <stm32__spi__transmit__2+0xa4>
 8006764:	bf00      	nop
 8006766:	e7f7      	b.n	8006758 <stm32__spi__transmit__2+0x94>
 8006768:	68f8      	ldr	r0, [r7, #12]
 800676a:	f7ff fe57 	bl	800641c <stm32__spi__current_data_direction>
 800676e:	4603      	mov	r3, r0
 8006770:	2b01      	cmp	r3, #1
 8006772:	d001      	beq.n	8006778 <stm32__spi__transmit__2+0xb4>
 8006774:	2b00      	cmp	r3, #0
 8006776:	d104      	bne.n	8006782 <stm32__spi__transmit__2+0xbe>
 8006778:	68f8      	ldr	r0, [r7, #12]
 800677a:	f7ff fedd 	bl	8006538 <stm32__spi__clear_overrun>
 800677e:	2301      	movs	r3, #1
 8006780:	75fb      	strb	r3, [r7, #23]
 8006782:	2300      	movs	r3, #0
 8006784:	75fb      	strb	r3, [r7, #23]
 8006786:	7dfb      	ldrb	r3, [r7, #23]
 8006788:	bf00      	nop
 800678a:	4618      	mov	r0, r3
 800678c:	3718      	adds	r7, #24
 800678e:	46bd      	mov	sp, r7
 8006790:	bdb0      	pop	{r4, r5, r7, pc}
 8006792:	bf00      	nop
 8006794:	0800f254 	.word	0x0800f254
 8006798:	0800f24c 	.word	0x0800f24c

0800679c <stm32__spi__transmit__3>:
 800679c:	b580      	push	{r7, lr}
 800679e:	b084      	sub	sp, #16
 80067a0:	af00      	add	r7, sp, #0
 80067a2:	6078      	str	r0, [r7, #4]
 80067a4:	460b      	mov	r3, r1
 80067a6:	70fb      	strb	r3, [r7, #3]
 80067a8:	687b      	ldr	r3, [r7, #4]
 80067aa:	685b      	ldr	r3, [r3, #4]
 80067ac:	330c      	adds	r3, #12
 80067ae:	60fb      	str	r3, [r7, #12]
 80067b0:	6878      	ldr	r0, [r7, #4]
 80067b2:	f7ff fe67 	bl	8006484 <stm32__spi__crc_enabled>
 80067b6:	4603      	mov	r3, r0
 80067b8:	2b00      	cmp	r3, #0
 80067ba:	d002      	beq.n	80067c2 <stm32__spi__transmit__3+0x26>
 80067bc:	6878      	ldr	r0, [r7, #4]
 80067be:	f7ff fed3 	bl	8006568 <stm32__spi__reset_crc>
 80067c2:	6878      	ldr	r0, [r7, #4]
 80067c4:	f7ff fe2a 	bl	800641c <stm32__spi__current_data_direction>
 80067c8:	4603      	mov	r3, r0
 80067ca:	2b03      	cmp	r3, #3
 80067cc:	d109      	bne.n	80067e2 <stm32__spi__transmit__3+0x46>
 80067ce:	687b      	ldr	r3, [r7, #4]
 80067d0:	685b      	ldr	r3, [r3, #4]
 80067d2:	681b      	ldr	r3, [r3, #0]
 80067d4:	461a      	mov	r2, r3
 80067d6:	4613      	mov	r3, r2
 80067d8:	f443 4280 	orr.w	r2, r3, #16384	; 0x4000
 80067dc:	687b      	ldr	r3, [r7, #4]
 80067de:	685b      	ldr	r3, [r3, #4]
 80067e0:	601a      	str	r2, [r3, #0]
 80067e2:	6878      	ldr	r0, [r7, #4]
 80067e4:	f7ff fd3a 	bl	800625c <stm32__spi__enabled>
 80067e8:	4603      	mov	r3, r0
 80067ea:	f083 0301 	eor.w	r3, r3, #1
 80067ee:	b2db      	uxtb	r3, r3
 80067f0:	2b00      	cmp	r3, #0
 80067f2:	d002      	beq.n	80067fa <stm32__spi__transmit__3+0x5e>
 80067f4:	6878      	ldr	r0, [r7, #4]
 80067f6:	f7ff fd0b 	bl	8006210 <stm32__spi__enable>
 80067fa:	68fb      	ldr	r3, [r7, #12]
 80067fc:	78fa      	ldrb	r2, [r7, #3]
 80067fe:	701a      	strb	r2, [r3, #0]
 8006800:	6878      	ldr	r0, [r7, #4]
 8006802:	f7ff fdb1 	bl	8006368 <stm32__spi__tx_is_empty>
 8006806:	4603      	mov	r3, r0
 8006808:	f083 0301 	eor.w	r3, r3, #1
 800680c:	b2db      	uxtb	r3, r3
 800680e:	2b00      	cmp	r3, #0
 8006810:	d001      	beq.n	8006816 <stm32__spi__transmit__3+0x7a>
 8006812:	bf00      	nop
 8006814:	e7f4      	b.n	8006800 <stm32__spi__transmit__3+0x64>
 8006816:	6878      	ldr	r0, [r7, #4]
 8006818:	f7ff fdce 	bl	80063b8 <stm32__spi__busy>
 800681c:	4603      	mov	r3, r0
 800681e:	2b00      	cmp	r3, #0
 8006820:	d001      	beq.n	8006826 <stm32__spi__transmit__3+0x8a>
 8006822:	bf00      	nop
 8006824:	e7f7      	b.n	8006816 <stm32__spi__transmit__3+0x7a>
 8006826:	6878      	ldr	r0, [r7, #4]
 8006828:	f7ff fdf8 	bl	800641c <stm32__spi__current_data_direction>
 800682c:	4603      	mov	r3, r0
 800682e:	2b01      	cmp	r3, #1
 8006830:	d001      	beq.n	8006836 <stm32__spi__transmit__3+0x9a>
 8006832:	2b00      	cmp	r3, #0
 8006834:	d102      	bne.n	800683c <stm32__spi__transmit__3+0xa0>
 8006836:	6878      	ldr	r0, [r7, #4]
 8006838:	f7ff fe7e 	bl	8006538 <stm32__spi__clear_overrun>
 800683c:	3710      	adds	r7, #16
 800683e:	46bd      	mov	sp, r7
 8006840:	bd80      	pop	{r7, pc}
 8006842:	bf00      	nop

08006844 <stm32__spi__receive>:
 8006844:	b5b0      	push	{r4, r5, r7, lr}
 8006846:	b086      	sub	sp, #24
 8006848:	af00      	add	r7, sp, #0
 800684a:	60f8      	str	r0, [r7, #12]
 800684c:	e9c7 2300 	strd	r2, r3, [r7]
 8006850:	68f8      	ldr	r0, [r7, #12]
 8006852:	f7ff feb7 	bl	80065c4 <stm32__spi__data_size>
 8006856:	4603      	mov	r3, r0
 8006858:	2b00      	cmp	r3, #0
 800685a:	d005      	beq.n	8006868 <stm32__spi__receive+0x24>
 800685c:	4c20      	ldr	r4, [pc, #128]	; (80068e0 <stm32__spi__receive+0x9c>)
 800685e:	4d21      	ldr	r5, [pc, #132]	; (80068e4 <stm32__spi__receive+0xa0>)
 8006860:	4620      	mov	r0, r4
 8006862:	4629      	mov	r1, r5
 8006864:	f004 fccc 	bl	800b200 <system__assertions__raise_assert_failure>
 8006868:	68f8      	ldr	r0, [r7, #12]
 800686a:	f7ff fe0b 	bl	8006484 <stm32__spi__crc_enabled>
 800686e:	4603      	mov	r3, r0
 8006870:	2b00      	cmp	r3, #0
 8006872:	d002      	beq.n	800687a <stm32__spi__receive+0x36>
 8006874:	68f8      	ldr	r0, [r7, #12]
 8006876:	f7ff fe77 	bl	8006568 <stm32__spi__reset_crc>
 800687a:	68f8      	ldr	r0, [r7, #12]
 800687c:	f7ff fcee 	bl	800625c <stm32__spi__enabled>
 8006880:	4603      	mov	r3, r0
 8006882:	f083 0301 	eor.w	r3, r3, #1
 8006886:	b2db      	uxtb	r3, r3
 8006888:	2b00      	cmp	r3, #0
 800688a:	d002      	beq.n	8006892 <stm32__spi__receive+0x4e>
 800688c:	68f8      	ldr	r0, [r7, #12]
 800688e:	f7ff fcbf 	bl	8006210 <stm32__spi__enable>
 8006892:	68f8      	ldr	r0, [r7, #12]
 8006894:	e9d7 2300 	ldrd	r2, r3, [r7]
 8006898:	f000 fef0 	bl	800767c <stm32__spi__receive_8bit_mode>
 800689c:	68f8      	ldr	r0, [r7, #12]
 800689e:	f7ff fd8b 	bl	80063b8 <stm32__spi__busy>
 80068a2:	4603      	mov	r3, r0
 80068a4:	2b00      	cmp	r3, #0
 80068a6:	d001      	beq.n	80068ac <stm32__spi__receive+0x68>
 80068a8:	bf00      	nop
 80068aa:	e7f7      	b.n	800689c <stm32__spi__receive+0x58>
 80068ac:	68f8      	ldr	r0, [r7, #12]
 80068ae:	f7ff fde9 	bl	8006484 <stm32__spi__crc_enabled>
 80068b2:	4603      	mov	r3, r0
 80068b4:	461c      	mov	r4, r3
 80068b6:	68f8      	ldr	r0, [r7, #12]
 80068b8:	f7ff fdf6 	bl	80064a8 <stm32__spi__crc_error_indicated>
 80068bc:	4603      	mov	r3, r0
 80068be:	4023      	ands	r3, r4
 80068c0:	b2db      	uxtb	r3, r3
 80068c2:	2b00      	cmp	r3, #0
 80068c4:	d004      	beq.n	80068d0 <stm32__spi__receive+0x8c>
 80068c6:	68f8      	ldr	r0, [r7, #12]
 80068c8:	f7ff fe4e 	bl	8006568 <stm32__spi__reset_crc>
 80068cc:	2301      	movs	r3, #1
 80068ce:	75fb      	strb	r3, [r7, #23]
 80068d0:	2300      	movs	r3, #0
 80068d2:	75fb      	strb	r3, [r7, #23]
 80068d4:	7dfb      	ldrb	r3, [r7, #23]
 80068d6:	bf00      	nop
 80068d8:	4618      	mov	r0, r3
 80068da:	3718      	adds	r7, #24
 80068dc:	46bd      	mov	sp, r7
 80068de:	bdb0      	pop	{r4, r5, r7, pc}
 80068e0:	0800f288 	.word	0x0800f288
 80068e4:	0800f24c 	.word	0x0800f24c

080068e8 <stm32__spi__receive__2>:
 80068e8:	b5b0      	push	{r4, r5, r7, lr}
 80068ea:	b086      	sub	sp, #24
 80068ec:	af00      	add	r7, sp, #0
 80068ee:	60f8      	str	r0, [r7, #12]
 80068f0:	e9c7 2300 	strd	r2, r3, [r7]
 80068f4:	68f8      	ldr	r0, [r7, #12]
 80068f6:	f7ff fe65 	bl	80065c4 <stm32__spi__data_size>
 80068fa:	4603      	mov	r3, r0
 80068fc:	2b01      	cmp	r3, #1
 80068fe:	d005      	beq.n	800690c <stm32__spi__receive__2+0x24>
 8006900:	4c20      	ldr	r4, [pc, #128]	; (8006984 <stm32__spi__receive__2+0x9c>)
 8006902:	4d21      	ldr	r5, [pc, #132]	; (8006988 <stm32__spi__receive__2+0xa0>)
 8006904:	4620      	mov	r0, r4
 8006906:	4629      	mov	r1, r5
 8006908:	f004 fc7a 	bl	800b200 <system__assertions__raise_assert_failure>
 800690c:	68f8      	ldr	r0, [r7, #12]
 800690e:	f7ff fdb9 	bl	8006484 <stm32__spi__crc_enabled>
 8006912:	4603      	mov	r3, r0
 8006914:	2b00      	cmp	r3, #0
 8006916:	d002      	beq.n	800691e <stm32__spi__receive__2+0x36>
 8006918:	68f8      	ldr	r0, [r7, #12]
 800691a:	f7ff fe25 	bl	8006568 <stm32__spi__reset_crc>
 800691e:	68f8      	ldr	r0, [r7, #12]
 8006920:	f7ff fc9c 	bl	800625c <stm32__spi__enabled>
 8006924:	4603      	mov	r3, r0
 8006926:	f083 0301 	eor.w	r3, r3, #1
 800692a:	b2db      	uxtb	r3, r3
 800692c:	2b00      	cmp	r3, #0
 800692e:	d002      	beq.n	8006936 <stm32__spi__receive__2+0x4e>
 8006930:	68f8      	ldr	r0, [r7, #12]
 8006932:	f7ff fc6d 	bl	8006210 <stm32__spi__enable>
 8006936:	68f8      	ldr	r0, [r7, #12]
 8006938:	e9d7 2300 	ldrd	r2, r3, [r7]
 800693c:	f000 fe52 	bl	80075e4 <stm32__spi__receive_16bit_mode>
 8006940:	68f8      	ldr	r0, [r7, #12]
 8006942:	f7ff fd39 	bl	80063b8 <stm32__spi__busy>
 8006946:	4603      	mov	r3, r0
 8006948:	2b00      	cmp	r3, #0
 800694a:	d001      	beq.n	8006950 <stm32__spi__receive__2+0x68>
 800694c:	bf00      	nop
 800694e:	e7f7      	b.n	8006940 <stm32__spi__receive__2+0x58>
 8006950:	68f8      	ldr	r0, [r7, #12]
 8006952:	f7ff fd97 	bl	8006484 <stm32__spi__crc_enabled>
 8006956:	4603      	mov	r3, r0
 8006958:	461c      	mov	r4, r3
 800695a:	68f8      	ldr	r0, [r7, #12]
 800695c:	f7ff fda4 	bl	80064a8 <stm32__spi__crc_error_indicated>
 8006960:	4603      	mov	r3, r0
 8006962:	4023      	ands	r3, r4
 8006964:	b2db      	uxtb	r3, r3
 8006966:	2b00      	cmp	r3, #0
 8006968:	d004      	beq.n	8006974 <stm32__spi__receive__2+0x8c>
 800696a:	68f8      	ldr	r0, [r7, #12]
 800696c:	f7ff fdfc 	bl	8006568 <stm32__spi__reset_crc>
 8006970:	2301      	movs	r3, #1
 8006972:	75fb      	strb	r3, [r7, #23]
 8006974:	2300      	movs	r3, #0
 8006976:	75fb      	strb	r3, [r7, #23]
 8006978:	7dfb      	ldrb	r3, [r7, #23]
 800697a:	bf00      	nop
 800697c:	4618      	mov	r0, r3
 800697e:	3718      	adds	r7, #24
 8006980:	46bd      	mov	sp, r7
 8006982:	bdb0      	pop	{r4, r5, r7, pc}
 8006984:	0800f2bc 	.word	0x0800f2bc
 8006988:	0800f24c 	.word	0x0800f24c

0800698c <stm32__spi__receive__3>:
 800698c:	b590      	push	{r4, r7, lr}
 800698e:	b085      	sub	sp, #20
 8006990:	af00      	add	r7, sp, #0
 8006992:	6078      	str	r0, [r7, #4]
 8006994:	687b      	ldr	r3, [r7, #4]
 8006996:	685b      	ldr	r3, [r3, #4]
 8006998:	330c      	adds	r3, #12
 800699a:	60fb      	str	r3, [r7, #12]
 800699c:	6878      	ldr	r0, [r7, #4]
 800699e:	f7ff fd71 	bl	8006484 <stm32__spi__crc_enabled>
 80069a2:	4603      	mov	r3, r0
 80069a4:	2b00      	cmp	r3, #0
 80069a6:	d002      	beq.n	80069ae <stm32__spi__receive__3+0x22>
 80069a8:	6878      	ldr	r0, [r7, #4]
 80069aa:	f7ff fddd 	bl	8006568 <stm32__spi__reset_crc>
 80069ae:	6878      	ldr	r0, [r7, #4]
 80069b0:	f7ff fc54 	bl	800625c <stm32__spi__enabled>
 80069b4:	4603      	mov	r3, r0
 80069b6:	f083 0301 	eor.w	r3, r3, #1
 80069ba:	b2db      	uxtb	r3, r3
 80069bc:	2b00      	cmp	r3, #0
 80069be:	d002      	beq.n	80069c6 <stm32__spi__receive__3+0x3a>
 80069c0:	6878      	ldr	r0, [r7, #4]
 80069c2:	f7ff fc25 	bl	8006210 <stm32__spi__enable>
 80069c6:	68fb      	ldr	r3, [r7, #12]
 80069c8:	2200      	movs	r2, #0
 80069ca:	701a      	strb	r2, [r3, #0]
 80069cc:	6878      	ldr	r0, [r7, #4]
 80069ce:	f7ff fcdd 	bl	800638c <stm32__spi__rx_is_empty>
 80069d2:	4603      	mov	r3, r0
 80069d4:	2b00      	cmp	r3, #0
 80069d6:	d001      	beq.n	80069dc <stm32__spi__receive__3+0x50>
 80069d8:	bf00      	nop
 80069da:	e7f7      	b.n	80069cc <stm32__spi__receive__3+0x40>
 80069dc:	68fb      	ldr	r3, [r7, #12]
 80069de:	781b      	ldrb	r3, [r3, #0]
 80069e0:	b2db      	uxtb	r3, r3
 80069e2:	727b      	strb	r3, [r7, #9]
 80069e4:	6878      	ldr	r0, [r7, #4]
 80069e6:	f7ff fd4d 	bl	8006484 <stm32__spi__crc_enabled>
 80069ea:	4603      	mov	r3, r0
 80069ec:	2b00      	cmp	r3, #0
 80069ee:	d00d      	beq.n	8006a0c <stm32__spi__receive__3+0x80>
 80069f0:	6878      	ldr	r0, [r7, #4]
 80069f2:	f7ff fccb 	bl	800638c <stm32__spi__rx_is_empty>
 80069f6:	4603      	mov	r3, r0
 80069f8:	2b00      	cmp	r3, #0
 80069fa:	d001      	beq.n	8006a00 <stm32__spi__receive__3+0x74>
 80069fc:	bf00      	nop
 80069fe:	e7f7      	b.n	80069f0 <stm32__spi__receive__3+0x64>
 8006a00:	687b      	ldr	r3, [r7, #4]
 8006a02:	685b      	ldr	r3, [r3, #4]
 8006a04:	330c      	adds	r3, #12
 8006a06:	881b      	ldrh	r3, [r3, #0]
 8006a08:	b29b      	uxth	r3, r3
 8006a0a:	817b      	strh	r3, [r7, #10]
 8006a0c:	6878      	ldr	r0, [r7, #4]
 8006a0e:	f7ff fcd3 	bl	80063b8 <stm32__spi__busy>
 8006a12:	4603      	mov	r3, r0
 8006a14:	2b00      	cmp	r3, #0
 8006a16:	d001      	beq.n	8006a1c <stm32__spi__receive__3+0x90>
 8006a18:	bf00      	nop
 8006a1a:	e7f7      	b.n	8006a0c <stm32__spi__receive__3+0x80>
 8006a1c:	6878      	ldr	r0, [r7, #4]
 8006a1e:	f7ff fd31 	bl	8006484 <stm32__spi__crc_enabled>
 8006a22:	4603      	mov	r3, r0
 8006a24:	461c      	mov	r4, r3
 8006a26:	6878      	ldr	r0, [r7, #4]
 8006a28:	f7ff fd3e 	bl	80064a8 <stm32__spi__crc_error_indicated>
 8006a2c:	4603      	mov	r3, r0
 8006a2e:	4023      	ands	r3, r4
 8006a30:	b2db      	uxtb	r3, r3
 8006a32:	2b00      	cmp	r3, #0
 8006a34:	d002      	beq.n	8006a3c <stm32__spi__receive__3+0xb0>
 8006a36:	6878      	ldr	r0, [r7, #4]
 8006a38:	f7ff fd96 	bl	8006568 <stm32__spi__reset_crc>
 8006a3c:	7a7b      	ldrb	r3, [r7, #9]
 8006a3e:	bf00      	nop
 8006a40:	4618      	mov	r0, r3
 8006a42:	3714      	adds	r7, #20
 8006a44:	46bd      	mov	sp, r7
 8006a46:	bd90      	pop	{r4, r7, pc}

08006a48 <stm32__spi__transmit_receive>:
 8006a48:	b590      	push	{r4, r7, lr}
 8006a4a:	b08f      	sub	sp, #60	; 0x3c
 8006a4c:	af04      	add	r7, sp, #16
 8006a4e:	60f8      	str	r0, [r7, #12]
 8006a50:	e9c7 2300 	strd	r2, r3, [r7]
 8006a54:	687b      	ldr	r3, [r7, #4]
 8006a56:	681b      	ldr	r3, [r3, #0]
 8006a58:	687a      	ldr	r2, [r7, #4]
 8006a5a:	6852      	ldr	r2, [r2, #4]
 8006a5c:	6bf9      	ldr	r1, [r7, #60]	; 0x3c
 8006a5e:	6809      	ldr	r1, [r1, #0]
 8006a60:	6279      	str	r1, [r7, #36]	; 0x24
 8006a62:	6bf9      	ldr	r1, [r7, #60]	; 0x3c
 8006a64:	6848      	ldr	r0, [r1, #4]
 8006a66:	6bf9      	ldr	r1, [r7, #60]	; 0x3c
 8006a68:	6809      	ldr	r1, [r1, #0]
 8006a6a:	4288      	cmp	r0, r1
 8006a6c:	db03      	blt.n	8006a76 <stm32__spi__transmit_receive+0x2e>
 8006a6e:	6bf9      	ldr	r1, [r7, #60]	; 0x3c
 8006a70:	6849      	ldr	r1, [r1, #4]
 8006a72:	6239      	str	r1, [r7, #32]
 8006a74:	e003      	b.n	8006a7e <stm32__spi__transmit_receive+0x36>
 8006a76:	6bf9      	ldr	r1, [r7, #60]	; 0x3c
 8006a78:	6809      	ldr	r1, [r1, #0]
 8006a7a:	3901      	subs	r1, #1
 8006a7c:	6239      	str	r1, [r7, #32]
 8006a7e:	61fb      	str	r3, [r7, #28]
 8006a80:	429a      	cmp	r2, r3
 8006a82:	db01      	blt.n	8006a88 <stm32__spi__transmit_receive+0x40>
 8006a84:	61ba      	str	r2, [r7, #24]
 8006a86:	e001      	b.n	8006a8c <stm32__spi__transmit_receive+0x44>
 8006a88:	3b01      	subs	r3, #1
 8006a8a:	61bb      	str	r3, [r7, #24]
 8006a8c:	68f8      	ldr	r0, [r7, #12]
 8006a8e:	f7ff fcf9 	bl	8006484 <stm32__spi__crc_enabled>
 8006a92:	4603      	mov	r3, r0
 8006a94:	2b00      	cmp	r3, #0
 8006a96:	d002      	beq.n	8006a9e <stm32__spi__transmit_receive+0x56>
 8006a98:	68f8      	ldr	r0, [r7, #12]
 8006a9a:	f7ff fd65 	bl	8006568 <stm32__spi__reset_crc>
 8006a9e:	68f8      	ldr	r0, [r7, #12]
 8006aa0:	f7ff fbdc 	bl	800625c <stm32__spi__enabled>
 8006aa4:	4603      	mov	r3, r0
 8006aa6:	f083 0301 	eor.w	r3, r3, #1
 8006aaa:	b2db      	uxtb	r3, r3
 8006aac:	2b00      	cmp	r3, #0
 8006aae:	d002      	beq.n	8006ab6 <stm32__spi__transmit_receive+0x6e>
 8006ab0:	68f8      	ldr	r0, [r7, #12]
 8006ab2:	f7ff fbad 	bl	8006210 <stm32__spi__enable>
 8006ab6:	68f8      	ldr	r0, [r7, #12]
 8006ab8:	f7ff fd72 	bl	80065a0 <stm32__spi__is_data_frame_16bit>
 8006abc:	4603      	mov	r3, r0
 8006abe:	2b00      	cmp	r3, #0
 8006ac0:	d00b      	beq.n	8006ada <stm32__spi__transmit_receive+0x92>
 8006ac2:	e9d7 340e 	ldrd	r3, r4, [r7, #56]	; 0x38
 8006ac6:	e9cd 3400 	strd	r3, r4, [sp]
 8006aca:	6c3b      	ldr	r3, [r7, #64]	; 0x40
 8006acc:	9302      	str	r3, [sp, #8]
 8006ace:	68f8      	ldr	r0, [r7, #12]
 8006ad0:	e9d7 2300 	ldrd	r2, r3, [r7]
 8006ad4:	f000 f8ba 	bl	8006c4c <stm32__spi__send_receive_16bit_mode>
 8006ad8:	e00a      	b.n	8006af0 <stm32__spi__transmit_receive+0xa8>
 8006ada:	e9d7 340e 	ldrd	r3, r4, [r7, #56]	; 0x38
 8006ade:	e9cd 3400 	strd	r3, r4, [sp]
 8006ae2:	6c3b      	ldr	r3, [r7, #64]	; 0x40
 8006ae4:	9302      	str	r3, [sp, #8]
 8006ae6:	68f8      	ldr	r0, [r7, #12]
 8006ae8:	e9d7 2300 	ldrd	r2, r3, [r7]
 8006aec:	f000 fa5e 	bl	8006fac <stm32__spi__send_receive_8bit_mode>
 8006af0:	68f8      	ldr	r0, [r7, #12]
 8006af2:	f7ff fcc7 	bl	8006484 <stm32__spi__crc_enabled>
 8006af6:	4603      	mov	r3, r0
 8006af8:	2b00      	cmp	r3, #0
 8006afa:	d00d      	beq.n	8006b18 <stm32__spi__transmit_receive+0xd0>
 8006afc:	68f8      	ldr	r0, [r7, #12]
 8006afe:	f7ff fc45 	bl	800638c <stm32__spi__rx_is_empty>
 8006b02:	4603      	mov	r3, r0
 8006b04:	2b00      	cmp	r3, #0
 8006b06:	d001      	beq.n	8006b0c <stm32__spi__transmit_receive+0xc4>
 8006b08:	bf00      	nop
 8006b0a:	e7f7      	b.n	8006afc <stm32__spi__transmit_receive+0xb4>
 8006b0c:	68fb      	ldr	r3, [r7, #12]
 8006b0e:	685b      	ldr	r3, [r3, #4]
 8006b10:	330c      	adds	r3, #12
 8006b12:	881b      	ldrh	r3, [r3, #0]
 8006b14:	b29b      	uxth	r3, r3
 8006b16:	82fb      	strh	r3, [r7, #22]
 8006b18:	68f8      	ldr	r0, [r7, #12]
 8006b1a:	f7ff fc4d 	bl	80063b8 <stm32__spi__busy>
 8006b1e:	4603      	mov	r3, r0
 8006b20:	2b00      	cmp	r3, #0
 8006b22:	d001      	beq.n	8006b28 <stm32__spi__transmit_receive+0xe0>
 8006b24:	bf00      	nop
 8006b26:	e7f7      	b.n	8006b18 <stm32__spi__transmit_receive+0xd0>
 8006b28:	68f8      	ldr	r0, [r7, #12]
 8006b2a:	f7ff fcab 	bl	8006484 <stm32__spi__crc_enabled>
 8006b2e:	4603      	mov	r3, r0
 8006b30:	461c      	mov	r4, r3
 8006b32:	68f8      	ldr	r0, [r7, #12]
 8006b34:	f7ff fcb8 	bl	80064a8 <stm32__spi__crc_error_indicated>
 8006b38:	4603      	mov	r3, r0
 8006b3a:	4023      	ands	r3, r4
 8006b3c:	b2db      	uxtb	r3, r3
 8006b3e:	2b00      	cmp	r3, #0
 8006b40:	d002      	beq.n	8006b48 <stm32__spi__transmit_receive+0x100>
 8006b42:	68f8      	ldr	r0, [r7, #12]
 8006b44:	f7ff fd10 	bl	8006568 <stm32__spi__reset_crc>
 8006b48:	372c      	adds	r7, #44	; 0x2c
 8006b4a:	46bd      	mov	sp, r7
 8006b4c:	bd90      	pop	{r4, r7, pc}
 8006b4e:	bf00      	nop

08006b50 <stm32__spi__transmit_receive__2>:
 8006b50:	b590      	push	{r4, r7, lr}
 8006b52:	b085      	sub	sp, #20
 8006b54:	af00      	add	r7, sp, #0
 8006b56:	6078      	str	r0, [r7, #4]
 8006b58:	460b      	mov	r3, r1
 8006b5a:	70fb      	strb	r3, [r7, #3]
 8006b5c:	687b      	ldr	r3, [r7, #4]
 8006b5e:	685b      	ldr	r3, [r3, #4]
 8006b60:	330c      	adds	r3, #12
 8006b62:	60fb      	str	r3, [r7, #12]
 8006b64:	6878      	ldr	r0, [r7, #4]
 8006b66:	f7ff fc8d 	bl	8006484 <stm32__spi__crc_enabled>
 8006b6a:	4603      	mov	r3, r0
 8006b6c:	2b00      	cmp	r3, #0
 8006b6e:	d002      	beq.n	8006b76 <stm32__spi__transmit_receive__2+0x26>
 8006b70:	6878      	ldr	r0, [r7, #4]
 8006b72:	f7ff fcf9 	bl	8006568 <stm32__spi__reset_crc>
 8006b76:	6878      	ldr	r0, [r7, #4]
 8006b78:	f7ff fb70 	bl	800625c <stm32__spi__enabled>
 8006b7c:	4603      	mov	r3, r0
 8006b7e:	f083 0301 	eor.w	r3, r3, #1
 8006b82:	b2db      	uxtb	r3, r3
 8006b84:	2b00      	cmp	r3, #0
 8006b86:	d002      	beq.n	8006b8e <stm32__spi__transmit_receive__2+0x3e>
 8006b88:	6878      	ldr	r0, [r7, #4]
 8006b8a:	f7ff fb41 	bl	8006210 <stm32__spi__enable>
 8006b8e:	6878      	ldr	r0, [r7, #4]
 8006b90:	f7ff fd06 	bl	80065a0 <stm32__spi__is_data_frame_16bit>
 8006b94:	4603      	mov	r3, r0
 8006b96:	2b00      	cmp	r3, #0
 8006b98:	d004      	beq.n	8006ba4 <stm32__spi__transmit_receive__2+0x54>
 8006b9a:	482b      	ldr	r0, [pc, #172]	; (8006c48 <stm32__spi__transmit_receive__2+0xf8>)
 8006b9c:	f44f 7129 	mov.w	r1, #676	; 0x2a4
 8006ba0:	f003 ff60 	bl	800aa64 <__gnat_rcheck_PE_Explicit_Raise>
 8006ba4:	68fb      	ldr	r3, [r7, #12]
 8006ba6:	78fa      	ldrb	r2, [r7, #3]
 8006ba8:	701a      	strb	r2, [r3, #0]
 8006baa:	6878      	ldr	r0, [r7, #4]
 8006bac:	f7ff fc6a 	bl	8006484 <stm32__spi__crc_enabled>
 8006bb0:	4603      	mov	r3, r0
 8006bb2:	2b00      	cmp	r3, #0
 8006bb4:	d009      	beq.n	8006bca <stm32__spi__transmit_receive__2+0x7a>
 8006bb6:	687b      	ldr	r3, [r7, #4]
 8006bb8:	685b      	ldr	r3, [r3, #4]
 8006bba:	681b      	ldr	r3, [r3, #0]
 8006bbc:	461a      	mov	r2, r3
 8006bbe:	4613      	mov	r3, r2
 8006bc0:	f443 5280 	orr.w	r2, r3, #4096	; 0x1000
 8006bc4:	687b      	ldr	r3, [r7, #4]
 8006bc6:	685b      	ldr	r3, [r3, #4]
 8006bc8:	601a      	str	r2, [r3, #0]
 8006bca:	6878      	ldr	r0, [r7, #4]
 8006bcc:	f7ff fbde 	bl	800638c <stm32__spi__rx_is_empty>
 8006bd0:	4603      	mov	r3, r0
 8006bd2:	2b00      	cmp	r3, #0
 8006bd4:	d001      	beq.n	8006bda <stm32__spi__transmit_receive__2+0x8a>
 8006bd6:	bf00      	nop
 8006bd8:	e7f7      	b.n	8006bca <stm32__spi__transmit_receive__2+0x7a>
 8006bda:	68fb      	ldr	r3, [r7, #12]
 8006bdc:	781b      	ldrb	r3, [r3, #0]
 8006bde:	b2db      	uxtb	r3, r3
 8006be0:	727b      	strb	r3, [r7, #9]
 8006be2:	6878      	ldr	r0, [r7, #4]
 8006be4:	f7ff fc4e 	bl	8006484 <stm32__spi__crc_enabled>
 8006be8:	4603      	mov	r3, r0
 8006bea:	2b00      	cmp	r3, #0
 8006bec:	d00d      	beq.n	8006c0a <stm32__spi__transmit_receive__2+0xba>
 8006bee:	6878      	ldr	r0, [r7, #4]
 8006bf0:	f7ff fbcc 	bl	800638c <stm32__spi__rx_is_empty>
 8006bf4:	4603      	mov	r3, r0
 8006bf6:	2b00      	cmp	r3, #0
 8006bf8:	d001      	beq.n	8006bfe <stm32__spi__transmit_receive__2+0xae>
 8006bfa:	bf00      	nop
 8006bfc:	e7f7      	b.n	8006bee <stm32__spi__transmit_receive__2+0x9e>
 8006bfe:	687b      	ldr	r3, [r7, #4]
 8006c00:	685b      	ldr	r3, [r3, #4]
 8006c02:	330c      	adds	r3, #12
 8006c04:	881b      	ldrh	r3, [r3, #0]
 8006c06:	b29b      	uxth	r3, r3
 8006c08:	817b      	strh	r3, [r7, #10]
 8006c0a:	6878      	ldr	r0, [r7, #4]
 8006c0c:	f7ff fbd4 	bl	80063b8 <stm32__spi__busy>
 8006c10:	4603      	mov	r3, r0
 8006c12:	2b00      	cmp	r3, #0
 8006c14:	d001      	beq.n	8006c1a <stm32__spi__transmit_receive__2+0xca>
 8006c16:	bf00      	nop
 8006c18:	e7f7      	b.n	8006c0a <stm32__spi__transmit_receive__2+0xba>
 8006c1a:	6878      	ldr	r0, [r7, #4]
 8006c1c:	f7ff fc32 	bl	8006484 <stm32__spi__crc_enabled>
 8006c20:	4603      	mov	r3, r0
 8006c22:	461c      	mov	r4, r3
 8006c24:	6878      	ldr	r0, [r7, #4]
 8006c26:	f7ff fc3f 	bl	80064a8 <stm32__spi__crc_error_indicated>
 8006c2a:	4603      	mov	r3, r0
 8006c2c:	4023      	ands	r3, r4
 8006c2e:	b2db      	uxtb	r3, r3
 8006c30:	2b00      	cmp	r3, #0
 8006c32:	d002      	beq.n	8006c3a <stm32__spi__transmit_receive__2+0xea>
 8006c34:	6878      	ldr	r0, [r7, #4]
 8006c36:	f7ff fc97 	bl	8006568 <stm32__spi__reset_crc>
 8006c3a:	7a7b      	ldrb	r3, [r7, #9]
 8006c3c:	bf00      	nop
 8006c3e:	4618      	mov	r0, r3
 8006c40:	3714      	adds	r7, #20
 8006c42:	46bd      	mov	sp, r7
 8006c44:	bd90      	pop	{r4, r7, pc}
 8006c46:	bf00      	nop
 8006c48:	0800f208 	.word	0x0800f208

08006c4c <stm32__spi__send_receive_16bit_mode>:
 8006c4c:	b5f0      	push	{r4, r5, r6, r7, lr}
 8006c4e:	b08d      	sub	sp, #52	; 0x34
 8006c50:	af00      	add	r7, sp, #0
 8006c52:	60f8      	str	r0, [r7, #12]
 8006c54:	e9c7 2300 	strd	r2, r3, [r7]
 8006c58:	687b      	ldr	r3, [r7, #4]
 8006c5a:	681c      	ldr	r4, [r3, #0]
 8006c5c:	687b      	ldr	r3, [r7, #4]
 8006c5e:	685d      	ldr	r5, [r3, #4]
 8006c60:	6cfb      	ldr	r3, [r7, #76]	; 0x4c
 8006c62:	681b      	ldr	r3, [r3, #0]
 8006c64:	623b      	str	r3, [r7, #32]
 8006c66:	6cfb      	ldr	r3, [r7, #76]	; 0x4c
 8006c68:	685a      	ldr	r2, [r3, #4]
 8006c6a:	6cfb      	ldr	r3, [r7, #76]	; 0x4c
 8006c6c:	681b      	ldr	r3, [r3, #0]
 8006c6e:	429a      	cmp	r2, r3
 8006c70:	db03      	blt.n	8006c7a <stm32__spi__send_receive_16bit_mode+0x2e>
 8006c72:	6cfb      	ldr	r3, [r7, #76]	; 0x4c
 8006c74:	685b      	ldr	r3, [r3, #4]
 8006c76:	61fb      	str	r3, [r7, #28]
 8006c78:	e003      	b.n	8006c82 <stm32__spi__send_receive_16bit_mode+0x36>
 8006c7a:	6cfb      	ldr	r3, [r7, #76]	; 0x4c
 8006c7c:	681b      	ldr	r3, [r3, #0]
 8006c7e:	3b01      	subs	r3, #1
 8006c80:	61fb      	str	r3, [r7, #28]
 8006c82:	61bc      	str	r4, [r7, #24]
 8006c84:	42a5      	cmp	r5, r4
 8006c86:	db01      	blt.n	8006c8c <stm32__spi__send_receive_16bit_mode+0x40>
 8006c88:	617d      	str	r5, [r7, #20]
 8006c8a:	e002      	b.n	8006c92 <stm32__spi__send_receive_16bit_mode+0x46>
 8006c8c:	4623      	mov	r3, r4
 8006c8e:	3b01      	subs	r3, #1
 8006c90:	617b      	str	r3, [r7, #20]
 8006c92:	6d3b      	ldr	r3, [r7, #80]	; 0x50
 8006c94:	62fb      	str	r3, [r7, #44]	; 0x2c
 8006c96:	2c00      	cmp	r4, #0
 8006c98:	da04      	bge.n	8006ca4 <stm32__spi__send_receive_16bit_mode+0x58>
 8006c9a:	48a3      	ldr	r0, [pc, #652]	; (8006f28 <stm32__spi__send_receive_16bit_mode+0x2dc>)
 8006c9c:	f240 21d6 	movw	r1, #726	; 0x2d6
 8006ca0:	f003 fed8 	bl	800aa54 <__gnat_rcheck_CE_Range_Check>
 8006ca4:	62bc      	str	r4, [r7, #40]	; 0x28
 8006ca6:	6cfb      	ldr	r3, [r7, #76]	; 0x4c
 8006ca8:	681b      	ldr	r3, [r3, #0]
 8006caa:	2b00      	cmp	r3, #0
 8006cac:	da04      	bge.n	8006cb8 <stm32__spi__send_receive_16bit_mode+0x6c>
 8006cae:	489e      	ldr	r0, [pc, #632]	; (8006f28 <stm32__spi__send_receive_16bit_mode+0x2dc>)
 8006cb0:	f240 21d7 	movw	r1, #727	; 0x2d7
 8006cb4:	f003 fece 	bl	800aa54 <__gnat_rcheck_CE_Range_Check>
 8006cb8:	6cfb      	ldr	r3, [r7, #76]	; 0x4c
 8006cba:	681b      	ldr	r3, [r3, #0]
 8006cbc:	627b      	str	r3, [r7, #36]	; 0x24
 8006cbe:	68f8      	ldr	r0, [r7, #12]
 8006cc0:	f7ff fb8c 	bl	80063dc <stm32__spi__current_mode>
 8006cc4:	4603      	mov	r3, r0
 8006cc6:	2b01      	cmp	r3, #1
 8006cc8:	d002      	beq.n	8006cd0 <stm32__spi__send_receive_16bit_mode+0x84>
 8006cca:	6afb      	ldr	r3, [r7, #44]	; 0x2c
 8006ccc:	2b01      	cmp	r3, #1
 8006cce:	d13e      	bne.n	8006d4e <stm32__spi__send_receive_16bit_mode+0x102>
 8006cd0:	6abb      	ldr	r3, [r7, #40]	; 0x28
 8006cd2:	42a3      	cmp	r3, r4
 8006cd4:	db02      	blt.n	8006cdc <stm32__spi__send_receive_16bit_mode+0x90>
 8006cd6:	6abb      	ldr	r3, [r7, #40]	; 0x28
 8006cd8:	42ab      	cmp	r3, r5
 8006cda:	dd04      	ble.n	8006ce6 <stm32__spi__send_receive_16bit_mode+0x9a>
 8006cdc:	4892      	ldr	r0, [pc, #584]	; (8006f28 <stm32__spi__send_receive_16bit_mode+0x2dc>)
 8006cde:	f240 21db 	movw	r1, #731	; 0x2db
 8006ce2:	f003 fe9f 	bl	800aa24 <__gnat_rcheck_CE_Index_Check>
 8006ce6:	683a      	ldr	r2, [r7, #0]
 8006ce8:	4621      	mov	r1, r4
 8006cea:	6abb      	ldr	r3, [r7, #40]	; 0x28
 8006cec:	1a5b      	subs	r3, r3, r1
 8006cee:	4413      	add	r3, r2
 8006cf0:	2b00      	cmp	r3, #0
 8006cf2:	d104      	bne.n	8006cfe <stm32__spi__send_receive_16bit_mode+0xb2>
 8006cf4:	488c      	ldr	r0, [pc, #560]	; (8006f28 <stm32__spi__send_receive_16bit_mode+0x2dc>)
 8006cf6:	f240 21db 	movw	r1, #731	; 0x2db
 8006cfa:	f003 fe73 	bl	800a9e4 <__gnat_rcheck_CE_Access_Check>
 8006cfe:	68fb      	ldr	r3, [r7, #12]
 8006d00:	685b      	ldr	r3, [r3, #4]
 8006d02:	330c      	adds	r3, #12
 8006d04:	881b      	ldrh	r3, [r3, #0]
 8006d06:	b29b      	uxth	r3, r3
 8006d08:	461a      	mov	r2, r3
 8006d0a:	683a      	ldr	r2, [r7, #0]
 8006d0c:	4621      	mov	r1, r4
 8006d0e:	6abb      	ldr	r3, [r7, #40]	; 0x28
 8006d10:	1a5b      	subs	r3, r3, r1
 8006d12:	4413      	add	r3, r2
 8006d14:	881b      	ldrh	r3, [r3, #0]
 8006d16:	461a      	mov	r2, r3
 8006d18:	68fb      	ldr	r3, [r7, #12]
 8006d1a:	685b      	ldr	r3, [r3, #4]
 8006d1c:	330c      	adds	r3, #12
 8006d1e:	b292      	uxth	r2, r2
 8006d20:	801a      	strh	r2, [r3, #0]
 8006d22:	6abb      	ldr	r3, [r7, #40]	; 0x28
 8006d24:	4a81      	ldr	r2, [pc, #516]	; (8006f2c <stm32__spi__send_receive_16bit_mode+0x2e0>)
 8006d26:	4293      	cmp	r3, r2
 8006d28:	dd04      	ble.n	8006d34 <stm32__spi__send_receive_16bit_mode+0xe8>
 8006d2a:	487f      	ldr	r0, [pc, #508]	; (8006f28 <stm32__spi__send_receive_16bit_mode+0x2dc>)
 8006d2c:	f44f 7137 	mov.w	r1, #732	; 0x2dc
 8006d30:	f003 fe88 	bl	800aa44 <__gnat_rcheck_CE_Overflow_Check>
 8006d34:	6abb      	ldr	r3, [r7, #40]	; 0x28
 8006d36:	3302      	adds	r3, #2
 8006d38:	62bb      	str	r3, [r7, #40]	; 0x28
 8006d3a:	6afb      	ldr	r3, [r7, #44]	; 0x2c
 8006d3c:	3b01      	subs	r3, #1
 8006d3e:	2b00      	cmp	r3, #0
 8006d40:	da04      	bge.n	8006d4c <stm32__spi__send_receive_16bit_mode+0x100>
 8006d42:	4879      	ldr	r0, [pc, #484]	; (8006f28 <stm32__spi__send_receive_16bit_mode+0x2dc>)
 8006d44:	f240 21dd 	movw	r1, #733	; 0x2dd
 8006d48:	f003 fe84 	bl	800aa54 <__gnat_rcheck_CE_Range_Check>
 8006d4c:	62fb      	str	r3, [r7, #44]	; 0x2c
 8006d4e:	6afb      	ldr	r3, [r7, #44]	; 0x2c
 8006d50:	2b00      	cmp	r3, #0
 8006d52:	d143      	bne.n	8006ddc <stm32__spi__send_receive_16bit_mode+0x190>
 8006d54:	68f8      	ldr	r0, [r7, #12]
 8006d56:	f7ff fb95 	bl	8006484 <stm32__spi__crc_enabled>
 8006d5a:	4603      	mov	r3, r0
 8006d5c:	2b00      	cmp	r3, #0
 8006d5e:	d009      	beq.n	8006d74 <stm32__spi__send_receive_16bit_mode+0x128>
 8006d60:	68fb      	ldr	r3, [r7, #12]
 8006d62:	685b      	ldr	r3, [r3, #4]
 8006d64:	681b      	ldr	r3, [r3, #0]
 8006d66:	461a      	mov	r2, r3
 8006d68:	4613      	mov	r3, r2
 8006d6a:	f443 5280 	orr.w	r2, r3, #4096	; 0x1000
 8006d6e:	68fb      	ldr	r3, [r7, #12]
 8006d70:	685b      	ldr	r3, [r3, #4]
 8006d72:	601a      	str	r2, [r3, #0]
 8006d74:	68f8      	ldr	r0, [r7, #12]
 8006d76:	f7ff fb09 	bl	800638c <stm32__spi__rx_is_empty>
 8006d7a:	4603      	mov	r3, r0
 8006d7c:	2b00      	cmp	r3, #0
 8006d7e:	d001      	beq.n	8006d84 <stm32__spi__send_receive_16bit_mode+0x138>
 8006d80:	bf00      	nop
 8006d82:	e7f7      	b.n	8006d74 <stm32__spi__send_receive_16bit_mode+0x128>
 8006d84:	6a7a      	ldr	r2, [r7, #36]	; 0x24
 8006d86:	6cfb      	ldr	r3, [r7, #76]	; 0x4c
 8006d88:	681b      	ldr	r3, [r3, #0]
 8006d8a:	429a      	cmp	r2, r3
 8006d8c:	db04      	blt.n	8006d98 <stm32__spi__send_receive_16bit_mode+0x14c>
 8006d8e:	6a7a      	ldr	r2, [r7, #36]	; 0x24
 8006d90:	6cfb      	ldr	r3, [r7, #76]	; 0x4c
 8006d92:	685b      	ldr	r3, [r3, #4]
 8006d94:	429a      	cmp	r2, r3
 8006d96:	dd04      	ble.n	8006da2 <stm32__spi__send_receive_16bit_mode+0x156>
 8006d98:	4863      	ldr	r0, [pc, #396]	; (8006f28 <stm32__spi__send_receive_16bit_mode+0x2dc>)
 8006d9a:	f44f 713b 	mov.w	r1, #748	; 0x2ec
 8006d9e:	f003 fe41 	bl	800aa24 <__gnat_rcheck_CE_Index_Check>
 8006da2:	6cba      	ldr	r2, [r7, #72]	; 0x48
 8006da4:	6cfb      	ldr	r3, [r7, #76]	; 0x4c
 8006da6:	681b      	ldr	r3, [r3, #0]
 8006da8:	4619      	mov	r1, r3
 8006daa:	6a7b      	ldr	r3, [r7, #36]	; 0x24
 8006dac:	1a5b      	subs	r3, r3, r1
 8006dae:	4413      	add	r3, r2
 8006db0:	2b00      	cmp	r3, #0
 8006db2:	d104      	bne.n	8006dbe <stm32__spi__send_receive_16bit_mode+0x172>
 8006db4:	485c      	ldr	r0, [pc, #368]	; (8006f28 <stm32__spi__send_receive_16bit_mode+0x2dc>)
 8006db6:	f44f 713b 	mov.w	r1, #748	; 0x2ec
 8006dba:	f003 fe13 	bl	800a9e4 <__gnat_rcheck_CE_Access_Check>
 8006dbe:	6cba      	ldr	r2, [r7, #72]	; 0x48
 8006dc0:	6cfb      	ldr	r3, [r7, #76]	; 0x4c
 8006dc2:	681b      	ldr	r3, [r3, #0]
 8006dc4:	4619      	mov	r1, r3
 8006dc6:	6a7b      	ldr	r3, [r7, #36]	; 0x24
 8006dc8:	1a5b      	subs	r3, r3, r1
 8006dca:	4413      	add	r3, r2
 8006dcc:	68fa      	ldr	r2, [r7, #12]
 8006dce:	6852      	ldr	r2, [r2, #4]
 8006dd0:	320c      	adds	r2, #12
 8006dd2:	8812      	ldrh	r2, [r2, #0]
 8006dd4:	b292      	uxth	r2, r2
 8006dd6:	b292      	uxth	r2, r2
 8006dd8:	801a      	strh	r2, [r3, #0]
 8006dda:	e0e2      	b.n	8006fa2 <stm32__spi__send_receive_16bit_mode+0x356>
 8006ddc:	6afb      	ldr	r3, [r7, #44]	; 0x2c
 8006dde:	2b00      	cmp	r3, #0
 8006de0:	f340 80a6 	ble.w	8006f30 <stm32__spi__send_receive_16bit_mode+0x2e4>
 8006de4:	68f8      	ldr	r0, [r7, #12]
 8006de6:	f7ff fabf 	bl	8006368 <stm32__spi__tx_is_empty>
 8006dea:	4603      	mov	r3, r0
 8006dec:	f083 0301 	eor.w	r3, r3, #1
 8006df0:	b2db      	uxtb	r3, r3
 8006df2:	2b00      	cmp	r3, #0
 8006df4:	d001      	beq.n	8006dfa <stm32__spi__send_receive_16bit_mode+0x1ae>
 8006df6:	bf00      	nop
 8006df8:	e7f4      	b.n	8006de4 <stm32__spi__send_receive_16bit_mode+0x198>
 8006dfa:	6abb      	ldr	r3, [r7, #40]	; 0x28
 8006dfc:	42a3      	cmp	r3, r4
 8006dfe:	db02      	blt.n	8006e06 <stm32__spi__send_receive_16bit_mode+0x1ba>
 8006e00:	6abb      	ldr	r3, [r7, #40]	; 0x28
 8006e02:	42ab      	cmp	r3, r5
 8006e04:	dd04      	ble.n	8006e10 <stm32__spi__send_receive_16bit_mode+0x1c4>
 8006e06:	4848      	ldr	r0, [pc, #288]	; (8006f28 <stm32__spi__send_receive_16bit_mode+0x2dc>)
 8006e08:	f240 21f9 	movw	r1, #761	; 0x2f9
 8006e0c:	f003 fe0a 	bl	800aa24 <__gnat_rcheck_CE_Index_Check>
 8006e10:	683a      	ldr	r2, [r7, #0]
 8006e12:	4621      	mov	r1, r4
 8006e14:	6abb      	ldr	r3, [r7, #40]	; 0x28
 8006e16:	1a5b      	subs	r3, r3, r1
 8006e18:	4413      	add	r3, r2
 8006e1a:	2b00      	cmp	r3, #0
 8006e1c:	d104      	bne.n	8006e28 <stm32__spi__send_receive_16bit_mode+0x1dc>
 8006e1e:	4842      	ldr	r0, [pc, #264]	; (8006f28 <stm32__spi__send_receive_16bit_mode+0x2dc>)
 8006e20:	f240 21f9 	movw	r1, #761	; 0x2f9
 8006e24:	f003 fdde 	bl	800a9e4 <__gnat_rcheck_CE_Access_Check>
 8006e28:	68fb      	ldr	r3, [r7, #12]
 8006e2a:	685b      	ldr	r3, [r3, #4]
 8006e2c:	330c      	adds	r3, #12
 8006e2e:	881b      	ldrh	r3, [r3, #0]
 8006e30:	b29b      	uxth	r3, r3
 8006e32:	461a      	mov	r2, r3
 8006e34:	683a      	ldr	r2, [r7, #0]
 8006e36:	4621      	mov	r1, r4
 8006e38:	6abb      	ldr	r3, [r7, #40]	; 0x28
 8006e3a:	1a5b      	subs	r3, r3, r1
 8006e3c:	4413      	add	r3, r2
 8006e3e:	881b      	ldrh	r3, [r3, #0]
 8006e40:	461a      	mov	r2, r3
 8006e42:	68fb      	ldr	r3, [r7, #12]
 8006e44:	685b      	ldr	r3, [r3, #4]
 8006e46:	330c      	adds	r3, #12
 8006e48:	b292      	uxth	r2, r2
 8006e4a:	801a      	strh	r2, [r3, #0]
 8006e4c:	6abb      	ldr	r3, [r7, #40]	; 0x28
 8006e4e:	4a37      	ldr	r2, [pc, #220]	; (8006f2c <stm32__spi__send_receive_16bit_mode+0x2e0>)
 8006e50:	4293      	cmp	r3, r2
 8006e52:	dd04      	ble.n	8006e5e <stm32__spi__send_receive_16bit_mode+0x212>
 8006e54:	4834      	ldr	r0, [pc, #208]	; (8006f28 <stm32__spi__send_receive_16bit_mode+0x2dc>)
 8006e56:	f240 21fa 	movw	r1, #762	; 0x2fa
 8006e5a:	f003 fdf3 	bl	800aa44 <__gnat_rcheck_CE_Overflow_Check>
 8006e5e:	6abb      	ldr	r3, [r7, #40]	; 0x28
 8006e60:	3302      	adds	r3, #2
 8006e62:	62bb      	str	r3, [r7, #40]	; 0x28
 8006e64:	6afb      	ldr	r3, [r7, #44]	; 0x2c
 8006e66:	3b01      	subs	r3, #1
 8006e68:	2b00      	cmp	r3, #0
 8006e6a:	da04      	bge.n	8006e76 <stm32__spi__send_receive_16bit_mode+0x22a>
 8006e6c:	482e      	ldr	r0, [pc, #184]	; (8006f28 <stm32__spi__send_receive_16bit_mode+0x2dc>)
 8006e6e:	f240 21fb 	movw	r1, #763	; 0x2fb
 8006e72:	f003 fdef 	bl	800aa54 <__gnat_rcheck_CE_Range_Check>
 8006e76:	62fb      	str	r3, [r7, #44]	; 0x2c
 8006e78:	6afb      	ldr	r3, [r7, #44]	; 0x2c
 8006e7a:	2b00      	cmp	r3, #0
 8006e7c:	bf0c      	ite	eq
 8006e7e:	2301      	moveq	r3, #1
 8006e80:	2300      	movne	r3, #0
 8006e82:	b2de      	uxtb	r6, r3
 8006e84:	68f8      	ldr	r0, [r7, #12]
 8006e86:	f7ff fafd 	bl	8006484 <stm32__spi__crc_enabled>
 8006e8a:	4603      	mov	r3, r0
 8006e8c:	4033      	ands	r3, r6
 8006e8e:	b2db      	uxtb	r3, r3
 8006e90:	2b00      	cmp	r3, #0
 8006e92:	d009      	beq.n	8006ea8 <stm32__spi__send_receive_16bit_mode+0x25c>
 8006e94:	68fb      	ldr	r3, [r7, #12]
 8006e96:	685b      	ldr	r3, [r3, #4]
 8006e98:	681b      	ldr	r3, [r3, #0]
 8006e9a:	461a      	mov	r2, r3
 8006e9c:	4613      	mov	r3, r2
 8006e9e:	f443 5280 	orr.w	r2, r3, #4096	; 0x1000
 8006ea2:	68fb      	ldr	r3, [r7, #12]
 8006ea4:	685b      	ldr	r3, [r3, #4]
 8006ea6:	601a      	str	r2, [r3, #0]
 8006ea8:	68f8      	ldr	r0, [r7, #12]
 8006eaa:	f7ff fa6f 	bl	800638c <stm32__spi__rx_is_empty>
 8006eae:	4603      	mov	r3, r0
 8006eb0:	2b00      	cmp	r3, #0
 8006eb2:	d001      	beq.n	8006eb8 <stm32__spi__send_receive_16bit_mode+0x26c>
 8006eb4:	bf00      	nop
 8006eb6:	e7f7      	b.n	8006ea8 <stm32__spi__send_receive_16bit_mode+0x25c>
 8006eb8:	6a7a      	ldr	r2, [r7, #36]	; 0x24
 8006eba:	6cfb      	ldr	r3, [r7, #76]	; 0x4c
 8006ebc:	681b      	ldr	r3, [r3, #0]
 8006ebe:	429a      	cmp	r2, r3
 8006ec0:	db04      	blt.n	8006ecc <stm32__spi__send_receive_16bit_mode+0x280>
 8006ec2:	6a7a      	ldr	r2, [r7, #36]	; 0x24
 8006ec4:	6cfb      	ldr	r3, [r7, #76]	; 0x4c
 8006ec6:	685b      	ldr	r3, [r3, #4]
 8006ec8:	429a      	cmp	r2, r3
 8006eca:	dd04      	ble.n	8006ed6 <stm32__spi__send_receive_16bit_mode+0x28a>
 8006ecc:	4816      	ldr	r0, [pc, #88]	; (8006f28 <stm32__spi__send_receive_16bit_mode+0x2dc>)
 8006ece:	f240 3107 	movw	r1, #775	; 0x307
 8006ed2:	f003 fda7 	bl	800aa24 <__gnat_rcheck_CE_Index_Check>
 8006ed6:	6cba      	ldr	r2, [r7, #72]	; 0x48
 8006ed8:	6cfb      	ldr	r3, [r7, #76]	; 0x4c
 8006eda:	681b      	ldr	r3, [r3, #0]
 8006edc:	4619      	mov	r1, r3
 8006ede:	6a7b      	ldr	r3, [r7, #36]	; 0x24
 8006ee0:	1a5b      	subs	r3, r3, r1
 8006ee2:	4413      	add	r3, r2
 8006ee4:	2b00      	cmp	r3, #0
 8006ee6:	d104      	bne.n	8006ef2 <stm32__spi__send_receive_16bit_mode+0x2a6>
 8006ee8:	480f      	ldr	r0, [pc, #60]	; (8006f28 <stm32__spi__send_receive_16bit_mode+0x2dc>)
 8006eea:	f240 3107 	movw	r1, #775	; 0x307
 8006eee:	f003 fd79 	bl	800a9e4 <__gnat_rcheck_CE_Access_Check>
 8006ef2:	6cba      	ldr	r2, [r7, #72]	; 0x48
 8006ef4:	6cfb      	ldr	r3, [r7, #76]	; 0x4c
 8006ef6:	681b      	ldr	r3, [r3, #0]
 8006ef8:	4619      	mov	r1, r3
 8006efa:	6a7b      	ldr	r3, [r7, #36]	; 0x24
 8006efc:	1a5b      	subs	r3, r3, r1
 8006efe:	4413      	add	r3, r2
 8006f00:	68fa      	ldr	r2, [r7, #12]
 8006f02:	6852      	ldr	r2, [r2, #4]
 8006f04:	320c      	adds	r2, #12
 8006f06:	8812      	ldrh	r2, [r2, #0]
 8006f08:	b292      	uxth	r2, r2
 8006f0a:	b292      	uxth	r2, r2
 8006f0c:	801a      	strh	r2, [r3, #0]
 8006f0e:	6a7b      	ldr	r3, [r7, #36]	; 0x24
 8006f10:	4a06      	ldr	r2, [pc, #24]	; (8006f2c <stm32__spi__send_receive_16bit_mode+0x2e0>)
 8006f12:	4293      	cmp	r3, r2
 8006f14:	dd04      	ble.n	8006f20 <stm32__spi__send_receive_16bit_mode+0x2d4>
 8006f16:	4804      	ldr	r0, [pc, #16]	; (8006f28 <stm32__spi__send_receive_16bit_mode+0x2dc>)
 8006f18:	f240 3109 	movw	r1, #777	; 0x309
 8006f1c:	f003 fd92 	bl	800aa44 <__gnat_rcheck_CE_Overflow_Check>
 8006f20:	6a7b      	ldr	r3, [r7, #36]	; 0x24
 8006f22:	3302      	adds	r3, #2
 8006f24:	627b      	str	r3, [r7, #36]	; 0x24
 8006f26:	e759      	b.n	8006ddc <stm32__spi__send_receive_16bit_mode+0x190>
 8006f28:	0800f208 	.word	0x0800f208
 8006f2c:	7ffffffd 	.word	0x7ffffffd
 8006f30:	68f8      	ldr	r0, [r7, #12]
 8006f32:	f7ff fa53 	bl	80063dc <stm32__spi__current_mode>
 8006f36:	4603      	mov	r3, r0
 8006f38:	2b01      	cmp	r3, #1
 8006f3a:	d132      	bne.n	8006fa2 <stm32__spi__send_receive_16bit_mode+0x356>
 8006f3c:	68f8      	ldr	r0, [r7, #12]
 8006f3e:	f7ff fa25 	bl	800638c <stm32__spi__rx_is_empty>
 8006f42:	4603      	mov	r3, r0
 8006f44:	2b00      	cmp	r3, #0
 8006f46:	d001      	beq.n	8006f4c <stm32__spi__send_receive_16bit_mode+0x300>
 8006f48:	bf00      	nop
 8006f4a:	e7f7      	b.n	8006f3c <stm32__spi__send_receive_16bit_mode+0x2f0>
 8006f4c:	6a7a      	ldr	r2, [r7, #36]	; 0x24
 8006f4e:	6cfb      	ldr	r3, [r7, #76]	; 0x4c
 8006f50:	681b      	ldr	r3, [r3, #0]
 8006f52:	429a      	cmp	r2, r3
 8006f54:	db04      	blt.n	8006f60 <stm32__spi__send_receive_16bit_mode+0x314>
 8006f56:	6a7a      	ldr	r2, [r7, #36]	; 0x24
 8006f58:	6cfb      	ldr	r3, [r7, #76]	; 0x4c
 8006f5a:	685b      	ldr	r3, [r3, #4]
 8006f5c:	429a      	cmp	r2, r3
 8006f5e:	dd04      	ble.n	8006f6a <stm32__spi__send_receive_16bit_mode+0x31e>
 8006f60:	4811      	ldr	r0, [pc, #68]	; (8006fa8 <stm32__spi__send_receive_16bit_mode+0x35c>)
 8006f62:	f240 3113 	movw	r1, #787	; 0x313
 8006f66:	f003 fd5d 	bl	800aa24 <__gnat_rcheck_CE_Index_Check>
 8006f6a:	6cba      	ldr	r2, [r7, #72]	; 0x48
 8006f6c:	6cfb      	ldr	r3, [r7, #76]	; 0x4c
 8006f6e:	681b      	ldr	r3, [r3, #0]
 8006f70:	4619      	mov	r1, r3
 8006f72:	6a7b      	ldr	r3, [r7, #36]	; 0x24
 8006f74:	1a5b      	subs	r3, r3, r1
 8006f76:	4413      	add	r3, r2
 8006f78:	2b00      	cmp	r3, #0
 8006f7a:	d104      	bne.n	8006f86 <stm32__spi__send_receive_16bit_mode+0x33a>
 8006f7c:	480a      	ldr	r0, [pc, #40]	; (8006fa8 <stm32__spi__send_receive_16bit_mode+0x35c>)
 8006f7e:	f240 3113 	movw	r1, #787	; 0x313
 8006f82:	f003 fd2f 	bl	800a9e4 <__gnat_rcheck_CE_Access_Check>
 8006f86:	6cba      	ldr	r2, [r7, #72]	; 0x48
 8006f88:	6cfb      	ldr	r3, [r7, #76]	; 0x4c
 8006f8a:	681b      	ldr	r3, [r3, #0]
 8006f8c:	4619      	mov	r1, r3
 8006f8e:	6a7b      	ldr	r3, [r7, #36]	; 0x24
 8006f90:	1a5b      	subs	r3, r3, r1
 8006f92:	4413      	add	r3, r2
 8006f94:	68fa      	ldr	r2, [r7, #12]
 8006f96:	6852      	ldr	r2, [r2, #4]
 8006f98:	320c      	adds	r2, #12
 8006f9a:	8812      	ldrh	r2, [r2, #0]
 8006f9c:	b292      	uxth	r2, r2
 8006f9e:	b292      	uxth	r2, r2
 8006fa0:	801a      	strh	r2, [r3, #0]
 8006fa2:	3734      	adds	r7, #52	; 0x34
 8006fa4:	46bd      	mov	sp, r7
 8006fa6:	bdf0      	pop	{r4, r5, r6, r7, pc}
 8006fa8:	0800f208 	.word	0x0800f208

08006fac <stm32__spi__send_receive_8bit_mode>:
 8006fac:	b5f0      	push	{r4, r5, r6, r7, lr}
 8006fae:	b08d      	sub	sp, #52	; 0x34
 8006fb0:	af00      	add	r7, sp, #0
 8006fb2:	60f8      	str	r0, [r7, #12]
 8006fb4:	e9c7 2300 	strd	r2, r3, [r7]
 8006fb8:	687b      	ldr	r3, [r7, #4]
 8006fba:	681c      	ldr	r4, [r3, #0]
 8006fbc:	687b      	ldr	r3, [r7, #4]
 8006fbe:	685d      	ldr	r5, [r3, #4]
 8006fc0:	6cfb      	ldr	r3, [r7, #76]	; 0x4c
 8006fc2:	681b      	ldr	r3, [r3, #0]
 8006fc4:	623b      	str	r3, [r7, #32]
 8006fc6:	6cfb      	ldr	r3, [r7, #76]	; 0x4c
 8006fc8:	685a      	ldr	r2, [r3, #4]
 8006fca:	6cfb      	ldr	r3, [r7, #76]	; 0x4c
 8006fcc:	681b      	ldr	r3, [r3, #0]
 8006fce:	429a      	cmp	r2, r3
 8006fd0:	db03      	blt.n	8006fda <stm32__spi__send_receive_8bit_mode+0x2e>
 8006fd2:	6cfb      	ldr	r3, [r7, #76]	; 0x4c
 8006fd4:	685b      	ldr	r3, [r3, #4]
 8006fd6:	61fb      	str	r3, [r7, #28]
 8006fd8:	e003      	b.n	8006fe2 <stm32__spi__send_receive_8bit_mode+0x36>
 8006fda:	6cfb      	ldr	r3, [r7, #76]	; 0x4c
 8006fdc:	681b      	ldr	r3, [r3, #0]
 8006fde:	3b01      	subs	r3, #1
 8006fe0:	61fb      	str	r3, [r7, #28]
 8006fe2:	61bc      	str	r4, [r7, #24]
 8006fe4:	42a5      	cmp	r5, r4
 8006fe6:	db01      	blt.n	8006fec <stm32__spi__send_receive_8bit_mode+0x40>
 8006fe8:	617d      	str	r5, [r7, #20]
 8006fea:	e002      	b.n	8006ff2 <stm32__spi__send_receive_8bit_mode+0x46>
 8006fec:	4623      	mov	r3, r4
 8006fee:	3b01      	subs	r3, #1
 8006ff0:	617b      	str	r3, [r7, #20]
 8006ff2:	6d3b      	ldr	r3, [r7, #80]	; 0x50
 8006ff4:	62fb      	str	r3, [r7, #44]	; 0x2c
 8006ff6:	2c00      	cmp	r4, #0
 8006ff8:	da04      	bge.n	8007004 <stm32__spi__send_receive_8bit_mode+0x58>
 8006ffa:	489e      	ldr	r0, [pc, #632]	; (8007274 <stm32__spi__send_receive_8bit_mode+0x2c8>)
 8006ffc:	f240 3123 	movw	r1, #803	; 0x323
 8007000:	f003 fd28 	bl	800aa54 <__gnat_rcheck_CE_Range_Check>
 8007004:	62bc      	str	r4, [r7, #40]	; 0x28
 8007006:	6cfb      	ldr	r3, [r7, #76]	; 0x4c
 8007008:	681b      	ldr	r3, [r3, #0]
 800700a:	2b00      	cmp	r3, #0
 800700c:	da04      	bge.n	8007018 <stm32__spi__send_receive_8bit_mode+0x6c>
 800700e:	4899      	ldr	r0, [pc, #612]	; (8007274 <stm32__spi__send_receive_8bit_mode+0x2c8>)
 8007010:	f44f 7149 	mov.w	r1, #804	; 0x324
 8007014:	f003 fd1e 	bl	800aa54 <__gnat_rcheck_CE_Range_Check>
 8007018:	6cfb      	ldr	r3, [r7, #76]	; 0x4c
 800701a:	681b      	ldr	r3, [r3, #0]
 800701c:	627b      	str	r3, [r7, #36]	; 0x24
 800701e:	68fb      	ldr	r3, [r7, #12]
 8007020:	685b      	ldr	r3, [r3, #4]
 8007022:	330c      	adds	r3, #12
 8007024:	613b      	str	r3, [r7, #16]
 8007026:	68f8      	ldr	r0, [r7, #12]
 8007028:	f7ff f9d8 	bl	80063dc <stm32__spi__current_mode>
 800702c:	4603      	mov	r3, r0
 800702e:	2b01      	cmp	r3, #1
 8007030:	d002      	beq.n	8007038 <stm32__spi__send_receive_8bit_mode+0x8c>
 8007032:	6afb      	ldr	r3, [r7, #44]	; 0x2c
 8007034:	2b01      	cmp	r3, #1
 8007036:	d128      	bne.n	800708a <stm32__spi__send_receive_8bit_mode+0xde>
 8007038:	6abb      	ldr	r3, [r7, #40]	; 0x28
 800703a:	42a3      	cmp	r3, r4
 800703c:	db02      	blt.n	8007044 <stm32__spi__send_receive_8bit_mode+0x98>
 800703e:	6abb      	ldr	r3, [r7, #40]	; 0x28
 8007040:	42ab      	cmp	r3, r5
 8007042:	dd04      	ble.n	800704e <stm32__spi__send_receive_8bit_mode+0xa2>
 8007044:	488b      	ldr	r0, [pc, #556]	; (8007274 <stm32__spi__send_receive_8bit_mode+0x2c8>)
 8007046:	f44f 714a 	mov.w	r1, #808	; 0x328
 800704a:	f003 fceb 	bl	800aa24 <__gnat_rcheck_CE_Index_Check>
 800704e:	683a      	ldr	r2, [r7, #0]
 8007050:	6ab9      	ldr	r1, [r7, #40]	; 0x28
 8007052:	69bb      	ldr	r3, [r7, #24]
 8007054:	1acb      	subs	r3, r1, r3
 8007056:	5cd2      	ldrb	r2, [r2, r3]
 8007058:	693b      	ldr	r3, [r7, #16]
 800705a:	701a      	strb	r2, [r3, #0]
 800705c:	6abb      	ldr	r3, [r7, #40]	; 0x28
 800705e:	f06f 4200 	mvn.w	r2, #2147483648	; 0x80000000
 8007062:	4293      	cmp	r3, r2
 8007064:	d104      	bne.n	8007070 <stm32__spi__send_receive_8bit_mode+0xc4>
 8007066:	4883      	ldr	r0, [pc, #524]	; (8007274 <stm32__spi__send_receive_8bit_mode+0x2c8>)
 8007068:	f240 3129 	movw	r1, #809	; 0x329
 800706c:	f003 fcea 	bl	800aa44 <__gnat_rcheck_CE_Overflow_Check>
 8007070:	6abb      	ldr	r3, [r7, #40]	; 0x28
 8007072:	3301      	adds	r3, #1
 8007074:	62bb      	str	r3, [r7, #40]	; 0x28
 8007076:	6afb      	ldr	r3, [r7, #44]	; 0x2c
 8007078:	3b01      	subs	r3, #1
 800707a:	2b00      	cmp	r3, #0
 800707c:	da04      	bge.n	8007088 <stm32__spi__send_receive_8bit_mode+0xdc>
 800707e:	487d      	ldr	r0, [pc, #500]	; (8007274 <stm32__spi__send_receive_8bit_mode+0x2c8>)
 8007080:	f240 312a 	movw	r1, #810	; 0x32a
 8007084:	f003 fce6 	bl	800aa54 <__gnat_rcheck_CE_Range_Check>
 8007088:	62fb      	str	r3, [r7, #44]	; 0x2c
 800708a:	6afb      	ldr	r3, [r7, #44]	; 0x2c
 800708c:	2b00      	cmp	r3, #0
 800708e:	d138      	bne.n	8007102 <stm32__spi__send_receive_8bit_mode+0x156>
 8007090:	68f8      	ldr	r0, [r7, #12]
 8007092:	f7ff f9f7 	bl	8006484 <stm32__spi__crc_enabled>
 8007096:	4603      	mov	r3, r0
 8007098:	2b00      	cmp	r3, #0
 800709a:	d009      	beq.n	80070b0 <stm32__spi__send_receive_8bit_mode+0x104>
 800709c:	68fb      	ldr	r3, [r7, #12]
 800709e:	685b      	ldr	r3, [r3, #4]
 80070a0:	681b      	ldr	r3, [r3, #0]
 80070a2:	461a      	mov	r2, r3
 80070a4:	4613      	mov	r3, r2
 80070a6:	f443 5280 	orr.w	r2, r3, #4096	; 0x1000
 80070aa:	68fb      	ldr	r3, [r7, #12]
 80070ac:	685b      	ldr	r3, [r3, #4]
 80070ae:	601a      	str	r2, [r3, #0]
 80070b0:	68f8      	ldr	r0, [r7, #12]
 80070b2:	f7ff f96b 	bl	800638c <stm32__spi__rx_is_empty>
 80070b6:	4603      	mov	r3, r0
 80070b8:	2b00      	cmp	r3, #0
 80070ba:	d001      	beq.n	80070c0 <stm32__spi__send_receive_8bit_mode+0x114>
 80070bc:	bf00      	nop
 80070be:	e7f7      	b.n	80070b0 <stm32__spi__send_receive_8bit_mode+0x104>
 80070c0:	6a7a      	ldr	r2, [r7, #36]	; 0x24
 80070c2:	6cfb      	ldr	r3, [r7, #76]	; 0x4c
 80070c4:	681b      	ldr	r3, [r3, #0]
 80070c6:	429a      	cmp	r2, r3
 80070c8:	db04      	blt.n	80070d4 <stm32__spi__send_receive_8bit_mode+0x128>
 80070ca:	6a7a      	ldr	r2, [r7, #36]	; 0x24
 80070cc:	6cfb      	ldr	r3, [r7, #76]	; 0x4c
 80070ce:	685b      	ldr	r3, [r3, #4]
 80070d0:	429a      	cmp	r2, r3
 80070d2:	dd04      	ble.n	80070de <stm32__spi__send_receive_8bit_mode+0x132>
 80070d4:	4867      	ldr	r0, [pc, #412]	; (8007274 <stm32__spi__send_receive_8bit_mode+0x2c8>)
 80070d6:	f44f 714e 	mov.w	r1, #824	; 0x338
 80070da:	f003 fca3 	bl	800aa24 <__gnat_rcheck_CE_Index_Check>
 80070de:	6a7b      	ldr	r3, [r7, #36]	; 0x24
 80070e0:	2b00      	cmp	r3, #0
 80070e2:	da04      	bge.n	80070ee <stm32__spi__send_receive_8bit_mode+0x142>
 80070e4:	4863      	ldr	r0, [pc, #396]	; (8007274 <stm32__spi__send_receive_8bit_mode+0x2c8>)
 80070e6:	f44f 714e 	mov.w	r1, #824	; 0x338
 80070ea:	f003 fca3 	bl	800aa34 <__gnat_rcheck_CE_Invalid_Data>
 80070ee:	6cba      	ldr	r2, [r7, #72]	; 0x48
 80070f0:	693b      	ldr	r3, [r7, #16]
 80070f2:	781b      	ldrb	r3, [r3, #0]
 80070f4:	b2d8      	uxtb	r0, r3
 80070f6:	6a79      	ldr	r1, [r7, #36]	; 0x24
 80070f8:	6a3b      	ldr	r3, [r7, #32]
 80070fa:	1acb      	subs	r3, r1, r3
 80070fc:	4601      	mov	r1, r0
 80070fe:	54d1      	strb	r1, [r2, r3]
 8007100:	e0b5      	b.n	800726e <stm32__spi__send_receive_8bit_mode+0x2c2>
 8007102:	6afb      	ldr	r3, [r7, #44]	; 0x2c
 8007104:	2b00      	cmp	r3, #0
 8007106:	f340 8082 	ble.w	800720e <stm32__spi__send_receive_8bit_mode+0x262>
 800710a:	68f8      	ldr	r0, [r7, #12]
 800710c:	f7ff f92c 	bl	8006368 <stm32__spi__tx_is_empty>
 8007110:	4603      	mov	r3, r0
 8007112:	f083 0301 	eor.w	r3, r3, #1
 8007116:	b2db      	uxtb	r3, r3
 8007118:	2b00      	cmp	r3, #0
 800711a:	d001      	beq.n	8007120 <stm32__spi__send_receive_8bit_mode+0x174>
 800711c:	bf00      	nop
 800711e:	e7f4      	b.n	800710a <stm32__spi__send_receive_8bit_mode+0x15e>
 8007120:	6abb      	ldr	r3, [r7, #40]	; 0x28
 8007122:	42a3      	cmp	r3, r4
 8007124:	db02      	blt.n	800712c <stm32__spi__send_receive_8bit_mode+0x180>
 8007126:	6abb      	ldr	r3, [r7, #40]	; 0x28
 8007128:	42ab      	cmp	r3, r5
 800712a:	dd04      	ble.n	8007136 <stm32__spi__send_receive_8bit_mode+0x18a>
 800712c:	4851      	ldr	r0, [pc, #324]	; (8007274 <stm32__spi__send_receive_8bit_mode+0x2c8>)
 800712e:	f240 3142 	movw	r1, #834	; 0x342
 8007132:	f003 fc77 	bl	800aa24 <__gnat_rcheck_CE_Index_Check>
 8007136:	683a      	ldr	r2, [r7, #0]
 8007138:	6ab9      	ldr	r1, [r7, #40]	; 0x28
 800713a:	69bb      	ldr	r3, [r7, #24]
 800713c:	1acb      	subs	r3, r1, r3
 800713e:	5cd2      	ldrb	r2, [r2, r3]
 8007140:	693b      	ldr	r3, [r7, #16]
 8007142:	701a      	strb	r2, [r3, #0]
 8007144:	6abb      	ldr	r3, [r7, #40]	; 0x28
 8007146:	f06f 4200 	mvn.w	r2, #2147483648	; 0x80000000
 800714a:	4293      	cmp	r3, r2
 800714c:	d104      	bne.n	8007158 <stm32__spi__send_receive_8bit_mode+0x1ac>
 800714e:	4849      	ldr	r0, [pc, #292]	; (8007274 <stm32__spi__send_receive_8bit_mode+0x2c8>)
 8007150:	f240 3143 	movw	r1, #835	; 0x343
 8007154:	f003 fc76 	bl	800aa44 <__gnat_rcheck_CE_Overflow_Check>
 8007158:	6abb      	ldr	r3, [r7, #40]	; 0x28
 800715a:	3301      	adds	r3, #1
 800715c:	62bb      	str	r3, [r7, #40]	; 0x28
 800715e:	6afb      	ldr	r3, [r7, #44]	; 0x2c
 8007160:	3b01      	subs	r3, #1
 8007162:	2b00      	cmp	r3, #0
 8007164:	da04      	bge.n	8007170 <stm32__spi__send_receive_8bit_mode+0x1c4>
 8007166:	4843      	ldr	r0, [pc, #268]	; (8007274 <stm32__spi__send_receive_8bit_mode+0x2c8>)
 8007168:	f44f 7151 	mov.w	r1, #836	; 0x344
 800716c:	f003 fc72 	bl	800aa54 <__gnat_rcheck_CE_Range_Check>
 8007170:	62fb      	str	r3, [r7, #44]	; 0x2c
 8007172:	6afb      	ldr	r3, [r7, #44]	; 0x2c
 8007174:	2b00      	cmp	r3, #0
 8007176:	bf0c      	ite	eq
 8007178:	2301      	moveq	r3, #1
 800717a:	2300      	movne	r3, #0
 800717c:	b2de      	uxtb	r6, r3
 800717e:	68f8      	ldr	r0, [r7, #12]
 8007180:	f7ff f980 	bl	8006484 <stm32__spi__crc_enabled>
 8007184:	4603      	mov	r3, r0
 8007186:	4033      	ands	r3, r6
 8007188:	b2db      	uxtb	r3, r3
 800718a:	2b00      	cmp	r3, #0
 800718c:	d009      	beq.n	80071a2 <stm32__spi__send_receive_8bit_mode+0x1f6>
 800718e:	68fb      	ldr	r3, [r7, #12]
 8007190:	685b      	ldr	r3, [r3, #4]
 8007192:	681b      	ldr	r3, [r3, #0]
 8007194:	461a      	mov	r2, r3
 8007196:	4613      	mov	r3, r2
 8007198:	f443 5280 	orr.w	r2, r3, #4096	; 0x1000
 800719c:	68fb      	ldr	r3, [r7, #12]
 800719e:	685b      	ldr	r3, [r3, #4]
 80071a0:	601a      	str	r2, [r3, #0]
 80071a2:	68f8      	ldr	r0, [r7, #12]
 80071a4:	f7ff f8f2 	bl	800638c <stm32__spi__rx_is_empty>
 80071a8:	4603      	mov	r3, r0
 80071aa:	2b00      	cmp	r3, #0
 80071ac:	d001      	beq.n	80071b2 <stm32__spi__send_receive_8bit_mode+0x206>
 80071ae:	bf00      	nop
 80071b0:	e7f7      	b.n	80071a2 <stm32__spi__send_receive_8bit_mode+0x1f6>
 80071b2:	6a7a      	ldr	r2, [r7, #36]	; 0x24
 80071b4:	6cfb      	ldr	r3, [r7, #76]	; 0x4c
 80071b6:	681b      	ldr	r3, [r3, #0]
 80071b8:	429a      	cmp	r2, r3
 80071ba:	db04      	blt.n	80071c6 <stm32__spi__send_receive_8bit_mode+0x21a>
 80071bc:	6a7a      	ldr	r2, [r7, #36]	; 0x24
 80071be:	6cfb      	ldr	r3, [r7, #76]	; 0x4c
 80071c0:	685b      	ldr	r3, [r3, #4]
 80071c2:	429a      	cmp	r2, r3
 80071c4:	dd04      	ble.n	80071d0 <stm32__spi__send_receive_8bit_mode+0x224>
 80071c6:	482b      	ldr	r0, [pc, #172]	; (8007274 <stm32__spi__send_receive_8bit_mode+0x2c8>)
 80071c8:	f44f 7154 	mov.w	r1, #848	; 0x350
 80071cc:	f003 fc2a 	bl	800aa24 <__gnat_rcheck_CE_Index_Check>
 80071d0:	6a7b      	ldr	r3, [r7, #36]	; 0x24
 80071d2:	2b00      	cmp	r3, #0
 80071d4:	da04      	bge.n	80071e0 <stm32__spi__send_receive_8bit_mode+0x234>
 80071d6:	4827      	ldr	r0, [pc, #156]	; (8007274 <stm32__spi__send_receive_8bit_mode+0x2c8>)
 80071d8:	f44f 7154 	mov.w	r1, #848	; 0x350
 80071dc:	f003 fc2a 	bl	800aa34 <__gnat_rcheck_CE_Invalid_Data>
 80071e0:	6cba      	ldr	r2, [r7, #72]	; 0x48
 80071e2:	693b      	ldr	r3, [r7, #16]
 80071e4:	781b      	ldrb	r3, [r3, #0]
 80071e6:	b2d8      	uxtb	r0, r3
 80071e8:	6a79      	ldr	r1, [r7, #36]	; 0x24
 80071ea:	6a3b      	ldr	r3, [r7, #32]
 80071ec:	1acb      	subs	r3, r1, r3
 80071ee:	4601      	mov	r1, r0
 80071f0:	54d1      	strb	r1, [r2, r3]
 80071f2:	6a7b      	ldr	r3, [r7, #36]	; 0x24
 80071f4:	f06f 4200 	mvn.w	r2, #2147483648	; 0x80000000
 80071f8:	4293      	cmp	r3, r2
 80071fa:	d104      	bne.n	8007206 <stm32__spi__send_receive_8bit_mode+0x25a>
 80071fc:	481d      	ldr	r0, [pc, #116]	; (8007274 <stm32__spi__send_receive_8bit_mode+0x2c8>)
 80071fe:	f240 3151 	movw	r1, #849	; 0x351
 8007202:	f003 fc1f 	bl	800aa44 <__gnat_rcheck_CE_Overflow_Check>
 8007206:	6a7b      	ldr	r3, [r7, #36]	; 0x24
 8007208:	3301      	adds	r3, #1
 800720a:	627b      	str	r3, [r7, #36]	; 0x24
 800720c:	e779      	b.n	8007102 <stm32__spi__send_receive_8bit_mode+0x156>
 800720e:	68f8      	ldr	r0, [r7, #12]
 8007210:	f7ff f8e4 	bl	80063dc <stm32__spi__current_mode>
 8007214:	4603      	mov	r3, r0
 8007216:	2b01      	cmp	r3, #1
 8007218:	d129      	bne.n	800726e <stm32__spi__send_receive_8bit_mode+0x2c2>
 800721a:	68f8      	ldr	r0, [r7, #12]
 800721c:	f7ff f8b6 	bl	800638c <stm32__spi__rx_is_empty>
 8007220:	4603      	mov	r3, r0
 8007222:	2b00      	cmp	r3, #0
 8007224:	d001      	beq.n	800722a <stm32__spi__send_receive_8bit_mode+0x27e>
 8007226:	bf00      	nop
 8007228:	e7f7      	b.n	800721a <stm32__spi__send_receive_8bit_mode+0x26e>
 800722a:	6a7a      	ldr	r2, [r7, #36]	; 0x24
 800722c:	6cfb      	ldr	r3, [r7, #76]	; 0x4c
 800722e:	681b      	ldr	r3, [r3, #0]
 8007230:	429a      	cmp	r2, r3
 8007232:	db04      	blt.n	800723e <stm32__spi__send_receive_8bit_mode+0x292>
 8007234:	6a7a      	ldr	r2, [r7, #36]	; 0x24
 8007236:	6cfb      	ldr	r3, [r7, #76]	; 0x4c
 8007238:	685b      	ldr	r3, [r3, #4]
 800723a:	429a      	cmp	r2, r3
 800723c:	dd04      	ble.n	8007248 <stm32__spi__send_receive_8bit_mode+0x29c>
 800723e:	480d      	ldr	r0, [pc, #52]	; (8007274 <stm32__spi__send_receive_8bit_mode+0x2c8>)
 8007240:	f240 315a 	movw	r1, #858	; 0x35a
 8007244:	f003 fbee 	bl	800aa24 <__gnat_rcheck_CE_Index_Check>
 8007248:	6a7b      	ldr	r3, [r7, #36]	; 0x24
 800724a:	2b00      	cmp	r3, #0
 800724c:	da04      	bge.n	8007258 <stm32__spi__send_receive_8bit_mode+0x2ac>
 800724e:	4809      	ldr	r0, [pc, #36]	; (8007274 <stm32__spi__send_receive_8bit_mode+0x2c8>)
 8007250:	f240 315a 	movw	r1, #858	; 0x35a
 8007254:	f003 fbee 	bl	800aa34 <__gnat_rcheck_CE_Invalid_Data>
 8007258:	6cbc      	ldr	r4, [r7, #72]	; 0x48
 800725a:	68f8      	ldr	r0, [r7, #12]
 800725c:	f7ff f84c 	bl	80062f8 <stm32__spi__data__2>
 8007260:	4603      	mov	r3, r0
 8007262:	4619      	mov	r1, r3
 8007264:	6a7a      	ldr	r2, [r7, #36]	; 0x24
 8007266:	6a3b      	ldr	r3, [r7, #32]
 8007268:	1ad3      	subs	r3, r2, r3
 800726a:	460a      	mov	r2, r1
 800726c:	54e2      	strb	r2, [r4, r3]
 800726e:	3734      	adds	r7, #52	; 0x34
 8007270:	46bd      	mov	sp, r7
 8007272:	bdf0      	pop	{r4, r5, r6, r7, pc}
 8007274:	0800f208 	.word	0x0800f208

08007278 <stm32__spi__send_16bit_mode>:
 8007278:	e92d 43b0 	stmdb	sp!, {r4, r5, r7, r8, r9, lr}
 800727c:	b086      	sub	sp, #24
 800727e:	af00      	add	r7, sp, #0
 8007280:	60f8      	str	r0, [r7, #12]
 8007282:	e9c7 2300 	strd	r2, r3, [r7]
 8007286:	687b      	ldr	r3, [r7, #4]
 8007288:	681c      	ldr	r4, [r3, #0]
 800728a:	687b      	ldr	r3, [r7, #4]
 800728c:	685d      	ldr	r5, [r3, #4]
 800728e:	42a5      	cmp	r5, r4
 8007290:	db0d      	blt.n	80072ae <stm32__spi__send_16bit_mode+0x36>
 8007292:	4628      	mov	r0, r5
 8007294:	ea4f 71e0 	mov.w	r1, r0, asr #31
 8007298:	4622      	mov	r2, r4
 800729a:	ea4f 73e2 	mov.w	r3, r2, asr #31
 800729e:	1a82      	subs	r2, r0, r2
 80072a0:	eb61 0303 	sbc.w	r3, r1, r3
 80072a4:	f112 0801 	adds.w	r8, r2, #1
 80072a8:	f143 0900 	adc.w	r9, r3, #0
 80072ac:	e003      	b.n	80072b6 <stm32__spi__send_16bit_mode+0x3e>
 80072ae:	f04f 0800 	mov.w	r8, #0
 80072b2:	f04f 0900 	mov.w	r9, #0
 80072b6:	4622      	mov	r2, r4
 80072b8:	ea4f 73e2 	mov.w	r3, r2, asr #31
 80072bc:	4864      	ldr	r0, [pc, #400]	; (8007450 <stm32__spi__send_16bit_mode+0x1d8>)
 80072be:	f04f 0100 	mov.w	r1, #0
 80072c2:	1880      	adds	r0, r0, r2
 80072c4:	eb41 0103 	adc.w	r1, r1, r3
 80072c8:	462a      	mov	r2, r5
 80072ca:	ea4f 73e2 	mov.w	r3, r2, asr #31
 80072ce:	4290      	cmp	r0, r2
 80072d0:	eb71 0303 	sbcs.w	r3, r1, r3
 80072d4:	da04      	bge.n	80072e0 <stm32__spi__send_16bit_mode+0x68>
 80072d6:	485f      	ldr	r0, [pc, #380]	; (8007454 <stm32__spi__send_16bit_mode+0x1dc>)
 80072d8:	f240 3166 	movw	r1, #870	; 0x366
 80072dc:	f003 fbba 	bl	800aa54 <__gnat_rcheck_CE_Range_Check>
 80072e0:	4643      	mov	r3, r8
 80072e2:	617b      	str	r3, [r7, #20]
 80072e4:	2c00      	cmp	r4, #0
 80072e6:	da04      	bge.n	80072f2 <stm32__spi__send_16bit_mode+0x7a>
 80072e8:	485a      	ldr	r0, [pc, #360]	; (8007454 <stm32__spi__send_16bit_mode+0x1dc>)
 80072ea:	f240 3167 	movw	r1, #871	; 0x367
 80072ee:	f003 fbb1 	bl	800aa54 <__gnat_rcheck_CE_Range_Check>
 80072f2:	613c      	str	r4, [r7, #16]
 80072f4:	68f8      	ldr	r0, [r7, #12]
 80072f6:	f7ff f871 	bl	80063dc <stm32__spi__current_mode>
 80072fa:	4603      	mov	r3, r0
 80072fc:	2b01      	cmp	r3, #1
 80072fe:	d002      	beq.n	8007306 <stm32__spi__send_16bit_mode+0x8e>
 8007300:	697b      	ldr	r3, [r7, #20]
 8007302:	2b01      	cmp	r3, #1
 8007304:	d140      	bne.n	8007388 <stm32__spi__send_16bit_mode+0x110>
 8007306:	693b      	ldr	r3, [r7, #16]
 8007308:	42a3      	cmp	r3, r4
 800730a:	db02      	blt.n	8007312 <stm32__spi__send_16bit_mode+0x9a>
 800730c:	693b      	ldr	r3, [r7, #16]
 800730e:	42ab      	cmp	r3, r5
 8007310:	dd04      	ble.n	800731c <stm32__spi__send_16bit_mode+0xa4>
 8007312:	4850      	ldr	r0, [pc, #320]	; (8007454 <stm32__spi__send_16bit_mode+0x1dc>)
 8007314:	f240 316b 	movw	r1, #875	; 0x36b
 8007318:	f003 fb84 	bl	800aa24 <__gnat_rcheck_CE_Index_Check>
 800731c:	683a      	ldr	r2, [r7, #0]
 800731e:	4621      	mov	r1, r4
 8007320:	693b      	ldr	r3, [r7, #16]
 8007322:	1a5b      	subs	r3, r3, r1
 8007324:	005b      	lsls	r3, r3, #1
 8007326:	4413      	add	r3, r2
 8007328:	2b00      	cmp	r3, #0
 800732a:	d104      	bne.n	8007336 <stm32__spi__send_16bit_mode+0xbe>
 800732c:	4849      	ldr	r0, [pc, #292]	; (8007454 <stm32__spi__send_16bit_mode+0x1dc>)
 800732e:	f240 316b 	movw	r1, #875	; 0x36b
 8007332:	f003 fb57 	bl	800a9e4 <__gnat_rcheck_CE_Access_Check>
 8007336:	68fb      	ldr	r3, [r7, #12]
 8007338:	685b      	ldr	r3, [r3, #4]
 800733a:	330c      	adds	r3, #12
 800733c:	881b      	ldrh	r3, [r3, #0]
 800733e:	b29b      	uxth	r3, r3
 8007340:	461a      	mov	r2, r3
 8007342:	683a      	ldr	r2, [r7, #0]
 8007344:	4621      	mov	r1, r4
 8007346:	693b      	ldr	r3, [r7, #16]
 8007348:	1a5b      	subs	r3, r3, r1
 800734a:	005b      	lsls	r3, r3, #1
 800734c:	4413      	add	r3, r2
 800734e:	881b      	ldrh	r3, [r3, #0]
 8007350:	461a      	mov	r2, r3
 8007352:	68fb      	ldr	r3, [r7, #12]
 8007354:	685b      	ldr	r3, [r3, #4]
 8007356:	330c      	adds	r3, #12
 8007358:	b292      	uxth	r2, r2
 800735a:	801a      	strh	r2, [r3, #0]
 800735c:	693b      	ldr	r3, [r7, #16]
 800735e:	4a3e      	ldr	r2, [pc, #248]	; (8007458 <stm32__spi__send_16bit_mode+0x1e0>)
 8007360:	4293      	cmp	r3, r2
 8007362:	dd04      	ble.n	800736e <stm32__spi__send_16bit_mode+0xf6>
 8007364:	483b      	ldr	r0, [pc, #236]	; (8007454 <stm32__spi__send_16bit_mode+0x1dc>)
 8007366:	f44f 715b 	mov.w	r1, #876	; 0x36c
 800736a:	f003 fb6b 	bl	800aa44 <__gnat_rcheck_CE_Overflow_Check>
 800736e:	693b      	ldr	r3, [r7, #16]
 8007370:	3302      	adds	r3, #2
 8007372:	613b      	str	r3, [r7, #16]
 8007374:	697b      	ldr	r3, [r7, #20]
 8007376:	3b01      	subs	r3, #1
 8007378:	2b00      	cmp	r3, #0
 800737a:	da04      	bge.n	8007386 <stm32__spi__send_16bit_mode+0x10e>
 800737c:	4835      	ldr	r0, [pc, #212]	; (8007454 <stm32__spi__send_16bit_mode+0x1dc>)
 800737e:	f240 316d 	movw	r1, #877	; 0x36d
 8007382:	f003 fb67 	bl	800aa54 <__gnat_rcheck_CE_Range_Check>
 8007386:	617b      	str	r3, [r7, #20]
 8007388:	697b      	ldr	r3, [r7, #20]
 800738a:	2b00      	cmp	r3, #0
 800738c:	dd4c      	ble.n	8007428 <stm32__spi__send_16bit_mode+0x1b0>
 800738e:	68f8      	ldr	r0, [r7, #12]
 8007390:	f7fe ffea 	bl	8006368 <stm32__spi__tx_is_empty>
 8007394:	4603      	mov	r3, r0
 8007396:	f083 0301 	eor.w	r3, r3, #1
 800739a:	b2db      	uxtb	r3, r3
 800739c:	2b00      	cmp	r3, #0
 800739e:	d001      	beq.n	80073a4 <stm32__spi__send_16bit_mode+0x12c>
 80073a0:	bf00      	nop
 80073a2:	e7f4      	b.n	800738e <stm32__spi__send_16bit_mode+0x116>
 80073a4:	693b      	ldr	r3, [r7, #16]
 80073a6:	42a3      	cmp	r3, r4
 80073a8:	db02      	blt.n	80073b0 <stm32__spi__send_16bit_mode+0x138>
 80073aa:	693b      	ldr	r3, [r7, #16]
 80073ac:	42ab      	cmp	r3, r5
 80073ae:	dd04      	ble.n	80073ba <stm32__spi__send_16bit_mode+0x142>
 80073b0:	4828      	ldr	r0, [pc, #160]	; (8007454 <stm32__spi__send_16bit_mode+0x1dc>)
 80073b2:	f240 3177 	movw	r1, #887	; 0x377
 80073b6:	f003 fb35 	bl	800aa24 <__gnat_rcheck_CE_Index_Check>
 80073ba:	683a      	ldr	r2, [r7, #0]
 80073bc:	4621      	mov	r1, r4
 80073be:	693b      	ldr	r3, [r7, #16]
 80073c0:	1a5b      	subs	r3, r3, r1
 80073c2:	005b      	lsls	r3, r3, #1
 80073c4:	4413      	add	r3, r2
 80073c6:	2b00      	cmp	r3, #0
 80073c8:	d104      	bne.n	80073d4 <stm32__spi__send_16bit_mode+0x15c>
 80073ca:	4822      	ldr	r0, [pc, #136]	; (8007454 <stm32__spi__send_16bit_mode+0x1dc>)
 80073cc:	f240 3177 	movw	r1, #887	; 0x377
 80073d0:	f003 fb08 	bl	800a9e4 <__gnat_rcheck_CE_Access_Check>
 80073d4:	68fb      	ldr	r3, [r7, #12]
 80073d6:	685b      	ldr	r3, [r3, #4]
 80073d8:	330c      	adds	r3, #12
 80073da:	881b      	ldrh	r3, [r3, #0]
 80073dc:	b29b      	uxth	r3, r3
 80073de:	461a      	mov	r2, r3
 80073e0:	683a      	ldr	r2, [r7, #0]
 80073e2:	4621      	mov	r1, r4
 80073e4:	693b      	ldr	r3, [r7, #16]
 80073e6:	1a5b      	subs	r3, r3, r1
 80073e8:	005b      	lsls	r3, r3, #1
 80073ea:	4413      	add	r3, r2
 80073ec:	881b      	ldrh	r3, [r3, #0]
 80073ee:	461a      	mov	r2, r3
 80073f0:	68fb      	ldr	r3, [r7, #12]
 80073f2:	685b      	ldr	r3, [r3, #4]
 80073f4:	330c      	adds	r3, #12
 80073f6:	b292      	uxth	r2, r2
 80073f8:	801a      	strh	r2, [r3, #0]
 80073fa:	693b      	ldr	r3, [r7, #16]
 80073fc:	4a16      	ldr	r2, [pc, #88]	; (8007458 <stm32__spi__send_16bit_mode+0x1e0>)
 80073fe:	4293      	cmp	r3, r2
 8007400:	dd04      	ble.n	800740c <stm32__spi__send_16bit_mode+0x194>
 8007402:	4814      	ldr	r0, [pc, #80]	; (8007454 <stm32__spi__send_16bit_mode+0x1dc>)
 8007404:	f44f 715e 	mov.w	r1, #888	; 0x378
 8007408:	f003 fb1c 	bl	800aa44 <__gnat_rcheck_CE_Overflow_Check>
 800740c:	693b      	ldr	r3, [r7, #16]
 800740e:	3302      	adds	r3, #2
 8007410:	613b      	str	r3, [r7, #16]
 8007412:	697b      	ldr	r3, [r7, #20]
 8007414:	3b01      	subs	r3, #1
 8007416:	2b00      	cmp	r3, #0
 8007418:	da04      	bge.n	8007424 <stm32__spi__send_16bit_mode+0x1ac>
 800741a:	480e      	ldr	r0, [pc, #56]	; (8007454 <stm32__spi__send_16bit_mode+0x1dc>)
 800741c:	f240 3179 	movw	r1, #889	; 0x379
 8007420:	f003 fb18 	bl	800aa54 <__gnat_rcheck_CE_Range_Check>
 8007424:	617b      	str	r3, [r7, #20]
 8007426:	e7af      	b.n	8007388 <stm32__spi__send_16bit_mode+0x110>
 8007428:	68f8      	ldr	r0, [r7, #12]
 800742a:	f7ff f82b 	bl	8006484 <stm32__spi__crc_enabled>
 800742e:	4603      	mov	r3, r0
 8007430:	2b00      	cmp	r3, #0
 8007432:	d009      	beq.n	8007448 <stm32__spi__send_16bit_mode+0x1d0>
 8007434:	68fb      	ldr	r3, [r7, #12]
 8007436:	685b      	ldr	r3, [r3, #4]
 8007438:	681b      	ldr	r3, [r3, #0]
 800743a:	461a      	mov	r2, r3
 800743c:	4613      	mov	r3, r2
 800743e:	f443 5280 	orr.w	r2, r3, #4096	; 0x1000
 8007442:	68fb      	ldr	r3, [r7, #12]
 8007444:	685b      	ldr	r3, [r3, #4]
 8007446:	601a      	str	r2, [r3, #0]
 8007448:	3718      	adds	r7, #24
 800744a:	46bd      	mov	sp, r7
 800744c:	e8bd 83b0 	ldmia.w	sp!, {r4, r5, r7, r8, r9, pc}
 8007450:	7ffffffe 	.word	0x7ffffffe
 8007454:	0800f208 	.word	0x0800f208
 8007458:	7ffffffd 	.word	0x7ffffffd

0800745c <stm32__spi__send_8bit_mode>:
 800745c:	e92d 43f0 	stmdb	sp!, {r4, r5, r6, r7, r8, r9, lr}
 8007460:	b089      	sub	sp, #36	; 0x24
 8007462:	af00      	add	r7, sp, #0
 8007464:	60f8      	str	r0, [r7, #12]
 8007466:	e9c7 2300 	strd	r2, r3, [r7]
 800746a:	687b      	ldr	r3, [r7, #4]
 800746c:	681c      	ldr	r4, [r3, #0]
 800746e:	687b      	ldr	r3, [r7, #4]
 8007470:	685d      	ldr	r5, [r3, #4]
 8007472:	42a5      	cmp	r5, r4
 8007474:	db0d      	blt.n	8007492 <stm32__spi__send_8bit_mode+0x36>
 8007476:	4628      	mov	r0, r5
 8007478:	ea4f 71e0 	mov.w	r1, r0, asr #31
 800747c:	4622      	mov	r2, r4
 800747e:	ea4f 73e2 	mov.w	r3, r2, asr #31
 8007482:	1a82      	subs	r2, r0, r2
 8007484:	eb61 0303 	sbc.w	r3, r1, r3
 8007488:	f112 0801 	adds.w	r8, r2, #1
 800748c:	f143 0900 	adc.w	r9, r3, #0
 8007490:	e003      	b.n	800749a <stm32__spi__send_8bit_mode+0x3e>
 8007492:	f04f 0800 	mov.w	r8, #0
 8007496:	f04f 0900 	mov.w	r9, #0
 800749a:	4626      	mov	r6, r4
 800749c:	4622      	mov	r2, r4
 800749e:	ea4f 73e2 	mov.w	r3, r2, asr #31
 80074a2:	484e      	ldr	r0, [pc, #312]	; (80075dc <stm32__spi__send_8bit_mode+0x180>)
 80074a4:	f04f 0100 	mov.w	r1, #0
 80074a8:	1880      	adds	r0, r0, r2
 80074aa:	eb41 0103 	adc.w	r1, r1, r3
 80074ae:	462a      	mov	r2, r5
 80074b0:	ea4f 73e2 	mov.w	r3, r2, asr #31
 80074b4:	4290      	cmp	r0, r2
 80074b6:	eb71 0303 	sbcs.w	r3, r1, r3
 80074ba:	da04      	bge.n	80074c6 <stm32__spi__send_8bit_mode+0x6a>
 80074bc:	4848      	ldr	r0, [pc, #288]	; (80075e0 <stm32__spi__send_8bit_mode+0x184>)
 80074be:	f240 3189 	movw	r1, #905	; 0x389
 80074c2:	f003 fac7 	bl	800aa54 <__gnat_rcheck_CE_Range_Check>
 80074c6:	4643      	mov	r3, r8
 80074c8:	61fb      	str	r3, [r7, #28]
 80074ca:	2c00      	cmp	r4, #0
 80074cc:	da04      	bge.n	80074d8 <stm32__spi__send_8bit_mode+0x7c>
 80074ce:	4844      	ldr	r0, [pc, #272]	; (80075e0 <stm32__spi__send_8bit_mode+0x184>)
 80074d0:	f240 318a 	movw	r1, #906	; 0x38a
 80074d4:	f003 fabe 	bl	800aa54 <__gnat_rcheck_CE_Range_Check>
 80074d8:	61bc      	str	r4, [r7, #24]
 80074da:	68fb      	ldr	r3, [r7, #12]
 80074dc:	685b      	ldr	r3, [r3, #4]
 80074de:	330c      	adds	r3, #12
 80074e0:	617b      	str	r3, [r7, #20]
 80074e2:	68f8      	ldr	r0, [r7, #12]
 80074e4:	f7fe ff7a 	bl	80063dc <stm32__spi__current_mode>
 80074e8:	4603      	mov	r3, r0
 80074ea:	2b01      	cmp	r3, #1
 80074ec:	d002      	beq.n	80074f4 <stm32__spi__send_8bit_mode+0x98>
 80074ee:	69fb      	ldr	r3, [r7, #28]
 80074f0:	2b01      	cmp	r3, #1
 80074f2:	d127      	bne.n	8007544 <stm32__spi__send_8bit_mode+0xe8>
 80074f4:	69bb      	ldr	r3, [r7, #24]
 80074f6:	42a3      	cmp	r3, r4
 80074f8:	db02      	blt.n	8007500 <stm32__spi__send_8bit_mode+0xa4>
 80074fa:	69bb      	ldr	r3, [r7, #24]
 80074fc:	42ab      	cmp	r3, r5
 80074fe:	dd04      	ble.n	800750a <stm32__spi__send_8bit_mode+0xae>
 8007500:	4837      	ldr	r0, [pc, #220]	; (80075e0 <stm32__spi__send_8bit_mode+0x184>)
 8007502:	f240 318e 	movw	r1, #910	; 0x38e
 8007506:	f003 fa8d 	bl	800aa24 <__gnat_rcheck_CE_Index_Check>
 800750a:	683a      	ldr	r2, [r7, #0]
 800750c:	69bb      	ldr	r3, [r7, #24]
 800750e:	1b9b      	subs	r3, r3, r6
 8007510:	5cd2      	ldrb	r2, [r2, r3]
 8007512:	697b      	ldr	r3, [r7, #20]
 8007514:	701a      	strb	r2, [r3, #0]
 8007516:	69bb      	ldr	r3, [r7, #24]
 8007518:	f06f 4200 	mvn.w	r2, #2147483648	; 0x80000000
 800751c:	4293      	cmp	r3, r2
 800751e:	d104      	bne.n	800752a <stm32__spi__send_8bit_mode+0xce>
 8007520:	482f      	ldr	r0, [pc, #188]	; (80075e0 <stm32__spi__send_8bit_mode+0x184>)
 8007522:	f240 318f 	movw	r1, #911	; 0x38f
 8007526:	f003 fa8d 	bl	800aa44 <__gnat_rcheck_CE_Overflow_Check>
 800752a:	69bb      	ldr	r3, [r7, #24]
 800752c:	3301      	adds	r3, #1
 800752e:	61bb      	str	r3, [r7, #24]
 8007530:	69fb      	ldr	r3, [r7, #28]
 8007532:	3b01      	subs	r3, #1
 8007534:	2b00      	cmp	r3, #0
 8007536:	da04      	bge.n	8007542 <stm32__spi__send_8bit_mode+0xe6>
 8007538:	4829      	ldr	r0, [pc, #164]	; (80075e0 <stm32__spi__send_8bit_mode+0x184>)
 800753a:	f44f 7164 	mov.w	r1, #912	; 0x390
 800753e:	f003 fa89 	bl	800aa54 <__gnat_rcheck_CE_Range_Check>
 8007542:	61fb      	str	r3, [r7, #28]
 8007544:	69fb      	ldr	r3, [r7, #28]
 8007546:	2b00      	cmp	r3, #0
 8007548:	dd33      	ble.n	80075b2 <stm32__spi__send_8bit_mode+0x156>
 800754a:	68f8      	ldr	r0, [r7, #12]
 800754c:	f7fe ff0c 	bl	8006368 <stm32__spi__tx_is_empty>
 8007550:	4603      	mov	r3, r0
 8007552:	f083 0301 	eor.w	r3, r3, #1
 8007556:	b2db      	uxtb	r3, r3
 8007558:	2b00      	cmp	r3, #0
 800755a:	d001      	beq.n	8007560 <stm32__spi__send_8bit_mode+0x104>
 800755c:	bf00      	nop
 800755e:	e7f4      	b.n	800754a <stm32__spi__send_8bit_mode+0xee>
 8007560:	69bb      	ldr	r3, [r7, #24]
 8007562:	42a3      	cmp	r3, r4
 8007564:	db02      	blt.n	800756c <stm32__spi__send_8bit_mode+0x110>
 8007566:	69bb      	ldr	r3, [r7, #24]
 8007568:	42ab      	cmp	r3, r5
 800756a:	dd04      	ble.n	8007576 <stm32__spi__send_8bit_mode+0x11a>
 800756c:	481c      	ldr	r0, [pc, #112]	; (80075e0 <stm32__spi__send_8bit_mode+0x184>)
 800756e:	f240 3199 	movw	r1, #921	; 0x399
 8007572:	f003 fa57 	bl	800aa24 <__gnat_rcheck_CE_Index_Check>
 8007576:	683a      	ldr	r2, [r7, #0]
 8007578:	69bb      	ldr	r3, [r7, #24]
 800757a:	1b9b      	subs	r3, r3, r6
 800757c:	5cd2      	ldrb	r2, [r2, r3]
 800757e:	697b      	ldr	r3, [r7, #20]
 8007580:	701a      	strb	r2, [r3, #0]
 8007582:	69bb      	ldr	r3, [r7, #24]
 8007584:	f06f 4200 	mvn.w	r2, #2147483648	; 0x80000000
 8007588:	4293      	cmp	r3, r2
 800758a:	d104      	bne.n	8007596 <stm32__spi__send_8bit_mode+0x13a>
 800758c:	4814      	ldr	r0, [pc, #80]	; (80075e0 <stm32__spi__send_8bit_mode+0x184>)
 800758e:	f240 319a 	movw	r1, #922	; 0x39a
 8007592:	f003 fa57 	bl	800aa44 <__gnat_rcheck_CE_Overflow_Check>
 8007596:	69bb      	ldr	r3, [r7, #24]
 8007598:	3301      	adds	r3, #1
 800759a:	61bb      	str	r3, [r7, #24]
 800759c:	69fb      	ldr	r3, [r7, #28]
 800759e:	3b01      	subs	r3, #1
 80075a0:	2b00      	cmp	r3, #0
 80075a2:	da04      	bge.n	80075ae <stm32__spi__send_8bit_mode+0x152>
 80075a4:	480e      	ldr	r0, [pc, #56]	; (80075e0 <stm32__spi__send_8bit_mode+0x184>)
 80075a6:	f240 319b 	movw	r1, #923	; 0x39b
 80075aa:	f003 fa53 	bl	800aa54 <__gnat_rcheck_CE_Range_Check>
 80075ae:	61fb      	str	r3, [r7, #28]
 80075b0:	e7c8      	b.n	8007544 <stm32__spi__send_8bit_mode+0xe8>
 80075b2:	68f8      	ldr	r0, [r7, #12]
 80075b4:	f7fe ff66 	bl	8006484 <stm32__spi__crc_enabled>
 80075b8:	4603      	mov	r3, r0
 80075ba:	2b00      	cmp	r3, #0
 80075bc:	d009      	beq.n	80075d2 <stm32__spi__send_8bit_mode+0x176>
 80075be:	68fb      	ldr	r3, [r7, #12]
 80075c0:	685b      	ldr	r3, [r3, #4]
 80075c2:	681b      	ldr	r3, [r3, #0]
 80075c4:	461a      	mov	r2, r3
 80075c6:	4613      	mov	r3, r2
 80075c8:	f443 5280 	orr.w	r2, r3, #4096	; 0x1000
 80075cc:	68fb      	ldr	r3, [r7, #12]
 80075ce:	685b      	ldr	r3, [r3, #4]
 80075d0:	601a      	str	r2, [r3, #0]
 80075d2:	3724      	adds	r7, #36	; 0x24
 80075d4:	46bd      	mov	sp, r7
 80075d6:	e8bd 83f0 	ldmia.w	sp!, {r4, r5, r6, r7, r8, r9, pc}
 80075da:	bf00      	nop
 80075dc:	7ffffffe 	.word	0x7ffffffe
 80075e0:	0800f208 	.word	0x0800f208

080075e4 <stm32__spi__receive_16bit_mode>:
 80075e4:	e92d 41f0 	stmdb	sp!, {r4, r5, r6, r7, r8, lr}
 80075e8:	b086      	sub	sp, #24
 80075ea:	af00      	add	r7, sp, #0
 80075ec:	60f8      	str	r0, [r7, #12]
 80075ee:	e9c7 2300 	strd	r2, r3, [r7]
 80075f2:	687b      	ldr	r3, [r7, #4]
 80075f4:	681b      	ldr	r3, [r3, #0]
 80075f6:	461e      	mov	r6, r3
 80075f8:	68f8      	ldr	r0, [r7, #12]
 80075fa:	f7fe feef 	bl	80063dc <stm32__spi__current_mode>
 80075fe:	4603      	mov	r3, r0
 8007600:	2b00      	cmp	r3, #0
 8007602:	bf0c      	ite	eq
 8007604:	2301      	moveq	r3, #1
 8007606:	2300      	movne	r3, #0
 8007608:	75fb      	strb	r3, [r7, #23]
 800760a:	687b      	ldr	r3, [r7, #4]
 800760c:	681c      	ldr	r4, [r3, #0]
 800760e:	687b      	ldr	r3, [r7, #4]
 8007610:	685d      	ldr	r5, [r3, #4]
 8007612:	42ac      	cmp	r4, r5
 8007614:	dc2d      	bgt.n	8007672 <stm32__spi__receive_16bit_mode+0x8e>
 8007616:	683a      	ldr	r2, [r7, #0]
 8007618:	46a0      	mov	r8, r4
 800761a:	ebc6 0308 	rsb	r3, r6, r8
 800761e:	005b      	lsls	r3, r3, #1
 8007620:	4413      	add	r3, r2
 8007622:	613b      	str	r3, [r7, #16]
 8007624:	7dfb      	ldrb	r3, [r7, #23]
 8007626:	2b00      	cmp	r3, #0
 8007628:	d00c      	beq.n	8007644 <stm32__spi__receive_16bit_mode+0x60>
 800762a:	68fb      	ldr	r3, [r7, #12]
 800762c:	685b      	ldr	r3, [r3, #4]
 800762e:	330c      	adds	r3, #12
 8007630:	881b      	ldrh	r3, [r3, #0]
 8007632:	b29b      	uxth	r3, r3
 8007634:	461a      	mov	r2, r3
 8007636:	2300      	movs	r3, #0
 8007638:	461a      	mov	r2, r3
 800763a:	68fb      	ldr	r3, [r7, #12]
 800763c:	685b      	ldr	r3, [r3, #4]
 800763e:	330c      	adds	r3, #12
 8007640:	b292      	uxth	r2, r2
 8007642:	801a      	strh	r2, [r3, #0]
 8007644:	68f8      	ldr	r0, [r7, #12]
 8007646:	f7fe fea1 	bl	800638c <stm32__spi__rx_is_empty>
 800764a:	4603      	mov	r3, r0
 800764c:	2b00      	cmp	r3, #0
 800764e:	d001      	beq.n	8007654 <stm32__spi__receive_16bit_mode+0x70>
 8007650:	bf00      	nop
 8007652:	e7f7      	b.n	8007644 <stm32__spi__receive_16bit_mode+0x60>
 8007654:	683b      	ldr	r3, [r7, #0]
 8007656:	68fa      	ldr	r2, [r7, #12]
 8007658:	6852      	ldr	r2, [r2, #4]
 800765a:	320c      	adds	r2, #12
 800765c:	8812      	ldrh	r2, [r2, #0]
 800765e:	b292      	uxth	r2, r2
 8007660:	b291      	uxth	r1, r2
 8007662:	ebc6 0208 	rsb	r2, r6, r8
 8007666:	f823 1012 	strh.w	r1, [r3, r2, lsl #1]
 800766a:	42ac      	cmp	r4, r5
 800766c:	d001      	beq.n	8007672 <stm32__spi__receive_16bit_mode+0x8e>
 800766e:	3401      	adds	r4, #1
 8007670:	e7d1      	b.n	8007616 <stm32__spi__receive_16bit_mode+0x32>
 8007672:	3718      	adds	r7, #24
 8007674:	46bd      	mov	sp, r7
 8007676:	e8bd 81f0 	ldmia.w	sp!, {r4, r5, r6, r7, r8, pc}
 800767a:	bf00      	nop

0800767c <stm32__spi__receive_8bit_mode>:
 800767c:	e92d 41f0 	stmdb	sp!, {r4, r5, r6, r7, r8, lr}
 8007680:	b088      	sub	sp, #32
 8007682:	af00      	add	r7, sp, #0
 8007684:	60f8      	str	r0, [r7, #12]
 8007686:	e9c7 2300 	strd	r2, r3, [r7]
 800768a:	687b      	ldr	r3, [r7, #4]
 800768c:	681b      	ldr	r3, [r3, #0]
 800768e:	461e      	mov	r6, r3
 8007690:	68f8      	ldr	r0, [r7, #12]
 8007692:	f7fe fea3 	bl	80063dc <stm32__spi__current_mode>
 8007696:	4603      	mov	r3, r0
 8007698:	2b00      	cmp	r3, #0
 800769a:	bf0c      	ite	eq
 800769c:	2301      	moveq	r3, #1
 800769e:	2300      	movne	r3, #0
 80076a0:	77fb      	strb	r3, [r7, #31]
 80076a2:	68fb      	ldr	r3, [r7, #12]
 80076a4:	685b      	ldr	r3, [r3, #4]
 80076a6:	330c      	adds	r3, #12
 80076a8:	61bb      	str	r3, [r7, #24]
 80076aa:	687b      	ldr	r3, [r7, #4]
 80076ac:	681c      	ldr	r4, [r3, #0]
 80076ae:	687b      	ldr	r3, [r7, #4]
 80076b0:	685d      	ldr	r5, [r3, #4]
 80076b2:	42ac      	cmp	r4, r5
 80076b4:	dc1e      	bgt.n	80076f4 <stm32__spi__receive_8bit_mode+0x78>
 80076b6:	683a      	ldr	r2, [r7, #0]
 80076b8:	46a0      	mov	r8, r4
 80076ba:	ebc6 0308 	rsb	r3, r6, r8
 80076be:	4413      	add	r3, r2
 80076c0:	617b      	str	r3, [r7, #20]
 80076c2:	7ffb      	ldrb	r3, [r7, #31]
 80076c4:	2b00      	cmp	r3, #0
 80076c6:	d002      	beq.n	80076ce <stm32__spi__receive_8bit_mode+0x52>
 80076c8:	69bb      	ldr	r3, [r7, #24]
 80076ca:	2200      	movs	r2, #0
 80076cc:	701a      	strb	r2, [r3, #0]
 80076ce:	68f8      	ldr	r0, [r7, #12]
 80076d0:	f7fe fe5c 	bl	800638c <stm32__spi__rx_is_empty>
 80076d4:	4603      	mov	r3, r0
 80076d6:	2b00      	cmp	r3, #0
 80076d8:	d001      	beq.n	80076de <stm32__spi__receive_8bit_mode+0x62>
 80076da:	bf00      	nop
 80076dc:	e7f7      	b.n	80076ce <stm32__spi__receive_8bit_mode+0x52>
 80076de:	683a      	ldr	r2, [r7, #0]
 80076e0:	69bb      	ldr	r3, [r7, #24]
 80076e2:	781b      	ldrb	r3, [r3, #0]
 80076e4:	b2d9      	uxtb	r1, r3
 80076e6:	ebc6 0308 	rsb	r3, r6, r8
 80076ea:	54d1      	strb	r1, [r2, r3]
 80076ec:	42ac      	cmp	r4, r5
 80076ee:	d001      	beq.n	80076f4 <stm32__spi__receive_8bit_mode+0x78>
 80076f0:	3401      	adds	r4, #1
 80076f2:	e7e0      	b.n	80076b6 <stm32__spi__receive_8bit_mode+0x3a>
 80076f4:	3720      	adds	r7, #32
 80076f6:	46bd      	mov	sp, r7
 80076f8:	e8bd 81f0 	ldmia.w	sp!, {r4, r5, r6, r7, r8, pc}

080076fc <stm32__spi___elabs>:
 80076fc:	b580      	push	{r7, lr}
 80076fe:	af00      	add	r7, sp, #0
 8007700:	4803      	ldr	r0, [pc, #12]	; (8007710 <stm32__spi___elabs+0x14>)
 8007702:	f002 f9ff 	bl	8009b04 <ada__tags__check_tsd>
 8007706:	4803      	ldr	r0, [pc, #12]	; (8007714 <stm32__spi___elabs+0x18>)
 8007708:	f002 fa76 	bl	8009bf8 <ada__tags__register_tag>
 800770c:	bd80      	pop	{r7, pc}
 800770e:	bf00      	nop
 8007710:	0800f0fc 	.word	0x0800f0fc
 8007714:	0800f16c 	.word	0x0800f16c

08007718 <stm32__adc___elabs>:
 8007718:	b598      	push	{r3, r4, r7, lr}
 800771a:	af00      	add	r7, sp, #0
 800771c:	2003      	movs	r0, #3
 800771e:	f000 fb43 	bl	8007da8 <ada__real_time__microseconds>
 8007722:	4603      	mov	r3, r0
 8007724:	460c      	mov	r4, r1
 8007726:	4a0e      	ldr	r2, [pc, #56]	; (8007760 <stm32__adc___elabs+0x48>)
 8007728:	e9c2 3400 	strd	r3, r4, [r2]
 800772c:	f44f 7048 	mov.w	r0, #800	; 0x320
 8007730:	f000 fb3a 	bl	8007da8 <ada__real_time__microseconds>
 8007734:	4603      	mov	r3, r0
 8007736:	460c      	mov	r4, r1
 8007738:	4a0a      	ldr	r2, [pc, #40]	; (8007764 <stm32__adc___elabs+0x4c>)
 800773a:	e9c2 3400 	strd	r3, r4, [r2]
 800773e:	200a      	movs	r0, #10
 8007740:	f000 fb32 	bl	8007da8 <ada__real_time__microseconds>
 8007744:	4603      	mov	r3, r0
 8007746:	460c      	mov	r4, r1
 8007748:	4a07      	ldr	r2, [pc, #28]	; (8007768 <stm32__adc___elabs+0x50>)
 800774a:	e9c2 3400 	strd	r3, r4, [r2]
 800774e:	200a      	movs	r0, #10
 8007750:	f000 fb2a 	bl	8007da8 <ada__real_time__microseconds>
 8007754:	4603      	mov	r3, r0
 8007756:	460c      	mov	r4, r1
 8007758:	4a04      	ldr	r2, [pc, #16]	; (800776c <stm32__adc___elabs+0x54>)
 800775a:	e9c2 3400 	strd	r3, r4, [r2]
 800775e:	bd98      	pop	{r3, r4, r7, pc}
 8007760:	200006f8 	.word	0x200006f8
 8007764:	20000700 	.word	0x20000700
 8007768:	20000708 	.word	0x20000708
 800776c:	20000710 	.word	0x20000710

08007770 <stm32__exti__enable_external_interrupt>:
 8007770:	b590      	push	{r4, r7, lr}
 8007772:	b087      	sub	sp, #28
 8007774:	af00      	add	r7, sp, #0
 8007776:	4603      	mov	r3, r0
 8007778:	460a      	mov	r2, r1
 800777a:	71fb      	strb	r3, [r7, #7]
 800777c:	4613      	mov	r3, r2
 800777e:	71bb      	strb	r3, [r7, #6]
 8007780:	79fb      	ldrb	r3, [r7, #7]
 8007782:	f04f 0400 	mov.w	r4, #0
 8007786:	f1b3 4f00 	cmp.w	r3, #2147483648	; 0x80000000
 800778a:	f174 33ff 	sbcs.w	r3, r4, #4294967295
 800778e:	db0a      	blt.n	80077a6 <stm32__exti__enable_external_interrupt+0x36>
 8007790:	79fb      	ldrb	r3, [r7, #7]
 8007792:	f04f 0400 	mov.w	r4, #0
 8007796:	f06f 4100 	mvn.w	r1, #2147483648	; 0x80000000
 800779a:	f04f 0200 	mov.w	r2, #0
 800779e:	4299      	cmp	r1, r3
 80077a0:	eb72 0304 	sbcs.w	r3, r2, r4
 80077a4:	da03      	bge.n	80077ae <stm32__exti__enable_external_interrupt+0x3e>
 80077a6:	4842      	ldr	r0, [pc, #264]	; (80078b0 <stm32__exti__enable_external_interrupt+0x140>)
 80077a8:	2139      	movs	r1, #57	; 0x39
 80077aa:	f003 f94b 	bl	800aa44 <__gnat_rcheck_CE_Overflow_Check>
 80077ae:	79fb      	ldrb	r3, [r7, #7]
 80077b0:	617b      	str	r3, [r7, #20]
 80077b2:	697b      	ldr	r3, [r7, #20]
 80077b4:	2b1f      	cmp	r3, #31
 80077b6:	dd03      	ble.n	80077c0 <stm32__exti__enable_external_interrupt+0x50>
 80077b8:	483d      	ldr	r0, [pc, #244]	; (80078b0 <stm32__exti__enable_external_interrupt+0x140>)
 80077ba:	213b      	movs	r1, #59	; 0x3b
 80077bc:	f003 f932 	bl	800aa24 <__gnat_rcheck_CE_Index_Check>
 80077c0:	4b3c      	ldr	r3, [pc, #240]	; (80078b4 <stm32__exti__enable_external_interrupt+0x144>)
 80077c2:	681b      	ldr	r3, [r3, #0]
 80077c4:	613b      	str	r3, [r7, #16]
 80077c6:	4b3b      	ldr	r3, [pc, #236]	; (80078b4 <stm32__exti__enable_external_interrupt+0x144>)
 80077c8:	681b      	ldr	r3, [r3, #0]
 80077ca:	461a      	mov	r2, r3
 80077cc:	693a      	ldr	r2, [r7, #16]
 80077ce:	697b      	ldr	r3, [r7, #20]
 80077d0:	2101      	movs	r1, #1
 80077d2:	fa01 f303 	lsl.w	r3, r1, r3
 80077d6:	4313      	orrs	r3, r2
 80077d8:	461a      	mov	r2, r3
 80077da:	4b36      	ldr	r3, [pc, #216]	; (80078b4 <stm32__exti__enable_external_interrupt+0x144>)
 80077dc:	601a      	str	r2, [r3, #0]
 80077de:	697b      	ldr	r3, [r7, #20]
 80077e0:	2b10      	cmp	r3, #16
 80077e2:	dd03      	ble.n	80077ec <stm32__exti__enable_external_interrupt+0x7c>
 80077e4:	4832      	ldr	r0, [pc, #200]	; (80078b0 <stm32__exti__enable_external_interrupt+0x140>)
 80077e6:	213c      	movs	r1, #60	; 0x3c
 80077e8:	f003 f91c 	bl	800aa24 <__gnat_rcheck_CE_Index_Check>
 80077ec:	4b31      	ldr	r3, [pc, #196]	; (80078b4 <stm32__exti__enable_external_interrupt+0x144>)
 80077ee:	3308      	adds	r3, #8
 80077f0:	681b      	ldr	r3, [r3, #0]
 80077f2:	f3c3 0210 	ubfx	r2, r3, #0, #17
 80077f6:	68fb      	ldr	r3, [r7, #12]
 80077f8:	f362 0310 	bfi	r3, r2, #0, #17
 80077fc:	60fb      	str	r3, [r7, #12]
 80077fe:	4b2d      	ldr	r3, [pc, #180]	; (80078b4 <stm32__exti__enable_external_interrupt+0x144>)
 8007800:	3308      	adds	r3, #8
 8007802:	681b      	ldr	r3, [r3, #0]
 8007804:	68fa      	ldr	r2, [r7, #12]
 8007806:	f3c2 0210 	ubfx	r2, r2, #0, #17
 800780a:	4610      	mov	r0, r2
 800780c:	697a      	ldr	r2, [r7, #20]
 800780e:	2101      	movs	r1, #1
 8007810:	fa01 f202 	lsl.w	r2, r1, r2
 8007814:	43d2      	mvns	r2, r2
 8007816:	ea00 0102 	and.w	r1, r0, r2
 800781a:	79ba      	ldrb	r2, [r7, #6]
 800781c:	2a00      	cmp	r2, #0
 800781e:	d002      	beq.n	8007826 <stm32__exti__enable_external_interrupt+0xb6>
 8007820:	79ba      	ldrb	r2, [r7, #6]
 8007822:	2a02      	cmp	r2, #2
 8007824:	d101      	bne.n	800782a <stm32__exti__enable_external_interrupt+0xba>
 8007826:	2201      	movs	r2, #1
 8007828:	e000      	b.n	800782c <stm32__exti__enable_external_interrupt+0xbc>
 800782a:	2200      	movs	r2, #0
 800782c:	4610      	mov	r0, r2
 800782e:	697a      	ldr	r2, [r7, #20]
 8007830:	fa00 f202 	lsl.w	r2, r0, r2
 8007834:	430a      	orrs	r2, r1
 8007836:	f3c2 0210 	ubfx	r2, r2, #0, #17
 800783a:	f362 0310 	bfi	r3, r2, #0, #17
 800783e:	4a1d      	ldr	r2, [pc, #116]	; (80078b4 <stm32__exti__enable_external_interrupt+0x144>)
 8007840:	3208      	adds	r2, #8
 8007842:	6013      	str	r3, [r2, #0]
 8007844:	697b      	ldr	r3, [r7, #20]
 8007846:	2b10      	cmp	r3, #16
 8007848:	dd03      	ble.n	8007852 <stm32__exti__enable_external_interrupt+0xe2>
 800784a:	4819      	ldr	r0, [pc, #100]	; (80078b0 <stm32__exti__enable_external_interrupt+0x140>)
 800784c:	213e      	movs	r1, #62	; 0x3e
 800784e:	f003 f8e9 	bl	800aa24 <__gnat_rcheck_CE_Index_Check>
 8007852:	4b18      	ldr	r3, [pc, #96]	; (80078b4 <stm32__exti__enable_external_interrupt+0x144>)
 8007854:	330c      	adds	r3, #12
 8007856:	681b      	ldr	r3, [r3, #0]
 8007858:	f3c3 0210 	ubfx	r2, r3, #0, #17
 800785c:	68bb      	ldr	r3, [r7, #8]
 800785e:	f362 0310 	bfi	r3, r2, #0, #17
 8007862:	60bb      	str	r3, [r7, #8]
 8007864:	4b13      	ldr	r3, [pc, #76]	; (80078b4 <stm32__exti__enable_external_interrupt+0x144>)
 8007866:	330c      	adds	r3, #12
 8007868:	681b      	ldr	r3, [r3, #0]
 800786a:	68ba      	ldr	r2, [r7, #8]
 800786c:	f3c2 0210 	ubfx	r2, r2, #0, #17
 8007870:	4610      	mov	r0, r2
 8007872:	697a      	ldr	r2, [r7, #20]
 8007874:	2101      	movs	r1, #1
 8007876:	fa01 f202 	lsl.w	r2, r1, r2
 800787a:	43d2      	mvns	r2, r2
 800787c:	ea00 0102 	and.w	r1, r0, r2
 8007880:	79ba      	ldrb	r2, [r7, #6]
 8007882:	2a01      	cmp	r2, #1
 8007884:	d002      	beq.n	800788c <stm32__exti__enable_external_interrupt+0x11c>
 8007886:	79ba      	ldrb	r2, [r7, #6]
 8007888:	2a02      	cmp	r2, #2
 800788a:	d101      	bne.n	8007890 <stm32__exti__enable_external_interrupt+0x120>
 800788c:	2201      	movs	r2, #1
 800788e:	e000      	b.n	8007892 <stm32__exti__enable_external_interrupt+0x122>
 8007890:	2200      	movs	r2, #0
 8007892:	4610      	mov	r0, r2
 8007894:	697a      	ldr	r2, [r7, #20]
 8007896:	fa00 f202 	lsl.w	r2, r0, r2
 800789a:	430a      	orrs	r2, r1
 800789c:	f3c2 0210 	ubfx	r2, r2, #0, #17
 80078a0:	f362 0310 	bfi	r3, r2, #0, #17
 80078a4:	4a03      	ldr	r2, [pc, #12]	; (80078b4 <stm32__exti__enable_external_interrupt+0x144>)
 80078a6:	320c      	adds	r2, #12
 80078a8:	6013      	str	r3, [r2, #0]
 80078aa:	371c      	adds	r7, #28
 80078ac:	46bd      	mov	sp, r7
 80078ae:	bd90      	pop	{r4, r7, pc}
 80078b0:	0800f2f0 	.word	0x0800f2f0
 80078b4:	40010400 	.word	0x40010400

080078b8 <stm32__exti__enable_external_event>:
 80078b8:	b590      	push	{r4, r7, lr}
 80078ba:	b087      	sub	sp, #28
 80078bc:	af00      	add	r7, sp, #0
 80078be:	4603      	mov	r3, r0
 80078c0:	460a      	mov	r2, r1
 80078c2:	71fb      	strb	r3, [r7, #7]
 80078c4:	4613      	mov	r3, r2
 80078c6:	71bb      	strb	r3, [r7, #6]
 80078c8:	79fb      	ldrb	r3, [r7, #7]
 80078ca:	f04f 0400 	mov.w	r4, #0
 80078ce:	f1b3 4f00 	cmp.w	r3, #2147483648	; 0x80000000
 80078d2:	f174 33ff 	sbcs.w	r3, r4, #4294967295
 80078d6:	db0a      	blt.n	80078ee <stm32__exti__enable_external_event+0x36>
 80078d8:	79fb      	ldrb	r3, [r7, #7]
 80078da:	f04f 0400 	mov.w	r4, #0
 80078de:	f06f 4100 	mvn.w	r1, #2147483648	; 0x80000000
 80078e2:	f04f 0200 	mov.w	r2, #0
 80078e6:	4299      	cmp	r1, r3
 80078e8:	eb72 0304 	sbcs.w	r3, r2, r4
 80078ec:	da03      	bge.n	80078f6 <stm32__exti__enable_external_event+0x3e>
 80078ee:	4844      	ldr	r0, [pc, #272]	; (8007a00 <stm32__exti__enable_external_event+0x148>)
 80078f0:	2156      	movs	r1, #86	; 0x56
 80078f2:	f003 f8a7 	bl	800aa44 <__gnat_rcheck_CE_Overflow_Check>
 80078f6:	79fb      	ldrb	r3, [r7, #7]
 80078f8:	617b      	str	r3, [r7, #20]
 80078fa:	697b      	ldr	r3, [r7, #20]
 80078fc:	2b1f      	cmp	r3, #31
 80078fe:	dd03      	ble.n	8007908 <stm32__exti__enable_external_event+0x50>
 8007900:	483f      	ldr	r0, [pc, #252]	; (8007a00 <stm32__exti__enable_external_event+0x148>)
 8007902:	2158      	movs	r1, #88	; 0x58
 8007904:	f003 f88e 	bl	800aa24 <__gnat_rcheck_CE_Index_Check>
 8007908:	4b3e      	ldr	r3, [pc, #248]	; (8007a04 <stm32__exti__enable_external_event+0x14c>)
 800790a:	3304      	adds	r3, #4
 800790c:	681b      	ldr	r3, [r3, #0]
 800790e:	613b      	str	r3, [r7, #16]
 8007910:	4b3c      	ldr	r3, [pc, #240]	; (8007a04 <stm32__exti__enable_external_event+0x14c>)
 8007912:	3304      	adds	r3, #4
 8007914:	681b      	ldr	r3, [r3, #0]
 8007916:	461a      	mov	r2, r3
 8007918:	693a      	ldr	r2, [r7, #16]
 800791a:	697b      	ldr	r3, [r7, #20]
 800791c:	2101      	movs	r1, #1
 800791e:	fa01 f303 	lsl.w	r3, r1, r3
 8007922:	4313      	orrs	r3, r2
 8007924:	461a      	mov	r2, r3
 8007926:	4b37      	ldr	r3, [pc, #220]	; (8007a04 <stm32__exti__enable_external_event+0x14c>)
 8007928:	3304      	adds	r3, #4
 800792a:	601a      	str	r2, [r3, #0]
 800792c:	697b      	ldr	r3, [r7, #20]
 800792e:	2b10      	cmp	r3, #16
 8007930:	dd03      	ble.n	800793a <stm32__exti__enable_external_event+0x82>
 8007932:	4833      	ldr	r0, [pc, #204]	; (8007a00 <stm32__exti__enable_external_event+0x148>)
 8007934:	2159      	movs	r1, #89	; 0x59
 8007936:	f003 f875 	bl	800aa24 <__gnat_rcheck_CE_Index_Check>
 800793a:	4b32      	ldr	r3, [pc, #200]	; (8007a04 <stm32__exti__enable_external_event+0x14c>)
 800793c:	3308      	adds	r3, #8
 800793e:	681b      	ldr	r3, [r3, #0]
 8007940:	f3c3 0210 	ubfx	r2, r3, #0, #17
 8007944:	68fb      	ldr	r3, [r7, #12]
 8007946:	f362 0310 	bfi	r3, r2, #0, #17
 800794a:	60fb      	str	r3, [r7, #12]
 800794c:	4b2d      	ldr	r3, [pc, #180]	; (8007a04 <stm32__exti__enable_external_event+0x14c>)
 800794e:	3308      	adds	r3, #8
 8007950:	681b      	ldr	r3, [r3, #0]
 8007952:	68fa      	ldr	r2, [r7, #12]
 8007954:	f3c2 0210 	ubfx	r2, r2, #0, #17
 8007958:	4610      	mov	r0, r2
 800795a:	697a      	ldr	r2, [r7, #20]
 800795c:	2101      	movs	r1, #1
 800795e:	fa01 f202 	lsl.w	r2, r1, r2
 8007962:	43d2      	mvns	r2, r2
 8007964:	ea00 0102 	and.w	r1, r0, r2
 8007968:	79ba      	ldrb	r2, [r7, #6]
 800796a:	2a00      	cmp	r2, #0
 800796c:	d002      	beq.n	8007974 <stm32__exti__enable_external_event+0xbc>
 800796e:	79ba      	ldrb	r2, [r7, #6]
 8007970:	2a02      	cmp	r2, #2
 8007972:	d101      	bne.n	8007978 <stm32__exti__enable_external_event+0xc0>
 8007974:	2201      	movs	r2, #1
 8007976:	e000      	b.n	800797a <stm32__exti__enable_external_event+0xc2>
 8007978:	2200      	movs	r2, #0
 800797a:	4610      	mov	r0, r2
 800797c:	697a      	ldr	r2, [r7, #20]
 800797e:	fa00 f202 	lsl.w	r2, r0, r2
 8007982:	430a      	orrs	r2, r1
 8007984:	f3c2 0210 	ubfx	r2, r2, #0, #17
 8007988:	f362 0310 	bfi	r3, r2, #0, #17
 800798c:	4a1d      	ldr	r2, [pc, #116]	; (8007a04 <stm32__exti__enable_external_event+0x14c>)
 800798e:	3208      	adds	r2, #8
 8007990:	6013      	str	r3, [r2, #0]
 8007992:	697b      	ldr	r3, [r7, #20]
 8007994:	2b10      	cmp	r3, #16
 8007996:	dd03      	ble.n	80079a0 <stm32__exti__enable_external_event+0xe8>
 8007998:	4819      	ldr	r0, [pc, #100]	; (8007a00 <stm32__exti__enable_external_event+0x148>)
 800799a:	215b      	movs	r1, #91	; 0x5b
 800799c:	f003 f842 	bl	800aa24 <__gnat_rcheck_CE_Index_Check>
 80079a0:	4b18      	ldr	r3, [pc, #96]	; (8007a04 <stm32__exti__enable_external_event+0x14c>)
 80079a2:	330c      	adds	r3, #12
 80079a4:	681b      	ldr	r3, [r3, #0]
 80079a6:	f3c3 0210 	ubfx	r2, r3, #0, #17
 80079aa:	68bb      	ldr	r3, [r7, #8]
 80079ac:	f362 0310 	bfi	r3, r2, #0, #17
 80079b0:	60bb      	str	r3, [r7, #8]
 80079b2:	4b14      	ldr	r3, [pc, #80]	; (8007a04 <stm32__exti__enable_external_event+0x14c>)
 80079b4:	330c      	adds	r3, #12
 80079b6:	681b      	ldr	r3, [r3, #0]
 80079b8:	68ba      	ldr	r2, [r7, #8]
 80079ba:	f3c2 0210 	ubfx	r2, r2, #0, #17
 80079be:	4610      	mov	r0, r2
 80079c0:	697a      	ldr	r2, [r7, #20]
 80079c2:	2101      	movs	r1, #1
 80079c4:	fa01 f202 	lsl.w	r2, r1, r2
 80079c8:	43d2      	mvns	r2, r2
 80079ca:	ea00 0102 	and.w	r1, r0, r2
 80079ce:	79ba      	ldrb	r2, [r7, #6]
 80079d0:	2a01      	cmp	r2, #1
 80079d2:	d002      	beq.n	80079da <stm32__exti__enable_external_event+0x122>
 80079d4:	79ba      	ldrb	r2, [r7, #6]
 80079d6:	2a02      	cmp	r2, #2
 80079d8:	d101      	bne.n	80079de <stm32__exti__enable_external_event+0x126>
 80079da:	2201      	movs	r2, #1
 80079dc:	e000      	b.n	80079e0 <stm32__exti__enable_external_event+0x128>
 80079de:	2200      	movs	r2, #0
 80079e0:	4610      	mov	r0, r2
 80079e2:	697a      	ldr	r2, [r7, #20]
 80079e4:	fa00 f202 	lsl.w	r2, r0, r2
 80079e8:	430a      	orrs	r2, r1
 80079ea:	f3c2 0210 	ubfx	r2, r2, #0, #17
 80079ee:	f362 0310 	bfi	r3, r2, #0, #17
 80079f2:	4a04      	ldr	r2, [pc, #16]	; (8007a04 <stm32__exti__enable_external_event+0x14c>)
 80079f4:	320c      	adds	r2, #12
 80079f6:	6013      	str	r3, [r2, #0]
 80079f8:	371c      	adds	r7, #28
 80079fa:	46bd      	mov	sp, r7
 80079fc:	bd90      	pop	{r4, r7, pc}
 80079fe:	bf00      	nop
 8007a00:	0800f2f0 	.word	0x0800f2f0
 8007a04:	40010400 	.word	0x40010400

08007a08 <stm32__syscfg__connect_external_interrupt__4>:
 8007a08:	b480      	push	{r7}
 8007a0a:	b083      	sub	sp, #12
 8007a0c:	af00      	add	r7, sp, #0
 8007a0e:	6078      	str	r0, [r7, #4]
 8007a10:	6039      	str	r1, [r7, #0]
 8007a12:	bf00      	nop
 8007a14:	370c      	adds	r7, #12
 8007a16:	46bd      	mov	sp, r7
 8007a18:	f85d 7b04 	ldr.w	r7, [sp], #4
 8007a1c:	4770      	bx	lr
 8007a1e:	bf00      	nop

08007a20 <stm32__syscfg__connect_external_interrupt>:
 8007a20:	b580      	push	{r7, lr}
 8007a22:	b082      	sub	sp, #8
 8007a24:	af00      	add	r7, sp, #0
 8007a26:	6078      	str	r0, [r7, #4]
 8007a28:	460b      	mov	r3, r1
 8007a2a:	807b      	strh	r3, [r7, #2]
 8007a2c:	887b      	ldrh	r3, [r7, #2]
 8007a2e:	4618      	mov	r0, r3
 8007a30:	2101      	movs	r1, #1
 8007a32:	f7fd fc01 	bl	8005238 <stm32__gpio__gpio_pinRP>
 8007a36:	4603      	mov	r3, r0
 8007a38:	2b00      	cmp	r3, #0
 8007a3a:	db01      	blt.n	8007a40 <stm32__syscfg__connect_external_interrupt+0x20>
 8007a3c:	2b0f      	cmp	r3, #15
 8007a3e:	dd03      	ble.n	8007a48 <stm32__syscfg__connect_external_interrupt+0x28>
 8007a40:	4808      	ldr	r0, [pc, #32]	; (8007a64 <stm32__syscfg__connect_external_interrupt+0x44>)
 8007a42:	2152      	movs	r1, #82	; 0x52
 8007a44:	f003 f806 	bl	800aa54 <__gnat_rcheck_CE_Range_Check>
 8007a48:	887b      	ldrh	r3, [r7, #2]
 8007a4a:	4618      	mov	r0, r3
 8007a4c:	2101      	movs	r1, #1
 8007a4e:	f7fd fbf3 	bl	8005238 <stm32__gpio__gpio_pinRP>
 8007a52:	4603      	mov	r3, r0
 8007a54:	6878      	ldr	r0, [r7, #4]
 8007a56:	4619      	mov	r1, r3
 8007a58:	f7ff ffd6 	bl	8007a08 <stm32__syscfg__connect_external_interrupt__4>
 8007a5c:	3708      	adds	r7, #8
 8007a5e:	46bd      	mov	sp, r7
 8007a60:	bd80      	pop	{r7, pc}
 8007a62:	bf00      	nop
 8007a64:	0800f300 	.word	0x0800f300

08007a68 <stm32__syscfg__connect_external_interrupt__2>:
 8007a68:	b580      	push	{r7, lr}
 8007a6a:	b082      	sub	sp, #8
 8007a6c:	af00      	add	r7, sp, #0
 8007a6e:	6078      	str	r0, [r7, #4]
 8007a70:	687b      	ldr	r3, [r7, #4]
 8007a72:	685b      	ldr	r3, [r3, #4]
 8007a74:	2b00      	cmp	r3, #0
 8007a76:	d103      	bne.n	8007a80 <stm32__syscfg__connect_external_interrupt__2+0x18>
 8007a78:	4807      	ldr	r0, [pc, #28]	; (8007a98 <stm32__syscfg__connect_external_interrupt__2+0x30>)
 8007a7a:	215d      	movs	r1, #93	; 0x5d
 8007a7c:	f002 ffb2 	bl	800a9e4 <__gnat_rcheck_CE_Access_Check>
 8007a80:	687b      	ldr	r3, [r7, #4]
 8007a82:	685a      	ldr	r2, [r3, #4]
 8007a84:	687b      	ldr	r3, [r7, #4]
 8007a86:	891b      	ldrh	r3, [r3, #8]
 8007a88:	4610      	mov	r0, r2
 8007a8a:	4619      	mov	r1, r3
 8007a8c:	f7ff ffc8 	bl	8007a20 <stm32__syscfg__connect_external_interrupt>
 8007a90:	3708      	adds	r7, #8
 8007a92:	46bd      	mov	sp, r7
 8007a94:	bd80      	pop	{r7, pc}
 8007a96:	bf00      	nop
 8007a98:	0800f300 	.word	0x0800f300

08007a9c <stm32_svd__spi__sr_registerIP>:
 8007a9c:	b480      	push	{r7}
 8007a9e:	b083      	sub	sp, #12
 8007aa0:	af00      	add	r7, sp, #0
 8007aa2:	6078      	str	r0, [r7, #4]
 8007aa4:	687b      	ldr	r3, [r7, #4]
 8007aa6:	781a      	ldrb	r2, [r3, #0]
 8007aa8:	f022 0201 	bic.w	r2, r2, #1
 8007aac:	701a      	strb	r2, [r3, #0]
 8007aae:	687b      	ldr	r3, [r7, #4]
 8007ab0:	781a      	ldrb	r2, [r3, #0]
 8007ab2:	f042 0202 	orr.w	r2, r2, #2
 8007ab6:	701a      	strb	r2, [r3, #0]
 8007ab8:	687b      	ldr	r3, [r7, #4]
 8007aba:	781a      	ldrb	r2, [r3, #0]
 8007abc:	f022 020c 	bic.w	r2, r2, #12
 8007ac0:	701a      	strb	r2, [r3, #0]
 8007ac2:	687b      	ldr	r3, [r7, #4]
 8007ac4:	781a      	ldrb	r2, [r3, #0]
 8007ac6:	f022 0210 	bic.w	r2, r2, #16
 8007aca:	701a      	strb	r2, [r3, #0]
 8007acc:	687b      	ldr	r3, [r7, #4]
 8007ace:	781a      	ldrb	r2, [r3, #0]
 8007ad0:	f022 0220 	bic.w	r2, r2, #32
 8007ad4:	701a      	strb	r2, [r3, #0]
 8007ad6:	687b      	ldr	r3, [r7, #4]
 8007ad8:	781a      	ldrb	r2, [r3, #0]
 8007ada:	f022 0240 	bic.w	r2, r2, #64	; 0x40
 8007ade:	701a      	strb	r2, [r3, #0]
 8007ae0:	687b      	ldr	r3, [r7, #4]
 8007ae2:	781a      	ldrb	r2, [r3, #0]
 8007ae4:	f002 027f 	and.w	r2, r2, #127	; 0x7f
 8007ae8:	701a      	strb	r2, [r3, #0]
 8007aea:	687b      	ldr	r3, [r7, #4]
 8007aec:	785a      	ldrb	r2, [r3, #1]
 8007aee:	f022 0201 	bic.w	r2, r2, #1
 8007af2:	705a      	strb	r2, [r3, #1]
 8007af4:	687b      	ldr	r3, [r7, #4]
 8007af6:	785a      	ldrb	r2, [r3, #1]
 8007af8:	f022 0206 	bic.w	r2, r2, #6
 8007afc:	705a      	strb	r2, [r3, #1]
 8007afe:	687b      	ldr	r3, [r7, #4]
 8007b00:	785a      	ldrb	r2, [r3, #1]
 8007b02:	f022 0218 	bic.w	r2, r2, #24
 8007b06:	705a      	strb	r2, [r3, #1]
 8007b08:	687b      	ldr	r3, [r7, #4]
 8007b0a:	681a      	ldr	r2, [r3, #0]
 8007b0c:	f3c2 020c 	ubfx	r2, r2, #0, #13
 8007b10:	601a      	str	r2, [r3, #0]
 8007b12:	370c      	adds	r7, #12
 8007b14:	46bd      	mov	sp, r7
 8007b16:	f85d 7b04 	ldr.w	r7, [sp], #4
 8007b1a:	4770      	bx	lr

08007b1c <hal__i2c__Ti2c_portCFD>:
 8007b1c:	b580      	push	{r7, lr}
 8007b1e:	b086      	sub	sp, #24
 8007b20:	af00      	add	r7, sp, #0
 8007b22:	6078      	str	r0, [r7, #4]
 8007b24:	687b      	ldr	r3, [r7, #4]
 8007b26:	681b      	ldr	r3, [r3, #0]
 8007b28:	617b      	str	r3, [r7, #20]
 8007b2a:	697b      	ldr	r3, [r7, #20]
 8007b2c:	613b      	str	r3, [r7, #16]
 8007b2e:	693a      	ldr	r2, [r7, #16]
 8007b30:	230c      	movs	r3, #12
 8007b32:	60fb      	str	r3, [r7, #12]
 8007b34:	68fb      	ldr	r3, [r7, #12]
 8007b36:	1ad3      	subs	r3, r2, r3
 8007b38:	681b      	ldr	r3, [r3, #0]
 8007b3a:	6a1b      	ldr	r3, [r3, #32]
 8007b3c:	687a      	ldr	r2, [r7, #4]
 8007b3e:	4610      	mov	r0, r2
 8007b40:	2101      	movs	r1, #1
 8007b42:	4798      	blx	r3
 8007b44:	3718      	adds	r7, #24
 8007b46:	46bd      	mov	sp, r7
 8007b48:	bd80      	pop	{r7, pc}
 8007b4a:	bf00      	nop

08007b4c <hal__i2c___elabs>:
 8007b4c:	b580      	push	{r7, lr}
 8007b4e:	af00      	add	r7, sp, #0
 8007b50:	480c      	ldr	r0, [pc, #48]	; (8007b84 <hal__i2c___elabs+0x38>)
 8007b52:	2101      	movs	r1, #1
 8007b54:	f003 fcb8 	bl	800b4c8 <system__finalization_masters__finalization_masterIP>
 8007b58:	480a      	ldr	r0, [pc, #40]	; (8007b84 <hal__i2c___elabs+0x38>)
 8007b5a:	f003 fb67 	bl	800b22c <system__finalization_masters__initialize__2>
 8007b5e:	4b0a      	ldr	r3, [pc, #40]	; (8007b88 <hal__i2c___elabs+0x3c>)
 8007b60:	2201      	movs	r2, #1
 8007b62:	601a      	str	r2, [r3, #0]
 8007b64:	4807      	ldr	r0, [pc, #28]	; (8007b84 <hal__i2c___elabs+0x38>)
 8007b66:	4909      	ldr	r1, [pc, #36]	; (8007b8c <hal__i2c___elabs+0x40>)
 8007b68:	f003 fb6a 	bl	800b240 <system__finalization_masters__set_base_pool>
 8007b6c:	4805      	ldr	r0, [pc, #20]	; (8007b84 <hal__i2c___elabs+0x38>)
 8007b6e:	4908      	ldr	r1, [pc, #32]	; (8007b90 <hal__i2c___elabs+0x44>)
 8007b70:	f003 fb68 	bl	800b244 <system__finalization_masters__set_finalize_address>
 8007b74:	4807      	ldr	r0, [pc, #28]	; (8007b94 <hal__i2c___elabs+0x48>)
 8007b76:	f001 ffc5 	bl	8009b04 <ada__tags__check_tsd>
 8007b7a:	4807      	ldr	r0, [pc, #28]	; (8007b98 <hal__i2c___elabs+0x4c>)
 8007b7c:	f002 f83c 	bl	8009bf8 <ada__tags__register_tag>
 8007b80:	bd80      	pop	{r7, pc}
 8007b82:	bf00      	nop
 8007b84:	20000718 	.word	0x20000718
 8007b88:	200000c8 	.word	0x200000c8
 8007b8c:	20004080 	.word	0x20004080
 8007b90:	08007b1d 	.word	0x08007b1d
 8007b94:	0800f328 	.word	0x0800f328
 8007b98:	0800f358 	.word	0x0800f358

08007b9c <hal__spi__Tspi_portCFD>:
 8007b9c:	b580      	push	{r7, lr}
 8007b9e:	b086      	sub	sp, #24
 8007ba0:	af00      	add	r7, sp, #0
 8007ba2:	6078      	str	r0, [r7, #4]
 8007ba4:	687b      	ldr	r3, [r7, #4]
 8007ba6:	681b      	ldr	r3, [r3, #0]
 8007ba8:	617b      	str	r3, [r7, #20]
 8007baa:	697b      	ldr	r3, [r7, #20]
 8007bac:	613b      	str	r3, [r7, #16]
 8007bae:	693a      	ldr	r2, [r7, #16]
 8007bb0:	230c      	movs	r3, #12
 8007bb2:	60fb      	str	r3, [r7, #12]
 8007bb4:	68fb      	ldr	r3, [r7, #12]
 8007bb6:	1ad3      	subs	r3, r2, r3
 8007bb8:	681b      	ldr	r3, [r3, #0]
 8007bba:	6a1b      	ldr	r3, [r3, #32]
 8007bbc:	687a      	ldr	r2, [r7, #4]
 8007bbe:	4610      	mov	r0, r2
 8007bc0:	2101      	movs	r1, #1
 8007bc2:	4798      	blx	r3
 8007bc4:	3718      	adds	r7, #24
 8007bc6:	46bd      	mov	sp, r7
 8007bc8:	bd80      	pop	{r7, pc}
 8007bca:	bf00      	nop

08007bcc <hal__spi___elabs>:
 8007bcc:	b580      	push	{r7, lr}
 8007bce:	af00      	add	r7, sp, #0
 8007bd0:	480c      	ldr	r0, [pc, #48]	; (8007c04 <hal__spi___elabs+0x38>)
 8007bd2:	2101      	movs	r1, #1
 8007bd4:	f003 fc78 	bl	800b4c8 <system__finalization_masters__finalization_masterIP>
 8007bd8:	480a      	ldr	r0, [pc, #40]	; (8007c04 <hal__spi___elabs+0x38>)
 8007bda:	f003 fb27 	bl	800b22c <system__finalization_masters__initialize__2>
 8007bde:	4b0a      	ldr	r3, [pc, #40]	; (8007c08 <hal__spi___elabs+0x3c>)
 8007be0:	2201      	movs	r2, #1
 8007be2:	601a      	str	r2, [r3, #0]
 8007be4:	4807      	ldr	r0, [pc, #28]	; (8007c04 <hal__spi___elabs+0x38>)
 8007be6:	4909      	ldr	r1, [pc, #36]	; (8007c0c <hal__spi___elabs+0x40>)
 8007be8:	f003 fb2a 	bl	800b240 <system__finalization_masters__set_base_pool>
 8007bec:	4805      	ldr	r0, [pc, #20]	; (8007c04 <hal__spi___elabs+0x38>)
 8007bee:	4908      	ldr	r1, [pc, #32]	; (8007c10 <hal__spi___elabs+0x44>)
 8007bf0:	f003 fb28 	bl	800b244 <system__finalization_masters__set_finalize_address>
 8007bf4:	4807      	ldr	r0, [pc, #28]	; (8007c14 <hal__spi___elabs+0x48>)
 8007bf6:	f001 ff85 	bl	8009b04 <ada__tags__check_tsd>
 8007bfa:	4807      	ldr	r0, [pc, #28]	; (8007c18 <hal__spi___elabs+0x4c>)
 8007bfc:	f001 fffc 	bl	8009bf8 <ada__tags__register_tag>
 8007c00:	bd80      	pop	{r7, pc}
 8007c02:	bf00      	nop
 8007c04:	20000734 	.word	0x20000734
 8007c08:	200000d4 	.word	0x200000d4
 8007c0c:	20004080 	.word	0x20004080
 8007c10:	08007b9d 	.word	0x08007b9d
 8007c14:	0800f370 	.word	0x0800f370
 8007c18:	0800f3a0 	.word	0x0800f3a0

08007c1c <hal__gpio__Tgpio_pointCFD>:
 8007c1c:	b580      	push	{r7, lr}
 8007c1e:	b086      	sub	sp, #24
 8007c20:	af00      	add	r7, sp, #0
 8007c22:	6078      	str	r0, [r7, #4]
 8007c24:	687b      	ldr	r3, [r7, #4]
 8007c26:	681b      	ldr	r3, [r3, #0]
 8007c28:	617b      	str	r3, [r7, #20]
 8007c2a:	697b      	ldr	r3, [r7, #20]
 8007c2c:	613b      	str	r3, [r7, #16]
 8007c2e:	693a      	ldr	r2, [r7, #16]
 8007c30:	230c      	movs	r3, #12
 8007c32:	60fb      	str	r3, [r7, #12]
 8007c34:	68fb      	ldr	r3, [r7, #12]
 8007c36:	1ad3      	subs	r3, r2, r3
 8007c38:	681b      	ldr	r3, [r3, #0]
 8007c3a:	6a1b      	ldr	r3, [r3, #32]
 8007c3c:	687a      	ldr	r2, [r7, #4]
 8007c3e:	4610      	mov	r0, r2
 8007c40:	2101      	movs	r1, #1
 8007c42:	4798      	blx	r3
 8007c44:	3718      	adds	r7, #24
 8007c46:	46bd      	mov	sp, r7
 8007c48:	bd80      	pop	{r7, pc}
 8007c4a:	bf00      	nop

08007c4c <hal__gpio___elabs>:
 8007c4c:	b580      	push	{r7, lr}
 8007c4e:	af00      	add	r7, sp, #0
 8007c50:	480c      	ldr	r0, [pc, #48]	; (8007c84 <hal__gpio___elabs+0x38>)
 8007c52:	2101      	movs	r1, #1
 8007c54:	f003 fc38 	bl	800b4c8 <system__finalization_masters__finalization_masterIP>
 8007c58:	480a      	ldr	r0, [pc, #40]	; (8007c84 <hal__gpio___elabs+0x38>)
 8007c5a:	f003 fae7 	bl	800b22c <system__finalization_masters__initialize__2>
 8007c5e:	4b0a      	ldr	r3, [pc, #40]	; (8007c88 <hal__gpio___elabs+0x3c>)
 8007c60:	2201      	movs	r2, #1
 8007c62:	601a      	str	r2, [r3, #0]
 8007c64:	4807      	ldr	r0, [pc, #28]	; (8007c84 <hal__gpio___elabs+0x38>)
 8007c66:	4909      	ldr	r1, [pc, #36]	; (8007c8c <hal__gpio___elabs+0x40>)
 8007c68:	f003 faea 	bl	800b240 <system__finalization_masters__set_base_pool>
 8007c6c:	4805      	ldr	r0, [pc, #20]	; (8007c84 <hal__gpio___elabs+0x38>)
 8007c6e:	4908      	ldr	r1, [pc, #32]	; (8007c90 <hal__gpio___elabs+0x44>)
 8007c70:	f003 fae8 	bl	800b244 <system__finalization_masters__set_finalize_address>
 8007c74:	4807      	ldr	r0, [pc, #28]	; (8007c94 <hal__gpio___elabs+0x48>)
 8007c76:	f001 ff45 	bl	8009b04 <ada__tags__check_tsd>
 8007c7a:	4807      	ldr	r0, [pc, #28]	; (8007c98 <hal__gpio___elabs+0x4c>)
 8007c7c:	f001 ffbc 	bl	8009bf8 <ada__tags__register_tag>
 8007c80:	bd80      	pop	{r7, pc}
 8007c82:	bf00      	nop
 8007c84:	20000750 	.word	0x20000750
 8007c88:	200000e0 	.word	0x200000e0
 8007c8c:	20004080 	.word	0x20004080
 8007c90:	08007c1d 	.word	0x08007c1d
 8007c94:	0800f3b8 	.word	0x0800f3b8
 8007c98:	0800f3e8 	.word	0x0800f3e8

08007c9c <ada__real_time__Oadd>:
 8007c9c:	b5f8      	push	{r3, r4, r5, r6, r7, lr}
 8007c9e:	2a00      	cmp	r2, #0
 8007ca0:	f173 0400 	sbcs.w	r4, r3, #0
 8007ca4:	db1f      	blt.n	8007ce6 <ada__real_time__Oadd+0x4a>
 8007ca6:	43cd      	mvns	r5, r1
 8007ca8:	43c4      	mvns	r4, r0
 8007caa:	429d      	cmp	r5, r3
 8007cac:	bf08      	it	eq
 8007cae:	4294      	cmpeq	r4, r2
 8007cb0:	d216      	bcs.n	8007ce0 <ada__real_time__Oadd+0x44>
 8007cb2:	f112 34ff 	adds.w	r4, r2, #4294967295
 8007cb6:	f163 4500 	sbc.w	r5, r3, #2147483648	; 0x80000000
 8007cba:	f06f 4700 	mvn.w	r7, #2147483648	; 0x80000000
 8007cbe:	f06f 0601 	mvn.w	r6, #1
 8007cc2:	42af      	cmp	r7, r5
 8007cc4:	bf08      	it	eq
 8007cc6:	42a6      	cmpeq	r6, r4
 8007cc8:	d316      	bcc.n	8007cf8 <ada__real_time__Oadd+0x5c>
 8007cca:	4252      	negs	r2, r2
 8007ccc:	eb63 0343 	sbc.w	r3, r3, r3, lsl #1
 8007cd0:	4299      	cmp	r1, r3
 8007cd2:	bf08      	it	eq
 8007cd4:	4290      	cmpeq	r0, r2
 8007cd6:	d30f      	bcc.n	8007cf8 <ada__real_time__Oadd+0x5c>
 8007cd8:	1a80      	subs	r0, r0, r2
 8007cda:	eb61 0103 	sbc.w	r1, r1, r3
 8007cde:	bdf8      	pop	{r3, r4, r5, r6, r7, pc}
 8007ce0:	1880      	adds	r0, r0, r2
 8007ce2:	4159      	adcs	r1, r3
 8007ce4:	bdf8      	pop	{r3, r4, r5, r6, r7, pc}
 8007ce6:	f1b3 4f00 	cmp.w	r3, #2147483648	; 0x80000000
 8007cea:	bf08      	it	eq
 8007cec:	2a00      	cmpeq	r2, #0
 8007cee:	d1e0      	bne.n	8007cb2 <ada__real_time__Oadd+0x16>
 8007cf0:	2800      	cmp	r0, #0
 8007cf2:	f171 0300 	sbcs.w	r3, r1, #0
 8007cf6:	db03      	blt.n	8007d00 <ada__real_time__Oadd+0x64>
 8007cf8:	4803      	ldr	r0, [pc, #12]	; (8007d08 <ada__real_time__Oadd+0x6c>)
 8007cfa:	21cf      	movs	r1, #207	; 0xcf
 8007cfc:	f002 fe8a 	bl	800aa14 <__gnat_rcheck_CE_Explicit_Raise>
 8007d00:	3000      	adds	r0, #0
 8007d02:	f141 4100 	adc.w	r1, r1, #2147483648	; 0x80000000
 8007d06:	e7ea      	b.n	8007cde <ada__real_time__Oadd+0x42>
 8007d08:	0800f3ec 	.word	0x0800f3ec

08007d0c <ada__real_time__Osubtract__2>:
 8007d0c:	b508      	push	{r3, lr}
 8007d0e:	4299      	cmp	r1, r3
 8007d10:	bf08      	it	eq
 8007d12:	4290      	cmpeq	r0, r2
 8007d14:	d309      	bcc.n	8007d2a <ada__real_time__Osubtract__2+0x1e>
 8007d16:	1a82      	subs	r2, r0, r2
 8007d18:	eb61 0303 	sbc.w	r3, r1, r3
 8007d1c:	2a00      	cmp	r2, #0
 8007d1e:	f173 0100 	sbcs.w	r1, r3, #0
 8007d22:	db0e      	blt.n	8007d42 <ada__real_time__Osubtract__2+0x36>
 8007d24:	4610      	mov	r0, r2
 8007d26:	4619      	mov	r1, r3
 8007d28:	bd08      	pop	{r3, pc}
 8007d2a:	1a12      	subs	r2, r2, r0
 8007d2c:	eb63 0301 	sbc.w	r3, r3, r1
 8007d30:	f1b3 4f00 	cmp.w	r3, #2147483648	; 0x80000000
 8007d34:	bf08      	it	eq
 8007d36:	2a01      	cmpeq	r2, #1
 8007d38:	d203      	bcs.n	8007d42 <ada__real_time__Osubtract__2+0x36>
 8007d3a:	4250      	negs	r0, r2
 8007d3c:	eb63 0143 	sbc.w	r1, r3, r3, lsl #1
 8007d40:	bd08      	pop	{r3, pc}
 8007d42:	4802      	ldr	r0, [pc, #8]	; (8007d4c <ada__real_time__Osubtract__2+0x40>)
 8007d44:	f44f 7186 	mov.w	r1, #268	; 0x10c
 8007d48:	f002 fe64 	bl	800aa14 <__gnat_rcheck_CE_Explicit_Raise>
 8007d4c:	0800f3ec 	.word	0x0800f3ec

08007d50 <ada__real_time__clock>:
 8007d50:	e92d 43f8 	stmdb	sp!, {r3, r4, r5, r6, r7, r8, r9, lr}
 8007d54:	4e13      	ldr	r6, [pc, #76]	; (8007da4 <ada__real_time__clock+0x54>)
 8007d56:	2400      	movs	r4, #0
 8007d58:	f106 0804 	add.w	r8, r6, #4
 8007d5c:	6835      	ldr	r5, [r6, #0]
 8007d5e:	f8d8 7000 	ldr.w	r7, [r8]
 8007d62:	f000 fbef 	bl	8008544 <system__bb__board_support__read_clock>
 8007d66:	6833      	ldr	r3, [r6, #0]
 8007d68:	429d      	cmp	r5, r3
 8007d6a:	ebc9 0205 	rsb	r2, r9, r5
 8007d6e:	f104 0401 	add.w	r4, r4, #1
 8007d72:	d00d      	beq.n	8007d90 <ada__real_time__clock+0x40>
 8007d74:	2c01      	cmp	r4, #1
 8007d76:	d009      	beq.n	8007d8c <ada__real_time__clock+0x3c>
 8007d78:	2a01      	cmp	r2, #1
 8007d7a:	d801      	bhi.n	8007d80 <ada__real_time__clock+0x30>
 8007d7c:	2c03      	cmp	r4, #3
 8007d7e:	d1ed      	bne.n	8007d5c <ada__real_time__clock+0xc>
 8007d80:	2200      	movs	r2, #0
 8007d82:	462b      	mov	r3, r5
 8007d84:	4610      	mov	r0, r2
 8007d86:	4619      	mov	r1, r3
 8007d88:	e8bd 83f8 	ldmia.w	sp!, {r3, r4, r5, r6, r7, r8, r9, pc}
 8007d8c:	46a9      	mov	r9, r5
 8007d8e:	e7e5      	b.n	8007d5c <ada__real_time__clock+0xc>
 8007d90:	2200      	movs	r2, #0
 8007d92:	4287      	cmp	r7, r0
 8007d94:	bf94      	ite	ls
 8007d96:	462b      	movls	r3, r5
 8007d98:	1c6b      	addhi	r3, r5, #1
 8007d9a:	1812      	adds	r2, r2, r0
 8007d9c:	f143 0300 	adc.w	r3, r3, #0
 8007da0:	e7f0      	b.n	8007d84 <ada__real_time__clock+0x34>
 8007da2:	bf00      	nop
 8007da4:	20000110 	.word	0x20000110

08007da8 <ada__real_time__microseconds>:
 8007da8:	b508      	push	{r3, lr}
 8007daa:	4b09      	ldr	r3, [pc, #36]	; (8007dd0 <ada__real_time__microseconds+0x28>)
 8007dac:	fb80 0103 	smull	r0, r1, r0, r3
 8007db0:	2800      	cmp	r0, #0
 8007db2:	f171 0300 	sbcs.w	r3, r1, #0
 8007db6:	bfab      	itete	ge
 8007db8:	4a06      	ldrge	r2, [pc, #24]	; (8007dd4 <ada__real_time__microseconds+0x2c>)
 8007dba:	4a07      	ldrlt	r2, [pc, #28]	; (8007dd8 <ada__real_time__microseconds+0x30>)
 8007dbc:	2300      	movge	r3, #0
 8007dbe:	f04f 33ff 	movlt.w	r3, #4294967295
 8007dc2:	1880      	adds	r0, r0, r2
 8007dc4:	4159      	adcs	r1, r3
 8007dc6:	4a05      	ldr	r2, [pc, #20]	; (8007ddc <ada__real_time__microseconds+0x34>)
 8007dc8:	2300      	movs	r3, #0
 8007dca:	f004 f8c3 	bl	800bf54 <__aeabi_ldivmod>
 8007dce:	bd08      	pop	{r3, pc}
 8007dd0:	04c4b400 	.word	0x04c4b400
 8007dd4:	0007a120 	.word	0x0007a120
 8007dd8:	fff85ee0 	.word	0xfff85ee0
 8007ddc:	000f4240 	.word	0x000f4240

08007de0 <ada__real_time__milliseconds>:
 8007de0:	b508      	push	{r3, lr}
 8007de2:	4b0d      	ldr	r3, [pc, #52]	; (8007e18 <ada__real_time__milliseconds+0x38>)
 8007de4:	fb80 0103 	smull	r0, r1, r0, r3
 8007de8:	2800      	cmp	r0, #0
 8007dea:	f171 0300 	sbcs.w	r3, r1, #0
 8007dee:	db09      	blt.n	8007e04 <ada__real_time__milliseconds+0x24>
 8007df0:	f510 70fa 	adds.w	r0, r0, #500	; 0x1f4
 8007df4:	f141 0100 	adc.w	r1, r1, #0
 8007df8:	f44f 727a 	mov.w	r2, #1000	; 0x3e8
 8007dfc:	2300      	movs	r3, #0
 8007dfe:	f004 f8a9 	bl	800bf54 <__aeabi_ldivmod>
 8007e02:	bd08      	pop	{r3, pc}
 8007e04:	f5b0 70fa 	subs.w	r0, r0, #500	; 0x1f4
 8007e08:	f141 31ff 	adc.w	r1, r1, #4294967295
 8007e0c:	f44f 727a 	mov.w	r2, #1000	; 0x3e8
 8007e10:	2300      	movs	r3, #0
 8007e12:	f004 f89f 	bl	800bf54 <__aeabi_ldivmod>
 8007e16:	bd08      	pop	{r3, pc}
 8007e18:	04c4b400 	.word	0x04c4b400

08007e1c <ada__real_time___elabb>:
 8007e1c:	f000 bc64 	b.w	80086e8 <system__tasking__initialize>

08007e20 <system__bb__timing_events___size>:
 8007e20:	f44f 7080 	mov.w	r0, #256	; 0x100
 8007e24:	2100      	movs	r1, #0
 8007e26:	4770      	bx	lr

08007e28 <system__bb__timing_events__timing_eventDF>:
 8007e28:	4770      	bx	lr
 8007e2a:	bf00      	nop

08007e2c <system__bb__timing_events__current_handler>:
 8007e2c:	6900      	ldr	r0, [r0, #16]
 8007e2e:	4770      	bx	lr

08007e30 <system__bb__timing_events__time_of_event>:
 8007e30:	6903      	ldr	r3, [r0, #16]
 8007e32:	b113      	cbz	r3, 8007e3a <system__bb__timing_events__time_of_event+0xa>
 8007e34:	e9d0 0102 	ldrd	r0, r1, [r0, #8]
 8007e38:	4770      	bx	lr
 8007e3a:	2000      	movs	r0, #0
 8007e3c:	2100      	movs	r1, #0
 8007e3e:	4770      	bx	lr

08007e40 <system__bb__timing_events__cancel_handler>:
 8007e40:	b508      	push	{r3, lr}
 8007e42:	6903      	ldr	r3, [r0, #16]
 8007e44:	b1fb      	cbz	r3, 8007e86 <system__bb__timing_events__cancel_handler+0x46>
 8007e46:	4b14      	ldr	r3, [pc, #80]	; (8007e98 <system__bb__timing_events__cancel_handler+0x58>)
 8007e48:	681a      	ldr	r2, [r3, #0]
 8007e4a:	4290      	cmp	r0, r2
 8007e4c:	d00b      	beq.n	8007e66 <system__bb__timing_events__cancel_handler+0x26>
 8007e4e:	6981      	ldr	r1, [r0, #24]
 8007e50:	6943      	ldr	r3, [r0, #20]
 8007e52:	614b      	str	r3, [r1, #20]
 8007e54:	6942      	ldr	r2, [r0, #20]
 8007e56:	b1da      	cbz	r2, 8007e90 <system__bb__timing_events__cancel_handler+0x50>
 8007e58:	2300      	movs	r3, #0
 8007e5a:	6191      	str	r1, [r2, #24]
 8007e5c:	6143      	str	r3, [r0, #20]
 8007e5e:	6183      	str	r3, [r0, #24]
 8007e60:	6103      	str	r3, [r0, #16]
 8007e62:	2001      	movs	r0, #1
 8007e64:	bd08      	pop	{r3, pc}
 8007e66:	6942      	ldr	r2, [r0, #20]
 8007e68:	601a      	str	r2, [r3, #0]
 8007e6a:	b172      	cbz	r2, 8007e8a <system__bb__timing_events__cancel_handler+0x4a>
 8007e6c:	6983      	ldr	r3, [r0, #24]
 8007e6e:	6193      	str	r3, [r2, #24]
 8007e70:	2300      	movs	r3, #0
 8007e72:	6143      	str	r3, [r0, #20]
 8007e74:	6183      	str	r3, [r0, #24]
 8007e76:	6103      	str	r3, [r0, #16]
 8007e78:	2001      	movs	r0, #1
 8007e7a:	f000 f9c7 	bl	800820c <system__bb__time__get_next_timeout>
 8007e7e:	f000 fa3f 	bl	8008300 <system__bb__time__update_alarm>
 8007e82:	2001      	movs	r0, #1
 8007e84:	bd08      	pop	{r3, pc}
 8007e86:	4618      	mov	r0, r3
 8007e88:	bd08      	pop	{r3, pc}
 8007e8a:	6182      	str	r2, [r0, #24]
 8007e8c:	6102      	str	r2, [r0, #16]
 8007e8e:	e7f3      	b.n	8007e78 <system__bb__timing_events__cancel_handler+0x38>
 8007e90:	6182      	str	r2, [r0, #24]
 8007e92:	6102      	str	r2, [r0, #16]
 8007e94:	e7e5      	b.n	8007e62 <system__bb__timing_events__cancel_handler+0x22>
 8007e96:	bf00      	nop
 8007e98:	200000ec 	.word	0x200000ec

08007e9c <system__bb__timing_events__execute_expired_timing_events>:
 8007e9c:	e92d 4ff8 	stmdb	sp!, {r3, r4, r5, r6, r7, r8, r9, sl, fp, lr}
 8007ea0:	f8df b074 	ldr.w	fp, [pc, #116]	; 8007f18 <system__bb__timing_events__execute_expired_timing_events+0x7c>
 8007ea4:	f8db 4000 	ldr.w	r4, [fp]
 8007ea8:	2c00      	cmp	r4, #0
 8007eaa:	d031      	beq.n	8007f10 <system__bb__timing_events__execute_expired_timing_events+0x74>
 8007eac:	4b19      	ldr	r3, [pc, #100]	; (8007f14 <system__bb__timing_events__execute_expired_timing_events+0x78>)
 8007eae:	f8d3 a000 	ldr.w	sl, [r3]
 8007eb2:	4606      	mov	r6, r0
 8007eb4:	460f      	mov	r7, r1
 8007eb6:	4650      	mov	r0, sl
 8007eb8:	21ff      	movs	r1, #255	; 0xff
 8007eba:	f8da 9034 	ldr.w	r9, [sl, #52]	; 0x34
 8007ebe:	46d8      	mov	r8, fp
 8007ec0:	f000 f89e 	bl	8008000 <system__bb__threads__queues__change_priority>
 8007ec4:	2500      	movs	r5, #0
 8007ec6:	e00e      	b.n	8007ee6 <system__bb__timing_events__execute_expired_timing_events+0x4a>
 8007ec8:	69a3      	ldr	r3, [r4, #24]
 8007eca:	6962      	ldr	r2, [r4, #20]
 8007ecc:	615a      	str	r2, [r3, #20]
 8007ece:	6962      	ldr	r2, [r4, #20]
 8007ed0:	4620      	mov	r0, r4
 8007ed2:	b10a      	cbz	r2, 8007ed8 <system__bb__timing_events__execute_expired_timing_events+0x3c>
 8007ed4:	69a3      	ldr	r3, [r4, #24]
 8007ed6:	6193      	str	r3, [r2, #24]
 8007ed8:	6165      	str	r5, [r4, #20]
 8007eda:	61a5      	str	r5, [r4, #24]
 8007edc:	6125      	str	r5, [r4, #16]
 8007ede:	4788      	blx	r1
 8007ee0:	f8db 4000 	ldr.w	r4, [fp]
 8007ee4:	b174      	cbz	r4, 8007f04 <system__bb__timing_events__execute_expired_timing_events+0x68>
 8007ee6:	e9d4 2302 	ldrd	r2, r3, [r4, #8]
 8007eea:	429f      	cmp	r7, r3
 8007eec:	bf08      	it	eq
 8007eee:	4296      	cmpeq	r6, r2
 8007ef0:	d308      	bcc.n	8007f04 <system__bb__timing_events__execute_expired_timing_events+0x68>
 8007ef2:	f8db 3000 	ldr.w	r3, [fp]
 8007ef6:	6921      	ldr	r1, [r4, #16]
 8007ef8:	429c      	cmp	r4, r3
 8007efa:	d1e5      	bne.n	8007ec8 <system__bb__timing_events__execute_expired_timing_events+0x2c>
 8007efc:	6962      	ldr	r2, [r4, #20]
 8007efe:	f8c8 2000 	str.w	r2, [r8]
 8007f02:	e7e5      	b.n	8007ed0 <system__bb__timing_events__execute_expired_timing_events+0x34>
 8007f04:	4650      	mov	r0, sl
 8007f06:	4649      	mov	r1, r9
 8007f08:	e8bd 4ff8 	ldmia.w	sp!, {r3, r4, r5, r6, r7, r8, r9, sl, fp, lr}
 8007f0c:	f000 b878 	b.w	8008000 <system__bb__threads__queues__change_priority>
 8007f10:	e8bd 8ff8 	ldmia.w	sp!, {r3, r4, r5, r6, r7, r8, r9, sl, fp, pc}
 8007f14:	20000104 	.word	0x20000104
 8007f18:	200000ec 	.word	0x200000ec

08007f1c <system__bb__timing_events__insert>:
 8007f1c:	4b14      	ldr	r3, [pc, #80]	; (8007f70 <system__bb__timing_events__insert+0x54>)
 8007f1e:	681a      	ldr	r2, [r3, #0]
 8007f20:	b30a      	cbz	r2, 8007f66 <system__bb__timing_events__insert+0x4a>
 8007f22:	b4f0      	push	{r4, r5, r6, r7}
 8007f24:	e9d2 4502 	ldrd	r4, r5, [r2, #8]
 8007f28:	e9d0 6702 	ldrd	r6, r7, [r0, #8]
 8007f2c:	42af      	cmp	r7, r5
 8007f2e:	bf08      	it	eq
 8007f30:	42a6      	cmpeq	r6, r4
 8007f32:	d20c      	bcs.n	8007f4e <system__bb__timing_events__insert+0x32>
 8007f34:	6142      	str	r2, [r0, #20]
 8007f36:	6018      	str	r0, [r3, #0]
 8007f38:	6190      	str	r0, [r2, #24]
 8007f3a:	2001      	movs	r0, #1
 8007f3c:	bcf0      	pop	{r4, r5, r6, r7}
 8007f3e:	4770      	bx	lr
 8007f40:	e9d3 4502 	ldrd	r4, r5, [r3, #8]
 8007f44:	42af      	cmp	r7, r5
 8007f46:	bf08      	it	eq
 8007f48:	42a6      	cmpeq	r6, r4
 8007f4a:	d303      	bcc.n	8007f54 <system__bb__timing_events__insert+0x38>
 8007f4c:	461a      	mov	r2, r3
 8007f4e:	6953      	ldr	r3, [r2, #20]
 8007f50:	2b00      	cmp	r3, #0
 8007f52:	d1f5      	bne.n	8007f40 <system__bb__timing_events__insert+0x24>
 8007f54:	6143      	str	r3, [r0, #20]
 8007f56:	6953      	ldr	r3, [r2, #20]
 8007f58:	6182      	str	r2, [r0, #24]
 8007f5a:	b103      	cbz	r3, 8007f5e <system__bb__timing_events__insert+0x42>
 8007f5c:	6198      	str	r0, [r3, #24]
 8007f5e:	6150      	str	r0, [r2, #20]
 8007f60:	2000      	movs	r0, #0
 8007f62:	bcf0      	pop	{r4, r5, r6, r7}
 8007f64:	4770      	bx	lr
 8007f66:	6142      	str	r2, [r0, #20]
 8007f68:	6018      	str	r0, [r3, #0]
 8007f6a:	2001      	movs	r0, #1
 8007f6c:	4770      	bx	lr
 8007f6e:	bf00      	nop
 8007f70:	200000ec 	.word	0x200000ec

08007f74 <system__bb__timing_events__set_handler>:
 8007f74:	b5d0      	push	{r4, r6, r7, lr}
 8007f76:	4616      	mov	r6, r2
 8007f78:	6902      	ldr	r2, [r0, #16]
 8007f7a:	461f      	mov	r7, r3
 8007f7c:	4601      	mov	r1, r0
 8007f7e:	9b04      	ldr	r3, [sp, #16]
 8007f80:	b31a      	cbz	r2, 8007fca <system__bb__timing_events__set_handler+0x56>
 8007f82:	4a1a      	ldr	r2, [pc, #104]	; (8007fec <system__bb__timing_events__set_handler+0x78>)
 8007f84:	6810      	ldr	r0, [r2, #0]
 8007f86:	4281      	cmp	r1, r0
 8007f88:	d02b      	beq.n	8007fe2 <system__bb__timing_events__set_handler+0x6e>
 8007f8a:	698a      	ldr	r2, [r1, #24]
 8007f8c:	6948      	ldr	r0, [r1, #20]
 8007f8e:	6150      	str	r0, [r2, #20]
 8007f90:	6948      	ldr	r0, [r1, #20]
 8007f92:	2400      	movs	r4, #0
 8007f94:	b108      	cbz	r0, 8007f9a <system__bb__timing_events__set_handler+0x26>
 8007f96:	698a      	ldr	r2, [r1, #24]
 8007f98:	6182      	str	r2, [r0, #24]
 8007f9a:	2000      	movs	r0, #0
 8007f9c:	610b      	str	r3, [r1, #16]
 8007f9e:	6148      	str	r0, [r1, #20]
 8007fa0:	6188      	str	r0, [r1, #24]
 8007fa2:	b17b      	cbz	r3, 8007fc4 <system__bb__timing_events__set_handler+0x50>
 8007fa4:	2301      	movs	r3, #1
 8007fa6:	e9c1 6702 	strd	r6, r7, [r1, #8]
 8007faa:	770b      	strb	r3, [r1, #28]
 8007fac:	4608      	mov	r0, r1
 8007fae:	f7ff ffb5 	bl	8007f1c <system__bb__timing_events__insert>
 8007fb2:	b904      	cbnz	r4, 8007fb6 <system__bb__timing_events__set_handler+0x42>
 8007fb4:	b140      	cbz	r0, 8007fc8 <system__bb__timing_events__set_handler+0x54>
 8007fb6:	2001      	movs	r0, #1
 8007fb8:	f000 f928 	bl	800820c <system__bb__time__get_next_timeout>
 8007fbc:	e8bd 40d0 	ldmia.w	sp!, {r4, r6, r7, lr}
 8007fc0:	f000 b99e 	b.w	8008300 <system__bb__time__update_alarm>
 8007fc4:	2c00      	cmp	r4, #0
 8007fc6:	d1f6      	bne.n	8007fb6 <system__bb__timing_events__set_handler+0x42>
 8007fc8:	bdd0      	pop	{r4, r6, r7, pc}
 8007fca:	6103      	str	r3, [r0, #16]
 8007fcc:	2b00      	cmp	r3, #0
 8007fce:	d0fb      	beq.n	8007fc8 <system__bb__timing_events__set_handler+0x54>
 8007fd0:	2301      	movs	r3, #1
 8007fd2:	e9c0 6702 	strd	r6, r7, [r0, #8]
 8007fd6:	7703      	strb	r3, [r0, #28]
 8007fd8:	f7ff ffa0 	bl	8007f1c <system__bb__timing_events__insert>
 8007fdc:	2800      	cmp	r0, #0
 8007fde:	d1ea      	bne.n	8007fb6 <system__bb__timing_events__set_handler+0x42>
 8007fe0:	e7f2      	b.n	8007fc8 <system__bb__timing_events__set_handler+0x54>
 8007fe2:	6948      	ldr	r0, [r1, #20]
 8007fe4:	6010      	str	r0, [r2, #0]
 8007fe6:	2401      	movs	r4, #1
 8007fe8:	e7d4      	b.n	8007f94 <system__bb__timing_events__set_handler+0x20>
 8007fea:	bf00      	nop
 8007fec:	200000ec 	.word	0x200000ec

08007ff0 <system__bb__timing_events___elabs>:
 8007ff0:	4801      	ldr	r0, [pc, #4]	; (8007ff8 <system__bb__timing_events___elabs+0x8>)
 8007ff2:	f001 be01 	b.w	8009bf8 <ada__tags__register_tag>
 8007ff6:	bf00      	nop
 8007ff8:	0800f468 	.word	0x0800f468

08007ffc <__gnat_start_slave_cpus>:
 8007ffc:	4770      	bx	lr
 8007ffe:	bf00      	nop

08008000 <system__bb__threads__queues__change_priority>:
 8008000:	6b43      	ldr	r3, [r0, #52]	; 0x34
 8008002:	428b      	cmp	r3, r1
 8008004:	d02a      	beq.n	800805c <system__bb__threads__queues__change_priority+0x5c>
 8008006:	b470      	push	{r4, r5, r6}
 8008008:	4e18      	ldr	r6, [pc, #96]	; (800806c <system__bb__threads__queues__change_priority+0x6c>)
 800800a:	6341      	str	r1, [r0, #52]	; 0x34
 800800c:	6834      	ldr	r4, [r6, #0]
 800800e:	42a0      	cmp	r0, r4
 8008010:	d025      	beq.n	800805e <system__bb__threads__queues__change_priority+0x5e>
 8008012:	b14c      	cbz	r4, 8008028 <system__bb__threads__queues__change_priority+0x28>
 8008014:	6c23      	ldr	r3, [r4, #64]	; 0x40
 8008016:	4298      	cmp	r0, r3
 8008018:	d008      	beq.n	800802c <system__bb__threads__queues__change_priority+0x2c>
 800801a:	b12b      	cbz	r3, 8008028 <system__bb__threads__queues__change_priority+0x28>
 800801c:	6c1a      	ldr	r2, [r3, #64]	; 0x40
 800801e:	4290      	cmp	r0, r2
 8008020:	d005      	beq.n	800802e <system__bb__threads__queues__change_priority+0x2e>
 8008022:	4613      	mov	r3, r2
 8008024:	2b00      	cmp	r3, #0
 8008026:	d1f9      	bne.n	800801c <system__bb__threads__queues__change_priority+0x1c>
 8008028:	bc70      	pop	{r4, r5, r6}
 800802a:	4770      	bx	lr
 800802c:	4623      	mov	r3, r4
 800802e:	6c02      	ldr	r2, [r0, #64]	; 0x40
 8008030:	641a      	str	r2, [r3, #64]	; 0x40
 8008032:	6b63      	ldr	r3, [r4, #52]	; 0x34
 8008034:	4299      	cmp	r1, r3
 8008036:	db04      	blt.n	8008042 <system__bb__threads__queues__change_priority+0x42>
 8008038:	6404      	str	r4, [r0, #64]	; 0x40
 800803a:	4604      	mov	r4, r0
 800803c:	6034      	str	r4, [r6, #0]
 800803e:	bc70      	pop	{r4, r5, r6}
 8008040:	4770      	bx	lr
 8008042:	4622      	mov	r2, r4
 8008044:	e003      	b.n	800804e <system__bb__threads__queues__change_priority+0x4e>
 8008046:	6b5d      	ldr	r5, [r3, #52]	; 0x34
 8008048:	42a9      	cmp	r1, r5
 800804a:	da03      	bge.n	8008054 <system__bb__threads__queues__change_priority+0x54>
 800804c:	461a      	mov	r2, r3
 800804e:	6c13      	ldr	r3, [r2, #64]	; 0x40
 8008050:	2b00      	cmp	r3, #0
 8008052:	d1f8      	bne.n	8008046 <system__bb__threads__queues__change_priority+0x46>
 8008054:	6403      	str	r3, [r0, #64]	; 0x40
 8008056:	6034      	str	r4, [r6, #0]
 8008058:	6410      	str	r0, [r2, #64]	; 0x40
 800805a:	e7f0      	b.n	800803e <system__bb__threads__queues__change_priority+0x3e>
 800805c:	4770      	bx	lr
 800805e:	6c04      	ldr	r4, [r0, #64]	; 0x40
 8008060:	2c00      	cmp	r4, #0
 8008062:	d0e1      	beq.n	8008028 <system__bb__threads__queues__change_priority+0x28>
 8008064:	6b63      	ldr	r3, [r4, #52]	; 0x34
 8008066:	4299      	cmp	r1, r3
 8008068:	dbe3      	blt.n	8008032 <system__bb__threads__queues__change_priority+0x32>
 800806a:	e7dd      	b.n	8008028 <system__bb__threads__queues__change_priority+0x28>
 800806c:	200000f8 	.word	0x200000f8

08008070 <system__bb__threads__queues__insert_alarm>:
 8008070:	e92d 43d0 	stmdb	sp!, {r4, r6, r7, r8, r9, lr}
 8008074:	4606      	mov	r6, r0
 8008076:	4610      	mov	r0, r2
 8008078:	4614      	mov	r4, r2
 800807a:	460f      	mov	r7, r1
 800807c:	f000 fdcc 	bl	8008c18 <system__bb__threads__get_cpu>
 8008080:	b240      	sxtb	r0, r0
 8008082:	f100 4380 	add.w	r3, r0, #1073741824	; 0x40000000
 8008086:	3b01      	subs	r3, #1
 8008088:	4a10      	ldr	r2, [pc, #64]	; (80080cc <system__bb__threads__queues__insert_alarm+0x5c>)
 800808a:	f852 1023 	ldr.w	r1, [r2, r3, lsl #2]
 800808e:	e9c4 6712 	strd	r6, r7, [r4, #72]	; 0x48
 8008092:	b1a9      	cbz	r1, 80080c0 <system__bb__threads__queues__insert_alarm+0x50>
 8008094:	e9d1 8912 	ldrd	r8, r9, [r1, #72]	; 0x48
 8008098:	454f      	cmp	r7, r9
 800809a:	bf08      	it	eq
 800809c:	4546      	cmpeq	r6, r8
 800809e:	d207      	bcs.n	80080b0 <system__bb__threads__queues__insert_alarm+0x40>
 80080a0:	e00e      	b.n	80080c0 <system__bb__threads__queues__insert_alarm+0x50>
 80080a2:	e9d3 8912 	ldrd	r8, r9, [r3, #72]	; 0x48
 80080a6:	45b9      	cmp	r9, r7
 80080a8:	bf08      	it	eq
 80080aa:	45b0      	cmpeq	r8, r6
 80080ac:	d203      	bcs.n	80080b6 <system__bb__threads__queues__insert_alarm+0x46>
 80080ae:	4619      	mov	r1, r3
 80080b0:	6d0b      	ldr	r3, [r1, #80]	; 0x50
 80080b2:	2b00      	cmp	r3, #0
 80080b4:	d1f5      	bne.n	80080a2 <system__bb__threads__queues__insert_alarm+0x32>
 80080b6:	2000      	movs	r0, #0
 80080b8:	6523      	str	r3, [r4, #80]	; 0x50
 80080ba:	650c      	str	r4, [r1, #80]	; 0x50
 80080bc:	e8bd 83d0 	ldmia.w	sp!, {r4, r6, r7, r8, r9, pc}
 80080c0:	2001      	movs	r0, #1
 80080c2:	6521      	str	r1, [r4, #80]	; 0x50
 80080c4:	f842 4023 	str.w	r4, [r2, r3, lsl #2]
 80080c8:	e8bd 83d0 	ldmia.w	sp!, {r4, r6, r7, r8, r9, pc}
 80080cc:	20000100 	.word	0x20000100

080080d0 <system__bb__threads__queues__wakeup_expired_alarms>:
 80080d0:	e92d 47f0 	stmdb	sp!, {r4, r5, r6, r7, r8, r9, sl, lr}
 80080d4:	f8df a0ec 	ldr.w	sl, [pc, #236]	; 80081c4 <system__bb__threads__queues__wakeup_expired_alarms+0xf4>
 80080d8:	f8df 90e4 	ldr.w	r9, [pc, #228]	; 80081c0 <system__bb__threads__queues__wakeup_expired_alarms+0xf0>
 80080dc:	4604      	mov	r4, r0
 80080de:	460d      	mov	r5, r1
 80080e0:	f04f 36ff 	mov.w	r6, #4294967295
 80080e4:	f04f 37ff 	mov.w	r7, #4294967295
 80080e8:	f8da 8000 	ldr.w	r8, [sl]
 80080ec:	f1b8 0f00 	cmp.w	r8, #0
 80080f0:	d040      	beq.n	8008174 <system__bb__threads__queues__wakeup_expired_alarms+0xa4>
 80080f2:	e9d8 2312 	ldrd	r2, r3, [r8, #72]	; 0x48
 80080f6:	429d      	cmp	r5, r3
 80080f8:	bf08      	it	eq
 80080fa:	4294      	cmpeq	r4, r2
 80080fc:	d342      	bcc.n	8008184 <system__bb__threads__queues__wakeup_expired_alarms+0xb4>
 80080fe:	2200      	movs	r2, #0
 8008100:	f8d8 3050 	ldr.w	r3, [r8, #80]	; 0x50
 8008104:	f888 2054 	strb.w	r2, [r8, #84]	; 0x54
 8008108:	f8c8 2050 	str.w	r2, [r8, #80]	; 0x50
 800810c:	e9c8 6712 	strd	r6, r7, [r8, #72]	; 0x48
 8008110:	4640      	mov	r0, r8
 8008112:	f8ca 3000 	str.w	r3, [sl]
 8008116:	f000 fd7f 	bl	8008c18 <system__bb__threads__get_cpu>
 800811a:	b240      	sxtb	r0, r0
 800811c:	f100 4080 	add.w	r0, r0, #1073741824	; 0x40000000
 8008120:	3801      	subs	r0, #1
 8008122:	4b27      	ldr	r3, [pc, #156]	; (80081c0 <system__bb__threads__queues__wakeup_expired_alarms+0xf0>)
 8008124:	f859 2020 	ldr.w	r2, [r9, r0, lsl #2]
 8008128:	4590      	cmp	r8, r2
 800812a:	d0dd      	beq.n	80080e8 <system__bb__threads__queues__wakeup_expired_alarms+0x18>
 800812c:	f853 2020 	ldr.w	r2, [r3, r0, lsl #2]
 8008130:	b37a      	cbz	r2, 8008192 <system__bb__threads__queues__wakeup_expired_alarms+0xc2>
 8008132:	f8d8 1034 	ldr.w	r1, [r8, #52]	; 0x34
 8008136:	f853 2020 	ldr.w	r2, [r3, r0, lsl #2]
 800813a:	6b52      	ldr	r2, [r2, #52]	; 0x34
 800813c:	4291      	cmp	r1, r2
 800813e:	dc28      	bgt.n	8008192 <system__bb__threads__queues__wakeup_expired_alarms+0xc2>
 8008140:	f853 2020 	ldr.w	r2, [r3, r0, lsl #2]
 8008144:	e007      	b.n	8008156 <system__bb__threads__queues__wakeup_expired_alarms+0x86>
 8008146:	4543      	cmp	r3, r8
 8008148:	d02a      	beq.n	80081a0 <system__bb__threads__queues__wakeup_expired_alarms+0xd0>
 800814a:	6b58      	ldr	r0, [r3, #52]	; 0x34
 800814c:	f8d8 1034 	ldr.w	r1, [r8, #52]	; 0x34
 8008150:	4288      	cmp	r0, r1
 8008152:	db03      	blt.n	800815c <system__bb__threads__queues__wakeup_expired_alarms+0x8c>
 8008154:	461a      	mov	r2, r3
 8008156:	6c13      	ldr	r3, [r2, #64]	; 0x40
 8008158:	2b00      	cmp	r3, #0
 800815a:	d1f4      	bne.n	8008146 <system__bb__threads__queues__wakeup_expired_alarms+0x76>
 800815c:	4543      	cmp	r3, r8
 800815e:	d01f      	beq.n	80081a0 <system__bb__threads__queues__wakeup_expired_alarms+0xd0>
 8008160:	6c13      	ldr	r3, [r2, #64]	; 0x40
 8008162:	f8c8 3040 	str.w	r3, [r8, #64]	; 0x40
 8008166:	f8c2 8040 	str.w	r8, [r2, #64]	; 0x40
 800816a:	f8da 8000 	ldr.w	r8, [sl]
 800816e:	f1b8 0f00 	cmp.w	r8, #0
 8008172:	d1be      	bne.n	80080f2 <system__bb__threads__queues__wakeup_expired_alarms+0x22>
 8008174:	f04f 33ff 	mov.w	r3, #4294967295
 8008178:	f04f 32ff 	mov.w	r2, #4294967295
 800817c:	429d      	cmp	r5, r3
 800817e:	bf08      	it	eq
 8008180:	4294      	cmpeq	r4, r2
 8008182:	d2bc      	bcs.n	80080fe <system__bb__threads__queues__wakeup_expired_alarms+0x2e>
 8008184:	2001      	movs	r0, #1
 8008186:	f000 f841 	bl	800820c <system__bb__time__get_next_timeout>
 800818a:	e8bd 47f0 	ldmia.w	sp!, {r4, r5, r6, r7, r8, r9, sl, lr}
 800818e:	f000 b8b7 	b.w	8008300 <system__bb__time__update_alarm>
 8008192:	f853 2020 	ldr.w	r2, [r3, r0, lsl #2]
 8008196:	f8c8 2040 	str.w	r2, [r8, #64]	; 0x40
 800819a:	f843 8020 	str.w	r8, [r3, r0, lsl #2]
 800819e:	e7a3      	b.n	80080e8 <system__bb__threads__queues__wakeup_expired_alarms+0x18>
 80081a0:	f8d8 3040 	ldr.w	r3, [r8, #64]	; 0x40
 80081a4:	6413      	str	r3, [r2, #64]	; 0x40
 80081a6:	4611      	mov	r1, r2
 80081a8:	e005      	b.n	80081b6 <system__bb__threads__queues__wakeup_expired_alarms+0xe6>
 80081aa:	6b58      	ldr	r0, [r3, #52]	; 0x34
 80081ac:	f8d8 2034 	ldr.w	r2, [r8, #52]	; 0x34
 80081b0:	4290      	cmp	r0, r2
 80081b2:	db03      	blt.n	80081bc <system__bb__threads__queues__wakeup_expired_alarms+0xec>
 80081b4:	4619      	mov	r1, r3
 80081b6:	6c0b      	ldr	r3, [r1, #64]	; 0x40
 80081b8:	2b00      	cmp	r3, #0
 80081ba:	d1f6      	bne.n	80081aa <system__bb__threads__queues__wakeup_expired_alarms+0xda>
 80081bc:	460a      	mov	r2, r1
 80081be:	e7cf      	b.n	8008160 <system__bb__threads__queues__wakeup_expired_alarms+0x90>
 80081c0:	200000f8 	.word	0x200000f8
 80081c4:	20000100 	.word	0x20000100

080081c8 <system__bb__threads__queues__yield>:
 80081c8:	b538      	push	{r3, r4, r5, lr}
 80081ca:	4605      	mov	r5, r0
 80081cc:	f000 fd24 	bl	8008c18 <system__bb__threads__get_cpu>
 80081d0:	6c2a      	ldr	r2, [r5, #64]	; 0x40
 80081d2:	6b6c      	ldr	r4, [r5, #52]	; 0x34
 80081d4:	b112      	cbz	r2, 80081dc <system__bb__threads__queues__yield+0x14>
 80081d6:	6b53      	ldr	r3, [r2, #52]	; 0x34
 80081d8:	429c      	cmp	r4, r3
 80081da:	d000      	beq.n	80081de <system__bb__threads__queues__yield+0x16>
 80081dc:	bd38      	pop	{r3, r4, r5, pc}
 80081de:	b243      	sxtb	r3, r0
 80081e0:	f103 4380 	add.w	r3, r3, #1073741824	; 0x40000000
 80081e4:	3b01      	subs	r3, #1
 80081e6:	4908      	ldr	r1, [pc, #32]	; (8008208 <system__bb__threads__queues__yield+0x40>)
 80081e8:	f841 2023 	str.w	r2, [r1, r3, lsl #2]
 80081ec:	f851 2023 	ldr.w	r2, [r1, r3, lsl #2]
 80081f0:	e003      	b.n	80081fa <system__bb__threads__queues__yield+0x32>
 80081f2:	6b59      	ldr	r1, [r3, #52]	; 0x34
 80081f4:	428c      	cmp	r4, r1
 80081f6:	d103      	bne.n	8008200 <system__bb__threads__queues__yield+0x38>
 80081f8:	461a      	mov	r2, r3
 80081fa:	6c13      	ldr	r3, [r2, #64]	; 0x40
 80081fc:	2b00      	cmp	r3, #0
 80081fe:	d1f8      	bne.n	80081f2 <system__bb__threads__queues__yield+0x2a>
 8008200:	642b      	str	r3, [r5, #64]	; 0x40
 8008202:	6415      	str	r5, [r2, #64]	; 0x40
 8008204:	bd38      	pop	{r3, r4, r5, pc}
 8008206:	bf00      	nop
 8008208:	200000f8 	.word	0x200000f8

0800820c <system__bb__time__get_next_timeout>:
 800820c:	b430      	push	{r4, r5}
 800820e:	b240      	sxtb	r0, r0
 8008210:	f100 4080 	add.w	r0, r0, #1073741824	; 0x40000000
 8008214:	3801      	subs	r0, #1
 8008216:	4b11      	ldr	r3, [pc, #68]	; (800825c <system__bb__time__get_next_timeout+0x50>)
 8008218:	f853 3020 	ldr.w	r3, [r3, r0, lsl #2]
 800821c:	b18b      	cbz	r3, 8008242 <system__bb__time__get_next_timeout+0x36>
 800821e:	e9d3 4512 	ldrd	r4, r5, [r3, #72]	; 0x48
 8008222:	4b0f      	ldr	r3, [pc, #60]	; (8008260 <system__bb__time__get_next_timeout+0x54>)
 8008224:	f853 3020 	ldr.w	r3, [r3, r0, lsl #2]
 8008228:	b1a3      	cbz	r3, 8008254 <system__bb__time__get_next_timeout+0x48>
 800822a:	689a      	ldr	r2, [r3, #8]
 800822c:	68db      	ldr	r3, [r3, #12]
 800822e:	429d      	cmp	r5, r3
 8008230:	bf08      	it	eq
 8008232:	4294      	cmpeq	r4, r2
 8008234:	4610      	mov	r0, r2
 8008236:	4619      	mov	r1, r3
 8008238:	bf3c      	itt	cc
 800823a:	4620      	movcc	r0, r4
 800823c:	4629      	movcc	r1, r5
 800823e:	bc30      	pop	{r4, r5}
 8008240:	4770      	bx	lr
 8008242:	4b07      	ldr	r3, [pc, #28]	; (8008260 <system__bb__time__get_next_timeout+0x54>)
 8008244:	f853 3020 	ldr.w	r3, [r3, r0, lsl #2]
 8008248:	f04f 34ff 	mov.w	r4, #4294967295
 800824c:	f04f 35ff 	mov.w	r5, #4294967295
 8008250:	2b00      	cmp	r3, #0
 8008252:	d1ea      	bne.n	800822a <system__bb__time__get_next_timeout+0x1e>
 8008254:	f04f 32ff 	mov.w	r2, #4294967295
 8008258:	4613      	mov	r3, r2
 800825a:	e7e8      	b.n	800822e <system__bb__time__get_next_timeout+0x22>
 800825c:	20000100 	.word	0x20000100
 8008260:	200000ec 	.word	0x200000ec

08008264 <system__bb__time__initialize_timers>:
 8008264:	e92d 4ff8 	stmdb	sp!, {r3, r4, r5, r6, r7, r8, r9, sl, fp, lr}
 8008268:	4b1e      	ldr	r3, [pc, #120]	; (80082e4 <system__bb__time__initialize_timers+0x80>)
 800826a:	4a1f      	ldr	r2, [pc, #124]	; (80082e8 <system__bb__time__initialize_timers+0x84>)
 800826c:	4f1f      	ldr	r7, [pc, #124]	; (80082ec <system__bb__time__initialize_timers+0x88>)
 800826e:	f8df a08c 	ldr.w	sl, [pc, #140]	; 80082fc <system__bb__time__initialize_timers+0x98>
 8008272:	605a      	str	r2, [r3, #4]
 8008274:	481e      	ldr	r0, [pc, #120]	; (80082f0 <system__bb__time__initialize_timers+0x8c>)
 8008276:	4d1f      	ldr	r5, [pc, #124]	; (80082f4 <system__bb__time__initialize_timers+0x90>)
 8008278:	2101      	movs	r1, #1
 800827a:	22ff      	movs	r2, #255	; 0xff
 800827c:	f04f 0b00 	mov.w	fp, #0
 8008280:	e9c7 ab00 	strd	sl, fp, [r7]
 8008284:	f000 f9e8 	bl	8008658 <system__bb__board_support__install_interrupt_handler>
 8008288:	f000 f95c 	bl	8008544 <system__bb__board_support__read_clock>
 800828c:	2400      	movs	r4, #0
 800828e:	6068      	str	r0, [r5, #4]
 8008290:	682e      	ldr	r6, [r5, #0]
 8008292:	f8d5 8004 	ldr.w	r8, [r5, #4]
 8008296:	f000 f955 	bl	8008544 <system__bb__board_support__read_clock>
 800829a:	682b      	ldr	r3, [r5, #0]
 800829c:	429e      	cmp	r6, r3
 800829e:	ebc9 0206 	rsb	r2, r9, r6
 80082a2:	f104 0401 	add.w	r4, r4, #1
 80082a6:	d014      	beq.n	80082d2 <system__bb__time__initialize_timers+0x6e>
 80082a8:	2c01      	cmp	r4, #1
 80082aa:	d010      	beq.n	80082ce <system__bb__time__initialize_timers+0x6a>
 80082ac:	2a01      	cmp	r2, #1
 80082ae:	d801      	bhi.n	80082b4 <system__bb__time__initialize_timers+0x50>
 80082b0:	2c03      	cmp	r4, #3
 80082b2:	d1ed      	bne.n	8008290 <system__bb__time__initialize_timers+0x2c>
 80082b4:	2200      	movs	r2, #0
 80082b6:	4633      	mov	r3, r6
 80082b8:	e9d7 0100 	ldrd	r0, r1, [r7]
 80082bc:	4c0e      	ldr	r4, [pc, #56]	; (80082f8 <system__bb__time__initialize_timers+0x94>)
 80082be:	1812      	adds	r2, r2, r0
 80082c0:	414b      	adcs	r3, r1
 80082c2:	e9c4 2300 	strd	r2, r3, [r4]
 80082c6:	e8bd 4ff8 	ldmia.w	sp!, {r3, r4, r5, r6, r7, r8, r9, sl, fp, lr}
 80082ca:	f000 b959 	b.w	8008580 <system__bb__board_support__set_alarm>
 80082ce:	46b1      	mov	r9, r6
 80082d0:	e7de      	b.n	8008290 <system__bb__time__initialize_timers+0x2c>
 80082d2:	2200      	movs	r2, #0
 80082d4:	4580      	cmp	r8, r0
 80082d6:	bf94      	ite	ls
 80082d8:	4633      	movls	r3, r6
 80082da:	1c73      	addhi	r3, r6, #1
 80082dc:	1812      	adds	r2, r2, r0
 80082de:	f143 0300 	adc.w	r3, r3, #0
 80082e2:	e7e9      	b.n	80082b8 <system__bb__time__initialize_timers+0x54>
 80082e4:	20003c80 	.word	0x20003c80
 80082e8:	080084b1 	.word	0x080084b1
 80082ec:	20000118 	.word	0x20000118
 80082f0:	08008b05 	.word	0x08008b05
 80082f4:	20000110 	.word	0x20000110
 80082f8:	20000108 	.word	0x20000108
 80082fc:	dffffff9 	.word	0xdffffff9

08008300 <system__bb__time__update_alarm>:
 8008300:	e92d 47f0 	stmdb	sp!, {r4, r5, r6, r7, r8, r9, sl, lr}
 8008304:	4e20      	ldr	r6, [pc, #128]	; (8008388 <system__bb__time__update_alarm+0x88>)
 8008306:	4680      	mov	r8, r0
 8008308:	4689      	mov	r9, r1
 800830a:	2400      	movs	r4, #0
 800830c:	6835      	ldr	r5, [r6, #0]
 800830e:	6877      	ldr	r7, [r6, #4]
 8008310:	f000 f918 	bl	8008544 <system__bb__board_support__read_clock>
 8008314:	6833      	ldr	r3, [r6, #0]
 8008316:	429d      	cmp	r5, r3
 8008318:	ebca 0205 	rsb	r2, sl, r5
 800831c:	f104 0401 	add.w	r4, r4, #1
 8008320:	d029      	beq.n	8008376 <system__bb__time__update_alarm+0x76>
 8008322:	2c01      	cmp	r4, #1
 8008324:	d022      	beq.n	800836c <system__bb__time__update_alarm+0x6c>
 8008326:	2a01      	cmp	r2, #1
 8008328:	d801      	bhi.n	800832e <system__bb__time__update_alarm+0x2e>
 800832a:	2c03      	cmp	r4, #3
 800832c:	d1ee      	bne.n	800830c <system__bb__time__update_alarm+0xc>
 800832e:	2200      	movs	r2, #0
 8008330:	462b      	mov	r3, r5
 8008332:	454b      	cmp	r3, r9
 8008334:	bf08      	it	eq
 8008336:	4542      	cmpeq	r2, r8
 8008338:	d21a      	bcs.n	8008370 <system__bb__time__update_alarm+0x70>
 800833a:	ebb8 0002 	subs.w	r0, r8, r2
 800833e:	eb69 0103 	sbc.w	r1, r9, r3
 8008342:	4e12      	ldr	r6, [pc, #72]	; (800838c <system__bb__time__update_alarm+0x8c>)
 8008344:	4c12      	ldr	r4, [pc, #72]	; (8008390 <system__bb__time__update_alarm+0x90>)
 8008346:	e9d6 2300 	ldrd	r2, r3, [r6]
 800834a:	4599      	cmp	r9, r3
 800834c:	bf08      	it	eq
 800834e:	4590      	cmpeq	r8, r2
 8008350:	e9d4 4500 	ldrd	r4, r5, [r4]
 8008354:	d208      	bcs.n	8008368 <system__bb__time__update_alarm+0x68>
 8008356:	428d      	cmp	r5, r1
 8008358:	bf08      	it	eq
 800835a:	4284      	cmpeq	r4, r0
 800835c:	bf38      	it	cc
 800835e:	4620      	movcc	r0, r4
 8008360:	f000 f90e 	bl	8008580 <system__bb__board_support__set_alarm>
 8008364:	e9c6 8900 	strd	r8, r9, [r6]
 8008368:	e8bd 87f0 	ldmia.w	sp!, {r4, r5, r6, r7, r8, r9, sl, pc}
 800836c:	46aa      	mov	sl, r5
 800836e:	e7cd      	b.n	800830c <system__bb__time__update_alarm+0xc>
 8008370:	2001      	movs	r0, #1
 8008372:	2100      	movs	r1, #0
 8008374:	e7e5      	b.n	8008342 <system__bb__time__update_alarm+0x42>
 8008376:	2200      	movs	r2, #0
 8008378:	4287      	cmp	r7, r0
 800837a:	bf94      	ite	ls
 800837c:	462b      	movls	r3, r5
 800837e:	1c6b      	addhi	r3, r5, #1
 8008380:	1812      	adds	r2, r2, r0
 8008382:	f143 0300 	adc.w	r3, r3, #0
 8008386:	e7d4      	b.n	8008332 <system__bb__time__update_alarm+0x32>
 8008388:	20000110 	.word	0x20000110
 800838c:	20000108 	.word	0x20000108
 8008390:	20000118 	.word	0x20000118

08008394 <system__bb__time__delay_until>:
 8008394:	e92d 47f0 	stmdb	sp!, {r4, r5, r6, r7, r8, r9, sl, lr}
 8008398:	4680      	mov	r8, r0
 800839a:	4689      	mov	r9, r1
 800839c:	b672      	cpsid	i
 800839e:	4e33      	ldr	r6, [pc, #204]	; (800846c <system__bb__time__delay_until+0xd8>)
 80083a0:	2400      	movs	r4, #0
 80083a2:	6835      	ldr	r5, [r6, #0]
 80083a4:	f8d6 a004 	ldr.w	sl, [r6, #4]
 80083a8:	f000 f8cc 	bl	8008544 <system__bb__board_support__read_clock>
 80083ac:	6833      	ldr	r3, [r6, #0]
 80083ae:	429d      	cmp	r5, r3
 80083b0:	eba5 0207 	sub.w	r2, r5, r7
 80083b4:	f104 0401 	add.w	r4, r4, #1
 80083b8:	d045      	beq.n	8008446 <system__bb__time__delay_until+0xb2>
 80083ba:	2c01      	cmp	r4, #1
 80083bc:	d038      	beq.n	8008430 <system__bb__time__delay_until+0x9c>
 80083be:	2a01      	cmp	r2, #1
 80083c0:	d801      	bhi.n	80083c6 <system__bb__time__delay_until+0x32>
 80083c2:	2c03      	cmp	r4, #3
 80083c4:	d1ed      	bne.n	80083a2 <system__bb__time__delay_until+0xe>
 80083c6:	2600      	movs	r6, #0
 80083c8:	462f      	mov	r7, r5
 80083ca:	4b29      	ldr	r3, [pc, #164]	; (8008470 <system__bb__time__delay_until+0xdc>)
 80083cc:	454f      	cmp	r7, r9
 80083ce:	bf08      	it	eq
 80083d0:	4546      	cmpeq	r6, r8
 80083d2:	681a      	ldr	r2, [r3, #0]
 80083d4:	d230      	bcs.n	8008438 <system__bb__time__delay_until+0xa4>
 80083d6:	f892 302c 	ldrb.w	r3, [r2, #44]	; 0x2c
 80083da:	2102      	movs	r1, #2
 80083dc:	f882 1054 	strb.w	r1, [r2, #84]	; 0x54
 80083e0:	b343      	cbz	r3, 8008434 <system__bb__time__delay_until+0xa0>
 80083e2:	b25b      	sxtb	r3, r3
 80083e4:	f103 4380 	add.w	r3, r3, #1073741824	; 0x40000000
 80083e8:	3b01      	subs	r3, #1
 80083ea:	4922      	ldr	r1, [pc, #136]	; (8008474 <system__bb__time__delay_until+0xe0>)
 80083ec:	6c10      	ldr	r0, [r2, #64]	; 0x40
 80083ee:	f841 0023 	str.w	r0, [r1, r3, lsl #2]
 80083f2:	2300      	movs	r3, #0
 80083f4:	4640      	mov	r0, r8
 80083f6:	4649      	mov	r1, r9
 80083f8:	6413      	str	r3, [r2, #64]	; 0x40
 80083fa:	f7ff fe39 	bl	8008070 <system__bb__threads__queues__insert_alarm>
 80083fe:	b198      	cbz	r0, 8008428 <system__bb__time__delay_until+0x94>
 8008400:	4b1d      	ldr	r3, [pc, #116]	; (8008478 <system__bb__time__delay_until+0xe4>)
 8008402:	681b      	ldr	r3, [r3, #0]
 8008404:	b343      	cbz	r3, 8008458 <system__bb__time__delay_until+0xc4>
 8008406:	e9d3 4512 	ldrd	r4, r5, [r3, #72]	; 0x48
 800840a:	4b1c      	ldr	r3, [pc, #112]	; (800847c <system__bb__time__delay_until+0xe8>)
 800840c:	681b      	ldr	r3, [r3, #0]
 800840e:	b343      	cbz	r3, 8008462 <system__bb__time__delay_until+0xce>
 8008410:	689a      	ldr	r2, [r3, #8]
 8008412:	68db      	ldr	r3, [r3, #12]
 8008414:	429d      	cmp	r5, r3
 8008416:	bf08      	it	eq
 8008418:	4294      	cmpeq	r4, r2
 800841a:	4610      	mov	r0, r2
 800841c:	4619      	mov	r1, r3
 800841e:	bf3c      	itt	cc
 8008420:	4620      	movcc	r0, r4
 8008422:	4629      	movcc	r1, r5
 8008424:	f7ff ff6c 	bl	8008300 <system__bb__time__update_alarm>
 8008428:	e8bd 47f0 	ldmia.w	sp!, {r4, r5, r6, r7, r8, r9, sl, lr}
 800842c:	f000 bb40 	b.w	8008ab0 <system__bb__protection__leave_kernel>
 8008430:	462f      	mov	r7, r5
 8008432:	e7b6      	b.n	80083a2 <system__bb__time__delay_until+0xe>
 8008434:	2301      	movs	r3, #1
 8008436:	e7d5      	b.n	80083e4 <system__bb__time__delay_until+0x50>
 8008438:	4610      	mov	r0, r2
 800843a:	f7ff fec5 	bl	80081c8 <system__bb__threads__queues__yield>
 800843e:	e8bd 47f0 	ldmia.w	sp!, {r4, r5, r6, r7, r8, r9, sl, lr}
 8008442:	f000 bb35 	b.w	8008ab0 <system__bb__protection__leave_kernel>
 8008446:	2600      	movs	r6, #0
 8008448:	4582      	cmp	sl, r0
 800844a:	bf94      	ite	ls
 800844c:	462f      	movls	r7, r5
 800844e:	1c6f      	addhi	r7, r5, #1
 8008450:	1836      	adds	r6, r6, r0
 8008452:	f147 0700 	adc.w	r7, r7, #0
 8008456:	e7b8      	b.n	80083ca <system__bb__time__delay_until+0x36>
 8008458:	f04f 34ff 	mov.w	r4, #4294967295
 800845c:	f04f 35ff 	mov.w	r5, #4294967295
 8008460:	e7d3      	b.n	800840a <system__bb__time__delay_until+0x76>
 8008462:	f04f 32ff 	mov.w	r2, #4294967295
 8008466:	4613      	mov	r3, r2
 8008468:	e7d4      	b.n	8008414 <system__bb__time__delay_until+0x80>
 800846a:	bf00      	nop
 800846c:	20000110 	.word	0x20000110
 8008470:	20000104 	.word	0x20000104
 8008474:	200000f8 	.word	0x200000f8
 8008478:	20000100 	.word	0x20000100
 800847c:	200000ec 	.word	0x200000ec

08008480 <system__bb__time__update_clock>:
 8008480:	b570      	push	{r4, r5, r6, lr}
 8008482:	4c0a      	ldr	r4, [pc, #40]	; (80084ac <system__bb__time__update_clock+0x2c>)
 8008484:	6825      	ldr	r5, [r4, #0]
 8008486:	6866      	ldr	r6, [r4, #4]
 8008488:	f000 f85c 	bl	8008544 <system__bb__board_support__read_clock>
 800848c:	4286      	cmp	r6, r0
 800848e:	d807      	bhi.n	80084a0 <system__bb__time__update_clock+0x20>
 8008490:	6060      	str	r0, [r4, #4]
 8008492:	2200      	movs	r2, #0
 8008494:	1812      	adds	r2, r2, r0
 8008496:	f145 0300 	adc.w	r3, r5, #0
 800849a:	4610      	mov	r0, r2
 800849c:	4619      	mov	r1, r3
 800849e:	bd70      	pop	{r4, r5, r6, pc}
 80084a0:	3501      	adds	r5, #1
 80084a2:	2300      	movs	r3, #0
 80084a4:	6023      	str	r3, [r4, #0]
 80084a6:	6060      	str	r0, [r4, #4]
 80084a8:	6025      	str	r5, [r4, #0]
 80084aa:	e7f2      	b.n	8008492 <system__bb__time__update_clock+0x12>
 80084ac:	20000110 	.word	0x20000110

080084b0 <system__bb__time__alarm_handler>:
 80084b0:	e92d 43f8 	stmdb	sp!, {r3, r4, r5, r6, r7, r8, r9, lr}
 80084b4:	4b1e      	ldr	r3, [pc, #120]	; (8008530 <system__bb__time__alarm_handler+0x80>)
 80084b6:	f04f 7200 	mov.w	r2, #33554432	; 0x2000000
 80084ba:	601a      	str	r2, [r3, #0]
 80084bc:	b672      	cpsid	i
 80084be:	4b1d      	ldr	r3, [pc, #116]	; (8008534 <system__bb__time__alarm_handler+0x84>)
 80084c0:	f04f 37ff 	mov.w	r7, #4294967295
 80084c4:	601f      	str	r7, [r3, #0]
 80084c6:	605f      	str	r7, [r3, #4]
 80084c8:	f7ff ffda 	bl	8008480 <system__bb__time__update_clock>
 80084cc:	4b1a      	ldr	r3, [pc, #104]	; (8008538 <system__bb__time__alarm_handler+0x88>)
 80084ce:	e9d3 4500 	ldrd	r4, r5, [r3]
 80084d2:	4680      	mov	r8, r0
 80084d4:	1824      	adds	r4, r4, r0
 80084d6:	4689      	mov	r9, r1
 80084d8:	414d      	adcs	r5, r1
 80084da:	f7ff fcdf 	bl	8007e9c <system__bb__timing_events__execute_expired_timing_events>
 80084de:	4640      	mov	r0, r8
 80084e0:	4649      	mov	r1, r9
 80084e2:	f7ff fdf5 	bl	80080d0 <system__bb__threads__queues__wakeup_expired_alarms>
 80084e6:	4b15      	ldr	r3, [pc, #84]	; (800853c <system__bb__time__alarm_handler+0x8c>)
 80084e8:	681b      	ldr	r3, [r3, #0]
 80084ea:	463e      	mov	r6, r7
 80084ec:	b10b      	cbz	r3, 80084f2 <system__bb__time__alarm_handler+0x42>
 80084ee:	6c9f      	ldr	r7, [r3, #72]	; 0x48
 80084f0:	6cde      	ldr	r6, [r3, #76]	; 0x4c
 80084f2:	4b13      	ldr	r3, [pc, #76]	; (8008540 <system__bb__time__alarm_handler+0x90>)
 80084f4:	681b      	ldr	r3, [r3, #0]
 80084f6:	b1b3      	cbz	r3, 8008526 <system__bb__time__alarm_handler+0x76>
 80084f8:	e9d3 2302 	ldrd	r2, r3, [r3, #8]
 80084fc:	42b5      	cmp	r5, r6
 80084fe:	bf08      	it	eq
 8008500:	42bc      	cmpeq	r4, r7
 8008502:	4631      	mov	r1, r6
 8008504:	bf38      	it	cc
 8008506:	4629      	movcc	r1, r5
 8008508:	4638      	mov	r0, r7
 800850a:	bf38      	it	cc
 800850c:	4620      	movcc	r0, r4
 800850e:	428b      	cmp	r3, r1
 8008510:	bf08      	it	eq
 8008512:	4282      	cmpeq	r2, r0
 8008514:	bf3c      	itt	cc
 8008516:	4619      	movcc	r1, r3
 8008518:	4610      	movcc	r0, r2
 800851a:	f7ff fef1 	bl	8008300 <system__bb__time__update_alarm>
 800851e:	e8bd 43f8 	ldmia.w	sp!, {r3, r4, r5, r6, r7, r8, r9, lr}
 8008522:	f000 bac5 	b.w	8008ab0 <system__bb__protection__leave_kernel>
 8008526:	f04f 32ff 	mov.w	r2, #4294967295
 800852a:	f04f 33ff 	mov.w	r3, #4294967295
 800852e:	e7e5      	b.n	80084fc <system__bb__time__alarm_handler+0x4c>
 8008530:	e000ed04 	.word	0xe000ed04
 8008534:	20000108 	.word	0x20000108
 8008538:	20000118 	.word	0x20000118
 800853c:	20000100 	.word	0x20000100
 8008540:	200000ec 	.word	0x200000ec

08008544 <system__bb__board_support__read_clock>:
 8008544:	f3ef 8210 	mrs	r2, PRIMASK
 8008548:	2301      	movs	r3, #1
 800854a:	f383 8810 	msr	PRIMASK, r3
 800854e:	4b0a      	ldr	r3, [pc, #40]	; (8008578 <system__bb__board_support__read_clock+0x34>)
 8008550:	6898      	ldr	r0, [r3, #8]
 8008552:	681b      	ldr	r3, [r3, #0]
 8008554:	03db      	lsls	r3, r3, #15
 8008556:	d405      	bmi.n	8008564 <system__bb__board_support__read_clock+0x20>
 8008558:	4b08      	ldr	r3, [pc, #32]	; (800857c <system__bb__board_support__read_clock+0x38>)
 800855a:	681b      	ldr	r3, [r3, #0]
 800855c:	1a18      	subs	r0, r3, r0
 800855e:	f382 8810 	msr	PRIMASK, r2
 8008562:	4770      	bx	lr
 8008564:	4905      	ldr	r1, [pc, #20]	; (800857c <system__bb__board_support__read_clock+0x38>)
 8008566:	6808      	ldr	r0, [r1, #0]
 8008568:	680b      	ldr	r3, [r1, #0]
 800856a:	f503 339c 	add.w	r3, r3, #79872	; 0x13800
 800856e:	3380      	adds	r3, #128	; 0x80
 8008570:	600b      	str	r3, [r1, #0]
 8008572:	f382 8810 	msr	PRIMASK, r2
 8008576:	4770      	bx	lr
 8008578:	e000e010 	.word	0xe000e010
 800857c:	20000770 	.word	0x20000770

08008580 <system__bb__board_support__set_alarm>:
 8008580:	b510      	push	{r4, lr}
 8008582:	4604      	mov	r4, r0
 8008584:	f7ff ffde 	bl	8008544 <system__bb__board_support__read_clock>
 8008588:	f06f 4300 	mvn.w	r3, #2147483648	; 0x80000000
 800858c:	4a05      	ldr	r2, [pc, #20]	; (80085a4 <system__bb__board_support__set_alarm+0x24>)
 800858e:	429c      	cmp	r4, r3
 8008590:	bf94      	ite	ls
 8008592:	1900      	addls	r0, r0, r4
 8008594:	18c0      	addhi	r0, r0, r3
 8008596:	6010      	str	r0, [r2, #0]
 8008598:	b91c      	cbnz	r4, 80085a2 <system__bb__board_support__set_alarm+0x22>
 800859a:	4b03      	ldr	r3, [pc, #12]	; (80085a8 <system__bb__board_support__set_alarm+0x28>)
 800859c:	f04f 6280 	mov.w	r2, #67108864	; 0x4000000
 80085a0:	601a      	str	r2, [r3, #0]
 80085a2:	bd10      	pop	{r4, pc}
 80085a4:	2000076c 	.word	0x2000076c
 80085a8:	e000ed04 	.word	0xe000ed04

080085ac <system__bb__board_support__initialize_board>:
 80085ac:	b570      	push	{r4, r5, r6, lr}
 80085ae:	b672      	cpsid	i
 80085b0:	4b0d      	ldr	r3, [pc, #52]	; (80085e8 <system__bb__board_support__initialize_board+0x3c>)
 80085b2:	4a0e      	ldr	r2, [pc, #56]	; (80085ec <system__bb__board_support__initialize_board+0x40>)
 80085b4:	4e0e      	ldr	r6, [pc, #56]	; (80085f0 <system__bb__board_support__initialize_board+0x44>)
 80085b6:	490f      	ldr	r1, [pc, #60]	; (80085f4 <system__bb__board_support__initialize_board+0x48>)
 80085b8:	2004      	movs	r0, #4
 80085ba:	2400      	movs	r4, #0
 80085bc:	2505      	movs	r5, #5
 80085be:	6018      	str	r0, [r3, #0]
 80085c0:	605e      	str	r6, [r3, #4]
 80085c2:	f04f 30ff 	mov.w	r0, #4294967295
 80085c6:	609c      	str	r4, [r3, #8]
 80085c8:	601d      	str	r5, [r3, #0]
 80085ca:	6011      	str	r1, [r2, #0]
 80085cc:	f7ff ffd8 	bl	8008580 <system__bb__board_support__set_alarm>
 80085d0:	4b09      	ldr	r3, [pc, #36]	; (80085f8 <system__bb__board_support__initialize_board+0x4c>)
 80085d2:	f04f 7200 	mov.w	r2, #33554432	; 0x2000000
 80085d6:	601a      	str	r2, [r3, #0]
 80085d8:	f384 8811 	msr	BASEPRI, r4
 80085dc:	b662      	cpsie	i
 80085de:	f3bf 8f4f 	dsb	sy
 80085e2:	f3bf 8f6f 	isb	sy
 80085e6:	bd70      	pop	{r4, r5, r6, pc}
 80085e8:	e000e010 	.word	0xe000e010
 80085ec:	20000770 	.word	0x20000770
 80085f0:	0001387f 	.word	0x0001387f
 80085f4:	00013880 	.word	0x00013880
 80085f8:	e000ed04 	.word	0xe000ed04

080085fc <system__bb__board_support__enable_interrupt_request>:
 80085fc:	2801      	cmp	r0, #1
 80085fe:	d013      	beq.n	8008628 <system__bb__board_support__enable_interrupt_request+0x2c>
 8008600:	4b11      	ldr	r3, [pc, #68]	; (8008648 <system__bb__board_support__enable_interrupt_request+0x4c>)
 8008602:	1e81      	subs	r1, r0, #2
 8008604:	2900      	cmp	r1, #0
 8008606:	ea03 0301 	and.w	r3, r3, r1
 800860a:	460a      	mov	r2, r1
 800860c:	bfb8      	it	lt
 800860e:	f100 021d 	addlt.w	r2, r0, #29
 8008612:	2b00      	cmp	r3, #0
 8008614:	ea4f 1262 	mov.w	r2, r2, asr #5
 8008618:	db10      	blt.n	800863c <system__bb__board_support__enable_interrupt_request+0x40>
 800861a:	2101      	movs	r1, #1
 800861c:	480b      	ldr	r0, [pc, #44]	; (800864c <system__bb__board_support__enable_interrupt_request+0x50>)
 800861e:	fa01 f303 	lsl.w	r3, r1, r3
 8008622:	f840 3022 	str.w	r3, [r0, r2, lsl #2]
 8008626:	4770      	bx	lr
 8008628:	4b09      	ldr	r3, [pc, #36]	; (8008650 <system__bb__board_support__enable_interrupt_request+0x54>)
 800862a:	4a0a      	ldr	r2, [pc, #40]	; (8008654 <system__bb__board_support__enable_interrupt_request+0x58>)
 800862c:	f04f 7100 	mov.w	r1, #33554432	; 0x2000000
 8008630:	6019      	str	r1, [r3, #0]
 8008632:	6813      	ldr	r3, [r2, #0]
 8008634:	f043 0302 	orr.w	r3, r3, #2
 8008638:	6013      	str	r3, [r2, #0]
 800863a:	4770      	bx	lr
 800863c:	3b01      	subs	r3, #1
 800863e:	f063 031f 	orn	r3, r3, #31
 8008642:	3301      	adds	r3, #1
 8008644:	e7e9      	b.n	800861a <system__bb__board_support__enable_interrupt_request+0x1e>
 8008646:	bf00      	nop
 8008648:	8000001f 	.word	0x8000001f
 800864c:	e000e100 	.word	0xe000e100
 8008650:	e000ed04 	.word	0xe000ed04
 8008654:	e000e010 	.word	0xe000e010

08008658 <system__bb__board_support__install_interrupt_handler>:
 8008658:	b570      	push	{r4, r5, r6, lr}
 800865a:	2901      	cmp	r1, #1
 800865c:	460c      	mov	r4, r1
 800865e:	4615      	mov	r5, r2
 8008660:	d018      	beq.n	8008694 <system__bb__board_support__install_interrupt_handler+0x3c>
 8008662:	f1a5 03f1 	sub.w	r3, r5, #241	; 0xf1
 8008666:	2b0e      	cmp	r3, #14
 8008668:	bf98      	it	ls
 800866a:	ebc5 1305 	rsbls	r3, r5, r5, lsl #4
 800866e:	f1a1 0102 	sub.w	r1, r1, #2
 8008672:	bf98      	it	ls
 8008674:	011b      	lslls	r3, r3, #4
 8008676:	4e0a      	ldr	r6, [pc, #40]	; (80086a0 <system__bb__board_support__install_interrupt_handler+0x48>)
 8008678:	bf94      	ite	ls
 800867a:	b2db      	uxtbls	r3, r3
 800867c:	2300      	movhi	r3, #0
 800867e:	5473      	strb	r3, [r6, r1]
 8008680:	2200      	movs	r2, #0
 8008682:	2110      	movs	r1, #16
 8008684:	f000 f996 	bl	80089b4 <system__bb__cpu_primitives__install_trap_handler>
 8008688:	4620      	mov	r0, r4
 800868a:	4629      	mov	r1, r5
 800868c:	e8bd 4070 	ldmia.w	sp!, {r4, r5, r6, lr}
 8008690:	f7ff bfb4 	b.w	80085fc <system__bb__board_support__enable_interrupt_request>
 8008694:	210f      	movs	r1, #15
 8008696:	2200      	movs	r2, #0
 8008698:	f000 f98c 	bl	80089b4 <system__bb__cpu_primitives__install_trap_handler>
 800869c:	e7f4      	b.n	8008688 <system__bb__board_support__install_interrupt_handler+0x30>
 800869e:	bf00      	nop
 80086a0:	e000e400 	.word	0xe000e400

080086a4 <__gnat_get_secondary_stack>:
 80086a4:	4b02      	ldr	r3, [pc, #8]	; (80086b0 <__gnat_get_secondary_stack+0xc>)
 80086a6:	681b      	ldr	r3, [r3, #0]
 80086a8:	6a9b      	ldr	r3, [r3, #40]	; 0x28
 80086aa:	f8d3 0098 	ldr.w	r0, [r3, #152]	; 0x98
 80086ae:	4770      	bx	lr
 80086b0:	20000104 	.word	0x20000104

080086b4 <system__tasking__initialize_atcb>:
 80086b4:	b5f8      	push	{r3, r4, r5, r6, r7, lr}
 80086b6:	9c09      	ldr	r4, [sp, #36]	; 0x24
 80086b8:	f89d 7018 	ldrb.w	r7, [sp, #24]
 80086bc:	9e07      	ldr	r6, [sp, #28]
 80086be:	2500      	movs	r5, #0
 80086c0:	7225      	strb	r5, [r4, #8]
 80086c2:	7263      	strb	r3, [r4, #9]
 80086c4:	60e2      	str	r2, [r4, #12]
 80086c6:	6125      	str	r5, [r4, #16]
 80086c8:	f8c4 008c 	str.w	r0, [r4, #140]	; 0x8c
 80086cc:	f8c4 1088 	str.w	r1, [r4, #136]	; 0x88
 80086d0:	f884 7248 	strb.w	r7, [r4, #584]	; 0x248
 80086d4:	f8c4 6090 	str.w	r6, [r4, #144]	; 0x90
 80086d8:	9808      	ldr	r0, [sp, #32]
 80086da:	f002 fc1f 	bl	800af1c <system__parameters__adjust_storage_size>
 80086de:	2301      	movs	r3, #1
 80086e0:	f8c4 0094 	str.w	r0, [r4, #148]	; 0x94
 80086e4:	4618      	mov	r0, r3
 80086e6:	bdf8      	pop	{r3, r4, r5, r6, r7, pc}

080086e8 <system__tasking__initialize>:
 80086e8:	4b3d      	ldr	r3, [pc, #244]	; (80087e0 <system__tasking__initialize+0xf8>)
 80086ea:	781a      	ldrb	r2, [r3, #0]
 80086ec:	2a00      	cmp	r2, #0
 80086ee:	d16d      	bne.n	80087cc <system__tasking__initialize+0xe4>
 80086f0:	b5f0      	push	{r4, r5, r6, r7, lr}
 80086f2:	b085      	sub	sp, #20
 80086f4:	4a3b      	ldr	r2, [pc, #236]	; (80087e4 <system__tasking__initialize+0xfc>)
 80086f6:	4c3c      	ldr	r4, [pc, #240]	; (80087e8 <system__tasking__initialize+0x100>)
 80086f8:	6811      	ldr	r1, [r2, #0]
 80086fa:	2001      	movs	r0, #1
 80086fc:	7018      	strb	r0, [r3, #0]
 80086fe:	2500      	movs	r5, #0
 8008700:	3101      	adds	r1, #1
 8008702:	f04f 0302 	mov.w	r3, #2
 8008706:	bf18      	it	ne
 8008708:	6812      	ldrne	r2, [r2, #0]
 800870a:	9502      	str	r5, [sp, #8]
 800870c:	bf08      	it	eq
 800870e:	2278      	moveq	r2, #120	; 0x78
 8008710:	e88d 0028 	stmia.w	sp, {r3, r5}
 8008714:	4629      	mov	r1, r5
 8008716:	2301      	movs	r3, #1
 8008718:	4628      	mov	r0, r5
 800871a:	9403      	str	r4, [sp, #12]
 800871c:	f7ff ffca 	bl	80086b4 <system__tasking__initialize_atcb>
 8008720:	f104 0318 	add.w	r3, r4, #24
 8008724:	f8c4 3080 	str.w	r3, [r4, #128]	; 0x80
 8008728:	68e1      	ldr	r1, [r4, #12]
 800872a:	f8d4 0080 	ldr.w	r0, [r4, #128]	; 0x80
 800872e:	f8c4 5244 	str.w	r5, [r4, #580]	; 0x244
 8008732:	f000 faff 	bl	8008d34 <system__bb__threads__initialize>
 8008736:	4b2d      	ldr	r3, [pc, #180]	; (80087ec <system__tasking__initialize+0x104>)
 8008738:	f8d4 1080 	ldr.w	r1, [r4, #128]	; 0x80
 800873c:	681a      	ldr	r2, [r3, #0]
 800873e:	628c      	str	r4, [r1, #40]	; 0x28
 8008740:	f8c4 5084 	str.w	r5, [r4, #132]	; 0x84
 8008744:	2a00      	cmp	r2, #0
 8008746:	d042      	beq.n	80087ce <system__tasking__initialize+0xe6>
 8008748:	f8c2 4244 	str.w	r4, [r2, #580]	; 0x244
 800874c:	601c      	str	r4, [r3, #0]
 800874e:	b672      	cpsid	i
 8008750:	4b27      	ldr	r3, [pc, #156]	; (80087f0 <system__tasking__initialize+0x108>)
 8008752:	68e1      	ldr	r1, [r4, #12]
 8008754:	6818      	ldr	r0, [r3, #0]
 8008756:	4e27      	ldr	r6, [pc, #156]	; (80087f4 <system__tasking__initialize+0x10c>)
 8008758:	f7ff fc52 	bl	8008000 <system__bb__threads__queues__change_priority>
 800875c:	f000 f9a8 	bl	8008ab0 <system__bb__protection__leave_kernel>
 8008760:	4925      	ldr	r1, [pc, #148]	; (80087f8 <system__tasking__initialize+0x110>)
 8008762:	4b26      	ldr	r3, [pc, #152]	; (80087fc <system__tasking__initialize+0x114>)
 8008764:	4a26      	ldr	r2, [pc, #152]	; (8008800 <system__tasking__initialize+0x118>)
 8008766:	601a      	str	r2, [r3, #0]
 8008768:	2001      	movs	r0, #1
 800876a:	4635      	mov	r5, r6
 800876c:	600c      	str	r4, [r1, #0]
 800876e:	f000 f969 	bl	8008a44 <system__task_primitives__operations__initialize_idle>
 8008772:	f1a6 0368 	sub.w	r3, r6, #104	; 0x68
 8008776:	6033      	str	r3, [r6, #0]
 8008778:	f855 0980 	ldr.w	r0, [r5], #-128
 800877c:	4921      	ldr	r1, [pc, #132]	; (8008804 <system__tasking__initialize+0x11c>)
 800877e:	f8d5 2090 	ldr.w	r2, [r5, #144]	; 0x90
 8008782:	f8d5 3094 	ldr.w	r3, [r5, #148]	; 0x94
 8008786:	9302      	str	r3, [sp, #8]
 8008788:	2701      	movs	r7, #1
 800878a:	9201      	str	r2, [sp, #4]
 800878c:	f04f 33ff 	mov.w	r3, #4294967295
 8008790:	462a      	mov	r2, r5
 8008792:	9700      	str	r7, [sp, #0]
 8008794:	f000 fb5a 	bl	8008e4c <system__bb__threads__thread_create>
 8008798:	6832      	ldr	r2, [r6, #0]
 800879a:	4b1b      	ldr	r3, [pc, #108]	; (8008808 <system__tasking__initialize+0x120>)
 800879c:	6295      	str	r5, [r2, #40]	; 0x28
 800879e:	4618      	mov	r0, r3
 80087a0:	7227      	strb	r7, [r4, #8]
 80087a2:	f44f 5120 	mov.w	r1, #10240	; 0x2800
 80087a6:	f8c4 3098 	str.w	r3, [r4, #152]	; 0x98
 80087aa:	f8c4 4250 	str.w	r4, [r4, #592]	; 0x250
 80087ae:	f002 fcdf 	bl	800b170 <system__secondary_stack__ss_init>
 80087b2:	4916      	ldr	r1, [pc, #88]	; (800880c <system__tasking__initialize+0x124>)
 80087b4:	4b16      	ldr	r3, [pc, #88]	; (8008810 <system__tasking__initialize+0x128>)
 80087b6:	6808      	ldr	r0, [r1, #0]
 80087b8:	2200      	movs	r2, #0
 80087ba:	3001      	adds	r0, #1
 80087bc:	601a      	str	r2, [r3, #0]
 80087be:	605a      	str	r2, [r3, #4]
 80087c0:	d002      	beq.n	80087c8 <system__tasking__initialize+0xe0>
 80087c2:	680b      	ldr	r3, [r1, #0]
 80087c4:	42bb      	cmp	r3, r7
 80087c6:	d105      	bne.n	80087d4 <system__tasking__initialize+0xec>
 80087c8:	b005      	add	sp, #20
 80087ca:	bdf0      	pop	{r4, r5, r6, r7, pc}
 80087cc:	4770      	bx	lr
 80087ce:	4a11      	ldr	r2, [pc, #68]	; (8008814 <system__tasking__initialize+0x12c>)
 80087d0:	6014      	str	r4, [r2, #0]
 80087d2:	e7bb      	b.n	800874c <system__tasking__initialize+0x64>
 80087d4:	4a10      	ldr	r2, [pc, #64]	; (8008818 <system__tasking__initialize+0x130>)
 80087d6:	4811      	ldr	r0, [pc, #68]	; (800881c <system__tasking__initialize+0x134>)
 80087d8:	f102 033c 	add.w	r3, r2, #60	; 0x3c
 80087dc:	f002 f8c0 	bl	800a960 <__gnat_raise_exception>
 80087e0:	20000128 	.word	0x20000128
 80087e4:	20000124 	.word	0x20000124
 80087e8:	20000778 	.word	0x20000778
 80087ec:	20000148 	.word	0x20000148
 80087f0:	20000104 	.word	0x20000104
 80087f4:	200032a0 	.word	0x200032a0
 80087f8:	20000138 	.word	0x20000138
 80087fc:	2000321c 	.word	0x2000321c
 8008800:	20003c80 	.word	0x20003c80
 8008804:	08008a31 	.word	0x08008a31
 8008808:	200009d8 	.word	0x200009d8
 800880c:	20000134 	.word	0x20000134
 8008810:	2000012c 	.word	0x2000012c
 8008814:	20000144 	.word	0x20000144
 8008818:	0800f4a0 	.word	0x0800f4a0
 800881c:	200001f4 	.word	0x200001f4

08008820 <system__bb__cpu_primitives__gnat_error_handler>:
 8008820:	b508      	push	{r3, lr}
 8008822:	b240      	sxtb	r0, r0
 8008824:	3801      	subs	r0, #1
 8008826:	2805      	cmp	r0, #5
 8008828:	d822      	bhi.n	8008870 <system__bb__cpu_primitives__gnat_error_handler+0x50>
 800882a:	e8df f000 	tbb	[pc, r0]
 800882e:	0f09      	.short	0x0f09
 8008830:	031b2115 	.word	0x031b2115
 8008834:	4a11      	ldr	r2, [pc, #68]	; (800887c <system__bb__cpu_primitives__gnat_error_handler+0x5c>)
 8008836:	4812      	ldr	r0, [pc, #72]	; (8008880 <system__bb__cpu_primitives__gnat_error_handler+0x60>)
 8008838:	f102 0338 	add.w	r3, r2, #56	; 0x38
 800883c:	f002 f890 	bl	800a960 <__gnat_raise_exception>
 8008840:	4a10      	ldr	r2, [pc, #64]	; (8008884 <system__bb__cpu_primitives__gnat_error_handler+0x64>)
 8008842:	4811      	ldr	r0, [pc, #68]	; (8008888 <system__bb__cpu_primitives__gnat_error_handler+0x68>)
 8008844:	f102 0340 	add.w	r3, r2, #64	; 0x40
 8008848:	f002 f88a 	bl	800a960 <__gnat_raise_exception>
 800884c:	4a0f      	ldr	r2, [pc, #60]	; (800888c <system__bb__cpu_primitives__gnat_error_handler+0x6c>)
 800884e:	480e      	ldr	r0, [pc, #56]	; (8008888 <system__bb__cpu_primitives__gnat_error_handler+0x68>)
 8008850:	f102 0344 	add.w	r3, r2, #68	; 0x44
 8008854:	f002 f884 	bl	800a960 <__gnat_raise_exception>
 8008858:	4a0d      	ldr	r2, [pc, #52]	; (8008890 <system__bb__cpu_primitives__gnat_error_handler+0x70>)
 800885a:	480b      	ldr	r0, [pc, #44]	; (8008888 <system__bb__cpu_primitives__gnat_error_handler+0x68>)
 800885c:	f102 0338 	add.w	r3, r2, #56	; 0x38
 8008860:	f002 f87e 	bl	800a960 <__gnat_raise_exception>
 8008864:	4a0b      	ldr	r2, [pc, #44]	; (8008894 <system__bb__cpu_primitives__gnat_error_handler+0x74>)
 8008866:	4808      	ldr	r0, [pc, #32]	; (8008888 <system__bb__cpu_primitives__gnat_error_handler+0x68>)
 8008868:	f102 0338 	add.w	r3, r2, #56	; 0x38
 800886c:	f002 f878 	bl	800a960 <__gnat_raise_exception>
 8008870:	4a09      	ldr	r2, [pc, #36]	; (8008898 <system__bb__cpu_primitives__gnat_error_handler+0x78>)
 8008872:	4805      	ldr	r0, [pc, #20]	; (8008888 <system__bb__cpu_primitives__gnat_error_handler+0x68>)
 8008874:	f102 033c 	add.w	r3, r2, #60	; 0x3c
 8008878:	f002 f872 	bl	800a960 <__gnat_raise_exception>
 800887c:	0800f5f8 	.word	0x0800f5f8
 8008880:	20000278 	.word	0x20000278
 8008884:	0800f4e4 	.word	0x0800f4e4
 8008888:	2000025c 	.word	0x2000025c
 800888c:	0800f52c 	.word	0x0800f52c
 8008890:	0800f578 	.word	0x0800f578
 8008894:	0800f5b8 	.word	0x0800f5b8
 8008898:	0800f638 	.word	0x0800f638

0800889c <__gnat_irq_trap>:
 800889c:	b508      	push	{r3, lr}
 800889e:	4b10      	ldr	r3, [pc, #64]	; (80088e0 <__gnat_irq_trap+0x44>)
 80088a0:	2010      	movs	r0, #16
 80088a2:	6c1b      	ldr	r3, [r3, #64]	; 0x40
 80088a4:	4798      	blx	r3
 80088a6:	4a0f      	ldr	r2, [pc, #60]	; (80088e4 <__gnat_irq_trap+0x48>)
 80088a8:	4b0f      	ldr	r3, [pc, #60]	; (80088e8 <__gnat_irq_trap+0x4c>)
 80088aa:	6811      	ldr	r1, [r2, #0]
 80088ac:	681a      	ldr	r2, [r3, #0]
 80088ae:	4291      	cmp	r1, r2
 80088b0:	d003      	beq.n	80088ba <__gnat_irq_trap+0x1e>
 80088b2:	4a0e      	ldr	r2, [pc, #56]	; (80088ec <__gnat_irq_trap+0x50>)
 80088b4:	f04f 5180 	mov.w	r1, #268435456	; 0x10000000
 80088b8:	6011      	str	r1, [r2, #0]
 80088ba:	681b      	ldr	r3, [r3, #0]
 80088bc:	6b5b      	ldr	r3, [r3, #52]	; 0x34
 80088be:	f1a3 02f1 	sub.w	r2, r3, #241	; 0xf1
 80088c2:	2a0e      	cmp	r2, #14
 80088c4:	bf9d      	ittte	ls
 80088c6:	ebc3 1303 	rsbls	r3, r3, r3, lsl #4
 80088ca:	011b      	lslls	r3, r3, #4
 80088cc:	b2db      	uxtbls	r3, r3
 80088ce:	2300      	movhi	r3, #0
 80088d0:	f383 8811 	msr	BASEPRI, r3
 80088d4:	b662      	cpsie	i
 80088d6:	f3bf 8f4f 	dsb	sy
 80088da:	f3bf 8f6f 	isb	sy
 80088de:	bd08      	pop	{r3, pc}
 80088e0:	200031d8 	.word	0x200031d8
 80088e4:	200000f8 	.word	0x200000f8
 80088e8:	20000104 	.word	0x20000104
 80088ec:	e000ed04 	.word	0xe000ed04

080088f0 <__gnat_pend_sv_trap>:
 80088f0:	f240 1204 	movw	r2, #260	; 0x104
 80088f4:	f2c2 0200 	movt	r2, #8192	; 0x2000
 80088f8:	f3ef 8c09 	mrs	ip, PSP
 80088fc:	6813      	ldr	r3, [r2, #0]
 80088fe:	f01e 0f10 	tst.w	lr, #16
 8008902:	bf06      	itte	eq
 8008904:	ed2c 8a10 	vstmdbeq	ip!, {s16-s31}
 8008908:	f10c 0c01 	addeq.w	ip, ip, #1
 800890c:	f1ae 0e10 	subne.w	lr, lr, #16
 8008910:	e883 1ff0 	stmia.w	r3, {r4, r5, r6, r7, r8, r9, sl, fp, ip}
 8008914:	f240 03f8 	movw	r3, #248	; 0xf8
 8008918:	f2c2 0300 	movt	r3, #8192	; 0x2000
 800891c:	681b      	ldr	r3, [r3, #0]
 800891e:	6013      	str	r3, [r2, #0]
 8008920:	e893 1ff0 	ldmia.w	r3, {r4, r5, r6, r7, r8, r9, sl, fp, ip}
 8008924:	f01c 0f01 	tst.w	ip, #1
 8008928:	bf1a      	itte	ne
 800892a:	f1ac 0c01 	subne.w	ip, ip, #1
 800892e:	ecbc 8a10 	vldmiane	ip!, {s16-s31}
 8008932:	f10e 0e10 	addeq.w	lr, lr, #16
 8008936:	f38c 8809 	msr	PSP, ip
 800893a:	4770      	bx	lr

0800893c <__gnat_sv_call_trap>:
 800893c:	b508      	push	{r3, lr}
 800893e:	200b      	movs	r0, #11
 8008940:	f7ff ff6e 	bl	8008820 <system__bb__cpu_primitives__gnat_error_handler>

08008944 <__gnat_sys_tick_trap>:
 8008944:	b508      	push	{r3, lr}
 8008946:	f7ff fdfd 	bl	8008544 <system__bb__board_support__read_clock>
 800894a:	4a15      	ldr	r2, [pc, #84]	; (80089a0 <__gnat_sys_tick_trap+0x5c>)
 800894c:	6813      	ldr	r3, [r2, #0]
 800894e:	1a1b      	subs	r3, r3, r0
 8008950:	2b00      	cmp	r3, #0
 8008952:	db00      	blt.n	8008956 <__gnat_sys_tick_trap+0x12>
 8008954:	bd08      	pop	{r3, pc}
 8008956:	f100 4000 	add.w	r0, r0, #2147483648	; 0x80000000
 800895a:	3801      	subs	r0, #1
 800895c:	4b11      	ldr	r3, [pc, #68]	; (80089a4 <__gnat_sys_tick_trap+0x60>)
 800895e:	6010      	str	r0, [r2, #0]
 8008960:	6bdb      	ldr	r3, [r3, #60]	; 0x3c
 8008962:	200f      	movs	r0, #15
 8008964:	4798      	blx	r3
 8008966:	4a10      	ldr	r2, [pc, #64]	; (80089a8 <__gnat_sys_tick_trap+0x64>)
 8008968:	4b10      	ldr	r3, [pc, #64]	; (80089ac <__gnat_sys_tick_trap+0x68>)
 800896a:	6811      	ldr	r1, [r2, #0]
 800896c:	681a      	ldr	r2, [r3, #0]
 800896e:	4291      	cmp	r1, r2
 8008970:	d003      	beq.n	800897a <__gnat_sys_tick_trap+0x36>
 8008972:	4a0f      	ldr	r2, [pc, #60]	; (80089b0 <__gnat_sys_tick_trap+0x6c>)
 8008974:	f04f 5180 	mov.w	r1, #268435456	; 0x10000000
 8008978:	6011      	str	r1, [r2, #0]
 800897a:	681b      	ldr	r3, [r3, #0]
 800897c:	6b5b      	ldr	r3, [r3, #52]	; 0x34
 800897e:	f1a3 02f1 	sub.w	r2, r3, #241	; 0xf1
 8008982:	2a0e      	cmp	r2, #14
 8008984:	bf9d      	ittte	ls
 8008986:	ebc3 1303 	rsbls	r3, r3, r3, lsl #4
 800898a:	011b      	lslls	r3, r3, #4
 800898c:	b2db      	uxtbls	r3, r3
 800898e:	2300      	movhi	r3, #0
 8008990:	f383 8811 	msr	BASEPRI, r3
 8008994:	b662      	cpsie	i
 8008996:	f3bf 8f4f 	dsb	sy
 800899a:	f3bf 8f6f 	isb	sy
 800899e:	bd08      	pop	{r3, pc}
 80089a0:	2000076c 	.word	0x2000076c
 80089a4:	200031d8 	.word	0x200031d8
 80089a8:	200000f8 	.word	0x200000f8
 80089ac:	20000104 	.word	0x20000104
 80089b0:	e000ed04 	.word	0xe000ed04

080089b4 <system__bb__cpu_primitives__install_trap_handler>:
 80089b4:	b249      	sxtb	r1, r1
 80089b6:	4b02      	ldr	r3, [pc, #8]	; (80089c0 <system__bb__cpu_primitives__install_trap_handler+0xc>)
 80089b8:	f843 0021 	str.w	r0, [r3, r1, lsl #2]
 80089bc:	4770      	bx	lr
 80089be:	bf00      	nop
 80089c0:	200031d8 	.word	0x200031d8

080089c4 <ada__real_time__delays__delay_until>:
 80089c4:	b510      	push	{r4, lr}
 80089c6:	4b09      	ldr	r3, [pc, #36]	; (80089ec <ada__real_time__delays__delay_until+0x28>)
 80089c8:	681a      	ldr	r2, [r3, #0]
 80089ca:	6a92      	ldr	r2, [r2, #40]	; 0x28
 80089cc:	6912      	ldr	r2, [r2, #16]
 80089ce:	2a00      	cmp	r2, #0
 80089d0:	dc08      	bgt.n	80089e4 <ada__real_time__delays__delay_until+0x20>
 80089d2:	681b      	ldr	r3, [r3, #0]
 80089d4:	6a9c      	ldr	r4, [r3, #40]	; 0x28
 80089d6:	2307      	movs	r3, #7
 80089d8:	7223      	strb	r3, [r4, #8]
 80089da:	f7ff fcdb 	bl	8008394 <system__bb__time__delay_until>
 80089de:	2301      	movs	r3, #1
 80089e0:	7223      	strb	r3, [r4, #8]
 80089e2:	bd10      	pop	{r4, pc}
 80089e4:	4802      	ldr	r0, [pc, #8]	; (80089f0 <ada__real_time__delays__delay_until+0x2c>)
 80089e6:	212e      	movs	r1, #46	; 0x2e
 80089e8:	f002 f83c 	bl	800aa64 <__gnat_rcheck_PE_Explicit_Raise>
 80089ec:	20000104 	.word	0x20000104
 80089f0:	0800f67c 	.word	0x0800f67c

080089f4 <system__task_primitives__operations__enter_task>:
 80089f4:	b508      	push	{r3, lr}
 80089f6:	4b0b      	ldr	r3, [pc, #44]	; (8008a24 <system__task_primitives__operations__enter_task+0x30>)
 80089f8:	681a      	ldr	r2, [r3, #0]
 80089fa:	2100      	movs	r1, #0
 80089fc:	f8c0 1084 	str.w	r1, [r0, #132]	; 0x84
 8008a00:	b162      	cbz	r2, 8008a1c <system__task_primitives__operations__enter_task+0x28>
 8008a02:	f8c2 0244 	str.w	r0, [r2, #580]	; 0x244
 8008a06:	6018      	str	r0, [r3, #0]
 8008a08:	68c1      	ldr	r1, [r0, #12]
 8008a0a:	b672      	cpsid	i
 8008a0c:	4b06      	ldr	r3, [pc, #24]	; (8008a28 <system__task_primitives__operations__enter_task+0x34>)
 8008a0e:	6818      	ldr	r0, [r3, #0]
 8008a10:	f7ff faf6 	bl	8008000 <system__bb__threads__queues__change_priority>
 8008a14:	e8bd 4008 	ldmia.w	sp!, {r3, lr}
 8008a18:	f000 b84a 	b.w	8008ab0 <system__bb__protection__leave_kernel>
 8008a1c:	4a03      	ldr	r2, [pc, #12]	; (8008a2c <system__task_primitives__operations__enter_task+0x38>)
 8008a1e:	6010      	str	r0, [r2, #0]
 8008a20:	e7f1      	b.n	8008a06 <system__task_primitives__operations__enter_task+0x12>
 8008a22:	bf00      	nop
 8008a24:	20000148 	.word	0x20000148
 8008a28:	20000104 	.word	0x20000104
 8008a2c:	20000144 	.word	0x20000144

08008a30 <system__task_primitives__operations__idle>:
 8008a30:	b508      	push	{r3, lr}
 8008a32:	4b03      	ldr	r3, [pc, #12]	; (8008a40 <system__task_primitives__operations__idle+0x10>)
 8008a34:	681b      	ldr	r3, [r3, #0]
 8008a36:	6a98      	ldr	r0, [r3, #40]	; 0x28
 8008a38:	f7ff ffdc 	bl	80089f4 <system__task_primitives__operations__enter_task>
 8008a3c:	bf30      	wfi
 8008a3e:	e7fd      	b.n	8008a3c <system__task_primitives__operations__idle+0xc>
 8008a40:	20000104 	.word	0x20000104

08008a44 <system__task_primitives__operations__initialize_idle>:
 8008a44:	b5f0      	push	{r4, r5, r6, r7, lr}
 8008a46:	b085      	sub	sp, #20
 8008a48:	b246      	sxtb	r6, r0
 8008a4a:	f44f 7418 	mov.w	r4, #608	; 0x260
 8008a4e:	4914      	ldr	r1, [pc, #80]	; (8008aa0 <system__task_primitives__operations__initialize_idle+0x5c>)
 8008a50:	4d14      	ldr	r5, [pc, #80]	; (8008aa4 <system__task_primitives__operations__initialize_idle+0x60>)
 8008a52:	4a15      	ldr	r2, [pc, #84]	; (8008aa8 <system__task_primitives__operations__initialize_idle+0x64>)
 8008a54:	fb04 f406 	mul.w	r4, r4, r6
 8008a58:	4431      	add	r1, r6
 8008a5a:	f5a4 7618 	sub.w	r6, r4, #608	; 0x260
 8008a5e:	eb02 22c1 	add.w	r2, r2, r1, lsl #11
 8008a62:	442e      	add	r6, r5
 8008a64:	2702      	movs	r7, #2
 8008a66:	f44f 6100 	mov.w	r1, #2048	; 0x800
 8008a6a:	4603      	mov	r3, r0
 8008a6c:	9201      	str	r2, [sp, #4]
 8008a6e:	9102      	str	r1, [sp, #8]
 8008a70:	9603      	str	r6, [sp, #12]
 8008a72:	9700      	str	r7, [sp, #0]
 8008a74:	2100      	movs	r1, #0
 8008a76:	f04f 32ff 	mov.w	r2, #4294967295
 8008a7a:	480c      	ldr	r0, [pc, #48]	; (8008aac <system__task_primitives__operations__initialize_idle+0x68>)
 8008a7c:	f7ff fe1a 	bl	80086b4 <system__tasking__initialize_atcb>
 8008a80:	f5a4 70f0 	sub.w	r0, r4, #480	; 0x1e0
 8008a84:	1929      	adds	r1, r5, r4
 8008a86:	f5a4 7312 	sub.w	r3, r4, #584	; 0x248
 8008a8a:	f5a4 7416 	sub.w	r4, r4, #600	; 0x258
 8008a8e:	442b      	add	r3, r5
 8008a90:	2201      	movs	r2, #1
 8008a92:	502b      	str	r3, [r5, r0]
 8008a94:	f841 6c10 	str.w	r6, [r1, #-16]
 8008a98:	552a      	strb	r2, [r5, r4]
 8008a9a:	b005      	add	sp, #20
 8008a9c:	bdf0      	pop	{r4, r5, r6, r7, pc}
 8008a9e:	bf00      	nop
 8008aa0:	001fffff 	.word	0x001fffff
 8008aa4:	20003220 	.word	0x20003220
 8008aa8:	20003480 	.word	0x20003480
 8008aac:	08008a31 	.word	0x08008a31

08008ab0 <system__bb__protection__leave_kernel>:
 8008ab0:	b510      	push	{r4, lr}
 8008ab2:	4b10      	ldr	r3, [pc, #64]	; (8008af4 <system__bb__protection__leave_kernel+0x44>)
 8008ab4:	4c10      	ldr	r4, [pc, #64]	; (8008af8 <system__bb__protection__leave_kernel+0x48>)
 8008ab6:	681a      	ldr	r2, [r3, #0]
 8008ab8:	6823      	ldr	r3, [r4, #0]
 8008aba:	429a      	cmp	r2, r3
 8008abc:	d007      	beq.n	8008ace <system__bb__protection__leave_kernel+0x1e>
 8008abe:	4b0f      	ldr	r3, [pc, #60]	; (8008afc <system__bb__protection__leave_kernel+0x4c>)
 8008ac0:	681b      	ldr	r3, [r3, #0]
 8008ac2:	b103      	cbz	r3, 8008ac6 <system__bb__protection__leave_kernel+0x16>
 8008ac4:	4798      	blx	r3
 8008ac6:	4b0e      	ldr	r3, [pc, #56]	; (8008b00 <system__bb__protection__leave_kernel+0x50>)
 8008ac8:	f04f 5280 	mov.w	r2, #268435456	; 0x10000000
 8008acc:	601a      	str	r2, [r3, #0]
 8008ace:	6823      	ldr	r3, [r4, #0]
 8008ad0:	6b5b      	ldr	r3, [r3, #52]	; 0x34
 8008ad2:	f1a3 02f1 	sub.w	r2, r3, #241	; 0xf1
 8008ad6:	2a0e      	cmp	r2, #14
 8008ad8:	bf9d      	ittte	ls
 8008ada:	ebc3 1303 	rsbls	r3, r3, r3, lsl #4
 8008ade:	011b      	lslls	r3, r3, #4
 8008ae0:	b2db      	uxtbls	r3, r3
 8008ae2:	2300      	movhi	r3, #0
 8008ae4:	f383 8811 	msr	BASEPRI, r3
 8008ae8:	b662      	cpsie	i
 8008aea:	f3bf 8f4f 	dsb	sy
 8008aee:	f3bf 8f6f 	isb	sy
 8008af2:	bd10      	pop	{r4, pc}
 8008af4:	200000f8 	.word	0x200000f8
 8008af8:	20000104 	.word	0x20000104
 8008afc:	20000120 	.word	0x20000120
 8008b00:	e000ed04 	.word	0xe000ed04

08008b04 <system__bb__interrupts__interrupt_wrapper>:
 8008b04:	e92d 4ff0 	stmdb	sp!, {r4, r5, r6, r7, r8, r9, sl, fp, lr}
 8008b08:	b083      	sub	sp, #12
 8008b0a:	4b3a      	ldr	r3, [pc, #232]	; (8008bf4 <system__bb__interrupts__interrupt_wrapper+0xf0>)
 8008b0c:	681d      	ldr	r5, [r3, #0]
 8008b0e:	280f      	cmp	r0, #15
 8008b10:	f8d5 8034 	ldr.w	r8, [r5, #52]	; 0x34
 8008b14:	d050      	beq.n	8008bb8 <system__bb__interrupts__interrupt_wrapper+0xb4>
 8008b16:	f3ef 8305 	mrs	r3, IPSR
 8008b1a:	b2db      	uxtb	r3, r3
 8008b1c:	f1a3 060e 	sub.w	r6, r3, #14
 8008b20:	2e01      	cmp	r6, #1
 8008b22:	d049      	beq.n	8008bb8 <system__bb__interrupts__interrupt_wrapper+0xb4>
 8008b24:	3b10      	subs	r3, #16
 8008b26:	4a34      	ldr	r2, [pc, #208]	; (8008bf8 <system__bb__interrupts__interrupt_wrapper+0xf4>)
 8008b28:	5cd3      	ldrb	r3, [r2, r3]
 8008b2a:	f003 04ff 	and.w	r4, r3, #255	; 0xff
 8008b2e:	b95b      	cbnz	r3, 8008b48 <system__bb__interrupts__interrupt_wrapper+0x44>
 8008b30:	24ff      	movs	r4, #255	; 0xff
 8008b32:	f8df 90cc 	ldr.w	r9, [pc, #204]	; 8008c00 <system__bb__interrupts__interrupt_wrapper+0xfc>
 8008b36:	f8d9 b000 	ldr.w	fp, [r9]
 8008b3a:	f895 7055 	ldrb.w	r7, [r5, #85]	; 0x55
 8008b3e:	b2ff      	uxtb	r7, r7
 8008b40:	b936      	cbnz	r6, 8008b50 <system__bb__interrupts__interrupt_wrapper+0x4c>
 8008b42:	b003      	add	sp, #12
 8008b44:	e8bd 8ff0 	ldmia.w	sp!, {r4, r5, r6, r7, r8, r9, sl, fp, pc}
 8008b48:	0924      	lsrs	r4, r4, #4
 8008b4a:	f5c4 7480 	rsb	r4, r4, #256	; 0x100
 8008b4e:	e7f0      	b.n	8008b32 <system__bb__interrupts__interrupt_wrapper+0x2e>
 8008b50:	f8df a0b0 	ldr.w	sl, [pc, #176]	; 8008c04 <system__bb__interrupts__interrupt_wrapper+0x100>
 8008b54:	f8da 3000 	ldr.w	r3, [sl]
 8008b58:	4621      	mov	r1, r4
 8008b5a:	b113      	cbz	r3, 8008b62 <system__bb__interrupts__interrupt_wrapper+0x5e>
 8008b5c:	9101      	str	r1, [sp, #4]
 8008b5e:	4798      	blx	r3
 8008b60:	9901      	ldr	r1, [sp, #4]
 8008b62:	f8c9 6000 	str.w	r6, [r9]
 8008b66:	2301      	movs	r3, #1
 8008b68:	f885 3055 	strb.w	r3, [r5, #85]	; 0x55
 8008b6c:	4628      	mov	r0, r5
 8008b6e:	f7ff fa47 	bl	8008000 <system__bb__threads__queues__change_priority>
 8008b72:	f5b4 7f80 	cmp.w	r4, #256	; 0x100
 8008b76:	d02f      	beq.n	8008bd8 <system__bb__interrupts__interrupt_wrapper+0xd4>
 8008b78:	ebc4 1404 	rsb	r4, r4, r4, lsl #4
 8008b7c:	0124      	lsls	r4, r4, #4
 8008b7e:	b2e4      	uxtb	r4, r4
 8008b80:	f384 8811 	msr	BASEPRI, r4
 8008b84:	b662      	cpsie	i
 8008b86:	f3bf 8f4f 	dsb	sy
 8008b8a:	f3bf 8f6f 	isb	sy
 8008b8e:	4b1b      	ldr	r3, [pc, #108]	; (8008bfc <system__bb__interrupts__interrupt_wrapper+0xf8>)
 8008b90:	4630      	mov	r0, r6
 8008b92:	f853 3026 	ldr.w	r3, [r3, r6, lsl #2]
 8008b96:	4798      	blx	r3
 8008b98:	b672      	cpsid	i
 8008b9a:	f8da 3000 	ldr.w	r3, [sl]
 8008b9e:	b103      	cbz	r3, 8008ba2 <system__bb__interrupts__interrupt_wrapper+0x9e>
 8008ba0:	4798      	blx	r3
 8008ba2:	4641      	mov	r1, r8
 8008ba4:	4628      	mov	r0, r5
 8008ba6:	f7ff fa2b 	bl	8008000 <system__bb__threads__queues__change_priority>
 8008baa:	f8c9 b000 	str.w	fp, [r9]
 8008bae:	f885 7055 	strb.w	r7, [r5, #85]	; 0x55
 8008bb2:	b003      	add	sp, #12
 8008bb4:	e8bd 8ff0 	ldmia.w	sp!, {r4, r5, r6, r7, r8, r9, sl, fp, pc}
 8008bb8:	f8df 9044 	ldr.w	r9, [pc, #68]	; 8008c00 <system__bb__interrupts__interrupt_wrapper+0xfc>
 8008bbc:	f8df a044 	ldr.w	sl, [pc, #68]	; 8008c04 <system__bb__interrupts__interrupt_wrapper+0x100>
 8008bc0:	f8d9 b000 	ldr.w	fp, [r9]
 8008bc4:	f8da 3000 	ldr.w	r3, [sl]
 8008bc8:	f895 7055 	ldrb.w	r7, [r5, #85]	; 0x55
 8008bcc:	b2ff      	uxtb	r7, r7
 8008bce:	b12b      	cbz	r3, 8008bdc <system__bb__interrupts__interrupt_wrapper+0xd8>
 8008bd0:	21ff      	movs	r1, #255	; 0xff
 8008bd2:	460c      	mov	r4, r1
 8008bd4:	2601      	movs	r6, #1
 8008bd6:	e7c1      	b.n	8008b5c <system__bb__interrupts__interrupt_wrapper+0x58>
 8008bd8:	2400      	movs	r4, #0
 8008bda:	e7d1      	b.n	8008b80 <system__bb__interrupts__interrupt_wrapper+0x7c>
 8008bdc:	2601      	movs	r6, #1
 8008bde:	f8c9 6000 	str.w	r6, [r9]
 8008be2:	4628      	mov	r0, r5
 8008be4:	f885 6055 	strb.w	r6, [r5, #85]	; 0x55
 8008be8:	21ff      	movs	r1, #255	; 0xff
 8008bea:	f7ff fa09 	bl	8008000 <system__bb__threads__queues__change_priority>
 8008bee:	24ff      	movs	r4, #255	; 0xff
 8008bf0:	e7c2      	b.n	8008b78 <system__bb__interrupts__interrupt_wrapper+0x74>
 8008bf2:	bf00      	nop
 8008bf4:	20000104 	.word	0x20000104
 8008bf8:	e000e400 	.word	0xe000e400
 8008bfc:	20003c80 	.word	0x20003c80
 8008c00:	2000013c 	.word	0x2000013c
 8008c04:	20000120 	.word	0x20000120

08008c08 <system__bb__interrupts__initialize_interrupts>:
 8008c08:	4a01      	ldr	r2, [pc, #4]	; (8008c10 <system__bb__interrupts__initialize_interrupts+0x8>)
 8008c0a:	4b02      	ldr	r3, [pc, #8]	; (8008c14 <system__bb__interrupts__initialize_interrupts+0xc>)
 8008c0c:	601a      	str	r2, [r3, #0]
 8008c0e:	4770      	bx	lr
 8008c10:	20004b10 	.word	0x20004b10
 8008c14:	20003dd0 	.word	0x20003dd0

08008c18 <system__bb__threads__get_cpu>:
 8008c18:	f890 002c 	ldrb.w	r0, [r0, #44]	; 0x2c
 8008c1c:	2800      	cmp	r0, #0
 8008c1e:	bf08      	it	eq
 8008c20:	2001      	moveq	r0, #1
 8008c22:	4770      	bx	lr

08008c24 <system__bb__threads__initialize_thread>:
 8008c24:	e92d 43f0 	stmdb	sp!, {r4, r5, r6, r7, r8, r9, lr}
 8008c28:	b089      	sub	sp, #36	; 0x24
 8008c2a:	4f40      	ldr	r7, [pc, #256]	; (8008d2c <system__bb__threads__initialize_thread+0x108>)
 8008c2c:	f89d 5040 	ldrb.w	r5, [sp, #64]	; 0x40
 8008c30:	6303      	str	r3, [r0, #48]	; 0x30
 8008c32:	6343      	str	r3, [r0, #52]	; 0x34
 8008c34:	683b      	ldr	r3, [r7, #0]
 8008c36:	9e11      	ldr	r6, [sp, #68]	; 0x44
 8008c38:	6583      	str	r3, [r0, #88]	; 0x58
 8008c3a:	4604      	mov	r4, r0
 8008c3c:	6038      	str	r0, [r7, #0]
 8008c3e:	f880 502c 	strb.w	r5, [r0, #44]	; 0x2c
 8008c42:	2d00      	cmp	r5, #0
 8008c44:	d05c      	beq.n	8008d00 <system__bb__threads__initialize_thread+0xdc>
 8008c46:	b26b      	sxtb	r3, r5
 8008c48:	f103 4380 	add.w	r3, r3, #1073741824	; 0x40000000
 8008c4c:	3b01      	subs	r3, #1
 8008c4e:	4838      	ldr	r0, [pc, #224]	; (8008d30 <system__bb__threads__initialize_thread+0x10c>)
 8008c50:	f850 5023 	ldr.w	r5, [r0, r3, lsl #2]
 8008c54:	42ac      	cmp	r4, r5
 8008c56:	d01b      	beq.n	8008c90 <system__bb__threads__initialize_thread+0x6c>
 8008c58:	f850 5023 	ldr.w	r5, [r0, r3, lsl #2]
 8008c5c:	2d00      	cmp	r5, #0
 8008c5e:	d051      	beq.n	8008d04 <system__bb__threads__initialize_thread+0xe0>
 8008c60:	6b67      	ldr	r7, [r4, #52]	; 0x34
 8008c62:	f850 5023 	ldr.w	r5, [r0, r3, lsl #2]
 8008c66:	6b6d      	ldr	r5, [r5, #52]	; 0x34
 8008c68:	42af      	cmp	r7, r5
 8008c6a:	dc4b      	bgt.n	8008d04 <system__bb__threads__initialize_thread+0xe0>
 8008c6c:	f850 0023 	ldr.w	r0, [r0, r3, lsl #2]
 8008c70:	e006      	b.n	8008c80 <system__bb__threads__initialize_thread+0x5c>
 8008c72:	429c      	cmp	r4, r3
 8008c74:	d04c      	beq.n	8008d10 <system__bb__threads__initialize_thread+0xec>
 8008c76:	6b5f      	ldr	r7, [r3, #52]	; 0x34
 8008c78:	6b65      	ldr	r5, [r4, #52]	; 0x34
 8008c7a:	42af      	cmp	r7, r5
 8008c7c:	db05      	blt.n	8008c8a <system__bb__threads__initialize_thread+0x66>
 8008c7e:	4618      	mov	r0, r3
 8008c80:	6c03      	ldr	r3, [r0, #64]	; 0x40
 8008c82:	2b00      	cmp	r3, #0
 8008c84:	d1f5      	bne.n	8008c72 <system__bb__threads__initialize_thread+0x4e>
 8008c86:	2c00      	cmp	r4, #0
 8008c88:	d042      	beq.n	8008d10 <system__bb__threads__initialize_thread+0xec>
 8008c8a:	6c03      	ldr	r3, [r0, #64]	; 0x40
 8008c8c:	6423      	str	r3, [r4, #64]	; 0x40
 8008c8e:	6404      	str	r4, [r0, #64]	; 0x40
 8008c90:	2500      	movs	r5, #0
 8008c92:	f04f 38ff 	mov.w	r8, #4294967295
 8008c96:	f04f 39ff 	mov.w	r9, #4294967295
 8008c9a:	9b12      	ldr	r3, [sp, #72]	; 0x48
 8008c9c:	63a6      	str	r6, [r4, #56]	; 0x38
 8008c9e:	63e3      	str	r3, [r4, #60]	; 0x3c
 8008ca0:	f884 5054 	strb.w	r5, [r4, #84]	; 0x54
 8008ca4:	f884 5055 	strb.w	r5, [r4, #85]	; 0x55
 8008ca8:	f884 5056 	strb.w	r5, [r4, #86]	; 0x56
 8008cac:	6525      	str	r5, [r4, #80]	; 0x50
 8008cae:	65e5      	str	r5, [r4, #92]	; 0x5c
 8008cb0:	6625      	str	r5, [r4, #96]	; 0x60
 8008cb2:	e9c4 8912 	strd	r8, r9, [r4, #72]	; 0x48
 8008cb6:	b301      	cbz	r1, 8008cfa <system__bb__threads__initialize_thread+0xd6>
 8008cb8:	e88d 0024 	stmia.w	sp, {r2, r5}
 8008cbc:	f04f 7380 	mov.w	r3, #16777216	; 0x1000000
 8008cc0:	9504      	str	r5, [sp, #16]
 8008cc2:	9505      	str	r5, [sp, #20]
 8008cc4:	9106      	str	r1, [sp, #24]
 8008cc6:	9307      	str	r3, [sp, #28]
 8008cc8:	9502      	str	r5, [sp, #8]
 8008cca:	9503      	str	r5, [sp, #12]
 8008ccc:	466f      	mov	r7, sp
 8008cce:	cf0f      	ldmia	r7!, {r0, r1, r2, r3}
 8008cd0:	f1a6 0e20 	sub.w	lr, r6, #32
 8008cd4:	f02e 0e04 	bic.w	lr, lr, #4
 8008cd8:	4676      	mov	r6, lr
 8008cda:	c60f      	stmia	r6!, {r0, r1, r2, r3}
 8008cdc:	e897 000f 	ldmia.w	r7, {r0, r1, r2, r3}
 8008ce0:	e886 000f 	stmia.w	r6, {r0, r1, r2, r3}
 8008ce4:	f8c4 e020 	str.w	lr, [r4, #32]
 8008ce8:	6025      	str	r5, [r4, #0]
 8008cea:	6065      	str	r5, [r4, #4]
 8008cec:	60a5      	str	r5, [r4, #8]
 8008cee:	60e5      	str	r5, [r4, #12]
 8008cf0:	6125      	str	r5, [r4, #16]
 8008cf2:	6165      	str	r5, [r4, #20]
 8008cf4:	61a5      	str	r5, [r4, #24]
 8008cf6:	61e5      	str	r5, [r4, #28]
 8008cf8:	6265      	str	r5, [r4, #36]	; 0x24
 8008cfa:	b009      	add	sp, #36	; 0x24
 8008cfc:	e8bd 83f0 	ldmia.w	sp!, {r4, r5, r6, r7, r8, r9, pc}
 8008d00:	2301      	movs	r3, #1
 8008d02:	e7a1      	b.n	8008c48 <system__bb__threads__initialize_thread+0x24>
 8008d04:	f850 5023 	ldr.w	r5, [r0, r3, lsl #2]
 8008d08:	6425      	str	r5, [r4, #64]	; 0x40
 8008d0a:	f840 4023 	str.w	r4, [r0, r3, lsl #2]
 8008d0e:	e7bf      	b.n	8008c90 <system__bb__threads__initialize_thread+0x6c>
 8008d10:	6c23      	ldr	r3, [r4, #64]	; 0x40
 8008d12:	6403      	str	r3, [r0, #64]	; 0x40
 8008d14:	4605      	mov	r5, r0
 8008d16:	e004      	b.n	8008d22 <system__bb__threads__initialize_thread+0xfe>
 8008d18:	6b5f      	ldr	r7, [r3, #52]	; 0x34
 8008d1a:	6b60      	ldr	r0, [r4, #52]	; 0x34
 8008d1c:	4287      	cmp	r7, r0
 8008d1e:	db03      	blt.n	8008d28 <system__bb__threads__initialize_thread+0x104>
 8008d20:	461d      	mov	r5, r3
 8008d22:	6c2b      	ldr	r3, [r5, #64]	; 0x40
 8008d24:	2b00      	cmp	r3, #0
 8008d26:	d1f7      	bne.n	8008d18 <system__bb__threads__initialize_thread+0xf4>
 8008d28:	4628      	mov	r0, r5
 8008d2a:	e7ae      	b.n	8008c8a <system__bb__threads__initialize_thread+0x66>
 8008d2c:	200000fc 	.word	0x200000fc
 8008d30:	200000f8 	.word	0x200000f8

08008d34 <system__bb__threads__initialize>:
 8008d34:	e92d 43f0 	stmdb	sp!, {r4, r5, r6, r7, r8, r9, lr}
 8008d38:	b085      	sub	sp, #20
 8008d3a:	4606      	mov	r6, r0
 8008d3c:	460f      	mov	r7, r1
 8008d3e:	f7ff ff63 	bl	8008c08 <system__bb__interrupts__initialize_interrupts>
 8008d42:	f3ef 8008 	mrs	r0, MSP
 8008d46:	f380 8809 	msr	PSP, r0
 8008d4a:	f3ef 8014 	mrs	r0, CONTROL
 8008d4e:	f040 0002 	orr.w	r0, r0, #2
 8008d52:	f380 8814 	msr	CONTROL, r0
 8008d56:	4b1f      	ldr	r3, [pc, #124]	; (8008dd4 <system__bb__threads__initialize+0xa0>)
 8008d58:	681b      	ldr	r3, [r3, #0]
 8008d5a:	f383 8808 	msr	MSP, r3
 8008d5e:	4b1e      	ldr	r3, [pc, #120]	; (8008dd8 <system__bb__threads__initialize+0xa4>)
 8008d60:	4d1e      	ldr	r5, [pc, #120]	; (8008ddc <system__bb__threads__initialize+0xa8>)
 8008d62:	4a1f      	ldr	r2, [pc, #124]	; (8008de0 <system__bb__threads__initialize+0xac>)
 8008d64:	601a      	str	r2, [r3, #0]
 8008d66:	682a      	ldr	r2, [r5, #0]
 8008d68:	f8df 9090 	ldr.w	r9, [pc, #144]	; 8008dfc <system__bb__threads__initialize+0xc8>
 8008d6c:	f8df 8090 	ldr.w	r8, [pc, #144]	; 8008e00 <system__bb__threads__initialize+0xcc>
 8008d70:	f8df e090 	ldr.w	lr, [pc, #144]	; 8008e04 <system__bb__threads__initialize+0xd0>
 8008d74:	481b      	ldr	r0, [pc, #108]	; (8008de4 <system__bb__threads__initialize+0xb0>)
 8008d76:	491c      	ldr	r1, [pc, #112]	; (8008de8 <system__bb__threads__initialize+0xb4>)
 8008d78:	f442 7204 	orr.w	r2, r2, #528	; 0x210
 8008d7c:	2400      	movs	r4, #0
 8008d7e:	f042 0201 	orr.w	r2, r2, #1
 8008d82:	f44f 0c7f 	mov.w	ip, #16711680	; 0xff0000
 8008d86:	602a      	str	r2, [r5, #0]
 8008d88:	f8c9 4000 	str.w	r4, [r9]
 8008d8c:	f8c8 4000 	str.w	r4, [r8]
 8008d90:	f8ce c000 	str.w	ip, [lr]
 8008d94:	6059      	str	r1, [r3, #4]
 8008d96:	6802      	ldr	r2, [r0, #0]
 8008d98:	f442 22e0 	orr.w	r2, r2, #458752	; 0x70000
 8008d9c:	6002      	str	r2, [r0, #0]
 8008d9e:	b661      	cpsie	f
 8008da0:	f7ff fc04 	bl	80085ac <system__bb__board_support__initialize_board>
 8008da4:	f7ff fa5e 	bl	8008264 <system__bb__time__initialize_timers>
 8008da8:	b672      	cpsid	i
 8008daa:	2501      	movs	r5, #1
 8008dac:	4b0f      	ldr	r3, [pc, #60]	; (8008dec <system__bb__threads__initialize+0xb8>)
 8008dae:	4a10      	ldr	r2, [pc, #64]	; (8008df0 <system__bb__threads__initialize+0xbc>)
 8008db0:	9301      	str	r3, [sp, #4]
 8008db2:	9202      	str	r2, [sp, #8]
 8008db4:	463b      	mov	r3, r7
 8008db6:	4622      	mov	r2, r4
 8008db8:	9500      	str	r5, [sp, #0]
 8008dba:	4630      	mov	r0, r6
 8008dbc:	4621      	mov	r1, r4
 8008dbe:	f7ff ff31 	bl	8008c24 <system__bb__threads__initialize_thread>
 8008dc2:	4a0c      	ldr	r2, [pc, #48]	; (8008df4 <system__bb__threads__initialize+0xc0>)
 8008dc4:	4b0c      	ldr	r3, [pc, #48]	; (8008df8 <system__bb__threads__initialize+0xc4>)
 8008dc6:	6016      	str	r6, [r2, #0]
 8008dc8:	701d      	strb	r5, [r3, #0]
 8008dca:	b005      	add	sp, #20
 8008dcc:	e8bd 43f0 	ldmia.w	sp!, {r4, r5, r6, r7, r8, r9, lr}
 8008dd0:	f7ff be6e 	b.w	8008ab0 <system__bb__protection__leave_kernel>
 8008dd4:	20003dd0 	.word	0x20003dd0
 8008dd8:	e000ed08 	.word	0xe000ed08
 8008ddc:	e000ed14 	.word	0xe000ed14
 8008de0:	08009000 	.word	0x08009000
 8008de4:	e000ed24 	.word	0xe000ed24
 8008de8:	05fa0300 	.word	0x05fa0300
 8008dec:	2000cb18 	.word	0x2000cb18
 8008df0:	20004b18 	.word	0x20004b18
 8008df4:	20000104 	.word	0x20000104
 8008df8:	20000140 	.word	0x20000140
 8008dfc:	e000ed18 	.word	0xe000ed18
 8008e00:	e000ed1c 	.word	0xe000ed1c
 8008e04:	e000ed20 	.word	0xe000ed20

08008e08 <system__bb__threads__sleep>:
 8008e08:	4b0e      	ldr	r3, [pc, #56]	; (8008e44 <system__bb__threads__sleep+0x3c>)
 8008e0a:	681a      	ldr	r2, [r3, #0]
 8008e0c:	b672      	cpsid	i
 8008e0e:	f892 3056 	ldrb.w	r3, [r2, #86]	; 0x56
 8008e12:	b993      	cbnz	r3, 8008e3a <system__bb__threads__sleep+0x32>
 8008e14:	f892 102c 	ldrb.w	r1, [r2, #44]	; 0x2c
 8008e18:	2301      	movs	r3, #1
 8008e1a:	f882 3054 	strb.w	r3, [r2, #84]	; 0x54
 8008e1e:	b951      	cbnz	r1, 8008e36 <system__bb__threads__sleep+0x2e>
 8008e20:	f103 4380 	add.w	r3, r3, #1073741824	; 0x40000000
 8008e24:	3b01      	subs	r3, #1
 8008e26:	4908      	ldr	r1, [pc, #32]	; (8008e48 <system__bb__threads__sleep+0x40>)
 8008e28:	6c10      	ldr	r0, [r2, #64]	; 0x40
 8008e2a:	f841 0023 	str.w	r0, [r1, r3, lsl #2]
 8008e2e:	2300      	movs	r3, #0
 8008e30:	6413      	str	r3, [r2, #64]	; 0x40
 8008e32:	f7ff be3d 	b.w	8008ab0 <system__bb__protection__leave_kernel>
 8008e36:	b24b      	sxtb	r3, r1
 8008e38:	e7f2      	b.n	8008e20 <system__bb__threads__sleep+0x18>
 8008e3a:	2300      	movs	r3, #0
 8008e3c:	f882 3056 	strb.w	r3, [r2, #86]	; 0x56
 8008e40:	f7ff be36 	b.w	8008ab0 <system__bb__protection__leave_kernel>
 8008e44:	20000104 	.word	0x20000104
 8008e48:	200000f8 	.word	0x200000f8

08008e4c <system__bb__threads__thread_create>:
 8008e4c:	b570      	push	{r4, r5, r6, lr}
 8008e4e:	b084      	sub	sp, #16
 8008e50:	f89d 6020 	ldrb.w	r6, [sp, #32]
 8008e54:	9d09      	ldr	r5, [sp, #36]	; 0x24
 8008e56:	9c0a      	ldr	r4, [sp, #40]	; 0x28
 8008e58:	b672      	cpsid	i
 8008e5a:	442c      	add	r4, r5
 8008e5c:	f024 0407 	bic.w	r4, r4, #7
 8008e60:	9401      	str	r4, [sp, #4]
 8008e62:	9600      	str	r6, [sp, #0]
 8008e64:	9502      	str	r5, [sp, #8]
 8008e66:	f7ff fedd 	bl	8008c24 <system__bb__threads__initialize_thread>
 8008e6a:	b004      	add	sp, #16
 8008e6c:	e8bd 4070 	ldmia.w	sp!, {r4, r5, r6, lr}
 8008e70:	f7ff be1e 	b.w	8008ab0 <system__bb__protection__leave_kernel>
	...

08009000 <__vectors>:
 8009000:	00000000 	.word	0x00000000
 8009004:	0800919d 	.word	0x0800919d
 8009008:	0800919d 	.word	0x0800919d
 800900c:	0800919d 	.word	0x0800919d
 8009010:	0800919d 	.word	0x0800919d
 8009014:	0800919d 	.word	0x0800919d
 8009018:	0800919d 	.word	0x0800919d
 800901c:	0800919d 	.word	0x0800919d
 8009020:	0800919d 	.word	0x0800919d
 8009024:	0800919d 	.word	0x0800919d
 8009028:	0800919d 	.word	0x0800919d
 800902c:	0800893d 	.word	0x0800893d
 8009030:	0800919d 	.word	0x0800919d
 8009034:	0800919d 	.word	0x0800919d
 8009038:	080088f1 	.word	0x080088f1
 800903c:	08008945 	.word	0x08008945
 8009040:	0800889d 	.word	0x0800889d
 8009044:	0800889d 	.word	0x0800889d
 8009048:	0800889d 	.word	0x0800889d
 800904c:	0800889d 	.word	0x0800889d
 8009050:	0800889d 	.word	0x0800889d
 8009054:	0800889d 	.word	0x0800889d
 8009058:	0800889d 	.word	0x0800889d
 800905c:	0800889d 	.word	0x0800889d
 8009060:	0800889d 	.word	0x0800889d
 8009064:	0800889d 	.word	0x0800889d
 8009068:	0800889d 	.word	0x0800889d
 800906c:	0800889d 	.word	0x0800889d
 8009070:	0800889d 	.word	0x0800889d
 8009074:	0800889d 	.word	0x0800889d
 8009078:	0800889d 	.word	0x0800889d
 800907c:	0800889d 	.word	0x0800889d
 8009080:	0800889d 	.word	0x0800889d
 8009084:	0800889d 	.word	0x0800889d
 8009088:	0800889d 	.word	0x0800889d
 800908c:	0800889d 	.word	0x0800889d
 8009090:	0800889d 	.word	0x0800889d
 8009094:	0800889d 	.word	0x0800889d
 8009098:	0800889d 	.word	0x0800889d
 800909c:	0800889d 	.word	0x0800889d
 80090a0:	0800889d 	.word	0x0800889d
 80090a4:	0800889d 	.word	0x0800889d
 80090a8:	0800889d 	.word	0x0800889d
 80090ac:	0800889d 	.word	0x0800889d
 80090b0:	0800889d 	.word	0x0800889d
 80090b4:	0800889d 	.word	0x0800889d
 80090b8:	0800889d 	.word	0x0800889d
 80090bc:	0800889d 	.word	0x0800889d
 80090c0:	0800889d 	.word	0x0800889d
 80090c4:	0800889d 	.word	0x0800889d
 80090c8:	0800889d 	.word	0x0800889d
 80090cc:	0800889d 	.word	0x0800889d
 80090d0:	0800889d 	.word	0x0800889d
 80090d4:	0800889d 	.word	0x0800889d
 80090d8:	0800889d 	.word	0x0800889d
 80090dc:	0800889d 	.word	0x0800889d
 80090e0:	0800889d 	.word	0x0800889d
 80090e4:	0800889d 	.word	0x0800889d
 80090e8:	0800889d 	.word	0x0800889d
 80090ec:	0800889d 	.word	0x0800889d
 80090f0:	0800889d 	.word	0x0800889d
 80090f4:	0800889d 	.word	0x0800889d
 80090f8:	0800889d 	.word	0x0800889d
 80090fc:	0800889d 	.word	0x0800889d
 8009100:	0800889d 	.word	0x0800889d
 8009104:	0800889d 	.word	0x0800889d
 8009108:	0800889d 	.word	0x0800889d
 800910c:	0800889d 	.word	0x0800889d
 8009110:	0800889d 	.word	0x0800889d
 8009114:	0800889d 	.word	0x0800889d
 8009118:	0800889d 	.word	0x0800889d
 800911c:	0800889d 	.word	0x0800889d
 8009120:	0800889d 	.word	0x0800889d
 8009124:	0800889d 	.word	0x0800889d
 8009128:	0800889d 	.word	0x0800889d
 800912c:	0800889d 	.word	0x0800889d
 8009130:	0800889d 	.word	0x0800889d
 8009134:	0800889d 	.word	0x0800889d
 8009138:	0800889d 	.word	0x0800889d
 800913c:	0800889d 	.word	0x0800889d
 8009140:	0800889d 	.word	0x0800889d
 8009144:	0800889d 	.word	0x0800889d
 8009148:	0800889d 	.word	0x0800889d
 800914c:	0800889d 	.word	0x0800889d
 8009150:	0800889d 	.word	0x0800889d
 8009154:	0800889d 	.word	0x0800889d
 8009158:	0800889d 	.word	0x0800889d
 800915c:	0800889d 	.word	0x0800889d
 8009160:	0800889d 	.word	0x0800889d
 8009164:	0800889d 	.word	0x0800889d
 8009168:	0800889d 	.word	0x0800889d
 800916c:	0800889d 	.word	0x0800889d
 8009170:	0800889d 	.word	0x0800889d
 8009174:	0800889d 	.word	0x0800889d
 8009178:	0800889d 	.word	0x0800889d
 800917c:	0800889d 	.word	0x0800889d
 8009180:	0800889d 	.word	0x0800889d
 8009184:	0800889d 	.word	0x0800889d
 8009188:	0800889d 	.word	0x0800889d
 800918c:	0800889d 	.word	0x0800889d
 8009190:	0800889d 	.word	0x0800889d
 8009194:	e7fe      	b.n	8009194 <__vectors+0x194>
 8009196:	e7fe      	b.n	8009196 <__vectors+0x196>
 8009198:	e7fe      	b.n	8009198 <__vectors+0x198>
 800919a:	e7fe      	b.n	800919a <__vectors+0x19a>

0800919c <fault>:
 800919c:	e7fe      	b.n	800919c <fault>
 800919e:	bf00      	nop

080091a0 <_start_rom>:
 80091a0:	f000 f870 	bl	8009284 <_stm32_start_common>
 80091a4:	f240 0000 	movw	r0, #0
 80091a8:	f2c2 0000 	movt	r0, #8192	; 0x2000
 80091ac:	f240 01b3 	movw	r1, #179	; 0xb3
 80091b0:	f240 7260 	movw	r2, #1888	; 0x760
 80091b4:	f6c0 0201 	movt	r2, #2049	; 0x801
 80091b8:	b129      	cbz	r1, 80091c6 <_start_rom+0x26>
 80091ba:	f852 4b04 	ldr.w	r4, [r2], #4
 80091be:	f840 4b04 	str.w	r4, [r0], #4
 80091c2:	3901      	subs	r1, #1
 80091c4:	d1f9      	bne.n	80091ba <_start_rom+0x1a>
 80091c6:	f240 20d0 	movw	r0, #720	; 0x2d0
 80091ca:	f2c2 0000 	movt	r0, #8192	; 0x2000
 80091ce:	f241 0112 	movw	r1, #4114	; 0x1012
 80091d2:	f04f 0200 	mov.w	r2, #0
 80091d6:	b119      	cbz	r1, 80091e0 <_start_rom+0x40>
 80091d8:	f840 2b04 	str.w	r2, [r0], #4
 80091dc:	3901      	subs	r1, #1
 80091de:	d1fb      	bne.n	80091d8 <_start_rom+0x38>
 80091e0:	4924      	ldr	r1, [pc, #144]	; (8009274 <hang+0x2>)
 80091e2:	6a48      	ldr	r0, [r1, #36]	; 0x24
 80091e4:	f440 2080 	orr.w	r0, r0, #262144	; 0x40000
 80091e8:	6248      	str	r0, [r1, #36]	; 0x24
 80091ea:	f04f 0200 	mov.w	r2, #0
 80091ee:	f8c1 2098 	str.w	r2, [r1, #152]	; 0x98
 80091f2:	2200      	movs	r2, #0
 80091f4:	f8c1 209c 	str.w	r2, [r1, #156]	; 0x9c
 80091f8:	4a1f      	ldr	r2, [pc, #124]	; (8009278 <hang+0x6>)
 80091fa:	f8c1 20a0 	str.w	r2, [r1, #160]	; 0xa0
 80091fe:	f04f 0201 	mov.w	r2, #1
 8009202:	f8c1 2098 	str.w	r2, [r1, #152]	; 0x98
 8009206:	f04f 6200 	mov.w	r2, #134217728	; 0x8000000
 800920a:	f8c1 209c 	str.w	r2, [r1, #156]	; 0x9c
 800920e:	4a1a      	ldr	r2, [pc, #104]	; (8009278 <hang+0x6>)
 8009210:	f8c1 20a0 	str.w	r2, [r1, #160]	; 0xa0
 8009214:	f04f 0202 	mov.w	r2, #2
 8009218:	f8c1 2098 	str.w	r2, [r1, #152]	; 0x98
 800921c:	f04f 5200 	mov.w	r2, #536870912	; 0x20000000
 8009220:	f8c1 209c 	str.w	r2, [r1, #156]	; 0x9c
 8009224:	4a15      	ldr	r2, [pc, #84]	; (800927c <hang+0xa>)
 8009226:	f8c1 20a0 	str.w	r2, [r1, #160]	; 0xa0
 800922a:	f04f 0203 	mov.w	r2, #3
 800922e:	f8c1 2098 	str.w	r2, [r1, #152]	; 0x98
 8009232:	f04f 4280 	mov.w	r2, #1073741824	; 0x40000000
 8009236:	f8c1 209c 	str.w	r2, [r1, #156]	; 0x9c
 800923a:	4a11      	ldr	r2, [pc, #68]	; (8009280 <hang+0xe>)
 800923c:	f8c1 20a0 	str.w	r2, [r1, #160]	; 0xa0
 8009240:	f04f 0204 	mov.w	r2, #4
 8009244:	f8c1 2098 	str.w	r2, [r1, #152]	; 0x98
 8009248:	f04f 4260 	mov.w	r2, #3758096384	; 0xe0000000
 800924c:	f8c1 209c 	str.w	r2, [r1, #156]	; 0x9c
 8009250:	4a0a      	ldr	r2, [pc, #40]	; (800927c <hang+0xa>)
 8009252:	f8c1 20a0 	str.w	r2, [r1, #160]	; 0xa0
 8009256:	f04f 0201 	mov.w	r2, #1
 800925a:	f3bf 8f4f 	dsb	sy
 800925e:	f8c1 2094 	str.w	r2, [r1, #148]	; 0x94
 8009262:	f3bf 8f6f 	isb	sy
 8009266:	f002 fa1d 	bl	800b6a4 <_ada_setup_pll>
 800926a:	f7f7 fa69 	bl	8000740 <main>
 800926e:	f002 fa11 	bl	800b694 <_exit>

08009272 <hang>:
 8009272:	e7fe      	b.n	8009272 <hang>
 8009274:	e000ed00 	.word	0xe000ed00
 8009278:	03000023 	.word	0x03000023
 800927c:	1300001f 	.word	0x1300001f
 8009280:	13000039 	.word	0x13000039

08009284 <_stm32_start_common>:
 8009284:	f64e 5088 	movw	r0, #60808	; 0xed88
 8009288:	f2ce 0000 	movt	r0, #57344	; 0xe000
 800928c:	6801      	ldr	r1, [r0, #0]
 800928e:	f441 0170 	orr.w	r1, r1, #15728640	; 0xf00000
 8009292:	6001      	str	r1, [r0, #0]
 8009294:	f3bf 8f4f 	dsb	sy
 8009298:	f3bf 8f6f 	isb	sy
 800929c:	4829      	ldr	r0, [pc, #164]	; (8009344 <end+0x4>)
 800929e:	6801      	ldr	r1, [r0, #0]
 80092a0:	f640 72ff 	movw	r2, #4095	; 0xfff
 80092a4:	ea01 0102 	and.w	r1, r1, r2
 80092a8:	f240 4249 	movw	r2, #1097	; 0x449
 80092ac:	4291      	cmp	r1, r2
 80092ae:	d147      	bne.n	8009340 <end>

080092b0 <dcache_invalidate>:
 80092b0:	f04f 0100 	mov.w	r1, #0
 80092b4:	4824      	ldr	r0, [pc, #144]	; (8009348 <end+0x8>)
 80092b6:	6001      	str	r1, [r0, #0]
 80092b8:	f3bf 8f4f 	dsb	sy
 80092bc:	4823      	ldr	r0, [pc, #140]	; (800934c <end+0xc>)
 80092be:	6802      	ldr	r2, [r0, #0]
 80092c0:	f002 0107 	and.w	r1, r2, #7
 80092c4:	f101 0704 	add.w	r7, r1, #4
 80092c8:	f3c2 04c9 	ubfx	r4, r2, #3, #10
 80092cc:	f3c2 324e 	ubfx	r2, r2, #13, #15
 80092d0:	fab4 f684 	clz	r6, r4
 80092d4:	481e      	ldr	r0, [pc, #120]	; (8009350 <end+0x10>)

080092d6 <inv_loop1>:
 80092d6:	4621      	mov	r1, r4
 80092d8:	fa12 f807 	lsls.w	r8, r2, r7

080092dc <inv_loop2>:
 80092dc:	fa11 f306 	lsls.w	r3, r1, r6
 80092e0:	ea53 0308 	orrs.w	r3, r3, r8
 80092e4:	6003      	str	r3, [r0, #0]
 80092e6:	3901      	subs	r1, #1
 80092e8:	daf8      	bge.n	80092dc <inv_loop2>
 80092ea:	3a01      	subs	r2, #1
 80092ec:	daf3      	bge.n	80092d6 <inv_loop1>
 80092ee:	f3bf 8f4f 	dsb	sy
 80092f2:	f3bf 8f6f 	isb	sy

080092f6 <icache_invalidate>:
 80092f6:	f04f 0100 	mov.w	r1, #0
 80092fa:	4816      	ldr	r0, [pc, #88]	; (8009354 <end+0x14>)
 80092fc:	6001      	str	r1, [r0, #0]
 80092fe:	f3bf 8f4f 	dsb	sy
 8009302:	f3bf 8f6f 	isb	sy
 8009306:	4814      	ldr	r0, [pc, #80]	; (8009358 <end+0x18>)
 8009308:	6801      	ldr	r1, [r0, #0]
 800930a:	f441 3180 	orr.w	r1, r1, #65536	; 0x10000
 800930e:	f441 3100 	orr.w	r1, r1, #131072	; 0x20000
 8009312:	6001      	str	r1, [r0, #0]
 8009314:	f3bf 8f4f 	dsb	sy
 8009318:	f3bf 8f6f 	isb	sy
 800931c:	f3bf 8f4f 	dsb	sy
 8009320:	f3bf 8f6f 	isb	sy
 8009324:	480d      	ldr	r0, [pc, #52]	; (800935c <end+0x1c>)
 8009326:	6801      	ldr	r1, [r0, #0]
 8009328:	f041 0101 	orr.w	r1, r1, #1
 800932c:	6001      	str	r1, [r0, #0]
 800932e:	480c      	ldr	r0, [pc, #48]	; (8009360 <end+0x20>)
 8009330:	6801      	ldr	r1, [r0, #0]
 8009332:	f041 0101 	orr.w	r1, r1, #1
 8009336:	6001      	str	r1, [r0, #0]
 8009338:	f3bf 8f4f 	dsb	sy
 800933c:	f3bf 8f6f 	isb	sy

08009340 <end>:
 8009340:	4770      	bx	lr
 8009342:	0000      	.short	0x0000
 8009344:	e0042000 	.word	0xe0042000
 8009348:	e000ed84 	.word	0xe000ed84
 800934c:	e000ed80 	.word	0xe000ed80
 8009350:	e000ef60 	.word	0xe000ef60
 8009354:	e000ef50 	.word	0xe000ef50
 8009358:	e000ed14 	.word	0xe000ed14
 800935c:	e000ef90 	.word	0xe000ef90
 8009360:	e000ef94 	.word	0xe000ef94

08009364 <read_sleb128>:
 8009364:	b430      	push	{r4, r5}
 8009366:	2500      	movs	r5, #0
 8009368:	462a      	mov	r2, r5
 800936a:	f810 4b01 	ldrb.w	r4, [r0], #1
 800936e:	f004 037f 	and.w	r3, r4, #127	; 0x7f
 8009372:	4093      	lsls	r3, r2
 8009374:	431d      	orrs	r5, r3
 8009376:	0623      	lsls	r3, r4, #24
 8009378:	f102 0207 	add.w	r2, r2, #7
 800937c:	d4f5      	bmi.n	800936a <read_sleb128+0x6>
 800937e:	2a1f      	cmp	r2, #31
 8009380:	d805      	bhi.n	800938e <read_sleb128+0x2a>
 8009382:	0663      	lsls	r3, r4, #25
 8009384:	d503      	bpl.n	800938e <read_sleb128+0x2a>
 8009386:	f04f 33ff 	mov.w	r3, #4294967295
 800938a:	4093      	lsls	r3, r2
 800938c:	431d      	orrs	r5, r3
 800938e:	600d      	str	r5, [r1, #0]
 8009390:	bc30      	pop	{r4, r5}
 8009392:	4770      	bx	lr

08009394 <read_encoded_value_with_base>:
 8009394:	e92d 41f0 	stmdb	sp!, {r4, r5, r6, r7, r8, lr}
 8009398:	2850      	cmp	r0, #80	; 0x50
 800939a:	b084      	sub	sp, #16
 800939c:	4606      	mov	r6, r0
 800939e:	d048      	beq.n	8009432 <read_encoded_value_with_base+0x9e>
 80093a0:	4688      	mov	r8, r1
 80093a2:	f000 010f 	and.w	r1, r0, #15
 80093a6:	290c      	cmp	r1, #12
 80093a8:	d841      	bhi.n	800942e <read_encoded_value_with_base+0x9a>
 80093aa:	e8df f001 	tbb	[pc, r1]
 80093ae:	2c07      	.short	0x2c07
 80093b0:	4019073c 	.word	0x4019073c
 80093b4:	21404040 	.word	0x21404040
 80093b8:	071d      	.short	0x071d
 80093ba:	19          	.byte	0x19
 80093bb:	00          	.byte	0x00
 80093bc:	4615      	mov	r5, r2
 80093be:	f855 4b04 	ldr.w	r4, [r5], #4
 80093c2:	b144      	cbz	r4, 80093d6 <read_encoded_value_with_base+0x42>
 80093c4:	f006 0070 	and.w	r0, r6, #112	; 0x70
 80093c8:	2810      	cmp	r0, #16
 80093ca:	bf18      	it	ne
 80093cc:	4642      	movne	r2, r8
 80093ce:	4414      	add	r4, r2
 80093d0:	0632      	lsls	r2, r6, #24
 80093d2:	bf48      	it	mi
 80093d4:	6824      	ldrmi	r4, [r4, #0]
 80093d6:	601c      	str	r4, [r3, #0]
 80093d8:	4628      	mov	r0, r5
 80093da:	b004      	add	sp, #16
 80093dc:	e8bd 81f0 	ldmia.w	sp!, {r4, r5, r6, r7, r8, pc}
 80093e0:	4615      	mov	r5, r2
 80093e2:	f855 4b08 	ldr.w	r4, [r5], #8
 80093e6:	e7ec      	b.n	80093c2 <read_encoded_value_with_base+0x2e>
 80093e8:	4615      	mov	r5, r2
 80093ea:	f935 4b02 	ldrsh.w	r4, [r5], #2
 80093ee:	e7e8      	b.n	80093c2 <read_encoded_value_with_base+0x2e>
 80093f0:	4610      	mov	r0, r2
 80093f2:	a903      	add	r1, sp, #12
 80093f4:	9301      	str	r3, [sp, #4]
 80093f6:	9200      	str	r2, [sp, #0]
 80093f8:	f7ff ffb4 	bl	8009364 <read_sleb128>
 80093fc:	9c03      	ldr	r4, [sp, #12]
 80093fe:	4605      	mov	r5, r0
 8009400:	e89d 000c 	ldmia.w	sp, {r2, r3}
 8009404:	e7dd      	b.n	80093c2 <read_encoded_value_with_base+0x2e>
 8009406:	2400      	movs	r4, #0
 8009408:	46a6      	mov	lr, r4
 800940a:	4615      	mov	r5, r2
 800940c:	f815 1b01 	ldrb.w	r1, [r5], #1
 8009410:	f001 077f 	and.w	r7, r1, #127	; 0x7f
 8009414:	fa07 f70e 	lsl.w	r7, r7, lr
 8009418:	0609      	lsls	r1, r1, #24
 800941a:	ea44 0407 	orr.w	r4, r4, r7
 800941e:	f10e 0e07 	add.w	lr, lr, #7
 8009422:	d4f3      	bmi.n	800940c <read_encoded_value_with_base+0x78>
 8009424:	e7cd      	b.n	80093c2 <read_encoded_value_with_base+0x2e>
 8009426:	4615      	mov	r5, r2
 8009428:	f835 4b02 	ldrh.w	r4, [r5], #2
 800942c:	e7c9      	b.n	80093c2 <read_encoded_value_with_base+0x2e>
 800942e:	f002 f929 	bl	800b684 <abort>
 8009432:	1cd5      	adds	r5, r2, #3
 8009434:	f025 0503 	bic.w	r5, r5, #3
 8009438:	f855 4b04 	ldr.w	r4, [r5], #4
 800943c:	601c      	str	r4, [r3, #0]
 800943e:	4628      	mov	r0, r5
 8009440:	b004      	add	sp, #16
 8009442:	e8bd 81f0 	ldmia.w	sp!, {r4, r5, r6, r7, r8, pc}
 8009446:	bf00      	nop

08009448 <base_of_encoded_value>:
 8009448:	28ff      	cmp	r0, #255	; 0xff
 800944a:	d015      	beq.n	8009478 <base_of_encoded_value+0x30>
 800944c:	b508      	push	{r3, lr}
 800944e:	f000 0370 	and.w	r3, r0, #112	; 0x70
 8009452:	2b20      	cmp	r3, #32
 8009454:	d012      	beq.n	800947c <base_of_encoded_value+0x34>
 8009456:	d90a      	bls.n	800946e <base_of_encoded_value+0x26>
 8009458:	2b40      	cmp	r3, #64	; 0x40
 800945a:	d014      	beq.n	8009486 <base_of_encoded_value+0x3e>
 800945c:	2b50      	cmp	r3, #80	; 0x50
 800945e:	d017      	beq.n	8009490 <base_of_encoded_value+0x48>
 8009460:	2b30      	cmp	r3, #48	; 0x30
 8009462:	d107      	bne.n	8009474 <base_of_encoded_value+0x2c>
 8009464:	4608      	mov	r0, r1
 8009466:	e8bd 4008 	ldmia.w	sp!, {r3, lr}
 800946a:	f003 bd4b 	b.w	800cf04 <_Unwind_GetDataRelBase>
 800946e:	b17b      	cbz	r3, 8009490 <base_of_encoded_value+0x48>
 8009470:	2b10      	cmp	r3, #16
 8009472:	d00d      	beq.n	8009490 <base_of_encoded_value+0x48>
 8009474:	f002 f906 	bl	800b684 <abort>
 8009478:	2000      	movs	r0, #0
 800947a:	4770      	bx	lr
 800947c:	4608      	mov	r0, r1
 800947e:	e8bd 4008 	ldmia.w	sp!, {r3, lr}
 8009482:	f003 bd43 	b.w	800cf0c <_Unwind_GetTextRelBase>
 8009486:	4608      	mov	r0, r1
 8009488:	e8bd 4008 	ldmia.w	sp!, {r3, lr}
 800948c:	f003 bd2a 	b.w	800cee4 <_Unwind_GetRegionStart>
 8009490:	2000      	movs	r0, #0
 8009492:	bd08      	pop	{r3, pc}

08009494 <__gnat_personality_v0>:
 8009494:	e92d 4ff0 	stmdb	sp!, {r4, r5, r6, r7, r8, r9, sl, fp, lr}
 8009498:	f000 0303 	and.w	r3, r0, #3
 800949c:	2b01      	cmp	r3, #1
 800949e:	b091      	sub	sp, #68	; 0x44
 80094a0:	4605      	mov	r5, r0
 80094a2:	4689      	mov	r9, r1
 80094a4:	4690      	mov	r8, r2
 80094a6:	f000 80cf 	beq.w	8009648 <__gnat_personality_v0+0x1b4>
 80094aa:	d310      	bcc.n	80094ce <__gnat_personality_v0+0x3a>
 80094ac:	2b02      	cmp	r3, #2
 80094ae:	d003      	beq.n	80094b8 <__gnat_personality_v0+0x24>
 80094b0:	2009      	movs	r0, #9
 80094b2:	b011      	add	sp, #68	; 0x44
 80094b4:	e8bd 8ff0 	ldmia.w	sp!, {r4, r5, r6, r7, r8, r9, sl, fp, pc}
 80094b8:	4608      	mov	r0, r1
 80094ba:	4611      	mov	r1, r2
 80094bc:	f003 fcfe 	bl	800cebc <__gnu_unwind_frame>
 80094c0:	2800      	cmp	r0, #0
 80094c2:	bf14      	ite	ne
 80094c4:	2009      	movne	r0, #9
 80094c6:	2008      	moveq	r0, #8
 80094c8:	b011      	add	sp, #68	; 0x44
 80094ca:	e8bd 8ff0 	ldmia.w	sp!, {r4, r5, r6, r7, r8, r9, sl, fp, pc}
 80094ce:	2601      	movs	r6, #1
 80094d0:	aa10      	add	r2, sp, #64	; 0x40
 80094d2:	2100      	movs	r1, #0
 80094d4:	f842 9d34 	str.w	r9, [r2, #-52]!
 80094d8:	460b      	mov	r3, r1
 80094da:	9200      	str	r2, [sp, #0]
 80094dc:	4640      	mov	r0, r8
 80094de:	220c      	movs	r2, #12
 80094e0:	f002 ff7e 	bl	800c3e0 <_Unwind_VRS_Set>
 80094e4:	f1b8 0f00 	cmp.w	r8, #0
 80094e8:	f000 80b0 	beq.w	800964c <__gnat_personality_v0+0x1b8>
 80094ec:	4640      	mov	r0, r8
 80094ee:	f003 fcff 	bl	800cef0 <_Unwind_GetLanguageSpecificData>
 80094f2:	4604      	mov	r4, r0
 80094f4:	9008      	str	r0, [sp, #32]
 80094f6:	2800      	cmp	r0, #0
 80094f8:	f000 809b 	beq.w	8009632 <__gnat_personality_v0+0x19e>
 80094fc:	4640      	mov	r0, r8
 80094fe:	f003 fcf1 	bl	800cee4 <_Unwind_GetRegionStart>
 8009502:	9007      	str	r0, [sp, #28]
 8009504:	7827      	ldrb	r7, [r4, #0]
 8009506:	2fff      	cmp	r7, #255	; 0xff
 8009508:	f104 0401 	add.w	r4, r4, #1
 800950c:	f000 80a1 	beq.w	8009652 <__gnat_personality_v0+0x1be>
 8009510:	4641      	mov	r1, r8
 8009512:	4638      	mov	r0, r7
 8009514:	f7ff ff98 	bl	8009448 <base_of_encoded_value>
 8009518:	4622      	mov	r2, r4
 800951a:	4601      	mov	r1, r0
 800951c:	ab0b      	add	r3, sp, #44	; 0x2c
 800951e:	4638      	mov	r0, r7
 8009520:	f7ff ff38 	bl	8009394 <read_encoded_value_with_base>
 8009524:	4604      	mov	r4, r0
 8009526:	7820      	ldrb	r0, [r4, #0]
 8009528:	f88d 0034 	strb.w	r0, [sp, #52]	; 0x34
 800952c:	28ff      	cmp	r0, #255	; 0xff
 800952e:	f104 0401 	add.w	r4, r4, #1
 8009532:	f000 8137 	beq.w	80097a4 <__gnat_personality_v0+0x310>
 8009536:	2700      	movs	r7, #0
 8009538:	463a      	mov	r2, r7
 800953a:	f814 1b01 	ldrb.w	r1, [r4], #1
 800953e:	f001 037f 	and.w	r3, r1, #127	; 0x7f
 8009542:	4093      	lsls	r3, r2
 8009544:	431f      	orrs	r7, r3
 8009546:	060b      	lsls	r3, r1, #24
 8009548:	f102 0207 	add.w	r2, r2, #7
 800954c:	d4f5      	bmi.n	800953a <__gnat_personality_v0+0xa6>
 800954e:	4427      	add	r7, r4
 8009550:	970e      	str	r7, [sp, #56]	; 0x38
 8009552:	4641      	mov	r1, r8
 8009554:	f7ff ff78 	bl	8009448 <base_of_encoded_value>
 8009558:	900f      	str	r0, [sp, #60]	; 0x3c
 800955a:	7823      	ldrb	r3, [r4, #0]
 800955c:	f88d 3024 	strb.w	r3, [sp, #36]	; 0x24
 8009560:	2700      	movs	r7, #0
 8009562:	1c63      	adds	r3, r4, #1
 8009564:	4639      	mov	r1, r7
 8009566:	f813 0b01 	ldrb.w	r0, [r3], #1
 800956a:	f000 027f 	and.w	r2, r0, #127	; 0x7f
 800956e:	408a      	lsls	r2, r1
 8009570:	0600      	lsls	r0, r0, #24
 8009572:	ea47 0702 	orr.w	r7, r7, r2
 8009576:	f101 0107 	add.w	r1, r1, #7
 800957a:	d4f4      	bmi.n	8009566 <__gnat_personality_v0+0xd2>
 800957c:	9a08      	ldr	r2, [sp, #32]
 800957e:	930a      	str	r3, [sp, #40]	; 0x28
 8009580:	443b      	add	r3, r7
 8009582:	930c      	str	r3, [sp, #48]	; 0x30
 8009584:	2a00      	cmp	r2, #0
 8009586:	d054      	beq.n	8009632 <__gnat_personality_v0+0x19e>
 8009588:	2100      	movs	r1, #0
 800958a:	ab06      	add	r3, sp, #24
 800958c:	9300      	str	r3, [sp, #0]
 800958e:	220f      	movs	r2, #15
 8009590:	460b      	mov	r3, r1
 8009592:	4640      	mov	r0, r8
 8009594:	f002 fefe 	bl	800c394 <_Unwind_VRS_Get>
 8009598:	9b06      	ldr	r3, [sp, #24]
 800959a:	9c0a      	ldr	r4, [sp, #40]	; 0x28
 800959c:	9a0c      	ldr	r2, [sp, #48]	; 0x30
 800959e:	f005 0508 	and.w	r5, r5, #8
 80095a2:	f023 0301 	bic.w	r3, r3, #1
 80095a6:	4294      	cmp	r4, r2
 80095a8:	ea46 0705 	orr.w	r7, r6, r5
 80095ac:	f103 3aff 	add.w	sl, r3, #4294967295
 80095b0:	d23f      	bcs.n	8009632 <__gnat_personality_v0+0x19e>
 80095b2:	f89d 5024 	ldrb.w	r5, [sp, #36]	; 0x24
 80095b6:	2100      	movs	r1, #0
 80095b8:	4628      	mov	r0, r5
 80095ba:	f7ff ff45 	bl	8009448 <base_of_encoded_value>
 80095be:	4622      	mov	r2, r4
 80095c0:	4601      	mov	r1, r0
 80095c2:	ab04      	add	r3, sp, #16
 80095c4:	4628      	mov	r0, r5
 80095c6:	f7ff fee5 	bl	8009394 <read_encoded_value_with_base>
 80095ca:	f89d 4024 	ldrb.w	r4, [sp, #36]	; 0x24
 80095ce:	4605      	mov	r5, r0
 80095d0:	2100      	movs	r1, #0
 80095d2:	4620      	mov	r0, r4
 80095d4:	f7ff ff38 	bl	8009448 <base_of_encoded_value>
 80095d8:	462a      	mov	r2, r5
 80095da:	4601      	mov	r1, r0
 80095dc:	ab05      	add	r3, sp, #20
 80095de:	4620      	mov	r0, r4
 80095e0:	f7ff fed8 	bl	8009394 <read_encoded_value_with_base>
 80095e4:	f89d 4024 	ldrb.w	r4, [sp, #36]	; 0x24
 80095e8:	4605      	mov	r5, r0
 80095ea:	2100      	movs	r1, #0
 80095ec:	4620      	mov	r0, r4
 80095ee:	f7ff ff2b 	bl	8009448 <base_of_encoded_value>
 80095f2:	462a      	mov	r2, r5
 80095f4:	4601      	mov	r1, r0
 80095f6:	ab06      	add	r3, sp, #24
 80095f8:	4620      	mov	r0, r4
 80095fa:	f7ff fecb 	bl	8009394 <read_encoded_value_with_base>
 80095fe:	2600      	movs	r6, #0
 8009600:	4634      	mov	r4, r6
 8009602:	f810 5b01 	ldrb.w	r5, [r0], #1
 8009606:	f005 037f 	and.w	r3, r5, #127	; 0x7f
 800960a:	40a3      	lsls	r3, r4
 800960c:	062a      	lsls	r2, r5, #24
 800960e:	ea46 0603 	orr.w	r6, r6, r3
 8009612:	f104 0407 	add.w	r4, r4, #7
 8009616:	d4f4      	bmi.n	8009602 <__gnat_personality_v0+0x16e>
 8009618:	9a04      	ldr	r2, [sp, #16]
 800961a:	9b07      	ldr	r3, [sp, #28]
 800961c:	4413      	add	r3, r2
 800961e:	459a      	cmp	sl, r3
 8009620:	4604      	mov	r4, r0
 8009622:	d306      	bcc.n	8009632 <__gnat_personality_v0+0x19e>
 8009624:	9a05      	ldr	r2, [sp, #20]
 8009626:	4413      	add	r3, r2
 8009628:	459a      	cmp	sl, r3
 800962a:	d314      	bcc.n	8009656 <__gnat_personality_v0+0x1c2>
 800962c:	9b0c      	ldr	r3, [sp, #48]	; 0x30
 800962e:	4283      	cmp	r3, r0
 8009630:	d8bf      	bhi.n	80095b2 <__gnat_personality_v0+0x11e>
 8009632:	4648      	mov	r0, r9
 8009634:	4641      	mov	r1, r8
 8009636:	f003 fc41 	bl	800cebc <__gnu_unwind_frame>
 800963a:	2800      	cmp	r0, #0
 800963c:	f47f af38 	bne.w	80094b0 <__gnat_personality_v0+0x1c>
 8009640:	2008      	movs	r0, #8
 8009642:	b011      	add	sp, #68	; 0x44
 8009644:	e8bd 8ff0 	ldmia.w	sp!, {r4, r5, r6, r7, r8, r9, sl, fp, pc}
 8009648:	2602      	movs	r6, #2
 800964a:	e741      	b.n	80094d0 <__gnat_personality_v0+0x3c>
 800964c:	f8cd 8020 	str.w	r8, [sp, #32]
 8009650:	e7ef      	b.n	8009632 <__gnat_personality_v0+0x19e>
 8009652:	900b      	str	r0, [sp, #44]	; 0x2c
 8009654:	e767      	b.n	8009526 <__gnat_personality_v0+0x92>
 8009656:	9b06      	ldr	r3, [sp, #24]
 8009658:	bb0b      	cbnz	r3, 800969e <__gnat_personality_v0+0x20a>
 800965a:	2e00      	cmp	r6, #0
 800965c:	d0e9      	beq.n	8009632 <__gnat_personality_v0+0x19e>
 800965e:	469a      	mov	sl, r3
 8009660:	980c      	ldr	r0, [sp, #48]	; 0x30
 8009662:	3e01      	subs	r6, #1
 8009664:	4430      	add	r0, r6
 8009666:	f1ba 0f00 	cmp.w	sl, #0
 800966a:	d0e2      	beq.n	8009632 <__gnat_personality_v0+0x19e>
 800966c:	b1f8      	cbz	r0, 80096ae <__gnat_personality_v0+0x21a>
 800966e:	4e62      	ldr	r6, [pc, #392]	; (80097f8 <__gnat_personality_v0+0x364>)
 8009670:	2501      	movs	r5, #1
 8009672:	e008      	b.n	8009686 <__gnat_personality_v0+0x1f2>
 8009674:	dd02      	ble.n	800967c <__gnat_personality_v0+0x1e8>
 8009676:	f017 0208 	ands.w	r2, r7, #8
 800967a:	d04a      	beq.n	8009712 <__gnat_personality_v0+0x27e>
 800967c:	9805      	ldr	r0, [sp, #20]
 800967e:	2800      	cmp	r0, #0
 8009680:	f000 80b4 	beq.w	80097ec <__gnat_personality_v0+0x358>
 8009684:	4420      	add	r0, r4
 8009686:	a904      	add	r1, sp, #16
 8009688:	f7ff fe6c 	bl	8009364 <read_sleb128>
 800968c:	a905      	add	r1, sp, #20
 800968e:	4604      	mov	r4, r0
 8009690:	f7ff fe68 	bl	8009364 <read_sleb128>
 8009694:	9b04      	ldr	r3, [sp, #16]
 8009696:	2b00      	cmp	r3, #0
 8009698:	d1ec      	bne.n	8009674 <__gnat_personality_v0+0x1e0>
 800969a:	2502      	movs	r5, #2
 800969c:	e7ee      	b.n	800967c <__gnat_personality_v0+0x1e8>
 800969e:	9a0b      	ldr	r2, [sp, #44]	; 0x2c
 80096a0:	eb03 0a02 	add.w	sl, r3, r2
 80096a4:	2e00      	cmp	r6, #0
 80096a6:	d1db      	bne.n	8009660 <__gnat_personality_v0+0x1cc>
 80096a8:	f1ba 0f00 	cmp.w	sl, #0
 80096ac:	d0c1      	beq.n	8009632 <__gnat_personality_v0+0x19e>
 80096ae:	f017 0001 	ands.w	r0, r7, #1
 80096b2:	d1be      	bne.n	8009632 <__gnat_personality_v0+0x19e>
 80096b4:	4604      	mov	r4, r0
 80096b6:	2100      	movs	r1, #0
 80096b8:	ab06      	add	r3, sp, #24
 80096ba:	460a      	mov	r2, r1
 80096bc:	9300      	str	r3, [sp, #0]
 80096be:	4640      	mov	r0, r8
 80096c0:	460b      	mov	r3, r1
 80096c2:	f8cd 9018 	str.w	r9, [sp, #24]
 80096c6:	f002 fe8b 	bl	800c3e0 <_Unwind_VRS_Set>
 80096ca:	2100      	movs	r1, #0
 80096cc:	ab05      	add	r3, sp, #20
 80096ce:	9300      	str	r3, [sp, #0]
 80096d0:	2201      	movs	r2, #1
 80096d2:	460b      	mov	r3, r1
 80096d4:	4640      	mov	r0, r8
 80096d6:	9405      	str	r4, [sp, #20]
 80096d8:	f002 fe82 	bl	800c3e0 <_Unwind_VRS_Set>
 80096dc:	2100      	movs	r1, #0
 80096de:	ab04      	add	r3, sp, #16
 80096e0:	9300      	str	r3, [sp, #0]
 80096e2:	220f      	movs	r2, #15
 80096e4:	460b      	mov	r3, r1
 80096e6:	4640      	mov	r0, r8
 80096e8:	f002 fe54 	bl	800c394 <_Unwind_VRS_Get>
 80096ec:	9b04      	ldr	r3, [sp, #16]
 80096ee:	2100      	movs	r1, #0
 80096f0:	aa04      	add	r2, sp, #16
 80096f2:	f003 0301 	and.w	r3, r3, #1
 80096f6:	9200      	str	r2, [sp, #0]
 80096f8:	ea43 040a 	orr.w	r4, r3, sl
 80096fc:	220f      	movs	r2, #15
 80096fe:	460b      	mov	r3, r1
 8009700:	4640      	mov	r0, r8
 8009702:	9404      	str	r4, [sp, #16]
 8009704:	f002 fe6c 	bl	800c3e0 <_Unwind_VRS_Set>
 8009708:	4648      	mov	r0, r9
 800970a:	f000 ff5f 	bl	800a5cc <__gnat_setup_current_excep>
 800970e:	2007      	movs	r0, #7
 8009710:	e6cf      	b.n	80094b2 <__gnat_personality_v0+0x1e>
 8009712:	f89d 0034 	ldrb.w	r0, [sp, #52]	; 0x34
 8009716:	28ff      	cmp	r0, #255	; 0xff
 8009718:	d00a      	beq.n	8009730 <__gnat_personality_v0+0x29c>
 800971a:	f000 0207 	and.w	r2, r0, #7
 800971e:	2a04      	cmp	r2, #4
 8009720:	d849      	bhi.n	80097b6 <__gnat_personality_v0+0x322>
 8009722:	e8df f002 	tbb	[pc, r2]
 8009726:	4803      	.short	0x4803
 8009728:	0345      	.short	0x0345
 800972a:	42          	.byte	0x42
 800972b:	00          	.byte	0x00
 800972c:	009b      	lsls	r3, r3, #2
 800972e:	425a      	negs	r2, r3
 8009730:	9b0e      	ldr	r3, [sp, #56]	; 0x38
 8009732:	990f      	ldr	r1, [sp, #60]	; 0x3c
 8009734:	441a      	add	r2, r3
 8009736:	ab06      	add	r3, sp, #24
 8009738:	f7ff fe2c 	bl	8009394 <read_encoded_value_with_base>
 800973c:	f8dd b018 	ldr.w	fp, [sp, #24]
 8009740:	45b3      	cmp	fp, r6
 8009742:	d01f      	beq.n	8009784 <__gnat_personality_v0+0x2f0>
 8009744:	4648      	mov	r0, r9
 8009746:	492d      	ldr	r1, [pc, #180]	; (80097fc <__gnat_personality_v0+0x368>)
 8009748:	2208      	movs	r2, #8
 800974a:	f000 f967 	bl	8009a1c <memcmp>
 800974e:	b3a0      	cbz	r0, 80097ba <__gnat_personality_v0+0x326>
 8009750:	4b2b      	ldr	r3, [pc, #172]	; (8009800 <__gnat_personality_v0+0x36c>)
 8009752:	459b      	cmp	fp, r3
 8009754:	d016      	beq.n	8009784 <__gnat_personality_v0+0x2f0>
 8009756:	4a2b      	ldr	r2, [pc, #172]	; (8009804 <__gnat_personality_v0+0x370>)
 8009758:	4593      	cmp	fp, r2
 800975a:	d013      	beq.n	8009784 <__gnat_personality_v0+0x2f0>
 800975c:	4648      	mov	r0, r9
 800975e:	492a      	ldr	r1, [pc, #168]	; (8009808 <__gnat_personality_v0+0x374>)
 8009760:	2208      	movs	r2, #8
 8009762:	f000 f95b 	bl	8009a1c <memcmp>
 8009766:	2800      	cmp	r0, #0
 8009768:	d188      	bne.n	800967c <__gnat_personality_v0+0x1e8>
 800976a:	4658      	mov	r0, fp
 800976c:	f000 ff8e 	bl	800a68c <__gnat_language_for>
 8009770:	2843      	cmp	r0, #67	; 0x43
 8009772:	d183      	bne.n	800967c <__gnat_personality_v0+0x1e8>
 8009774:	4658      	mov	r0, fp
 8009776:	f000 ff83 	bl	800a680 <__gnat_foreign_data_for>
 800977a:	f859 3c20 	ldr.w	r3, [r9, #-32]
 800977e:	4283      	cmp	r3, r0
 8009780:	f47f af7c 	bne.w	800967c <__gnat_personality_v0+0x1e8>
 8009784:	2503      	movs	r5, #3
 8009786:	9c04      	ldr	r4, [sp, #16]
 8009788:	07fb      	lsls	r3, r7, #31
 800978a:	d594      	bpl.n	80096b6 <__gnat_personality_v0+0x222>
 800978c:	2d02      	cmp	r5, #2
 800978e:	f43f af50 	beq.w	8009632 <__gnat_personality_v0+0x19e>
 8009792:	4648      	mov	r0, r9
 8009794:	f000 ff1a 	bl	800a5cc <__gnat_setup_current_excep>
 8009798:	2d04      	cmp	r5, #4
 800979a:	d016      	beq.n	80097ca <__gnat_personality_v0+0x336>
 800979c:	f000 fff6 	bl	800a78c <__gnat_notify_handled_exception>
 80097a0:	2006      	movs	r0, #6
 80097a2:	e686      	b.n	80094b2 <__gnat_personality_v0+0x1e>
 80097a4:	2300      	movs	r3, #0
 80097a6:	930e      	str	r3, [sp, #56]	; 0x38
 80097a8:	e6d3      	b.n	8009552 <__gnat_personality_v0+0xbe>
 80097aa:	00db      	lsls	r3, r3, #3
 80097ac:	425a      	negs	r2, r3
 80097ae:	e7bf      	b.n	8009730 <__gnat_personality_v0+0x29c>
 80097b0:	005b      	lsls	r3, r3, #1
 80097b2:	425a      	negs	r2, r3
 80097b4:	e7bc      	b.n	8009730 <__gnat_personality_v0+0x29c>
 80097b6:	f001 ff65 	bl	800b684 <abort>
 80097ba:	4648      	mov	r0, r9
 80097bc:	f000 ff5e 	bl	800a67c <__gnat_eid_for>
 80097c0:	4a12      	ldr	r2, [pc, #72]	; (800980c <__gnat_personality_v0+0x378>)
 80097c2:	4593      	cmp	fp, r2
 80097c4:	d104      	bne.n	80097d0 <__gnat_personality_v0+0x33c>
 80097c6:	2504      	movs	r5, #4
 80097c8:	e7dd      	b.n	8009786 <__gnat_personality_v0+0x2f2>
 80097ca:	f000 ffe5 	bl	800a798 <__gnat_notify_unhandled_exception>
 80097ce:	e7e7      	b.n	80097a0 <__gnat_personality_v0+0x30c>
 80097d0:	4648      	mov	r0, r9
 80097d2:	f000 ff53 	bl	800a67c <__gnat_eid_for>
 80097d6:	4583      	cmp	fp, r0
 80097d8:	d0d4      	beq.n	8009784 <__gnat_personality_v0+0x2f0>
 80097da:	4b09      	ldr	r3, [pc, #36]	; (8009800 <__gnat_personality_v0+0x36c>)
 80097dc:	459b      	cmp	fp, r3
 80097de:	f47f af4d 	bne.w	800967c <__gnat_personality_v0+0x1e8>
 80097e2:	f000 ff4f 	bl	800a684 <__gnat_is_handled_by_others>
 80097e6:	2800      	cmp	r0, #0
 80097e8:	d1cc      	bne.n	8009784 <__gnat_personality_v0+0x2f0>
 80097ea:	e747      	b.n	800967c <__gnat_personality_v0+0x1e8>
 80097ec:	2d01      	cmp	r5, #1
 80097ee:	4604      	mov	r4, r0
 80097f0:	f43f af1f 	beq.w	8009632 <__gnat_personality_v0+0x19e>
 80097f4:	e7c8      	b.n	8009788 <__gnat_personality_v0+0x2f4>
 80097f6:	bf00      	nop
 80097f8:	080100b5 	.word	0x080100b5
 80097fc:	0800f68c 	.word	0x0800f68c
 8009800:	080100b4 	.word	0x080100b4
 8009804:	2000014c 	.word	0x2000014c
 8009808:	0800f694 	.word	0x0800f694
 800980c:	080100b6 	.word	0x080100b6

08009810 <__gnat_cleanupunwind_handler>:
 8009810:	06ca      	lsls	r2, r1, #27
 8009812:	d401      	bmi.n	8009818 <__gnat_cleanupunwind_handler+0x8>
 8009814:	2000      	movs	r0, #0
 8009816:	4770      	bx	lr
 8009818:	b508      	push	{r3, lr}
 800981a:	4618      	mov	r0, r3
 800981c:	f000 ff28 	bl	800a670 <__gnat_unhandled_except_handler>
 8009820:	2000      	movs	r0, #0
 8009822:	bd08      	pop	{r3, pc}

08009824 <__gnat_Unwind_RaiseException>:
 8009824:	f003 b962 	b.w	800caec <_Unwind_RaiseException>

08009828 <__gnat_Unwind_ForcedUnwind>:
 8009828:	f003 b996 	b.w	800cb58 <_Unwind_ForcedUnwind>

0800982c <__gnat_finalize>:
 800982c:	4770      	bx	lr
 800982e:	bf00      	nop

08009830 <__gnat_initialize>:
 8009830:	4770      	bx	lr
 8009832:	bf00      	nop

08009834 <__gnat_runtime_initialize>:
 8009834:	b510      	push	{r4, lr}
 8009836:	4c14      	ldr	r4, [pc, #80]	; (8009888 <__gnat_runtime_initialize+0x54>)
 8009838:	f7fe ff56 	bl	80086e8 <system__tasking__initialize>
 800983c:	4620      	mov	r0, r4
 800983e:	2101      	movs	r1, #1
 8009840:	2200      	movs	r2, #0
 8009842:	f7ff f8b7 	bl	80089b4 <system__bb__cpu_primitives__install_trap_handler>
 8009846:	4620      	mov	r0, r4
 8009848:	2102      	movs	r1, #2
 800984a:	2200      	movs	r2, #0
 800984c:	f7ff f8b2 	bl	80089b4 <system__bb__cpu_primitives__install_trap_handler>
 8009850:	4620      	mov	r0, r4
 8009852:	2103      	movs	r1, #3
 8009854:	2200      	movs	r2, #0
 8009856:	f7ff f8ad 	bl	80089b4 <system__bb__cpu_primitives__install_trap_handler>
 800985a:	4620      	mov	r0, r4
 800985c:	2105      	movs	r1, #5
 800985e:	2200      	movs	r2, #0
 8009860:	f7ff f8a8 	bl	80089b4 <system__bb__cpu_primitives__install_trap_handler>
 8009864:	4620      	mov	r0, r4
 8009866:	2106      	movs	r1, #6
 8009868:	2200      	movs	r2, #0
 800986a:	f7ff f8a3 	bl	80089b4 <system__bb__cpu_primitives__install_trap_handler>
 800986e:	4620      	mov	r0, r4
 8009870:	210e      	movs	r1, #14
 8009872:	2200      	movs	r2, #0
 8009874:	f7ff f89e 	bl	80089b4 <system__bb__cpu_primitives__install_trap_handler>
 8009878:	4620      	mov	r0, r4
 800987a:	210b      	movs	r1, #11
 800987c:	2200      	movs	r2, #0
 800987e:	e8bd 4010 	ldmia.w	sp!, {r4, lr}
 8009882:	f7ff b897 	b.w	80089b4 <system__bb__cpu_primitives__install_trap_handler>
 8009886:	bf00      	nop
 8009888:	08008821 	.word	0x08008821

0800988c <__gnat_runtime_finalize>:
 800988c:	4770      	bx	lr
 800988e:	bf00      	nop

08009890 <system__soft_links__get_current_excep_soft>:
 8009890:	4b02      	ldr	r3, [pc, #8]	; (800989c <system__soft_links__get_current_excep_soft+0xc>)
 8009892:	681b      	ldr	r3, [r3, #0]
 8009894:	6a98      	ldr	r0, [r3, #40]	; 0x28
 8009896:	309c      	adds	r0, #156	; 0x9c
 8009898:	4770      	bx	lr
 800989a:	bf00      	nop
 800989c:	20000104 	.word	0x20000104

080098a0 <system__soft_links__adafinal_soft>:
 80098a0:	4b01      	ldr	r3, [pc, #4]	; (80098a8 <system__soft_links__adafinal_soft+0x8>)
 80098a2:	4802      	ldr	r0, [pc, #8]	; (80098ac <system__soft_links__adafinal_soft+0xc>)
 80098a4:	681b      	ldr	r3, [r3, #0]
 80098a6:	4718      	bx	r3
 80098a8:	200001ac 	.word	0x200001ac
 80098ac:	0800fb14 	.word	0x0800fb14

080098b0 <system__soft_links__task_lock_soft>:
 80098b0:	490c      	ldr	r1, [pc, #48]	; (80098e4 <system__soft_links__task_lock_soft+0x34>)
 80098b2:	680b      	ldr	r3, [r1, #0]
 80098b4:	6a9a      	ldr	r2, [r3, #40]	; 0x28
 80098b6:	f8d2 324c 	ldr.w	r3, [r2, #588]	; 0x24c
 80098ba:	3301      	adds	r3, #1
 80098bc:	2b01      	cmp	r3, #1
 80098be:	f8c2 324c 	str.w	r3, [r2, #588]	; 0x24c
 80098c2:	d000      	beq.n	80098c6 <system__soft_links__task_lock_soft+0x16>
 80098c4:	4770      	bx	lr
 80098c6:	b510      	push	{r4, lr}
 80098c8:	f8d2 3080 	ldr.w	r3, [r2, #128]	; 0x80
 80098cc:	6b5c      	ldr	r4, [r3, #52]	; 0x34
 80098ce:	b672      	cpsid	i
 80098d0:	6808      	ldr	r0, [r1, #0]
 80098d2:	21ff      	movs	r1, #255	; 0xff
 80098d4:	f7fe fb94 	bl	8008000 <system__bb__threads__queues__change_priority>
 80098d8:	f7ff f8ea 	bl	8008ab0 <system__bb__protection__leave_kernel>
 80098dc:	4b02      	ldr	r3, [pc, #8]	; (80098e8 <system__soft_links__task_lock_soft+0x38>)
 80098de:	601c      	str	r4, [r3, #0]
 80098e0:	bd10      	pop	{r4, pc}
 80098e2:	bf00      	nop
 80098e4:	20000104 	.word	0x20000104
 80098e8:	20003dd4 	.word	0x20003dd4

080098ec <system__soft_links__task_unlock_soft>:
 80098ec:	b508      	push	{r3, lr}
 80098ee:	490a      	ldr	r1, [pc, #40]	; (8009918 <system__soft_links__task_unlock_soft+0x2c>)
 80098f0:	680b      	ldr	r3, [r1, #0]
 80098f2:	6a9a      	ldr	r2, [r3, #40]	; 0x28
 80098f4:	f8d2 324c 	ldr.w	r3, [r2, #588]	; 0x24c
 80098f8:	3b01      	subs	r3, #1
 80098fa:	f8c2 324c 	str.w	r3, [r2, #588]	; 0x24c
 80098fe:	b103      	cbz	r3, 8009902 <system__soft_links__task_unlock_soft+0x16>
 8009900:	bd08      	pop	{r3, pc}
 8009902:	b672      	cpsid	i
 8009904:	4b05      	ldr	r3, [pc, #20]	; (800991c <system__soft_links__task_unlock_soft+0x30>)
 8009906:	6808      	ldr	r0, [r1, #0]
 8009908:	6819      	ldr	r1, [r3, #0]
 800990a:	f7fe fb79 	bl	8008000 <system__bb__threads__queues__change_priority>
 800990e:	e8bd 4008 	ldmia.w	sp!, {r3, lr}
 8009912:	f7ff b8cd 	b.w	8008ab0 <system__bb__protection__leave_kernel>
 8009916:	bf00      	nop
 8009918:	20000104 	.word	0x20000104
 800991c:	20003dd4 	.word	0x20003dd4

08009920 <system__soft_links__task_termination_soft>:
 8009920:	b570      	push	{r4, r5, r6, lr}
 8009922:	b082      	sub	sp, #8
 8009924:	4d12      	ldr	r5, [pc, #72]	; (8009970 <system__soft_links__task_termination_soft+0x50>)
 8009926:	682b      	ldr	r3, [r5, #0]
 8009928:	6a9e      	ldr	r6, [r3, #40]	; 0x28
 800992a:	b672      	cpsid	i
 800992c:	21ff      	movs	r1, #255	; 0xff
 800992e:	6828      	ldr	r0, [r5, #0]
 8009930:	f7fe fb66 	bl	8008000 <system__bb__threads__queues__change_priority>
 8009934:	f7ff f8bc 	bl	8008ab0 <system__bb__protection__leave_kernel>
 8009938:	4b0e      	ldr	r3, [pc, #56]	; (8009974 <system__soft_links__task_termination_soft+0x54>)
 800993a:	68f2      	ldr	r2, [r6, #12]
 800993c:	e893 0003 	ldmia.w	r3, {r0, r1}
 8009940:	e88d 0003 	stmia.w	sp, {r0, r1}
 8009944:	b672      	cpsid	i
 8009946:	4611      	mov	r1, r2
 8009948:	6828      	ldr	r0, [r5, #0]
 800994a:	f7fe fb59 	bl	8008000 <system__bb__threads__queues__change_priority>
 800994e:	f7ff f8af 	bl	8008ab0 <system__bb__protection__leave_kernel>
 8009952:	4668      	mov	r0, sp
 8009954:	4908      	ldr	r1, [pc, #32]	; (8009978 <system__soft_links__task_termination_soft+0x58>)
 8009956:	2208      	movs	r2, #8
 8009958:	f000 f860 	bl	8009a1c <memcmp>
 800995c:	b908      	cbnz	r0, 8009962 <system__soft_links__task_termination_soft+0x42>
 800995e:	b002      	add	sp, #8
 8009960:	bd70      	pop	{r4, r5, r6, pc}
 8009962:	e89d 0009 	ldmia.w	sp, {r0, r3}
 8009966:	4631      	mov	r1, r6
 8009968:	b002      	add	sp, #8
 800996a:	e8bd 4070 	ldmia.w	sp!, {r4, r5, r6, lr}
 800996e:	4718      	bx	r3
 8009970:	20000104 	.word	0x20000104
 8009974:	2000012c 	.word	0x2000012c
 8009978:	0800f6c0 	.word	0x0800f6c0

0800997c <system__soft_links___elabs>:
 800997c:	4b05      	ldr	r3, [pc, #20]	; (8009994 <system__soft_links___elabs+0x18>)
 800997e:	2200      	movs	r2, #0
 8009980:	601a      	str	r2, [r3, #0]
 8009982:	609a      	str	r2, [r3, #8]
 8009984:	f883 20d4 	strb.w	r2, [r3, #212]	; 0xd4
 8009988:	f8c3 20d8 	str.w	r2, [r3, #216]	; 0xd8
 800998c:	f8c3 20dc 	str.w	r2, [r3, #220]	; 0xdc
 8009990:	4770      	bx	lr
 8009992:	bf00      	nop
 8009994:	20003dd8 	.word	0x20003dd8

08009998 <system__storage_pools___size__2>:
 8009998:	2020      	movs	r0, #32
 800999a:	2100      	movs	r1, #0
 800999c:	4770      	bx	lr
 800999e:	bf00      	nop

080099a0 <system__storage_pools__root_storage_poolDF__2>:
 80099a0:	4770      	bx	lr
 80099a2:	bf00      	nop

080099a4 <system__storage_pools___elabs>:
 80099a4:	4801      	ldr	r0, [pc, #4]	; (80099ac <system__storage_pools___elabs+0x8>)
 80099a6:	f000 b927 	b.w	8009bf8 <ada__tags__register_tag>
 80099aa:	bf00      	nop
 80099ac:	0800f704 	.word	0x0800f704

080099b0 <ada__text_io__put>:
 80099b0:	b510      	push	{r4, lr}
 80099b2:	4604      	mov	r4, r0
 80099b4:	f002 f912 	bl	800bbdc <system__text_io__is_tx_ready>
 80099b8:	2800      	cmp	r0, #0
 80099ba:	d0fb      	beq.n	80099b4 <ada__text_io__put+0x4>
 80099bc:	4620      	mov	r0, r4
 80099be:	e8bd 4010 	ldmia.w	sp!, {r4, lr}
 80099c2:	f002 b913 	b.w	800bbec <system__text_io__put>
 80099c6:	bf00      	nop

080099c8 <ada__text_io__new_line>:
 80099c8:	b508      	push	{r3, lr}
 80099ca:	f002 f917 	bl	800bbfc <system__text_io__use_cr_lf_for_new_line>
 80099ce:	b110      	cbz	r0, 80099d6 <ada__text_io__new_line+0xe>
 80099d0:	200d      	movs	r0, #13
 80099d2:	f7ff ffed 	bl	80099b0 <ada__text_io__put>
 80099d6:	200a      	movs	r0, #10
 80099d8:	e8bd 4008 	ldmia.w	sp!, {r3, lr}
 80099dc:	f7ff bfe8 	b.w	80099b0 <ada__text_io__put>

080099e0 <ada__text_io__put__2>:
 80099e0:	b570      	push	{r4, r5, r6, lr}
 80099e2:	e891 0050 	ldmia.w	r1, {r4, r6}
 80099e6:	42b4      	cmp	r4, r6
 80099e8:	dc07      	bgt.n	80099fa <ada__text_io__put__2+0x1a>
 80099ea:	1b05      	subs	r5, r0, r4
 80099ec:	3c01      	subs	r4, #1
 80099ee:	3401      	adds	r4, #1
 80099f0:	5d28      	ldrb	r0, [r5, r4]
 80099f2:	f7ff ffdd 	bl	80099b0 <ada__text_io__put>
 80099f6:	42b4      	cmp	r4, r6
 80099f8:	d1f9      	bne.n	80099ee <ada__text_io__put__2+0xe>
 80099fa:	bd70      	pop	{r4, r5, r6, pc}

080099fc <ada__text_io__put_line>:
 80099fc:	b508      	push	{r3, lr}
 80099fe:	f7ff ffef 	bl	80099e0 <ada__text_io__put__2>
 8009a02:	e8bd 4008 	ldmia.w	sp!, {r3, lr}
 8009a06:	f7ff bfdf 	b.w	80099c8 <ada__text_io__new_line>
 8009a0a:	bf00      	nop

08009a0c <ada__text_io___elabb>:
 8009a0c:	4b02      	ldr	r3, [pc, #8]	; (8009a18 <ada__text_io___elabb+0xc>)
 8009a0e:	781b      	ldrb	r3, [r3, #0]
 8009a10:	b103      	cbz	r3, 8009a14 <ada__text_io___elabb+0x8>
 8009a12:	4770      	bx	lr
 8009a14:	f001 bf32 	b.w	800b87c <system__text_io__initialize>
 8009a18:	200002c8 	.word	0x200002c8

08009a1c <memcmp>:
 8009a1c:	b182      	cbz	r2, 8009a40 <memcmp+0x24>
 8009a1e:	b430      	push	{r4, r5}
 8009a20:	3a01      	subs	r2, #1
 8009a22:	f04f 33ff 	mov.w	r3, #4294967295
 8009a26:	e002      	b.n	8009a2e <memcmp+0x12>
 8009a28:	d80c      	bhi.n	8009a44 <memcmp+0x28>
 8009a2a:	4293      	cmp	r3, r2
 8009a2c:	d00d      	beq.n	8009a4a <memcmp+0x2e>
 8009a2e:	3301      	adds	r3, #1
 8009a30:	5c1d      	ldrb	r5, [r3, r0]
 8009a32:	5c5c      	ldrb	r4, [r3, r1]
 8009a34:	42a5      	cmp	r5, r4
 8009a36:	d2f7      	bcs.n	8009a28 <memcmp+0xc>
 8009a38:	f04f 30ff 	mov.w	r0, #4294967295
 8009a3c:	bc30      	pop	{r4, r5}
 8009a3e:	4770      	bx	lr
 8009a40:	2000      	movs	r0, #0
 8009a42:	4770      	bx	lr
 8009a44:	2001      	movs	r0, #1
 8009a46:	bc30      	pop	{r4, r5}
 8009a48:	4770      	bx	lr
 8009a4a:	2000      	movs	r0, #0
 8009a4c:	e7f6      	b.n	8009a3c <memcmp+0x20>
 8009a4e:	bf00      	nop

08009a50 <ada__tags__htable_subprograms__hashXn>:
 8009a50:	b430      	push	{r4, r5}
 8009a52:	7804      	ldrb	r4, [r0, #0]
 8009a54:	b1d4      	cbz	r4, 8009a8c <ada__tags__htable_subprograms__hashXn+0x3c>
 8009a56:	1c45      	adds	r5, r0, #1
 8009a58:	4629      	mov	r1, r5
 8009a5a:	2201      	movs	r2, #1
 8009a5c:	f811 3b01 	ldrb.w	r3, [r1], #1
 8009a60:	3201      	adds	r2, #1
 8009a62:	2b00      	cmp	r3, #0
 8009a64:	d1fa      	bne.n	8009a5c <ada__tags__htable_subprograms__hashXn+0xc>
 8009a66:	3a01      	subs	r2, #1
 8009a68:	4402      	add	r2, r0
 8009a6a:	4628      	mov	r0, r5
 8009a6c:	e001      	b.n	8009a72 <ada__tags__htable_subprograms__hashXn+0x22>
 8009a6e:	f810 4b01 	ldrb.w	r4, [r0], #1
 8009a72:	0419      	lsls	r1, r3, #16
 8009a74:	eb01 1183 	add.w	r1, r1, r3, lsl #6
 8009a78:	440c      	add	r4, r1
 8009a7a:	4290      	cmp	r0, r2
 8009a7c:	eba4 0303 	sub.w	r3, r4, r3
 8009a80:	d1f5      	bne.n	8009a6e <ada__tags__htable_subprograms__hashXn+0x1e>
 8009a82:	f003 033f 	and.w	r3, r3, #63	; 0x3f
 8009a86:	1c58      	adds	r0, r3, #1
 8009a88:	bc30      	pop	{r4, r5}
 8009a8a:	4770      	bx	lr
 8009a8c:	2001      	movs	r0, #1
 8009a8e:	e7fb      	b.n	8009a88 <ada__tags__htable_subprograms__hashXn+0x38>

08009a90 <ada__tags__external_tag_htable__getXn>:
 8009a90:	b5f8      	push	{r3, r4, r5, r6, r7, lr}
 8009a92:	4605      	mov	r5, r0
 8009a94:	f7ff ffdc 	bl	8009a50 <ada__tags__htable_subprograms__hashXn>
 8009a98:	b240      	sxtb	r0, r0
 8009a9a:	f100 4380 	add.w	r3, r0, #1073741824	; 0x40000000
 8009a9e:	3b01      	subs	r3, #1
 8009aa0:	4a0c      	ldr	r2, [pc, #48]	; (8009ad4 <ada__tags__external_tag_htable__getXn+0x44>)
 8009aa2:	f852 0023 	ldr.w	r0, [r2, r3, lsl #2]
 8009aa6:	b198      	cbz	r0, 8009ad0 <ada__tags__external_tag_htable__getXn+0x40>
 8009aa8:	782f      	ldrb	r7, [r5, #0]
 8009aaa:	f850 6c04 	ldr.w	r6, [r0, #-4]
 8009aae:	6934      	ldr	r4, [r6, #16]
 8009ab0:	7823      	ldrb	r3, [r4, #0]
 8009ab2:	42bb      	cmp	r3, r7
 8009ab4:	d108      	bne.n	8009ac8 <ada__tags__external_tag_htable__getXn+0x38>
 8009ab6:	b15f      	cbz	r7, 8009ad0 <ada__tags__external_tag_htable__getXn+0x40>
 8009ab8:	2301      	movs	r3, #1
 8009aba:	e001      	b.n	8009ac0 <ada__tags__external_tag_htable__getXn+0x30>
 8009abc:	3301      	adds	r3, #1
 8009abe:	b13a      	cbz	r2, 8009ad0 <ada__tags__external_tag_htable__getXn+0x40>
 8009ac0:	5ce2      	ldrb	r2, [r4, r3]
 8009ac2:	5d59      	ldrb	r1, [r3, r5]
 8009ac4:	428a      	cmp	r2, r1
 8009ac6:	d0f9      	beq.n	8009abc <ada__tags__external_tag_htable__getXn+0x2c>
 8009ac8:	6973      	ldr	r3, [r6, #20]
 8009aca:	6818      	ldr	r0, [r3, #0]
 8009acc:	2800      	cmp	r0, #0
 8009ace:	d1ec      	bne.n	8009aaa <ada__tags__external_tag_htable__getXn+0x1a>
 8009ad0:	bdf8      	pop	{r3, r4, r5, r6, r7, pc}
 8009ad2:	bf00      	nop
 8009ad4:	20003f80 	.word	0x20003f80

08009ad8 <ada__tags__external_tag_htable__setXn>:
 8009ad8:	b538      	push	{r3, r4, r5, lr}
 8009ada:	f850 5c04 	ldr.w	r5, [r0, #-4]
 8009ade:	4604      	mov	r4, r0
 8009ae0:	6928      	ldr	r0, [r5, #16]
 8009ae2:	f7ff ffb5 	bl	8009a50 <ada__tags__htable_subprograms__hashXn>
 8009ae6:	f06f 4340 	mvn.w	r3, #3221225472	; 0xc0000000
 8009aea:	fa43 f080 	sxtab	r0, r3, r0
 8009aee:	4a04      	ldr	r2, [pc, #16]	; (8009b00 <ada__tags__external_tag_htable__setXn+0x28>)
 8009af0:	6969      	ldr	r1, [r5, #20]
 8009af2:	f852 3020 	ldr.w	r3, [r2, r0, lsl #2]
 8009af6:	600b      	str	r3, [r1, #0]
 8009af8:	f842 4020 	str.w	r4, [r2, r0, lsl #2]
 8009afc:	bd38      	pop	{r3, r4, r5, pc}
 8009afe:	bf00      	nop
 8009b00:	20003f80 	.word	0x20003f80

08009b04 <ada__tags__check_tsd>:
 8009b04:	b5f0      	push	{r4, r5, r6, r7, lr}
 8009b06:	b083      	sub	sp, #12
 8009b08:	af00      	add	r7, sp, #0
 8009b0a:	6905      	ldr	r5, [r0, #16]
 8009b0c:	782b      	ldrb	r3, [r5, #0]
 8009b0e:	b173      	cbz	r3, 8009b2e <ada__tags__check_tsd+0x2a>
 8009b10:	1c6b      	adds	r3, r5, #1
 8009b12:	2401      	movs	r4, #1
 8009b14:	f813 2b01 	ldrb.w	r2, [r3], #1
 8009b18:	3401      	adds	r4, #1
 8009b1a:	2a00      	cmp	r2, #0
 8009b1c:	d1fa      	bne.n	8009b14 <ada__tags__check_tsd+0x10>
 8009b1e:	1e66      	subs	r6, r4, #1
 8009b20:	4628      	mov	r0, r5
 8009b22:	f7ff ffb5 	bl	8009a90 <ada__tags__external_tag_htable__getXn>
 8009b26:	b928      	cbnz	r0, 8009b34 <ada__tags__check_tsd+0x30>
 8009b28:	370c      	adds	r7, #12
 8009b2a:	46bd      	mov	sp, r7
 8009b2c:	bdf0      	pop	{r4, r5, r6, r7, pc}
 8009b2e:	461e      	mov	r6, r3
 8009b30:	2401      	movs	r4, #1
 8009b32:	e7f5      	b.n	8009b20 <ada__tags__check_tsd+0x1c>
 8009b34:	f8df e05c 	ldr.w	lr, [pc, #92]	; 8009b94 <ada__tags__check_tsd+0x90>
 8009b38:	3419      	adds	r4, #25
 8009b3a:	e8be 000f 	ldmia.w	lr!, {r0, r1, r2, r3}
 8009b3e:	ea24 7ce4 	bic.w	ip, r4, r4, asr #31
 8009b42:	f10c 0c07 	add.w	ip, ip, #7
 8009b46:	f02c 0c07 	bic.w	ip, ip, #7
 8009b4a:	ebad 0d0c 	sub.w	sp, sp, ip
 8009b4e:	9000      	str	r0, [sp, #0]
 8009b50:	9101      	str	r1, [sp, #4]
 8009b52:	e8be 0003 	ldmia.w	lr!, {r0, r1}
 8009b56:	9202      	str	r2, [sp, #8]
 8009b58:	9105      	str	r1, [sp, #20]
 8009b5a:	ea26 72e6 	bic.w	r2, r6, r6, asr #31
 8009b5e:	4629      	mov	r1, r5
 8009b60:	f89e 6000 	ldrb.w	r6, [lr]
 8009b64:	9004      	str	r0, [sp, #16]
 8009b66:	eb0d 0504 	add.w	r5, sp, r4
 8009b6a:	f88d 6018 	strb.w	r6, [sp, #24]
 8009b6e:	f10d 0019 	add.w	r0, sp, #25
 8009b72:	2622      	movs	r6, #34	; 0x22
 8009b74:	9303      	str	r3, [sp, #12]
 8009b76:	f002 f8d3 	bl	800bd20 <memmove>
 8009b7a:	2101      	movs	r1, #1
 8009b7c:	466a      	mov	r2, sp
 8009b7e:	4804      	ldr	r0, [pc, #16]	; (8009b90 <ada__tags__check_tsd+0x8c>)
 8009b80:	f805 6c01 	strb.w	r6, [r5, #-1]
 8009b84:	463b      	mov	r3, r7
 8009b86:	607c      	str	r4, [r7, #4]
 8009b88:	6039      	str	r1, [r7, #0]
 8009b8a:	f000 fee9 	bl	800a960 <__gnat_raise_exception>
 8009b8e:	bf00      	nop
 8009b90:	2000025c 	.word	0x2000025c
 8009b94:	0800f77c 	.word	0x0800f77c

08009b98 <ada__tags__register_interface_offset>:
 8009b98:	b5f8      	push	{r3, r4, r5, r6, r7, lr}
 8009b9a:	6800      	ldr	r0, [r0, #0]
 8009b9c:	f850 0c04 	ldr.w	r0, [r0, #-4]
 8009ba0:	6a07      	ldr	r7, [r0, #32]
 8009ba2:	b317      	cbz	r7, 8009bea <ada__tags__register_interface_offset+0x52>
 8009ba4:	469e      	mov	lr, r3
 8009ba6:	f8d7 c000 	ldr.w	ip, [r7]
 8009baa:	2000      	movs	r0, #0
 8009bac:	e001      	b.n	8009bb2 <ada__tags__register_interface_offset+0x1a>
 8009bae:	4584      	cmp	ip, r0
 8009bb0:	d01b      	beq.n	8009bea <ada__tags__register_interface_offset+0x52>
 8009bb2:	3001      	adds	r0, #1
 8009bb4:	0085      	lsls	r5, r0, #2
 8009bb6:	182c      	adds	r4, r5, r0
 8009bb8:	eb07 0484 	add.w	r4, r7, r4, lsl #2
 8009bbc:	f1a4 0614 	sub.w	r6, r4, #20
 8009bc0:	6873      	ldr	r3, [r6, #4]
 8009bc2:	428b      	cmp	r3, r1
 8009bc4:	d1f3      	bne.n	8009bae <ada__tags__register_interface_offset+0x16>
 8009bc6:	b912      	cbnz	r2, 8009bce <ada__tags__register_interface_offset+0x36>
 8009bc8:	f1be 0f00 	cmp.w	lr, #0
 8009bcc:	d108      	bne.n	8009be0 <ada__tags__register_interface_offset+0x48>
 8009bce:	4428      	add	r0, r5
 8009bd0:	eb07 0080 	add.w	r0, r7, r0, lsl #2
 8009bd4:	2201      	movs	r2, #1
 8009bd6:	f840 ec08 	str.w	lr, [r0, #-8]
 8009bda:	f800 2c0c 	strb.w	r2, [r0, #-12]
 8009bde:	bdf8      	pop	{r3, r4, r5, r6, r7, pc}
 8009be0:	9b06      	ldr	r3, [sp, #24]
 8009be2:	7232      	strb	r2, [r6, #8]
 8009be4:	f844 3c04 	str.w	r3, [r4, #-4]
 8009be8:	bdf8      	pop	{r3, r4, r5, r6, r7, pc}
 8009bea:	4802      	ldr	r0, [pc, #8]	; (8009bf4 <ada__tags__register_interface_offset+0x5c>)
 8009bec:	f240 3182 	movw	r1, #898	; 0x382
 8009bf0:	f000 ff38 	bl	800aa64 <__gnat_rcheck_PE_Explicit_Raise>
 8009bf4:	0800f840 	.word	0x0800f840

08009bf8 <ada__tags__register_tag>:
 8009bf8:	f7ff bf6e 	b.w	8009ad8 <ada__tags__external_tag_htable__setXn>

08009bfc <ada__tags___elabb>:
 8009bfc:	4b04      	ldr	r3, [pc, #16]	; (8009c10 <ada__tags___elabb+0x14>)
 8009bfe:	2100      	movs	r1, #0
 8009c00:	f503 7280 	add.w	r2, r3, #256	; 0x100
 8009c04:	f843 1b04 	str.w	r1, [r3], #4
 8009c08:	4293      	cmp	r3, r2
 8009c0a:	d1fb      	bne.n	8009c04 <ada__tags___elabb+0x8>
 8009c0c:	4770      	bx	lr
 8009c0e:	bf00      	nop
 8009c10:	20003f80 	.word	0x20003f80

08009c14 <system__pool_global___size>:
 8009c14:	2020      	movs	r0, #32
 8009c16:	2100      	movs	r1, #0
 8009c18:	4770      	bx	lr
 8009c1a:	bf00      	nop

08009c1c <system__pool_global__unbounded_no_reclaim_poolDF>:
 8009c1c:	4770      	bx	lr
 8009c1e:	bf00      	nop

08009c20 <system__pool_global__storage_size>:
 8009c20:	f06f 4000 	mvn.w	r0, #2147483648	; 0x80000000
 8009c24:	4770      	bx	lr
 8009c26:	bf00      	nop

08009c28 <system__pool_global__allocate>:
 8009c28:	b510      	push	{r4, lr}
 8009c2a:	2a08      	cmp	r2, #8
 8009c2c:	4614      	mov	r4, r2
 8009c2e:	dd0b      	ble.n	8009c48 <system__pool_global__allocate+0x20>
 8009c30:	1850      	adds	r0, r2, r1
 8009c32:	f001 f937 	bl	800aea4 <__gnat_malloc>
 8009c36:	4603      	mov	r3, r0
 8009c38:	b158      	cbz	r0, 8009c52 <system__pool_global__allocate+0x2a>
 8009c3a:	fbb0 f0f4 	udiv	r0, r0, r4
 8009c3e:	fb04 4000 	mla	r0, r4, r0, r4
 8009c42:	f840 3c04 	str.w	r3, [r0, #-4]
 8009c46:	bd10      	pop	{r4, pc}
 8009c48:	4608      	mov	r0, r1
 8009c4a:	f001 f92b 	bl	800aea4 <__gnat_malloc>
 8009c4e:	2800      	cmp	r0, #0
 8009c50:	d1f9      	bne.n	8009c46 <system__pool_global__allocate+0x1e>
 8009c52:	4802      	ldr	r0, [pc, #8]	; (8009c5c <system__pool_global__allocate+0x34>)
 8009c54:	213f      	movs	r1, #63	; 0x3f
 8009c56:	f000 ff0b 	bl	800aa70 <__gnat_rcheck_SE_Explicit_Raise>
 8009c5a:	bf00      	nop
 8009c5c:	0800f8a0 	.word	0x0800f8a0

08009c60 <system__pool_global__deallocate>:
 8009c60:	2b08      	cmp	r3, #8
 8009c62:	dc02      	bgt.n	8009c6a <system__pool_global__deallocate+0xa>
 8009c64:	4608      	mov	r0, r1
 8009c66:	f001 b947 	b.w	800aef8 <__gnat_free>
 8009c6a:	f851 0c04 	ldr.w	r0, [r1, #-4]
 8009c6e:	f001 b943 	b.w	800aef8 <__gnat_free>
 8009c72:	bf00      	nop

08009c74 <system__pool_global___elabs>:
 8009c74:	b510      	push	{r4, lr}
 8009c76:	4c05      	ldr	r4, [pc, #20]	; (8009c8c <system__pool_global___elabs+0x18>)
 8009c78:	4620      	mov	r0, r4
 8009c7a:	f7ff ffbd 	bl	8009bf8 <ada__tags__register_tag>
 8009c7e:	4a04      	ldr	r2, [pc, #16]	; (8009c90 <system__pool_global___elabs+0x1c>)
 8009c80:	4b04      	ldr	r3, [pc, #16]	; (8009c94 <system__pool_global___elabs+0x20>)
 8009c82:	6014      	str	r4, [r2, #0]
 8009c84:	2201      	movs	r2, #1
 8009c86:	601a      	str	r2, [r3, #0]
 8009c88:	bd10      	pop	{r4, pc}
 8009c8a:	bf00      	nop
 8009c8c:	0800f8f0 	.word	0x0800f8f0
 8009c90:	20004080 	.word	0x20004080
 8009c94:	200001c0 	.word	0x200001c0

08009c98 <system__stream_attributes__i_as>:
 8009c98:	b500      	push	{lr}
 8009c9a:	b083      	sub	sp, #12
 8009c9c:	6802      	ldr	r2, [r0, #0]
 8009c9e:	4b09      	ldr	r3, [pc, #36]	; (8009cc4 <system__stream_attributes__i_as+0x2c>)
 8009ca0:	6811      	ldr	r1, [r2, #0]
 8009ca2:	aa01      	add	r2, sp, #4
 8009ca4:	4788      	blx	r1
 8009ca6:	2804      	cmp	r0, #4
 8009ca8:	f171 0300 	sbcs.w	r3, r1, #0
 8009cac:	db03      	blt.n	8009cb6 <system__stream_attributes__i_as+0x1e>
 8009cae:	9801      	ldr	r0, [sp, #4]
 8009cb0:	b003      	add	sp, #12
 8009cb2:	f85d fb04 	ldr.w	pc, [sp], #4
 8009cb6:	4a04      	ldr	r2, [pc, #16]	; (8009cc8 <system__stream_attributes__i_as+0x30>)
 8009cb8:	4804      	ldr	r0, [pc, #16]	; (8009ccc <system__stream_attributes__i_as+0x34>)
 8009cba:	f1a2 0318 	sub.w	r3, r2, #24
 8009cbe:	f000 fe4f 	bl	800a960 <__gnat_raise_exception>
 8009cc2:	bf00      	nop
 8009cc4:	0800f998 	.word	0x0800f998
 8009cc8:	0800f9a8 	.word	0x0800f9a8
 8009ccc:	200001cc 	.word	0x200001cc

08009cd0 <system__stream_attributes__i_b>:
 8009cd0:	b500      	push	{lr}
 8009cd2:	b083      	sub	sp, #12
 8009cd4:	6802      	ldr	r2, [r0, #0]
 8009cd6:	4b09      	ldr	r3, [pc, #36]	; (8009cfc <system__stream_attributes__i_b+0x2c>)
 8009cd8:	6811      	ldr	r1, [r2, #0]
 8009cda:	aa01      	add	r2, sp, #4
 8009cdc:	4788      	blx	r1
 8009cde:	2801      	cmp	r0, #1
 8009ce0:	f171 0300 	sbcs.w	r3, r1, #0
 8009ce4:	db04      	blt.n	8009cf0 <system__stream_attributes__i_b+0x20>
 8009ce6:	f89d 0004 	ldrb.w	r0, [sp, #4]
 8009cea:	b003      	add	sp, #12
 8009cec:	f85d fb04 	ldr.w	pc, [sp], #4
 8009cf0:	4a03      	ldr	r2, [pc, #12]	; (8009d00 <system__stream_attributes__i_b+0x30>)
 8009cf2:	4804      	ldr	r0, [pc, #16]	; (8009d04 <system__stream_attributes__i_b+0x34>)
 8009cf4:	f1a2 0338 	sub.w	r3, r2, #56	; 0x38
 8009cf8:	f000 fe32 	bl	800a960 <__gnat_raise_exception>
 8009cfc:	0800f9b8 	.word	0x0800f9b8
 8009d00:	0800f9c8 	.word	0x0800f9c8
 8009d04:	200001cc 	.word	0x200001cc

08009d08 <system__stream_attributes__i_ssu>:
 8009d08:	b500      	push	{lr}
 8009d0a:	b083      	sub	sp, #12
 8009d0c:	6802      	ldr	r2, [r0, #0]
 8009d0e:	4b09      	ldr	r3, [pc, #36]	; (8009d34 <system__stream_attributes__i_ssu+0x2c>)
 8009d10:	6811      	ldr	r1, [r2, #0]
 8009d12:	aa01      	add	r2, sp, #4
 8009d14:	4788      	blx	r1
 8009d16:	2801      	cmp	r0, #1
 8009d18:	f171 0300 	sbcs.w	r3, r1, #0
 8009d1c:	db04      	blt.n	8009d28 <system__stream_attributes__i_ssu+0x20>
 8009d1e:	f89d 0004 	ldrb.w	r0, [sp, #4]
 8009d22:	b003      	add	sp, #12
 8009d24:	f85d fb04 	ldr.w	pc, [sp], #4
 8009d28:	4a03      	ldr	r2, [pc, #12]	; (8009d38 <system__stream_attributes__i_ssu+0x30>)
 8009d2a:	4804      	ldr	r0, [pc, #16]	; (8009d3c <system__stream_attributes__i_ssu+0x34>)
 8009d2c:	f5a2 738c 	sub.w	r3, r2, #280	; 0x118
 8009d30:	f000 fe16 	bl	800a960 <__gnat_raise_exception>
 8009d34:	0800f9b8 	.word	0x0800f9b8
 8009d38:	0800faa8 	.word	0x0800faa8
 8009d3c:	200001cc 	.word	0x200001cc

08009d40 <system__stream_attributes__i_su>:
 8009d40:	b500      	push	{lr}
 8009d42:	b083      	sub	sp, #12
 8009d44:	6802      	ldr	r2, [r0, #0]
 8009d46:	4b09      	ldr	r3, [pc, #36]	; (8009d6c <system__stream_attributes__i_su+0x2c>)
 8009d48:	6811      	ldr	r1, [r2, #0]
 8009d4a:	aa01      	add	r2, sp, #4
 8009d4c:	4788      	blx	r1
 8009d4e:	2802      	cmp	r0, #2
 8009d50:	f171 0300 	sbcs.w	r3, r1, #0
 8009d54:	db04      	blt.n	8009d60 <system__stream_attributes__i_su+0x20>
 8009d56:	f8bd 0004 	ldrh.w	r0, [sp, #4]
 8009d5a:	b003      	add	sp, #12
 8009d5c:	f85d fb04 	ldr.w	pc, [sp], #4
 8009d60:	4a03      	ldr	r2, [pc, #12]	; (8009d70 <system__stream_attributes__i_su+0x30>)
 8009d62:	4804      	ldr	r0, [pc, #16]	; (8009d74 <system__stream_attributes__i_su+0x34>)
 8009d64:	f5a2 7394 	sub.w	r3, r2, #296	; 0x128
 8009d68:	f000 fdfa 	bl	800a960 <__gnat_raise_exception>
 8009d6c:	0800fa78 	.word	0x0800fa78
 8009d70:	0800fab8 	.word	0x0800fab8
 8009d74:	200001cc 	.word	0x200001cc

08009d78 <system__stream_attributes__i_u>:
 8009d78:	b500      	push	{lr}
 8009d7a:	b083      	sub	sp, #12
 8009d7c:	6802      	ldr	r2, [r0, #0]
 8009d7e:	4b09      	ldr	r3, [pc, #36]	; (8009da4 <system__stream_attributes__i_u+0x2c>)
 8009d80:	6811      	ldr	r1, [r2, #0]
 8009d82:	aa01      	add	r2, sp, #4
 8009d84:	4788      	blx	r1
 8009d86:	2804      	cmp	r0, #4
 8009d88:	f171 0300 	sbcs.w	r3, r1, #0
 8009d8c:	db03      	blt.n	8009d96 <system__stream_attributes__i_u+0x1e>
 8009d8e:	9801      	ldr	r0, [sp, #4]
 8009d90:	b003      	add	sp, #12
 8009d92:	f85d fb04 	ldr.w	pc, [sp], #4
 8009d96:	4a04      	ldr	r2, [pc, #16]	; (8009da8 <system__stream_attributes__i_u+0x30>)
 8009d98:	4804      	ldr	r0, [pc, #16]	; (8009dac <system__stream_attributes__i_u+0x34>)
 8009d9a:	f5a2 739c 	sub.w	r3, r2, #312	; 0x138
 8009d9e:	f000 fddf 	bl	800a960 <__gnat_raise_exception>
 8009da2:	bf00      	nop
 8009da4:	0800f998 	.word	0x0800f998
 8009da8:	0800fac8 	.word	0x0800fac8
 8009dac:	200001cc 	.word	0x200001cc

08009db0 <system__stream_attributes__w_as>:
 8009db0:	b500      	push	{lr}
 8009db2:	b085      	sub	sp, #20
 8009db4:	6803      	ldr	r3, [r0, #0]
 8009db6:	9101      	str	r1, [sp, #4]
 8009db8:	aa04      	add	r2, sp, #16
 8009dba:	f842 1d04 	str.w	r1, [r2, #-4]!
 8009dbe:	6859      	ldr	r1, [r3, #4]
 8009dc0:	4b02      	ldr	r3, [pc, #8]	; (8009dcc <system__stream_attributes__w_as+0x1c>)
 8009dc2:	4788      	blx	r1
 8009dc4:	b005      	add	sp, #20
 8009dc6:	f85d fb04 	ldr.w	pc, [sp], #4
 8009dca:	bf00      	nop
 8009dcc:	0800f998 	.word	0x0800f998

08009dd0 <system__stream_attributes__w_b>:
 8009dd0:	b500      	push	{lr}
 8009dd2:	b083      	sub	sp, #12
 8009dd4:	6803      	ldr	r3, [r0, #0]
 8009dd6:	aa02      	add	r2, sp, #8
 8009dd8:	f802 1d04 	strb.w	r1, [r2, #-4]!
 8009ddc:	6859      	ldr	r1, [r3, #4]
 8009dde:	4b02      	ldr	r3, [pc, #8]	; (8009de8 <system__stream_attributes__w_b+0x18>)
 8009de0:	4788      	blx	r1
 8009de2:	b003      	add	sp, #12
 8009de4:	f85d fb04 	ldr.w	pc, [sp], #4
 8009de8:	0800f9b8 	.word	0x0800f9b8

08009dec <system__stream_attributes__w_ssu>:
 8009dec:	b500      	push	{lr}
 8009dee:	b083      	sub	sp, #12
 8009df0:	6803      	ldr	r3, [r0, #0]
 8009df2:	aa02      	add	r2, sp, #8
 8009df4:	f802 1d04 	strb.w	r1, [r2, #-4]!
 8009df8:	6859      	ldr	r1, [r3, #4]
 8009dfa:	4b02      	ldr	r3, [pc, #8]	; (8009e04 <system__stream_attributes__w_ssu+0x18>)
 8009dfc:	4788      	blx	r1
 8009dfe:	b003      	add	sp, #12
 8009e00:	f85d fb04 	ldr.w	pc, [sp], #4
 8009e04:	0800f9b8 	.word	0x0800f9b8

08009e08 <system__stream_attributes__w_su>:
 8009e08:	b500      	push	{lr}
 8009e0a:	b085      	sub	sp, #20
 8009e0c:	6803      	ldr	r3, [r0, #0]
 8009e0e:	f8ad 1006 	strh.w	r1, [sp, #6]
 8009e12:	aa04      	add	r2, sp, #16
 8009e14:	f822 1d04 	strh.w	r1, [r2, #-4]!
 8009e18:	6859      	ldr	r1, [r3, #4]
 8009e1a:	4b02      	ldr	r3, [pc, #8]	; (8009e24 <system__stream_attributes__w_su+0x1c>)
 8009e1c:	4788      	blx	r1
 8009e1e:	b005      	add	sp, #20
 8009e20:	f85d fb04 	ldr.w	pc, [sp], #4
 8009e24:	0800fa78 	.word	0x0800fa78

08009e28 <system__stream_attributes__w_u>:
 8009e28:	b500      	push	{lr}
 8009e2a:	b085      	sub	sp, #20
 8009e2c:	6803      	ldr	r3, [r0, #0]
 8009e2e:	9101      	str	r1, [sp, #4]
 8009e30:	aa04      	add	r2, sp, #16
 8009e32:	f842 1d04 	str.w	r1, [r2, #-4]!
 8009e36:	6859      	ldr	r1, [r3, #4]
 8009e38:	4b02      	ldr	r3, [pc, #8]	; (8009e44 <system__stream_attributes__w_u+0x1c>)
 8009e3a:	4788      	blx	r1
 8009e3c:	b005      	add	sp, #20
 8009e3e:	f85d fb04 	ldr.w	pc, [sp], #4
 8009e42:	bf00      	nop
 8009e44:	0800f998 	.word	0x0800f998

08009e48 <system__img_uns__set_image_unsigned>:
 8009e48:	b5f0      	push	{r4, r5, r6, r7, lr}
 8009e4a:	b083      	sub	sp, #12
 8009e4c:	2809      	cmp	r0, #9
 8009e4e:	4601      	mov	r1, r0
 8009e50:	681d      	ldr	r5, [r3, #0]
 8009e52:	d806      	bhi.n	8009e62 <system__img_uns__set_image_unsigned+0x1a>
 8009e54:	9b08      	ldr	r3, [sp, #32]
 8009e56:	1c58      	adds	r0, r3, #1
 8009e58:	1b45      	subs	r5, r0, r5
 8009e5a:	3130      	adds	r1, #48	; 0x30
 8009e5c:	5551      	strb	r1, [r2, r5]
 8009e5e:	b003      	add	sp, #12
 8009e60:	bdf0      	pop	{r4, r5, r6, r7, pc}
 8009e62:	4f0a      	ldr	r7, [pc, #40]	; (8009e8c <system__img_uns__set_image_unsigned+0x44>)
 8009e64:	9908      	ldr	r1, [sp, #32]
 8009e66:	9100      	str	r1, [sp, #0]
 8009e68:	fba7 1700 	umull	r1, r7, r7, r0
 8009e6c:	08ff      	lsrs	r7, r7, #3
 8009e6e:	4604      	mov	r4, r0
 8009e70:	4638      	mov	r0, r7
 8009e72:	4616      	mov	r6, r2
 8009e74:	f7ff ffe8 	bl	8009e48 <system__img_uns__set_image_unsigned>
 8009e78:	eb07 0187 	add.w	r1, r7, r7, lsl #2
 8009e7c:	3001      	adds	r0, #1
 8009e7e:	1b45      	subs	r5, r0, r5
 8009e80:	eba4 0141 	sub.w	r1, r4, r1, lsl #1
 8009e84:	3130      	adds	r1, #48	; 0x30
 8009e86:	5571      	strb	r1, [r6, r5]
 8009e88:	b003      	add	sp, #12
 8009e8a:	bdf0      	pop	{r4, r5, r6, r7, pc}
 8009e8c:	cccccccd 	.word	0xcccccccd

08009e90 <system__img_uns__image_unsigned>:
 8009e90:	b530      	push	{r4, r5, lr}
 8009e92:	b083      	sub	sp, #12
 8009e94:	6819      	ldr	r1, [r3, #0]
 8009e96:	f1c1 0101 	rsb	r1, r1, #1
 8009e9a:	2520      	movs	r5, #32
 8009e9c:	2401      	movs	r4, #1
 8009e9e:	5455      	strb	r5, [r2, r1]
 8009ea0:	9400      	str	r4, [sp, #0]
 8009ea2:	f7ff ffd1 	bl	8009e48 <system__img_uns__set_image_unsigned>
 8009ea6:	b003      	add	sp, #12
 8009ea8:	bd30      	pop	{r4, r5, pc}
 8009eaa:	bf00      	nop

08009eac <ada__exceptions__exception_occurrenceIP>:
 8009eac:	2300      	movs	r3, #0
 8009eae:	6003      	str	r3, [r0, #0]
 8009eb0:	6083      	str	r3, [r0, #8]
 8009eb2:	f880 30d4 	strb.w	r3, [r0, #212]	; 0xd4
 8009eb6:	f8c0 30d8 	str.w	r3, [r0, #216]	; 0xd8
 8009eba:	f8c0 30dc 	str.w	r3, [r0, #220]	; 0xdc
 8009ebe:	4770      	bx	lr

08009ec0 <ada__exceptions__exception_data__append_info_addressXn>:
 8009ec0:	b5f0      	push	{r4, r5, r6, r7, lr}
 8009ec2:	b08b      	sub	sp, #44	; 0x2c
 8009ec4:	4616      	mov	r6, r2
 8009ec6:	461f      	mov	r7, r3
 8009ec8:	2311      	movs	r3, #17
 8009eca:	4d14      	ldr	r5, [pc, #80]	; (8009f1c <ada__exceptions__exception_data__append_info_addressXn+0x5c>)
 8009ecc:	e000      	b.n	8009ed0 <ada__exceptions__exception_data__append_info_addressXn+0x10>
 8009ece:	4613      	mov	r3, r2
 8009ed0:	f000 020f 	and.w	r2, r0, #15
 8009ed4:	5cac      	ldrb	r4, [r5, r2]
 8009ed6:	a903      	add	r1, sp, #12
 8009ed8:	545c      	strb	r4, [r3, r1]
 8009eda:	4619      	mov	r1, r3
 8009edc:	1e5a      	subs	r2, r3, #1
 8009ede:	0900      	lsrs	r0, r0, #4
 8009ee0:	d1f5      	bne.n	8009ece <ada__exceptions__exception_data__append_info_addressXn+0xe>
 8009ee2:	aa0a      	add	r2, sp, #40	; 0x28
 8009ee4:	4413      	add	r3, r2
 8009ee6:	2230      	movs	r2, #48	; 0x30
 8009ee8:	f803 2c1e 	strb.w	r2, [r3, #-30]
 8009eec:	2278      	movs	r2, #120	; 0x78
 8009eee:	f803 2c1d 	strb.w	r2, [r3, #-29]
 8009ef2:	3901      	subs	r1, #1
 8009ef4:	4608      	mov	r0, r1
 8009ef6:	2913      	cmp	r1, #19
 8009ef8:	bfa8      	it	ge
 8009efa:	2013      	movge	r0, #19
 8009efc:	ab0a      	add	r3, sp, #40	; 0x28
 8009efe:	4418      	add	r0, r3
 8009f00:	9108      	str	r1, [sp, #32]
 8009f02:	2312      	movs	r3, #18
 8009f04:	9309      	str	r3, [sp, #36]	; 0x24
 8009f06:	9b10      	ldr	r3, [sp, #64]	; 0x40
 8009f08:	9300      	str	r3, [sp, #0]
 8009f0a:	381d      	subs	r0, #29
 8009f0c:	a908      	add	r1, sp, #32
 8009f0e:	4632      	mov	r2, r6
 8009f10:	463b      	mov	r3, r7
 8009f12:	f000 f921 	bl	800a158 <ada__exceptions__exception_data__append_info_stringXn>
 8009f16:	b00b      	add	sp, #44	; 0x2c
 8009f18:	bdf0      	pop	{r4, r5, r6, r7, pc}
 8009f1a:	bf00      	nop
 8009f1c:	080100f0 	.word	0x080100f0

08009f20 <ada__exceptions__exception_data__append_info_basic_exception_informationXn>:
 8009f20:	e92d 43f0 	stmdb	sp!, {r4, r5, r6, r7, r8, r9, lr}
 8009f24:	b087      	sub	sp, #28
 8009f26:	af02      	add	r7, sp, #8
 8009f28:	4604      	mov	r4, r0
 8009f2a:	4691      	mov	r9, r2
 8009f2c:	4698      	mov	r8, r3
 8009f2e:	f000 fa0d 	bl	800a34c <ada__exceptions__exception_data__exception_name_length__2Xn>
 8009f32:	4606      	mov	r6, r0
 8009f34:	1dc5      	adds	r5, r0, #7
 8009f36:	f025 0507 	bic.w	r5, r5, #7
 8009f3a:	ebad 0d05 	sub.w	sp, sp, r5
 8009f3e:	ad02      	add	r5, sp, #8
 8009f40:	2301      	movs	r3, #1
 8009f42:	603b      	str	r3, [r7, #0]
 8009f44:	6078      	str	r0, [r7, #4]
 8009f46:	2300      	movs	r3, #0
 8009f48:	9300      	str	r3, [sp, #0]
 8009f4a:	4620      	mov	r0, r4
 8009f4c:	462a      	mov	r2, r5
 8009f4e:	463b      	mov	r3, r7
 8009f50:	f000 f8c4 	bl	800a0dc <ada__exceptions__exception_data__append_info_exception_name__2Xn>
 8009f54:	f89d 3008 	ldrb.w	r3, [sp, #8]
 8009f58:	2b5f      	cmp	r3, #95	; 0x5f
 8009f5a:	d02b      	beq.n	8009fb4 <ada__exceptions__exception_data__append_info_basic_exception_informationXn+0x94>
 8009f5c:	6b3b      	ldr	r3, [r7, #48]	; 0x30
 8009f5e:	9300      	str	r3, [sp, #0]
 8009f60:	4823      	ldr	r0, [pc, #140]	; (8009ff0 <ada__exceptions__exception_data__append_info_basic_exception_informationXn+0xd0>)
 8009f62:	4924      	ldr	r1, [pc, #144]	; (8009ff4 <ada__exceptions__exception_data__append_info_basic_exception_informationXn+0xd4>)
 8009f64:	464a      	mov	r2, r9
 8009f66:	4643      	mov	r3, r8
 8009f68:	f000 f8f6 	bl	800a158 <ada__exceptions__exception_data__append_info_stringXn>
 8009f6c:	2301      	movs	r3, #1
 8009f6e:	60bb      	str	r3, [r7, #8]
 8009f70:	60fe      	str	r6, [r7, #12]
 8009f72:	9000      	str	r0, [sp, #0]
 8009f74:	4628      	mov	r0, r5
 8009f76:	f107 0108 	add.w	r1, r7, #8
 8009f7a:	464a      	mov	r2, r9
 8009f7c:	4643      	mov	r3, r8
 8009f7e:	f000 f8eb 	bl	800a158 <ada__exceptions__exception_data__append_info_stringXn>
 8009f82:	4605      	mov	r5, r0
 8009f84:	4620      	mov	r0, r4
 8009f86:	f000 f9db 	bl	800a340 <__gnat_exception_msg_len>
 8009f8a:	b168      	cbz	r0, 8009fa8 <ada__exceptions__exception_data__append_info_basic_exception_informationXn+0x88>
 8009f8c:	9500      	str	r5, [sp, #0]
 8009f8e:	481a      	ldr	r0, [pc, #104]	; (8009ff8 <ada__exceptions__exception_data__append_info_basic_exception_informationXn+0xd8>)
 8009f90:	491a      	ldr	r1, [pc, #104]	; (8009ffc <ada__exceptions__exception_data__append_info_basic_exception_informationXn+0xdc>)
 8009f92:	464a      	mov	r2, r9
 8009f94:	4643      	mov	r3, r8
 8009f96:	f000 f8df 	bl	800a158 <ada__exceptions__exception_data__append_info_stringXn>
 8009f9a:	9000      	str	r0, [sp, #0]
 8009f9c:	4620      	mov	r0, r4
 8009f9e:	464a      	mov	r2, r9
 8009fa0:	4643      	mov	r3, r8
 8009fa2:	f000 f841 	bl	800a028 <__gnat_append_info_e_msg>
 8009fa6:	4605      	mov	r5, r0
 8009fa8:	4648      	mov	r0, r9
 8009faa:	4641      	mov	r1, r8
 8009fac:	462a      	mov	r2, r5
 8009fae:	f000 f8c7 	bl	800a140 <ada__exceptions__exception_data__append_info_nlXn>
 8009fb2:	6338      	str	r0, [r7, #48]	; 0x30
 8009fb4:	f8d4 30d8 	ldr.w	r3, [r4, #216]	; 0xd8
 8009fb8:	b1ab      	cbz	r3, 8009fe6 <ada__exceptions__exception_data__append_info_basic_exception_informationXn+0xc6>
 8009fba:	6b3b      	ldr	r3, [r7, #48]	; 0x30
 8009fbc:	9300      	str	r3, [sp, #0]
 8009fbe:	4810      	ldr	r0, [pc, #64]	; (800a000 <ada__exceptions__exception_data__append_info_basic_exception_informationXn+0xe0>)
 8009fc0:	4910      	ldr	r1, [pc, #64]	; (800a004 <ada__exceptions__exception_data__append_info_basic_exception_informationXn+0xe4>)
 8009fc2:	464a      	mov	r2, r9
 8009fc4:	4643      	mov	r3, r8
 8009fc6:	f000 f8c7 	bl	800a158 <ada__exceptions__exception_data__append_info_stringXn>
 8009fca:	f8d4 30d8 	ldr.w	r3, [r4, #216]	; 0xd8
 8009fce:	9000      	str	r0, [sp, #0]
 8009fd0:	4618      	mov	r0, r3
 8009fd2:	464a      	mov	r2, r9
 8009fd4:	4643      	mov	r3, r8
 8009fd6:	f000 f88b 	bl	800a0f0 <ada__exceptions__exception_data__append_info_natXn>
 8009fda:	4602      	mov	r2, r0
 8009fdc:	4648      	mov	r0, r9
 8009fde:	4641      	mov	r1, r8
 8009fe0:	f000 f8ae 	bl	800a140 <ada__exceptions__exception_data__append_info_nlXn>
 8009fe4:	6338      	str	r0, [r7, #48]	; 0x30
 8009fe6:	6b38      	ldr	r0, [r7, #48]	; 0x30
 8009fe8:	3714      	adds	r7, #20
 8009fea:	46bd      	mov	sp, r7
 8009fec:	e8bd 83f0 	ldmia.w	sp!, {r4, r5, r6, r7, r8, r9, pc}
 8009ff0:	0800fd7c 	.word	0x0800fd7c
 8009ff4:	0800fdc0 	.word	0x0800fdc0
 8009ff8:	0800fdbc 	.word	0x0800fdbc
 8009ffc:	0800fdc8 	.word	0x0800fdc8
 800a000:	0800fd84 	.word	0x0800fd84
 800a004:	0800fdd0 	.word	0x0800fdd0

0800a008 <ada__exceptions__exception_data__append_info_characterXn>:
 800a008:	b510      	push	{r4, lr}
 800a00a:	9c02      	ldr	r4, [sp, #8]
 800a00c:	6819      	ldr	r1, [r3, #0]
 800a00e:	685b      	ldr	r3, [r3, #4]
 800a010:	4299      	cmp	r1, r3
 800a012:	dd02      	ble.n	800a01a <ada__exceptions__exception_data__append_info_characterXn+0x12>
 800a014:	f000 fd6e 	bl	800aaf4 <__gnat_to_stderr_char>
 800a018:	e004      	b.n	800a024 <ada__exceptions__exception_data__append_info_characterXn+0x1c>
 800a01a:	42a3      	cmp	r3, r4
 800a01c:	dd02      	ble.n	800a024 <ada__exceptions__exception_data__append_info_characterXn+0x1c>
 800a01e:	3401      	adds	r4, #1
 800a020:	1a61      	subs	r1, r4, r1
 800a022:	5450      	strb	r0, [r2, r1]
 800a024:	4620      	mov	r0, r4
 800a026:	bd10      	pop	{r4, pc}

0800a028 <__gnat_append_info_e_msg>:
 800a028:	e92d 43f0 	stmdb	sp!, {r4, r5, r6, r7, r8, r9, lr}
 800a02c:	b085      	sub	sp, #20
 800a02e:	af02      	add	r7, sp, #8
 800a030:	4604      	mov	r4, r0
 800a032:	4699      	mov	r9, r3
 800a034:	6803      	ldr	r3, [r0, #0]
 800a036:	b923      	cbnz	r3, 800a042 <__gnat_append_info_e_msg+0x1a>
 800a038:	4811      	ldr	r0, [pc, #68]	; (800a080 <__gnat_append_info_e_msg+0x58>)
 800a03a:	f44f 71a0 	mov.w	r1, #320	; 0x140
 800a03e:	f000 fce9 	bl	800aa14 <__gnat_rcheck_CE_Explicit_Raise>
 800a042:	4690      	mov	r8, r2
 800a044:	f000 f97c 	bl	800a340 <__gnat_exception_msg_len>
 800a048:	4605      	mov	r5, r0
 800a04a:	1dc3      	adds	r3, r0, #7
 800a04c:	f023 0307 	bic.w	r3, r3, #7
 800a050:	ebad 0d03 	sub.w	sp, sp, r3
 800a054:	ae02      	add	r6, sp, #8
 800a056:	4630      	mov	r0, r6
 800a058:	f104 010c 	add.w	r1, r4, #12
 800a05c:	462a      	mov	r2, r5
 800a05e:	f000 fe0d 	bl	800ac7c <memcpy>
 800a062:	2301      	movs	r3, #1
 800a064:	603b      	str	r3, [r7, #0]
 800a066:	607d      	str	r5, [r7, #4]
 800a068:	6abb      	ldr	r3, [r7, #40]	; 0x28
 800a06a:	9300      	str	r3, [sp, #0]
 800a06c:	4630      	mov	r0, r6
 800a06e:	4639      	mov	r1, r7
 800a070:	4642      	mov	r2, r8
 800a072:	464b      	mov	r3, r9
 800a074:	f000 f870 	bl	800a158 <ada__exceptions__exception_data__append_info_stringXn>
 800a078:	370c      	adds	r7, #12
 800a07a:	46bd      	mov	sp, r7
 800a07c:	e8bd 83f0 	ldmia.w	sp!, {r4, r5, r6, r7, r8, r9, pc}
 800a080:	0800fdd8 	.word	0x0800fdd8

0800a084 <ada__exceptions__exception_data__append_info_exception_nameXn>:
 800a084:	e92d 43f0 	stmdb	sp!, {r4, r5, r6, r7, r8, r9, lr}
 800a088:	b085      	sub	sp, #20
 800a08a:	af02      	add	r7, sp, #8
 800a08c:	b920      	cbnz	r0, 800a098 <ada__exceptions__exception_data__append_info_exception_nameXn+0x14>
 800a08e:	4812      	ldr	r0, [pc, #72]	; (800a0d8 <ada__exceptions__exception_data__append_info_exception_nameXn+0x54>)
 800a090:	f44f 71ab 	mov.w	r1, #342	; 0x156
 800a094:	f000 fcbe 	bl	800aa14 <__gnat_rcheck_CE_Explicit_Raise>
 800a098:	4690      	mov	r8, r2
 800a09a:	4699      	mov	r9, r3
 800a09c:	4605      	mov	r5, r0
 800a09e:	f000 f951 	bl	800a344 <ada__exceptions__exception_data__exception_name_lengthXn>
 800a0a2:	4604      	mov	r4, r0
 800a0a4:	1dc3      	adds	r3, r0, #7
 800a0a6:	f023 0307 	bic.w	r3, r3, #7
 800a0aa:	ebad 0d03 	sub.w	sp, sp, r3
 800a0ae:	ae02      	add	r6, sp, #8
 800a0b0:	4630      	mov	r0, r6
 800a0b2:	68a9      	ldr	r1, [r5, #8]
 800a0b4:	4622      	mov	r2, r4
 800a0b6:	f000 fde1 	bl	800ac7c <memcpy>
 800a0ba:	2301      	movs	r3, #1
 800a0bc:	603b      	str	r3, [r7, #0]
 800a0be:	607c      	str	r4, [r7, #4]
 800a0c0:	6abb      	ldr	r3, [r7, #40]	; 0x28
 800a0c2:	9300      	str	r3, [sp, #0]
 800a0c4:	4630      	mov	r0, r6
 800a0c6:	4639      	mov	r1, r7
 800a0c8:	4642      	mov	r2, r8
 800a0ca:	464b      	mov	r3, r9
 800a0cc:	f000 f844 	bl	800a158 <ada__exceptions__exception_data__append_info_stringXn>
 800a0d0:	370c      	adds	r7, #12
 800a0d2:	46bd      	mov	sp, r7
 800a0d4:	e8bd 83f0 	ldmia.w	sp!, {r4, r5, r6, r7, r8, r9, pc}
 800a0d8:	0800fdd8 	.word	0x0800fdd8

0800a0dc <ada__exceptions__exception_data__append_info_exception_name__2Xn>:
 800a0dc:	b500      	push	{lr}
 800a0de:	b083      	sub	sp, #12
 800a0e0:	6800      	ldr	r0, [r0, #0]
 800a0e2:	9904      	ldr	r1, [sp, #16]
 800a0e4:	9100      	str	r1, [sp, #0]
 800a0e6:	f7ff ffcd 	bl	800a084 <ada__exceptions__exception_data__append_info_exception_nameXn>
 800a0ea:	b003      	add	sp, #12
 800a0ec:	f85d fb04 	ldr.w	pc, [sp], #4

0800a0f0 <ada__exceptions__exception_data__append_info_natXn>:
 800a0f0:	b5d0      	push	{r4, r6, r7, lr}
 800a0f2:	b082      	sub	sp, #8
 800a0f4:	4604      	mov	r4, r0
 800a0f6:	4616      	mov	r6, r2
 800a0f8:	461f      	mov	r7, r3
 800a0fa:	9806      	ldr	r0, [sp, #24]
 800a0fc:	2c09      	cmp	r4, #9
 800a0fe:	dd0a      	ble.n	800a116 <ada__exceptions__exception_data__append_info_natXn+0x26>
 800a100:	4a0e      	ldr	r2, [pc, #56]	; (800a13c <ada__exceptions__exception_data__append_info_natXn+0x4c>)
 800a102:	fb82 3204 	smull	r3, r2, r2, r4
 800a106:	17e3      	asrs	r3, r4, #31
 800a108:	9000      	str	r0, [sp, #0]
 800a10a:	ebc3 00a2 	rsb	r0, r3, r2, asr #2
 800a10e:	4632      	mov	r2, r6
 800a110:	463b      	mov	r3, r7
 800a112:	f7ff ffed 	bl	800a0f0 <ada__exceptions__exception_data__append_info_natXn>
 800a116:	4b09      	ldr	r3, [pc, #36]	; (800a13c <ada__exceptions__exception_data__append_info_natXn+0x4c>)
 800a118:	fb83 3204 	smull	r3, r2, r3, r4
 800a11c:	17e3      	asrs	r3, r4, #31
 800a11e:	ebc3 03a2 	rsb	r3, r3, r2, asr #2
 800a122:	eb03 0383 	add.w	r3, r3, r3, lsl #2
 800a126:	eba4 0443 	sub.w	r4, r4, r3, lsl #1
 800a12a:	3430      	adds	r4, #48	; 0x30
 800a12c:	9000      	str	r0, [sp, #0]
 800a12e:	b2e0      	uxtb	r0, r4
 800a130:	4632      	mov	r2, r6
 800a132:	463b      	mov	r3, r7
 800a134:	f7ff ff68 	bl	800a008 <ada__exceptions__exception_data__append_info_characterXn>
 800a138:	b002      	add	sp, #8
 800a13a:	bdd0      	pop	{r4, r6, r7, pc}
 800a13c:	66666667 	.word	0x66666667

0800a140 <ada__exceptions__exception_data__append_info_nlXn>:
 800a140:	b530      	push	{r4, r5, lr}
 800a142:	b083      	sub	sp, #12
 800a144:	4604      	mov	r4, r0
 800a146:	9200      	str	r2, [sp, #0]
 800a148:	200a      	movs	r0, #10
 800a14a:	4622      	mov	r2, r4
 800a14c:	460b      	mov	r3, r1
 800a14e:	f7ff ff5b 	bl	800a008 <ada__exceptions__exception_data__append_info_characterXn>
 800a152:	b003      	add	sp, #12
 800a154:	bd30      	pop	{r4, r5, pc}
 800a156:	bf00      	nop

0800a158 <ada__exceptions__exception_data__append_info_stringXn>:
 800a158:	b5f8      	push	{r3, r4, r5, r6, r7, lr}
 800a15a:	4606      	mov	r6, r0
 800a15c:	9c06      	ldr	r4, [sp, #24]
 800a15e:	681f      	ldr	r7, [r3, #0]
 800a160:	685b      	ldr	r3, [r3, #4]
 800a162:	429f      	cmp	r7, r3
 800a164:	dd02      	ble.n	800a16c <ada__exceptions__exception_data__append_info_stringXn+0x14>
 800a166:	f000 fcc9 	bl	800aafc <__gnat_to_stderr>
 800a16a:	e018      	b.n	800a19e <ada__exceptions__exception_data__append_info_stringXn+0x46>
 800a16c:	684d      	ldr	r5, [r1, #4]
 800a16e:	6809      	ldr	r1, [r1, #0]
 800a170:	428d      	cmp	r5, r1
 800a172:	bfa6      	itte	ge
 800a174:	1a6d      	subge	r5, r5, r1
 800a176:	3501      	addge	r5, #1
 800a178:	2500      	movlt	r5, #0
 800a17a:	4621      	mov	r1, r4
 800a17c:	442c      	add	r4, r5
 800a17e:	42a3      	cmp	r3, r4
 800a180:	bfa8      	it	ge
 800a182:	4623      	movge	r3, r4
 800a184:	461c      	mov	r4, r3
 800a186:	1c4d      	adds	r5, r1, #1
 800a188:	1bef      	subs	r7, r5, r7
 800a18a:	18b8      	adds	r0, r7, r2
 800a18c:	42ab      	cmp	r3, r5
 800a18e:	bfa6      	itte	ge
 800a190:	f1c5 0501 	rsbge	r5, r5, #1
 800a194:	18ea      	addge	r2, r5, r3
 800a196:	2200      	movlt	r2, #0
 800a198:	4631      	mov	r1, r6
 800a19a:	f001 fdc1 	bl	800bd20 <memmove>
 800a19e:	4620      	mov	r0, r4
 800a1a0:	bdf8      	pop	{r3, r4, r5, r6, r7, pc}
 800a1a2:	bf00      	nop

0800a1a4 <ada__exceptions__exception_data__append_info_untailored_exception_tracebackXn>:
 800a1a4:	e92d 4ff0 	stmdb	sp!, {r4, r5, r6, r7, r8, r9, sl, fp, lr}
 800a1a8:	b083      	sub	sp, #12
 800a1aa:	f8d0 10dc 	ldr.w	r1, [r0, #220]	; 0xdc
 800a1ae:	2900      	cmp	r1, #0
 800a1b0:	d050      	beq.n	800a254 <ada__exceptions__exception_data__append_info_untailored_exception_tracebackXn+0xb0>
 800a1b2:	461f      	mov	r7, r3
 800a1b4:	4690      	mov	r8, r2
 800a1b6:	4681      	mov	r9, r0
 800a1b8:	f001 fd26 	bl	800bc08 <__gnat_get_executable_load_address>
 800a1bc:	4604      	mov	r4, r0
 800a1be:	b198      	cbz	r0, 800a1e8 <ada__exceptions__exception_data__append_info_untailored_exception_tracebackXn+0x44>
 800a1c0:	9b0c      	ldr	r3, [sp, #48]	; 0x30
 800a1c2:	9300      	str	r3, [sp, #0]
 800a1c4:	4825      	ldr	r0, [pc, #148]	; (800a25c <ada__exceptions__exception_data__append_info_untailored_exception_tracebackXn+0xb8>)
 800a1c6:	4926      	ldr	r1, [pc, #152]	; (800a260 <ada__exceptions__exception_data__append_info_untailored_exception_tracebackXn+0xbc>)
 800a1c8:	4642      	mov	r2, r8
 800a1ca:	463b      	mov	r3, r7
 800a1cc:	f7ff ffc4 	bl	800a158 <ada__exceptions__exception_data__append_info_stringXn>
 800a1d0:	9000      	str	r0, [sp, #0]
 800a1d2:	4620      	mov	r0, r4
 800a1d4:	4642      	mov	r2, r8
 800a1d6:	463b      	mov	r3, r7
 800a1d8:	f7ff fe72 	bl	8009ec0 <ada__exceptions__exception_data__append_info_addressXn>
 800a1dc:	4602      	mov	r2, r0
 800a1de:	4640      	mov	r0, r8
 800a1e0:	4639      	mov	r1, r7
 800a1e2:	f7ff ffad 	bl	800a140 <ada__exceptions__exception_data__append_info_nlXn>
 800a1e6:	900c      	str	r0, [sp, #48]	; 0x30
 800a1e8:	9b0c      	ldr	r3, [sp, #48]	; 0x30
 800a1ea:	9300      	str	r3, [sp, #0]
 800a1ec:	481d      	ldr	r0, [pc, #116]	; (800a264 <ada__exceptions__exception_data__append_info_untailored_exception_tracebackXn+0xc0>)
 800a1ee:	491e      	ldr	r1, [pc, #120]	; (800a268 <ada__exceptions__exception_data__append_info_untailored_exception_tracebackXn+0xc4>)
 800a1f0:	4642      	mov	r2, r8
 800a1f2:	463b      	mov	r3, r7
 800a1f4:	f7ff ffb0 	bl	800a158 <ada__exceptions__exception_data__append_info_stringXn>
 800a1f8:	4602      	mov	r2, r0
 800a1fa:	4640      	mov	r0, r8
 800a1fc:	4639      	mov	r1, r7
 800a1fe:	f7ff ff9f 	bl	800a140 <ada__exceptions__exception_data__append_info_nlXn>
 800a202:	4604      	mov	r4, r0
 800a204:	f8d9 a0dc 	ldr.w	sl, [r9, #220]	; 0xdc
 800a208:	f1ba 0f00 	cmp.w	sl, #0
 800a20c:	dd1c      	ble.n	800a248 <ada__exceptions__exception_data__append_info_untailored_exception_tracebackXn+0xa4>
 800a20e:	f109 06e0 	add.w	r6, r9, #224	; 0xe0
 800a212:	2500      	movs	r5, #0
 800a214:	f04f 0b20 	mov.w	fp, #32
 800a218:	3501      	adds	r5, #1
 800a21a:	6830      	ldr	r0, [r6, #0]
 800a21c:	f001 fe0e 	bl	800be3c <system__traceback_entries__pc_for>
 800a220:	9400      	str	r4, [sp, #0]
 800a222:	4642      	mov	r2, r8
 800a224:	463b      	mov	r3, r7
 800a226:	f7ff fe4b 	bl	8009ec0 <ada__exceptions__exception_data__append_info_addressXn>
 800a22a:	4604      	mov	r4, r0
 800a22c:	f8d9 30dc 	ldr.w	r3, [r9, #220]	; 0xdc
 800a230:	42ab      	cmp	r3, r5
 800a232:	d009      	beq.n	800a248 <ada__exceptions__exception_data__append_info_untailored_exception_tracebackXn+0xa4>
 800a234:	9000      	str	r0, [sp, #0]
 800a236:	4658      	mov	r0, fp
 800a238:	4642      	mov	r2, r8
 800a23a:	463b      	mov	r3, r7
 800a23c:	f7ff fee4 	bl	800a008 <ada__exceptions__exception_data__append_info_characterXn>
 800a240:	4604      	mov	r4, r0
 800a242:	3604      	adds	r6, #4
 800a244:	45aa      	cmp	sl, r5
 800a246:	d1e7      	bne.n	800a218 <ada__exceptions__exception_data__append_info_untailored_exception_tracebackXn+0x74>
 800a248:	4640      	mov	r0, r8
 800a24a:	4639      	mov	r1, r7
 800a24c:	4622      	mov	r2, r4
 800a24e:	f7ff ff77 	bl	800a140 <ada__exceptions__exception_data__append_info_nlXn>
 800a252:	900c      	str	r0, [sp, #48]	; 0x30
 800a254:	980c      	ldr	r0, [sp, #48]	; 0x30
 800a256:	b003      	add	sp, #12
 800a258:	e8bd 8ff0 	ldmia.w	sp!, {r4, r5, r6, r7, r8, r9, sl, fp, pc}
 800a25c:	0800fdac 	.word	0x0800fdac
 800a260:	0800fde8 	.word	0x0800fde8
 800a264:	0800fd8c 	.word	0x0800fd8c
 800a268:	0800fdf0 	.word	0x0800fdf0

0800a26c <ada__exceptions__exception_data__basic_exception_info_maxlengthXn>:
 800a26c:	b538      	push	{r3, r4, r5, lr}
 800a26e:	4605      	mov	r5, r0
 800a270:	f000 f86c 	bl	800a34c <ada__exceptions__exception_data__exception_name_length__2Xn>
 800a274:	4604      	mov	r4, r0
 800a276:	4628      	mov	r0, r5
 800a278:	f000 f862 	bl	800a340 <__gnat_exception_msg_len>
 800a27c:	4420      	add	r0, r4
 800a27e:	301f      	adds	r0, #31
 800a280:	bd38      	pop	{r3, r4, r5, pc}
 800a282:	bf00      	nop

0800a284 <ada__exceptions__exception_data__exception_informationXn>:
 800a284:	e92d 4ff0 	stmdb	sp!, {r4, r5, r6, r7, r8, r9, sl, fp, lr}
 800a288:	b08d      	sub	sp, #52	; 0x34
 800a28a:	af02      	add	r7, sp, #8
 800a28c:	4605      	mov	r5, r0
 800a28e:	6079      	str	r1, [r7, #4]
 800a290:	f107 0008 	add.w	r0, r7, #8
 800a294:	f000 f94e 	bl	800a534 <ada__exceptions__exception_data__tailored_exception_tracebackXn>
 800a298:	f8d7 b008 	ldr.w	fp, [r7, #8]
 800a29c:	68fb      	ldr	r3, [r7, #12]
 800a29e:	f8d3 a000 	ldr.w	sl, [r3]
 800a2a2:	f8d3 9004 	ldr.w	r9, [r3, #4]
 800a2a6:	45ca      	cmp	sl, r9
 800a2a8:	bfda      	itte	le
 800a2aa:	ebca 0409 	rsble	r4, sl, r9
 800a2ae:	3401      	addle	r4, #1
 800a2b0:	2400      	movgt	r4, #0
 800a2b2:	6878      	ldr	r0, [r7, #4]
 800a2b4:	f7ff ffda 	bl	800a26c <ada__exceptions__exception_data__basic_exception_info_maxlengthXn>
 800a2b8:	4404      	add	r4, r0
 800a2ba:	ea24 73e4 	bic.w	r3, r4, r4, asr #31
 800a2be:	3307      	adds	r3, #7
 800a2c0:	f023 0307 	bic.w	r3, r3, #7
 800a2c4:	ebad 0d03 	sub.w	sp, sp, r3
 800a2c8:	ae02      	add	r6, sp, #8
 800a2ca:	f04f 0801 	mov.w	r8, #1
 800a2ce:	f8c7 8010 	str.w	r8, [r7, #16]
 800a2d2:	617c      	str	r4, [r7, #20]
 800a2d4:	2300      	movs	r3, #0
 800a2d6:	9300      	str	r3, [sp, #0]
 800a2d8:	6878      	ldr	r0, [r7, #4]
 800a2da:	4632      	mov	r2, r6
 800a2dc:	f107 0310 	add.w	r3, r7, #16
 800a2e0:	f7ff fe1e 	bl	8009f20 <ada__exceptions__exception_data__append_info_basic_exception_informationXn>
 800a2e4:	f8c7 a018 	str.w	sl, [r7, #24]
 800a2e8:	f8c7 901c 	str.w	r9, [r7, #28]
 800a2ec:	f8c7 8020 	str.w	r8, [r7, #32]
 800a2f0:	627c      	str	r4, [r7, #36]	; 0x24
 800a2f2:	9000      	str	r0, [sp, #0]
 800a2f4:	4658      	mov	r0, fp
 800a2f6:	f107 0118 	add.w	r1, r7, #24
 800a2fa:	4632      	mov	r2, r6
 800a2fc:	f107 0320 	add.w	r3, r7, #32
 800a300:	f7ff ff2a 	bl	800a158 <ada__exceptions__exception_data__append_info_stringXn>
 800a304:	4682      	mov	sl, r0
 800a306:	ea20 79e0 	bic.w	r9, r0, r0, asr #31
 800a30a:	f109 000b 	add.w	r0, r9, #11
 800a30e:	f020 0003 	bic.w	r0, r0, #3
 800a312:	f000 ff15 	bl	800b140 <system__secondary_stack__ss_allocate>
 800a316:	4604      	mov	r4, r0
 800a318:	f8c0 8000 	str.w	r8, [r0]
 800a31c:	f8c0 a004 	str.w	sl, [r0, #4]
 800a320:	f100 0808 	add.w	r8, r0, #8
 800a324:	4640      	mov	r0, r8
 800a326:	4631      	mov	r1, r6
 800a328:	464a      	mov	r2, r9
 800a32a:	f000 fca7 	bl	800ac7c <memcpy>
 800a32e:	f8c5 8000 	str.w	r8, [r5]
 800a332:	606c      	str	r4, [r5, #4]
 800a334:	4628      	mov	r0, r5
 800a336:	372c      	adds	r7, #44	; 0x2c
 800a338:	46bd      	mov	sp, r7
 800a33a:	e8bd 8ff0 	ldmia.w	sp!, {r4, r5, r6, r7, r8, r9, sl, fp, pc}
 800a33e:	bf00      	nop

0800a340 <__gnat_exception_msg_len>:
 800a340:	6880      	ldr	r0, [r0, #8]
 800a342:	4770      	bx	lr

0800a344 <ada__exceptions__exception_data__exception_name_lengthXn>:
 800a344:	6840      	ldr	r0, [r0, #4]
 800a346:	3801      	subs	r0, #1
 800a348:	4770      	bx	lr
 800a34a:	bf00      	nop

0800a34c <ada__exceptions__exception_data__exception_name_length__2Xn>:
 800a34c:	b508      	push	{r3, lr}
 800a34e:	6800      	ldr	r0, [r0, #0]
 800a350:	f7ff fff8 	bl	800a344 <ada__exceptions__exception_data__exception_name_lengthXn>
 800a354:	bd08      	pop	{r3, pc}
 800a356:	bf00      	nop

0800a358 <ada__exceptions__exception_data__untailored_exception_tracebackXn>:
 800a358:	e92d 47f0 	stmdb	sp!, {r4, r5, r6, r7, r8, r9, sl, lr}
 800a35c:	b084      	sub	sp, #16
 800a35e:	af02      	add	r7, sp, #8
 800a360:	4605      	mov	r5, r0
 800a362:	460c      	mov	r4, r1
 800a364:	4608      	mov	r0, r1
 800a366:	f000 f903 	bl	800a570 <ada__exceptions__exception_data__untailored_exception_traceback_maxlengthXn>
 800a36a:	1dc3      	adds	r3, r0, #7
 800a36c:	f023 0307 	bic.w	r3, r3, #7
 800a370:	ebad 0d03 	sub.w	sp, sp, r3
 800a374:	f10d 0908 	add.w	r9, sp, #8
 800a378:	f04f 0a01 	mov.w	sl, #1
 800a37c:	f8c7 a000 	str.w	sl, [r7]
 800a380:	6078      	str	r0, [r7, #4]
 800a382:	2300      	movs	r3, #0
 800a384:	9300      	str	r3, [sp, #0]
 800a386:	4620      	mov	r0, r4
 800a388:	464a      	mov	r2, r9
 800a38a:	463b      	mov	r3, r7
 800a38c:	f7ff ff0a 	bl	800a1a4 <ada__exceptions__exception_data__append_info_untailored_exception_tracebackXn>
 800a390:	4606      	mov	r6, r0
 800a392:	ea20 78e0 	bic.w	r8, r0, r0, asr #31
 800a396:	f108 000b 	add.w	r0, r8, #11
 800a39a:	f020 0003 	bic.w	r0, r0, #3
 800a39e:	f000 fecf 	bl	800b140 <system__secondary_stack__ss_allocate>
 800a3a2:	4604      	mov	r4, r0
 800a3a4:	f8c0 a000 	str.w	sl, [r0]
 800a3a8:	6046      	str	r6, [r0, #4]
 800a3aa:	f100 0608 	add.w	r6, r0, #8
 800a3ae:	4630      	mov	r0, r6
 800a3b0:	4649      	mov	r1, r9
 800a3b2:	4642      	mov	r2, r8
 800a3b4:	f000 fc62 	bl	800ac7c <memcpy>
 800a3b8:	602e      	str	r6, [r5, #0]
 800a3ba:	606c      	str	r4, [r5, #4]
 800a3bc:	4628      	mov	r0, r5
 800a3be:	3708      	adds	r7, #8
 800a3c0:	46bd      	mov	sp, r7
 800a3c2:	e8bd 87f0 	ldmia.w	sp!, {r4, r5, r6, r7, r8, r9, sl, pc}
 800a3c6:	bf00      	nop

0800a3c8 <ada__exceptions__exception_data__set_exception_c_msg__append_number.5333>:
 800a3c8:	2800      	cmp	r0, #0
 800a3ca:	dd38      	ble.n	800a43e <ada__exceptions__exception_data__set_exception_c_msg__append_number.5333+0x76>
 800a3cc:	b470      	push	{r4, r5, r6}
 800a3ce:	4603      	mov	r3, r0
 800a3d0:	2201      	movs	r2, #1
 800a3d2:	4c1b      	ldr	r4, [pc, #108]	; (800a440 <ada__exceptions__exception_data__set_exception_c_msg__append_number.5333+0x78>)
 800a3d4:	fb84 5103 	smull	r5, r1, r4, r3
 800a3d8:	17db      	asrs	r3, r3, #31
 800a3da:	ebc3 03a1 	rsb	r3, r3, r1, asr #2
 800a3de:	3201      	adds	r2, #1
 800a3e0:	2b00      	cmp	r3, #0
 800a3e2:	dcf7      	bgt.n	800a3d4 <ada__exceptions__exception_data__set_exception_c_msg__append_number.5333+0xc>
 800a3e4:	e022      	b.n	800a42c <ada__exceptions__exception_data__set_exception_c_msg__append_number.5333+0x64>
 800a3e6:	fb86 3200 	smull	r3, r2, r6, r0
 800a3ea:	17c3      	asrs	r3, r0, #31
 800a3ec:	ebc3 03a2 	rsb	r3, r3, r2, asr #2
 800a3f0:	461c      	mov	r4, r3
 800a3f2:	eb03 0383 	add.w	r3, r3, r3, lsl #2
 800a3f6:	eba0 0343 	sub.w	r3, r0, r3, lsl #1
 800a3fa:	f8cc 3000 	str.w	r3, [ip]
 800a3fe:	4620      	mov	r0, r4
 800a400:	f8dc 5004 	ldr.w	r5, [ip, #4]
 800a404:	68aa      	ldr	r2, [r5, #8]
 800a406:	1a52      	subs	r2, r2, r1
 800a408:	442a      	add	r2, r5
 800a40a:	3330      	adds	r3, #48	; 0x30
 800a40c:	72d3      	strb	r3, [r2, #11]
 800a40e:	3101      	adds	r1, #1
 800a410:	2c00      	cmp	r4, #0
 800a412:	dce8      	bgt.n	800a3e6 <ada__exceptions__exception_data__set_exception_c_msg__append_number.5333+0x1e>
 800a414:	e011      	b.n	800a43a <ada__exceptions__exception_data__set_exception_c_msg__append_number.5333+0x72>
 800a416:	440b      	add	r3, r1
 800a418:	213a      	movs	r1, #58	; 0x3a
 800a41a:	7319      	strb	r1, [r3, #12]
 800a41c:	f8dc 1004 	ldr.w	r1, [ip, #4]
 800a420:	688b      	ldr	r3, [r1, #8]
 800a422:	441a      	add	r2, r3
 800a424:	608a      	str	r2, [r1, #8]
 800a426:	2100      	movs	r1, #0
 800a428:	4e05      	ldr	r6, [pc, #20]	; (800a440 <ada__exceptions__exception_data__set_exception_c_msg__append_number.5333+0x78>)
 800a42a:	e7dc      	b.n	800a3e6 <ada__exceptions__exception_data__set_exception_c_msg__append_number.5333+0x1e>
 800a42c:	f8dc 1004 	ldr.w	r1, [ip, #4]
 800a430:	688b      	ldr	r3, [r1, #8]
 800a432:	f1c2 04c8 	rsb	r4, r2, #200	; 0xc8
 800a436:	42a3      	cmp	r3, r4
 800a438:	dded      	ble.n	800a416 <ada__exceptions__exception_data__set_exception_c_msg__append_number.5333+0x4e>
 800a43a:	bc70      	pop	{r4, r5, r6}
 800a43c:	4770      	bx	lr
 800a43e:	4770      	bx	lr
 800a440:	66666667 	.word	0x66666667

0800a444 <ada__exceptions__exception_data__set_exception_c_msgXn>:
 800a444:	b530      	push	{r4, r5, lr}
 800a446:	b085      	sub	sp, #20
 800a448:	9d09      	ldr	r5, [sp, #36]	; 0x24
 800a44a:	ac08      	add	r4, sp, #32
 800a44c:	9403      	str	r4, [sp, #12]
 800a44e:	9002      	str	r0, [sp, #8]
 800a450:	2400      	movs	r4, #0
 800a452:	f880 40d4 	strb.w	r4, [r0, #212]	; 0xd4
 800a456:	6001      	str	r1, [r0, #0]
 800a458:	f8c0 40dc 	str.w	r4, [r0, #220]	; 0xdc
 800a45c:	4922      	ldr	r1, [pc, #136]	; (800a4e8 <ada__exceptions__exception_data__set_exception_c_msgXn+0xa4>)
 800a45e:	6809      	ldr	r1, [r1, #0]
 800a460:	f8c0 10d8 	str.w	r1, [r0, #216]	; 0xd8
 800a464:	6084      	str	r4, [r0, #8]
 800a466:	4614      	mov	r4, r2
 800a468:	7812      	ldrb	r2, [r2, #0]
 800a46a:	b922      	cbnz	r2, 800a476 <ada__exceptions__exception_data__set_exception_c_msgXn+0x32>
 800a46c:	e00f      	b.n	800a48e <ada__exceptions__exception_data__set_exception_c_msgXn+0x4a>
 800a46e:	460a      	mov	r2, r1
 800a470:	29c7      	cmp	r1, #199	; 0xc7
 800a472:	dd01      	ble.n	800a478 <ada__exceptions__exception_data__set_exception_c_msgXn+0x34>
 800a474:	e00b      	b.n	800a48e <ada__exceptions__exception_data__set_exception_c_msgXn+0x4a>
 800a476:	2200      	movs	r2, #0
 800a478:	3201      	adds	r2, #1
 800a47a:	6082      	str	r2, [r0, #8]
 800a47c:	18a1      	adds	r1, r4, r2
 800a47e:	f811 1c01 	ldrb.w	r1, [r1, #-1]
 800a482:	4402      	add	r2, r0
 800a484:	72d1      	strb	r1, [r2, #11]
 800a486:	6881      	ldr	r1, [r0, #8]
 800a488:	5c62      	ldrb	r2, [r4, r1]
 800a48a:	2a00      	cmp	r2, #0
 800a48c:	d1ef      	bne.n	800a46e <ada__exceptions__exception_data__set_exception_c_msgXn+0x2a>
 800a48e:	f10d 0c04 	add.w	ip, sp, #4
 800a492:	4618      	mov	r0, r3
 800a494:	f7ff ff98 	bl	800a3c8 <ada__exceptions__exception_data__set_exception_c_msg__append_number.5333>
 800a498:	f10d 0c04 	add.w	ip, sp, #4
 800a49c:	9808      	ldr	r0, [sp, #32]
 800a49e:	f7ff ff93 	bl	800a3c8 <ada__exceptions__exception_data__set_exception_c_msg__append_number.5333>
 800a4a2:	b1fd      	cbz	r5, 800a4e4 <ada__exceptions__exception_data__set_exception_c_msgXn+0xa0>
 800a4a4:	9902      	ldr	r1, [sp, #8]
 800a4a6:	688b      	ldr	r3, [r1, #8]
 800a4a8:	2bc6      	cmp	r3, #198	; 0xc6
 800a4aa:	dc1b      	bgt.n	800a4e4 <ada__exceptions__exception_data__set_exception_c_msgXn+0xa0>
 800a4ac:	3301      	adds	r3, #1
 800a4ae:	608b      	str	r3, [r1, #8]
 800a4b0:	440b      	add	r3, r1
 800a4b2:	2220      	movs	r2, #32
 800a4b4:	72da      	strb	r2, [r3, #11]
 800a4b6:	462c      	mov	r4, r5
 800a4b8:	782b      	ldrb	r3, [r5, #0]
 800a4ba:	b19b      	cbz	r3, 800a4e4 <ada__exceptions__exception_data__set_exception_c_msgXn+0xa0>
 800a4bc:	688b      	ldr	r3, [r1, #8]
 800a4be:	2bc7      	cmp	r3, #199	; 0xc7
 800a4c0:	dc10      	bgt.n	800a4e4 <ada__exceptions__exception_data__set_exception_c_msgXn+0xa0>
 800a4c2:	462a      	mov	r2, r5
 800a4c4:	f1c5 0501 	rsb	r5, r5, #1
 800a4c8:	e003      	b.n	800a4d2 <ada__exceptions__exception_data__set_exception_c_msgXn+0x8e>
 800a4ca:	688b      	ldr	r3, [r1, #8]
 800a4cc:	3201      	adds	r2, #1
 800a4ce:	2bc7      	cmp	r3, #199	; 0xc7
 800a4d0:	dc08      	bgt.n	800a4e4 <ada__exceptions__exception_data__set_exception_c_msgXn+0xa0>
 800a4d2:	3301      	adds	r3, #1
 800a4d4:	608b      	str	r3, [r1, #8]
 800a4d6:	7810      	ldrb	r0, [r2, #0]
 800a4d8:	440b      	add	r3, r1
 800a4da:	72d8      	strb	r0, [r3, #11]
 800a4dc:	18a3      	adds	r3, r4, r2
 800a4de:	5d5b      	ldrb	r3, [r3, r5]
 800a4e0:	2b00      	cmp	r3, #0
 800a4e2:	d1f2      	bne.n	800a4ca <ada__exceptions__exception_data__set_exception_c_msgXn+0x86>
 800a4e4:	b005      	add	sp, #20
 800a4e6:	bd30      	pop	{r4, r5, pc}
 800a4e8:	20000274 	.word	0x20000274

0800a4ec <ada__exceptions__exception_data__set_exception_msgXn>:
 800a4ec:	b570      	push	{r4, r5, r6, lr}
 800a4ee:	4604      	mov	r4, r0
 800a4f0:	460e      	mov	r6, r1
 800a4f2:	6818      	ldr	r0, [r3, #0]
 800a4f4:	685b      	ldr	r3, [r3, #4]
 800a4f6:	4298      	cmp	r0, r3
 800a4f8:	dc05      	bgt.n	800a506 <ada__exceptions__exception_data__set_exception_msgXn+0x1a>
 800a4fa:	1a1b      	subs	r3, r3, r0
 800a4fc:	3301      	adds	r3, #1
 800a4fe:	2bc8      	cmp	r3, #200	; 0xc8
 800a500:	bfa8      	it	ge
 800a502:	23c8      	movge	r3, #200	; 0xc8
 800a504:	e000      	b.n	800a508 <ada__exceptions__exception_data__set_exception_msgXn+0x1c>
 800a506:	2300      	movs	r3, #0
 800a508:	2500      	movs	r5, #0
 800a50a:	f884 50d4 	strb.w	r5, [r4, #212]	; 0xd4
 800a50e:	60a3      	str	r3, [r4, #8]
 800a510:	f104 000c 	add.w	r0, r4, #12
 800a514:	4611      	mov	r1, r2
 800a516:	ea23 72e3 	bic.w	r2, r3, r3, asr #31
 800a51a:	f001 fc01 	bl	800bd20 <memmove>
 800a51e:	6026      	str	r6, [r4, #0]
 800a520:	f8c4 50dc 	str.w	r5, [r4, #220]	; 0xdc
 800a524:	4b02      	ldr	r3, [pc, #8]	; (800a530 <ada__exceptions__exception_data__set_exception_msgXn+0x44>)
 800a526:	681b      	ldr	r3, [r3, #0]
 800a528:	f8c4 30d8 	str.w	r3, [r4, #216]	; 0xd8
 800a52c:	bd70      	pop	{r4, r5, r6, pc}
 800a52e:	bf00      	nop
 800a530:	20000274 	.word	0x20000274

0800a534 <ada__exceptions__exception_data__tailored_exception_tracebackXn>:
 800a534:	b510      	push	{r4, lr}
 800a536:	b082      	sub	sp, #8
 800a538:	4604      	mov	r4, r0
 800a53a:	460a      	mov	r2, r1
 800a53c:	4b0b      	ldr	r3, [pc, #44]	; (800a56c <ada__exceptions__exception_data__tailored_exception_tracebackXn+0x38>)
 800a53e:	681b      	ldr	r3, [r3, #0]
 800a540:	b93b      	cbnz	r3, 800a552 <ada__exceptions__exception_data__tailored_exception_tracebackXn+0x1e>
 800a542:	4668      	mov	r0, sp
 800a544:	f7ff ff08 	bl	800a358 <ada__exceptions__exception_data__untailored_exception_tracebackXn>
 800a548:	9b00      	ldr	r3, [sp, #0]
 800a54a:	6023      	str	r3, [r4, #0]
 800a54c:	9b01      	ldr	r3, [sp, #4]
 800a54e:	6063      	str	r3, [r4, #4]
 800a550:	e008      	b.n	800a564 <ada__exceptions__exception_data__tailored_exception_tracebackXn+0x30>
 800a552:	4668      	mov	r0, sp
 800a554:	31e0      	adds	r1, #224	; 0xe0
 800a556:	f8d2 20dc 	ldr.w	r2, [r2, #220]	; 0xdc
 800a55a:	4798      	blx	r3
 800a55c:	9b00      	ldr	r3, [sp, #0]
 800a55e:	6023      	str	r3, [r4, #0]
 800a560:	9b01      	ldr	r3, [sp, #4]
 800a562:	6063      	str	r3, [r4, #4]
 800a564:	4620      	mov	r0, r4
 800a566:	b002      	add	sp, #8
 800a568:	bd10      	pop	{r4, pc}
 800a56a:	bf00      	nop
 800a56c:	200001b0 	.word	0x200001b0

0800a570 <ada__exceptions__exception_data__untailored_exception_traceback_maxlengthXn>:
 800a570:	f8d0 30dc 	ldr.w	r3, [r0, #220]	; 0xdc
 800a574:	eb03 00c3 	add.w	r0, r3, r3, lsl #3
 800a578:	eb03 0040 	add.w	r0, r3, r0, lsl #1
 800a57c:	3042      	adds	r0, #66	; 0x42
 800a57e:	4770      	bx	lr

0800a580 <ada__exceptions__exception_propagation__allocate_occurrenceXn>:
 800a580:	b508      	push	{r3, lr}
 800a582:	f001 fc01 	bl	800bd88 <system__exceptions__machine__new_occurrence>
 800a586:	4b02      	ldr	r3, [pc, #8]	; (800a590 <ada__exceptions__exception_propagation__allocate_occurrenceXn+0x10>)
 800a588:	6083      	str	r3, [r0, #8]
 800a58a:	65c0      	str	r0, [r0, #92]	; 0x5c
 800a58c:	3058      	adds	r0, #88	; 0x58
 800a58e:	bd08      	pop	{r3, pc}
 800a590:	0800a595 	.word	0x0800a595

0800a594 <ada__exceptions__exception_propagation__gnat_gcc_exception_cleanupXn>:
 800a594:	b121      	cbz	r1, 800a5a0 <ada__exceptions__exception_propagation__gnat_gcc_exception_cleanupXn+0xc>
 800a596:	b508      	push	{r3, lr}
 800a598:	4608      	mov	r0, r1
 800a59a:	f000 fcad 	bl	800aef8 <__gnat_free>
 800a59e:	bd08      	pop	{r3, pc}
 800a5a0:	4770      	bx	lr
 800a5a2:	bf00      	nop

0800a5a4 <ada__exceptions__exception_propagation__set_foreign_occurrenceXn>:
 800a5a4:	4b07      	ldr	r3, [pc, #28]	; (800a5c4 <ada__exceptions__exception_propagation__set_foreign_occurrenceXn+0x20>)
 800a5a6:	681a      	ldr	r2, [r3, #0]
 800a5a8:	4b07      	ldr	r3, [pc, #28]	; (800a5c8 <ada__exceptions__exception_propagation__set_foreign_occurrenceXn+0x24>)
 800a5aa:	6003      	str	r3, [r0, #0]
 800a5ac:	6041      	str	r1, [r0, #4]
 800a5ae:	2300      	movs	r3, #0
 800a5b0:	6083      	str	r3, [r0, #8]
 800a5b2:	2101      	movs	r1, #1
 800a5b4:	f880 10d4 	strb.w	r1, [r0, #212]	; 0xd4
 800a5b8:	f8c0 20d8 	str.w	r2, [r0, #216]	; 0xd8
 800a5bc:	f8c0 30dc 	str.w	r3, [r0, #220]	; 0xdc
 800a5c0:	4770      	bx	lr
 800a5c2:	bf00      	nop
 800a5c4:	20000274 	.word	0x20000274
 800a5c8:	2000014c 	.word	0x2000014c

0800a5cc <__gnat_setup_current_excep>:
 800a5cc:	b538      	push	{r3, r4, r5, lr}
 800a5ce:	4604      	mov	r4, r0
 800a5d0:	f7ff f95e 	bl	8009890 <system__soft_links__get_current_excep_soft>
 800a5d4:	4605      	mov	r5, r0
 800a5d6:	4620      	mov	r0, r4
 800a5d8:	4909      	ldr	r1, [pc, #36]	; (800a600 <__gnat_setup_current_excep+0x34>)
 800a5da:	2208      	movs	r2, #8
 800a5dc:	f7ff fa1e 	bl	8009a1c <memcmp>
 800a5e0:	b940      	cbnz	r0, 800a5f4 <__gnat_setup_current_excep+0x28>
 800a5e2:	3458      	adds	r4, #88	; 0x58
 800a5e4:	4628      	mov	r0, r5
 800a5e6:	4621      	mov	r1, r4
 800a5e8:	f44f 72d4 	mov.w	r2, #424	; 0x1a8
 800a5ec:	f000 fb46 	bl	800ac7c <memcpy>
 800a5f0:	4620      	mov	r0, r4
 800a5f2:	e004      	b.n	800a5fe <__gnat_setup_current_excep+0x32>
 800a5f4:	4628      	mov	r0, r5
 800a5f6:	4621      	mov	r1, r4
 800a5f8:	f7ff ffd4 	bl	800a5a4 <ada__exceptions__exception_propagation__set_foreign_occurrenceXn>
 800a5fc:	4628      	mov	r0, r5
 800a5fe:	bd38      	pop	{r3, r4, r5, pc}
 800a600:	0800f68c 	.word	0x0800f68c

0800a604 <__gnat_begin_handler>:
 800a604:	4770      	bx	lr
 800a606:	bf00      	nop

0800a608 <__gnat_end_handler>:
 800a608:	b118      	cbz	r0, 800a612 <__gnat_end_handler+0xa>
 800a60a:	b508      	push	{r3, lr}
 800a60c:	f001 febc 	bl	800c388 <_Unwind_DeleteException>
 800a610:	bd08      	pop	{r3, pc}
 800a612:	4770      	bx	lr

0800a614 <ada__exceptions__exception_propagation__propagate_gcc_exceptionXn>:
 800a614:	b510      	push	{r4, lr}
 800a616:	4604      	mov	r4, r0
 800a618:	f7ff f904 	bl	8009824 <__gnat_Unwind_RaiseException>
 800a61c:	4620      	mov	r0, r4
 800a61e:	f7ff ffd5 	bl	800a5cc <__gnat_setup_current_excep>
 800a622:	f000 f8b9 	bl	800a798 <__gnat_notify_unhandled_exception>
 800a626:	4620      	mov	r0, r4
 800a628:	4903      	ldr	r1, [pc, #12]	; (800a638 <ada__exceptions__exception_propagation__propagate_gcc_exceptionXn+0x24>)
 800a62a:	2200      	movs	r2, #0
 800a62c:	f7ff f8fc 	bl	8009828 <__gnat_Unwind_ForcedUnwind>
 800a630:	4620      	mov	r0, r4
 800a632:	f000 f81d 	bl	800a670 <__gnat_unhandled_except_handler>
 800a636:	bf00      	nop
 800a638:	08009811 	.word	0x08009811

0800a63c <ada__exceptions__exception_propagation__propagate_exceptionXn>:
 800a63c:	b508      	push	{r3, lr}
 800a63e:	6840      	ldr	r0, [r0, #4]
 800a640:	f7ff ffe8 	bl	800a614 <ada__exceptions__exception_propagation__propagate_gcc_exceptionXn>

0800a644 <__gnat_set_exception_parameter>:
 800a644:	b538      	push	{r3, r4, r5, lr}
 800a646:	4605      	mov	r5, r0
 800a648:	460c      	mov	r4, r1
 800a64a:	4608      	mov	r0, r1
 800a64c:	4907      	ldr	r1, [pc, #28]	; (800a66c <__gnat_set_exception_parameter+0x28>)
 800a64e:	2208      	movs	r2, #8
 800a650:	f7ff f9e4 	bl	8009a1c <memcmp>
 800a654:	b928      	cbnz	r0, 800a662 <__gnat_set_exception_parameter+0x1e>
 800a656:	4628      	mov	r0, r5
 800a658:	f104 0158 	add.w	r1, r4, #88	; 0x58
 800a65c:	f000 fa26 	bl	800aaac <ada__exceptions__save_occurrence>
 800a660:	e003      	b.n	800a66a <__gnat_set_exception_parameter+0x26>
 800a662:	4628      	mov	r0, r5
 800a664:	4621      	mov	r1, r4
 800a666:	f7ff ff9d 	bl	800a5a4 <ada__exceptions__exception_propagation__set_foreign_occurrenceXn>
 800a66a:	bd38      	pop	{r3, r4, r5, pc}
 800a66c:	0800f68c 	.word	0x0800f68c

0800a670 <__gnat_unhandled_except_handler>:
 800a670:	b508      	push	{r3, lr}
 800a672:	f7ff ffab 	bl	800a5cc <__gnat_setup_current_excep>
 800a676:	f000 f89f 	bl	800a7b8 <ada__exceptions__exception_traces__unhandled_exception_terminateXn>
 800a67a:	bf00      	nop

0800a67c <__gnat_eid_for>:
 800a67c:	6d80      	ldr	r0, [r0, #88]	; 0x58
 800a67e:	4770      	bx	lr

0800a680 <__gnat_foreign_data_for>:
 800a680:	6900      	ldr	r0, [r0, #16]
 800a682:	4770      	bx	lr

0800a684 <__gnat_is_handled_by_others>:
 800a684:	7800      	ldrb	r0, [r0, #0]
 800a686:	f080 0001 	eor.w	r0, r0, #1
 800a68a:	4770      	bx	lr

0800a68c <__gnat_language_for>:
 800a68c:	7840      	ldrb	r0, [r0, #1]
 800a68e:	4770      	bx	lr

0800a690 <ada__exceptions__exception_traces__notify_exception___finalizerXn.5598>:
 800a690:	b508      	push	{r3, lr}
 800a692:	f8dc 0000 	ldr.w	r0, [ip]
 800a696:	f000 fd77 	bl	800b188 <system__secondary_stack__ss_release>
 800a69a:	bd08      	pop	{r3, pc}

0800a69c <ada__exceptions__exception_traces__notify_exceptionXn>:
 800a69c:	b530      	push	{r4, r5, lr}
 800a69e:	b085      	sub	sp, #20
 800a6a0:	4604      	mov	r4, r0
 800a6a2:	460d      	mov	r5, r1
 800a6a4:	ab08      	add	r3, sp, #32
 800a6a6:	9303      	str	r3, [sp, #12]
 800a6a8:	f000 fd68 	bl	800b17c <system__secondary_stack__ss_mark>
 800a6ac:	9002      	str	r0, [sp, #8]
 800a6ae:	6823      	ldr	r3, [r4, #0]
 800a6b0:	781b      	ldrb	r3, [r3, #0]
 800a6b2:	2b00      	cmp	r3, #0
 800a6b4:	d134      	bne.n	800a720 <ada__exceptions__exception_traces__notify_exceptionXn+0x84>
 800a6b6:	4b2a      	ldr	r3, [pc, #168]	; (800a760 <ada__exceptions__exception_traces__notify_exceptionXn+0xc4>)
 800a6b8:	781b      	ldrb	r3, [r3, #0]
 800a6ba:	b2db      	uxtb	r3, r3
 800a6bc:	2b01      	cmp	r3, #1
 800a6be:	d00b      	beq.n	800a6d8 <ada__exceptions__exception_traces__notify_exceptionXn+0x3c>
 800a6c0:	2d00      	cmp	r5, #0
 800a6c2:	d02d      	beq.n	800a720 <ada__exceptions__exception_traces__notify_exceptionXn+0x84>
 800a6c4:	4b26      	ldr	r3, [pc, #152]	; (800a760 <ada__exceptions__exception_traces__notify_exceptionXn+0xc4>)
 800a6c6:	781b      	ldrb	r3, [r3, #0]
 800a6c8:	b2db      	uxtb	r3, r3
 800a6ca:	2b02      	cmp	r3, #2
 800a6cc:	d004      	beq.n	800a6d8 <ada__exceptions__exception_traces__notify_exceptionXn+0x3c>
 800a6ce:	4b24      	ldr	r3, [pc, #144]	; (800a760 <ada__exceptions__exception_traces__notify_exceptionXn+0xc4>)
 800a6d0:	781b      	ldrb	r3, [r3, #0]
 800a6d2:	b2db      	uxtb	r3, r3
 800a6d4:	2b03      	cmp	r3, #3
 800a6d6:	d123      	bne.n	800a720 <ada__exceptions__exception_traces__notify_exceptionXn+0x84>
 800a6d8:	4b22      	ldr	r3, [pc, #136]	; (800a764 <ada__exceptions__exception_traces__notify_exceptionXn+0xc8>)
 800a6da:	681b      	ldr	r3, [r3, #0]
 800a6dc:	4798      	blx	r3
 800a6de:	4822      	ldr	r0, [pc, #136]	; (800a768 <ada__exceptions__exception_traces__notify_exceptionXn+0xcc>)
 800a6e0:	4922      	ldr	r1, [pc, #136]	; (800a76c <ada__exceptions__exception_traces__notify_exceptionXn+0xd0>)
 800a6e2:	f000 fa0b 	bl	800aafc <__gnat_to_stderr>
 800a6e6:	4b1e      	ldr	r3, [pc, #120]	; (800a760 <ada__exceptions__exception_traces__notify_exceptionXn+0xc4>)
 800a6e8:	781b      	ldrb	r3, [r3, #0]
 800a6ea:	b2db      	uxtb	r3, r3
 800a6ec:	2b03      	cmp	r3, #3
 800a6ee:	d00c      	beq.n	800a70a <ada__exceptions__exception_traces__notify_exceptionXn+0x6e>
 800a6f0:	b11d      	cbz	r5, 800a6fa <ada__exceptions__exception_traces__notify_exceptionXn+0x5e>
 800a6f2:	481f      	ldr	r0, [pc, #124]	; (800a770 <ada__exceptions__exception_traces__notify_exceptionXn+0xd4>)
 800a6f4:	491f      	ldr	r1, [pc, #124]	; (800a774 <ada__exceptions__exception_traces__notify_exceptionXn+0xd8>)
 800a6f6:	f000 fa01 	bl	800aafc <__gnat_to_stderr>
 800a6fa:	481f      	ldr	r0, [pc, #124]	; (800a778 <ada__exceptions__exception_traces__notify_exceptionXn+0xdc>)
 800a6fc:	491f      	ldr	r1, [pc, #124]	; (800a77c <ada__exceptions__exception_traces__notify_exceptionXn+0xe0>)
 800a6fe:	f000 f9fd 	bl	800aafc <__gnat_to_stderr>
 800a702:	4819      	ldr	r0, [pc, #100]	; (800a768 <ada__exceptions__exception_traces__notify_exceptionXn+0xcc>)
 800a704:	4919      	ldr	r1, [pc, #100]	; (800a76c <ada__exceptions__exception_traces__notify_exceptionXn+0xd0>)
 800a706:	f000 f9f9 	bl	800aafc <__gnat_to_stderr>
 800a70a:	4668      	mov	r0, sp
 800a70c:	4621      	mov	r1, r4
 800a70e:	f000 f88b 	bl	800a828 <ada__exceptions__exception_information>
 800a712:	e9dd 0100 	ldrd	r0, r1, [sp]
 800a716:	f000 f9f1 	bl	800aafc <__gnat_to_stderr>
 800a71a:	4b19      	ldr	r3, [pc, #100]	; (800a780 <ada__exceptions__exception_traces__notify_exceptionXn+0xe4>)
 800a71c:	681b      	ldr	r3, [r3, #0]
 800a71e:	4798      	blx	r3
 800a720:	4b18      	ldr	r3, [pc, #96]	; (800a784 <ada__exceptions__exception_traces__notify_exceptionXn+0xe8>)
 800a722:	781b      	ldrb	r3, [r3, #0]
 800a724:	f013 0fff 	tst.w	r3, #255	; 0xff
 800a728:	d004      	beq.n	800a734 <ada__exceptions__exception_traces__notify_exceptionXn+0x98>
 800a72a:	6823      	ldr	r3, [r4, #0]
 800a72c:	695b      	ldr	r3, [r3, #20]
 800a72e:	b10b      	cbz	r3, 800a734 <ada__exceptions__exception_traces__notify_exceptionXn+0x98>
 800a730:	4620      	mov	r0, r4
 800a732:	4798      	blx	r3
 800a734:	4b14      	ldr	r3, [pc, #80]	; (800a788 <ada__exceptions__exception_traces__notify_exceptionXn+0xec>)
 800a736:	681b      	ldr	r3, [r3, #0]
 800a738:	b163      	cbz	r3, 800a754 <ada__exceptions__exception_traces__notify_exceptionXn+0xb8>
 800a73a:	4b13      	ldr	r3, [pc, #76]	; (800a788 <ada__exceptions__exception_traces__notify_exceptionXn+0xec>)
 800a73c:	681b      	ldr	r3, [r3, #0]
 800a73e:	4620      	mov	r0, r4
 800a740:	4798      	blx	r3
 800a742:	e007      	b.n	800a754 <ada__exceptions__exception_traces__notify_exceptionXn+0xb8>
 800a744:	4604      	mov	r4, r0
 800a746:	f10d 0c08 	add.w	ip, sp, #8
 800a74a:	f7ff ffa1 	bl	800a690 <ada__exceptions__exception_traces__notify_exception___finalizerXn.5598>
 800a74e:	4620      	mov	r0, r4
 800a750:	f002 f9de 	bl	800cb10 <_Unwind_Resume>
 800a754:	f10d 0c08 	add.w	ip, sp, #8
 800a758:	f7ff ff9a 	bl	800a690 <ada__exceptions__exception_traces__notify_exception___finalizerXn.5598>
 800a75c:	b005      	add	sp, #20
 800a75e:	bd30      	pop	{r4, r5, pc}
 800a760:	20000224 	.word	0x20000224
 800a764:	200001a4 	.word	0x200001a4
 800a768:	0800fe14 	.word	0x0800fe14
 800a76c:	0800fe18 	.word	0x0800fe18
 800a770:	0800fdf8 	.word	0x0800fdf8
 800a774:	0800fe20 	.word	0x0800fe20
 800a778:	0800fe04 	.word	0x0800fe04
 800a77c:	0800fe28 	.word	0x0800fe28
 800a780:	2000019c 	.word	0x2000019c
 800a784:	200001e8 	.word	0x200001e8
 800a788:	200001e4 	.word	0x200001e4

0800a78c <__gnat_notify_handled_exception>:
 800a78c:	b508      	push	{r3, lr}
 800a78e:	2100      	movs	r1, #0
 800a790:	f7ff ff84 	bl	800a69c <ada__exceptions__exception_traces__notify_exceptionXn>
 800a794:	bd08      	pop	{r3, pc}
 800a796:	bf00      	nop

0800a798 <__gnat_notify_unhandled_exception>:
 800a798:	b510      	push	{r4, lr}
 800a79a:	4604      	mov	r4, r0
 800a79c:	4b05      	ldr	r3, [pc, #20]	; (800a7b4 <__gnat_notify_unhandled_exception+0x1c>)
 800a79e:	681b      	ldr	r3, [r3, #0]
 800a7a0:	4798      	blx	r3
 800a7a2:	4620      	mov	r0, r4
 800a7a4:	2101      	movs	r1, #1
 800a7a6:	f7ff ff79 	bl	800a69c <ada__exceptions__exception_traces__notify_exceptionXn>
 800a7aa:	6820      	ldr	r0, [r4, #0]
 800a7ac:	f000 fd16 	bl	800b1dc <__gnat_unhandled_exception>
 800a7b0:	bd10      	pop	{r4, pc}
 800a7b2:	bf00      	nop
 800a7b4:	200001ac 	.word	0x200001ac

0800a7b8 <ada__exceptions__exception_traces__unhandled_exception_terminateXn>:
 800a7b8:	b510      	push	{r4, lr}
 800a7ba:	b0ea      	sub	sp, #424	; 0x1a8
 800a7bc:	4604      	mov	r4, r0
 800a7be:	4668      	mov	r0, sp
 800a7c0:	f7ff fb74 	bl	8009eac <ada__exceptions__exception_occurrenceIP>
 800a7c4:	4668      	mov	r0, sp
 800a7c6:	4621      	mov	r1, r4
 800a7c8:	f000 f970 	bl	800aaac <ada__exceptions__save_occurrence>
 800a7cc:	4668      	mov	r0, sp
 800a7ce:	f000 faa9 	bl	800ad24 <__gnat_last_chance_handler>
 800a7d2:	bf00      	nop

0800a7d4 <ada__exceptions__code_address_for_aaa>:
 800a7d4:	4800      	ldr	r0, [pc, #0]	; (800a7d8 <ada__exceptions__code_address_for_aaa+0x4>)
 800a7d6:	4770      	bx	lr
 800a7d8:	0800a7d4 	.word	0x0800a7d4

0800a7dc <ada__exceptions__call_chain>:
 800a7dc:	4b10      	ldr	r3, [pc, #64]	; (800a820 <ada__exceptions__call_chain+0x44>)
 800a7de:	681b      	ldr	r3, [r3, #0]
 800a7e0:	b1eb      	cbz	r3, 800a81e <ada__exceptions__call_chain+0x42>
 800a7e2:	f8d0 30dc 	ldr.w	r3, [r0, #220]	; 0xdc
 800a7e6:	b9d3      	cbnz	r3, 800a81e <ada__exceptions__call_chain+0x42>
 800a7e8:	b530      	push	{r4, r5, lr}
 800a7ea:	b0b5      	sub	sp, #212	; 0xd4
 800a7ec:	4604      	mov	r4, r0
 800a7ee:	f7ff fff1 	bl	800a7d4 <ada__exceptions__code_address_for_aaa>
 800a7f2:	4605      	mov	r5, r0
 800a7f4:	f000 f992 	bl	800ab1c <ada__exceptions__code_address_for_zzz>
 800a7f8:	9000      	str	r0, [sp, #0]
 800a7fa:	2305      	movs	r3, #5
 800a7fc:	9301      	str	r3, [sp, #4]
 800a7fe:	a802      	add	r0, sp, #8
 800a800:	4908      	ldr	r1, [pc, #32]	; (800a824 <ada__exceptions__call_chain+0x48>)
 800a802:	2232      	movs	r2, #50	; 0x32
 800a804:	462b      	mov	r3, r5
 800a806:	f001 fb03 	bl	800be10 <system__traceback__call_chain>
 800a80a:	f8c4 00dc 	str.w	r0, [r4, #220]	; 0xdc
 800a80e:	f104 00e0 	add.w	r0, r4, #224	; 0xe0
 800a812:	a902      	add	r1, sp, #8
 800a814:	22c8      	movs	r2, #200	; 0xc8
 800a816:	f000 fa31 	bl	800ac7c <memcpy>
 800a81a:	b035      	add	sp, #212	; 0xd4
 800a81c:	bd30      	pop	{r4, r5, pc}
 800a81e:	4770      	bx	lr
 800a820:	20000188 	.word	0x20000188
 800a824:	08010034 	.word	0x08010034

0800a828 <ada__exceptions__exception_information>:
 800a828:	b510      	push	{r4, lr}
 800a82a:	b082      	sub	sp, #8
 800a82c:	680b      	ldr	r3, [r1, #0]
 800a82e:	b923      	cbnz	r3, 800a83a <ada__exceptions__exception_information+0x12>
 800a830:	4807      	ldr	r0, [pc, #28]	; (800a850 <ada__exceptions__exception_information+0x28>)
 800a832:	f240 21e9 	movw	r1, #745	; 0x2e9
 800a836:	f000 f8ed 	bl	800aa14 <__gnat_rcheck_CE_Explicit_Raise>
 800a83a:	4604      	mov	r4, r0
 800a83c:	4668      	mov	r0, sp
 800a83e:	f7ff fd21 	bl	800a284 <ada__exceptions__exception_data__exception_informationXn>
 800a842:	9b00      	ldr	r3, [sp, #0]
 800a844:	6023      	str	r3, [r4, #0]
 800a846:	9b01      	ldr	r3, [sp, #4]
 800a848:	6063      	str	r3, [r4, #4]
 800a84a:	4620      	mov	r0, r4
 800a84c:	b002      	add	sp, #8
 800a84e:	bd10      	pop	{r4, pc}
 800a850:	0801003c 	.word	0x0801003c

0800a854 <ada__exceptions__exception_message>:
 800a854:	e92d 41f0 	stmdb	sp!, {r4, r5, r6, r7, r8, lr}
 800a858:	460c      	mov	r4, r1
 800a85a:	680b      	ldr	r3, [r1, #0]
 800a85c:	b923      	cbnz	r3, 800a868 <ada__exceptions__exception_message+0x14>
 800a85e:	4811      	ldr	r0, [pc, #68]	; (800a8a4 <ada__exceptions__exception_message+0x50>)
 800a860:	f240 21f6 	movw	r1, #758	; 0x2f6
 800a864:	f000 f8d6 	bl	800aa14 <__gnat_rcheck_CE_Explicit_Raise>
 800a868:	4607      	mov	r7, r0
 800a86a:	688e      	ldr	r6, [r1, #8]
 800a86c:	ea26 76e6 	bic.w	r6, r6, r6, asr #31
 800a870:	f106 000b 	add.w	r0, r6, #11
 800a874:	f020 0003 	bic.w	r0, r0, #3
 800a878:	f000 fc62 	bl	800b140 <system__secondary_stack__ss_allocate>
 800a87c:	4605      	mov	r5, r0
 800a87e:	2301      	movs	r3, #1
 800a880:	6003      	str	r3, [r0, #0]
 800a882:	68a3      	ldr	r3, [r4, #8]
 800a884:	6043      	str	r3, [r0, #4]
 800a886:	f100 0808 	add.w	r8, r0, #8
 800a88a:	4640      	mov	r0, r8
 800a88c:	f104 010c 	add.w	r1, r4, #12
 800a890:	4632      	mov	r2, r6
 800a892:	f000 f9f3 	bl	800ac7c <memcpy>
 800a896:	f8c7 8000 	str.w	r8, [r7]
 800a89a:	607d      	str	r5, [r7, #4]
 800a89c:	4638      	mov	r0, r7
 800a89e:	e8bd 81f0 	ldmia.w	sp!, {r4, r5, r6, r7, r8, pc}
 800a8a2:	bf00      	nop
 800a8a4:	0801003c 	.word	0x0801003c

0800a8a8 <ada__exceptions__exception_name>:
 800a8a8:	e92d 41f0 	stmdb	sp!, {r4, r5, r6, r7, r8, lr}
 800a8ac:	b921      	cbnz	r1, 800a8b8 <ada__exceptions__exception_name+0x10>
 800a8ae:	4810      	ldr	r0, [pc, #64]	; (800a8f0 <ada__exceptions__exception_name+0x48>)
 800a8b0:	f240 3103 	movw	r1, #771	; 0x303
 800a8b4:	f000 f8ae 	bl	800aa14 <__gnat_rcheck_CE_Explicit_Raise>
 800a8b8:	4606      	mov	r6, r0
 800a8ba:	460f      	mov	r7, r1
 800a8bc:	684d      	ldr	r5, [r1, #4]
 800a8be:	3d01      	subs	r5, #1
 800a8c0:	ea25 78e5 	bic.w	r8, r5, r5, asr #31
 800a8c4:	f108 000b 	add.w	r0, r8, #11
 800a8c8:	f020 0003 	bic.w	r0, r0, #3
 800a8cc:	f000 fc38 	bl	800b140 <system__secondary_stack__ss_allocate>
 800a8d0:	4604      	mov	r4, r0
 800a8d2:	2301      	movs	r3, #1
 800a8d4:	6003      	str	r3, [r0, #0]
 800a8d6:	6045      	str	r5, [r0, #4]
 800a8d8:	f100 0508 	add.w	r5, r0, #8
 800a8dc:	4628      	mov	r0, r5
 800a8de:	68b9      	ldr	r1, [r7, #8]
 800a8e0:	4642      	mov	r2, r8
 800a8e2:	f000 f9cb 	bl	800ac7c <memcpy>
 800a8e6:	6035      	str	r5, [r6, #0]
 800a8e8:	6074      	str	r4, [r6, #4]
 800a8ea:	4630      	mov	r0, r6
 800a8ec:	e8bd 81f0 	ldmia.w	sp!, {r4, r5, r6, r7, r8, pc}
 800a8f0:	0801003c 	.word	0x0801003c

0800a8f4 <ada__exceptions__exception_name__2>:
 800a8f4:	b510      	push	{r4, lr}
 800a8f6:	b082      	sub	sp, #8
 800a8f8:	4604      	mov	r4, r0
 800a8fa:	4668      	mov	r0, sp
 800a8fc:	6809      	ldr	r1, [r1, #0]
 800a8fe:	f7ff ffd3 	bl	800a8a8 <ada__exceptions__exception_name>
 800a902:	9b00      	ldr	r3, [sp, #0]
 800a904:	6023      	str	r3, [r4, #0]
 800a906:	9b01      	ldr	r3, [sp, #4]
 800a908:	6063      	str	r3, [r4, #4]
 800a90a:	4620      	mov	r0, r4
 800a90c:	b002      	add	sp, #8
 800a90e:	bd10      	pop	{r4, pc}

0800a910 <__gnat_raise_constraint_error_msg>:
 800a910:	b570      	push	{r4, r5, r6, lr}
 800a912:	b082      	sub	sp, #8
 800a914:	4606      	mov	r6, r0
 800a916:	460d      	mov	r5, r1
 800a918:	4614      	mov	r4, r2
 800a91a:	9300      	str	r3, [sp, #0]
 800a91c:	4802      	ldr	r0, [pc, #8]	; (800a928 <__gnat_raise_constraint_error_msg+0x18>)
 800a91e:	4631      	mov	r1, r6
 800a920:	462a      	mov	r2, r5
 800a922:	4623      	mov	r3, r4
 800a924:	f000 f848 	bl	800a9b8 <ada__exceptions__raise_with_location_and_msg>
 800a928:	20000278 	.word	0x20000278

0800a92c <ada__exceptions__complete_occurrence>:
 800a92c:	b510      	push	{r4, lr}
 800a92e:	b082      	sub	sp, #8
 800a930:	4604      	mov	r4, r0
 800a932:	f7ff ff53 	bl	800a7dc <ada__exceptions__call_chain>
 800a936:	68a3      	ldr	r3, [r4, #8]
 800a938:	4622      	mov	r2, r4
 800a93a:	f852 0b0c 	ldr.w	r0, [r2], #12
 800a93e:	2101      	movs	r1, #1
 800a940:	9100      	str	r1, [sp, #0]
 800a942:	9301      	str	r3, [sp, #4]
 800a944:	466b      	mov	r3, sp
 800a946:	f000 fc3b 	bl	800b1c0 <__gnat_debug_raise_exception>
 800a94a:	b002      	add	sp, #8
 800a94c:	bd10      	pop	{r4, pc}
 800a94e:	bf00      	nop

0800a950 <ada__exceptions__complete_and_propagate_occurrence>:
 800a950:	b510      	push	{r4, lr}
 800a952:	4604      	mov	r4, r0
 800a954:	f7ff ffea 	bl	800a92c <ada__exceptions__complete_occurrence>
 800a958:	4620      	mov	r0, r4
 800a95a:	f7ff fe6f 	bl	800a63c <ada__exceptions__exception_propagation__propagate_exceptionXn>
 800a95e:	bf00      	nop

0800a960 <__gnat_raise_exception>:
 800a960:	b5f8      	push	{r3, r4, r5, r6, r7, lr}
 800a962:	4605      	mov	r5, r0
 800a964:	4616      	mov	r6, r2
 800a966:	461f      	mov	r7, r3
 800a968:	f7ff fe0a 	bl	800a580 <ada__exceptions__exception_propagation__allocate_occurrenceXn>
 800a96c:	4604      	mov	r4, r0
 800a96e:	4629      	mov	r1, r5
 800a970:	4632      	mov	r2, r6
 800a972:	463b      	mov	r3, r7
 800a974:	f7ff fdba 	bl	800a4ec <ada__exceptions__exception_data__set_exception_msgXn>
 800a978:	4620      	mov	r0, r4
 800a97a:	f7ff ffe9 	bl	800a950 <ada__exceptions__complete_and_propagate_occurrence>
 800a97e:	bf00      	nop

0800a980 <__gnat_raise_program_error_msg>:
 800a980:	b510      	push	{r4, lr}
 800a982:	b082      	sub	sp, #8
 800a984:	4604      	mov	r4, r0
 800a986:	460b      	mov	r3, r1
 800a988:	9200      	str	r2, [sp, #0]
 800a98a:	4803      	ldr	r0, [pc, #12]	; (800a998 <__gnat_raise_program_error_msg+0x18>)
 800a98c:	4621      	mov	r1, r4
 800a98e:	461a      	mov	r2, r3
 800a990:	2300      	movs	r3, #0
 800a992:	f000 f811 	bl	800a9b8 <ada__exceptions__raise_with_location_and_msg>
 800a996:	bf00      	nop
 800a998:	2000025c 	.word	0x2000025c

0800a99c <__gnat_raise_storage_error_msg>:
 800a99c:	b510      	push	{r4, lr}
 800a99e:	b082      	sub	sp, #8
 800a9a0:	4604      	mov	r4, r0
 800a9a2:	460b      	mov	r3, r1
 800a9a4:	9200      	str	r2, [sp, #0]
 800a9a6:	4803      	ldr	r0, [pc, #12]	; (800a9b4 <__gnat_raise_storage_error_msg+0x18>)
 800a9a8:	4621      	mov	r1, r4
 800a9aa:	461a      	mov	r2, r3
 800a9ac:	2300      	movs	r3, #0
 800a9ae:	f000 f803 	bl	800a9b8 <ada__exceptions__raise_with_location_and_msg>
 800a9b2:	bf00      	nop
 800a9b4:	2000020c 	.word	0x2000020c

0800a9b8 <ada__exceptions__raise_with_location_and_msg>:
 800a9b8:	e92d 41f0 	stmdb	sp!, {r4, r5, r6, r7, r8, lr}
 800a9bc:	b082      	sub	sp, #8
 800a9be:	4607      	mov	r7, r0
 800a9c0:	460e      	mov	r6, r1
 800a9c2:	4615      	mov	r5, r2
 800a9c4:	4698      	mov	r8, r3
 800a9c6:	f7ff fddb 	bl	800a580 <ada__exceptions__exception_propagation__allocate_occurrenceXn>
 800a9ca:	4604      	mov	r4, r0
 800a9cc:	f8cd 8000 	str.w	r8, [sp]
 800a9d0:	9b08      	ldr	r3, [sp, #32]
 800a9d2:	9301      	str	r3, [sp, #4]
 800a9d4:	4639      	mov	r1, r7
 800a9d6:	4632      	mov	r2, r6
 800a9d8:	462b      	mov	r3, r5
 800a9da:	f7ff fd33 	bl	800a444 <ada__exceptions__exception_data__set_exception_c_msgXn>
 800a9de:	4620      	mov	r0, r4
 800a9e0:	f7ff ffb6 	bl	800a950 <ada__exceptions__complete_and_propagate_occurrence>

0800a9e4 <__gnat_rcheck_CE_Access_Check>:
 800a9e4:	b508      	push	{r3, lr}
 800a9e6:	2200      	movs	r2, #0
 800a9e8:	4b01      	ldr	r3, [pc, #4]	; (800a9f0 <__gnat_rcheck_CE_Access_Check+0xc>)
 800a9ea:	f7ff ff91 	bl	800a910 <__gnat_raise_constraint_error_msg>
 800a9ee:	bf00      	nop
 800a9f0:	0800fcbc 	.word	0x0800fcbc

0800a9f4 <__gnat_rcheck_CE_Discriminant_Check>:
 800a9f4:	b508      	push	{r3, lr}
 800a9f6:	2200      	movs	r2, #0
 800a9f8:	4b01      	ldr	r3, [pc, #4]	; (800aa00 <__gnat_rcheck_CE_Discriminant_Check+0xc>)
 800a9fa:	f7ff ff89 	bl	800a910 <__gnat_raise_constraint_error_msg>
 800a9fe:	bf00      	nop
 800aa00:	0800fcd0 	.word	0x0800fcd0

0800aa04 <__gnat_rcheck_CE_Divide_By_Zero>:
 800aa04:	b508      	push	{r3, lr}
 800aa06:	2200      	movs	r2, #0
 800aa08:	4b01      	ldr	r3, [pc, #4]	; (800aa10 <__gnat_rcheck_CE_Divide_By_Zero+0xc>)
 800aa0a:	f7ff ff81 	bl	800a910 <__gnat_raise_constraint_error_msg>
 800aa0e:	bf00      	nop
 800aa10:	0800fcec 	.word	0x0800fcec

0800aa14 <__gnat_rcheck_CE_Explicit_Raise>:
 800aa14:	b508      	push	{r3, lr}
 800aa16:	2200      	movs	r2, #0
 800aa18:	4b01      	ldr	r3, [pc, #4]	; (800aa20 <__gnat_rcheck_CE_Explicit_Raise+0xc>)
 800aa1a:	f7ff ff79 	bl	800a910 <__gnat_raise_constraint_error_msg>
 800aa1e:	bf00      	nop
 800aa20:	0800fcfc 	.word	0x0800fcfc

0800aa24 <__gnat_rcheck_CE_Index_Check>:
 800aa24:	b508      	push	{r3, lr}
 800aa26:	2200      	movs	r2, #0
 800aa28:	4b01      	ldr	r3, [pc, #4]	; (800aa30 <__gnat_rcheck_CE_Index_Check+0xc>)
 800aa2a:	f7ff ff71 	bl	800a910 <__gnat_raise_constraint_error_msg>
 800aa2e:	bf00      	nop
 800aa30:	0800fd0c 	.word	0x0800fd0c

0800aa34 <__gnat_rcheck_CE_Invalid_Data>:
 800aa34:	b508      	push	{r3, lr}
 800aa36:	2200      	movs	r2, #0
 800aa38:	4b01      	ldr	r3, [pc, #4]	; (800aa40 <__gnat_rcheck_CE_Invalid_Data+0xc>)
 800aa3a:	f7ff ff69 	bl	800a910 <__gnat_raise_constraint_error_msg>
 800aa3e:	bf00      	nop
 800aa40:	0800fd20 	.word	0x0800fd20

0800aa44 <__gnat_rcheck_CE_Overflow_Check>:
 800aa44:	b508      	push	{r3, lr}
 800aa46:	2200      	movs	r2, #0
 800aa48:	4b01      	ldr	r3, [pc, #4]	; (800aa50 <__gnat_rcheck_CE_Overflow_Check+0xc>)
 800aa4a:	f7ff ff61 	bl	800a910 <__gnat_raise_constraint_error_msg>
 800aa4e:	bf00      	nop
 800aa50:	0800fd30 	.word	0x0800fd30

0800aa54 <__gnat_rcheck_CE_Range_Check>:
 800aa54:	b508      	push	{r3, lr}
 800aa56:	2200      	movs	r2, #0
 800aa58:	4b01      	ldr	r3, [pc, #4]	; (800aa60 <__gnat_rcheck_CE_Range_Check+0xc>)
 800aa5a:	f7ff ff59 	bl	800a910 <__gnat_raise_constraint_error_msg>
 800aa5e:	bf00      	nop
 800aa60:	0800fd48 	.word	0x0800fd48

0800aa64 <__gnat_rcheck_PE_Explicit_Raise>:
 800aa64:	b508      	push	{r3, lr}
 800aa66:	4a01      	ldr	r2, [pc, #4]	; (800aa6c <__gnat_rcheck_PE_Explicit_Raise+0x8>)
 800aa68:	f7ff ff8a 	bl	800a980 <__gnat_raise_program_error_msg>
 800aa6c:	0800fd5c 	.word	0x0800fd5c

0800aa70 <__gnat_rcheck_SE_Explicit_Raise>:
 800aa70:	b508      	push	{r3, lr}
 800aa72:	4a01      	ldr	r2, [pc, #4]	; (800aa78 <__gnat_rcheck_SE_Explicit_Raise+0x8>)
 800aa74:	f7ff ff92 	bl	800a99c <__gnat_raise_storage_error_msg>
 800aa78:	0800fd6c 	.word	0x0800fd6c

0800aa7c <ada__exceptions__reraise_occurrence>:
 800aa7c:	b508      	push	{r3, lr}
 800aa7e:	6803      	ldr	r3, [r0, #0]
 800aa80:	b10b      	cbz	r3, 800aa86 <ada__exceptions__reraise_occurrence+0xa>
 800aa82:	f000 f801 	bl	800aa88 <ada__exceptions__reraise_occurrence_always>
 800aa86:	bd08      	pop	{r3, pc}

0800aa88 <ada__exceptions__reraise_occurrence_always>:
 800aa88:	b508      	push	{r3, lr}
 800aa8a:	f000 f801 	bl	800aa90 <ada__exceptions__reraise_occurrence_no_defer>
 800aa8e:	bf00      	nop

0800aa90 <ada__exceptions__reraise_occurrence_no_defer>:
 800aa90:	b570      	push	{r4, r5, r6, lr}
 800aa92:	4606      	mov	r6, r0
 800aa94:	f7ff fd74 	bl	800a580 <ada__exceptions__exception_propagation__allocate_occurrenceXn>
 800aa98:	4604      	mov	r4, r0
 800aa9a:	6845      	ldr	r5, [r0, #4]
 800aa9c:	4631      	mov	r1, r6
 800aa9e:	f000 f805 	bl	800aaac <ada__exceptions__save_occurrence>
 800aaa2:	6065      	str	r5, [r4, #4]
 800aaa4:	4620      	mov	r0, r4
 800aaa6:	f7ff ff53 	bl	800a950 <ada__exceptions__complete_and_propagate_occurrence>
 800aaaa:	bf00      	nop

0800aaac <ada__exceptions__save_occurrence>:
 800aaac:	b538      	push	{r3, r4, r5, lr}
 800aaae:	4604      	mov	r4, r0
 800aab0:	460d      	mov	r5, r1
 800aab2:	680b      	ldr	r3, [r1, #0]
 800aab4:	6003      	str	r3, [r0, #0]
 800aab6:	2300      	movs	r3, #0
 800aab8:	6043      	str	r3, [r0, #4]
 800aaba:	688a      	ldr	r2, [r1, #8]
 800aabc:	6082      	str	r2, [r0, #8]
 800aabe:	f8d1 30dc 	ldr.w	r3, [r1, #220]	; 0xdc
 800aac2:	f8c0 30dc 	str.w	r3, [r0, #220]	; 0xdc
 800aac6:	f8d1 30d8 	ldr.w	r3, [r1, #216]	; 0xd8
 800aaca:	f8c0 30d8 	str.w	r3, [r0, #216]	; 0xd8
 800aace:	300c      	adds	r0, #12
 800aad0:	310c      	adds	r1, #12
 800aad2:	ea22 72e2 	bic.w	r2, r2, r2, asr #31
 800aad6:	f001 f923 	bl	800bd20 <memmove>
 800aada:	f8d4 20dc 	ldr.w	r2, [r4, #220]	; 0xdc
 800aade:	ea22 72e2 	bic.w	r2, r2, r2, asr #31
 800aae2:	f104 00e0 	add.w	r0, r4, #224	; 0xe0
 800aae6:	f105 01e0 	add.w	r1, r5, #224	; 0xe0
 800aaea:	0092      	lsls	r2, r2, #2
 800aaec:	f001 f918 	bl	800bd20 <memmove>
 800aaf0:	bd38      	pop	{r3, r4, r5, pc}
 800aaf2:	bf00      	nop

0800aaf4 <__gnat_to_stderr_char>:
 800aaf4:	b508      	push	{r3, lr}
 800aaf6:	f001 f909 	bl	800bd0c <put_char_stderr>
 800aafa:	bd08      	pop	{r3, pc}

0800aafc <__gnat_to_stderr>:
 800aafc:	b570      	push	{r4, r5, r6, lr}
 800aafe:	680d      	ldr	r5, [r1, #0]
 800ab00:	684e      	ldr	r6, [r1, #4]
 800ab02:	42b5      	cmp	r5, r6
 800ab04:	dc09      	bgt.n	800ab1a <__gnat_to_stderr+0x1e>
 800ab06:	1e6c      	subs	r4, r5, #1
 800ab08:	1b45      	subs	r5, r0, r5
 800ab0a:	3401      	adds	r4, #1
 800ab0c:	5d28      	ldrb	r0, [r5, r4]
 800ab0e:	280d      	cmp	r0, #13
 800ab10:	d001      	beq.n	800ab16 <__gnat_to_stderr+0x1a>
 800ab12:	f7ff ffef 	bl	800aaf4 <__gnat_to_stderr_char>
 800ab16:	42a6      	cmp	r6, r4
 800ab18:	d1f7      	bne.n	800ab0a <__gnat_to_stderr+0xe>
 800ab1a:	bd70      	pop	{r4, r5, r6, pc}

0800ab1c <ada__exceptions__code_address_for_zzz>:
 800ab1c:	4800      	ldr	r0, [pc, #0]	; (800ab20 <ada__exceptions__code_address_for_zzz+0x4>)
 800ab1e:	4770      	bx	lr
 800ab20:	0800ab1c 	.word	0x0800ab1c

0800ab24 <ada__finalization__adjust>:
 800ab24:	4770      	bx	lr
 800ab26:	bf00      	nop

0800ab28 <ada__finalization__initialize>:
 800ab28:	4770      	bx	lr
 800ab2a:	bf00      	nop

0800ab2c <ada__finalization__finalize>:
 800ab2c:	4770      	bx	lr
 800ab2e:	bf00      	nop

0800ab30 <ada__finalization___size__3>:
 800ab30:	2020      	movs	r0, #32
 800ab32:	2100      	movs	r1, #0
 800ab34:	4770      	bx	lr
 800ab36:	bf00      	nop

0800ab38 <ada__finalization___assign__3>:
 800ab38:	4770      	bx	lr
 800ab3a:	bf00      	nop

0800ab3c <ada__finalization__controlledDA__2>:
 800ab3c:	4770      	bx	lr
 800ab3e:	bf00      	nop

0800ab40 <ada__finalization__controlledDF__2>:
 800ab40:	4770      	bx	lr
 800ab42:	bf00      	nop

0800ab44 <ada__finalization__initialize__2>:
 800ab44:	4770      	bx	lr
 800ab46:	bf00      	nop

0800ab48 <ada__finalization__finalize__2>:
 800ab48:	4770      	bx	lr
 800ab4a:	bf00      	nop

0800ab4c <ada__finalization___size__4>:
 800ab4c:	2020      	movs	r0, #32
 800ab4e:	2100      	movs	r1, #0
 800ab50:	4770      	bx	lr
 800ab52:	bf00      	nop

0800ab54 <ada__finalization__limited_controlledDF__2>:
 800ab54:	4770      	bx	lr
 800ab56:	bf00      	nop

0800ab58 <ada__finalization__controlledSR__2>:
 800ab58:	f000 b8b8 	b.w	800accc <system__finalization_root__root_controlledSR>

0800ab5c <ada__finalization__controlledSW__2>:
 800ab5c:	f000 b8b8 	b.w	800acd0 <system__finalization_root__root_controlledSW>

0800ab60 <ada__finalization__controlledSO__2>:
 800ab60:	f000 b8b6 	b.w	800acd0 <system__finalization_root__root_controlledSW>

0800ab64 <ada__finalization__Oeq__3>:
 800ab64:	f000 b8b8 	b.w	800acd8 <system__finalization_root__Oeq>

0800ab68 <ada__finalization___elabs>:
 800ab68:	b508      	push	{r3, lr}
 800ab6a:	4804      	ldr	r0, [pc, #16]	; (800ab7c <ada__finalization___elabs+0x14>)
 800ab6c:	f7ff f844 	bl	8009bf8 <ada__tags__register_tag>
 800ab70:	4803      	ldr	r0, [pc, #12]	; (800ab80 <ada__finalization___elabs+0x18>)
 800ab72:	e8bd 4008 	ldmia.w	sp!, {r3, lr}
 800ab76:	f7ff b83f 	b.w	8009bf8 <ada__tags__register_tag>
 800ab7a:	bf00      	nop
 800ab7c:	08010114 	.word	0x08010114
 800ab80:	080101fc 	.word	0x080101fc

0800ab84 <system__standard_library__adafinal>:
 800ab84:	4b04      	ldr	r3, [pc, #16]	; (800ab98 <system__standard_library__adafinal+0x14>)
 800ab86:	781a      	ldrb	r2, [r3, #0]
 800ab88:	b102      	cbz	r2, 800ab8c <system__standard_library__adafinal+0x8>
 800ab8a:	4770      	bx	lr
 800ab8c:	4a03      	ldr	r2, [pc, #12]	; (800ab9c <system__standard_library__adafinal+0x18>)
 800ab8e:	2101      	movs	r1, #1
 800ab90:	6812      	ldr	r2, [r2, #0]
 800ab92:	7019      	strb	r1, [r3, #0]
 800ab94:	4710      	bx	r2
 800ab96:	bf00      	nop
 800ab98:	20000240 	.word	0x20000240
 800ab9c:	200001a8 	.word	0x200001a8

0800aba0 <system__exception_table__register.part.1>:
 800aba0:	b4d0      	push	{r4, r6, r7}
 800aba2:	6883      	ldr	r3, [r0, #8]
 800aba4:	f103 4400 	add.w	r4, r3, #2147483648	; 0x80000000
 800aba8:	2100      	movs	r1, #0
 800abaa:	3c01      	subs	r4, #1
 800abac:	e003      	b.n	800abb6 <system__exception_table__register.part.1+0x16>
 800abae:	42a3      	cmp	r3, r4
 800abb0:	ea81 0102 	eor.w	r1, r1, r2
 800abb4:	d003      	beq.n	800abbe <system__exception_table__register.part.1+0x1e>
 800abb6:	781a      	ldrb	r2, [r3, #0]
 800abb8:	3301      	adds	r3, #1
 800abba:	2a00      	cmp	r2, #0
 800abbc:	d1f7      	bne.n	800abae <system__exception_table__register.part.1+0xe>
 800abbe:	4e0e      	ldr	r6, [pc, #56]	; (800abf8 <system__exception_table__register.part.1+0x58>)
 800abc0:	4c0e      	ldr	r4, [pc, #56]	; (800abfc <system__exception_table__register.part.1+0x5c>)
 800abc2:	fba1 6706 	umull	r6, r7, r1, r6
 800abc6:	1bcb      	subs	r3, r1, r7
 800abc8:	eb07 0353 	add.w	r3, r7, r3, lsr #1
 800abcc:	095b      	lsrs	r3, r3, #5
 800abce:	eb03 02c3 	add.w	r2, r3, r3, lsl #3
 800abd2:	eb03 0382 	add.w	r3, r3, r2, lsl #2
 800abd6:	1acb      	subs	r3, r1, r3
 800abd8:	3301      	adds	r3, #1
 800abda:	b2db      	uxtb	r3, r3
 800abdc:	f103 4380 	add.w	r3, r3, #1073741824	; 0x40000000
 800abe0:	3b01      	subs	r3, #1
 800abe2:	f854 2023 	ldr.w	r2, [r4, r3, lsl #2]
 800abe6:	2a00      	cmp	r2, #0
 800abe8:	bf08      	it	eq
 800abea:	4602      	moveq	r2, r0
 800abec:	60c2      	str	r2, [r0, #12]
 800abee:	f844 0023 	str.w	r0, [r4, r3, lsl #2]
 800abf2:	bcd0      	pop	{r4, r6, r7}
 800abf4:	4770      	bx	lr
 800abf6:	bf00      	nop
 800abf8:	bacf914d 	.word	0xbacf914d
 800abfc:	20004084 	.word	0x20004084

0800ac00 <system__exception_table___elabb>:
 800ac00:	b508      	push	{r3, lr}
 800ac02:	4b17      	ldr	r3, [pc, #92]	; (800ac60 <system__exception_table___elabb+0x60>)
 800ac04:	2100      	movs	r1, #0
 800ac06:	f103 0294 	add.w	r2, r3, #148	; 0x94
 800ac0a:	f843 1b04 	str.w	r1, [r3], #4
 800ac0e:	4293      	cmp	r3, r2
 800ac10:	d1fb      	bne.n	800ac0a <system__exception_table___elabb+0xa>
 800ac12:	4814      	ldr	r0, [pc, #80]	; (800ac64 <system__exception_table___elabb+0x64>)
 800ac14:	68c3      	ldr	r3, [r0, #12]
 800ac16:	b19b      	cbz	r3, 800ac40 <system__exception_table___elabb+0x40>
 800ac18:	4813      	ldr	r0, [pc, #76]	; (800ac68 <system__exception_table___elabb+0x68>)
 800ac1a:	68c3      	ldr	r3, [r0, #12]
 800ac1c:	b19b      	cbz	r3, 800ac46 <system__exception_table___elabb+0x46>
 800ac1e:	4813      	ldr	r0, [pc, #76]	; (800ac6c <system__exception_table___elabb+0x6c>)
 800ac20:	68c3      	ldr	r3, [r0, #12]
 800ac22:	b19b      	cbz	r3, 800ac4c <system__exception_table___elabb+0x4c>
 800ac24:	4812      	ldr	r0, [pc, #72]	; (800ac70 <system__exception_table___elabb+0x70>)
 800ac26:	68c3      	ldr	r3, [r0, #12]
 800ac28:	b19b      	cbz	r3, 800ac52 <system__exception_table___elabb+0x52>
 800ac2a:	4812      	ldr	r0, [pc, #72]	; (800ac74 <system__exception_table___elabb+0x74>)
 800ac2c:	68c3      	ldr	r3, [r0, #12]
 800ac2e:	b19b      	cbz	r3, 800ac58 <system__exception_table___elabb+0x58>
 800ac30:	4811      	ldr	r0, [pc, #68]	; (800ac78 <system__exception_table___elabb+0x78>)
 800ac32:	68c3      	ldr	r3, [r0, #12]
 800ac34:	b103      	cbz	r3, 800ac38 <system__exception_table___elabb+0x38>
 800ac36:	bd08      	pop	{r3, pc}
 800ac38:	e8bd 4008 	ldmia.w	sp!, {r3, lr}
 800ac3c:	f7ff bfb0 	b.w	800aba0 <system__exception_table__register.part.1>
 800ac40:	f7ff ffae 	bl	800aba0 <system__exception_table__register.part.1>
 800ac44:	e7e8      	b.n	800ac18 <system__exception_table___elabb+0x18>
 800ac46:	f7ff ffab 	bl	800aba0 <system__exception_table__register.part.1>
 800ac4a:	e7e8      	b.n	800ac1e <system__exception_table___elabb+0x1e>
 800ac4c:	f7ff ffa8 	bl	800aba0 <system__exception_table__register.part.1>
 800ac50:	e7e8      	b.n	800ac24 <system__exception_table___elabb+0x24>
 800ac52:	f7ff ffa5 	bl	800aba0 <system__exception_table__register.part.1>
 800ac56:	e7e8      	b.n	800ac2a <system__exception_table___elabb+0x2a>
 800ac58:	f7ff ffa2 	bl	800aba0 <system__exception_table__register.part.1>
 800ac5c:	e7e8      	b.n	800ac30 <system__exception_table___elabb+0x30>
 800ac5e:	bf00      	nop
 800ac60:	20004084 	.word	0x20004084
 800ac64:	20000244 	.word	0x20000244
 800ac68:	200001f4 	.word	0x200001f4
 800ac6c:	2000020c 	.word	0x2000020c
 800ac70:	2000025c 	.word	0x2000025c
 800ac74:	20000228 	.word	0x20000228
 800ac78:	20000278 	.word	0x20000278

0800ac7c <memcpy>:
 800ac7c:	b470      	push	{r4, r5, r6}
 800ac7e:	ea40 0301 	orr.w	r3, r0, r1
 800ac82:	079b      	lsls	r3, r3, #30
 800ac84:	d11b      	bne.n	800acbe <memcpy+0x42>
 800ac86:	2a03      	cmp	r2, #3
 800ac88:	d919      	bls.n	800acbe <memcpy+0x42>
 800ac8a:	1f16      	subs	r6, r2, #4
 800ac8c:	f026 0603 	bic.w	r6, r6, #3
 800ac90:	1d0b      	adds	r3, r1, #4
 800ac92:	4433      	add	r3, r6
 800ac94:	4604      	mov	r4, r0
 800ac96:	f851 5b04 	ldr.w	r5, [r1], #4
 800ac9a:	f844 5b04 	str.w	r5, [r4], #4
 800ac9e:	4299      	cmp	r1, r3
 800aca0:	d1f9      	bne.n	800ac96 <memcpy+0x1a>
 800aca2:	1d01      	adds	r1, r0, #4
 800aca4:	f002 0203 	and.w	r2, r2, #3
 800aca8:	4431      	add	r1, r6
 800acaa:	b132      	cbz	r2, 800acba <memcpy+0x3e>
 800acac:	441a      	add	r2, r3
 800acae:	f813 4b01 	ldrb.w	r4, [r3], #1
 800acb2:	f801 4b01 	strb.w	r4, [r1], #1
 800acb6:	4293      	cmp	r3, r2
 800acb8:	d1f9      	bne.n	800acae <memcpy+0x32>
 800acba:	bc70      	pop	{r4, r5, r6}
 800acbc:	4770      	bx	lr
 800acbe:	460b      	mov	r3, r1
 800acc0:	4601      	mov	r1, r0
 800acc2:	e7f2      	b.n	800acaa <memcpy+0x2e>

0800acc4 <system__finalization_root___size>:
 800acc4:	2020      	movs	r0, #32
 800acc6:	2100      	movs	r1, #0
 800acc8:	4770      	bx	lr
 800acca:	bf00      	nop

0800accc <system__finalization_root__root_controlledSR>:
 800accc:	4770      	bx	lr
 800acce:	bf00      	nop

0800acd0 <system__finalization_root__root_controlledSW>:
 800acd0:	4770      	bx	lr
 800acd2:	bf00      	nop

0800acd4 <system__finalization_root__root_controlledSO>:
 800acd4:	4770      	bx	lr
 800acd6:	bf00      	nop

0800acd8 <system__finalization_root__Oeq>:
 800acd8:	2001      	movs	r0, #1
 800acda:	4770      	bx	lr

0800acdc <system__finalization_root___assign>:
 800acdc:	4770      	bx	lr
 800acde:	bf00      	nop

0800ace0 <system__finalization_root__root_controlledDA>:
 800ace0:	4770      	bx	lr
 800ace2:	bf00      	nop

0800ace4 <system__finalization_root__root_controlledDF>:
 800ace4:	4770      	bx	lr
 800ace6:	bf00      	nop

0800ace8 <system__finalization_root__adjust>:
 800ace8:	b508      	push	{r3, lr}
 800acea:	4802      	ldr	r0, [pc, #8]	; (800acf4 <system__finalization_root__adjust+0xc>)
 800acec:	2125      	movs	r1, #37	; 0x25
 800acee:	f7ff feb9 	bl	800aa64 <__gnat_rcheck_PE_Explicit_Raise>
 800acf2:	bf00      	nop
 800acf4:	0801029c 	.word	0x0801029c

0800acf8 <system__finalization_root__finalize>:
 800acf8:	b508      	push	{r3, lr}
 800acfa:	4802      	ldr	r0, [pc, #8]	; (800ad04 <system__finalization_root__finalize+0xc>)
 800acfc:	212e      	movs	r1, #46	; 0x2e
 800acfe:	f7ff feb1 	bl	800aa64 <__gnat_rcheck_PE_Explicit_Raise>
 800ad02:	bf00      	nop
 800ad04:	0801029c 	.word	0x0801029c

0800ad08 <system__finalization_root__initialize>:
 800ad08:	b508      	push	{r3, lr}
 800ad0a:	4802      	ldr	r0, [pc, #8]	; (800ad14 <system__finalization_root__initialize+0xc>)
 800ad0c:	2137      	movs	r1, #55	; 0x37
 800ad0e:	f7ff fea9 	bl	800aa64 <__gnat_rcheck_PE_Explicit_Raise>
 800ad12:	bf00      	nop
 800ad14:	0801029c 	.word	0x0801029c

0800ad18 <system__finalization_root___elabs>:
 800ad18:	4801      	ldr	r0, [pc, #4]	; (800ad20 <system__finalization_root___elabs+0x8>)
 800ad1a:	f7fe bf6d 	b.w	8009bf8 <ada__tags__register_tag>
 800ad1e:	bf00      	nop
 800ad20:	080102ec 	.word	0x080102ec

0800ad24 <__gnat_last_chance_handler>:
 800ad24:	e92d 47f0 	stmdb	sp!, {r4, r5, r6, r7, r8, r9, sl, lr}
 800ad28:	b08a      	sub	sp, #40	; 0x28
 800ad2a:	af00      	add	r7, sp, #0
 800ad2c:	4604      	mov	r4, r0
 800ad2e:	f000 fa25 	bl	800b17c <system__secondary_stack__ss_mark>
 800ad32:	4680      	mov	r8, r0
 800ad34:	484e      	ldr	r0, [pc, #312]	; (800ae70 <__gnat_last_chance_handler+0x14c>)
 800ad36:	f100 0118 	add.w	r1, r0, #24
 800ad3a:	f000 ffe9 	bl	800bd10 <system__io__put_line>
 800ad3e:	4638      	mov	r0, r7
 800ad40:	4621      	mov	r1, r4
 800ad42:	46ea      	mov	sl, sp
 800ad44:	f7ff fdd6 	bl	800a8f4 <ada__exceptions__exception_name__2>
 800ad48:	687a      	ldr	r2, [r7, #4]
 800ad4a:	4d4a      	ldr	r5, [pc, #296]	; (800ae74 <__gnat_last_chance_handler+0x150>)
 800ad4c:	6816      	ldr	r6, [r2, #0]
 800ad4e:	6853      	ldr	r3, [r2, #4]
 800ad50:	f8d7 c000 	ldr.w	ip, [r7]
 800ad54:	42b3      	cmp	r3, r6
 800ad56:	bfa6      	itte	ge
 800ad58:	1b9e      	subge	r6, r3, r6
 800ad5a:	3601      	addge	r6, #1
 800ad5c:	2600      	movlt	r6, #0
 800ad5e:	3619      	adds	r6, #25
 800ad60:	cd0f      	ldmia	r5!, {r0, r1, r2, r3}
 800ad62:	ea26 7ee6 	bic.w	lr, r6, r6, asr #31
 800ad66:	f10e 0e07 	add.w	lr, lr, #7
 800ad6a:	f02e 0e07 	bic.w	lr, lr, #7
 800ad6e:	ebad 0d0e 	sub.w	sp, sp, lr
 800ad72:	9000      	str	r0, [sp, #0]
 800ad74:	9101      	str	r1, [sp, #4]
 800ad76:	9202      	str	r2, [sp, #8]
 800ad78:	9303      	str	r3, [sp, #12]
 800ad7a:	cd03      	ldmia	r5!, {r0, r1}
 800ad7c:	9004      	str	r0, [sp, #16]
 800ad7e:	9105      	str	r1, [sp, #20]
 800ad80:	782b      	ldrb	r3, [r5, #0]
 800ad82:	f88d 3018 	strb.w	r3, [sp, #24]
 800ad86:	2e19      	cmp	r6, #25
 800ad88:	4632      	mov	r2, r6
 800ad8a:	bfb8      	it	lt
 800ad8c:	2219      	movlt	r2, #25
 800ad8e:	4661      	mov	r1, ip
 800ad90:	3a19      	subs	r2, #25
 800ad92:	f10d 0019 	add.w	r0, sp, #25
 800ad96:	f7ff ff71 	bl	800ac7c <memcpy>
 800ad9a:	2301      	movs	r3, #1
 800ad9c:	4668      	mov	r0, sp
 800ad9e:	f107 010c 	add.w	r1, r7, #12
 800ada2:	613e      	str	r6, [r7, #16]
 800ada4:	60fb      	str	r3, [r7, #12]
 800ada6:	f000 ffb3 	bl	800bd10 <system__io__put_line>
 800adaa:	4638      	mov	r0, r7
 800adac:	46d5      	mov	sp, sl
 800adae:	4621      	mov	r1, r4
 800adb0:	f7ff fd50 	bl	800a854 <ada__exceptions__exception_message>
 800adb4:	687a      	ldr	r2, [r7, #4]
 800adb6:	683e      	ldr	r6, [r7, #0]
 800adb8:	6815      	ldr	r5, [r2, #0]
 800adba:	6853      	ldr	r3, [r2, #4]
 800adbc:	42ab      	cmp	r3, r5
 800adbe:	bfa6      	itte	ge
 800adc0:	1b5d      	subge	r5, r3, r5
 800adc2:	3501      	addge	r5, #1
 800adc4:	2500      	movlt	r5, #0
 800adc6:	3509      	adds	r5, #9
 800adc8:	4b2b      	ldr	r3, [pc, #172]	; (800ae78 <__gnat_last_chance_handler+0x154>)
 800adca:	ea25 72e5 	bic.w	r2, r5, r5, asr #31
 800adce:	cb03      	ldmia	r3!, {r0, r1}
 800add0:	3207      	adds	r2, #7
 800add2:	f022 0207 	bic.w	r2, r2, #7
 800add6:	ebad 0d02 	sub.w	sp, sp, r2
 800adda:	2d09      	cmp	r5, #9
 800addc:	781b      	ldrb	r3, [r3, #0]
 800adde:	9000      	str	r0, [sp, #0]
 800ade0:	462a      	mov	r2, r5
 800ade2:	bfb8      	it	lt
 800ade4:	2209      	movlt	r2, #9
 800ade6:	9101      	str	r1, [sp, #4]
 800ade8:	f88d 3008 	strb.w	r3, [sp, #8]
 800adec:	4631      	mov	r1, r6
 800adee:	f10d 0009 	add.w	r0, sp, #9
 800adf2:	3a09      	subs	r2, #9
 800adf4:	f7ff ff42 	bl	800ac7c <memcpy>
 800adf8:	2301      	movs	r3, #1
 800adfa:	4668      	mov	r0, sp
 800adfc:	f107 0114 	add.w	r1, r7, #20
 800ae00:	61bd      	str	r5, [r7, #24]
 800ae02:	617b      	str	r3, [r7, #20]
 800ae04:	f000 ff84 	bl	800bd10 <system__io__put_line>
 800ae08:	481c      	ldr	r0, [pc, #112]	; (800ae7c <__gnat_last_chance_handler+0x158>)
 800ae0a:	46d5      	mov	sp, sl
 800ae0c:	f100 0120 	add.w	r1, r0, #32
 800ae10:	f000 ff7e 	bl	800bd10 <system__io__put_line>
 800ae14:	f8d4 60dc 	ldr.w	r6, [r4, #220]	; 0xdc
 800ae18:	2e00      	cmp	r6, #0
 800ae1a:	dd14      	ble.n	800ae46 <__gnat_last_chance_handler+0x122>
 800ae1c:	34e0      	adds	r4, #224	; 0xe0
 800ae1e:	2500      	movs	r5, #0
 800ae20:	f107 001c 	add.w	r0, r7, #28
 800ae24:	6821      	ldr	r1, [r4, #0]
 800ae26:	3501      	adds	r5, #1
 800ae28:	f000 f9b4 	bl	800b194 <gnat__debug_utilities__image_c>
 800ae2c:	f107 001c 	add.w	r0, r7, #28
 800ae30:	4913      	ldr	r1, [pc, #76]	; (800ae80 <__gnat_last_chance_handler+0x15c>)
 800ae32:	f000 ff5d 	bl	800bcf0 <system__io__put__3>
 800ae36:	4813      	ldr	r0, [pc, #76]	; (800ae84 <__gnat_last_chance_handler+0x160>)
 800ae38:	1d01      	adds	r1, r0, #4
 800ae3a:	f000 ff59 	bl	800bcf0 <system__io__put__3>
 800ae3e:	42ae      	cmp	r6, r5
 800ae40:	f104 0404 	add.w	r4, r4, #4
 800ae44:	d1ec      	bne.n	800ae20 <__gnat_last_chance_handler+0xfc>
 800ae46:	2001      	movs	r0, #1
 800ae48:	f000 ff3a 	bl	800bcc0 <system__io__new_line>
 800ae4c:	f7fd ffdc 	bl	8008e08 <system__bb__threads__sleep>
 800ae50:	480d      	ldr	r0, [pc, #52]	; (800ae88 <__gnat_last_chance_handler+0x164>)
 800ae52:	213e      	movs	r1, #62	; 0x3e
 800ae54:	f7ff fe06 	bl	800aa64 <__gnat_rcheck_PE_Explicit_Raise>
 800ae58:	4604      	mov	r4, r0
 800ae5a:	4640      	mov	r0, r8
 800ae5c:	f000 f994 	bl	800b188 <system__secondary_stack__ss_release>
 800ae60:	4620      	mov	r0, r4
 800ae62:	f001 fe55 	bl	800cb10 <_Unwind_Resume>
 800ae66:	4604      	mov	r4, r0
 800ae68:	46d5      	mov	sp, sl
 800ae6a:	e7f6      	b.n	800ae5a <__gnat_last_chance_handler+0x136>
 800ae6c:	e7fb      	b.n	800ae66 <__gnat_last_chance_handler+0x142>
 800ae6e:	bf00      	nop
 800ae70:	08010350 	.word	0x08010350
 800ae74:	08010370 	.word	0x08010370
 800ae78:	0801038c 	.word	0x0801038c
 800ae7c:	08010398 	.word	0x08010398
 800ae80:	080103c0 	.word	0x080103c0
 800ae84:	080103c8 	.word	0x080103c8
 800ae88:	080103d4 	.word	0x080103d4

0800ae8c <ada__streams___size>:
 800ae8c:	2020      	movs	r0, #32
 800ae8e:	2100      	movs	r1, #0
 800ae90:	4770      	bx	lr
 800ae92:	bf00      	nop

0800ae94 <ada__streams__root_stream_typeDF>:
 800ae94:	4770      	bx	lr
 800ae96:	bf00      	nop

0800ae98 <ada__streams___elabs>:
 800ae98:	4801      	ldr	r0, [pc, #4]	; (800aea0 <ada__streams___elabs+0x8>)
 800ae9a:	f7fe bead 	b.w	8009bf8 <ada__tags__register_tag>
 800ae9e:	bf00      	nop
 800aea0:	08010470 	.word	0x08010470

0800aea4 <__gnat_malloc>:
 800aea4:	b510      	push	{r4, lr}
 800aea6:	1c43      	adds	r3, r0, #1
 800aea8:	d010      	beq.n	800aecc <__gnat_malloc+0x28>
 800aeaa:	4b0e      	ldr	r3, [pc, #56]	; (800aee4 <__gnat_malloc+0x40>)
 800aeac:	2800      	cmp	r0, #0
 800aeae:	bf14      	ite	ne
 800aeb0:	4604      	movne	r4, r0
 800aeb2:	2401      	moveq	r4, #1
 800aeb4:	681b      	ldr	r3, [r3, #0]
 800aeb6:	4798      	blx	r3
 800aeb8:	4620      	mov	r0, r4
 800aeba:	f000 f863 	bl	800af84 <malloc>
 800aebe:	4b0a      	ldr	r3, [pc, #40]	; (800aee8 <__gnat_malloc+0x44>)
 800aec0:	4604      	mov	r4, r0
 800aec2:	681b      	ldr	r3, [r3, #0]
 800aec4:	4798      	blx	r3
 800aec6:	b13c      	cbz	r4, 800aed8 <__gnat_malloc+0x34>
 800aec8:	4620      	mov	r0, r4
 800aeca:	bd10      	pop	{r4, pc}
 800aecc:	4a07      	ldr	r2, [pc, #28]	; (800aeec <__gnat_malloc+0x48>)
 800aece:	4808      	ldr	r0, [pc, #32]	; (800aef0 <__gnat_malloc+0x4c>)
 800aed0:	f102 0310 	add.w	r3, r2, #16
 800aed4:	f7ff fd44 	bl	800a960 <__gnat_raise_exception>
 800aed8:	4a06      	ldr	r2, [pc, #24]	; (800aef4 <__gnat_malloc+0x50>)
 800aeda:	4805      	ldr	r0, [pc, #20]	; (800aef0 <__gnat_malloc+0x4c>)
 800aedc:	f102 0310 	add.w	r3, r2, #16
 800aee0:	f7ff fd3e 	bl	800a960 <__gnat_raise_exception>
 800aee4:	200001a4 	.word	0x200001a4
 800aee8:	2000019c 	.word	0x2000019c
 800aeec:	08010478 	.word	0x08010478
 800aef0:	2000020c 	.word	0x2000020c
 800aef4:	08010490 	.word	0x08010490

0800aef8 <__gnat_free>:
 800aef8:	b510      	push	{r4, lr}
 800aefa:	4b06      	ldr	r3, [pc, #24]	; (800af14 <__gnat_free+0x1c>)
 800aefc:	4604      	mov	r4, r0
 800aefe:	681b      	ldr	r3, [r3, #0]
 800af00:	4798      	blx	r3
 800af02:	4620      	mov	r0, r4
 800af04:	f000 f8aa 	bl	800b05c <free>
 800af08:	4b03      	ldr	r3, [pc, #12]	; (800af18 <__gnat_free+0x20>)
 800af0a:	e8bd 4010 	ldmia.w	sp!, {r4, lr}
 800af0e:	681b      	ldr	r3, [r3, #0]
 800af10:	4718      	bx	r3
 800af12:	bf00      	nop
 800af14:	200001a4 	.word	0x200001a4
 800af18:	2000019c 	.word	0x2000019c

0800af1c <system__parameters__adjust_storage_size>:
 800af1c:	f1b0 4f00 	cmp.w	r0, #2147483648	; 0x80000000
 800af20:	bf08      	it	eq
 800af22:	f44f 5080 	moveq.w	r0, #4096	; 0x1000
 800af26:	4770      	bx	lr

0800af28 <system__c__malloc__add_free_cell>:
 800af28:	4a15      	ldr	r2, [pc, #84]	; (800af80 <system__c__malloc__add_free_cell+0x58>)
 800af2a:	6811      	ldr	r1, [r2, #0]
 800af2c:	b321      	cbz	r1, 800af78 <system__c__malloc__add_free_cell+0x50>
 800af2e:	b410      	push	{r4}
 800af30:	684b      	ldr	r3, [r1, #4]
 800af32:	6844      	ldr	r4, [r0, #4]
 800af34:	f3c3 031e 	ubfx	r3, r3, #0, #31
 800af38:	f3c4 041e 	ubfx	r4, r4, #0, #31
 800af3c:	429c      	cmp	r4, r3
 800af3e:	d806      	bhi.n	800af4e <system__c__malloc__add_free_cell+0x26>
 800af40:	e012      	b.n	800af68 <system__c__malloc__add_free_cell+0x40>
 800af42:	685a      	ldr	r2, [r3, #4]
 800af44:	f3c2 021e 	ubfx	r2, r2, #0, #31
 800af48:	42a2      	cmp	r2, r4
 800af4a:	d206      	bcs.n	800af5a <system__c__malloc__add_free_cell+0x32>
 800af4c:	4619      	mov	r1, r3
 800af4e:	68cb      	ldr	r3, [r1, #12]
 800af50:	2b00      	cmp	r3, #0
 800af52:	d1f6      	bne.n	800af42 <system__c__malloc__add_free_cell+0x1a>
 800af54:	6081      	str	r1, [r0, #8]
 800af56:	60c3      	str	r3, [r0, #12]
 800af58:	e002      	b.n	800af60 <system__c__malloc__add_free_cell+0x38>
 800af5a:	6081      	str	r1, [r0, #8]
 800af5c:	60c3      	str	r3, [r0, #12]
 800af5e:	6098      	str	r0, [r3, #8]
 800af60:	60c8      	str	r0, [r1, #12]
 800af62:	f85d 4b04 	ldr.w	r4, [sp], #4
 800af66:	4770      	bx	lr
 800af68:	2300      	movs	r3, #0
 800af6a:	60c1      	str	r1, [r0, #12]
 800af6c:	6083      	str	r3, [r0, #8]
 800af6e:	6010      	str	r0, [r2, #0]
 800af70:	6088      	str	r0, [r1, #8]
 800af72:	f85d 4b04 	ldr.w	r4, [sp], #4
 800af76:	4770      	bx	lr
 800af78:	6081      	str	r1, [r0, #8]
 800af7a:	60c1      	str	r1, [r0, #12]
 800af7c:	6010      	str	r0, [r2, #0]
 800af7e:	4770      	bx	lr
 800af80:	200002a0 	.word	0x200002a0

0800af84 <malloc>:
 800af84:	b5f8      	push	{r3, r4, r5, r6, r7, lr}
 800af86:	2800      	cmp	r0, #0
 800af88:	d03f      	beq.n	800b00a <malloc+0x86>
 800af8a:	4930      	ldr	r1, [pc, #192]	; (800b04c <malloc+0xc8>)
 800af8c:	680c      	ldr	r4, [r1, #0]
 800af8e:	3008      	adds	r0, #8
 800af90:	f020 0207 	bic.w	r2, r0, #7
 800af94:	b914      	cbnz	r4, 800af9c <malloc+0x18>
 800af96:	e01c      	b.n	800afd2 <malloc+0x4e>
 800af98:	68e4      	ldr	r4, [r4, #12]
 800af9a:	b1d4      	cbz	r4, 800afd2 <malloc+0x4e>
 800af9c:	6863      	ldr	r3, [r4, #4]
 800af9e:	f3c3 031e 	ubfx	r3, r3, #0, #31
 800afa2:	429a      	cmp	r2, r3
 800afa4:	d8f8      	bhi.n	800af98 <malloc+0x14>
 800afa6:	68e3      	ldr	r3, [r4, #12]
 800afa8:	b10b      	cbz	r3, 800afae <malloc+0x2a>
 800afaa:	68a0      	ldr	r0, [r4, #8]
 800afac:	6098      	str	r0, [r3, #8]
 800afae:	68a0      	ldr	r0, [r4, #8]
 800afb0:	2800      	cmp	r0, #0
 800afb2:	d049      	beq.n	800b048 <malloc+0xc4>
 800afb4:	60c3      	str	r3, [r0, #12]
 800afb6:	6863      	ldr	r3, [r4, #4]
 800afb8:	f3c3 031e 	ubfx	r3, r3, #0, #31
 800afbc:	1a99      	subs	r1, r3, r2
 800afbe:	290f      	cmp	r1, #15
 800afc0:	f104 0508 	add.w	r5, r4, #8
 800afc4:	d827      	bhi.n	800b016 <malloc+0x92>
 800afc6:	79e3      	ldrb	r3, [r4, #7]
 800afc8:	f36f 13c7 	bfc	r3, #7, #1
 800afcc:	71e3      	strb	r3, [r4, #7]
 800afce:	4628      	mov	r0, r5
 800afd0:	bdf8      	pop	{r3, r4, r5, r6, r7, pc}
 800afd2:	4e1f      	ldr	r6, [pc, #124]	; (800b050 <malloc+0xcc>)
 800afd4:	6831      	ldr	r1, [r6, #0]
 800afd6:	2900      	cmp	r1, #0
 800afd8:	d034      	beq.n	800b044 <malloc+0xc0>
 800afda:	684b      	ldr	r3, [r1, #4]
 800afdc:	f3c3 031e 	ubfx	r3, r3, #0, #31
 800afe0:	440b      	add	r3, r1
 800afe2:	3308      	adds	r3, #8
 800afe4:	685c      	ldr	r4, [r3, #4]
 800afe6:	6019      	str	r1, [r3, #0]
 800afe8:	f020 4100 	bic.w	r1, r0, #2147483648	; 0x80000000
 800afec:	f362 041e 	bfi	r4, r2, #0, #31
 800aff0:	4f18      	ldr	r7, [pc, #96]	; (800b054 <malloc+0xd0>)
 800aff2:	605c      	str	r4, [r3, #4]
 800aff4:	f021 0107 	bic.w	r1, r1, #7
 800aff8:	f103 0508 	add.w	r5, r3, #8
 800affc:	0e22      	lsrs	r2, r4, #24
 800affe:	4429      	add	r1, r5
 800b000:	f36f 12c7 	bfc	r2, #7, #1
 800b004:	42b9      	cmp	r1, r7
 800b006:	71da      	strb	r2, [r3, #7]
 800b008:	d902      	bls.n	800b010 <malloc+0x8c>
 800b00a:	2500      	movs	r5, #0
 800b00c:	4628      	mov	r0, r5
 800b00e:	bdf8      	pop	{r3, r4, r5, r6, r7, pc}
 800b010:	6033      	str	r3, [r6, #0]
 800b012:	4628      	mov	r0, r5
 800b014:	bdf8      	pop	{r3, r4, r5, r6, r7, pc}
 800b016:	18a8      	adds	r0, r5, r2
 800b018:	3908      	subs	r1, #8
 800b01a:	6846      	ldr	r6, [r0, #4]
 800b01c:	50ac      	str	r4, [r5, r2]
 800b01e:	f361 061e 	bfi	r6, r1, #0, #31
 800b022:	0e31      	lsrs	r1, r6, #24
 800b024:	f041 0180 	orr.w	r1, r1, #128	; 0x80
 800b028:	6046      	str	r6, [r0, #4]
 800b02a:	71c1      	strb	r1, [r0, #7]
 800b02c:	6861      	ldr	r1, [r4, #4]
 800b02e:	50e8      	str	r0, [r5, r3]
 800b030:	f362 011e 	bfi	r1, r2, #0, #31
 800b034:	6061      	str	r1, [r4, #4]
 800b036:	f7ff ff77 	bl	800af28 <system__c__malloc__add_free_cell>
 800b03a:	79e3      	ldrb	r3, [r4, #7]
 800b03c:	f36f 13c7 	bfc	r3, #7, #1
 800b040:	71e3      	strb	r3, [r4, #7]
 800b042:	e7c4      	b.n	800afce <malloc+0x4a>
 800b044:	4b04      	ldr	r3, [pc, #16]	; (800b058 <malloc+0xd4>)
 800b046:	e7cd      	b.n	800afe4 <malloc+0x60>
 800b048:	600b      	str	r3, [r1, #0]
 800b04a:	e7b4      	b.n	800afb6 <malloc+0x32>
 800b04c:	200002a0 	.word	0x200002a0
 800b050:	200002a4 	.word	0x200002a4
 800b054:	20010000 	.word	0x20010000
 800b058:	2000cb18 	.word	0x2000cb18

0800b05c <free>:
 800b05c:	2800      	cmp	r0, #0
 800b05e:	d04f      	beq.n	800b100 <free+0xa4>
 800b060:	b470      	push	{r4, r5, r6}
 800b062:	f1a0 0308 	sub.w	r3, r0, #8
 800b066:	4934      	ldr	r1, [pc, #208]	; (800b138 <free+0xdc>)
 800b068:	79da      	ldrb	r2, [r3, #7]
 800b06a:	680c      	ldr	r4, [r1, #0]
 800b06c:	f042 0280 	orr.w	r2, r2, #128	; 0x80
 800b070:	42a3      	cmp	r3, r4
 800b072:	71da      	strb	r2, [r3, #7]
 800b074:	d045      	beq.n	800b102 <free+0xa6>
 800b076:	685a      	ldr	r2, [r3, #4]
 800b078:	f3c2 021e 	ubfx	r2, r2, #0, #31
 800b07c:	4402      	add	r2, r0
 800b07e:	79d5      	ldrb	r5, [r2, #7]
 800b080:	09ed      	lsrs	r5, r5, #7
 800b082:	d019      	beq.n	800b0b8 <free+0x5c>
 800b084:	68d5      	ldr	r5, [r2, #12]
 800b086:	b10d      	cbz	r5, 800b08c <free+0x30>
 800b088:	6896      	ldr	r6, [r2, #8]
 800b08a:	60ae      	str	r6, [r5, #8]
 800b08c:	6896      	ldr	r6, [r2, #8]
 800b08e:	2e00      	cmp	r6, #0
 800b090:	d04c      	beq.n	800b12c <free+0xd0>
 800b092:	60f5      	str	r5, [r6, #12]
 800b094:	4294      	cmp	r4, r2
 800b096:	d004      	beq.n	800b0a2 <free+0x46>
 800b098:	6854      	ldr	r4, [r2, #4]
 800b09a:	f3c4 041e 	ubfx	r4, r4, #0, #31
 800b09e:	4414      	add	r4, r2
 800b0a0:	60a3      	str	r3, [r4, #8]
 800b0a2:	685c      	ldr	r4, [r3, #4]
 800b0a4:	6852      	ldr	r2, [r2, #4]
 800b0a6:	f3c4 051e 	ubfx	r5, r4, #0, #31
 800b0aa:	f3c2 021e 	ubfx	r2, r2, #0, #31
 800b0ae:	442a      	add	r2, r5
 800b0b0:	3208      	adds	r2, #8
 800b0b2:	f362 041e 	bfi	r4, r2, #0, #31
 800b0b6:	605c      	str	r4, [r3, #4]
 800b0b8:	f850 2c08 	ldr.w	r2, [r0, #-8]
 800b0bc:	b1e2      	cbz	r2, 800b0f8 <free+0x9c>
 800b0be:	79d4      	ldrb	r4, [r2, #7]
 800b0c0:	09e4      	lsrs	r4, r4, #7
 800b0c2:	d019      	beq.n	800b0f8 <free+0x9c>
 800b0c4:	68d4      	ldr	r4, [r2, #12]
 800b0c6:	b10c      	cbz	r4, 800b0cc <free+0x70>
 800b0c8:	6895      	ldr	r5, [r2, #8]
 800b0ca:	60a5      	str	r5, [r4, #8]
 800b0cc:	6895      	ldr	r5, [r2, #8]
 800b0ce:	b355      	cbz	r5, 800b126 <free+0xca>
 800b0d0:	60ec      	str	r4, [r5, #12]
 800b0d2:	6809      	ldr	r1, [r1, #0]
 800b0d4:	428b      	cmp	r3, r1
 800b0d6:	d003      	beq.n	800b0e0 <free+0x84>
 800b0d8:	6859      	ldr	r1, [r3, #4]
 800b0da:	f3c1 011e 	ubfx	r1, r1, #0, #31
 800b0de:	5042      	str	r2, [r0, r1]
 800b0e0:	6851      	ldr	r1, [r2, #4]
 800b0e2:	685b      	ldr	r3, [r3, #4]
 800b0e4:	f3c1 001e 	ubfx	r0, r1, #0, #31
 800b0e8:	f3c3 031e 	ubfx	r3, r3, #0, #31
 800b0ec:	4403      	add	r3, r0
 800b0ee:	3308      	adds	r3, #8
 800b0f0:	f363 011e 	bfi	r1, r3, #0, #31
 800b0f4:	6051      	str	r1, [r2, #4]
 800b0f6:	4613      	mov	r3, r2
 800b0f8:	4618      	mov	r0, r3
 800b0fa:	bc70      	pop	{r4, r5, r6}
 800b0fc:	f7ff bf14 	b.w	800af28 <system__c__malloc__add_free_cell>
 800b100:	4770      	bx	lr
 800b102:	f850 3c08 	ldr.w	r3, [r0, #-8]
 800b106:	600b      	str	r3, [r1, #0]
 800b108:	b15b      	cbz	r3, 800b122 <free+0xc6>
 800b10a:	79da      	ldrb	r2, [r3, #7]
 800b10c:	09d2      	lsrs	r2, r2, #7
 800b10e:	d008      	beq.n	800b122 <free+0xc6>
 800b110:	68da      	ldr	r2, [r3, #12]
 800b112:	b10a      	cbz	r2, 800b118 <free+0xbc>
 800b114:	6898      	ldr	r0, [r3, #8]
 800b116:	6090      	str	r0, [r2, #8]
 800b118:	6898      	ldr	r0, [r3, #8]
 800b11a:	b150      	cbz	r0, 800b132 <free+0xd6>
 800b11c:	60c2      	str	r2, [r0, #12]
 800b11e:	681b      	ldr	r3, [r3, #0]
 800b120:	600b      	str	r3, [r1, #0]
 800b122:	bc70      	pop	{r4, r5, r6}
 800b124:	4770      	bx	lr
 800b126:	4d05      	ldr	r5, [pc, #20]	; (800b13c <free+0xe0>)
 800b128:	602c      	str	r4, [r5, #0]
 800b12a:	e7d2      	b.n	800b0d2 <free+0x76>
 800b12c:	4e03      	ldr	r6, [pc, #12]	; (800b13c <free+0xe0>)
 800b12e:	6035      	str	r5, [r6, #0]
 800b130:	e7b0      	b.n	800b094 <free+0x38>
 800b132:	4802      	ldr	r0, [pc, #8]	; (800b13c <free+0xe0>)
 800b134:	6002      	str	r2, [r0, #0]
 800b136:	e7f2      	b.n	800b11e <free+0xc2>
 800b138:	200002a4 	.word	0x200002a4
 800b13c:	200002a0 	.word	0x200002a0

0800b140 <system__secondary_stack__ss_allocate>:
 800b140:	b510      	push	{r4, lr}
 800b142:	4604      	mov	r4, r0
 800b144:	f7fd faae 	bl	80086a4 <__gnat_get_secondary_stack>
 800b148:	1de3      	adds	r3, r4, #7
 800b14a:	6802      	ldr	r2, [r0, #0]
 800b14c:	6841      	ldr	r1, [r0, #4]
 800b14e:	f023 0307 	bic.w	r3, r3, #7
 800b152:	4413      	add	r3, r2
 800b154:	428b      	cmp	r3, r1
 800b156:	d804      	bhi.n	800b162 <system__secondary_stack__ss_allocate+0x22>
 800b158:	3207      	adds	r2, #7
 800b15a:	4402      	add	r2, r0
 800b15c:	6003      	str	r3, [r0, #0]
 800b15e:	4610      	mov	r0, r2
 800b160:	bd10      	pop	{r4, pc}
 800b162:	4802      	ldr	r0, [pc, #8]	; (800b16c <system__secondary_stack__ss_allocate+0x2c>)
 800b164:	2167      	movs	r1, #103	; 0x67
 800b166:	f7ff fc83 	bl	800aa70 <__gnat_rcheck_SE_Explicit_Raise>
 800b16a:	bf00      	nop
 800b16c:	080104a8 	.word	0x080104a8

0800b170 <system__secondary_stack__ss_init>:
 800b170:	3908      	subs	r1, #8
 800b172:	2301      	movs	r3, #1
 800b174:	6041      	str	r1, [r0, #4]
 800b176:	6003      	str	r3, [r0, #0]
 800b178:	4770      	bx	lr
 800b17a:	bf00      	nop

0800b17c <system__secondary_stack__ss_mark>:
 800b17c:	b508      	push	{r3, lr}
 800b17e:	f7fd fa91 	bl	80086a4 <__gnat_get_secondary_stack>
 800b182:	6800      	ldr	r0, [r0, #0]
 800b184:	bd08      	pop	{r3, pc}
 800b186:	bf00      	nop

0800b188 <system__secondary_stack__ss_release>:
 800b188:	b510      	push	{r4, lr}
 800b18a:	4604      	mov	r4, r0
 800b18c:	f7fd fa8a 	bl	80086a4 <__gnat_get_secondary_stack>
 800b190:	6004      	str	r4, [r0, #0]
 800b192:	bd10      	pop	{r4, pc}

0800b194 <gnat__debug_utilities__image_c>:
 800b194:	b430      	push	{r4, r5}
 800b196:	4d08      	ldr	r5, [pc, #32]	; (800b1b8 <gnat__debug_utilities__image_c+0x24>)
 800b198:	f100 0309 	add.w	r3, r0, #9
 800b19c:	1c44      	adds	r4, r0, #1
 800b19e:	f001 020f 	and.w	r2, r1, #15
 800b1a2:	0909      	lsrs	r1, r1, #4
 800b1a4:	5caa      	ldrb	r2, [r5, r2]
 800b1a6:	f803 2901 	strb.w	r2, [r3], #-1
 800b1aa:	42a3      	cmp	r3, r4
 800b1ac:	d1f7      	bne.n	800b19e <gnat__debug_utilities__image_c+0xa>
 800b1ae:	4b03      	ldr	r3, [pc, #12]	; (800b1bc <gnat__debug_utilities__image_c+0x28>)
 800b1b0:	881b      	ldrh	r3, [r3, #0]
 800b1b2:	8003      	strh	r3, [r0, #0]
 800b1b4:	bc30      	pop	{r4, r5}
 800b1b6:	4770      	bx	lr
 800b1b8:	080104d0 	.word	0x080104d0
 800b1bc:	080104bc 	.word	0x080104bc

0800b1c0 <__gnat_debug_raise_exception>:
 800b1c0:	b480      	push	{r7}
 800b1c2:	b085      	sub	sp, #20
 800b1c4:	af00      	add	r7, sp, #0
 800b1c6:	60f8      	str	r0, [r7, #12]
 800b1c8:	e9c7 2300 	strd	r2, r3, [r7]
 800b1cc:	683b      	ldr	r3, [r7, #0]
 800b1ce:	bf00      	nop
 800b1d0:	3714      	adds	r7, #20
 800b1d2:	46bd      	mov	sp, r7
 800b1d4:	f85d 7b04 	ldr.w	r7, [sp], #4
 800b1d8:	4770      	bx	lr
 800b1da:	bf00      	nop

0800b1dc <__gnat_unhandled_exception>:
 800b1dc:	b480      	push	{r7}
 800b1de:	b083      	sub	sp, #12
 800b1e0:	af00      	add	r7, sp, #0
 800b1e2:	6078      	str	r0, [r7, #4]
 800b1e4:	bf00      	nop
 800b1e6:	370c      	adds	r7, #12
 800b1e8:	46bd      	mov	sp, r7
 800b1ea:	f85d 7b04 	ldr.w	r7, [sp], #4
 800b1ee:	4770      	bx	lr

0800b1f0 <__gnat_debug_raise_assert_failure>:
 800b1f0:	b480      	push	{r7}
 800b1f2:	af00      	add	r7, sp, #0
 800b1f4:	bf00      	nop
 800b1f6:	46bd      	mov	sp, r7
 800b1f8:	f85d 7b04 	ldr.w	r7, [sp], #4
 800b1fc:	4770      	bx	lr
 800b1fe:	bf00      	nop

0800b200 <system__assertions__raise_assert_failure>:
 800b200:	b538      	push	{r3, r4, r5, lr}
 800b202:	4604      	mov	r4, r0
 800b204:	460d      	mov	r5, r1
 800b206:	f7ff fff3 	bl	800b1f0 <__gnat_debug_raise_assert_failure>
 800b20a:	4622      	mov	r2, r4
 800b20c:	462b      	mov	r3, r5
 800b20e:	4801      	ldr	r0, [pc, #4]	; (800b214 <system__assertions__raise_assert_failure+0x14>)
 800b210:	f7ff fba6 	bl	800a960 <__gnat_raise_exception>
 800b214:	200002a8 	.word	0x200002a8

0800b218 <system__finalization_masters___size__2>:
 800b218:	20e0      	movs	r0, #224	; 0xe0
 800b21a:	2100      	movs	r1, #0
 800b21c:	4770      	bx	lr
 800b21e:	bf00      	nop

0800b220 <system__finalization_masters__base_pool>:
 800b220:	6880      	ldr	r0, [r0, #8]
 800b222:	4770      	bx	lr

0800b224 <system__finalization_masters__finalize_address>:
 800b224:	6940      	ldr	r0, [r0, #20]
 800b226:	4770      	bx	lr

0800b228 <system__finalization_masters__finalization_started>:
 800b228:	7e00      	ldrb	r0, [r0, #24]
 800b22a:	4770      	bx	lr

0800b22c <system__finalization_masters__initialize__2>:
 800b22c:	f100 030c 	add.w	r3, r0, #12
 800b230:	6103      	str	r3, [r0, #16]
 800b232:	60c3      	str	r3, [r0, #12]
 800b234:	4770      	bx	lr
 800b236:	bf00      	nop

0800b238 <system__finalization_masters__is_homogeneous>:
 800b238:	7900      	ldrb	r0, [r0, #4]
 800b23a:	4770      	bx	lr

0800b23c <system__finalization_masters__objects>:
 800b23c:	300c      	adds	r0, #12
 800b23e:	4770      	bx	lr

0800b240 <system__finalization_masters__set_base_pool>:
 800b240:	6081      	str	r1, [r0, #8]
 800b242:	4770      	bx	lr

0800b244 <system__finalization_masters__set_finalize_address>:
 800b244:	b570      	push	{r4, r5, r6, lr}
 800b246:	4b09      	ldr	r3, [pc, #36]	; (800b26c <system__finalization_masters__set_finalize_address+0x28>)
 800b248:	4604      	mov	r4, r0
 800b24a:	681b      	ldr	r3, [r3, #0]
 800b24c:	460d      	mov	r5, r1
 800b24e:	4798      	blx	r3
 800b250:	6963      	ldr	r3, [r4, #20]
 800b252:	b123      	cbz	r3, 800b25e <system__finalization_masters__set_finalize_address+0x1a>
 800b254:	4b06      	ldr	r3, [pc, #24]	; (800b270 <system__finalization_masters__set_finalize_address+0x2c>)
 800b256:	e8bd 4070 	ldmia.w	sp!, {r4, r5, r6, lr}
 800b25a:	681b      	ldr	r3, [r3, #0]
 800b25c:	4718      	bx	r3
 800b25e:	4b04      	ldr	r3, [pc, #16]	; (800b270 <system__finalization_masters__set_finalize_address+0x2c>)
 800b260:	6165      	str	r5, [r4, #20]
 800b262:	681b      	ldr	r3, [r3, #0]
 800b264:	e8bd 4070 	ldmia.w	sp!, {r4, r5, r6, lr}
 800b268:	4718      	bx	r3
 800b26a:	bf00      	nop
 800b26c:	200001a4 	.word	0x200001a4
 800b270:	2000019c 	.word	0x2000019c

0800b274 <system__finalization_masters__set_finalize_address_unprotected>:
 800b274:	6943      	ldr	r3, [r0, #20]
 800b276:	b103      	cbz	r3, 800b27a <system__finalization_masters__set_finalize_address_unprotected+0x6>
 800b278:	4770      	bx	lr
 800b27a:	6141      	str	r1, [r0, #20]
 800b27c:	4770      	bx	lr
 800b27e:	bf00      	nop

0800b280 <system__finalization_masters__set_is_heterogeneous>:
 800b280:	b510      	push	{r4, lr}
 800b282:	4b05      	ldr	r3, [pc, #20]	; (800b298 <system__finalization_masters__set_is_heterogeneous+0x18>)
 800b284:	681b      	ldr	r3, [r3, #0]
 800b286:	4604      	mov	r4, r0
 800b288:	4798      	blx	r3
 800b28a:	4b04      	ldr	r3, [pc, #16]	; (800b29c <system__finalization_masters__set_is_heterogeneous+0x1c>)
 800b28c:	2200      	movs	r2, #0
 800b28e:	7122      	strb	r2, [r4, #4]
 800b290:	681b      	ldr	r3, [r3, #0]
 800b292:	e8bd 4010 	ldmia.w	sp!, {r4, lr}
 800b296:	4718      	bx	r3
 800b298:	200001a4 	.word	0x200001a4
 800b29c:	2000019c 	.word	0x2000019c

0800b2a0 <system__finalization_masters__print_master>:
 800b2a0:	e92d 41f0 	stmdb	sp!, {r4, r5, r6, r7, r8, lr}
 800b2a4:	b08a      	sub	sp, #40	; 0x28
 800b2a6:	4604      	mov	r4, r0
 800b2a8:	f7ff ff68 	bl	800b17c <system__secondary_stack__ss_mark>
 800b2ac:	4680      	mov	r8, r0
 800b2ae:	4876      	ldr	r0, [pc, #472]	; (800b488 <system__finalization_masters__print_master+0x1e8>)
 800b2b0:	f100 010c 	add.w	r1, r0, #12
 800b2b4:	f104 050c 	add.w	r5, r4, #12
 800b2b8:	f000 fd1a 	bl	800bcf0 <system__io__put__3>
 800b2bc:	4668      	mov	r0, sp
 800b2be:	4621      	mov	r1, r4
 800b2c0:	f000 fca4 	bl	800bc0c <_ada_system__address_image>
 800b2c4:	e9dd 0100 	ldrd	r0, r1, [sp]
 800b2c8:	f000 fd22 	bl	800bd10 <system__io__put_line>
 800b2cc:	486f      	ldr	r0, [pc, #444]	; (800b48c <system__finalization_masters__print_master+0x1ec>)
 800b2ce:	f1a0 0108 	sub.w	r1, r0, #8
 800b2d2:	f000 fd0d 	bl	800bcf0 <system__io__put__3>
 800b2d6:	aa02      	add	r2, sp, #8
 800b2d8:	7920      	ldrb	r0, [r4, #4]
 800b2da:	4b6d      	ldr	r3, [pc, #436]	; (800b490 <system__finalization_masters__print_master+0x1f0>)
 800b2dc:	f000 fcc2 	bl	800bc64 <system__img_bool__image_boolean>
 800b2e0:	9007      	str	r0, [sp, #28]
 800b2e2:	2301      	movs	r3, #1
 800b2e4:	a802      	add	r0, sp, #8
 800b2e6:	a906      	add	r1, sp, #24
 800b2e8:	9306      	str	r3, [sp, #24]
 800b2ea:	f000 fd11 	bl	800bd10 <system__io__put_line>
 800b2ee:	4869      	ldr	r0, [pc, #420]	; (800b494 <system__finalization_masters__print_master+0x1f4>)
 800b2f0:	f1a0 011c 	sub.w	r1, r0, #28
 800b2f4:	f000 fcfc 	bl	800bcf0 <system__io__put__3>
 800b2f8:	68a3      	ldr	r3, [r4, #8]
 800b2fa:	2b00      	cmp	r3, #0
 800b2fc:	f000 80ac 	beq.w	800b458 <system__finalization_masters__print_master+0x1b8>
 800b300:	4668      	mov	r0, sp
 800b302:	f104 0108 	add.w	r1, r4, #8
 800b306:	f000 fc81 	bl	800bc0c <_ada_system__address_image>
 800b30a:	e9dd 0100 	ldrd	r0, r1, [sp]
 800b30e:	f000 fcff 	bl	800bd10 <system__io__put_line>
 800b312:	4861      	ldr	r0, [pc, #388]	; (800b498 <system__finalization_masters__print_master+0x1f8>)
 800b314:	f1a0 0134 	sub.w	r1, r0, #52	; 0x34
 800b318:	f000 fcea 	bl	800bcf0 <system__io__put__3>
 800b31c:	6963      	ldr	r3, [r4, #20]
 800b31e:	2b00      	cmp	r3, #0
 800b320:	f000 809f 	beq.w	800b462 <system__finalization_masters__print_master+0x1c2>
 800b324:	4668      	mov	r0, sp
 800b326:	f104 0114 	add.w	r1, r4, #20
 800b32a:	f000 fc6f 	bl	800bc0c <_ada_system__address_image>
 800b32e:	e9dd 0100 	ldrd	r0, r1, [sp]
 800b332:	f000 fced 	bl	800bd10 <system__io__put_line>
 800b336:	4859      	ldr	r0, [pc, #356]	; (800b49c <system__finalization_masters__print_master+0x1fc>)
 800b338:	f1a0 0140 	sub.w	r1, r0, #64	; 0x40
 800b33c:	f000 fcd8 	bl	800bcf0 <system__io__put__3>
 800b340:	7e20      	ldrb	r0, [r4, #24]
 800b342:	4b53      	ldr	r3, [pc, #332]	; (800b490 <system__finalization_masters__print_master+0x1f0>)
 800b344:	aa04      	add	r2, sp, #16
 800b346:	f000 fc8d 	bl	800bc64 <system__img_bool__image_boolean>
 800b34a:	9009      	str	r0, [sp, #36]	; 0x24
 800b34c:	2301      	movs	r3, #1
 800b34e:	a804      	add	r0, sp, #16
 800b350:	a908      	add	r1, sp, #32
 800b352:	9308      	str	r3, [sp, #32]
 800b354:	f000 fcdc 	bl	800bd10 <system__io__put_line>
 800b358:	2d00      	cmp	r5, #0
 800b35a:	d077      	beq.n	800b44c <system__finalization_masters__print_master+0x1ac>
 800b35c:	462c      	mov	r4, r5
 800b35e:	2700      	movs	r7, #0
 800b360:	e04f      	b.n	800b402 <system__finalization_masters__print_master+0x162>
 800b362:	6823      	ldr	r3, [r4, #0]
 800b364:	2b00      	cmp	r3, #0
 800b366:	d06b      	beq.n	800b440 <system__finalization_masters__print_master+0x1a0>
 800b368:	685b      	ldr	r3, [r3, #4]
 800b36a:	429c      	cmp	r4, r3
 800b36c:	d062      	beq.n	800b434 <system__finalization_masters__print_master+0x194>
 800b36e:	484c      	ldr	r0, [pc, #304]	; (800b4a0 <system__finalization_masters__print_master+0x200>)
 800b370:	f1a0 010c 	sub.w	r1, r0, #12
 800b374:	f000 fccc 	bl	800bd10 <system__io__put_line>
 800b378:	484a      	ldr	r0, [pc, #296]	; (800b4a4 <system__finalization_masters__print_master+0x204>)
 800b37a:	f100 010c 	add.w	r1, r0, #12
 800b37e:	f000 fcb7 	bl	800bcf0 <system__io__put__3>
 800b382:	f7ff fefb 	bl	800b17c <system__secondary_stack__ss_mark>
 800b386:	4606      	mov	r6, r0
 800b388:	4621      	mov	r1, r4
 800b38a:	4668      	mov	r0, sp
 800b38c:	f000 fc3e 	bl	800bc0c <_ada_system__address_image>
 800b390:	e9dd 0100 	ldrd	r0, r1, [sp]
 800b394:	f000 fcac 	bl	800bcf0 <system__io__put__3>
 800b398:	4630      	mov	r0, r6
 800b39a:	f7ff fef5 	bl	800b188 <system__secondary_stack__ss_release>
 800b39e:	42ac      	cmp	r4, r5
 800b3a0:	d042      	beq.n	800b428 <system__finalization_masters__print_master+0x188>
 800b3a2:	4841      	ldr	r0, [pc, #260]	; (800b4a8 <system__finalization_masters__print_master+0x208>)
 800b3a4:	4601      	mov	r1, r0
 800b3a6:	f000 fcb3 	bl	800bd10 <system__io__put_line>
 800b3aa:	4840      	ldr	r0, [pc, #256]	; (800b4ac <system__finalization_masters__print_master+0x20c>)
 800b3ac:	f1a0 0130 	sub.w	r1, r0, #48	; 0x30
 800b3b0:	f000 fc9e 	bl	800bcf0 <system__io__put__3>
 800b3b4:	6823      	ldr	r3, [r4, #0]
 800b3b6:	b393      	cbz	r3, 800b41e <system__finalization_masters__print_master+0x17e>
 800b3b8:	f7ff fee0 	bl	800b17c <system__secondary_stack__ss_mark>
 800b3bc:	4606      	mov	r6, r0
 800b3be:	6821      	ldr	r1, [r4, #0]
 800b3c0:	4668      	mov	r0, sp
 800b3c2:	f000 fc23 	bl	800bc0c <_ada_system__address_image>
 800b3c6:	e9dd 0100 	ldrd	r0, r1, [sp]
 800b3ca:	f000 fca1 	bl	800bd10 <system__io__put_line>
 800b3ce:	4630      	mov	r0, r6
 800b3d0:	f7ff feda 	bl	800b188 <system__secondary_stack__ss_release>
 800b3d4:	4836      	ldr	r0, [pc, #216]	; (800b4b0 <system__finalization_masters__print_master+0x210>)
 800b3d6:	f1a0 0144 	sub.w	r1, r0, #68	; 0x44
 800b3da:	f000 fc89 	bl	800bcf0 <system__io__put__3>
 800b3de:	6863      	ldr	r3, [r4, #4]
 800b3e0:	b1c3      	cbz	r3, 800b414 <system__finalization_masters__print_master+0x174>
 800b3e2:	f7ff fecb 	bl	800b17c <system__secondary_stack__ss_mark>
 800b3e6:	4606      	mov	r6, r0
 800b3e8:	6861      	ldr	r1, [r4, #4]
 800b3ea:	4668      	mov	r0, sp
 800b3ec:	f000 fc0e 	bl	800bc0c <_ada_system__address_image>
 800b3f0:	e9dd 0100 	ldrd	r0, r1, [sp]
 800b3f4:	f000 fc8c 	bl	800bd10 <system__io__put_line>
 800b3f8:	4630      	mov	r0, r6
 800b3fa:	f7ff fec5 	bl	800b188 <system__secondary_stack__ss_release>
 800b3fe:	6864      	ldr	r4, [r4, #4]
 800b400:	b324      	cbz	r4, 800b44c <system__finalization_masters__print_master+0x1ac>
 800b402:	482c      	ldr	r0, [pc, #176]	; (800b4b4 <system__finalization_masters__print_master+0x214>)
 800b404:	1d01      	adds	r1, r0, #4
 800b406:	f000 fc83 	bl	800bd10 <system__io__put_line>
 800b40a:	42ac      	cmp	r4, r5
 800b40c:	d1a9      	bne.n	800b362 <system__finalization_masters__print_master+0xc2>
 800b40e:	b9ef      	cbnz	r7, 800b44c <system__finalization_masters__print_master+0x1ac>
 800b410:	2701      	movs	r7, #1
 800b412:	e7a6      	b.n	800b362 <system__finalization_masters__print_master+0xc2>
 800b414:	4828      	ldr	r0, [pc, #160]	; (800b4b8 <system__finalization_masters__print_master+0x218>)
 800b416:	1d01      	adds	r1, r0, #4
 800b418:	f000 fc7a 	bl	800bd10 <system__io__put_line>
 800b41c:	e7ef      	b.n	800b3fe <system__finalization_masters__print_master+0x15e>
 800b41e:	4826      	ldr	r0, [pc, #152]	; (800b4b8 <system__finalization_masters__print_master+0x218>)
 800b420:	1d01      	adds	r1, r0, #4
 800b422:	f000 fc75 	bl	800bd10 <system__io__put_line>
 800b426:	e7d5      	b.n	800b3d4 <system__finalization_masters__print_master+0x134>
 800b428:	4824      	ldr	r0, [pc, #144]	; (800b4bc <system__finalization_masters__print_master+0x21c>)
 800b42a:	f100 0110 	add.w	r1, r0, #16
 800b42e:	f000 fc6f 	bl	800bd10 <system__io__put_line>
 800b432:	e7ba      	b.n	800b3aa <system__finalization_masters__print_master+0x10a>
 800b434:	4822      	ldr	r0, [pc, #136]	; (800b4c0 <system__finalization_masters__print_master+0x220>)
 800b436:	f1a0 0130 	sub.w	r1, r0, #48	; 0x30
 800b43a:	f000 fc69 	bl	800bd10 <system__io__put_line>
 800b43e:	e79b      	b.n	800b378 <system__finalization_masters__print_master+0xd8>
 800b440:	4820      	ldr	r0, [pc, #128]	; (800b4c4 <system__finalization_masters__print_master+0x224>)
 800b442:	f100 010c 	add.w	r1, r0, #12
 800b446:	f000 fc63 	bl	800bd10 <system__io__put_line>
 800b44a:	e795      	b.n	800b378 <system__finalization_masters__print_master+0xd8>
 800b44c:	4640      	mov	r0, r8
 800b44e:	f7ff fe9b 	bl	800b188 <system__secondary_stack__ss_release>
 800b452:	b00a      	add	sp, #40	; 0x28
 800b454:	e8bd 81f0 	ldmia.w	sp!, {r4, r5, r6, r7, r8, pc}
 800b458:	4817      	ldr	r0, [pc, #92]	; (800b4b8 <system__finalization_masters__print_master+0x218>)
 800b45a:	1d01      	adds	r1, r0, #4
 800b45c:	f000 fc58 	bl	800bd10 <system__io__put_line>
 800b460:	e757      	b.n	800b312 <system__finalization_masters__print_master+0x72>
 800b462:	4815      	ldr	r0, [pc, #84]	; (800b4b8 <system__finalization_masters__print_master+0x218>)
 800b464:	1d01      	adds	r1, r0, #4
 800b466:	f000 fc53 	bl	800bd10 <system__io__put_line>
 800b46a:	e764      	b.n	800b336 <system__finalization_masters__print_master+0x96>
 800b46c:	4604      	mov	r4, r0
 800b46e:	4630      	mov	r0, r6
 800b470:	f7ff fe8a 	bl	800b188 <system__secondary_stack__ss_release>
 800b474:	4640      	mov	r0, r8
 800b476:	f7ff fe87 	bl	800b188 <system__secondary_stack__ss_release>
 800b47a:	4620      	mov	r0, r4
 800b47c:	f001 fb48 	bl	800cb10 <_Unwind_Resume>
 800b480:	e7f4      	b.n	800b46c <system__finalization_masters__print_master+0x1cc>
 800b482:	e7f3      	b.n	800b46c <system__finalization_masters__print_master+0x1cc>
 800b484:	4604      	mov	r4, r0
 800b486:	e7f5      	b.n	800b474 <system__finalization_masters__print_master+0x1d4>
 800b488:	08010504 	.word	0x08010504
 800b48c:	08010518 	.word	0x08010518
 800b490:	08010524 	.word	0x08010524
 800b494:	0801052c 	.word	0x0801052c
 800b498:	08010544 	.word	0x08010544
 800b49c:	08010550 	.word	0x08010550
 800b4a0:	08010594 	.word	0x08010594
 800b4a4:	0801057c 	.word	0x0801057c
 800b4a8:	080105c4 	.word	0x080105c4
 800b4ac:	080105b8 	.word	0x080105b8
 800b4b0:	080105cc 	.word	0x080105cc
 800b4b4:	0801055c 	.word	0x0801055c
 800b4b8:	08010538 	.word	0x08010538
 800b4bc:	080105a0 	.word	0x080105a0
 800b4c0:	08010590 	.word	0x08010590
 800b4c4:	08010568 	.word	0x08010568

0800b4c8 <system__finalization_masters__finalization_masterIP>:
 800b4c8:	b109      	cbz	r1, 800b4ce <system__finalization_masters__finalization_masterIP+0x6>
 800b4ca:	4b05      	ldr	r3, [pc, #20]	; (800b4e0 <system__finalization_masters__finalization_masterIP+0x18>)
 800b4cc:	6003      	str	r3, [r0, #0]
 800b4ce:	2300      	movs	r3, #0
 800b4d0:	2201      	movs	r2, #1
 800b4d2:	7102      	strb	r2, [r0, #4]
 800b4d4:	6083      	str	r3, [r0, #8]
 800b4d6:	60c3      	str	r3, [r0, #12]
 800b4d8:	6103      	str	r3, [r0, #16]
 800b4da:	6143      	str	r3, [r0, #20]
 800b4dc:	7603      	strb	r3, [r0, #24]
 800b4de:	4770      	bx	lr
 800b4e0:	08010620 	.word	0x08010620

0800b4e4 <system__finalization_masters__finalize_address_table__tab__removeXnb>:
 800b4e4:	f000 017f 	and.w	r1, r0, #127	; 0x7f
 800b4e8:	4b0f      	ldr	r3, [pc, #60]	; (800b528 <system__finalization_masters__finalize_address_table__tab__removeXnb+0x44>)
 800b4ea:	f853 2021 	ldr.w	r2, [r3, r1, lsl #2]
 800b4ee:	b1ca      	cbz	r2, 800b524 <system__finalization_masters__finalize_address_table__tab__removeXnb+0x40>
 800b4f0:	b410      	push	{r4}
 800b4f2:	6814      	ldr	r4, [r2, #0]
 800b4f4:	42a0      	cmp	r0, r4
 800b4f6:	d104      	bne.n	800b502 <system__finalization_masters__finalize_address_table__tab__removeXnb+0x1e>
 800b4f8:	e00e      	b.n	800b518 <system__finalization_masters__finalize_address_table__tab__removeXnb+0x34>
 800b4fa:	6819      	ldr	r1, [r3, #0]
 800b4fc:	4288      	cmp	r0, r1
 800b4fe:	d006      	beq.n	800b50e <system__finalization_masters__finalize_address_table__tab__removeXnb+0x2a>
 800b500:	461a      	mov	r2, r3
 800b502:	6893      	ldr	r3, [r2, #8]
 800b504:	2b00      	cmp	r3, #0
 800b506:	d1f8      	bne.n	800b4fa <system__finalization_masters__finalize_address_table__tab__removeXnb+0x16>
 800b508:	f85d 4b04 	ldr.w	r4, [sp], #4
 800b50c:	4770      	bx	lr
 800b50e:	689b      	ldr	r3, [r3, #8]
 800b510:	6093      	str	r3, [r2, #8]
 800b512:	f85d 4b04 	ldr.w	r4, [sp], #4
 800b516:	4770      	bx	lr
 800b518:	6892      	ldr	r2, [r2, #8]
 800b51a:	f843 2021 	str.w	r2, [r3, r1, lsl #2]
 800b51e:	f85d 4b04 	ldr.w	r4, [sp], #4
 800b522:	4770      	bx	lr
 800b524:	4770      	bx	lr
 800b526:	bf00      	nop
 800b528:	20004118 	.word	0x20004118

0800b52c <system__finalization_masters__finalize_address_table__removeXn>:
 800b52c:	b510      	push	{r4, lr}
 800b52e:	f000 027f 	and.w	r2, r0, #127	; 0x7f
 800b532:	4b09      	ldr	r3, [pc, #36]	; (800b558 <system__finalization_masters__finalize_address_table__removeXn+0x2c>)
 800b534:	f853 4022 	ldr.w	r4, [r3, r2, lsl #2]
 800b538:	b914      	cbnz	r4, 800b540 <system__finalization_masters__finalize_address_table__removeXn+0x14>
 800b53a:	e00b      	b.n	800b554 <system__finalization_masters__finalize_address_table__removeXn+0x28>
 800b53c:	68a4      	ldr	r4, [r4, #8]
 800b53e:	b14c      	cbz	r4, 800b554 <system__finalization_masters__finalize_address_table__removeXn+0x28>
 800b540:	6823      	ldr	r3, [r4, #0]
 800b542:	4298      	cmp	r0, r3
 800b544:	d1fa      	bne.n	800b53c <system__finalization_masters__finalize_address_table__removeXn+0x10>
 800b546:	f7ff ffcd 	bl	800b4e4 <system__finalization_masters__finalize_address_table__tab__removeXnb>
 800b54a:	4620      	mov	r0, r4
 800b54c:	e8bd 4010 	ldmia.w	sp!, {r4, lr}
 800b550:	f7ff bcd2 	b.w	800aef8 <__gnat_free>
 800b554:	bd10      	pop	{r4, pc}
 800b556:	bf00      	nop
 800b558:	20004118 	.word	0x20004118

0800b55c <system__finalization_masters__finalize>:
 800b55c:	e92d 47f0 	stmdb	sp!, {r4, r5, r6, r7, r8, r9, sl, lr}
 800b560:	f5ad 7d54 	sub.w	sp, sp, #848	; 0x350
 800b564:	4a3a      	ldr	r2, [pc, #232]	; (800b650 <system__finalization_masters__finalize+0xf4>)
 800b566:	2300      	movs	r3, #0
 800b568:	4605      	mov	r5, r0
 800b56a:	9300      	str	r3, [sp, #0]
 800b56c:	9302      	str	r3, [sp, #8]
 800b56e:	f88d 30d4 	strb.w	r3, [sp, #212]	; 0xd4
 800b572:	9336      	str	r3, [sp, #216]	; 0xd8
 800b574:	9337      	str	r3, [sp, #220]	; 0xdc
 800b576:	6813      	ldr	r3, [r2, #0]
 800b578:	4798      	blx	r3
 800b57a:	7e2b      	ldrb	r3, [r5, #24]
 800b57c:	2b00      	cmp	r3, #0
 800b57e:	d141      	bne.n	800b604 <system__finalization_masters__finalize+0xa8>
 800b580:	4699      	mov	r9, r3
 800b582:	f8df 80d4 	ldr.w	r8, [pc, #212]	; 800b658 <system__finalization_masters__finalize+0xfc>
 800b586:	2301      	movs	r3, #1
 800b588:	762b      	strb	r3, [r5, #24]
 800b58a:	464e      	mov	r6, r9
 800b58c:	f105 070c 	add.w	r7, r5, #12
 800b590:	692c      	ldr	r4, [r5, #16]
 800b592:	42bc      	cmp	r4, r7
 800b594:	d017      	beq.n	800b5c6 <system__finalization_masters__finalize+0x6a>
 800b596:	6823      	ldr	r3, [r4, #0]
 800b598:	b133      	cbz	r3, 800b5a8 <system__finalization_masters__finalize+0x4c>
 800b59a:	6862      	ldr	r2, [r4, #4]
 800b59c:	b122      	cbz	r2, 800b5a8 <system__finalization_masters__finalize+0x4c>
 800b59e:	605a      	str	r2, [r3, #4]
 800b5a0:	6862      	ldr	r2, [r4, #4]
 800b5a2:	6013      	str	r3, [r2, #0]
 800b5a4:	6026      	str	r6, [r4, #0]
 800b5a6:	6066      	str	r6, [r4, #4]
 800b5a8:	792b      	ldrb	r3, [r5, #4]
 800b5aa:	3408      	adds	r4, #8
 800b5ac:	b1db      	cbz	r3, 800b5e6 <system__finalization_masters__finalize+0x8a>
 800b5ae:	696b      	ldr	r3, [r5, #20]
 800b5b0:	4620      	mov	r0, r4
 800b5b2:	4798      	blx	r3
 800b5b4:	792b      	ldrb	r3, [r5, #4]
 800b5b6:	2b00      	cmp	r3, #0
 800b5b8:	d1ea      	bne.n	800b590 <system__finalization_masters__finalize+0x34>
 800b5ba:	4620      	mov	r0, r4
 800b5bc:	f7ff ffb6 	bl	800b52c <system__finalization_masters__finalize_address_table__removeXn>
 800b5c0:	692c      	ldr	r4, [r5, #16]
 800b5c2:	42bc      	cmp	r4, r7
 800b5c4:	d1e7      	bne.n	800b596 <system__finalization_masters__finalize+0x3a>
 800b5c6:	68eb      	ldr	r3, [r5, #12]
 800b5c8:	42bb      	cmp	r3, r7
 800b5ca:	d1e4      	bne.n	800b596 <system__finalization_masters__finalize+0x3a>
 800b5cc:	4b21      	ldr	r3, [pc, #132]	; (800b654 <system__finalization_masters__finalize+0xf8>)
 800b5ce:	681b      	ldr	r3, [r3, #0]
 800b5d0:	4798      	blx	r3
 800b5d2:	f1b9 0f00 	cmp.w	r9, #0
 800b5d6:	d002      	beq.n	800b5de <system__finalization_masters__finalize+0x82>
 800b5d8:	4668      	mov	r0, sp
 800b5da:	f7ff fa4f 	bl	800aa7c <ada__exceptions__reraise_occurrence>
 800b5de:	f50d 7d54 	add.w	sp, sp, #848	; 0x350
 800b5e2:	e8bd 87f0 	ldmia.w	sp!, {r4, r5, r6, r7, r8, r9, sl, pc}
 800b5e6:	f004 037f 	and.w	r3, r4, #127	; 0x7f
 800b5ea:	f858 3023 	ldr.w	r3, [r8, r3, lsl #2]
 800b5ee:	b913      	cbnz	r3, 800b5f6 <system__finalization_masters__finalize+0x9a>
 800b5f0:	e006      	b.n	800b600 <system__finalization_masters__finalize+0xa4>
 800b5f2:	689b      	ldr	r3, [r3, #8]
 800b5f4:	b123      	cbz	r3, 800b600 <system__finalization_masters__finalize+0xa4>
 800b5f6:	681a      	ldr	r2, [r3, #0]
 800b5f8:	4294      	cmp	r4, r2
 800b5fa:	d1fa      	bne.n	800b5f2 <system__finalization_masters__finalize+0x96>
 800b5fc:	685b      	ldr	r3, [r3, #4]
 800b5fe:	e7d7      	b.n	800b5b0 <system__finalization_masters__finalize+0x54>
 800b600:	2300      	movs	r3, #0
 800b602:	e7d5      	b.n	800b5b0 <system__finalization_masters__finalize+0x54>
 800b604:	4b13      	ldr	r3, [pc, #76]	; (800b654 <system__finalization_masters__finalize+0xf8>)
 800b606:	681b      	ldr	r3, [r3, #0]
 800b608:	4798      	blx	r3
 800b60a:	f50d 7d54 	add.w	sp, sp, #848	; 0x350
 800b60e:	e8bd 87f0 	ldmia.w	sp!, {r4, r5, r6, r7, r8, r9, sl, pc}
 800b612:	2901      	cmp	r1, #1
 800b614:	4682      	mov	sl, r0
 800b616:	d113      	bne.n	800b640 <system__finalization_masters__finalize+0xe4>
 800b618:	f7fe fff4 	bl	800a604 <__gnat_begin_handler>
 800b61c:	a86a      	add	r0, sp, #424	; 0x1a8
 800b61e:	4651      	mov	r1, sl
 800b620:	f7ff f810 	bl	800a644 <__gnat_set_exception_parameter>
 800b624:	f1b9 0f00 	cmp.w	r9, #0
 800b628:	d00c      	beq.n	800b644 <system__finalization_masters__finalize+0xe8>
 800b62a:	4650      	mov	r0, sl
 800b62c:	f7fe ffec 	bl	800a608 <__gnat_end_handler>
 800b630:	f04f 0901 	mov.w	r9, #1
 800b634:	e7be      	b.n	800b5b4 <system__finalization_masters__finalize+0x58>
 800b636:	4604      	mov	r4, r0
 800b638:	4650      	mov	r0, sl
 800b63a:	f7fe ffe5 	bl	800a608 <__gnat_end_handler>
 800b63e:	4620      	mov	r0, r4
 800b640:	f001 fa66 	bl	800cb10 <_Unwind_Resume>
 800b644:	4668      	mov	r0, sp
 800b646:	a96a      	add	r1, sp, #424	; 0x1a8
 800b648:	f7ff fa30 	bl	800aaac <ada__exceptions__save_occurrence>
 800b64c:	e7ed      	b.n	800b62a <system__finalization_masters__finalize+0xce>
 800b64e:	bf00      	nop
 800b650:	200001a4 	.word	0x200001a4
 800b654:	2000019c 	.word	0x2000019c
 800b658:	20004118 	.word	0x20004118

0800b65c <system__finalization_masters__finalization_masterDF__2>:
 800b65c:	f7ff bf7e 	b.w	800b55c <system__finalization_masters__finalize>

0800b660 <system__finalization_masters___elabb>:
 800b660:	4b04      	ldr	r3, [pc, #16]	; (800b674 <system__finalization_masters___elabb+0x14>)
 800b662:	2100      	movs	r1, #0
 800b664:	f503 7200 	add.w	r2, r3, #512	; 0x200
 800b668:	f843 1b04 	str.w	r1, [r3], #4
 800b66c:	4293      	cmp	r3, r2
 800b66e:	d1fb      	bne.n	800b668 <system__finalization_masters___elabb+0x8>
 800b670:	4770      	bx	lr
 800b672:	bf00      	nop
 800b674:	20004118 	.word	0x20004118

0800b678 <system__finalization_masters___elabs>:
 800b678:	4801      	ldr	r0, [pc, #4]	; (800b680 <system__finalization_masters___elabs+0x8>)
 800b67a:	f7fe babd 	b.w	8009bf8 <ada__tags__register_tag>
 800b67e:	bf00      	nop
 800b680:	08010620 	.word	0x08010620

0800b684 <abort>:
 800b684:	4b01      	ldr	r3, [pc, #4]	; (800b68c <abort+0x8>)
 800b686:	4a02      	ldr	r2, [pc, #8]	; (800b690 <abort+0xc>)
 800b688:	601a      	str	r2, [r3, #0]
 800b68a:	e7fe      	b.n	800b68a <abort+0x6>
 800b68c:	e000ed0c 	.word	0xe000ed0c
 800b690:	05fa0004 	.word	0x05fa0004

0800b694 <_exit>:
 800b694:	4b01      	ldr	r3, [pc, #4]	; (800b69c <_exit+0x8>)
 800b696:	4a02      	ldr	r2, [pc, #8]	; (800b6a0 <_exit+0xc>)
 800b698:	601a      	str	r2, [r3, #0]
 800b69a:	e7fe      	b.n	800b69a <_exit+0x6>
 800b69c:	e000ed0c 	.word	0xe000ed0c
 800b6a0:	05fa0004 	.word	0x05fa0004

0800b6a4 <_ada_setup_pll>:
 800b6a4:	b500      	push	{lr}
 800b6a6:	b085      	sub	sp, #20
 800b6a8:	496e      	ldr	r1, [pc, #440]	; (800b864 <_ada_setup_pll+0x1c0>)
 800b6aa:	4b6f      	ldr	r3, [pc, #444]	; (800b868 <_ada_setup_pll+0x1c4>)
 800b6ac:	680a      	ldr	r2, [r1, #0]
 800b6ae:	f042 5280 	orr.w	r2, r2, #268435456	; 0x10000000
 800b6b2:	600a      	str	r2, [r1, #0]
 800b6b4:	681a      	ldr	r2, [r3, #0]
 800b6b6:	f042 5280 	orr.w	r2, r2, #268435456	; 0x10000000
 800b6ba:	601a      	str	r2, [r3, #0]
 800b6bc:	681a      	ldr	r2, [r3, #0]
 800b6be:	f36f 721c 	bfc	r2, #28, #1
 800b6c2:	601a      	str	r2, [r3, #0]
 800b6c4:	f000 fa9c 	bl	800bc00 <system__bb__mcu_parameters__pwr_initialize>
 800b6c8:	4b68      	ldr	r3, [pc, #416]	; (800b86c <_ada_setup_pll+0x1c8>)
 800b6ca:	681a      	ldr	r2, [r3, #0]
 800b6cc:	f442 3280 	orr.w	r2, r2, #65536	; 0x10000
 800b6d0:	601a      	str	r2, [r3, #0]
 800b6d2:	681a      	ldr	r2, [r3, #0]
 800b6d4:	f36f 4292 	bfc	r2, #18, #1
 800b6d8:	601a      	str	r2, [r3, #0]
 800b6da:	681a      	ldr	r2, [r3, #0]
 800b6dc:	0391      	lsls	r1, r2, #14
 800b6de:	d5fc      	bpl.n	800b6da <_ada_setup_pll+0x36>
 800b6e0:	681a      	ldr	r2, [r3, #0]
 800b6e2:	4963      	ldr	r1, [pc, #396]	; (800b870 <_ada_setup_pll+0x1cc>)
 800b6e4:	f36f 6218 	bfc	r2, #24, #1
 800b6e8:	601a      	str	r2, [r3, #0]
 800b6ea:	9a03      	ldr	r2, [sp, #12]
 800b6ec:	f042 0203 	orr.w	r2, r2, #3
 800b6f0:	9203      	str	r2, [sp, #12]
 800b6f2:	9a03      	ldr	r2, [sp, #12]
 800b6f4:	f36f 0283 	bfc	r2, #2, #2
 800b6f8:	9203      	str	r2, [sp, #12]
 800b6fa:	9a03      	ldr	r2, [sp, #12]
 800b6fc:	f36f 1206 	bfc	r2, #4, #3
 800b700:	9203      	str	r2, [sp, #12]
 800b702:	9a03      	ldr	r2, [sp, #12]
 800b704:	f36f 12c7 	bfc	r2, #7, #1
 800b708:	9203      	str	r2, [sp, #12]
 800b70a:	9a03      	ldr	r2, [sp, #12]
 800b70c:	2014      	movs	r0, #20
 800b70e:	f360 220e 	bfi	r2, r0, #8, #7
 800b712:	9203      	str	r2, [sp, #12]
 800b714:	9a03      	ldr	r2, [sp, #12]
 800b716:	f36f 32cf 	bfc	r2, #15, #1
 800b71a:	9203      	str	r2, [sp, #12]
 800b71c:	9a03      	ldr	r2, [sp, #12]
 800b71e:	f36f 4210 	bfc	r2, #16, #1
 800b722:	9203      	str	r2, [sp, #12]
 800b724:	9a03      	ldr	r2, [sp, #12]
 800b726:	f36f 4251 	bfc	r2, #17, #1
 800b72a:	9203      	str	r2, [sp, #12]
 800b72c:	9a03      	ldr	r2, [sp, #12]
 800b72e:	f36f 4293 	bfc	r2, #18, #2
 800b732:	9203      	str	r2, [sp, #12]
 800b734:	9a03      	ldr	r2, [sp, #12]
 800b736:	f36f 5214 	bfc	r2, #20, #1
 800b73a:	9203      	str	r2, [sp, #12]
 800b73c:	9a03      	ldr	r2, [sp, #12]
 800b73e:	2001      	movs	r0, #1
 800b740:	f360 5256 	bfi	r2, r0, #21, #2
 800b744:	9203      	str	r2, [sp, #12]
 800b746:	9a03      	ldr	r2, [sp, #12]
 800b748:	f36f 52d7 	bfc	r2, #23, #1
 800b74c:	9203      	str	r2, [sp, #12]
 800b74e:	9a03      	ldr	r2, [sp, #12]
 800b750:	f042 7280 	orr.w	r2, r2, #16777216	; 0x1000000
 800b754:	9203      	str	r2, [sp, #12]
 800b756:	9a03      	ldr	r2, [sp, #12]
 800b758:	f36f 625a 	bfc	r2, #25, #2
 800b75c:	9203      	str	r2, [sp, #12]
 800b75e:	9a03      	ldr	r2, [sp, #12]
 800b760:	2007      	movs	r0, #7
 800b762:	f360 62df 	bfi	r2, r0, #27, #5
 800b766:	9203      	str	r2, [sp, #12]
 800b768:	9a03      	ldr	r2, [sp, #12]
 800b76a:	600a      	str	r2, [r1, #0]
 800b76c:	681a      	ldr	r2, [r3, #0]
 800b76e:	f042 7280 	orr.w	r2, r2, #16777216	; 0x1000000
 800b772:	601a      	str	r2, [r3, #0]
 800b774:	681a      	ldr	r2, [r3, #0]
 800b776:	0192      	lsls	r2, r2, #6
 800b778:	d5fc      	bpl.n	800b774 <_ada_setup_pll+0xd0>
 800b77a:	f000 fa43 	bl	800bc04 <system__bb__mcu_parameters__pwr_overdrive_enable>
 800b77e:	4b3d      	ldr	r3, [pc, #244]	; (800b874 <_ada_setup_pll+0x1d0>)
 800b780:	4a3d      	ldr	r2, [pc, #244]	; (800b878 <_ada_setup_pll+0x1d4>)
 800b782:	6819      	ldr	r1, [r3, #0]
 800b784:	f36f 2149 	bfc	r1, #9, #1
 800b788:	6019      	str	r1, [r3, #0]
 800b78a:	6819      	ldr	r1, [r3, #0]
 800b78c:	f36f 218a 	bfc	r1, #10, #1
 800b790:	6019      	str	r1, [r3, #0]
 800b792:	6819      	ldr	r1, [r3, #0]
 800b794:	f441 6100 	orr.w	r1, r1, #2048	; 0x800
 800b798:	6019      	str	r1, [r3, #0]
 800b79a:	6819      	ldr	r1, [r3, #0]
 800b79c:	f441 5180 	orr.w	r1, r1, #4096	; 0x1000
 800b7a0:	6019      	str	r1, [r3, #0]
 800b7a2:	9902      	ldr	r1, [sp, #8]
 800b7a4:	2005      	movs	r0, #5
 800b7a6:	f360 0102 	bfi	r1, r0, #0, #3
 800b7aa:	9102      	str	r1, [sp, #8]
 800b7ac:	9902      	ldr	r1, [sp, #8]
 800b7ae:	f36f 01c7 	bfc	r1, #3, #5
 800b7b2:	9102      	str	r1, [sp, #8]
 800b7b4:	9902      	ldr	r1, [sp, #8]
 800b7b6:	f441 7180 	orr.w	r1, r1, #256	; 0x100
 800b7ba:	9102      	str	r1, [sp, #8]
 800b7bc:	9902      	ldr	r1, [sp, #8]
 800b7be:	f441 7100 	orr.w	r1, r1, #512	; 0x200
 800b7c2:	9102      	str	r1, [sp, #8]
 800b7c4:	9902      	ldr	r1, [sp, #8]
 800b7c6:	f441 6180 	orr.w	r1, r1, #1024	; 0x400
 800b7ca:	9102      	str	r1, [sp, #8]
 800b7cc:	9902      	ldr	r1, [sp, #8]
 800b7ce:	f36f 21cb 	bfc	r1, #11, #1
 800b7d2:	9102      	str	r1, [sp, #8]
 800b7d4:	9902      	ldr	r1, [sp, #8]
 800b7d6:	f36f 310c 	bfc	r1, #12, #1
 800b7da:	9102      	str	r1, [sp, #8]
 800b7dc:	9902      	ldr	r1, [sp, #8]
 800b7de:	f36f 314d 	bfc	r1, #13, #1
 800b7e2:	9102      	str	r1, [sp, #8]
 800b7e4:	9902      	ldr	r1, [sp, #8]
 800b7e6:	f36f 318e 	bfc	r1, #14, #1
 800b7ea:	9102      	str	r1, [sp, #8]
 800b7ec:	9902      	ldr	r1, [sp, #8]
 800b7ee:	f36f 31df 	bfc	r1, #15, #17
 800b7f2:	9102      	str	r1, [sp, #8]
 800b7f4:	9902      	ldr	r1, [sp, #8]
 800b7f6:	6019      	str	r1, [r3, #0]
 800b7f8:	9b01      	ldr	r3, [sp, #4]
 800b7fa:	f043 0303 	orr.w	r3, r3, #3
 800b7fe:	9301      	str	r3, [sp, #4]
 800b800:	9b01      	ldr	r3, [sp, #4]
 800b802:	f36f 0383 	bfc	r3, #2, #2
 800b806:	9301      	str	r3, [sp, #4]
 800b808:	9b01      	ldr	r3, [sp, #4]
 800b80a:	f36f 1307 	bfc	r3, #4, #4
 800b80e:	9301      	str	r3, [sp, #4]
 800b810:	9b01      	ldr	r3, [sp, #4]
 800b812:	f36f 230d 	bfc	r3, #8, #6
 800b816:	9301      	str	r3, [sp, #4]
 800b818:	9b01      	ldr	r3, [sp, #4]
 800b81a:	f36f 338e 	bfc	r3, #14, #1
 800b81e:	9301      	str	r3, [sp, #4]
 800b820:	9b01      	ldr	r3, [sp, #4]
 800b822:	f36f 33cf 	bfc	r3, #15, #1
 800b826:	9301      	str	r3, [sp, #4]
 800b828:	9b01      	ldr	r3, [sp, #4]
 800b82a:	f36f 4317 	bfc	r3, #16, #8
 800b82e:	9301      	str	r3, [sp, #4]
 800b830:	9b01      	ldr	r3, [sp, #4]
 800b832:	f36f 631a 	bfc	r3, #24, #3
 800b836:	9301      	str	r3, [sp, #4]
 800b838:	9b01      	ldr	r3, [sp, #4]
 800b83a:	f36f 63db 	bfc	r3, #27, #1
 800b83e:	9301      	str	r3, [sp, #4]
 800b840:	9b01      	ldr	r3, [sp, #4]
 800b842:	f36f 731e 	bfc	r3, #28, #3
 800b846:	9301      	str	r3, [sp, #4]
 800b848:	9b01      	ldr	r3, [sp, #4]
 800b84a:	f36f 73df 	bfc	r3, #31, #1
 800b84e:	9301      	str	r3, [sp, #4]
 800b850:	9b01      	ldr	r3, [sp, #4]
 800b852:	6013      	str	r3, [r2, #0]
 800b854:	6813      	ldr	r3, [r2, #0]
 800b856:	f003 030c 	and.w	r3, r3, #12
 800b85a:	2b0c      	cmp	r3, #12
 800b85c:	d1fa      	bne.n	800b854 <_ada_setup_pll+0x1b0>
 800b85e:	b005      	add	sp, #20
 800b860:	f85d fb04 	ldr.w	pc, [sp], #4
 800b864:	40021058 	.word	0x40021058
 800b868:	40021038 	.word	0x40021038
 800b86c:	40021000 	.word	0x40021000
 800b870:	4002100c 	.word	0x4002100c
 800b874:	40022000 	.word	0x40022000
 800b878:	40021008 	.word	0x40021008

0800b87c <system__text_io__initialize>:
 800b87c:	e92d 4ff0 	stmdb	sp!, {r4, r5, r6, r7, r8, r9, sl, fp, lr}
 800b880:	b08b      	sub	sp, #44	; 0x2c
 800b882:	a804      	add	r0, sp, #16
 800b884:	f000 fadc 	bl	800be40 <system__stm32__system_clocks>
 800b888:	4bb3      	ldr	r3, [pc, #716]	; (800bb58 <system__text_io__initialize+0x2dc>)
 800b88a:	f8df 82e8 	ldr.w	r8, [pc, #744]	; 800bb74 <system__text_io__initialize+0x2f8>
 800b88e:	9a07      	ldr	r2, [sp, #28]
 800b890:	f8df a2e4 	ldr.w	sl, [pc, #740]	; 800bb78 <system__text_io__initialize+0x2fc>
 800b894:	4db1      	ldr	r5, [pc, #708]	; (800bb5c <system__text_io__initialize+0x2e0>)
 800b896:	4cb2      	ldr	r4, [pc, #712]	; (800bb60 <system__text_io__initialize+0x2e4>)
 800b898:	48b2      	ldr	r0, [pc, #712]	; (800bb64 <system__text_io__initialize+0x2e8>)
 800b89a:	49b3      	ldr	r1, [pc, #716]	; (800bb68 <system__text_io__initialize+0x2ec>)
 800b89c:	f8df 92dc 	ldr.w	r9, [pc, #732]	; 800bb7c <system__text_io__initialize+0x300>
 800b8a0:	f8df c2dc 	ldr.w	ip, [pc, #732]	; 800bb80 <system__text_io__initialize+0x304>
 800b8a4:	f8df e2dc 	ldr.w	lr, [pc, #732]	; 800bb84 <system__text_io__initialize+0x308>
 800b8a8:	4fb0      	ldr	r7, [pc, #704]	; (800bb6c <system__text_io__initialize+0x2f0>)
 800b8aa:	4eb1      	ldr	r6, [pc, #708]	; (800bb70 <system__text_io__initialize+0x2f4>)
 800b8ac:	f04f 0b01 	mov.w	fp, #1
 800b8b0:	f883 b000 	strb.w	fp, [r3]
 800b8b4:	f8d8 3000 	ldr.w	r3, [r8]
 800b8b8:	f443 4380 	orr.w	r3, r3, #16384	; 0x4000
 800b8bc:	f8c8 3000 	str.w	r3, [r8]
 800b8c0:	f8da 3000 	ldr.w	r3, [sl]
 800b8c4:	f04f 4890 	mov.w	r8, #1207959552	; 0x48000000
 800b8c8:	ea43 030b 	orr.w	r3, r3, fp
 800b8cc:	f8ca 3000 	str.w	r3, [sl]
 800b8d0:	f8d8 3000 	ldr.w	r3, [r8]
 800b8d4:	f8d8 a000 	ldr.w	sl, [r8]
 800b8d8:	f423 2340 	bic.w	r3, r3, #786432	; 0xc0000
 800b8dc:	f443 2300 	orr.w	r3, r3, #524288	; 0x80000
 800b8e0:	f8c8 3000 	str.w	r3, [r8]
 800b8e4:	f8d8 3000 	ldr.w	r3, [r8]
 800b8e8:	f8d8 a000 	ldr.w	sl, [r8]
 800b8ec:	f423 1340 	bic.w	r3, r3, #3145728	; 0x300000
 800b8f0:	f443 1300 	orr.w	r3, r3, #2097152	; 0x200000
 800b8f4:	f8c8 3000 	str.w	r3, [r8]
 800b8f8:	682b      	ldr	r3, [r5, #0]
 800b8fa:	f8d5 8000 	ldr.w	r8, [r5]
 800b8fe:	f423 2340 	bic.w	r3, r3, #786432	; 0xc0000
 800b902:	f443 2300 	orr.w	r3, r3, #524288	; 0x80000
 800b906:	602b      	str	r3, [r5, #0]
 800b908:	682b      	ldr	r3, [r5, #0]
 800b90a:	f8d5 8000 	ldr.w	r8, [r5]
 800b90e:	f423 1340 	bic.w	r3, r3, #3145728	; 0x300000
 800b912:	f443 1300 	orr.w	r3, r3, #2097152	; 0x200000
 800b916:	602b      	str	r3, [r5, #0]
 800b918:	6825      	ldr	r5, [r4, #0]
 800b91a:	6823      	ldr	r3, [r4, #0]
 800b91c:	f425 7500 	bic.w	r5, r5, #512	; 0x200
 800b920:	f365 030f 	bfi	r3, r5, #0, #16
 800b924:	6023      	str	r3, [r4, #0]
 800b926:	6825      	ldr	r5, [r4, #0]
 800b928:	6823      	ldr	r3, [r4, #0]
 800b92a:	f425 6580 	bic.w	r5, r5, #1024	; 0x400
 800b92e:	f365 030f 	bfi	r3, r5, #0, #16
 800b932:	6023      	str	r3, [r4, #0]
 800b934:	6803      	ldr	r3, [r0, #0]
 800b936:	6804      	ldr	r4, [r0, #0]
 800b938:	f423 2340 	bic.w	r3, r3, #786432	; 0xc0000
 800b93c:	f443 2380 	orr.w	r3, r3, #262144	; 0x40000
 800b940:	6003      	str	r3, [r0, #0]
 800b942:	6803      	ldr	r3, [r0, #0]
 800b944:	6804      	ldr	r4, [r0, #0]
 800b946:	f423 1340 	bic.w	r3, r3, #3145728	; 0x300000
 800b94a:	f443 1380 	orr.w	r3, r3, #1048576	; 0x100000
 800b94e:	6003      	str	r3, [r0, #0]
 800b950:	680b      	ldr	r3, [r1, #0]
 800b952:	6808      	ldr	r0, [r1, #0]
 800b954:	f023 03f0 	bic.w	r3, r3, #240	; 0xf0
 800b958:	f043 0370 	orr.w	r3, r3, #112	; 0x70
 800b95c:	600b      	str	r3, [r1, #0]
 800b95e:	680b      	ldr	r3, [r1, #0]
 800b960:	6808      	ldr	r0, [r1, #0]
 800b962:	f423 6370 	bic.w	r3, r3, #3840	; 0xf00
 800b966:	f443 63e0 	orr.w	r3, r3, #1792	; 0x700
 800b96a:	600b      	str	r3, [r1, #0]
 800b96c:	9900      	ldr	r1, [sp, #0]
 800b96e:	fba9 2302 	umull	r2, r3, r9, r2
 800b972:	460a      	mov	r2, r1
 800b974:	0c19      	lsrs	r1, r3, #16
 800b976:	f361 0203 	bfi	r2, r1, #0, #4
 800b97a:	9200      	str	r2, [sp, #0]
 800b97c:	9a00      	ldr	r2, [sp, #0]
 800b97e:	0d1b      	lsrs	r3, r3, #20
 800b980:	f363 120f 	bfi	r2, r3, #4, #12
 800b984:	9200      	str	r2, [sp, #0]
 800b986:	9b00      	ldr	r3, [sp, #0]
 800b988:	f36f 431f 	bfc	r3, #16, #16
 800b98c:	9300      	str	r3, [sp, #0]
 800b98e:	9b00      	ldr	r3, [sp, #0]
 800b990:	f8cc 3000 	str.w	r3, [ip]
 800b994:	9b01      	ldr	r3, [sp, #4]
 800b996:	ea43 030b 	orr.w	r3, r3, fp
 800b99a:	9301      	str	r3, [sp, #4]
 800b99c:	9b01      	ldr	r3, [sp, #4]
 800b99e:	f36f 0341 	bfc	r3, #1, #1
 800b9a2:	9301      	str	r3, [sp, #4]
 800b9a4:	9b01      	ldr	r3, [sp, #4]
 800b9a6:	f043 0304 	orr.w	r3, r3, #4
 800b9aa:	9301      	str	r3, [sp, #4]
 800b9ac:	9b01      	ldr	r3, [sp, #4]
 800b9ae:	f043 0308 	orr.w	r3, r3, #8
 800b9b2:	9301      	str	r3, [sp, #4]
 800b9b4:	9b01      	ldr	r3, [sp, #4]
 800b9b6:	f36f 1304 	bfc	r3, #4, #1
 800b9ba:	9301      	str	r3, [sp, #4]
 800b9bc:	9b01      	ldr	r3, [sp, #4]
 800b9be:	f36f 1345 	bfc	r3, #5, #1
 800b9c2:	9301      	str	r3, [sp, #4]
 800b9c4:	9b01      	ldr	r3, [sp, #4]
 800b9c6:	f36f 1386 	bfc	r3, #6, #1
 800b9ca:	9301      	str	r3, [sp, #4]
 800b9cc:	9b01      	ldr	r3, [sp, #4]
 800b9ce:	f36f 13c7 	bfc	r3, #7, #1
 800b9d2:	9301      	str	r3, [sp, #4]
 800b9d4:	9b01      	ldr	r3, [sp, #4]
 800b9d6:	f36f 2308 	bfc	r3, #8, #1
 800b9da:	9301      	str	r3, [sp, #4]
 800b9dc:	9b01      	ldr	r3, [sp, #4]
 800b9de:	f36f 2349 	bfc	r3, #9, #1
 800b9e2:	9301      	str	r3, [sp, #4]
 800b9e4:	9b01      	ldr	r3, [sp, #4]
 800b9e6:	f36f 238a 	bfc	r3, #10, #1
 800b9ea:	9301      	str	r3, [sp, #4]
 800b9ec:	9b01      	ldr	r3, [sp, #4]
 800b9ee:	f36f 23cb 	bfc	r3, #11, #1
 800b9f2:	9301      	str	r3, [sp, #4]
 800b9f4:	9b01      	ldr	r3, [sp, #4]
 800b9f6:	f36f 330c 	bfc	r3, #12, #1
 800b9fa:	9301      	str	r3, [sp, #4]
 800b9fc:	9b01      	ldr	r3, [sp, #4]
 800b9fe:	f36f 334d 	bfc	r3, #13, #1
 800ba02:	9301      	str	r3, [sp, #4]
 800ba04:	9b01      	ldr	r3, [sp, #4]
 800ba06:	f36f 338e 	bfc	r3, #14, #1
 800ba0a:	9301      	str	r3, [sp, #4]
 800ba0c:	9b01      	ldr	r3, [sp, #4]
 800ba0e:	f36f 33cf 	bfc	r3, #15, #1
 800ba12:	9301      	str	r3, [sp, #4]
 800ba14:	9b01      	ldr	r3, [sp, #4]
 800ba16:	f36f 4314 	bfc	r3, #16, #5
 800ba1a:	9301      	str	r3, [sp, #4]
 800ba1c:	9b01      	ldr	r3, [sp, #4]
 800ba1e:	f36f 5359 	bfc	r3, #21, #5
 800ba22:	9301      	str	r3, [sp, #4]
 800ba24:	9b01      	ldr	r3, [sp, #4]
 800ba26:	f36f 639a 	bfc	r3, #26, #1
 800ba2a:	9301      	str	r3, [sp, #4]
 800ba2c:	9b01      	ldr	r3, [sp, #4]
 800ba2e:	f36f 63db 	bfc	r3, #27, #1
 800ba32:	9301      	str	r3, [sp, #4]
 800ba34:	9b01      	ldr	r3, [sp, #4]
 800ba36:	f36f 731c 	bfc	r3, #28, #1
 800ba3a:	9301      	str	r3, [sp, #4]
 800ba3c:	9b01      	ldr	r3, [sp, #4]
 800ba3e:	f36f 735f 	bfc	r3, #29, #3
 800ba42:	9301      	str	r3, [sp, #4]
 800ba44:	9b01      	ldr	r3, [sp, #4]
 800ba46:	f8ce 3000 	str.w	r3, [lr]
 800ba4a:	9b02      	ldr	r3, [sp, #8]
 800ba4c:	f36f 0303 	bfc	r3, #0, #4
 800ba50:	9302      	str	r3, [sp, #8]
 800ba52:	9b02      	ldr	r3, [sp, #8]
 800ba54:	f36f 1304 	bfc	r3, #4, #1
 800ba58:	9302      	str	r3, [sp, #8]
 800ba5a:	9b02      	ldr	r3, [sp, #8]
 800ba5c:	f36f 1345 	bfc	r3, #5, #1
 800ba60:	9302      	str	r3, [sp, #8]
 800ba62:	9b02      	ldr	r3, [sp, #8]
 800ba64:	f36f 1386 	bfc	r3, #6, #1
 800ba68:	9302      	str	r3, [sp, #8]
 800ba6a:	9b02      	ldr	r3, [sp, #8]
 800ba6c:	f36f 13c7 	bfc	r3, #7, #1
 800ba70:	9302      	str	r3, [sp, #8]
 800ba72:	9b02      	ldr	r3, [sp, #8]
 800ba74:	f36f 2308 	bfc	r3, #8, #1
 800ba78:	9302      	str	r3, [sp, #8]
 800ba7a:	9b02      	ldr	r3, [sp, #8]
 800ba7c:	f36f 2349 	bfc	r3, #9, #1
 800ba80:	9302      	str	r3, [sp, #8]
 800ba82:	9b02      	ldr	r3, [sp, #8]
 800ba84:	f36f 238a 	bfc	r3, #10, #1
 800ba88:	9302      	str	r3, [sp, #8]
 800ba8a:	9b02      	ldr	r3, [sp, #8]
 800ba8c:	f36f 23cb 	bfc	r3, #11, #1
 800ba90:	9302      	str	r3, [sp, #8]
 800ba92:	9b02      	ldr	r3, [sp, #8]
 800ba94:	f36f 330d 	bfc	r3, #12, #2
 800ba98:	9302      	str	r3, [sp, #8]
 800ba9a:	9b02      	ldr	r3, [sp, #8]
 800ba9c:	f36f 338e 	bfc	r3, #14, #1
 800baa0:	9302      	str	r3, [sp, #8]
 800baa2:	9b02      	ldr	r3, [sp, #8]
 800baa4:	f36f 33cf 	bfc	r3, #15, #1
 800baa8:	9302      	str	r3, [sp, #8]
 800baaa:	9b02      	ldr	r3, [sp, #8]
 800baac:	f36f 4310 	bfc	r3, #16, #1
 800bab0:	9302      	str	r3, [sp, #8]
 800bab2:	9b02      	ldr	r3, [sp, #8]
 800bab4:	f36f 4351 	bfc	r3, #17, #1
 800bab8:	9302      	str	r3, [sp, #8]
 800baba:	9b02      	ldr	r3, [sp, #8]
 800babc:	f36f 4392 	bfc	r3, #18, #1
 800bac0:	9302      	str	r3, [sp, #8]
 800bac2:	9b02      	ldr	r3, [sp, #8]
 800bac4:	f36f 43d3 	bfc	r3, #19, #1
 800bac8:	9302      	str	r3, [sp, #8]
 800baca:	9b02      	ldr	r3, [sp, #8]
 800bacc:	f36f 5314 	bfc	r3, #20, #1
 800bad0:	9302      	str	r3, [sp, #8]
 800bad2:	9b02      	ldr	r3, [sp, #8]
 800bad4:	f36f 5356 	bfc	r3, #21, #2
 800bad8:	9302      	str	r3, [sp, #8]
 800bada:	9b02      	ldr	r3, [sp, #8]
 800badc:	f36f 53d7 	bfc	r3, #23, #1
 800bae0:	9302      	str	r3, [sp, #8]
 800bae2:	9b02      	ldr	r3, [sp, #8]
 800bae4:	f36f 631b 	bfc	r3, #24, #4
 800bae8:	9302      	str	r3, [sp, #8]
 800baea:	9b02      	ldr	r3, [sp, #8]
 800baec:	f36f 731f 	bfc	r3, #28, #4
 800baf0:	9302      	str	r3, [sp, #8]
 800baf2:	9b02      	ldr	r3, [sp, #8]
 800baf4:	603b      	str	r3, [r7, #0]
 800baf6:	9b03      	ldr	r3, [sp, #12]
 800baf8:	f36f 0300 	bfc	r3, #0, #1
 800bafc:	9303      	str	r3, [sp, #12]
 800bafe:	9b03      	ldr	r3, [sp, #12]
 800bb00:	f36f 0341 	bfc	r3, #1, #1
 800bb04:	9303      	str	r3, [sp, #12]
 800bb06:	9b03      	ldr	r3, [sp, #12]
 800bb08:	f36f 0382 	bfc	r3, #2, #1
 800bb0c:	9303      	str	r3, [sp, #12]
 800bb0e:	9b03      	ldr	r3, [sp, #12]
 800bb10:	f36f 03c3 	bfc	r3, #3, #1
 800bb14:	9303      	str	r3, [sp, #12]
 800bb16:	9b03      	ldr	r3, [sp, #12]
 800bb18:	f36f 1304 	bfc	r3, #4, #1
 800bb1c:	9303      	str	r3, [sp, #12]
 800bb1e:	9b03      	ldr	r3, [sp, #12]
 800bb20:	f36f 1345 	bfc	r3, #5, #1
 800bb24:	9303      	str	r3, [sp, #12]
 800bb26:	9b03      	ldr	r3, [sp, #12]
 800bb28:	f36f 1386 	bfc	r3, #6, #1
 800bb2c:	9303      	str	r3, [sp, #12]
 800bb2e:	9b03      	ldr	r3, [sp, #12]
 800bb30:	f36f 13c7 	bfc	r3, #7, #1
 800bb34:	9303      	str	r3, [sp, #12]
 800bb36:	9b03      	ldr	r3, [sp, #12]
 800bb38:	f36f 2308 	bfc	r3, #8, #1
 800bb3c:	9303      	str	r3, [sp, #12]
 800bb3e:	9b03      	ldr	r3, [sp, #12]
 800bb40:	f36f 2349 	bfc	r3, #9, #1
 800bb44:	9303      	str	r3, [sp, #12]
 800bb46:	9b03      	ldr	r3, [sp, #12]
 800bb48:	f36f 238a 	bfc	r3, #10, #1
 800bb4c:	9303      	str	r3, [sp, #12]
 800bb4e:	9b03      	ldr	r3, [sp, #12]
 800bb50:	f36f 23cb 	bfc	r3, #11, #1
 800bb54:	e018      	b.n	800bb88 <system__text_io__initialize+0x30c>
 800bb56:	bf00      	nop
 800bb58:	200002c8 	.word	0x200002c8
 800bb5c:	48000008 	.word	0x48000008
 800bb60:	48000004 	.word	0x48000004
 800bb64:	4800000c 	.word	0x4800000c
 800bb68:	48000024 	.word	0x48000024
 800bb6c:	40013804 	.word	0x40013804
 800bb70:	40013808 	.word	0x40013808
 800bb74:	40021060 	.word	0x40021060
 800bb78:	4002104c 	.word	0x4002104c
 800bb7c:	91a2b3c5 	.word	0x91a2b3c5
 800bb80:	4001380c 	.word	0x4001380c
 800bb84:	40013800 	.word	0x40013800
 800bb88:	9303      	str	r3, [sp, #12]
 800bb8a:	9b03      	ldr	r3, [sp, #12]
 800bb8c:	f36f 330c 	bfc	r3, #12, #1
 800bb90:	9303      	str	r3, [sp, #12]
 800bb92:	9b03      	ldr	r3, [sp, #12]
 800bb94:	f36f 334d 	bfc	r3, #13, #1
 800bb98:	9303      	str	r3, [sp, #12]
 800bb9a:	9b03      	ldr	r3, [sp, #12]
 800bb9c:	f36f 338e 	bfc	r3, #14, #1
 800bba0:	9303      	str	r3, [sp, #12]
 800bba2:	9b03      	ldr	r3, [sp, #12]
 800bba4:	f36f 33cf 	bfc	r3, #15, #1
 800bba8:	9303      	str	r3, [sp, #12]
 800bbaa:	9b03      	ldr	r3, [sp, #12]
 800bbac:	f36f 4310 	bfc	r3, #16, #1
 800bbb0:	9303      	str	r3, [sp, #12]
 800bbb2:	9b03      	ldr	r3, [sp, #12]
 800bbb4:	f36f 4353 	bfc	r3, #17, #3
 800bbb8:	9303      	str	r3, [sp, #12]
 800bbba:	9b03      	ldr	r3, [sp, #12]
 800bbbc:	f36f 5315 	bfc	r3, #20, #2
 800bbc0:	9303      	str	r3, [sp, #12]
 800bbc2:	9b03      	ldr	r3, [sp, #12]
 800bbc4:	f36f 5396 	bfc	r3, #22, #1
 800bbc8:	9303      	str	r3, [sp, #12]
 800bbca:	9b03      	ldr	r3, [sp, #12]
 800bbcc:	f36f 53df 	bfc	r3, #23, #9
 800bbd0:	9303      	str	r3, [sp, #12]
 800bbd2:	9b03      	ldr	r3, [sp, #12]
 800bbd4:	6033      	str	r3, [r6, #0]
 800bbd6:	b00b      	add	sp, #44	; 0x2c
 800bbd8:	e8bd 8ff0 	ldmia.w	sp!, {r4, r5, r6, r7, r8, r9, sl, fp, pc}

0800bbdc <system__text_io__is_tx_ready>:
 800bbdc:	4b02      	ldr	r3, [pc, #8]	; (800bbe8 <system__text_io__is_tx_ready+0xc>)
 800bbde:	6818      	ldr	r0, [r3, #0]
 800bbe0:	f3c0 1080 	ubfx	r0, r0, #6, #1
 800bbe4:	4770      	bx	lr
 800bbe6:	bf00      	nop
 800bbe8:	4001381c 	.word	0x4001381c

0800bbec <system__text_io__put>:
 800bbec:	4a02      	ldr	r2, [pc, #8]	; (800bbf8 <system__text_io__put+0xc>)
 800bbee:	6813      	ldr	r3, [r2, #0]
 800bbf0:	f360 0308 	bfi	r3, r0, #0, #9
 800bbf4:	6013      	str	r3, [r2, #0]
 800bbf6:	4770      	bx	lr
 800bbf8:	40013828 	.word	0x40013828

0800bbfc <system__text_io__use_cr_lf_for_new_line>:
 800bbfc:	2001      	movs	r0, #1
 800bbfe:	4770      	bx	lr

0800bc00 <system__bb__mcu_parameters__pwr_initialize>:
 800bc00:	4770      	bx	lr
 800bc02:	bf00      	nop

0800bc04 <system__bb__mcu_parameters__pwr_overdrive_enable>:
 800bc04:	4770      	bx	lr
 800bc06:	bf00      	nop

0800bc08 <__gnat_get_executable_load_address>:
 800bc08:	2000      	movs	r0, #0
 800bc0a:	4770      	bx	lr

0800bc0c <_ada_system__address_image>:
 800bc0c:	e92d 41f0 	stmdb	sp!, {r4, r5, r6, r7, r8, lr}
 800bc10:	b084      	sub	sp, #16
 800bc12:	4680      	mov	r8, r0
 800bc14:	2010      	movs	r0, #16
 800bc16:	460d      	mov	r5, r1
 800bc18:	f7ff fa92 	bl	800b140 <system__secondary_stack__ss_allocate>
 800bc1c:	4b0f      	ldr	r3, [pc, #60]	; (800bc5c <_ada_system__address_image+0x50>)
 800bc1e:	4c10      	ldr	r4, [pc, #64]	; (800bc60 <_ada_system__address_image+0x54>)
 800bc20:	9503      	str	r5, [sp, #12]
 800bc22:	4606      	mov	r6, r0
 800bc24:	e893 0003 	ldmia.w	r3, {r0, r1}
 800bc28:	f106 0708 	add.w	r7, r6, #8
 800bc2c:	e886 0003 	stmia.w	r6, {r0, r1}
 800bc30:	4633      	mov	r3, r6
 800bc32:	9501      	str	r5, [sp, #4]
 800bc34:	f10d 010f 	add.w	r1, sp, #15
 800bc38:	f811 2901 	ldrb.w	r2, [r1], #-1
 800bc3c:	0915      	lsrs	r5, r2, #4
 800bc3e:	f002 020f 	and.w	r2, r2, #15
 800bc42:	5d65      	ldrb	r5, [r4, r5]
 800bc44:	5ca2      	ldrb	r2, [r4, r2]
 800bc46:	721d      	strb	r5, [r3, #8]
 800bc48:	725a      	strb	r2, [r3, #9]
 800bc4a:	3302      	adds	r3, #2
 800bc4c:	42bb      	cmp	r3, r7
 800bc4e:	d1f3      	bne.n	800bc38 <_ada_system__address_image+0x2c>
 800bc50:	e888 0048 	stmia.w	r8, {r3, r6}
 800bc54:	4640      	mov	r0, r8
 800bc56:	b004      	add	sp, #16
 800bc58:	e8bd 81f0 	ldmia.w	sp!, {r4, r5, r6, r7, r8, pc}
 800bc5c:	080106b0 	.word	0x080106b0
 800bc60:	080106b8 	.word	0x080106b8

0800bc64 <system__img_bool__image_boolean>:
 800bc64:	681b      	ldr	r3, [r3, #0]
 800bc66:	b960      	cbnz	r0, 800bc82 <system__img_bool__image_boolean+0x1e>
 800bc68:	b410      	push	{r4}
 800bc6a:	4909      	ldr	r1, [pc, #36]	; (800bc90 <system__img_bool__image_boolean+0x2c>)
 800bc6c:	f1c3 0301 	rsb	r3, r3, #1
 800bc70:	6808      	ldr	r0, [r1, #0]
 800bc72:	7909      	ldrb	r1, [r1, #4]
 800bc74:	50d0      	str	r0, [r2, r3]
 800bc76:	18d4      	adds	r4, r2, r3
 800bc78:	2005      	movs	r0, #5
 800bc7a:	7121      	strb	r1, [r4, #4]
 800bc7c:	f85d 4b04 	ldr.w	r4, [sp], #4
 800bc80:	4770      	bx	lr
 800bc82:	4904      	ldr	r1, [pc, #16]	; (800bc94 <system__img_bool__image_boolean+0x30>)
 800bc84:	f1c3 0301 	rsb	r3, r3, #1
 800bc88:	6808      	ldr	r0, [r1, #0]
 800bc8a:	50d0      	str	r0, [r2, r3]
 800bc8c:	2004      	movs	r0, #4
 800bc8e:	4770      	bx	lr
 800bc90:	080106cc 	.word	0x080106cc
 800bc94:	080106c8 	.word	0x080106c8

0800bc98 <system__io__put__2>:
 800bc98:	b510      	push	{r4, lr}
 800bc9a:	4b08      	ldr	r3, [pc, #32]	; (800bcbc <system__io__put__2+0x24>)
 800bc9c:	781b      	ldrb	r3, [r3, #0]
 800bc9e:	4604      	mov	r4, r0
 800bca0:	b143      	cbz	r3, 800bcb4 <system__io__put__2+0x1c>
 800bca2:	f7ff ff9b 	bl	800bbdc <system__text_io__is_tx_ready>
 800bca6:	2800      	cmp	r0, #0
 800bca8:	d0fb      	beq.n	800bca2 <system__io__put__2+0xa>
 800bcaa:	4620      	mov	r0, r4
 800bcac:	e8bd 4010 	ldmia.w	sp!, {r4, lr}
 800bcb0:	f7ff bf9c 	b.w	800bbec <system__text_io__put>
 800bcb4:	f7ff fde2 	bl	800b87c <system__text_io__initialize>
 800bcb8:	e7f3      	b.n	800bca2 <system__io__put__2+0xa>
 800bcba:	bf00      	nop
 800bcbc:	200002c8 	.word	0x200002c8

0800bcc0 <system__io__new_line>:
 800bcc0:	b538      	push	{r3, r4, r5, lr}
 800bcc2:	4605      	mov	r5, r0
 800bcc4:	2400      	movs	r4, #0
 800bcc6:	e004      	b.n	800bcd2 <system__io__new_line+0x12>
 800bcc8:	200a      	movs	r0, #10
 800bcca:	f7ff ffe5 	bl	800bc98 <system__io__put__2>
 800bcce:	42ac      	cmp	r4, r5
 800bcd0:	d00c      	beq.n	800bcec <system__io__new_line+0x2c>
 800bcd2:	3401      	adds	r4, #1
 800bcd4:	f7ff ff92 	bl	800bbfc <system__text_io__use_cr_lf_for_new_line>
 800bcd8:	2800      	cmp	r0, #0
 800bcda:	d0f5      	beq.n	800bcc8 <system__io__new_line+0x8>
 800bcdc:	200d      	movs	r0, #13
 800bcde:	f7ff ffdb 	bl	800bc98 <system__io__put__2>
 800bce2:	200a      	movs	r0, #10
 800bce4:	f7ff ffd8 	bl	800bc98 <system__io__put__2>
 800bce8:	42ac      	cmp	r4, r5
 800bcea:	d1f2      	bne.n	800bcd2 <system__io__new_line+0x12>
 800bcec:	bd38      	pop	{r3, r4, r5, pc}
 800bcee:	bf00      	nop

0800bcf0 <system__io__put__3>:
 800bcf0:	b570      	push	{r4, r5, r6, lr}
 800bcf2:	e891 0050 	ldmia.w	r1, {r4, r6}
 800bcf6:	42b4      	cmp	r4, r6
 800bcf8:	dc07      	bgt.n	800bd0a <system__io__put__3+0x1a>
 800bcfa:	1b05      	subs	r5, r0, r4
 800bcfc:	3c01      	subs	r4, #1
 800bcfe:	3401      	adds	r4, #1
 800bd00:	5d28      	ldrb	r0, [r5, r4]
 800bd02:	f7ff ffc9 	bl	800bc98 <system__io__put__2>
 800bd06:	42b4      	cmp	r4, r6
 800bd08:	d1f9      	bne.n	800bcfe <system__io__put__3+0xe>
 800bd0a:	bd70      	pop	{r4, r5, r6, pc}

0800bd0c <put_char_stderr>:
 800bd0c:	f7ff bfc4 	b.w	800bc98 <system__io__put__2>

0800bd10 <system__io__put_line>:
 800bd10:	b508      	push	{r3, lr}
 800bd12:	f7ff ffed 	bl	800bcf0 <system__io__put__3>
 800bd16:	2001      	movs	r0, #1
 800bd18:	e8bd 4008 	ldmia.w	sp!, {r3, lr}
 800bd1c:	f7ff bfd0 	b.w	800bcc0 <system__io__new_line>

0800bd20 <memmove>:
 800bd20:	b372      	cbz	r2, 800bd80 <memmove+0x60>
 800bd22:	b470      	push	{r4, r5, r6}
 800bd24:	4288      	cmp	r0, r1
 800bd26:	d81f      	bhi.n	800bd68 <memmove+0x48>
 800bd28:	ea40 0301 	orr.w	r3, r0, r1
 800bd2c:	079b      	lsls	r3, r3, #30
 800bd2e:	d128      	bne.n	800bd82 <memmove+0x62>
 800bd30:	2a03      	cmp	r2, #3
 800bd32:	d926      	bls.n	800bd82 <memmove+0x62>
 800bd34:	1f14      	subs	r4, r2, #4
 800bd36:	f024 0403 	bic.w	r4, r4, #3
 800bd3a:	1d0b      	adds	r3, r1, #4
 800bd3c:	4423      	add	r3, r4
 800bd3e:	4605      	mov	r5, r0
 800bd40:	f851 6b04 	ldr.w	r6, [r1], #4
 800bd44:	f845 6b04 	str.w	r6, [r5], #4
 800bd48:	4299      	cmp	r1, r3
 800bd4a:	d1f9      	bne.n	800bd40 <memmove+0x20>
 800bd4c:	1d01      	adds	r1, r0, #4
 800bd4e:	f012 0203 	ands.w	r2, r2, #3
 800bd52:	4421      	add	r1, r4
 800bd54:	d006      	beq.n	800bd64 <memmove+0x44>
 800bd56:	441a      	add	r2, r3
 800bd58:	f813 4b01 	ldrb.w	r4, [r3], #1
 800bd5c:	f801 4b01 	strb.w	r4, [r1], #1
 800bd60:	4293      	cmp	r3, r2
 800bd62:	d1f9      	bne.n	800bd58 <memmove+0x38>
 800bd64:	bc70      	pop	{r4, r5, r6}
 800bd66:	4770      	bx	lr
 800bd68:	188b      	adds	r3, r1, r2
 800bd6a:	4298      	cmp	r0, r3
 800bd6c:	d2dc      	bcs.n	800bd28 <memmove+0x8>
 800bd6e:	4402      	add	r2, r0
 800bd70:	f813 4d01 	ldrb.w	r4, [r3, #-1]!
 800bd74:	f802 4d01 	strb.w	r4, [r2, #-1]!
 800bd78:	428b      	cmp	r3, r1
 800bd7a:	d1f9      	bne.n	800bd70 <memmove+0x50>
 800bd7c:	bc70      	pop	{r4, r5, r6}
 800bd7e:	4770      	bx	lr
 800bd80:	4770      	bx	lr
 800bd82:	460b      	mov	r3, r1
 800bd84:	4601      	mov	r1, r0
 800bd86:	e7e6      	b.n	800bd56 <memmove+0x36>

0800bd88 <system__exceptions__machine__new_occurrence>:
 800bd88:	b510      	push	{r4, lr}
 800bd8a:	f44f 7000 	mov.w	r0, #512	; 0x200
 800bd8e:	f7ff f889 	bl	800aea4 <__gnat_malloc>
 800bd92:	4908      	ldr	r1, [pc, #32]	; (800bdb4 <system__exceptions__machine__new_occurrence+0x2c>)
 800bd94:	2258      	movs	r2, #88	; 0x58
 800bd96:	4604      	mov	r4, r0
 800bd98:	f7fe ff70 	bl	800ac7c <memcpy>
 800bd9c:	2300      	movs	r3, #0
 800bd9e:	65a3      	str	r3, [r4, #88]	; 0x58
 800bda0:	6623      	str	r3, [r4, #96]	; 0x60
 800bda2:	f884 312c 	strb.w	r3, [r4, #300]	; 0x12c
 800bda6:	f8c4 3130 	str.w	r3, [r4, #304]	; 0x130
 800bdaa:	f8c4 3134 	str.w	r3, [r4, #308]	; 0x134
 800bdae:	4620      	mov	r0, r4
 800bdb0:	bd10      	pop	{r4, pc}
 800bdb2:	bf00      	nop
 800bdb4:	080106d8 	.word	0x080106d8

0800bdb8 <system__traceback__backtrace_callback>:
 800bdb8:	694b      	ldr	r3, [r1, #20]
 800bdba:	2b00      	cmp	r3, #0
 800bdbc:	dd03      	ble.n	800bdc6 <system__traceback__backtrace_callback+0xe>
 800bdbe:	3b01      	subs	r3, #1
 800bdc0:	2000      	movs	r0, #0
 800bdc2:	614b      	str	r3, [r1, #20]
 800bdc4:	4770      	bx	lr
 800bdc6:	688a      	ldr	r2, [r1, #8]
 800bdc8:	684b      	ldr	r3, [r1, #4]
 800bdca:	429a      	cmp	r2, r3
 800bdcc:	db01      	blt.n	800bdd2 <system__traceback__backtrace_callback+0x1a>
 800bdce:	2000      	movs	r0, #0
 800bdd0:	4770      	bx	lr
 800bdd2:	b510      	push	{r4, lr}
 800bdd4:	b084      	sub	sp, #16
 800bdd6:	ab03      	add	r3, sp, #12
 800bdd8:	460c      	mov	r4, r1
 800bdda:	2100      	movs	r1, #0
 800bddc:	9300      	str	r3, [sp, #0]
 800bdde:	220f      	movs	r2, #15
 800bde0:	460b      	mov	r3, r1
 800bde2:	f000 fad7 	bl	800c394 <_Unwind_VRS_Get>
 800bde6:	b110      	cbz	r0, 800bdee <system__traceback__backtrace_callback+0x36>
 800bde8:	2006      	movs	r0, #6
 800bdea:	b004      	add	sp, #16
 800bdec:	bd10      	pop	{r4, pc}
 800bdee:	68e2      	ldr	r2, [r4, #12]
 800bdf0:	9b03      	ldr	r3, [sp, #12]
 800bdf2:	429a      	cmp	r2, r3
 800bdf4:	d802      	bhi.n	800bdfc <system__traceback__backtrace_callback+0x44>
 800bdf6:	6922      	ldr	r2, [r4, #16]
 800bdf8:	4293      	cmp	r3, r2
 800bdfa:	d907      	bls.n	800be0c <system__traceback__backtrace_callback+0x54>
 800bdfc:	68a2      	ldr	r2, [r4, #8]
 800bdfe:	6821      	ldr	r1, [r4, #0]
 800be00:	1c50      	adds	r0, r2, #1
 800be02:	60a0      	str	r0, [r4, #8]
 800be04:	2000      	movs	r0, #0
 800be06:	f841 3022 	str.w	r3, [r1, r2, lsl #2]
 800be0a:	e7ee      	b.n	800bdea <system__traceback__backtrace_callback+0x32>
 800be0c:	2000      	movs	r0, #0
 800be0e:	e7ec      	b.n	800bdea <system__traceback__backtrace_callback+0x32>

0800be10 <system__traceback__call_chain>:
 800be10:	b530      	push	{r4, r5, lr}
 800be12:	b087      	sub	sp, #28
 800be14:	990b      	ldr	r1, [sp, #44]	; 0x2c
 800be16:	9000      	str	r0, [sp, #0]
 800be18:	1c4c      	adds	r4, r1, #1
 800be1a:	9d0a      	ldr	r5, [sp, #40]	; 0x28
 800be1c:	9201      	str	r2, [sp, #4]
 800be1e:	4669      	mov	r1, sp
 800be20:	2200      	movs	r2, #0
 800be22:	4805      	ldr	r0, [pc, #20]	; (800be38 <system__traceback__call_chain+0x28>)
 800be24:	9303      	str	r3, [sp, #12]
 800be26:	9405      	str	r4, [sp, #20]
 800be28:	9504      	str	r5, [sp, #16]
 800be2a:	9202      	str	r2, [sp, #8]
 800be2c:	f000 fea6 	bl	800cb7c <_Unwind_Backtrace>
 800be30:	9802      	ldr	r0, [sp, #8]
 800be32:	b007      	add	sp, #28
 800be34:	bd30      	pop	{r4, r5, pc}
 800be36:	bf00      	nop
 800be38:	0800bdb9 	.word	0x0800bdb9

0800be3c <system__traceback_entries__pc_for>:
 800be3c:	4770      	bx	lr
 800be3e:	bf00      	nop

0800be40 <system__stm32__system_clocks>:
 800be40:	b4f0      	push	{r4, r5, r6, r7}
 800be42:	4c3c      	ldr	r4, [pc, #240]	; (800bf34 <system__stm32__system_clocks+0xf4>)
 800be44:	6823      	ldr	r3, [r4, #0]
 800be46:	f3c3 0381 	ubfx	r3, r3, #2, #2
 800be4a:	2b01      	cmp	r3, #1
 800be4c:	d060      	beq.n	800bf10 <system__stm32__system_clocks+0xd0>
 800be4e:	d35c      	bcc.n	800bf0a <system__stm32__system_clocks+0xca>
 800be50:	2b02      	cmp	r3, #2
 800be52:	d141      	bne.n	800bed8 <system__stm32__system_clocks+0x98>
 800be54:	4938      	ldr	r1, [pc, #224]	; (800bf38 <system__stm32__system_clocks+0xf8>)
 800be56:	6001      	str	r1, [r0, #0]
 800be58:	6822      	ldr	r2, [r4, #0]
 800be5a:	f04f 0300 	mov.w	r3, #0
 800be5e:	f3c2 1203 	ubfx	r2, r2, #4, #4
 800be62:	f362 0303 	bfi	r3, r2, #0, #4
 800be66:	f003 0207 	and.w	r2, r3, #7
 800be6a:	071b      	lsls	r3, r3, #28
 800be6c:	bf44      	itt	mi
 800be6e:	4b33      	ldrmi	r3, [pc, #204]	; (800bf3c <system__stm32__system_clocks+0xfc>)
 800be70:	f853 6022 	ldrmi.w	r6, [r3, r2, lsl #2]
 800be74:	6822      	ldr	r2, [r4, #0]
 800be76:	f04f 0300 	mov.w	r3, #0
 800be7a:	f3c2 2205 	ubfx	r2, r2, #8, #6
 800be7e:	f362 0302 	bfi	r3, r2, #0, #3
 800be82:	f3c3 0580 	ubfx	r5, r3, #2, #1
 800be86:	bf58      	it	pl
 800be88:	2601      	movpl	r6, #1
 800be8a:	f003 0303 	and.w	r3, r3, #3
 800be8e:	2d00      	cmp	r5, #0
 800be90:	d039      	beq.n	800bf06 <system__stm32__system_clocks+0xc6>
 800be92:	4a2b      	ldr	r2, [pc, #172]	; (800bf40 <system__stm32__system_clocks+0x100>)
 800be94:	f852 2023 	ldr.w	r2, [r2, r3, lsl #2]
 800be98:	6824      	ldr	r4, [r4, #0]
 800be9a:	f04f 0300 	mov.w	r3, #0
 800be9e:	f3c4 24c2 	ubfx	r4, r4, #11, #3
 800bea2:	f364 0302 	bfi	r3, r4, #0, #3
 800bea6:	f3c3 0480 	ubfx	r4, r3, #2, #1
 800beaa:	f003 0303 	and.w	r3, r3, #3
 800beae:	b344      	cbz	r4, 800bf02 <system__stm32__system_clocks+0xc2>
 800beb0:	4f23      	ldr	r7, [pc, #140]	; (800bf40 <system__stm32__system_clocks+0x100>)
 800beb2:	f857 3023 	ldr.w	r3, [r7, r3, lsl #2]
 800beb6:	fbb1 f1f6 	udiv	r1, r1, r6
 800beba:	fbb1 f2f2 	udiv	r2, r1, r2
 800bebe:	fbb1 f3f3 	udiv	r3, r1, r3
 800bec2:	6082      	str	r2, [r0, #8]
 800bec4:	60c3      	str	r3, [r0, #12]
 800bec6:	6041      	str	r1, [r0, #4]
 800bec8:	b105      	cbz	r5, 800becc <system__stm32__system_clocks+0x8c>
 800beca:	0052      	lsls	r2, r2, #1
 800becc:	6102      	str	r2, [r0, #16]
 800bece:	b104      	cbz	r4, 800bed2 <system__stm32__system_clocks+0x92>
 800bed0:	005b      	lsls	r3, r3, #1
 800bed2:	6143      	str	r3, [r0, #20]
 800bed4:	bcf0      	pop	{r4, r5, r6, r7}
 800bed6:	4770      	bx	lr
 800bed8:	4a1a      	ldr	r2, [pc, #104]	; (800bf44 <system__stm32__system_clocks+0x104>)
 800beda:	6813      	ldr	r3, [r2, #0]
 800bedc:	6811      	ldr	r1, [r2, #0]
 800bede:	6812      	ldr	r2, [r2, #0]
 800bee0:	f002 0203 	and.w	r2, r2, #3
 800bee4:	f3c3 1302 	ubfx	r3, r3, #4, #3
 800bee8:	2a02      	cmp	r2, #2
 800beea:	f103 0301 	add.w	r3, r3, #1
 800beee:	f3c1 2106 	ubfx	r1, r1, #8, #7
 800bef2:	d010      	beq.n	800bf16 <system__stm32__system_clocks+0xd6>
 800bef4:	d816      	bhi.n	800bf24 <system__stm32__system_clocks+0xe4>
 800bef6:	2a01      	cmp	r2, #1
 800bef8:	4913      	ldr	r1, [pc, #76]	; (800bf48 <system__stm32__system_clocks+0x108>)
 800befa:	bf18      	it	ne
 800befc:	2100      	movne	r1, #0
 800befe:	6001      	str	r1, [r0, #0]
 800bf00:	e7aa      	b.n	800be58 <system__stm32__system_clocks+0x18>
 800bf02:	2301      	movs	r3, #1
 800bf04:	e7d7      	b.n	800beb6 <system__stm32__system_clocks+0x76>
 800bf06:	2201      	movs	r2, #1
 800bf08:	e7c6      	b.n	800be98 <system__stm32__system_clocks+0x58>
 800bf0a:	4910      	ldr	r1, [pc, #64]	; (800bf4c <system__stm32__system_clocks+0x10c>)
 800bf0c:	6001      	str	r1, [r0, #0]
 800bf0e:	e7a3      	b.n	800be58 <system__stm32__system_clocks+0x18>
 800bf10:	490f      	ldr	r1, [pc, #60]	; (800bf50 <system__stm32__system_clocks+0x110>)
 800bf12:	6001      	str	r1, [r0, #0]
 800bf14:	e7a0      	b.n	800be58 <system__stm32__system_clocks+0x18>
 800bf16:	4a0e      	ldr	r2, [pc, #56]	; (800bf50 <system__stm32__system_clocks+0x110>)
 800bf18:	fbb2 f3f3 	udiv	r3, r2, r3
 800bf1c:	fb01 f103 	mul.w	r1, r1, r3
 800bf20:	0849      	lsrs	r1, r1, #1
 800bf22:	e7ec      	b.n	800befe <system__stm32__system_clocks+0xbe>
 800bf24:	4a04      	ldr	r2, [pc, #16]	; (800bf38 <system__stm32__system_clocks+0xf8>)
 800bf26:	fbb2 f3f3 	udiv	r3, r2, r3
 800bf2a:	fb01 f103 	mul.w	r1, r1, r3
 800bf2e:	0849      	lsrs	r1, r1, #1
 800bf30:	e7e5      	b.n	800befe <system__stm32__system_clocks+0xbe>
 800bf32:	bf00      	nop
 800bf34:	40021008 	.word	0x40021008
 800bf38:	007a1200 	.word	0x007a1200
 800bf3c:	08010730 	.word	0x08010730
 800bf40:	08010750 	.word	0x08010750
 800bf44:	4002100c 	.word	0x4002100c
 800bf48:	09896800 	.word	0x09896800
 800bf4c:	003d0900 	.word	0x003d0900
 800bf50:	00f42400 	.word	0x00f42400

0800bf54 <__aeabi_ldivmod>:
 800bf54:	b97b      	cbnz	r3, 800bf76 <__aeabi_ldivmod+0x22>
 800bf56:	b972      	cbnz	r2, 800bf76 <__aeabi_ldivmod+0x22>
 800bf58:	2900      	cmp	r1, #0
 800bf5a:	bfbe      	ittt	lt
 800bf5c:	2000      	movlt	r0, #0
 800bf5e:	f04f 4100 	movlt.w	r1, #2147483648	; 0x80000000
 800bf62:	e006      	blt.n	800bf72 <__aeabi_ldivmod+0x1e>
 800bf64:	bf08      	it	eq
 800bf66:	2800      	cmpeq	r0, #0
 800bf68:	bf1c      	itt	ne
 800bf6a:	f06f 4100 	mvnne.w	r1, #2147483648	; 0x80000000
 800bf6e:	f04f 30ff 	movne.w	r0, #4294967295
 800bf72:	f000 bfcf 	b.w	800cf14 <__aeabi_idiv0>
 800bf76:	b082      	sub	sp, #8
 800bf78:	46ec      	mov	ip, sp
 800bf7a:	e92d 5000 	stmdb	sp!, {ip, lr}
 800bf7e:	f000 f805 	bl	800bf8c <__gnu_ldivmod_helper>
 800bf82:	f8dd e004 	ldr.w	lr, [sp, #4]
 800bf86:	b002      	add	sp, #8
 800bf88:	bc0c      	pop	{r2, r3}
 800bf8a:	4770      	bx	lr

0800bf8c <__gnu_ldivmod_helper>:
 800bf8c:	e92d 41f0 	stmdb	sp!, {r4, r5, r6, r7, r8, lr}
 800bf90:	9c06      	ldr	r4, [sp, #24]
 800bf92:	4690      	mov	r8, r2
 800bf94:	4606      	mov	r6, r0
 800bf96:	460f      	mov	r7, r1
 800bf98:	461d      	mov	r5, r3
 800bf9a:	f000 ffbd 	bl	800cf18 <__divdi3>
 800bf9e:	fb08 fc01 	mul.w	ip, r8, r1
 800bfa2:	fba8 2300 	umull	r2, r3, r8, r0
 800bfa6:	fb00 c505 	mla	r5, r0, r5, ip
 800bfaa:	1ab2      	subs	r2, r6, r2
 800bfac:	442b      	add	r3, r5
 800bfae:	eb67 0303 	sbc.w	r3, r7, r3
 800bfb2:	4686      	mov	lr, r0
 800bfb4:	e9c4 2300 	strd	r2, r3, [r4]
 800bfb8:	e8bd 81f0 	ldmia.w	sp!, {r4, r5, r6, r7, r8, pc}

0800bfbc <__gnu_uldivmod_helper>:
 800bfbc:	e92d 43f8 	stmdb	sp!, {r3, r4, r5, r6, r7, r8, r9, lr}
 800bfc0:	9e08      	ldr	r6, [sp, #32]
 800bfc2:	4617      	mov	r7, r2
 800bfc4:	4680      	mov	r8, r0
 800bfc6:	4689      	mov	r9, r1
 800bfc8:	461d      	mov	r5, r3
 800bfca:	f001 f8fb 	bl	800d1c4 <__udivdi3>
 800bfce:	fb00 f305 	mul.w	r3, r0, r5
 800bfd2:	fba0 4507 	umull	r4, r5, r0, r7
 800bfd6:	fb07 3701 	mla	r7, r7, r1, r3
 800bfda:	ebb8 0404 	subs.w	r4, r8, r4
 800bfde:	443d      	add	r5, r7
 800bfe0:	eb69 0505 	sbc.w	r5, r9, r5
 800bfe4:	e9c6 4500 	strd	r4, r5, [r6]
 800bfe8:	e8bd 83f8 	ldmia.w	sp!, {r3, r4, r5, r6, r7, r8, r9, pc}

0800bfec <selfrel_offset31>:
 800bfec:	6803      	ldr	r3, [r0, #0]
 800bfee:	005a      	lsls	r2, r3, #1
 800bff0:	bf4c      	ite	mi
 800bff2:	f043 4300 	orrmi.w	r3, r3, #2147483648	; 0x80000000
 800bff6:	f023 4300 	bicpl.w	r3, r3, #2147483648	; 0x80000000
 800bffa:	4418      	add	r0, r3
 800bffc:	4770      	bx	lr
 800bffe:	bf00      	nop

0800c000 <search_EIT_table>:
 800c000:	e92d 4ff0 	stmdb	sp!, {r4, r5, r6, r7, r8, r9, sl, fp, lr}
 800c004:	b083      	sub	sp, #12
 800c006:	b369      	cbz	r1, 800c064 <search_EIT_table+0x64>
 800c008:	1e4b      	subs	r3, r1, #1
 800c00a:	4617      	mov	r7, r2
 800c00c:	4605      	mov	r5, r0
 800c00e:	4698      	mov	r8, r3
 800c010:	2600      	movs	r6, #0
 800c012:	9301      	str	r3, [sp, #4]
 800c014:	eb06 0408 	add.w	r4, r6, r8
 800c018:	eb04 74d4 	add.w	r4, r4, r4, lsr #31
 800c01c:	1064      	asrs	r4, r4, #1
 800c01e:	ea4f 0ac4 	mov.w	sl, r4, lsl #3
 800c022:	eb05 0b0a 	add.w	fp, r5, sl
 800c026:	4658      	mov	r0, fp
 800c028:	f7ff ffe0 	bl	800bfec <selfrel_offset31>
 800c02c:	9b01      	ldr	r3, [sp, #4]
 800c02e:	4681      	mov	r9, r0
 800c030:	42a3      	cmp	r3, r4
 800c032:	f10a 0008 	add.w	r0, sl, #8
 800c036:	4428      	add	r0, r5
 800c038:	d00e      	beq.n	800c058 <search_EIT_table+0x58>
 800c03a:	f7ff ffd7 	bl	800bfec <selfrel_offset31>
 800c03e:	45b9      	cmp	r9, r7
 800c040:	f100 33ff 	add.w	r3, r0, #4294967295
 800c044:	d904      	bls.n	800c050 <search_EIT_table+0x50>
 800c046:	42b4      	cmp	r4, r6
 800c048:	d00c      	beq.n	800c064 <search_EIT_table+0x64>
 800c04a:	f104 38ff 	add.w	r8, r4, #4294967295
 800c04e:	e7e1      	b.n	800c014 <search_EIT_table+0x14>
 800c050:	42bb      	cmp	r3, r7
 800c052:	d203      	bcs.n	800c05c <search_EIT_table+0x5c>
 800c054:	1c66      	adds	r6, r4, #1
 800c056:	e7dd      	b.n	800c014 <search_EIT_table+0x14>
 800c058:	45b9      	cmp	r9, r7
 800c05a:	d8f4      	bhi.n	800c046 <search_EIT_table+0x46>
 800c05c:	4658      	mov	r0, fp
 800c05e:	b003      	add	sp, #12
 800c060:	e8bd 8ff0 	ldmia.w	sp!, {r4, r5, r6, r7, r8, r9, sl, fp, pc}
 800c064:	f04f 0b00 	mov.w	fp, #0
 800c068:	4658      	mov	r0, fp
 800c06a:	b003      	add	sp, #12
 800c06c:	e8bd 8ff0 	ldmia.w	sp!, {r4, r5, r6, r7, r8, r9, sl, fp, pc}

0800c070 <__gnu_unwind_get_pr_addr>:
 800c070:	2801      	cmp	r0, #1
 800c072:	d009      	beq.n	800c088 <__gnu_unwind_get_pr_addr+0x18>
 800c074:	2802      	cmp	r0, #2
 800c076:	d005      	beq.n	800c084 <__gnu_unwind_get_pr_addr+0x14>
 800c078:	4b04      	ldr	r3, [pc, #16]	; (800c08c <__gnu_unwind_get_pr_addr+0x1c>)
 800c07a:	2800      	cmp	r0, #0
 800c07c:	bf0c      	ite	eq
 800c07e:	4618      	moveq	r0, r3
 800c080:	2000      	movne	r0, #0
 800c082:	4770      	bx	lr
 800c084:	4802      	ldr	r0, [pc, #8]	; (800c090 <__gnu_unwind_get_pr_addr+0x20>)
 800c086:	4770      	bx	lr
 800c088:	4802      	ldr	r0, [pc, #8]	; (800c094 <__gnu_unwind_get_pr_addr+0x24>)
 800c08a:	4770      	bx	lr
 800c08c:	0800c779 	.word	0x0800c779
 800c090:	0800c781 	.word	0x0800c781
 800c094:	0800c77d 	.word	0x0800c77d

0800c098 <get_eit_entry>:
 800c098:	b530      	push	{r4, r5, lr}
 800c09a:	4b22      	ldr	r3, [pc, #136]	; (800c124 <get_eit_entry+0x8c>)
 800c09c:	b083      	sub	sp, #12
 800c09e:	4604      	mov	r4, r0
 800c0a0:	1e8d      	subs	r5, r1, #2
 800c0a2:	b353      	cbz	r3, 800c0fa <get_eit_entry+0x62>
 800c0a4:	4628      	mov	r0, r5
 800c0a6:	a901      	add	r1, sp, #4
 800c0a8:	f3af 8000 	nop.w
 800c0ac:	b300      	cbz	r0, 800c0f0 <get_eit_entry+0x58>
 800c0ae:	9901      	ldr	r1, [sp, #4]
 800c0b0:	462a      	mov	r2, r5
 800c0b2:	f7ff ffa5 	bl	800c000 <search_EIT_table>
 800c0b6:	4605      	mov	r5, r0
 800c0b8:	b1d0      	cbz	r0, 800c0f0 <get_eit_entry+0x58>
 800c0ba:	f7ff ff97 	bl	800bfec <selfrel_offset31>
 800c0be:	686b      	ldr	r3, [r5, #4]
 800c0c0:	64a0      	str	r0, [r4, #72]	; 0x48
 800c0c2:	2b01      	cmp	r3, #1
 800c0c4:	d00f      	beq.n	800c0e6 <get_eit_entry+0x4e>
 800c0c6:	2b00      	cmp	r3, #0
 800c0c8:	db1e      	blt.n	800c108 <get_eit_entry+0x70>
 800c0ca:	1d28      	adds	r0, r5, #4
 800c0cc:	f7ff ff8e 	bl	800bfec <selfrel_offset31>
 800c0d0:	2300      	movs	r3, #0
 800c0d2:	64e0      	str	r0, [r4, #76]	; 0x4c
 800c0d4:	6523      	str	r3, [r4, #80]	; 0x50
 800c0d6:	6803      	ldr	r3, [r0, #0]
 800c0d8:	2b00      	cmp	r3, #0
 800c0da:	db1a      	blt.n	800c112 <get_eit_entry+0x7a>
 800c0dc:	f7ff ff86 	bl	800bfec <selfrel_offset31>
 800c0e0:	6120      	str	r0, [r4, #16]
 800c0e2:	2000      	movs	r0, #0
 800c0e4:	e002      	b.n	800c0ec <get_eit_entry+0x54>
 800c0e6:	2300      	movs	r3, #0
 800c0e8:	2005      	movs	r0, #5
 800c0ea:	6123      	str	r3, [r4, #16]
 800c0ec:	b003      	add	sp, #12
 800c0ee:	bd30      	pop	{r4, r5, pc}
 800c0f0:	2300      	movs	r3, #0
 800c0f2:	2009      	movs	r0, #9
 800c0f4:	6123      	str	r3, [r4, #16]
 800c0f6:	b003      	add	sp, #12
 800c0f8:	bd30      	pop	{r4, r5, pc}
 800c0fa:	490b      	ldr	r1, [pc, #44]	; (800c128 <get_eit_entry+0x90>)
 800c0fc:	4b0b      	ldr	r3, [pc, #44]	; (800c12c <get_eit_entry+0x94>)
 800c0fe:	4608      	mov	r0, r1
 800c100:	1a5b      	subs	r3, r3, r1
 800c102:	10d9      	asrs	r1, r3, #3
 800c104:	9101      	str	r1, [sp, #4]
 800c106:	e7d3      	b.n	800c0b0 <get_eit_entry+0x18>
 800c108:	2301      	movs	r3, #1
 800c10a:	1d28      	adds	r0, r5, #4
 800c10c:	64e0      	str	r0, [r4, #76]	; 0x4c
 800c10e:	6523      	str	r3, [r4, #80]	; 0x50
 800c110:	e7e1      	b.n	800c0d6 <get_eit_entry+0x3e>
 800c112:	f3c3 6003 	ubfx	r0, r3, #24, #4
 800c116:	f7ff ffab 	bl	800c070 <__gnu_unwind_get_pr_addr>
 800c11a:	6120      	str	r0, [r4, #16]
 800c11c:	2800      	cmp	r0, #0
 800c11e:	d1e0      	bne.n	800c0e2 <get_eit_entry+0x4a>
 800c120:	2009      	movs	r0, #9
 800c122:	e7e3      	b.n	800c0ec <get_eit_entry+0x54>
 800c124:	00000000 	.word	0x00000000
 800c128:	0800dd9c 	.word	0x0800dd9c
 800c12c:	0800e99c 	.word	0x0800e99c

0800c130 <restore_non_core_regs>:
 800c130:	6803      	ldr	r3, [r0, #0]
 800c132:	b510      	push	{r4, lr}
 800c134:	07da      	lsls	r2, r3, #31
 800c136:	4604      	mov	r4, r0
 800c138:	d406      	bmi.n	800c148 <restore_non_core_regs+0x18>
 800c13a:	079b      	lsls	r3, r3, #30
 800c13c:	f100 0048 	add.w	r0, r0, #72	; 0x48
 800c140:	d509      	bpl.n	800c156 <restore_non_core_regs+0x26>
 800c142:	f000 fc6b 	bl	800ca1c <__gnu_Unwind_Restore_VFP_D>
 800c146:	6823      	ldr	r3, [r4, #0]
 800c148:	0759      	lsls	r1, r3, #29
 800c14a:	d509      	bpl.n	800c160 <restore_non_core_regs+0x30>
 800c14c:	071a      	lsls	r2, r3, #28
 800c14e:	d50e      	bpl.n	800c16e <restore_non_core_regs+0x3e>
 800c150:	06db      	lsls	r3, r3, #27
 800c152:	d513      	bpl.n	800c17c <restore_non_core_regs+0x4c>
 800c154:	bd10      	pop	{r4, pc}
 800c156:	f000 fc59 	bl	800ca0c <__gnu_Unwind_Restore_VFP>
 800c15a:	6823      	ldr	r3, [r4, #0]
 800c15c:	0759      	lsls	r1, r3, #29
 800c15e:	d4f5      	bmi.n	800c14c <restore_non_core_regs+0x1c>
 800c160:	f104 00d0 	add.w	r0, r4, #208	; 0xd0
 800c164:	f000 fc62 	bl	800ca2c <__gnu_Unwind_Restore_VFP_D_16_to_31>
 800c168:	6823      	ldr	r3, [r4, #0]
 800c16a:	071a      	lsls	r2, r3, #28
 800c16c:	d4f0      	bmi.n	800c150 <restore_non_core_regs+0x20>
 800c16e:	f504 70a8 	add.w	r0, r4, #336	; 0x150
 800c172:	f000 fc63 	bl	800ca3c <__gnu_Unwind_Restore_WMMXD>
 800c176:	6823      	ldr	r3, [r4, #0]
 800c178:	06db      	lsls	r3, r3, #27
 800c17a:	d4eb      	bmi.n	800c154 <restore_non_core_regs+0x24>
 800c17c:	f504 70e8 	add.w	r0, r4, #464	; 0x1d0
 800c180:	e8bd 4010 	ldmia.w	sp!, {r4, lr}
 800c184:	f000 bc9e 	b.w	800cac4 <__gnu_Unwind_Restore_WMMXC>

0800c188 <_Unwind_decode_typeinfo_ptr.isra.0>:
 800c188:	6803      	ldr	r3, [r0, #0]
 800c18a:	b103      	cbz	r3, 800c18e <_Unwind_decode_typeinfo_ptr.isra.0+0x6>
 800c18c:	4403      	add	r3, r0
 800c18e:	4618      	mov	r0, r3
 800c190:	4770      	bx	lr
 800c192:	bf00      	nop

0800c194 <__gnu_unwind_24bit.isra.1>:
 800c194:	2009      	movs	r0, #9
 800c196:	4770      	bx	lr

0800c198 <_Unwind_DebugHook>:
 800c198:	4770      	bx	lr
 800c19a:	bf00      	nop

0800c19c <unwind_phase2>:
 800c19c:	b570      	push	{r4, r5, r6, lr}
 800c19e:	4604      	mov	r4, r0
 800c1a0:	460d      	mov	r5, r1
 800c1a2:	e008      	b.n	800c1b6 <unwind_phase2+0x1a>
 800c1a4:	6c2a      	ldr	r2, [r5, #64]	; 0x40
 800c1a6:	6923      	ldr	r3, [r4, #16]
 800c1a8:	6162      	str	r2, [r4, #20]
 800c1aa:	2001      	movs	r0, #1
 800c1ac:	4621      	mov	r1, r4
 800c1ae:	462a      	mov	r2, r5
 800c1b0:	4798      	blx	r3
 800c1b2:	2808      	cmp	r0, #8
 800c1b4:	d108      	bne.n	800c1c8 <unwind_phase2+0x2c>
 800c1b6:	4620      	mov	r0, r4
 800c1b8:	6c29      	ldr	r1, [r5, #64]	; 0x40
 800c1ba:	f7ff ff6d 	bl	800c098 <get_eit_entry>
 800c1be:	4606      	mov	r6, r0
 800c1c0:	2800      	cmp	r0, #0
 800c1c2:	d0ef      	beq.n	800c1a4 <unwind_phase2+0x8>
 800c1c4:	f7ff fa5e 	bl	800b684 <abort>
 800c1c8:	2807      	cmp	r0, #7
 800c1ca:	d1fb      	bne.n	800c1c4 <unwind_phase2+0x28>
 800c1cc:	4630      	mov	r0, r6
 800c1ce:	6c29      	ldr	r1, [r5, #64]	; 0x40
 800c1d0:	f7ff ffe2 	bl	800c198 <_Unwind_DebugHook>
 800c1d4:	1d28      	adds	r0, r5, #4
 800c1d6:	f000 fc0d 	bl	800c9f4 <__restore_core_regs>
 800c1da:	bf00      	nop

0800c1dc <unwind_phase2_forced>:
 800c1dc:	e92d 47f0 	stmdb	sp!, {r4, r5, r6, r7, r8, r9, sl, lr}
 800c1e0:	4605      	mov	r5, r0
 800c1e2:	2700      	movs	r7, #0
 800c1e4:	f5ad 7d72 	sub.w	sp, sp, #968	; 0x3c8
 800c1e8:	ae03      	add	r6, sp, #12
 800c1ea:	1d0c      	adds	r4, r1, #4
 800c1ec:	4692      	mov	sl, r2
 800c1ee:	cc0f      	ldmia	r4!, {r0, r1, r2, r3}
 800c1f0:	c60f      	stmia	r6!, {r0, r1, r2, r3}
 800c1f2:	cc0f      	ldmia	r4!, {r0, r1, r2, r3}
 800c1f4:	c60f      	stmia	r6!, {r0, r1, r2, r3}
 800c1f6:	cc0f      	ldmia	r4!, {r0, r1, r2, r3}
 800c1f8:	c60f      	stmia	r6!, {r0, r1, r2, r3}
 800c1fa:	e894 000f 	ldmia.w	r4, {r0, r1, r2, r3}
 800c1fe:	ac02      	add	r4, sp, #8
 800c200:	f8d5 800c 	ldr.w	r8, [r5, #12]
 800c204:	f8d5 9018 	ldr.w	r9, [r5, #24]
 800c208:	e886 000f 	stmia.w	r6, {r0, r1, r2, r3}
 800c20c:	4628      	mov	r0, r5
 800c20e:	6c21      	ldr	r1, [r4, #64]	; 0x40
 800c210:	6027      	str	r7, [r4, #0]
 800c212:	f7ff ff41 	bl	800c098 <get_eit_entry>
 800c216:	f1ba 0f00 	cmp.w	sl, #0
 800c21a:	4607      	mov	r7, r0
 800c21c:	bf0c      	ite	eq
 800c21e:	2609      	moveq	r6, #9
 800c220:	260a      	movne	r6, #10
 800c222:	b17f      	cbz	r7, 800c244 <unwind_phase2_forced+0x68>
 800c224:	6ba3      	ldr	r3, [r4, #56]	; 0x38
 800c226:	f046 0110 	orr.w	r1, r6, #16
 800c22a:	e88d 0210 	stmia.w	sp, {r4, r9}
 800c22e:	2001      	movs	r0, #1
 800c230:	6463      	str	r3, [r4, #68]	; 0x44
 800c232:	462a      	mov	r2, r5
 800c234:	462b      	mov	r3, r5
 800c236:	47c0      	blx	r8
 800c238:	bb78      	cbnz	r0, 800c29a <unwind_phase2_forced+0xbe>
 800c23a:	4638      	mov	r0, r7
 800c23c:	f50d 7d72 	add.w	sp, sp, #968	; 0x3c8
 800c240:	e8bd 87f0 	ldmia.w	sp!, {r4, r5, r6, r7, r8, r9, sl, pc}
 800c244:	6c23      	ldr	r3, [r4, #64]	; 0x40
 800c246:	4621      	mov	r1, r4
 800c248:	616b      	str	r3, [r5, #20]
 800c24a:	f44f 72f0 	mov.w	r2, #480	; 0x1e0
 800c24e:	a87a      	add	r0, sp, #488	; 0x1e8
 800c250:	f7fe fd14 	bl	800ac7c <memcpy>
 800c254:	692b      	ldr	r3, [r5, #16]
 800c256:	4629      	mov	r1, r5
 800c258:	aa7a      	add	r2, sp, #488	; 0x1e8
 800c25a:	4630      	mov	r0, r6
 800c25c:	4798      	blx	r3
 800c25e:	9b88      	ldr	r3, [sp, #544]	; 0x220
 800c260:	4682      	mov	sl, r0
 800c262:	e88d 0210 	stmia.w	sp, {r4, r9}
 800c266:	4631      	mov	r1, r6
 800c268:	6463      	str	r3, [r4, #68]	; 0x44
 800c26a:	2001      	movs	r0, #1
 800c26c:	462a      	mov	r2, r5
 800c26e:	462b      	mov	r3, r5
 800c270:	47c0      	blx	r8
 800c272:	b990      	cbnz	r0, 800c29a <unwind_phase2_forced+0xbe>
 800c274:	4620      	mov	r0, r4
 800c276:	a97a      	add	r1, sp, #488	; 0x1e8
 800c278:	f44f 72f0 	mov.w	r2, #480	; 0x1e0
 800c27c:	f7fe fcfe 	bl	800ac7c <memcpy>
 800c280:	f1ba 0f08 	cmp.w	sl, #8
 800c284:	d106      	bne.n	800c294 <unwind_phase2_forced+0xb8>
 800c286:	4628      	mov	r0, r5
 800c288:	6c21      	ldr	r1, [r4, #64]	; 0x40
 800c28a:	f7ff ff05 	bl	800c098 <get_eit_entry>
 800c28e:	2609      	movs	r6, #9
 800c290:	4607      	mov	r7, r0
 800c292:	e7c6      	b.n	800c222 <unwind_phase2_forced+0x46>
 800c294:	f1ba 0f07 	cmp.w	sl, #7
 800c298:	d005      	beq.n	800c2a6 <unwind_phase2_forced+0xca>
 800c29a:	2709      	movs	r7, #9
 800c29c:	4638      	mov	r0, r7
 800c29e:	f50d 7d72 	add.w	sp, sp, #968	; 0x3c8
 800c2a2:	e8bd 87f0 	ldmia.w	sp!, {r4, r5, r6, r7, r8, r9, sl, pc}
 800c2a6:	4638      	mov	r0, r7
 800c2a8:	6c21      	ldr	r1, [r4, #64]	; 0x40
 800c2aa:	f7ff ff75 	bl	800c198 <_Unwind_DebugHook>
 800c2ae:	a803      	add	r0, sp, #12
 800c2b0:	f000 fba0 	bl	800c9f4 <__restore_core_regs>

0800c2b4 <_Unwind_GetCFA>:
 800c2b4:	6c40      	ldr	r0, [r0, #68]	; 0x44
 800c2b6:	4770      	bx	lr

0800c2b8 <__gnu_Unwind_RaiseException>:
 800c2b8:	b5f0      	push	{r4, r5, r6, r7, lr}
 800c2ba:	f04f 3eff 	mov.w	lr, #4294967295
 800c2be:	6bcb      	ldr	r3, [r1, #60]	; 0x3c
 800c2c0:	b0f9      	sub	sp, #484	; 0x1e4
 800c2c2:	640b      	str	r3, [r1, #64]	; 0x40
 800c2c4:	1d0e      	adds	r6, r1, #4
 800c2c6:	ad01      	add	r5, sp, #4
 800c2c8:	460f      	mov	r7, r1
 800c2ca:	4604      	mov	r4, r0
 800c2cc:	ce0f      	ldmia	r6!, {r0, r1, r2, r3}
 800c2ce:	c50f      	stmia	r5!, {r0, r1, r2, r3}
 800c2d0:	ce0f      	ldmia	r6!, {r0, r1, r2, r3}
 800c2d2:	c50f      	stmia	r5!, {r0, r1, r2, r3}
 800c2d4:	ce0f      	ldmia	r6!, {r0, r1, r2, r3}
 800c2d6:	c50f      	stmia	r5!, {r0, r1, r2, r3}
 800c2d8:	e896 000f 	ldmia.w	r6, {r0, r1, r2, r3}
 800c2dc:	e885 000f 	stmia.w	r5, {r0, r1, r2, r3}
 800c2e0:	f8cd e000 	str.w	lr, [sp]
 800c2e4:	e006      	b.n	800c2f4 <__gnu_Unwind_RaiseException+0x3c>
 800c2e6:	6923      	ldr	r3, [r4, #16]
 800c2e8:	4621      	mov	r1, r4
 800c2ea:	466a      	mov	r2, sp
 800c2ec:	4798      	blx	r3
 800c2ee:	2808      	cmp	r0, #8
 800c2f0:	4605      	mov	r5, r0
 800c2f2:	d108      	bne.n	800c306 <__gnu_Unwind_RaiseException+0x4e>
 800c2f4:	4620      	mov	r0, r4
 800c2f6:	9910      	ldr	r1, [sp, #64]	; 0x40
 800c2f8:	f7ff fece 	bl	800c098 <get_eit_entry>
 800c2fc:	2800      	cmp	r0, #0
 800c2fe:	d0f2      	beq.n	800c2e6 <__gnu_Unwind_RaiseException+0x2e>
 800c300:	2009      	movs	r0, #9
 800c302:	b079      	add	sp, #484	; 0x1e4
 800c304:	bdf0      	pop	{r4, r5, r6, r7, pc}
 800c306:	4668      	mov	r0, sp
 800c308:	f7ff ff12 	bl	800c130 <restore_non_core_regs>
 800c30c:	2d06      	cmp	r5, #6
 800c30e:	d1f7      	bne.n	800c300 <__gnu_Unwind_RaiseException+0x48>
 800c310:	4620      	mov	r0, r4
 800c312:	4639      	mov	r1, r7
 800c314:	f7ff ff42 	bl	800c19c <unwind_phase2>

0800c318 <__gnu_Unwind_ForcedUnwind>:
 800c318:	b430      	push	{r4, r5}
 800c31a:	6bdd      	ldr	r5, [r3, #60]	; 0x3c
 800c31c:	60c1      	str	r1, [r0, #12]
 800c31e:	6182      	str	r2, [r0, #24]
 800c320:	4619      	mov	r1, r3
 800c322:	641d      	str	r5, [r3, #64]	; 0x40
 800c324:	2200      	movs	r2, #0
 800c326:	bc30      	pop	{r4, r5}
 800c328:	e758      	b.n	800c1dc <unwind_phase2_forced>
 800c32a:	bf00      	nop

0800c32c <__gnu_Unwind_Resume>:
 800c32c:	b570      	push	{r4, r5, r6, lr}
 800c32e:	6943      	ldr	r3, [r0, #20]
 800c330:	68c6      	ldr	r6, [r0, #12]
 800c332:	4604      	mov	r4, r0
 800c334:	460d      	mov	r5, r1
 800c336:	640b      	str	r3, [r1, #64]	; 0x40
 800c338:	b126      	cbz	r6, 800c344 <__gnu_Unwind_Resume+0x18>
 800c33a:	2201      	movs	r2, #1
 800c33c:	f7ff ff4e 	bl	800c1dc <unwind_phase2_forced>
 800c340:	f7ff f9a0 	bl	800b684 <abort>
 800c344:	6903      	ldr	r3, [r0, #16]
 800c346:	4621      	mov	r1, r4
 800c348:	2002      	movs	r0, #2
 800c34a:	462a      	mov	r2, r5
 800c34c:	4798      	blx	r3
 800c34e:	2807      	cmp	r0, #7
 800c350:	d007      	beq.n	800c362 <__gnu_Unwind_Resume+0x36>
 800c352:	2808      	cmp	r0, #8
 800c354:	d103      	bne.n	800c35e <__gnu_Unwind_Resume+0x32>
 800c356:	4620      	mov	r0, r4
 800c358:	4629      	mov	r1, r5
 800c35a:	f7ff ff1f 	bl	800c19c <unwind_phase2>
 800c35e:	f7ff f991 	bl	800b684 <abort>
 800c362:	4630      	mov	r0, r6
 800c364:	6c29      	ldr	r1, [r5, #64]	; 0x40
 800c366:	f7ff ff17 	bl	800c198 <_Unwind_DebugHook>
 800c36a:	1d28      	adds	r0, r5, #4
 800c36c:	f000 fb42 	bl	800c9f4 <__restore_core_regs>

0800c370 <__gnu_Unwind_Resume_or_Rethrow>:
 800c370:	68c2      	ldr	r2, [r0, #12]
 800c372:	b132      	cbz	r2, 800c382 <__gnu_Unwind_Resume_or_Rethrow+0x12>
 800c374:	b410      	push	{r4}
 800c376:	6bcc      	ldr	r4, [r1, #60]	; 0x3c
 800c378:	2200      	movs	r2, #0
 800c37a:	640c      	str	r4, [r1, #64]	; 0x40
 800c37c:	f85d 4b04 	ldr.w	r4, [sp], #4
 800c380:	e72c      	b.n	800c1dc <unwind_phase2_forced>
 800c382:	e799      	b.n	800c2b8 <__gnu_Unwind_RaiseException>

0800c384 <_Unwind_Complete>:
 800c384:	4770      	bx	lr
 800c386:	bf00      	nop

0800c388 <_Unwind_DeleteException>:
 800c388:	6883      	ldr	r3, [r0, #8]
 800c38a:	b113      	cbz	r3, 800c392 <_Unwind_DeleteException+0xa>
 800c38c:	4601      	mov	r1, r0
 800c38e:	2001      	movs	r0, #1
 800c390:	4718      	bx	r3
 800c392:	4770      	bx	lr

0800c394 <_Unwind_VRS_Get>:
 800c394:	b500      	push	{lr}
 800c396:	2904      	cmp	r1, #4
 800c398:	d808      	bhi.n	800c3ac <_Unwind_VRS_Get+0x18>
 800c39a:	e8df f001 	tbb	[pc, r1]
 800c39e:	0306      	.short	0x0306
 800c3a0:	0307      	.short	0x0307
 800c3a2:	03          	.byte	0x03
 800c3a3:	00          	.byte	0x00
 800c3a4:	2001      	movs	r0, #1
 800c3a6:	f85d fb04 	ldr.w	pc, [sp], #4
 800c3aa:	b113      	cbz	r3, 800c3b2 <_Unwind_VRS_Get+0x1e>
 800c3ac:	2002      	movs	r0, #2
 800c3ae:	f85d fb04 	ldr.w	pc, [sp], #4
 800c3b2:	2a0f      	cmp	r2, #15
 800c3b4:	d8fa      	bhi.n	800c3ac <_Unwind_VRS_Get+0x18>
 800c3b6:	eb00 0282 	add.w	r2, r0, r2, lsl #2
 800c3ba:	6852      	ldr	r2, [r2, #4]
 800c3bc:	4618      	mov	r0, r3
 800c3be:	9b01      	ldr	r3, [sp, #4]
 800c3c0:	601a      	str	r2, [r3, #0]
 800c3c2:	f85d fb04 	ldr.w	pc, [sp], #4
 800c3c6:	bf00      	nop

0800c3c8 <_Unwind_GetGR>:
 800c3c8:	460a      	mov	r2, r1
 800c3ca:	2100      	movs	r1, #0
 800c3cc:	b510      	push	{r4, lr}
 800c3ce:	b084      	sub	sp, #16
 800c3d0:	ac03      	add	r4, sp, #12
 800c3d2:	460b      	mov	r3, r1
 800c3d4:	9400      	str	r4, [sp, #0]
 800c3d6:	f7ff ffdd 	bl	800c394 <_Unwind_VRS_Get>
 800c3da:	9803      	ldr	r0, [sp, #12]
 800c3dc:	b004      	add	sp, #16
 800c3de:	bd10      	pop	{r4, pc}

0800c3e0 <_Unwind_VRS_Set>:
 800c3e0:	b500      	push	{lr}
 800c3e2:	2904      	cmp	r1, #4
 800c3e4:	d808      	bhi.n	800c3f8 <_Unwind_VRS_Set+0x18>
 800c3e6:	e8df f001 	tbb	[pc, r1]
 800c3ea:	0306      	.short	0x0306
 800c3ec:	0307      	.short	0x0307
 800c3ee:	03          	.byte	0x03
 800c3ef:	00          	.byte	0x00
 800c3f0:	2001      	movs	r0, #1
 800c3f2:	f85d fb04 	ldr.w	pc, [sp], #4
 800c3f6:	b113      	cbz	r3, 800c3fe <_Unwind_VRS_Set+0x1e>
 800c3f8:	2002      	movs	r0, #2
 800c3fa:	f85d fb04 	ldr.w	pc, [sp], #4
 800c3fe:	2a0f      	cmp	r2, #15
 800c400:	d8fa      	bhi.n	800c3f8 <_Unwind_VRS_Set+0x18>
 800c402:	9901      	ldr	r1, [sp, #4]
 800c404:	eb00 0282 	add.w	r2, r0, r2, lsl #2
 800c408:	6809      	ldr	r1, [r1, #0]
 800c40a:	4618      	mov	r0, r3
 800c40c:	6051      	str	r1, [r2, #4]
 800c40e:	f85d fb04 	ldr.w	pc, [sp], #4
 800c412:	bf00      	nop

0800c414 <_Unwind_SetGR>:
 800c414:	b510      	push	{r4, lr}
 800c416:	460c      	mov	r4, r1
 800c418:	2100      	movs	r1, #0
 800c41a:	b084      	sub	sp, #16
 800c41c:	ab04      	add	r3, sp, #16
 800c41e:	f843 2d04 	str.w	r2, [r3, #-4]!
 800c422:	9300      	str	r3, [sp, #0]
 800c424:	4622      	mov	r2, r4
 800c426:	460b      	mov	r3, r1
 800c428:	f7ff ffda 	bl	800c3e0 <_Unwind_VRS_Set>
 800c42c:	b004      	add	sp, #16
 800c42e:	bd10      	pop	{r4, pc}

0800c430 <__gnu_Unwind_Backtrace>:
 800c430:	b5f0      	push	{r4, r5, r6, r7, lr}
 800c432:	f04f 3eff 	mov.w	lr, #4294967295
 800c436:	6bd3      	ldr	r3, [r2, #60]	; 0x3c
 800c438:	f5ad 7d0f 	sub.w	sp, sp, #572	; 0x23c
 800c43c:	6413      	str	r3, [r2, #64]	; 0x40
 800c43e:	1d15      	adds	r5, r2, #4
 800c440:	ac17      	add	r4, sp, #92	; 0x5c
 800c442:	4607      	mov	r7, r0
 800c444:	460e      	mov	r6, r1
 800c446:	cd0f      	ldmia	r5!, {r0, r1, r2, r3}
 800c448:	c40f      	stmia	r4!, {r0, r1, r2, r3}
 800c44a:	cd0f      	ldmia	r5!, {r0, r1, r2, r3}
 800c44c:	c40f      	stmia	r4!, {r0, r1, r2, r3}
 800c44e:	cd0f      	ldmia	r5!, {r0, r1, r2, r3}
 800c450:	c40f      	stmia	r4!, {r0, r1, r2, r3}
 800c452:	e895 000f 	ldmia.w	r5, {r0, r1, r2, r3}
 800c456:	e884 000f 	stmia.w	r4, {r0, r1, r2, r3}
 800c45a:	f8cd e058 	str.w	lr, [sp, #88]	; 0x58
 800c45e:	e012      	b.n	800c486 <__gnu_Unwind_Backtrace+0x56>
 800c460:	a816      	add	r0, sp, #88	; 0x58
 800c462:	210c      	movs	r1, #12
 800c464:	466a      	mov	r2, sp
 800c466:	f7ff ffd5 	bl	800c414 <_Unwind_SetGR>
 800c46a:	a816      	add	r0, sp, #88	; 0x58
 800c46c:	4631      	mov	r1, r6
 800c46e:	47b8      	blx	r7
 800c470:	b978      	cbnz	r0, 800c492 <__gnu_Unwind_Backtrace+0x62>
 800c472:	9b04      	ldr	r3, [sp, #16]
 800c474:	2008      	movs	r0, #8
 800c476:	4669      	mov	r1, sp
 800c478:	aa16      	add	r2, sp, #88	; 0x58
 800c47a:	4798      	blx	r3
 800c47c:	2805      	cmp	r0, #5
 800c47e:	4604      	mov	r4, r0
 800c480:	d008      	beq.n	800c494 <__gnu_Unwind_Backtrace+0x64>
 800c482:	2809      	cmp	r0, #9
 800c484:	d005      	beq.n	800c492 <__gnu_Unwind_Backtrace+0x62>
 800c486:	4668      	mov	r0, sp
 800c488:	9926      	ldr	r1, [sp, #152]	; 0x98
 800c48a:	f7ff fe05 	bl	800c098 <get_eit_entry>
 800c48e:	2800      	cmp	r0, #0
 800c490:	d0e6      	beq.n	800c460 <__gnu_Unwind_Backtrace+0x30>
 800c492:	2409      	movs	r4, #9
 800c494:	a816      	add	r0, sp, #88	; 0x58
 800c496:	f7ff fe4b 	bl	800c130 <restore_non_core_regs>
 800c49a:	4620      	mov	r0, r4
 800c49c:	f50d 7d0f 	add.w	sp, sp, #572	; 0x23c
 800c4a0:	bdf0      	pop	{r4, r5, r6, r7, pc}
 800c4a2:	bf00      	nop

0800c4a4 <__gnu_unwind_pr_common>:
 800c4a4:	e92d 4ff0 	stmdb	sp!, {r4, r5, r6, r7, r8, r9, sl, fp, lr}
 800c4a8:	6ccc      	ldr	r4, [r1, #76]	; 0x4c
 800c4aa:	4690      	mov	r8, r2
 800c4ac:	6822      	ldr	r2, [r4, #0]
 800c4ae:	b08b      	sub	sp, #44	; 0x2c
 800c4b0:	3404      	adds	r4, #4
 800c4b2:	460d      	mov	r5, r1
 800c4b4:	9207      	str	r2, [sp, #28]
 800c4b6:	9408      	str	r4, [sp, #32]
 800c4b8:	f000 0903 	and.w	r9, r0, #3
 800c4bc:	461e      	mov	r6, r3
 800c4be:	2b00      	cmp	r3, #0
 800c4c0:	d164      	bne.n	800c58c <__gnu_unwind_pr_common+0xe8>
 800c4c2:	2303      	movs	r3, #3
 800c4c4:	0212      	lsls	r2, r2, #8
 800c4c6:	9207      	str	r2, [sp, #28]
 800c4c8:	f88d 6025 	strb.w	r6, [sp, #37]	; 0x25
 800c4cc:	f88d 3024 	strb.w	r3, [sp, #36]	; 0x24
 800c4d0:	6d2b      	ldr	r3, [r5, #80]	; 0x50
 800c4d2:	f1b9 0f02 	cmp.w	r9, #2
 800c4d6:	bf08      	it	eq
 800c4d8:	6bac      	ldreq	r4, [r5, #56]	; 0x38
 800c4da:	f013 0301 	ands.w	r3, r3, #1
 800c4de:	d143      	bne.n	800c568 <__gnu_unwind_pr_common+0xc4>
 800c4e0:	f000 0008 	and.w	r0, r0, #8
 800c4e4:	b2c2      	uxtb	r2, r0
 800c4e6:	9203      	str	r2, [sp, #12]
 800c4e8:	9301      	str	r3, [sp, #4]
 800c4ea:	6827      	ldr	r7, [r4, #0]
 800c4ec:	2f00      	cmp	r7, #0
 800c4ee:	d03d      	beq.n	800c56c <__gnu_unwind_pr_common+0xc8>
 800c4f0:	2e02      	cmp	r6, #2
 800c4f2:	d047      	beq.n	800c584 <__gnu_unwind_pr_common+0xe0>
 800c4f4:	8827      	ldrh	r7, [r4, #0]
 800c4f6:	f8b4 a002 	ldrh.w	sl, [r4, #2]
 800c4fa:	3404      	adds	r4, #4
 800c4fc:	6cab      	ldr	r3, [r5, #72]	; 0x48
 800c4fe:	f02a 0b01 	bic.w	fp, sl, #1
 800c502:	4640      	mov	r0, r8
 800c504:	210f      	movs	r1, #15
 800c506:	449b      	add	fp, r3
 800c508:	f7ff ff5e 	bl	800c3c8 <_Unwind_GetGR>
 800c50c:	4583      	cmp	fp, r0
 800c50e:	d837      	bhi.n	800c580 <__gnu_unwind_pr_common+0xdc>
 800c510:	f027 0301 	bic.w	r3, r7, #1
 800c514:	449b      	add	fp, r3
 800c516:	4558      	cmp	r0, fp
 800c518:	bf2c      	ite	cs
 800c51a:	2000      	movcs	r0, #0
 800c51c:	2001      	movcc	r0, #1
 800c51e:	f00a 0a01 	and.w	sl, sl, #1
 800c522:	f007 0701 	and.w	r7, r7, #1
 800c526:	ea47 0a4a 	orr.w	sl, r7, sl, lsl #1
 800c52a:	f1ba 0f01 	cmp.w	sl, #1
 800c52e:	d043      	beq.n	800c5b8 <__gnu_unwind_pr_common+0x114>
 800c530:	d33a      	bcc.n	800c5a8 <__gnu_unwind_pr_common+0x104>
 800c532:	f1ba 0f02 	cmp.w	sl, #2
 800c536:	d11f      	bne.n	800c578 <__gnu_unwind_pr_common+0xd4>
 800c538:	6823      	ldr	r3, [r4, #0]
 800c53a:	f023 4200 	bic.w	r2, r3, #2147483648	; 0x80000000
 800c53e:	9202      	str	r2, [sp, #8]
 800c540:	f1b9 0f00 	cmp.w	r9, #0
 800c544:	d17b      	bne.n	800c63e <__gnu_unwind_pr_common+0x19a>
 800c546:	b138      	cbz	r0, 800c558 <__gnu_unwind_pr_common+0xb4>
 800c548:	9a03      	ldr	r2, [sp, #12]
 800c54a:	2a00      	cmp	r2, #0
 800c54c:	f000 8083 	beq.w	800c656 <__gnu_unwind_pr_common+0x1b2>
 800c550:	9a02      	ldr	r2, [sp, #8]
 800c552:	2a00      	cmp	r2, #0
 800c554:	f000 80a6 	beq.w	800c6a4 <__gnu_unwind_pr_common+0x200>
 800c558:	2b00      	cmp	r3, #0
 800c55a:	db7a      	blt.n	800c652 <__gnu_unwind_pr_common+0x1ae>
 800c55c:	9b02      	ldr	r3, [sp, #8]
 800c55e:	f103 0a01 	add.w	sl, r3, #1
 800c562:	eb04 048a 	add.w	r4, r4, sl, lsl #2
 800c566:	e7c0      	b.n	800c4ea <__gnu_unwind_pr_common+0x46>
 800c568:	2300      	movs	r3, #0
 800c56a:	9301      	str	r3, [sp, #4]
 800c56c:	2e02      	cmp	r6, #2
 800c56e:	dd40      	ble.n	800c5f2 <__gnu_unwind_pr_common+0x14e>
 800c570:	f7ff fe10 	bl	800c194 <__gnu_unwind_24bit.isra.1>
 800c574:	2800      	cmp	r0, #0
 800c576:	d042      	beq.n	800c5fe <__gnu_unwind_pr_common+0x15a>
 800c578:	2009      	movs	r0, #9
 800c57a:	b00b      	add	sp, #44	; 0x2c
 800c57c:	e8bd 8ff0 	ldmia.w	sp!, {r4, r5, r6, r7, r8, r9, sl, fp, pc}
 800c580:	2000      	movs	r0, #0
 800c582:	e7cc      	b.n	800c51e <__gnu_unwind_pr_common+0x7a>
 800c584:	f8d4 a004 	ldr.w	sl, [r4, #4]
 800c588:	3408      	adds	r4, #8
 800c58a:	e7b7      	b.n	800c4fc <__gnu_unwind_pr_common+0x58>
 800c58c:	2b02      	cmp	r3, #2
 800c58e:	dc9f      	bgt.n	800c4d0 <__gnu_unwind_pr_common+0x2c>
 800c590:	2102      	movs	r1, #2
 800c592:	0c13      	lsrs	r3, r2, #16
 800c594:	b2df      	uxtb	r7, r3
 800c596:	0412      	lsls	r2, r2, #16
 800c598:	f88d 3025 	strb.w	r3, [sp, #37]	; 0x25
 800c59c:	eb04 0487 	add.w	r4, r4, r7, lsl #2
 800c5a0:	9207      	str	r2, [sp, #28]
 800c5a2:	f88d 1024 	strb.w	r1, [sp, #36]	; 0x24
 800c5a6:	e793      	b.n	800c4d0 <__gnu_unwind_pr_common+0x2c>
 800c5a8:	f1b9 0f00 	cmp.w	r9, #0
 800c5ac:	d002      	beq.n	800c5b4 <__gnu_unwind_pr_common+0x110>
 800c5ae:	2800      	cmp	r0, #0
 800c5b0:	f040 80ad 	bne.w	800c70e <__gnu_unwind_pr_common+0x26a>
 800c5b4:	3404      	adds	r4, #4
 800c5b6:	e798      	b.n	800c4ea <__gnu_unwind_pr_common+0x46>
 800c5b8:	f1b9 0f00 	cmp.w	r9, #0
 800c5bc:	d126      	bne.n	800c60c <__gnu_unwind_pr_common+0x168>
 800c5be:	b1b0      	cbz	r0, 800c5ee <__gnu_unwind_pr_common+0x14a>
 800c5c0:	e894 000c 	ldmia.w	r4, {r2, r3}
 800c5c4:	0fd7      	lsrs	r7, r2, #31
 800c5c6:	1c9a      	adds	r2, r3, #2
 800c5c8:	d0d6      	beq.n	800c578 <__gnu_unwind_pr_common+0xd4>
 800c5ca:	f105 0258 	add.w	r2, r5, #88	; 0x58
 800c5ce:	3301      	adds	r3, #1
 800c5d0:	9206      	str	r2, [sp, #24]
 800c5d2:	f000 8092 	beq.w	800c6fa <__gnu_unwind_pr_common+0x256>
 800c5d6:	1d20      	adds	r0, r4, #4
 800c5d8:	f7ff fdd6 	bl	800c188 <_Unwind_decode_typeinfo_ptr.isra.0>
 800c5dc:	463a      	mov	r2, r7
 800c5de:	4601      	mov	r1, r0
 800c5e0:	ab06      	add	r3, sp, #24
 800c5e2:	4628      	mov	r0, r5
 800c5e4:	f3af 8000 	nop.w
 800c5e8:	2800      	cmp	r0, #0
 800c5ea:	f040 80b5 	bne.w	800c758 <__gnu_unwind_pr_common+0x2b4>
 800c5ee:	3408      	adds	r4, #8
 800c5f0:	e77b      	b.n	800c4ea <__gnu_unwind_pr_common+0x46>
 800c5f2:	4640      	mov	r0, r8
 800c5f4:	a907      	add	r1, sp, #28
 800c5f6:	f000 faff 	bl	800cbf8 <__gnu_unwind_execute>
 800c5fa:	2800      	cmp	r0, #0
 800c5fc:	d1bc      	bne.n	800c578 <__gnu_unwind_pr_common+0xd4>
 800c5fe:	9b01      	ldr	r3, [sp, #4]
 800c600:	2b00      	cmp	r3, #0
 800c602:	d159      	bne.n	800c6b8 <__gnu_unwind_pr_common+0x214>
 800c604:	2008      	movs	r0, #8
 800c606:	b00b      	add	sp, #44	; 0x2c
 800c608:	e8bd 8ff0 	ldmia.w	sp!, {r4, r5, r6, r7, r8, r9, sl, fp, pc}
 800c60c:	4640      	mov	r0, r8
 800c60e:	210d      	movs	r1, #13
 800c610:	6a2f      	ldr	r7, [r5, #32]
 800c612:	f7ff fed9 	bl	800c3c8 <_Unwind_GetGR>
 800c616:	4287      	cmp	r7, r0
 800c618:	d1e9      	bne.n	800c5ee <__gnu_unwind_pr_common+0x14a>
 800c61a:	6aab      	ldr	r3, [r5, #40]	; 0x28
 800c61c:	429c      	cmp	r4, r3
 800c61e:	d1e6      	bne.n	800c5ee <__gnu_unwind_pr_common+0x14a>
 800c620:	4620      	mov	r0, r4
 800c622:	f7ff fce3 	bl	800bfec <selfrel_offset31>
 800c626:	210f      	movs	r1, #15
 800c628:	4602      	mov	r2, r0
 800c62a:	4640      	mov	r0, r8
 800c62c:	f7ff fef2 	bl	800c414 <_Unwind_SetGR>
 800c630:	4640      	mov	r0, r8
 800c632:	462a      	mov	r2, r5
 800c634:	2100      	movs	r1, #0
 800c636:	f7ff feed 	bl	800c414 <_Unwind_SetGR>
 800c63a:	2007      	movs	r0, #7
 800c63c:	e79d      	b.n	800c57a <__gnu_unwind_pr_common+0xd6>
 800c63e:	4640      	mov	r0, r8
 800c640:	210d      	movs	r1, #13
 800c642:	6a2f      	ldr	r7, [r5, #32]
 800c644:	f7ff fec0 	bl	800c3c8 <_Unwind_GetGR>
 800c648:	4287      	cmp	r7, r0
 800c64a:	d045      	beq.n	800c6d8 <__gnu_unwind_pr_common+0x234>
 800c64c:	6823      	ldr	r3, [r4, #0]
 800c64e:	2b00      	cmp	r3, #0
 800c650:	da84      	bge.n	800c55c <__gnu_unwind_pr_common+0xb8>
 800c652:	3404      	adds	r4, #4
 800c654:	e782      	b.n	800c55c <__gnu_unwind_pr_common+0xb8>
 800c656:	9b02      	ldr	r3, [sp, #8]
 800c658:	b323      	cbz	r3, 800c6a4 <__gnu_unwind_pr_common+0x200>
 800c65a:	f105 0358 	add.w	r3, r5, #88	; 0x58
 800c65e:	9605      	str	r6, [sp, #20]
 800c660:	9f03      	ldr	r7, [sp, #12]
 800c662:	f104 0a04 	add.w	sl, r4, #4
 800c666:	f8dd b008 	ldr.w	fp, [sp, #8]
 800c66a:	f8cd 9010 	str.w	r9, [sp, #16]
 800c66e:	461e      	mov	r6, r3
 800c670:	e002      	b.n	800c678 <__gnu_unwind_pr_common+0x1d4>
 800c672:	45d9      	cmp	r9, fp
 800c674:	464f      	mov	r7, r9
 800c676:	d015      	beq.n	800c6a4 <__gnu_unwind_pr_common+0x200>
 800c678:	4650      	mov	r0, sl
 800c67a:	9606      	str	r6, [sp, #24]
 800c67c:	f7ff fd84 	bl	800c188 <_Unwind_decode_typeinfo_ptr.isra.0>
 800c680:	2200      	movs	r2, #0
 800c682:	4601      	mov	r1, r0
 800c684:	ab06      	add	r3, sp, #24
 800c686:	4628      	mov	r0, r5
 800c688:	f3af 8000 	nop.w
 800c68c:	f107 0901 	add.w	r9, r7, #1
 800c690:	f10a 0a04 	add.w	sl, sl, #4
 800c694:	2800      	cmp	r0, #0
 800c696:	d0ec      	beq.n	800c672 <__gnu_unwind_pr_common+0x1ce>
 800c698:	9b02      	ldr	r3, [sp, #8]
 800c69a:	f8dd 9010 	ldr.w	r9, [sp, #16]
 800c69e:	429f      	cmp	r7, r3
 800c6a0:	9e05      	ldr	r6, [sp, #20]
 800c6a2:	d1d3      	bne.n	800c64c <__gnu_unwind_pr_common+0x1a8>
 800c6a4:	4640      	mov	r0, r8
 800c6a6:	210d      	movs	r1, #13
 800c6a8:	f7ff fe8e 	bl	800c3c8 <_Unwind_GetGR>
 800c6ac:	9b06      	ldr	r3, [sp, #24]
 800c6ae:	6228      	str	r0, [r5, #32]
 800c6b0:	62ac      	str	r4, [r5, #40]	; 0x28
 800c6b2:	626b      	str	r3, [r5, #36]	; 0x24
 800c6b4:	2006      	movs	r0, #6
 800c6b6:	e760      	b.n	800c57a <__gnu_unwind_pr_common+0xd6>
 800c6b8:	210f      	movs	r1, #15
 800c6ba:	4640      	mov	r0, r8
 800c6bc:	f7ff fe84 	bl	800c3c8 <_Unwind_GetGR>
 800c6c0:	210e      	movs	r1, #14
 800c6c2:	4602      	mov	r2, r0
 800c6c4:	4640      	mov	r0, r8
 800c6c6:	f7ff fea5 	bl	800c414 <_Unwind_SetGR>
 800c6ca:	4640      	mov	r0, r8
 800c6cc:	210f      	movs	r1, #15
 800c6ce:	4a29      	ldr	r2, [pc, #164]	; (800c774 <__gnu_unwind_pr_common+0x2d0>)
 800c6d0:	f7ff fea0 	bl	800c414 <_Unwind_SetGR>
 800c6d4:	2007      	movs	r0, #7
 800c6d6:	e750      	b.n	800c57a <__gnu_unwind_pr_common+0xd6>
 800c6d8:	6aab      	ldr	r3, [r5, #40]	; 0x28
 800c6da:	429c      	cmp	r4, r3
 800c6dc:	d1b6      	bne.n	800c64c <__gnu_unwind_pr_common+0x1a8>
 800c6de:	2204      	movs	r2, #4
 800c6e0:	2700      	movs	r7, #0
 800c6e2:	9902      	ldr	r1, [sp, #8]
 800c6e4:	18a3      	adds	r3, r4, r2
 800c6e6:	62a9      	str	r1, [r5, #40]	; 0x28
 800c6e8:	62ef      	str	r7, [r5, #44]	; 0x2c
 800c6ea:	632a      	str	r2, [r5, #48]	; 0x30
 800c6ec:	636b      	str	r3, [r5, #52]	; 0x34
 800c6ee:	6823      	ldr	r3, [r4, #0]
 800c6f0:	42bb      	cmp	r3, r7
 800c6f2:	db1f      	blt.n	800c734 <__gnu_unwind_pr_common+0x290>
 800c6f4:	2301      	movs	r3, #1
 800c6f6:	9301      	str	r3, [sp, #4]
 800c6f8:	e730      	b.n	800c55c <__gnu_unwind_pr_common+0xb8>
 800c6fa:	4640      	mov	r0, r8
 800c6fc:	210d      	movs	r1, #13
 800c6fe:	f7ff fe63 	bl	800c3c8 <_Unwind_GetGR>
 800c702:	6228      	str	r0, [r5, #32]
 800c704:	9b06      	ldr	r3, [sp, #24]
 800c706:	626b      	str	r3, [r5, #36]	; 0x24
 800c708:	62ac      	str	r4, [r5, #40]	; 0x28
 800c70a:	2006      	movs	r0, #6
 800c70c:	e735      	b.n	800c57a <__gnu_unwind_pr_common+0xd6>
 800c70e:	4620      	mov	r0, r4
 800c710:	f7ff fc6c 	bl	800bfec <selfrel_offset31>
 800c714:	3404      	adds	r4, #4
 800c716:	4606      	mov	r6, r0
 800c718:	63ac      	str	r4, [r5, #56]	; 0x38
 800c71a:	4628      	mov	r0, r5
 800c71c:	f3af 8000 	nop.w
 800c720:	2800      	cmp	r0, #0
 800c722:	f43f af29 	beq.w	800c578 <__gnu_unwind_pr_common+0xd4>
 800c726:	4640      	mov	r0, r8
 800c728:	4632      	mov	r2, r6
 800c72a:	210f      	movs	r1, #15
 800c72c:	f7ff fe72 	bl	800c414 <_Unwind_SetGR>
 800c730:	2007      	movs	r0, #7
 800c732:	e722      	b.n	800c57a <__gnu_unwind_pr_common+0xd6>
 800c734:	4608      	mov	r0, r1
 800c736:	3001      	adds	r0, #1
 800c738:	eb04 0080 	add.w	r0, r4, r0, lsl #2
 800c73c:	f7ff fc56 	bl	800bfec <selfrel_offset31>
 800c740:	210f      	movs	r1, #15
 800c742:	4602      	mov	r2, r0
 800c744:	4640      	mov	r0, r8
 800c746:	f7ff fe65 	bl	800c414 <_Unwind_SetGR>
 800c74a:	4640      	mov	r0, r8
 800c74c:	4639      	mov	r1, r7
 800c74e:	462a      	mov	r2, r5
 800c750:	f7ff fe60 	bl	800c414 <_Unwind_SetGR>
 800c754:	2007      	movs	r0, #7
 800c756:	e710      	b.n	800c57a <__gnu_unwind_pr_common+0xd6>
 800c758:	4607      	mov	r7, r0
 800c75a:	210d      	movs	r1, #13
 800c75c:	4640      	mov	r0, r8
 800c75e:	f7ff fe33 	bl	800c3c8 <_Unwind_GetGR>
 800c762:	2f02      	cmp	r7, #2
 800c764:	6228      	str	r0, [r5, #32]
 800c766:	d1cd      	bne.n	800c704 <__gnu_unwind_pr_common+0x260>
 800c768:	462b      	mov	r3, r5
 800c76a:	9a06      	ldr	r2, [sp, #24]
 800c76c:	f843 2f2c 	str.w	r2, [r3, #44]!
 800c770:	626b      	str	r3, [r5, #36]	; 0x24
 800c772:	e7c9      	b.n	800c708 <__gnu_unwind_pr_common+0x264>
 800c774:	00000000 	.word	0x00000000

0800c778 <__aeabi_unwind_cpp_pr0>:
 800c778:	2300      	movs	r3, #0
 800c77a:	e693      	b.n	800c4a4 <__gnu_unwind_pr_common>

0800c77c <__aeabi_unwind_cpp_pr1>:
 800c77c:	2301      	movs	r3, #1
 800c77e:	e691      	b.n	800c4a4 <__gnu_unwind_pr_common>

0800c780 <__aeabi_unwind_cpp_pr2>:
 800c780:	2302      	movs	r3, #2
 800c782:	e68f      	b.n	800c4a4 <__gnu_unwind_pr_common>

0800c784 <_Unwind_VRS_Pop>:
 800c784:	b5f0      	push	{r4, r5, r6, r7, lr}
 800c786:	4606      	mov	r6, r0
 800c788:	b0c5      	sub	sp, #276	; 0x114
 800c78a:	2904      	cmp	r1, #4
 800c78c:	d80b      	bhi.n	800c7a6 <_Unwind_VRS_Pop+0x22>
 800c78e:	e8df f001 	tbb	[pc, r1]
 800c792:	0354      	.short	0x0354
 800c794:	2f0a      	.short	0x2f0a
 800c796:	0d          	.byte	0x0d
 800c797:	00          	.byte	0x00
 800c798:	2b01      	cmp	r3, #1
 800c79a:	ea4f 4412 	mov.w	r4, r2, lsr #16
 800c79e:	b295      	uxth	r5, r2
 800c7a0:	d063      	beq.n	800c86a <_Unwind_VRS_Pop+0xe6>
 800c7a2:	2b05      	cmp	r3, #5
 800c7a4:	d078      	beq.n	800c898 <_Unwind_VRS_Pop+0x114>
 800c7a6:	2002      	movs	r0, #2
 800c7a8:	b045      	add	sp, #276	; 0x114
 800c7aa:	bdf0      	pop	{r4, r5, r6, r7, pc}
 800c7ac:	2b00      	cmp	r3, #0
 800c7ae:	d1fa      	bne.n	800c7a6 <_Unwind_VRS_Pop+0x22>
 800c7b0:	2a10      	cmp	r2, #16
 800c7b2:	d8f8      	bhi.n	800c7a6 <_Unwind_VRS_Pop+0x22>
 800c7b4:	6833      	ldr	r3, [r6, #0]
 800c7b6:	06d9      	lsls	r1, r3, #27
 800c7b8:	f100 8101 	bmi.w	800c9be <_Unwind_VRS_Pop+0x23a>
 800c7bc:	ad22      	add	r5, sp, #136	; 0x88
 800c7be:	4628      	mov	r0, r5
 800c7c0:	9201      	str	r2, [sp, #4]
 800c7c2:	f000 f989 	bl	800cad8 <__gnu_Unwind_Save_WMMXC>
 800c7c6:	2300      	movs	r3, #0
 800c7c8:	2001      	movs	r0, #1
 800c7ca:	6bb4      	ldr	r4, [r6, #56]	; 0x38
 800c7cc:	9a01      	ldr	r2, [sp, #4]
 800c7ce:	fa00 f103 	lsl.w	r1, r0, r3
 800c7d2:	4211      	tst	r1, r2
 800c7d4:	d003      	beq.n	800c7de <_Unwind_VRS_Pop+0x5a>
 800c7d6:	6821      	ldr	r1, [r4, #0]
 800c7d8:	3404      	adds	r4, #4
 800c7da:	f845 1023 	str.w	r1, [r5, r3, lsl #2]
 800c7de:	3301      	adds	r3, #1
 800c7e0:	2b04      	cmp	r3, #4
 800c7e2:	d1f4      	bne.n	800c7ce <_Unwind_VRS_Pop+0x4a>
 800c7e4:	4628      	mov	r0, r5
 800c7e6:	63b4      	str	r4, [r6, #56]	; 0x38
 800c7e8:	f000 f96c 	bl	800cac4 <__gnu_Unwind_Restore_WMMXC>
 800c7ec:	2000      	movs	r0, #0
 800c7ee:	e7db      	b.n	800c7a8 <_Unwind_VRS_Pop+0x24>
 800c7f0:	2b03      	cmp	r3, #3
 800c7f2:	d1d8      	bne.n	800c7a6 <_Unwind_VRS_Pop+0x22>
 800c7f4:	0c14      	lsrs	r4, r2, #16
 800c7f6:	b297      	uxth	r7, r2
 800c7f8:	193b      	adds	r3, r7, r4
 800c7fa:	2b10      	cmp	r3, #16
 800c7fc:	d8d3      	bhi.n	800c7a6 <_Unwind_VRS_Pop+0x22>
 800c7fe:	6833      	ldr	r3, [r6, #0]
 800c800:	0718      	lsls	r0, r3, #28
 800c802:	f100 80ec 	bmi.w	800c9de <_Unwind_VRS_Pop+0x25a>
 800c806:	ad22      	add	r5, sp, #136	; 0x88
 800c808:	4628      	mov	r0, r5
 800c80a:	f000 f939 	bl	800ca80 <__gnu_Unwind_Save_WMMXD>
 800c80e:	6bb0      	ldr	r0, [r6, #56]	; 0x38
 800c810:	eb05 01c4 	add.w	r1, r5, r4, lsl #3
 800c814:	4603      	mov	r3, r0
 800c816:	007c      	lsls	r4, r7, #1
 800c818:	b14f      	cbz	r7, 800c82e <_Unwind_VRS_Pop+0xaa>
 800c81a:	2300      	movs	r3, #0
 800c81c:	f850 2023 	ldr.w	r2, [r0, r3, lsl #2]
 800c820:	f841 2023 	str.w	r2, [r1, r3, lsl #2]
 800c824:	3301      	adds	r3, #1
 800c826:	42a3      	cmp	r3, r4
 800c828:	d1f8      	bne.n	800c81c <_Unwind_VRS_Pop+0x98>
 800c82a:	eb00 0383 	add.w	r3, r0, r3, lsl #2
 800c82e:	4628      	mov	r0, r5
 800c830:	63b3      	str	r3, [r6, #56]	; 0x38
 800c832:	f000 f903 	bl	800ca3c <__gnu_Unwind_Restore_WMMXD>
 800c836:	2000      	movs	r0, #0
 800c838:	e7b6      	b.n	800c7a8 <_Unwind_VRS_Pop+0x24>
 800c83a:	2b00      	cmp	r3, #0
 800c83c:	d1b3      	bne.n	800c7a6 <_Unwind_VRS_Pop+0x22>
 800c83e:	2701      	movs	r7, #1
 800c840:	6bb5      	ldr	r5, [r6, #56]	; 0x38
 800c842:	b290      	uxth	r0, r2
 800c844:	1d34      	adds	r4, r6, #4
 800c846:	fa07 f103 	lsl.w	r1, r7, r3
 800c84a:	4201      	tst	r1, r0
 800c84c:	f103 0301 	add.w	r3, r3, #1
 800c850:	d002      	beq.n	800c858 <_Unwind_VRS_Pop+0xd4>
 800c852:	6829      	ldr	r1, [r5, #0]
 800c854:	3504      	adds	r5, #4
 800c856:	6021      	str	r1, [r4, #0]
 800c858:	2b10      	cmp	r3, #16
 800c85a:	f104 0404 	add.w	r4, r4, #4
 800c85e:	d1f2      	bne.n	800c846 <_Unwind_VRS_Pop+0xc2>
 800c860:	0490      	lsls	r0, r2, #18
 800c862:	d400      	bmi.n	800c866 <_Unwind_VRS_Pop+0xe2>
 800c864:	63b5      	str	r5, [r6, #56]	; 0x38
 800c866:	2000      	movs	r0, #0
 800c868:	e79e      	b.n	800c7a8 <_Unwind_VRS_Pop+0x24>
 800c86a:	192a      	adds	r2, r5, r4
 800c86c:	2a10      	cmp	r2, #16
 800c86e:	d89a      	bhi.n	800c7a6 <_Unwind_VRS_Pop+0x22>
 800c870:	2c0f      	cmp	r4, #15
 800c872:	d898      	bhi.n	800c7a6 <_Unwind_VRS_Pop+0x22>
 800c874:	6832      	ldr	r2, [r6, #0]
 800c876:	07d0      	lsls	r0, r2, #31
 800c878:	d508      	bpl.n	800c88c <_Unwind_VRS_Pop+0x108>
 800c87a:	4630      	mov	r0, r6
 800c87c:	f022 0203 	bic.w	r2, r2, #3
 800c880:	f840 2b48 	str.w	r2, [r0], #72
 800c884:	9301      	str	r3, [sp, #4]
 800c886:	f000 f8c5 	bl	800ca14 <__gnu_Unwind_Save_VFP>
 800c88a:	9b01      	ldr	r3, [sp, #4]
 800c88c:	a822      	add	r0, sp, #136	; 0x88
 800c88e:	9301      	str	r3, [sp, #4]
 800c890:	f000 f8c0 	bl	800ca14 <__gnu_Unwind_Save_VFP>
 800c894:	9b01      	ldr	r3, [sp, #4]
 800c896:	e007      	b.n	800c8a8 <_Unwind_VRS_Pop+0x124>
 800c898:	192f      	adds	r7, r5, r4
 800c89a:	2f20      	cmp	r7, #32
 800c89c:	d883      	bhi.n	800c7a6 <_Unwind_VRS_Pop+0x22>
 800c89e:	2c0f      	cmp	r4, #15
 800c8a0:	d93b      	bls.n	800c91a <_Unwind_VRS_Pop+0x196>
 800c8a2:	462f      	mov	r7, r5
 800c8a4:	2d00      	cmp	r5, #0
 800c8a6:	d17d      	bne.n	800c9a4 <_Unwind_VRS_Pop+0x220>
 800c8a8:	6bb0      	ldr	r0, [r6, #56]	; 0x38
 800c8aa:	46ae      	mov	lr, r5
 800c8ac:	4601      	mov	r1, r0
 800c8ae:	2d00      	cmp	r5, #0
 800c8b0:	f000 809d 	beq.w	800c9ee <_Unwind_VRS_Pop+0x26a>
 800c8b4:	2700      	movs	r7, #0
 800c8b6:	2200      	movs	r2, #0
 800c8b8:	ad22      	add	r5, sp, #136	; 0x88
 800c8ba:	ea4f 0e4e 	mov.w	lr, lr, lsl #1
 800c8be:	eb05 0cc4 	add.w	ip, r5, r4, lsl #3
 800c8c2:	f850 5022 	ldr.w	r5, [r0, r2, lsl #2]
 800c8c6:	f84c 5022 	str.w	r5, [ip, r2, lsl #2]
 800c8ca:	3201      	adds	r2, #1
 800c8cc:	4572      	cmp	r2, lr
 800c8ce:	d1f8      	bne.n	800c8c2 <_Unwind_VRS_Pop+0x13e>
 800c8d0:	eb01 0282 	add.w	r2, r1, r2, lsl #2
 800c8d4:	b197      	cbz	r7, 800c8fc <_Unwind_VRS_Pop+0x178>
 800c8d6:	2c10      	cmp	r4, #16
 800c8d8:	4620      	mov	r0, r4
 800c8da:	bf38      	it	cc
 800c8dc:	2010      	movcc	r0, #16
 800c8de:	a944      	add	r1, sp, #272	; 0x110
 800c8e0:	eb01 00c0 	add.w	r0, r1, r0, lsl #3
 800c8e4:	f5a0 70c4 	sub.w	r0, r0, #392	; 0x188
 800c8e8:	4611      	mov	r1, r2
 800c8ea:	007a      	lsls	r2, r7, #1
 800c8ec:	eb01 0282 	add.w	r2, r1, r2, lsl #2
 800c8f0:	f851 5b04 	ldr.w	r5, [r1], #4
 800c8f4:	4291      	cmp	r1, r2
 800c8f6:	f840 5b04 	str.w	r5, [r0], #4
 800c8fa:	d1f9      	bne.n	800c8f0 <_Unwind_VRS_Pop+0x16c>
 800c8fc:	2b01      	cmp	r3, #1
 800c8fe:	d068      	beq.n	800c9d2 <_Unwind_VRS_Pop+0x24e>
 800c900:	2c0f      	cmp	r4, #15
 800c902:	63b2      	str	r2, [r6, #56]	; 0x38
 800c904:	d905      	bls.n	800c912 <_Unwind_VRS_Pop+0x18e>
 800c906:	2f00      	cmp	r7, #0
 800c908:	d0ad      	beq.n	800c866 <_Unwind_VRS_Pop+0xe2>
 800c90a:	a802      	add	r0, sp, #8
 800c90c:	f000 f88e 	bl	800ca2c <__gnu_Unwind_Restore_VFP_D_16_to_31>
 800c910:	e7a9      	b.n	800c866 <_Unwind_VRS_Pop+0xe2>
 800c912:	a822      	add	r0, sp, #136	; 0x88
 800c914:	f000 f882 	bl	800ca1c <__gnu_Unwind_Restore_VFP_D>
 800c918:	e7f5      	b.n	800c906 <_Unwind_VRS_Pop+0x182>
 800c91a:	2f10      	cmp	r7, #16
 800c91c:	6832      	ldr	r2, [r6, #0]
 800c91e:	d82b      	bhi.n	800c978 <_Unwind_VRS_Pop+0x1f4>
 800c920:	f012 0701 	ands.w	r7, r2, #1
 800c924:	d00b      	beq.n	800c93e <_Unwind_VRS_Pop+0x1ba>
 800c926:	4630      	mov	r0, r6
 800c928:	2700      	movs	r7, #0
 800c92a:	f022 0201 	bic.w	r2, r2, #1
 800c92e:	f042 0202 	orr.w	r2, r2, #2
 800c932:	f840 2b48 	str.w	r2, [r0], #72
 800c936:	9301      	str	r3, [sp, #4]
 800c938:	f000 f874 	bl	800ca24 <__gnu_Unwind_Save_VFP_D>
 800c93c:	9b01      	ldr	r3, [sp, #4]
 800c93e:	a822      	add	r0, sp, #136	; 0x88
 800c940:	9301      	str	r3, [sp, #4]
 800c942:	f000 f86f 	bl	800ca24 <__gnu_Unwind_Save_VFP_D>
 800c946:	9b01      	ldr	r3, [sp, #4]
 800c948:	2f00      	cmp	r7, #0
 800c94a:	d0ad      	beq.n	800c8a8 <_Unwind_VRS_Pop+0x124>
 800c94c:	a802      	add	r0, sp, #8
 800c94e:	9301      	str	r3, [sp, #4]
 800c950:	f000 f870 	bl	800ca34 <__gnu_Unwind_Save_VFP_D_16_to_31>
 800c954:	6bb1      	ldr	r1, [r6, #56]	; 0x38
 800c956:	f1c4 0e10 	rsb	lr, r4, #16
 800c95a:	f1be 0f00 	cmp.w	lr, #0
 800c95e:	4608      	mov	r0, r1
 800c960:	9b01      	ldr	r3, [sp, #4]
 800c962:	dca8      	bgt.n	800c8b6 <_Unwind_VRS_Pop+0x132>
 800c964:	2c10      	cmp	r4, #16
 800c966:	4620      	mov	r0, r4
 800c968:	bf38      	it	cc
 800c96a:	2010      	movcc	r0, #16
 800c96c:	aa02      	add	r2, sp, #8
 800c96e:	3810      	subs	r0, #16
 800c970:	eb02 00c0 	add.w	r0, r2, r0, lsl #3
 800c974:	007a      	lsls	r2, r7, #1
 800c976:	e7b9      	b.n	800c8ec <_Unwind_VRS_Pop+0x168>
 800c978:	07d1      	lsls	r1, r2, #31
 800c97a:	f1a7 0710 	sub.w	r7, r7, #16
 800c97e:	d512      	bpl.n	800c9a6 <_Unwind_VRS_Pop+0x222>
 800c980:	4630      	mov	r0, r6
 800c982:	f022 0201 	bic.w	r2, r2, #1
 800c986:	f042 0202 	orr.w	r2, r2, #2
 800c98a:	f840 2b48 	str.w	r2, [r0], #72
 800c98e:	9301      	str	r3, [sp, #4]
 800c990:	f000 f848 	bl	800ca24 <__gnu_Unwind_Save_VFP_D>
 800c994:	6832      	ldr	r2, [r6, #0]
 800c996:	9b01      	ldr	r3, [sp, #4]
 800c998:	f012 0f04 	tst.w	r2, #4
 800c99c:	d105      	bne.n	800c9aa <_Unwind_VRS_Pop+0x226>
 800c99e:	2c0f      	cmp	r4, #15
 800c9a0:	d9cd      	bls.n	800c93e <_Unwind_VRS_Pop+0x1ba>
 800c9a2:	e7d1      	b.n	800c948 <_Unwind_VRS_Pop+0x1c4>
 800c9a4:	6832      	ldr	r2, [r6, #0]
 800c9a6:	0751      	lsls	r1, r2, #29
 800c9a8:	d5f9      	bpl.n	800c99e <_Unwind_VRS_Pop+0x21a>
 800c9aa:	4630      	mov	r0, r6
 800c9ac:	f022 0204 	bic.w	r2, r2, #4
 800c9b0:	f840 2bd0 	str.w	r2, [r0], #208
 800c9b4:	9301      	str	r3, [sp, #4]
 800c9b6:	f000 f83d 	bl	800ca34 <__gnu_Unwind_Save_VFP_D_16_to_31>
 800c9ba:	9b01      	ldr	r3, [sp, #4]
 800c9bc:	e7ef      	b.n	800c99e <_Unwind_VRS_Pop+0x21a>
 800c9be:	f023 0310 	bic.w	r3, r3, #16
 800c9c2:	6033      	str	r3, [r6, #0]
 800c9c4:	f506 70e8 	add.w	r0, r6, #464	; 0x1d0
 800c9c8:	9201      	str	r2, [sp, #4]
 800c9ca:	f000 f885 	bl	800cad8 <__gnu_Unwind_Save_WMMXC>
 800c9ce:	9a01      	ldr	r2, [sp, #4]
 800c9d0:	e6f4      	b.n	800c7bc <_Unwind_VRS_Pop+0x38>
 800c9d2:	3204      	adds	r2, #4
 800c9d4:	63b2      	str	r2, [r6, #56]	; 0x38
 800c9d6:	a822      	add	r0, sp, #136	; 0x88
 800c9d8:	f000 f818 	bl	800ca0c <__gnu_Unwind_Restore_VFP>
 800c9dc:	e743      	b.n	800c866 <_Unwind_VRS_Pop+0xe2>
 800c9de:	f023 0308 	bic.w	r3, r3, #8
 800c9e2:	6033      	str	r3, [r6, #0]
 800c9e4:	f506 70a8 	add.w	r0, r6, #336	; 0x150
 800c9e8:	f000 f84a 	bl	800ca80 <__gnu_Unwind_Save_WMMXD>
 800c9ec:	e70b      	b.n	800c806 <_Unwind_VRS_Pop+0x82>
 800c9ee:	4602      	mov	r2, r0
 800c9f0:	462f      	mov	r7, r5
 800c9f2:	e783      	b.n	800c8fc <_Unwind_VRS_Pop+0x178>

0800c9f4 <__restore_core_regs>:
 800c9f4:	f100 0134 	add.w	r1, r0, #52	; 0x34
 800c9f8:	e891 0038 	ldmia.w	r1, {r3, r4, r5}
 800c9fc:	469c      	mov	ip, r3
 800c9fe:	46a6      	mov	lr, r4
 800ca00:	f84c 5d04 	str.w	r5, [ip, #-4]!
 800ca04:	e890 0fff 	ldmia.w	r0, {r0, r1, r2, r3, r4, r5, r6, r7, r8, r9, sl, fp}
 800ca08:	46e5      	mov	sp, ip
 800ca0a:	bd00      	pop	{pc}

0800ca0c <__gnu_Unwind_Restore_VFP>:
 800ca0c:	ec90 0b21 	fldmiax	r0, {d0-d15}	;@ Deprecated
 800ca10:	4770      	bx	lr
 800ca12:	bf00      	nop

0800ca14 <__gnu_Unwind_Save_VFP>:
 800ca14:	ec80 0b21 	fstmiax	r0, {d0-d15}	;@ Deprecated
 800ca18:	4770      	bx	lr
 800ca1a:	bf00      	nop

0800ca1c <__gnu_Unwind_Restore_VFP_D>:
 800ca1c:	ec90 0b20 	vldmia	r0, {d0-d15}
 800ca20:	4770      	bx	lr
 800ca22:	bf00      	nop

0800ca24 <__gnu_Unwind_Save_VFP_D>:
 800ca24:	ec80 0b20 	vstmia	r0, {d0-d15}
 800ca28:	4770      	bx	lr
 800ca2a:	bf00      	nop

0800ca2c <__gnu_Unwind_Restore_VFP_D_16_to_31>:
 800ca2c:	ecd0 0b20 	vldmia	r0, {d16-d31}
 800ca30:	4770      	bx	lr
 800ca32:	bf00      	nop

0800ca34 <__gnu_Unwind_Save_VFP_D_16_to_31>:
 800ca34:	ecc0 0b20 	vstmia	r0, {d16-d31}
 800ca38:	4770      	bx	lr
 800ca3a:	bf00      	nop

0800ca3c <__gnu_Unwind_Restore_WMMXD>:
 800ca3c:	ecf0 0102 	ldfe	f0, [r0], #8
 800ca40:	ecf0 1102 	ldfe	f1, [r0], #8
 800ca44:	ecf0 2102 	ldfe	f2, [r0], #8
 800ca48:	ecf0 3102 	ldfe	f3, [r0], #8
 800ca4c:	ecf0 4102 	ldfe	f4, [r0], #8
 800ca50:	ecf0 5102 	ldfe	f5, [r0], #8
 800ca54:	ecf0 6102 	ldfe	f6, [r0], #8
 800ca58:	ecf0 7102 	ldfe	f7, [r0], #8
 800ca5c:	ecf0 8102 	ldfp	f0, [r0], #8
 800ca60:	ecf0 9102 	ldfp	f1, [r0], #8
 800ca64:	ecf0 a102 	ldfp	f2, [r0], #8
 800ca68:	ecf0 b102 	ldfp	f3, [r0], #8
 800ca6c:	ecf0 c102 	ldfp	f4, [r0], #8
 800ca70:	ecf0 d102 	ldfp	f5, [r0], #8
 800ca74:	ecf0 e102 	ldfp	f6, [r0], #8
 800ca78:	ecf0 f102 	ldfp	f7, [r0], #8
 800ca7c:	4770      	bx	lr
 800ca7e:	bf00      	nop

0800ca80 <__gnu_Unwind_Save_WMMXD>:
 800ca80:	ece0 0102 	stfe	f0, [r0], #8
 800ca84:	ece0 1102 	stfe	f1, [r0], #8
 800ca88:	ece0 2102 	stfe	f2, [r0], #8
 800ca8c:	ece0 3102 	stfe	f3, [r0], #8
 800ca90:	ece0 4102 	stfe	f4, [r0], #8
 800ca94:	ece0 5102 	stfe	f5, [r0], #8
 800ca98:	ece0 6102 	stfe	f6, [r0], #8
 800ca9c:	ece0 7102 	stfe	f7, [r0], #8
 800caa0:	ece0 8102 	stfp	f0, [r0], #8
 800caa4:	ece0 9102 	stfp	f1, [r0], #8
 800caa8:	ece0 a102 	stfp	f2, [r0], #8
 800caac:	ece0 b102 	stfp	f3, [r0], #8
 800cab0:	ece0 c102 	stfp	f4, [r0], #8
 800cab4:	ece0 d102 	stfp	f5, [r0], #8
 800cab8:	ece0 e102 	stfp	f6, [r0], #8
 800cabc:	ece0 f102 	stfp	f7, [r0], #8
 800cac0:	4770      	bx	lr
 800cac2:	bf00      	nop

0800cac4 <__gnu_Unwind_Restore_WMMXC>:
 800cac4:	fcb0 8101 	ldc2	1, cr8, [r0], #4
 800cac8:	fcb0 9101 	ldc2	1, cr9, [r0], #4
 800cacc:	fcb0 a101 	ldc2	1, cr10, [r0], #4
 800cad0:	fcb0 b101 	ldc2	1, cr11, [r0], #4
 800cad4:	4770      	bx	lr
 800cad6:	bf00      	nop

0800cad8 <__gnu_Unwind_Save_WMMXC>:
 800cad8:	fca0 8101 	stc2	1, cr8, [r0], #4
 800cadc:	fca0 9101 	stc2	1, cr9, [r0], #4
 800cae0:	fca0 a101 	stc2	1, cr10, [r0], #4
 800cae4:	fca0 b101 	stc2	1, cr11, [r0], #4
 800cae8:	4770      	bx	lr
 800caea:	bf00      	nop

0800caec <_Unwind_RaiseException>:
 800caec:	46ec      	mov	ip, sp
 800caee:	b500      	push	{lr}
 800caf0:	e92d 5000 	stmdb	sp!, {ip, lr}
 800caf4:	e92d 1fff 	stmdb	sp!, {r0, r1, r2, r3, r4, r5, r6, r7, r8, r9, sl, fp, ip}
 800caf8:	f04f 0300 	mov.w	r3, #0
 800cafc:	e92d 000c 	stmdb	sp!, {r2, r3}
 800cb00:	a901      	add	r1, sp, #4
 800cb02:	f7ff fbd9 	bl	800c2b8 <__gnu_Unwind_RaiseException>
 800cb06:	f8dd e040 	ldr.w	lr, [sp, #64]	; 0x40
 800cb0a:	b012      	add	sp, #72	; 0x48
 800cb0c:	4770      	bx	lr
 800cb0e:	bf00      	nop

0800cb10 <_Unwind_Resume>:
 800cb10:	46ec      	mov	ip, sp
 800cb12:	b500      	push	{lr}
 800cb14:	e92d 5000 	stmdb	sp!, {ip, lr}
 800cb18:	e92d 1fff 	stmdb	sp!, {r0, r1, r2, r3, r4, r5, r6, r7, r8, r9, sl, fp, ip}
 800cb1c:	f04f 0300 	mov.w	r3, #0
 800cb20:	e92d 000c 	stmdb	sp!, {r2, r3}
 800cb24:	a901      	add	r1, sp, #4
 800cb26:	f7ff fc01 	bl	800c32c <__gnu_Unwind_Resume>
 800cb2a:	f8dd e040 	ldr.w	lr, [sp, #64]	; 0x40
 800cb2e:	b012      	add	sp, #72	; 0x48
 800cb30:	4770      	bx	lr
 800cb32:	bf00      	nop

0800cb34 <_Unwind_Resume_or_Rethrow>:
 800cb34:	46ec      	mov	ip, sp
 800cb36:	b500      	push	{lr}
 800cb38:	e92d 5000 	stmdb	sp!, {ip, lr}
 800cb3c:	e92d 1fff 	stmdb	sp!, {r0, r1, r2, r3, r4, r5, r6, r7, r8, r9, sl, fp, ip}
 800cb40:	f04f 0300 	mov.w	r3, #0
 800cb44:	e92d 000c 	stmdb	sp!, {r2, r3}
 800cb48:	a901      	add	r1, sp, #4
 800cb4a:	f7ff fc11 	bl	800c370 <__gnu_Unwind_Resume_or_Rethrow>
 800cb4e:	f8dd e040 	ldr.w	lr, [sp, #64]	; 0x40
 800cb52:	b012      	add	sp, #72	; 0x48
 800cb54:	4770      	bx	lr
 800cb56:	bf00      	nop

0800cb58 <_Unwind_ForcedUnwind>:
 800cb58:	46ec      	mov	ip, sp
 800cb5a:	b500      	push	{lr}
 800cb5c:	e92d 5000 	stmdb	sp!, {ip, lr}
 800cb60:	e92d 1fff 	stmdb	sp!, {r0, r1, r2, r3, r4, r5, r6, r7, r8, r9, sl, fp, ip}
 800cb64:	f04f 0300 	mov.w	r3, #0
 800cb68:	e92d 000c 	stmdb	sp!, {r2, r3}
 800cb6c:	ab01      	add	r3, sp, #4
 800cb6e:	f7ff fbd3 	bl	800c318 <__gnu_Unwind_ForcedUnwind>
 800cb72:	f8dd e040 	ldr.w	lr, [sp, #64]	; 0x40
 800cb76:	b012      	add	sp, #72	; 0x48
 800cb78:	4770      	bx	lr
 800cb7a:	bf00      	nop

0800cb7c <_Unwind_Backtrace>:
 800cb7c:	46ec      	mov	ip, sp
 800cb7e:	b500      	push	{lr}
 800cb80:	e92d 5000 	stmdb	sp!, {ip, lr}
 800cb84:	e92d 1fff 	stmdb	sp!, {r0, r1, r2, r3, r4, r5, r6, r7, r8, r9, sl, fp, ip}
 800cb88:	f04f 0300 	mov.w	r3, #0
 800cb8c:	e92d 000c 	stmdb	sp!, {r2, r3}
 800cb90:	aa01      	add	r2, sp, #4
 800cb92:	f7ff fc4d 	bl	800c430 <__gnu_Unwind_Backtrace>
 800cb96:	f8dd e040 	ldr.w	lr, [sp, #64]	; 0x40
 800cb9a:	b012      	add	sp, #72	; 0x48
 800cb9c:	4770      	bx	lr
 800cb9e:	bf00      	nop

0800cba0 <next_unwind_byte>:
 800cba0:	7a03      	ldrb	r3, [r0, #8]
 800cba2:	b993      	cbnz	r3, 800cbca <next_unwind_byte+0x2a>
 800cba4:	7a43      	ldrb	r3, [r0, #9]
 800cba6:	b90b      	cbnz	r3, 800cbac <next_unwind_byte+0xc>
 800cba8:	20b0      	movs	r0, #176	; 0xb0
 800cbaa:	4770      	bx	lr
 800cbac:	2103      	movs	r1, #3
 800cbae:	6842      	ldr	r2, [r0, #4]
 800cbb0:	3b01      	subs	r3, #1
 800cbb2:	b410      	push	{r4}
 800cbb4:	7243      	strb	r3, [r0, #9]
 800cbb6:	6813      	ldr	r3, [r2, #0]
 800cbb8:	1d14      	adds	r4, r2, #4
 800cbba:	7201      	strb	r1, [r0, #8]
 800cbbc:	021a      	lsls	r2, r3, #8
 800cbbe:	6044      	str	r4, [r0, #4]
 800cbc0:	6002      	str	r2, [r0, #0]
 800cbc2:	f85d 4b04 	ldr.w	r4, [sp], #4
 800cbc6:	0e18      	lsrs	r0, r3, #24
 800cbc8:	4770      	bx	lr
 800cbca:	1e5a      	subs	r2, r3, #1
 800cbcc:	6803      	ldr	r3, [r0, #0]
 800cbce:	7202      	strb	r2, [r0, #8]
 800cbd0:	021a      	lsls	r2, r3, #8
 800cbd2:	6002      	str	r2, [r0, #0]
 800cbd4:	0e18      	lsrs	r0, r3, #24
 800cbd6:	4770      	bx	lr

0800cbd8 <_Unwind_GetGR.constprop.0>:
 800cbd8:	2100      	movs	r1, #0
 800cbda:	b500      	push	{lr}
 800cbdc:	b085      	sub	sp, #20
 800cbde:	aa03      	add	r2, sp, #12
 800cbe0:	9200      	str	r2, [sp, #0]
 800cbe2:	460b      	mov	r3, r1
 800cbe4:	220c      	movs	r2, #12
 800cbe6:	f7ff fbd5 	bl	800c394 <_Unwind_VRS_Get>
 800cbea:	9803      	ldr	r0, [sp, #12]
 800cbec:	b005      	add	sp, #20
 800cbee:	f85d fb04 	ldr.w	pc, [sp], #4
 800cbf2:	bf00      	nop

0800cbf4 <unwind_UCB_from_context>:
 800cbf4:	e7f0      	b.n	800cbd8 <_Unwind_GetGR.constprop.0>
 800cbf6:	bf00      	nop

0800cbf8 <__gnu_unwind_execute>:
 800cbf8:	e92d 43f0 	stmdb	sp!, {r4, r5, r6, r7, r8, r9, lr}
 800cbfc:	4606      	mov	r6, r0
 800cbfe:	460d      	mov	r5, r1
 800cc00:	f04f 0800 	mov.w	r8, #0
 800cc04:	b085      	sub	sp, #20
 800cc06:	4628      	mov	r0, r5
 800cc08:	f7ff ffca 	bl	800cba0 <next_unwind_byte>
 800cc0c:	28b0      	cmp	r0, #176	; 0xb0
 800cc0e:	4604      	mov	r4, r0
 800cc10:	f000 80b5 	beq.w	800cd7e <__gnu_unwind_execute+0x186>
 800cc14:	f020 027f 	bic.w	r2, r0, #127	; 0x7f
 800cc18:	f012 01ff 	ands.w	r1, r2, #255	; 0xff
 800cc1c:	d020      	beq.n	800cc60 <__gnu_unwind_execute+0x68>
 800cc1e:	f000 03f0 	and.w	r3, r0, #240	; 0xf0
 800cc22:	2b80      	cmp	r3, #128	; 0x80
 800cc24:	d07a      	beq.n	800cd1c <__gnu_unwind_execute+0x124>
 800cc26:	2b90      	cmp	r3, #144	; 0x90
 800cc28:	d035      	beq.n	800cc96 <__gnu_unwind_execute+0x9e>
 800cc2a:	2ba0      	cmp	r3, #160	; 0xa0
 800cc2c:	d048      	beq.n	800ccc0 <__gnu_unwind_execute+0xc8>
 800cc2e:	2bb0      	cmp	r3, #176	; 0xb0
 800cc30:	d05c      	beq.n	800ccec <__gnu_unwind_execute+0xf4>
 800cc32:	2bc0      	cmp	r3, #192	; 0xc0
 800cc34:	f000 8089 	beq.w	800cd4a <__gnu_unwind_execute+0x152>
 800cc38:	f000 03f8 	and.w	r3, r0, #248	; 0xf8
 800cc3c:	2bd0      	cmp	r3, #208	; 0xd0
 800cc3e:	d10b      	bne.n	800cc58 <__gnu_unwind_execute+0x60>
 800cc40:	f000 0207 	and.w	r2, r0, #7
 800cc44:	3201      	adds	r2, #1
 800cc46:	f442 2200 	orr.w	r2, r2, #524288	; 0x80000
 800cc4a:	4630      	mov	r0, r6
 800cc4c:	2101      	movs	r1, #1
 800cc4e:	2305      	movs	r3, #5
 800cc50:	f7ff fd98 	bl	800c784 <_Unwind_VRS_Pop>
 800cc54:	2800      	cmp	r0, #0
 800cc56:	d0d6      	beq.n	800cc06 <__gnu_unwind_execute+0xe>
 800cc58:	2009      	movs	r0, #9
 800cc5a:	b005      	add	sp, #20
 800cc5c:	e8bd 83f0 	ldmia.w	sp!, {r4, r5, r6, r7, r8, r9, pc}
 800cc60:	f10d 090c 	add.w	r9, sp, #12
 800cc64:	460b      	mov	r3, r1
 800cc66:	0087      	lsls	r7, r0, #2
 800cc68:	f8cd 9000 	str.w	r9, [sp]
 800cc6c:	4630      	mov	r0, r6
 800cc6e:	220d      	movs	r2, #13
 800cc70:	f7ff fb90 	bl	800c394 <_Unwind_VRS_Get>
 800cc74:	2100      	movs	r1, #0
 800cc76:	9b03      	ldr	r3, [sp, #12]
 800cc78:	b2ff      	uxtb	r7, r7
 800cc7a:	3704      	adds	r7, #4
 800cc7c:	0660      	lsls	r0, r4, #25
 800cc7e:	bf4c      	ite	mi
 800cc80:	1bdf      	submi	r7, r3, r7
 800cc82:	18ff      	addpl	r7, r7, r3
 800cc84:	f8cd 9000 	str.w	r9, [sp]
 800cc88:	460b      	mov	r3, r1
 800cc8a:	4630      	mov	r0, r6
 800cc8c:	220d      	movs	r2, #13
 800cc8e:	9703      	str	r7, [sp, #12]
 800cc90:	f7ff fba6 	bl	800c3e0 <_Unwind_VRS_Set>
 800cc94:	e7b7      	b.n	800cc06 <__gnu_unwind_execute+0xe>
 800cc96:	f000 030d 	and.w	r3, r0, #13
 800cc9a:	2b0d      	cmp	r3, #13
 800cc9c:	d0dc      	beq.n	800cc58 <__gnu_unwind_execute+0x60>
 800cc9e:	2100      	movs	r1, #0
 800cca0:	af03      	add	r7, sp, #12
 800cca2:	f000 020f 	and.w	r2, r0, #15
 800cca6:	460b      	mov	r3, r1
 800cca8:	9700      	str	r7, [sp, #0]
 800ccaa:	4630      	mov	r0, r6
 800ccac:	f7ff fb72 	bl	800c394 <_Unwind_VRS_Get>
 800ccb0:	2100      	movs	r1, #0
 800ccb2:	9700      	str	r7, [sp, #0]
 800ccb4:	460b      	mov	r3, r1
 800ccb6:	4630      	mov	r0, r6
 800ccb8:	220d      	movs	r2, #13
 800ccba:	f7ff fb91 	bl	800c3e0 <_Unwind_VRS_Set>
 800ccbe:	e7a2      	b.n	800cc06 <__gnu_unwind_execute+0xe>
 800ccc0:	43c3      	mvns	r3, r0
 800ccc2:	f44f 627f 	mov.w	r2, #4080	; 0xff0
 800ccc6:	0701      	lsls	r1, r0, #28
 800ccc8:	f04f 0100 	mov.w	r1, #0
 800cccc:	f003 0307 	and.w	r3, r3, #7
 800ccd0:	fa42 f203 	asr.w	r2, r2, r3
 800ccd4:	f402 627f 	and.w	r2, r2, #4080	; 0xff0
 800ccd8:	bf48      	it	mi
 800ccda:	f442 4280 	orrmi.w	r2, r2, #16384	; 0x4000
 800ccde:	460b      	mov	r3, r1
 800cce0:	4630      	mov	r0, r6
 800cce2:	f7ff fd4f 	bl	800c784 <_Unwind_VRS_Pop>
 800cce6:	2800      	cmp	r0, #0
 800cce8:	d1b6      	bne.n	800cc58 <__gnu_unwind_execute+0x60>
 800ccea:	e78c      	b.n	800cc06 <__gnu_unwind_execute+0xe>
 800ccec:	28b1      	cmp	r0, #177	; 0xb1
 800ccee:	d04b      	beq.n	800cd88 <__gnu_unwind_execute+0x190>
 800ccf0:	28b2      	cmp	r0, #178	; 0xb2
 800ccf2:	d05c      	beq.n	800cdae <__gnu_unwind_execute+0x1b6>
 800ccf4:	28b3      	cmp	r0, #179	; 0xb3
 800ccf6:	f000 8089 	beq.w	800ce0c <__gnu_unwind_execute+0x214>
 800ccfa:	f000 03fc 	and.w	r3, r0, #252	; 0xfc
 800ccfe:	2bb4      	cmp	r3, #180	; 0xb4
 800cd00:	d0aa      	beq.n	800cc58 <__gnu_unwind_execute+0x60>
 800cd02:	2101      	movs	r1, #1
 800cd04:	f000 0207 	and.w	r2, r0, #7
 800cd08:	440a      	add	r2, r1
 800cd0a:	f442 2200 	orr.w	r2, r2, #524288	; 0x80000
 800cd0e:	460b      	mov	r3, r1
 800cd10:	4630      	mov	r0, r6
 800cd12:	f7ff fd37 	bl	800c784 <_Unwind_VRS_Pop>
 800cd16:	2800      	cmp	r0, #0
 800cd18:	d19e      	bne.n	800cc58 <__gnu_unwind_execute+0x60>
 800cd1a:	e774      	b.n	800cc06 <__gnu_unwind_execute+0xe>
 800cd1c:	4628      	mov	r0, r5
 800cd1e:	f7ff ff3f 	bl	800cba0 <next_unwind_byte>
 800cd22:	0224      	lsls	r4, r4, #8
 800cd24:	4320      	orrs	r0, r4
 800cd26:	f5b0 4f00 	cmp.w	r0, #32768	; 0x8000
 800cd2a:	d095      	beq.n	800cc58 <__gnu_unwind_execute+0x60>
 800cd2c:	2100      	movs	r1, #0
 800cd2e:	0104      	lsls	r4, r0, #4
 800cd30:	b2a2      	uxth	r2, r4
 800cd32:	460b      	mov	r3, r1
 800cd34:	4630      	mov	r0, r6
 800cd36:	f7ff fd25 	bl	800c784 <_Unwind_VRS_Pop>
 800cd3a:	2800      	cmp	r0, #0
 800cd3c:	d18c      	bne.n	800cc58 <__gnu_unwind_execute+0x60>
 800cd3e:	f414 4f00 	tst.w	r4, #32768	; 0x8000
 800cd42:	bf18      	it	ne
 800cd44:	f04f 0801 	movne.w	r8, #1
 800cd48:	e75d      	b.n	800cc06 <__gnu_unwind_execute+0xe>
 800cd4a:	28c6      	cmp	r0, #198	; 0xc6
 800cd4c:	d071      	beq.n	800ce32 <__gnu_unwind_execute+0x23a>
 800cd4e:	28c7      	cmp	r0, #199	; 0xc7
 800cd50:	d077      	beq.n	800ce42 <__gnu_unwind_execute+0x24a>
 800cd52:	f000 03f8 	and.w	r3, r0, #248	; 0xf8
 800cd56:	2bc0      	cmp	r3, #192	; 0xc0
 800cd58:	f000 8086 	beq.w	800ce68 <__gnu_unwind_execute+0x270>
 800cd5c:	28c8      	cmp	r0, #200	; 0xc8
 800cd5e:	f000 80a1 	beq.w	800cea4 <__gnu_unwind_execute+0x2ac>
 800cd62:	28c9      	cmp	r0, #201	; 0xc9
 800cd64:	f47f af78 	bne.w	800cc58 <__gnu_unwind_execute+0x60>
 800cd68:	4628      	mov	r0, r5
 800cd6a:	f7ff ff19 	bl	800cba0 <next_unwind_byte>
 800cd6e:	f000 020f 	and.w	r2, r0, #15
 800cd72:	3201      	adds	r2, #1
 800cd74:	f000 00f0 	and.w	r0, r0, #240	; 0xf0
 800cd78:	ea42 3200 	orr.w	r2, r2, r0, lsl #12
 800cd7c:	e765      	b.n	800cc4a <__gnu_unwind_execute+0x52>
 800cd7e:	f1b8 0f00 	cmp.w	r8, #0
 800cd82:	d07f      	beq.n	800ce84 <__gnu_unwind_execute+0x28c>
 800cd84:	2000      	movs	r0, #0
 800cd86:	e768      	b.n	800cc5a <__gnu_unwind_execute+0x62>
 800cd88:	4628      	mov	r0, r5
 800cd8a:	f7ff ff09 	bl	800cba0 <next_unwind_byte>
 800cd8e:	4602      	mov	r2, r0
 800cd90:	2800      	cmp	r0, #0
 800cd92:	f43f af61 	beq.w	800cc58 <__gnu_unwind_execute+0x60>
 800cd96:	f010 01f0 	ands.w	r1, r0, #240	; 0xf0
 800cd9a:	f47f af5d 	bne.w	800cc58 <__gnu_unwind_execute+0x60>
 800cd9e:	4630      	mov	r0, r6
 800cda0:	460b      	mov	r3, r1
 800cda2:	f7ff fcef 	bl	800c784 <_Unwind_VRS_Pop>
 800cda6:	2800      	cmp	r0, #0
 800cda8:	f47f af56 	bne.w	800cc58 <__gnu_unwind_execute+0x60>
 800cdac:	e72b      	b.n	800cc06 <__gnu_unwind_execute+0xe>
 800cdae:	2100      	movs	r1, #0
 800cdb0:	f10d 090c 	add.w	r9, sp, #12
 800cdb4:	220d      	movs	r2, #13
 800cdb6:	460b      	mov	r3, r1
 800cdb8:	f8cd 9000 	str.w	r9, [sp]
 800cdbc:	4630      	mov	r0, r6
 800cdbe:	f7ff fae9 	bl	800c394 <_Unwind_VRS_Get>
 800cdc2:	4628      	mov	r0, r5
 800cdc4:	f7ff feec 	bl	800cba0 <next_unwind_byte>
 800cdc8:	0602      	lsls	r2, r0, #24
 800cdca:	f04f 0402 	mov.w	r4, #2
 800cdce:	d50c      	bpl.n	800cdea <__gnu_unwind_execute+0x1f2>
 800cdd0:	9b03      	ldr	r3, [sp, #12]
 800cdd2:	f000 007f 	and.w	r0, r0, #127	; 0x7f
 800cdd6:	40a0      	lsls	r0, r4
 800cdd8:	4403      	add	r3, r0
 800cdda:	4628      	mov	r0, r5
 800cddc:	9303      	str	r3, [sp, #12]
 800cdde:	f7ff fedf 	bl	800cba0 <next_unwind_byte>
 800cde2:	0603      	lsls	r3, r0, #24
 800cde4:	f104 0407 	add.w	r4, r4, #7
 800cde8:	d4f2      	bmi.n	800cdd0 <__gnu_unwind_execute+0x1d8>
 800cdea:	2100      	movs	r1, #0
 800cdec:	9b03      	ldr	r3, [sp, #12]
 800cdee:	f000 007f 	and.w	r0, r0, #127	; 0x7f
 800cdf2:	40a0      	lsls	r0, r4
 800cdf4:	f503 7301 	add.w	r3, r3, #516	; 0x204
 800cdf8:	181c      	adds	r4, r3, r0
 800cdfa:	f8cd 9000 	str.w	r9, [sp]
 800cdfe:	460b      	mov	r3, r1
 800ce00:	4630      	mov	r0, r6
 800ce02:	220d      	movs	r2, #13
 800ce04:	9403      	str	r4, [sp, #12]
 800ce06:	f7ff faeb 	bl	800c3e0 <_Unwind_VRS_Set>
 800ce0a:	e6fc      	b.n	800cc06 <__gnu_unwind_execute+0xe>
 800ce0c:	4628      	mov	r0, r5
 800ce0e:	f7ff fec7 	bl	800cba0 <next_unwind_byte>
 800ce12:	2101      	movs	r1, #1
 800ce14:	f000 020f 	and.w	r2, r0, #15
 800ce18:	440a      	add	r2, r1
 800ce1a:	f000 00f0 	and.w	r0, r0, #240	; 0xf0
 800ce1e:	ea42 3200 	orr.w	r2, r2, r0, lsl #12
 800ce22:	460b      	mov	r3, r1
 800ce24:	4630      	mov	r0, r6
 800ce26:	f7ff fcad 	bl	800c784 <_Unwind_VRS_Pop>
 800ce2a:	2800      	cmp	r0, #0
 800ce2c:	f47f af14 	bne.w	800cc58 <__gnu_unwind_execute+0x60>
 800ce30:	e6e9      	b.n	800cc06 <__gnu_unwind_execute+0xe>
 800ce32:	4628      	mov	r0, r5
 800ce34:	f7ff feb4 	bl	800cba0 <next_unwind_byte>
 800ce38:	f000 020f 	and.w	r2, r0, #15
 800ce3c:	2103      	movs	r1, #3
 800ce3e:	3201      	adds	r2, #1
 800ce40:	e7eb      	b.n	800ce1a <__gnu_unwind_execute+0x222>
 800ce42:	4628      	mov	r0, r5
 800ce44:	f7ff feac 	bl	800cba0 <next_unwind_byte>
 800ce48:	4602      	mov	r2, r0
 800ce4a:	2800      	cmp	r0, #0
 800ce4c:	f43f af04 	beq.w	800cc58 <__gnu_unwind_execute+0x60>
 800ce50:	f010 03f0 	ands.w	r3, r0, #240	; 0xf0
 800ce54:	f47f af00 	bne.w	800cc58 <__gnu_unwind_execute+0x60>
 800ce58:	4630      	mov	r0, r6
 800ce5a:	2104      	movs	r1, #4
 800ce5c:	f7ff fc92 	bl	800c784 <_Unwind_VRS_Pop>
 800ce60:	2800      	cmp	r0, #0
 800ce62:	f47f aef9 	bne.w	800cc58 <__gnu_unwind_execute+0x60>
 800ce66:	e6ce      	b.n	800cc06 <__gnu_unwind_execute+0xe>
 800ce68:	2103      	movs	r1, #3
 800ce6a:	f000 020f 	and.w	r2, r0, #15
 800ce6e:	3201      	adds	r2, #1
 800ce70:	f442 2220 	orr.w	r2, r2, #655360	; 0xa0000
 800ce74:	460b      	mov	r3, r1
 800ce76:	4630      	mov	r0, r6
 800ce78:	f7ff fc84 	bl	800c784 <_Unwind_VRS_Pop>
 800ce7c:	2800      	cmp	r0, #0
 800ce7e:	f47f aeeb 	bne.w	800cc58 <__gnu_unwind_execute+0x60>
 800ce82:	e6c0      	b.n	800cc06 <__gnu_unwind_execute+0xe>
 800ce84:	ac03      	add	r4, sp, #12
 800ce86:	4641      	mov	r1, r8
 800ce88:	4643      	mov	r3, r8
 800ce8a:	9400      	str	r4, [sp, #0]
 800ce8c:	4630      	mov	r0, r6
 800ce8e:	220e      	movs	r2, #14
 800ce90:	f7ff fa80 	bl	800c394 <_Unwind_VRS_Get>
 800ce94:	9400      	str	r4, [sp, #0]
 800ce96:	4630      	mov	r0, r6
 800ce98:	4641      	mov	r1, r8
 800ce9a:	4643      	mov	r3, r8
 800ce9c:	220f      	movs	r2, #15
 800ce9e:	f7ff fa9f 	bl	800c3e0 <_Unwind_VRS_Set>
 800cea2:	e76f      	b.n	800cd84 <__gnu_unwind_execute+0x18c>
 800cea4:	4628      	mov	r0, r5
 800cea6:	f7ff fe7b 	bl	800cba0 <next_unwind_byte>
 800ceaa:	f000 02f0 	and.w	r2, r0, #240	; 0xf0
 800ceae:	f000 030f 	and.w	r3, r0, #15
 800ceb2:	3210      	adds	r2, #16
 800ceb4:	3301      	adds	r3, #1
 800ceb6:	ea43 3202 	orr.w	r2, r3, r2, lsl #12
 800ceba:	e6c6      	b.n	800cc4a <__gnu_unwind_execute+0x52>

0800cebc <__gnu_unwind_frame>:
 800cebc:	b510      	push	{r4, lr}
 800cebe:	2403      	movs	r4, #3
 800cec0:	6cc3      	ldr	r3, [r0, #76]	; 0x4c
 800cec2:	b084      	sub	sp, #16
 800cec4:	685a      	ldr	r2, [r3, #4]
 800cec6:	f88d 400c 	strb.w	r4, [sp, #12]
 800ceca:	79dc      	ldrb	r4, [r3, #7]
 800cecc:	0212      	lsls	r2, r2, #8
 800cece:	3308      	adds	r3, #8
 800ced0:	4608      	mov	r0, r1
 800ced2:	a901      	add	r1, sp, #4
 800ced4:	9201      	str	r2, [sp, #4]
 800ced6:	f88d 400d 	strb.w	r4, [sp, #13]
 800ceda:	9302      	str	r3, [sp, #8]
 800cedc:	f7ff fe8c 	bl	800cbf8 <__gnu_unwind_execute>
 800cee0:	b004      	add	sp, #16
 800cee2:	bd10      	pop	{r4, pc}

0800cee4 <_Unwind_GetRegionStart>:
 800cee4:	b508      	push	{r3, lr}
 800cee6:	f7ff fe85 	bl	800cbf4 <unwind_UCB_from_context>
 800ceea:	6c80      	ldr	r0, [r0, #72]	; 0x48
 800ceec:	bd08      	pop	{r3, pc}
 800ceee:	bf00      	nop

0800cef0 <_Unwind_GetLanguageSpecificData>:
 800cef0:	b508      	push	{r3, lr}
 800cef2:	f7ff fe7f 	bl	800cbf4 <unwind_UCB_from_context>
 800cef6:	6cc3      	ldr	r3, [r0, #76]	; 0x4c
 800cef8:	79d8      	ldrb	r0, [r3, #7]
 800cefa:	eb03 0080 	add.w	r0, r3, r0, lsl #2
 800cefe:	3008      	adds	r0, #8
 800cf00:	bd08      	pop	{r3, pc}
 800cf02:	bf00      	nop

0800cf04 <_Unwind_GetDataRelBase>:
 800cf04:	b508      	push	{r3, lr}
 800cf06:	f7fe fbbd 	bl	800b684 <abort>
 800cf0a:	bf00      	nop

0800cf0c <_Unwind_GetTextRelBase>:
 800cf0c:	b508      	push	{r3, lr}
 800cf0e:	f7fe fbb9 	bl	800b684 <abort>
 800cf12:	bf00      	nop

0800cf14 <__aeabi_idiv0>:
 800cf14:	4770      	bx	lr
 800cf16:	bf00      	nop

0800cf18 <__divdi3>:
 800cf18:	2900      	cmp	r1, #0
 800cf1a:	e92d 43f0 	stmdb	sp!, {r4, r5, r6, r7, r8, r9, lr}
 800cf1e:	f2c0 80a6 	blt.w	800d06e <__divdi3+0x156>
 800cf22:	2600      	movs	r6, #0
 800cf24:	2b00      	cmp	r3, #0
 800cf26:	f2c0 809c 	blt.w	800d062 <__divdi3+0x14a>
 800cf2a:	4681      	mov	r9, r0
 800cf2c:	468e      	mov	lr, r1
 800cf2e:	4690      	mov	r8, r2
 800cf30:	469c      	mov	ip, r3
 800cf32:	4617      	mov	r7, r2
 800cf34:	4604      	mov	r4, r0
 800cf36:	460d      	mov	r5, r1
 800cf38:	2b00      	cmp	r3, #0
 800cf3a:	d13d      	bne.n	800cfb8 <__divdi3+0xa0>
 800cf3c:	428a      	cmp	r2, r1
 800cf3e:	d958      	bls.n	800cff2 <__divdi3+0xda>
 800cf40:	fab2 f382 	clz	r3, r2
 800cf44:	b13b      	cbz	r3, 800cf56 <__divdi3+0x3e>
 800cf46:	f1c3 0220 	rsb	r2, r3, #32
 800cf4a:	409d      	lsls	r5, r3
 800cf4c:	fa20 f202 	lsr.w	r2, r0, r2
 800cf50:	409f      	lsls	r7, r3
 800cf52:	4315      	orrs	r5, r2
 800cf54:	409c      	lsls	r4, r3
 800cf56:	0c39      	lsrs	r1, r7, #16
 800cf58:	fbb5 f0f1 	udiv	r0, r5, r1
 800cf5c:	fa1f fe87 	uxth.w	lr, r7
 800cf60:	fb01 5510 	mls	r5, r1, r0, r5
 800cf64:	fb0e f300 	mul.w	r3, lr, r0
 800cf68:	0c22      	lsrs	r2, r4, #16
 800cf6a:	ea42 4505 	orr.w	r5, r2, r5, lsl #16
 800cf6e:	42ab      	cmp	r3, r5
 800cf70:	d909      	bls.n	800cf86 <__divdi3+0x6e>
 800cf72:	19ed      	adds	r5, r5, r7
 800cf74:	f100 32ff 	add.w	r2, r0, #4294967295
 800cf78:	f080 810a 	bcs.w	800d190 <__divdi3+0x278>
 800cf7c:	42ab      	cmp	r3, r5
 800cf7e:	f240 8107 	bls.w	800d190 <__divdi3+0x278>
 800cf82:	3802      	subs	r0, #2
 800cf84:	443d      	add	r5, r7
 800cf86:	1aed      	subs	r5, r5, r3
 800cf88:	fbb5 f3f1 	udiv	r3, r5, r1
 800cf8c:	fb01 5513 	mls	r5, r1, r3, r5
 800cf90:	fb0e fe03 	mul.w	lr, lr, r3
 800cf94:	b2a4      	uxth	r4, r4
 800cf96:	ea44 4505 	orr.w	r5, r4, r5, lsl #16
 800cf9a:	45ae      	cmp	lr, r5
 800cf9c:	d908      	bls.n	800cfb0 <__divdi3+0x98>
 800cf9e:	19ed      	adds	r5, r5, r7
 800cfa0:	f103 32ff 	add.w	r2, r3, #4294967295
 800cfa4:	f080 80f6 	bcs.w	800d194 <__divdi3+0x27c>
 800cfa8:	45ae      	cmp	lr, r5
 800cfaa:	f240 80f3 	bls.w	800d194 <__divdi3+0x27c>
 800cfae:	3b02      	subs	r3, #2
 800cfb0:	ea43 4300 	orr.w	r3, r3, r0, lsl #16
 800cfb4:	2200      	movs	r2, #0
 800cfb6:	e003      	b.n	800cfc0 <__divdi3+0xa8>
 800cfb8:	428b      	cmp	r3, r1
 800cfba:	d90e      	bls.n	800cfda <__divdi3+0xc2>
 800cfbc:	2200      	movs	r2, #0
 800cfbe:	4613      	mov	r3, r2
 800cfc0:	1c34      	adds	r4, r6, #0
 800cfc2:	bf18      	it	ne
 800cfc4:	2401      	movne	r4, #1
 800cfc6:	2500      	movs	r5, #0
 800cfc8:	4260      	negs	r0, r4
 800cfca:	eb65 0145 	sbc.w	r1, r5, r5, lsl #1
 800cfce:	4058      	eors	r0, r3
 800cfd0:	4051      	eors	r1, r2
 800cfd2:	1900      	adds	r0, r0, r4
 800cfd4:	4169      	adcs	r1, r5
 800cfd6:	e8bd 83f0 	ldmia.w	sp!, {r4, r5, r6, r7, r8, r9, pc}
 800cfda:	fab3 f283 	clz	r2, r3
 800cfde:	2a00      	cmp	r2, #0
 800cfe0:	f040 8089 	bne.w	800d0f6 <__divdi3+0x1de>
 800cfe4:	428b      	cmp	r3, r1
 800cfe6:	d302      	bcc.n	800cfee <__divdi3+0xd6>
 800cfe8:	4580      	cmp	r8, r0
 800cfea:	f200 80de 	bhi.w	800d1aa <__divdi3+0x292>
 800cfee:	2301      	movs	r3, #1
 800cff0:	e7e6      	b.n	800cfc0 <__divdi3+0xa8>
 800cff2:	b912      	cbnz	r2, 800cffa <__divdi3+0xe2>
 800cff4:	2301      	movs	r3, #1
 800cff6:	fbb3 f7f2 	udiv	r7, r3, r2
 800cffa:	fab7 f887 	clz	r8, r7
 800cffe:	f1b8 0f00 	cmp.w	r8, #0
 800d002:	d13a      	bne.n	800d07a <__divdi3+0x162>
 800d004:	2201      	movs	r2, #1
 800d006:	1bed      	subs	r5, r5, r7
 800d008:	b2b8      	uxth	r0, r7
 800d00a:	0c39      	lsrs	r1, r7, #16
 800d00c:	fbb5 fcf1 	udiv	ip, r5, r1
 800d010:	fb01 551c 	mls	r5, r1, ip, r5
 800d014:	fb00 f30c 	mul.w	r3, r0, ip
 800d018:	ea4f 4e14 	mov.w	lr, r4, lsr #16
 800d01c:	ea4e 4505 	orr.w	r5, lr, r5, lsl #16
 800d020:	42ab      	cmp	r3, r5
 800d022:	d907      	bls.n	800d034 <__divdi3+0x11c>
 800d024:	19ed      	adds	r5, r5, r7
 800d026:	f10c 3eff 	add.w	lr, ip, #4294967295
 800d02a:	d202      	bcs.n	800d032 <__divdi3+0x11a>
 800d02c:	42ab      	cmp	r3, r5
 800d02e:	f200 80c2 	bhi.w	800d1b6 <__divdi3+0x29e>
 800d032:	46f4      	mov	ip, lr
 800d034:	1aed      	subs	r5, r5, r3
 800d036:	fbb5 f3f1 	udiv	r3, r5, r1
 800d03a:	fb01 5513 	mls	r5, r1, r3, r5
 800d03e:	fb00 f003 	mul.w	r0, r0, r3
 800d042:	b2a4      	uxth	r4, r4
 800d044:	ea44 4505 	orr.w	r5, r4, r5, lsl #16
 800d048:	42a8      	cmp	r0, r5
 800d04a:	d907      	bls.n	800d05c <__divdi3+0x144>
 800d04c:	19ed      	adds	r5, r5, r7
 800d04e:	f103 31ff 	add.w	r1, r3, #4294967295
 800d052:	d202      	bcs.n	800d05a <__divdi3+0x142>
 800d054:	42a8      	cmp	r0, r5
 800d056:	f200 80b2 	bhi.w	800d1be <__divdi3+0x2a6>
 800d05a:	460b      	mov	r3, r1
 800d05c:	ea43 430c 	orr.w	r3, r3, ip, lsl #16
 800d060:	e7ae      	b.n	800cfc0 <__divdi3+0xa8>
 800d062:	4252      	negs	r2, r2
 800d064:	ea6f 0606 	mvn.w	r6, r6
 800d068:	eb63 0343 	sbc.w	r3, r3, r3, lsl #1
 800d06c:	e75d      	b.n	800cf2a <__divdi3+0x12>
 800d06e:	4240      	negs	r0, r0
 800d070:	eb61 0141 	sbc.w	r1, r1, r1, lsl #1
 800d074:	f04f 36ff 	mov.w	r6, #4294967295
 800d078:	e754      	b.n	800cf24 <__divdi3+0xc>
 800d07a:	fa07 f708 	lsl.w	r7, r7, r8
 800d07e:	f1c8 0220 	rsb	r2, r8, #32
 800d082:	fa25 f302 	lsr.w	r3, r5, r2
 800d086:	0c39      	lsrs	r1, r7, #16
 800d088:	fbb3 fef1 	udiv	lr, r3, r1
 800d08c:	b2b8      	uxth	r0, r7
 800d08e:	fb01 331e 	mls	r3, r1, lr, r3
 800d092:	fa24 f202 	lsr.w	r2, r4, r2
 800d096:	fa05 f508 	lsl.w	r5, r5, r8
 800d09a:	fb00 f90e 	mul.w	r9, r0, lr
 800d09e:	432a      	orrs	r2, r5
 800d0a0:	ea4f 4c12 	mov.w	ip, r2, lsr #16
 800d0a4:	ea4c 4303 	orr.w	r3, ip, r3, lsl #16
 800d0a8:	4599      	cmp	r9, r3
 800d0aa:	fa04 f408 	lsl.w	r4, r4, r8
 800d0ae:	d908      	bls.n	800d0c2 <__divdi3+0x1aa>
 800d0b0:	19db      	adds	r3, r3, r7
 800d0b2:	f10e 35ff 	add.w	r5, lr, #4294967295
 800d0b6:	d27c      	bcs.n	800d1b2 <__divdi3+0x29a>
 800d0b8:	4599      	cmp	r9, r3
 800d0ba:	d97a      	bls.n	800d1b2 <__divdi3+0x29a>
 800d0bc:	f1ae 0e02 	sub.w	lr, lr, #2
 800d0c0:	443b      	add	r3, r7
 800d0c2:	ebc9 0303 	rsb	r3, r9, r3
 800d0c6:	fbb3 fcf1 	udiv	ip, r3, r1
 800d0ca:	fb01 331c 	mls	r3, r1, ip, r3
 800d0ce:	fb00 f50c 	mul.w	r5, r0, ip
 800d0d2:	b292      	uxth	r2, r2
 800d0d4:	ea42 4303 	orr.w	r3, r2, r3, lsl #16
 800d0d8:	429d      	cmp	r5, r3
 800d0da:	d908      	bls.n	800d0ee <__divdi3+0x1d6>
 800d0dc:	19db      	adds	r3, r3, r7
 800d0de:	f10c 32ff 	add.w	r2, ip, #4294967295
 800d0e2:	d25e      	bcs.n	800d1a2 <__divdi3+0x28a>
 800d0e4:	429d      	cmp	r5, r3
 800d0e6:	d95c      	bls.n	800d1a2 <__divdi3+0x28a>
 800d0e8:	f1ac 0c02 	sub.w	ip, ip, #2
 800d0ec:	443b      	add	r3, r7
 800d0ee:	1b5d      	subs	r5, r3, r5
 800d0f0:	ea4c 420e 	orr.w	r2, ip, lr, lsl #16
 800d0f4:	e78a      	b.n	800d00c <__divdi3+0xf4>
 800d0f6:	f1c2 0320 	rsb	r3, r2, #32
 800d0fa:	fa28 f103 	lsr.w	r1, r8, r3
 800d0fe:	fa0c fc02 	lsl.w	ip, ip, r2
 800d102:	ea41 0c0c 	orr.w	ip, r1, ip
 800d106:	ea4f 401c 	mov.w	r0, ip, lsr #16
 800d10a:	fa2e f103 	lsr.w	r1, lr, r3
 800d10e:	fbb1 f5f0 	udiv	r5, r1, r0
 800d112:	fa1f f78c 	uxth.w	r7, ip
 800d116:	fb00 1115 	mls	r1, r0, r5, r1
 800d11a:	fa29 f303 	lsr.w	r3, r9, r3
 800d11e:	fa0e fe02 	lsl.w	lr, lr, r2
 800d122:	fb07 f905 	mul.w	r9, r7, r5
 800d126:	ea43 0e0e 	orr.w	lr, r3, lr
 800d12a:	ea4f 431e 	mov.w	r3, lr, lsr #16
 800d12e:	ea43 4101 	orr.w	r1, r3, r1, lsl #16
 800d132:	4589      	cmp	r9, r1
 800d134:	fa08 f802 	lsl.w	r8, r8, r2
 800d138:	d908      	bls.n	800d14c <__divdi3+0x234>
 800d13a:	eb11 010c 	adds.w	r1, r1, ip
 800d13e:	f105 33ff 	add.w	r3, r5, #4294967295
 800d142:	d234      	bcs.n	800d1ae <__divdi3+0x296>
 800d144:	4589      	cmp	r9, r1
 800d146:	d932      	bls.n	800d1ae <__divdi3+0x296>
 800d148:	3d02      	subs	r5, #2
 800d14a:	4461      	add	r1, ip
 800d14c:	ebc9 0101 	rsb	r1, r9, r1
 800d150:	fbb1 f3f0 	udiv	r3, r1, r0
 800d154:	fb00 1113 	mls	r1, r0, r3, r1
 800d158:	fb07 f703 	mul.w	r7, r7, r3
 800d15c:	fa1f fe8e 	uxth.w	lr, lr
 800d160:	ea4e 4e01 	orr.w	lr, lr, r1, lsl #16
 800d164:	4577      	cmp	r7, lr
 800d166:	d908      	bls.n	800d17a <__divdi3+0x262>
 800d168:	eb1e 0e0c 	adds.w	lr, lr, ip
 800d16c:	f103 31ff 	add.w	r1, r3, #4294967295
 800d170:	d219      	bcs.n	800d1a6 <__divdi3+0x28e>
 800d172:	4577      	cmp	r7, lr
 800d174:	d917      	bls.n	800d1a6 <__divdi3+0x28e>
 800d176:	3b02      	subs	r3, #2
 800d178:	44e6      	add	lr, ip
 800d17a:	ea43 4305 	orr.w	r3, r3, r5, lsl #16
 800d17e:	fba3 8908 	umull	r8, r9, r3, r8
 800d182:	ebc7 0e0e 	rsb	lr, r7, lr
 800d186:	45ce      	cmp	lr, r9
 800d188:	d309      	bcc.n	800d19e <__divdi3+0x286>
 800d18a:	d005      	beq.n	800d198 <__divdi3+0x280>
 800d18c:	2200      	movs	r2, #0
 800d18e:	e717      	b.n	800cfc0 <__divdi3+0xa8>
 800d190:	4610      	mov	r0, r2
 800d192:	e6f8      	b.n	800cf86 <__divdi3+0x6e>
 800d194:	4613      	mov	r3, r2
 800d196:	e70b      	b.n	800cfb0 <__divdi3+0x98>
 800d198:	4094      	lsls	r4, r2
 800d19a:	4544      	cmp	r4, r8
 800d19c:	d2f6      	bcs.n	800d18c <__divdi3+0x274>
 800d19e:	3b01      	subs	r3, #1
 800d1a0:	e7f4      	b.n	800d18c <__divdi3+0x274>
 800d1a2:	4694      	mov	ip, r2
 800d1a4:	e7a3      	b.n	800d0ee <__divdi3+0x1d6>
 800d1a6:	460b      	mov	r3, r1
 800d1a8:	e7e7      	b.n	800d17a <__divdi3+0x262>
 800d1aa:	4613      	mov	r3, r2
 800d1ac:	e708      	b.n	800cfc0 <__divdi3+0xa8>
 800d1ae:	461d      	mov	r5, r3
 800d1b0:	e7cc      	b.n	800d14c <__divdi3+0x234>
 800d1b2:	46ae      	mov	lr, r5
 800d1b4:	e785      	b.n	800d0c2 <__divdi3+0x1aa>
 800d1b6:	f1ac 0c02 	sub.w	ip, ip, #2
 800d1ba:	443d      	add	r5, r7
 800d1bc:	e73a      	b.n	800d034 <__divdi3+0x11c>
 800d1be:	3b02      	subs	r3, #2
 800d1c0:	e74c      	b.n	800d05c <__divdi3+0x144>
 800d1c2:	bf00      	nop

0800d1c4 <__udivdi3>:
 800d1c4:	e92d 43f0 	stmdb	sp!, {r4, r5, r6, r7, r8, r9, lr}
 800d1c8:	2b00      	cmp	r3, #0
 800d1ca:	d144      	bne.n	800d256 <__udivdi3+0x92>
 800d1cc:	428a      	cmp	r2, r1
 800d1ce:	4615      	mov	r5, r2
 800d1d0:	4604      	mov	r4, r0
 800d1d2:	d94f      	bls.n	800d274 <__udivdi3+0xb0>
 800d1d4:	fab2 f782 	clz	r7, r2
 800d1d8:	460e      	mov	r6, r1
 800d1da:	b14f      	cbz	r7, 800d1f0 <__udivdi3+0x2c>
 800d1dc:	f1c7 0320 	rsb	r3, r7, #32
 800d1e0:	40b9      	lsls	r1, r7
 800d1e2:	fa20 f603 	lsr.w	r6, r0, r3
 800d1e6:	fa02 f507 	lsl.w	r5, r2, r7
 800d1ea:	430e      	orrs	r6, r1
 800d1ec:	fa00 f407 	lsl.w	r4, r0, r7
 800d1f0:	0c2f      	lsrs	r7, r5, #16
 800d1f2:	fbb6 f0f7 	udiv	r0, r6, r7
 800d1f6:	fa1f fe85 	uxth.w	lr, r5
 800d1fa:	fb07 6210 	mls	r2, r7, r0, r6
 800d1fe:	fb0e f100 	mul.w	r1, lr, r0
 800d202:	0c26      	lsrs	r6, r4, #16
 800d204:	ea46 4302 	orr.w	r3, r6, r2, lsl #16
 800d208:	4299      	cmp	r1, r3
 800d20a:	d909      	bls.n	800d220 <__udivdi3+0x5c>
 800d20c:	195b      	adds	r3, r3, r5
 800d20e:	f100 32ff 	add.w	r2, r0, #4294967295
 800d212:	f080 80f4 	bcs.w	800d3fe <__udivdi3+0x23a>
 800d216:	4299      	cmp	r1, r3
 800d218:	f240 80f1 	bls.w	800d3fe <__udivdi3+0x23a>
 800d21c:	3802      	subs	r0, #2
 800d21e:	442b      	add	r3, r5
 800d220:	1a59      	subs	r1, r3, r1
 800d222:	fbb1 f3f7 	udiv	r3, r1, r7
 800d226:	fb07 1113 	mls	r1, r7, r3, r1
 800d22a:	fb0e fe03 	mul.w	lr, lr, r3
 800d22e:	b2a4      	uxth	r4, r4
 800d230:	ea44 4101 	orr.w	r1, r4, r1, lsl #16
 800d234:	458e      	cmp	lr, r1
 800d236:	d908      	bls.n	800d24a <__udivdi3+0x86>
 800d238:	1949      	adds	r1, r1, r5
 800d23a:	f103 32ff 	add.w	r2, r3, #4294967295
 800d23e:	f080 80e8 	bcs.w	800d412 <__udivdi3+0x24e>
 800d242:	458e      	cmp	lr, r1
 800d244:	f240 80e5 	bls.w	800d412 <__udivdi3+0x24e>
 800d248:	3b02      	subs	r3, #2
 800d24a:	2600      	movs	r6, #0
 800d24c:	ea43 4000 	orr.w	r0, r3, r0, lsl #16
 800d250:	4631      	mov	r1, r6
 800d252:	e8bd 83f0 	ldmia.w	sp!, {r4, r5, r6, r7, r8, r9, pc}
 800d256:	428b      	cmp	r3, r1
 800d258:	d847      	bhi.n	800d2ea <__udivdi3+0x126>
 800d25a:	fab3 f683 	clz	r6, r3
 800d25e:	2e00      	cmp	r6, #0
 800d260:	d148      	bne.n	800d2f4 <__udivdi3+0x130>
 800d262:	428b      	cmp	r3, r1
 800d264:	d302      	bcc.n	800d26c <__udivdi3+0xa8>
 800d266:	4282      	cmp	r2, r0
 800d268:	f200 80d5 	bhi.w	800d416 <__udivdi3+0x252>
 800d26c:	2001      	movs	r0, #1
 800d26e:	4631      	mov	r1, r6
 800d270:	e8bd 83f0 	ldmia.w	sp!, {r4, r5, r6, r7, r8, r9, pc}
 800d274:	b912      	cbnz	r2, 800d27c <__udivdi3+0xb8>
 800d276:	2501      	movs	r5, #1
 800d278:	fbb5 f5f2 	udiv	r5, r5, r2
 800d27c:	fab5 fc85 	clz	ip, r5
 800d280:	f1bc 0f00 	cmp.w	ip, #0
 800d284:	d17f      	bne.n	800d386 <__udivdi3+0x1c2>
 800d286:	2601      	movs	r6, #1
 800d288:	1b49      	subs	r1, r1, r5
 800d28a:	fa1f fe85 	uxth.w	lr, r5
 800d28e:	0c2f      	lsrs	r7, r5, #16
 800d290:	fbb1 f0f7 	udiv	r0, r1, r7
 800d294:	fb07 1110 	mls	r1, r7, r0, r1
 800d298:	fb0e f200 	mul.w	r2, lr, r0
 800d29c:	0c23      	lsrs	r3, r4, #16
 800d29e:	ea43 4101 	orr.w	r1, r3, r1, lsl #16
 800d2a2:	428a      	cmp	r2, r1
 800d2a4:	d907      	bls.n	800d2b6 <__udivdi3+0xf2>
 800d2a6:	1949      	adds	r1, r1, r5
 800d2a8:	f100 33ff 	add.w	r3, r0, #4294967295
 800d2ac:	d202      	bcs.n	800d2b4 <__udivdi3+0xf0>
 800d2ae:	428a      	cmp	r2, r1
 800d2b0:	f200 80bb 	bhi.w	800d42a <__udivdi3+0x266>
 800d2b4:	4618      	mov	r0, r3
 800d2b6:	1a89      	subs	r1, r1, r2
 800d2b8:	fbb1 f3f7 	udiv	r3, r1, r7
 800d2bc:	fb07 1113 	mls	r1, r7, r3, r1
 800d2c0:	fb0e fe03 	mul.w	lr, lr, r3
 800d2c4:	b2a4      	uxth	r4, r4
 800d2c6:	ea44 4201 	orr.w	r2, r4, r1, lsl #16
 800d2ca:	4596      	cmp	lr, r2
 800d2cc:	d908      	bls.n	800d2e0 <__udivdi3+0x11c>
 800d2ce:	1952      	adds	r2, r2, r5
 800d2d0:	f103 31ff 	add.w	r1, r3, #4294967295
 800d2d4:	f080 809b 	bcs.w	800d40e <__udivdi3+0x24a>
 800d2d8:	4596      	cmp	lr, r2
 800d2da:	f240 8098 	bls.w	800d40e <__udivdi3+0x24a>
 800d2de:	3b02      	subs	r3, #2
 800d2e0:	ea43 4000 	orr.w	r0, r3, r0, lsl #16
 800d2e4:	4631      	mov	r1, r6
 800d2e6:	e8bd 83f0 	ldmia.w	sp!, {r4, r5, r6, r7, r8, r9, pc}
 800d2ea:	2600      	movs	r6, #0
 800d2ec:	4630      	mov	r0, r6
 800d2ee:	4631      	mov	r1, r6
 800d2f0:	e8bd 83f0 	ldmia.w	sp!, {r4, r5, r6, r7, r8, r9, pc}
 800d2f4:	f1c6 0420 	rsb	r4, r6, #32
 800d2f8:	fa22 f504 	lsr.w	r5, r2, r4
 800d2fc:	40b3      	lsls	r3, r6
 800d2fe:	432b      	orrs	r3, r5
 800d300:	fa21 f704 	lsr.w	r7, r1, r4
 800d304:	ea4f 4813 	mov.w	r8, r3, lsr #16
 800d308:	fbb7 fcf8 	udiv	ip, r7, r8
 800d30c:	fa1f f983 	uxth.w	r9, r3
 800d310:	fb08 771c 	mls	r7, r8, ip, r7
 800d314:	fa20 fe04 	lsr.w	lr, r0, r4
 800d318:	fa01 f506 	lsl.w	r5, r1, r6
 800d31c:	fb09 f40c 	mul.w	r4, r9, ip
 800d320:	ea4e 0505 	orr.w	r5, lr, r5
 800d324:	ea4f 4e15 	mov.w	lr, r5, lsr #16
 800d328:	ea4e 4707 	orr.w	r7, lr, r7, lsl #16
 800d32c:	42bc      	cmp	r4, r7
 800d32e:	fa02 f206 	lsl.w	r2, r2, r6
 800d332:	d908      	bls.n	800d346 <__udivdi3+0x182>
 800d334:	18ff      	adds	r7, r7, r3
 800d336:	f10c 31ff 	add.w	r1, ip, #4294967295
 800d33a:	d26e      	bcs.n	800d41a <__udivdi3+0x256>
 800d33c:	42bc      	cmp	r4, r7
 800d33e:	d96c      	bls.n	800d41a <__udivdi3+0x256>
 800d340:	f1ac 0c02 	sub.w	ip, ip, #2
 800d344:	441f      	add	r7, r3
 800d346:	1b3f      	subs	r7, r7, r4
 800d348:	fbb7 f4f8 	udiv	r4, r7, r8
 800d34c:	fb08 7714 	mls	r7, r8, r4, r7
 800d350:	fb09 f904 	mul.w	r9, r9, r4
 800d354:	b2ad      	uxth	r5, r5
 800d356:	ea45 4107 	orr.w	r1, r5, r7, lsl #16
 800d35a:	4589      	cmp	r9, r1
 800d35c:	d907      	bls.n	800d36e <__udivdi3+0x1aa>
 800d35e:	18c9      	adds	r1, r1, r3
 800d360:	f104 35ff 	add.w	r5, r4, #4294967295
 800d364:	d25b      	bcs.n	800d41e <__udivdi3+0x25a>
 800d366:	4589      	cmp	r9, r1
 800d368:	d959      	bls.n	800d41e <__udivdi3+0x25a>
 800d36a:	3c02      	subs	r4, #2
 800d36c:	4419      	add	r1, r3
 800d36e:	ea44 440c 	orr.w	r4, r4, ip, lsl #16
 800d372:	fba4 2302 	umull	r2, r3, r4, r2
 800d376:	ebc9 0101 	rsb	r1, r9, r1
 800d37a:	4299      	cmp	r1, r3
 800d37c:	d344      	bcc.n	800d408 <__udivdi3+0x244>
 800d37e:	d040      	beq.n	800d402 <__udivdi3+0x23e>
 800d380:	4620      	mov	r0, r4
 800d382:	2600      	movs	r6, #0
 800d384:	e764      	b.n	800d250 <__udivdi3+0x8c>
 800d386:	fa05 f50c 	lsl.w	r5, r5, ip
 800d38a:	f1cc 0220 	rsb	r2, ip, #32
 800d38e:	fa21 f302 	lsr.w	r3, r1, r2
 800d392:	0c2f      	lsrs	r7, r5, #16
 800d394:	fbb3 f6f7 	udiv	r6, r3, r7
 800d398:	fa1f fe85 	uxth.w	lr, r5
 800d39c:	fb07 3816 	mls	r8, r7, r6, r3
 800d3a0:	fa20 f202 	lsr.w	r2, r0, r2
 800d3a4:	fa01 f10c 	lsl.w	r1, r1, ip
 800d3a8:	fb0e f906 	mul.w	r9, lr, r6
 800d3ac:	430a      	orrs	r2, r1
 800d3ae:	0c14      	lsrs	r4, r2, #16
 800d3b0:	ea44 4308 	orr.w	r3, r4, r8, lsl #16
 800d3b4:	4599      	cmp	r9, r3
 800d3b6:	fa00 f40c 	lsl.w	r4, r0, ip
 800d3ba:	d907      	bls.n	800d3cc <__udivdi3+0x208>
 800d3bc:	195b      	adds	r3, r3, r5
 800d3be:	f106 31ff 	add.w	r1, r6, #4294967295
 800d3c2:	d230      	bcs.n	800d426 <__udivdi3+0x262>
 800d3c4:	4599      	cmp	r9, r3
 800d3c6:	d92e      	bls.n	800d426 <__udivdi3+0x262>
 800d3c8:	3e02      	subs	r6, #2
 800d3ca:	442b      	add	r3, r5
 800d3cc:	ebc9 0303 	rsb	r3, r9, r3
 800d3d0:	fbb3 f0f7 	udiv	r0, r3, r7
 800d3d4:	fb07 3310 	mls	r3, r7, r0, r3
 800d3d8:	fb0e f100 	mul.w	r1, lr, r0
 800d3dc:	b292      	uxth	r2, r2
 800d3de:	ea42 4303 	orr.w	r3, r2, r3, lsl #16
 800d3e2:	4299      	cmp	r1, r3
 800d3e4:	d907      	bls.n	800d3f6 <__udivdi3+0x232>
 800d3e6:	195b      	adds	r3, r3, r5
 800d3e8:	f100 32ff 	add.w	r2, r0, #4294967295
 800d3ec:	d219      	bcs.n	800d422 <__udivdi3+0x25e>
 800d3ee:	4299      	cmp	r1, r3
 800d3f0:	d917      	bls.n	800d422 <__udivdi3+0x25e>
 800d3f2:	3802      	subs	r0, #2
 800d3f4:	442b      	add	r3, r5
 800d3f6:	1a59      	subs	r1, r3, r1
 800d3f8:	ea40 4606 	orr.w	r6, r0, r6, lsl #16
 800d3fc:	e748      	b.n	800d290 <__udivdi3+0xcc>
 800d3fe:	4610      	mov	r0, r2
 800d400:	e70e      	b.n	800d220 <__udivdi3+0x5c>
 800d402:	40b0      	lsls	r0, r6
 800d404:	4290      	cmp	r0, r2
 800d406:	d2bb      	bcs.n	800d380 <__udivdi3+0x1bc>
 800d408:	1e60      	subs	r0, r4, #1
 800d40a:	2600      	movs	r6, #0
 800d40c:	e720      	b.n	800d250 <__udivdi3+0x8c>
 800d40e:	460b      	mov	r3, r1
 800d410:	e766      	b.n	800d2e0 <__udivdi3+0x11c>
 800d412:	4613      	mov	r3, r2
 800d414:	e719      	b.n	800d24a <__udivdi3+0x86>
 800d416:	4630      	mov	r0, r6
 800d418:	e71a      	b.n	800d250 <__udivdi3+0x8c>
 800d41a:	468c      	mov	ip, r1
 800d41c:	e793      	b.n	800d346 <__udivdi3+0x182>
 800d41e:	462c      	mov	r4, r5
 800d420:	e7a5      	b.n	800d36e <__udivdi3+0x1aa>
 800d422:	4610      	mov	r0, r2
 800d424:	e7e7      	b.n	800d3f6 <__udivdi3+0x232>
 800d426:	460e      	mov	r6, r1
 800d428:	e7d0      	b.n	800d3cc <__udivdi3+0x208>
 800d42a:	3802      	subs	r0, #2
 800d42c:	4429      	add	r1, r5
 800d42e:	e742      	b.n	800d2b6 <__udivdi3+0xf2>
