
try_f103:     file format elf32-littlearm


Disassembly of section .text:

08000000 <__vectors0>:
 8000000:	200021a8 	.word	0x200021a8
 8000004:	08007d95 	.word	0x08007d95
 8000008:	08007e02 	.word	0x08007e02
 800000c:	08007e02 	.word	0x08007e02
 8000010:	08007e02 	.word	0x08007e02

08000014 <try_f103__my_delay.4087>:
 8000014:	b5f0      	push	{r4, r5, r6, r7, lr}
 8000016:	b083      	sub	sp, #12
 8000018:	af00      	add	r7, sp, #0
 800001a:	f8c7 c004 	str.w	ip, [r7, #4]
 800001e:	f006 fe01 	bl	8006c24 <ada__real_time__clock>
 8000022:	4605      	mov	r5, r0
 8000024:	460e      	mov	r6, r1
 8000026:	f44f 707a 	mov.w	r0, #1000	; 0x3e8
 800002a:	f006 fe27 	bl	8006c7c <ada__real_time__milliseconds>
 800002e:	4603      	mov	r3, r0
 8000030:	460c      	mov	r4, r1
 8000032:	4628      	mov	r0, r5
 8000034:	4631      	mov	r1, r6
 8000036:	461a      	mov	r2, r3
 8000038:	4623      	mov	r3, r4
 800003a:	f006 fd99 	bl	8006b70 <ada__real_time__Oadd>
 800003e:	4603      	mov	r3, r0
 8000040:	460c      	mov	r4, r1
 8000042:	4618      	mov	r0, r3
 8000044:	4621      	mov	r1, r4
 8000046:	f007 f9e5 	bl	8007414 <ada__real_time__delays__delay_until>
 800004a:	370c      	adds	r7, #12
 800004c:	46bd      	mov	sp, r7
 800004e:	bdf0      	pop	{r4, r5, r6, r7, pc}

08000050 <_ada_try_f103>:
 8000050:	b580      	push	{r7, lr}
 8000052:	b082      	sub	sp, #8
 8000054:	af00      	add	r7, sp, #0
 8000056:	f107 0310 	add.w	r3, r7, #16
 800005a:	607b      	str	r3, [r7, #4]
 800005c:	f000 f89e 	bl	800019c <stm32__board__initialize_board>
 8000060:	4807      	ldr	r0, [pc, #28]	; (8000080 <_ada_try_f103+0x30>)
 8000062:	f004 fadd 	bl	8004620 <stm32__gpio__clear>
 8000066:	1d3b      	adds	r3, r7, #4
 8000068:	469c      	mov	ip, r3
 800006a:	f7ff ffd3 	bl	8000014 <try_f103__my_delay.4087>
 800006e:	4804      	ldr	r0, [pc, #16]	; (8000080 <_ada_try_f103+0x30>)
 8000070:	f004 faa8 	bl	80045c4 <stm32__gpio__set__2>
 8000074:	1d3b      	adds	r3, r7, #4
 8000076:	469c      	mov	ip, r3
 8000078:	f7ff ffcc 	bl	8000014 <try_f103__my_delay.4087>
 800007c:	e7f0      	b.n	8000060 <_ada_try_f103+0x10>
 800007e:	bf00      	nop
 8000080:	200002e4 	.word	0x200002e4

08000084 <adainit>:
 8000084:	b580      	push	{r7, lr}
 8000086:	af00      	add	r7, sp, #0
 8000088:	bf00      	nop
 800008a:	f007 ff2b 	bl	8007ee4 <ada__text_io___elabb>
 800008e:	4b26      	ldr	r3, [pc, #152]	; (8000128 <adainit+0xa4>)
 8000090:	881b      	ldrh	r3, [r3, #0]
 8000092:	b29b      	uxth	r3, r3
 8000094:	3301      	adds	r3, #1
 8000096:	b29a      	uxth	r2, r3
 8000098:	4b23      	ldr	r3, [pc, #140]	; (8000128 <adainit+0xa4>)
 800009a:	801a      	strh	r2, [r3, #0]
 800009c:	f006 fe0c 	bl	8006cb8 <ada__real_time___elabb>
 80000a0:	4b22      	ldr	r3, [pc, #136]	; (800012c <adainit+0xa8>)
 80000a2:	881b      	ldrh	r3, [r3, #0]
 80000a4:	b29b      	uxth	r3, r3
 80000a6:	3301      	adds	r3, #1
 80000a8:	b29a      	uxth	r2, r3
 80000aa:	4b20      	ldr	r3, [pc, #128]	; (800012c <adainit+0xa8>)
 80000ac:	801a      	strh	r2, [r3, #0]
 80000ae:	4b20      	ldr	r3, [pc, #128]	; (8000130 <adainit+0xac>)
 80000b0:	881b      	ldrh	r3, [r3, #0]
 80000b2:	b29b      	uxth	r3, r3
 80000b4:	3301      	adds	r3, #1
 80000b6:	b29a      	uxth	r2, r3
 80000b8:	4b1d      	ldr	r3, [pc, #116]	; (8000130 <adainit+0xac>)
 80000ba:	801a      	strh	r2, [r3, #0]
 80000bc:	4b1d      	ldr	r3, [pc, #116]	; (8000134 <adainit+0xb0>)
 80000be:	881b      	ldrh	r3, [r3, #0]
 80000c0:	b29b      	uxth	r3, r3
 80000c2:	3301      	adds	r3, #1
 80000c4:	b29a      	uxth	r2, r3
 80000c6:	4b1b      	ldr	r3, [pc, #108]	; (8000134 <adainit+0xb0>)
 80000c8:	801a      	strh	r2, [r3, #0]
 80000ca:	4b1b      	ldr	r3, [pc, #108]	; (8000138 <adainit+0xb4>)
 80000cc:	881b      	ldrh	r3, [r3, #0]
 80000ce:	b29b      	uxth	r3, r3
 80000d0:	3301      	adds	r3, #1
 80000d2:	b29a      	uxth	r2, r3
 80000d4:	4b18      	ldr	r3, [pc, #96]	; (8000138 <adainit+0xb4>)
 80000d6:	801a      	strh	r2, [r3, #0]
 80000d8:	4b18      	ldr	r3, [pc, #96]	; (800013c <adainit+0xb8>)
 80000da:	881b      	ldrh	r3, [r3, #0]
 80000dc:	b29b      	uxth	r3, r3
 80000de:	3301      	adds	r3, #1
 80000e0:	b29a      	uxth	r2, r3
 80000e2:	4b16      	ldr	r3, [pc, #88]	; (800013c <adainit+0xb8>)
 80000e4:	801a      	strh	r2, [r3, #0]
 80000e6:	f000 f91b 	bl	8000320 <stm32__device___elabs>
 80000ea:	4b15      	ldr	r3, [pc, #84]	; (8000140 <adainit+0xbc>)
 80000ec:	881b      	ldrh	r3, [r3, #0]
 80000ee:	b29b      	uxth	r3, r3
 80000f0:	3301      	adds	r3, #1
 80000f2:	b29a      	uxth	r2, r3
 80000f4:	4b12      	ldr	r3, [pc, #72]	; (8000140 <adainit+0xbc>)
 80000f6:	801a      	strh	r2, [r3, #0]
 80000f8:	4b12      	ldr	r3, [pc, #72]	; (8000144 <adainit+0xc0>)
 80000fa:	881b      	ldrh	r3, [r3, #0]
 80000fc:	b29b      	uxth	r3, r3
 80000fe:	3301      	adds	r3, #1
 8000100:	b29a      	uxth	r2, r3
 8000102:	4b10      	ldr	r3, [pc, #64]	; (8000144 <adainit+0xc0>)
 8000104:	801a      	strh	r2, [r3, #0]
 8000106:	4b10      	ldr	r3, [pc, #64]	; (8000148 <adainit+0xc4>)
 8000108:	881b      	ldrh	r3, [r3, #0]
 800010a:	b29b      	uxth	r3, r3
 800010c:	3301      	adds	r3, #1
 800010e:	b29a      	uxth	r2, r3
 8000110:	4b0d      	ldr	r3, [pc, #52]	; (8000148 <adainit+0xc4>)
 8000112:	801a      	strh	r2, [r3, #0]
 8000114:	4b0d      	ldr	r3, [pc, #52]	; (800014c <adainit+0xc8>)
 8000116:	881b      	ldrh	r3, [r3, #0]
 8000118:	b29b      	uxth	r3, r3
 800011a:	3301      	adds	r3, #1
 800011c:	b29a      	uxth	r2, r3
 800011e:	4b0b      	ldr	r3, [pc, #44]	; (800014c <adainit+0xc8>)
 8000120:	801a      	strh	r2, [r3, #0]
 8000122:	f006 fdcb 	bl	8006cbc <__gnat_start_slave_cpus>
 8000126:	bd80      	pop	{r7, pc}
 8000128:	200000c0 	.word	0x200000c0
 800012c:	20000062 	.word	0x20000062
 8000130:	20000060 	.word	0x20000060
 8000134:	2000005e 	.word	0x2000005e
 8000138:	2000005a 	.word	0x2000005a
 800013c:	20000058 	.word	0x20000058
 8000140:	20000000 	.word	0x20000000
 8000144:	20000054 	.word	0x20000054
 8000148:	2000005c 	.word	0x2000005c
 800014c:	20000056 	.word	0x20000056

08000150 <main>:
 8000150:	b580      	push	{r7, lr}
 8000152:	b082      	sub	sp, #8
 8000154:	af00      	add	r7, sp, #0
 8000156:	4b04      	ldr	r3, [pc, #16]	; (8000168 <main+0x18>)
 8000158:	607b      	str	r3, [r7, #4]
 800015a:	f7ff ff93 	bl	8000084 <adainit>
 800015e:	f7ff ff77 	bl	8000050 <_ada_try_f103>
 8000162:	3708      	adds	r7, #8
 8000164:	46bd      	mov	sp, r7
 8000166:	bd80      	pop	{r7, pc}
 8000168:	080089a0 	.word	0x080089a0

0800016c <stm32__board__initialize_leds>:
 800016c:	b580      	push	{r7, lr}
 800016e:	b082      	sub	sp, #8
 8000170:	af00      	add	r7, sp, #0
 8000172:	4809      	ldr	r0, [pc, #36]	; (8000198 <stm32__board__initialize_leds+0x2c>)
 8000174:	f000 f8a8 	bl	80002c8 <stm32__device__enable_clock__2>
 8000178:	2301      	movs	r3, #1
 800017a:	713b      	strb	r3, [r7, #4]
 800017c:	2300      	movs	r3, #0
 800017e:	717b      	strb	r3, [r7, #5]
 8000180:	2300      	movs	r3, #0
 8000182:	71bb      	strb	r3, [r7, #6]
 8000184:	2300      	movs	r3, #0
 8000186:	71fb      	strb	r3, [r7, #7]
 8000188:	4803      	ldr	r0, [pc, #12]	; (8000198 <stm32__board__initialize_leds+0x2c>)
 800018a:	6879      	ldr	r1, [r7, #4]
 800018c:	f004 fb32 	bl	80047f4 <stm32__gpio__configure_io>
 8000190:	3708      	adds	r7, #8
 8000192:	46bd      	mov	sp, r7
 8000194:	bd80      	pop	{r7, pc}
 8000196:	bf00      	nop
 8000198:	200002e4 	.word	0x200002e4

0800019c <stm32__board__initialize_board>:
 800019c:	b580      	push	{r7, lr}
 800019e:	af00      	add	r7, sp, #0
 80001a0:	f004 fc22 	bl	80049e8 <stm32__gpio__configure_af_swd>
 80001a4:	f7ff ffe2 	bl	800016c <stm32__board__initialize_leds>
 80001a8:	bd80      	pop	{r7, pc}
 80001aa:	bf00      	nop

080001ac <stm32__device__enable_clock>:
 80001ac:	b590      	push	{r4, r7, lr}
 80001ae:	b085      	sub	sp, #20
 80001b0:	af00      	add	r7, sp, #0
 80001b2:	6078      	str	r0, [r7, #4]
 80001b4:	687a      	ldr	r2, [r7, #4]
 80001b6:	493a      	ldr	r1, [pc, #232]	; (80002a0 <stm32__device__enable_clock+0xf4>)
 80001b8:	428a      	cmp	r2, r1
 80001ba:	d10a      	bne.n	80001d2 <stm32__device__enable_clock+0x26>
 80001bc:	4b39      	ldr	r3, [pc, #228]	; (80002a4 <stm32__device__enable_clock+0xf8>)
 80001be:	3318      	adds	r3, #24
 80001c0:	681b      	ldr	r3, [r3, #0]
 80001c2:	461a      	mov	r2, r3
 80001c4:	4613      	mov	r3, r2
 80001c6:	f043 0204 	orr.w	r2, r3, #4
 80001ca:	4b36      	ldr	r3, [pc, #216]	; (80002a4 <stm32__device__enable_clock+0xf8>)
 80001cc:	3318      	adds	r3, #24
 80001ce:	601a      	str	r2, [r3, #0]
 80001d0:	e062      	b.n	8000298 <stm32__device__enable_clock+0xec>
 80001d2:	687a      	ldr	r2, [r7, #4]
 80001d4:	4934      	ldr	r1, [pc, #208]	; (80002a8 <stm32__device__enable_clock+0xfc>)
 80001d6:	428a      	cmp	r2, r1
 80001d8:	d10a      	bne.n	80001f0 <stm32__device__enable_clock+0x44>
 80001da:	4b32      	ldr	r3, [pc, #200]	; (80002a4 <stm32__device__enable_clock+0xf8>)
 80001dc:	3318      	adds	r3, #24
 80001de:	681b      	ldr	r3, [r3, #0]
 80001e0:	461a      	mov	r2, r3
 80001e2:	4613      	mov	r3, r2
 80001e4:	f043 0208 	orr.w	r2, r3, #8
 80001e8:	4b2e      	ldr	r3, [pc, #184]	; (80002a4 <stm32__device__enable_clock+0xf8>)
 80001ea:	3318      	adds	r3, #24
 80001ec:	601a      	str	r2, [r3, #0]
 80001ee:	e053      	b.n	8000298 <stm32__device__enable_clock+0xec>
 80001f0:	687a      	ldr	r2, [r7, #4]
 80001f2:	492e      	ldr	r1, [pc, #184]	; (80002ac <stm32__device__enable_clock+0x100>)
 80001f4:	428a      	cmp	r2, r1
 80001f6:	d10a      	bne.n	800020e <stm32__device__enable_clock+0x62>
 80001f8:	4b2a      	ldr	r3, [pc, #168]	; (80002a4 <stm32__device__enable_clock+0xf8>)
 80001fa:	3318      	adds	r3, #24
 80001fc:	681b      	ldr	r3, [r3, #0]
 80001fe:	461a      	mov	r2, r3
 8000200:	4613      	mov	r3, r2
 8000202:	f043 0210 	orr.w	r2, r3, #16
 8000206:	4b27      	ldr	r3, [pc, #156]	; (80002a4 <stm32__device__enable_clock+0xf8>)
 8000208:	3318      	adds	r3, #24
 800020a:	601a      	str	r2, [r3, #0]
 800020c:	e044      	b.n	8000298 <stm32__device__enable_clock+0xec>
 800020e:	687a      	ldr	r2, [r7, #4]
 8000210:	4927      	ldr	r1, [pc, #156]	; (80002b0 <stm32__device__enable_clock+0x104>)
 8000212:	428a      	cmp	r2, r1
 8000214:	d10a      	bne.n	800022c <stm32__device__enable_clock+0x80>
 8000216:	4b23      	ldr	r3, [pc, #140]	; (80002a4 <stm32__device__enable_clock+0xf8>)
 8000218:	3318      	adds	r3, #24
 800021a:	681b      	ldr	r3, [r3, #0]
 800021c:	461a      	mov	r2, r3
 800021e:	4613      	mov	r3, r2
 8000220:	f043 0220 	orr.w	r2, r3, #32
 8000224:	4b1f      	ldr	r3, [pc, #124]	; (80002a4 <stm32__device__enable_clock+0xf8>)
 8000226:	3318      	adds	r3, #24
 8000228:	601a      	str	r2, [r3, #0]
 800022a:	e035      	b.n	8000298 <stm32__device__enable_clock+0xec>
 800022c:	687a      	ldr	r2, [r7, #4]
 800022e:	4921      	ldr	r1, [pc, #132]	; (80002b4 <stm32__device__enable_clock+0x108>)
 8000230:	428a      	cmp	r2, r1
 8000232:	d10a      	bne.n	800024a <stm32__device__enable_clock+0x9e>
 8000234:	4b1b      	ldr	r3, [pc, #108]	; (80002a4 <stm32__device__enable_clock+0xf8>)
 8000236:	3318      	adds	r3, #24
 8000238:	681b      	ldr	r3, [r3, #0]
 800023a:	461a      	mov	r2, r3
 800023c:	4613      	mov	r3, r2
 800023e:	f043 0240 	orr.w	r2, r3, #64	; 0x40
 8000242:	4b18      	ldr	r3, [pc, #96]	; (80002a4 <stm32__device__enable_clock+0xf8>)
 8000244:	3318      	adds	r3, #24
 8000246:	601a      	str	r2, [r3, #0]
 8000248:	e026      	b.n	8000298 <stm32__device__enable_clock+0xec>
 800024a:	687a      	ldr	r2, [r7, #4]
 800024c:	491a      	ldr	r1, [pc, #104]	; (80002b8 <stm32__device__enable_clock+0x10c>)
 800024e:	428a      	cmp	r2, r1
 8000250:	d10a      	bne.n	8000268 <stm32__device__enable_clock+0xbc>
 8000252:	4b14      	ldr	r3, [pc, #80]	; (80002a4 <stm32__device__enable_clock+0xf8>)
 8000254:	3318      	adds	r3, #24
 8000256:	681b      	ldr	r3, [r3, #0]
 8000258:	461a      	mov	r2, r3
 800025a:	4613      	mov	r3, r2
 800025c:	f043 0280 	orr.w	r2, r3, #128	; 0x80
 8000260:	4b10      	ldr	r3, [pc, #64]	; (80002a4 <stm32__device__enable_clock+0xf8>)
 8000262:	3318      	adds	r3, #24
 8000264:	601a      	str	r2, [r3, #0]
 8000266:	e017      	b.n	8000298 <stm32__device__enable_clock+0xec>
 8000268:	687a      	ldr	r2, [r7, #4]
 800026a:	4914      	ldr	r1, [pc, #80]	; (80002bc <stm32__device__enable_clock+0x110>)
 800026c:	428a      	cmp	r2, r1
 800026e:	d10a      	bne.n	8000286 <stm32__device__enable_clock+0xda>
 8000270:	4b0c      	ldr	r3, [pc, #48]	; (80002a4 <stm32__device__enable_clock+0xf8>)
 8000272:	3318      	adds	r3, #24
 8000274:	681b      	ldr	r3, [r3, #0]
 8000276:	461a      	mov	r2, r3
 8000278:	4613      	mov	r3, r2
 800027a:	f443 7280 	orr.w	r2, r3, #256	; 0x100
 800027e:	4b09      	ldr	r3, [pc, #36]	; (80002a4 <stm32__device__enable_clock+0xf8>)
 8000280:	3318      	adds	r3, #24
 8000282:	601a      	str	r2, [r3, #0]
 8000284:	e008      	b.n	8000298 <stm32__device__enable_clock+0xec>
 8000286:	4b0e      	ldr	r3, [pc, #56]	; (80002c0 <stm32__device__enable_clock+0x114>)
 8000288:	4c0e      	ldr	r4, [pc, #56]	; (80002c4 <stm32__device__enable_clock+0x118>)
 800028a:	e9c7 3402 	strd	r3, r4, [r7, #8]
 800028e:	68bb      	ldr	r3, [r7, #8]
 8000290:	4618      	mov	r0, r3
 8000292:	2100      	movs	r1, #0
 8000294:	f007 fe94 	bl	8007fc0 <__gnat_last_chance_handler>
 8000298:	3714      	adds	r7, #20
 800029a:	46bd      	mov	sp, r7
 800029c:	bd90      	pop	{r4, r7, pc}
 800029e:	bf00      	nop
 80002a0:	40010800 	.word	0x40010800
 80002a4:	40021000 	.word	0x40021000
 80002a8:	40010c00 	.word	0x40010c00
 80002ac:	40011000 	.word	0x40011000
 80002b0:	40011400 	.word	0x40011400
 80002b4:	40011800 	.word	0x40011800
 80002b8:	40011c00 	.word	0x40011c00
 80002bc:	40012000 	.word	0x40012000
 80002c0:	080089b0 	.word	0x080089b0
 80002c4:	080089c4 	.word	0x080089c4

080002c8 <stm32__device__enable_clock__2>:
 80002c8:	b580      	push	{r7, lr}
 80002ca:	b082      	sub	sp, #8
 80002cc:	af00      	add	r7, sp, #0
 80002ce:	6078      	str	r0, [r7, #4]
 80002d0:	687b      	ldr	r3, [r7, #4]
 80002d2:	685b      	ldr	r3, [r3, #4]
 80002d4:	2b00      	cmp	r3, #0
 80002d6:	d103      	bne.n	80002e0 <stm32__device__enable_clock__2+0x18>
 80002d8:	4805      	ldr	r0, [pc, #20]	; (80002f0 <stm32__device__enable_clock__2+0x28>)
 80002da:	2155      	movs	r1, #85	; 0x55
 80002dc:	f007 fe70 	bl	8007fc0 <__gnat_last_chance_handler>
 80002e0:	687b      	ldr	r3, [r7, #4]
 80002e2:	685b      	ldr	r3, [r3, #4]
 80002e4:	4618      	mov	r0, r3
 80002e6:	f7ff ff61 	bl	80001ac <stm32__device__enable_clock>
 80002ea:	3708      	adds	r7, #8
 80002ec:	46bd      	mov	sp, r7
 80002ee:	bd80      	pop	{r7, pc}
 80002f0:	080089cc 	.word	0x080089cc

080002f4 <stm32__device__system_clock_frequencies>:
 80002f4:	b4b0      	push	{r4, r5, r7}
 80002f6:	b08b      	sub	sp, #44	; 0x2c
 80002f8:	af00      	add	r7, sp, #0
 80002fa:	6078      	str	r0, [r7, #4]
 80002fc:	2300      	movs	r3, #0
 80002fe:	60fb      	str	r3, [r7, #12]
 8000300:	687b      	ldr	r3, [r7, #4]
 8000302:	461d      	mov	r5, r3
 8000304:	f107 040c 	add.w	r4, r7, #12
 8000308:	cc0f      	ldmia	r4!, {r0, r1, r2, r3}
 800030a:	c50f      	stmia	r5!, {r0, r1, r2, r3}
 800030c:	e894 0007 	ldmia.w	r4, {r0, r1, r2}
 8000310:	e885 0007 	stmia.w	r5, {r0, r1, r2}
 8000314:	6878      	ldr	r0, [r7, #4]
 8000316:	372c      	adds	r7, #44	; 0x2c
 8000318:	46bd      	mov	sp, r7
 800031a:	bcb0      	pop	{r4, r5, r7}
 800031c:	4770      	bx	lr
 800031e:	bf00      	nop

08000320 <stm32__device___elabs>:
 8000320:	b580      	push	{r7, lr}
 8000322:	af00      	add	r7, sp, #0
 8000324:	4b88      	ldr	r3, [pc, #544]	; (8000548 <stm32__device___elabs+0x228>)
 8000326:	681b      	ldr	r3, [r3, #0]
 8000328:	4a88      	ldr	r2, [pc, #544]	; (800054c <stm32__device___elabs+0x22c>)
 800032a:	6053      	str	r3, [r2, #4]
 800032c:	4b87      	ldr	r3, [pc, #540]	; (800054c <stm32__device___elabs+0x22c>)
 800032e:	2201      	movs	r2, #1
 8000330:	811a      	strh	r2, [r3, #8]
 8000332:	4b86      	ldr	r3, [pc, #536]	; (800054c <stm32__device___elabs+0x22c>)
 8000334:	4a86      	ldr	r2, [pc, #536]	; (8000550 <stm32__device___elabs+0x230>)
 8000336:	601a      	str	r2, [r3, #0]
 8000338:	4b83      	ldr	r3, [pc, #524]	; (8000548 <stm32__device___elabs+0x228>)
 800033a:	681b      	ldr	r3, [r3, #0]
 800033c:	4a85      	ldr	r2, [pc, #532]	; (8000554 <stm32__device___elabs+0x234>)
 800033e:	6053      	str	r3, [r2, #4]
 8000340:	4b84      	ldr	r3, [pc, #528]	; (8000554 <stm32__device___elabs+0x234>)
 8000342:	2202      	movs	r2, #2
 8000344:	811a      	strh	r2, [r3, #8]
 8000346:	4b83      	ldr	r3, [pc, #524]	; (8000554 <stm32__device___elabs+0x234>)
 8000348:	4a81      	ldr	r2, [pc, #516]	; (8000550 <stm32__device___elabs+0x230>)
 800034a:	601a      	str	r2, [r3, #0]
 800034c:	4b7e      	ldr	r3, [pc, #504]	; (8000548 <stm32__device___elabs+0x228>)
 800034e:	681b      	ldr	r3, [r3, #0]
 8000350:	4a81      	ldr	r2, [pc, #516]	; (8000558 <stm32__device___elabs+0x238>)
 8000352:	6053      	str	r3, [r2, #4]
 8000354:	4b80      	ldr	r3, [pc, #512]	; (8000558 <stm32__device___elabs+0x238>)
 8000356:	2204      	movs	r2, #4
 8000358:	811a      	strh	r2, [r3, #8]
 800035a:	4b7f      	ldr	r3, [pc, #508]	; (8000558 <stm32__device___elabs+0x238>)
 800035c:	4a7c      	ldr	r2, [pc, #496]	; (8000550 <stm32__device___elabs+0x230>)
 800035e:	601a      	str	r2, [r3, #0]
 8000360:	4b79      	ldr	r3, [pc, #484]	; (8000548 <stm32__device___elabs+0x228>)
 8000362:	681b      	ldr	r3, [r3, #0]
 8000364:	4a7d      	ldr	r2, [pc, #500]	; (800055c <stm32__device___elabs+0x23c>)
 8000366:	6053      	str	r3, [r2, #4]
 8000368:	4b7c      	ldr	r3, [pc, #496]	; (800055c <stm32__device___elabs+0x23c>)
 800036a:	2208      	movs	r2, #8
 800036c:	811a      	strh	r2, [r3, #8]
 800036e:	4b7b      	ldr	r3, [pc, #492]	; (800055c <stm32__device___elabs+0x23c>)
 8000370:	4a77      	ldr	r2, [pc, #476]	; (8000550 <stm32__device___elabs+0x230>)
 8000372:	601a      	str	r2, [r3, #0]
 8000374:	4b74      	ldr	r3, [pc, #464]	; (8000548 <stm32__device___elabs+0x228>)
 8000376:	681b      	ldr	r3, [r3, #0]
 8000378:	4a79      	ldr	r2, [pc, #484]	; (8000560 <stm32__device___elabs+0x240>)
 800037a:	6053      	str	r3, [r2, #4]
 800037c:	4b78      	ldr	r3, [pc, #480]	; (8000560 <stm32__device___elabs+0x240>)
 800037e:	2210      	movs	r2, #16
 8000380:	811a      	strh	r2, [r3, #8]
 8000382:	4b77      	ldr	r3, [pc, #476]	; (8000560 <stm32__device___elabs+0x240>)
 8000384:	4a72      	ldr	r2, [pc, #456]	; (8000550 <stm32__device___elabs+0x230>)
 8000386:	601a      	str	r2, [r3, #0]
 8000388:	4b6f      	ldr	r3, [pc, #444]	; (8000548 <stm32__device___elabs+0x228>)
 800038a:	681b      	ldr	r3, [r3, #0]
 800038c:	4a75      	ldr	r2, [pc, #468]	; (8000564 <stm32__device___elabs+0x244>)
 800038e:	6053      	str	r3, [r2, #4]
 8000390:	4b74      	ldr	r3, [pc, #464]	; (8000564 <stm32__device___elabs+0x244>)
 8000392:	2220      	movs	r2, #32
 8000394:	811a      	strh	r2, [r3, #8]
 8000396:	4b73      	ldr	r3, [pc, #460]	; (8000564 <stm32__device___elabs+0x244>)
 8000398:	4a6d      	ldr	r2, [pc, #436]	; (8000550 <stm32__device___elabs+0x230>)
 800039a:	601a      	str	r2, [r3, #0]
 800039c:	4b6a      	ldr	r3, [pc, #424]	; (8000548 <stm32__device___elabs+0x228>)
 800039e:	681b      	ldr	r3, [r3, #0]
 80003a0:	4a71      	ldr	r2, [pc, #452]	; (8000568 <stm32__device___elabs+0x248>)
 80003a2:	6053      	str	r3, [r2, #4]
 80003a4:	4b70      	ldr	r3, [pc, #448]	; (8000568 <stm32__device___elabs+0x248>)
 80003a6:	2240      	movs	r2, #64	; 0x40
 80003a8:	811a      	strh	r2, [r3, #8]
 80003aa:	4b6f      	ldr	r3, [pc, #444]	; (8000568 <stm32__device___elabs+0x248>)
 80003ac:	4a68      	ldr	r2, [pc, #416]	; (8000550 <stm32__device___elabs+0x230>)
 80003ae:	601a      	str	r2, [r3, #0]
 80003b0:	4b65      	ldr	r3, [pc, #404]	; (8000548 <stm32__device___elabs+0x228>)
 80003b2:	681b      	ldr	r3, [r3, #0]
 80003b4:	4a6d      	ldr	r2, [pc, #436]	; (800056c <stm32__device___elabs+0x24c>)
 80003b6:	6053      	str	r3, [r2, #4]
 80003b8:	4b6c      	ldr	r3, [pc, #432]	; (800056c <stm32__device___elabs+0x24c>)
 80003ba:	2280      	movs	r2, #128	; 0x80
 80003bc:	811a      	strh	r2, [r3, #8]
 80003be:	4b6b      	ldr	r3, [pc, #428]	; (800056c <stm32__device___elabs+0x24c>)
 80003c0:	4a63      	ldr	r2, [pc, #396]	; (8000550 <stm32__device___elabs+0x230>)
 80003c2:	601a      	str	r2, [r3, #0]
 80003c4:	4b60      	ldr	r3, [pc, #384]	; (8000548 <stm32__device___elabs+0x228>)
 80003c6:	681b      	ldr	r3, [r3, #0]
 80003c8:	4a69      	ldr	r2, [pc, #420]	; (8000570 <stm32__device___elabs+0x250>)
 80003ca:	6053      	str	r3, [r2, #4]
 80003cc:	4b68      	ldr	r3, [pc, #416]	; (8000570 <stm32__device___elabs+0x250>)
 80003ce:	f44f 7280 	mov.w	r2, #256	; 0x100
 80003d2:	811a      	strh	r2, [r3, #8]
 80003d4:	4b66      	ldr	r3, [pc, #408]	; (8000570 <stm32__device___elabs+0x250>)
 80003d6:	4a5e      	ldr	r2, [pc, #376]	; (8000550 <stm32__device___elabs+0x230>)
 80003d8:	601a      	str	r2, [r3, #0]
 80003da:	4b5b      	ldr	r3, [pc, #364]	; (8000548 <stm32__device___elabs+0x228>)
 80003dc:	681b      	ldr	r3, [r3, #0]
 80003de:	4a65      	ldr	r2, [pc, #404]	; (8000574 <stm32__device___elabs+0x254>)
 80003e0:	6053      	str	r3, [r2, #4]
 80003e2:	4b64      	ldr	r3, [pc, #400]	; (8000574 <stm32__device___elabs+0x254>)
 80003e4:	f44f 7200 	mov.w	r2, #512	; 0x200
 80003e8:	811a      	strh	r2, [r3, #8]
 80003ea:	4b62      	ldr	r3, [pc, #392]	; (8000574 <stm32__device___elabs+0x254>)
 80003ec:	4a58      	ldr	r2, [pc, #352]	; (8000550 <stm32__device___elabs+0x230>)
 80003ee:	601a      	str	r2, [r3, #0]
 80003f0:	4b55      	ldr	r3, [pc, #340]	; (8000548 <stm32__device___elabs+0x228>)
 80003f2:	681b      	ldr	r3, [r3, #0]
 80003f4:	4a60      	ldr	r2, [pc, #384]	; (8000578 <stm32__device___elabs+0x258>)
 80003f6:	6053      	str	r3, [r2, #4]
 80003f8:	4b5f      	ldr	r3, [pc, #380]	; (8000578 <stm32__device___elabs+0x258>)
 80003fa:	f44f 6280 	mov.w	r2, #1024	; 0x400
 80003fe:	811a      	strh	r2, [r3, #8]
 8000400:	4b5d      	ldr	r3, [pc, #372]	; (8000578 <stm32__device___elabs+0x258>)
 8000402:	4a53      	ldr	r2, [pc, #332]	; (8000550 <stm32__device___elabs+0x230>)
 8000404:	601a      	str	r2, [r3, #0]
 8000406:	4b50      	ldr	r3, [pc, #320]	; (8000548 <stm32__device___elabs+0x228>)
 8000408:	681b      	ldr	r3, [r3, #0]
 800040a:	4a5c      	ldr	r2, [pc, #368]	; (800057c <stm32__device___elabs+0x25c>)
 800040c:	6053      	str	r3, [r2, #4]
 800040e:	4b5b      	ldr	r3, [pc, #364]	; (800057c <stm32__device___elabs+0x25c>)
 8000410:	f44f 6200 	mov.w	r2, #2048	; 0x800
 8000414:	811a      	strh	r2, [r3, #8]
 8000416:	4b59      	ldr	r3, [pc, #356]	; (800057c <stm32__device___elabs+0x25c>)
 8000418:	4a4d      	ldr	r2, [pc, #308]	; (8000550 <stm32__device___elabs+0x230>)
 800041a:	601a      	str	r2, [r3, #0]
 800041c:	4b4a      	ldr	r3, [pc, #296]	; (8000548 <stm32__device___elabs+0x228>)
 800041e:	681b      	ldr	r3, [r3, #0]
 8000420:	4a57      	ldr	r2, [pc, #348]	; (8000580 <stm32__device___elabs+0x260>)
 8000422:	6053      	str	r3, [r2, #4]
 8000424:	4b56      	ldr	r3, [pc, #344]	; (8000580 <stm32__device___elabs+0x260>)
 8000426:	f44f 5280 	mov.w	r2, #4096	; 0x1000
 800042a:	811a      	strh	r2, [r3, #8]
 800042c:	4b54      	ldr	r3, [pc, #336]	; (8000580 <stm32__device___elabs+0x260>)
 800042e:	4a48      	ldr	r2, [pc, #288]	; (8000550 <stm32__device___elabs+0x230>)
 8000430:	601a      	str	r2, [r3, #0]
 8000432:	4b45      	ldr	r3, [pc, #276]	; (8000548 <stm32__device___elabs+0x228>)
 8000434:	681b      	ldr	r3, [r3, #0]
 8000436:	4a53      	ldr	r2, [pc, #332]	; (8000584 <stm32__device___elabs+0x264>)
 8000438:	6053      	str	r3, [r2, #4]
 800043a:	4b52      	ldr	r3, [pc, #328]	; (8000584 <stm32__device___elabs+0x264>)
 800043c:	f44f 5200 	mov.w	r2, #8192	; 0x2000
 8000440:	811a      	strh	r2, [r3, #8]
 8000442:	4b50      	ldr	r3, [pc, #320]	; (8000584 <stm32__device___elabs+0x264>)
 8000444:	4a42      	ldr	r2, [pc, #264]	; (8000550 <stm32__device___elabs+0x230>)
 8000446:	601a      	str	r2, [r3, #0]
 8000448:	4b3f      	ldr	r3, [pc, #252]	; (8000548 <stm32__device___elabs+0x228>)
 800044a:	681b      	ldr	r3, [r3, #0]
 800044c:	4a4e      	ldr	r2, [pc, #312]	; (8000588 <stm32__device___elabs+0x268>)
 800044e:	6053      	str	r3, [r2, #4]
 8000450:	4b4d      	ldr	r3, [pc, #308]	; (8000588 <stm32__device___elabs+0x268>)
 8000452:	f44f 4280 	mov.w	r2, #16384	; 0x4000
 8000456:	811a      	strh	r2, [r3, #8]
 8000458:	4b4b      	ldr	r3, [pc, #300]	; (8000588 <stm32__device___elabs+0x268>)
 800045a:	4a3d      	ldr	r2, [pc, #244]	; (8000550 <stm32__device___elabs+0x230>)
 800045c:	601a      	str	r2, [r3, #0]
 800045e:	4b3a      	ldr	r3, [pc, #232]	; (8000548 <stm32__device___elabs+0x228>)
 8000460:	681b      	ldr	r3, [r3, #0]
 8000462:	4a4a      	ldr	r2, [pc, #296]	; (800058c <stm32__device___elabs+0x26c>)
 8000464:	6053      	str	r3, [r2, #4]
 8000466:	4b49      	ldr	r3, [pc, #292]	; (800058c <stm32__device___elabs+0x26c>)
 8000468:	f44f 4200 	mov.w	r2, #32768	; 0x8000
 800046c:	811a      	strh	r2, [r3, #8]
 800046e:	4b47      	ldr	r3, [pc, #284]	; (800058c <stm32__device___elabs+0x26c>)
 8000470:	4a37      	ldr	r2, [pc, #220]	; (8000550 <stm32__device___elabs+0x230>)
 8000472:	601a      	str	r2, [r3, #0]
 8000474:	4b46      	ldr	r3, [pc, #280]	; (8000590 <stm32__device___elabs+0x270>)
 8000476:	681b      	ldr	r3, [r3, #0]
 8000478:	4a46      	ldr	r2, [pc, #280]	; (8000594 <stm32__device___elabs+0x274>)
 800047a:	6053      	str	r3, [r2, #4]
 800047c:	4b45      	ldr	r3, [pc, #276]	; (8000594 <stm32__device___elabs+0x274>)
 800047e:	2201      	movs	r2, #1
 8000480:	811a      	strh	r2, [r3, #8]
 8000482:	4b44      	ldr	r3, [pc, #272]	; (8000594 <stm32__device___elabs+0x274>)
 8000484:	4a32      	ldr	r2, [pc, #200]	; (8000550 <stm32__device___elabs+0x230>)
 8000486:	601a      	str	r2, [r3, #0]
 8000488:	4b41      	ldr	r3, [pc, #260]	; (8000590 <stm32__device___elabs+0x270>)
 800048a:	681b      	ldr	r3, [r3, #0]
 800048c:	4a42      	ldr	r2, [pc, #264]	; (8000598 <stm32__device___elabs+0x278>)
 800048e:	6053      	str	r3, [r2, #4]
 8000490:	4b41      	ldr	r3, [pc, #260]	; (8000598 <stm32__device___elabs+0x278>)
 8000492:	2202      	movs	r2, #2
 8000494:	811a      	strh	r2, [r3, #8]
 8000496:	4b40      	ldr	r3, [pc, #256]	; (8000598 <stm32__device___elabs+0x278>)
 8000498:	4a2d      	ldr	r2, [pc, #180]	; (8000550 <stm32__device___elabs+0x230>)
 800049a:	601a      	str	r2, [r3, #0]
 800049c:	4b3c      	ldr	r3, [pc, #240]	; (8000590 <stm32__device___elabs+0x270>)
 800049e:	681b      	ldr	r3, [r3, #0]
 80004a0:	4a3e      	ldr	r2, [pc, #248]	; (800059c <stm32__device___elabs+0x27c>)
 80004a2:	6053      	str	r3, [r2, #4]
 80004a4:	4b3d      	ldr	r3, [pc, #244]	; (800059c <stm32__device___elabs+0x27c>)
 80004a6:	2204      	movs	r2, #4
 80004a8:	811a      	strh	r2, [r3, #8]
 80004aa:	4b3c      	ldr	r3, [pc, #240]	; (800059c <stm32__device___elabs+0x27c>)
 80004ac:	4a28      	ldr	r2, [pc, #160]	; (8000550 <stm32__device___elabs+0x230>)
 80004ae:	601a      	str	r2, [r3, #0]
 80004b0:	4b37      	ldr	r3, [pc, #220]	; (8000590 <stm32__device___elabs+0x270>)
 80004b2:	681b      	ldr	r3, [r3, #0]
 80004b4:	4a3a      	ldr	r2, [pc, #232]	; (80005a0 <stm32__device___elabs+0x280>)
 80004b6:	6053      	str	r3, [r2, #4]
 80004b8:	4b39      	ldr	r3, [pc, #228]	; (80005a0 <stm32__device___elabs+0x280>)
 80004ba:	2208      	movs	r2, #8
 80004bc:	811a      	strh	r2, [r3, #8]
 80004be:	4b38      	ldr	r3, [pc, #224]	; (80005a0 <stm32__device___elabs+0x280>)
 80004c0:	4a23      	ldr	r2, [pc, #140]	; (8000550 <stm32__device___elabs+0x230>)
 80004c2:	601a      	str	r2, [r3, #0]
 80004c4:	4b32      	ldr	r3, [pc, #200]	; (8000590 <stm32__device___elabs+0x270>)
 80004c6:	681b      	ldr	r3, [r3, #0]
 80004c8:	4a36      	ldr	r2, [pc, #216]	; (80005a4 <stm32__device___elabs+0x284>)
 80004ca:	6053      	str	r3, [r2, #4]
 80004cc:	4b35      	ldr	r3, [pc, #212]	; (80005a4 <stm32__device___elabs+0x284>)
 80004ce:	2210      	movs	r2, #16
 80004d0:	811a      	strh	r2, [r3, #8]
 80004d2:	4b34      	ldr	r3, [pc, #208]	; (80005a4 <stm32__device___elabs+0x284>)
 80004d4:	4a1e      	ldr	r2, [pc, #120]	; (8000550 <stm32__device___elabs+0x230>)
 80004d6:	601a      	str	r2, [r3, #0]
 80004d8:	4b2d      	ldr	r3, [pc, #180]	; (8000590 <stm32__device___elabs+0x270>)
 80004da:	681b      	ldr	r3, [r3, #0]
 80004dc:	4a32      	ldr	r2, [pc, #200]	; (80005a8 <stm32__device___elabs+0x288>)
 80004de:	6053      	str	r3, [r2, #4]
 80004e0:	4b31      	ldr	r3, [pc, #196]	; (80005a8 <stm32__device___elabs+0x288>)
 80004e2:	2220      	movs	r2, #32
 80004e4:	811a      	strh	r2, [r3, #8]
 80004e6:	4b30      	ldr	r3, [pc, #192]	; (80005a8 <stm32__device___elabs+0x288>)
 80004e8:	4a19      	ldr	r2, [pc, #100]	; (8000550 <stm32__device___elabs+0x230>)
 80004ea:	601a      	str	r2, [r3, #0]
 80004ec:	4b28      	ldr	r3, [pc, #160]	; (8000590 <stm32__device___elabs+0x270>)
 80004ee:	681b      	ldr	r3, [r3, #0]
 80004f0:	4a2e      	ldr	r2, [pc, #184]	; (80005ac <stm32__device___elabs+0x28c>)
 80004f2:	6053      	str	r3, [r2, #4]
 80004f4:	4b2d      	ldr	r3, [pc, #180]	; (80005ac <stm32__device___elabs+0x28c>)
 80004f6:	2240      	movs	r2, #64	; 0x40
 80004f8:	811a      	strh	r2, [r3, #8]
 80004fa:	4b2c      	ldr	r3, [pc, #176]	; (80005ac <stm32__device___elabs+0x28c>)
 80004fc:	4a14      	ldr	r2, [pc, #80]	; (8000550 <stm32__device___elabs+0x230>)
 80004fe:	601a      	str	r2, [r3, #0]
 8000500:	4b23      	ldr	r3, [pc, #140]	; (8000590 <stm32__device___elabs+0x270>)
 8000502:	681b      	ldr	r3, [r3, #0]
 8000504:	4a2a      	ldr	r2, [pc, #168]	; (80005b0 <stm32__device___elabs+0x290>)
 8000506:	6053      	str	r3, [r2, #4]
 8000508:	4b29      	ldr	r3, [pc, #164]	; (80005b0 <stm32__device___elabs+0x290>)
 800050a:	2280      	movs	r2, #128	; 0x80
 800050c:	811a      	strh	r2, [r3, #8]
 800050e:	4b28      	ldr	r3, [pc, #160]	; (80005b0 <stm32__device___elabs+0x290>)
 8000510:	4a0f      	ldr	r2, [pc, #60]	; (8000550 <stm32__device___elabs+0x230>)
 8000512:	601a      	str	r2, [r3, #0]
 8000514:	4b1e      	ldr	r3, [pc, #120]	; (8000590 <stm32__device___elabs+0x270>)
 8000516:	681b      	ldr	r3, [r3, #0]
 8000518:	4a26      	ldr	r2, [pc, #152]	; (80005b4 <stm32__device___elabs+0x294>)
 800051a:	6053      	str	r3, [r2, #4]
 800051c:	4b25      	ldr	r3, [pc, #148]	; (80005b4 <stm32__device___elabs+0x294>)
 800051e:	f44f 7280 	mov.w	r2, #256	; 0x100
 8000522:	811a      	strh	r2, [r3, #8]
 8000524:	4b23      	ldr	r3, [pc, #140]	; (80005b4 <stm32__device___elabs+0x294>)
 8000526:	4a0a      	ldr	r2, [pc, #40]	; (8000550 <stm32__device___elabs+0x230>)
 8000528:	601a      	str	r2, [r3, #0]
 800052a:	4b19      	ldr	r3, [pc, #100]	; (8000590 <stm32__device___elabs+0x270>)
 800052c:	681b      	ldr	r3, [r3, #0]
 800052e:	4a22      	ldr	r2, [pc, #136]	; (80005b8 <stm32__device___elabs+0x298>)
 8000530:	6053      	str	r3, [r2, #4]
 8000532:	4b21      	ldr	r3, [pc, #132]	; (80005b8 <stm32__device___elabs+0x298>)
 8000534:	f44f 7200 	mov.w	r2, #512	; 0x200
 8000538:	811a      	strh	r2, [r3, #8]
 800053a:	4b1f      	ldr	r3, [pc, #124]	; (80005b8 <stm32__device___elabs+0x298>)
 800053c:	4a04      	ldr	r2, [pc, #16]	; (8000550 <stm32__device___elabs+0x230>)
 800053e:	601a      	str	r2, [r3, #0]
 8000540:	4b13      	ldr	r3, [pc, #76]	; (8000590 <stm32__device___elabs+0x270>)
 8000542:	681b      	ldr	r3, [r3, #0]
 8000544:	e03a      	b.n	80005bc <stm32__device___elabs+0x29c>
 8000546:	bf00      	nop
 8000548:	20000004 	.word	0x20000004
 800054c:	200000c8 	.word	0x200000c8
 8000550:	080091a8 	.word	0x080091a8
 8000554:	200000d4 	.word	0x200000d4
 8000558:	200000e0 	.word	0x200000e0
 800055c:	200000ec 	.word	0x200000ec
 8000560:	200000f8 	.word	0x200000f8
 8000564:	20000104 	.word	0x20000104
 8000568:	20000110 	.word	0x20000110
 800056c:	2000011c 	.word	0x2000011c
 8000570:	20000128 	.word	0x20000128
 8000574:	20000134 	.word	0x20000134
 8000578:	20000140 	.word	0x20000140
 800057c:	2000014c 	.word	0x2000014c
 8000580:	20000158 	.word	0x20000158
 8000584:	20000164 	.word	0x20000164
 8000588:	20000170 	.word	0x20000170
 800058c:	2000017c 	.word	0x2000017c
 8000590:	20000008 	.word	0x20000008
 8000594:	20000188 	.word	0x20000188
 8000598:	20000194 	.word	0x20000194
 800059c:	200001a0 	.word	0x200001a0
 80005a0:	200001ac 	.word	0x200001ac
 80005a4:	200001b8 	.word	0x200001b8
 80005a8:	200001c4 	.word	0x200001c4
 80005ac:	200001d0 	.word	0x200001d0
 80005b0:	200001dc 	.word	0x200001dc
 80005b4:	200001e8 	.word	0x200001e8
 80005b8:	200001f4 	.word	0x200001f4
 80005bc:	4a89      	ldr	r2, [pc, #548]	; (80007e4 <stm32__device___elabs+0x4c4>)
 80005be:	6053      	str	r3, [r2, #4]
 80005c0:	4b88      	ldr	r3, [pc, #544]	; (80007e4 <stm32__device___elabs+0x4c4>)
 80005c2:	f44f 6280 	mov.w	r2, #1024	; 0x400
 80005c6:	811a      	strh	r2, [r3, #8]
 80005c8:	4b86      	ldr	r3, [pc, #536]	; (80007e4 <stm32__device___elabs+0x4c4>)
 80005ca:	4a87      	ldr	r2, [pc, #540]	; (80007e8 <stm32__device___elabs+0x4c8>)
 80005cc:	601a      	str	r2, [r3, #0]
 80005ce:	4b87      	ldr	r3, [pc, #540]	; (80007ec <stm32__device___elabs+0x4cc>)
 80005d0:	681b      	ldr	r3, [r3, #0]
 80005d2:	4a87      	ldr	r2, [pc, #540]	; (80007f0 <stm32__device___elabs+0x4d0>)
 80005d4:	6053      	str	r3, [r2, #4]
 80005d6:	4b86      	ldr	r3, [pc, #536]	; (80007f0 <stm32__device___elabs+0x4d0>)
 80005d8:	f44f 6200 	mov.w	r2, #2048	; 0x800
 80005dc:	811a      	strh	r2, [r3, #8]
 80005de:	4b84      	ldr	r3, [pc, #528]	; (80007f0 <stm32__device___elabs+0x4d0>)
 80005e0:	4a81      	ldr	r2, [pc, #516]	; (80007e8 <stm32__device___elabs+0x4c8>)
 80005e2:	601a      	str	r2, [r3, #0]
 80005e4:	4b81      	ldr	r3, [pc, #516]	; (80007ec <stm32__device___elabs+0x4cc>)
 80005e6:	681b      	ldr	r3, [r3, #0]
 80005e8:	4a82      	ldr	r2, [pc, #520]	; (80007f4 <stm32__device___elabs+0x4d4>)
 80005ea:	6053      	str	r3, [r2, #4]
 80005ec:	4b81      	ldr	r3, [pc, #516]	; (80007f4 <stm32__device___elabs+0x4d4>)
 80005ee:	f44f 5280 	mov.w	r2, #4096	; 0x1000
 80005f2:	811a      	strh	r2, [r3, #8]
 80005f4:	4b7f      	ldr	r3, [pc, #508]	; (80007f4 <stm32__device___elabs+0x4d4>)
 80005f6:	4a7c      	ldr	r2, [pc, #496]	; (80007e8 <stm32__device___elabs+0x4c8>)
 80005f8:	601a      	str	r2, [r3, #0]
 80005fa:	4b7c      	ldr	r3, [pc, #496]	; (80007ec <stm32__device___elabs+0x4cc>)
 80005fc:	681b      	ldr	r3, [r3, #0]
 80005fe:	4a7e      	ldr	r2, [pc, #504]	; (80007f8 <stm32__device___elabs+0x4d8>)
 8000600:	6053      	str	r3, [r2, #4]
 8000602:	4b7d      	ldr	r3, [pc, #500]	; (80007f8 <stm32__device___elabs+0x4d8>)
 8000604:	f44f 5200 	mov.w	r2, #8192	; 0x2000
 8000608:	811a      	strh	r2, [r3, #8]
 800060a:	4b7b      	ldr	r3, [pc, #492]	; (80007f8 <stm32__device___elabs+0x4d8>)
 800060c:	4a76      	ldr	r2, [pc, #472]	; (80007e8 <stm32__device___elabs+0x4c8>)
 800060e:	601a      	str	r2, [r3, #0]
 8000610:	4b76      	ldr	r3, [pc, #472]	; (80007ec <stm32__device___elabs+0x4cc>)
 8000612:	681b      	ldr	r3, [r3, #0]
 8000614:	4a79      	ldr	r2, [pc, #484]	; (80007fc <stm32__device___elabs+0x4dc>)
 8000616:	6053      	str	r3, [r2, #4]
 8000618:	4b78      	ldr	r3, [pc, #480]	; (80007fc <stm32__device___elabs+0x4dc>)
 800061a:	f44f 4280 	mov.w	r2, #16384	; 0x4000
 800061e:	811a      	strh	r2, [r3, #8]
 8000620:	4b76      	ldr	r3, [pc, #472]	; (80007fc <stm32__device___elabs+0x4dc>)
 8000622:	4a71      	ldr	r2, [pc, #452]	; (80007e8 <stm32__device___elabs+0x4c8>)
 8000624:	601a      	str	r2, [r3, #0]
 8000626:	4b71      	ldr	r3, [pc, #452]	; (80007ec <stm32__device___elabs+0x4cc>)
 8000628:	681b      	ldr	r3, [r3, #0]
 800062a:	4a75      	ldr	r2, [pc, #468]	; (8000800 <stm32__device___elabs+0x4e0>)
 800062c:	6053      	str	r3, [r2, #4]
 800062e:	4b74      	ldr	r3, [pc, #464]	; (8000800 <stm32__device___elabs+0x4e0>)
 8000630:	f44f 4200 	mov.w	r2, #32768	; 0x8000
 8000634:	811a      	strh	r2, [r3, #8]
 8000636:	4b72      	ldr	r3, [pc, #456]	; (8000800 <stm32__device___elabs+0x4e0>)
 8000638:	4a6b      	ldr	r2, [pc, #428]	; (80007e8 <stm32__device___elabs+0x4c8>)
 800063a:	601a      	str	r2, [r3, #0]
 800063c:	4b71      	ldr	r3, [pc, #452]	; (8000804 <stm32__device___elabs+0x4e4>)
 800063e:	681b      	ldr	r3, [r3, #0]
 8000640:	4a71      	ldr	r2, [pc, #452]	; (8000808 <stm32__device___elabs+0x4e8>)
 8000642:	6053      	str	r3, [r2, #4]
 8000644:	4b70      	ldr	r3, [pc, #448]	; (8000808 <stm32__device___elabs+0x4e8>)
 8000646:	2201      	movs	r2, #1
 8000648:	811a      	strh	r2, [r3, #8]
 800064a:	4b6f      	ldr	r3, [pc, #444]	; (8000808 <stm32__device___elabs+0x4e8>)
 800064c:	4a66      	ldr	r2, [pc, #408]	; (80007e8 <stm32__device___elabs+0x4c8>)
 800064e:	601a      	str	r2, [r3, #0]
 8000650:	4b6c      	ldr	r3, [pc, #432]	; (8000804 <stm32__device___elabs+0x4e4>)
 8000652:	681b      	ldr	r3, [r3, #0]
 8000654:	4a6d      	ldr	r2, [pc, #436]	; (800080c <stm32__device___elabs+0x4ec>)
 8000656:	6053      	str	r3, [r2, #4]
 8000658:	4b6c      	ldr	r3, [pc, #432]	; (800080c <stm32__device___elabs+0x4ec>)
 800065a:	2202      	movs	r2, #2
 800065c:	811a      	strh	r2, [r3, #8]
 800065e:	4b6b      	ldr	r3, [pc, #428]	; (800080c <stm32__device___elabs+0x4ec>)
 8000660:	4a61      	ldr	r2, [pc, #388]	; (80007e8 <stm32__device___elabs+0x4c8>)
 8000662:	601a      	str	r2, [r3, #0]
 8000664:	4b67      	ldr	r3, [pc, #412]	; (8000804 <stm32__device___elabs+0x4e4>)
 8000666:	681b      	ldr	r3, [r3, #0]
 8000668:	4a69      	ldr	r2, [pc, #420]	; (8000810 <stm32__device___elabs+0x4f0>)
 800066a:	6053      	str	r3, [r2, #4]
 800066c:	4b68      	ldr	r3, [pc, #416]	; (8000810 <stm32__device___elabs+0x4f0>)
 800066e:	2204      	movs	r2, #4
 8000670:	811a      	strh	r2, [r3, #8]
 8000672:	4b67      	ldr	r3, [pc, #412]	; (8000810 <stm32__device___elabs+0x4f0>)
 8000674:	4a5c      	ldr	r2, [pc, #368]	; (80007e8 <stm32__device___elabs+0x4c8>)
 8000676:	601a      	str	r2, [r3, #0]
 8000678:	4b62      	ldr	r3, [pc, #392]	; (8000804 <stm32__device___elabs+0x4e4>)
 800067a:	681b      	ldr	r3, [r3, #0]
 800067c:	4a65      	ldr	r2, [pc, #404]	; (8000814 <stm32__device___elabs+0x4f4>)
 800067e:	6053      	str	r3, [r2, #4]
 8000680:	4b64      	ldr	r3, [pc, #400]	; (8000814 <stm32__device___elabs+0x4f4>)
 8000682:	2208      	movs	r2, #8
 8000684:	811a      	strh	r2, [r3, #8]
 8000686:	4b63      	ldr	r3, [pc, #396]	; (8000814 <stm32__device___elabs+0x4f4>)
 8000688:	4a57      	ldr	r2, [pc, #348]	; (80007e8 <stm32__device___elabs+0x4c8>)
 800068a:	601a      	str	r2, [r3, #0]
 800068c:	4b5d      	ldr	r3, [pc, #372]	; (8000804 <stm32__device___elabs+0x4e4>)
 800068e:	681b      	ldr	r3, [r3, #0]
 8000690:	4a61      	ldr	r2, [pc, #388]	; (8000818 <stm32__device___elabs+0x4f8>)
 8000692:	6053      	str	r3, [r2, #4]
 8000694:	4b60      	ldr	r3, [pc, #384]	; (8000818 <stm32__device___elabs+0x4f8>)
 8000696:	2210      	movs	r2, #16
 8000698:	811a      	strh	r2, [r3, #8]
 800069a:	4b5f      	ldr	r3, [pc, #380]	; (8000818 <stm32__device___elabs+0x4f8>)
 800069c:	4a52      	ldr	r2, [pc, #328]	; (80007e8 <stm32__device___elabs+0x4c8>)
 800069e:	601a      	str	r2, [r3, #0]
 80006a0:	4b58      	ldr	r3, [pc, #352]	; (8000804 <stm32__device___elabs+0x4e4>)
 80006a2:	681b      	ldr	r3, [r3, #0]
 80006a4:	4a5d      	ldr	r2, [pc, #372]	; (800081c <stm32__device___elabs+0x4fc>)
 80006a6:	6053      	str	r3, [r2, #4]
 80006a8:	4b5c      	ldr	r3, [pc, #368]	; (800081c <stm32__device___elabs+0x4fc>)
 80006aa:	2220      	movs	r2, #32
 80006ac:	811a      	strh	r2, [r3, #8]
 80006ae:	4b5b      	ldr	r3, [pc, #364]	; (800081c <stm32__device___elabs+0x4fc>)
 80006b0:	4a4d      	ldr	r2, [pc, #308]	; (80007e8 <stm32__device___elabs+0x4c8>)
 80006b2:	601a      	str	r2, [r3, #0]
 80006b4:	4b53      	ldr	r3, [pc, #332]	; (8000804 <stm32__device___elabs+0x4e4>)
 80006b6:	681b      	ldr	r3, [r3, #0]
 80006b8:	4a59      	ldr	r2, [pc, #356]	; (8000820 <stm32__device___elabs+0x500>)
 80006ba:	6053      	str	r3, [r2, #4]
 80006bc:	4b58      	ldr	r3, [pc, #352]	; (8000820 <stm32__device___elabs+0x500>)
 80006be:	2240      	movs	r2, #64	; 0x40
 80006c0:	811a      	strh	r2, [r3, #8]
 80006c2:	4b57      	ldr	r3, [pc, #348]	; (8000820 <stm32__device___elabs+0x500>)
 80006c4:	4a48      	ldr	r2, [pc, #288]	; (80007e8 <stm32__device___elabs+0x4c8>)
 80006c6:	601a      	str	r2, [r3, #0]
 80006c8:	4b4e      	ldr	r3, [pc, #312]	; (8000804 <stm32__device___elabs+0x4e4>)
 80006ca:	681b      	ldr	r3, [r3, #0]
 80006cc:	4a55      	ldr	r2, [pc, #340]	; (8000824 <stm32__device___elabs+0x504>)
 80006ce:	6053      	str	r3, [r2, #4]
 80006d0:	4b54      	ldr	r3, [pc, #336]	; (8000824 <stm32__device___elabs+0x504>)
 80006d2:	2280      	movs	r2, #128	; 0x80
 80006d4:	811a      	strh	r2, [r3, #8]
 80006d6:	4b53      	ldr	r3, [pc, #332]	; (8000824 <stm32__device___elabs+0x504>)
 80006d8:	4a43      	ldr	r2, [pc, #268]	; (80007e8 <stm32__device___elabs+0x4c8>)
 80006da:	601a      	str	r2, [r3, #0]
 80006dc:	4b49      	ldr	r3, [pc, #292]	; (8000804 <stm32__device___elabs+0x4e4>)
 80006de:	681b      	ldr	r3, [r3, #0]
 80006e0:	4a51      	ldr	r2, [pc, #324]	; (8000828 <stm32__device___elabs+0x508>)
 80006e2:	6053      	str	r3, [r2, #4]
 80006e4:	4b50      	ldr	r3, [pc, #320]	; (8000828 <stm32__device___elabs+0x508>)
 80006e6:	f44f 7280 	mov.w	r2, #256	; 0x100
 80006ea:	811a      	strh	r2, [r3, #8]
 80006ec:	4b4e      	ldr	r3, [pc, #312]	; (8000828 <stm32__device___elabs+0x508>)
 80006ee:	4a3e      	ldr	r2, [pc, #248]	; (80007e8 <stm32__device___elabs+0x4c8>)
 80006f0:	601a      	str	r2, [r3, #0]
 80006f2:	4b44      	ldr	r3, [pc, #272]	; (8000804 <stm32__device___elabs+0x4e4>)
 80006f4:	681b      	ldr	r3, [r3, #0]
 80006f6:	4a4d      	ldr	r2, [pc, #308]	; (800082c <stm32__device___elabs+0x50c>)
 80006f8:	6053      	str	r3, [r2, #4]
 80006fa:	4b4c      	ldr	r3, [pc, #304]	; (800082c <stm32__device___elabs+0x50c>)
 80006fc:	f44f 7200 	mov.w	r2, #512	; 0x200
 8000700:	811a      	strh	r2, [r3, #8]
 8000702:	4b4a      	ldr	r3, [pc, #296]	; (800082c <stm32__device___elabs+0x50c>)
 8000704:	4a38      	ldr	r2, [pc, #224]	; (80007e8 <stm32__device___elabs+0x4c8>)
 8000706:	601a      	str	r2, [r3, #0]
 8000708:	4b3e      	ldr	r3, [pc, #248]	; (8000804 <stm32__device___elabs+0x4e4>)
 800070a:	681b      	ldr	r3, [r3, #0]
 800070c:	4a48      	ldr	r2, [pc, #288]	; (8000830 <stm32__device___elabs+0x510>)
 800070e:	6053      	str	r3, [r2, #4]
 8000710:	4b47      	ldr	r3, [pc, #284]	; (8000830 <stm32__device___elabs+0x510>)
 8000712:	f44f 6280 	mov.w	r2, #1024	; 0x400
 8000716:	811a      	strh	r2, [r3, #8]
 8000718:	4b45      	ldr	r3, [pc, #276]	; (8000830 <stm32__device___elabs+0x510>)
 800071a:	4a33      	ldr	r2, [pc, #204]	; (80007e8 <stm32__device___elabs+0x4c8>)
 800071c:	601a      	str	r2, [r3, #0]
 800071e:	4b39      	ldr	r3, [pc, #228]	; (8000804 <stm32__device___elabs+0x4e4>)
 8000720:	681b      	ldr	r3, [r3, #0]
 8000722:	4a44      	ldr	r2, [pc, #272]	; (8000834 <stm32__device___elabs+0x514>)
 8000724:	6053      	str	r3, [r2, #4]
 8000726:	4b43      	ldr	r3, [pc, #268]	; (8000834 <stm32__device___elabs+0x514>)
 8000728:	f44f 6200 	mov.w	r2, #2048	; 0x800
 800072c:	811a      	strh	r2, [r3, #8]
 800072e:	4b41      	ldr	r3, [pc, #260]	; (8000834 <stm32__device___elabs+0x514>)
 8000730:	4a2d      	ldr	r2, [pc, #180]	; (80007e8 <stm32__device___elabs+0x4c8>)
 8000732:	601a      	str	r2, [r3, #0]
 8000734:	4b33      	ldr	r3, [pc, #204]	; (8000804 <stm32__device___elabs+0x4e4>)
 8000736:	681b      	ldr	r3, [r3, #0]
 8000738:	4a3f      	ldr	r2, [pc, #252]	; (8000838 <stm32__device___elabs+0x518>)
 800073a:	6053      	str	r3, [r2, #4]
 800073c:	4b3e      	ldr	r3, [pc, #248]	; (8000838 <stm32__device___elabs+0x518>)
 800073e:	f44f 5280 	mov.w	r2, #4096	; 0x1000
 8000742:	811a      	strh	r2, [r3, #8]
 8000744:	4b3c      	ldr	r3, [pc, #240]	; (8000838 <stm32__device___elabs+0x518>)
 8000746:	4a28      	ldr	r2, [pc, #160]	; (80007e8 <stm32__device___elabs+0x4c8>)
 8000748:	601a      	str	r2, [r3, #0]
 800074a:	4b2e      	ldr	r3, [pc, #184]	; (8000804 <stm32__device___elabs+0x4e4>)
 800074c:	681b      	ldr	r3, [r3, #0]
 800074e:	4a3b      	ldr	r2, [pc, #236]	; (800083c <stm32__device___elabs+0x51c>)
 8000750:	6053      	str	r3, [r2, #4]
 8000752:	4b3a      	ldr	r3, [pc, #232]	; (800083c <stm32__device___elabs+0x51c>)
 8000754:	f44f 5200 	mov.w	r2, #8192	; 0x2000
 8000758:	811a      	strh	r2, [r3, #8]
 800075a:	4b38      	ldr	r3, [pc, #224]	; (800083c <stm32__device___elabs+0x51c>)
 800075c:	4a22      	ldr	r2, [pc, #136]	; (80007e8 <stm32__device___elabs+0x4c8>)
 800075e:	601a      	str	r2, [r3, #0]
 8000760:	4b28      	ldr	r3, [pc, #160]	; (8000804 <stm32__device___elabs+0x4e4>)
 8000762:	681b      	ldr	r3, [r3, #0]
 8000764:	4a36      	ldr	r2, [pc, #216]	; (8000840 <stm32__device___elabs+0x520>)
 8000766:	6053      	str	r3, [r2, #4]
 8000768:	4b35      	ldr	r3, [pc, #212]	; (8000840 <stm32__device___elabs+0x520>)
 800076a:	f44f 4280 	mov.w	r2, #16384	; 0x4000
 800076e:	811a      	strh	r2, [r3, #8]
 8000770:	4b33      	ldr	r3, [pc, #204]	; (8000840 <stm32__device___elabs+0x520>)
 8000772:	4a1d      	ldr	r2, [pc, #116]	; (80007e8 <stm32__device___elabs+0x4c8>)
 8000774:	601a      	str	r2, [r3, #0]
 8000776:	4b23      	ldr	r3, [pc, #140]	; (8000804 <stm32__device___elabs+0x4e4>)
 8000778:	681b      	ldr	r3, [r3, #0]
 800077a:	4a32      	ldr	r2, [pc, #200]	; (8000844 <stm32__device___elabs+0x524>)
 800077c:	6053      	str	r3, [r2, #4]
 800077e:	4b31      	ldr	r3, [pc, #196]	; (8000844 <stm32__device___elabs+0x524>)
 8000780:	f44f 4200 	mov.w	r2, #32768	; 0x8000
 8000784:	811a      	strh	r2, [r3, #8]
 8000786:	4b2f      	ldr	r3, [pc, #188]	; (8000844 <stm32__device___elabs+0x524>)
 8000788:	4a17      	ldr	r2, [pc, #92]	; (80007e8 <stm32__device___elabs+0x4c8>)
 800078a:	601a      	str	r2, [r3, #0]
 800078c:	4b2e      	ldr	r3, [pc, #184]	; (8000848 <stm32__device___elabs+0x528>)
 800078e:	681b      	ldr	r3, [r3, #0]
 8000790:	4a2e      	ldr	r2, [pc, #184]	; (800084c <stm32__device___elabs+0x52c>)
 8000792:	6053      	str	r3, [r2, #4]
 8000794:	4b2d      	ldr	r3, [pc, #180]	; (800084c <stm32__device___elabs+0x52c>)
 8000796:	2201      	movs	r2, #1
 8000798:	811a      	strh	r2, [r3, #8]
 800079a:	4b2c      	ldr	r3, [pc, #176]	; (800084c <stm32__device___elabs+0x52c>)
 800079c:	4a12      	ldr	r2, [pc, #72]	; (80007e8 <stm32__device___elabs+0x4c8>)
 800079e:	601a      	str	r2, [r3, #0]
 80007a0:	4b29      	ldr	r3, [pc, #164]	; (8000848 <stm32__device___elabs+0x528>)
 80007a2:	681b      	ldr	r3, [r3, #0]
 80007a4:	4a2a      	ldr	r2, [pc, #168]	; (8000850 <stm32__device___elabs+0x530>)
 80007a6:	6053      	str	r3, [r2, #4]
 80007a8:	4b29      	ldr	r3, [pc, #164]	; (8000850 <stm32__device___elabs+0x530>)
 80007aa:	2202      	movs	r2, #2
 80007ac:	811a      	strh	r2, [r3, #8]
 80007ae:	4b28      	ldr	r3, [pc, #160]	; (8000850 <stm32__device___elabs+0x530>)
 80007b0:	4a0d      	ldr	r2, [pc, #52]	; (80007e8 <stm32__device___elabs+0x4c8>)
 80007b2:	601a      	str	r2, [r3, #0]
 80007b4:	4b24      	ldr	r3, [pc, #144]	; (8000848 <stm32__device___elabs+0x528>)
 80007b6:	681b      	ldr	r3, [r3, #0]
 80007b8:	4a26      	ldr	r2, [pc, #152]	; (8000854 <stm32__device___elabs+0x534>)
 80007ba:	6053      	str	r3, [r2, #4]
 80007bc:	4b25      	ldr	r3, [pc, #148]	; (8000854 <stm32__device___elabs+0x534>)
 80007be:	2204      	movs	r2, #4
 80007c0:	811a      	strh	r2, [r3, #8]
 80007c2:	4b24      	ldr	r3, [pc, #144]	; (8000854 <stm32__device___elabs+0x534>)
 80007c4:	4a08      	ldr	r2, [pc, #32]	; (80007e8 <stm32__device___elabs+0x4c8>)
 80007c6:	601a      	str	r2, [r3, #0]
 80007c8:	4b1f      	ldr	r3, [pc, #124]	; (8000848 <stm32__device___elabs+0x528>)
 80007ca:	681b      	ldr	r3, [r3, #0]
 80007cc:	4a22      	ldr	r2, [pc, #136]	; (8000858 <stm32__device___elabs+0x538>)
 80007ce:	6053      	str	r3, [r2, #4]
 80007d0:	4b21      	ldr	r3, [pc, #132]	; (8000858 <stm32__device___elabs+0x538>)
 80007d2:	2208      	movs	r2, #8
 80007d4:	811a      	strh	r2, [r3, #8]
 80007d6:	4b20      	ldr	r3, [pc, #128]	; (8000858 <stm32__device___elabs+0x538>)
 80007d8:	4a03      	ldr	r2, [pc, #12]	; (80007e8 <stm32__device___elabs+0x4c8>)
 80007da:	601a      	str	r2, [r3, #0]
 80007dc:	4b1a      	ldr	r3, [pc, #104]	; (8000848 <stm32__device___elabs+0x528>)
 80007de:	681b      	ldr	r3, [r3, #0]
 80007e0:	e03c      	b.n	800085c <stm32__device___elabs+0x53c>
 80007e2:	bf00      	nop
 80007e4:	20000200 	.word	0x20000200
 80007e8:	080091a8 	.word	0x080091a8
 80007ec:	20000008 	.word	0x20000008
 80007f0:	2000020c 	.word	0x2000020c
 80007f4:	20000218 	.word	0x20000218
 80007f8:	20000224 	.word	0x20000224
 80007fc:	20000230 	.word	0x20000230
 8000800:	2000023c 	.word	0x2000023c
 8000804:	2000000c 	.word	0x2000000c
 8000808:	20000248 	.word	0x20000248
 800080c:	20000254 	.word	0x20000254
 8000810:	20000260 	.word	0x20000260
 8000814:	2000026c 	.word	0x2000026c
 8000818:	20000278 	.word	0x20000278
 800081c:	20000284 	.word	0x20000284
 8000820:	20000290 	.word	0x20000290
 8000824:	2000029c 	.word	0x2000029c
 8000828:	200002a8 	.word	0x200002a8
 800082c:	200002b4 	.word	0x200002b4
 8000830:	200002c0 	.word	0x200002c0
 8000834:	200002cc 	.word	0x200002cc
 8000838:	200002d8 	.word	0x200002d8
 800083c:	200002e4 	.word	0x200002e4
 8000840:	200002f0 	.word	0x200002f0
 8000844:	200002fc 	.word	0x200002fc
 8000848:	20000010 	.word	0x20000010
 800084c:	20000308 	.word	0x20000308
 8000850:	20000314 	.word	0x20000314
 8000854:	20000320 	.word	0x20000320
 8000858:	2000032c 	.word	0x2000032c
 800085c:	4a89      	ldr	r2, [pc, #548]	; (8000a84 <stm32__device___elabs+0x764>)
 800085e:	6053      	str	r3, [r2, #4]
 8000860:	4b88      	ldr	r3, [pc, #544]	; (8000a84 <stm32__device___elabs+0x764>)
 8000862:	2210      	movs	r2, #16
 8000864:	811a      	strh	r2, [r3, #8]
 8000866:	4b87      	ldr	r3, [pc, #540]	; (8000a84 <stm32__device___elabs+0x764>)
 8000868:	4a87      	ldr	r2, [pc, #540]	; (8000a88 <stm32__device___elabs+0x768>)
 800086a:	601a      	str	r2, [r3, #0]
 800086c:	4b87      	ldr	r3, [pc, #540]	; (8000a8c <stm32__device___elabs+0x76c>)
 800086e:	681b      	ldr	r3, [r3, #0]
 8000870:	4a87      	ldr	r2, [pc, #540]	; (8000a90 <stm32__device___elabs+0x770>)
 8000872:	6053      	str	r3, [r2, #4]
 8000874:	4b86      	ldr	r3, [pc, #536]	; (8000a90 <stm32__device___elabs+0x770>)
 8000876:	2220      	movs	r2, #32
 8000878:	811a      	strh	r2, [r3, #8]
 800087a:	4b85      	ldr	r3, [pc, #532]	; (8000a90 <stm32__device___elabs+0x770>)
 800087c:	4a82      	ldr	r2, [pc, #520]	; (8000a88 <stm32__device___elabs+0x768>)
 800087e:	601a      	str	r2, [r3, #0]
 8000880:	4b82      	ldr	r3, [pc, #520]	; (8000a8c <stm32__device___elabs+0x76c>)
 8000882:	681b      	ldr	r3, [r3, #0]
 8000884:	4a83      	ldr	r2, [pc, #524]	; (8000a94 <stm32__device___elabs+0x774>)
 8000886:	6053      	str	r3, [r2, #4]
 8000888:	4b82      	ldr	r3, [pc, #520]	; (8000a94 <stm32__device___elabs+0x774>)
 800088a:	2240      	movs	r2, #64	; 0x40
 800088c:	811a      	strh	r2, [r3, #8]
 800088e:	4b81      	ldr	r3, [pc, #516]	; (8000a94 <stm32__device___elabs+0x774>)
 8000890:	4a7d      	ldr	r2, [pc, #500]	; (8000a88 <stm32__device___elabs+0x768>)
 8000892:	601a      	str	r2, [r3, #0]
 8000894:	4b7d      	ldr	r3, [pc, #500]	; (8000a8c <stm32__device___elabs+0x76c>)
 8000896:	681b      	ldr	r3, [r3, #0]
 8000898:	4a7f      	ldr	r2, [pc, #508]	; (8000a98 <stm32__device___elabs+0x778>)
 800089a:	6053      	str	r3, [r2, #4]
 800089c:	4b7e      	ldr	r3, [pc, #504]	; (8000a98 <stm32__device___elabs+0x778>)
 800089e:	2280      	movs	r2, #128	; 0x80
 80008a0:	811a      	strh	r2, [r3, #8]
 80008a2:	4b7d      	ldr	r3, [pc, #500]	; (8000a98 <stm32__device___elabs+0x778>)
 80008a4:	4a78      	ldr	r2, [pc, #480]	; (8000a88 <stm32__device___elabs+0x768>)
 80008a6:	601a      	str	r2, [r3, #0]
 80008a8:	4b78      	ldr	r3, [pc, #480]	; (8000a8c <stm32__device___elabs+0x76c>)
 80008aa:	681b      	ldr	r3, [r3, #0]
 80008ac:	4a7b      	ldr	r2, [pc, #492]	; (8000a9c <stm32__device___elabs+0x77c>)
 80008ae:	6053      	str	r3, [r2, #4]
 80008b0:	4b7a      	ldr	r3, [pc, #488]	; (8000a9c <stm32__device___elabs+0x77c>)
 80008b2:	f44f 7280 	mov.w	r2, #256	; 0x100
 80008b6:	811a      	strh	r2, [r3, #8]
 80008b8:	4b78      	ldr	r3, [pc, #480]	; (8000a9c <stm32__device___elabs+0x77c>)
 80008ba:	4a73      	ldr	r2, [pc, #460]	; (8000a88 <stm32__device___elabs+0x768>)
 80008bc:	601a      	str	r2, [r3, #0]
 80008be:	4b73      	ldr	r3, [pc, #460]	; (8000a8c <stm32__device___elabs+0x76c>)
 80008c0:	681b      	ldr	r3, [r3, #0]
 80008c2:	4a77      	ldr	r2, [pc, #476]	; (8000aa0 <stm32__device___elabs+0x780>)
 80008c4:	6053      	str	r3, [r2, #4]
 80008c6:	4b76      	ldr	r3, [pc, #472]	; (8000aa0 <stm32__device___elabs+0x780>)
 80008c8:	f44f 7200 	mov.w	r2, #512	; 0x200
 80008cc:	811a      	strh	r2, [r3, #8]
 80008ce:	4b74      	ldr	r3, [pc, #464]	; (8000aa0 <stm32__device___elabs+0x780>)
 80008d0:	4a6d      	ldr	r2, [pc, #436]	; (8000a88 <stm32__device___elabs+0x768>)
 80008d2:	601a      	str	r2, [r3, #0]
 80008d4:	4b6d      	ldr	r3, [pc, #436]	; (8000a8c <stm32__device___elabs+0x76c>)
 80008d6:	681b      	ldr	r3, [r3, #0]
 80008d8:	4a72      	ldr	r2, [pc, #456]	; (8000aa4 <stm32__device___elabs+0x784>)
 80008da:	6053      	str	r3, [r2, #4]
 80008dc:	4b71      	ldr	r3, [pc, #452]	; (8000aa4 <stm32__device___elabs+0x784>)
 80008de:	f44f 6280 	mov.w	r2, #1024	; 0x400
 80008e2:	811a      	strh	r2, [r3, #8]
 80008e4:	4b6f      	ldr	r3, [pc, #444]	; (8000aa4 <stm32__device___elabs+0x784>)
 80008e6:	4a68      	ldr	r2, [pc, #416]	; (8000a88 <stm32__device___elabs+0x768>)
 80008e8:	601a      	str	r2, [r3, #0]
 80008ea:	4b68      	ldr	r3, [pc, #416]	; (8000a8c <stm32__device___elabs+0x76c>)
 80008ec:	681b      	ldr	r3, [r3, #0]
 80008ee:	4a6e      	ldr	r2, [pc, #440]	; (8000aa8 <stm32__device___elabs+0x788>)
 80008f0:	6053      	str	r3, [r2, #4]
 80008f2:	4b6d      	ldr	r3, [pc, #436]	; (8000aa8 <stm32__device___elabs+0x788>)
 80008f4:	f44f 6200 	mov.w	r2, #2048	; 0x800
 80008f8:	811a      	strh	r2, [r3, #8]
 80008fa:	4b6b      	ldr	r3, [pc, #428]	; (8000aa8 <stm32__device___elabs+0x788>)
 80008fc:	4a62      	ldr	r2, [pc, #392]	; (8000a88 <stm32__device___elabs+0x768>)
 80008fe:	601a      	str	r2, [r3, #0]
 8000900:	4b62      	ldr	r3, [pc, #392]	; (8000a8c <stm32__device___elabs+0x76c>)
 8000902:	681b      	ldr	r3, [r3, #0]
 8000904:	4a69      	ldr	r2, [pc, #420]	; (8000aac <stm32__device___elabs+0x78c>)
 8000906:	6053      	str	r3, [r2, #4]
 8000908:	4b68      	ldr	r3, [pc, #416]	; (8000aac <stm32__device___elabs+0x78c>)
 800090a:	f44f 5280 	mov.w	r2, #4096	; 0x1000
 800090e:	811a      	strh	r2, [r3, #8]
 8000910:	4b66      	ldr	r3, [pc, #408]	; (8000aac <stm32__device___elabs+0x78c>)
 8000912:	4a5d      	ldr	r2, [pc, #372]	; (8000a88 <stm32__device___elabs+0x768>)
 8000914:	601a      	str	r2, [r3, #0]
 8000916:	4b5d      	ldr	r3, [pc, #372]	; (8000a8c <stm32__device___elabs+0x76c>)
 8000918:	681b      	ldr	r3, [r3, #0]
 800091a:	4a65      	ldr	r2, [pc, #404]	; (8000ab0 <stm32__device___elabs+0x790>)
 800091c:	6053      	str	r3, [r2, #4]
 800091e:	4b64      	ldr	r3, [pc, #400]	; (8000ab0 <stm32__device___elabs+0x790>)
 8000920:	f44f 5200 	mov.w	r2, #8192	; 0x2000
 8000924:	811a      	strh	r2, [r3, #8]
 8000926:	4b62      	ldr	r3, [pc, #392]	; (8000ab0 <stm32__device___elabs+0x790>)
 8000928:	4a57      	ldr	r2, [pc, #348]	; (8000a88 <stm32__device___elabs+0x768>)
 800092a:	601a      	str	r2, [r3, #0]
 800092c:	4b57      	ldr	r3, [pc, #348]	; (8000a8c <stm32__device___elabs+0x76c>)
 800092e:	681b      	ldr	r3, [r3, #0]
 8000930:	4a60      	ldr	r2, [pc, #384]	; (8000ab4 <stm32__device___elabs+0x794>)
 8000932:	6053      	str	r3, [r2, #4]
 8000934:	4b5f      	ldr	r3, [pc, #380]	; (8000ab4 <stm32__device___elabs+0x794>)
 8000936:	f44f 4280 	mov.w	r2, #16384	; 0x4000
 800093a:	811a      	strh	r2, [r3, #8]
 800093c:	4b5d      	ldr	r3, [pc, #372]	; (8000ab4 <stm32__device___elabs+0x794>)
 800093e:	4a52      	ldr	r2, [pc, #328]	; (8000a88 <stm32__device___elabs+0x768>)
 8000940:	601a      	str	r2, [r3, #0]
 8000942:	4b52      	ldr	r3, [pc, #328]	; (8000a8c <stm32__device___elabs+0x76c>)
 8000944:	681b      	ldr	r3, [r3, #0]
 8000946:	4a5c      	ldr	r2, [pc, #368]	; (8000ab8 <stm32__device___elabs+0x798>)
 8000948:	6053      	str	r3, [r2, #4]
 800094a:	4b5b      	ldr	r3, [pc, #364]	; (8000ab8 <stm32__device___elabs+0x798>)
 800094c:	f44f 4200 	mov.w	r2, #32768	; 0x8000
 8000950:	811a      	strh	r2, [r3, #8]
 8000952:	4b59      	ldr	r3, [pc, #356]	; (8000ab8 <stm32__device___elabs+0x798>)
 8000954:	4a4c      	ldr	r2, [pc, #304]	; (8000a88 <stm32__device___elabs+0x768>)
 8000956:	601a      	str	r2, [r3, #0]
 8000958:	4b58      	ldr	r3, [pc, #352]	; (8000abc <stm32__device___elabs+0x79c>)
 800095a:	681b      	ldr	r3, [r3, #0]
 800095c:	4a58      	ldr	r2, [pc, #352]	; (8000ac0 <stm32__device___elabs+0x7a0>)
 800095e:	6053      	str	r3, [r2, #4]
 8000960:	4b57      	ldr	r3, [pc, #348]	; (8000ac0 <stm32__device___elabs+0x7a0>)
 8000962:	2201      	movs	r2, #1
 8000964:	811a      	strh	r2, [r3, #8]
 8000966:	4b56      	ldr	r3, [pc, #344]	; (8000ac0 <stm32__device___elabs+0x7a0>)
 8000968:	4a47      	ldr	r2, [pc, #284]	; (8000a88 <stm32__device___elabs+0x768>)
 800096a:	601a      	str	r2, [r3, #0]
 800096c:	4b53      	ldr	r3, [pc, #332]	; (8000abc <stm32__device___elabs+0x79c>)
 800096e:	681b      	ldr	r3, [r3, #0]
 8000970:	4a54      	ldr	r2, [pc, #336]	; (8000ac4 <stm32__device___elabs+0x7a4>)
 8000972:	6053      	str	r3, [r2, #4]
 8000974:	4b53      	ldr	r3, [pc, #332]	; (8000ac4 <stm32__device___elabs+0x7a4>)
 8000976:	2202      	movs	r2, #2
 8000978:	811a      	strh	r2, [r3, #8]
 800097a:	4b52      	ldr	r3, [pc, #328]	; (8000ac4 <stm32__device___elabs+0x7a4>)
 800097c:	4a42      	ldr	r2, [pc, #264]	; (8000a88 <stm32__device___elabs+0x768>)
 800097e:	601a      	str	r2, [r3, #0]
 8000980:	4b4e      	ldr	r3, [pc, #312]	; (8000abc <stm32__device___elabs+0x79c>)
 8000982:	681b      	ldr	r3, [r3, #0]
 8000984:	4a50      	ldr	r2, [pc, #320]	; (8000ac8 <stm32__device___elabs+0x7a8>)
 8000986:	6053      	str	r3, [r2, #4]
 8000988:	4b4f      	ldr	r3, [pc, #316]	; (8000ac8 <stm32__device___elabs+0x7a8>)
 800098a:	2204      	movs	r2, #4
 800098c:	811a      	strh	r2, [r3, #8]
 800098e:	4b4e      	ldr	r3, [pc, #312]	; (8000ac8 <stm32__device___elabs+0x7a8>)
 8000990:	4a3d      	ldr	r2, [pc, #244]	; (8000a88 <stm32__device___elabs+0x768>)
 8000992:	601a      	str	r2, [r3, #0]
 8000994:	4b49      	ldr	r3, [pc, #292]	; (8000abc <stm32__device___elabs+0x79c>)
 8000996:	681b      	ldr	r3, [r3, #0]
 8000998:	4a4c      	ldr	r2, [pc, #304]	; (8000acc <stm32__device___elabs+0x7ac>)
 800099a:	6053      	str	r3, [r2, #4]
 800099c:	4b4b      	ldr	r3, [pc, #300]	; (8000acc <stm32__device___elabs+0x7ac>)
 800099e:	2208      	movs	r2, #8
 80009a0:	811a      	strh	r2, [r3, #8]
 80009a2:	4b4a      	ldr	r3, [pc, #296]	; (8000acc <stm32__device___elabs+0x7ac>)
 80009a4:	4a38      	ldr	r2, [pc, #224]	; (8000a88 <stm32__device___elabs+0x768>)
 80009a6:	601a      	str	r2, [r3, #0]
 80009a8:	4b44      	ldr	r3, [pc, #272]	; (8000abc <stm32__device___elabs+0x79c>)
 80009aa:	681b      	ldr	r3, [r3, #0]
 80009ac:	4a48      	ldr	r2, [pc, #288]	; (8000ad0 <stm32__device___elabs+0x7b0>)
 80009ae:	6053      	str	r3, [r2, #4]
 80009b0:	4b47      	ldr	r3, [pc, #284]	; (8000ad0 <stm32__device___elabs+0x7b0>)
 80009b2:	2210      	movs	r2, #16
 80009b4:	811a      	strh	r2, [r3, #8]
 80009b6:	4b46      	ldr	r3, [pc, #280]	; (8000ad0 <stm32__device___elabs+0x7b0>)
 80009b8:	4a33      	ldr	r2, [pc, #204]	; (8000a88 <stm32__device___elabs+0x768>)
 80009ba:	601a      	str	r2, [r3, #0]
 80009bc:	4b3f      	ldr	r3, [pc, #252]	; (8000abc <stm32__device___elabs+0x79c>)
 80009be:	681b      	ldr	r3, [r3, #0]
 80009c0:	4a44      	ldr	r2, [pc, #272]	; (8000ad4 <stm32__device___elabs+0x7b4>)
 80009c2:	6053      	str	r3, [r2, #4]
 80009c4:	4b43      	ldr	r3, [pc, #268]	; (8000ad4 <stm32__device___elabs+0x7b4>)
 80009c6:	2220      	movs	r2, #32
 80009c8:	811a      	strh	r2, [r3, #8]
 80009ca:	4b42      	ldr	r3, [pc, #264]	; (8000ad4 <stm32__device___elabs+0x7b4>)
 80009cc:	4a2e      	ldr	r2, [pc, #184]	; (8000a88 <stm32__device___elabs+0x768>)
 80009ce:	601a      	str	r2, [r3, #0]
 80009d0:	4b3a      	ldr	r3, [pc, #232]	; (8000abc <stm32__device___elabs+0x79c>)
 80009d2:	681b      	ldr	r3, [r3, #0]
 80009d4:	4a40      	ldr	r2, [pc, #256]	; (8000ad8 <stm32__device___elabs+0x7b8>)
 80009d6:	6053      	str	r3, [r2, #4]
 80009d8:	4b3f      	ldr	r3, [pc, #252]	; (8000ad8 <stm32__device___elabs+0x7b8>)
 80009da:	2240      	movs	r2, #64	; 0x40
 80009dc:	811a      	strh	r2, [r3, #8]
 80009de:	4b3e      	ldr	r3, [pc, #248]	; (8000ad8 <stm32__device___elabs+0x7b8>)
 80009e0:	4a29      	ldr	r2, [pc, #164]	; (8000a88 <stm32__device___elabs+0x768>)
 80009e2:	601a      	str	r2, [r3, #0]
 80009e4:	4b35      	ldr	r3, [pc, #212]	; (8000abc <stm32__device___elabs+0x79c>)
 80009e6:	681b      	ldr	r3, [r3, #0]
 80009e8:	4a3c      	ldr	r2, [pc, #240]	; (8000adc <stm32__device___elabs+0x7bc>)
 80009ea:	6053      	str	r3, [r2, #4]
 80009ec:	4b3b      	ldr	r3, [pc, #236]	; (8000adc <stm32__device___elabs+0x7bc>)
 80009ee:	2280      	movs	r2, #128	; 0x80
 80009f0:	811a      	strh	r2, [r3, #8]
 80009f2:	4b3a      	ldr	r3, [pc, #232]	; (8000adc <stm32__device___elabs+0x7bc>)
 80009f4:	4a24      	ldr	r2, [pc, #144]	; (8000a88 <stm32__device___elabs+0x768>)
 80009f6:	601a      	str	r2, [r3, #0]
 80009f8:	4b30      	ldr	r3, [pc, #192]	; (8000abc <stm32__device___elabs+0x79c>)
 80009fa:	681b      	ldr	r3, [r3, #0]
 80009fc:	4a38      	ldr	r2, [pc, #224]	; (8000ae0 <stm32__device___elabs+0x7c0>)
 80009fe:	6053      	str	r3, [r2, #4]
 8000a00:	4b37      	ldr	r3, [pc, #220]	; (8000ae0 <stm32__device___elabs+0x7c0>)
 8000a02:	f44f 7280 	mov.w	r2, #256	; 0x100
 8000a06:	811a      	strh	r2, [r3, #8]
 8000a08:	4b35      	ldr	r3, [pc, #212]	; (8000ae0 <stm32__device___elabs+0x7c0>)
 8000a0a:	4a1f      	ldr	r2, [pc, #124]	; (8000a88 <stm32__device___elabs+0x768>)
 8000a0c:	601a      	str	r2, [r3, #0]
 8000a0e:	4b2b      	ldr	r3, [pc, #172]	; (8000abc <stm32__device___elabs+0x79c>)
 8000a10:	681b      	ldr	r3, [r3, #0]
 8000a12:	4a34      	ldr	r2, [pc, #208]	; (8000ae4 <stm32__device___elabs+0x7c4>)
 8000a14:	6053      	str	r3, [r2, #4]
 8000a16:	4b33      	ldr	r3, [pc, #204]	; (8000ae4 <stm32__device___elabs+0x7c4>)
 8000a18:	f44f 7200 	mov.w	r2, #512	; 0x200
 8000a1c:	811a      	strh	r2, [r3, #8]
 8000a1e:	4b31      	ldr	r3, [pc, #196]	; (8000ae4 <stm32__device___elabs+0x7c4>)
 8000a20:	4a19      	ldr	r2, [pc, #100]	; (8000a88 <stm32__device___elabs+0x768>)
 8000a22:	601a      	str	r2, [r3, #0]
 8000a24:	4b25      	ldr	r3, [pc, #148]	; (8000abc <stm32__device___elabs+0x79c>)
 8000a26:	681b      	ldr	r3, [r3, #0]
 8000a28:	4a2f      	ldr	r2, [pc, #188]	; (8000ae8 <stm32__device___elabs+0x7c8>)
 8000a2a:	6053      	str	r3, [r2, #4]
 8000a2c:	4b2e      	ldr	r3, [pc, #184]	; (8000ae8 <stm32__device___elabs+0x7c8>)
 8000a2e:	f44f 6280 	mov.w	r2, #1024	; 0x400
 8000a32:	811a      	strh	r2, [r3, #8]
 8000a34:	4b2c      	ldr	r3, [pc, #176]	; (8000ae8 <stm32__device___elabs+0x7c8>)
 8000a36:	4a14      	ldr	r2, [pc, #80]	; (8000a88 <stm32__device___elabs+0x768>)
 8000a38:	601a      	str	r2, [r3, #0]
 8000a3a:	4b20      	ldr	r3, [pc, #128]	; (8000abc <stm32__device___elabs+0x79c>)
 8000a3c:	681b      	ldr	r3, [r3, #0]
 8000a3e:	4a2b      	ldr	r2, [pc, #172]	; (8000aec <stm32__device___elabs+0x7cc>)
 8000a40:	6053      	str	r3, [r2, #4]
 8000a42:	4b2a      	ldr	r3, [pc, #168]	; (8000aec <stm32__device___elabs+0x7cc>)
 8000a44:	f44f 6200 	mov.w	r2, #2048	; 0x800
 8000a48:	811a      	strh	r2, [r3, #8]
 8000a4a:	4b28      	ldr	r3, [pc, #160]	; (8000aec <stm32__device___elabs+0x7cc>)
 8000a4c:	4a0e      	ldr	r2, [pc, #56]	; (8000a88 <stm32__device___elabs+0x768>)
 8000a4e:	601a      	str	r2, [r3, #0]
 8000a50:	4b1a      	ldr	r3, [pc, #104]	; (8000abc <stm32__device___elabs+0x79c>)
 8000a52:	681b      	ldr	r3, [r3, #0]
 8000a54:	4a26      	ldr	r2, [pc, #152]	; (8000af0 <stm32__device___elabs+0x7d0>)
 8000a56:	6053      	str	r3, [r2, #4]
 8000a58:	4b25      	ldr	r3, [pc, #148]	; (8000af0 <stm32__device___elabs+0x7d0>)
 8000a5a:	f44f 5280 	mov.w	r2, #4096	; 0x1000
 8000a5e:	811a      	strh	r2, [r3, #8]
 8000a60:	4b23      	ldr	r3, [pc, #140]	; (8000af0 <stm32__device___elabs+0x7d0>)
 8000a62:	4a09      	ldr	r2, [pc, #36]	; (8000a88 <stm32__device___elabs+0x768>)
 8000a64:	601a      	str	r2, [r3, #0]
 8000a66:	4b15      	ldr	r3, [pc, #84]	; (8000abc <stm32__device___elabs+0x79c>)
 8000a68:	681b      	ldr	r3, [r3, #0]
 8000a6a:	4a22      	ldr	r2, [pc, #136]	; (8000af4 <stm32__device___elabs+0x7d4>)
 8000a6c:	6053      	str	r3, [r2, #4]
 8000a6e:	4b21      	ldr	r3, [pc, #132]	; (8000af4 <stm32__device___elabs+0x7d4>)
 8000a70:	f44f 5200 	mov.w	r2, #8192	; 0x2000
 8000a74:	811a      	strh	r2, [r3, #8]
 8000a76:	4b1f      	ldr	r3, [pc, #124]	; (8000af4 <stm32__device___elabs+0x7d4>)
 8000a78:	4a03      	ldr	r2, [pc, #12]	; (8000a88 <stm32__device___elabs+0x768>)
 8000a7a:	601a      	str	r2, [r3, #0]
 8000a7c:	4b0f      	ldr	r3, [pc, #60]	; (8000abc <stm32__device___elabs+0x79c>)
 8000a7e:	681b      	ldr	r3, [r3, #0]
 8000a80:	e03a      	b.n	8000af8 <stm32__device___elabs+0x7d8>
 8000a82:	bf00      	nop
 8000a84:	20000338 	.word	0x20000338
 8000a88:	080091a8 	.word	0x080091a8
 8000a8c:	20000010 	.word	0x20000010
 8000a90:	20000344 	.word	0x20000344
 8000a94:	20000350 	.word	0x20000350
 8000a98:	2000035c 	.word	0x2000035c
 8000a9c:	20000368 	.word	0x20000368
 8000aa0:	20000374 	.word	0x20000374
 8000aa4:	20000380 	.word	0x20000380
 8000aa8:	2000038c 	.word	0x2000038c
 8000aac:	20000398 	.word	0x20000398
 8000ab0:	200003a4 	.word	0x200003a4
 8000ab4:	200003b0 	.word	0x200003b0
 8000ab8:	200003bc 	.word	0x200003bc
 8000abc:	20000014 	.word	0x20000014
 8000ac0:	200003c8 	.word	0x200003c8
 8000ac4:	200003d4 	.word	0x200003d4
 8000ac8:	200003e0 	.word	0x200003e0
 8000acc:	200003ec 	.word	0x200003ec
 8000ad0:	200003f8 	.word	0x200003f8
 8000ad4:	20000404 	.word	0x20000404
 8000ad8:	20000410 	.word	0x20000410
 8000adc:	2000041c 	.word	0x2000041c
 8000ae0:	20000428 	.word	0x20000428
 8000ae4:	20000434 	.word	0x20000434
 8000ae8:	20000440 	.word	0x20000440
 8000aec:	2000044c 	.word	0x2000044c
 8000af0:	20000458 	.word	0x20000458
 8000af4:	20000464 	.word	0x20000464
 8000af8:	4a88      	ldr	r2, [pc, #544]	; (8000d1c <stm32__device___elabs+0x9fc>)
 8000afa:	6053      	str	r3, [r2, #4]
 8000afc:	4b87      	ldr	r3, [pc, #540]	; (8000d1c <stm32__device___elabs+0x9fc>)
 8000afe:	f44f 4280 	mov.w	r2, #16384	; 0x4000
 8000b02:	811a      	strh	r2, [r3, #8]
 8000b04:	4b85      	ldr	r3, [pc, #532]	; (8000d1c <stm32__device___elabs+0x9fc>)
 8000b06:	4a86      	ldr	r2, [pc, #536]	; (8000d20 <stm32__device___elabs+0xa00>)
 8000b08:	601a      	str	r2, [r3, #0]
 8000b0a:	4b86      	ldr	r3, [pc, #536]	; (8000d24 <stm32__device___elabs+0xa04>)
 8000b0c:	681b      	ldr	r3, [r3, #0]
 8000b0e:	4a86      	ldr	r2, [pc, #536]	; (8000d28 <stm32__device___elabs+0xa08>)
 8000b10:	6053      	str	r3, [r2, #4]
 8000b12:	4b85      	ldr	r3, [pc, #532]	; (8000d28 <stm32__device___elabs+0xa08>)
 8000b14:	f44f 4200 	mov.w	r2, #32768	; 0x8000
 8000b18:	811a      	strh	r2, [r3, #8]
 8000b1a:	4b83      	ldr	r3, [pc, #524]	; (8000d28 <stm32__device___elabs+0xa08>)
 8000b1c:	4a80      	ldr	r2, [pc, #512]	; (8000d20 <stm32__device___elabs+0xa00>)
 8000b1e:	601a      	str	r2, [r3, #0]
 8000b20:	4b82      	ldr	r3, [pc, #520]	; (8000d2c <stm32__device___elabs+0xa0c>)
 8000b22:	681b      	ldr	r3, [r3, #0]
 8000b24:	4a82      	ldr	r2, [pc, #520]	; (8000d30 <stm32__device___elabs+0xa10>)
 8000b26:	6053      	str	r3, [r2, #4]
 8000b28:	4b81      	ldr	r3, [pc, #516]	; (8000d30 <stm32__device___elabs+0xa10>)
 8000b2a:	2201      	movs	r2, #1
 8000b2c:	811a      	strh	r2, [r3, #8]
 8000b2e:	4b80      	ldr	r3, [pc, #512]	; (8000d30 <stm32__device___elabs+0xa10>)
 8000b30:	4a7b      	ldr	r2, [pc, #492]	; (8000d20 <stm32__device___elabs+0xa00>)
 8000b32:	601a      	str	r2, [r3, #0]
 8000b34:	4b7d      	ldr	r3, [pc, #500]	; (8000d2c <stm32__device___elabs+0xa0c>)
 8000b36:	681b      	ldr	r3, [r3, #0]
 8000b38:	4a7e      	ldr	r2, [pc, #504]	; (8000d34 <stm32__device___elabs+0xa14>)
 8000b3a:	6053      	str	r3, [r2, #4]
 8000b3c:	4b7d      	ldr	r3, [pc, #500]	; (8000d34 <stm32__device___elabs+0xa14>)
 8000b3e:	2202      	movs	r2, #2
 8000b40:	811a      	strh	r2, [r3, #8]
 8000b42:	4b7c      	ldr	r3, [pc, #496]	; (8000d34 <stm32__device___elabs+0xa14>)
 8000b44:	4a76      	ldr	r2, [pc, #472]	; (8000d20 <stm32__device___elabs+0xa00>)
 8000b46:	601a      	str	r2, [r3, #0]
 8000b48:	4b78      	ldr	r3, [pc, #480]	; (8000d2c <stm32__device___elabs+0xa0c>)
 8000b4a:	681b      	ldr	r3, [r3, #0]
 8000b4c:	4a7a      	ldr	r2, [pc, #488]	; (8000d38 <stm32__device___elabs+0xa18>)
 8000b4e:	6053      	str	r3, [r2, #4]
 8000b50:	4b79      	ldr	r3, [pc, #484]	; (8000d38 <stm32__device___elabs+0xa18>)
 8000b52:	2204      	movs	r2, #4
 8000b54:	811a      	strh	r2, [r3, #8]
 8000b56:	4b78      	ldr	r3, [pc, #480]	; (8000d38 <stm32__device___elabs+0xa18>)
 8000b58:	4a71      	ldr	r2, [pc, #452]	; (8000d20 <stm32__device___elabs+0xa00>)
 8000b5a:	601a      	str	r2, [r3, #0]
 8000b5c:	4b73      	ldr	r3, [pc, #460]	; (8000d2c <stm32__device___elabs+0xa0c>)
 8000b5e:	681b      	ldr	r3, [r3, #0]
 8000b60:	4a76      	ldr	r2, [pc, #472]	; (8000d3c <stm32__device___elabs+0xa1c>)
 8000b62:	6053      	str	r3, [r2, #4]
 8000b64:	4b75      	ldr	r3, [pc, #468]	; (8000d3c <stm32__device___elabs+0xa1c>)
 8000b66:	2208      	movs	r2, #8
 8000b68:	811a      	strh	r2, [r3, #8]
 8000b6a:	4b74      	ldr	r3, [pc, #464]	; (8000d3c <stm32__device___elabs+0xa1c>)
 8000b6c:	4a6c      	ldr	r2, [pc, #432]	; (8000d20 <stm32__device___elabs+0xa00>)
 8000b6e:	601a      	str	r2, [r3, #0]
 8000b70:	4b6e      	ldr	r3, [pc, #440]	; (8000d2c <stm32__device___elabs+0xa0c>)
 8000b72:	681b      	ldr	r3, [r3, #0]
 8000b74:	4a72      	ldr	r2, [pc, #456]	; (8000d40 <stm32__device___elabs+0xa20>)
 8000b76:	6053      	str	r3, [r2, #4]
 8000b78:	4b71      	ldr	r3, [pc, #452]	; (8000d40 <stm32__device___elabs+0xa20>)
 8000b7a:	2210      	movs	r2, #16
 8000b7c:	811a      	strh	r2, [r3, #8]
 8000b7e:	4b70      	ldr	r3, [pc, #448]	; (8000d40 <stm32__device___elabs+0xa20>)
 8000b80:	4a67      	ldr	r2, [pc, #412]	; (8000d20 <stm32__device___elabs+0xa00>)
 8000b82:	601a      	str	r2, [r3, #0]
 8000b84:	4b69      	ldr	r3, [pc, #420]	; (8000d2c <stm32__device___elabs+0xa0c>)
 8000b86:	681b      	ldr	r3, [r3, #0]
 8000b88:	4a6e      	ldr	r2, [pc, #440]	; (8000d44 <stm32__device___elabs+0xa24>)
 8000b8a:	6053      	str	r3, [r2, #4]
 8000b8c:	4b6d      	ldr	r3, [pc, #436]	; (8000d44 <stm32__device___elabs+0xa24>)
 8000b8e:	2220      	movs	r2, #32
 8000b90:	811a      	strh	r2, [r3, #8]
 8000b92:	4b6c      	ldr	r3, [pc, #432]	; (8000d44 <stm32__device___elabs+0xa24>)
 8000b94:	4a62      	ldr	r2, [pc, #392]	; (8000d20 <stm32__device___elabs+0xa00>)
 8000b96:	601a      	str	r2, [r3, #0]
 8000b98:	4b64      	ldr	r3, [pc, #400]	; (8000d2c <stm32__device___elabs+0xa0c>)
 8000b9a:	681b      	ldr	r3, [r3, #0]
 8000b9c:	4a6a      	ldr	r2, [pc, #424]	; (8000d48 <stm32__device___elabs+0xa28>)
 8000b9e:	6053      	str	r3, [r2, #4]
 8000ba0:	4b69      	ldr	r3, [pc, #420]	; (8000d48 <stm32__device___elabs+0xa28>)
 8000ba2:	2240      	movs	r2, #64	; 0x40
 8000ba4:	811a      	strh	r2, [r3, #8]
 8000ba6:	4b68      	ldr	r3, [pc, #416]	; (8000d48 <stm32__device___elabs+0xa28>)
 8000ba8:	4a5d      	ldr	r2, [pc, #372]	; (8000d20 <stm32__device___elabs+0xa00>)
 8000baa:	601a      	str	r2, [r3, #0]
 8000bac:	4b5f      	ldr	r3, [pc, #380]	; (8000d2c <stm32__device___elabs+0xa0c>)
 8000bae:	681b      	ldr	r3, [r3, #0]
 8000bb0:	4a66      	ldr	r2, [pc, #408]	; (8000d4c <stm32__device___elabs+0xa2c>)
 8000bb2:	6053      	str	r3, [r2, #4]
 8000bb4:	4b65      	ldr	r3, [pc, #404]	; (8000d4c <stm32__device___elabs+0xa2c>)
 8000bb6:	2280      	movs	r2, #128	; 0x80
 8000bb8:	811a      	strh	r2, [r3, #8]
 8000bba:	4b64      	ldr	r3, [pc, #400]	; (8000d4c <stm32__device___elabs+0xa2c>)
 8000bbc:	4a58      	ldr	r2, [pc, #352]	; (8000d20 <stm32__device___elabs+0xa00>)
 8000bbe:	601a      	str	r2, [r3, #0]
 8000bc0:	4b5a      	ldr	r3, [pc, #360]	; (8000d2c <stm32__device___elabs+0xa0c>)
 8000bc2:	681b      	ldr	r3, [r3, #0]
 8000bc4:	4a62      	ldr	r2, [pc, #392]	; (8000d50 <stm32__device___elabs+0xa30>)
 8000bc6:	6053      	str	r3, [r2, #4]
 8000bc8:	4b61      	ldr	r3, [pc, #388]	; (8000d50 <stm32__device___elabs+0xa30>)
 8000bca:	f44f 7280 	mov.w	r2, #256	; 0x100
 8000bce:	811a      	strh	r2, [r3, #8]
 8000bd0:	4b5f      	ldr	r3, [pc, #380]	; (8000d50 <stm32__device___elabs+0xa30>)
 8000bd2:	4a53      	ldr	r2, [pc, #332]	; (8000d20 <stm32__device___elabs+0xa00>)
 8000bd4:	601a      	str	r2, [r3, #0]
 8000bd6:	4b55      	ldr	r3, [pc, #340]	; (8000d2c <stm32__device___elabs+0xa0c>)
 8000bd8:	681b      	ldr	r3, [r3, #0]
 8000bda:	4a5e      	ldr	r2, [pc, #376]	; (8000d54 <stm32__device___elabs+0xa34>)
 8000bdc:	6053      	str	r3, [r2, #4]
 8000bde:	4b5d      	ldr	r3, [pc, #372]	; (8000d54 <stm32__device___elabs+0xa34>)
 8000be0:	f44f 7200 	mov.w	r2, #512	; 0x200
 8000be4:	811a      	strh	r2, [r3, #8]
 8000be6:	4b5b      	ldr	r3, [pc, #364]	; (8000d54 <stm32__device___elabs+0xa34>)
 8000be8:	4a4d      	ldr	r2, [pc, #308]	; (8000d20 <stm32__device___elabs+0xa00>)
 8000bea:	601a      	str	r2, [r3, #0]
 8000bec:	4b4f      	ldr	r3, [pc, #316]	; (8000d2c <stm32__device___elabs+0xa0c>)
 8000bee:	681b      	ldr	r3, [r3, #0]
 8000bf0:	4a59      	ldr	r2, [pc, #356]	; (8000d58 <stm32__device___elabs+0xa38>)
 8000bf2:	6053      	str	r3, [r2, #4]
 8000bf4:	4b58      	ldr	r3, [pc, #352]	; (8000d58 <stm32__device___elabs+0xa38>)
 8000bf6:	f44f 6280 	mov.w	r2, #1024	; 0x400
 8000bfa:	811a      	strh	r2, [r3, #8]
 8000bfc:	4b56      	ldr	r3, [pc, #344]	; (8000d58 <stm32__device___elabs+0xa38>)
 8000bfe:	4a48      	ldr	r2, [pc, #288]	; (8000d20 <stm32__device___elabs+0xa00>)
 8000c00:	601a      	str	r2, [r3, #0]
 8000c02:	4b4a      	ldr	r3, [pc, #296]	; (8000d2c <stm32__device___elabs+0xa0c>)
 8000c04:	681b      	ldr	r3, [r3, #0]
 8000c06:	4a55      	ldr	r2, [pc, #340]	; (8000d5c <stm32__device___elabs+0xa3c>)
 8000c08:	6053      	str	r3, [r2, #4]
 8000c0a:	4b54      	ldr	r3, [pc, #336]	; (8000d5c <stm32__device___elabs+0xa3c>)
 8000c0c:	f44f 6200 	mov.w	r2, #2048	; 0x800
 8000c10:	811a      	strh	r2, [r3, #8]
 8000c12:	4b52      	ldr	r3, [pc, #328]	; (8000d5c <stm32__device___elabs+0xa3c>)
 8000c14:	4a42      	ldr	r2, [pc, #264]	; (8000d20 <stm32__device___elabs+0xa00>)
 8000c16:	601a      	str	r2, [r3, #0]
 8000c18:	4b44      	ldr	r3, [pc, #272]	; (8000d2c <stm32__device___elabs+0xa0c>)
 8000c1a:	681b      	ldr	r3, [r3, #0]
 8000c1c:	4a50      	ldr	r2, [pc, #320]	; (8000d60 <stm32__device___elabs+0xa40>)
 8000c1e:	6053      	str	r3, [r2, #4]
 8000c20:	4b4f      	ldr	r3, [pc, #316]	; (8000d60 <stm32__device___elabs+0xa40>)
 8000c22:	f44f 5280 	mov.w	r2, #4096	; 0x1000
 8000c26:	811a      	strh	r2, [r3, #8]
 8000c28:	4b4d      	ldr	r3, [pc, #308]	; (8000d60 <stm32__device___elabs+0xa40>)
 8000c2a:	4a3d      	ldr	r2, [pc, #244]	; (8000d20 <stm32__device___elabs+0xa00>)
 8000c2c:	601a      	str	r2, [r3, #0]
 8000c2e:	4b3f      	ldr	r3, [pc, #252]	; (8000d2c <stm32__device___elabs+0xa0c>)
 8000c30:	681b      	ldr	r3, [r3, #0]
 8000c32:	4a4c      	ldr	r2, [pc, #304]	; (8000d64 <stm32__device___elabs+0xa44>)
 8000c34:	6053      	str	r3, [r2, #4]
 8000c36:	4b4b      	ldr	r3, [pc, #300]	; (8000d64 <stm32__device___elabs+0xa44>)
 8000c38:	f44f 5200 	mov.w	r2, #8192	; 0x2000
 8000c3c:	811a      	strh	r2, [r3, #8]
 8000c3e:	4b49      	ldr	r3, [pc, #292]	; (8000d64 <stm32__device___elabs+0xa44>)
 8000c40:	4a37      	ldr	r2, [pc, #220]	; (8000d20 <stm32__device___elabs+0xa00>)
 8000c42:	601a      	str	r2, [r3, #0]
 8000c44:	4b39      	ldr	r3, [pc, #228]	; (8000d2c <stm32__device___elabs+0xa0c>)
 8000c46:	681b      	ldr	r3, [r3, #0]
 8000c48:	4a47      	ldr	r2, [pc, #284]	; (8000d68 <stm32__device___elabs+0xa48>)
 8000c4a:	6053      	str	r3, [r2, #4]
 8000c4c:	4b46      	ldr	r3, [pc, #280]	; (8000d68 <stm32__device___elabs+0xa48>)
 8000c4e:	f44f 4280 	mov.w	r2, #16384	; 0x4000
 8000c52:	811a      	strh	r2, [r3, #8]
 8000c54:	4b44      	ldr	r3, [pc, #272]	; (8000d68 <stm32__device___elabs+0xa48>)
 8000c56:	4a32      	ldr	r2, [pc, #200]	; (8000d20 <stm32__device___elabs+0xa00>)
 8000c58:	601a      	str	r2, [r3, #0]
 8000c5a:	4b34      	ldr	r3, [pc, #208]	; (8000d2c <stm32__device___elabs+0xa0c>)
 8000c5c:	681b      	ldr	r3, [r3, #0]
 8000c5e:	4a43      	ldr	r2, [pc, #268]	; (8000d6c <stm32__device___elabs+0xa4c>)
 8000c60:	6053      	str	r3, [r2, #4]
 8000c62:	4b42      	ldr	r3, [pc, #264]	; (8000d6c <stm32__device___elabs+0xa4c>)
 8000c64:	f44f 4200 	mov.w	r2, #32768	; 0x8000
 8000c68:	811a      	strh	r2, [r3, #8]
 8000c6a:	4b40      	ldr	r3, [pc, #256]	; (8000d6c <stm32__device___elabs+0xa4c>)
 8000c6c:	4a2c      	ldr	r2, [pc, #176]	; (8000d20 <stm32__device___elabs+0xa00>)
 8000c6e:	601a      	str	r2, [r3, #0]
 8000c70:	4b3f      	ldr	r3, [pc, #252]	; (8000d70 <stm32__device___elabs+0xa50>)
 8000c72:	681b      	ldr	r3, [r3, #0]
 8000c74:	4a3f      	ldr	r2, [pc, #252]	; (8000d74 <stm32__device___elabs+0xa54>)
 8000c76:	6053      	str	r3, [r2, #4]
 8000c78:	4b3e      	ldr	r3, [pc, #248]	; (8000d74 <stm32__device___elabs+0xa54>)
 8000c7a:	2201      	movs	r2, #1
 8000c7c:	811a      	strh	r2, [r3, #8]
 8000c7e:	4b3d      	ldr	r3, [pc, #244]	; (8000d74 <stm32__device___elabs+0xa54>)
 8000c80:	4a27      	ldr	r2, [pc, #156]	; (8000d20 <stm32__device___elabs+0xa00>)
 8000c82:	601a      	str	r2, [r3, #0]
 8000c84:	4b3a      	ldr	r3, [pc, #232]	; (8000d70 <stm32__device___elabs+0xa50>)
 8000c86:	681b      	ldr	r3, [r3, #0]
 8000c88:	4a3b      	ldr	r2, [pc, #236]	; (8000d78 <stm32__device___elabs+0xa58>)
 8000c8a:	6053      	str	r3, [r2, #4]
 8000c8c:	4b3a      	ldr	r3, [pc, #232]	; (8000d78 <stm32__device___elabs+0xa58>)
 8000c8e:	2202      	movs	r2, #2
 8000c90:	811a      	strh	r2, [r3, #8]
 8000c92:	4b39      	ldr	r3, [pc, #228]	; (8000d78 <stm32__device___elabs+0xa58>)
 8000c94:	4a22      	ldr	r2, [pc, #136]	; (8000d20 <stm32__device___elabs+0xa00>)
 8000c96:	601a      	str	r2, [r3, #0]
 8000c98:	4b35      	ldr	r3, [pc, #212]	; (8000d70 <stm32__device___elabs+0xa50>)
 8000c9a:	681b      	ldr	r3, [r3, #0]
 8000c9c:	4a37      	ldr	r2, [pc, #220]	; (8000d7c <stm32__device___elabs+0xa5c>)
 8000c9e:	6053      	str	r3, [r2, #4]
 8000ca0:	4b36      	ldr	r3, [pc, #216]	; (8000d7c <stm32__device___elabs+0xa5c>)
 8000ca2:	2204      	movs	r2, #4
 8000ca4:	811a      	strh	r2, [r3, #8]
 8000ca6:	4b35      	ldr	r3, [pc, #212]	; (8000d7c <stm32__device___elabs+0xa5c>)
 8000ca8:	4a1d      	ldr	r2, [pc, #116]	; (8000d20 <stm32__device___elabs+0xa00>)
 8000caa:	601a      	str	r2, [r3, #0]
 8000cac:	4b30      	ldr	r3, [pc, #192]	; (8000d70 <stm32__device___elabs+0xa50>)
 8000cae:	681b      	ldr	r3, [r3, #0]
 8000cb0:	4a33      	ldr	r2, [pc, #204]	; (8000d80 <stm32__device___elabs+0xa60>)
 8000cb2:	6053      	str	r3, [r2, #4]
 8000cb4:	4b32      	ldr	r3, [pc, #200]	; (8000d80 <stm32__device___elabs+0xa60>)
 8000cb6:	2208      	movs	r2, #8
 8000cb8:	811a      	strh	r2, [r3, #8]
 8000cba:	4b31      	ldr	r3, [pc, #196]	; (8000d80 <stm32__device___elabs+0xa60>)
 8000cbc:	4a18      	ldr	r2, [pc, #96]	; (8000d20 <stm32__device___elabs+0xa00>)
 8000cbe:	601a      	str	r2, [r3, #0]
 8000cc0:	4b2b      	ldr	r3, [pc, #172]	; (8000d70 <stm32__device___elabs+0xa50>)
 8000cc2:	681b      	ldr	r3, [r3, #0]
 8000cc4:	4a2f      	ldr	r2, [pc, #188]	; (8000d84 <stm32__device___elabs+0xa64>)
 8000cc6:	6053      	str	r3, [r2, #4]
 8000cc8:	4b2e      	ldr	r3, [pc, #184]	; (8000d84 <stm32__device___elabs+0xa64>)
 8000cca:	2210      	movs	r2, #16
 8000ccc:	811a      	strh	r2, [r3, #8]
 8000cce:	4b2d      	ldr	r3, [pc, #180]	; (8000d84 <stm32__device___elabs+0xa64>)
 8000cd0:	4a13      	ldr	r2, [pc, #76]	; (8000d20 <stm32__device___elabs+0xa00>)
 8000cd2:	601a      	str	r2, [r3, #0]
 8000cd4:	4b26      	ldr	r3, [pc, #152]	; (8000d70 <stm32__device___elabs+0xa50>)
 8000cd6:	681b      	ldr	r3, [r3, #0]
 8000cd8:	4a2b      	ldr	r2, [pc, #172]	; (8000d88 <stm32__device___elabs+0xa68>)
 8000cda:	6053      	str	r3, [r2, #4]
 8000cdc:	4b2a      	ldr	r3, [pc, #168]	; (8000d88 <stm32__device___elabs+0xa68>)
 8000cde:	2220      	movs	r2, #32
 8000ce0:	811a      	strh	r2, [r3, #8]
 8000ce2:	4b29      	ldr	r3, [pc, #164]	; (8000d88 <stm32__device___elabs+0xa68>)
 8000ce4:	4a0e      	ldr	r2, [pc, #56]	; (8000d20 <stm32__device___elabs+0xa00>)
 8000ce6:	601a      	str	r2, [r3, #0]
 8000ce8:	4b21      	ldr	r3, [pc, #132]	; (8000d70 <stm32__device___elabs+0xa50>)
 8000cea:	681b      	ldr	r3, [r3, #0]
 8000cec:	4a27      	ldr	r2, [pc, #156]	; (8000d8c <stm32__device___elabs+0xa6c>)
 8000cee:	6053      	str	r3, [r2, #4]
 8000cf0:	4b26      	ldr	r3, [pc, #152]	; (8000d8c <stm32__device___elabs+0xa6c>)
 8000cf2:	2240      	movs	r2, #64	; 0x40
 8000cf4:	811a      	strh	r2, [r3, #8]
 8000cf6:	4b25      	ldr	r3, [pc, #148]	; (8000d8c <stm32__device___elabs+0xa6c>)
 8000cf8:	4a09      	ldr	r2, [pc, #36]	; (8000d20 <stm32__device___elabs+0xa00>)
 8000cfa:	601a      	str	r2, [r3, #0]
 8000cfc:	4b1c      	ldr	r3, [pc, #112]	; (8000d70 <stm32__device___elabs+0xa50>)
 8000cfe:	681b      	ldr	r3, [r3, #0]
 8000d00:	4a23      	ldr	r2, [pc, #140]	; (8000d90 <stm32__device___elabs+0xa70>)
 8000d02:	6053      	str	r3, [r2, #4]
 8000d04:	4b22      	ldr	r3, [pc, #136]	; (8000d90 <stm32__device___elabs+0xa70>)
 8000d06:	2280      	movs	r2, #128	; 0x80
 8000d08:	811a      	strh	r2, [r3, #8]
 8000d0a:	4b21      	ldr	r3, [pc, #132]	; (8000d90 <stm32__device___elabs+0xa70>)
 8000d0c:	4a04      	ldr	r2, [pc, #16]	; (8000d20 <stm32__device___elabs+0xa00>)
 8000d0e:	601a      	str	r2, [r3, #0]
 8000d10:	4b17      	ldr	r3, [pc, #92]	; (8000d70 <stm32__device___elabs+0xa50>)
 8000d12:	681b      	ldr	r3, [r3, #0]
 8000d14:	4a1f      	ldr	r2, [pc, #124]	; (8000d94 <stm32__device___elabs+0xa74>)
 8000d16:	6053      	str	r3, [r2, #4]
 8000d18:	e03e      	b.n	8000d98 <stm32__device___elabs+0xa78>
 8000d1a:	bf00      	nop
 8000d1c:	20000470 	.word	0x20000470
 8000d20:	080091a8 	.word	0x080091a8
 8000d24:	20000014 	.word	0x20000014
 8000d28:	2000047c 	.word	0x2000047c
 8000d2c:	20000018 	.word	0x20000018
 8000d30:	20000488 	.word	0x20000488
 8000d34:	20000494 	.word	0x20000494
 8000d38:	200004a0 	.word	0x200004a0
 8000d3c:	200004ac 	.word	0x200004ac
 8000d40:	200004b8 	.word	0x200004b8
 8000d44:	200004c4 	.word	0x200004c4
 8000d48:	200004d0 	.word	0x200004d0
 8000d4c:	200004dc 	.word	0x200004dc
 8000d50:	200004e8 	.word	0x200004e8
 8000d54:	200004f4 	.word	0x200004f4
 8000d58:	20000500 	.word	0x20000500
 8000d5c:	2000050c 	.word	0x2000050c
 8000d60:	20000518 	.word	0x20000518
 8000d64:	20000524 	.word	0x20000524
 8000d68:	20000530 	.word	0x20000530
 8000d6c:	2000053c 	.word	0x2000053c
 8000d70:	2000001c 	.word	0x2000001c
 8000d74:	20000548 	.word	0x20000548
 8000d78:	20000554 	.word	0x20000554
 8000d7c:	20000560 	.word	0x20000560
 8000d80:	2000056c 	.word	0x2000056c
 8000d84:	20000578 	.word	0x20000578
 8000d88:	20000584 	.word	0x20000584
 8000d8c:	20000590 	.word	0x20000590
 8000d90:	2000059c 	.word	0x2000059c
 8000d94:	200005a8 	.word	0x200005a8
 8000d98:	4b57      	ldr	r3, [pc, #348]	; (8000ef8 <stm32__device___elabs+0xbd8>)
 8000d9a:	f44f 7280 	mov.w	r2, #256	; 0x100
 8000d9e:	811a      	strh	r2, [r3, #8]
 8000da0:	4b55      	ldr	r3, [pc, #340]	; (8000ef8 <stm32__device___elabs+0xbd8>)
 8000da2:	4a56      	ldr	r2, [pc, #344]	; (8000efc <stm32__device___elabs+0xbdc>)
 8000da4:	601a      	str	r2, [r3, #0]
 8000da6:	4b56      	ldr	r3, [pc, #344]	; (8000f00 <stm32__device___elabs+0xbe0>)
 8000da8:	681b      	ldr	r3, [r3, #0]
 8000daa:	4a56      	ldr	r2, [pc, #344]	; (8000f04 <stm32__device___elabs+0xbe4>)
 8000dac:	6053      	str	r3, [r2, #4]
 8000dae:	4b55      	ldr	r3, [pc, #340]	; (8000f04 <stm32__device___elabs+0xbe4>)
 8000db0:	f44f 7200 	mov.w	r2, #512	; 0x200
 8000db4:	811a      	strh	r2, [r3, #8]
 8000db6:	4b53      	ldr	r3, [pc, #332]	; (8000f04 <stm32__device___elabs+0xbe4>)
 8000db8:	4a50      	ldr	r2, [pc, #320]	; (8000efc <stm32__device___elabs+0xbdc>)
 8000dba:	601a      	str	r2, [r3, #0]
 8000dbc:	4b50      	ldr	r3, [pc, #320]	; (8000f00 <stm32__device___elabs+0xbe0>)
 8000dbe:	681b      	ldr	r3, [r3, #0]
 8000dc0:	4a51      	ldr	r2, [pc, #324]	; (8000f08 <stm32__device___elabs+0xbe8>)
 8000dc2:	6053      	str	r3, [r2, #4]
 8000dc4:	4b50      	ldr	r3, [pc, #320]	; (8000f08 <stm32__device___elabs+0xbe8>)
 8000dc6:	f44f 6280 	mov.w	r2, #1024	; 0x400
 8000dca:	811a      	strh	r2, [r3, #8]
 8000dcc:	4b4e      	ldr	r3, [pc, #312]	; (8000f08 <stm32__device___elabs+0xbe8>)
 8000dce:	4a4b      	ldr	r2, [pc, #300]	; (8000efc <stm32__device___elabs+0xbdc>)
 8000dd0:	601a      	str	r2, [r3, #0]
 8000dd2:	4b4b      	ldr	r3, [pc, #300]	; (8000f00 <stm32__device___elabs+0xbe0>)
 8000dd4:	681b      	ldr	r3, [r3, #0]
 8000dd6:	4a4d      	ldr	r2, [pc, #308]	; (8000f0c <stm32__device___elabs+0xbec>)
 8000dd8:	6053      	str	r3, [r2, #4]
 8000dda:	4b4c      	ldr	r3, [pc, #304]	; (8000f0c <stm32__device___elabs+0xbec>)
 8000ddc:	f44f 6200 	mov.w	r2, #2048	; 0x800
 8000de0:	811a      	strh	r2, [r3, #8]
 8000de2:	4b4a      	ldr	r3, [pc, #296]	; (8000f0c <stm32__device___elabs+0xbec>)
 8000de4:	4a45      	ldr	r2, [pc, #276]	; (8000efc <stm32__device___elabs+0xbdc>)
 8000de6:	601a      	str	r2, [r3, #0]
 8000de8:	4b45      	ldr	r3, [pc, #276]	; (8000f00 <stm32__device___elabs+0xbe0>)
 8000dea:	681b      	ldr	r3, [r3, #0]
 8000dec:	4a48      	ldr	r2, [pc, #288]	; (8000f10 <stm32__device___elabs+0xbf0>)
 8000dee:	6053      	str	r3, [r2, #4]
 8000df0:	4b47      	ldr	r3, [pc, #284]	; (8000f10 <stm32__device___elabs+0xbf0>)
 8000df2:	f44f 5280 	mov.w	r2, #4096	; 0x1000
 8000df6:	811a      	strh	r2, [r3, #8]
 8000df8:	4b45      	ldr	r3, [pc, #276]	; (8000f10 <stm32__device___elabs+0xbf0>)
 8000dfa:	4a40      	ldr	r2, [pc, #256]	; (8000efc <stm32__device___elabs+0xbdc>)
 8000dfc:	601a      	str	r2, [r3, #0]
 8000dfe:	4b40      	ldr	r3, [pc, #256]	; (8000f00 <stm32__device___elabs+0xbe0>)
 8000e00:	681b      	ldr	r3, [r3, #0]
 8000e02:	4a44      	ldr	r2, [pc, #272]	; (8000f14 <stm32__device___elabs+0xbf4>)
 8000e04:	6053      	str	r3, [r2, #4]
 8000e06:	4b43      	ldr	r3, [pc, #268]	; (8000f14 <stm32__device___elabs+0xbf4>)
 8000e08:	f44f 5200 	mov.w	r2, #8192	; 0x2000
 8000e0c:	811a      	strh	r2, [r3, #8]
 8000e0e:	4b41      	ldr	r3, [pc, #260]	; (8000f14 <stm32__device___elabs+0xbf4>)
 8000e10:	4a3a      	ldr	r2, [pc, #232]	; (8000efc <stm32__device___elabs+0xbdc>)
 8000e12:	601a      	str	r2, [r3, #0]
 8000e14:	4b3a      	ldr	r3, [pc, #232]	; (8000f00 <stm32__device___elabs+0xbe0>)
 8000e16:	681b      	ldr	r3, [r3, #0]
 8000e18:	4a3f      	ldr	r2, [pc, #252]	; (8000f18 <stm32__device___elabs+0xbf8>)
 8000e1a:	6053      	str	r3, [r2, #4]
 8000e1c:	4b3e      	ldr	r3, [pc, #248]	; (8000f18 <stm32__device___elabs+0xbf8>)
 8000e1e:	f44f 4280 	mov.w	r2, #16384	; 0x4000
 8000e22:	811a      	strh	r2, [r3, #8]
 8000e24:	4b3c      	ldr	r3, [pc, #240]	; (8000f18 <stm32__device___elabs+0xbf8>)
 8000e26:	4a35      	ldr	r2, [pc, #212]	; (8000efc <stm32__device___elabs+0xbdc>)
 8000e28:	601a      	str	r2, [r3, #0]
 8000e2a:	4b35      	ldr	r3, [pc, #212]	; (8000f00 <stm32__device___elabs+0xbe0>)
 8000e2c:	681b      	ldr	r3, [r3, #0]
 8000e2e:	4a3b      	ldr	r2, [pc, #236]	; (8000f1c <stm32__device___elabs+0xbfc>)
 8000e30:	6053      	str	r3, [r2, #4]
 8000e32:	4b3a      	ldr	r3, [pc, #232]	; (8000f1c <stm32__device___elabs+0xbfc>)
 8000e34:	f44f 4200 	mov.w	r2, #32768	; 0x8000
 8000e38:	811a      	strh	r2, [r3, #8]
 8000e3a:	4b38      	ldr	r3, [pc, #224]	; (8000f1c <stm32__device___elabs+0xbfc>)
 8000e3c:	4a2f      	ldr	r2, [pc, #188]	; (8000efc <stm32__device___elabs+0xbdc>)
 8000e3e:	601a      	str	r2, [r3, #0]
 8000e40:	4b37      	ldr	r3, [pc, #220]	; (8000f20 <stm32__device___elabs+0xc00>)
 8000e42:	681b      	ldr	r3, [r3, #0]
 8000e44:	4837      	ldr	r0, [pc, #220]	; (8000f24 <stm32__device___elabs+0xc04>)
 8000e46:	4619      	mov	r1, r3
 8000e48:	2201      	movs	r2, #1
 8000e4a:	f000 f89d 	bl	8000f88 <stm32__usarts__usartIP>
 8000e4e:	4b36      	ldr	r3, [pc, #216]	; (8000f28 <stm32__device___elabs+0xc08>)
 8000e50:	681b      	ldr	r3, [r3, #0]
 8000e52:	4836      	ldr	r0, [pc, #216]	; (8000f2c <stm32__device___elabs+0xc0c>)
 8000e54:	4619      	mov	r1, r3
 8000e56:	2201      	movs	r2, #1
 8000e58:	f000 f896 	bl	8000f88 <stm32__usarts__usartIP>
 8000e5c:	4b34      	ldr	r3, [pc, #208]	; (8000f30 <stm32__device___elabs+0xc10>)
 8000e5e:	681b      	ldr	r3, [r3, #0]
 8000e60:	4834      	ldr	r0, [pc, #208]	; (8000f34 <stm32__device___elabs+0xc14>)
 8000e62:	4619      	mov	r1, r3
 8000e64:	2201      	movs	r2, #1
 8000e66:	f000 f88f 	bl	8000f88 <stm32__usarts__usartIP>
 8000e6a:	4b33      	ldr	r3, [pc, #204]	; (8000f38 <stm32__device___elabs+0xc18>)
 8000e6c:	681b      	ldr	r3, [r3, #0]
 8000e6e:	4833      	ldr	r0, [pc, #204]	; (8000f3c <stm32__device___elabs+0xc1c>)
 8000e70:	4619      	mov	r1, r3
 8000e72:	2201      	movs	r2, #1
 8000e74:	f000 f888 	bl	8000f88 <stm32__usarts__usartIP>
 8000e78:	4b31      	ldr	r3, [pc, #196]	; (8000f40 <stm32__device___elabs+0xc20>)
 8000e7a:	681b      	ldr	r3, [r3, #0]
 8000e7c:	4831      	ldr	r0, [pc, #196]	; (8000f44 <stm32__device___elabs+0xc24>)
 8000e7e:	4619      	mov	r1, r3
 8000e80:	2201      	movs	r2, #1
 8000e82:	f000 f881 	bl	8000f88 <stm32__usarts__usartIP>
 8000e86:	4b30      	ldr	r3, [pc, #192]	; (8000f48 <stm32__device___elabs+0xc28>)
 8000e88:	681b      	ldr	r3, [r3, #0]
 8000e8a:	4830      	ldr	r0, [pc, #192]	; (8000f4c <stm32__device___elabs+0xc2c>)
 8000e8c:	4619      	mov	r1, r3
 8000e8e:	2201      	movs	r2, #1
 8000e90:	f001 f928 	bl	80020e4 <stm32__i2c__i2c_portIP>
 8000e94:	4b2e      	ldr	r3, [pc, #184]	; (8000f50 <stm32__device___elabs+0xc30>)
 8000e96:	681b      	ldr	r3, [r3, #0]
 8000e98:	482e      	ldr	r0, [pc, #184]	; (8000f54 <stm32__device___elabs+0xc34>)
 8000e9a:	4619      	mov	r1, r3
 8000e9c:	2201      	movs	r2, #1
 8000e9e:	f001 f921 	bl	80020e4 <stm32__i2c__i2c_portIP>
 8000ea2:	4b2d      	ldr	r3, [pc, #180]	; (8000f58 <stm32__device___elabs+0xc38>)
 8000ea4:	681b      	ldr	r3, [r3, #0]
 8000ea6:	482d      	ldr	r0, [pc, #180]	; (8000f5c <stm32__device___elabs+0xc3c>)
 8000ea8:	4619      	mov	r1, r3
 8000eaa:	2201      	movs	r2, #1
 8000eac:	f003 fdf6 	bl	8004a9c <stm32__spi__spi_portIP>
 8000eb0:	4b2b      	ldr	r3, [pc, #172]	; (8000f60 <stm32__device___elabs+0xc40>)
 8000eb2:	681b      	ldr	r3, [r3, #0]
 8000eb4:	482b      	ldr	r0, [pc, #172]	; (8000f64 <stm32__device___elabs+0xc44>)
 8000eb6:	4619      	mov	r1, r3
 8000eb8:	2201      	movs	r2, #1
 8000eba:	f003 fdef 	bl	8004a9c <stm32__spi__spi_portIP>
 8000ebe:	4b2a      	ldr	r3, [pc, #168]	; (8000f68 <stm32__device___elabs+0xc48>)
 8000ec0:	681b      	ldr	r3, [r3, #0]
 8000ec2:	482a      	ldr	r0, [pc, #168]	; (8000f6c <stm32__device___elabs+0xc4c>)
 8000ec4:	4619      	mov	r1, r3
 8000ec6:	2201      	movs	r2, #1
 8000ec8:	f003 fde8 	bl	8004a9c <stm32__spi__spi_portIP>
 8000ecc:	4b28      	ldr	r3, [pc, #160]	; (8000f70 <stm32__device___elabs+0xc50>)
 8000ece:	681b      	ldr	r3, [r3, #0]
 8000ed0:	4828      	ldr	r0, [pc, #160]	; (8000f74 <stm32__device___elabs+0xc54>)
 8000ed2:	4619      	mov	r1, r3
 8000ed4:	2201      	movs	r2, #1
 8000ed6:	f005 fa1d 	bl	8006314 <stm32__i2s__i2s_portIP>
 8000eda:	4b27      	ldr	r3, [pc, #156]	; (8000f78 <stm32__device___elabs+0xc58>)
 8000edc:	681b      	ldr	r3, [r3, #0]
 8000ede:	4827      	ldr	r0, [pc, #156]	; (8000f7c <stm32__device___elabs+0xc5c>)
 8000ee0:	4619      	mov	r1, r3
 8000ee2:	2201      	movs	r2, #1
 8000ee4:	f005 fa16 	bl	8006314 <stm32__i2s__i2s_portIP>
 8000ee8:	4b25      	ldr	r3, [pc, #148]	; (8000f80 <stm32__device___elabs+0xc60>)
 8000eea:	681b      	ldr	r3, [r3, #0]
 8000eec:	4825      	ldr	r0, [pc, #148]	; (8000f84 <stm32__device___elabs+0xc64>)
 8000eee:	4619      	mov	r1, r3
 8000ef0:	2201      	movs	r2, #1
 8000ef2:	f005 fa0f 	bl	8006314 <stm32__i2s__i2s_portIP>
 8000ef6:	bd80      	pop	{r7, pc}
 8000ef8:	200005a8 	.word	0x200005a8
 8000efc:	080091a8 	.word	0x080091a8
 8000f00:	2000001c 	.word	0x2000001c
 8000f04:	200005b4 	.word	0x200005b4
 8000f08:	200005c0 	.word	0x200005c0
 8000f0c:	200005cc 	.word	0x200005cc
 8000f10:	200005d8 	.word	0x200005d8
 8000f14:	200005e4 	.word	0x200005e4
 8000f18:	200005f0 	.word	0x200005f0
 8000f1c:	200005fc 	.word	0x200005fc
 8000f20:	20000020 	.word	0x20000020
 8000f24:	20000608 	.word	0x20000608
 8000f28:	20000024 	.word	0x20000024
 8000f2c:	20000610 	.word	0x20000610
 8000f30:	20000028 	.word	0x20000028
 8000f34:	20000618 	.word	0x20000618
 8000f38:	2000002c 	.word	0x2000002c
 8000f3c:	20000620 	.word	0x20000620
 8000f40:	20000030 	.word	0x20000030
 8000f44:	20000628 	.word	0x20000628
 8000f48:	20000034 	.word	0x20000034
 8000f4c:	20000630 	.word	0x20000630
 8000f50:	20000038 	.word	0x20000038
 8000f54:	20000648 	.word	0x20000648
 8000f58:	2000003c 	.word	0x2000003c
 8000f5c:	20000660 	.word	0x20000660
 8000f60:	20000040 	.word	0x20000040
 8000f64:	20000668 	.word	0x20000668
 8000f68:	20000044 	.word	0x20000044
 8000f6c:	20000670 	.word	0x20000670
 8000f70:	20000048 	.word	0x20000048
 8000f74:	20000678 	.word	0x20000678
 8000f78:	2000004c 	.word	0x2000004c
 8000f7c:	20000680 	.word	0x20000680
 8000f80:	20000050 	.word	0x20000050
 8000f84:	20000688 	.word	0x20000688

08000f88 <stm32__usarts__usartIP>:
 8000f88:	b480      	push	{r7}
 8000f8a:	b085      	sub	sp, #20
 8000f8c:	af00      	add	r7, sp, #0
 8000f8e:	60f8      	str	r0, [r7, #12]
 8000f90:	60b9      	str	r1, [r7, #8]
 8000f92:	4613      	mov	r3, r2
 8000f94:	71fb      	strb	r3, [r7, #7]
 8000f96:	79fb      	ldrb	r3, [r7, #7]
 8000f98:	2b00      	cmp	r3, #0
 8000f9a:	d002      	beq.n	8000fa2 <stm32__usarts__usartIP+0x1a>
 8000f9c:	68fb      	ldr	r3, [r7, #12]
 8000f9e:	4a05      	ldr	r2, [pc, #20]	; (8000fb4 <stm32__usarts__usartIP+0x2c>)
 8000fa0:	601a      	str	r2, [r3, #0]
 8000fa2:	68fb      	ldr	r3, [r7, #12]
 8000fa4:	68ba      	ldr	r2, [r7, #8]
 8000fa6:	605a      	str	r2, [r3, #4]
 8000fa8:	3714      	adds	r7, #20
 8000faa:	46bd      	mov	sp, r7
 8000fac:	f85d 7b04 	ldr.w	r7, [sp], #4
 8000fb0:	4770      	bx	lr
 8000fb2:	bf00      	nop
 8000fb4:	08008b94 	.word	0x08008b94

08000fb8 <stm32__usarts___size__2>:
 8000fb8:	b490      	push	{r4, r7}
 8000fba:	b082      	sub	sp, #8
 8000fbc:	af00      	add	r7, sp, #0
 8000fbe:	6078      	str	r0, [r7, #4]
 8000fc0:	f04f 0340 	mov.w	r3, #64	; 0x40
 8000fc4:	f04f 0400 	mov.w	r4, #0
 8000fc8:	4618      	mov	r0, r3
 8000fca:	4621      	mov	r1, r4
 8000fcc:	3708      	adds	r7, #8
 8000fce:	46bd      	mov	sp, r7
 8000fd0:	bc90      	pop	{r4, r7}
 8000fd2:	4770      	bx	lr

08000fd4 <stm32__usarts__apb_clock>:
 8000fd4:	b580      	push	{r7, lr}
 8000fd6:	b08a      	sub	sp, #40	; 0x28
 8000fd8:	af00      	add	r7, sp, #0
 8000fda:	6078      	str	r0, [r7, #4]
 8000fdc:	f107 030c 	add.w	r3, r7, #12
 8000fe0:	4618      	mov	r0, r3
 8000fe2:	f7ff f987 	bl	80002f4 <stm32__device__system_clock_frequencies>
 8000fe6:	687b      	ldr	r3, [r7, #4]
 8000fe8:	685b      	ldr	r3, [r3, #4]
 8000fea:	461a      	mov	r2, r3
 8000fec:	4b05      	ldr	r3, [pc, #20]	; (8001004 <stm32__usarts__apb_clock+0x30>)
 8000fee:	429a      	cmp	r2, r3
 8000ff0:	d101      	bne.n	8000ff6 <stm32__usarts__apb_clock+0x22>
 8000ff2:	69bb      	ldr	r3, [r7, #24]
 8000ff4:	e000      	b.n	8000ff8 <stm32__usarts__apb_clock+0x24>
 8000ff6:	697b      	ldr	r3, [r7, #20]
 8000ff8:	bf00      	nop
 8000ffa:	4618      	mov	r0, r3
 8000ffc:	3728      	adds	r7, #40	; 0x28
 8000ffe:	46bd      	mov	sp, r7
 8001000:	bd80      	pop	{r7, pc}
 8001002:	bf00      	nop
 8001004:	40013800 	.word	0x40013800

08001008 <stm32__usarts__enable___postconditions.4760>:
 8001008:	b5b0      	push	{r4, r5, r7, lr}
 800100a:	b082      	sub	sp, #8
 800100c:	af00      	add	r7, sp, #0
 800100e:	4663      	mov	r3, ip
 8001010:	f8c7 c004 	str.w	ip, [r7, #4]
 8001014:	681b      	ldr	r3, [r3, #0]
 8001016:	4618      	mov	r0, r3
 8001018:	f000 f868 	bl	80010ec <stm32__usarts__enabled>
 800101c:	4603      	mov	r3, r0
 800101e:	f083 0301 	eor.w	r3, r3, #1
 8001022:	b2db      	uxtb	r3, r3
 8001024:	2b00      	cmp	r3, #0
 8001026:	d005      	beq.n	8001034 <stm32__usarts__enable___postconditions.4760+0x2c>
 8001028:	4c04      	ldr	r4, [pc, #16]	; (800103c <stm32__usarts__enable___postconditions.4760+0x34>)
 800102a:	4d05      	ldr	r5, [pc, #20]	; (8001040 <stm32__usarts__enable___postconditions.4760+0x38>)
 800102c:	4620      	mov	r0, r4
 800102e:	4629      	mov	r1, r5
 8001030:	f006 fffe 	bl	8008030 <system__assertions__raise_assert_failure>
 8001034:	3708      	adds	r7, #8
 8001036:	46bd      	mov	sp, r7
 8001038:	bdb0      	pop	{r4, r5, r7, pc}
 800103a:	bf00      	nop
 800103c:	08008c28 	.word	0x08008c28
 8001040:	08008c58 	.word	0x08008c58

08001044 <stm32__usarts__enable>:
 8001044:	b580      	push	{r7, lr}
 8001046:	b084      	sub	sp, #16
 8001048:	af00      	add	r7, sp, #0
 800104a:	6078      	str	r0, [r7, #4]
 800104c:	f107 0318 	add.w	r3, r7, #24
 8001050:	60fb      	str	r3, [r7, #12]
 8001052:	687b      	ldr	r3, [r7, #4]
 8001054:	60bb      	str	r3, [r7, #8]
 8001056:	68bb      	ldr	r3, [r7, #8]
 8001058:	685b      	ldr	r3, [r3, #4]
 800105a:	330c      	adds	r3, #12
 800105c:	681b      	ldr	r3, [r3, #0]
 800105e:	461a      	mov	r2, r3
 8001060:	4613      	mov	r3, r2
 8001062:	f443 5200 	orr.w	r2, r3, #8192	; 0x2000
 8001066:	68bb      	ldr	r3, [r7, #8]
 8001068:	685b      	ldr	r3, [r3, #4]
 800106a:	330c      	adds	r3, #12
 800106c:	601a      	str	r2, [r3, #0]
 800106e:	f107 0308 	add.w	r3, r7, #8
 8001072:	469c      	mov	ip, r3
 8001074:	f7ff ffc8 	bl	8001008 <stm32__usarts__enable___postconditions.4760>
 8001078:	3710      	adds	r7, #16
 800107a:	46bd      	mov	sp, r7
 800107c:	bd80      	pop	{r7, pc}
 800107e:	bf00      	nop

08001080 <stm32__usarts__disable___postconditions.4767>:
 8001080:	b5b0      	push	{r4, r5, r7, lr}
 8001082:	b082      	sub	sp, #8
 8001084:	af00      	add	r7, sp, #0
 8001086:	4663      	mov	r3, ip
 8001088:	f8c7 c004 	str.w	ip, [r7, #4]
 800108c:	681b      	ldr	r3, [r3, #0]
 800108e:	4618      	mov	r0, r3
 8001090:	f000 f82c 	bl	80010ec <stm32__usarts__enabled>
 8001094:	4603      	mov	r3, r0
 8001096:	2b00      	cmp	r3, #0
 8001098:	d005      	beq.n	80010a6 <stm32__usarts__disable___postconditions.4767+0x26>
 800109a:	4c04      	ldr	r4, [pc, #16]	; (80010ac <stm32__usarts__disable___postconditions.4767+0x2c>)
 800109c:	4d04      	ldr	r5, [pc, #16]	; (80010b0 <stm32__usarts__disable___postconditions.4767+0x30>)
 800109e:	4620      	mov	r0, r4
 80010a0:	4629      	mov	r1, r5
 80010a2:	f006 ffc5 	bl	8008030 <system__assertions__raise_assert_failure>
 80010a6:	3708      	adds	r7, #8
 80010a8:	46bd      	mov	sp, r7
 80010aa:	bdb0      	pop	{r4, r5, r7, pc}
 80010ac:	08008c60 	.word	0x08008c60
 80010b0:	08008c58 	.word	0x08008c58

080010b4 <stm32__usarts__disable>:
 80010b4:	b580      	push	{r7, lr}
 80010b6:	b084      	sub	sp, #16
 80010b8:	af00      	add	r7, sp, #0
 80010ba:	6078      	str	r0, [r7, #4]
 80010bc:	f107 0318 	add.w	r3, r7, #24
 80010c0:	60fb      	str	r3, [r7, #12]
 80010c2:	687b      	ldr	r3, [r7, #4]
 80010c4:	60bb      	str	r3, [r7, #8]
 80010c6:	68bb      	ldr	r3, [r7, #8]
 80010c8:	685b      	ldr	r3, [r3, #4]
 80010ca:	330c      	adds	r3, #12
 80010cc:	681b      	ldr	r3, [r3, #0]
 80010ce:	f36f 334d 	bfc	r3, #13, #1
 80010d2:	68ba      	ldr	r2, [r7, #8]
 80010d4:	6852      	ldr	r2, [r2, #4]
 80010d6:	320c      	adds	r2, #12
 80010d8:	6013      	str	r3, [r2, #0]
 80010da:	f107 0308 	add.w	r3, r7, #8
 80010de:	469c      	mov	ip, r3
 80010e0:	f7ff ffce 	bl	8001080 <stm32__usarts__disable___postconditions.4767>
 80010e4:	3710      	adds	r7, #16
 80010e6:	46bd      	mov	sp, r7
 80010e8:	bd80      	pop	{r7, pc}
 80010ea:	bf00      	nop

080010ec <stm32__usarts__enabled>:
 80010ec:	b480      	push	{r7}
 80010ee:	b083      	sub	sp, #12
 80010f0:	af00      	add	r7, sp, #0
 80010f2:	6078      	str	r0, [r7, #4]
 80010f4:	687b      	ldr	r3, [r7, #4]
 80010f6:	685b      	ldr	r3, [r3, #4]
 80010f8:	330c      	adds	r3, #12
 80010fa:	681b      	ldr	r3, [r3, #0]
 80010fc:	f3c3 3340 	ubfx	r3, r3, #13, #1
 8001100:	b2db      	uxtb	r3, r3
 8001102:	bf00      	nop
 8001104:	4618      	mov	r0, r3
 8001106:	370c      	adds	r7, #12
 8001108:	46bd      	mov	sp, r7
 800110a:	f85d 7b04 	ldr.w	r7, [sp], #4
 800110e:	4770      	bx	lr

08001110 <stm32__usarts__set_stop_bits>:
 8001110:	b480      	push	{r7}
 8001112:	b083      	sub	sp, #12
 8001114:	af00      	add	r7, sp, #0
 8001116:	6078      	str	r0, [r7, #4]
 8001118:	460b      	mov	r3, r1
 800111a:	70fb      	strb	r3, [r7, #3]
 800111c:	687b      	ldr	r3, [r7, #4]
 800111e:	685b      	ldr	r3, [r3, #4]
 8001120:	3310      	adds	r3, #16
 8001122:	681b      	ldr	r3, [r3, #0]
 8001124:	78fa      	ldrb	r2, [r7, #3]
 8001126:	f002 0203 	and.w	r2, r2, #3
 800112a:	b2d2      	uxtb	r2, r2
 800112c:	f362 330d 	bfi	r3, r2, #12, #2
 8001130:	687a      	ldr	r2, [r7, #4]
 8001132:	6852      	ldr	r2, [r2, #4]
 8001134:	3210      	adds	r2, #16
 8001136:	6013      	str	r3, [r2, #0]
 8001138:	370c      	adds	r7, #12
 800113a:	46bd      	mov	sp, r7
 800113c:	f85d 7b04 	ldr.w	r7, [sp], #4
 8001140:	4770      	bx	lr
 8001142:	bf00      	nop

08001144 <stm32__usarts__set_word_length>:
 8001144:	b480      	push	{r7}
 8001146:	b083      	sub	sp, #12
 8001148:	af00      	add	r7, sp, #0
 800114a:	6078      	str	r0, [r7, #4]
 800114c:	460b      	mov	r3, r1
 800114e:	70fb      	strb	r3, [r7, #3]
 8001150:	687b      	ldr	r3, [r7, #4]
 8001152:	685b      	ldr	r3, [r3, #4]
 8001154:	330c      	adds	r3, #12
 8001156:	681b      	ldr	r3, [r3, #0]
 8001158:	78fa      	ldrb	r2, [r7, #3]
 800115a:	2a01      	cmp	r2, #1
 800115c:	bf0c      	ite	eq
 800115e:	2201      	moveq	r2, #1
 8001160:	2200      	movne	r2, #0
 8001162:	b2d2      	uxtb	r2, r2
 8001164:	f002 0201 	and.w	r2, r2, #1
 8001168:	b2d2      	uxtb	r2, r2
 800116a:	f362 330c 	bfi	r3, r2, #12, #1
 800116e:	687a      	ldr	r2, [r7, #4]
 8001170:	6852      	ldr	r2, [r2, #4]
 8001172:	320c      	adds	r2, #12
 8001174:	6013      	str	r3, [r2, #0]
 8001176:	370c      	adds	r7, #12
 8001178:	46bd      	mov	sp, r7
 800117a:	f85d 7b04 	ldr.w	r7, [sp], #4
 800117e:	4770      	bx	lr

08001180 <stm32__usarts__set_parity>:
 8001180:	b580      	push	{r7, lr}
 8001182:	b082      	sub	sp, #8
 8001184:	af00      	add	r7, sp, #0
 8001186:	6078      	str	r0, [r7, #4]
 8001188:	460b      	mov	r3, r1
 800118a:	70fb      	strb	r3, [r7, #3]
 800118c:	78fb      	ldrb	r3, [r7, #3]
 800118e:	2b02      	cmp	r3, #2
 8001190:	d903      	bls.n	800119a <stm32__usarts__set_parity+0x1a>
 8001192:	4829      	ldr	r0, [pc, #164]	; (8001238 <stm32__usarts__set_parity+0xb8>)
 8001194:	2175      	movs	r1, #117	; 0x75
 8001196:	f006 ff13 	bl	8007fc0 <__gnat_last_chance_handler>
 800119a:	78fb      	ldrb	r3, [r7, #3]
 800119c:	2b00      	cmp	r3, #0
 800119e:	d002      	beq.n	80011a6 <stm32__usarts__set_parity+0x26>
 80011a0:	2b01      	cmp	r3, #1
 80011a2:	d015      	beq.n	80011d0 <stm32__usarts__set_parity+0x50>
 80011a4:	e02b      	b.n	80011fe <stm32__usarts__set_parity+0x7e>
 80011a6:	687b      	ldr	r3, [r7, #4]
 80011a8:	685b      	ldr	r3, [r3, #4]
 80011aa:	330c      	adds	r3, #12
 80011ac:	681b      	ldr	r3, [r3, #0]
 80011ae:	f36f 238a 	bfc	r3, #10, #1
 80011b2:	687a      	ldr	r2, [r7, #4]
 80011b4:	6852      	ldr	r2, [r2, #4]
 80011b6:	320c      	adds	r2, #12
 80011b8:	6013      	str	r3, [r2, #0]
 80011ba:	687b      	ldr	r3, [r7, #4]
 80011bc:	685b      	ldr	r3, [r3, #4]
 80011be:	330c      	adds	r3, #12
 80011c0:	681b      	ldr	r3, [r3, #0]
 80011c2:	f36f 2349 	bfc	r3, #9, #1
 80011c6:	687a      	ldr	r2, [r7, #4]
 80011c8:	6852      	ldr	r2, [r2, #4]
 80011ca:	320c      	adds	r2, #12
 80011cc:	6013      	str	r3, [r2, #0]
 80011ce:	e02e      	b.n	800122e <stm32__usarts__set_parity+0xae>
 80011d0:	687b      	ldr	r3, [r7, #4]
 80011d2:	685b      	ldr	r3, [r3, #4]
 80011d4:	330c      	adds	r3, #12
 80011d6:	681b      	ldr	r3, [r3, #0]
 80011d8:	461a      	mov	r2, r3
 80011da:	4613      	mov	r3, r2
 80011dc:	f443 6280 	orr.w	r2, r3, #1024	; 0x400
 80011e0:	687b      	ldr	r3, [r7, #4]
 80011e2:	685b      	ldr	r3, [r3, #4]
 80011e4:	330c      	adds	r3, #12
 80011e6:	601a      	str	r2, [r3, #0]
 80011e8:	687b      	ldr	r3, [r7, #4]
 80011ea:	685b      	ldr	r3, [r3, #4]
 80011ec:	330c      	adds	r3, #12
 80011ee:	681b      	ldr	r3, [r3, #0]
 80011f0:	f36f 2349 	bfc	r3, #9, #1
 80011f4:	687a      	ldr	r2, [r7, #4]
 80011f6:	6852      	ldr	r2, [r2, #4]
 80011f8:	320c      	adds	r2, #12
 80011fa:	6013      	str	r3, [r2, #0]
 80011fc:	e017      	b.n	800122e <stm32__usarts__set_parity+0xae>
 80011fe:	687b      	ldr	r3, [r7, #4]
 8001200:	685b      	ldr	r3, [r3, #4]
 8001202:	330c      	adds	r3, #12
 8001204:	681b      	ldr	r3, [r3, #0]
 8001206:	461a      	mov	r2, r3
 8001208:	4613      	mov	r3, r2
 800120a:	f443 6280 	orr.w	r2, r3, #1024	; 0x400
 800120e:	687b      	ldr	r3, [r7, #4]
 8001210:	685b      	ldr	r3, [r3, #4]
 8001212:	330c      	adds	r3, #12
 8001214:	601a      	str	r2, [r3, #0]
 8001216:	687b      	ldr	r3, [r7, #4]
 8001218:	685b      	ldr	r3, [r3, #4]
 800121a:	330c      	adds	r3, #12
 800121c:	681b      	ldr	r3, [r3, #0]
 800121e:	461a      	mov	r2, r3
 8001220:	4613      	mov	r3, r2
 8001222:	f443 7200 	orr.w	r2, r3, #512	; 0x200
 8001226:	687b      	ldr	r3, [r7, #4]
 8001228:	685b      	ldr	r3, [r3, #4]
 800122a:	330c      	adds	r3, #12
 800122c:	601a      	str	r2, [r3, #0]
 800122e:	bf00      	nop
 8001230:	3708      	adds	r7, #8
 8001232:	46bd      	mov	sp, r7
 8001234:	bd80      	pop	{r7, pc}
 8001236:	bf00      	nop
 8001238:	08008c90 	.word	0x08008c90

0800123c <stm32__usarts__set_baud_rate>:
 800123c:	b580      	push	{r7, lr}
 800123e:	b086      	sub	sp, #24
 8001240:	af00      	add	r7, sp, #0
 8001242:	6078      	str	r0, [r7, #4]
 8001244:	6039      	str	r1, [r7, #0]
 8001246:	6878      	ldr	r0, [r7, #4]
 8001248:	f7ff fec4 	bl	8000fd4 <stm32__usarts__apb_clock>
 800124c:	6178      	str	r0, [r7, #20]
 800124e:	2304      	movs	r3, #4
 8001250:	613b      	str	r3, [r7, #16]
 8001252:	683b      	ldr	r3, [r7, #0]
 8001254:	009b      	lsls	r3, r3, #2
 8001256:	2b00      	cmp	r3, #0
 8001258:	d103      	bne.n	8001262 <stm32__usarts__set_baud_rate+0x26>
 800125a:	4832      	ldr	r0, [pc, #200]	; (8001324 <stm32__usarts__set_baud_rate+0xe8>)
 800125c:	218c      	movs	r1, #140	; 0x8c
 800125e:	f006 feaf 	bl	8007fc0 <__gnat_last_chance_handler>
 8001262:	697a      	ldr	r2, [r7, #20]
 8001264:	4613      	mov	r3, r2
 8001266:	009b      	lsls	r3, r3, #2
 8001268:	4413      	add	r3, r2
 800126a:	009a      	lsls	r2, r3, #2
 800126c:	441a      	add	r2, r3
 800126e:	683b      	ldr	r3, [r7, #0]
 8001270:	009b      	lsls	r3, r3, #2
 8001272:	fbb2 f3f3 	udiv	r3, r2, r3
 8001276:	60fb      	str	r3, [r7, #12]
 8001278:	68fb      	ldr	r3, [r7, #12]
 800127a:	4a2b      	ldr	r2, [pc, #172]	; (8001328 <stm32__usarts__set_baud_rate+0xec>)
 800127c:	fba2 1203 	umull	r1, r2, r2, r3
 8001280:	0952      	lsrs	r2, r2, #5
 8001282:	2164      	movs	r1, #100	; 0x64
 8001284:	fb01 f202 	mul.w	r2, r1, r2
 8001288:	1a9b      	subs	r3, r3, r2
 800128a:	60bb      	str	r3, [r7, #8]
 800128c:	687b      	ldr	r3, [r7, #4]
 800128e:	685b      	ldr	r3, [r3, #4]
 8001290:	3308      	adds	r3, #8
 8001292:	681b      	ldr	r3, [r3, #0]
 8001294:	68ba      	ldr	r2, [r7, #8]
 8001296:	0112      	lsls	r2, r2, #4
 8001298:	3232      	adds	r2, #50	; 0x32
 800129a:	4923      	ldr	r1, [pc, #140]	; (8001328 <stm32__usarts__set_baud_rate+0xec>)
 800129c:	fba1 1202 	umull	r1, r2, r1, r2
 80012a0:	0952      	lsrs	r2, r2, #5
 80012a2:	f002 020f 	and.w	r2, r2, #15
 80012a6:	2aff      	cmp	r2, #255	; 0xff
 80012a8:	d903      	bls.n	80012b2 <stm32__usarts__set_baud_rate+0x76>
 80012aa:	481e      	ldr	r0, [pc, #120]	; (8001324 <stm32__usarts__set_baud_rate+0xe8>)
 80012ac:	2195      	movs	r1, #149	; 0x95
 80012ae:	f006 fe87 	bl	8007fc0 <__gnat_last_chance_handler>
 80012b2:	68ba      	ldr	r2, [r7, #8]
 80012b4:	0112      	lsls	r2, r2, #4
 80012b6:	3232      	adds	r2, #50	; 0x32
 80012b8:	491b      	ldr	r1, [pc, #108]	; (8001328 <stm32__usarts__set_baud_rate+0xec>)
 80012ba:	fba1 1202 	umull	r1, r2, r1, r2
 80012be:	0952      	lsrs	r2, r2, #5
 80012c0:	b2d2      	uxtb	r2, r2
 80012c2:	f002 020f 	and.w	r2, r2, #15
 80012c6:	b2d2      	uxtb	r2, r2
 80012c8:	2a0f      	cmp	r2, #15
 80012ca:	d903      	bls.n	80012d4 <stm32__usarts__set_baud_rate+0x98>
 80012cc:	4815      	ldr	r0, [pc, #84]	; (8001324 <stm32__usarts__set_baud_rate+0xe8>)
 80012ce:	2195      	movs	r1, #149	; 0x95
 80012d0:	f006 fe76 	bl	8007fc0 <__gnat_last_chance_handler>
 80012d4:	f002 020f 	and.w	r2, r2, #15
 80012d8:	b2d2      	uxtb	r2, r2
 80012da:	f362 0303 	bfi	r3, r2, #0, #4
 80012de:	687a      	ldr	r2, [r7, #4]
 80012e0:	6852      	ldr	r2, [r2, #4]
 80012e2:	3208      	adds	r2, #8
 80012e4:	6013      	str	r3, [r2, #0]
 80012e6:	68fb      	ldr	r3, [r7, #12]
 80012e8:	f5b3 2fc8 	cmp.w	r3, #409600	; 0x64000
 80012ec:	d303      	bcc.n	80012f6 <stm32__usarts__set_baud_rate+0xba>
 80012ee:	480d      	ldr	r0, [pc, #52]	; (8001324 <stm32__usarts__set_baud_rate+0xe8>)
 80012f0:	2199      	movs	r1, #153	; 0x99
 80012f2:	f006 fe65 	bl	8007fc0 <__gnat_last_chance_handler>
 80012f6:	687b      	ldr	r3, [r7, #4]
 80012f8:	685b      	ldr	r3, [r3, #4]
 80012fa:	3308      	adds	r3, #8
 80012fc:	681b      	ldr	r3, [r3, #0]
 80012fe:	68fa      	ldr	r2, [r7, #12]
 8001300:	4909      	ldr	r1, [pc, #36]	; (8001328 <stm32__usarts__set_baud_rate+0xec>)
 8001302:	fba1 1202 	umull	r1, r2, r1, r2
 8001306:	0952      	lsrs	r2, r2, #5
 8001308:	b292      	uxth	r2, r2
 800130a:	f3c2 020b 	ubfx	r2, r2, #0, #12
 800130e:	b292      	uxth	r2, r2
 8001310:	f362 130f 	bfi	r3, r2, #4, #12
 8001314:	687a      	ldr	r2, [r7, #4]
 8001316:	6852      	ldr	r2, [r2, #4]
 8001318:	3208      	adds	r2, #8
 800131a:	6013      	str	r3, [r2, #0]
 800131c:	3718      	adds	r7, #24
 800131e:	46bd      	mov	sp, r7
 8001320:	bd80      	pop	{r7, pc}
 8001322:	bf00      	nop
 8001324:	08008c90 	.word	0x08008c90
 8001328:	51eb851f 	.word	0x51eb851f

0800132c <stm32__usarts__set_oversampling_mode>:
 800132c:	b480      	push	{r7}
 800132e:	b083      	sub	sp, #12
 8001330:	af00      	add	r7, sp, #0
 8001332:	6078      	str	r0, [r7, #4]
 8001334:	460b      	mov	r3, r1
 8001336:	70fb      	strb	r3, [r7, #3]
 8001338:	bf00      	nop
 800133a:	370c      	adds	r7, #12
 800133c:	46bd      	mov	sp, r7
 800133e:	f85d 7b04 	ldr.w	r7, [sp], #4
 8001342:	4770      	bx	lr

08001344 <stm32__usarts__set_mode>:
 8001344:	b480      	push	{r7}
 8001346:	b083      	sub	sp, #12
 8001348:	af00      	add	r7, sp, #0
 800134a:	6078      	str	r0, [r7, #4]
 800134c:	460b      	mov	r3, r1
 800134e:	70fb      	strb	r3, [r7, #3]
 8001350:	687b      	ldr	r3, [r7, #4]
 8001352:	685b      	ldr	r3, [r3, #4]
 8001354:	330c      	adds	r3, #12
 8001356:	681b      	ldr	r3, [r3, #0]
 8001358:	78fa      	ldrb	r2, [r7, #3]
 800135a:	2a01      	cmp	r2, #1
 800135c:	bf14      	ite	ne
 800135e:	2201      	movne	r2, #1
 8001360:	2200      	moveq	r2, #0
 8001362:	b2d2      	uxtb	r2, r2
 8001364:	f002 0201 	and.w	r2, r2, #1
 8001368:	b2d2      	uxtb	r2, r2
 800136a:	f362 0382 	bfi	r3, r2, #2, #1
 800136e:	687a      	ldr	r2, [r7, #4]
 8001370:	6852      	ldr	r2, [r2, #4]
 8001372:	320c      	adds	r2, #12
 8001374:	6013      	str	r3, [r2, #0]
 8001376:	687b      	ldr	r3, [r7, #4]
 8001378:	685b      	ldr	r3, [r3, #4]
 800137a:	330c      	adds	r3, #12
 800137c:	681b      	ldr	r3, [r3, #0]
 800137e:	78fa      	ldrb	r2, [r7, #3]
 8001380:	2a00      	cmp	r2, #0
 8001382:	bf14      	ite	ne
 8001384:	2201      	movne	r2, #1
 8001386:	2200      	moveq	r2, #0
 8001388:	b2d2      	uxtb	r2, r2
 800138a:	f002 0201 	and.w	r2, r2, #1
 800138e:	b2d2      	uxtb	r2, r2
 8001390:	f362 03c3 	bfi	r3, r2, #3, #1
 8001394:	687a      	ldr	r2, [r7, #4]
 8001396:	6852      	ldr	r2, [r2, #4]
 8001398:	320c      	adds	r2, #12
 800139a:	6013      	str	r3, [r2, #0]
 800139c:	370c      	adds	r7, #12
 800139e:	46bd      	mov	sp, r7
 80013a0:	f85d 7b04 	ldr.w	r7, [sp], #4
 80013a4:	4770      	bx	lr
 80013a6:	bf00      	nop

080013a8 <stm32__usarts__set_flow_control>:
 80013a8:	b580      	push	{r7, lr}
 80013aa:	b082      	sub	sp, #8
 80013ac:	af00      	add	r7, sp, #0
 80013ae:	6078      	str	r0, [r7, #4]
 80013b0:	460b      	mov	r3, r1
 80013b2:	70fb      	strb	r3, [r7, #3]
 80013b4:	78fb      	ldrb	r3, [r7, #3]
 80013b6:	2b03      	cmp	r3, #3
 80013b8:	d903      	bls.n	80013c2 <stm32__usarts__set_flow_control+0x1a>
 80013ba:	4835      	ldr	r0, [pc, #212]	; (8001490 <stm32__usarts__set_flow_control+0xe8>)
 80013bc:	21b9      	movs	r1, #185	; 0xb9
 80013be:	f006 fdff 	bl	8007fc0 <__gnat_last_chance_handler>
 80013c2:	78fb      	ldrb	r3, [r7, #3]
 80013c4:	2b01      	cmp	r3, #1
 80013c6:	d019      	beq.n	80013fc <stm32__usarts__set_flow_control+0x54>
 80013c8:	2b01      	cmp	r3, #1
 80013ca:	d302      	bcc.n	80013d2 <stm32__usarts__set_flow_control+0x2a>
 80013cc:	2b02      	cmp	r3, #2
 80013ce:	d02c      	beq.n	800142a <stm32__usarts__set_flow_control+0x82>
 80013d0:	e042      	b.n	8001458 <stm32__usarts__set_flow_control+0xb0>
 80013d2:	687b      	ldr	r3, [r7, #4]
 80013d4:	685b      	ldr	r3, [r3, #4]
 80013d6:	3314      	adds	r3, #20
 80013d8:	681b      	ldr	r3, [r3, #0]
 80013da:	f36f 2308 	bfc	r3, #8, #1
 80013de:	687a      	ldr	r2, [r7, #4]
 80013e0:	6852      	ldr	r2, [r2, #4]
 80013e2:	3214      	adds	r2, #20
 80013e4:	6013      	str	r3, [r2, #0]
 80013e6:	687b      	ldr	r3, [r7, #4]
 80013e8:	685b      	ldr	r3, [r3, #4]
 80013ea:	3314      	adds	r3, #20
 80013ec:	681b      	ldr	r3, [r3, #0]
 80013ee:	f36f 2349 	bfc	r3, #9, #1
 80013f2:	687a      	ldr	r2, [r7, #4]
 80013f4:	6852      	ldr	r2, [r2, #4]
 80013f6:	3214      	adds	r2, #20
 80013f8:	6013      	str	r3, [r2, #0]
 80013fa:	e045      	b.n	8001488 <stm32__usarts__set_flow_control+0xe0>
 80013fc:	687b      	ldr	r3, [r7, #4]
 80013fe:	685b      	ldr	r3, [r3, #4]
 8001400:	3314      	adds	r3, #20
 8001402:	681b      	ldr	r3, [r3, #0]
 8001404:	461a      	mov	r2, r3
 8001406:	4613      	mov	r3, r2
 8001408:	f443 7280 	orr.w	r2, r3, #256	; 0x100
 800140c:	687b      	ldr	r3, [r7, #4]
 800140e:	685b      	ldr	r3, [r3, #4]
 8001410:	3314      	adds	r3, #20
 8001412:	601a      	str	r2, [r3, #0]
 8001414:	687b      	ldr	r3, [r7, #4]
 8001416:	685b      	ldr	r3, [r3, #4]
 8001418:	3314      	adds	r3, #20
 800141a:	681b      	ldr	r3, [r3, #0]
 800141c:	f36f 2349 	bfc	r3, #9, #1
 8001420:	687a      	ldr	r2, [r7, #4]
 8001422:	6852      	ldr	r2, [r2, #4]
 8001424:	3214      	adds	r2, #20
 8001426:	6013      	str	r3, [r2, #0]
 8001428:	e02e      	b.n	8001488 <stm32__usarts__set_flow_control+0xe0>
 800142a:	687b      	ldr	r3, [r7, #4]
 800142c:	685b      	ldr	r3, [r3, #4]
 800142e:	3314      	adds	r3, #20
 8001430:	681b      	ldr	r3, [r3, #0]
 8001432:	f36f 2308 	bfc	r3, #8, #1
 8001436:	687a      	ldr	r2, [r7, #4]
 8001438:	6852      	ldr	r2, [r2, #4]
 800143a:	3214      	adds	r2, #20
 800143c:	6013      	str	r3, [r2, #0]
 800143e:	687b      	ldr	r3, [r7, #4]
 8001440:	685b      	ldr	r3, [r3, #4]
 8001442:	3314      	adds	r3, #20
 8001444:	681b      	ldr	r3, [r3, #0]
 8001446:	461a      	mov	r2, r3
 8001448:	4613      	mov	r3, r2
 800144a:	f443 7200 	orr.w	r2, r3, #512	; 0x200
 800144e:	687b      	ldr	r3, [r7, #4]
 8001450:	685b      	ldr	r3, [r3, #4]
 8001452:	3314      	adds	r3, #20
 8001454:	601a      	str	r2, [r3, #0]
 8001456:	e017      	b.n	8001488 <stm32__usarts__set_flow_control+0xe0>
 8001458:	687b      	ldr	r3, [r7, #4]
 800145a:	685b      	ldr	r3, [r3, #4]
 800145c:	3314      	adds	r3, #20
 800145e:	681b      	ldr	r3, [r3, #0]
 8001460:	461a      	mov	r2, r3
 8001462:	4613      	mov	r3, r2
 8001464:	f443 7280 	orr.w	r2, r3, #256	; 0x100
 8001468:	687b      	ldr	r3, [r7, #4]
 800146a:	685b      	ldr	r3, [r3, #4]
 800146c:	3314      	adds	r3, #20
 800146e:	601a      	str	r2, [r3, #0]
 8001470:	687b      	ldr	r3, [r7, #4]
 8001472:	685b      	ldr	r3, [r3, #4]
 8001474:	3314      	adds	r3, #20
 8001476:	681b      	ldr	r3, [r3, #0]
 8001478:	461a      	mov	r2, r3
 800147a:	4613      	mov	r3, r2
 800147c:	f443 7200 	orr.w	r2, r3, #512	; 0x200
 8001480:	687b      	ldr	r3, [r7, #4]
 8001482:	685b      	ldr	r3, [r3, #4]
 8001484:	3314      	adds	r3, #20
 8001486:	601a      	str	r2, [r3, #0]
 8001488:	bf00      	nop
 800148a:	3708      	adds	r7, #8
 800148c:	46bd      	mov	sp, r7
 800148e:	bd80      	pop	{r7, pc}
 8001490:	08008c90 	.word	0x08008c90

08001494 <stm32__usarts__transmit>:
 8001494:	b480      	push	{r7}
 8001496:	b083      	sub	sp, #12
 8001498:	af00      	add	r7, sp, #0
 800149a:	6078      	str	r0, [r7, #4]
 800149c:	460b      	mov	r3, r1
 800149e:	807b      	strh	r3, [r7, #2]
 80014a0:	687b      	ldr	r3, [r7, #4]
 80014a2:	685b      	ldr	r3, [r3, #4]
 80014a4:	3304      	adds	r3, #4
 80014a6:	681b      	ldr	r3, [r3, #0]
 80014a8:	887a      	ldrh	r2, [r7, #2]
 80014aa:	f3c2 0208 	ubfx	r2, r2, #0, #9
 80014ae:	b292      	uxth	r2, r2
 80014b0:	f362 0308 	bfi	r3, r2, #0, #9
 80014b4:	687a      	ldr	r2, [r7, #4]
 80014b6:	6852      	ldr	r2, [r2, #4]
 80014b8:	3204      	adds	r2, #4
 80014ba:	6013      	str	r3, [r2, #0]
 80014bc:	370c      	adds	r7, #12
 80014be:	46bd      	mov	sp, r7
 80014c0:	f85d 7b04 	ldr.w	r7, [sp], #4
 80014c4:	4770      	bx	lr
 80014c6:	bf00      	nop

080014c8 <stm32__usarts__receive>:
 80014c8:	b580      	push	{r7, lr}
 80014ca:	b084      	sub	sp, #16
 80014cc:	af00      	add	r7, sp, #0
 80014ce:	6078      	str	r0, [r7, #4]
 80014d0:	6878      	ldr	r0, [r7, #4]
 80014d2:	f000 f809 	bl	80014e8 <stm32__usarts__current_input>
 80014d6:	4603      	mov	r3, r0
 80014d8:	81fb      	strh	r3, [r7, #14]
 80014da:	89fb      	ldrh	r3, [r7, #14]
 80014dc:	bf00      	nop
 80014de:	4618      	mov	r0, r3
 80014e0:	3710      	adds	r7, #16
 80014e2:	46bd      	mov	sp, r7
 80014e4:	bd80      	pop	{r7, pc}
 80014e6:	bf00      	nop

080014e8 <stm32__usarts__current_input>:
 80014e8:	b480      	push	{r7}
 80014ea:	b083      	sub	sp, #12
 80014ec:	af00      	add	r7, sp, #0
 80014ee:	6078      	str	r0, [r7, #4]
 80014f0:	687b      	ldr	r3, [r7, #4]
 80014f2:	685b      	ldr	r3, [r3, #4]
 80014f4:	3304      	adds	r3, #4
 80014f6:	681b      	ldr	r3, [r3, #0]
 80014f8:	f3c3 0308 	ubfx	r3, r3, #0, #9
 80014fc:	b29b      	uxth	r3, r3
 80014fe:	bf00      	nop
 8001500:	4618      	mov	r0, r3
 8001502:	370c      	adds	r7, #12
 8001504:	46bd      	mov	sp, r7
 8001506:	f85d 7b04 	ldr.w	r7, [sp], #4
 800150a:	4770      	bx	lr

0800150c <stm32__usarts__tx_ready>:
 800150c:	b480      	push	{r7}
 800150e:	b083      	sub	sp, #12
 8001510:	af00      	add	r7, sp, #0
 8001512:	6078      	str	r0, [r7, #4]
 8001514:	687b      	ldr	r3, [r7, #4]
 8001516:	685b      	ldr	r3, [r3, #4]
 8001518:	681b      	ldr	r3, [r3, #0]
 800151a:	f3c3 13c0 	ubfx	r3, r3, #7, #1
 800151e:	b2db      	uxtb	r3, r3
 8001520:	bf00      	nop
 8001522:	4618      	mov	r0, r3
 8001524:	370c      	adds	r7, #12
 8001526:	46bd      	mov	sp, r7
 8001528:	f85d 7b04 	ldr.w	r7, [sp], #4
 800152c:	4770      	bx	lr
 800152e:	bf00      	nop

08001530 <stm32__usarts__rx_ready>:
 8001530:	b480      	push	{r7}
 8001532:	b083      	sub	sp, #12
 8001534:	af00      	add	r7, sp, #0
 8001536:	6078      	str	r0, [r7, #4]
 8001538:	687b      	ldr	r3, [r7, #4]
 800153a:	685b      	ldr	r3, [r3, #4]
 800153c:	681b      	ldr	r3, [r3, #0]
 800153e:	f3c3 1340 	ubfx	r3, r3, #5, #1
 8001542:	b2db      	uxtb	r3, r3
 8001544:	bf00      	nop
 8001546:	4618      	mov	r0, r3
 8001548:	370c      	adds	r7, #12
 800154a:	46bd      	mov	sp, r7
 800154c:	f85d 7b04 	ldr.w	r7, [sp], #4
 8001550:	4770      	bx	lr
 8001552:	bf00      	nop

08001554 <stm32__usarts__status>:
 8001554:	b580      	push	{r7, lr}
 8001556:	b082      	sub	sp, #8
 8001558:	af00      	add	r7, sp, #0
 800155a:	6078      	str	r0, [r7, #4]
 800155c:	460b      	mov	r3, r1
 800155e:	70fb      	strb	r3, [r7, #3]
 8001560:	78fb      	ldrb	r3, [r7, #3]
 8001562:	2b08      	cmp	r3, #8
 8001564:	d903      	bls.n	800156e <stm32__usarts__status+0x1a>
 8001566:	482f      	ldr	r0, [pc, #188]	; (8001624 <stm32__usarts__status+0xd0>)
 8001568:	21f9      	movs	r1, #249	; 0xf9
 800156a:	f006 fd29 	bl	8007fc0 <__gnat_last_chance_handler>
 800156e:	78fb      	ldrb	r3, [r7, #3]
 8001570:	2b07      	cmp	r3, #7
 8001572:	d84b      	bhi.n	800160c <stm32__usarts__status+0xb8>
 8001574:	a201      	add	r2, pc, #4	; (adr r2, 800157c <stm32__usarts__status+0x28>)
 8001576:	f852 f023 	ldr.w	pc, [r2, r3, lsl #2]
 800157a:	bf00      	nop
 800157c:	0800159d 	.word	0x0800159d
 8001580:	080015ab 	.word	0x080015ab
 8001584:	080015b9 	.word	0x080015b9
 8001588:	080015c7 	.word	0x080015c7
 800158c:	080015d5 	.word	0x080015d5
 8001590:	080015e3 	.word	0x080015e3
 8001594:	080015f1 	.word	0x080015f1
 8001598:	080015ff 	.word	0x080015ff
 800159c:	687b      	ldr	r3, [r7, #4]
 800159e:	685b      	ldr	r3, [r3, #4]
 80015a0:	681b      	ldr	r3, [r3, #0]
 80015a2:	f3c3 0300 	ubfx	r3, r3, #0, #1
 80015a6:	b2db      	uxtb	r3, r3
 80015a8:	e037      	b.n	800161a <stm32__usarts__status+0xc6>
 80015aa:	687b      	ldr	r3, [r7, #4]
 80015ac:	685b      	ldr	r3, [r3, #4]
 80015ae:	681b      	ldr	r3, [r3, #0]
 80015b0:	f3c3 0340 	ubfx	r3, r3, #1, #1
 80015b4:	b2db      	uxtb	r3, r3
 80015b6:	e030      	b.n	800161a <stm32__usarts__status+0xc6>
 80015b8:	687b      	ldr	r3, [r7, #4]
 80015ba:	685b      	ldr	r3, [r3, #4]
 80015bc:	681b      	ldr	r3, [r3, #0]
 80015be:	f3c3 03c0 	ubfx	r3, r3, #3, #1
 80015c2:	b2db      	uxtb	r3, r3
 80015c4:	e029      	b.n	800161a <stm32__usarts__status+0xc6>
 80015c6:	687b      	ldr	r3, [r7, #4]
 80015c8:	685b      	ldr	r3, [r3, #4]
 80015ca:	681b      	ldr	r3, [r3, #0]
 80015cc:	f3c3 1300 	ubfx	r3, r3, #4, #1
 80015d0:	b2db      	uxtb	r3, r3
 80015d2:	e022      	b.n	800161a <stm32__usarts__status+0xc6>
 80015d4:	687b      	ldr	r3, [r7, #4]
 80015d6:	685b      	ldr	r3, [r3, #4]
 80015d8:	681b      	ldr	r3, [r3, #0]
 80015da:	f3c3 1340 	ubfx	r3, r3, #5, #1
 80015de:	b2db      	uxtb	r3, r3
 80015e0:	e01b      	b.n	800161a <stm32__usarts__status+0xc6>
 80015e2:	687b      	ldr	r3, [r7, #4]
 80015e4:	685b      	ldr	r3, [r3, #4]
 80015e6:	681b      	ldr	r3, [r3, #0]
 80015e8:	f3c3 1380 	ubfx	r3, r3, #6, #1
 80015ec:	b2db      	uxtb	r3, r3
 80015ee:	e014      	b.n	800161a <stm32__usarts__status+0xc6>
 80015f0:	687b      	ldr	r3, [r7, #4]
 80015f2:	685b      	ldr	r3, [r3, #4]
 80015f4:	681b      	ldr	r3, [r3, #0]
 80015f6:	f3c3 13c0 	ubfx	r3, r3, #7, #1
 80015fa:	b2db      	uxtb	r3, r3
 80015fc:	e00d      	b.n	800161a <stm32__usarts__status+0xc6>
 80015fe:	687b      	ldr	r3, [r7, #4]
 8001600:	685b      	ldr	r3, [r3, #4]
 8001602:	681b      	ldr	r3, [r3, #0]
 8001604:	f3c3 2300 	ubfx	r3, r3, #8, #1
 8001608:	b2db      	uxtb	r3, r3
 800160a:	e006      	b.n	800161a <stm32__usarts__status+0xc6>
 800160c:	687b      	ldr	r3, [r7, #4]
 800160e:	685b      	ldr	r3, [r3, #4]
 8001610:	681b      	ldr	r3, [r3, #0]
 8001612:	f3c3 2340 	ubfx	r3, r3, #9, #1
 8001616:	b2db      	uxtb	r3, r3
 8001618:	bf00      	nop
 800161a:	bf00      	nop
 800161c:	4618      	mov	r0, r3
 800161e:	3708      	adds	r7, #8
 8001620:	46bd      	mov	sp, r7
 8001622:	bd80      	pop	{r7, pc}
 8001624:	08008c90 	.word	0x08008c90

08001628 <stm32__usarts__clear_status>:
 8001628:	b580      	push	{r7, lr}
 800162a:	b082      	sub	sp, #8
 800162c:	af00      	add	r7, sp, #0
 800162e:	6078      	str	r0, [r7, #4]
 8001630:	460b      	mov	r3, r1
 8001632:	70fb      	strb	r3, [r7, #3]
 8001634:	78fb      	ldrb	r3, [r7, #3]
 8001636:	2b08      	cmp	r3, #8
 8001638:	d904      	bls.n	8001644 <stm32__usarts__clear_status+0x1c>
 800163a:	4837      	ldr	r0, [pc, #220]	; (8001718 <stm32__usarts__clear_status+0xf0>)
 800163c:	f240 1117 	movw	r1, #279	; 0x117
 8001640:	f006 fcbe 	bl	8007fc0 <__gnat_last_chance_handler>
 8001644:	78fb      	ldrb	r3, [r7, #3]
 8001646:	2b07      	cmp	r3, #7
 8001648:	d85a      	bhi.n	8001700 <stm32__usarts__clear_status+0xd8>
 800164a:	a201      	add	r2, pc, #4	; (adr r2, 8001650 <stm32__usarts__clear_status+0x28>)
 800164c:	f852 f023 	ldr.w	pc, [r2, r3, lsl #2]
 8001650:	08001671 	.word	0x08001671
 8001654:	08001683 	.word	0x08001683
 8001658:	08001695 	.word	0x08001695
 800165c:	080016a7 	.word	0x080016a7
 8001660:	080016b9 	.word	0x080016b9
 8001664:	080016cb 	.word	0x080016cb
 8001668:	080016dd 	.word	0x080016dd
 800166c:	080016ef 	.word	0x080016ef
 8001670:	687b      	ldr	r3, [r7, #4]
 8001672:	685b      	ldr	r3, [r3, #4]
 8001674:	681b      	ldr	r3, [r3, #0]
 8001676:	f36f 0300 	bfc	r3, #0, #1
 800167a:	687a      	ldr	r2, [r7, #4]
 800167c:	6852      	ldr	r2, [r2, #4]
 800167e:	6013      	str	r3, [r2, #0]
 8001680:	e046      	b.n	8001710 <stm32__usarts__clear_status+0xe8>
 8001682:	687b      	ldr	r3, [r7, #4]
 8001684:	685b      	ldr	r3, [r3, #4]
 8001686:	681b      	ldr	r3, [r3, #0]
 8001688:	f36f 0341 	bfc	r3, #1, #1
 800168c:	687a      	ldr	r2, [r7, #4]
 800168e:	6852      	ldr	r2, [r2, #4]
 8001690:	6013      	str	r3, [r2, #0]
 8001692:	e03d      	b.n	8001710 <stm32__usarts__clear_status+0xe8>
 8001694:	687b      	ldr	r3, [r7, #4]
 8001696:	685b      	ldr	r3, [r3, #4]
 8001698:	681b      	ldr	r3, [r3, #0]
 800169a:	f36f 03c3 	bfc	r3, #3, #1
 800169e:	687a      	ldr	r2, [r7, #4]
 80016a0:	6852      	ldr	r2, [r2, #4]
 80016a2:	6013      	str	r3, [r2, #0]
 80016a4:	e034      	b.n	8001710 <stm32__usarts__clear_status+0xe8>
 80016a6:	687b      	ldr	r3, [r7, #4]
 80016a8:	685b      	ldr	r3, [r3, #4]
 80016aa:	681b      	ldr	r3, [r3, #0]
 80016ac:	f36f 1304 	bfc	r3, #4, #1
 80016b0:	687a      	ldr	r2, [r7, #4]
 80016b2:	6852      	ldr	r2, [r2, #4]
 80016b4:	6013      	str	r3, [r2, #0]
 80016b6:	e02b      	b.n	8001710 <stm32__usarts__clear_status+0xe8>
 80016b8:	687b      	ldr	r3, [r7, #4]
 80016ba:	685b      	ldr	r3, [r3, #4]
 80016bc:	681b      	ldr	r3, [r3, #0]
 80016be:	f36f 1345 	bfc	r3, #5, #1
 80016c2:	687a      	ldr	r2, [r7, #4]
 80016c4:	6852      	ldr	r2, [r2, #4]
 80016c6:	6013      	str	r3, [r2, #0]
 80016c8:	e022      	b.n	8001710 <stm32__usarts__clear_status+0xe8>
 80016ca:	687b      	ldr	r3, [r7, #4]
 80016cc:	685b      	ldr	r3, [r3, #4]
 80016ce:	681b      	ldr	r3, [r3, #0]
 80016d0:	f36f 1386 	bfc	r3, #6, #1
 80016d4:	687a      	ldr	r2, [r7, #4]
 80016d6:	6852      	ldr	r2, [r2, #4]
 80016d8:	6013      	str	r3, [r2, #0]
 80016da:	e019      	b.n	8001710 <stm32__usarts__clear_status+0xe8>
 80016dc:	687b      	ldr	r3, [r7, #4]
 80016de:	685b      	ldr	r3, [r3, #4]
 80016e0:	681b      	ldr	r3, [r3, #0]
 80016e2:	f36f 13c7 	bfc	r3, #7, #1
 80016e6:	687a      	ldr	r2, [r7, #4]
 80016e8:	6852      	ldr	r2, [r2, #4]
 80016ea:	6013      	str	r3, [r2, #0]
 80016ec:	e010      	b.n	8001710 <stm32__usarts__clear_status+0xe8>
 80016ee:	687b      	ldr	r3, [r7, #4]
 80016f0:	685b      	ldr	r3, [r3, #4]
 80016f2:	681b      	ldr	r3, [r3, #0]
 80016f4:	f36f 2308 	bfc	r3, #8, #1
 80016f8:	687a      	ldr	r2, [r7, #4]
 80016fa:	6852      	ldr	r2, [r2, #4]
 80016fc:	6013      	str	r3, [r2, #0]
 80016fe:	e007      	b.n	8001710 <stm32__usarts__clear_status+0xe8>
 8001700:	687b      	ldr	r3, [r7, #4]
 8001702:	685b      	ldr	r3, [r3, #4]
 8001704:	681b      	ldr	r3, [r3, #0]
 8001706:	f36f 2349 	bfc	r3, #9, #1
 800170a:	687a      	ldr	r2, [r7, #4]
 800170c:	6852      	ldr	r2, [r2, #4]
 800170e:	6013      	str	r3, [r2, #0]
 8001710:	bf00      	nop
 8001712:	3708      	adds	r7, #8
 8001714:	46bd      	mov	sp, r7
 8001716:	bd80      	pop	{r7, pc}
 8001718:	08008c90 	.word	0x08008c90

0800171c <stm32__usarts__enable_interrupts___postconditions.4841>:
 800171c:	b5b0      	push	{r4, r5, r7, lr}
 800171e:	b082      	sub	sp, #8
 8001720:	af00      	add	r7, sp, #0
 8001722:	4663      	mov	r3, ip
 8001724:	f8c7 c004 	str.w	ip, [r7, #4]
 8001728:	681a      	ldr	r2, [r3, #0]
 800172a:	791b      	ldrb	r3, [r3, #4]
 800172c:	4610      	mov	r0, r2
 800172e:	4619      	mov	r1, r3
 8001730:	f000 f958 	bl	80019e4 <stm32__usarts__interrupt_enabled>
 8001734:	4603      	mov	r3, r0
 8001736:	f083 0301 	eor.w	r3, r3, #1
 800173a:	b2db      	uxtb	r3, r3
 800173c:	2b00      	cmp	r3, #0
 800173e:	d005      	beq.n	800174c <stm32__usarts__enable_interrupts___postconditions.4841+0x30>
 8001740:	4c04      	ldr	r4, [pc, #16]	; (8001754 <stm32__usarts__enable_interrupts___postconditions.4841+0x38>)
 8001742:	4d05      	ldr	r5, [pc, #20]	; (8001758 <stm32__usarts__enable_interrupts___postconditions.4841+0x3c>)
 8001744:	4620      	mov	r0, r4
 8001746:	4629      	mov	r1, r5
 8001748:	f006 fc72 	bl	8008030 <system__assertions__raise_assert_failure>
 800174c:	3708      	adds	r7, #8
 800174e:	46bd      	mov	sp, r7
 8001750:	bdb0      	pop	{r4, r5, r7, pc}
 8001752:	bf00      	nop
 8001754:	08008ca4 	.word	0x08008ca4
 8001758:	08008cd4 	.word	0x08008cd4

0800175c <stm32__usarts__enable_interrupts>:
 800175c:	b580      	push	{r7, lr}
 800175e:	b086      	sub	sp, #24
 8001760:	af00      	add	r7, sp, #0
 8001762:	6078      	str	r0, [r7, #4]
 8001764:	460b      	mov	r3, r1
 8001766:	70fb      	strb	r3, [r7, #3]
 8001768:	f107 0320 	add.w	r3, r7, #32
 800176c:	617b      	str	r3, [r7, #20]
 800176e:	687b      	ldr	r3, [r7, #4]
 8001770:	60fb      	str	r3, [r7, #12]
 8001772:	78fb      	ldrb	r3, [r7, #3]
 8001774:	743b      	strb	r3, [r7, #16]
 8001776:	7c3b      	ldrb	r3, [r7, #16]
 8001778:	2b07      	cmp	r3, #7
 800177a:	d904      	bls.n	8001786 <stm32__usarts__enable_interrupts+0x2a>
 800177c:	4844      	ldr	r0, [pc, #272]	; (8001890 <stm32__usarts__enable_interrupts+0x134>)
 800177e:	f44f 719c 	mov.w	r1, #312	; 0x138
 8001782:	f006 fc1d 	bl	8007fc0 <__gnat_last_chance_handler>
 8001786:	7c3b      	ldrb	r3, [r7, #16]
 8001788:	2b06      	cmp	r3, #6
 800178a:	d86c      	bhi.n	8001866 <stm32__usarts__enable_interrupts+0x10a>
 800178c:	a201      	add	r2, pc, #4	; (adr r2, 8001794 <stm32__usarts__enable_interrupts+0x38>)
 800178e:	f852 f023 	ldr.w	pc, [r2, r3, lsl #2]
 8001792:	bf00      	nop
 8001794:	080017b1 	.word	0x080017b1
 8001798:	080017cb 	.word	0x080017cb
 800179c:	080017e5 	.word	0x080017e5
 80017a0:	080017ff 	.word	0x080017ff
 80017a4:	08001819 	.word	0x08001819
 80017a8:	08001833 	.word	0x08001833
 80017ac:	0800184d 	.word	0x0800184d
 80017b0:	68fb      	ldr	r3, [r7, #12]
 80017b2:	685b      	ldr	r3, [r3, #4]
 80017b4:	330c      	adds	r3, #12
 80017b6:	681b      	ldr	r3, [r3, #0]
 80017b8:	461a      	mov	r2, r3
 80017ba:	4613      	mov	r3, r2
 80017bc:	f443 7280 	orr.w	r2, r3, #256	; 0x100
 80017c0:	68fb      	ldr	r3, [r7, #12]
 80017c2:	685b      	ldr	r3, [r3, #4]
 80017c4:	330c      	adds	r3, #12
 80017c6:	601a      	str	r2, [r3, #0]
 80017c8:	e059      	b.n	800187e <stm32__usarts__enable_interrupts+0x122>
 80017ca:	68fb      	ldr	r3, [r7, #12]
 80017cc:	685b      	ldr	r3, [r3, #4]
 80017ce:	330c      	adds	r3, #12
 80017d0:	681b      	ldr	r3, [r3, #0]
 80017d2:	461a      	mov	r2, r3
 80017d4:	4613      	mov	r3, r2
 80017d6:	f043 0280 	orr.w	r2, r3, #128	; 0x80
 80017da:	68fb      	ldr	r3, [r7, #12]
 80017dc:	685b      	ldr	r3, [r3, #4]
 80017de:	330c      	adds	r3, #12
 80017e0:	601a      	str	r2, [r3, #0]
 80017e2:	e04c      	b.n	800187e <stm32__usarts__enable_interrupts+0x122>
 80017e4:	68fb      	ldr	r3, [r7, #12]
 80017e6:	685b      	ldr	r3, [r3, #4]
 80017e8:	330c      	adds	r3, #12
 80017ea:	681b      	ldr	r3, [r3, #0]
 80017ec:	461a      	mov	r2, r3
 80017ee:	4613      	mov	r3, r2
 80017f0:	f043 0240 	orr.w	r2, r3, #64	; 0x40
 80017f4:	68fb      	ldr	r3, [r7, #12]
 80017f6:	685b      	ldr	r3, [r3, #4]
 80017f8:	330c      	adds	r3, #12
 80017fa:	601a      	str	r2, [r3, #0]
 80017fc:	e03f      	b.n	800187e <stm32__usarts__enable_interrupts+0x122>
 80017fe:	68fb      	ldr	r3, [r7, #12]
 8001800:	685b      	ldr	r3, [r3, #4]
 8001802:	330c      	adds	r3, #12
 8001804:	681b      	ldr	r3, [r3, #0]
 8001806:	461a      	mov	r2, r3
 8001808:	4613      	mov	r3, r2
 800180a:	f043 0220 	orr.w	r2, r3, #32
 800180e:	68fb      	ldr	r3, [r7, #12]
 8001810:	685b      	ldr	r3, [r3, #4]
 8001812:	330c      	adds	r3, #12
 8001814:	601a      	str	r2, [r3, #0]
 8001816:	e032      	b.n	800187e <stm32__usarts__enable_interrupts+0x122>
 8001818:	68fb      	ldr	r3, [r7, #12]
 800181a:	685b      	ldr	r3, [r3, #4]
 800181c:	330c      	adds	r3, #12
 800181e:	681b      	ldr	r3, [r3, #0]
 8001820:	461a      	mov	r2, r3
 8001822:	4613      	mov	r3, r2
 8001824:	f043 0210 	orr.w	r2, r3, #16
 8001828:	68fb      	ldr	r3, [r7, #12]
 800182a:	685b      	ldr	r3, [r3, #4]
 800182c:	330c      	adds	r3, #12
 800182e:	601a      	str	r2, [r3, #0]
 8001830:	e025      	b.n	800187e <stm32__usarts__enable_interrupts+0x122>
 8001832:	68fb      	ldr	r3, [r7, #12]
 8001834:	685b      	ldr	r3, [r3, #4]
 8001836:	3310      	adds	r3, #16
 8001838:	681b      	ldr	r3, [r3, #0]
 800183a:	461a      	mov	r2, r3
 800183c:	4613      	mov	r3, r2
 800183e:	f043 0240 	orr.w	r2, r3, #64	; 0x40
 8001842:	68fb      	ldr	r3, [r7, #12]
 8001844:	685b      	ldr	r3, [r3, #4]
 8001846:	3310      	adds	r3, #16
 8001848:	601a      	str	r2, [r3, #0]
 800184a:	e018      	b.n	800187e <stm32__usarts__enable_interrupts+0x122>
 800184c:	68fb      	ldr	r3, [r7, #12]
 800184e:	685b      	ldr	r3, [r3, #4]
 8001850:	3314      	adds	r3, #20
 8001852:	681b      	ldr	r3, [r3, #0]
 8001854:	461a      	mov	r2, r3
 8001856:	4613      	mov	r3, r2
 8001858:	f443 6280 	orr.w	r2, r3, #1024	; 0x400
 800185c:	68fb      	ldr	r3, [r7, #12]
 800185e:	685b      	ldr	r3, [r3, #4]
 8001860:	3314      	adds	r3, #20
 8001862:	601a      	str	r2, [r3, #0]
 8001864:	e00b      	b.n	800187e <stm32__usarts__enable_interrupts+0x122>
 8001866:	68fb      	ldr	r3, [r7, #12]
 8001868:	685b      	ldr	r3, [r3, #4]
 800186a:	3314      	adds	r3, #20
 800186c:	681b      	ldr	r3, [r3, #0]
 800186e:	461a      	mov	r2, r3
 8001870:	4613      	mov	r3, r2
 8001872:	f043 0201 	orr.w	r2, r3, #1
 8001876:	68fb      	ldr	r3, [r7, #12]
 8001878:	685b      	ldr	r3, [r3, #4]
 800187a:	3314      	adds	r3, #20
 800187c:	601a      	str	r2, [r3, #0]
 800187e:	bf00      	nop
 8001880:	f107 030c 	add.w	r3, r7, #12
 8001884:	469c      	mov	ip, r3
 8001886:	f7ff ff49 	bl	800171c <stm32__usarts__enable_interrupts___postconditions.4841>
 800188a:	3718      	adds	r7, #24
 800188c:	46bd      	mov	sp, r7
 800188e:	bd80      	pop	{r7, pc}
 8001890:	08008c90 	.word	0x08008c90

08001894 <stm32__usarts__disable_interrupts___postconditions.4854>:
 8001894:	b5b0      	push	{r4, r5, r7, lr}
 8001896:	b082      	sub	sp, #8
 8001898:	af00      	add	r7, sp, #0
 800189a:	4663      	mov	r3, ip
 800189c:	f8c7 c004 	str.w	ip, [r7, #4]
 80018a0:	681a      	ldr	r2, [r3, #0]
 80018a2:	791b      	ldrb	r3, [r3, #4]
 80018a4:	4610      	mov	r0, r2
 80018a6:	4619      	mov	r1, r3
 80018a8:	f000 f89c 	bl	80019e4 <stm32__usarts__interrupt_enabled>
 80018ac:	4603      	mov	r3, r0
 80018ae:	2b00      	cmp	r3, #0
 80018b0:	d005      	beq.n	80018be <stm32__usarts__disable_interrupts___postconditions.4854+0x2a>
 80018b2:	4c04      	ldr	r4, [pc, #16]	; (80018c4 <stm32__usarts__disable_interrupts___postconditions.4854+0x30>)
 80018b4:	4d04      	ldr	r5, [pc, #16]	; (80018c8 <stm32__usarts__disable_interrupts___postconditions.4854+0x34>)
 80018b6:	4620      	mov	r0, r4
 80018b8:	4629      	mov	r1, r5
 80018ba:	f006 fbb9 	bl	8008030 <system__assertions__raise_assert_failure>
 80018be:	3708      	adds	r7, #8
 80018c0:	46bd      	mov	sp, r7
 80018c2:	bdb0      	pop	{r4, r5, r7, pc}
 80018c4:	08008cdc 	.word	0x08008cdc
 80018c8:	08008cd4 	.word	0x08008cd4

080018cc <stm32__usarts__disable_interrupts>:
 80018cc:	b580      	push	{r7, lr}
 80018ce:	b086      	sub	sp, #24
 80018d0:	af00      	add	r7, sp, #0
 80018d2:	6078      	str	r0, [r7, #4]
 80018d4:	460b      	mov	r3, r1
 80018d6:	70fb      	strb	r3, [r7, #3]
 80018d8:	f107 0320 	add.w	r3, r7, #32
 80018dc:	617b      	str	r3, [r7, #20]
 80018de:	687b      	ldr	r3, [r7, #4]
 80018e0:	60fb      	str	r3, [r7, #12]
 80018e2:	78fb      	ldrb	r3, [r7, #3]
 80018e4:	743b      	strb	r3, [r7, #16]
 80018e6:	7c3b      	ldrb	r3, [r7, #16]
 80018e8:	2b07      	cmp	r3, #7
 80018ea:	d904      	bls.n	80018f6 <stm32__usarts__disable_interrupts+0x2a>
 80018ec:	483c      	ldr	r0, [pc, #240]	; (80019e0 <stm32__usarts__disable_interrupts+0x114>)
 80018ee:	f240 1155 	movw	r1, #341	; 0x155
 80018f2:	f006 fb65 	bl	8007fc0 <__gnat_last_chance_handler>
 80018f6:	7c3b      	ldrb	r3, [r7, #16]
 80018f8:	2b06      	cmp	r3, #6
 80018fa:	d85e      	bhi.n	80019ba <stm32__usarts__disable_interrupts+0xee>
 80018fc:	a201      	add	r2, pc, #4	; (adr r2, 8001904 <stm32__usarts__disable_interrupts+0x38>)
 80018fe:	f852 f023 	ldr.w	pc, [r2, r3, lsl #2]
 8001902:	bf00      	nop
 8001904:	08001921 	.word	0x08001921
 8001908:	08001937 	.word	0x08001937
 800190c:	0800194d 	.word	0x0800194d
 8001910:	08001963 	.word	0x08001963
 8001914:	08001979 	.word	0x08001979
 8001918:	0800198f 	.word	0x0800198f
 800191c:	080019a5 	.word	0x080019a5
 8001920:	68fb      	ldr	r3, [r7, #12]
 8001922:	685b      	ldr	r3, [r3, #4]
 8001924:	330c      	adds	r3, #12
 8001926:	681b      	ldr	r3, [r3, #0]
 8001928:	f36f 2308 	bfc	r3, #8, #1
 800192c:	68fa      	ldr	r2, [r7, #12]
 800192e:	6852      	ldr	r2, [r2, #4]
 8001930:	320c      	adds	r2, #12
 8001932:	6013      	str	r3, [r2, #0]
 8001934:	e04b      	b.n	80019ce <stm32__usarts__disable_interrupts+0x102>
 8001936:	68fb      	ldr	r3, [r7, #12]
 8001938:	685b      	ldr	r3, [r3, #4]
 800193a:	330c      	adds	r3, #12
 800193c:	681b      	ldr	r3, [r3, #0]
 800193e:	f36f 13c7 	bfc	r3, #7, #1
 8001942:	68fa      	ldr	r2, [r7, #12]
 8001944:	6852      	ldr	r2, [r2, #4]
 8001946:	320c      	adds	r2, #12
 8001948:	6013      	str	r3, [r2, #0]
 800194a:	e040      	b.n	80019ce <stm32__usarts__disable_interrupts+0x102>
 800194c:	68fb      	ldr	r3, [r7, #12]
 800194e:	685b      	ldr	r3, [r3, #4]
 8001950:	330c      	adds	r3, #12
 8001952:	681b      	ldr	r3, [r3, #0]
 8001954:	f36f 1386 	bfc	r3, #6, #1
 8001958:	68fa      	ldr	r2, [r7, #12]
 800195a:	6852      	ldr	r2, [r2, #4]
 800195c:	320c      	adds	r2, #12
 800195e:	6013      	str	r3, [r2, #0]
 8001960:	e035      	b.n	80019ce <stm32__usarts__disable_interrupts+0x102>
 8001962:	68fb      	ldr	r3, [r7, #12]
 8001964:	685b      	ldr	r3, [r3, #4]
 8001966:	330c      	adds	r3, #12
 8001968:	681b      	ldr	r3, [r3, #0]
 800196a:	f36f 1345 	bfc	r3, #5, #1
 800196e:	68fa      	ldr	r2, [r7, #12]
 8001970:	6852      	ldr	r2, [r2, #4]
 8001972:	320c      	adds	r2, #12
 8001974:	6013      	str	r3, [r2, #0]
 8001976:	e02a      	b.n	80019ce <stm32__usarts__disable_interrupts+0x102>
 8001978:	68fb      	ldr	r3, [r7, #12]
 800197a:	685b      	ldr	r3, [r3, #4]
 800197c:	330c      	adds	r3, #12
 800197e:	681b      	ldr	r3, [r3, #0]
 8001980:	f36f 1304 	bfc	r3, #4, #1
 8001984:	68fa      	ldr	r2, [r7, #12]
 8001986:	6852      	ldr	r2, [r2, #4]
 8001988:	320c      	adds	r2, #12
 800198a:	6013      	str	r3, [r2, #0]
 800198c:	e01f      	b.n	80019ce <stm32__usarts__disable_interrupts+0x102>
 800198e:	68fb      	ldr	r3, [r7, #12]
 8001990:	685b      	ldr	r3, [r3, #4]
 8001992:	3310      	adds	r3, #16
 8001994:	681b      	ldr	r3, [r3, #0]
 8001996:	f36f 1386 	bfc	r3, #6, #1
 800199a:	68fa      	ldr	r2, [r7, #12]
 800199c:	6852      	ldr	r2, [r2, #4]
 800199e:	3210      	adds	r2, #16
 80019a0:	6013      	str	r3, [r2, #0]
 80019a2:	e014      	b.n	80019ce <stm32__usarts__disable_interrupts+0x102>
 80019a4:	68fb      	ldr	r3, [r7, #12]
 80019a6:	685b      	ldr	r3, [r3, #4]
 80019a8:	3314      	adds	r3, #20
 80019aa:	681b      	ldr	r3, [r3, #0]
 80019ac:	f36f 238a 	bfc	r3, #10, #1
 80019b0:	68fa      	ldr	r2, [r7, #12]
 80019b2:	6852      	ldr	r2, [r2, #4]
 80019b4:	3214      	adds	r2, #20
 80019b6:	6013      	str	r3, [r2, #0]
 80019b8:	e009      	b.n	80019ce <stm32__usarts__disable_interrupts+0x102>
 80019ba:	68fb      	ldr	r3, [r7, #12]
 80019bc:	685b      	ldr	r3, [r3, #4]
 80019be:	3314      	adds	r3, #20
 80019c0:	681b      	ldr	r3, [r3, #0]
 80019c2:	f36f 0300 	bfc	r3, #0, #1
 80019c6:	68fa      	ldr	r2, [r7, #12]
 80019c8:	6852      	ldr	r2, [r2, #4]
 80019ca:	3214      	adds	r2, #20
 80019cc:	6013      	str	r3, [r2, #0]
 80019ce:	bf00      	nop
 80019d0:	f107 030c 	add.w	r3, r7, #12
 80019d4:	469c      	mov	ip, r3
 80019d6:	f7ff ff5d 	bl	8001894 <stm32__usarts__disable_interrupts___postconditions.4854>
 80019da:	3718      	adds	r7, #24
 80019dc:	46bd      	mov	sp, r7
 80019de:	bd80      	pop	{r7, pc}
 80019e0:	08008c90 	.word	0x08008c90

080019e4 <stm32__usarts__interrupt_enabled>:
 80019e4:	b580      	push	{r7, lr}
 80019e6:	b082      	sub	sp, #8
 80019e8:	af00      	add	r7, sp, #0
 80019ea:	6078      	str	r0, [r7, #4]
 80019ec:	460b      	mov	r3, r1
 80019ee:	70fb      	strb	r3, [r7, #3]
 80019f0:	78fb      	ldrb	r3, [r7, #3]
 80019f2:	2b07      	cmp	r3, #7
 80019f4:	d904      	bls.n	8001a00 <stm32__usarts__interrupt_enabled+0x1c>
 80019f6:	482f      	ldr	r0, [pc, #188]	; (8001ab4 <stm32__usarts__interrupt_enabled+0xd0>)
 80019f8:	f240 1173 	movw	r1, #371	; 0x173
 80019fc:	f006 fae0 	bl	8007fc0 <__gnat_last_chance_handler>
 8001a00:	78fb      	ldrb	r3, [r7, #3]
 8001a02:	2b06      	cmp	r3, #6
 8001a04:	d848      	bhi.n	8001a98 <stm32__usarts__interrupt_enabled+0xb4>
 8001a06:	a201      	add	r2, pc, #4	; (adr r2, 8001a0c <stm32__usarts__interrupt_enabled+0x28>)
 8001a08:	f852 f023 	ldr.w	pc, [r2, r3, lsl #2]
 8001a0c:	08001a29 	.word	0x08001a29
 8001a10:	08001a39 	.word	0x08001a39
 8001a14:	08001a49 	.word	0x08001a49
 8001a18:	08001a59 	.word	0x08001a59
 8001a1c:	08001a69 	.word	0x08001a69
 8001a20:	08001a79 	.word	0x08001a79
 8001a24:	08001a89 	.word	0x08001a89
 8001a28:	687b      	ldr	r3, [r7, #4]
 8001a2a:	685b      	ldr	r3, [r3, #4]
 8001a2c:	330c      	adds	r3, #12
 8001a2e:	681b      	ldr	r3, [r3, #0]
 8001a30:	f3c3 2300 	ubfx	r3, r3, #8, #1
 8001a34:	b2db      	uxtb	r3, r3
 8001a36:	e037      	b.n	8001aa8 <stm32__usarts__interrupt_enabled+0xc4>
 8001a38:	687b      	ldr	r3, [r7, #4]
 8001a3a:	685b      	ldr	r3, [r3, #4]
 8001a3c:	330c      	adds	r3, #12
 8001a3e:	681b      	ldr	r3, [r3, #0]
 8001a40:	f3c3 13c0 	ubfx	r3, r3, #7, #1
 8001a44:	b2db      	uxtb	r3, r3
 8001a46:	e02f      	b.n	8001aa8 <stm32__usarts__interrupt_enabled+0xc4>
 8001a48:	687b      	ldr	r3, [r7, #4]
 8001a4a:	685b      	ldr	r3, [r3, #4]
 8001a4c:	330c      	adds	r3, #12
 8001a4e:	681b      	ldr	r3, [r3, #0]
 8001a50:	f3c3 1380 	ubfx	r3, r3, #6, #1
 8001a54:	b2db      	uxtb	r3, r3
 8001a56:	e027      	b.n	8001aa8 <stm32__usarts__interrupt_enabled+0xc4>
 8001a58:	687b      	ldr	r3, [r7, #4]
 8001a5a:	685b      	ldr	r3, [r3, #4]
 8001a5c:	330c      	adds	r3, #12
 8001a5e:	681b      	ldr	r3, [r3, #0]
 8001a60:	f3c3 1340 	ubfx	r3, r3, #5, #1
 8001a64:	b2db      	uxtb	r3, r3
 8001a66:	e01f      	b.n	8001aa8 <stm32__usarts__interrupt_enabled+0xc4>
 8001a68:	687b      	ldr	r3, [r7, #4]
 8001a6a:	685b      	ldr	r3, [r3, #4]
 8001a6c:	330c      	adds	r3, #12
 8001a6e:	681b      	ldr	r3, [r3, #0]
 8001a70:	f3c3 1300 	ubfx	r3, r3, #4, #1
 8001a74:	b2db      	uxtb	r3, r3
 8001a76:	e017      	b.n	8001aa8 <stm32__usarts__interrupt_enabled+0xc4>
 8001a78:	687b      	ldr	r3, [r7, #4]
 8001a7a:	685b      	ldr	r3, [r3, #4]
 8001a7c:	3310      	adds	r3, #16
 8001a7e:	681b      	ldr	r3, [r3, #0]
 8001a80:	f3c3 1380 	ubfx	r3, r3, #6, #1
 8001a84:	b2db      	uxtb	r3, r3
 8001a86:	e00f      	b.n	8001aa8 <stm32__usarts__interrupt_enabled+0xc4>
 8001a88:	687b      	ldr	r3, [r7, #4]
 8001a8a:	685b      	ldr	r3, [r3, #4]
 8001a8c:	3314      	adds	r3, #20
 8001a8e:	681b      	ldr	r3, [r3, #0]
 8001a90:	f3c3 2380 	ubfx	r3, r3, #10, #1
 8001a94:	b2db      	uxtb	r3, r3
 8001a96:	e007      	b.n	8001aa8 <stm32__usarts__interrupt_enabled+0xc4>
 8001a98:	687b      	ldr	r3, [r7, #4]
 8001a9a:	685b      	ldr	r3, [r3, #4]
 8001a9c:	3314      	adds	r3, #20
 8001a9e:	681b      	ldr	r3, [r3, #0]
 8001aa0:	f3c3 0300 	ubfx	r3, r3, #0, #1
 8001aa4:	b2db      	uxtb	r3, r3
 8001aa6:	bf00      	nop
 8001aa8:	bf00      	nop
 8001aaa:	4618      	mov	r0, r3
 8001aac:	3708      	adds	r7, #8
 8001aae:	46bd      	mov	sp, r7
 8001ab0:	bd80      	pop	{r7, pc}
 8001ab2:	bf00      	nop
 8001ab4:	08008c90 	.word	0x08008c90

08001ab8 <stm32__usarts__enable_dma_transmit_requests___postconditions.4889>:
 8001ab8:	b5b0      	push	{r4, r5, r7, lr}
 8001aba:	b082      	sub	sp, #8
 8001abc:	af00      	add	r7, sp, #0
 8001abe:	4663      	mov	r3, ip
 8001ac0:	f8c7 c004 	str.w	ip, [r7, #4]
 8001ac4:	681b      	ldr	r3, [r3, #0]
 8001ac6:	4618      	mov	r0, r3
 8001ac8:	f000 f8da 	bl	8001c80 <stm32__usarts__dma_transmit_requests_enabled>
 8001acc:	4603      	mov	r3, r0
 8001ace:	f083 0301 	eor.w	r3, r3, #1
 8001ad2:	b2db      	uxtb	r3, r3
 8001ad4:	2b00      	cmp	r3, #0
 8001ad6:	d005      	beq.n	8001ae4 <stm32__usarts__enable_dma_transmit_requests___postconditions.4889+0x2c>
 8001ad8:	4c04      	ldr	r4, [pc, #16]	; (8001aec <stm32__usarts__enable_dma_transmit_requests___postconditions.4889+0x34>)
 8001ada:	4d05      	ldr	r5, [pc, #20]	; (8001af0 <stm32__usarts__enable_dma_transmit_requests___postconditions.4889+0x38>)
 8001adc:	4620      	mov	r0, r4
 8001ade:	4629      	mov	r1, r5
 8001ae0:	f006 faa6 	bl	8008030 <system__assertions__raise_assert_failure>
 8001ae4:	3708      	adds	r7, #8
 8001ae6:	46bd      	mov	sp, r7
 8001ae8:	bdb0      	pop	{r4, r5, r7, pc}
 8001aea:	bf00      	nop
 8001aec:	08008d0c 	.word	0x08008d0c
 8001af0:	08008cd4 	.word	0x08008cd4

08001af4 <stm32__usarts__enable_dma_transmit_requests>:
 8001af4:	b580      	push	{r7, lr}
 8001af6:	b084      	sub	sp, #16
 8001af8:	af00      	add	r7, sp, #0
 8001afa:	6078      	str	r0, [r7, #4]
 8001afc:	f107 0318 	add.w	r3, r7, #24
 8001b00:	60fb      	str	r3, [r7, #12]
 8001b02:	687b      	ldr	r3, [r7, #4]
 8001b04:	60bb      	str	r3, [r7, #8]
 8001b06:	68bb      	ldr	r3, [r7, #8]
 8001b08:	685b      	ldr	r3, [r3, #4]
 8001b0a:	3314      	adds	r3, #20
 8001b0c:	681b      	ldr	r3, [r3, #0]
 8001b0e:	461a      	mov	r2, r3
 8001b10:	4613      	mov	r3, r2
 8001b12:	f043 0280 	orr.w	r2, r3, #128	; 0x80
 8001b16:	68bb      	ldr	r3, [r7, #8]
 8001b18:	685b      	ldr	r3, [r3, #4]
 8001b1a:	3314      	adds	r3, #20
 8001b1c:	601a      	str	r2, [r3, #0]
 8001b1e:	f107 0308 	add.w	r3, r7, #8
 8001b22:	469c      	mov	ip, r3
 8001b24:	f7ff ffc8 	bl	8001ab8 <stm32__usarts__enable_dma_transmit_requests___postconditions.4889>
 8001b28:	3710      	adds	r7, #16
 8001b2a:	46bd      	mov	sp, r7
 8001b2c:	bd80      	pop	{r7, pc}
 8001b2e:	bf00      	nop

08001b30 <stm32__usarts__enable_dma_receive_requests___postconditions.4893>:
 8001b30:	b5b0      	push	{r4, r5, r7, lr}
 8001b32:	b082      	sub	sp, #8
 8001b34:	af00      	add	r7, sp, #0
 8001b36:	4663      	mov	r3, ip
 8001b38:	f8c7 c004 	str.w	ip, [r7, #4]
 8001b3c:	681b      	ldr	r3, [r3, #0]
 8001b3e:	4618      	mov	r0, r3
 8001b40:	f000 f8b0 	bl	8001ca4 <stm32__usarts__dma_receive_requests_enabled>
 8001b44:	4603      	mov	r3, r0
 8001b46:	f083 0301 	eor.w	r3, r3, #1
 8001b4a:	b2db      	uxtb	r3, r3
 8001b4c:	2b00      	cmp	r3, #0
 8001b4e:	d005      	beq.n	8001b5c <stm32__usarts__enable_dma_receive_requests___postconditions.4893+0x2c>
 8001b50:	4c04      	ldr	r4, [pc, #16]	; (8001b64 <stm32__usarts__enable_dma_receive_requests___postconditions.4893+0x34>)
 8001b52:	4d05      	ldr	r5, [pc, #20]	; (8001b68 <stm32__usarts__enable_dma_receive_requests___postconditions.4893+0x38>)
 8001b54:	4620      	mov	r0, r4
 8001b56:	4629      	mov	r1, r5
 8001b58:	f006 fa6a 	bl	8008030 <system__assertions__raise_assert_failure>
 8001b5c:	3708      	adds	r7, #8
 8001b5e:	46bd      	mov	sp, r7
 8001b60:	bdb0      	pop	{r4, r5, r7, pc}
 8001b62:	bf00      	nop
 8001b64:	08008d3c 	.word	0x08008d3c
 8001b68:	08008cd4 	.word	0x08008cd4

08001b6c <stm32__usarts__enable_dma_receive_requests>:
 8001b6c:	b580      	push	{r7, lr}
 8001b6e:	b084      	sub	sp, #16
 8001b70:	af00      	add	r7, sp, #0
 8001b72:	6078      	str	r0, [r7, #4]
 8001b74:	f107 0318 	add.w	r3, r7, #24
 8001b78:	60fb      	str	r3, [r7, #12]
 8001b7a:	687b      	ldr	r3, [r7, #4]
 8001b7c:	60bb      	str	r3, [r7, #8]
 8001b7e:	68bb      	ldr	r3, [r7, #8]
 8001b80:	685b      	ldr	r3, [r3, #4]
 8001b82:	3314      	adds	r3, #20
 8001b84:	681b      	ldr	r3, [r3, #0]
 8001b86:	461a      	mov	r2, r3
 8001b88:	4613      	mov	r3, r2
 8001b8a:	f043 0240 	orr.w	r2, r3, #64	; 0x40
 8001b8e:	68bb      	ldr	r3, [r7, #8]
 8001b90:	685b      	ldr	r3, [r3, #4]
 8001b92:	3314      	adds	r3, #20
 8001b94:	601a      	str	r2, [r3, #0]
 8001b96:	f107 0308 	add.w	r3, r7, #8
 8001b9a:	469c      	mov	ip, r3
 8001b9c:	f7ff ffc8 	bl	8001b30 <stm32__usarts__enable_dma_receive_requests___postconditions.4893>
 8001ba0:	3710      	adds	r7, #16
 8001ba2:	46bd      	mov	sp, r7
 8001ba4:	bd80      	pop	{r7, pc}
 8001ba6:	bf00      	nop

08001ba8 <stm32__usarts__disable_dma_transmit_requests___postconditions.4897>:
 8001ba8:	b5b0      	push	{r4, r5, r7, lr}
 8001baa:	b082      	sub	sp, #8
 8001bac:	af00      	add	r7, sp, #0
 8001bae:	4663      	mov	r3, ip
 8001bb0:	f8c7 c004 	str.w	ip, [r7, #4]
 8001bb4:	681b      	ldr	r3, [r3, #0]
 8001bb6:	4618      	mov	r0, r3
 8001bb8:	f000 f862 	bl	8001c80 <stm32__usarts__dma_transmit_requests_enabled>
 8001bbc:	4603      	mov	r3, r0
 8001bbe:	2b00      	cmp	r3, #0
 8001bc0:	d005      	beq.n	8001bce <stm32__usarts__disable_dma_transmit_requests___postconditions.4897+0x26>
 8001bc2:	4c04      	ldr	r4, [pc, #16]	; (8001bd4 <stm32__usarts__disable_dma_transmit_requests___postconditions.4897+0x2c>)
 8001bc4:	4d04      	ldr	r5, [pc, #16]	; (8001bd8 <stm32__usarts__disable_dma_transmit_requests___postconditions.4897+0x30>)
 8001bc6:	4620      	mov	r0, r4
 8001bc8:	4629      	mov	r1, r5
 8001bca:	f006 fa31 	bl	8008030 <system__assertions__raise_assert_failure>
 8001bce:	3708      	adds	r7, #8
 8001bd0:	46bd      	mov	sp, r7
 8001bd2:	bdb0      	pop	{r4, r5, r7, pc}
 8001bd4:	08008d6c 	.word	0x08008d6c
 8001bd8:	08008cd4 	.word	0x08008cd4

08001bdc <stm32__usarts__disable_dma_transmit_requests>:
 8001bdc:	b580      	push	{r7, lr}
 8001bde:	b084      	sub	sp, #16
 8001be0:	af00      	add	r7, sp, #0
 8001be2:	6078      	str	r0, [r7, #4]
 8001be4:	f107 0318 	add.w	r3, r7, #24
 8001be8:	60fb      	str	r3, [r7, #12]
 8001bea:	687b      	ldr	r3, [r7, #4]
 8001bec:	60bb      	str	r3, [r7, #8]
 8001bee:	68bb      	ldr	r3, [r7, #8]
 8001bf0:	685b      	ldr	r3, [r3, #4]
 8001bf2:	3314      	adds	r3, #20
 8001bf4:	681b      	ldr	r3, [r3, #0]
 8001bf6:	f36f 13c7 	bfc	r3, #7, #1
 8001bfa:	68ba      	ldr	r2, [r7, #8]
 8001bfc:	6852      	ldr	r2, [r2, #4]
 8001bfe:	3214      	adds	r2, #20
 8001c00:	6013      	str	r3, [r2, #0]
 8001c02:	f107 0308 	add.w	r3, r7, #8
 8001c06:	469c      	mov	ip, r3
 8001c08:	f7ff ffce 	bl	8001ba8 <stm32__usarts__disable_dma_transmit_requests___postconditions.4897>
 8001c0c:	3710      	adds	r7, #16
 8001c0e:	46bd      	mov	sp, r7
 8001c10:	bd80      	pop	{r7, pc}
 8001c12:	bf00      	nop

08001c14 <stm32__usarts__disable_dma_receive_requests___postconditions.4901>:
 8001c14:	b5b0      	push	{r4, r5, r7, lr}
 8001c16:	b082      	sub	sp, #8
 8001c18:	af00      	add	r7, sp, #0
 8001c1a:	4663      	mov	r3, ip
 8001c1c:	f8c7 c004 	str.w	ip, [r7, #4]
 8001c20:	681b      	ldr	r3, [r3, #0]
 8001c22:	4618      	mov	r0, r3
 8001c24:	f000 f83e 	bl	8001ca4 <stm32__usarts__dma_receive_requests_enabled>
 8001c28:	4603      	mov	r3, r0
 8001c2a:	2b00      	cmp	r3, #0
 8001c2c:	d005      	beq.n	8001c3a <stm32__usarts__disable_dma_receive_requests___postconditions.4901+0x26>
 8001c2e:	4c04      	ldr	r4, [pc, #16]	; (8001c40 <stm32__usarts__disable_dma_receive_requests___postconditions.4901+0x2c>)
 8001c30:	4d04      	ldr	r5, [pc, #16]	; (8001c44 <stm32__usarts__disable_dma_receive_requests___postconditions.4901+0x30>)
 8001c32:	4620      	mov	r0, r4
 8001c34:	4629      	mov	r1, r5
 8001c36:	f006 f9fb 	bl	8008030 <system__assertions__raise_assert_failure>
 8001c3a:	3708      	adds	r7, #8
 8001c3c:	46bd      	mov	sp, r7
 8001c3e:	bdb0      	pop	{r4, r5, r7, pc}
 8001c40:	08008d9c 	.word	0x08008d9c
 8001c44:	08008cd4 	.word	0x08008cd4

08001c48 <stm32__usarts__disable_dma_receive_requests>:
 8001c48:	b580      	push	{r7, lr}
 8001c4a:	b084      	sub	sp, #16
 8001c4c:	af00      	add	r7, sp, #0
 8001c4e:	6078      	str	r0, [r7, #4]
 8001c50:	f107 0318 	add.w	r3, r7, #24
 8001c54:	60fb      	str	r3, [r7, #12]
 8001c56:	687b      	ldr	r3, [r7, #4]
 8001c58:	60bb      	str	r3, [r7, #8]
 8001c5a:	68bb      	ldr	r3, [r7, #8]
 8001c5c:	685b      	ldr	r3, [r3, #4]
 8001c5e:	3314      	adds	r3, #20
 8001c60:	681b      	ldr	r3, [r3, #0]
 8001c62:	f36f 1386 	bfc	r3, #6, #1
 8001c66:	68ba      	ldr	r2, [r7, #8]
 8001c68:	6852      	ldr	r2, [r2, #4]
 8001c6a:	3214      	adds	r2, #20
 8001c6c:	6013      	str	r3, [r2, #0]
 8001c6e:	f107 0308 	add.w	r3, r7, #8
 8001c72:	469c      	mov	ip, r3
 8001c74:	f7ff ffce 	bl	8001c14 <stm32__usarts__disable_dma_receive_requests___postconditions.4901>
 8001c78:	3710      	adds	r7, #16
 8001c7a:	46bd      	mov	sp, r7
 8001c7c:	bd80      	pop	{r7, pc}
 8001c7e:	bf00      	nop

08001c80 <stm32__usarts__dma_transmit_requests_enabled>:
 8001c80:	b480      	push	{r7}
 8001c82:	b083      	sub	sp, #12
 8001c84:	af00      	add	r7, sp, #0
 8001c86:	6078      	str	r0, [r7, #4]
 8001c88:	687b      	ldr	r3, [r7, #4]
 8001c8a:	685b      	ldr	r3, [r3, #4]
 8001c8c:	3314      	adds	r3, #20
 8001c8e:	681b      	ldr	r3, [r3, #0]
 8001c90:	f3c3 13c0 	ubfx	r3, r3, #7, #1
 8001c94:	b2db      	uxtb	r3, r3
 8001c96:	bf00      	nop
 8001c98:	4618      	mov	r0, r3
 8001c9a:	370c      	adds	r7, #12
 8001c9c:	46bd      	mov	sp, r7
 8001c9e:	f85d 7b04 	ldr.w	r7, [sp], #4
 8001ca2:	4770      	bx	lr

08001ca4 <stm32__usarts__dma_receive_requests_enabled>:
 8001ca4:	b480      	push	{r7}
 8001ca6:	b083      	sub	sp, #12
 8001ca8:	af00      	add	r7, sp, #0
 8001caa:	6078      	str	r0, [r7, #4]
 8001cac:	687b      	ldr	r3, [r7, #4]
 8001cae:	685b      	ldr	r3, [r3, #4]
 8001cb0:	3314      	adds	r3, #20
 8001cb2:	681b      	ldr	r3, [r3, #0]
 8001cb4:	f3c3 1380 	ubfx	r3, r3, #6, #1
 8001cb8:	b2db      	uxtb	r3, r3
 8001cba:	bf00      	nop
 8001cbc:	4618      	mov	r0, r3
 8001cbe:	370c      	adds	r7, #12
 8001cc0:	46bd      	mov	sp, r7
 8001cc2:	f85d 7b04 	ldr.w	r7, [sp], #4
 8001cc6:	4770      	bx	lr

08001cc8 <stm32__usarts__resume_dma_transmission___postconditions.4907>:
 8001cc8:	e92d 41f0 	stmdb	sp!, {r4, r5, r6, r7, r8, lr}
 8001ccc:	b082      	sub	sp, #8
 8001cce:	af00      	add	r7, sp, #0
 8001cd0:	4664      	mov	r4, ip
 8001cd2:	f8c7 c004 	str.w	ip, [r7, #4]
 8001cd6:	6823      	ldr	r3, [r4, #0]
 8001cd8:	4618      	mov	r0, r3
 8001cda:	f7ff ffd1 	bl	8001c80 <stm32__usarts__dma_transmit_requests_enabled>
 8001cde:	4603      	mov	r3, r0
 8001ce0:	f083 0301 	eor.w	r3, r3, #1
 8001ce4:	fa5f f883 	uxtb.w	r8, r3
 8001ce8:	6823      	ldr	r3, [r4, #0]
 8001cea:	4618      	mov	r0, r3
 8001cec:	f7ff f9fe 	bl	80010ec <stm32__usarts__enabled>
 8001cf0:	4603      	mov	r3, r0
 8001cf2:	f083 0301 	eor.w	r3, r3, #1
 8001cf6:	b2db      	uxtb	r3, r3
 8001cf8:	ea48 0303 	orr.w	r3, r8, r3
 8001cfc:	b2db      	uxtb	r3, r3
 8001cfe:	2b00      	cmp	r3, #0
 8001d00:	d005      	beq.n	8001d0e <stm32__usarts__resume_dma_transmission___postconditions.4907+0x46>
 8001d02:	4d05      	ldr	r5, [pc, #20]	; (8001d18 <stm32__usarts__resume_dma_transmission___postconditions.4907+0x50>)
 8001d04:	4e05      	ldr	r6, [pc, #20]	; (8001d1c <stm32__usarts__resume_dma_transmission___postconditions.4907+0x54>)
 8001d06:	4628      	mov	r0, r5
 8001d08:	4631      	mov	r1, r6
 8001d0a:	f006 f991 	bl	8008030 <system__assertions__raise_assert_failure>
 8001d0e:	3708      	adds	r7, #8
 8001d10:	46bd      	mov	sp, r7
 8001d12:	e8bd 81f0 	ldmia.w	sp!, {r4, r5, r6, r7, r8, pc}
 8001d16:	bf00      	nop
 8001d18:	08008dcc 	.word	0x08008dcc
 8001d1c:	08008cd4 	.word	0x08008cd4

08001d20 <stm32__usarts__resume_dma_transmission>:
 8001d20:	b580      	push	{r7, lr}
 8001d22:	b084      	sub	sp, #16
 8001d24:	af00      	add	r7, sp, #0
 8001d26:	6078      	str	r0, [r7, #4]
 8001d28:	f107 0318 	add.w	r3, r7, #24
 8001d2c:	60fb      	str	r3, [r7, #12]
 8001d2e:	687b      	ldr	r3, [r7, #4]
 8001d30:	60bb      	str	r3, [r7, #8]
 8001d32:	68bb      	ldr	r3, [r7, #8]
 8001d34:	4618      	mov	r0, r3
 8001d36:	f7ff fedd 	bl	8001af4 <stm32__usarts__enable_dma_transmit_requests>
 8001d3a:	68bb      	ldr	r3, [r7, #8]
 8001d3c:	4618      	mov	r0, r3
 8001d3e:	f7ff f9d5 	bl	80010ec <stm32__usarts__enabled>
 8001d42:	4603      	mov	r3, r0
 8001d44:	f083 0301 	eor.w	r3, r3, #1
 8001d48:	b2db      	uxtb	r3, r3
 8001d4a:	2b00      	cmp	r3, #0
 8001d4c:	d003      	beq.n	8001d56 <stm32__usarts__resume_dma_transmission+0x36>
 8001d4e:	68bb      	ldr	r3, [r7, #8]
 8001d50:	4618      	mov	r0, r3
 8001d52:	f7ff f977 	bl	8001044 <stm32__usarts__enable>
 8001d56:	f107 0308 	add.w	r3, r7, #8
 8001d5a:	469c      	mov	ip, r3
 8001d5c:	f7ff ffb4 	bl	8001cc8 <stm32__usarts__resume_dma_transmission___postconditions.4907>
 8001d60:	3710      	adds	r7, #16
 8001d62:	46bd      	mov	sp, r7
 8001d64:	bd80      	pop	{r7, pc}
 8001d66:	bf00      	nop

08001d68 <stm32__usarts__resume_dma_reception___postconditions.4911>:
 8001d68:	e92d 41f0 	stmdb	sp!, {r4, r5, r6, r7, r8, lr}
 8001d6c:	b082      	sub	sp, #8
 8001d6e:	af00      	add	r7, sp, #0
 8001d70:	4664      	mov	r4, ip
 8001d72:	f8c7 c004 	str.w	ip, [r7, #4]
 8001d76:	6823      	ldr	r3, [r4, #0]
 8001d78:	4618      	mov	r0, r3
 8001d7a:	f7ff ff93 	bl	8001ca4 <stm32__usarts__dma_receive_requests_enabled>
 8001d7e:	4603      	mov	r3, r0
 8001d80:	f083 0301 	eor.w	r3, r3, #1
 8001d84:	fa5f f883 	uxtb.w	r8, r3
 8001d88:	6823      	ldr	r3, [r4, #0]
 8001d8a:	4618      	mov	r0, r3
 8001d8c:	f7ff f9ae 	bl	80010ec <stm32__usarts__enabled>
 8001d90:	4603      	mov	r3, r0
 8001d92:	f083 0301 	eor.w	r3, r3, #1
 8001d96:	b2db      	uxtb	r3, r3
 8001d98:	ea48 0303 	orr.w	r3, r8, r3
 8001d9c:	b2db      	uxtb	r3, r3
 8001d9e:	2b00      	cmp	r3, #0
 8001da0:	d005      	beq.n	8001dae <stm32__usarts__resume_dma_reception___postconditions.4911+0x46>
 8001da2:	4d05      	ldr	r5, [pc, #20]	; (8001db8 <stm32__usarts__resume_dma_reception___postconditions.4911+0x50>)
 8001da4:	4e05      	ldr	r6, [pc, #20]	; (8001dbc <stm32__usarts__resume_dma_reception___postconditions.4911+0x54>)
 8001da6:	4628      	mov	r0, r5
 8001da8:	4631      	mov	r1, r6
 8001daa:	f006 f941 	bl	8008030 <system__assertions__raise_assert_failure>
 8001dae:	3708      	adds	r7, #8
 8001db0:	46bd      	mov	sp, r7
 8001db2:	e8bd 81f0 	ldmia.w	sp!, {r4, r5, r6, r7, r8, pc}
 8001db6:	bf00      	nop
 8001db8:	08008dfc 	.word	0x08008dfc
 8001dbc:	08008cd4 	.word	0x08008cd4

08001dc0 <stm32__usarts__resume_dma_reception>:
 8001dc0:	b580      	push	{r7, lr}
 8001dc2:	b084      	sub	sp, #16
 8001dc4:	af00      	add	r7, sp, #0
 8001dc6:	6078      	str	r0, [r7, #4]
 8001dc8:	f107 0318 	add.w	r3, r7, #24
 8001dcc:	60fb      	str	r3, [r7, #12]
 8001dce:	687b      	ldr	r3, [r7, #4]
 8001dd0:	60bb      	str	r3, [r7, #8]
 8001dd2:	68bb      	ldr	r3, [r7, #8]
 8001dd4:	4618      	mov	r0, r3
 8001dd6:	f7ff fec9 	bl	8001b6c <stm32__usarts__enable_dma_receive_requests>
 8001dda:	68bb      	ldr	r3, [r7, #8]
 8001ddc:	4618      	mov	r0, r3
 8001dde:	f7ff f985 	bl	80010ec <stm32__usarts__enabled>
 8001de2:	4603      	mov	r3, r0
 8001de4:	f083 0301 	eor.w	r3, r3, #1
 8001de8:	b2db      	uxtb	r3, r3
 8001dea:	2b00      	cmp	r3, #0
 8001dec:	d003      	beq.n	8001df6 <stm32__usarts__resume_dma_reception+0x36>
 8001dee:	68bb      	ldr	r3, [r7, #8]
 8001df0:	4618      	mov	r0, r3
 8001df2:	f7ff f927 	bl	8001044 <stm32__usarts__enable>
 8001df6:	f107 0308 	add.w	r3, r7, #8
 8001dfa:	469c      	mov	ip, r3
 8001dfc:	f7ff ffb4 	bl	8001d68 <stm32__usarts__resume_dma_reception___postconditions.4911>
 8001e00:	3710      	adds	r7, #16
 8001e02:	46bd      	mov	sp, r7
 8001e04:	bd80      	pop	{r7, pc}
 8001e06:	bf00      	nop

08001e08 <stm32__usarts__data_register_address>:
 8001e08:	b480      	push	{r7}
 8001e0a:	b083      	sub	sp, #12
 8001e0c:	af00      	add	r7, sp, #0
 8001e0e:	6078      	str	r0, [r7, #4]
 8001e10:	687b      	ldr	r3, [r7, #4]
 8001e12:	685b      	ldr	r3, [r3, #4]
 8001e14:	3304      	adds	r3, #4
 8001e16:	bf00      	nop
 8001e18:	4618      	mov	r0, r3
 8001e1a:	370c      	adds	r7, #12
 8001e1c:	46bd      	mov	sp, r7
 8001e1e:	f85d 7b04 	ldr.w	r7, [sp], #4
 8001e22:	4770      	bx	lr

08001e24 <stm32__usarts__data_size>:
 8001e24:	b480      	push	{r7}
 8001e26:	b083      	sub	sp, #12
 8001e28:	af00      	add	r7, sp, #0
 8001e2a:	6078      	str	r0, [r7, #4]
 8001e2c:	687b      	ldr	r3, [r7, #4]
 8001e2e:	685b      	ldr	r3, [r3, #4]
 8001e30:	330c      	adds	r3, #12
 8001e32:	681b      	ldr	r3, [r3, #0]
 8001e34:	f3c3 3300 	ubfx	r3, r3, #12, #1
 8001e38:	b2db      	uxtb	r3, r3
 8001e3a:	2b00      	cmp	r3, #0
 8001e3c:	d001      	beq.n	8001e42 <stm32__usarts__data_size+0x1e>
 8001e3e:	2301      	movs	r3, #1
 8001e40:	e000      	b.n	8001e44 <stm32__usarts__data_size+0x20>
 8001e42:	2300      	movs	r3, #0
 8001e44:	bf00      	nop
 8001e46:	4618      	mov	r0, r3
 8001e48:	370c      	adds	r7, #12
 8001e4a:	46bd      	mov	sp, r7
 8001e4c:	f85d 7b04 	ldr.w	r7, [sp], #4
 8001e50:	4770      	bx	lr
 8001e52:	bf00      	nop

08001e54 <stm32__usarts__transmit__2>:
 8001e54:	e92d 43f0 	stmdb	sp!, {r4, r5, r6, r7, r8, r9, lr}
 8001e58:	b087      	sub	sp, #28
 8001e5a:	af00      	add	r7, sp, #0
 8001e5c:	60f8      	str	r0, [r7, #12]
 8001e5e:	e9c7 2300 	strd	r2, r3, [r7]
 8001e62:	687b      	ldr	r3, [r7, #4]
 8001e64:	681c      	ldr	r4, [r3, #0]
 8001e66:	687b      	ldr	r3, [r7, #4]
 8001e68:	685d      	ldr	r5, [r3, #4]
 8001e6a:	68f8      	ldr	r0, [r7, #12]
 8001e6c:	f7ff ffda 	bl	8001e24 <stm32__usarts__data_size>
 8001e70:	4603      	mov	r3, r0
 8001e72:	2b00      	cmp	r3, #0
 8001e74:	d00d      	beq.n	8001e92 <stm32__usarts__transmit__2+0x3e>
 8001e76:	68f8      	ldr	r0, [r7, #12]
 8001e78:	f7ff ffd4 	bl	8001e24 <stm32__usarts__data_size>
 8001e7c:	4603      	mov	r3, r0
 8001e7e:	2b00      	cmp	r3, #0
 8001e80:	d007      	beq.n	8001e92 <stm32__usarts__transmit__2+0x3e>
 8001e82:	f8df 805c 	ldr.w	r8, [pc, #92]	; 8001ee0 <stm32__usarts__transmit__2+0x8c>
 8001e86:	f8df 905c 	ldr.w	r9, [pc, #92]	; 8001ee4 <stm32__usarts__transmit__2+0x90>
 8001e8a:	4640      	mov	r0, r8
 8001e8c:	4649      	mov	r1, r9
 8001e8e:	f006 f8cf 	bl	8008030 <system__assertions__raise_assert_failure>
 8001e92:	4626      	mov	r6, r4
 8001e94:	42ac      	cmp	r4, r5
 8001e96:	dc19      	bgt.n	8001ecc <stm32__usarts__transmit__2+0x78>
 8001e98:	683a      	ldr	r2, [r7, #0]
 8001e9a:	46a0      	mov	r8, r4
 8001e9c:	ebc6 0308 	rsb	r3, r6, r8
 8001ea0:	4413      	add	r3, r2
 8001ea2:	617b      	str	r3, [r7, #20]
 8001ea4:	68f8      	ldr	r0, [r7, #12]
 8001ea6:	f7ff fb31 	bl	800150c <stm32__usarts__tx_ready>
 8001eaa:	4603      	mov	r3, r0
 8001eac:	2b00      	cmp	r3, #0
 8001eae:	d100      	bne.n	8001eb2 <stm32__usarts__transmit__2+0x5e>
 8001eb0:	e7f8      	b.n	8001ea4 <stm32__usarts__transmit__2+0x50>
 8001eb2:	683a      	ldr	r2, [r7, #0]
 8001eb4:	ebc6 0308 	rsb	r3, r6, r8
 8001eb8:	5cd3      	ldrb	r3, [r2, r3]
 8001eba:	b29b      	uxth	r3, r3
 8001ebc:	68f8      	ldr	r0, [r7, #12]
 8001ebe:	4619      	mov	r1, r3
 8001ec0:	f7ff fae8 	bl	8001494 <stm32__usarts__transmit>
 8001ec4:	42ac      	cmp	r4, r5
 8001ec6:	d001      	beq.n	8001ecc <stm32__usarts__transmit__2+0x78>
 8001ec8:	3401      	adds	r4, #1
 8001eca:	e7e5      	b.n	8001e98 <stm32__usarts__transmit__2+0x44>
 8001ecc:	2300      	movs	r3, #0
 8001ece:	74fb      	strb	r3, [r7, #19]
 8001ed0:	7cfb      	ldrb	r3, [r7, #19]
 8001ed2:	bf00      	nop
 8001ed4:	4618      	mov	r0, r3
 8001ed6:	371c      	adds	r7, #28
 8001ed8:	46bd      	mov	sp, r7
 8001eda:	e8bd 83f0 	ldmia.w	sp!, {r4, r5, r6, r7, r8, r9, pc}
 8001ede:	bf00      	nop
 8001ee0:	08008e2c 	.word	0x08008e2c
 8001ee4:	08008e94 	.word	0x08008e94

08001ee8 <stm32__usarts__transmit__3>:
 8001ee8:	e92d 43f0 	stmdb	sp!, {r4, r5, r6, r7, r8, r9, lr}
 8001eec:	b087      	sub	sp, #28
 8001eee:	af00      	add	r7, sp, #0
 8001ef0:	60f8      	str	r0, [r7, #12]
 8001ef2:	e9c7 2300 	strd	r2, r3, [r7]
 8001ef6:	687b      	ldr	r3, [r7, #4]
 8001ef8:	681c      	ldr	r4, [r3, #0]
 8001efa:	687b      	ldr	r3, [r7, #4]
 8001efc:	685d      	ldr	r5, [r3, #4]
 8001efe:	68f8      	ldr	r0, [r7, #12]
 8001f00:	f7ff ff90 	bl	8001e24 <stm32__usarts__data_size>
 8001f04:	4603      	mov	r3, r0
 8001f06:	2b01      	cmp	r3, #1
 8001f08:	d00d      	beq.n	8001f26 <stm32__usarts__transmit__3+0x3e>
 8001f0a:	68f8      	ldr	r0, [r7, #12]
 8001f0c:	f7ff ff8a 	bl	8001e24 <stm32__usarts__data_size>
 8001f10:	4603      	mov	r3, r0
 8001f12:	2b01      	cmp	r3, #1
 8001f14:	d007      	beq.n	8001f26 <stm32__usarts__transmit__3+0x3e>
 8001f16:	f8df 805c 	ldr.w	r8, [pc, #92]	; 8001f74 <stm32__usarts__transmit__3+0x8c>
 8001f1a:	f8df 905c 	ldr.w	r9, [pc, #92]	; 8001f78 <stm32__usarts__transmit__3+0x90>
 8001f1e:	4640      	mov	r0, r8
 8001f20:	4649      	mov	r1, r9
 8001f22:	f006 f885 	bl	8008030 <system__assertions__raise_assert_failure>
 8001f26:	4626      	mov	r6, r4
 8001f28:	42ac      	cmp	r4, r5
 8001f2a:	dc1a      	bgt.n	8001f62 <stm32__usarts__transmit__3+0x7a>
 8001f2c:	683a      	ldr	r2, [r7, #0]
 8001f2e:	46a0      	mov	r8, r4
 8001f30:	ebc6 0308 	rsb	r3, r6, r8
 8001f34:	005b      	lsls	r3, r3, #1
 8001f36:	4413      	add	r3, r2
 8001f38:	617b      	str	r3, [r7, #20]
 8001f3a:	68f8      	ldr	r0, [r7, #12]
 8001f3c:	f7ff fae6 	bl	800150c <stm32__usarts__tx_ready>
 8001f40:	4603      	mov	r3, r0
 8001f42:	2b00      	cmp	r3, #0
 8001f44:	d100      	bne.n	8001f48 <stm32__usarts__transmit__3+0x60>
 8001f46:	e7f8      	b.n	8001f3a <stm32__usarts__transmit__3+0x52>
 8001f48:	683b      	ldr	r3, [r7, #0]
 8001f4a:	ebc6 0208 	rsb	r2, r6, r8
 8001f4e:	f833 3012 	ldrh.w	r3, [r3, r2, lsl #1]
 8001f52:	68f8      	ldr	r0, [r7, #12]
 8001f54:	4619      	mov	r1, r3
 8001f56:	f7ff fa9d 	bl	8001494 <stm32__usarts__transmit>
 8001f5a:	42ac      	cmp	r4, r5
 8001f5c:	d001      	beq.n	8001f62 <stm32__usarts__transmit__3+0x7a>
 8001f5e:	3401      	adds	r4, #1
 8001f60:	e7e4      	b.n	8001f2c <stm32__usarts__transmit__3+0x44>
 8001f62:	2300      	movs	r3, #0
 8001f64:	74fb      	strb	r3, [r7, #19]
 8001f66:	7cfb      	ldrb	r3, [r7, #19]
 8001f68:	bf00      	nop
 8001f6a:	4618      	mov	r0, r3
 8001f6c:	371c      	adds	r7, #28
 8001f6e:	46bd      	mov	sp, r7
 8001f70:	e8bd 83f0 	ldmia.w	sp!, {r4, r5, r6, r7, r8, r9, pc}
 8001f74:	08008e9c 	.word	0x08008e9c
 8001f78:	08008e94 	.word	0x08008e94

08001f7c <stm32__usarts__receive__2>:
 8001f7c:	e92d 41f0 	stmdb	sp!, {r4, r5, r6, r7, r8, lr}
 8001f80:	b086      	sub	sp, #24
 8001f82:	af00      	add	r7, sp, #0
 8001f84:	60f8      	str	r0, [r7, #12]
 8001f86:	e9c7 2300 	strd	r2, r3, [r7]
 8001f8a:	68f8      	ldr	r0, [r7, #12]
 8001f8c:	f7ff ff4a 	bl	8001e24 <stm32__usarts__data_size>
 8001f90:	4603      	mov	r3, r0
 8001f92:	2b00      	cmp	r3, #0
 8001f94:	d00b      	beq.n	8001fae <stm32__usarts__receive__2+0x32>
 8001f96:	68f8      	ldr	r0, [r7, #12]
 8001f98:	f7ff ff44 	bl	8001e24 <stm32__usarts__data_size>
 8001f9c:	4603      	mov	r3, r0
 8001f9e:	2b00      	cmp	r3, #0
 8001fa0:	d005      	beq.n	8001fae <stm32__usarts__receive__2+0x32>
 8001fa2:	4c1c      	ldr	r4, [pc, #112]	; (8002014 <stm32__usarts__receive__2+0x98>)
 8001fa4:	4d1c      	ldr	r5, [pc, #112]	; (8002018 <stm32__usarts__receive__2+0x9c>)
 8001fa6:	4620      	mov	r0, r4
 8001fa8:	4629      	mov	r1, r5
 8001faa:	f006 f841 	bl	8008030 <system__assertions__raise_assert_failure>
 8001fae:	687b      	ldr	r3, [r7, #4]
 8001fb0:	681b      	ldr	r3, [r3, #0]
 8001fb2:	461e      	mov	r6, r3
 8001fb4:	687b      	ldr	r3, [r7, #4]
 8001fb6:	681c      	ldr	r4, [r3, #0]
 8001fb8:	687b      	ldr	r3, [r7, #4]
 8001fba:	685d      	ldr	r5, [r3, #4]
 8001fbc:	42ac      	cmp	r4, r5
 8001fbe:	dc20      	bgt.n	8002002 <stm32__usarts__receive__2+0x86>
 8001fc0:	683a      	ldr	r2, [r7, #0]
 8001fc2:	46a0      	mov	r8, r4
 8001fc4:	ebc6 0308 	rsb	r3, r6, r8
 8001fc8:	4413      	add	r3, r2
 8001fca:	617b      	str	r3, [r7, #20]
 8001fcc:	68f8      	ldr	r0, [r7, #12]
 8001fce:	f7ff faaf 	bl	8001530 <stm32__usarts__rx_ready>
 8001fd2:	4603      	mov	r3, r0
 8001fd4:	2b00      	cmp	r3, #0
 8001fd6:	d100      	bne.n	8001fda <stm32__usarts__receive__2+0x5e>
 8001fd8:	e7f8      	b.n	8001fcc <stm32__usarts__receive__2+0x50>
 8001fda:	68f8      	ldr	r0, [r7, #12]
 8001fdc:	f7ff fa74 	bl	80014c8 <stm32__usarts__receive>
 8001fe0:	4603      	mov	r3, r0
 8001fe2:	2bff      	cmp	r3, #255	; 0xff
 8001fe4:	d904      	bls.n	8001ff0 <stm32__usarts__receive__2+0x74>
 8001fe6:	480d      	ldr	r0, [pc, #52]	; (800201c <stm32__usarts__receive__2+0xa0>)
 8001fe8:	f240 2127 	movw	r1, #551	; 0x227
 8001fec:	f005 ffe8 	bl	8007fc0 <__gnat_last_chance_handler>
 8001ff0:	683a      	ldr	r2, [r7, #0]
 8001ff2:	b2d9      	uxtb	r1, r3
 8001ff4:	ebc6 0308 	rsb	r3, r6, r8
 8001ff8:	54d1      	strb	r1, [r2, r3]
 8001ffa:	42ac      	cmp	r4, r5
 8001ffc:	d001      	beq.n	8002002 <stm32__usarts__receive__2+0x86>
 8001ffe:	3401      	adds	r4, #1
 8002000:	e7de      	b.n	8001fc0 <stm32__usarts__receive__2+0x44>
 8002002:	2300      	movs	r3, #0
 8002004:	74fb      	strb	r3, [r7, #19]
 8002006:	7cfb      	ldrb	r3, [r7, #19]
 8002008:	bf00      	nop
 800200a:	4618      	mov	r0, r3
 800200c:	3718      	adds	r7, #24
 800200e:	46bd      	mov	sp, r7
 8002010:	e8bd 81f0 	ldmia.w	sp!, {r4, r5, r6, r7, r8, pc}
 8002014:	08008f04 	.word	0x08008f04
 8002018:	08008e94 	.word	0x08008e94
 800201c:	08008c90 	.word	0x08008c90

08002020 <stm32__usarts__receive__3>:
 8002020:	e92d 43f0 	stmdb	sp!, {r4, r5, r6, r7, r8, r9, lr}
 8002024:	b087      	sub	sp, #28
 8002026:	af00      	add	r7, sp, #0
 8002028:	60f8      	str	r0, [r7, #12]
 800202a:	e9c7 2300 	strd	r2, r3, [r7]
 800202e:	68f8      	ldr	r0, [r7, #12]
 8002030:	f7ff fef8 	bl	8001e24 <stm32__usarts__data_size>
 8002034:	4603      	mov	r3, r0
 8002036:	2b01      	cmp	r3, #1
 8002038:	d00b      	beq.n	8002052 <stm32__usarts__receive__3+0x32>
 800203a:	68f8      	ldr	r0, [r7, #12]
 800203c:	f7ff fef2 	bl	8001e24 <stm32__usarts__data_size>
 8002040:	4603      	mov	r3, r0
 8002042:	2b01      	cmp	r3, #1
 8002044:	d005      	beq.n	8002052 <stm32__usarts__receive__3+0x32>
 8002046:	4c1a      	ldr	r4, [pc, #104]	; (80020b0 <stm32__usarts__receive__3+0x90>)
 8002048:	4d1a      	ldr	r5, [pc, #104]	; (80020b4 <stm32__usarts__receive__3+0x94>)
 800204a:	4620      	mov	r0, r4
 800204c:	4629      	mov	r1, r5
 800204e:	f005 ffef 	bl	8008030 <system__assertions__raise_assert_failure>
 8002052:	687b      	ldr	r3, [r7, #4]
 8002054:	681b      	ldr	r3, [r3, #0]
 8002056:	461e      	mov	r6, r3
 8002058:	687b      	ldr	r3, [r7, #4]
 800205a:	681c      	ldr	r4, [r3, #0]
 800205c:	687b      	ldr	r3, [r7, #4]
 800205e:	685d      	ldr	r5, [r3, #4]
 8002060:	42ac      	cmp	r4, r5
 8002062:	dc1c      	bgt.n	800209e <stm32__usarts__receive__3+0x7e>
 8002064:	683a      	ldr	r2, [r7, #0]
 8002066:	46a0      	mov	r8, r4
 8002068:	ebc6 0308 	rsb	r3, r6, r8
 800206c:	005b      	lsls	r3, r3, #1
 800206e:	4413      	add	r3, r2
 8002070:	617b      	str	r3, [r7, #20]
 8002072:	68f8      	ldr	r0, [r7, #12]
 8002074:	f7ff fa5c 	bl	8001530 <stm32__usarts__rx_ready>
 8002078:	4603      	mov	r3, r0
 800207a:	2b00      	cmp	r3, #0
 800207c:	d100      	bne.n	8002080 <stm32__usarts__receive__3+0x60>
 800207e:	e7f8      	b.n	8002072 <stm32__usarts__receive__3+0x52>
 8002080:	f8d7 9000 	ldr.w	r9, [r7]
 8002084:	68f8      	ldr	r0, [r7, #12]
 8002086:	f7ff fa1f 	bl	80014c8 <stm32__usarts__receive>
 800208a:	4603      	mov	r3, r0
 800208c:	461a      	mov	r2, r3
 800208e:	ebc6 0308 	rsb	r3, r6, r8
 8002092:	f829 2013 	strh.w	r2, [r9, r3, lsl #1]
 8002096:	42ac      	cmp	r4, r5
 8002098:	d001      	beq.n	800209e <stm32__usarts__receive__3+0x7e>
 800209a:	3401      	adds	r4, #1
 800209c:	e7e2      	b.n	8002064 <stm32__usarts__receive__3+0x44>
 800209e:	2300      	movs	r3, #0
 80020a0:	74fb      	strb	r3, [r7, #19]
 80020a2:	7cfb      	ldrb	r3, [r7, #19]
 80020a4:	bf00      	nop
 80020a6:	4618      	mov	r0, r3
 80020a8:	371c      	adds	r7, #28
 80020aa:	46bd      	mov	sp, r7
 80020ac:	e8bd 83f0 	ldmia.w	sp!, {r4, r5, r6, r7, r8, r9, pc}
 80020b0:	08008f6c 	.word	0x08008f6c
 80020b4:	08008e94 	.word	0x08008e94

080020b8 <stm32__i2c__i2c_configurationIP>:
 80020b8:	b480      	push	{r7}
 80020ba:	b083      	sub	sp, #12
 80020bc:	af00      	add	r7, sp, #0
 80020be:	6078      	str	r0, [r7, #4]
 80020c0:	687b      	ldr	r3, [r7, #4]
 80020c2:	2200      	movs	r2, #0
 80020c4:	711a      	strb	r2, [r3, #4]
 80020c6:	687b      	ldr	r3, [r7, #4]
 80020c8:	2201      	movs	r2, #1
 80020ca:	715a      	strb	r2, [r3, #5]
 80020cc:	687b      	ldr	r3, [r7, #4]
 80020ce:	2200      	movs	r2, #0
 80020d0:	729a      	strb	r2, [r3, #10]
 80020d2:	687b      	ldr	r3, [r7, #4]
 80020d4:	2201      	movs	r2, #1
 80020d6:	72da      	strb	r2, [r3, #11]
 80020d8:	370c      	adds	r7, #12
 80020da:	46bd      	mov	sp, r7
 80020dc:	f85d 7b04 	ldr.w	r7, [sp], #4
 80020e0:	4770      	bx	lr
 80020e2:	bf00      	nop

080020e4 <stm32__i2c__i2c_portIP>:
 80020e4:	b580      	push	{r7, lr}
 80020e6:	b084      	sub	sp, #16
 80020e8:	af00      	add	r7, sp, #0
 80020ea:	60f8      	str	r0, [r7, #12]
 80020ec:	60b9      	str	r1, [r7, #8]
 80020ee:	4613      	mov	r3, r2
 80020f0:	71fb      	strb	r3, [r7, #7]
 80020f2:	79fb      	ldrb	r3, [r7, #7]
 80020f4:	2b00      	cmp	r3, #0
 80020f6:	d002      	beq.n	80020fe <stm32__i2c__i2c_portIP+0x1a>
 80020f8:	68fb      	ldr	r3, [r7, #12]
 80020fa:	4a08      	ldr	r2, [pc, #32]	; (800211c <stm32__i2c__i2c_portIP+0x38>)
 80020fc:	601a      	str	r2, [r3, #0]
 80020fe:	68fb      	ldr	r3, [r7, #12]
 8002100:	68ba      	ldr	r2, [r7, #8]
 8002102:	605a      	str	r2, [r3, #4]
 8002104:	68fb      	ldr	r3, [r7, #12]
 8002106:	3308      	adds	r3, #8
 8002108:	4618      	mov	r0, r3
 800210a:	f7ff ffd5 	bl	80020b8 <stm32__i2c__i2c_configurationIP>
 800210e:	68fb      	ldr	r3, [r7, #12]
 8002110:	2200      	movs	r2, #0
 8002112:	751a      	strb	r2, [r3, #20]
 8002114:	3710      	adds	r7, #16
 8002116:	46bd      	mov	sp, r7
 8002118:	bd80      	pop	{r7, pc}
 800211a:	bf00      	nop
 800211c:	08009028 	.word	0x08009028

08002120 <stm32__i2c___size__2>:
 8002120:	b490      	push	{r4, r7}
 8002122:	b082      	sub	sp, #8
 8002124:	af00      	add	r7, sp, #0
 8002126:	6078      	str	r0, [r7, #4]
 8002128:	f04f 03c0 	mov.w	r3, #192	; 0xc0
 800212c:	f04f 0400 	mov.w	r4, #0
 8002130:	4618      	mov	r0, r3
 8002132:	4621      	mov	r1, r4
 8002134:	3708      	adds	r7, #8
 8002136:	46bd      	mov	sp, r7
 8002138:	bc90      	pop	{r4, r7}
 800213a:	4770      	bx	lr

0800213c <stm32__i2c__configure___postconditions.4692>:
 800213c:	b5b0      	push	{r4, r5, r7, lr}
 800213e:	b082      	sub	sp, #8
 8002140:	af00      	add	r7, sp, #0
 8002142:	4663      	mov	r3, ip
 8002144:	f8c7 c004 	str.w	ip, [r7, #4]
 8002148:	681b      	ldr	r3, [r3, #0]
 800214a:	4618      	mov	r0, r3
 800214c:	f001 ff22 	bl	8003f94 <stm32__i2c__port_enabled>
 8002150:	4603      	mov	r3, r0
 8002152:	f083 0301 	eor.w	r3, r3, #1
 8002156:	b2db      	uxtb	r3, r3
 8002158:	2b00      	cmp	r3, #0
 800215a:	d005      	beq.n	8002168 <stm32__i2c__configure___postconditions.4692+0x2c>
 800215c:	4c04      	ldr	r4, [pc, #16]	; (8002170 <stm32__i2c__configure___postconditions.4692+0x34>)
 800215e:	4d05      	ldr	r5, [pc, #20]	; (8002174 <stm32__i2c__configure___postconditions.4692+0x38>)
 8002160:	4620      	mov	r0, r4
 8002162:	4629      	mov	r1, r5
 8002164:	f005 ff64 	bl	8008030 <system__assertions__raise_assert_failure>
 8002168:	3708      	adds	r7, #8
 800216a:	46bd      	mov	sp, r7
 800216c:	bdb0      	pop	{r4, r5, r7, pc}
 800216e:	bf00      	nop
 8002170:	08009050 	.word	0x08009050
 8002174:	0800907c 	.word	0x0800907c

08002178 <stm32__i2c__configure>:
 8002178:	e92d 47f0 	stmdb	sp!, {r4, r5, r6, r7, r8, r9, sl, lr}
 800217c:	b09a      	sub	sp, #104	; 0x68
 800217e:	af00      	add	r7, sp, #0
 8002180:	6078      	str	r0, [r7, #4]
 8002182:	6039      	str	r1, [r7, #0]
 8002184:	f107 0388 	add.w	r3, r7, #136	; 0x88
 8002188:	617b      	str	r3, [r7, #20]
 800218a:	687b      	ldr	r3, [r7, #4]
 800218c:	613b      	str	r3, [r7, #16]
 800218e:	466b      	mov	r3, sp
 8002190:	461e      	mov	r6, r3
 8002192:	f107 0348 	add.w	r3, r7, #72	; 0x48
 8002196:	4618      	mov	r0, r3
 8002198:	f004 fc46 	bl	8006a28 <stm32_svd__i2c__cr1_registerIP>
 800219c:	f107 0344 	add.w	r3, r7, #68	; 0x44
 80021a0:	4618      	mov	r0, r3
 80021a2:	f004 fcc3 	bl	8006b2c <stm32_svd__i2c__ccr_registerIP>
 80021a6:	f107 0340 	add.w	r3, r7, #64	; 0x40
 80021aa:	4618      	mov	r0, r3
 80021ac:	f004 fc98 	bl	8006ae0 <stm32_svd__i2c__oar1_registerIP>
 80021b0:	f107 0324 	add.w	r3, r7, #36	; 0x24
 80021b4:	4618      	mov	r0, r3
 80021b6:	f7fe f89d 	bl	80002f4 <stm32__device__system_clock_frequencies>
 80021ba:	6afb      	ldr	r3, [r7, #44]	; 0x2c
 80021bc:	667b      	str	r3, [r7, #100]	; 0x64
 80021be:	6e7b      	ldr	r3, [r7, #100]	; 0x64
 80021c0:	4ab0      	ldr	r2, [pc, #704]	; (8002484 <stm32__i2c__configure+0x30c>)
 80021c2:	fba2 2303 	umull	r2, r3, r2, r3
 80021c6:	0c9b      	lsrs	r3, r3, #18
 80021c8:	f8a7 3062 	strh.w	r3, [r7, #98]	; 0x62
 80021cc:	693b      	ldr	r3, [r7, #16]
 80021ce:	7d1b      	ldrb	r3, [r3, #20]
 80021d0:	2b00      	cmp	r3, #0
 80021d2:	d005      	beq.n	80021e0 <stm32__i2c__configure+0x68>
 80021d4:	f107 0310 	add.w	r3, r7, #16
 80021d8:	469c      	mov	ip, r3
 80021da:	f7ff ffaf 	bl	800213c <stm32__i2c__configure___postconditions.4692>
 80021de:	e27f      	b.n	80026e0 <stm32__i2c__configure+0x568>
 80021e0:	693b      	ldr	r3, [r7, #16]
 80021e2:	683a      	ldr	r2, [r7, #0]
 80021e4:	3308      	adds	r3, #8
 80021e6:	ca07      	ldmia	r2, {r0, r1, r2}
 80021e8:	e883 0007 	stmia.w	r3, {r0, r1, r2}
 80021ec:	f8b7 3062 	ldrh.w	r3, [r7, #98]	; 0x62
 80021f0:	2b01      	cmp	r3, #1
 80021f2:	d903      	bls.n	80021fc <stm32__i2c__configure+0x84>
 80021f4:	f8b7 3062 	ldrh.w	r3, [r7, #98]	; 0x62
 80021f8:	2b2d      	cmp	r3, #45	; 0x2d
 80021fa:	d963      	bls.n	80022c4 <stm32__i2c__configure+0x14c>
 80021fc:	f8b7 3062 	ldrh.w	r3, [r7, #98]	; 0x62
 8002200:	f107 021c 	add.w	r2, r7, #28
 8002204:	4614      	mov	r4, r2
 8002206:	4da0      	ldr	r5, [pc, #640]	; (8002488 <stm32__i2c__configure+0x310>)
 8002208:	4618      	mov	r0, r3
 800220a:	4622      	mov	r2, r4
 800220c:	462b      	mov	r3, r5
 800220e:	f005 fe95 	bl	8007f3c <system__img_uns__image_unsigned>
 8002212:	4603      	mov	r3, r0
 8002214:	ea23 73e3 	bic.w	r3, r3, r3, asr #31
 8002218:	f103 0835 	add.w	r8, r3, #53	; 0x35
 800221c:	f108 0304 	add.w	r3, r8, #4
 8002220:	65fb      	str	r3, [r7, #92]	; 0x5c
 8002222:	6dfb      	ldr	r3, [r7, #92]	; 0x5c
 8002224:	ea23 73e3 	bic.w	r3, r3, r3, asr #31
 8002228:	65bb      	str	r3, [r7, #88]	; 0x58
 800222a:	6dfb      	ldr	r3, [r7, #92]	; 0x5c
 800222c:	ea23 73e3 	bic.w	r3, r3, r3, asr #31
 8002230:	3307      	adds	r3, #7
 8002232:	08db      	lsrs	r3, r3, #3
 8002234:	00db      	lsls	r3, r3, #3
 8002236:	ebad 0d03 	sub.w	sp, sp, r3
 800223a:	466b      	mov	r3, sp
 800223c:	3300      	adds	r3, #0
 800223e:	657b      	str	r3, [r7, #84]	; 0x54
 8002240:	6d7b      	ldr	r3, [r7, #84]	; 0x54
 8002242:	4a92      	ldr	r2, [pc, #584]	; (800248c <stm32__i2c__configure+0x314>)
 8002244:	4614      	mov	r4, r2
 8002246:	469e      	mov	lr, r3
 8002248:	f104 0c30 	add.w	ip, r4, #48	; 0x30
 800224c:	4675      	mov	r5, lr
 800224e:	4626      	mov	r6, r4
 8002250:	ce0f      	ldmia	r6!, {r0, r1, r2, r3}
 8002252:	6028      	str	r0, [r5, #0]
 8002254:	6069      	str	r1, [r5, #4]
 8002256:	60aa      	str	r2, [r5, #8]
 8002258:	60eb      	str	r3, [r5, #12]
 800225a:	3410      	adds	r4, #16
 800225c:	f10e 0e10 	add.w	lr, lr, #16
 8002260:	4564      	cmp	r4, ip
 8002262:	d1f3      	bne.n	800224c <stm32__i2c__configure+0xd4>
 8002264:	4673      	mov	r3, lr
 8002266:	4622      	mov	r2, r4
 8002268:	6810      	ldr	r0, [r2, #0]
 800226a:	6018      	str	r0, [r3, #0]
 800226c:	7912      	ldrb	r2, [r2, #4]
 800226e:	711a      	strb	r2, [r3, #4]
 8002270:	4643      	mov	r3, r8
 8002272:	2b35      	cmp	r3, #53	; 0x35
 8002274:	bfb8      	it	lt
 8002276:	2335      	movlt	r3, #53	; 0x35
 8002278:	f1a3 0235 	sub.w	r2, r3, #53	; 0x35
 800227c:	6d7b      	ldr	r3, [r7, #84]	; 0x54
 800227e:	f103 0135 	add.w	r1, r3, #53	; 0x35
 8002282:	f107 031c 	add.w	r3, r7, #28
 8002286:	4608      	mov	r0, r1
 8002288:	4619      	mov	r1, r3
 800228a:	4613      	mov	r3, r2
 800228c:	461a      	mov	r2, r3
 800228e:	f005 fe63 	bl	8007f58 <memcpy>
 8002292:	f108 0301 	add.w	r3, r8, #1
 8002296:	461a      	mov	r2, r3
 8002298:	6d7b      	ldr	r3, [r7, #84]	; 0x54
 800229a:	4413      	add	r3, r2
 800229c:	4a7c      	ldr	r2, [pc, #496]	; (8002490 <stm32__i2c__configure+0x318>)
 800229e:	3b01      	subs	r3, #1
 80022a0:	6810      	ldr	r0, [r2, #0]
 80022a2:	6018      	str	r0, [r3, #0]
 80022a4:	6d7b      	ldr	r3, [r7, #84]	; 0x54
 80022a6:	4699      	mov	r9, r3
 80022a8:	2301      	movs	r3, #1
 80022aa:	64fb      	str	r3, [r7, #76]	; 0x4c
 80022ac:	6dfb      	ldr	r3, [r7, #92]	; 0x5c
 80022ae:	653b      	str	r3, [r7, #80]	; 0x50
 80022b0:	f107 034c 	add.w	r3, r7, #76	; 0x4c
 80022b4:	469a      	mov	sl, r3
 80022b6:	e9c7 9a02 	strd	r9, sl, [r7, #8]
 80022ba:	68bb      	ldr	r3, [r7, #8]
 80022bc:	4618      	mov	r0, r3
 80022be:	2100      	movs	r1, #0
 80022c0:	f005 fe7e 	bl	8007fc0 <__gnat_last_chance_handler>
 80022c4:	693b      	ldr	r3, [r7, #16]
 80022c6:	4618      	mov	r0, r3
 80022c8:	2100      	movs	r1, #0
 80022ca:	f001 fe4b 	bl	8003f64 <stm32__i2c__set_state>
 80022ce:	f8b7 3062 	ldrh.w	r3, [r7, #98]	; 0x62
 80022d2:	2b3f      	cmp	r3, #63	; 0x3f
 80022d4:	d903      	bls.n	80022de <stm32__i2c__configure+0x166>
 80022d6:	486f      	ldr	r0, [pc, #444]	; (8002494 <stm32__i2c__configure+0x31c>)
 80022d8:	21a1      	movs	r1, #161	; 0xa1
 80022da:	f005 fe71 	bl	8007fc0 <__gnat_last_chance_handler>
 80022de:	69bb      	ldr	r3, [r7, #24]
 80022e0:	f8b7 2062 	ldrh.w	r2, [r7, #98]	; 0x62
 80022e4:	b2d2      	uxtb	r2, r2
 80022e6:	f002 023f 	and.w	r2, r2, #63	; 0x3f
 80022ea:	b2d2      	uxtb	r2, r2
 80022ec:	f362 0305 	bfi	r3, r2, #0, #6
 80022f0:	61bb      	str	r3, [r7, #24]
 80022f2:	69bb      	ldr	r3, [r7, #24]
 80022f4:	f36f 1387 	bfc	r3, #6, #2
 80022f8:	61bb      	str	r3, [r7, #24]
 80022fa:	69bb      	ldr	r3, [r7, #24]
 80022fc:	f36f 2308 	bfc	r3, #8, #1
 8002300:	61bb      	str	r3, [r7, #24]
 8002302:	69bb      	ldr	r3, [r7, #24]
 8002304:	f36f 2349 	bfc	r3, #9, #1
 8002308:	61bb      	str	r3, [r7, #24]
 800230a:	69bb      	ldr	r3, [r7, #24]
 800230c:	f36f 238a 	bfc	r3, #10, #1
 8002310:	61bb      	str	r3, [r7, #24]
 8002312:	69bb      	ldr	r3, [r7, #24]
 8002314:	f36f 23cb 	bfc	r3, #11, #1
 8002318:	61bb      	str	r3, [r7, #24]
 800231a:	69bb      	ldr	r3, [r7, #24]
 800231c:	f36f 330c 	bfc	r3, #12, #1
 8002320:	61bb      	str	r3, [r7, #24]
 8002322:	69bb      	ldr	r3, [r7, #24]
 8002324:	f36f 335f 	bfc	r3, #13, #19
 8002328:	61bb      	str	r3, [r7, #24]
 800232a:	693b      	ldr	r3, [r7, #16]
 800232c:	685b      	ldr	r3, [r3, #4]
 800232e:	3304      	adds	r3, #4
 8002330:	69ba      	ldr	r2, [r7, #24]
 8002332:	601a      	str	r2, [r3, #0]
 8002334:	683b      	ldr	r3, [r7, #0]
 8002336:	681b      	ldr	r3, [r3, #0]
 8002338:	4a57      	ldr	r2, [pc, #348]	; (8002498 <stm32__i2c__configure+0x320>)
 800233a:	4293      	cmp	r3, r2
 800233c:	d84f      	bhi.n	80023de <stm32__i2c__configure+0x266>
 800233e:	6c7b      	ldr	r3, [r7, #68]	; 0x44
 8002340:	f36f 33cf 	bfc	r3, #15, #1
 8002344:	647b      	str	r3, [r7, #68]	; 0x44
 8002346:	683b      	ldr	r3, [r7, #0]
 8002348:	681b      	ldr	r3, [r3, #0]
 800234a:	005b      	lsls	r3, r3, #1
 800234c:	2b00      	cmp	r3, #0
 800234e:	d103      	bne.n	8002358 <stm32__i2c__configure+0x1e0>
 8002350:	4850      	ldr	r0, [pc, #320]	; (8002494 <stm32__i2c__configure+0x31c>)
 8002352:	21a8      	movs	r1, #168	; 0xa8
 8002354:	f005 fe34 	bl	8007fc0 <__gnat_last_chance_handler>
 8002358:	683b      	ldr	r3, [r7, #0]
 800235a:	681b      	ldr	r3, [r3, #0]
 800235c:	005b      	lsls	r3, r3, #1
 800235e:	6e7a      	ldr	r2, [r7, #100]	; 0x64
 8002360:	fbb2 f3f3 	udiv	r3, r2, r3
 8002364:	f5b3 5f80 	cmp.w	r3, #4096	; 0x1000
 8002368:	d303      	bcc.n	8002372 <stm32__i2c__configure+0x1fa>
 800236a:	484a      	ldr	r0, [pc, #296]	; (8002494 <stm32__i2c__configure+0x31c>)
 800236c:	21a8      	movs	r1, #168	; 0xa8
 800236e:	f005 fe27 	bl	8007fc0 <__gnat_last_chance_handler>
 8002372:	6c7b      	ldr	r3, [r7, #68]	; 0x44
 8002374:	683a      	ldr	r2, [r7, #0]
 8002376:	6812      	ldr	r2, [r2, #0]
 8002378:	0052      	lsls	r2, r2, #1
 800237a:	6e79      	ldr	r1, [r7, #100]	; 0x64
 800237c:	fbb1 f2f2 	udiv	r2, r1, r2
 8002380:	b292      	uxth	r2, r2
 8002382:	f3c2 020b 	ubfx	r2, r2, #0, #12
 8002386:	b292      	uxth	r2, r2
 8002388:	f362 030b 	bfi	r3, r2, #0, #12
 800238c:	647b      	str	r3, [r7, #68]	; 0x44
 800238e:	6c7b      	ldr	r3, [r7, #68]	; 0x44
 8002390:	f3c3 030b 	ubfx	r3, r3, #0, #12
 8002394:	b29b      	uxth	r3, r3
 8002396:	2b03      	cmp	r3, #3
 8002398:	d804      	bhi.n	80023a4 <stm32__i2c__configure+0x22c>
 800239a:	6c7b      	ldr	r3, [r7, #68]	; 0x44
 800239c:	2204      	movs	r2, #4
 800239e:	f362 030b 	bfi	r3, r2, #0, #12
 80023a2:	647b      	str	r3, [r7, #68]	; 0x44
 80023a4:	f8b7 3062 	ldrh.w	r3, [r7, #98]	; 0x62
 80023a8:	3301      	adds	r3, #1
 80023aa:	b29b      	uxth	r3, r3
 80023ac:	2b3f      	cmp	r3, #63	; 0x3f
 80023ae:	d903      	bls.n	80023b8 <stm32__i2c__configure+0x240>
 80023b0:	4838      	ldr	r0, [pc, #224]	; (8002494 <stm32__i2c__configure+0x31c>)
 80023b2:	21ae      	movs	r1, #174	; 0xae
 80023b4:	f005 fe04 	bl	8007fc0 <__gnat_last_chance_handler>
 80023b8:	693b      	ldr	r3, [r7, #16]
 80023ba:	685b      	ldr	r3, [r3, #4]
 80023bc:	3320      	adds	r3, #32
 80023be:	681b      	ldr	r3, [r3, #0]
 80023c0:	f8b7 2062 	ldrh.w	r2, [r7, #98]	; 0x62
 80023c4:	b2d2      	uxtb	r2, r2
 80023c6:	3201      	adds	r2, #1
 80023c8:	b2d2      	uxtb	r2, r2
 80023ca:	f002 023f 	and.w	r2, r2, #63	; 0x3f
 80023ce:	b2d2      	uxtb	r2, r2
 80023d0:	f362 0305 	bfi	r3, r2, #0, #6
 80023d4:	693a      	ldr	r2, [r7, #16]
 80023d6:	6852      	ldr	r2, [r2, #4]
 80023d8:	3220      	adds	r2, #32
 80023da:	6013      	str	r3, [r2, #0]
 80023dc:	e0ad      	b.n	800253a <stm32__i2c__configure+0x3c2>
 80023de:	6c7b      	ldr	r3, [r7, #68]	; 0x44
 80023e0:	f443 4300 	orr.w	r3, r3, #32768	; 0x8000
 80023e4:	647b      	str	r3, [r7, #68]	; 0x44
 80023e6:	683b      	ldr	r3, [r7, #0]
 80023e8:	795b      	ldrb	r3, [r3, #5]
 80023ea:	2b01      	cmp	r3, #1
 80023ec:	d12c      	bne.n	8002448 <stm32__i2c__configure+0x2d0>
 80023ee:	683b      	ldr	r3, [r7, #0]
 80023f0:	681a      	ldr	r2, [r3, #0]
 80023f2:	4613      	mov	r3, r2
 80023f4:	005b      	lsls	r3, r3, #1
 80023f6:	4413      	add	r3, r2
 80023f8:	2b00      	cmp	r3, #0
 80023fa:	d103      	bne.n	8002404 <stm32__i2c__configure+0x28c>
 80023fc:	4825      	ldr	r0, [pc, #148]	; (8002494 <stm32__i2c__configure+0x31c>)
 80023fe:	21b5      	movs	r1, #181	; 0xb5
 8002400:	f005 fdde 	bl	8007fc0 <__gnat_last_chance_handler>
 8002404:	683b      	ldr	r3, [r7, #0]
 8002406:	681a      	ldr	r2, [r3, #0]
 8002408:	4613      	mov	r3, r2
 800240a:	005b      	lsls	r3, r3, #1
 800240c:	4413      	add	r3, r2
 800240e:	6e7a      	ldr	r2, [r7, #100]	; 0x64
 8002410:	fbb2 f3f3 	udiv	r3, r2, r3
 8002414:	f5b3 5f80 	cmp.w	r3, #4096	; 0x1000
 8002418:	d303      	bcc.n	8002422 <stm32__i2c__configure+0x2aa>
 800241a:	481e      	ldr	r0, [pc, #120]	; (8002494 <stm32__i2c__configure+0x31c>)
 800241c:	21b5      	movs	r1, #181	; 0xb5
 800241e:	f005 fdcf 	bl	8007fc0 <__gnat_last_chance_handler>
 8002422:	6c7b      	ldr	r3, [r7, #68]	; 0x44
 8002424:	461a      	mov	r2, r3
 8002426:	683b      	ldr	r3, [r7, #0]
 8002428:	6819      	ldr	r1, [r3, #0]
 800242a:	460b      	mov	r3, r1
 800242c:	005b      	lsls	r3, r3, #1
 800242e:	440b      	add	r3, r1
 8002430:	6e79      	ldr	r1, [r7, #100]	; 0x64
 8002432:	fbb1 f3f3 	udiv	r3, r1, r3
 8002436:	b29b      	uxth	r3, r3
 8002438:	f3c3 030b 	ubfx	r3, r3, #0, #12
 800243c:	b29b      	uxth	r3, r3
 800243e:	f363 020b 	bfi	r2, r3, #0, #12
 8002442:	4613      	mov	r3, r2
 8002444:	647b      	str	r3, [r7, #68]	; 0x44
 8002446:	e041      	b.n	80024cc <stm32__i2c__configure+0x354>
 8002448:	683b      	ldr	r3, [r7, #0]
 800244a:	681a      	ldr	r2, [r3, #0]
 800244c:	4613      	mov	r3, r2
 800244e:	009b      	lsls	r3, r3, #2
 8002450:	4413      	add	r3, r2
 8002452:	009a      	lsls	r2, r3, #2
 8002454:	4413      	add	r3, r2
 8002456:	2b00      	cmp	r3, #0
 8002458:	d103      	bne.n	8002462 <stm32__i2c__configure+0x2ea>
 800245a:	480e      	ldr	r0, [pc, #56]	; (8002494 <stm32__i2c__configure+0x31c>)
 800245c:	21b7      	movs	r1, #183	; 0xb7
 800245e:	f005 fdaf 	bl	8007fc0 <__gnat_last_chance_handler>
 8002462:	683b      	ldr	r3, [r7, #0]
 8002464:	681a      	ldr	r2, [r3, #0]
 8002466:	4613      	mov	r3, r2
 8002468:	009b      	lsls	r3, r3, #2
 800246a:	4413      	add	r3, r2
 800246c:	009a      	lsls	r2, r3, #2
 800246e:	4413      	add	r3, r2
 8002470:	6e7a      	ldr	r2, [r7, #100]	; 0x64
 8002472:	fbb2 f3f3 	udiv	r3, r2, r3
 8002476:	f5b3 5f80 	cmp.w	r3, #4096	; 0x1000
 800247a:	d30f      	bcc.n	800249c <stm32__i2c__configure+0x324>
 800247c:	4805      	ldr	r0, [pc, #20]	; (8002494 <stm32__i2c__configure+0x31c>)
 800247e:	21b7      	movs	r1, #183	; 0xb7
 8002480:	f005 fd9e 	bl	8007fc0 <__gnat_last_chance_handler>
 8002484:	431bde83 	.word	0x431bde83
 8002488:	08009094 	.word	0x08009094
 800248c:	0800909c 	.word	0x0800909c
 8002490:	080090d4 	.word	0x080090d4
 8002494:	08009084 	.word	0x08009084
 8002498:	000186a0 	.word	0x000186a0
 800249c:	6c7b      	ldr	r3, [r7, #68]	; 0x44
 800249e:	461a      	mov	r2, r3
 80024a0:	683b      	ldr	r3, [r7, #0]
 80024a2:	6819      	ldr	r1, [r3, #0]
 80024a4:	460b      	mov	r3, r1
 80024a6:	009b      	lsls	r3, r3, #2
 80024a8:	440b      	add	r3, r1
 80024aa:	0099      	lsls	r1, r3, #2
 80024ac:	440b      	add	r3, r1
 80024ae:	6e79      	ldr	r1, [r7, #100]	; 0x64
 80024b0:	fbb1 f3f3 	udiv	r3, r1, r3
 80024b4:	b29b      	uxth	r3, r3
 80024b6:	f3c3 030b 	ubfx	r3, r3, #0, #12
 80024ba:	b29b      	uxth	r3, r3
 80024bc:	f363 020b 	bfi	r2, r3, #0, #12
 80024c0:	4613      	mov	r3, r2
 80024c2:	647b      	str	r3, [r7, #68]	; 0x44
 80024c4:	6c7b      	ldr	r3, [r7, #68]	; 0x44
 80024c6:	f443 4380 	orr.w	r3, r3, #16384	; 0x4000
 80024ca:	647b      	str	r3, [r7, #68]	; 0x44
 80024cc:	6c7b      	ldr	r3, [r7, #68]	; 0x44
 80024ce:	b29b      	uxth	r3, r3
 80024d0:	f3c3 030b 	ubfx	r3, r3, #0, #12
 80024d4:	b29b      	uxth	r3, r3
 80024d6:	2b00      	cmp	r3, #0
 80024d8:	d104      	bne.n	80024e4 <stm32__i2c__configure+0x36c>
 80024da:	6c7b      	ldr	r3, [r7, #68]	; 0x44
 80024dc:	2201      	movs	r2, #1
 80024de:	f362 030b 	bfi	r3, r2, #0, #12
 80024e2:	647b      	str	r3, [r7, #68]	; 0x44
 80024e4:	f8b7 3062 	ldrh.w	r3, [r7, #98]	; 0x62
 80024e8:	f44f 7296 	mov.w	r2, #300	; 0x12c
 80024ec:	fb02 f303 	mul.w	r3, r2, r3
 80024f0:	4a7e      	ldr	r2, [pc, #504]	; (80026ec <stm32__i2c__configure+0x574>)
 80024f2:	fba2 2303 	umull	r2, r3, r2, r3
 80024f6:	099b      	lsrs	r3, r3, #6
 80024f8:	3301      	adds	r3, #1
 80024fa:	2b3f      	cmp	r3, #63	; 0x3f
 80024fc:	d903      	bls.n	8002506 <stm32__i2c__configure+0x38e>
 80024fe:	487c      	ldr	r0, [pc, #496]	; (80026f0 <stm32__i2c__configure+0x578>)
 8002500:	21c0      	movs	r1, #192	; 0xc0
 8002502:	f005 fd5d 	bl	8007fc0 <__gnat_last_chance_handler>
 8002506:	693b      	ldr	r3, [r7, #16]
 8002508:	685b      	ldr	r3, [r3, #4]
 800250a:	3320      	adds	r3, #32
 800250c:	681b      	ldr	r3, [r3, #0]
 800250e:	f8b7 2062 	ldrh.w	r2, [r7, #98]	; 0x62
 8002512:	f44f 7196 	mov.w	r1, #300	; 0x12c
 8002516:	fb01 f202 	mul.w	r2, r1, r2
 800251a:	4974      	ldr	r1, [pc, #464]	; (80026ec <stm32__i2c__configure+0x574>)
 800251c:	fba1 1202 	umull	r1, r2, r1, r2
 8002520:	0992      	lsrs	r2, r2, #6
 8002522:	b2d2      	uxtb	r2, r2
 8002524:	3201      	adds	r2, #1
 8002526:	b2d2      	uxtb	r2, r2
 8002528:	f002 023f 	and.w	r2, r2, #63	; 0x3f
 800252c:	b2d2      	uxtb	r2, r2
 800252e:	f362 0305 	bfi	r3, r2, #0, #6
 8002532:	693a      	ldr	r2, [r7, #16]
 8002534:	6852      	ldr	r2, [r2, #4]
 8002536:	3220      	adds	r2, #32
 8002538:	6013      	str	r3, [r2, #0]
 800253a:	693b      	ldr	r3, [r7, #16]
 800253c:	685b      	ldr	r3, [r3, #4]
 800253e:	331c      	adds	r3, #28
 8002540:	6c7a      	ldr	r2, [r7, #68]	; 0x44
 8002542:	601a      	str	r2, [r3, #0]
 8002544:	683b      	ldr	r3, [r7, #0]
 8002546:	791b      	ldrb	r3, [r3, #4]
 8002548:	2b02      	cmp	r3, #2
 800254a:	d903      	bls.n	8002554 <stm32__i2c__configure+0x3dc>
 800254c:	4868      	ldr	r0, [pc, #416]	; (80026f0 <stm32__i2c__configure+0x578>)
 800254e:	21c6      	movs	r1, #198	; 0xc6
 8002550:	f005 fd36 	bl	8007fc0 <__gnat_last_chance_handler>
 8002554:	683b      	ldr	r3, [r7, #0]
 8002556:	791b      	ldrb	r3, [r3, #4]
 8002558:	2b00      	cmp	r3, #0
 800255a:	d002      	beq.n	8002562 <stm32__i2c__configure+0x3ea>
 800255c:	2b01      	cmp	r3, #1
 800255e:	d009      	beq.n	8002574 <stm32__i2c__configure+0x3fc>
 8002560:	e011      	b.n	8002586 <stm32__i2c__configure+0x40e>
 8002562:	6cbb      	ldr	r3, [r7, #72]	; 0x48
 8002564:	f36f 0341 	bfc	r3, #1, #1
 8002568:	64bb      	str	r3, [r7, #72]	; 0x48
 800256a:	6cbb      	ldr	r3, [r7, #72]	; 0x48
 800256c:	f36f 03c3 	bfc	r3, #3, #1
 8002570:	64bb      	str	r3, [r7, #72]	; 0x48
 8002572:	e010      	b.n	8002596 <stm32__i2c__configure+0x41e>
 8002574:	6cbb      	ldr	r3, [r7, #72]	; 0x48
 8002576:	f043 0302 	orr.w	r3, r3, #2
 800257a:	64bb      	str	r3, [r7, #72]	; 0x48
 800257c:	6cbb      	ldr	r3, [r7, #72]	; 0x48
 800257e:	f36f 03c3 	bfc	r3, #3, #1
 8002582:	64bb      	str	r3, [r7, #72]	; 0x48
 8002584:	e007      	b.n	8002596 <stm32__i2c__configure+0x41e>
 8002586:	6cbb      	ldr	r3, [r7, #72]	; 0x48
 8002588:	f043 0302 	orr.w	r3, r3, #2
 800258c:	64bb      	str	r3, [r7, #72]	; 0x48
 800258e:	6cbb      	ldr	r3, [r7, #72]	; 0x48
 8002590:	f043 0308 	orr.w	r3, r3, #8
 8002594:	64bb      	str	r3, [r7, #72]	; 0x48
 8002596:	bf00      	nop
 8002598:	6cbb      	ldr	r3, [r7, #72]	; 0x48
 800259a:	683a      	ldr	r2, [r7, #0]
 800259c:	7a92      	ldrb	r2, [r2, #10]
 800259e:	f002 0201 	and.w	r2, r2, #1
 80025a2:	b2d2      	uxtb	r2, r2
 80025a4:	f362 1386 	bfi	r3, r2, #6, #1
 80025a8:	64bb      	str	r3, [r7, #72]	; 0x48
 80025aa:	6cbb      	ldr	r3, [r7, #72]	; 0x48
 80025ac:	683a      	ldr	r2, [r7, #0]
 80025ae:	7ad2      	ldrb	r2, [r2, #11]
 80025b0:	f082 0201 	eor.w	r2, r2, #1
 80025b4:	b2d2      	uxtb	r2, r2
 80025b6:	f002 0201 	and.w	r2, r2, #1
 80025ba:	b2d2      	uxtb	r2, r2
 80025bc:	f362 13c7 	bfi	r3, r2, #7, #1
 80025c0:	64bb      	str	r3, [r7, #72]	; 0x48
 80025c2:	693b      	ldr	r3, [r7, #16]
 80025c4:	685b      	ldr	r3, [r3, #4]
 80025c6:	461a      	mov	r2, r3
 80025c8:	6cbb      	ldr	r3, [r7, #72]	; 0x48
 80025ca:	6013      	str	r3, [r2, #0]
 80025cc:	6c3b      	ldr	r3, [r7, #64]	; 0x40
 80025ce:	683a      	ldr	r2, [r7, #0]
 80025d0:	7992      	ldrb	r2, [r2, #6]
 80025d2:	2a01      	cmp	r2, #1
 80025d4:	bf0c      	ite	eq
 80025d6:	2201      	moveq	r2, #1
 80025d8:	2200      	movne	r2, #0
 80025da:	b2d2      	uxtb	r2, r2
 80025dc:	f002 0201 	and.w	r2, r2, #1
 80025e0:	b2d2      	uxtb	r2, r2
 80025e2:	f362 33cf 	bfi	r3, r2, #15, #1
 80025e6:	643b      	str	r3, [r7, #64]	; 0x40
 80025e8:	683b      	ldr	r3, [r7, #0]
 80025ea:	799b      	ldrb	r3, [r3, #6]
 80025ec:	2b01      	cmp	r3, #1
 80025ee:	d903      	bls.n	80025f8 <stm32__i2c__configure+0x480>
 80025f0:	483f      	ldr	r0, [pc, #252]	; (80026f0 <stm32__i2c__configure+0x578>)
 80025f2:	21d7      	movs	r1, #215	; 0xd7
 80025f4:	f005 fce4 	bl	8007fc0 <__gnat_last_chance_handler>
 80025f8:	683b      	ldr	r3, [r7, #0]
 80025fa:	799b      	ldrb	r3, [r3, #6]
 80025fc:	2b00      	cmp	r3, #0
 80025fe:	d11c      	bne.n	800263a <stm32__i2c__configure+0x4c2>
 8002600:	6c3b      	ldr	r3, [r7, #64]	; 0x40
 8002602:	f36f 0300 	bfc	r3, #0, #1
 8002606:	643b      	str	r3, [r7, #64]	; 0x40
 8002608:	683b      	ldr	r3, [r7, #0]
 800260a:	891b      	ldrh	r3, [r3, #8]
 800260c:	2bff      	cmp	r3, #255	; 0xff
 800260e:	d903      	bls.n	8002618 <stm32__i2c__configure+0x4a0>
 8002610:	4837      	ldr	r0, [pc, #220]	; (80026f0 <stm32__i2c__configure+0x578>)
 8002612:	21da      	movs	r1, #218	; 0xda
 8002614:	f005 fcd4 	bl	8007fc0 <__gnat_last_chance_handler>
 8002618:	6c3b      	ldr	r3, [r7, #64]	; 0x40
 800261a:	683a      	ldr	r2, [r7, #0]
 800261c:	8912      	ldrh	r2, [r2, #8]
 800261e:	0852      	lsrs	r2, r2, #1
 8002620:	b292      	uxth	r2, r2
 8002622:	b2d2      	uxtb	r2, r2
 8002624:	f002 027f 	and.w	r2, r2, #127	; 0x7f
 8002628:	b2d2      	uxtb	r2, r2
 800262a:	f362 0347 	bfi	r3, r2, #1, #7
 800262e:	643b      	str	r3, [r7, #64]	; 0x40
 8002630:	6c3b      	ldr	r3, [r7, #64]	; 0x40
 8002632:	f36f 2309 	bfc	r3, #8, #2
 8002636:	643b      	str	r3, [r7, #64]	; 0x40
 8002638:	e040      	b.n	80026bc <stm32__i2c__configure+0x544>
 800263a:	6c3b      	ldr	r3, [r7, #64]	; 0x40
 800263c:	683a      	ldr	r2, [r7, #0]
 800263e:	8912      	ldrh	r2, [r2, #8]
 8002640:	f002 0201 	and.w	r2, r2, #1
 8002644:	b292      	uxth	r2, r2
 8002646:	2a00      	cmp	r2, #0
 8002648:	bf14      	ite	ne
 800264a:	2201      	movne	r2, #1
 800264c:	2200      	moveq	r2, #0
 800264e:	b2d2      	uxtb	r2, r2
 8002650:	f002 0201 	and.w	r2, r2, #1
 8002654:	b2d2      	uxtb	r2, r2
 8002656:	f362 0300 	bfi	r3, r2, #0, #1
 800265a:	643b      	str	r3, [r7, #64]	; 0x40
 800265c:	683b      	ldr	r3, [r7, #0]
 800265e:	891b      	ldrh	r3, [r3, #8]
 8002660:	085b      	lsrs	r3, r3, #1
 8002662:	b29b      	uxth	r3, r3
 8002664:	f003 037f 	and.w	r3, r3, #127	; 0x7f
 8002668:	b29b      	uxth	r3, r3
 800266a:	2b7f      	cmp	r3, #127	; 0x7f
 800266c:	d903      	bls.n	8002676 <stm32__i2c__configure+0x4fe>
 800266e:	4820      	ldr	r0, [pc, #128]	; (80026f0 <stm32__i2c__configure+0x578>)
 8002670:	21de      	movs	r1, #222	; 0xde
 8002672:	f005 fca5 	bl	8007fc0 <__gnat_last_chance_handler>
 8002676:	6c3b      	ldr	r3, [r7, #64]	; 0x40
 8002678:	683a      	ldr	r2, [r7, #0]
 800267a:	8912      	ldrh	r2, [r2, #8]
 800267c:	0852      	lsrs	r2, r2, #1
 800267e:	b292      	uxth	r2, r2
 8002680:	b2d2      	uxtb	r2, r2
 8002682:	f002 027f 	and.w	r2, r2, #127	; 0x7f
 8002686:	b2d2      	uxtb	r2, r2
 8002688:	f362 0347 	bfi	r3, r2, #1, #7
 800268c:	643b      	str	r3, [r7, #64]	; 0x40
 800268e:	6c3b      	ldr	r3, [r7, #64]	; 0x40
 8002690:	683a      	ldr	r2, [r7, #0]
 8002692:	8912      	ldrh	r2, [r2, #8]
 8002694:	0a12      	lsrs	r2, r2, #8
 8002696:	b292      	uxth	r2, r2
 8002698:	b2d2      	uxtb	r2, r2
 800269a:	2a03      	cmp	r2, #3
 800269c:	d903      	bls.n	80026a6 <stm32__i2c__configure+0x52e>
 800269e:	4814      	ldr	r0, [pc, #80]	; (80026f0 <stm32__i2c__configure+0x578>)
 80026a0:	21df      	movs	r1, #223	; 0xdf
 80026a2:	f005 fc8d 	bl	8007fc0 <__gnat_last_chance_handler>
 80026a6:	683a      	ldr	r2, [r7, #0]
 80026a8:	8912      	ldrh	r2, [r2, #8]
 80026aa:	0a12      	lsrs	r2, r2, #8
 80026ac:	b292      	uxth	r2, r2
 80026ae:	b2d2      	uxtb	r2, r2
 80026b0:	f002 0203 	and.w	r2, r2, #3
 80026b4:	b2d2      	uxtb	r2, r2
 80026b6:	f362 2309 	bfi	r3, r2, #8, #2
 80026ba:	643b      	str	r3, [r7, #64]	; 0x40
 80026bc:	693b      	ldr	r3, [r7, #16]
 80026be:	685b      	ldr	r3, [r3, #4]
 80026c0:	3308      	adds	r3, #8
 80026c2:	6c3a      	ldr	r2, [r7, #64]	; 0x40
 80026c4:	601a      	str	r2, [r3, #0]
 80026c6:	693b      	ldr	r3, [r7, #16]
 80026c8:	4618      	mov	r0, r3
 80026ca:	2101      	movs	r1, #1
 80026cc:	f001 fc4a 	bl	8003f64 <stm32__i2c__set_state>
 80026d0:	693b      	ldr	r3, [r7, #16]
 80026d2:	2201      	movs	r2, #1
 80026d4:	751a      	strb	r2, [r3, #20]
 80026d6:	f107 0310 	add.w	r3, r7, #16
 80026da:	469c      	mov	ip, r3
 80026dc:	f7ff fd2e 	bl	800213c <stm32__i2c__configure___postconditions.4692>
 80026e0:	46b5      	mov	sp, r6
 80026e2:	3768      	adds	r7, #104	; 0x68
 80026e4:	46bd      	mov	sp, r7
 80026e6:	e8bd 87f0 	ldmia.w	sp!, {r4, r5, r6, r7, r8, r9, sl, pc}
 80026ea:	bf00      	nop
 80026ec:	10624dd3 	.word	0x10624dd3
 80026f0:	08009084 	.word	0x08009084

080026f4 <stm32__i2c__flag_status>:
 80026f4:	b580      	push	{r7, lr}
 80026f6:	b082      	sub	sp, #8
 80026f8:	af00      	add	r7, sp, #0
 80026fa:	6078      	str	r0, [r7, #4]
 80026fc:	460b      	mov	r3, r1
 80026fe:	70fb      	strb	r3, [r7, #3]
 8002700:	78fb      	ldrb	r3, [r7, #3]
 8002702:	2b14      	cmp	r3, #20
 8002704:	d903      	bls.n	800270e <stm32__i2c__flag_status+0x1a>
 8002706:	4870      	ldr	r0, [pc, #448]	; (80028c8 <stm32__i2c__flag_status+0x1d4>)
 8002708:	21f0      	movs	r1, #240	; 0xf0
 800270a:	f005 fc59 	bl	8007fc0 <__gnat_last_chance_handler>
 800270e:	78fb      	ldrb	r3, [r7, #3]
 8002710:	2b13      	cmp	r3, #19
 8002712:	f200 80cb 	bhi.w	80028ac <stm32__i2c__flag_status+0x1b8>
 8002716:	a201      	add	r2, pc, #4	; (adr r2, 800271c <stm32__i2c__flag_status+0x28>)
 8002718:	f852 f023 	ldr.w	pc, [r2, r3, lsl #2]
 800271c:	0800276d 	.word	0x0800276d
 8002720:	0800277d 	.word	0x0800277d
 8002724:	0800278d 	.word	0x0800278d
 8002728:	0800279d 	.word	0x0800279d
 800272c:	080027ad 	.word	0x080027ad
 8002730:	080027bd 	.word	0x080027bd
 8002734:	080027cd 	.word	0x080027cd
 8002738:	080027dd 	.word	0x080027dd
 800273c:	080027ed 	.word	0x080027ed
 8002740:	080027fd 	.word	0x080027fd
 8002744:	0800280d 	.word	0x0800280d
 8002748:	0800281d 	.word	0x0800281d
 800274c:	0800282d 	.word	0x0800282d
 8002750:	0800283d 	.word	0x0800283d
 8002754:	0800284d 	.word	0x0800284d
 8002758:	0800285d 	.word	0x0800285d
 800275c:	0800286d 	.word	0x0800286d
 8002760:	0800287d 	.word	0x0800287d
 8002764:	0800288d 	.word	0x0800288d
 8002768:	0800289d 	.word	0x0800289d
 800276c:	687b      	ldr	r3, [r7, #4]
 800276e:	685b      	ldr	r3, [r3, #4]
 8002770:	3314      	adds	r3, #20
 8002772:	681b      	ldr	r3, [r3, #0]
 8002774:	f3c3 0300 	ubfx	r3, r3, #0, #1
 8002778:	b2db      	uxtb	r3, r3
 800277a:	e09f      	b.n	80028bc <stm32__i2c__flag_status+0x1c8>
 800277c:	687b      	ldr	r3, [r7, #4]
 800277e:	685b      	ldr	r3, [r3, #4]
 8002780:	3314      	adds	r3, #20
 8002782:	681b      	ldr	r3, [r3, #0]
 8002784:	f3c3 0340 	ubfx	r3, r3, #1, #1
 8002788:	b2db      	uxtb	r3, r3
 800278a:	e097      	b.n	80028bc <stm32__i2c__flag_status+0x1c8>
 800278c:	687b      	ldr	r3, [r7, #4]
 800278e:	685b      	ldr	r3, [r3, #4]
 8002790:	3314      	adds	r3, #20
 8002792:	681b      	ldr	r3, [r3, #0]
 8002794:	f3c3 0380 	ubfx	r3, r3, #2, #1
 8002798:	b2db      	uxtb	r3, r3
 800279a:	e08f      	b.n	80028bc <stm32__i2c__flag_status+0x1c8>
 800279c:	687b      	ldr	r3, [r7, #4]
 800279e:	685b      	ldr	r3, [r3, #4]
 80027a0:	3314      	adds	r3, #20
 80027a2:	681b      	ldr	r3, [r3, #0]
 80027a4:	f3c3 03c0 	ubfx	r3, r3, #3, #1
 80027a8:	b2db      	uxtb	r3, r3
 80027aa:	e087      	b.n	80028bc <stm32__i2c__flag_status+0x1c8>
 80027ac:	687b      	ldr	r3, [r7, #4]
 80027ae:	685b      	ldr	r3, [r3, #4]
 80027b0:	3314      	adds	r3, #20
 80027b2:	681b      	ldr	r3, [r3, #0]
 80027b4:	f3c3 1300 	ubfx	r3, r3, #4, #1
 80027b8:	b2db      	uxtb	r3, r3
 80027ba:	e07f      	b.n	80028bc <stm32__i2c__flag_status+0x1c8>
 80027bc:	687b      	ldr	r3, [r7, #4]
 80027be:	685b      	ldr	r3, [r3, #4]
 80027c0:	3314      	adds	r3, #20
 80027c2:	681b      	ldr	r3, [r3, #0]
 80027c4:	f3c3 1380 	ubfx	r3, r3, #6, #1
 80027c8:	b2db      	uxtb	r3, r3
 80027ca:	e077      	b.n	80028bc <stm32__i2c__flag_status+0x1c8>
 80027cc:	687b      	ldr	r3, [r7, #4]
 80027ce:	685b      	ldr	r3, [r3, #4]
 80027d0:	3314      	adds	r3, #20
 80027d2:	681b      	ldr	r3, [r3, #0]
 80027d4:	f3c3 13c0 	ubfx	r3, r3, #7, #1
 80027d8:	b2db      	uxtb	r3, r3
 80027da:	e06f      	b.n	80028bc <stm32__i2c__flag_status+0x1c8>
 80027dc:	687b      	ldr	r3, [r7, #4]
 80027de:	685b      	ldr	r3, [r3, #4]
 80027e0:	3314      	adds	r3, #20
 80027e2:	681b      	ldr	r3, [r3, #0]
 80027e4:	f3c3 2300 	ubfx	r3, r3, #8, #1
 80027e8:	b2db      	uxtb	r3, r3
 80027ea:	e067      	b.n	80028bc <stm32__i2c__flag_status+0x1c8>
 80027ec:	687b      	ldr	r3, [r7, #4]
 80027ee:	685b      	ldr	r3, [r3, #4]
 80027f0:	3314      	adds	r3, #20
 80027f2:	681b      	ldr	r3, [r3, #0]
 80027f4:	f3c3 2340 	ubfx	r3, r3, #9, #1
 80027f8:	b2db      	uxtb	r3, r3
 80027fa:	e05f      	b.n	80028bc <stm32__i2c__flag_status+0x1c8>
 80027fc:	687b      	ldr	r3, [r7, #4]
 80027fe:	685b      	ldr	r3, [r3, #4]
 8002800:	3314      	adds	r3, #20
 8002802:	681b      	ldr	r3, [r3, #0]
 8002804:	f3c3 2380 	ubfx	r3, r3, #10, #1
 8002808:	b2db      	uxtb	r3, r3
 800280a:	e057      	b.n	80028bc <stm32__i2c__flag_status+0x1c8>
 800280c:	687b      	ldr	r3, [r7, #4]
 800280e:	685b      	ldr	r3, [r3, #4]
 8002810:	3314      	adds	r3, #20
 8002812:	681b      	ldr	r3, [r3, #0]
 8002814:	f3c3 23c0 	ubfx	r3, r3, #11, #1
 8002818:	b2db      	uxtb	r3, r3
 800281a:	e04f      	b.n	80028bc <stm32__i2c__flag_status+0x1c8>
 800281c:	687b      	ldr	r3, [r7, #4]
 800281e:	685b      	ldr	r3, [r3, #4]
 8002820:	3314      	adds	r3, #20
 8002822:	681b      	ldr	r3, [r3, #0]
 8002824:	f3c3 3300 	ubfx	r3, r3, #12, #1
 8002828:	b2db      	uxtb	r3, r3
 800282a:	e047      	b.n	80028bc <stm32__i2c__flag_status+0x1c8>
 800282c:	687b      	ldr	r3, [r7, #4]
 800282e:	685b      	ldr	r3, [r3, #4]
 8002830:	3314      	adds	r3, #20
 8002832:	681b      	ldr	r3, [r3, #0]
 8002834:	f3c3 3380 	ubfx	r3, r3, #14, #1
 8002838:	b2db      	uxtb	r3, r3
 800283a:	e03f      	b.n	80028bc <stm32__i2c__flag_status+0x1c8>
 800283c:	687b      	ldr	r3, [r7, #4]
 800283e:	685b      	ldr	r3, [r3, #4]
 8002840:	3314      	adds	r3, #20
 8002842:	681b      	ldr	r3, [r3, #0]
 8002844:	f3c3 33c0 	ubfx	r3, r3, #15, #1
 8002848:	b2db      	uxtb	r3, r3
 800284a:	e037      	b.n	80028bc <stm32__i2c__flag_status+0x1c8>
 800284c:	687b      	ldr	r3, [r7, #4]
 800284e:	685b      	ldr	r3, [r3, #4]
 8002850:	3318      	adds	r3, #24
 8002852:	681b      	ldr	r3, [r3, #0]
 8002854:	f3c3 0300 	ubfx	r3, r3, #0, #1
 8002858:	b2db      	uxtb	r3, r3
 800285a:	e02f      	b.n	80028bc <stm32__i2c__flag_status+0x1c8>
 800285c:	687b      	ldr	r3, [r7, #4]
 800285e:	685b      	ldr	r3, [r3, #4]
 8002860:	3318      	adds	r3, #24
 8002862:	681b      	ldr	r3, [r3, #0]
 8002864:	f3c3 0340 	ubfx	r3, r3, #1, #1
 8002868:	b2db      	uxtb	r3, r3
 800286a:	e027      	b.n	80028bc <stm32__i2c__flag_status+0x1c8>
 800286c:	687b      	ldr	r3, [r7, #4]
 800286e:	685b      	ldr	r3, [r3, #4]
 8002870:	3318      	adds	r3, #24
 8002872:	681b      	ldr	r3, [r3, #0]
 8002874:	f3c3 0380 	ubfx	r3, r3, #2, #1
 8002878:	b2db      	uxtb	r3, r3
 800287a:	e01f      	b.n	80028bc <stm32__i2c__flag_status+0x1c8>
 800287c:	687b      	ldr	r3, [r7, #4]
 800287e:	685b      	ldr	r3, [r3, #4]
 8002880:	3318      	adds	r3, #24
 8002882:	681b      	ldr	r3, [r3, #0]
 8002884:	f3c3 1300 	ubfx	r3, r3, #4, #1
 8002888:	b2db      	uxtb	r3, r3
 800288a:	e017      	b.n	80028bc <stm32__i2c__flag_status+0x1c8>
 800288c:	687b      	ldr	r3, [r7, #4]
 800288e:	685b      	ldr	r3, [r3, #4]
 8002890:	3318      	adds	r3, #24
 8002892:	681b      	ldr	r3, [r3, #0]
 8002894:	f3c3 1340 	ubfx	r3, r3, #5, #1
 8002898:	b2db      	uxtb	r3, r3
 800289a:	e00f      	b.n	80028bc <stm32__i2c__flag_status+0x1c8>
 800289c:	687b      	ldr	r3, [r7, #4]
 800289e:	685b      	ldr	r3, [r3, #4]
 80028a0:	3318      	adds	r3, #24
 80028a2:	681b      	ldr	r3, [r3, #0]
 80028a4:	f3c3 1380 	ubfx	r3, r3, #6, #1
 80028a8:	b2db      	uxtb	r3, r3
 80028aa:	e007      	b.n	80028bc <stm32__i2c__flag_status+0x1c8>
 80028ac:	687b      	ldr	r3, [r7, #4]
 80028ae:	685b      	ldr	r3, [r3, #4]
 80028b0:	3318      	adds	r3, #24
 80028b2:	681b      	ldr	r3, [r3, #0]
 80028b4:	f3c3 13c0 	ubfx	r3, r3, #7, #1
 80028b8:	b2db      	uxtb	r3, r3
 80028ba:	bf00      	nop
 80028bc:	bf00      	nop
 80028be:	4618      	mov	r0, r3
 80028c0:	3708      	adds	r7, #8
 80028c2:	46bd      	mov	sp, r7
 80028c4:	bd80      	pop	{r7, pc}
 80028c6:	bf00      	nop
 80028c8:	08009084 	.word	0x08009084

080028cc <stm32__i2c__clear_address_sent_status>:
 80028cc:	b480      	push	{r7}
 80028ce:	b085      	sub	sp, #20
 80028d0:	af00      	add	r7, sp, #0
 80028d2:	6078      	str	r0, [r7, #4]
 80028d4:	687b      	ldr	r3, [r7, #4]
 80028d6:	685b      	ldr	r3, [r3, #4]
 80028d8:	3314      	adds	r3, #20
 80028da:	681b      	ldr	r3, [r3, #0]
 80028dc:	f3c3 0340 	ubfx	r3, r3, #1, #1
 80028e0:	b2db      	uxtb	r3, r3
 80028e2:	73fb      	strb	r3, [r7, #15]
 80028e4:	687b      	ldr	r3, [r7, #4]
 80028e6:	685b      	ldr	r3, [r3, #4]
 80028e8:	3318      	adds	r3, #24
 80028ea:	681b      	ldr	r3, [r3, #0]
 80028ec:	f3c3 0300 	ubfx	r3, r3, #0, #1
 80028f0:	b2db      	uxtb	r3, r3
 80028f2:	73fb      	strb	r3, [r7, #15]
 80028f4:	3714      	adds	r7, #20
 80028f6:	46bd      	mov	sp, r7
 80028f8:	f85d 7b04 	ldr.w	r7, [sp], #4
 80028fc:	4770      	bx	lr
 80028fe:	bf00      	nop

08002900 <stm32__i2c__wait_flag>:
 8002900:	b5b0      	push	{r4, r5, r7, lr}
 8002902:	b088      	sub	sp, #32
 8002904:	af00      	add	r7, sp, #0
 8002906:	60f8      	str	r0, [r7, #12]
 8002908:	607b      	str	r3, [r7, #4]
 800290a:	460b      	mov	r3, r1
 800290c:	72fb      	strb	r3, [r7, #11]
 800290e:	4613      	mov	r3, r2
 8002910:	72bb      	strb	r3, [r7, #10]
 8002912:	f004 f987 	bl	8006c24 <ada__real_time__clock>
 8002916:	e9c7 0106 	strd	r0, r1, [r7, #24]
 800291a:	7afb      	ldrb	r3, [r7, #11]
 800291c:	68f8      	ldr	r0, [r7, #12]
 800291e:	4619      	mov	r1, r3
 8002920:	f7ff fee8 	bl	80026f4 <stm32__i2c__flag_status>
 8002924:	4603      	mov	r3, r0
 8002926:	461a      	mov	r2, r3
 8002928:	7abb      	ldrb	r3, [r7, #10]
 800292a:	4293      	cmp	r3, r2
 800292c:	d11a      	bne.n	8002964 <stm32__i2c__wait_flag+0x64>
 800292e:	f004 f979 	bl	8006c24 <ada__real_time__clock>
 8002932:	4603      	mov	r3, r0
 8002934:	460c      	mov	r4, r1
 8002936:	4618      	mov	r0, r3
 8002938:	4621      	mov	r1, r4
 800293a:	e9d7 2306 	ldrd	r2, r3, [r7, #24]
 800293e:	f004 f94f 	bl	8006be0 <ada__real_time__Osubtract__2>
 8002942:	4604      	mov	r4, r0
 8002944:	460d      	mov	r5, r1
 8002946:	687b      	ldr	r3, [r7, #4]
 8002948:	4618      	mov	r0, r3
 800294a:	f004 f997 	bl	8006c7c <ada__real_time__milliseconds>
 800294e:	4602      	mov	r2, r0
 8002950:	460b      	mov	r3, r1
 8002952:	42a2      	cmp	r2, r4
 8002954:	41ab      	sbcs	r3, r5
 8002956:	dae0      	bge.n	800291a <stm32__i2c__wait_flag+0x1a>
 8002958:	68fb      	ldr	r3, [r7, #12]
 800295a:	2201      	movs	r2, #1
 800295c:	751a      	strb	r2, [r3, #20]
 800295e:	2302      	movs	r3, #2
 8002960:	75fb      	strb	r3, [r7, #23]
 8002962:	e001      	b.n	8002968 <stm32__i2c__wait_flag+0x68>
 8002964:	2300      	movs	r3, #0
 8002966:	75fb      	strb	r3, [r7, #23]
 8002968:	7dfb      	ldrb	r3, [r7, #23]
 800296a:	bf00      	nop
 800296c:	4618      	mov	r0, r3
 800296e:	3720      	adds	r7, #32
 8002970:	46bd      	mov	sp, r7
 8002972:	bdb0      	pop	{r4, r5, r7, pc}

08002974 <stm32__i2c__wait_master_flag>:
 8002974:	b5b0      	push	{r4, r5, r7, lr}
 8002976:	b088      	sub	sp, #32
 8002978:	af00      	add	r7, sp, #0
 800297a:	60f8      	str	r0, [r7, #12]
 800297c:	460b      	mov	r3, r1
 800297e:	607a      	str	r2, [r7, #4]
 8002980:	72fb      	strb	r3, [r7, #11]
 8002982:	f004 f94f 	bl	8006c24 <ada__real_time__clock>
 8002986:	e9c7 0106 	strd	r0, r1, [r7, #24]
 800298a:	7afb      	ldrb	r3, [r7, #11]
 800298c:	68f8      	ldr	r0, [r7, #12]
 800298e:	4619      	mov	r1, r3
 8002990:	f7ff feb0 	bl	80026f4 <stm32__i2c__flag_status>
 8002994:	4603      	mov	r3, r0
 8002996:	f083 0301 	eor.w	r3, r3, #1
 800299a:	b2db      	uxtb	r3, r3
 800299c:	2b00      	cmp	r3, #0
 800299e:	d03d      	beq.n	8002a1c <stm32__i2c__wait_master_flag+0xa8>
 80029a0:	68fb      	ldr	r3, [r7, #12]
 80029a2:	685b      	ldr	r3, [r3, #4]
 80029a4:	3314      	adds	r3, #20
 80029a6:	681b      	ldr	r3, [r3, #0]
 80029a8:	f3c3 2380 	ubfx	r3, r3, #10, #1
 80029ac:	b2db      	uxtb	r3, r3
 80029ae:	2b00      	cmp	r3, #0
 80029b0:	d019      	beq.n	80029e6 <stm32__i2c__wait_master_flag+0x72>
 80029b2:	68fb      	ldr	r3, [r7, #12]
 80029b4:	685b      	ldr	r3, [r3, #4]
 80029b6:	681b      	ldr	r3, [r3, #0]
 80029b8:	461a      	mov	r2, r3
 80029ba:	4613      	mov	r3, r2
 80029bc:	f443 7200 	orr.w	r2, r3, #512	; 0x200
 80029c0:	68fb      	ldr	r3, [r7, #12]
 80029c2:	685b      	ldr	r3, [r3, #4]
 80029c4:	601a      	str	r2, [r3, #0]
 80029c6:	68fb      	ldr	r3, [r7, #12]
 80029c8:	685b      	ldr	r3, [r3, #4]
 80029ca:	3314      	adds	r3, #20
 80029cc:	681b      	ldr	r3, [r3, #0]
 80029ce:	f36f 238a 	bfc	r3, #10, #1
 80029d2:	68fa      	ldr	r2, [r7, #12]
 80029d4:	6852      	ldr	r2, [r2, #4]
 80029d6:	3214      	adds	r2, #20
 80029d8:	6013      	str	r3, [r2, #0]
 80029da:	68fb      	ldr	r3, [r7, #12]
 80029dc:	2201      	movs	r2, #1
 80029de:	751a      	strb	r2, [r3, #20]
 80029e0:	2301      	movs	r3, #1
 80029e2:	75fb      	strb	r3, [r7, #23]
 80029e4:	e01c      	b.n	8002a20 <stm32__i2c__wait_master_flag+0xac>
 80029e6:	f004 f91d 	bl	8006c24 <ada__real_time__clock>
 80029ea:	4603      	mov	r3, r0
 80029ec:	460c      	mov	r4, r1
 80029ee:	4618      	mov	r0, r3
 80029f0:	4621      	mov	r1, r4
 80029f2:	e9d7 2306 	ldrd	r2, r3, [r7, #24]
 80029f6:	f004 f8f3 	bl	8006be0 <ada__real_time__Osubtract__2>
 80029fa:	4604      	mov	r4, r0
 80029fc:	460d      	mov	r5, r1
 80029fe:	687b      	ldr	r3, [r7, #4]
 8002a00:	4618      	mov	r0, r3
 8002a02:	f004 f93b 	bl	8006c7c <ada__real_time__milliseconds>
 8002a06:	4602      	mov	r2, r0
 8002a08:	460b      	mov	r3, r1
 8002a0a:	42a2      	cmp	r2, r4
 8002a0c:	41ab      	sbcs	r3, r5
 8002a0e:	dabc      	bge.n	800298a <stm32__i2c__wait_master_flag+0x16>
 8002a10:	68fb      	ldr	r3, [r7, #12]
 8002a12:	2201      	movs	r2, #1
 8002a14:	751a      	strb	r2, [r3, #20]
 8002a16:	2302      	movs	r3, #2
 8002a18:	75fb      	strb	r3, [r7, #23]
 8002a1a:	e001      	b.n	8002a20 <stm32__i2c__wait_master_flag+0xac>
 8002a1c:	2300      	movs	r3, #0
 8002a1e:	75fb      	strb	r3, [r7, #23]
 8002a20:	7dfb      	ldrb	r3, [r7, #23]
 8002a22:	bf00      	nop
 8002a24:	4618      	mov	r0, r3
 8002a26:	3720      	adds	r7, #32
 8002a28:	46bd      	mov	sp, r7
 8002a2a:	bdb0      	pop	{r4, r5, r7, pc}

08002a2c <stm32__i2c__master_request_write>:
 8002a2c:	b580      	push	{r7, lr}
 8002a2e:	b086      	sub	sp, #24
 8002a30:	af00      	add	r7, sp, #0
 8002a32:	60f8      	str	r0, [r7, #12]
 8002a34:	460b      	mov	r3, r1
 8002a36:	607a      	str	r2, [r7, #4]
 8002a38:	817b      	strh	r3, [r7, #10]
 8002a3a:	68fb      	ldr	r3, [r7, #12]
 8002a3c:	685b      	ldr	r3, [r3, #4]
 8002a3e:	681b      	ldr	r3, [r3, #0]
 8002a40:	461a      	mov	r2, r3
 8002a42:	4613      	mov	r3, r2
 8002a44:	f443 7280 	orr.w	r2, r3, #256	; 0x100
 8002a48:	68fb      	ldr	r3, [r7, #12]
 8002a4a:	685b      	ldr	r3, [r3, #4]
 8002a4c:	601a      	str	r2, [r3, #0]
 8002a4e:	68f8      	ldr	r0, [r7, #12]
 8002a50:	2100      	movs	r1, #0
 8002a52:	2200      	movs	r2, #0
 8002a54:	687b      	ldr	r3, [r7, #4]
 8002a56:	f7ff ff53 	bl	8002900 <stm32__i2c__wait_flag>
 8002a5a:	4603      	mov	r3, r0
 8002a5c:	757b      	strb	r3, [r7, #21]
 8002a5e:	7d7b      	ldrb	r3, [r7, #21]
 8002a60:	2b00      	cmp	r3, #0
 8002a62:	d166      	bne.n	8002b32 <stm32__i2c__master_request_write+0x106>
 8002a64:	68fb      	ldr	r3, [r7, #12]
 8002a66:	7b9b      	ldrb	r3, [r3, #14]
 8002a68:	2b00      	cmp	r3, #0
 8002a6a:	d117      	bne.n	8002a9c <stm32__i2c__master_request_write+0x70>
 8002a6c:	897b      	ldrh	r3, [r7, #10]
 8002a6e:	2bff      	cmp	r3, #255	; 0xff
 8002a70:	d904      	bls.n	8002a7c <stm32__i2c__master_request_write+0x50>
 8002a72:	4834      	ldr	r0, [pc, #208]	; (8002b44 <stm32__i2c__master_request_write+0x118>)
 8002a74:	f240 11a3 	movw	r1, #419	; 0x1a3
 8002a78:	f005 faa2 	bl	8007fc0 <__gnat_last_chance_handler>
 8002a7c:	68fb      	ldr	r3, [r7, #12]
 8002a7e:	685b      	ldr	r3, [r3, #4]
 8002a80:	3310      	adds	r3, #16
 8002a82:	681b      	ldr	r3, [r3, #0]
 8002a84:	897a      	ldrh	r2, [r7, #10]
 8002a86:	b2d2      	uxtb	r2, r2
 8002a88:	f022 0201 	bic.w	r2, r2, #1
 8002a8c:	b2d2      	uxtb	r2, r2
 8002a8e:	f362 0307 	bfi	r3, r2, #0, #8
 8002a92:	68fa      	ldr	r2, [r7, #12]
 8002a94:	6852      	ldr	r2, [r2, #4]
 8002a96:	3210      	adds	r2, #16
 8002a98:	6013      	str	r3, [r2, #0]
 8002a9a:	e042      	b.n	8002b22 <stm32__i2c__master_request_write+0xf6>
 8002a9c:	897b      	ldrh	r3, [r7, #10]
 8002a9e:	f403 7340 	and.w	r3, r3, #768	; 0x300
 8002aa2:	b29b      	uxth	r3, r3
 8002aa4:	09db      	lsrs	r3, r3, #7
 8002aa6:	b29b      	uxth	r3, r3
 8002aa8:	2bff      	cmp	r3, #255	; 0xff
 8002aaa:	d904      	bls.n	8002ab6 <stm32__i2c__master_request_write+0x8a>
 8002aac:	4825      	ldr	r0, [pc, #148]	; (8002b44 <stm32__i2c__master_request_write+0x118>)
 8002aae:	f240 11a7 	movw	r1, #423	; 0x1a7
 8002ab2:	f005 fa85 	bl	8007fc0 <__gnat_last_chance_handler>
 8002ab6:	897b      	ldrh	r3, [r7, #10]
 8002ab8:	f403 7340 	and.w	r3, r3, #768	; 0x300
 8002abc:	b29b      	uxth	r3, r3
 8002abe:	09db      	lsrs	r3, r3, #7
 8002ac0:	b29b      	uxth	r3, r3
 8002ac2:	75fb      	strb	r3, [r7, #23]
 8002ac4:	897b      	ldrh	r3, [r7, #10]
 8002ac6:	b2db      	uxtb	r3, r3
 8002ac8:	b29b      	uxth	r3, r3
 8002aca:	2bff      	cmp	r3, #255	; 0xff
 8002acc:	d904      	bls.n	8002ad8 <stm32__i2c__master_request_write+0xac>
 8002ace:	481d      	ldr	r0, [pc, #116]	; (8002b44 <stm32__i2c__master_request_write+0x118>)
 8002ad0:	f240 11a9 	movw	r1, #425	; 0x1a9
 8002ad4:	f005 fa74 	bl	8007fc0 <__gnat_last_chance_handler>
 8002ad8:	897b      	ldrh	r3, [r7, #10]
 8002ada:	75bb      	strb	r3, [r7, #22]
 8002adc:	68fb      	ldr	r3, [r7, #12]
 8002ade:	685b      	ldr	r3, [r3, #4]
 8002ae0:	3310      	adds	r3, #16
 8002ae2:	681b      	ldr	r3, [r3, #0]
 8002ae4:	7dfa      	ldrb	r2, [r7, #23]
 8002ae6:	f062 020f 	orn	r2, r2, #15
 8002aea:	b2d2      	uxtb	r2, r2
 8002aec:	f362 0307 	bfi	r3, r2, #0, #8
 8002af0:	68fa      	ldr	r2, [r7, #12]
 8002af2:	6852      	ldr	r2, [r2, #4]
 8002af4:	3210      	adds	r2, #16
 8002af6:	6013      	str	r3, [r2, #0]
 8002af8:	68f8      	ldr	r0, [r7, #12]
 8002afa:	2103      	movs	r1, #3
 8002afc:	687a      	ldr	r2, [r7, #4]
 8002afe:	f7ff ff39 	bl	8002974 <stm32__i2c__wait_master_flag>
 8002b02:	4603      	mov	r3, r0
 8002b04:	757b      	strb	r3, [r7, #21]
 8002b06:	7d7b      	ldrb	r3, [r7, #21]
 8002b08:	2b00      	cmp	r3, #0
 8002b0a:	d114      	bne.n	8002b36 <stm32__i2c__master_request_write+0x10a>
 8002b0c:	68fb      	ldr	r3, [r7, #12]
 8002b0e:	685b      	ldr	r3, [r3, #4]
 8002b10:	3310      	adds	r3, #16
 8002b12:	681b      	ldr	r3, [r3, #0]
 8002b14:	7dba      	ldrb	r2, [r7, #22]
 8002b16:	f362 0307 	bfi	r3, r2, #0, #8
 8002b1a:	68fa      	ldr	r2, [r7, #12]
 8002b1c:	6852      	ldr	r2, [r2, #4]
 8002b1e:	3210      	adds	r2, #16
 8002b20:	6013      	str	r3, [r2, #0]
 8002b22:	68f8      	ldr	r0, [r7, #12]
 8002b24:	2101      	movs	r1, #1
 8002b26:	687a      	ldr	r2, [r7, #4]
 8002b28:	f7ff ff24 	bl	8002974 <stm32__i2c__wait_master_flag>
 8002b2c:	4603      	mov	r3, r0
 8002b2e:	757b      	strb	r3, [r7, #21]
 8002b30:	e002      	b.n	8002b38 <stm32__i2c__master_request_write+0x10c>
 8002b32:	bf00      	nop
 8002b34:	e000      	b.n	8002b38 <stm32__i2c__master_request_write+0x10c>
 8002b36:	bf00      	nop
 8002b38:	7d7b      	ldrb	r3, [r7, #21]
 8002b3a:	bf00      	nop
 8002b3c:	4618      	mov	r0, r3
 8002b3e:	3718      	adds	r7, #24
 8002b40:	46bd      	mov	sp, r7
 8002b42:	bd80      	pop	{r7, pc}
 8002b44:	08009084 	.word	0x08009084

08002b48 <stm32__i2c__master_request_read>:
 8002b48:	b580      	push	{r7, lr}
 8002b4a:	b086      	sub	sp, #24
 8002b4c:	af00      	add	r7, sp, #0
 8002b4e:	60f8      	str	r0, [r7, #12]
 8002b50:	460b      	mov	r3, r1
 8002b52:	607a      	str	r2, [r7, #4]
 8002b54:	817b      	strh	r3, [r7, #10]
 8002b56:	68fb      	ldr	r3, [r7, #12]
 8002b58:	685b      	ldr	r3, [r3, #4]
 8002b5a:	681b      	ldr	r3, [r3, #0]
 8002b5c:	461a      	mov	r2, r3
 8002b5e:	4613      	mov	r3, r2
 8002b60:	f443 6280 	orr.w	r2, r3, #1024	; 0x400
 8002b64:	68fb      	ldr	r3, [r7, #12]
 8002b66:	685b      	ldr	r3, [r3, #4]
 8002b68:	601a      	str	r2, [r3, #0]
 8002b6a:	68fb      	ldr	r3, [r7, #12]
 8002b6c:	685b      	ldr	r3, [r3, #4]
 8002b6e:	681b      	ldr	r3, [r3, #0]
 8002b70:	461a      	mov	r2, r3
 8002b72:	4613      	mov	r3, r2
 8002b74:	f443 7280 	orr.w	r2, r3, #256	; 0x100
 8002b78:	68fb      	ldr	r3, [r7, #12]
 8002b7a:	685b      	ldr	r3, [r3, #4]
 8002b7c:	601a      	str	r2, [r3, #0]
 8002b7e:	68f8      	ldr	r0, [r7, #12]
 8002b80:	2100      	movs	r1, #0
 8002b82:	2200      	movs	r2, #0
 8002b84:	687b      	ldr	r3, [r7, #4]
 8002b86:	f7ff febb 	bl	8002900 <stm32__i2c__wait_flag>
 8002b8a:	4603      	mov	r3, r0
 8002b8c:	757b      	strb	r3, [r7, #21]
 8002b8e:	7d7b      	ldrb	r3, [r7, #21]
 8002b90:	2b00      	cmp	r3, #0
 8002b92:	f040 8097 	bne.w	8002cc4 <stm32__i2c__master_request_read+0x17c>
 8002b96:	68fb      	ldr	r3, [r7, #12]
 8002b98:	7b9b      	ldrb	r3, [r3, #14]
 8002b9a:	2b00      	cmp	r3, #0
 8002b9c:	d117      	bne.n	8002bce <stm32__i2c__master_request_read+0x86>
 8002b9e:	897b      	ldrh	r3, [r7, #10]
 8002ba0:	2bff      	cmp	r3, #255	; 0xff
 8002ba2:	d904      	bls.n	8002bae <stm32__i2c__master_request_read+0x66>
 8002ba4:	484e      	ldr	r0, [pc, #312]	; (8002ce0 <stm32__i2c__master_request_read+0x198>)
 8002ba6:	f240 11d1 	movw	r1, #465	; 0x1d1
 8002baa:	f005 fa09 	bl	8007fc0 <__gnat_last_chance_handler>
 8002bae:	68fb      	ldr	r3, [r7, #12]
 8002bb0:	685b      	ldr	r3, [r3, #4]
 8002bb2:	3310      	adds	r3, #16
 8002bb4:	681b      	ldr	r3, [r3, #0]
 8002bb6:	897a      	ldrh	r2, [r7, #10]
 8002bb8:	b2d2      	uxtb	r2, r2
 8002bba:	f042 0201 	orr.w	r2, r2, #1
 8002bbe:	b2d2      	uxtb	r2, r2
 8002bc0:	f362 0307 	bfi	r3, r2, #0, #8
 8002bc4:	68fa      	ldr	r2, [r7, #12]
 8002bc6:	6852      	ldr	r2, [r2, #4]
 8002bc8:	3210      	adds	r2, #16
 8002bca:	6013      	str	r3, [r2, #0]
 8002bcc:	e072      	b.n	8002cb4 <stm32__i2c__master_request_read+0x16c>
 8002bce:	897b      	ldrh	r3, [r7, #10]
 8002bd0:	f403 7340 	and.w	r3, r3, #768	; 0x300
 8002bd4:	b29b      	uxth	r3, r3
 8002bd6:	09db      	lsrs	r3, r3, #7
 8002bd8:	b29b      	uxth	r3, r3
 8002bda:	2bff      	cmp	r3, #255	; 0xff
 8002bdc:	d904      	bls.n	8002be8 <stm32__i2c__master_request_read+0xa0>
 8002bde:	4840      	ldr	r0, [pc, #256]	; (8002ce0 <stm32__i2c__master_request_read+0x198>)
 8002be0:	f240 11d5 	movw	r1, #469	; 0x1d5
 8002be4:	f005 f9ec 	bl	8007fc0 <__gnat_last_chance_handler>
 8002be8:	897b      	ldrh	r3, [r7, #10]
 8002bea:	f403 7340 	and.w	r3, r3, #768	; 0x300
 8002bee:	b29b      	uxth	r3, r3
 8002bf0:	09db      	lsrs	r3, r3, #7
 8002bf2:	b29b      	uxth	r3, r3
 8002bf4:	75fb      	strb	r3, [r7, #23]
 8002bf6:	897b      	ldrh	r3, [r7, #10]
 8002bf8:	b2db      	uxtb	r3, r3
 8002bfa:	b29b      	uxth	r3, r3
 8002bfc:	2bff      	cmp	r3, #255	; 0xff
 8002bfe:	d904      	bls.n	8002c0a <stm32__i2c__master_request_read+0xc2>
 8002c00:	4837      	ldr	r0, [pc, #220]	; (8002ce0 <stm32__i2c__master_request_read+0x198>)
 8002c02:	f240 11d7 	movw	r1, #471	; 0x1d7
 8002c06:	f005 f9db 	bl	8007fc0 <__gnat_last_chance_handler>
 8002c0a:	897b      	ldrh	r3, [r7, #10]
 8002c0c:	75bb      	strb	r3, [r7, #22]
 8002c0e:	68fb      	ldr	r3, [r7, #12]
 8002c10:	685b      	ldr	r3, [r3, #4]
 8002c12:	3310      	adds	r3, #16
 8002c14:	681b      	ldr	r3, [r3, #0]
 8002c16:	7dfa      	ldrb	r2, [r7, #23]
 8002c18:	f062 020f 	orn	r2, r2, #15
 8002c1c:	b2d2      	uxtb	r2, r2
 8002c1e:	f362 0307 	bfi	r3, r2, #0, #8
 8002c22:	68fa      	ldr	r2, [r7, #12]
 8002c24:	6852      	ldr	r2, [r2, #4]
 8002c26:	3210      	adds	r2, #16
 8002c28:	6013      	str	r3, [r2, #0]
 8002c2a:	68f8      	ldr	r0, [r7, #12]
 8002c2c:	2103      	movs	r1, #3
 8002c2e:	687a      	ldr	r2, [r7, #4]
 8002c30:	f7ff fea0 	bl	8002974 <stm32__i2c__wait_master_flag>
 8002c34:	4603      	mov	r3, r0
 8002c36:	757b      	strb	r3, [r7, #21]
 8002c38:	7d7b      	ldrb	r3, [r7, #21]
 8002c3a:	2b00      	cmp	r3, #0
 8002c3c:	d144      	bne.n	8002cc8 <stm32__i2c__master_request_read+0x180>
 8002c3e:	68fb      	ldr	r3, [r7, #12]
 8002c40:	685b      	ldr	r3, [r3, #4]
 8002c42:	3310      	adds	r3, #16
 8002c44:	681b      	ldr	r3, [r3, #0]
 8002c46:	7dba      	ldrb	r2, [r7, #22]
 8002c48:	f362 0307 	bfi	r3, r2, #0, #8
 8002c4c:	68fa      	ldr	r2, [r7, #12]
 8002c4e:	6852      	ldr	r2, [r2, #4]
 8002c50:	3210      	adds	r2, #16
 8002c52:	6013      	str	r3, [r2, #0]
 8002c54:	68f8      	ldr	r0, [r7, #12]
 8002c56:	2101      	movs	r1, #1
 8002c58:	687a      	ldr	r2, [r7, #4]
 8002c5a:	f7ff fe8b 	bl	8002974 <stm32__i2c__wait_master_flag>
 8002c5e:	4603      	mov	r3, r0
 8002c60:	757b      	strb	r3, [r7, #21]
 8002c62:	7d7b      	ldrb	r3, [r7, #21]
 8002c64:	2b00      	cmp	r3, #0
 8002c66:	d131      	bne.n	8002ccc <stm32__i2c__master_request_read+0x184>
 8002c68:	68f8      	ldr	r0, [r7, #12]
 8002c6a:	f7ff fe2f 	bl	80028cc <stm32__i2c__clear_address_sent_status>
 8002c6e:	68fb      	ldr	r3, [r7, #12]
 8002c70:	685b      	ldr	r3, [r3, #4]
 8002c72:	681b      	ldr	r3, [r3, #0]
 8002c74:	461a      	mov	r2, r3
 8002c76:	4613      	mov	r3, r2
 8002c78:	f443 7280 	orr.w	r2, r3, #256	; 0x100
 8002c7c:	68fb      	ldr	r3, [r7, #12]
 8002c7e:	685b      	ldr	r3, [r3, #4]
 8002c80:	601a      	str	r2, [r3, #0]
 8002c82:	68f8      	ldr	r0, [r7, #12]
 8002c84:	2100      	movs	r1, #0
 8002c86:	2200      	movs	r2, #0
 8002c88:	687b      	ldr	r3, [r7, #4]
 8002c8a:	f7ff fe39 	bl	8002900 <stm32__i2c__wait_flag>
 8002c8e:	4603      	mov	r3, r0
 8002c90:	757b      	strb	r3, [r7, #21]
 8002c92:	7d7b      	ldrb	r3, [r7, #21]
 8002c94:	2b00      	cmp	r3, #0
 8002c96:	d11b      	bne.n	8002cd0 <stm32__i2c__master_request_read+0x188>
 8002c98:	68fb      	ldr	r3, [r7, #12]
 8002c9a:	685b      	ldr	r3, [r3, #4]
 8002c9c:	3310      	adds	r3, #16
 8002c9e:	681b      	ldr	r3, [r3, #0]
 8002ca0:	7dfa      	ldrb	r2, [r7, #23]
 8002ca2:	f062 020e 	orn	r2, r2, #14
 8002ca6:	b2d2      	uxtb	r2, r2
 8002ca8:	f362 0307 	bfi	r3, r2, #0, #8
 8002cac:	68fa      	ldr	r2, [r7, #12]
 8002cae:	6852      	ldr	r2, [r2, #4]
 8002cb0:	3210      	adds	r2, #16
 8002cb2:	6013      	str	r3, [r2, #0]
 8002cb4:	68f8      	ldr	r0, [r7, #12]
 8002cb6:	2101      	movs	r1, #1
 8002cb8:	687a      	ldr	r2, [r7, #4]
 8002cba:	f7ff fe5b 	bl	8002974 <stm32__i2c__wait_master_flag>
 8002cbe:	4603      	mov	r3, r0
 8002cc0:	757b      	strb	r3, [r7, #21]
 8002cc2:	e006      	b.n	8002cd2 <stm32__i2c__master_request_read+0x18a>
 8002cc4:	bf00      	nop
 8002cc6:	e004      	b.n	8002cd2 <stm32__i2c__master_request_read+0x18a>
 8002cc8:	bf00      	nop
 8002cca:	e002      	b.n	8002cd2 <stm32__i2c__master_request_read+0x18a>
 8002ccc:	bf00      	nop
 8002cce:	e000      	b.n	8002cd2 <stm32__i2c__master_request_read+0x18a>
 8002cd0:	bf00      	nop
 8002cd2:	7d7b      	ldrb	r3, [r7, #21]
 8002cd4:	bf00      	nop
 8002cd6:	4618      	mov	r0, r3
 8002cd8:	3718      	adds	r7, #24
 8002cda:	46bd      	mov	sp, r7
 8002cdc:	bd80      	pop	{r7, pc}
 8002cde:	bf00      	nop
 8002ce0:	08009084 	.word	0x08009084

08002ce4 <stm32__i2c__mem_request_write>:
 8002ce4:	b580      	push	{r7, lr}
 8002ce6:	b086      	sub	sp, #24
 8002ce8:	af00      	add	r7, sp, #0
 8002cea:	60f8      	str	r0, [r7, #12]
 8002cec:	4608      	mov	r0, r1
 8002cee:	4611      	mov	r1, r2
 8002cf0:	461a      	mov	r2, r3
 8002cf2:	4603      	mov	r3, r0
 8002cf4:	817b      	strh	r3, [r7, #10]
 8002cf6:	460b      	mov	r3, r1
 8002cf8:	813b      	strh	r3, [r7, #8]
 8002cfa:	4613      	mov	r3, r2
 8002cfc:	71fb      	strb	r3, [r7, #7]
 8002cfe:	68fb      	ldr	r3, [r7, #12]
 8002d00:	685b      	ldr	r3, [r3, #4]
 8002d02:	681b      	ldr	r3, [r3, #0]
 8002d04:	461a      	mov	r2, r3
 8002d06:	4613      	mov	r3, r2
 8002d08:	f443 7280 	orr.w	r2, r3, #256	; 0x100
 8002d0c:	68fb      	ldr	r3, [r7, #12]
 8002d0e:	685b      	ldr	r3, [r3, #4]
 8002d10:	601a      	str	r2, [r3, #0]
 8002d12:	68f8      	ldr	r0, [r7, #12]
 8002d14:	2100      	movs	r1, #0
 8002d16:	2200      	movs	r2, #0
 8002d18:	6a3b      	ldr	r3, [r7, #32]
 8002d1a:	f7ff fdf1 	bl	8002900 <stm32__i2c__wait_flag>
 8002d1e:	4603      	mov	r3, r0
 8002d20:	75fb      	strb	r3, [r7, #23]
 8002d22:	7dfb      	ldrb	r3, [r7, #23]
 8002d24:	2b00      	cmp	r3, #0
 8002d26:	f040 8091 	bne.w	8002e4c <stm32__i2c__mem_request_write+0x168>
 8002d2a:	897b      	ldrh	r3, [r7, #10]
 8002d2c:	2bff      	cmp	r3, #255	; 0xff
 8002d2e:	d904      	bls.n	8002d3a <stm32__i2c__mem_request_write+0x56>
 8002d30:	484d      	ldr	r0, [pc, #308]	; (8002e68 <stm32__i2c__mem_request_write+0x184>)
 8002d32:	f240 2116 	movw	r1, #534	; 0x216
 8002d36:	f005 f943 	bl	8007fc0 <__gnat_last_chance_handler>
 8002d3a:	68fb      	ldr	r3, [r7, #12]
 8002d3c:	685b      	ldr	r3, [r3, #4]
 8002d3e:	3310      	adds	r3, #16
 8002d40:	681b      	ldr	r3, [r3, #0]
 8002d42:	897a      	ldrh	r2, [r7, #10]
 8002d44:	b2d2      	uxtb	r2, r2
 8002d46:	f022 0201 	bic.w	r2, r2, #1
 8002d4a:	b2d2      	uxtb	r2, r2
 8002d4c:	f362 0307 	bfi	r3, r2, #0, #8
 8002d50:	68fa      	ldr	r2, [r7, #12]
 8002d52:	6852      	ldr	r2, [r2, #4]
 8002d54:	3210      	adds	r2, #16
 8002d56:	6013      	str	r3, [r2, #0]
 8002d58:	68f8      	ldr	r0, [r7, #12]
 8002d5a:	2101      	movs	r1, #1
 8002d5c:	6a3a      	ldr	r2, [r7, #32]
 8002d5e:	f7ff fe09 	bl	8002974 <stm32__i2c__wait_master_flag>
 8002d62:	4603      	mov	r3, r0
 8002d64:	75fb      	strb	r3, [r7, #23]
 8002d66:	7dfb      	ldrb	r3, [r7, #23]
 8002d68:	2b00      	cmp	r3, #0
 8002d6a:	d171      	bne.n	8002e50 <stm32__i2c__mem_request_write+0x16c>
 8002d6c:	68f8      	ldr	r0, [r7, #12]
 8002d6e:	f7ff fdad 	bl	80028cc <stm32__i2c__clear_address_sent_status>
 8002d72:	68f8      	ldr	r0, [r7, #12]
 8002d74:	2106      	movs	r1, #6
 8002d76:	2200      	movs	r2, #0
 8002d78:	6a3b      	ldr	r3, [r7, #32]
 8002d7a:	f7ff fdc1 	bl	8002900 <stm32__i2c__wait_flag>
 8002d7e:	4603      	mov	r3, r0
 8002d80:	75fb      	strb	r3, [r7, #23]
 8002d82:	7dfb      	ldrb	r3, [r7, #23]
 8002d84:	2b00      	cmp	r3, #0
 8002d86:	d165      	bne.n	8002e54 <stm32__i2c__mem_request_write+0x170>
 8002d88:	79fb      	ldrb	r3, [r7, #7]
 8002d8a:	2b01      	cmp	r3, #1
 8002d8c:	d904      	bls.n	8002d98 <stm32__i2c__mem_request_write+0xb4>
 8002d8e:	4836      	ldr	r0, [pc, #216]	; (8002e68 <stm32__i2c__mem_request_write+0x184>)
 8002d90:	f240 2126 	movw	r1, #550	; 0x226
 8002d94:	f005 f914 	bl	8007fc0 <__gnat_last_chance_handler>
 8002d98:	79fb      	ldrb	r3, [r7, #7]
 8002d9a:	2b00      	cmp	r3, #0
 8002d9c:	d114      	bne.n	8002dc8 <stm32__i2c__mem_request_write+0xe4>
 8002d9e:	893b      	ldrh	r3, [r7, #8]
 8002da0:	2bff      	cmp	r3, #255	; 0xff
 8002da2:	d904      	bls.n	8002dae <stm32__i2c__mem_request_write+0xca>
 8002da4:	4830      	ldr	r0, [pc, #192]	; (8002e68 <stm32__i2c__mem_request_write+0x184>)
 8002da6:	f44f 710a 	mov.w	r1, #552	; 0x228
 8002daa:	f005 f909 	bl	8007fc0 <__gnat_last_chance_handler>
 8002dae:	68fb      	ldr	r3, [r7, #12]
 8002db0:	685b      	ldr	r3, [r3, #4]
 8002db2:	3310      	adds	r3, #16
 8002db4:	681b      	ldr	r3, [r3, #0]
 8002db6:	893a      	ldrh	r2, [r7, #8]
 8002db8:	b2d2      	uxtb	r2, r2
 8002dba:	f362 0307 	bfi	r3, r2, #0, #8
 8002dbe:	68fa      	ldr	r2, [r7, #12]
 8002dc0:	6852      	ldr	r2, [r2, #4]
 8002dc2:	3210      	adds	r2, #16
 8002dc4:	6013      	str	r3, [r2, #0]
 8002dc6:	e038      	b.n	8002e3a <stm32__i2c__mem_request_write+0x156>
 8002dc8:	893b      	ldrh	r3, [r7, #8]
 8002dca:	0a1b      	lsrs	r3, r3, #8
 8002dcc:	b29b      	uxth	r3, r3
 8002dce:	2bff      	cmp	r3, #255	; 0xff
 8002dd0:	d904      	bls.n	8002ddc <stm32__i2c__mem_request_write+0xf8>
 8002dd2:	4825      	ldr	r0, [pc, #148]	; (8002e68 <stm32__i2c__mem_request_write+0x184>)
 8002dd4:	f240 212a 	movw	r1, #554	; 0x22a
 8002dd8:	f005 f8f2 	bl	8007fc0 <__gnat_last_chance_handler>
 8002ddc:	68fb      	ldr	r3, [r7, #12]
 8002dde:	685b      	ldr	r3, [r3, #4]
 8002de0:	3310      	adds	r3, #16
 8002de2:	681b      	ldr	r3, [r3, #0]
 8002de4:	893a      	ldrh	r2, [r7, #8]
 8002de6:	0a12      	lsrs	r2, r2, #8
 8002de8:	b292      	uxth	r2, r2
 8002dea:	b2d2      	uxtb	r2, r2
 8002dec:	f362 0307 	bfi	r3, r2, #0, #8
 8002df0:	68fa      	ldr	r2, [r7, #12]
 8002df2:	6852      	ldr	r2, [r2, #4]
 8002df4:	3210      	adds	r2, #16
 8002df6:	6013      	str	r3, [r2, #0]
 8002df8:	68f8      	ldr	r0, [r7, #12]
 8002dfa:	2106      	movs	r1, #6
 8002dfc:	2200      	movs	r2, #0
 8002dfe:	6a3b      	ldr	r3, [r7, #32]
 8002e00:	f7ff fd7e 	bl	8002900 <stm32__i2c__wait_flag>
 8002e04:	4603      	mov	r3, r0
 8002e06:	75fb      	strb	r3, [r7, #23]
 8002e08:	7dfb      	ldrb	r3, [r7, #23]
 8002e0a:	2b00      	cmp	r3, #0
 8002e0c:	d124      	bne.n	8002e58 <stm32__i2c__mem_request_write+0x174>
 8002e0e:	893b      	ldrh	r3, [r7, #8]
 8002e10:	b2db      	uxtb	r3, r3
 8002e12:	b29b      	uxth	r3, r3
 8002e14:	2bff      	cmp	r3, #255	; 0xff
 8002e16:	d904      	bls.n	8002e22 <stm32__i2c__mem_request_write+0x13e>
 8002e18:	4813      	ldr	r0, [pc, #76]	; (8002e68 <stm32__i2c__mem_request_write+0x184>)
 8002e1a:	f240 2132 	movw	r1, #562	; 0x232
 8002e1e:	f005 f8cf 	bl	8007fc0 <__gnat_last_chance_handler>
 8002e22:	68fb      	ldr	r3, [r7, #12]
 8002e24:	685b      	ldr	r3, [r3, #4]
 8002e26:	3310      	adds	r3, #16
 8002e28:	681b      	ldr	r3, [r3, #0]
 8002e2a:	893a      	ldrh	r2, [r7, #8]
 8002e2c:	b2d2      	uxtb	r2, r2
 8002e2e:	f362 0307 	bfi	r3, r2, #0, #8
 8002e32:	68fa      	ldr	r2, [r7, #12]
 8002e34:	6852      	ldr	r2, [r2, #4]
 8002e36:	3210      	adds	r2, #16
 8002e38:	6013      	str	r3, [r2, #0]
 8002e3a:	68f8      	ldr	r0, [r7, #12]
 8002e3c:	2106      	movs	r1, #6
 8002e3e:	2200      	movs	r2, #0
 8002e40:	6a3b      	ldr	r3, [r7, #32]
 8002e42:	f7ff fd5d 	bl	8002900 <stm32__i2c__wait_flag>
 8002e46:	4603      	mov	r3, r0
 8002e48:	75fb      	strb	r3, [r7, #23]
 8002e4a:	e006      	b.n	8002e5a <stm32__i2c__mem_request_write+0x176>
 8002e4c:	bf00      	nop
 8002e4e:	e004      	b.n	8002e5a <stm32__i2c__mem_request_write+0x176>
 8002e50:	bf00      	nop
 8002e52:	e002      	b.n	8002e5a <stm32__i2c__mem_request_write+0x176>
 8002e54:	bf00      	nop
 8002e56:	e000      	b.n	8002e5a <stm32__i2c__mem_request_write+0x176>
 8002e58:	bf00      	nop
 8002e5a:	7dfb      	ldrb	r3, [r7, #23]
 8002e5c:	bf00      	nop
 8002e5e:	4618      	mov	r0, r3
 8002e60:	3718      	adds	r7, #24
 8002e62:	46bd      	mov	sp, r7
 8002e64:	bd80      	pop	{r7, pc}
 8002e66:	bf00      	nop
 8002e68:	08009084 	.word	0x08009084

08002e6c <stm32__i2c__mem_request_read>:
 8002e6c:	b580      	push	{r7, lr}
 8002e6e:	b086      	sub	sp, #24
 8002e70:	af00      	add	r7, sp, #0
 8002e72:	60f8      	str	r0, [r7, #12]
 8002e74:	4608      	mov	r0, r1
 8002e76:	4611      	mov	r1, r2
 8002e78:	461a      	mov	r2, r3
 8002e7a:	4603      	mov	r3, r0
 8002e7c:	817b      	strh	r3, [r7, #10]
 8002e7e:	460b      	mov	r3, r1
 8002e80:	813b      	strh	r3, [r7, #8]
 8002e82:	4613      	mov	r3, r2
 8002e84:	71fb      	strb	r3, [r7, #7]
 8002e86:	68fb      	ldr	r3, [r7, #12]
 8002e88:	685b      	ldr	r3, [r3, #4]
 8002e8a:	681b      	ldr	r3, [r3, #0]
 8002e8c:	461a      	mov	r2, r3
 8002e8e:	4613      	mov	r3, r2
 8002e90:	f443 6280 	orr.w	r2, r3, #1024	; 0x400
 8002e94:	68fb      	ldr	r3, [r7, #12]
 8002e96:	685b      	ldr	r3, [r3, #4]
 8002e98:	601a      	str	r2, [r3, #0]
 8002e9a:	68fb      	ldr	r3, [r7, #12]
 8002e9c:	685b      	ldr	r3, [r3, #4]
 8002e9e:	681b      	ldr	r3, [r3, #0]
 8002ea0:	461a      	mov	r2, r3
 8002ea2:	4613      	mov	r3, r2
 8002ea4:	f443 7280 	orr.w	r2, r3, #256	; 0x100
 8002ea8:	68fb      	ldr	r3, [r7, #12]
 8002eaa:	685b      	ldr	r3, [r3, #4]
 8002eac:	601a      	str	r2, [r3, #0]
 8002eae:	68f8      	ldr	r0, [r7, #12]
 8002eb0:	2100      	movs	r1, #0
 8002eb2:	2200      	movs	r2, #0
 8002eb4:	6a3b      	ldr	r3, [r7, #32]
 8002eb6:	f7ff fd23 	bl	8002900 <stm32__i2c__wait_flag>
 8002eba:	4603      	mov	r3, r0
 8002ebc:	75fb      	strb	r3, [r7, #23]
 8002ebe:	7dfb      	ldrb	r3, [r7, #23]
 8002ec0:	2b00      	cmp	r3, #0
 8002ec2:	f040 80c9 	bne.w	8003058 <stm32__i2c__mem_request_read+0x1ec>
 8002ec6:	897b      	ldrh	r3, [r7, #10]
 8002ec8:	2bff      	cmp	r3, #255	; 0xff
 8002eca:	d904      	bls.n	8002ed6 <stm32__i2c__mem_request_read+0x6a>
 8002ecc:	486b      	ldr	r0, [pc, #428]	; (800307c <stm32__i2c__mem_request_read+0x210>)
 8002ece:	f240 2151 	movw	r1, #593	; 0x251
 8002ed2:	f005 f875 	bl	8007fc0 <__gnat_last_chance_handler>
 8002ed6:	68fb      	ldr	r3, [r7, #12]
 8002ed8:	685b      	ldr	r3, [r3, #4]
 8002eda:	3310      	adds	r3, #16
 8002edc:	681b      	ldr	r3, [r3, #0]
 8002ede:	897a      	ldrh	r2, [r7, #10]
 8002ee0:	b2d2      	uxtb	r2, r2
 8002ee2:	f022 0201 	bic.w	r2, r2, #1
 8002ee6:	b2d2      	uxtb	r2, r2
 8002ee8:	f362 0307 	bfi	r3, r2, #0, #8
 8002eec:	68fa      	ldr	r2, [r7, #12]
 8002eee:	6852      	ldr	r2, [r2, #4]
 8002ef0:	3210      	adds	r2, #16
 8002ef2:	6013      	str	r3, [r2, #0]
 8002ef4:	68f8      	ldr	r0, [r7, #12]
 8002ef6:	2101      	movs	r1, #1
 8002ef8:	6a3a      	ldr	r2, [r7, #32]
 8002efa:	f7ff fd3b 	bl	8002974 <stm32__i2c__wait_master_flag>
 8002efe:	4603      	mov	r3, r0
 8002f00:	75fb      	strb	r3, [r7, #23]
 8002f02:	7dfb      	ldrb	r3, [r7, #23]
 8002f04:	2b00      	cmp	r3, #0
 8002f06:	f040 80a9 	bne.w	800305c <stm32__i2c__mem_request_read+0x1f0>
 8002f0a:	68f8      	ldr	r0, [r7, #12]
 8002f0c:	f7ff fcde 	bl	80028cc <stm32__i2c__clear_address_sent_status>
 8002f10:	68f8      	ldr	r0, [r7, #12]
 8002f12:	2106      	movs	r1, #6
 8002f14:	2200      	movs	r2, #0
 8002f16:	6a3b      	ldr	r3, [r7, #32]
 8002f18:	f7ff fcf2 	bl	8002900 <stm32__i2c__wait_flag>
 8002f1c:	4603      	mov	r3, r0
 8002f1e:	75fb      	strb	r3, [r7, #23]
 8002f20:	7dfb      	ldrb	r3, [r7, #23]
 8002f22:	2b00      	cmp	r3, #0
 8002f24:	f040 809c 	bne.w	8003060 <stm32__i2c__mem_request_read+0x1f4>
 8002f28:	79fb      	ldrb	r3, [r7, #7]
 8002f2a:	2b01      	cmp	r3, #1
 8002f2c:	d904      	bls.n	8002f38 <stm32__i2c__mem_request_read+0xcc>
 8002f2e:	4853      	ldr	r0, [pc, #332]	; (800307c <stm32__i2c__mem_request_read+0x210>)
 8002f30:	f240 2162 	movw	r1, #610	; 0x262
 8002f34:	f005 f844 	bl	8007fc0 <__gnat_last_chance_handler>
 8002f38:	79fb      	ldrb	r3, [r7, #7]
 8002f3a:	2b00      	cmp	r3, #0
 8002f3c:	d114      	bne.n	8002f68 <stm32__i2c__mem_request_read+0xfc>
 8002f3e:	893b      	ldrh	r3, [r7, #8]
 8002f40:	2bff      	cmp	r3, #255	; 0xff
 8002f42:	d904      	bls.n	8002f4e <stm32__i2c__mem_request_read+0xe2>
 8002f44:	484d      	ldr	r0, [pc, #308]	; (800307c <stm32__i2c__mem_request_read+0x210>)
 8002f46:	f44f 7119 	mov.w	r1, #612	; 0x264
 8002f4a:	f005 f839 	bl	8007fc0 <__gnat_last_chance_handler>
 8002f4e:	68fb      	ldr	r3, [r7, #12]
 8002f50:	685b      	ldr	r3, [r3, #4]
 8002f52:	3310      	adds	r3, #16
 8002f54:	681b      	ldr	r3, [r3, #0]
 8002f56:	893a      	ldrh	r2, [r7, #8]
 8002f58:	b2d2      	uxtb	r2, r2
 8002f5a:	f362 0307 	bfi	r3, r2, #0, #8
 8002f5e:	68fa      	ldr	r2, [r7, #12]
 8002f60:	6852      	ldr	r2, [r2, #4]
 8002f62:	3210      	adds	r2, #16
 8002f64:	6013      	str	r3, [r2, #0]
 8002f66:	e038      	b.n	8002fda <stm32__i2c__mem_request_read+0x16e>
 8002f68:	893b      	ldrh	r3, [r7, #8]
 8002f6a:	0a1b      	lsrs	r3, r3, #8
 8002f6c:	b29b      	uxth	r3, r3
 8002f6e:	2bff      	cmp	r3, #255	; 0xff
 8002f70:	d904      	bls.n	8002f7c <stm32__i2c__mem_request_read+0x110>
 8002f72:	4842      	ldr	r0, [pc, #264]	; (800307c <stm32__i2c__mem_request_read+0x210>)
 8002f74:	f240 2166 	movw	r1, #614	; 0x266
 8002f78:	f005 f822 	bl	8007fc0 <__gnat_last_chance_handler>
 8002f7c:	68fb      	ldr	r3, [r7, #12]
 8002f7e:	685b      	ldr	r3, [r3, #4]
 8002f80:	3310      	adds	r3, #16
 8002f82:	681b      	ldr	r3, [r3, #0]
 8002f84:	893a      	ldrh	r2, [r7, #8]
 8002f86:	0a12      	lsrs	r2, r2, #8
 8002f88:	b292      	uxth	r2, r2
 8002f8a:	b2d2      	uxtb	r2, r2
 8002f8c:	f362 0307 	bfi	r3, r2, #0, #8
 8002f90:	68fa      	ldr	r2, [r7, #12]
 8002f92:	6852      	ldr	r2, [r2, #4]
 8002f94:	3210      	adds	r2, #16
 8002f96:	6013      	str	r3, [r2, #0]
 8002f98:	68f8      	ldr	r0, [r7, #12]
 8002f9a:	2106      	movs	r1, #6
 8002f9c:	2200      	movs	r2, #0
 8002f9e:	6a3b      	ldr	r3, [r7, #32]
 8002fa0:	f7ff fcae 	bl	8002900 <stm32__i2c__wait_flag>
 8002fa4:	4603      	mov	r3, r0
 8002fa6:	75fb      	strb	r3, [r7, #23]
 8002fa8:	7dfb      	ldrb	r3, [r7, #23]
 8002faa:	2b00      	cmp	r3, #0
 8002fac:	d15a      	bne.n	8003064 <stm32__i2c__mem_request_read+0x1f8>
 8002fae:	893b      	ldrh	r3, [r7, #8]
 8002fb0:	b2db      	uxtb	r3, r3
 8002fb2:	b29b      	uxth	r3, r3
 8002fb4:	2bff      	cmp	r3, #255	; 0xff
 8002fb6:	d904      	bls.n	8002fc2 <stm32__i2c__mem_request_read+0x156>
 8002fb8:	4830      	ldr	r0, [pc, #192]	; (800307c <stm32__i2c__mem_request_read+0x210>)
 8002fba:	f240 216e 	movw	r1, #622	; 0x26e
 8002fbe:	f004 ffff 	bl	8007fc0 <__gnat_last_chance_handler>
 8002fc2:	68fb      	ldr	r3, [r7, #12]
 8002fc4:	685b      	ldr	r3, [r3, #4]
 8002fc6:	3310      	adds	r3, #16
 8002fc8:	681b      	ldr	r3, [r3, #0]
 8002fca:	893a      	ldrh	r2, [r7, #8]
 8002fcc:	b2d2      	uxtb	r2, r2
 8002fce:	f362 0307 	bfi	r3, r2, #0, #8
 8002fd2:	68fa      	ldr	r2, [r7, #12]
 8002fd4:	6852      	ldr	r2, [r2, #4]
 8002fd6:	3210      	adds	r2, #16
 8002fd8:	6013      	str	r3, [r2, #0]
 8002fda:	68f8      	ldr	r0, [r7, #12]
 8002fdc:	2106      	movs	r1, #6
 8002fde:	2200      	movs	r2, #0
 8002fe0:	6a3b      	ldr	r3, [r7, #32]
 8002fe2:	f7ff fc8d 	bl	8002900 <stm32__i2c__wait_flag>
 8002fe6:	4603      	mov	r3, r0
 8002fe8:	75fb      	strb	r3, [r7, #23]
 8002fea:	7dfb      	ldrb	r3, [r7, #23]
 8002fec:	2b00      	cmp	r3, #0
 8002fee:	d13b      	bne.n	8003068 <stm32__i2c__mem_request_read+0x1fc>
 8002ff0:	68fb      	ldr	r3, [r7, #12]
 8002ff2:	685b      	ldr	r3, [r3, #4]
 8002ff4:	681b      	ldr	r3, [r3, #0]
 8002ff6:	461a      	mov	r2, r3
 8002ff8:	4613      	mov	r3, r2
 8002ffa:	f443 7280 	orr.w	r2, r3, #256	; 0x100
 8002ffe:	68fb      	ldr	r3, [r7, #12]
 8003000:	685b      	ldr	r3, [r3, #4]
 8003002:	601a      	str	r2, [r3, #0]
 8003004:	68f8      	ldr	r0, [r7, #12]
 8003006:	2100      	movs	r1, #0
 8003008:	2200      	movs	r2, #0
 800300a:	6a3b      	ldr	r3, [r7, #32]
 800300c:	f7ff fc78 	bl	8002900 <stm32__i2c__wait_flag>
 8003010:	4603      	mov	r3, r0
 8003012:	75fb      	strb	r3, [r7, #23]
 8003014:	7dfb      	ldrb	r3, [r7, #23]
 8003016:	2b00      	cmp	r3, #0
 8003018:	d128      	bne.n	800306c <stm32__i2c__mem_request_read+0x200>
 800301a:	897b      	ldrh	r3, [r7, #10]
 800301c:	2bff      	cmp	r3, #255	; 0xff
 800301e:	d904      	bls.n	800302a <stm32__i2c__mem_request_read+0x1be>
 8003020:	4816      	ldr	r0, [pc, #88]	; (800307c <stm32__i2c__mem_request_read+0x210>)
 8003022:	f240 2182 	movw	r1, #642	; 0x282
 8003026:	f004 ffcb 	bl	8007fc0 <__gnat_last_chance_handler>
 800302a:	68fb      	ldr	r3, [r7, #12]
 800302c:	685b      	ldr	r3, [r3, #4]
 800302e:	3310      	adds	r3, #16
 8003030:	681b      	ldr	r3, [r3, #0]
 8003032:	897a      	ldrh	r2, [r7, #10]
 8003034:	b2d2      	uxtb	r2, r2
 8003036:	f042 0201 	orr.w	r2, r2, #1
 800303a:	b2d2      	uxtb	r2, r2
 800303c:	f362 0307 	bfi	r3, r2, #0, #8
 8003040:	68fa      	ldr	r2, [r7, #12]
 8003042:	6852      	ldr	r2, [r2, #4]
 8003044:	3210      	adds	r2, #16
 8003046:	6013      	str	r3, [r2, #0]
 8003048:	68f8      	ldr	r0, [r7, #12]
 800304a:	2101      	movs	r1, #1
 800304c:	6a3a      	ldr	r2, [r7, #32]
 800304e:	f7ff fc91 	bl	8002974 <stm32__i2c__wait_master_flag>
 8003052:	4603      	mov	r3, r0
 8003054:	75fb      	strb	r3, [r7, #23]
 8003056:	e00a      	b.n	800306e <stm32__i2c__mem_request_read+0x202>
 8003058:	bf00      	nop
 800305a:	e008      	b.n	800306e <stm32__i2c__mem_request_read+0x202>
 800305c:	bf00      	nop
 800305e:	e006      	b.n	800306e <stm32__i2c__mem_request_read+0x202>
 8003060:	bf00      	nop
 8003062:	e004      	b.n	800306e <stm32__i2c__mem_request_read+0x202>
 8003064:	bf00      	nop
 8003066:	e002      	b.n	800306e <stm32__i2c__mem_request_read+0x202>
 8003068:	bf00      	nop
 800306a:	e000      	b.n	800306e <stm32__i2c__mem_request_read+0x202>
 800306c:	bf00      	nop
 800306e:	7dfb      	ldrb	r3, [r7, #23]
 8003070:	bf00      	nop
 8003072:	4618      	mov	r0, r3
 8003074:	3718      	adds	r7, #24
 8003076:	46bd      	mov	sp, r7
 8003078:	bd80      	pop	{r7, pc}
 800307a:	bf00      	nop
 800307c:	08009084 	.word	0x08009084

08003080 <stm32__i2c__master_transmit>:
 8003080:	b5f0      	push	{r4, r5, r6, r7, lr}
 8003082:	b087      	sub	sp, #28
 8003084:	af00      	add	r7, sp, #0
 8003086:	60f8      	str	r0, [r7, #12]
 8003088:	e9c7 2300 	strd	r2, r3, [r7]
 800308c:	460b      	mov	r3, r1
 800308e:	817b      	strh	r3, [r7, #10]
 8003090:	687b      	ldr	r3, [r7, #4]
 8003092:	681c      	ldr	r4, [r3, #0]
 8003094:	687b      	ldr	r3, [r7, #4]
 8003096:	685d      	ldr	r5, [r3, #4]
 8003098:	4626      	mov	r6, r4
 800309a:	2c00      	cmp	r4, #0
 800309c:	da04      	bge.n	80030a8 <stm32__i2c__master_transmit+0x28>
 800309e:	4866      	ldr	r0, [pc, #408]	; (8003238 <stm32__i2c__master_transmit+0x1b8>)
 80030a0:	f240 2193 	movw	r1, #659	; 0x293
 80030a4:	f004 ff8c 	bl	8007fc0 <__gnat_last_chance_handler>
 80030a8:	617c      	str	r4, [r7, #20]
 80030aa:	68fb      	ldr	r3, [r7, #12]
 80030ac:	7d1b      	ldrb	r3, [r3, #20]
 80030ae:	2b00      	cmp	r3, #0
 80030b0:	d102      	bne.n	80030b8 <stm32__i2c__master_transmit+0x38>
 80030b2:	2301      	movs	r3, #1
 80030b4:	74fb      	strb	r3, [r7, #19]
 80030b6:	e0b9      	b.n	800322c <stm32__i2c__master_transmit+0x1ac>
 80030b8:	42ac      	cmp	r4, r5
 80030ba:	dd02      	ble.n	80030c2 <stm32__i2c__master_transmit+0x42>
 80030bc:	2301      	movs	r3, #1
 80030be:	74fb      	strb	r3, [r7, #19]
 80030c0:	e0b4      	b.n	800322c <stm32__i2c__master_transmit+0x1ac>
 80030c2:	68f8      	ldr	r0, [r7, #12]
 80030c4:	210f      	movs	r1, #15
 80030c6:	2201      	movs	r2, #1
 80030c8:	6b3b      	ldr	r3, [r7, #48]	; 0x30
 80030ca:	f7ff fc19 	bl	8002900 <stm32__i2c__wait_flag>
 80030ce:	4603      	mov	r3, r0
 80030d0:	74fb      	strb	r3, [r7, #19]
 80030d2:	7cfb      	ldrb	r3, [r7, #19]
 80030d4:	2b00      	cmp	r3, #0
 80030d6:	d002      	beq.n	80030de <stm32__i2c__master_transmit+0x5e>
 80030d8:	2303      	movs	r3, #3
 80030da:	74fb      	strb	r3, [r7, #19]
 80030dc:	e0a6      	b.n	800322c <stm32__i2c__master_transmit+0x1ac>
 80030de:	68fb      	ldr	r3, [r7, #12]
 80030e0:	7d1b      	ldrb	r3, [r3, #20]
 80030e2:	2b01      	cmp	r3, #1
 80030e4:	d002      	beq.n	80030ec <stm32__i2c__master_transmit+0x6c>
 80030e6:	2303      	movs	r3, #3
 80030e8:	74fb      	strb	r3, [r7, #19]
 80030ea:	e09f      	b.n	800322c <stm32__i2c__master_transmit+0x1ac>
 80030ec:	68fb      	ldr	r3, [r7, #12]
 80030ee:	2202      	movs	r2, #2
 80030f0:	751a      	strb	r2, [r3, #20]
 80030f2:	68fb      	ldr	r3, [r7, #12]
 80030f4:	685b      	ldr	r3, [r3, #4]
 80030f6:	681b      	ldr	r3, [r3, #0]
 80030f8:	f36f 23cb 	bfc	r3, #11, #1
 80030fc:	68fa      	ldr	r2, [r7, #12]
 80030fe:	6852      	ldr	r2, [r2, #4]
 8003100:	6013      	str	r3, [r2, #0]
 8003102:	897b      	ldrh	r3, [r7, #10]
 8003104:	68f8      	ldr	r0, [r7, #12]
 8003106:	4619      	mov	r1, r3
 8003108:	6b3a      	ldr	r2, [r7, #48]	; 0x30
 800310a:	f7ff fc8f 	bl	8002a2c <stm32__i2c__master_request_write>
 800310e:	4603      	mov	r3, r0
 8003110:	74fb      	strb	r3, [r7, #19]
 8003112:	7cfb      	ldrb	r3, [r7, #19]
 8003114:	2b00      	cmp	r3, #0
 8003116:	f040 8084 	bne.w	8003222 <stm32__i2c__master_transmit+0x1a2>
 800311a:	68f8      	ldr	r0, [r7, #12]
 800311c:	f7ff fbd6 	bl	80028cc <stm32__i2c__clear_address_sent_status>
 8003120:	697b      	ldr	r3, [r7, #20]
 8003122:	42ab      	cmp	r3, r5
 8003124:	dc64      	bgt.n	80031f0 <stm32__i2c__master_transmit+0x170>
 8003126:	68f8      	ldr	r0, [r7, #12]
 8003128:	2106      	movs	r1, #6
 800312a:	2200      	movs	r2, #0
 800312c:	6b3b      	ldr	r3, [r7, #48]	; 0x30
 800312e:	f7ff fbe7 	bl	8002900 <stm32__i2c__wait_flag>
 8003132:	4603      	mov	r3, r0
 8003134:	74fb      	strb	r3, [r7, #19]
 8003136:	7cfb      	ldrb	r3, [r7, #19]
 8003138:	2b00      	cmp	r3, #0
 800313a:	d174      	bne.n	8003226 <stm32__i2c__master_transmit+0x1a6>
 800313c:	697b      	ldr	r3, [r7, #20]
 800313e:	42a3      	cmp	r3, r4
 8003140:	db02      	blt.n	8003148 <stm32__i2c__master_transmit+0xc8>
 8003142:	697b      	ldr	r3, [r7, #20]
 8003144:	42ab      	cmp	r3, r5
 8003146:	dd04      	ble.n	8003152 <stm32__i2c__master_transmit+0xd2>
 8003148:	483b      	ldr	r0, [pc, #236]	; (8003238 <stm32__i2c__master_transmit+0x1b8>)
 800314a:	f240 21be 	movw	r1, #702	; 0x2be
 800314e:	f004 ff37 	bl	8007fc0 <__gnat_last_chance_handler>
 8003152:	68fb      	ldr	r3, [r7, #12]
 8003154:	685b      	ldr	r3, [r3, #4]
 8003156:	3310      	adds	r3, #16
 8003158:	681b      	ldr	r3, [r3, #0]
 800315a:	6839      	ldr	r1, [r7, #0]
 800315c:	697a      	ldr	r2, [r7, #20]
 800315e:	1b92      	subs	r2, r2, r6
 8003160:	5c8a      	ldrb	r2, [r1, r2]
 8003162:	f362 0307 	bfi	r3, r2, #0, #8
 8003166:	68fa      	ldr	r2, [r7, #12]
 8003168:	6852      	ldr	r2, [r2, #4]
 800316a:	3210      	adds	r2, #16
 800316c:	6013      	str	r3, [r2, #0]
 800316e:	697b      	ldr	r3, [r7, #20]
 8003170:	f06f 4200 	mvn.w	r2, #2147483648	; 0x80000000
 8003174:	4293      	cmp	r3, r2
 8003176:	d104      	bne.n	8003182 <stm32__i2c__master_transmit+0x102>
 8003178:	482f      	ldr	r0, [pc, #188]	; (8003238 <stm32__i2c__master_transmit+0x1b8>)
 800317a:	f240 21bf 	movw	r1, #703	; 0x2bf
 800317e:	f004 ff1f 	bl	8007fc0 <__gnat_last_chance_handler>
 8003182:	697b      	ldr	r3, [r7, #20]
 8003184:	3301      	adds	r3, #1
 8003186:	617b      	str	r3, [r7, #20]
 8003188:	68f8      	ldr	r0, [r7, #12]
 800318a:	2102      	movs	r1, #2
 800318c:	f7ff fab2 	bl	80026f4 <stm32__i2c__flag_status>
 8003190:	4603      	mov	r3, r0
 8003192:	2b00      	cmp	r3, #0
 8003194:	d0c4      	beq.n	8003120 <stm32__i2c__master_transmit+0xa0>
 8003196:	697b      	ldr	r3, [r7, #20]
 8003198:	42ab      	cmp	r3, r5
 800319a:	dcc1      	bgt.n	8003120 <stm32__i2c__master_transmit+0xa0>
 800319c:	7cfb      	ldrb	r3, [r7, #19]
 800319e:	2b00      	cmp	r3, #0
 80031a0:	d1be      	bne.n	8003120 <stm32__i2c__master_transmit+0xa0>
 80031a2:	697b      	ldr	r3, [r7, #20]
 80031a4:	42a3      	cmp	r3, r4
 80031a6:	db02      	blt.n	80031ae <stm32__i2c__master_transmit+0x12e>
 80031a8:	697b      	ldr	r3, [r7, #20]
 80031aa:	42ab      	cmp	r3, r5
 80031ac:	dd04      	ble.n	80031b8 <stm32__i2c__master_transmit+0x138>
 80031ae:	4822      	ldr	r0, [pc, #136]	; (8003238 <stm32__i2c__master_transmit+0x1b8>)
 80031b0:	f240 21c7 	movw	r1, #711	; 0x2c7
 80031b4:	f004 ff04 	bl	8007fc0 <__gnat_last_chance_handler>
 80031b8:	68fb      	ldr	r3, [r7, #12]
 80031ba:	685b      	ldr	r3, [r3, #4]
 80031bc:	3310      	adds	r3, #16
 80031be:	681b      	ldr	r3, [r3, #0]
 80031c0:	6839      	ldr	r1, [r7, #0]
 80031c2:	697a      	ldr	r2, [r7, #20]
 80031c4:	1b92      	subs	r2, r2, r6
 80031c6:	5c8a      	ldrb	r2, [r1, r2]
 80031c8:	f362 0307 	bfi	r3, r2, #0, #8
 80031cc:	68fa      	ldr	r2, [r7, #12]
 80031ce:	6852      	ldr	r2, [r2, #4]
 80031d0:	3210      	adds	r2, #16
 80031d2:	6013      	str	r3, [r2, #0]
 80031d4:	697b      	ldr	r3, [r7, #20]
 80031d6:	f06f 4200 	mvn.w	r2, #2147483648	; 0x80000000
 80031da:	4293      	cmp	r3, r2
 80031dc:	d104      	bne.n	80031e8 <stm32__i2c__master_transmit+0x168>
 80031de:	4816      	ldr	r0, [pc, #88]	; (8003238 <stm32__i2c__master_transmit+0x1b8>)
 80031e0:	f44f 7132 	mov.w	r1, #712	; 0x2c8
 80031e4:	f004 feec 	bl	8007fc0 <__gnat_last_chance_handler>
 80031e8:	697b      	ldr	r3, [r7, #20]
 80031ea:	3301      	adds	r3, #1
 80031ec:	617b      	str	r3, [r7, #20]
 80031ee:	e797      	b.n	8003120 <stm32__i2c__master_transmit+0xa0>
 80031f0:	68f8      	ldr	r0, [r7, #12]
 80031f2:	2106      	movs	r1, #6
 80031f4:	2200      	movs	r2, #0
 80031f6:	6b3b      	ldr	r3, [r7, #48]	; 0x30
 80031f8:	f7ff fb82 	bl	8002900 <stm32__i2c__wait_flag>
 80031fc:	4603      	mov	r3, r0
 80031fe:	74fb      	strb	r3, [r7, #19]
 8003200:	7cfb      	ldrb	r3, [r7, #19]
 8003202:	2b00      	cmp	r3, #0
 8003204:	d111      	bne.n	800322a <stm32__i2c__master_transmit+0x1aa>
 8003206:	68fb      	ldr	r3, [r7, #12]
 8003208:	685b      	ldr	r3, [r3, #4]
 800320a:	681b      	ldr	r3, [r3, #0]
 800320c:	461a      	mov	r2, r3
 800320e:	4613      	mov	r3, r2
 8003210:	f443 7200 	orr.w	r2, r3, #512	; 0x200
 8003214:	68fb      	ldr	r3, [r7, #12]
 8003216:	685b      	ldr	r3, [r3, #4]
 8003218:	601a      	str	r2, [r3, #0]
 800321a:	68fb      	ldr	r3, [r7, #12]
 800321c:	2201      	movs	r2, #1
 800321e:	751a      	strb	r2, [r3, #20]
 8003220:	e004      	b.n	800322c <stm32__i2c__master_transmit+0x1ac>
 8003222:	bf00      	nop
 8003224:	e002      	b.n	800322c <stm32__i2c__master_transmit+0x1ac>
 8003226:	bf00      	nop
 8003228:	e000      	b.n	800322c <stm32__i2c__master_transmit+0x1ac>
 800322a:	bf00      	nop
 800322c:	7cfb      	ldrb	r3, [r7, #19]
 800322e:	bf00      	nop
 8003230:	4618      	mov	r0, r3
 8003232:	371c      	adds	r7, #28
 8003234:	46bd      	mov	sp, r7
 8003236:	bdf0      	pop	{r4, r5, r6, r7, pc}
 8003238:	08009084 	.word	0x08009084

0800323c <stm32__i2c__master_receive>:
 800323c:	b590      	push	{r4, r7, lr}
 800323e:	b087      	sub	sp, #28
 8003240:	af00      	add	r7, sp, #0
 8003242:	60f8      	str	r0, [r7, #12]
 8003244:	e9c7 2300 	strd	r2, r3, [r7]
 8003248:	460b      	mov	r3, r1
 800324a:	817b      	strh	r3, [r7, #10]
 800324c:	687b      	ldr	r3, [r7, #4]
 800324e:	681b      	ldr	r3, [r3, #0]
 8003250:	461c      	mov	r4, r3
 8003252:	687b      	ldr	r3, [r7, #4]
 8003254:	681b      	ldr	r3, [r3, #0]
 8003256:	2b00      	cmp	r3, #0
 8003258:	da04      	bge.n	8003264 <stm32__i2c__master_receive+0x28>
 800325a:	48a1      	ldr	r0, [pc, #644]	; (80034e0 <stm32__i2c__master_receive+0x2a4>)
 800325c:	f240 21e3 	movw	r1, #739	; 0x2e3
 8003260:	f004 feae 	bl	8007fc0 <__gnat_last_chance_handler>
 8003264:	687b      	ldr	r3, [r7, #4]
 8003266:	681b      	ldr	r3, [r3, #0]
 8003268:	617b      	str	r3, [r7, #20]
 800326a:	68fb      	ldr	r3, [r7, #12]
 800326c:	7d1b      	ldrb	r3, [r3, #20]
 800326e:	2b00      	cmp	r3, #0
 8003270:	d102      	bne.n	8003278 <stm32__i2c__master_receive+0x3c>
 8003272:	2301      	movs	r3, #1
 8003274:	74fb      	strb	r3, [r7, #19]
 8003276:	e2ae      	b.n	80037d6 <stm32__i2c__master_receive+0x59a>
 8003278:	687b      	ldr	r3, [r7, #4]
 800327a:	681a      	ldr	r2, [r3, #0]
 800327c:	687b      	ldr	r3, [r7, #4]
 800327e:	685b      	ldr	r3, [r3, #4]
 8003280:	429a      	cmp	r2, r3
 8003282:	dd02      	ble.n	800328a <stm32__i2c__master_receive+0x4e>
 8003284:	2301      	movs	r3, #1
 8003286:	74fb      	strb	r3, [r7, #19]
 8003288:	e2a5      	b.n	80037d6 <stm32__i2c__master_receive+0x59a>
 800328a:	68f8      	ldr	r0, [r7, #12]
 800328c:	210f      	movs	r1, #15
 800328e:	2201      	movs	r2, #1
 8003290:	6abb      	ldr	r3, [r7, #40]	; 0x28
 8003292:	f7ff fb35 	bl	8002900 <stm32__i2c__wait_flag>
 8003296:	4603      	mov	r3, r0
 8003298:	74fb      	strb	r3, [r7, #19]
 800329a:	7cfb      	ldrb	r3, [r7, #19]
 800329c:	2b00      	cmp	r3, #0
 800329e:	d002      	beq.n	80032a6 <stm32__i2c__master_receive+0x6a>
 80032a0:	2303      	movs	r3, #3
 80032a2:	74fb      	strb	r3, [r7, #19]
 80032a4:	e297      	b.n	80037d6 <stm32__i2c__master_receive+0x59a>
 80032a6:	68fb      	ldr	r3, [r7, #12]
 80032a8:	7d1b      	ldrb	r3, [r3, #20]
 80032aa:	2b01      	cmp	r3, #1
 80032ac:	d002      	beq.n	80032b4 <stm32__i2c__master_receive+0x78>
 80032ae:	2303      	movs	r3, #3
 80032b0:	74fb      	strb	r3, [r7, #19]
 80032b2:	e290      	b.n	80037d6 <stm32__i2c__master_receive+0x59a>
 80032b4:	68fb      	ldr	r3, [r7, #12]
 80032b6:	2203      	movs	r2, #3
 80032b8:	751a      	strb	r2, [r3, #20]
 80032ba:	68fb      	ldr	r3, [r7, #12]
 80032bc:	685b      	ldr	r3, [r3, #4]
 80032be:	681b      	ldr	r3, [r3, #0]
 80032c0:	f36f 23cb 	bfc	r3, #11, #1
 80032c4:	68fa      	ldr	r2, [r7, #12]
 80032c6:	6852      	ldr	r2, [r2, #4]
 80032c8:	6013      	str	r3, [r2, #0]
 80032ca:	897b      	ldrh	r3, [r7, #10]
 80032cc:	68f8      	ldr	r0, [r7, #12]
 80032ce:	4619      	mov	r1, r3
 80032d0:	6aba      	ldr	r2, [r7, #40]	; 0x28
 80032d2:	f7ff fc39 	bl	8002b48 <stm32__i2c__master_request_read>
 80032d6:	4603      	mov	r3, r0
 80032d8:	74fb      	strb	r3, [r7, #19]
 80032da:	7cfb      	ldrb	r3, [r7, #19]
 80032dc:	2b00      	cmp	r3, #0
 80032de:	f040 826f 	bne.w	80037c0 <stm32__i2c__master_receive+0x584>
 80032e2:	687b      	ldr	r3, [r7, #4]
 80032e4:	681a      	ldr	r2, [r3, #0]
 80032e6:	687b      	ldr	r3, [r7, #4]
 80032e8:	685b      	ldr	r3, [r3, #4]
 80032ea:	429a      	cmp	r2, r3
 80032ec:	d115      	bne.n	800331a <stm32__i2c__master_receive+0xde>
 80032ee:	68fb      	ldr	r3, [r7, #12]
 80032f0:	685b      	ldr	r3, [r3, #4]
 80032f2:	681b      	ldr	r3, [r3, #0]
 80032f4:	f36f 238a 	bfc	r3, #10, #1
 80032f8:	68fa      	ldr	r2, [r7, #12]
 80032fa:	6852      	ldr	r2, [r2, #4]
 80032fc:	6013      	str	r3, [r2, #0]
 80032fe:	68f8      	ldr	r0, [r7, #12]
 8003300:	f7ff fae4 	bl	80028cc <stm32__i2c__clear_address_sent_status>
 8003304:	68fb      	ldr	r3, [r7, #12]
 8003306:	685b      	ldr	r3, [r3, #4]
 8003308:	681b      	ldr	r3, [r3, #0]
 800330a:	461a      	mov	r2, r3
 800330c:	4613      	mov	r3, r2
 800330e:	f443 7200 	orr.w	r2, r3, #512	; 0x200
 8003312:	68fb      	ldr	r3, [r7, #12]
 8003314:	685b      	ldr	r3, [r3, #4]
 8003316:	601a      	str	r2, [r3, #0]
 8003318:	e045      	b.n	80033a6 <stm32__i2c__master_receive+0x16a>
 800331a:	687b      	ldr	r3, [r7, #4]
 800331c:	681b      	ldr	r3, [r3, #0]
 800331e:	461a      	mov	r2, r3
 8003320:	ea4f 73e2 	mov.w	r3, r2, asr #31
 8003324:	f04f 30ff 	mov.w	r0, #4294967295
 8003328:	f06f 4100 	mvn.w	r1, #2147483648	; 0x80000000
 800332c:	428b      	cmp	r3, r1
 800332e:	bf08      	it	eq
 8003330:	4282      	cmpeq	r2, r0
 8003332:	d104      	bne.n	800333e <stm32__i2c__master_receive+0x102>
 8003334:	486a      	ldr	r0, [pc, #424]	; (80034e0 <stm32__i2c__master_receive+0x2a4>)
 8003336:	f240 310b 	movw	r1, #779	; 0x30b
 800333a:	f004 fe41 	bl	8007fc0 <__gnat_last_chance_handler>
 800333e:	687b      	ldr	r3, [r7, #4]
 8003340:	681b      	ldr	r3, [r3, #0]
 8003342:	461a      	mov	r2, r3
 8003344:	ea4f 73e2 	mov.w	r3, r2, asr #31
 8003348:	1c50      	adds	r0, r2, #1
 800334a:	f143 0100 	adc.w	r1, r3, #0
 800334e:	687b      	ldr	r3, [r7, #4]
 8003350:	685b      	ldr	r3, [r3, #4]
 8003352:	461a      	mov	r2, r3
 8003354:	ea4f 73e2 	mov.w	r3, r2, asr #31
 8003358:	4299      	cmp	r1, r3
 800335a:	bf08      	it	eq
 800335c:	4290      	cmpeq	r0, r2
 800335e:	d115      	bne.n	800338c <stm32__i2c__master_receive+0x150>
 8003360:	68fb      	ldr	r3, [r7, #12]
 8003362:	685b      	ldr	r3, [r3, #4]
 8003364:	681b      	ldr	r3, [r3, #0]
 8003366:	f36f 238a 	bfc	r3, #10, #1
 800336a:	68fa      	ldr	r2, [r7, #12]
 800336c:	6852      	ldr	r2, [r2, #4]
 800336e:	6013      	str	r3, [r2, #0]
 8003370:	68fb      	ldr	r3, [r7, #12]
 8003372:	685b      	ldr	r3, [r3, #4]
 8003374:	681b      	ldr	r3, [r3, #0]
 8003376:	461a      	mov	r2, r3
 8003378:	4613      	mov	r3, r2
 800337a:	f443 6200 	orr.w	r2, r3, #2048	; 0x800
 800337e:	68fb      	ldr	r3, [r7, #12]
 8003380:	685b      	ldr	r3, [r3, #4]
 8003382:	601a      	str	r2, [r3, #0]
 8003384:	68f8      	ldr	r0, [r7, #12]
 8003386:	f7ff faa1 	bl	80028cc <stm32__i2c__clear_address_sent_status>
 800338a:	e00c      	b.n	80033a6 <stm32__i2c__master_receive+0x16a>
 800338c:	68fb      	ldr	r3, [r7, #12]
 800338e:	685b      	ldr	r3, [r3, #4]
 8003390:	681b      	ldr	r3, [r3, #0]
 8003392:	461a      	mov	r2, r3
 8003394:	4613      	mov	r3, r2
 8003396:	f443 6280 	orr.w	r2, r3, #1024	; 0x400
 800339a:	68fb      	ldr	r3, [r7, #12]
 800339c:	685b      	ldr	r3, [r3, #4]
 800339e:	601a      	str	r2, [r3, #0]
 80033a0:	68f8      	ldr	r0, [r7, #12]
 80033a2:	f7ff fa93 	bl	80028cc <stm32__i2c__clear_address_sent_status>
 80033a6:	697a      	ldr	r2, [r7, #20]
 80033a8:	687b      	ldr	r3, [r7, #4]
 80033aa:	685b      	ldr	r3, [r3, #4]
 80033ac:	429a      	cmp	r2, r3
 80033ae:	f300 8203 	bgt.w	80037b8 <stm32__i2c__master_receive+0x57c>
 80033b2:	697a      	ldr	r2, [r7, #20]
 80033b4:	687b      	ldr	r3, [r7, #4]
 80033b6:	685b      	ldr	r3, [r3, #4]
 80033b8:	429a      	cmp	r2, r3
 80033ba:	d139      	bne.n	8003430 <stm32__i2c__master_receive+0x1f4>
 80033bc:	68f8      	ldr	r0, [r7, #12]
 80033be:	2105      	movs	r1, #5
 80033c0:	2200      	movs	r2, #0
 80033c2:	6abb      	ldr	r3, [r7, #40]	; 0x28
 80033c4:	f7ff fa9c 	bl	8002900 <stm32__i2c__wait_flag>
 80033c8:	4603      	mov	r3, r0
 80033ca:	74fb      	strb	r3, [r7, #19]
 80033cc:	7cfb      	ldrb	r3, [r7, #19]
 80033ce:	2b00      	cmp	r3, #0
 80033d0:	f040 81f8 	bne.w	80037c4 <stm32__i2c__master_receive+0x588>
 80033d4:	697a      	ldr	r2, [r7, #20]
 80033d6:	687b      	ldr	r3, [r7, #4]
 80033d8:	681b      	ldr	r3, [r3, #0]
 80033da:	429a      	cmp	r2, r3
 80033dc:	db04      	blt.n	80033e8 <stm32__i2c__master_receive+0x1ac>
 80033de:	697a      	ldr	r2, [r7, #20]
 80033e0:	687b      	ldr	r3, [r7, #4]
 80033e2:	685b      	ldr	r3, [r3, #4]
 80033e4:	429a      	cmp	r2, r3
 80033e6:	dd04      	ble.n	80033f2 <stm32__i2c__master_receive+0x1b6>
 80033e8:	483d      	ldr	r0, [pc, #244]	; (80034e0 <stm32__i2c__master_receive+0x2a4>)
 80033ea:	f44f 7149 	mov.w	r1, #804	; 0x324
 80033ee:	f004 fde7 	bl	8007fc0 <__gnat_last_chance_handler>
 80033f2:	697b      	ldr	r3, [r7, #20]
 80033f4:	2b00      	cmp	r3, #0
 80033f6:	da04      	bge.n	8003402 <stm32__i2c__master_receive+0x1c6>
 80033f8:	4839      	ldr	r0, [pc, #228]	; (80034e0 <stm32__i2c__master_receive+0x2a4>)
 80033fa:	f44f 7149 	mov.w	r1, #804	; 0x324
 80033fe:	f004 fddf 	bl	8007fc0 <__gnat_last_chance_handler>
 8003402:	683a      	ldr	r2, [r7, #0]
 8003404:	68fb      	ldr	r3, [r7, #12]
 8003406:	685b      	ldr	r3, [r3, #4]
 8003408:	3310      	adds	r3, #16
 800340a:	681b      	ldr	r3, [r3, #0]
 800340c:	b2d9      	uxtb	r1, r3
 800340e:	697b      	ldr	r3, [r7, #20]
 8003410:	1b1b      	subs	r3, r3, r4
 8003412:	54d1      	strb	r1, [r2, r3]
 8003414:	697b      	ldr	r3, [r7, #20]
 8003416:	f06f 4200 	mvn.w	r2, #2147483648	; 0x80000000
 800341a:	4293      	cmp	r3, r2
 800341c:	d104      	bne.n	8003428 <stm32__i2c__master_receive+0x1ec>
 800341e:	4830      	ldr	r0, [pc, #192]	; (80034e0 <stm32__i2c__master_receive+0x2a4>)
 8003420:	f240 3125 	movw	r1, #805	; 0x325
 8003424:	f004 fdcc 	bl	8007fc0 <__gnat_last_chance_handler>
 8003428:	697b      	ldr	r3, [r7, #20]
 800342a:	3301      	adds	r3, #1
 800342c:	617b      	str	r3, [r7, #20]
 800342e:	e7ba      	b.n	80033a6 <stm32__i2c__master_receive+0x16a>
 8003430:	697b      	ldr	r3, [r7, #20]
 8003432:	f06f 4200 	mvn.w	r2, #2147483648	; 0x80000000
 8003436:	4293      	cmp	r3, r2
 8003438:	d104      	bne.n	8003444 <stm32__i2c__master_receive+0x208>
 800343a:	4829      	ldr	r0, [pc, #164]	; (80034e0 <stm32__i2c__master_receive+0x2a4>)
 800343c:	f240 3127 	movw	r1, #807	; 0x327
 8003440:	f004 fdbe 	bl	8007fc0 <__gnat_last_chance_handler>
 8003444:	697b      	ldr	r3, [r7, #20]
 8003446:	1c5a      	adds	r2, r3, #1
 8003448:	687b      	ldr	r3, [r7, #4]
 800344a:	685b      	ldr	r3, [r3, #4]
 800344c:	429a      	cmp	r2, r3
 800344e:	d17a      	bne.n	8003546 <stm32__i2c__master_receive+0x30a>
 8003450:	68fb      	ldr	r3, [r7, #12]
 8003452:	685b      	ldr	r3, [r3, #4]
 8003454:	681b      	ldr	r3, [r3, #0]
 8003456:	f36f 238a 	bfc	r3, #10, #1
 800345a:	68fa      	ldr	r2, [r7, #12]
 800345c:	6852      	ldr	r2, [r2, #4]
 800345e:	6013      	str	r3, [r2, #0]
 8003460:	68f8      	ldr	r0, [r7, #12]
 8003462:	2102      	movs	r1, #2
 8003464:	2200      	movs	r2, #0
 8003466:	6abb      	ldr	r3, [r7, #40]	; 0x28
 8003468:	f7ff fa4a 	bl	8002900 <stm32__i2c__wait_flag>
 800346c:	4603      	mov	r3, r0
 800346e:	74fb      	strb	r3, [r7, #19]
 8003470:	7cfb      	ldrb	r3, [r7, #19]
 8003472:	2b00      	cmp	r3, #0
 8003474:	f040 81a8 	bne.w	80037c8 <stm32__i2c__master_receive+0x58c>
 8003478:	68fb      	ldr	r3, [r7, #12]
 800347a:	685b      	ldr	r3, [r3, #4]
 800347c:	681b      	ldr	r3, [r3, #0]
 800347e:	461a      	mov	r2, r3
 8003480:	4613      	mov	r3, r2
 8003482:	f443 7200 	orr.w	r2, r3, #512	; 0x200
 8003486:	68fb      	ldr	r3, [r7, #12]
 8003488:	685b      	ldr	r3, [r3, #4]
 800348a:	601a      	str	r2, [r3, #0]
 800348c:	697a      	ldr	r2, [r7, #20]
 800348e:	687b      	ldr	r3, [r7, #4]
 8003490:	681b      	ldr	r3, [r3, #0]
 8003492:	429a      	cmp	r2, r3
 8003494:	db04      	blt.n	80034a0 <stm32__i2c__master_receive+0x264>
 8003496:	697a      	ldr	r2, [r7, #20]
 8003498:	687b      	ldr	r3, [r7, #4]
 800349a:	685b      	ldr	r3, [r3, #4]
 800349c:	429a      	cmp	r2, r3
 800349e:	dd04      	ble.n	80034aa <stm32__i2c__master_receive+0x26e>
 80034a0:	480f      	ldr	r0, [pc, #60]	; (80034e0 <stm32__i2c__master_receive+0x2a4>)
 80034a2:	f240 3137 	movw	r1, #823	; 0x337
 80034a6:	f004 fd8b 	bl	8007fc0 <__gnat_last_chance_handler>
 80034aa:	697b      	ldr	r3, [r7, #20]
 80034ac:	2b00      	cmp	r3, #0
 80034ae:	da04      	bge.n	80034ba <stm32__i2c__master_receive+0x27e>
 80034b0:	480b      	ldr	r0, [pc, #44]	; (80034e0 <stm32__i2c__master_receive+0x2a4>)
 80034b2:	f240 3137 	movw	r1, #823	; 0x337
 80034b6:	f004 fd83 	bl	8007fc0 <__gnat_last_chance_handler>
 80034ba:	683a      	ldr	r2, [r7, #0]
 80034bc:	68fb      	ldr	r3, [r7, #12]
 80034be:	685b      	ldr	r3, [r3, #4]
 80034c0:	3310      	adds	r3, #16
 80034c2:	681b      	ldr	r3, [r3, #0]
 80034c4:	b2d9      	uxtb	r1, r3
 80034c6:	697b      	ldr	r3, [r7, #20]
 80034c8:	1b1b      	subs	r3, r3, r4
 80034ca:	54d1      	strb	r1, [r2, r3]
 80034cc:	697b      	ldr	r3, [r7, #20]
 80034ce:	f06f 4200 	mvn.w	r2, #2147483648	; 0x80000000
 80034d2:	4293      	cmp	r3, r2
 80034d4:	d106      	bne.n	80034e4 <stm32__i2c__master_receive+0x2a8>
 80034d6:	4802      	ldr	r0, [pc, #8]	; (80034e0 <stm32__i2c__master_receive+0x2a4>)
 80034d8:	f44f 714e 	mov.w	r1, #824	; 0x338
 80034dc:	f004 fd70 	bl	8007fc0 <__gnat_last_chance_handler>
 80034e0:	08009084 	.word	0x08009084
 80034e4:	697b      	ldr	r3, [r7, #20]
 80034e6:	3301      	adds	r3, #1
 80034e8:	617b      	str	r3, [r7, #20]
 80034ea:	697a      	ldr	r2, [r7, #20]
 80034ec:	687b      	ldr	r3, [r7, #4]
 80034ee:	681b      	ldr	r3, [r3, #0]
 80034f0:	429a      	cmp	r2, r3
 80034f2:	db04      	blt.n	80034fe <stm32__i2c__master_receive+0x2c2>
 80034f4:	697a      	ldr	r2, [r7, #20]
 80034f6:	687b      	ldr	r3, [r7, #4]
 80034f8:	685b      	ldr	r3, [r3, #4]
 80034fa:	429a      	cmp	r2, r3
 80034fc:	dd04      	ble.n	8003508 <stm32__i2c__master_receive+0x2cc>
 80034fe:	48aa      	ldr	r0, [pc, #680]	; (80037a8 <stm32__i2c__master_receive+0x56c>)
 8003500:	f240 3139 	movw	r1, #825	; 0x339
 8003504:	f004 fd5c 	bl	8007fc0 <__gnat_last_chance_handler>
 8003508:	697b      	ldr	r3, [r7, #20]
 800350a:	2b00      	cmp	r3, #0
 800350c:	da04      	bge.n	8003518 <stm32__i2c__master_receive+0x2dc>
 800350e:	48a6      	ldr	r0, [pc, #664]	; (80037a8 <stm32__i2c__master_receive+0x56c>)
 8003510:	f240 3139 	movw	r1, #825	; 0x339
 8003514:	f004 fd54 	bl	8007fc0 <__gnat_last_chance_handler>
 8003518:	683a      	ldr	r2, [r7, #0]
 800351a:	68fb      	ldr	r3, [r7, #12]
 800351c:	685b      	ldr	r3, [r3, #4]
 800351e:	3310      	adds	r3, #16
 8003520:	681b      	ldr	r3, [r3, #0]
 8003522:	b2d9      	uxtb	r1, r3
 8003524:	697b      	ldr	r3, [r7, #20]
 8003526:	1b1b      	subs	r3, r3, r4
 8003528:	54d1      	strb	r1, [r2, r3]
 800352a:	697b      	ldr	r3, [r7, #20]
 800352c:	f06f 4200 	mvn.w	r2, #2147483648	; 0x80000000
 8003530:	4293      	cmp	r3, r2
 8003532:	d104      	bne.n	800353e <stm32__i2c__master_receive+0x302>
 8003534:	489c      	ldr	r0, [pc, #624]	; (80037a8 <stm32__i2c__master_receive+0x56c>)
 8003536:	f240 313a 	movw	r1, #826	; 0x33a
 800353a:	f004 fd41 	bl	8007fc0 <__gnat_last_chance_handler>
 800353e:	697b      	ldr	r3, [r7, #20]
 8003540:	3301      	adds	r3, #1
 8003542:	617b      	str	r3, [r7, #20]
 8003544:	e72f      	b.n	80033a6 <stm32__i2c__master_receive+0x16a>
 8003546:	697b      	ldr	r3, [r7, #20]
 8003548:	4a98      	ldr	r2, [pc, #608]	; (80037ac <stm32__i2c__master_receive+0x570>)
 800354a:	4293      	cmp	r3, r2
 800354c:	dd04      	ble.n	8003558 <stm32__i2c__master_receive+0x31c>
 800354e:	4896      	ldr	r0, [pc, #600]	; (80037a8 <stm32__i2c__master_receive+0x56c>)
 8003550:	f44f 714f 	mov.w	r1, #828	; 0x33c
 8003554:	f004 fd34 	bl	8007fc0 <__gnat_last_chance_handler>
 8003558:	697b      	ldr	r3, [r7, #20]
 800355a:	1c9a      	adds	r2, r3, #2
 800355c:	687b      	ldr	r3, [r7, #4]
 800355e:	685b      	ldr	r3, [r3, #4]
 8003560:	429a      	cmp	r2, r3
 8003562:	f040 80b2 	bne.w	80036ca <stm32__i2c__master_receive+0x48e>
 8003566:	68f8      	ldr	r0, [r7, #12]
 8003568:	2102      	movs	r1, #2
 800356a:	2200      	movs	r2, #0
 800356c:	6abb      	ldr	r3, [r7, #40]	; 0x28
 800356e:	f7ff f9c7 	bl	8002900 <stm32__i2c__wait_flag>
 8003572:	4603      	mov	r3, r0
 8003574:	74fb      	strb	r3, [r7, #19]
 8003576:	7cfb      	ldrb	r3, [r7, #19]
 8003578:	2b00      	cmp	r3, #0
 800357a:	f040 8127 	bne.w	80037cc <stm32__i2c__master_receive+0x590>
 800357e:	68fb      	ldr	r3, [r7, #12]
 8003580:	685b      	ldr	r3, [r3, #4]
 8003582:	681b      	ldr	r3, [r3, #0]
 8003584:	f36f 238a 	bfc	r3, #10, #1
 8003588:	68fa      	ldr	r2, [r7, #12]
 800358a:	6852      	ldr	r2, [r2, #4]
 800358c:	6013      	str	r3, [r2, #0]
 800358e:	697a      	ldr	r2, [r7, #20]
 8003590:	687b      	ldr	r3, [r7, #4]
 8003592:	681b      	ldr	r3, [r3, #0]
 8003594:	429a      	cmp	r2, r3
 8003596:	db04      	blt.n	80035a2 <stm32__i2c__master_receive+0x366>
 8003598:	697a      	ldr	r2, [r7, #20]
 800359a:	687b      	ldr	r3, [r7, #4]
 800359c:	685b      	ldr	r3, [r3, #4]
 800359e:	429a      	cmp	r2, r3
 80035a0:	dd04      	ble.n	80035ac <stm32__i2c__master_receive+0x370>
 80035a2:	4881      	ldr	r0, [pc, #516]	; (80037a8 <stm32__i2c__master_receive+0x56c>)
 80035a4:	f240 314a 	movw	r1, #842	; 0x34a
 80035a8:	f004 fd0a 	bl	8007fc0 <__gnat_last_chance_handler>
 80035ac:	697b      	ldr	r3, [r7, #20]
 80035ae:	2b00      	cmp	r3, #0
 80035b0:	da04      	bge.n	80035bc <stm32__i2c__master_receive+0x380>
 80035b2:	487d      	ldr	r0, [pc, #500]	; (80037a8 <stm32__i2c__master_receive+0x56c>)
 80035b4:	f240 314a 	movw	r1, #842	; 0x34a
 80035b8:	f004 fd02 	bl	8007fc0 <__gnat_last_chance_handler>
 80035bc:	683a      	ldr	r2, [r7, #0]
 80035be:	68fb      	ldr	r3, [r7, #12]
 80035c0:	685b      	ldr	r3, [r3, #4]
 80035c2:	3310      	adds	r3, #16
 80035c4:	681b      	ldr	r3, [r3, #0]
 80035c6:	b2d9      	uxtb	r1, r3
 80035c8:	697b      	ldr	r3, [r7, #20]
 80035ca:	1b1b      	subs	r3, r3, r4
 80035cc:	54d1      	strb	r1, [r2, r3]
 80035ce:	697b      	ldr	r3, [r7, #20]
 80035d0:	f06f 4200 	mvn.w	r2, #2147483648	; 0x80000000
 80035d4:	4293      	cmp	r3, r2
 80035d6:	d104      	bne.n	80035e2 <stm32__i2c__master_receive+0x3a6>
 80035d8:	4873      	ldr	r0, [pc, #460]	; (80037a8 <stm32__i2c__master_receive+0x56c>)
 80035da:	f240 314b 	movw	r1, #843	; 0x34b
 80035de:	f004 fcef 	bl	8007fc0 <__gnat_last_chance_handler>
 80035e2:	697b      	ldr	r3, [r7, #20]
 80035e4:	3301      	adds	r3, #1
 80035e6:	617b      	str	r3, [r7, #20]
 80035e8:	68f8      	ldr	r0, [r7, #12]
 80035ea:	2102      	movs	r1, #2
 80035ec:	2200      	movs	r2, #0
 80035ee:	6abb      	ldr	r3, [r7, #40]	; 0x28
 80035f0:	f7ff f986 	bl	8002900 <stm32__i2c__wait_flag>
 80035f4:	4603      	mov	r3, r0
 80035f6:	74fb      	strb	r3, [r7, #19]
 80035f8:	7cfb      	ldrb	r3, [r7, #19]
 80035fa:	2b00      	cmp	r3, #0
 80035fc:	f040 80e8 	bne.w	80037d0 <stm32__i2c__master_receive+0x594>
 8003600:	68fb      	ldr	r3, [r7, #12]
 8003602:	685b      	ldr	r3, [r3, #4]
 8003604:	681b      	ldr	r3, [r3, #0]
 8003606:	461a      	mov	r2, r3
 8003608:	4613      	mov	r3, r2
 800360a:	f443 7200 	orr.w	r2, r3, #512	; 0x200
 800360e:	68fb      	ldr	r3, [r7, #12]
 8003610:	685b      	ldr	r3, [r3, #4]
 8003612:	601a      	str	r2, [r3, #0]
 8003614:	697a      	ldr	r2, [r7, #20]
 8003616:	687b      	ldr	r3, [r7, #4]
 8003618:	681b      	ldr	r3, [r3, #0]
 800361a:	429a      	cmp	r2, r3
 800361c:	db04      	blt.n	8003628 <stm32__i2c__master_receive+0x3ec>
 800361e:	697a      	ldr	r2, [r7, #20]
 8003620:	687b      	ldr	r3, [r7, #4]
 8003622:	685b      	ldr	r3, [r3, #4]
 8003624:	429a      	cmp	r2, r3
 8003626:	dd04      	ble.n	8003632 <stm32__i2c__master_receive+0x3f6>
 8003628:	485f      	ldr	r0, [pc, #380]	; (80037a8 <stm32__i2c__master_receive+0x56c>)
 800362a:	f240 3159 	movw	r1, #857	; 0x359
 800362e:	f004 fcc7 	bl	8007fc0 <__gnat_last_chance_handler>
 8003632:	697b      	ldr	r3, [r7, #20]
 8003634:	2b00      	cmp	r3, #0
 8003636:	da04      	bge.n	8003642 <stm32__i2c__master_receive+0x406>
 8003638:	485b      	ldr	r0, [pc, #364]	; (80037a8 <stm32__i2c__master_receive+0x56c>)
 800363a:	f240 3159 	movw	r1, #857	; 0x359
 800363e:	f004 fcbf 	bl	8007fc0 <__gnat_last_chance_handler>
 8003642:	683a      	ldr	r2, [r7, #0]
 8003644:	68fb      	ldr	r3, [r7, #12]
 8003646:	685b      	ldr	r3, [r3, #4]
 8003648:	3310      	adds	r3, #16
 800364a:	681b      	ldr	r3, [r3, #0]
 800364c:	b2d9      	uxtb	r1, r3
 800364e:	697b      	ldr	r3, [r7, #20]
 8003650:	1b1b      	subs	r3, r3, r4
 8003652:	54d1      	strb	r1, [r2, r3]
 8003654:	697b      	ldr	r3, [r7, #20]
 8003656:	f06f 4200 	mvn.w	r2, #2147483648	; 0x80000000
 800365a:	4293      	cmp	r3, r2
 800365c:	d104      	bne.n	8003668 <stm32__i2c__master_receive+0x42c>
 800365e:	4852      	ldr	r0, [pc, #328]	; (80037a8 <stm32__i2c__master_receive+0x56c>)
 8003660:	f240 315a 	movw	r1, #858	; 0x35a
 8003664:	f004 fcac 	bl	8007fc0 <__gnat_last_chance_handler>
 8003668:	697b      	ldr	r3, [r7, #20]
 800366a:	3301      	adds	r3, #1
 800366c:	617b      	str	r3, [r7, #20]
 800366e:	697a      	ldr	r2, [r7, #20]
 8003670:	687b      	ldr	r3, [r7, #4]
 8003672:	681b      	ldr	r3, [r3, #0]
 8003674:	429a      	cmp	r2, r3
 8003676:	db04      	blt.n	8003682 <stm32__i2c__master_receive+0x446>
 8003678:	697a      	ldr	r2, [r7, #20]
 800367a:	687b      	ldr	r3, [r7, #4]
 800367c:	685b      	ldr	r3, [r3, #4]
 800367e:	429a      	cmp	r2, r3
 8003680:	dd04      	ble.n	800368c <stm32__i2c__master_receive+0x450>
 8003682:	4849      	ldr	r0, [pc, #292]	; (80037a8 <stm32__i2c__master_receive+0x56c>)
 8003684:	f240 315b 	movw	r1, #859	; 0x35b
 8003688:	f004 fc9a 	bl	8007fc0 <__gnat_last_chance_handler>
 800368c:	697b      	ldr	r3, [r7, #20]
 800368e:	2b00      	cmp	r3, #0
 8003690:	da04      	bge.n	800369c <stm32__i2c__master_receive+0x460>
 8003692:	4845      	ldr	r0, [pc, #276]	; (80037a8 <stm32__i2c__master_receive+0x56c>)
 8003694:	f240 315b 	movw	r1, #859	; 0x35b
 8003698:	f004 fc92 	bl	8007fc0 <__gnat_last_chance_handler>
 800369c:	683a      	ldr	r2, [r7, #0]
 800369e:	68fb      	ldr	r3, [r7, #12]
 80036a0:	685b      	ldr	r3, [r3, #4]
 80036a2:	3310      	adds	r3, #16
 80036a4:	681b      	ldr	r3, [r3, #0]
 80036a6:	b2d9      	uxtb	r1, r3
 80036a8:	697b      	ldr	r3, [r7, #20]
 80036aa:	1b1b      	subs	r3, r3, r4
 80036ac:	54d1      	strb	r1, [r2, r3]
 80036ae:	697b      	ldr	r3, [r7, #20]
 80036b0:	f06f 4200 	mvn.w	r2, #2147483648	; 0x80000000
 80036b4:	4293      	cmp	r3, r2
 80036b6:	d104      	bne.n	80036c2 <stm32__i2c__master_receive+0x486>
 80036b8:	483b      	ldr	r0, [pc, #236]	; (80037a8 <stm32__i2c__master_receive+0x56c>)
 80036ba:	f44f 7157 	mov.w	r1, #860	; 0x35c
 80036be:	f004 fc7f 	bl	8007fc0 <__gnat_last_chance_handler>
 80036c2:	697b      	ldr	r3, [r7, #20]
 80036c4:	3301      	adds	r3, #1
 80036c6:	617b      	str	r3, [r7, #20]
 80036c8:	e66d      	b.n	80033a6 <stm32__i2c__master_receive+0x16a>
 80036ca:	68f8      	ldr	r0, [r7, #12]
 80036cc:	2105      	movs	r1, #5
 80036ce:	2200      	movs	r2, #0
 80036d0:	6abb      	ldr	r3, [r7, #40]	; 0x28
 80036d2:	f7ff f915 	bl	8002900 <stm32__i2c__wait_flag>
 80036d6:	4603      	mov	r3, r0
 80036d8:	74fb      	strb	r3, [r7, #19]
 80036da:	7cfb      	ldrb	r3, [r7, #19]
 80036dc:	2b00      	cmp	r3, #0
 80036de:	d179      	bne.n	80037d4 <stm32__i2c__master_receive+0x598>
 80036e0:	697a      	ldr	r2, [r7, #20]
 80036e2:	687b      	ldr	r3, [r7, #4]
 80036e4:	681b      	ldr	r3, [r3, #0]
 80036e6:	429a      	cmp	r2, r3
 80036e8:	db04      	blt.n	80036f4 <stm32__i2c__master_receive+0x4b8>
 80036ea:	697a      	ldr	r2, [r7, #20]
 80036ec:	687b      	ldr	r3, [r7, #4]
 80036ee:	685b      	ldr	r3, [r3, #4]
 80036f0:	429a      	cmp	r2, r3
 80036f2:	dd04      	ble.n	80036fe <stm32__i2c__master_receive+0x4c2>
 80036f4:	482c      	ldr	r0, [pc, #176]	; (80037a8 <stm32__i2c__master_receive+0x56c>)
 80036f6:	f240 316a 	movw	r1, #874	; 0x36a
 80036fa:	f004 fc61 	bl	8007fc0 <__gnat_last_chance_handler>
 80036fe:	697b      	ldr	r3, [r7, #20]
 8003700:	2b00      	cmp	r3, #0
 8003702:	da04      	bge.n	800370e <stm32__i2c__master_receive+0x4d2>
 8003704:	4828      	ldr	r0, [pc, #160]	; (80037a8 <stm32__i2c__master_receive+0x56c>)
 8003706:	f240 316a 	movw	r1, #874	; 0x36a
 800370a:	f004 fc59 	bl	8007fc0 <__gnat_last_chance_handler>
 800370e:	683a      	ldr	r2, [r7, #0]
 8003710:	68fb      	ldr	r3, [r7, #12]
 8003712:	685b      	ldr	r3, [r3, #4]
 8003714:	3310      	adds	r3, #16
 8003716:	681b      	ldr	r3, [r3, #0]
 8003718:	b2d9      	uxtb	r1, r3
 800371a:	697b      	ldr	r3, [r7, #20]
 800371c:	1b1b      	subs	r3, r3, r4
 800371e:	54d1      	strb	r1, [r2, r3]
 8003720:	697b      	ldr	r3, [r7, #20]
 8003722:	f06f 4200 	mvn.w	r2, #2147483648	; 0x80000000
 8003726:	4293      	cmp	r3, r2
 8003728:	d104      	bne.n	8003734 <stm32__i2c__master_receive+0x4f8>
 800372a:	481f      	ldr	r0, [pc, #124]	; (80037a8 <stm32__i2c__master_receive+0x56c>)
 800372c:	f240 316b 	movw	r1, #875	; 0x36b
 8003730:	f004 fc46 	bl	8007fc0 <__gnat_last_chance_handler>
 8003734:	697b      	ldr	r3, [r7, #20]
 8003736:	3301      	adds	r3, #1
 8003738:	617b      	str	r3, [r7, #20]
 800373a:	68f8      	ldr	r0, [r7, #12]
 800373c:	2102      	movs	r1, #2
 800373e:	2200      	movs	r2, #0
 8003740:	6abb      	ldr	r3, [r7, #40]	; 0x28
 8003742:	f7ff f8dd 	bl	8002900 <stm32__i2c__wait_flag>
 8003746:	4603      	mov	r3, r0
 8003748:	74fb      	strb	r3, [r7, #19]
 800374a:	7cfb      	ldrb	r3, [r7, #19]
 800374c:	2b00      	cmp	r3, #0
 800374e:	f47f ae2a 	bne.w	80033a6 <stm32__i2c__master_receive+0x16a>
 8003752:	697a      	ldr	r2, [r7, #20]
 8003754:	687b      	ldr	r3, [r7, #4]
 8003756:	681b      	ldr	r3, [r3, #0]
 8003758:	429a      	cmp	r2, r3
 800375a:	db04      	blt.n	8003766 <stm32__i2c__master_receive+0x52a>
 800375c:	697a      	ldr	r2, [r7, #20]
 800375e:	687b      	ldr	r3, [r7, #4]
 8003760:	685b      	ldr	r3, [r3, #4]
 8003762:	429a      	cmp	r2, r3
 8003764:	dd04      	ble.n	8003770 <stm32__i2c__master_receive+0x534>
 8003766:	4810      	ldr	r0, [pc, #64]	; (80037a8 <stm32__i2c__master_receive+0x56c>)
 8003768:	f44f 715d 	mov.w	r1, #884	; 0x374
 800376c:	f004 fc28 	bl	8007fc0 <__gnat_last_chance_handler>
 8003770:	697b      	ldr	r3, [r7, #20]
 8003772:	2b00      	cmp	r3, #0
 8003774:	da04      	bge.n	8003780 <stm32__i2c__master_receive+0x544>
 8003776:	480c      	ldr	r0, [pc, #48]	; (80037a8 <stm32__i2c__master_receive+0x56c>)
 8003778:	f44f 715d 	mov.w	r1, #884	; 0x374
 800377c:	f004 fc20 	bl	8007fc0 <__gnat_last_chance_handler>
 8003780:	683a      	ldr	r2, [r7, #0]
 8003782:	68fb      	ldr	r3, [r7, #12]
 8003784:	685b      	ldr	r3, [r3, #4]
 8003786:	3310      	adds	r3, #16
 8003788:	681b      	ldr	r3, [r3, #0]
 800378a:	b2d9      	uxtb	r1, r3
 800378c:	697b      	ldr	r3, [r7, #20]
 800378e:	1b1b      	subs	r3, r3, r4
 8003790:	54d1      	strb	r1, [r2, r3]
 8003792:	697b      	ldr	r3, [r7, #20]
 8003794:	f06f 4200 	mvn.w	r2, #2147483648	; 0x80000000
 8003798:	4293      	cmp	r3, r2
 800379a:	d109      	bne.n	80037b0 <stm32__i2c__master_receive+0x574>
 800379c:	4802      	ldr	r0, [pc, #8]	; (80037a8 <stm32__i2c__master_receive+0x56c>)
 800379e:	f240 3175 	movw	r1, #885	; 0x375
 80037a2:	f004 fc0d 	bl	8007fc0 <__gnat_last_chance_handler>
 80037a6:	bf00      	nop
 80037a8:	08009084 	.word	0x08009084
 80037ac:	7ffffffd 	.word	0x7ffffffd
 80037b0:	697b      	ldr	r3, [r7, #20]
 80037b2:	3301      	adds	r3, #1
 80037b4:	617b      	str	r3, [r7, #20]
 80037b6:	e5f6      	b.n	80033a6 <stm32__i2c__master_receive+0x16a>
 80037b8:	68fb      	ldr	r3, [r7, #12]
 80037ba:	2201      	movs	r2, #1
 80037bc:	751a      	strb	r2, [r3, #20]
 80037be:	e00a      	b.n	80037d6 <stm32__i2c__master_receive+0x59a>
 80037c0:	bf00      	nop
 80037c2:	e008      	b.n	80037d6 <stm32__i2c__master_receive+0x59a>
 80037c4:	bf00      	nop
 80037c6:	e006      	b.n	80037d6 <stm32__i2c__master_receive+0x59a>
 80037c8:	bf00      	nop
 80037ca:	e004      	b.n	80037d6 <stm32__i2c__master_receive+0x59a>
 80037cc:	bf00      	nop
 80037ce:	e002      	b.n	80037d6 <stm32__i2c__master_receive+0x59a>
 80037d0:	bf00      	nop
 80037d2:	e000      	b.n	80037d6 <stm32__i2c__master_receive+0x59a>
 80037d4:	bf00      	nop
 80037d6:	7cfb      	ldrb	r3, [r7, #19]
 80037d8:	bf00      	nop
 80037da:	4618      	mov	r0, r3
 80037dc:	371c      	adds	r7, #28
 80037de:	46bd      	mov	sp, r7
 80037e0:	bd90      	pop	{r4, r7, pc}
 80037e2:	bf00      	nop

080037e4 <stm32__i2c__mem_write>:
 80037e4:	b5f0      	push	{r4, r5, r6, r7, lr}
 80037e6:	b089      	sub	sp, #36	; 0x24
 80037e8:	af02      	add	r7, sp, #8
 80037ea:	60f8      	str	r0, [r7, #12]
 80037ec:	4608      	mov	r0, r1
 80037ee:	4611      	mov	r1, r2
 80037f0:	461a      	mov	r2, r3
 80037f2:	4603      	mov	r3, r0
 80037f4:	817b      	strh	r3, [r7, #10]
 80037f6:	460b      	mov	r3, r1
 80037f8:	813b      	strh	r3, [r7, #8]
 80037fa:	4613      	mov	r3, r2
 80037fc:	71fb      	strb	r3, [r7, #7]
 80037fe:	6b7b      	ldr	r3, [r7, #52]	; 0x34
 8003800:	681c      	ldr	r4, [r3, #0]
 8003802:	6b7b      	ldr	r3, [r7, #52]	; 0x34
 8003804:	685d      	ldr	r5, [r3, #4]
 8003806:	4626      	mov	r6, r4
 8003808:	2c00      	cmp	r4, #0
 800380a:	da04      	bge.n	8003816 <stm32__i2c__mem_write+0x32>
 800380c:	4866      	ldr	r0, [pc, #408]	; (80039a8 <stm32__i2c__mem_write+0x1c4>)
 800380e:	f44f 7163 	mov.w	r1, #908	; 0x38c
 8003812:	f004 fbd5 	bl	8007fc0 <__gnat_last_chance_handler>
 8003816:	617c      	str	r4, [r7, #20]
 8003818:	68fb      	ldr	r3, [r7, #12]
 800381a:	7d1b      	ldrb	r3, [r3, #20]
 800381c:	2b00      	cmp	r3, #0
 800381e:	d102      	bne.n	8003826 <stm32__i2c__mem_write+0x42>
 8003820:	2301      	movs	r3, #1
 8003822:	74fb      	strb	r3, [r7, #19]
 8003824:	e0ba      	b.n	800399c <stm32__i2c__mem_write+0x1b8>
 8003826:	42ac      	cmp	r4, r5
 8003828:	dd02      	ble.n	8003830 <stm32__i2c__mem_write+0x4c>
 800382a:	2301      	movs	r3, #1
 800382c:	74fb      	strb	r3, [r7, #19]
 800382e:	e0b5      	b.n	800399c <stm32__i2c__mem_write+0x1b8>
 8003830:	68f8      	ldr	r0, [r7, #12]
 8003832:	210f      	movs	r1, #15
 8003834:	2201      	movs	r2, #1
 8003836:	6bbb      	ldr	r3, [r7, #56]	; 0x38
 8003838:	f7ff f862 	bl	8002900 <stm32__i2c__wait_flag>
 800383c:	4603      	mov	r3, r0
 800383e:	74fb      	strb	r3, [r7, #19]
 8003840:	7cfb      	ldrb	r3, [r7, #19]
 8003842:	2b00      	cmp	r3, #0
 8003844:	d002      	beq.n	800384c <stm32__i2c__mem_write+0x68>
 8003846:	2303      	movs	r3, #3
 8003848:	74fb      	strb	r3, [r7, #19]
 800384a:	e0a7      	b.n	800399c <stm32__i2c__mem_write+0x1b8>
 800384c:	68fb      	ldr	r3, [r7, #12]
 800384e:	7d1b      	ldrb	r3, [r3, #20]
 8003850:	2b01      	cmp	r3, #1
 8003852:	d002      	beq.n	800385a <stm32__i2c__mem_write+0x76>
 8003854:	2303      	movs	r3, #3
 8003856:	74fb      	strb	r3, [r7, #19]
 8003858:	e0a0      	b.n	800399c <stm32__i2c__mem_write+0x1b8>
 800385a:	68fb      	ldr	r3, [r7, #12]
 800385c:	2204      	movs	r2, #4
 800385e:	751a      	strb	r2, [r3, #20]
 8003860:	68fb      	ldr	r3, [r7, #12]
 8003862:	685b      	ldr	r3, [r3, #4]
 8003864:	681b      	ldr	r3, [r3, #0]
 8003866:	f36f 23cb 	bfc	r3, #11, #1
 800386a:	68fa      	ldr	r2, [r7, #12]
 800386c:	6852      	ldr	r2, [r2, #4]
 800386e:	6013      	str	r3, [r2, #0]
 8003870:	8979      	ldrh	r1, [r7, #10]
 8003872:	893a      	ldrh	r2, [r7, #8]
 8003874:	f897 e007 	ldrb.w	lr, [r7, #7]
 8003878:	6bbb      	ldr	r3, [r7, #56]	; 0x38
 800387a:	9300      	str	r3, [sp, #0]
 800387c:	68f8      	ldr	r0, [r7, #12]
 800387e:	4673      	mov	r3, lr
 8003880:	f7ff fa30 	bl	8002ce4 <stm32__i2c__mem_request_write>
 8003884:	4603      	mov	r3, r0
 8003886:	74fb      	strb	r3, [r7, #19]
 8003888:	7cfb      	ldrb	r3, [r7, #19]
 800388a:	2b00      	cmp	r3, #0
 800388c:	f040 8081 	bne.w	8003992 <stm32__i2c__mem_write+0x1ae>
 8003890:	697b      	ldr	r3, [r7, #20]
 8003892:	42ab      	cmp	r3, r5
 8003894:	dc64      	bgt.n	8003960 <stm32__i2c__mem_write+0x17c>
 8003896:	68f8      	ldr	r0, [r7, #12]
 8003898:	2106      	movs	r1, #6
 800389a:	2200      	movs	r2, #0
 800389c:	6bbb      	ldr	r3, [r7, #56]	; 0x38
 800389e:	f7ff f82f 	bl	8002900 <stm32__i2c__wait_flag>
 80038a2:	4603      	mov	r3, r0
 80038a4:	74fb      	strb	r3, [r7, #19]
 80038a6:	7cfb      	ldrb	r3, [r7, #19]
 80038a8:	2b00      	cmp	r3, #0
 80038aa:	d174      	bne.n	8003996 <stm32__i2c__mem_write+0x1b2>
 80038ac:	697b      	ldr	r3, [r7, #20]
 80038ae:	42a3      	cmp	r3, r4
 80038b0:	db02      	blt.n	80038b8 <stm32__i2c__mem_write+0xd4>
 80038b2:	697b      	ldr	r3, [r7, #20]
 80038b4:	42ab      	cmp	r3, r5
 80038b6:	dd04      	ble.n	80038c2 <stm32__i2c__mem_write+0xde>
 80038b8:	483b      	ldr	r0, [pc, #236]	; (80039a8 <stm32__i2c__mem_write+0x1c4>)
 80038ba:	f240 31b9 	movw	r1, #953	; 0x3b9
 80038be:	f004 fb7f 	bl	8007fc0 <__gnat_last_chance_handler>
 80038c2:	68fb      	ldr	r3, [r7, #12]
 80038c4:	685b      	ldr	r3, [r3, #4]
 80038c6:	3310      	adds	r3, #16
 80038c8:	681b      	ldr	r3, [r3, #0]
 80038ca:	6b39      	ldr	r1, [r7, #48]	; 0x30
 80038cc:	697a      	ldr	r2, [r7, #20]
 80038ce:	1b92      	subs	r2, r2, r6
 80038d0:	5c8a      	ldrb	r2, [r1, r2]
 80038d2:	f362 0307 	bfi	r3, r2, #0, #8
 80038d6:	68fa      	ldr	r2, [r7, #12]
 80038d8:	6852      	ldr	r2, [r2, #4]
 80038da:	3210      	adds	r2, #16
 80038dc:	6013      	str	r3, [r2, #0]
 80038de:	697b      	ldr	r3, [r7, #20]
 80038e0:	f06f 4200 	mvn.w	r2, #2147483648	; 0x80000000
 80038e4:	4293      	cmp	r3, r2
 80038e6:	d104      	bne.n	80038f2 <stm32__i2c__mem_write+0x10e>
 80038e8:	482f      	ldr	r0, [pc, #188]	; (80039a8 <stm32__i2c__mem_write+0x1c4>)
 80038ea:	f240 31ba 	movw	r1, #954	; 0x3ba
 80038ee:	f004 fb67 	bl	8007fc0 <__gnat_last_chance_handler>
 80038f2:	697b      	ldr	r3, [r7, #20]
 80038f4:	3301      	adds	r3, #1
 80038f6:	617b      	str	r3, [r7, #20]
 80038f8:	68f8      	ldr	r0, [r7, #12]
 80038fa:	2102      	movs	r1, #2
 80038fc:	f7fe fefa 	bl	80026f4 <stm32__i2c__flag_status>
 8003900:	4603      	mov	r3, r0
 8003902:	2b00      	cmp	r3, #0
 8003904:	d0c4      	beq.n	8003890 <stm32__i2c__mem_write+0xac>
 8003906:	697b      	ldr	r3, [r7, #20]
 8003908:	42ab      	cmp	r3, r5
 800390a:	dcc1      	bgt.n	8003890 <stm32__i2c__mem_write+0xac>
 800390c:	7cfb      	ldrb	r3, [r7, #19]
 800390e:	2b00      	cmp	r3, #0
 8003910:	d1be      	bne.n	8003890 <stm32__i2c__mem_write+0xac>
 8003912:	697b      	ldr	r3, [r7, #20]
 8003914:	42a3      	cmp	r3, r4
 8003916:	db02      	blt.n	800391e <stm32__i2c__mem_write+0x13a>
 8003918:	697b      	ldr	r3, [r7, #20]
 800391a:	42ab      	cmp	r3, r5
 800391c:	dd04      	ble.n	8003928 <stm32__i2c__mem_write+0x144>
 800391e:	4822      	ldr	r0, [pc, #136]	; (80039a8 <stm32__i2c__mem_write+0x1c4>)
 8003920:	f240 31c2 	movw	r1, #962	; 0x3c2
 8003924:	f004 fb4c 	bl	8007fc0 <__gnat_last_chance_handler>
 8003928:	68fb      	ldr	r3, [r7, #12]
 800392a:	685b      	ldr	r3, [r3, #4]
 800392c:	3310      	adds	r3, #16
 800392e:	681b      	ldr	r3, [r3, #0]
 8003930:	6b39      	ldr	r1, [r7, #48]	; 0x30
 8003932:	697a      	ldr	r2, [r7, #20]
 8003934:	1b92      	subs	r2, r2, r6
 8003936:	5c8a      	ldrb	r2, [r1, r2]
 8003938:	f362 0307 	bfi	r3, r2, #0, #8
 800393c:	68fa      	ldr	r2, [r7, #12]
 800393e:	6852      	ldr	r2, [r2, #4]
 8003940:	3210      	adds	r2, #16
 8003942:	6013      	str	r3, [r2, #0]
 8003944:	697b      	ldr	r3, [r7, #20]
 8003946:	f06f 4200 	mvn.w	r2, #2147483648	; 0x80000000
 800394a:	4293      	cmp	r3, r2
 800394c:	d104      	bne.n	8003958 <stm32__i2c__mem_write+0x174>
 800394e:	4816      	ldr	r0, [pc, #88]	; (80039a8 <stm32__i2c__mem_write+0x1c4>)
 8003950:	f240 31c3 	movw	r1, #963	; 0x3c3
 8003954:	f004 fb34 	bl	8007fc0 <__gnat_last_chance_handler>
 8003958:	697b      	ldr	r3, [r7, #20]
 800395a:	3301      	adds	r3, #1
 800395c:	617b      	str	r3, [r7, #20]
 800395e:	e797      	b.n	8003890 <stm32__i2c__mem_write+0xac>
 8003960:	68f8      	ldr	r0, [r7, #12]
 8003962:	2106      	movs	r1, #6
 8003964:	2200      	movs	r2, #0
 8003966:	6bbb      	ldr	r3, [r7, #56]	; 0x38
 8003968:	f7fe ffca 	bl	8002900 <stm32__i2c__wait_flag>
 800396c:	4603      	mov	r3, r0
 800396e:	74fb      	strb	r3, [r7, #19]
 8003970:	7cfb      	ldrb	r3, [r7, #19]
 8003972:	2b00      	cmp	r3, #0
 8003974:	d111      	bne.n	800399a <stm32__i2c__mem_write+0x1b6>
 8003976:	68fb      	ldr	r3, [r7, #12]
 8003978:	685b      	ldr	r3, [r3, #4]
 800397a:	681b      	ldr	r3, [r3, #0]
 800397c:	461a      	mov	r2, r3
 800397e:	4613      	mov	r3, r2
 8003980:	f443 7200 	orr.w	r2, r3, #512	; 0x200
 8003984:	68fb      	ldr	r3, [r7, #12]
 8003986:	685b      	ldr	r3, [r3, #4]
 8003988:	601a      	str	r2, [r3, #0]
 800398a:	68fb      	ldr	r3, [r7, #12]
 800398c:	2201      	movs	r2, #1
 800398e:	751a      	strb	r2, [r3, #20]
 8003990:	e004      	b.n	800399c <stm32__i2c__mem_write+0x1b8>
 8003992:	bf00      	nop
 8003994:	e002      	b.n	800399c <stm32__i2c__mem_write+0x1b8>
 8003996:	bf00      	nop
 8003998:	e000      	b.n	800399c <stm32__i2c__mem_write+0x1b8>
 800399a:	bf00      	nop
 800399c:	7cfb      	ldrb	r3, [r7, #19]
 800399e:	bf00      	nop
 80039a0:	4618      	mov	r0, r3
 80039a2:	371c      	adds	r7, #28
 80039a4:	46bd      	mov	sp, r7
 80039a6:	bdf0      	pop	{r4, r5, r6, r7, pc}
 80039a8:	08009084 	.word	0x08009084

080039ac <stm32__i2c__mem_read>:
 80039ac:	b5b0      	push	{r4, r5, r7, lr}
 80039ae:	b088      	sub	sp, #32
 80039b0:	af02      	add	r7, sp, #8
 80039b2:	60f8      	str	r0, [r7, #12]
 80039b4:	4608      	mov	r0, r1
 80039b6:	4611      	mov	r1, r2
 80039b8:	461a      	mov	r2, r3
 80039ba:	4603      	mov	r3, r0
 80039bc:	817b      	strh	r3, [r7, #10]
 80039be:	460b      	mov	r3, r1
 80039c0:	813b      	strh	r3, [r7, #8]
 80039c2:	4613      	mov	r3, r2
 80039c4:	71fb      	strb	r3, [r7, #7]
 80039c6:	6afb      	ldr	r3, [r7, #44]	; 0x2c
 80039c8:	681b      	ldr	r3, [r3, #0]
 80039ca:	461c      	mov	r4, r3
 80039cc:	6afb      	ldr	r3, [r7, #44]	; 0x2c
 80039ce:	681b      	ldr	r3, [r3, #0]
 80039d0:	2b00      	cmp	r3, #0
 80039d2:	da04      	bge.n	80039de <stm32__i2c__mem_read+0x32>
 80039d4:	48a2      	ldr	r0, [pc, #648]	; (8003c60 <stm32__i2c__mem_read+0x2b4>)
 80039d6:	f44f 7179 	mov.w	r1, #996	; 0x3e4
 80039da:	f004 faf1 	bl	8007fc0 <__gnat_last_chance_handler>
 80039de:	6afb      	ldr	r3, [r7, #44]	; 0x2c
 80039e0:	681b      	ldr	r3, [r3, #0]
 80039e2:	617b      	str	r3, [r7, #20]
 80039e4:	68fb      	ldr	r3, [r7, #12]
 80039e6:	7d1b      	ldrb	r3, [r3, #20]
 80039e8:	2b00      	cmp	r3, #0
 80039ea:	d102      	bne.n	80039f2 <stm32__i2c__mem_read+0x46>
 80039ec:	2301      	movs	r3, #1
 80039ee:	74fb      	strb	r3, [r7, #19]
 80039f0:	e2b1      	b.n	8003f56 <stm32__i2c__mem_read+0x5aa>
 80039f2:	6afb      	ldr	r3, [r7, #44]	; 0x2c
 80039f4:	681a      	ldr	r2, [r3, #0]
 80039f6:	6afb      	ldr	r3, [r7, #44]	; 0x2c
 80039f8:	685b      	ldr	r3, [r3, #4]
 80039fa:	429a      	cmp	r2, r3
 80039fc:	dd02      	ble.n	8003a04 <stm32__i2c__mem_read+0x58>
 80039fe:	2301      	movs	r3, #1
 8003a00:	74fb      	strb	r3, [r7, #19]
 8003a02:	e2a8      	b.n	8003f56 <stm32__i2c__mem_read+0x5aa>
 8003a04:	68f8      	ldr	r0, [r7, #12]
 8003a06:	210f      	movs	r1, #15
 8003a08:	2201      	movs	r2, #1
 8003a0a:	6b3b      	ldr	r3, [r7, #48]	; 0x30
 8003a0c:	f7fe ff78 	bl	8002900 <stm32__i2c__wait_flag>
 8003a10:	4603      	mov	r3, r0
 8003a12:	74fb      	strb	r3, [r7, #19]
 8003a14:	7cfb      	ldrb	r3, [r7, #19]
 8003a16:	2b00      	cmp	r3, #0
 8003a18:	d002      	beq.n	8003a20 <stm32__i2c__mem_read+0x74>
 8003a1a:	2303      	movs	r3, #3
 8003a1c:	74fb      	strb	r3, [r7, #19]
 8003a1e:	e29a      	b.n	8003f56 <stm32__i2c__mem_read+0x5aa>
 8003a20:	68fb      	ldr	r3, [r7, #12]
 8003a22:	7d1b      	ldrb	r3, [r3, #20]
 8003a24:	2b01      	cmp	r3, #1
 8003a26:	d002      	beq.n	8003a2e <stm32__i2c__mem_read+0x82>
 8003a28:	2303      	movs	r3, #3
 8003a2a:	74fb      	strb	r3, [r7, #19]
 8003a2c:	e293      	b.n	8003f56 <stm32__i2c__mem_read+0x5aa>
 8003a2e:	68fb      	ldr	r3, [r7, #12]
 8003a30:	2205      	movs	r2, #5
 8003a32:	751a      	strb	r2, [r3, #20]
 8003a34:	68fb      	ldr	r3, [r7, #12]
 8003a36:	685b      	ldr	r3, [r3, #4]
 8003a38:	681b      	ldr	r3, [r3, #0]
 8003a3a:	f36f 23cb 	bfc	r3, #11, #1
 8003a3e:	68fa      	ldr	r2, [r7, #12]
 8003a40:	6852      	ldr	r2, [r2, #4]
 8003a42:	6013      	str	r3, [r2, #0]
 8003a44:	8979      	ldrh	r1, [r7, #10]
 8003a46:	893a      	ldrh	r2, [r7, #8]
 8003a48:	79fd      	ldrb	r5, [r7, #7]
 8003a4a:	6b3b      	ldr	r3, [r7, #48]	; 0x30
 8003a4c:	9300      	str	r3, [sp, #0]
 8003a4e:	68f8      	ldr	r0, [r7, #12]
 8003a50:	462b      	mov	r3, r5
 8003a52:	f7ff fa0b 	bl	8002e6c <stm32__i2c__mem_request_read>
 8003a56:	4603      	mov	r3, r0
 8003a58:	74fb      	strb	r3, [r7, #19]
 8003a5a:	7cfb      	ldrb	r3, [r7, #19]
 8003a5c:	2b00      	cmp	r3, #0
 8003a5e:	f040 826f 	bne.w	8003f40 <stm32__i2c__mem_read+0x594>
 8003a62:	6afb      	ldr	r3, [r7, #44]	; 0x2c
 8003a64:	681a      	ldr	r2, [r3, #0]
 8003a66:	6afb      	ldr	r3, [r7, #44]	; 0x2c
 8003a68:	685b      	ldr	r3, [r3, #4]
 8003a6a:	429a      	cmp	r2, r3
 8003a6c:	d115      	bne.n	8003a9a <stm32__i2c__mem_read+0xee>
 8003a6e:	68fb      	ldr	r3, [r7, #12]
 8003a70:	685b      	ldr	r3, [r3, #4]
 8003a72:	681b      	ldr	r3, [r3, #0]
 8003a74:	f36f 238a 	bfc	r3, #10, #1
 8003a78:	68fa      	ldr	r2, [r7, #12]
 8003a7a:	6852      	ldr	r2, [r2, #4]
 8003a7c:	6013      	str	r3, [r2, #0]
 8003a7e:	68f8      	ldr	r0, [r7, #12]
 8003a80:	f7fe ff24 	bl	80028cc <stm32__i2c__clear_address_sent_status>
 8003a84:	68fb      	ldr	r3, [r7, #12]
 8003a86:	685b      	ldr	r3, [r3, #4]
 8003a88:	681b      	ldr	r3, [r3, #0]
 8003a8a:	461a      	mov	r2, r3
 8003a8c:	4613      	mov	r3, r2
 8003a8e:	f443 7200 	orr.w	r2, r3, #512	; 0x200
 8003a92:	68fb      	ldr	r3, [r7, #12]
 8003a94:	685b      	ldr	r3, [r3, #4]
 8003a96:	601a      	str	r2, [r3, #0]
 8003a98:	e045      	b.n	8003b26 <stm32__i2c__mem_read+0x17a>
 8003a9a:	6afb      	ldr	r3, [r7, #44]	; 0x2c
 8003a9c:	681b      	ldr	r3, [r3, #0]
 8003a9e:	461a      	mov	r2, r3
 8003aa0:	ea4f 73e2 	mov.w	r3, r2, asr #31
 8003aa4:	f04f 30ff 	mov.w	r0, #4294967295
 8003aa8:	f06f 4100 	mvn.w	r1, #2147483648	; 0x80000000
 8003aac:	428b      	cmp	r3, r1
 8003aae:	bf08      	it	eq
 8003ab0:	4282      	cmpeq	r2, r0
 8003ab2:	d104      	bne.n	8003abe <stm32__i2c__mem_read+0x112>
 8003ab4:	486a      	ldr	r0, [pc, #424]	; (8003c60 <stm32__i2c__mem_read+0x2b4>)
 8003ab6:	f240 410c 	movw	r1, #1036	; 0x40c
 8003aba:	f004 fa81 	bl	8007fc0 <__gnat_last_chance_handler>
 8003abe:	6afb      	ldr	r3, [r7, #44]	; 0x2c
 8003ac0:	681b      	ldr	r3, [r3, #0]
 8003ac2:	461a      	mov	r2, r3
 8003ac4:	ea4f 73e2 	mov.w	r3, r2, asr #31
 8003ac8:	1c50      	adds	r0, r2, #1
 8003aca:	f143 0100 	adc.w	r1, r3, #0
 8003ace:	6afb      	ldr	r3, [r7, #44]	; 0x2c
 8003ad0:	685b      	ldr	r3, [r3, #4]
 8003ad2:	461a      	mov	r2, r3
 8003ad4:	ea4f 73e2 	mov.w	r3, r2, asr #31
 8003ad8:	4299      	cmp	r1, r3
 8003ada:	bf08      	it	eq
 8003adc:	4290      	cmpeq	r0, r2
 8003ade:	d115      	bne.n	8003b0c <stm32__i2c__mem_read+0x160>
 8003ae0:	68fb      	ldr	r3, [r7, #12]
 8003ae2:	685b      	ldr	r3, [r3, #4]
 8003ae4:	681b      	ldr	r3, [r3, #0]
 8003ae6:	f36f 238a 	bfc	r3, #10, #1
 8003aea:	68fa      	ldr	r2, [r7, #12]
 8003aec:	6852      	ldr	r2, [r2, #4]
 8003aee:	6013      	str	r3, [r2, #0]
 8003af0:	68fb      	ldr	r3, [r7, #12]
 8003af2:	685b      	ldr	r3, [r3, #4]
 8003af4:	681b      	ldr	r3, [r3, #0]
 8003af6:	461a      	mov	r2, r3
 8003af8:	4613      	mov	r3, r2
 8003afa:	f443 6200 	orr.w	r2, r3, #2048	; 0x800
 8003afe:	68fb      	ldr	r3, [r7, #12]
 8003b00:	685b      	ldr	r3, [r3, #4]
 8003b02:	601a      	str	r2, [r3, #0]
 8003b04:	68f8      	ldr	r0, [r7, #12]
 8003b06:	f7fe fee1 	bl	80028cc <stm32__i2c__clear_address_sent_status>
 8003b0a:	e00c      	b.n	8003b26 <stm32__i2c__mem_read+0x17a>
 8003b0c:	68fb      	ldr	r3, [r7, #12]
 8003b0e:	685b      	ldr	r3, [r3, #4]
 8003b10:	681b      	ldr	r3, [r3, #0]
 8003b12:	461a      	mov	r2, r3
 8003b14:	4613      	mov	r3, r2
 8003b16:	f443 6280 	orr.w	r2, r3, #1024	; 0x400
 8003b1a:	68fb      	ldr	r3, [r7, #12]
 8003b1c:	685b      	ldr	r3, [r3, #4]
 8003b1e:	601a      	str	r2, [r3, #0]
 8003b20:	68f8      	ldr	r0, [r7, #12]
 8003b22:	f7fe fed3 	bl	80028cc <stm32__i2c__clear_address_sent_status>
 8003b26:	697a      	ldr	r2, [r7, #20]
 8003b28:	6afb      	ldr	r3, [r7, #44]	; 0x2c
 8003b2a:	685b      	ldr	r3, [r3, #4]
 8003b2c:	429a      	cmp	r2, r3
 8003b2e:	f300 8203 	bgt.w	8003f38 <stm32__i2c__mem_read+0x58c>
 8003b32:	697a      	ldr	r2, [r7, #20]
 8003b34:	6afb      	ldr	r3, [r7, #44]	; 0x2c
 8003b36:	685b      	ldr	r3, [r3, #4]
 8003b38:	429a      	cmp	r2, r3
 8003b3a:	d139      	bne.n	8003bb0 <stm32__i2c__mem_read+0x204>
 8003b3c:	68f8      	ldr	r0, [r7, #12]
 8003b3e:	2105      	movs	r1, #5
 8003b40:	2200      	movs	r2, #0
 8003b42:	6b3b      	ldr	r3, [r7, #48]	; 0x30
 8003b44:	f7fe fedc 	bl	8002900 <stm32__i2c__wait_flag>
 8003b48:	4603      	mov	r3, r0
 8003b4a:	74fb      	strb	r3, [r7, #19]
 8003b4c:	7cfb      	ldrb	r3, [r7, #19]
 8003b4e:	2b00      	cmp	r3, #0
 8003b50:	f040 81f8 	bne.w	8003f44 <stm32__i2c__mem_read+0x598>
 8003b54:	697a      	ldr	r2, [r7, #20]
 8003b56:	6afb      	ldr	r3, [r7, #44]	; 0x2c
 8003b58:	681b      	ldr	r3, [r3, #0]
 8003b5a:	429a      	cmp	r2, r3
 8003b5c:	db04      	blt.n	8003b68 <stm32__i2c__mem_read+0x1bc>
 8003b5e:	697a      	ldr	r2, [r7, #20]
 8003b60:	6afb      	ldr	r3, [r7, #44]	; 0x2c
 8003b62:	685b      	ldr	r3, [r3, #4]
 8003b64:	429a      	cmp	r2, r3
 8003b66:	dd04      	ble.n	8003b72 <stm32__i2c__mem_read+0x1c6>
 8003b68:	483d      	ldr	r0, [pc, #244]	; (8003c60 <stm32__i2c__mem_read+0x2b4>)
 8003b6a:	f44f 6184 	mov.w	r1, #1056	; 0x420
 8003b6e:	f004 fa27 	bl	8007fc0 <__gnat_last_chance_handler>
 8003b72:	697b      	ldr	r3, [r7, #20]
 8003b74:	2b00      	cmp	r3, #0
 8003b76:	da04      	bge.n	8003b82 <stm32__i2c__mem_read+0x1d6>
 8003b78:	4839      	ldr	r0, [pc, #228]	; (8003c60 <stm32__i2c__mem_read+0x2b4>)
 8003b7a:	f44f 6184 	mov.w	r1, #1056	; 0x420
 8003b7e:	f004 fa1f 	bl	8007fc0 <__gnat_last_chance_handler>
 8003b82:	6aba      	ldr	r2, [r7, #40]	; 0x28
 8003b84:	68fb      	ldr	r3, [r7, #12]
 8003b86:	685b      	ldr	r3, [r3, #4]
 8003b88:	3310      	adds	r3, #16
 8003b8a:	681b      	ldr	r3, [r3, #0]
 8003b8c:	b2d9      	uxtb	r1, r3
 8003b8e:	697b      	ldr	r3, [r7, #20]
 8003b90:	1b1b      	subs	r3, r3, r4
 8003b92:	54d1      	strb	r1, [r2, r3]
 8003b94:	697b      	ldr	r3, [r7, #20]
 8003b96:	f06f 4200 	mvn.w	r2, #2147483648	; 0x80000000
 8003b9a:	4293      	cmp	r3, r2
 8003b9c:	d104      	bne.n	8003ba8 <stm32__i2c__mem_read+0x1fc>
 8003b9e:	4830      	ldr	r0, [pc, #192]	; (8003c60 <stm32__i2c__mem_read+0x2b4>)
 8003ba0:	f240 4121 	movw	r1, #1057	; 0x421
 8003ba4:	f004 fa0c 	bl	8007fc0 <__gnat_last_chance_handler>
 8003ba8:	697b      	ldr	r3, [r7, #20]
 8003baa:	3301      	adds	r3, #1
 8003bac:	617b      	str	r3, [r7, #20]
 8003bae:	e7ba      	b.n	8003b26 <stm32__i2c__mem_read+0x17a>
 8003bb0:	697b      	ldr	r3, [r7, #20]
 8003bb2:	f06f 4200 	mvn.w	r2, #2147483648	; 0x80000000
 8003bb6:	4293      	cmp	r3, r2
 8003bb8:	d104      	bne.n	8003bc4 <stm32__i2c__mem_read+0x218>
 8003bba:	4829      	ldr	r0, [pc, #164]	; (8003c60 <stm32__i2c__mem_read+0x2b4>)
 8003bbc:	f240 4123 	movw	r1, #1059	; 0x423
 8003bc0:	f004 f9fe 	bl	8007fc0 <__gnat_last_chance_handler>
 8003bc4:	697b      	ldr	r3, [r7, #20]
 8003bc6:	1c5a      	adds	r2, r3, #1
 8003bc8:	6afb      	ldr	r3, [r7, #44]	; 0x2c
 8003bca:	685b      	ldr	r3, [r3, #4]
 8003bcc:	429a      	cmp	r2, r3
 8003bce:	d17a      	bne.n	8003cc6 <stm32__i2c__mem_read+0x31a>
 8003bd0:	68fb      	ldr	r3, [r7, #12]
 8003bd2:	685b      	ldr	r3, [r3, #4]
 8003bd4:	681b      	ldr	r3, [r3, #0]
 8003bd6:	f36f 238a 	bfc	r3, #10, #1
 8003bda:	68fa      	ldr	r2, [r7, #12]
 8003bdc:	6852      	ldr	r2, [r2, #4]
 8003bde:	6013      	str	r3, [r2, #0]
 8003be0:	68f8      	ldr	r0, [r7, #12]
 8003be2:	2102      	movs	r1, #2
 8003be4:	2200      	movs	r2, #0
 8003be6:	6b3b      	ldr	r3, [r7, #48]	; 0x30
 8003be8:	f7fe fe8a 	bl	8002900 <stm32__i2c__wait_flag>
 8003bec:	4603      	mov	r3, r0
 8003bee:	74fb      	strb	r3, [r7, #19]
 8003bf0:	7cfb      	ldrb	r3, [r7, #19]
 8003bf2:	2b00      	cmp	r3, #0
 8003bf4:	f040 81a8 	bne.w	8003f48 <stm32__i2c__mem_read+0x59c>
 8003bf8:	68fb      	ldr	r3, [r7, #12]
 8003bfa:	685b      	ldr	r3, [r3, #4]
 8003bfc:	681b      	ldr	r3, [r3, #0]
 8003bfe:	461a      	mov	r2, r3
 8003c00:	4613      	mov	r3, r2
 8003c02:	f443 7200 	orr.w	r2, r3, #512	; 0x200
 8003c06:	68fb      	ldr	r3, [r7, #12]
 8003c08:	685b      	ldr	r3, [r3, #4]
 8003c0a:	601a      	str	r2, [r3, #0]
 8003c0c:	697a      	ldr	r2, [r7, #20]
 8003c0e:	6afb      	ldr	r3, [r7, #44]	; 0x2c
 8003c10:	681b      	ldr	r3, [r3, #0]
 8003c12:	429a      	cmp	r2, r3
 8003c14:	db04      	blt.n	8003c20 <stm32__i2c__mem_read+0x274>
 8003c16:	697a      	ldr	r2, [r7, #20]
 8003c18:	6afb      	ldr	r3, [r7, #44]	; 0x2c
 8003c1a:	685b      	ldr	r3, [r3, #4]
 8003c1c:	429a      	cmp	r2, r3
 8003c1e:	dd04      	ble.n	8003c2a <stm32__i2c__mem_read+0x27e>
 8003c20:	480f      	ldr	r0, [pc, #60]	; (8003c60 <stm32__i2c__mem_read+0x2b4>)
 8003c22:	f240 412f 	movw	r1, #1071	; 0x42f
 8003c26:	f004 f9cb 	bl	8007fc0 <__gnat_last_chance_handler>
 8003c2a:	697b      	ldr	r3, [r7, #20]
 8003c2c:	2b00      	cmp	r3, #0
 8003c2e:	da04      	bge.n	8003c3a <stm32__i2c__mem_read+0x28e>
 8003c30:	480b      	ldr	r0, [pc, #44]	; (8003c60 <stm32__i2c__mem_read+0x2b4>)
 8003c32:	f240 412f 	movw	r1, #1071	; 0x42f
 8003c36:	f004 f9c3 	bl	8007fc0 <__gnat_last_chance_handler>
 8003c3a:	6aba      	ldr	r2, [r7, #40]	; 0x28
 8003c3c:	68fb      	ldr	r3, [r7, #12]
 8003c3e:	685b      	ldr	r3, [r3, #4]
 8003c40:	3310      	adds	r3, #16
 8003c42:	681b      	ldr	r3, [r3, #0]
 8003c44:	b2d9      	uxtb	r1, r3
 8003c46:	697b      	ldr	r3, [r7, #20]
 8003c48:	1b1b      	subs	r3, r3, r4
 8003c4a:	54d1      	strb	r1, [r2, r3]
 8003c4c:	697b      	ldr	r3, [r7, #20]
 8003c4e:	f06f 4200 	mvn.w	r2, #2147483648	; 0x80000000
 8003c52:	4293      	cmp	r3, r2
 8003c54:	d106      	bne.n	8003c64 <stm32__i2c__mem_read+0x2b8>
 8003c56:	4802      	ldr	r0, [pc, #8]	; (8003c60 <stm32__i2c__mem_read+0x2b4>)
 8003c58:	f44f 6186 	mov.w	r1, #1072	; 0x430
 8003c5c:	f004 f9b0 	bl	8007fc0 <__gnat_last_chance_handler>
 8003c60:	08009084 	.word	0x08009084
 8003c64:	697b      	ldr	r3, [r7, #20]
 8003c66:	3301      	adds	r3, #1
 8003c68:	617b      	str	r3, [r7, #20]
 8003c6a:	697a      	ldr	r2, [r7, #20]
 8003c6c:	6afb      	ldr	r3, [r7, #44]	; 0x2c
 8003c6e:	681b      	ldr	r3, [r3, #0]
 8003c70:	429a      	cmp	r2, r3
 8003c72:	db04      	blt.n	8003c7e <stm32__i2c__mem_read+0x2d2>
 8003c74:	697a      	ldr	r2, [r7, #20]
 8003c76:	6afb      	ldr	r3, [r7, #44]	; 0x2c
 8003c78:	685b      	ldr	r3, [r3, #4]
 8003c7a:	429a      	cmp	r2, r3
 8003c7c:	dd04      	ble.n	8003c88 <stm32__i2c__mem_read+0x2dc>
 8003c7e:	48aa      	ldr	r0, [pc, #680]	; (8003f28 <stm32__i2c__mem_read+0x57c>)
 8003c80:	f240 4131 	movw	r1, #1073	; 0x431
 8003c84:	f004 f99c 	bl	8007fc0 <__gnat_last_chance_handler>
 8003c88:	697b      	ldr	r3, [r7, #20]
 8003c8a:	2b00      	cmp	r3, #0
 8003c8c:	da04      	bge.n	8003c98 <stm32__i2c__mem_read+0x2ec>
 8003c8e:	48a6      	ldr	r0, [pc, #664]	; (8003f28 <stm32__i2c__mem_read+0x57c>)
 8003c90:	f240 4131 	movw	r1, #1073	; 0x431
 8003c94:	f004 f994 	bl	8007fc0 <__gnat_last_chance_handler>
 8003c98:	6aba      	ldr	r2, [r7, #40]	; 0x28
 8003c9a:	68fb      	ldr	r3, [r7, #12]
 8003c9c:	685b      	ldr	r3, [r3, #4]
 8003c9e:	3310      	adds	r3, #16
 8003ca0:	681b      	ldr	r3, [r3, #0]
 8003ca2:	b2d9      	uxtb	r1, r3
 8003ca4:	697b      	ldr	r3, [r7, #20]
 8003ca6:	1b1b      	subs	r3, r3, r4
 8003ca8:	54d1      	strb	r1, [r2, r3]
 8003caa:	697b      	ldr	r3, [r7, #20]
 8003cac:	f06f 4200 	mvn.w	r2, #2147483648	; 0x80000000
 8003cb0:	4293      	cmp	r3, r2
 8003cb2:	d104      	bne.n	8003cbe <stm32__i2c__mem_read+0x312>
 8003cb4:	489c      	ldr	r0, [pc, #624]	; (8003f28 <stm32__i2c__mem_read+0x57c>)
 8003cb6:	f240 4132 	movw	r1, #1074	; 0x432
 8003cba:	f004 f981 	bl	8007fc0 <__gnat_last_chance_handler>
 8003cbe:	697b      	ldr	r3, [r7, #20]
 8003cc0:	3301      	adds	r3, #1
 8003cc2:	617b      	str	r3, [r7, #20]
 8003cc4:	e72f      	b.n	8003b26 <stm32__i2c__mem_read+0x17a>
 8003cc6:	697b      	ldr	r3, [r7, #20]
 8003cc8:	4a98      	ldr	r2, [pc, #608]	; (8003f2c <stm32__i2c__mem_read+0x580>)
 8003cca:	4293      	cmp	r3, r2
 8003ccc:	dd04      	ble.n	8003cd8 <stm32__i2c__mem_read+0x32c>
 8003cce:	4896      	ldr	r0, [pc, #600]	; (8003f28 <stm32__i2c__mem_read+0x57c>)
 8003cd0:	f240 4134 	movw	r1, #1076	; 0x434
 8003cd4:	f004 f974 	bl	8007fc0 <__gnat_last_chance_handler>
 8003cd8:	697b      	ldr	r3, [r7, #20]
 8003cda:	1c9a      	adds	r2, r3, #2
 8003cdc:	6afb      	ldr	r3, [r7, #44]	; 0x2c
 8003cde:	685b      	ldr	r3, [r3, #4]
 8003ce0:	429a      	cmp	r2, r3
 8003ce2:	f040 80b2 	bne.w	8003e4a <stm32__i2c__mem_read+0x49e>
 8003ce6:	68f8      	ldr	r0, [r7, #12]
 8003ce8:	2102      	movs	r1, #2
 8003cea:	2200      	movs	r2, #0
 8003cec:	6b3b      	ldr	r3, [r7, #48]	; 0x30
 8003cee:	f7fe fe07 	bl	8002900 <stm32__i2c__wait_flag>
 8003cf2:	4603      	mov	r3, r0
 8003cf4:	74fb      	strb	r3, [r7, #19]
 8003cf6:	7cfb      	ldrb	r3, [r7, #19]
 8003cf8:	2b00      	cmp	r3, #0
 8003cfa:	f040 8127 	bne.w	8003f4c <stm32__i2c__mem_read+0x5a0>
 8003cfe:	68fb      	ldr	r3, [r7, #12]
 8003d00:	685b      	ldr	r3, [r3, #4]
 8003d02:	681b      	ldr	r3, [r3, #0]
 8003d04:	f36f 238a 	bfc	r3, #10, #1
 8003d08:	68fa      	ldr	r2, [r7, #12]
 8003d0a:	6852      	ldr	r2, [r2, #4]
 8003d0c:	6013      	str	r3, [r2, #0]
 8003d0e:	697a      	ldr	r2, [r7, #20]
 8003d10:	6afb      	ldr	r3, [r7, #44]	; 0x2c
 8003d12:	681b      	ldr	r3, [r3, #0]
 8003d14:	429a      	cmp	r2, r3
 8003d16:	db04      	blt.n	8003d22 <stm32__i2c__mem_read+0x376>
 8003d18:	697a      	ldr	r2, [r7, #20]
 8003d1a:	6afb      	ldr	r3, [r7, #44]	; 0x2c
 8003d1c:	685b      	ldr	r3, [r3, #4]
 8003d1e:	429a      	cmp	r2, r3
 8003d20:	dd04      	ble.n	8003d2c <stm32__i2c__mem_read+0x380>
 8003d22:	4881      	ldr	r0, [pc, #516]	; (8003f28 <stm32__i2c__mem_read+0x57c>)
 8003d24:	f240 413e 	movw	r1, #1086	; 0x43e
 8003d28:	f004 f94a 	bl	8007fc0 <__gnat_last_chance_handler>
 8003d2c:	697b      	ldr	r3, [r7, #20]
 8003d2e:	2b00      	cmp	r3, #0
 8003d30:	da04      	bge.n	8003d3c <stm32__i2c__mem_read+0x390>
 8003d32:	487d      	ldr	r0, [pc, #500]	; (8003f28 <stm32__i2c__mem_read+0x57c>)
 8003d34:	f240 413e 	movw	r1, #1086	; 0x43e
 8003d38:	f004 f942 	bl	8007fc0 <__gnat_last_chance_handler>
 8003d3c:	6aba      	ldr	r2, [r7, #40]	; 0x28
 8003d3e:	68fb      	ldr	r3, [r7, #12]
 8003d40:	685b      	ldr	r3, [r3, #4]
 8003d42:	3310      	adds	r3, #16
 8003d44:	681b      	ldr	r3, [r3, #0]
 8003d46:	b2d9      	uxtb	r1, r3
 8003d48:	697b      	ldr	r3, [r7, #20]
 8003d4a:	1b1b      	subs	r3, r3, r4
 8003d4c:	54d1      	strb	r1, [r2, r3]
 8003d4e:	697b      	ldr	r3, [r7, #20]
 8003d50:	f06f 4200 	mvn.w	r2, #2147483648	; 0x80000000
 8003d54:	4293      	cmp	r3, r2
 8003d56:	d104      	bne.n	8003d62 <stm32__i2c__mem_read+0x3b6>
 8003d58:	4873      	ldr	r0, [pc, #460]	; (8003f28 <stm32__i2c__mem_read+0x57c>)
 8003d5a:	f240 413f 	movw	r1, #1087	; 0x43f
 8003d5e:	f004 f92f 	bl	8007fc0 <__gnat_last_chance_handler>
 8003d62:	697b      	ldr	r3, [r7, #20]
 8003d64:	3301      	adds	r3, #1
 8003d66:	617b      	str	r3, [r7, #20]
 8003d68:	68f8      	ldr	r0, [r7, #12]
 8003d6a:	2102      	movs	r1, #2
 8003d6c:	2200      	movs	r2, #0
 8003d6e:	6b3b      	ldr	r3, [r7, #48]	; 0x30
 8003d70:	f7fe fdc6 	bl	8002900 <stm32__i2c__wait_flag>
 8003d74:	4603      	mov	r3, r0
 8003d76:	74fb      	strb	r3, [r7, #19]
 8003d78:	7cfb      	ldrb	r3, [r7, #19]
 8003d7a:	2b00      	cmp	r3, #0
 8003d7c:	f040 80e8 	bne.w	8003f50 <stm32__i2c__mem_read+0x5a4>
 8003d80:	68fb      	ldr	r3, [r7, #12]
 8003d82:	685b      	ldr	r3, [r3, #4]
 8003d84:	681b      	ldr	r3, [r3, #0]
 8003d86:	461a      	mov	r2, r3
 8003d88:	4613      	mov	r3, r2
 8003d8a:	f443 7200 	orr.w	r2, r3, #512	; 0x200
 8003d8e:	68fb      	ldr	r3, [r7, #12]
 8003d90:	685b      	ldr	r3, [r3, #4]
 8003d92:	601a      	str	r2, [r3, #0]
 8003d94:	697a      	ldr	r2, [r7, #20]
 8003d96:	6afb      	ldr	r3, [r7, #44]	; 0x2c
 8003d98:	681b      	ldr	r3, [r3, #0]
 8003d9a:	429a      	cmp	r2, r3
 8003d9c:	db04      	blt.n	8003da8 <stm32__i2c__mem_read+0x3fc>
 8003d9e:	697a      	ldr	r2, [r7, #20]
 8003da0:	6afb      	ldr	r3, [r7, #44]	; 0x2c
 8003da2:	685b      	ldr	r3, [r3, #4]
 8003da4:	429a      	cmp	r2, r3
 8003da6:	dd04      	ble.n	8003db2 <stm32__i2c__mem_read+0x406>
 8003da8:	485f      	ldr	r0, [pc, #380]	; (8003f28 <stm32__i2c__mem_read+0x57c>)
 8003daa:	f240 4149 	movw	r1, #1097	; 0x449
 8003dae:	f004 f907 	bl	8007fc0 <__gnat_last_chance_handler>
 8003db2:	697b      	ldr	r3, [r7, #20]
 8003db4:	2b00      	cmp	r3, #0
 8003db6:	da04      	bge.n	8003dc2 <stm32__i2c__mem_read+0x416>
 8003db8:	485b      	ldr	r0, [pc, #364]	; (8003f28 <stm32__i2c__mem_read+0x57c>)
 8003dba:	f240 4149 	movw	r1, #1097	; 0x449
 8003dbe:	f004 f8ff 	bl	8007fc0 <__gnat_last_chance_handler>
 8003dc2:	6aba      	ldr	r2, [r7, #40]	; 0x28
 8003dc4:	68fb      	ldr	r3, [r7, #12]
 8003dc6:	685b      	ldr	r3, [r3, #4]
 8003dc8:	3310      	adds	r3, #16
 8003dca:	681b      	ldr	r3, [r3, #0]
 8003dcc:	b2d9      	uxtb	r1, r3
 8003dce:	697b      	ldr	r3, [r7, #20]
 8003dd0:	1b1b      	subs	r3, r3, r4
 8003dd2:	54d1      	strb	r1, [r2, r3]
 8003dd4:	697b      	ldr	r3, [r7, #20]
 8003dd6:	f06f 4200 	mvn.w	r2, #2147483648	; 0x80000000
 8003dda:	4293      	cmp	r3, r2
 8003ddc:	d104      	bne.n	8003de8 <stm32__i2c__mem_read+0x43c>
 8003dde:	4852      	ldr	r0, [pc, #328]	; (8003f28 <stm32__i2c__mem_read+0x57c>)
 8003de0:	f240 414a 	movw	r1, #1098	; 0x44a
 8003de4:	f004 f8ec 	bl	8007fc0 <__gnat_last_chance_handler>
 8003de8:	697b      	ldr	r3, [r7, #20]
 8003dea:	3301      	adds	r3, #1
 8003dec:	617b      	str	r3, [r7, #20]
 8003dee:	697a      	ldr	r2, [r7, #20]
 8003df0:	6afb      	ldr	r3, [r7, #44]	; 0x2c
 8003df2:	681b      	ldr	r3, [r3, #0]
 8003df4:	429a      	cmp	r2, r3
 8003df6:	db04      	blt.n	8003e02 <stm32__i2c__mem_read+0x456>
 8003df8:	697a      	ldr	r2, [r7, #20]
 8003dfa:	6afb      	ldr	r3, [r7, #44]	; 0x2c
 8003dfc:	685b      	ldr	r3, [r3, #4]
 8003dfe:	429a      	cmp	r2, r3
 8003e00:	dd04      	ble.n	8003e0c <stm32__i2c__mem_read+0x460>
 8003e02:	4849      	ldr	r0, [pc, #292]	; (8003f28 <stm32__i2c__mem_read+0x57c>)
 8003e04:	f240 414b 	movw	r1, #1099	; 0x44b
 8003e08:	f004 f8da 	bl	8007fc0 <__gnat_last_chance_handler>
 8003e0c:	697b      	ldr	r3, [r7, #20]
 8003e0e:	2b00      	cmp	r3, #0
 8003e10:	da04      	bge.n	8003e1c <stm32__i2c__mem_read+0x470>
 8003e12:	4845      	ldr	r0, [pc, #276]	; (8003f28 <stm32__i2c__mem_read+0x57c>)
 8003e14:	f240 414b 	movw	r1, #1099	; 0x44b
 8003e18:	f004 f8d2 	bl	8007fc0 <__gnat_last_chance_handler>
 8003e1c:	6aba      	ldr	r2, [r7, #40]	; 0x28
 8003e1e:	68fb      	ldr	r3, [r7, #12]
 8003e20:	685b      	ldr	r3, [r3, #4]
 8003e22:	3310      	adds	r3, #16
 8003e24:	681b      	ldr	r3, [r3, #0]
 8003e26:	b2d9      	uxtb	r1, r3
 8003e28:	697b      	ldr	r3, [r7, #20]
 8003e2a:	1b1b      	subs	r3, r3, r4
 8003e2c:	54d1      	strb	r1, [r2, r3]
 8003e2e:	697b      	ldr	r3, [r7, #20]
 8003e30:	f06f 4200 	mvn.w	r2, #2147483648	; 0x80000000
 8003e34:	4293      	cmp	r3, r2
 8003e36:	d104      	bne.n	8003e42 <stm32__i2c__mem_read+0x496>
 8003e38:	483b      	ldr	r0, [pc, #236]	; (8003f28 <stm32__i2c__mem_read+0x57c>)
 8003e3a:	f240 414c 	movw	r1, #1100	; 0x44c
 8003e3e:	f004 f8bf 	bl	8007fc0 <__gnat_last_chance_handler>
 8003e42:	697b      	ldr	r3, [r7, #20]
 8003e44:	3301      	adds	r3, #1
 8003e46:	617b      	str	r3, [r7, #20]
 8003e48:	e66d      	b.n	8003b26 <stm32__i2c__mem_read+0x17a>
 8003e4a:	68f8      	ldr	r0, [r7, #12]
 8003e4c:	2105      	movs	r1, #5
 8003e4e:	2200      	movs	r2, #0
 8003e50:	6b3b      	ldr	r3, [r7, #48]	; 0x30
 8003e52:	f7fe fd55 	bl	8002900 <stm32__i2c__wait_flag>
 8003e56:	4603      	mov	r3, r0
 8003e58:	74fb      	strb	r3, [r7, #19]
 8003e5a:	7cfb      	ldrb	r3, [r7, #19]
 8003e5c:	2b00      	cmp	r3, #0
 8003e5e:	d179      	bne.n	8003f54 <stm32__i2c__mem_read+0x5a8>
 8003e60:	697a      	ldr	r2, [r7, #20]
 8003e62:	6afb      	ldr	r3, [r7, #44]	; 0x2c
 8003e64:	681b      	ldr	r3, [r3, #0]
 8003e66:	429a      	cmp	r2, r3
 8003e68:	db04      	blt.n	8003e74 <stm32__i2c__mem_read+0x4c8>
 8003e6a:	697a      	ldr	r2, [r7, #20]
 8003e6c:	6afb      	ldr	r3, [r7, #44]	; 0x2c
 8003e6e:	685b      	ldr	r3, [r3, #4]
 8003e70:	429a      	cmp	r2, r3
 8003e72:	dd04      	ble.n	8003e7e <stm32__i2c__mem_read+0x4d2>
 8003e74:	482c      	ldr	r0, [pc, #176]	; (8003f28 <stm32__i2c__mem_read+0x57c>)
 8003e76:	f240 4156 	movw	r1, #1110	; 0x456
 8003e7a:	f004 f8a1 	bl	8007fc0 <__gnat_last_chance_handler>
 8003e7e:	697b      	ldr	r3, [r7, #20]
 8003e80:	2b00      	cmp	r3, #0
 8003e82:	da04      	bge.n	8003e8e <stm32__i2c__mem_read+0x4e2>
 8003e84:	4828      	ldr	r0, [pc, #160]	; (8003f28 <stm32__i2c__mem_read+0x57c>)
 8003e86:	f240 4156 	movw	r1, #1110	; 0x456
 8003e8a:	f004 f899 	bl	8007fc0 <__gnat_last_chance_handler>
 8003e8e:	6aba      	ldr	r2, [r7, #40]	; 0x28
 8003e90:	68fb      	ldr	r3, [r7, #12]
 8003e92:	685b      	ldr	r3, [r3, #4]
 8003e94:	3310      	adds	r3, #16
 8003e96:	681b      	ldr	r3, [r3, #0]
 8003e98:	b2d9      	uxtb	r1, r3
 8003e9a:	697b      	ldr	r3, [r7, #20]
 8003e9c:	1b1b      	subs	r3, r3, r4
 8003e9e:	54d1      	strb	r1, [r2, r3]
 8003ea0:	697b      	ldr	r3, [r7, #20]
 8003ea2:	f06f 4200 	mvn.w	r2, #2147483648	; 0x80000000
 8003ea6:	4293      	cmp	r3, r2
 8003ea8:	d104      	bne.n	8003eb4 <stm32__i2c__mem_read+0x508>
 8003eaa:	481f      	ldr	r0, [pc, #124]	; (8003f28 <stm32__i2c__mem_read+0x57c>)
 8003eac:	f240 4157 	movw	r1, #1111	; 0x457
 8003eb0:	f004 f886 	bl	8007fc0 <__gnat_last_chance_handler>
 8003eb4:	697b      	ldr	r3, [r7, #20]
 8003eb6:	3301      	adds	r3, #1
 8003eb8:	617b      	str	r3, [r7, #20]
 8003eba:	68f8      	ldr	r0, [r7, #12]
 8003ebc:	2102      	movs	r1, #2
 8003ebe:	2200      	movs	r2, #0
 8003ec0:	6b3b      	ldr	r3, [r7, #48]	; 0x30
 8003ec2:	f7fe fd1d 	bl	8002900 <stm32__i2c__wait_flag>
 8003ec6:	4603      	mov	r3, r0
 8003ec8:	74fb      	strb	r3, [r7, #19]
 8003eca:	7cfb      	ldrb	r3, [r7, #19]
 8003ecc:	2b00      	cmp	r3, #0
 8003ece:	f47f ae2a 	bne.w	8003b26 <stm32__i2c__mem_read+0x17a>
 8003ed2:	697a      	ldr	r2, [r7, #20]
 8003ed4:	6afb      	ldr	r3, [r7, #44]	; 0x2c
 8003ed6:	681b      	ldr	r3, [r3, #0]
 8003ed8:	429a      	cmp	r2, r3
 8003eda:	db04      	blt.n	8003ee6 <stm32__i2c__mem_read+0x53a>
 8003edc:	697a      	ldr	r2, [r7, #20]
 8003ede:	6afb      	ldr	r3, [r7, #44]	; 0x2c
 8003ee0:	685b      	ldr	r3, [r3, #4]
 8003ee2:	429a      	cmp	r2, r3
 8003ee4:	dd04      	ble.n	8003ef0 <stm32__i2c__mem_read+0x544>
 8003ee6:	4810      	ldr	r0, [pc, #64]	; (8003f28 <stm32__i2c__mem_read+0x57c>)
 8003ee8:	f240 415c 	movw	r1, #1116	; 0x45c
 8003eec:	f004 f868 	bl	8007fc0 <__gnat_last_chance_handler>
 8003ef0:	697b      	ldr	r3, [r7, #20]
 8003ef2:	2b00      	cmp	r3, #0
 8003ef4:	da04      	bge.n	8003f00 <stm32__i2c__mem_read+0x554>
 8003ef6:	480c      	ldr	r0, [pc, #48]	; (8003f28 <stm32__i2c__mem_read+0x57c>)
 8003ef8:	f240 415c 	movw	r1, #1116	; 0x45c
 8003efc:	f004 f860 	bl	8007fc0 <__gnat_last_chance_handler>
 8003f00:	6aba      	ldr	r2, [r7, #40]	; 0x28
 8003f02:	68fb      	ldr	r3, [r7, #12]
 8003f04:	685b      	ldr	r3, [r3, #4]
 8003f06:	3310      	adds	r3, #16
 8003f08:	681b      	ldr	r3, [r3, #0]
 8003f0a:	b2d9      	uxtb	r1, r3
 8003f0c:	697b      	ldr	r3, [r7, #20]
 8003f0e:	1b1b      	subs	r3, r3, r4
 8003f10:	54d1      	strb	r1, [r2, r3]
 8003f12:	697b      	ldr	r3, [r7, #20]
 8003f14:	f06f 4200 	mvn.w	r2, #2147483648	; 0x80000000
 8003f18:	4293      	cmp	r3, r2
 8003f1a:	d109      	bne.n	8003f30 <stm32__i2c__mem_read+0x584>
 8003f1c:	4802      	ldr	r0, [pc, #8]	; (8003f28 <stm32__i2c__mem_read+0x57c>)
 8003f1e:	f240 415d 	movw	r1, #1117	; 0x45d
 8003f22:	f004 f84d 	bl	8007fc0 <__gnat_last_chance_handler>
 8003f26:	bf00      	nop
 8003f28:	08009084 	.word	0x08009084
 8003f2c:	7ffffffd 	.word	0x7ffffffd
 8003f30:	697b      	ldr	r3, [r7, #20]
 8003f32:	3301      	adds	r3, #1
 8003f34:	617b      	str	r3, [r7, #20]
 8003f36:	e5f6      	b.n	8003b26 <stm32__i2c__mem_read+0x17a>
 8003f38:	68fb      	ldr	r3, [r7, #12]
 8003f3a:	2201      	movs	r2, #1
 8003f3c:	751a      	strb	r2, [r3, #20]
 8003f3e:	e00a      	b.n	8003f56 <stm32__i2c__mem_read+0x5aa>
 8003f40:	bf00      	nop
 8003f42:	e008      	b.n	8003f56 <stm32__i2c__mem_read+0x5aa>
 8003f44:	bf00      	nop
 8003f46:	e006      	b.n	8003f56 <stm32__i2c__mem_read+0x5aa>
 8003f48:	bf00      	nop
 8003f4a:	e004      	b.n	8003f56 <stm32__i2c__mem_read+0x5aa>
 8003f4c:	bf00      	nop
 8003f4e:	e002      	b.n	8003f56 <stm32__i2c__mem_read+0x5aa>
 8003f50:	bf00      	nop
 8003f52:	e000      	b.n	8003f56 <stm32__i2c__mem_read+0x5aa>
 8003f54:	bf00      	nop
 8003f56:	7cfb      	ldrb	r3, [r7, #19]
 8003f58:	bf00      	nop
 8003f5a:	4618      	mov	r0, r3
 8003f5c:	3718      	adds	r7, #24
 8003f5e:	46bd      	mov	sp, r7
 8003f60:	bdb0      	pop	{r4, r5, r7, pc}
 8003f62:	bf00      	nop

08003f64 <stm32__i2c__set_state>:
 8003f64:	b480      	push	{r7}
 8003f66:	b083      	sub	sp, #12
 8003f68:	af00      	add	r7, sp, #0
 8003f6a:	6078      	str	r0, [r7, #4]
 8003f6c:	460b      	mov	r3, r1
 8003f6e:	70fb      	strb	r3, [r7, #3]
 8003f70:	687b      	ldr	r3, [r7, #4]
 8003f72:	685b      	ldr	r3, [r3, #4]
 8003f74:	681b      	ldr	r3, [r3, #0]
 8003f76:	78fa      	ldrb	r2, [r7, #3]
 8003f78:	f002 0201 	and.w	r2, r2, #1
 8003f7c:	b2d2      	uxtb	r2, r2
 8003f7e:	f362 0300 	bfi	r3, r2, #0, #1
 8003f82:	687a      	ldr	r2, [r7, #4]
 8003f84:	6852      	ldr	r2, [r2, #4]
 8003f86:	6013      	str	r3, [r2, #0]
 8003f88:	370c      	adds	r7, #12
 8003f8a:	46bd      	mov	sp, r7
 8003f8c:	f85d 7b04 	ldr.w	r7, [sp], #4
 8003f90:	4770      	bx	lr
 8003f92:	bf00      	nop

08003f94 <stm32__i2c__port_enabled>:
 8003f94:	b480      	push	{r7}
 8003f96:	b083      	sub	sp, #12
 8003f98:	af00      	add	r7, sp, #0
 8003f9a:	6078      	str	r0, [r7, #4]
 8003f9c:	687b      	ldr	r3, [r7, #4]
 8003f9e:	685b      	ldr	r3, [r3, #4]
 8003fa0:	681b      	ldr	r3, [r3, #0]
 8003fa2:	f3c3 0300 	ubfx	r3, r3, #0, #1
 8003fa6:	b2db      	uxtb	r3, r3
 8003fa8:	bf00      	nop
 8003faa:	4618      	mov	r0, r3
 8003fac:	370c      	adds	r7, #12
 8003fae:	46bd      	mov	sp, r7
 8003fb0:	f85d 7b04 	ldr.w	r7, [sp], #4
 8003fb4:	4770      	bx	lr
 8003fb6:	bf00      	nop

08003fb8 <stm32__i2c__enable_interrupt___postconditions.4916>:
 8003fb8:	b5b0      	push	{r4, r5, r7, lr}
 8003fba:	b082      	sub	sp, #8
 8003fbc:	af00      	add	r7, sp, #0
 8003fbe:	4663      	mov	r3, ip
 8003fc0:	f8c7 c004 	str.w	ip, [r7, #4]
 8003fc4:	681a      	ldr	r2, [r3, #0]
 8003fc6:	791b      	ldrb	r3, [r3, #4]
 8003fc8:	4610      	mov	r0, r2
 8003fca:	4619      	mov	r1, r3
 8003fcc:	f000 f8c2 	bl	8004154 <stm32__i2c__enabled>
 8003fd0:	4603      	mov	r3, r0
 8003fd2:	f083 0301 	eor.w	r3, r3, #1
 8003fd6:	b2db      	uxtb	r3, r3
 8003fd8:	2b00      	cmp	r3, #0
 8003fda:	d005      	beq.n	8003fe8 <stm32__i2c__enable_interrupt___postconditions.4916+0x30>
 8003fdc:	4c04      	ldr	r4, [pc, #16]	; (8003ff0 <stm32__i2c__enable_interrupt___postconditions.4916+0x38>)
 8003fde:	4d05      	ldr	r5, [pc, #20]	; (8003ff4 <stm32__i2c__enable_interrupt___postconditions.4916+0x3c>)
 8003fe0:	4620      	mov	r0, r4
 8003fe2:	4629      	mov	r1, r5
 8003fe4:	f004 f824 	bl	8008030 <system__assertions__raise_assert_failure>
 8003fe8:	3708      	adds	r7, #8
 8003fea:	46bd      	mov	sp, r7
 8003fec:	bdb0      	pop	{r4, r5, r7, pc}
 8003fee:	bf00      	nop
 8003ff0:	080090d8 	.word	0x080090d8
 8003ff4:	08009104 	.word	0x08009104

08003ff8 <stm32__i2c__enable_interrupt>:
 8003ff8:	b580      	push	{r7, lr}
 8003ffa:	b086      	sub	sp, #24
 8003ffc:	af00      	add	r7, sp, #0
 8003ffe:	6078      	str	r0, [r7, #4]
 8004000:	460b      	mov	r3, r1
 8004002:	70fb      	strb	r3, [r7, #3]
 8004004:	f107 0320 	add.w	r3, r7, #32
 8004008:	617b      	str	r3, [r7, #20]
 800400a:	687b      	ldr	r3, [r7, #4]
 800400c:	60fb      	str	r3, [r7, #12]
 800400e:	78fb      	ldrb	r3, [r7, #3]
 8004010:	743b      	strb	r3, [r7, #16]
 8004012:	7c3b      	ldrb	r3, [r7, #16]
 8004014:	2b02      	cmp	r3, #2
 8004016:	d904      	bls.n	8004022 <stm32__i2c__enable_interrupt+0x2a>
 8004018:	481c      	ldr	r0, [pc, #112]	; (800408c <stm32__i2c__enable_interrupt+0x94>)
 800401a:	f240 4183 	movw	r1, #1155	; 0x483
 800401e:	f003 ffcf 	bl	8007fc0 <__gnat_last_chance_handler>
 8004022:	7c3b      	ldrb	r3, [r7, #16]
 8004024:	2b00      	cmp	r3, #0
 8004026:	d002      	beq.n	800402e <stm32__i2c__enable_interrupt+0x36>
 8004028:	2b01      	cmp	r3, #1
 800402a:	d00d      	beq.n	8004048 <stm32__i2c__enable_interrupt+0x50>
 800402c:	e019      	b.n	8004062 <stm32__i2c__enable_interrupt+0x6a>
 800402e:	68fb      	ldr	r3, [r7, #12]
 8004030:	685b      	ldr	r3, [r3, #4]
 8004032:	3304      	adds	r3, #4
 8004034:	681b      	ldr	r3, [r3, #0]
 8004036:	461a      	mov	r2, r3
 8004038:	4613      	mov	r3, r2
 800403a:	f443 7280 	orr.w	r2, r3, #256	; 0x100
 800403e:	68fb      	ldr	r3, [r7, #12]
 8004040:	685b      	ldr	r3, [r3, #4]
 8004042:	3304      	adds	r3, #4
 8004044:	601a      	str	r2, [r3, #0]
 8004046:	e018      	b.n	800407a <stm32__i2c__enable_interrupt+0x82>
 8004048:	68fb      	ldr	r3, [r7, #12]
 800404a:	685b      	ldr	r3, [r3, #4]
 800404c:	3304      	adds	r3, #4
 800404e:	681b      	ldr	r3, [r3, #0]
 8004050:	461a      	mov	r2, r3
 8004052:	4613      	mov	r3, r2
 8004054:	f443 7200 	orr.w	r2, r3, #512	; 0x200
 8004058:	68fb      	ldr	r3, [r7, #12]
 800405a:	685b      	ldr	r3, [r3, #4]
 800405c:	3304      	adds	r3, #4
 800405e:	601a      	str	r2, [r3, #0]
 8004060:	e00b      	b.n	800407a <stm32__i2c__enable_interrupt+0x82>
 8004062:	68fb      	ldr	r3, [r7, #12]
 8004064:	685b      	ldr	r3, [r3, #4]
 8004066:	3304      	adds	r3, #4
 8004068:	681b      	ldr	r3, [r3, #0]
 800406a:	461a      	mov	r2, r3
 800406c:	4613      	mov	r3, r2
 800406e:	f443 6280 	orr.w	r2, r3, #1024	; 0x400
 8004072:	68fb      	ldr	r3, [r7, #12]
 8004074:	685b      	ldr	r3, [r3, #4]
 8004076:	3304      	adds	r3, #4
 8004078:	601a      	str	r2, [r3, #0]
 800407a:	bf00      	nop
 800407c:	f107 030c 	add.w	r3, r7, #12
 8004080:	469c      	mov	ip, r3
 8004082:	f7ff ff99 	bl	8003fb8 <stm32__i2c__enable_interrupt___postconditions.4916>
 8004086:	3718      	adds	r7, #24
 8004088:	46bd      	mov	sp, r7
 800408a:	bd80      	pop	{r7, pc}
 800408c:	08009084 	.word	0x08009084

08004090 <stm32__i2c__disable_interrupt___postconditions.4924>:
 8004090:	b5b0      	push	{r4, r5, r7, lr}
 8004092:	b082      	sub	sp, #8
 8004094:	af00      	add	r7, sp, #0
 8004096:	4663      	mov	r3, ip
 8004098:	f8c7 c004 	str.w	ip, [r7, #4]
 800409c:	681a      	ldr	r2, [r3, #0]
 800409e:	791b      	ldrb	r3, [r3, #4]
 80040a0:	4610      	mov	r0, r2
 80040a2:	4619      	mov	r1, r3
 80040a4:	f000 f856 	bl	8004154 <stm32__i2c__enabled>
 80040a8:	4603      	mov	r3, r0
 80040aa:	2b00      	cmp	r3, #0
 80040ac:	d005      	beq.n	80040ba <stm32__i2c__disable_interrupt___postconditions.4924+0x2a>
 80040ae:	4c04      	ldr	r4, [pc, #16]	; (80040c0 <stm32__i2c__disable_interrupt___postconditions.4924+0x30>)
 80040b0:	4d04      	ldr	r5, [pc, #16]	; (80040c4 <stm32__i2c__disable_interrupt___postconditions.4924+0x34>)
 80040b2:	4620      	mov	r0, r4
 80040b4:	4629      	mov	r1, r5
 80040b6:	f003 ffbb 	bl	8008030 <system__assertions__raise_assert_failure>
 80040ba:	3708      	adds	r7, #8
 80040bc:	46bd      	mov	sp, r7
 80040be:	bdb0      	pop	{r4, r5, r7, pc}
 80040c0:	0800910c 	.word	0x0800910c
 80040c4:	08009104 	.word	0x08009104

080040c8 <stm32__i2c__disable_interrupt>:
 80040c8:	b580      	push	{r7, lr}
 80040ca:	b086      	sub	sp, #24
 80040cc:	af00      	add	r7, sp, #0
 80040ce:	6078      	str	r0, [r7, #4]
 80040d0:	460b      	mov	r3, r1
 80040d2:	70fb      	strb	r3, [r7, #3]
 80040d4:	f107 0320 	add.w	r3, r7, #32
 80040d8:	617b      	str	r3, [r7, #20]
 80040da:	687b      	ldr	r3, [r7, #4]
 80040dc:	60fb      	str	r3, [r7, #12]
 80040de:	78fb      	ldrb	r3, [r7, #3]
 80040e0:	743b      	strb	r3, [r7, #16]
 80040e2:	7c3b      	ldrb	r3, [r7, #16]
 80040e4:	2b02      	cmp	r3, #2
 80040e6:	d904      	bls.n	80040f2 <stm32__i2c__disable_interrupt+0x2a>
 80040e8:	4819      	ldr	r0, [pc, #100]	; (8004150 <stm32__i2c__disable_interrupt+0x88>)
 80040ea:	f240 4196 	movw	r1, #1174	; 0x496
 80040ee:	f003 ff67 	bl	8007fc0 <__gnat_last_chance_handler>
 80040f2:	7c3b      	ldrb	r3, [r7, #16]
 80040f4:	2b00      	cmp	r3, #0
 80040f6:	d002      	beq.n	80040fe <stm32__i2c__disable_interrupt+0x36>
 80040f8:	2b01      	cmp	r3, #1
 80040fa:	d00b      	beq.n	8004114 <stm32__i2c__disable_interrupt+0x4c>
 80040fc:	e015      	b.n	800412a <stm32__i2c__disable_interrupt+0x62>
 80040fe:	68fb      	ldr	r3, [r7, #12]
 8004100:	685b      	ldr	r3, [r3, #4]
 8004102:	3304      	adds	r3, #4
 8004104:	681b      	ldr	r3, [r3, #0]
 8004106:	f36f 2308 	bfc	r3, #8, #1
 800410a:	68fa      	ldr	r2, [r7, #12]
 800410c:	6852      	ldr	r2, [r2, #4]
 800410e:	3204      	adds	r2, #4
 8004110:	6013      	str	r3, [r2, #0]
 8004112:	e014      	b.n	800413e <stm32__i2c__disable_interrupt+0x76>
 8004114:	68fb      	ldr	r3, [r7, #12]
 8004116:	685b      	ldr	r3, [r3, #4]
 8004118:	3304      	adds	r3, #4
 800411a:	681b      	ldr	r3, [r3, #0]
 800411c:	f36f 2349 	bfc	r3, #9, #1
 8004120:	68fa      	ldr	r2, [r7, #12]
 8004122:	6852      	ldr	r2, [r2, #4]
 8004124:	3204      	adds	r2, #4
 8004126:	6013      	str	r3, [r2, #0]
 8004128:	e009      	b.n	800413e <stm32__i2c__disable_interrupt+0x76>
 800412a:	68fb      	ldr	r3, [r7, #12]
 800412c:	685b      	ldr	r3, [r3, #4]
 800412e:	3304      	adds	r3, #4
 8004130:	681b      	ldr	r3, [r3, #0]
 8004132:	f36f 238a 	bfc	r3, #10, #1
 8004136:	68fa      	ldr	r2, [r7, #12]
 8004138:	6852      	ldr	r2, [r2, #4]
 800413a:	3204      	adds	r2, #4
 800413c:	6013      	str	r3, [r2, #0]
 800413e:	bf00      	nop
 8004140:	f107 030c 	add.w	r3, r7, #12
 8004144:	469c      	mov	ip, r3
 8004146:	f7ff ffa3 	bl	8004090 <stm32__i2c__disable_interrupt___postconditions.4924>
 800414a:	3718      	adds	r7, #24
 800414c:	46bd      	mov	sp, r7
 800414e:	bd80      	pop	{r7, pc}
 8004150:	08009084 	.word	0x08009084

08004154 <stm32__i2c__enabled>:
 8004154:	b580      	push	{r7, lr}
 8004156:	b082      	sub	sp, #8
 8004158:	af00      	add	r7, sp, #0
 800415a:	6078      	str	r0, [r7, #4]
 800415c:	460b      	mov	r3, r1
 800415e:	70fb      	strb	r3, [r7, #3]
 8004160:	78fb      	ldrb	r3, [r7, #3]
 8004162:	2b02      	cmp	r3, #2
 8004164:	d904      	bls.n	8004170 <stm32__i2c__enabled+0x1c>
 8004166:	4814      	ldr	r0, [pc, #80]	; (80041b8 <stm32__i2c__enabled+0x64>)
 8004168:	f240 41aa 	movw	r1, #1194	; 0x4aa
 800416c:	f003 ff28 	bl	8007fc0 <__gnat_last_chance_handler>
 8004170:	78fb      	ldrb	r3, [r7, #3]
 8004172:	2b00      	cmp	r3, #0
 8004174:	d002      	beq.n	800417c <stm32__i2c__enabled+0x28>
 8004176:	2b01      	cmp	r3, #1
 8004178:	d008      	beq.n	800418c <stm32__i2c__enabled+0x38>
 800417a:	e00f      	b.n	800419c <stm32__i2c__enabled+0x48>
 800417c:	687b      	ldr	r3, [r7, #4]
 800417e:	685b      	ldr	r3, [r3, #4]
 8004180:	3304      	adds	r3, #4
 8004182:	681b      	ldr	r3, [r3, #0]
 8004184:	f3c3 2300 	ubfx	r3, r3, #8, #1
 8004188:	b2db      	uxtb	r3, r3
 800418a:	e00f      	b.n	80041ac <stm32__i2c__enabled+0x58>
 800418c:	687b      	ldr	r3, [r7, #4]
 800418e:	685b      	ldr	r3, [r3, #4]
 8004190:	3304      	adds	r3, #4
 8004192:	681b      	ldr	r3, [r3, #0]
 8004194:	f3c3 2340 	ubfx	r3, r3, #9, #1
 8004198:	b2db      	uxtb	r3, r3
 800419a:	e007      	b.n	80041ac <stm32__i2c__enabled+0x58>
 800419c:	687b      	ldr	r3, [r7, #4]
 800419e:	685b      	ldr	r3, [r3, #4]
 80041a0:	3304      	adds	r3, #4
 80041a2:	681b      	ldr	r3, [r3, #0]
 80041a4:	f3c3 2380 	ubfx	r3, r3, #10, #1
 80041a8:	b2db      	uxtb	r3, r3
 80041aa:	bf00      	nop
 80041ac:	bf00      	nop
 80041ae:	4618      	mov	r0, r3
 80041b0:	3708      	adds	r7, #8
 80041b2:	46bd      	mov	sp, r7
 80041b4:	bd80      	pop	{r7, pc}
 80041b6:	bf00      	nop
 80041b8:	08009084 	.word	0x08009084

080041bc <stm32__gpio__gpio_pinRP>:
 80041bc:	b480      	push	{r7}
 80041be:	b083      	sub	sp, #12
 80041c0:	af00      	add	r7, sp, #0
 80041c2:	4603      	mov	r3, r0
 80041c4:	460a      	mov	r2, r1
 80041c6:	80fb      	strh	r3, [r7, #6]
 80041c8:	4613      	mov	r3, r2
 80041ca:	717b      	strb	r3, [r7, #5]
 80041cc:	88fb      	ldrh	r3, [r7, #6]
 80041ce:	2b80      	cmp	r3, #128	; 0x80
 80041d0:	d042      	beq.n	8004258 <stm32__gpio__gpio_pinRP+0x9c>
 80041d2:	2b80      	cmp	r3, #128	; 0x80
 80041d4:	d811      	bhi.n	80041fa <stm32__gpio__gpio_pinRP+0x3e>
 80041d6:	2b08      	cmp	r3, #8
 80041d8:	d036      	beq.n	8004248 <stm32__gpio__gpio_pinRP+0x8c>
 80041da:	2b08      	cmp	r3, #8
 80041dc:	d806      	bhi.n	80041ec <stm32__gpio__gpio_pinRP+0x30>
 80041de:	2b02      	cmp	r3, #2
 80041e0:	d02e      	beq.n	8004240 <stm32__gpio__gpio_pinRP+0x84>
 80041e2:	2b04      	cmp	r3, #4
 80041e4:	d02e      	beq.n	8004244 <stm32__gpio__gpio_pinRP+0x88>
 80041e6:	2b01      	cmp	r3, #1
 80041e8:	d028      	beq.n	800423c <stm32__gpio__gpio_pinRP+0x80>
 80041ea:	e047      	b.n	800427c <stm32__gpio__gpio_pinRP+0xc0>
 80041ec:	2b20      	cmp	r3, #32
 80041ee:	d02f      	beq.n	8004250 <stm32__gpio__gpio_pinRP+0x94>
 80041f0:	2b40      	cmp	r3, #64	; 0x40
 80041f2:	d02f      	beq.n	8004254 <stm32__gpio__gpio_pinRP+0x98>
 80041f4:	2b10      	cmp	r3, #16
 80041f6:	d029      	beq.n	800424c <stm32__gpio__gpio_pinRP+0x90>
 80041f8:	e040      	b.n	800427c <stm32__gpio__gpio_pinRP+0xc0>
 80041fa:	f5b3 6f00 	cmp.w	r3, #2048	; 0x800
 80041fe:	d033      	beq.n	8004268 <stm32__gpio__gpio_pinRP+0xac>
 8004200:	f5b3 6f00 	cmp.w	r3, #2048	; 0x800
 8004204:	d809      	bhi.n	800421a <stm32__gpio__gpio_pinRP+0x5e>
 8004206:	f5b3 7f00 	cmp.w	r3, #512	; 0x200
 800420a:	d029      	beq.n	8004260 <stm32__gpio__gpio_pinRP+0xa4>
 800420c:	f5b3 6f80 	cmp.w	r3, #1024	; 0x400
 8004210:	d028      	beq.n	8004264 <stm32__gpio__gpio_pinRP+0xa8>
 8004212:	f5b3 7f80 	cmp.w	r3, #256	; 0x100
 8004216:	d021      	beq.n	800425c <stm32__gpio__gpio_pinRP+0xa0>
 8004218:	e030      	b.n	800427c <stm32__gpio__gpio_pinRP+0xc0>
 800421a:	f5b3 5f00 	cmp.w	r3, #8192	; 0x2000
 800421e:	d027      	beq.n	8004270 <stm32__gpio__gpio_pinRP+0xb4>
 8004220:	f5b3 5f00 	cmp.w	r3, #8192	; 0x2000
 8004224:	d803      	bhi.n	800422e <stm32__gpio__gpio_pinRP+0x72>
 8004226:	f5b3 5f80 	cmp.w	r3, #4096	; 0x1000
 800422a:	d01f      	beq.n	800426c <stm32__gpio__gpio_pinRP+0xb0>
 800422c:	e026      	b.n	800427c <stm32__gpio__gpio_pinRP+0xc0>
 800422e:	f5b3 4f80 	cmp.w	r3, #16384	; 0x4000
 8004232:	d01f      	beq.n	8004274 <stm32__gpio__gpio_pinRP+0xb8>
 8004234:	f5b3 4f00 	cmp.w	r3, #32768	; 0x8000
 8004238:	d01e      	beq.n	8004278 <stm32__gpio__gpio_pinRP+0xbc>
 800423a:	e01f      	b.n	800427c <stm32__gpio__gpio_pinRP+0xc0>
 800423c:	2300      	movs	r3, #0
 800423e:	e01f      	b.n	8004280 <stm32__gpio__gpio_pinRP+0xc4>
 8004240:	2301      	movs	r3, #1
 8004242:	e01d      	b.n	8004280 <stm32__gpio__gpio_pinRP+0xc4>
 8004244:	2302      	movs	r3, #2
 8004246:	e01b      	b.n	8004280 <stm32__gpio__gpio_pinRP+0xc4>
 8004248:	2303      	movs	r3, #3
 800424a:	e019      	b.n	8004280 <stm32__gpio__gpio_pinRP+0xc4>
 800424c:	2304      	movs	r3, #4
 800424e:	e017      	b.n	8004280 <stm32__gpio__gpio_pinRP+0xc4>
 8004250:	2305      	movs	r3, #5
 8004252:	e015      	b.n	8004280 <stm32__gpio__gpio_pinRP+0xc4>
 8004254:	2306      	movs	r3, #6
 8004256:	e013      	b.n	8004280 <stm32__gpio__gpio_pinRP+0xc4>
 8004258:	2307      	movs	r3, #7
 800425a:	e011      	b.n	8004280 <stm32__gpio__gpio_pinRP+0xc4>
 800425c:	2308      	movs	r3, #8
 800425e:	e00f      	b.n	8004280 <stm32__gpio__gpio_pinRP+0xc4>
 8004260:	2309      	movs	r3, #9
 8004262:	e00d      	b.n	8004280 <stm32__gpio__gpio_pinRP+0xc4>
 8004264:	230a      	movs	r3, #10
 8004266:	e00b      	b.n	8004280 <stm32__gpio__gpio_pinRP+0xc4>
 8004268:	230b      	movs	r3, #11
 800426a:	e009      	b.n	8004280 <stm32__gpio__gpio_pinRP+0xc4>
 800426c:	230c      	movs	r3, #12
 800426e:	e007      	b.n	8004280 <stm32__gpio__gpio_pinRP+0xc4>
 8004270:	230d      	movs	r3, #13
 8004272:	e005      	b.n	8004280 <stm32__gpio__gpio_pinRP+0xc4>
 8004274:	230e      	movs	r3, #14
 8004276:	e003      	b.n	8004280 <stm32__gpio__gpio_pinRP+0xc4>
 8004278:	230f      	movs	r3, #15
 800427a:	e001      	b.n	8004280 <stm32__gpio__gpio_pinRP+0xc4>
 800427c:	f04f 33ff 	mov.w	r3, #4294967295
 8004280:	4618      	mov	r0, r3
 8004282:	370c      	adds	r7, #12
 8004284:	46bd      	mov	sp, r7
 8004286:	f85d 7b04 	ldr.w	r7, [sp], #4
 800428a:	4770      	bx	lr

0800428c <stm32__gpio___size__2>:
 800428c:	b490      	push	{r4, r7}
 800428e:	b082      	sub	sp, #8
 8004290:	af00      	add	r7, sp, #0
 8004292:	6078      	str	r0, [r7, #4]
 8004294:	f04f 0360 	mov.w	r3, #96	; 0x60
 8004298:	f04f 0400 	mov.w	r4, #0
 800429c:	4618      	mov	r0, r3
 800429e:	4621      	mov	r1, r4
 80042a0:	3708      	adds	r7, #8
 80042a2:	46bd      	mov	sp, r7
 80042a4:	bc90      	pop	{r4, r7}
 80042a6:	4770      	bx	lr

080042a8 <stm32__gpio__Oeq>:
 80042a8:	b480      	push	{r7}
 80042aa:	b083      	sub	sp, #12
 80042ac:	af00      	add	r7, sp, #0
 80042ae:	6078      	str	r0, [r7, #4]
 80042b0:	6039      	str	r1, [r7, #0]
 80042b2:	687b      	ldr	r3, [r7, #4]
 80042b4:	685a      	ldr	r2, [r3, #4]
 80042b6:	683b      	ldr	r3, [r7, #0]
 80042b8:	685b      	ldr	r3, [r3, #4]
 80042ba:	429a      	cmp	r2, r3
 80042bc:	d107      	bne.n	80042ce <stm32__gpio__Oeq+0x26>
 80042be:	687b      	ldr	r3, [r7, #4]
 80042c0:	891a      	ldrh	r2, [r3, #8]
 80042c2:	683b      	ldr	r3, [r7, #0]
 80042c4:	891b      	ldrh	r3, [r3, #8]
 80042c6:	429a      	cmp	r2, r3
 80042c8:	d101      	bne.n	80042ce <stm32__gpio__Oeq+0x26>
 80042ca:	2301      	movs	r3, #1
 80042cc:	e000      	b.n	80042d0 <stm32__gpio__Oeq+0x28>
 80042ce:	2300      	movs	r3, #0
 80042d0:	4618      	mov	r0, r3
 80042d2:	370c      	adds	r7, #12
 80042d4:	46bd      	mov	sp, r7
 80042d6:	f85d 7b04 	ldr.w	r7, [sp], #4
 80042da:	4770      	bx	lr

080042dc <stm32__gpio___assign>:
 80042dc:	b490      	push	{r4, r7}
 80042de:	b082      	sub	sp, #8
 80042e0:	af00      	add	r7, sp, #0
 80042e2:	6078      	str	r0, [r7, #4]
 80042e4:	6039      	str	r1, [r7, #0]
 80042e6:	687b      	ldr	r3, [r7, #4]
 80042e8:	681c      	ldr	r4, [r3, #0]
 80042ea:	687b      	ldr	r3, [r7, #4]
 80042ec:	683a      	ldr	r2, [r7, #0]
 80042ee:	ca07      	ldmia	r2, {r0, r1, r2}
 80042f0:	e883 0007 	stmia.w	r3, {r0, r1, r2}
 80042f4:	687b      	ldr	r3, [r7, #4]
 80042f6:	601c      	str	r4, [r3, #0]
 80042f8:	3708      	adds	r7, #8
 80042fa:	46bd      	mov	sp, r7
 80042fc:	bc90      	pop	{r4, r7}
 80042fe:	4770      	bx	lr

08004300 <stm32__gpio__mode>:
 8004300:	b580      	push	{r7, lr}
 8004302:	b086      	sub	sp, #24
 8004304:	af00      	add	r7, sp, #0
 8004306:	6078      	str	r0, [r7, #4]
 8004308:	687b      	ldr	r3, [r7, #4]
 800430a:	891b      	ldrh	r3, [r3, #8]
 800430c:	4618      	mov	r0, r3
 800430e:	2101      	movs	r1, #1
 8004310:	f7ff ff54 	bl	80041bc <stm32__gpio__gpio_pinRP>
 8004314:	4603      	mov	r3, r0
 8004316:	2b00      	cmp	r3, #0
 8004318:	db01      	blt.n	800431e <stm32__gpio__mode+0x1e>
 800431a:	2b0f      	cmp	r3, #15
 800431c:	dd03      	ble.n	8004326 <stm32__gpio__mode+0x26>
 800431e:	482d      	ldr	r0, [pc, #180]	; (80043d4 <stm32__gpio__mode+0xd4>)
 8004320:	215d      	movs	r1, #93	; 0x5d
 8004322:	f003 fe4d 	bl	8007fc0 <__gnat_last_chance_handler>
 8004326:	687b      	ldr	r3, [r7, #4]
 8004328:	891b      	ldrh	r3, [r3, #8]
 800432a:	4618      	mov	r0, r3
 800432c:	2101      	movs	r1, #1
 800432e:	f7ff ff45 	bl	80041bc <stm32__gpio__gpio_pinRP>
 8004332:	4603      	mov	r3, r0
 8004334:	613b      	str	r3, [r7, #16]
 8004336:	230c      	movs	r3, #12
 8004338:	73fb      	strb	r3, [r7, #15]
 800433a:	2303      	movs	r3, #3
 800433c:	73bb      	strb	r3, [r7, #14]
 800433e:	693b      	ldr	r3, [r7, #16]
 8004340:	2b07      	cmp	r3, #7
 8004342:	dc1b      	bgt.n	800437c <stm32__gpio__mode+0x7c>
 8004344:	687b      	ldr	r3, [r7, #4]
 8004346:	685b      	ldr	r3, [r3, #4]
 8004348:	2b00      	cmp	r3, #0
 800434a:	d103      	bne.n	8004354 <stm32__gpio__mode+0x54>
 800434c:	4821      	ldr	r0, [pc, #132]	; (80043d4 <stm32__gpio__mode+0xd4>)
 800434e:	2164      	movs	r1, #100	; 0x64
 8004350:	f003 fe36 	bl	8007fc0 <__gnat_last_chance_handler>
 8004354:	693b      	ldr	r3, [r7, #16]
 8004356:	2b07      	cmp	r3, #7
 8004358:	dd03      	ble.n	8004362 <stm32__gpio__mode+0x62>
 800435a:	481e      	ldr	r0, [pc, #120]	; (80043d4 <stm32__gpio__mode+0xd4>)
 800435c:	2164      	movs	r1, #100	; 0x64
 800435e:	f003 fe2f 	bl	8007fc0 <__gnat_last_chance_handler>
 8004362:	687b      	ldr	r3, [r7, #4]
 8004364:	685b      	ldr	r3, [r3, #4]
 8004366:	681b      	ldr	r3, [r3, #0]
 8004368:	461a      	mov	r2, r3
 800436a:	693b      	ldr	r3, [r7, #16]
 800436c:	009b      	lsls	r3, r3, #2
 800436e:	fa22 f303 	lsr.w	r3, r2, r3
 8004372:	b2db      	uxtb	r3, r3
 8004374:	f003 030f 	and.w	r3, r3, #15
 8004378:	75fb      	strb	r3, [r7, #23]
 800437a:	e01c      	b.n	80043b6 <stm32__gpio__mode+0xb6>
 800437c:	687b      	ldr	r3, [r7, #4]
 800437e:	685b      	ldr	r3, [r3, #4]
 8004380:	2b00      	cmp	r3, #0
 8004382:	d103      	bne.n	800438c <stm32__gpio__mode+0x8c>
 8004384:	4813      	ldr	r0, [pc, #76]	; (80043d4 <stm32__gpio__mode+0xd4>)
 8004386:	2166      	movs	r1, #102	; 0x66
 8004388:	f003 fe1a 	bl	8007fc0 <__gnat_last_chance_handler>
 800438c:	693b      	ldr	r3, [r7, #16]
 800438e:	2b07      	cmp	r3, #7
 8004390:	dc03      	bgt.n	800439a <stm32__gpio__mode+0x9a>
 8004392:	4810      	ldr	r0, [pc, #64]	; (80043d4 <stm32__gpio__mode+0xd4>)
 8004394:	2166      	movs	r1, #102	; 0x66
 8004396:	f003 fe13 	bl	8007fc0 <__gnat_last_chance_handler>
 800439a:	687b      	ldr	r3, [r7, #4]
 800439c:	685b      	ldr	r3, [r3, #4]
 800439e:	3304      	adds	r3, #4
 80043a0:	681b      	ldr	r3, [r3, #0]
 80043a2:	461a      	mov	r2, r3
 80043a4:	693b      	ldr	r3, [r7, #16]
 80043a6:	3b08      	subs	r3, #8
 80043a8:	009b      	lsls	r3, r3, #2
 80043aa:	fa22 f303 	lsr.w	r3, r2, r3
 80043ae:	b2db      	uxtb	r3, r3
 80043b0:	f003 030f 	and.w	r3, r3, #15
 80043b4:	75fb      	strb	r3, [r7, #23]
 80043b6:	7dfb      	ldrb	r3, [r7, #23]
 80043b8:	f003 0303 	and.w	r3, r3, #3
 80043bc:	737b      	strb	r3, [r7, #13]
 80043be:	7b7b      	ldrb	r3, [r7, #13]
 80043c0:	2b00      	cmp	r3, #0
 80043c2:	d101      	bne.n	80043c8 <stm32__gpio__mode+0xc8>
 80043c4:	2301      	movs	r3, #1
 80043c6:	e000      	b.n	80043ca <stm32__gpio__mode+0xca>
 80043c8:	2302      	movs	r3, #2
 80043ca:	bf00      	nop
 80043cc:	4618      	mov	r0, r3
 80043ce:	3718      	adds	r7, #24
 80043d0:	46bd      	mov	sp, r7
 80043d2:	bd80      	pop	{r7, pc}
 80043d4:	080091f0 	.word	0x080091f0

080043d8 <stm32__gpio__set_mode>:
 80043d8:	b580      	push	{r7, lr}
 80043da:	b086      	sub	sp, #24
 80043dc:	af00      	add	r7, sp, #0
 80043de:	6078      	str	r0, [r7, #4]
 80043e0:	460b      	mov	r3, r1
 80043e2:	70fb      	strb	r3, [r7, #3]
 80043e4:	687b      	ldr	r3, [r7, #4]
 80043e6:	891b      	ldrh	r3, [r3, #8]
 80043e8:	4618      	mov	r0, r3
 80043ea:	2101      	movs	r1, #1
 80043ec:	f7ff fee6 	bl	80041bc <stm32__gpio__gpio_pinRP>
 80043f0:	4603      	mov	r3, r0
 80043f2:	2b00      	cmp	r3, #0
 80043f4:	db01      	blt.n	80043fa <stm32__gpio__set_mode+0x22>
 80043f6:	2b0f      	cmp	r3, #15
 80043f8:	dd03      	ble.n	8004402 <stm32__gpio__set_mode+0x2a>
 80043fa:	483e      	ldr	r0, [pc, #248]	; (80044f4 <stm32__gpio__set_mode+0x11c>)
 80043fc:	217a      	movs	r1, #122	; 0x7a
 80043fe:	f003 fddf 	bl	8007fc0 <__gnat_last_chance_handler>
 8004402:	613b      	str	r3, [r7, #16]
 8004404:	78fb      	ldrb	r3, [r7, #3]
 8004406:	2b00      	cmp	r3, #0
 8004408:	d002      	beq.n	8004410 <stm32__gpio__set_mode+0x38>
 800440a:	78fb      	ldrb	r3, [r7, #3]
 800440c:	2b02      	cmp	r3, #2
 800440e:	d903      	bls.n	8004418 <stm32__gpio__set_mode+0x40>
 8004410:	4838      	ldr	r0, [pc, #224]	; (80044f4 <stm32__gpio__set_mode+0x11c>)
 8004412:	2180      	movs	r1, #128	; 0x80
 8004414:	f003 fdd4 	bl	8007fc0 <__gnat_last_chance_handler>
 8004418:	78fb      	ldrb	r3, [r7, #3]
 800441a:	2b02      	cmp	r3, #2
 800441c:	d108      	bne.n	8004430 <stm32__gpio__set_mode+0x58>
 800441e:	2300      	movs	r3, #0
 8004420:	73fb      	strb	r3, [r7, #15]
 8004422:	2302      	movs	r3, #2
 8004424:	73bb      	strb	r3, [r7, #14]
 8004426:	7bfa      	ldrb	r2, [r7, #15]
 8004428:	7bbb      	ldrb	r3, [r7, #14]
 800442a:	4313      	orrs	r3, r2
 800442c:	75fb      	strb	r3, [r7, #23]
 800442e:	e007      	b.n	8004440 <stm32__gpio__set_mode+0x68>
 8004430:	2308      	movs	r3, #8
 8004432:	737b      	strb	r3, [r7, #13]
 8004434:	2300      	movs	r3, #0
 8004436:	73bb      	strb	r3, [r7, #14]
 8004438:	7b7a      	ldrb	r2, [r7, #13]
 800443a:	7bbb      	ldrb	r3, [r7, #14]
 800443c:	4313      	orrs	r3, r2
 800443e:	75fb      	strb	r3, [r7, #23]
 8004440:	693b      	ldr	r3, [r7, #16]
 8004442:	2b07      	cmp	r3, #7
 8004444:	dc28      	bgt.n	8004498 <stm32__gpio__set_mode+0xc0>
 8004446:	687b      	ldr	r3, [r7, #4]
 8004448:	685b      	ldr	r3, [r3, #4]
 800444a:	2b00      	cmp	r3, #0
 800444c:	d103      	bne.n	8004456 <stm32__gpio__set_mode+0x7e>
 800444e:	4829      	ldr	r0, [pc, #164]	; (80044f4 <stm32__gpio__set_mode+0x11c>)
 8004450:	218c      	movs	r1, #140	; 0x8c
 8004452:	f003 fdb5 	bl	8007fc0 <__gnat_last_chance_handler>
 8004456:	687b      	ldr	r3, [r7, #4]
 8004458:	6858      	ldr	r0, [r3, #4]
 800445a:	693b      	ldr	r3, [r7, #16]
 800445c:	2b07      	cmp	r3, #7
 800445e:	dd03      	ble.n	8004468 <stm32__gpio__set_mode+0x90>
 8004460:	4824      	ldr	r0, [pc, #144]	; (80044f4 <stm32__gpio__set_mode+0x11c>)
 8004462:	218c      	movs	r1, #140	; 0x8c
 8004464:	f003 fdac 	bl	8007fc0 <__gnat_last_chance_handler>
 8004468:	4603      	mov	r3, r0
 800446a:	681b      	ldr	r3, [r3, #0]
 800446c:	461a      	mov	r2, r3
 800446e:	4603      	mov	r3, r0
 8004470:	681b      	ldr	r3, [r3, #0]
 8004472:	4619      	mov	r1, r3
 8004474:	693b      	ldr	r3, [r7, #16]
 8004476:	009b      	lsls	r3, r3, #2
 8004478:	220f      	movs	r2, #15
 800447a:	fa02 f303 	lsl.w	r3, r2, r3
 800447e:	43db      	mvns	r3, r3
 8004480:	ea01 0203 	and.w	r2, r1, r3
 8004484:	7df9      	ldrb	r1, [r7, #23]
 8004486:	693b      	ldr	r3, [r7, #16]
 8004488:	009b      	lsls	r3, r3, #2
 800448a:	fa01 f303 	lsl.w	r3, r1, r3
 800448e:	4313      	orrs	r3, r2
 8004490:	461a      	mov	r2, r3
 8004492:	4603      	mov	r3, r0
 8004494:	601a      	str	r2, [r3, #0]
 8004496:	e027      	b.n	80044e8 <stm32__gpio__set_mode+0x110>
 8004498:	687b      	ldr	r3, [r7, #4]
 800449a:	685b      	ldr	r3, [r3, #4]
 800449c:	2b00      	cmp	r3, #0
 800449e:	d103      	bne.n	80044a8 <stm32__gpio__set_mode+0xd0>
 80044a0:	4814      	ldr	r0, [pc, #80]	; (80044f4 <stm32__gpio__set_mode+0x11c>)
 80044a2:	218e      	movs	r1, #142	; 0x8e
 80044a4:	f003 fd8c 	bl	8007fc0 <__gnat_last_chance_handler>
 80044a8:	687b      	ldr	r3, [r7, #4]
 80044aa:	685b      	ldr	r3, [r3, #4]
 80044ac:	693a      	ldr	r2, [r7, #16]
 80044ae:	2a07      	cmp	r2, #7
 80044b0:	dc03      	bgt.n	80044ba <stm32__gpio__set_mode+0xe2>
 80044b2:	4810      	ldr	r0, [pc, #64]	; (80044f4 <stm32__gpio__set_mode+0x11c>)
 80044b4:	218e      	movs	r1, #142	; 0x8e
 80044b6:	f003 fd83 	bl	8007fc0 <__gnat_last_chance_handler>
 80044ba:	1d1a      	adds	r2, r3, #4
 80044bc:	6812      	ldr	r2, [r2, #0]
 80044be:	1d1a      	adds	r2, r3, #4
 80044c0:	6812      	ldr	r2, [r2, #0]
 80044c2:	4610      	mov	r0, r2
 80044c4:	693a      	ldr	r2, [r7, #16]
 80044c6:	3a08      	subs	r2, #8
 80044c8:	0092      	lsls	r2, r2, #2
 80044ca:	210f      	movs	r1, #15
 80044cc:	fa01 f202 	lsl.w	r2, r1, r2
 80044d0:	43d2      	mvns	r2, r2
 80044d2:	ea00 0102 	and.w	r1, r0, r2
 80044d6:	7df8      	ldrb	r0, [r7, #23]
 80044d8:	693a      	ldr	r2, [r7, #16]
 80044da:	3a08      	subs	r2, #8
 80044dc:	0092      	lsls	r2, r2, #2
 80044de:	fa00 f202 	lsl.w	r2, r0, r2
 80044e2:	430a      	orrs	r2, r1
 80044e4:	3304      	adds	r3, #4
 80044e6:	601a      	str	r2, [r3, #0]
 80044e8:	2301      	movs	r3, #1
 80044ea:	bf00      	nop
 80044ec:	4618      	mov	r0, r3
 80044ee:	3718      	adds	r7, #24
 80044f0:	46bd      	mov	sp, r7
 80044f2:	bd80      	pop	{r7, pc}
 80044f4:	080091f0 	.word	0x080091f0

080044f8 <stm32__gpio__pull_resistor>:
 80044f8:	b580      	push	{r7, lr}
 80044fa:	b084      	sub	sp, #16
 80044fc:	af00      	add	r7, sp, #0
 80044fe:	6078      	str	r0, [r7, #4]
 8004500:	687b      	ldr	r3, [r7, #4]
 8004502:	891b      	ldrh	r3, [r3, #8]
 8004504:	4618      	mov	r0, r3
 8004506:	2101      	movs	r1, #1
 8004508:	f7ff fe58 	bl	80041bc <stm32__gpio__gpio_pinRP>
 800450c:	4603      	mov	r3, r0
 800450e:	2b00      	cmp	r3, #0
 8004510:	db01      	blt.n	8004516 <stm32__gpio__pull_resistor+0x1e>
 8004512:	2b0f      	cmp	r3, #15
 8004514:	dd03      	ble.n	800451e <stm32__gpio__pull_resistor+0x26>
 8004516:	4809      	ldr	r0, [pc, #36]	; (800453c <stm32__gpio__pull_resistor+0x44>)
 8004518:	219c      	movs	r1, #156	; 0x9c
 800451a:	f003 fd51 	bl	8007fc0 <__gnat_last_chance_handler>
 800451e:	687b      	ldr	r3, [r7, #4]
 8004520:	891b      	ldrh	r3, [r3, #8]
 8004522:	4618      	mov	r0, r3
 8004524:	2101      	movs	r1, #1
 8004526:	f7ff fe49 	bl	80041bc <stm32__gpio__gpio_pinRP>
 800452a:	4603      	mov	r3, r0
 800452c:	60fb      	str	r3, [r7, #12]
 800452e:	2300      	movs	r3, #0
 8004530:	bf00      	nop
 8004532:	4618      	mov	r0, r3
 8004534:	3710      	adds	r7, #16
 8004536:	46bd      	mov	sp, r7
 8004538:	bd80      	pop	{r7, pc}
 800453a:	bf00      	nop
 800453c:	080091f0 	.word	0x080091f0

08004540 <stm32__gpio__set_pull_resistor>:
 8004540:	b580      	push	{r7, lr}
 8004542:	b084      	sub	sp, #16
 8004544:	af00      	add	r7, sp, #0
 8004546:	6078      	str	r0, [r7, #4]
 8004548:	460b      	mov	r3, r1
 800454a:	70fb      	strb	r3, [r7, #3]
 800454c:	687b      	ldr	r3, [r7, #4]
 800454e:	891b      	ldrh	r3, [r3, #8]
 8004550:	4618      	mov	r0, r3
 8004552:	2101      	movs	r1, #1
 8004554:	f7ff fe32 	bl	80041bc <stm32__gpio__gpio_pinRP>
 8004558:	4603      	mov	r3, r0
 800455a:	2b00      	cmp	r3, #0
 800455c:	db01      	blt.n	8004562 <stm32__gpio__set_pull_resistor+0x22>
 800455e:	2b0f      	cmp	r3, #15
 8004560:	dd03      	ble.n	800456a <stm32__gpio__set_pull_resistor+0x2a>
 8004562:	4805      	ldr	r0, [pc, #20]	; (8004578 <stm32__gpio__set_pull_resistor+0x38>)
 8004564:	21b2      	movs	r1, #178	; 0xb2
 8004566:	f003 fd2b 	bl	8007fc0 <__gnat_last_chance_handler>
 800456a:	60fb      	str	r3, [r7, #12]
 800456c:	2301      	movs	r3, #1
 800456e:	bf00      	nop
 8004570:	4618      	mov	r0, r3
 8004572:	3710      	adds	r7, #16
 8004574:	46bd      	mov	sp, r7
 8004576:	bd80      	pop	{r7, pc}
 8004578:	080091f0 	.word	0x080091f0

0800457c <stm32__gpio__set>:
 800457c:	b580      	push	{r7, lr}
 800457e:	b084      	sub	sp, #16
 8004580:	af00      	add	r7, sp, #0
 8004582:	6078      	str	r0, [r7, #4]
 8004584:	687b      	ldr	r3, [r7, #4]
 8004586:	891b      	ldrh	r3, [r3, #8]
 8004588:	81fb      	strh	r3, [r7, #14]
 800458a:	687b      	ldr	r3, [r7, #4]
 800458c:	685b      	ldr	r3, [r3, #4]
 800458e:	2b00      	cmp	r3, #0
 8004590:	d103      	bne.n	800459a <stm32__gpio__set+0x1e>
 8004592:	480b      	ldr	r0, [pc, #44]	; (80045c0 <stm32__gpio__set+0x44>)
 8004594:	21c7      	movs	r1, #199	; 0xc7
 8004596:	f003 fd13 	bl	8007fc0 <__gnat_last_chance_handler>
 800459a:	687b      	ldr	r3, [r7, #4]
 800459c:	685b      	ldr	r3, [r3, #4]
 800459e:	3308      	adds	r3, #8
 80045a0:	681b      	ldr	r3, [r3, #0]
 80045a2:	b29a      	uxth	r2, r3
 80045a4:	89fb      	ldrh	r3, [r7, #14]
 80045a6:	4013      	ands	r3, r2
 80045a8:	b29b      	uxth	r3, r3
 80045aa:	89fa      	ldrh	r2, [r7, #14]
 80045ac:	429a      	cmp	r2, r3
 80045ae:	bf0c      	ite	eq
 80045b0:	2301      	moveq	r3, #1
 80045b2:	2300      	movne	r3, #0
 80045b4:	b2db      	uxtb	r3, r3
 80045b6:	bf00      	nop
 80045b8:	4618      	mov	r0, r3
 80045ba:	3710      	adds	r7, #16
 80045bc:	46bd      	mov	sp, r7
 80045be:	bd80      	pop	{r7, pc}
 80045c0:	080091f0 	.word	0x080091f0

080045c4 <stm32__gpio__set__2>:
 80045c4:	b5b0      	push	{r4, r5, r7, lr}
 80045c6:	b082      	sub	sp, #8
 80045c8:	af00      	add	r7, sp, #0
 80045ca:	6078      	str	r0, [r7, #4]
 80045cc:	6878      	ldr	r0, [r7, #4]
 80045ce:	f7ff fe97 	bl	8004300 <stm32__gpio__mode>
 80045d2:	4603      	mov	r3, r0
 80045d4:	2b02      	cmp	r3, #2
 80045d6:	d005      	beq.n	80045e4 <stm32__gpio__set__2+0x20>
 80045d8:	4c0e      	ldr	r4, [pc, #56]	; (8004614 <stm32__gpio__set__2+0x50>)
 80045da:	4d0f      	ldr	r5, [pc, #60]	; (8004618 <stm32__gpio__set__2+0x54>)
 80045dc:	4620      	mov	r0, r4
 80045de:	4629      	mov	r1, r5
 80045e0:	f003 fd26 	bl	8008030 <system__assertions__raise_assert_failure>
 80045e4:	687b      	ldr	r3, [r7, #4]
 80045e6:	685b      	ldr	r3, [r3, #4]
 80045e8:	2b00      	cmp	r3, #0
 80045ea:	d103      	bne.n	80045f4 <stm32__gpio__set__2+0x30>
 80045ec:	480b      	ldr	r0, [pc, #44]	; (800461c <stm32__gpio__set__2+0x58>)
 80045ee:	21e0      	movs	r1, #224	; 0xe0
 80045f0:	f003 fce6 	bl	8007fc0 <__gnat_last_chance_handler>
 80045f4:	687b      	ldr	r3, [r7, #4]
 80045f6:	685b      	ldr	r3, [r3, #4]
 80045f8:	3310      	adds	r3, #16
 80045fa:	681b      	ldr	r3, [r3, #0]
 80045fc:	687a      	ldr	r2, [r7, #4]
 80045fe:	8912      	ldrh	r2, [r2, #8]
 8004600:	f362 030f 	bfi	r3, r2, #0, #16
 8004604:	687a      	ldr	r2, [r7, #4]
 8004606:	6852      	ldr	r2, [r2, #4]
 8004608:	3210      	adds	r2, #16
 800460a:	6013      	str	r3, [r2, #0]
 800460c:	3708      	adds	r7, #8
 800460e:	46bd      	mov	sp, r7
 8004610:	bdb0      	pop	{r4, r5, r7, pc}
 8004612:	bf00      	nop
 8004614:	08009200 	.word	0x08009200
 8004618:	08009234 	.word	0x08009234
 800461c:	080091f0 	.word	0x080091f0

08004620 <stm32__gpio__clear>:
 8004620:	b5b0      	push	{r4, r5, r7, lr}
 8004622:	b082      	sub	sp, #8
 8004624:	af00      	add	r7, sp, #0
 8004626:	6078      	str	r0, [r7, #4]
 8004628:	6878      	ldr	r0, [r7, #4]
 800462a:	f7ff fe69 	bl	8004300 <stm32__gpio__mode>
 800462e:	4603      	mov	r3, r0
 8004630:	2b02      	cmp	r3, #2
 8004632:	d005      	beq.n	8004640 <stm32__gpio__clear+0x20>
 8004634:	4c0e      	ldr	r4, [pc, #56]	; (8004670 <stm32__gpio__clear+0x50>)
 8004636:	4d0f      	ldr	r5, [pc, #60]	; (8004674 <stm32__gpio__clear+0x54>)
 8004638:	4620      	mov	r0, r4
 800463a:	4629      	mov	r1, r5
 800463c:	f003 fcf8 	bl	8008030 <system__assertions__raise_assert_failure>
 8004640:	687b      	ldr	r3, [r7, #4]
 8004642:	685b      	ldr	r3, [r3, #4]
 8004644:	2b00      	cmp	r3, #0
 8004646:	d103      	bne.n	8004650 <stm32__gpio__clear+0x30>
 8004648:	480b      	ldr	r0, [pc, #44]	; (8004678 <stm32__gpio__clear+0x58>)
 800464a:	21f7      	movs	r1, #247	; 0xf7
 800464c:	f003 fcb8 	bl	8007fc0 <__gnat_last_chance_handler>
 8004650:	687b      	ldr	r3, [r7, #4]
 8004652:	685b      	ldr	r3, [r3, #4]
 8004654:	3310      	adds	r3, #16
 8004656:	681b      	ldr	r3, [r3, #0]
 8004658:	687a      	ldr	r2, [r7, #4]
 800465a:	8912      	ldrh	r2, [r2, #8]
 800465c:	f362 431f 	bfi	r3, r2, #16, #16
 8004660:	687a      	ldr	r2, [r7, #4]
 8004662:	6852      	ldr	r2, [r2, #4]
 8004664:	3210      	adds	r2, #16
 8004666:	6013      	str	r3, [r2, #0]
 8004668:	3708      	adds	r7, #8
 800466a:	46bd      	mov	sp, r7
 800466c:	bdb0      	pop	{r4, r5, r7, pc}
 800466e:	bf00      	nop
 8004670:	0800923c 	.word	0x0800923c
 8004674:	08009234 	.word	0x08009234
 8004678:	080091f0 	.word	0x080091f0

0800467c <stm32__gpio__toggle>:
 800467c:	b5b0      	push	{r4, r5, r7, lr}
 800467e:	b082      	sub	sp, #8
 8004680:	af00      	add	r7, sp, #0
 8004682:	6078      	str	r0, [r7, #4]
 8004684:	6878      	ldr	r0, [r7, #4]
 8004686:	f7ff fe3b 	bl	8004300 <stm32__gpio__mode>
 800468a:	4603      	mov	r3, r0
 800468c:	2b02      	cmp	r3, #2
 800468e:	d005      	beq.n	800469c <stm32__gpio__toggle+0x20>
 8004690:	4c16      	ldr	r4, [pc, #88]	; (80046ec <stm32__gpio__toggle+0x70>)
 8004692:	4d17      	ldr	r5, [pc, #92]	; (80046f0 <stm32__gpio__toggle+0x74>)
 8004694:	4620      	mov	r0, r4
 8004696:	4629      	mov	r1, r5
 8004698:	f003 fcca 	bl	8008030 <system__assertions__raise_assert_failure>
 800469c:	687b      	ldr	r3, [r7, #4]
 800469e:	685b      	ldr	r3, [r3, #4]
 80046a0:	2b00      	cmp	r3, #0
 80046a2:	d104      	bne.n	80046ae <stm32__gpio__toggle+0x32>
 80046a4:	4813      	ldr	r0, [pc, #76]	; (80046f4 <stm32__gpio__toggle+0x78>)
 80046a6:	f44f 7187 	mov.w	r1, #270	; 0x10e
 80046aa:	f003 fc89 	bl	8007fc0 <__gnat_last_chance_handler>
 80046ae:	687b      	ldr	r3, [r7, #4]
 80046b0:	685b      	ldr	r3, [r3, #4]
 80046b2:	2b00      	cmp	r3, #0
 80046b4:	d104      	bne.n	80046c0 <stm32__gpio__toggle+0x44>
 80046b6:	480f      	ldr	r0, [pc, #60]	; (80046f4 <stm32__gpio__toggle+0x78>)
 80046b8:	f44f 7187 	mov.w	r1, #270	; 0x10e
 80046bc:	f003 fc80 	bl	8007fc0 <__gnat_last_chance_handler>
 80046c0:	687b      	ldr	r3, [r7, #4]
 80046c2:	685b      	ldr	r3, [r3, #4]
 80046c4:	330c      	adds	r3, #12
 80046c6:	681b      	ldr	r3, [r3, #0]
 80046c8:	687a      	ldr	r2, [r7, #4]
 80046ca:	6852      	ldr	r2, [r2, #4]
 80046cc:	320c      	adds	r2, #12
 80046ce:	6812      	ldr	r2, [r2, #0]
 80046d0:	b291      	uxth	r1, r2
 80046d2:	687a      	ldr	r2, [r7, #4]
 80046d4:	8912      	ldrh	r2, [r2, #8]
 80046d6:	404a      	eors	r2, r1
 80046d8:	b292      	uxth	r2, r2
 80046da:	f362 030f 	bfi	r3, r2, #0, #16
 80046de:	687a      	ldr	r2, [r7, #4]
 80046e0:	6852      	ldr	r2, [r2, #4]
 80046e2:	320c      	adds	r2, #12
 80046e4:	6013      	str	r3, [r2, #0]
 80046e6:	3708      	adds	r7, #8
 80046e8:	46bd      	mov	sp, r7
 80046ea:	bdb0      	pop	{r4, r5, r7, pc}
 80046ec:	08009270 	.word	0x08009270
 80046f0:	08009234 	.word	0x08009234
 80046f4:	080091f0 	.word	0x080091f0

080046f8 <stm32__gpio__locked>:
 80046f8:	b480      	push	{r7}
 80046fa:	b085      	sub	sp, #20
 80046fc:	af00      	add	r7, sp, #0
 80046fe:	6078      	str	r0, [r7, #4]
 8004700:	687b      	ldr	r3, [r7, #4]
 8004702:	891b      	ldrh	r3, [r3, #8]
 8004704:	81fb      	strh	r3, [r7, #14]
 8004706:	2301      	movs	r3, #1
 8004708:	bf00      	nop
 800470a:	4618      	mov	r0, r3
 800470c:	3714      	adds	r7, #20
 800470e:	46bd      	mov	sp, r7
 8004710:	f85d 7b04 	ldr.w	r7, [sp], #4
 8004714:	4770      	bx	lr
 8004716:	bf00      	nop

08004718 <stm32__gpio__lock_the_pin>:
 8004718:	b480      	push	{r7}
 800471a:	b085      	sub	sp, #20
 800471c:	af00      	add	r7, sp, #0
 800471e:	6078      	str	r0, [r7, #4]
 8004720:	460b      	mov	r3, r1
 8004722:	807b      	strh	r3, [r7, #2]
 8004724:	6879      	ldr	r1, [r7, #4]
 8004726:	8878      	ldrh	r0, [r7, #2]
 8004728:	f440 3380 	orr.w	r3, r0, #65536	; 0x10000
 800472c:	60fb      	str	r3, [r7, #12]
 800472e:	68fb      	ldr	r3, [r7, #12]
 8004730:	61cb      	str	r3, [r1, #28]
 8004732:	61c8      	str	r0, [r1, #28]
 8004734:	68fb      	ldr	r3, [r7, #12]
 8004736:	61cb      	str	r3, [r1, #28]
 8004738:	69cb      	ldr	r3, [r1, #28]
 800473a:	60fb      	str	r3, [r7, #12]
 800473c:	69cb      	ldr	r3, [r1, #28]
 800473e:	60fb      	str	r3, [r7, #12]
 8004740:	3714      	adds	r7, #20
 8004742:	46bd      	mov	sp, r7
 8004744:	f85d 7b04 	ldr.w	r7, [sp], #4
 8004748:	4770      	bx	lr
 800474a:	bf00      	nop

0800474c <stm32__gpio__lock___postconditions.5255>:
 800474c:	b5b0      	push	{r4, r5, r7, lr}
 800474e:	b082      	sub	sp, #8
 8004750:	af00      	add	r7, sp, #0
 8004752:	4663      	mov	r3, ip
 8004754:	f8c7 c004 	str.w	ip, [r7, #4]
 8004758:	681b      	ldr	r3, [r3, #0]
 800475a:	4618      	mov	r0, r3
 800475c:	f7ff ffcc 	bl	80046f8 <stm32__gpio__locked>
 8004760:	4603      	mov	r3, r0
 8004762:	f083 0301 	eor.w	r3, r3, #1
 8004766:	b2db      	uxtb	r3, r3
 8004768:	2b00      	cmp	r3, #0
 800476a:	d005      	beq.n	8004778 <stm32__gpio__lock___postconditions.5255+0x2c>
 800476c:	4c04      	ldr	r4, [pc, #16]	; (8004780 <stm32__gpio__lock___postconditions.5255+0x34>)
 800476e:	4d05      	ldr	r5, [pc, #20]	; (8004784 <stm32__gpio__lock___postconditions.5255+0x38>)
 8004770:	4620      	mov	r0, r4
 8004772:	4629      	mov	r1, r5
 8004774:	f003 fc5c 	bl	8008030 <system__assertions__raise_assert_failure>
 8004778:	3708      	adds	r7, #8
 800477a:	46bd      	mov	sp, r7
 800477c:	bdb0      	pop	{r4, r5, r7, pc}
 800477e:	bf00      	nop
 8004780:	080092a4 	.word	0x080092a4
 8004784:	080092d0 	.word	0x080092d0

08004788 <stm32__gpio__lock>:
 8004788:	b5b0      	push	{r4, r5, r7, lr}
 800478a:	b084      	sub	sp, #16
 800478c:	af00      	add	r7, sp, #0
 800478e:	6078      	str	r0, [r7, #4]
 8004790:	f107 0320 	add.w	r3, r7, #32
 8004794:	60fb      	str	r3, [r7, #12]
 8004796:	687b      	ldr	r3, [r7, #4]
 8004798:	60bb      	str	r3, [r7, #8]
 800479a:	68bb      	ldr	r3, [r7, #8]
 800479c:	4618      	mov	r0, r3
 800479e:	f7ff ffab 	bl	80046f8 <stm32__gpio__locked>
 80047a2:	4603      	mov	r3, r0
 80047a4:	2b00      	cmp	r3, #0
 80047a6:	d005      	beq.n	80047b4 <stm32__gpio__lock+0x2c>
 80047a8:	4c0f      	ldr	r4, [pc, #60]	; (80047e8 <stm32__gpio__lock+0x60>)
 80047aa:	4d10      	ldr	r5, [pc, #64]	; (80047ec <stm32__gpio__lock+0x64>)
 80047ac:	4620      	mov	r0, r4
 80047ae:	4629      	mov	r1, r5
 80047b0:	f003 fc3e 	bl	8008030 <system__assertions__raise_assert_failure>
 80047b4:	68bb      	ldr	r3, [r7, #8]
 80047b6:	685b      	ldr	r3, [r3, #4]
 80047b8:	2b00      	cmp	r3, #0
 80047ba:	d104      	bne.n	80047c6 <stm32__gpio__lock+0x3e>
 80047bc:	480c      	ldr	r0, [pc, #48]	; (80047f0 <stm32__gpio__lock+0x68>)
 80047be:	f44f 71b4 	mov.w	r1, #360	; 0x168
 80047c2:	f003 fbfd 	bl	8007fc0 <__gnat_last_chance_handler>
 80047c6:	68bb      	ldr	r3, [r7, #8]
 80047c8:	685a      	ldr	r2, [r3, #4]
 80047ca:	68bb      	ldr	r3, [r7, #8]
 80047cc:	891b      	ldrh	r3, [r3, #8]
 80047ce:	4610      	mov	r0, r2
 80047d0:	4619      	mov	r1, r3
 80047d2:	f7ff ffa1 	bl	8004718 <stm32__gpio__lock_the_pin>
 80047d6:	f107 0308 	add.w	r3, r7, #8
 80047da:	469c      	mov	ip, r3
 80047dc:	f7ff ffb6 	bl	800474c <stm32__gpio__lock___postconditions.5255>
 80047e0:	3710      	adds	r7, #16
 80047e2:	46bd      	mov	sp, r7
 80047e4:	bdb0      	pop	{r4, r5, r7, pc}
 80047e6:	bf00      	nop
 80047e8:	080092d8 	.word	0x080092d8
 80047ec:	08009304 	.word	0x08009304
 80047f0:	080091f0 	.word	0x080091f0

080047f4 <stm32__gpio__configure_io>:
 80047f4:	b580      	push	{r7, lr}
 80047f6:	b084      	sub	sp, #16
 80047f8:	af00      	add	r7, sp, #0
 80047fa:	6078      	str	r0, [r7, #4]
 80047fc:	6039      	str	r1, [r7, #0]
 80047fe:	687b      	ldr	r3, [r7, #4]
 8004800:	891b      	ldrh	r3, [r3, #8]
 8004802:	4618      	mov	r0, r3
 8004804:	2101      	movs	r1, #1
 8004806:	f7ff fcd9 	bl	80041bc <stm32__gpio__gpio_pinRP>
 800480a:	4603      	mov	r3, r0
 800480c:	2b00      	cmp	r3, #0
 800480e:	db01      	blt.n	8004814 <stm32__gpio__configure_io+0x20>
 8004810:	2b0f      	cmp	r3, #15
 8004812:	dd04      	ble.n	800481e <stm32__gpio__configure_io+0x2a>
 8004814:	4861      	ldr	r0, [pc, #388]	; (800499c <stm32__gpio__configure_io+0x1a8>)
 8004816:	f44f 71c0 	mov.w	r1, #384	; 0x180
 800481a:	f003 fbd1 	bl	8007fc0 <__gnat_last_chance_handler>
 800481e:	687b      	ldr	r3, [r7, #4]
 8004820:	891b      	ldrh	r3, [r3, #8]
 8004822:	4618      	mov	r0, r3
 8004824:	2101      	movs	r1, #1
 8004826:	f7ff fcc9 	bl	80041bc <stm32__gpio__gpio_pinRP>
 800482a:	4603      	mov	r3, r0
 800482c:	60bb      	str	r3, [r7, #8]
 800482e:	787b      	ldrb	r3, [r7, #1]
 8004830:	2b01      	cmp	r3, #1
 8004832:	d904      	bls.n	800483e <stm32__gpio__configure_io+0x4a>
 8004834:	4859      	ldr	r0, [pc, #356]	; (800499c <stm32__gpio__configure_io+0x1a8>)
 8004836:	f44f 71c3 	mov.w	r1, #390	; 0x186
 800483a:	f003 fbc1 	bl	8007fc0 <__gnat_last_chance_handler>
 800483e:	787b      	ldrb	r3, [r7, #1]
 8004840:	2b00      	cmp	r3, #0
 8004842:	d002      	beq.n	800484a <stm32__gpio__configure_io+0x56>
 8004844:	2b01      	cmp	r3, #1
 8004846:	d003      	beq.n	8004850 <stm32__gpio__configure_io+0x5c>
 8004848:	e005      	b.n	8004856 <stm32__gpio__configure_io+0x62>
 800484a:	2300      	movs	r3, #0
 800484c:	737b      	strb	r3, [r7, #13]
 800484e:	e002      	b.n	8004856 <stm32__gpio__configure_io+0x62>
 8004850:	2304      	movs	r3, #4
 8004852:	737b      	strb	r3, [r7, #13]
 8004854:	e7ff      	b.n	8004856 <stm32__gpio__configure_io+0x62>
 8004856:	bf00      	nop
 8004858:	783b      	ldrb	r3, [r7, #0]
 800485a:	2b01      	cmp	r3, #1
 800485c:	d11e      	bne.n	800489c <stm32__gpio__configure_io+0xa8>
 800485e:	78bb      	ldrb	r3, [r7, #2]
 8004860:	2b02      	cmp	r3, #2
 8004862:	d904      	bls.n	800486e <stm32__gpio__configure_io+0x7a>
 8004864:	484d      	ldr	r0, [pc, #308]	; (800499c <stm32__gpio__configure_io+0x1a8>)
 8004866:	f44f 71c8 	mov.w	r1, #400	; 0x190
 800486a:	f003 fba9 	bl	8007fc0 <__gnat_last_chance_handler>
 800486e:	78bb      	ldrb	r3, [r7, #2]
 8004870:	2b01      	cmp	r3, #1
 8004872:	d007      	beq.n	8004884 <stm32__gpio__configure_io+0x90>
 8004874:	2b01      	cmp	r3, #1
 8004876:	d302      	bcc.n	800487e <stm32__gpio__configure_io+0x8a>
 8004878:	2b02      	cmp	r3, #2
 800487a:	d006      	beq.n	800488a <stm32__gpio__configure_io+0x96>
 800487c:	e008      	b.n	8004890 <stm32__gpio__configure_io+0x9c>
 800487e:	2302      	movs	r3, #2
 8004880:	73fb      	strb	r3, [r7, #15]
 8004882:	e005      	b.n	8004890 <stm32__gpio__configure_io+0x9c>
 8004884:	2301      	movs	r3, #1
 8004886:	73fb      	strb	r3, [r7, #15]
 8004888:	e002      	b.n	8004890 <stm32__gpio__configure_io+0x9c>
 800488a:	2303      	movs	r3, #3
 800488c:	73fb      	strb	r3, [r7, #15]
 800488e:	e7ff      	b.n	8004890 <stm32__gpio__configure_io+0x9c>
 8004890:	bf00      	nop
 8004892:	7b7a      	ldrb	r2, [r7, #13]
 8004894:	7bfb      	ldrb	r3, [r7, #15]
 8004896:	4313      	orrs	r3, r2
 8004898:	733b      	strb	r3, [r7, #12]
 800489a:	e01c      	b.n	80048d6 <stm32__gpio__configure_io+0xe2>
 800489c:	2300      	movs	r3, #0
 800489e:	73fb      	strb	r3, [r7, #15]
 80048a0:	78fb      	ldrb	r3, [r7, #3]
 80048a2:	2b02      	cmp	r3, #2
 80048a4:	d904      	bls.n	80048b0 <stm32__gpio__configure_io+0xbc>
 80048a6:	483d      	ldr	r0, [pc, #244]	; (800499c <stm32__gpio__configure_io+0x1a8>)
 80048a8:	f240 119d 	movw	r1, #413	; 0x19d
 80048ac:	f003 fb88 	bl	8007fc0 <__gnat_last_chance_handler>
 80048b0:	78fb      	ldrb	r3, [r7, #3]
 80048b2:	2b00      	cmp	r3, #0
 80048b4:	d002      	beq.n	80048bc <stm32__gpio__configure_io+0xc8>
 80048b6:	2b01      	cmp	r3, #1
 80048b8:	d003      	beq.n	80048c2 <stm32__gpio__configure_io+0xce>
 80048ba:	e005      	b.n	80048c8 <stm32__gpio__configure_io+0xd4>
 80048bc:	2304      	movs	r3, #4
 80048be:	73bb      	strb	r3, [r7, #14]
 80048c0:	e004      	b.n	80048cc <stm32__gpio__configure_io+0xd8>
 80048c2:	2308      	movs	r3, #8
 80048c4:	73bb      	strb	r3, [r7, #14]
 80048c6:	e001      	b.n	80048cc <stm32__gpio__configure_io+0xd8>
 80048c8:	2308      	movs	r3, #8
 80048ca:	73bb      	strb	r3, [r7, #14]
 80048cc:	bf00      	nop
 80048ce:	7bba      	ldrb	r2, [r7, #14]
 80048d0:	7bfb      	ldrb	r3, [r7, #15]
 80048d2:	4313      	orrs	r3, r2
 80048d4:	733b      	strb	r3, [r7, #12]
 80048d6:	68bb      	ldr	r3, [r7, #8]
 80048d8:	2b07      	cmp	r3, #7
 80048da:	dc2b      	bgt.n	8004934 <stm32__gpio__configure_io+0x140>
 80048dc:	687b      	ldr	r3, [r7, #4]
 80048de:	685b      	ldr	r3, [r3, #4]
 80048e0:	2b00      	cmp	r3, #0
 80048e2:	d104      	bne.n	80048ee <stm32__gpio__configure_io+0xfa>
 80048e4:	482d      	ldr	r0, [pc, #180]	; (800499c <stm32__gpio__configure_io+0x1a8>)
 80048e6:	f44f 71d4 	mov.w	r1, #424	; 0x1a8
 80048ea:	f003 fb69 	bl	8007fc0 <__gnat_last_chance_handler>
 80048ee:	68bb      	ldr	r3, [r7, #8]
 80048f0:	2b07      	cmp	r3, #7
 80048f2:	dd04      	ble.n	80048fe <stm32__gpio__configure_io+0x10a>
 80048f4:	4829      	ldr	r0, [pc, #164]	; (800499c <stm32__gpio__configure_io+0x1a8>)
 80048f6:	f44f 71d4 	mov.w	r1, #424	; 0x1a8
 80048fa:	f003 fb61 	bl	8007fc0 <__gnat_last_chance_handler>
 80048fe:	687b      	ldr	r3, [r7, #4]
 8004900:	685b      	ldr	r3, [r3, #4]
 8004902:	681b      	ldr	r3, [r3, #0]
 8004904:	461a      	mov	r2, r3
 8004906:	687b      	ldr	r3, [r7, #4]
 8004908:	685b      	ldr	r3, [r3, #4]
 800490a:	681b      	ldr	r3, [r3, #0]
 800490c:	4619      	mov	r1, r3
 800490e:	68bb      	ldr	r3, [r7, #8]
 8004910:	009b      	lsls	r3, r3, #2
 8004912:	220f      	movs	r2, #15
 8004914:	fa02 f303 	lsl.w	r3, r2, r3
 8004918:	43db      	mvns	r3, r3
 800491a:	ea01 0203 	and.w	r2, r1, r3
 800491e:	7b39      	ldrb	r1, [r7, #12]
 8004920:	68bb      	ldr	r3, [r7, #8]
 8004922:	009b      	lsls	r3, r3, #2
 8004924:	fa01 f303 	lsl.w	r3, r1, r3
 8004928:	4313      	orrs	r3, r2
 800492a:	461a      	mov	r2, r3
 800492c:	687b      	ldr	r3, [r7, #4]
 800492e:	685b      	ldr	r3, [r3, #4]
 8004930:	601a      	str	r2, [r3, #0]
 8004932:	e02f      	b.n	8004994 <stm32__gpio__configure_io+0x1a0>
 8004934:	687b      	ldr	r3, [r7, #4]
 8004936:	685b      	ldr	r3, [r3, #4]
 8004938:	2b00      	cmp	r3, #0
 800493a:	d104      	bne.n	8004946 <stm32__gpio__configure_io+0x152>
 800493c:	4817      	ldr	r0, [pc, #92]	; (800499c <stm32__gpio__configure_io+0x1a8>)
 800493e:	f44f 71d5 	mov.w	r1, #426	; 0x1aa
 8004942:	f003 fb3d 	bl	8007fc0 <__gnat_last_chance_handler>
 8004946:	68bb      	ldr	r3, [r7, #8]
 8004948:	2b07      	cmp	r3, #7
 800494a:	dc04      	bgt.n	8004956 <stm32__gpio__configure_io+0x162>
 800494c:	4813      	ldr	r0, [pc, #76]	; (800499c <stm32__gpio__configure_io+0x1a8>)
 800494e:	f44f 71d5 	mov.w	r1, #426	; 0x1aa
 8004952:	f003 fb35 	bl	8007fc0 <__gnat_last_chance_handler>
 8004956:	687b      	ldr	r3, [r7, #4]
 8004958:	685b      	ldr	r3, [r3, #4]
 800495a:	3304      	adds	r3, #4
 800495c:	681b      	ldr	r3, [r3, #0]
 800495e:	461a      	mov	r2, r3
 8004960:	687b      	ldr	r3, [r7, #4]
 8004962:	685b      	ldr	r3, [r3, #4]
 8004964:	3304      	adds	r3, #4
 8004966:	681b      	ldr	r3, [r3, #0]
 8004968:	4619      	mov	r1, r3
 800496a:	68bb      	ldr	r3, [r7, #8]
 800496c:	3b08      	subs	r3, #8
 800496e:	009b      	lsls	r3, r3, #2
 8004970:	220f      	movs	r2, #15
 8004972:	fa02 f303 	lsl.w	r3, r2, r3
 8004976:	43db      	mvns	r3, r3
 8004978:	ea01 0203 	and.w	r2, r1, r3
 800497c:	7b39      	ldrb	r1, [r7, #12]
 800497e:	68bb      	ldr	r3, [r7, #8]
 8004980:	3b08      	subs	r3, #8
 8004982:	009b      	lsls	r3, r3, #2
 8004984:	fa01 f303 	lsl.w	r3, r1, r3
 8004988:	4313      	orrs	r3, r2
 800498a:	461a      	mov	r2, r3
 800498c:	687b      	ldr	r3, [r7, #4]
 800498e:	685b      	ldr	r3, [r3, #4]
 8004990:	3304      	adds	r3, #4
 8004992:	601a      	str	r2, [r3, #0]
 8004994:	3710      	adds	r7, #16
 8004996:	46bd      	mov	sp, r7
 8004998:	bd80      	pop	{r7, pc}
 800499a:	bf00      	nop
 800499c:	080091f0 	.word	0x080091f0

080049a0 <stm32__gpio__configure_alternate_function>:
 80049a0:	b580      	push	{r7, lr}
 80049a2:	b084      	sub	sp, #16
 80049a4:	af00      	add	r7, sp, #0
 80049a6:	6078      	str	r0, [r7, #4]
 80049a8:	460b      	mov	r3, r1
 80049aa:	70fb      	strb	r3, [r7, #3]
 80049ac:	687b      	ldr	r3, [r7, #4]
 80049ae:	891b      	ldrh	r3, [r3, #8]
 80049b0:	4618      	mov	r0, r3
 80049b2:	2101      	movs	r1, #1
 80049b4:	f7ff fc02 	bl	80041bc <stm32__gpio__gpio_pinRP>
 80049b8:	4603      	mov	r3, r0
 80049ba:	2b00      	cmp	r3, #0
 80049bc:	db01      	blt.n	80049c2 <stm32__gpio__configure_alternate_function+0x22>
 80049be:	2b0f      	cmp	r3, #15
 80049c0:	dd04      	ble.n	80049cc <stm32__gpio__configure_alternate_function+0x2c>
 80049c2:	4808      	ldr	r0, [pc, #32]	; (80049e4 <stm32__gpio__configure_alternate_function+0x44>)
 80049c4:	f44f 71e2 	mov.w	r1, #452	; 0x1c4
 80049c8:	f003 fafa 	bl	8007fc0 <__gnat_last_chance_handler>
 80049cc:	687b      	ldr	r3, [r7, #4]
 80049ce:	891b      	ldrh	r3, [r3, #8]
 80049d0:	4618      	mov	r0, r3
 80049d2:	2101      	movs	r1, #1
 80049d4:	f7ff fbf2 	bl	80041bc <stm32__gpio__gpio_pinRP>
 80049d8:	4603      	mov	r3, r0
 80049da:	60fb      	str	r3, [r7, #12]
 80049dc:	bf00      	nop
 80049de:	3710      	adds	r7, #16
 80049e0:	46bd      	mov	sp, r7
 80049e2:	bd80      	pop	{r7, pc}
 80049e4:	080091f0 	.word	0x080091f0

080049e8 <stm32__gpio__configure_af_swd>:
 80049e8:	b480      	push	{r7}
 80049ea:	af00      	add	r7, sp, #0
 80049ec:	4b06      	ldr	r3, [pc, #24]	; (8004a08 <stm32__gpio__configure_af_swd+0x20>)
 80049ee:	3304      	adds	r3, #4
 80049f0:	681b      	ldr	r3, [r3, #0]
 80049f2:	2202      	movs	r2, #2
 80049f4:	f362 631a 	bfi	r3, r2, #24, #3
 80049f8:	4a03      	ldr	r2, [pc, #12]	; (8004a08 <stm32__gpio__configure_af_swd+0x20>)
 80049fa:	3204      	adds	r2, #4
 80049fc:	6013      	str	r3, [r2, #0]
 80049fe:	46bd      	mov	sp, r7
 8004a00:	f85d 7b04 	ldr.w	r7, [sp], #4
 8004a04:	4770      	bx	lr
 8004a06:	bf00      	nop
 8004a08:	40010000 	.word	0x40010000

08004a0c <stm32__gpio__interrupt_line_number>:
 8004a0c:	b580      	push	{r7, lr}
 8004a0e:	b082      	sub	sp, #8
 8004a10:	af00      	add	r7, sp, #0
 8004a12:	6078      	str	r0, [r7, #4]
 8004a14:	687b      	ldr	r3, [r7, #4]
 8004a16:	891b      	ldrh	r3, [r3, #8]
 8004a18:	4618      	mov	r0, r3
 8004a1a:	2101      	movs	r1, #1
 8004a1c:	f7ff fbce 	bl	80041bc <stm32__gpio__gpio_pinRP>
 8004a20:	4603      	mov	r3, r0
 8004a22:	2b00      	cmp	r3, #0
 8004a24:	db01      	blt.n	8004a2a <stm32__gpio__interrupt_line_number+0x1e>
 8004a26:	2b16      	cmp	r3, #22
 8004a28:	dd04      	ble.n	8004a34 <stm32__gpio__interrupt_line_number+0x28>
 8004a2a:	4809      	ldr	r0, [pc, #36]	; (8004a50 <stm32__gpio__interrupt_line_number+0x44>)
 8004a2c:	f240 11e9 	movw	r1, #489	; 0x1e9
 8004a30:	f003 fac6 	bl	8007fc0 <__gnat_last_chance_handler>
 8004a34:	687b      	ldr	r3, [r7, #4]
 8004a36:	891b      	ldrh	r3, [r3, #8]
 8004a38:	4618      	mov	r0, r3
 8004a3a:	2101      	movs	r1, #1
 8004a3c:	f7ff fbbe 	bl	80041bc <stm32__gpio__gpio_pinRP>
 8004a40:	4603      	mov	r3, r0
 8004a42:	b2db      	uxtb	r3, r3
 8004a44:	bf00      	nop
 8004a46:	4618      	mov	r0, r3
 8004a48:	3708      	adds	r7, #8
 8004a4a:	46bd      	mov	sp, r7
 8004a4c:	bd80      	pop	{r7, pc}
 8004a4e:	bf00      	nop
 8004a50:	080091f0 	.word	0x080091f0

08004a54 <stm32__gpio__configure_trigger>:
 8004a54:	b580      	push	{r7, lr}
 8004a56:	b084      	sub	sp, #16
 8004a58:	af00      	add	r7, sp, #0
 8004a5a:	6078      	str	r0, [r7, #4]
 8004a5c:	460b      	mov	r3, r1
 8004a5e:	70fb      	strb	r3, [r7, #3]
 8004a60:	687b      	ldr	r3, [r7, #4]
 8004a62:	891b      	ldrh	r3, [r3, #8]
 8004a64:	4618      	mov	r0, r3
 8004a66:	2101      	movs	r1, #1
 8004a68:	f7ff fba8 	bl	80041bc <stm32__gpio__gpio_pinRP>
 8004a6c:	4603      	mov	r3, r0
 8004a6e:	2b00      	cmp	r3, #0
 8004a70:	db01      	blt.n	8004a76 <stm32__gpio__configure_trigger+0x22>
 8004a72:	2b16      	cmp	r3, #22
 8004a74:	dd04      	ble.n	8004a80 <stm32__gpio__configure_trigger+0x2c>
 8004a76:	4808      	ldr	r0, [pc, #32]	; (8004a98 <stm32__gpio__configure_trigger+0x44>)
 8004a78:	f240 11f5 	movw	r1, #501	; 0x1f5
 8004a7c:	f003 faa0 	bl	8007fc0 <__gnat_last_chance_handler>
 8004a80:	687b      	ldr	r3, [r7, #4]
 8004a82:	891b      	ldrh	r3, [r3, #8]
 8004a84:	4618      	mov	r0, r3
 8004a86:	2101      	movs	r1, #1
 8004a88:	f7ff fb98 	bl	80041bc <stm32__gpio__gpio_pinRP>
 8004a8c:	4603      	mov	r3, r0
 8004a8e:	73fb      	strb	r3, [r7, #15]
 8004a90:	bf00      	nop
 8004a92:	3710      	adds	r7, #16
 8004a94:	46bd      	mov	sp, r7
 8004a96:	bd80      	pop	{r7, pc}
 8004a98:	080091f0 	.word	0x080091f0

08004a9c <stm32__spi__spi_portIP>:
 8004a9c:	b480      	push	{r7}
 8004a9e:	b085      	sub	sp, #20
 8004aa0:	af00      	add	r7, sp, #0
 8004aa2:	60f8      	str	r0, [r7, #12]
 8004aa4:	60b9      	str	r1, [r7, #8]
 8004aa6:	4613      	mov	r3, r2
 8004aa8:	71fb      	strb	r3, [r7, #7]
 8004aaa:	79fb      	ldrb	r3, [r7, #7]
 8004aac:	2b00      	cmp	r3, #0
 8004aae:	d002      	beq.n	8004ab6 <stm32__spi__spi_portIP+0x1a>
 8004ab0:	68fb      	ldr	r3, [r7, #12]
 8004ab2:	4a05      	ldr	r2, [pc, #20]	; (8004ac8 <stm32__spi__spi_portIP+0x2c>)
 8004ab4:	601a      	str	r2, [r3, #0]
 8004ab6:	68fb      	ldr	r3, [r7, #12]
 8004ab8:	68ba      	ldr	r2, [r7, #8]
 8004aba:	605a      	str	r2, [r3, #4]
 8004abc:	3714      	adds	r7, #20
 8004abe:	46bd      	mov	sp, r7
 8004ac0:	f85d 7b04 	ldr.w	r7, [sp], #4
 8004ac4:	4770      	bx	lr
 8004ac6:	bf00      	nop
 8004ac8:	08009360 	.word	0x08009360

08004acc <stm32__spi___size__2>:
 8004acc:	b490      	push	{r4, r7}
 8004ace:	b082      	sub	sp, #8
 8004ad0:	af00      	add	r7, sp, #0
 8004ad2:	6078      	str	r0, [r7, #4]
 8004ad4:	f04f 0340 	mov.w	r3, #64	; 0x40
 8004ad8:	f04f 0400 	mov.w	r4, #0
 8004adc:	4618      	mov	r0, r3
 8004ade:	4621      	mov	r1, r4
 8004ae0:	3708      	adds	r7, #8
 8004ae2:	46bd      	mov	sp, r7
 8004ae4:	bc90      	pop	{r4, r7}
 8004ae6:	4770      	bx	lr

08004ae8 <stm32__spi__configure>:
 8004ae8:	b580      	push	{r7, lr}
 8004aea:	b082      	sub	sp, #8
 8004aec:	af00      	add	r7, sp, #0
 8004aee:	6078      	str	r0, [r7, #4]
 8004af0:	6039      	str	r1, [r7, #0]
 8004af2:	683b      	ldr	r3, [r7, #0]
 8004af4:	785b      	ldrb	r3, [r3, #1]
 8004af6:	2b01      	cmp	r3, #1
 8004af8:	d903      	bls.n	8004b02 <stm32__spi__configure+0x1a>
 8004afa:	4896      	ldr	r0, [pc, #600]	; (8004d54 <stm32__spi__configure+0x26c>)
 8004afc:	214b      	movs	r1, #75	; 0x4b
 8004afe:	f003 fa5f 	bl	8007fc0 <__gnat_last_chance_handler>
 8004b02:	683b      	ldr	r3, [r7, #0]
 8004b04:	785b      	ldrb	r3, [r3, #1]
 8004b06:	2b00      	cmp	r3, #0
 8004b08:	d114      	bne.n	8004b34 <stm32__spi__configure+0x4c>
 8004b0a:	687b      	ldr	r3, [r7, #4]
 8004b0c:	685b      	ldr	r3, [r3, #4]
 8004b0e:	681b      	ldr	r3, [r3, #0]
 8004b10:	461a      	mov	r2, r3
 8004b12:	4613      	mov	r3, r2
 8004b14:	f043 0204 	orr.w	r2, r3, #4
 8004b18:	687b      	ldr	r3, [r7, #4]
 8004b1a:	685b      	ldr	r3, [r3, #4]
 8004b1c:	601a      	str	r2, [r3, #0]
 8004b1e:	687b      	ldr	r3, [r7, #4]
 8004b20:	685b      	ldr	r3, [r3, #4]
 8004b22:	681b      	ldr	r3, [r3, #0]
 8004b24:	461a      	mov	r2, r3
 8004b26:	4613      	mov	r3, r2
 8004b28:	f443 7280 	orr.w	r2, r3, #256	; 0x100
 8004b2c:	687b      	ldr	r3, [r7, #4]
 8004b2e:	685b      	ldr	r3, [r3, #4]
 8004b30:	601a      	str	r2, [r3, #0]
 8004b32:	e00f      	b.n	8004b54 <stm32__spi__configure+0x6c>
 8004b34:	687b      	ldr	r3, [r7, #4]
 8004b36:	685b      	ldr	r3, [r3, #4]
 8004b38:	681b      	ldr	r3, [r3, #0]
 8004b3a:	f36f 0382 	bfc	r3, #2, #1
 8004b3e:	687a      	ldr	r2, [r7, #4]
 8004b40:	6852      	ldr	r2, [r2, #4]
 8004b42:	6013      	str	r3, [r2, #0]
 8004b44:	687b      	ldr	r3, [r7, #4]
 8004b46:	685b      	ldr	r3, [r3, #4]
 8004b48:	681b      	ldr	r3, [r3, #0]
 8004b4a:	f36f 2308 	bfc	r3, #8, #1
 8004b4e:	687a      	ldr	r2, [r7, #4]
 8004b50:	6852      	ldr	r2, [r2, #4]
 8004b52:	6013      	str	r3, [r2, #0]
 8004b54:	683b      	ldr	r3, [r7, #0]
 8004b56:	781b      	ldrb	r3, [r3, #0]
 8004b58:	2b03      	cmp	r3, #3
 8004b5a:	d903      	bls.n	8004b64 <stm32__spi__configure+0x7c>
 8004b5c:	487d      	ldr	r0, [pc, #500]	; (8004d54 <stm32__spi__configure+0x26c>)
 8004b5e:	2154      	movs	r1, #84	; 0x54
 8004b60:	f003 fa2e 	bl	8007fc0 <__gnat_last_chance_handler>
 8004b64:	683b      	ldr	r3, [r7, #0]
 8004b66:	781b      	ldrb	r3, [r3, #0]
 8004b68:	2b01      	cmp	r3, #1
 8004b6a:	d01d      	beq.n	8004ba8 <stm32__spi__configure+0xc0>
 8004b6c:	2b01      	cmp	r3, #1
 8004b6e:	d302      	bcc.n	8004b76 <stm32__spi__configure+0x8e>
 8004b70:	2b02      	cmp	r3, #2
 8004b72:	d034      	beq.n	8004bde <stm32__spi__configure+0xf6>
 8004b74:	e04e      	b.n	8004c14 <stm32__spi__configure+0x12c>
 8004b76:	687b      	ldr	r3, [r7, #4]
 8004b78:	685b      	ldr	r3, [r3, #4]
 8004b7a:	681b      	ldr	r3, [r3, #0]
 8004b7c:	f36f 33cf 	bfc	r3, #15, #1
 8004b80:	687a      	ldr	r2, [r7, #4]
 8004b82:	6852      	ldr	r2, [r2, #4]
 8004b84:	6013      	str	r3, [r2, #0]
 8004b86:	687b      	ldr	r3, [r7, #4]
 8004b88:	685b      	ldr	r3, [r3, #4]
 8004b8a:	681b      	ldr	r3, [r3, #0]
 8004b8c:	f36f 338e 	bfc	r3, #14, #1
 8004b90:	687a      	ldr	r2, [r7, #4]
 8004b92:	6852      	ldr	r2, [r2, #4]
 8004b94:	6013      	str	r3, [r2, #0]
 8004b96:	687b      	ldr	r3, [r7, #4]
 8004b98:	685b      	ldr	r3, [r3, #4]
 8004b9a:	681b      	ldr	r3, [r3, #0]
 8004b9c:	f36f 238a 	bfc	r3, #10, #1
 8004ba0:	687a      	ldr	r2, [r7, #4]
 8004ba2:	6852      	ldr	r2, [r2, #4]
 8004ba4:	6013      	str	r3, [r2, #0]
 8004ba6:	e051      	b.n	8004c4c <stm32__spi__configure+0x164>
 8004ba8:	687b      	ldr	r3, [r7, #4]
 8004baa:	685b      	ldr	r3, [r3, #4]
 8004bac:	681b      	ldr	r3, [r3, #0]
 8004bae:	f36f 33cf 	bfc	r3, #15, #1
 8004bb2:	687a      	ldr	r2, [r7, #4]
 8004bb4:	6852      	ldr	r2, [r2, #4]
 8004bb6:	6013      	str	r3, [r2, #0]
 8004bb8:	687b      	ldr	r3, [r7, #4]
 8004bba:	685b      	ldr	r3, [r3, #4]
 8004bbc:	681b      	ldr	r3, [r3, #0]
 8004bbe:	f36f 338e 	bfc	r3, #14, #1
 8004bc2:	687a      	ldr	r2, [r7, #4]
 8004bc4:	6852      	ldr	r2, [r2, #4]
 8004bc6:	6013      	str	r3, [r2, #0]
 8004bc8:	687b      	ldr	r3, [r7, #4]
 8004bca:	685b      	ldr	r3, [r3, #4]
 8004bcc:	681b      	ldr	r3, [r3, #0]
 8004bce:	461a      	mov	r2, r3
 8004bd0:	4613      	mov	r3, r2
 8004bd2:	f443 6280 	orr.w	r2, r3, #1024	; 0x400
 8004bd6:	687b      	ldr	r3, [r7, #4]
 8004bd8:	685b      	ldr	r3, [r3, #4]
 8004bda:	601a      	str	r2, [r3, #0]
 8004bdc:	e036      	b.n	8004c4c <stm32__spi__configure+0x164>
 8004bde:	687b      	ldr	r3, [r7, #4]
 8004be0:	685b      	ldr	r3, [r3, #4]
 8004be2:	681b      	ldr	r3, [r3, #0]
 8004be4:	461a      	mov	r2, r3
 8004be6:	4613      	mov	r3, r2
 8004be8:	f443 4200 	orr.w	r2, r3, #32768	; 0x8000
 8004bec:	687b      	ldr	r3, [r7, #4]
 8004bee:	685b      	ldr	r3, [r3, #4]
 8004bf0:	601a      	str	r2, [r3, #0]
 8004bf2:	687b      	ldr	r3, [r7, #4]
 8004bf4:	685b      	ldr	r3, [r3, #4]
 8004bf6:	681b      	ldr	r3, [r3, #0]
 8004bf8:	f36f 338e 	bfc	r3, #14, #1
 8004bfc:	687a      	ldr	r2, [r7, #4]
 8004bfe:	6852      	ldr	r2, [r2, #4]
 8004c00:	6013      	str	r3, [r2, #0]
 8004c02:	687b      	ldr	r3, [r7, #4]
 8004c04:	685b      	ldr	r3, [r3, #4]
 8004c06:	681b      	ldr	r3, [r3, #0]
 8004c08:	f36f 238a 	bfc	r3, #10, #1
 8004c0c:	687a      	ldr	r2, [r7, #4]
 8004c0e:	6852      	ldr	r2, [r2, #4]
 8004c10:	6013      	str	r3, [r2, #0]
 8004c12:	e01b      	b.n	8004c4c <stm32__spi__configure+0x164>
 8004c14:	687b      	ldr	r3, [r7, #4]
 8004c16:	685b      	ldr	r3, [r3, #4]
 8004c18:	681b      	ldr	r3, [r3, #0]
 8004c1a:	461a      	mov	r2, r3
 8004c1c:	4613      	mov	r3, r2
 8004c1e:	f443 4200 	orr.w	r2, r3, #32768	; 0x8000
 8004c22:	687b      	ldr	r3, [r7, #4]
 8004c24:	685b      	ldr	r3, [r3, #4]
 8004c26:	601a      	str	r2, [r3, #0]
 8004c28:	687b      	ldr	r3, [r7, #4]
 8004c2a:	685b      	ldr	r3, [r3, #4]
 8004c2c:	681b      	ldr	r3, [r3, #0]
 8004c2e:	461a      	mov	r2, r3
 8004c30:	4613      	mov	r3, r2
 8004c32:	f443 4280 	orr.w	r2, r3, #16384	; 0x4000
 8004c36:	687b      	ldr	r3, [r7, #4]
 8004c38:	685b      	ldr	r3, [r3, #4]
 8004c3a:	601a      	str	r2, [r3, #0]
 8004c3c:	687b      	ldr	r3, [r7, #4]
 8004c3e:	685b      	ldr	r3, [r3, #4]
 8004c40:	681b      	ldr	r3, [r3, #0]
 8004c42:	f36f 238a 	bfc	r3, #10, #1
 8004c46:	687a      	ldr	r2, [r7, #4]
 8004c48:	6852      	ldr	r2, [r2, #4]
 8004c4a:	6013      	str	r3, [r2, #0]
 8004c4c:	bf00      	nop
 8004c4e:	687b      	ldr	r3, [r7, #4]
 8004c50:	685b      	ldr	r3, [r3, #4]
 8004c52:	681b      	ldr	r3, [r3, #0]
 8004c54:	683a      	ldr	r2, [r7, #0]
 8004c56:	7892      	ldrb	r2, [r2, #2]
 8004c58:	2a01      	cmp	r2, #1
 8004c5a:	bf0c      	ite	eq
 8004c5c:	2201      	moveq	r2, #1
 8004c5e:	2200      	movne	r2, #0
 8004c60:	b2d2      	uxtb	r2, r2
 8004c62:	f002 0201 	and.w	r2, r2, #1
 8004c66:	b2d2      	uxtb	r2, r2
 8004c68:	f362 23cb 	bfi	r3, r2, #11, #1
 8004c6c:	687a      	ldr	r2, [r7, #4]
 8004c6e:	6852      	ldr	r2, [r2, #4]
 8004c70:	6013      	str	r3, [r2, #0]
 8004c72:	687b      	ldr	r3, [r7, #4]
 8004c74:	685b      	ldr	r3, [r3, #4]
 8004c76:	681b      	ldr	r3, [r3, #0]
 8004c78:	683a      	ldr	r2, [r7, #0]
 8004c7a:	78d2      	ldrb	r2, [r2, #3]
 8004c7c:	2a00      	cmp	r2, #0
 8004c7e:	bf0c      	ite	eq
 8004c80:	2201      	moveq	r2, #1
 8004c82:	2200      	movne	r2, #0
 8004c84:	b2d2      	uxtb	r2, r2
 8004c86:	f002 0201 	and.w	r2, r2, #1
 8004c8a:	b2d2      	uxtb	r2, r2
 8004c8c:	f362 0341 	bfi	r3, r2, #1, #1
 8004c90:	687a      	ldr	r2, [r7, #4]
 8004c92:	6852      	ldr	r2, [r2, #4]
 8004c94:	6013      	str	r3, [r2, #0]
 8004c96:	687b      	ldr	r3, [r7, #4]
 8004c98:	685b      	ldr	r3, [r3, #4]
 8004c9a:	681b      	ldr	r3, [r3, #0]
 8004c9c:	683a      	ldr	r2, [r7, #0]
 8004c9e:	7912      	ldrb	r2, [r2, #4]
 8004ca0:	2a01      	cmp	r2, #1
 8004ca2:	bf0c      	ite	eq
 8004ca4:	2201      	moveq	r2, #1
 8004ca6:	2200      	movne	r2, #0
 8004ca8:	b2d2      	uxtb	r2, r2
 8004caa:	f002 0201 	and.w	r2, r2, #1
 8004cae:	b2d2      	uxtb	r2, r2
 8004cb0:	f362 0300 	bfi	r3, r2, #0, #1
 8004cb4:	687a      	ldr	r2, [r7, #4]
 8004cb6:	6852      	ldr	r2, [r2, #4]
 8004cb8:	6013      	str	r3, [r2, #0]
 8004cba:	687b      	ldr	r3, [r7, #4]
 8004cbc:	685b      	ldr	r3, [r3, #4]
 8004cbe:	681b      	ldr	r3, [r3, #0]
 8004cc0:	683a      	ldr	r2, [r7, #0]
 8004cc2:	7952      	ldrb	r2, [r2, #5]
 8004cc4:	2a00      	cmp	r2, #0
 8004cc6:	bf0c      	ite	eq
 8004cc8:	2201      	moveq	r2, #1
 8004cca:	2200      	movne	r2, #0
 8004ccc:	b2d2      	uxtb	r2, r2
 8004cce:	f002 0201 	and.w	r2, r2, #1
 8004cd2:	b2d2      	uxtb	r2, r2
 8004cd4:	f362 2349 	bfi	r3, r2, #9, #1
 8004cd8:	687a      	ldr	r2, [r7, #4]
 8004cda:	6852      	ldr	r2, [r2, #4]
 8004cdc:	6013      	str	r3, [r2, #0]
 8004cde:	687b      	ldr	r3, [r7, #4]
 8004ce0:	685b      	ldr	r3, [r3, #4]
 8004ce2:	681b      	ldr	r3, [r3, #0]
 8004ce4:	683a      	ldr	r2, [r7, #0]
 8004ce6:	7992      	ldrb	r2, [r2, #6]
 8004ce8:	4611      	mov	r1, r2
 8004cea:	4a1b      	ldr	r2, [pc, #108]	; (8004d58 <stm32__spi__configure+0x270>)
 8004cec:	5c52      	ldrb	r2, [r2, r1]
 8004cee:	f002 0207 	and.w	r2, r2, #7
 8004cf2:	b2d2      	uxtb	r2, r2
 8004cf4:	f362 03c5 	bfi	r3, r2, #3, #3
 8004cf8:	687a      	ldr	r2, [r7, #4]
 8004cfa:	6852      	ldr	r2, [r2, #4]
 8004cfc:	6013      	str	r3, [r2, #0]
 8004cfe:	687b      	ldr	r3, [r7, #4]
 8004d00:	685b      	ldr	r3, [r3, #4]
 8004d02:	681b      	ldr	r3, [r3, #0]
 8004d04:	683a      	ldr	r2, [r7, #0]
 8004d06:	79d2      	ldrb	r2, [r2, #7]
 8004d08:	2a01      	cmp	r2, #1
 8004d0a:	bf0c      	ite	eq
 8004d0c:	2201      	moveq	r2, #1
 8004d0e:	2200      	movne	r2, #0
 8004d10:	b2d2      	uxtb	r2, r2
 8004d12:	f002 0201 	and.w	r2, r2, #1
 8004d16:	b2d2      	uxtb	r2, r2
 8004d18:	f362 13c7 	bfi	r3, r2, #7, #1
 8004d1c:	687a      	ldr	r2, [r7, #4]
 8004d1e:	6852      	ldr	r2, [r2, #4]
 8004d20:	6013      	str	r3, [r2, #0]
 8004d22:	687b      	ldr	r3, [r7, #4]
 8004d24:	685b      	ldr	r3, [r3, #4]
 8004d26:	331c      	adds	r3, #28
 8004d28:	681b      	ldr	r3, [r3, #0]
 8004d2a:	f36f 23cb 	bfc	r3, #11, #1
 8004d2e:	687a      	ldr	r2, [r7, #4]
 8004d30:	6852      	ldr	r2, [r2, #4]
 8004d32:	321c      	adds	r2, #28
 8004d34:	6013      	str	r3, [r2, #0]
 8004d36:	687b      	ldr	r3, [r7, #4]
 8004d38:	685b      	ldr	r3, [r3, #4]
 8004d3a:	3310      	adds	r3, #16
 8004d3c:	681b      	ldr	r3, [r3, #0]
 8004d3e:	683a      	ldr	r2, [r7, #0]
 8004d40:	8912      	ldrh	r2, [r2, #8]
 8004d42:	f362 030f 	bfi	r3, r2, #0, #16
 8004d46:	687a      	ldr	r2, [r7, #4]
 8004d48:	6852      	ldr	r2, [r2, #4]
 8004d4a:	3210      	adds	r2, #16
 8004d4c:	6013      	str	r3, [r2, #0]
 8004d4e:	3708      	adds	r7, #8
 8004d50:	46bd      	mov	sp, r7
 8004d52:	bd80      	pop	{r7, pc}
 8004d54:	08009404 	.word	0x08009404
 8004d58:	080093fc 	.word	0x080093fc

08004d5c <stm32__spi__enable>:
 8004d5c:	b480      	push	{r7}
 8004d5e:	b083      	sub	sp, #12
 8004d60:	af00      	add	r7, sp, #0
 8004d62:	6078      	str	r0, [r7, #4]
 8004d64:	687b      	ldr	r3, [r7, #4]
 8004d66:	685b      	ldr	r3, [r3, #4]
 8004d68:	681b      	ldr	r3, [r3, #0]
 8004d6a:	461a      	mov	r2, r3
 8004d6c:	4613      	mov	r3, r2
 8004d6e:	f043 0240 	orr.w	r2, r3, #64	; 0x40
 8004d72:	687b      	ldr	r3, [r7, #4]
 8004d74:	685b      	ldr	r3, [r3, #4]
 8004d76:	601a      	str	r2, [r3, #0]
 8004d78:	370c      	adds	r7, #12
 8004d7a:	46bd      	mov	sp, r7
 8004d7c:	f85d 7b04 	ldr.w	r7, [sp], #4
 8004d80:	4770      	bx	lr
 8004d82:	bf00      	nop

08004d84 <stm32__spi__disable>:
 8004d84:	b480      	push	{r7}
 8004d86:	b083      	sub	sp, #12
 8004d88:	af00      	add	r7, sp, #0
 8004d8a:	6078      	str	r0, [r7, #4]
 8004d8c:	687b      	ldr	r3, [r7, #4]
 8004d8e:	685b      	ldr	r3, [r3, #4]
 8004d90:	681b      	ldr	r3, [r3, #0]
 8004d92:	f36f 1386 	bfc	r3, #6, #1
 8004d96:	687a      	ldr	r2, [r7, #4]
 8004d98:	6852      	ldr	r2, [r2, #4]
 8004d9a:	6013      	str	r3, [r2, #0]
 8004d9c:	370c      	adds	r7, #12
 8004d9e:	46bd      	mov	sp, r7
 8004da0:	f85d 7b04 	ldr.w	r7, [sp], #4
 8004da4:	4770      	bx	lr
 8004da6:	bf00      	nop

08004da8 <stm32__spi__enabled>:
 8004da8:	b480      	push	{r7}
 8004daa:	b083      	sub	sp, #12
 8004dac:	af00      	add	r7, sp, #0
 8004dae:	6078      	str	r0, [r7, #4]
 8004db0:	687b      	ldr	r3, [r7, #4]
 8004db2:	685b      	ldr	r3, [r3, #4]
 8004db4:	681b      	ldr	r3, [r3, #0]
 8004db6:	f3c3 1380 	ubfx	r3, r3, #6, #1
 8004dba:	b2db      	uxtb	r3, r3
 8004dbc:	bf00      	nop
 8004dbe:	4618      	mov	r0, r3
 8004dc0:	370c      	adds	r7, #12
 8004dc2:	46bd      	mov	sp, r7
 8004dc4:	f85d 7b04 	ldr.w	r7, [sp], #4
 8004dc8:	4770      	bx	lr
 8004dca:	bf00      	nop

08004dcc <stm32__spi__send>:
 8004dcc:	b480      	push	{r7}
 8004dce:	b083      	sub	sp, #12
 8004dd0:	af00      	add	r7, sp, #0
 8004dd2:	6078      	str	r0, [r7, #4]
 8004dd4:	460b      	mov	r3, r1
 8004dd6:	807b      	strh	r3, [r7, #2]
 8004dd8:	687b      	ldr	r3, [r7, #4]
 8004dda:	685b      	ldr	r3, [r3, #4]
 8004ddc:	330c      	adds	r3, #12
 8004dde:	681b      	ldr	r3, [r3, #0]
 8004de0:	887a      	ldrh	r2, [r7, #2]
 8004de2:	f362 030f 	bfi	r3, r2, #0, #16
 8004de6:	687a      	ldr	r2, [r7, #4]
 8004de8:	6852      	ldr	r2, [r2, #4]
 8004dea:	320c      	adds	r2, #12
 8004dec:	6013      	str	r3, [r2, #0]
 8004dee:	370c      	adds	r7, #12
 8004df0:	46bd      	mov	sp, r7
 8004df2:	f85d 7b04 	ldr.w	r7, [sp], #4
 8004df6:	4770      	bx	lr

08004df8 <stm32__spi__data>:
 8004df8:	b480      	push	{r7}
 8004dfa:	b083      	sub	sp, #12
 8004dfc:	af00      	add	r7, sp, #0
 8004dfe:	6078      	str	r0, [r7, #4]
 8004e00:	687b      	ldr	r3, [r7, #4]
 8004e02:	685b      	ldr	r3, [r3, #4]
 8004e04:	330c      	adds	r3, #12
 8004e06:	681b      	ldr	r3, [r3, #0]
 8004e08:	b29b      	uxth	r3, r3
 8004e0a:	bf00      	nop
 8004e0c:	4618      	mov	r0, r3
 8004e0e:	370c      	adds	r7, #12
 8004e10:	46bd      	mov	sp, r7
 8004e12:	f85d 7b04 	ldr.w	r7, [sp], #4
 8004e16:	4770      	bx	lr

08004e18 <stm32__spi__send__2>:
 8004e18:	b580      	push	{r7, lr}
 8004e1a:	b082      	sub	sp, #8
 8004e1c:	af00      	add	r7, sp, #0
 8004e1e:	6078      	str	r0, [r7, #4]
 8004e20:	460b      	mov	r3, r1
 8004e22:	70fb      	strb	r3, [r7, #3]
 8004e24:	78fb      	ldrb	r3, [r7, #3]
 8004e26:	b29b      	uxth	r3, r3
 8004e28:	6878      	ldr	r0, [r7, #4]
 8004e2a:	4619      	mov	r1, r3
 8004e2c:	f7ff ffce 	bl	8004dcc <stm32__spi__send>
 8004e30:	3708      	adds	r7, #8
 8004e32:	46bd      	mov	sp, r7
 8004e34:	bd80      	pop	{r7, pc}
 8004e36:	bf00      	nop

08004e38 <stm32__spi__data__2>:
 8004e38:	b580      	push	{r7, lr}
 8004e3a:	b082      	sub	sp, #8
 8004e3c:	af00      	add	r7, sp, #0
 8004e3e:	6078      	str	r0, [r7, #4]
 8004e40:	6878      	ldr	r0, [r7, #4]
 8004e42:	f7ff ffd9 	bl	8004df8 <stm32__spi__data>
 8004e46:	4603      	mov	r3, r0
 8004e48:	2bff      	cmp	r3, #255	; 0xff
 8004e4a:	d903      	bls.n	8004e54 <stm32__spi__data__2+0x1c>
 8004e4c:	4804      	ldr	r0, [pc, #16]	; (8004e60 <stm32__spi__data__2+0x28>)
 8004e4e:	21b0      	movs	r1, #176	; 0xb0
 8004e50:	f003 f8b6 	bl	8007fc0 <__gnat_last_chance_handler>
 8004e54:	b2db      	uxtb	r3, r3
 8004e56:	bf00      	nop
 8004e58:	4618      	mov	r0, r3
 8004e5a:	3708      	adds	r7, #8
 8004e5c:	46bd      	mov	sp, r7
 8004e5e:	bd80      	pop	{r7, pc}
 8004e60:	08009404 	.word	0x08009404

08004e64 <stm32__spi__is_busy>:
 8004e64:	b580      	push	{r7, lr}
 8004e66:	b082      	sub	sp, #8
 8004e68:	af00      	add	r7, sp, #0
 8004e6a:	6078      	str	r0, [r7, #4]
 8004e6c:	6878      	ldr	r0, [r7, #4]
 8004e6e:	f000 f82d 	bl	8004ecc <stm32__spi__rx_is_empty>
 8004e72:	4603      	mov	r3, r0
 8004e74:	2b00      	cmp	r3, #0
 8004e76:	d008      	beq.n	8004e8a <stm32__spi__is_busy+0x26>
 8004e78:	6878      	ldr	r0, [r7, #4]
 8004e7a:	f000 f815 	bl	8004ea8 <stm32__spi__tx_is_empty>
 8004e7e:	4603      	mov	r3, r0
 8004e80:	f083 0301 	eor.w	r3, r3, #1
 8004e84:	b2db      	uxtb	r3, r3
 8004e86:	2b00      	cmp	r3, #0
 8004e88:	d105      	bne.n	8004e96 <stm32__spi__is_busy+0x32>
 8004e8a:	6878      	ldr	r0, [r7, #4]
 8004e8c:	f000 f834 	bl	8004ef8 <stm32__spi__busy>
 8004e90:	4603      	mov	r3, r0
 8004e92:	2b00      	cmp	r3, #0
 8004e94:	d001      	beq.n	8004e9a <stm32__spi__is_busy+0x36>
 8004e96:	2301      	movs	r3, #1
 8004e98:	e000      	b.n	8004e9c <stm32__spi__is_busy+0x38>
 8004e9a:	2300      	movs	r3, #0
 8004e9c:	bf00      	nop
 8004e9e:	4618      	mov	r0, r3
 8004ea0:	3708      	adds	r7, #8
 8004ea2:	46bd      	mov	sp, r7
 8004ea4:	bd80      	pop	{r7, pc}
 8004ea6:	bf00      	nop

08004ea8 <stm32__spi__tx_is_empty>:
 8004ea8:	b480      	push	{r7}
 8004eaa:	b083      	sub	sp, #12
 8004eac:	af00      	add	r7, sp, #0
 8004eae:	6078      	str	r0, [r7, #4]
 8004eb0:	687b      	ldr	r3, [r7, #4]
 8004eb2:	685b      	ldr	r3, [r3, #4]
 8004eb4:	3308      	adds	r3, #8
 8004eb6:	681b      	ldr	r3, [r3, #0]
 8004eb8:	f3c3 0340 	ubfx	r3, r3, #1, #1
 8004ebc:	b2db      	uxtb	r3, r3
 8004ebe:	bf00      	nop
 8004ec0:	4618      	mov	r0, r3
 8004ec2:	370c      	adds	r7, #12
 8004ec4:	46bd      	mov	sp, r7
 8004ec6:	f85d 7b04 	ldr.w	r7, [sp], #4
 8004eca:	4770      	bx	lr

08004ecc <stm32__spi__rx_is_empty>:
 8004ecc:	b480      	push	{r7}
 8004ece:	b083      	sub	sp, #12
 8004ed0:	af00      	add	r7, sp, #0
 8004ed2:	6078      	str	r0, [r7, #4]
 8004ed4:	687b      	ldr	r3, [r7, #4]
 8004ed6:	685b      	ldr	r3, [r3, #4]
 8004ed8:	3308      	adds	r3, #8
 8004eda:	681b      	ldr	r3, [r3, #0]
 8004edc:	f3c3 0300 	ubfx	r3, r3, #0, #1
 8004ee0:	b2db      	uxtb	r3, r3
 8004ee2:	f083 0301 	eor.w	r3, r3, #1
 8004ee6:	b2db      	uxtb	r3, r3
 8004ee8:	bf00      	nop
 8004eea:	4618      	mov	r0, r3
 8004eec:	370c      	adds	r7, #12
 8004eee:	46bd      	mov	sp, r7
 8004ef0:	f85d 7b04 	ldr.w	r7, [sp], #4
 8004ef4:	4770      	bx	lr
 8004ef6:	bf00      	nop

08004ef8 <stm32__spi__busy>:
 8004ef8:	b480      	push	{r7}
 8004efa:	b083      	sub	sp, #12
 8004efc:	af00      	add	r7, sp, #0
 8004efe:	6078      	str	r0, [r7, #4]
 8004f00:	687b      	ldr	r3, [r7, #4]
 8004f02:	685b      	ldr	r3, [r3, #4]
 8004f04:	3308      	adds	r3, #8
 8004f06:	681b      	ldr	r3, [r3, #0]
 8004f08:	f3c3 13c0 	ubfx	r3, r3, #7, #1
 8004f0c:	b2db      	uxtb	r3, r3
 8004f0e:	bf00      	nop
 8004f10:	4618      	mov	r0, r3
 8004f12:	370c      	adds	r7, #12
 8004f14:	46bd      	mov	sp, r7
 8004f16:	f85d 7b04 	ldr.w	r7, [sp], #4
 8004f1a:	4770      	bx	lr

08004f1c <stm32__spi__current_mode>:
 8004f1c:	b480      	push	{r7}
 8004f1e:	b083      	sub	sp, #12
 8004f20:	af00      	add	r7, sp, #0
 8004f22:	6078      	str	r0, [r7, #4]
 8004f24:	687b      	ldr	r3, [r7, #4]
 8004f26:	685b      	ldr	r3, [r3, #4]
 8004f28:	681b      	ldr	r3, [r3, #0]
 8004f2a:	f3c3 0380 	ubfx	r3, r3, #2, #1
 8004f2e:	b2db      	uxtb	r3, r3
 8004f30:	461a      	mov	r2, r3
 8004f32:	687b      	ldr	r3, [r7, #4]
 8004f34:	685b      	ldr	r3, [r3, #4]
 8004f36:	681b      	ldr	r3, [r3, #0]
 8004f38:	f3c3 2300 	ubfx	r3, r3, #8, #1
 8004f3c:	b2db      	uxtb	r3, r3
 8004f3e:	4013      	ands	r3, r2
 8004f40:	b2db      	uxtb	r3, r3
 8004f42:	2b00      	cmp	r3, #0
 8004f44:	d001      	beq.n	8004f4a <stm32__spi__current_mode+0x2e>
 8004f46:	2300      	movs	r3, #0
 8004f48:	e000      	b.n	8004f4c <stm32__spi__current_mode+0x30>
 8004f4a:	2301      	movs	r3, #1
 8004f4c:	bf00      	nop
 8004f4e:	4618      	mov	r0, r3
 8004f50:	370c      	adds	r7, #12
 8004f52:	46bd      	mov	sp, r7
 8004f54:	f85d 7b04 	ldr.w	r7, [sp], #4
 8004f58:	4770      	bx	lr
 8004f5a:	bf00      	nop

08004f5c <stm32__spi__current_data_direction>:
 8004f5c:	b480      	push	{r7}
 8004f5e:	b083      	sub	sp, #12
 8004f60:	af00      	add	r7, sp, #0
 8004f62:	6078      	str	r0, [r7, #4]
 8004f64:	687b      	ldr	r3, [r7, #4]
 8004f66:	685b      	ldr	r3, [r3, #4]
 8004f68:	681b      	ldr	r3, [r3, #0]
 8004f6a:	f3c3 33c0 	ubfx	r3, r3, #15, #1
 8004f6e:	b2db      	uxtb	r3, r3
 8004f70:	f083 0301 	eor.w	r3, r3, #1
 8004f74:	b2db      	uxtb	r3, r3
 8004f76:	2b00      	cmp	r3, #0
 8004f78:	d00e      	beq.n	8004f98 <stm32__spi__current_data_direction+0x3c>
 8004f7a:	687b      	ldr	r3, [r7, #4]
 8004f7c:	685b      	ldr	r3, [r3, #4]
 8004f7e:	681b      	ldr	r3, [r3, #0]
 8004f80:	f3c3 2380 	ubfx	r3, r3, #10, #1
 8004f84:	b2db      	uxtb	r3, r3
 8004f86:	f083 0301 	eor.w	r3, r3, #1
 8004f8a:	b2db      	uxtb	r3, r3
 8004f8c:	2b00      	cmp	r3, #0
 8004f8e:	d001      	beq.n	8004f94 <stm32__spi__current_data_direction+0x38>
 8004f90:	2300      	movs	r3, #0
 8004f92:	e00f      	b.n	8004fb4 <stm32__spi__current_data_direction+0x58>
 8004f94:	2301      	movs	r3, #1
 8004f96:	e00d      	b.n	8004fb4 <stm32__spi__current_data_direction+0x58>
 8004f98:	687b      	ldr	r3, [r7, #4]
 8004f9a:	685b      	ldr	r3, [r3, #4]
 8004f9c:	681b      	ldr	r3, [r3, #0]
 8004f9e:	f3c3 3380 	ubfx	r3, r3, #14, #1
 8004fa2:	b2db      	uxtb	r3, r3
 8004fa4:	f083 0301 	eor.w	r3, r3, #1
 8004fa8:	b2db      	uxtb	r3, r3
 8004faa:	2b00      	cmp	r3, #0
 8004fac:	d001      	beq.n	8004fb2 <stm32__spi__current_data_direction+0x56>
 8004fae:	2302      	movs	r3, #2
 8004fb0:	e000      	b.n	8004fb4 <stm32__spi__current_data_direction+0x58>
 8004fb2:	2303      	movs	r3, #3
 8004fb4:	bf00      	nop
 8004fb6:	4618      	mov	r0, r3
 8004fb8:	370c      	adds	r7, #12
 8004fba:	46bd      	mov	sp, r7
 8004fbc:	f85d 7b04 	ldr.w	r7, [sp], #4
 8004fc0:	4770      	bx	lr
 8004fc2:	bf00      	nop

08004fc4 <stm32__spi__crc_enabled>:
 8004fc4:	b480      	push	{r7}
 8004fc6:	b083      	sub	sp, #12
 8004fc8:	af00      	add	r7, sp, #0
 8004fca:	6078      	str	r0, [r7, #4]
 8004fcc:	687b      	ldr	r3, [r7, #4]
 8004fce:	685b      	ldr	r3, [r3, #4]
 8004fd0:	681b      	ldr	r3, [r3, #0]
 8004fd2:	f3c3 3340 	ubfx	r3, r3, #13, #1
 8004fd6:	b2db      	uxtb	r3, r3
 8004fd8:	bf00      	nop
 8004fda:	4618      	mov	r0, r3
 8004fdc:	370c      	adds	r7, #12
 8004fde:	46bd      	mov	sp, r7
 8004fe0:	f85d 7b04 	ldr.w	r7, [sp], #4
 8004fe4:	4770      	bx	lr
 8004fe6:	bf00      	nop

08004fe8 <stm32__spi__channel_side_indicated>:
 8004fe8:	b480      	push	{r7}
 8004fea:	b083      	sub	sp, #12
 8004fec:	af00      	add	r7, sp, #0
 8004fee:	6078      	str	r0, [r7, #4]
 8004ff0:	687b      	ldr	r3, [r7, #4]
 8004ff2:	685b      	ldr	r3, [r3, #4]
 8004ff4:	3308      	adds	r3, #8
 8004ff6:	681b      	ldr	r3, [r3, #0]
 8004ff8:	f3c3 0380 	ubfx	r3, r3, #2, #1
 8004ffc:	b2db      	uxtb	r3, r3
 8004ffe:	bf00      	nop
 8005000:	4618      	mov	r0, r3
 8005002:	370c      	adds	r7, #12
 8005004:	46bd      	mov	sp, r7
 8005006:	f85d 7b04 	ldr.w	r7, [sp], #4
 800500a:	4770      	bx	lr

0800500c <stm32__spi__underrun_indicated>:
 800500c:	b480      	push	{r7}
 800500e:	b083      	sub	sp, #12
 8005010:	af00      	add	r7, sp, #0
 8005012:	6078      	str	r0, [r7, #4]
 8005014:	687b      	ldr	r3, [r7, #4]
 8005016:	685b      	ldr	r3, [r3, #4]
 8005018:	3308      	adds	r3, #8
 800501a:	681b      	ldr	r3, [r3, #0]
 800501c:	f3c3 03c0 	ubfx	r3, r3, #3, #1
 8005020:	b2db      	uxtb	r3, r3
 8005022:	bf00      	nop
 8005024:	4618      	mov	r0, r3
 8005026:	370c      	adds	r7, #12
 8005028:	46bd      	mov	sp, r7
 800502a:	f85d 7b04 	ldr.w	r7, [sp], #4
 800502e:	4770      	bx	lr

08005030 <stm32__spi__crc_error_indicated>:
 8005030:	b480      	push	{r7}
 8005032:	b083      	sub	sp, #12
 8005034:	af00      	add	r7, sp, #0
 8005036:	6078      	str	r0, [r7, #4]
 8005038:	687b      	ldr	r3, [r7, #4]
 800503a:	685b      	ldr	r3, [r3, #4]
 800503c:	3308      	adds	r3, #8
 800503e:	681b      	ldr	r3, [r3, #0]
 8005040:	f3c3 1300 	ubfx	r3, r3, #4, #1
 8005044:	b2db      	uxtb	r3, r3
 8005046:	bf00      	nop
 8005048:	4618      	mov	r0, r3
 800504a:	370c      	adds	r7, #12
 800504c:	46bd      	mov	sp, r7
 800504e:	f85d 7b04 	ldr.w	r7, [sp], #4
 8005052:	4770      	bx	lr

08005054 <stm32__spi__mode_fault_indicated>:
 8005054:	b480      	push	{r7}
 8005056:	b083      	sub	sp, #12
 8005058:	af00      	add	r7, sp, #0
 800505a:	6078      	str	r0, [r7, #4]
 800505c:	687b      	ldr	r3, [r7, #4]
 800505e:	685b      	ldr	r3, [r3, #4]
 8005060:	3308      	adds	r3, #8
 8005062:	681b      	ldr	r3, [r3, #0]
 8005064:	f3c3 1340 	ubfx	r3, r3, #5, #1
 8005068:	b2db      	uxtb	r3, r3
 800506a:	bf00      	nop
 800506c:	4618      	mov	r0, r3
 800506e:	370c      	adds	r7, #12
 8005070:	46bd      	mov	sp, r7
 8005072:	f85d 7b04 	ldr.w	r7, [sp], #4
 8005076:	4770      	bx	lr

08005078 <stm32__spi__overrun_indicated>:
 8005078:	b480      	push	{r7}
 800507a:	b083      	sub	sp, #12
 800507c:	af00      	add	r7, sp, #0
 800507e:	6078      	str	r0, [r7, #4]
 8005080:	687b      	ldr	r3, [r7, #4]
 8005082:	685b      	ldr	r3, [r3, #4]
 8005084:	3308      	adds	r3, #8
 8005086:	681b      	ldr	r3, [r3, #0]
 8005088:	f3c3 1380 	ubfx	r3, r3, #6, #1
 800508c:	b2db      	uxtb	r3, r3
 800508e:	bf00      	nop
 8005090:	4618      	mov	r0, r3
 8005092:	370c      	adds	r7, #12
 8005094:	46bd      	mov	sp, r7
 8005096:	f85d 7b04 	ldr.w	r7, [sp], #4
 800509a:	4770      	bx	lr

0800509c <stm32__spi__frame_fmt_error_indicated>:
 800509c:	b480      	push	{r7}
 800509e:	b083      	sub	sp, #12
 80050a0:	af00      	add	r7, sp, #0
 80050a2:	6078      	str	r0, [r7, #4]
 80050a4:	2300      	movs	r3, #0
 80050a6:	bf00      	nop
 80050a8:	4618      	mov	r0, r3
 80050aa:	370c      	adds	r7, #12
 80050ac:	46bd      	mov	sp, r7
 80050ae:	f85d 7b04 	ldr.w	r7, [sp], #4
 80050b2:	4770      	bx	lr

080050b4 <stm32__spi__clear_overrun>:
 80050b4:	b580      	push	{r7, lr}
 80050b6:	b084      	sub	sp, #16
 80050b8:	af00      	add	r7, sp, #0
 80050ba:	6078      	str	r0, [r7, #4]
 80050bc:	f107 0308 	add.w	r3, r7, #8
 80050c0:	4618      	mov	r0, r3
 80050c2:	f001 fc7b 	bl	80069bc <stm32_svd__spi__sr_registerIP>
 80050c6:	687b      	ldr	r3, [r7, #4]
 80050c8:	685b      	ldr	r3, [r3, #4]
 80050ca:	330c      	adds	r3, #12
 80050cc:	681b      	ldr	r3, [r3, #0]
 80050ce:	81fb      	strh	r3, [r7, #14]
 80050d0:	687b      	ldr	r3, [r7, #4]
 80050d2:	685b      	ldr	r3, [r3, #4]
 80050d4:	3308      	adds	r3, #8
 80050d6:	681b      	ldr	r3, [r3, #0]
 80050d8:	60bb      	str	r3, [r7, #8]
 80050da:	3710      	adds	r7, #16
 80050dc:	46bd      	mov	sp, r7
 80050de:	bd80      	pop	{r7, pc}

080050e0 <stm32__spi__reset_crc>:
 80050e0:	b480      	push	{r7}
 80050e2:	b083      	sub	sp, #12
 80050e4:	af00      	add	r7, sp, #0
 80050e6:	6078      	str	r0, [r7, #4]
 80050e8:	687b      	ldr	r3, [r7, #4]
 80050ea:	685b      	ldr	r3, [r3, #4]
 80050ec:	681b      	ldr	r3, [r3, #0]
 80050ee:	f36f 334d 	bfc	r3, #13, #1
 80050f2:	687a      	ldr	r2, [r7, #4]
 80050f4:	6852      	ldr	r2, [r2, #4]
 80050f6:	6013      	str	r3, [r2, #0]
 80050f8:	687b      	ldr	r3, [r7, #4]
 80050fa:	685b      	ldr	r3, [r3, #4]
 80050fc:	681b      	ldr	r3, [r3, #0]
 80050fe:	461a      	mov	r2, r3
 8005100:	4613      	mov	r3, r2
 8005102:	f443 5200 	orr.w	r2, r3, #8192	; 0x2000
 8005106:	687b      	ldr	r3, [r7, #4]
 8005108:	685b      	ldr	r3, [r3, #4]
 800510a:	601a      	str	r2, [r3, #0]
 800510c:	370c      	adds	r7, #12
 800510e:	46bd      	mov	sp, r7
 8005110:	f85d 7b04 	ldr.w	r7, [sp], #4
 8005114:	4770      	bx	lr
 8005116:	bf00      	nop

08005118 <stm32__spi__is_data_frame_16bit>:
 8005118:	b480      	push	{r7}
 800511a:	b083      	sub	sp, #12
 800511c:	af00      	add	r7, sp, #0
 800511e:	6078      	str	r0, [r7, #4]
 8005120:	687b      	ldr	r3, [r7, #4]
 8005122:	685b      	ldr	r3, [r3, #4]
 8005124:	681b      	ldr	r3, [r3, #0]
 8005126:	f3c3 23c0 	ubfx	r3, r3, #11, #1
 800512a:	b2db      	uxtb	r3, r3
 800512c:	bf00      	nop
 800512e:	4618      	mov	r0, r3
 8005130:	370c      	adds	r7, #12
 8005132:	46bd      	mov	sp, r7
 8005134:	f85d 7b04 	ldr.w	r7, [sp], #4
 8005138:	4770      	bx	lr
 800513a:	bf00      	nop

0800513c <stm32__spi__data_size>:
 800513c:	b480      	push	{r7}
 800513e:	b083      	sub	sp, #12
 8005140:	af00      	add	r7, sp, #0
 8005142:	6078      	str	r0, [r7, #4]
 8005144:	687b      	ldr	r3, [r7, #4]
 8005146:	685b      	ldr	r3, [r3, #4]
 8005148:	681b      	ldr	r3, [r3, #0]
 800514a:	f3c3 23c0 	ubfx	r3, r3, #11, #1
 800514e:	b2db      	uxtb	r3, r3
 8005150:	2b00      	cmp	r3, #0
 8005152:	d001      	beq.n	8005158 <stm32__spi__data_size+0x1c>
 8005154:	2301      	movs	r3, #1
 8005156:	e000      	b.n	800515a <stm32__spi__data_size+0x1e>
 8005158:	2300      	movs	r3, #0
 800515a:	bf00      	nop
 800515c:	4618      	mov	r0, r3
 800515e:	370c      	adds	r7, #12
 8005160:	46bd      	mov	sp, r7
 8005162:	f85d 7b04 	ldr.w	r7, [sp], #4
 8005166:	4770      	bx	lr

08005168 <stm32__spi__transmit>:
 8005168:	b5b0      	push	{r4, r5, r7, lr}
 800516a:	b086      	sub	sp, #24
 800516c:	af00      	add	r7, sp, #0
 800516e:	60f8      	str	r0, [r7, #12]
 8005170:	e9c7 2300 	strd	r2, r3, [r7]
 8005174:	68f8      	ldr	r0, [r7, #12]
 8005176:	f7ff ffe1 	bl	800513c <stm32__spi__data_size>
 800517a:	4603      	mov	r3, r0
 800517c:	2b00      	cmp	r3, #0
 800517e:	d005      	beq.n	800518c <stm32__spi__transmit+0x24>
 8005180:	4c2c      	ldr	r4, [pc, #176]	; (8005234 <stm32__spi__transmit+0xcc>)
 8005182:	4d2d      	ldr	r5, [pc, #180]	; (8005238 <stm32__spi__transmit+0xd0>)
 8005184:	4620      	mov	r0, r4
 8005186:	4629      	mov	r1, r5
 8005188:	f002 ff52 	bl	8008030 <system__assertions__raise_assert_failure>
 800518c:	68f8      	ldr	r0, [r7, #12]
 800518e:	f7ff ff19 	bl	8004fc4 <stm32__spi__crc_enabled>
 8005192:	4603      	mov	r3, r0
 8005194:	2b00      	cmp	r3, #0
 8005196:	d002      	beq.n	800519e <stm32__spi__transmit+0x36>
 8005198:	68f8      	ldr	r0, [r7, #12]
 800519a:	f7ff ffa1 	bl	80050e0 <stm32__spi__reset_crc>
 800519e:	68f8      	ldr	r0, [r7, #12]
 80051a0:	f7ff fedc 	bl	8004f5c <stm32__spi__current_data_direction>
 80051a4:	4603      	mov	r3, r0
 80051a6:	2b03      	cmp	r3, #3
 80051a8:	d109      	bne.n	80051be <stm32__spi__transmit+0x56>
 80051aa:	68fb      	ldr	r3, [r7, #12]
 80051ac:	685b      	ldr	r3, [r3, #4]
 80051ae:	681b      	ldr	r3, [r3, #0]
 80051b0:	461a      	mov	r2, r3
 80051b2:	4613      	mov	r3, r2
 80051b4:	f443 4280 	orr.w	r2, r3, #16384	; 0x4000
 80051b8:	68fb      	ldr	r3, [r7, #12]
 80051ba:	685b      	ldr	r3, [r3, #4]
 80051bc:	601a      	str	r2, [r3, #0]
 80051be:	68f8      	ldr	r0, [r7, #12]
 80051c0:	f7ff ff78 	bl	80050b4 <stm32__spi__clear_overrun>
 80051c4:	68f8      	ldr	r0, [r7, #12]
 80051c6:	f7ff fdef 	bl	8004da8 <stm32__spi__enabled>
 80051ca:	4603      	mov	r3, r0
 80051cc:	f083 0301 	eor.w	r3, r3, #1
 80051d0:	b2db      	uxtb	r3, r3
 80051d2:	2b00      	cmp	r3, #0
 80051d4:	d002      	beq.n	80051dc <stm32__spi__transmit+0x74>
 80051d6:	68f8      	ldr	r0, [r7, #12]
 80051d8:	f7ff fdc0 	bl	8004d5c <stm32__spi__enable>
 80051dc:	68f8      	ldr	r0, [r7, #12]
 80051de:	e9d7 2300 	ldrd	r2, r3, [r7]
 80051e2:	f000 ff2d 	bl	8006040 <stm32__spi__send_8bit_mode>
 80051e6:	68f8      	ldr	r0, [r7, #12]
 80051e8:	f7ff fe5e 	bl	8004ea8 <stm32__spi__tx_is_empty>
 80051ec:	4603      	mov	r3, r0
 80051ee:	f083 0301 	eor.w	r3, r3, #1
 80051f2:	b2db      	uxtb	r3, r3
 80051f4:	2b00      	cmp	r3, #0
 80051f6:	d001      	beq.n	80051fc <stm32__spi__transmit+0x94>
 80051f8:	bf00      	nop
 80051fa:	e7f4      	b.n	80051e6 <stm32__spi__transmit+0x7e>
 80051fc:	68f8      	ldr	r0, [r7, #12]
 80051fe:	f7ff fe7b 	bl	8004ef8 <stm32__spi__busy>
 8005202:	4603      	mov	r3, r0
 8005204:	2b00      	cmp	r3, #0
 8005206:	d001      	beq.n	800520c <stm32__spi__transmit+0xa4>
 8005208:	bf00      	nop
 800520a:	e7f7      	b.n	80051fc <stm32__spi__transmit+0x94>
 800520c:	68f8      	ldr	r0, [r7, #12]
 800520e:	f7ff fea5 	bl	8004f5c <stm32__spi__current_data_direction>
 8005212:	4603      	mov	r3, r0
 8005214:	2b01      	cmp	r3, #1
 8005216:	d001      	beq.n	800521c <stm32__spi__transmit+0xb4>
 8005218:	2b00      	cmp	r3, #0
 800521a:	d102      	bne.n	8005222 <stm32__spi__transmit+0xba>
 800521c:	68f8      	ldr	r0, [r7, #12]
 800521e:	f7ff ff49 	bl	80050b4 <stm32__spi__clear_overrun>
 8005222:	2300      	movs	r3, #0
 8005224:	75fb      	strb	r3, [r7, #23]
 8005226:	7dfb      	ldrb	r3, [r7, #23]
 8005228:	bf00      	nop
 800522a:	4618      	mov	r0, r3
 800522c:	3718      	adds	r7, #24
 800522e:	46bd      	mov	sp, r7
 8005230:	bdb0      	pop	{r4, r5, r7, pc}
 8005232:	bf00      	nop
 8005234:	08009414 	.word	0x08009414
 8005238:	08009448 	.word	0x08009448

0800523c <stm32__spi__transmit__2>:
 800523c:	b5b0      	push	{r4, r5, r7, lr}
 800523e:	b086      	sub	sp, #24
 8005240:	af00      	add	r7, sp, #0
 8005242:	60f8      	str	r0, [r7, #12]
 8005244:	e9c7 2300 	strd	r2, r3, [r7]
 8005248:	68f8      	ldr	r0, [r7, #12]
 800524a:	f7ff ff77 	bl	800513c <stm32__spi__data_size>
 800524e:	4603      	mov	r3, r0
 8005250:	2b01      	cmp	r3, #1
 8005252:	d005      	beq.n	8005260 <stm32__spi__transmit__2+0x24>
 8005254:	4c2d      	ldr	r4, [pc, #180]	; (800530c <stm32__spi__transmit__2+0xd0>)
 8005256:	4d2e      	ldr	r5, [pc, #184]	; (8005310 <stm32__spi__transmit__2+0xd4>)
 8005258:	4620      	mov	r0, r4
 800525a:	4629      	mov	r1, r5
 800525c:	f002 fee8 	bl	8008030 <system__assertions__raise_assert_failure>
 8005260:	68f8      	ldr	r0, [r7, #12]
 8005262:	f7ff feaf 	bl	8004fc4 <stm32__spi__crc_enabled>
 8005266:	4603      	mov	r3, r0
 8005268:	2b00      	cmp	r3, #0
 800526a:	d002      	beq.n	8005272 <stm32__spi__transmit__2+0x36>
 800526c:	68f8      	ldr	r0, [r7, #12]
 800526e:	f7ff ff37 	bl	80050e0 <stm32__spi__reset_crc>
 8005272:	68f8      	ldr	r0, [r7, #12]
 8005274:	f7ff fe72 	bl	8004f5c <stm32__spi__current_data_direction>
 8005278:	4603      	mov	r3, r0
 800527a:	2b03      	cmp	r3, #3
 800527c:	d109      	bne.n	8005292 <stm32__spi__transmit__2+0x56>
 800527e:	68fb      	ldr	r3, [r7, #12]
 8005280:	685b      	ldr	r3, [r3, #4]
 8005282:	681b      	ldr	r3, [r3, #0]
 8005284:	461a      	mov	r2, r3
 8005286:	4613      	mov	r3, r2
 8005288:	f443 4280 	orr.w	r2, r3, #16384	; 0x4000
 800528c:	68fb      	ldr	r3, [r7, #12]
 800528e:	685b      	ldr	r3, [r3, #4]
 8005290:	601a      	str	r2, [r3, #0]
 8005292:	68f8      	ldr	r0, [r7, #12]
 8005294:	f7ff ff0e 	bl	80050b4 <stm32__spi__clear_overrun>
 8005298:	68f8      	ldr	r0, [r7, #12]
 800529a:	f7ff fd85 	bl	8004da8 <stm32__spi__enabled>
 800529e:	4603      	mov	r3, r0
 80052a0:	f083 0301 	eor.w	r3, r3, #1
 80052a4:	b2db      	uxtb	r3, r3
 80052a6:	2b00      	cmp	r3, #0
 80052a8:	d002      	beq.n	80052b0 <stm32__spi__transmit__2+0x74>
 80052aa:	68f8      	ldr	r0, [r7, #12]
 80052ac:	f7ff fd56 	bl	8004d5c <stm32__spi__enable>
 80052b0:	68f8      	ldr	r0, [r7, #12]
 80052b2:	e9d7 2300 	ldrd	r2, r3, [r7]
 80052b6:	f000 fdd5 	bl	8005e64 <stm32__spi__send_16bit_mode>
 80052ba:	68f8      	ldr	r0, [r7, #12]
 80052bc:	f7ff fdf4 	bl	8004ea8 <stm32__spi__tx_is_empty>
 80052c0:	4603      	mov	r3, r0
 80052c2:	f083 0301 	eor.w	r3, r3, #1
 80052c6:	b2db      	uxtb	r3, r3
 80052c8:	2b00      	cmp	r3, #0
 80052ca:	d001      	beq.n	80052d0 <stm32__spi__transmit__2+0x94>
 80052cc:	bf00      	nop
 80052ce:	e7f4      	b.n	80052ba <stm32__spi__transmit__2+0x7e>
 80052d0:	68f8      	ldr	r0, [r7, #12]
 80052d2:	f7ff fe11 	bl	8004ef8 <stm32__spi__busy>
 80052d6:	4603      	mov	r3, r0
 80052d8:	2b00      	cmp	r3, #0
 80052da:	d001      	beq.n	80052e0 <stm32__spi__transmit__2+0xa4>
 80052dc:	bf00      	nop
 80052de:	e7f7      	b.n	80052d0 <stm32__spi__transmit__2+0x94>
 80052e0:	68f8      	ldr	r0, [r7, #12]
 80052e2:	f7ff fe3b 	bl	8004f5c <stm32__spi__current_data_direction>
 80052e6:	4603      	mov	r3, r0
 80052e8:	2b01      	cmp	r3, #1
 80052ea:	d001      	beq.n	80052f0 <stm32__spi__transmit__2+0xb4>
 80052ec:	2b00      	cmp	r3, #0
 80052ee:	d104      	bne.n	80052fa <stm32__spi__transmit__2+0xbe>
 80052f0:	68f8      	ldr	r0, [r7, #12]
 80052f2:	f7ff fedf 	bl	80050b4 <stm32__spi__clear_overrun>
 80052f6:	2301      	movs	r3, #1
 80052f8:	75fb      	strb	r3, [r7, #23]
 80052fa:	2300      	movs	r3, #0
 80052fc:	75fb      	strb	r3, [r7, #23]
 80052fe:	7dfb      	ldrb	r3, [r7, #23]
 8005300:	bf00      	nop
 8005302:	4618      	mov	r0, r3
 8005304:	3718      	adds	r7, #24
 8005306:	46bd      	mov	sp, r7
 8005308:	bdb0      	pop	{r4, r5, r7, pc}
 800530a:	bf00      	nop
 800530c:	08009450 	.word	0x08009450
 8005310:	08009448 	.word	0x08009448

08005314 <stm32__spi__transmit__3>:
 8005314:	b580      	push	{r7, lr}
 8005316:	b082      	sub	sp, #8
 8005318:	af00      	add	r7, sp, #0
 800531a:	6078      	str	r0, [r7, #4]
 800531c:	460b      	mov	r3, r1
 800531e:	70fb      	strb	r3, [r7, #3]
 8005320:	6878      	ldr	r0, [r7, #4]
 8005322:	f7ff fe4f 	bl	8004fc4 <stm32__spi__crc_enabled>
 8005326:	4603      	mov	r3, r0
 8005328:	2b00      	cmp	r3, #0
 800532a:	d002      	beq.n	8005332 <stm32__spi__transmit__3+0x1e>
 800532c:	6878      	ldr	r0, [r7, #4]
 800532e:	f7ff fed7 	bl	80050e0 <stm32__spi__reset_crc>
 8005332:	6878      	ldr	r0, [r7, #4]
 8005334:	f7ff fe12 	bl	8004f5c <stm32__spi__current_data_direction>
 8005338:	4603      	mov	r3, r0
 800533a:	2b03      	cmp	r3, #3
 800533c:	d109      	bne.n	8005352 <stm32__spi__transmit__3+0x3e>
 800533e:	687b      	ldr	r3, [r7, #4]
 8005340:	685b      	ldr	r3, [r3, #4]
 8005342:	681b      	ldr	r3, [r3, #0]
 8005344:	461a      	mov	r2, r3
 8005346:	4613      	mov	r3, r2
 8005348:	f443 4280 	orr.w	r2, r3, #16384	; 0x4000
 800534c:	687b      	ldr	r3, [r7, #4]
 800534e:	685b      	ldr	r3, [r3, #4]
 8005350:	601a      	str	r2, [r3, #0]
 8005352:	6878      	ldr	r0, [r7, #4]
 8005354:	f7ff fd28 	bl	8004da8 <stm32__spi__enabled>
 8005358:	4603      	mov	r3, r0
 800535a:	f083 0301 	eor.w	r3, r3, #1
 800535e:	b2db      	uxtb	r3, r3
 8005360:	2b00      	cmp	r3, #0
 8005362:	d002      	beq.n	800536a <stm32__spi__transmit__3+0x56>
 8005364:	6878      	ldr	r0, [r7, #4]
 8005366:	f7ff fcf9 	bl	8004d5c <stm32__spi__enable>
 800536a:	687b      	ldr	r3, [r7, #4]
 800536c:	685b      	ldr	r3, [r3, #4]
 800536e:	330c      	adds	r3, #12
 8005370:	681b      	ldr	r3, [r3, #0]
 8005372:	78fa      	ldrb	r2, [r7, #3]
 8005374:	b292      	uxth	r2, r2
 8005376:	f362 030f 	bfi	r3, r2, #0, #16
 800537a:	687a      	ldr	r2, [r7, #4]
 800537c:	6852      	ldr	r2, [r2, #4]
 800537e:	320c      	adds	r2, #12
 8005380:	6013      	str	r3, [r2, #0]
 8005382:	6878      	ldr	r0, [r7, #4]
 8005384:	f7ff fd90 	bl	8004ea8 <stm32__spi__tx_is_empty>
 8005388:	4603      	mov	r3, r0
 800538a:	f083 0301 	eor.w	r3, r3, #1
 800538e:	b2db      	uxtb	r3, r3
 8005390:	2b00      	cmp	r3, #0
 8005392:	d001      	beq.n	8005398 <stm32__spi__transmit__3+0x84>
 8005394:	bf00      	nop
 8005396:	e7f4      	b.n	8005382 <stm32__spi__transmit__3+0x6e>
 8005398:	6878      	ldr	r0, [r7, #4]
 800539a:	f7ff fdad 	bl	8004ef8 <stm32__spi__busy>
 800539e:	4603      	mov	r3, r0
 80053a0:	2b00      	cmp	r3, #0
 80053a2:	d001      	beq.n	80053a8 <stm32__spi__transmit__3+0x94>
 80053a4:	bf00      	nop
 80053a6:	e7f7      	b.n	8005398 <stm32__spi__transmit__3+0x84>
 80053a8:	6878      	ldr	r0, [r7, #4]
 80053aa:	f7ff fdd7 	bl	8004f5c <stm32__spi__current_data_direction>
 80053ae:	4603      	mov	r3, r0
 80053b0:	2b01      	cmp	r3, #1
 80053b2:	d001      	beq.n	80053b8 <stm32__spi__transmit__3+0xa4>
 80053b4:	2b00      	cmp	r3, #0
 80053b6:	d102      	bne.n	80053be <stm32__spi__transmit__3+0xaa>
 80053b8:	6878      	ldr	r0, [r7, #4]
 80053ba:	f7ff fe7b 	bl	80050b4 <stm32__spi__clear_overrun>
 80053be:	3708      	adds	r7, #8
 80053c0:	46bd      	mov	sp, r7
 80053c2:	bd80      	pop	{r7, pc}

080053c4 <stm32__spi__receive>:
 80053c4:	b5b0      	push	{r4, r5, r7, lr}
 80053c6:	b086      	sub	sp, #24
 80053c8:	af00      	add	r7, sp, #0
 80053ca:	60f8      	str	r0, [r7, #12]
 80053cc:	e9c7 2300 	strd	r2, r3, [r7]
 80053d0:	68f8      	ldr	r0, [r7, #12]
 80053d2:	f7ff feb3 	bl	800513c <stm32__spi__data_size>
 80053d6:	4603      	mov	r3, r0
 80053d8:	2b00      	cmp	r3, #0
 80053da:	d005      	beq.n	80053e8 <stm32__spi__receive+0x24>
 80053dc:	4c20      	ldr	r4, [pc, #128]	; (8005460 <stm32__spi__receive+0x9c>)
 80053de:	4d21      	ldr	r5, [pc, #132]	; (8005464 <stm32__spi__receive+0xa0>)
 80053e0:	4620      	mov	r0, r4
 80053e2:	4629      	mov	r1, r5
 80053e4:	f002 fe24 	bl	8008030 <system__assertions__raise_assert_failure>
 80053e8:	68f8      	ldr	r0, [r7, #12]
 80053ea:	f7ff fdeb 	bl	8004fc4 <stm32__spi__crc_enabled>
 80053ee:	4603      	mov	r3, r0
 80053f0:	2b00      	cmp	r3, #0
 80053f2:	d002      	beq.n	80053fa <stm32__spi__receive+0x36>
 80053f4:	68f8      	ldr	r0, [r7, #12]
 80053f6:	f7ff fe73 	bl	80050e0 <stm32__spi__reset_crc>
 80053fa:	68f8      	ldr	r0, [r7, #12]
 80053fc:	f7ff fcd4 	bl	8004da8 <stm32__spi__enabled>
 8005400:	4603      	mov	r3, r0
 8005402:	f083 0301 	eor.w	r3, r3, #1
 8005406:	b2db      	uxtb	r3, r3
 8005408:	2b00      	cmp	r3, #0
 800540a:	d002      	beq.n	8005412 <stm32__spi__receive+0x4e>
 800540c:	68f8      	ldr	r0, [r7, #12]
 800540e:	f7ff fca5 	bl	8004d5c <stm32__spi__enable>
 8005412:	68f8      	ldr	r0, [r7, #12]
 8005414:	e9d7 2300 	ldrd	r2, r3, [r7]
 8005418:	f000 ff2c 	bl	8006274 <stm32__spi__receive_8bit_mode>
 800541c:	68f8      	ldr	r0, [r7, #12]
 800541e:	f7ff fd6b 	bl	8004ef8 <stm32__spi__busy>
 8005422:	4603      	mov	r3, r0
 8005424:	2b00      	cmp	r3, #0
 8005426:	d001      	beq.n	800542c <stm32__spi__receive+0x68>
 8005428:	bf00      	nop
 800542a:	e7f7      	b.n	800541c <stm32__spi__receive+0x58>
 800542c:	68f8      	ldr	r0, [r7, #12]
 800542e:	f7ff fdc9 	bl	8004fc4 <stm32__spi__crc_enabled>
 8005432:	4603      	mov	r3, r0
 8005434:	461c      	mov	r4, r3
 8005436:	68f8      	ldr	r0, [r7, #12]
 8005438:	f7ff fdfa 	bl	8005030 <stm32__spi__crc_error_indicated>
 800543c:	4603      	mov	r3, r0
 800543e:	4023      	ands	r3, r4
 8005440:	b2db      	uxtb	r3, r3
 8005442:	2b00      	cmp	r3, #0
 8005444:	d004      	beq.n	8005450 <stm32__spi__receive+0x8c>
 8005446:	68f8      	ldr	r0, [r7, #12]
 8005448:	f7ff fe4a 	bl	80050e0 <stm32__spi__reset_crc>
 800544c:	2301      	movs	r3, #1
 800544e:	75fb      	strb	r3, [r7, #23]
 8005450:	2300      	movs	r3, #0
 8005452:	75fb      	strb	r3, [r7, #23]
 8005454:	7dfb      	ldrb	r3, [r7, #23]
 8005456:	bf00      	nop
 8005458:	4618      	mov	r0, r3
 800545a:	3718      	adds	r7, #24
 800545c:	46bd      	mov	sp, r7
 800545e:	bdb0      	pop	{r4, r5, r7, pc}
 8005460:	08009484 	.word	0x08009484
 8005464:	08009448 	.word	0x08009448

08005468 <stm32__spi__receive__2>:
 8005468:	b5b0      	push	{r4, r5, r7, lr}
 800546a:	b086      	sub	sp, #24
 800546c:	af00      	add	r7, sp, #0
 800546e:	60f8      	str	r0, [r7, #12]
 8005470:	e9c7 2300 	strd	r2, r3, [r7]
 8005474:	68f8      	ldr	r0, [r7, #12]
 8005476:	f7ff fe61 	bl	800513c <stm32__spi__data_size>
 800547a:	4603      	mov	r3, r0
 800547c:	2b01      	cmp	r3, #1
 800547e:	d005      	beq.n	800548c <stm32__spi__receive__2+0x24>
 8005480:	4c20      	ldr	r4, [pc, #128]	; (8005504 <stm32__spi__receive__2+0x9c>)
 8005482:	4d21      	ldr	r5, [pc, #132]	; (8005508 <stm32__spi__receive__2+0xa0>)
 8005484:	4620      	mov	r0, r4
 8005486:	4629      	mov	r1, r5
 8005488:	f002 fdd2 	bl	8008030 <system__assertions__raise_assert_failure>
 800548c:	68f8      	ldr	r0, [r7, #12]
 800548e:	f7ff fd99 	bl	8004fc4 <stm32__spi__crc_enabled>
 8005492:	4603      	mov	r3, r0
 8005494:	2b00      	cmp	r3, #0
 8005496:	d002      	beq.n	800549e <stm32__spi__receive__2+0x36>
 8005498:	68f8      	ldr	r0, [r7, #12]
 800549a:	f7ff fe21 	bl	80050e0 <stm32__spi__reset_crc>
 800549e:	68f8      	ldr	r0, [r7, #12]
 80054a0:	f7ff fc82 	bl	8004da8 <stm32__spi__enabled>
 80054a4:	4603      	mov	r3, r0
 80054a6:	f083 0301 	eor.w	r3, r3, #1
 80054aa:	b2db      	uxtb	r3, r3
 80054ac:	2b00      	cmp	r3, #0
 80054ae:	d002      	beq.n	80054b6 <stm32__spi__receive__2+0x4e>
 80054b0:	68f8      	ldr	r0, [r7, #12]
 80054b2:	f7ff fc53 	bl	8004d5c <stm32__spi__enable>
 80054b6:	68f8      	ldr	r0, [r7, #12]
 80054b8:	e9d7 2300 	ldrd	r2, r3, [r7]
 80054bc:	f000 fe92 	bl	80061e4 <stm32__spi__receive_16bit_mode>
 80054c0:	68f8      	ldr	r0, [r7, #12]
 80054c2:	f7ff fd19 	bl	8004ef8 <stm32__spi__busy>
 80054c6:	4603      	mov	r3, r0
 80054c8:	2b00      	cmp	r3, #0
 80054ca:	d001      	beq.n	80054d0 <stm32__spi__receive__2+0x68>
 80054cc:	bf00      	nop
 80054ce:	e7f7      	b.n	80054c0 <stm32__spi__receive__2+0x58>
 80054d0:	68f8      	ldr	r0, [r7, #12]
 80054d2:	f7ff fd77 	bl	8004fc4 <stm32__spi__crc_enabled>
 80054d6:	4603      	mov	r3, r0
 80054d8:	461c      	mov	r4, r3
 80054da:	68f8      	ldr	r0, [r7, #12]
 80054dc:	f7ff fda8 	bl	8005030 <stm32__spi__crc_error_indicated>
 80054e0:	4603      	mov	r3, r0
 80054e2:	4023      	ands	r3, r4
 80054e4:	b2db      	uxtb	r3, r3
 80054e6:	2b00      	cmp	r3, #0
 80054e8:	d004      	beq.n	80054f4 <stm32__spi__receive__2+0x8c>
 80054ea:	68f8      	ldr	r0, [r7, #12]
 80054ec:	f7ff fdf8 	bl	80050e0 <stm32__spi__reset_crc>
 80054f0:	2301      	movs	r3, #1
 80054f2:	75fb      	strb	r3, [r7, #23]
 80054f4:	2300      	movs	r3, #0
 80054f6:	75fb      	strb	r3, [r7, #23]
 80054f8:	7dfb      	ldrb	r3, [r7, #23]
 80054fa:	bf00      	nop
 80054fc:	4618      	mov	r0, r3
 80054fe:	3718      	adds	r7, #24
 8005500:	46bd      	mov	sp, r7
 8005502:	bdb0      	pop	{r4, r5, r7, pc}
 8005504:	080094b8 	.word	0x080094b8
 8005508:	08009448 	.word	0x08009448

0800550c <stm32__spi__receive__3>:
 800550c:	b590      	push	{r4, r7, lr}
 800550e:	b085      	sub	sp, #20
 8005510:	af00      	add	r7, sp, #0
 8005512:	6078      	str	r0, [r7, #4]
 8005514:	6878      	ldr	r0, [r7, #4]
 8005516:	f7ff fd55 	bl	8004fc4 <stm32__spi__crc_enabled>
 800551a:	4603      	mov	r3, r0
 800551c:	2b00      	cmp	r3, #0
 800551e:	d002      	beq.n	8005526 <stm32__spi__receive__3+0x1a>
 8005520:	6878      	ldr	r0, [r7, #4]
 8005522:	f7ff fddd 	bl	80050e0 <stm32__spi__reset_crc>
 8005526:	6878      	ldr	r0, [r7, #4]
 8005528:	f7ff fc3e 	bl	8004da8 <stm32__spi__enabled>
 800552c:	4603      	mov	r3, r0
 800552e:	f083 0301 	eor.w	r3, r3, #1
 8005532:	b2db      	uxtb	r3, r3
 8005534:	2b00      	cmp	r3, #0
 8005536:	d002      	beq.n	800553e <stm32__spi__receive__3+0x32>
 8005538:	6878      	ldr	r0, [r7, #4]
 800553a:	f7ff fc0f 	bl	8004d5c <stm32__spi__enable>
 800553e:	687b      	ldr	r3, [r7, #4]
 8005540:	685b      	ldr	r3, [r3, #4]
 8005542:	330c      	adds	r3, #12
 8005544:	681b      	ldr	r3, [r3, #0]
 8005546:	f36f 030f 	bfc	r3, #0, #16
 800554a:	687a      	ldr	r2, [r7, #4]
 800554c:	6852      	ldr	r2, [r2, #4]
 800554e:	320c      	adds	r2, #12
 8005550:	6013      	str	r3, [r2, #0]
 8005552:	6878      	ldr	r0, [r7, #4]
 8005554:	f7ff fcba 	bl	8004ecc <stm32__spi__rx_is_empty>
 8005558:	4603      	mov	r3, r0
 800555a:	2b00      	cmp	r3, #0
 800555c:	d001      	beq.n	8005562 <stm32__spi__receive__3+0x56>
 800555e:	bf00      	nop
 8005560:	e7f7      	b.n	8005552 <stm32__spi__receive__3+0x46>
 8005562:	687b      	ldr	r3, [r7, #4]
 8005564:	685b      	ldr	r3, [r3, #4]
 8005566:	330c      	adds	r3, #12
 8005568:	681b      	ldr	r3, [r3, #0]
 800556a:	b29b      	uxth	r3, r3
 800556c:	2bff      	cmp	r3, #255	; 0xff
 800556e:	d904      	bls.n	800557a <stm32__spi__receive__3+0x6e>
 8005570:	481b      	ldr	r0, [pc, #108]	; (80055e0 <stm32__spi__receive__3+0xd4>)
 8005572:	f240 2141 	movw	r1, #577	; 0x241
 8005576:	f002 fd23 	bl	8007fc0 <__gnat_last_chance_handler>
 800557a:	b2db      	uxtb	r3, r3
 800557c:	737b      	strb	r3, [r7, #13]
 800557e:	6878      	ldr	r0, [r7, #4]
 8005580:	f7ff fd20 	bl	8004fc4 <stm32__spi__crc_enabled>
 8005584:	4603      	mov	r3, r0
 8005586:	2b00      	cmp	r3, #0
 8005588:	d00c      	beq.n	80055a4 <stm32__spi__receive__3+0x98>
 800558a:	6878      	ldr	r0, [r7, #4]
 800558c:	f7ff fc9e 	bl	8004ecc <stm32__spi__rx_is_empty>
 8005590:	4603      	mov	r3, r0
 8005592:	2b00      	cmp	r3, #0
 8005594:	d001      	beq.n	800559a <stm32__spi__receive__3+0x8e>
 8005596:	bf00      	nop
 8005598:	e7f7      	b.n	800558a <stm32__spi__receive__3+0x7e>
 800559a:	687b      	ldr	r3, [r7, #4]
 800559c:	685b      	ldr	r3, [r3, #4]
 800559e:	330c      	adds	r3, #12
 80055a0:	681b      	ldr	r3, [r3, #0]
 80055a2:	81fb      	strh	r3, [r7, #14]
 80055a4:	6878      	ldr	r0, [r7, #4]
 80055a6:	f7ff fca7 	bl	8004ef8 <stm32__spi__busy>
 80055aa:	4603      	mov	r3, r0
 80055ac:	2b00      	cmp	r3, #0
 80055ae:	d001      	beq.n	80055b4 <stm32__spi__receive__3+0xa8>
 80055b0:	bf00      	nop
 80055b2:	e7f7      	b.n	80055a4 <stm32__spi__receive__3+0x98>
 80055b4:	6878      	ldr	r0, [r7, #4]
 80055b6:	f7ff fd05 	bl	8004fc4 <stm32__spi__crc_enabled>
 80055ba:	4603      	mov	r3, r0
 80055bc:	461c      	mov	r4, r3
 80055be:	6878      	ldr	r0, [r7, #4]
 80055c0:	f7ff fd36 	bl	8005030 <stm32__spi__crc_error_indicated>
 80055c4:	4603      	mov	r3, r0
 80055c6:	4023      	ands	r3, r4
 80055c8:	b2db      	uxtb	r3, r3
 80055ca:	2b00      	cmp	r3, #0
 80055cc:	d002      	beq.n	80055d4 <stm32__spi__receive__3+0xc8>
 80055ce:	6878      	ldr	r0, [r7, #4]
 80055d0:	f7ff fd86 	bl	80050e0 <stm32__spi__reset_crc>
 80055d4:	7b7b      	ldrb	r3, [r7, #13]
 80055d6:	bf00      	nop
 80055d8:	4618      	mov	r0, r3
 80055da:	3714      	adds	r7, #20
 80055dc:	46bd      	mov	sp, r7
 80055de:	bd90      	pop	{r4, r7, pc}
 80055e0:	08009404 	.word	0x08009404

080055e4 <stm32__spi__transmit_receive>:
 80055e4:	b590      	push	{r4, r7, lr}
 80055e6:	b08f      	sub	sp, #60	; 0x3c
 80055e8:	af04      	add	r7, sp, #16
 80055ea:	60f8      	str	r0, [r7, #12]
 80055ec:	e9c7 2300 	strd	r2, r3, [r7]
 80055f0:	687b      	ldr	r3, [r7, #4]
 80055f2:	681b      	ldr	r3, [r3, #0]
 80055f4:	687a      	ldr	r2, [r7, #4]
 80055f6:	6852      	ldr	r2, [r2, #4]
 80055f8:	6bf9      	ldr	r1, [r7, #60]	; 0x3c
 80055fa:	6809      	ldr	r1, [r1, #0]
 80055fc:	6279      	str	r1, [r7, #36]	; 0x24
 80055fe:	6bf9      	ldr	r1, [r7, #60]	; 0x3c
 8005600:	6848      	ldr	r0, [r1, #4]
 8005602:	6bf9      	ldr	r1, [r7, #60]	; 0x3c
 8005604:	6809      	ldr	r1, [r1, #0]
 8005606:	4288      	cmp	r0, r1
 8005608:	db03      	blt.n	8005612 <stm32__spi__transmit_receive+0x2e>
 800560a:	6bf9      	ldr	r1, [r7, #60]	; 0x3c
 800560c:	6849      	ldr	r1, [r1, #4]
 800560e:	6239      	str	r1, [r7, #32]
 8005610:	e003      	b.n	800561a <stm32__spi__transmit_receive+0x36>
 8005612:	6bf9      	ldr	r1, [r7, #60]	; 0x3c
 8005614:	6809      	ldr	r1, [r1, #0]
 8005616:	3901      	subs	r1, #1
 8005618:	6239      	str	r1, [r7, #32]
 800561a:	61fb      	str	r3, [r7, #28]
 800561c:	429a      	cmp	r2, r3
 800561e:	db01      	blt.n	8005624 <stm32__spi__transmit_receive+0x40>
 8005620:	61ba      	str	r2, [r7, #24]
 8005622:	e001      	b.n	8005628 <stm32__spi__transmit_receive+0x44>
 8005624:	3b01      	subs	r3, #1
 8005626:	61bb      	str	r3, [r7, #24]
 8005628:	68f8      	ldr	r0, [r7, #12]
 800562a:	f7ff fccb 	bl	8004fc4 <stm32__spi__crc_enabled>
 800562e:	4603      	mov	r3, r0
 8005630:	2b00      	cmp	r3, #0
 8005632:	d002      	beq.n	800563a <stm32__spi__transmit_receive+0x56>
 8005634:	68f8      	ldr	r0, [r7, #12]
 8005636:	f7ff fd53 	bl	80050e0 <stm32__spi__reset_crc>
 800563a:	68f8      	ldr	r0, [r7, #12]
 800563c:	f7ff fbb4 	bl	8004da8 <stm32__spi__enabled>
 8005640:	4603      	mov	r3, r0
 8005642:	f083 0301 	eor.w	r3, r3, #1
 8005646:	b2db      	uxtb	r3, r3
 8005648:	2b00      	cmp	r3, #0
 800564a:	d002      	beq.n	8005652 <stm32__spi__transmit_receive+0x6e>
 800564c:	68f8      	ldr	r0, [r7, #12]
 800564e:	f7ff fb85 	bl	8004d5c <stm32__spi__enable>
 8005652:	68f8      	ldr	r0, [r7, #12]
 8005654:	f7ff fd60 	bl	8005118 <stm32__spi__is_data_frame_16bit>
 8005658:	4603      	mov	r3, r0
 800565a:	2b00      	cmp	r3, #0
 800565c:	d00b      	beq.n	8005676 <stm32__spi__transmit_receive+0x92>
 800565e:	e9d7 340e 	ldrd	r3, r4, [r7, #56]	; 0x38
 8005662:	e9cd 3400 	strd	r3, r4, [sp]
 8005666:	6c3b      	ldr	r3, [r7, #64]	; 0x40
 8005668:	9302      	str	r3, [sp, #8]
 800566a:	68f8      	ldr	r0, [r7, #12]
 800566c:	e9d7 2300 	ldrd	r2, r3, [r7]
 8005670:	f000 f8c6 	bl	8005800 <stm32__spi__send_receive_16bit_mode>
 8005674:	e00a      	b.n	800568c <stm32__spi__transmit_receive+0xa8>
 8005676:	e9d7 340e 	ldrd	r3, r4, [r7, #56]	; 0x38
 800567a:	e9cd 3400 	strd	r3, r4, [sp]
 800567e:	6c3b      	ldr	r3, [r7, #64]	; 0x40
 8005680:	9302      	str	r3, [sp, #8]
 8005682:	68f8      	ldr	r0, [r7, #12]
 8005684:	e9d7 2300 	ldrd	r2, r3, [r7]
 8005688:	f000 fa64 	bl	8005b54 <stm32__spi__send_receive_8bit_mode>
 800568c:	68f8      	ldr	r0, [r7, #12]
 800568e:	f7ff fc99 	bl	8004fc4 <stm32__spi__crc_enabled>
 8005692:	4603      	mov	r3, r0
 8005694:	2b00      	cmp	r3, #0
 8005696:	d00c      	beq.n	80056b2 <stm32__spi__transmit_receive+0xce>
 8005698:	68f8      	ldr	r0, [r7, #12]
 800569a:	f7ff fc17 	bl	8004ecc <stm32__spi__rx_is_empty>
 800569e:	4603      	mov	r3, r0
 80056a0:	2b00      	cmp	r3, #0
 80056a2:	d001      	beq.n	80056a8 <stm32__spi__transmit_receive+0xc4>
 80056a4:	bf00      	nop
 80056a6:	e7f7      	b.n	8005698 <stm32__spi__transmit_receive+0xb4>
 80056a8:	68fb      	ldr	r3, [r7, #12]
 80056aa:	685b      	ldr	r3, [r3, #4]
 80056ac:	330c      	adds	r3, #12
 80056ae:	681b      	ldr	r3, [r3, #0]
 80056b0:	82fb      	strh	r3, [r7, #22]
 80056b2:	68f8      	ldr	r0, [r7, #12]
 80056b4:	f7ff fc20 	bl	8004ef8 <stm32__spi__busy>
 80056b8:	4603      	mov	r3, r0
 80056ba:	2b00      	cmp	r3, #0
 80056bc:	d001      	beq.n	80056c2 <stm32__spi__transmit_receive+0xde>
 80056be:	bf00      	nop
 80056c0:	e7f7      	b.n	80056b2 <stm32__spi__transmit_receive+0xce>
 80056c2:	68f8      	ldr	r0, [r7, #12]
 80056c4:	f7ff fc7e 	bl	8004fc4 <stm32__spi__crc_enabled>
 80056c8:	4603      	mov	r3, r0
 80056ca:	461c      	mov	r4, r3
 80056cc:	68f8      	ldr	r0, [r7, #12]
 80056ce:	f7ff fcaf 	bl	8005030 <stm32__spi__crc_error_indicated>
 80056d2:	4603      	mov	r3, r0
 80056d4:	4023      	ands	r3, r4
 80056d6:	b2db      	uxtb	r3, r3
 80056d8:	2b00      	cmp	r3, #0
 80056da:	d002      	beq.n	80056e2 <stm32__spi__transmit_receive+0xfe>
 80056dc:	68f8      	ldr	r0, [r7, #12]
 80056de:	f7ff fcff 	bl	80050e0 <stm32__spi__reset_crc>
 80056e2:	372c      	adds	r7, #44	; 0x2c
 80056e4:	46bd      	mov	sp, r7
 80056e6:	bd90      	pop	{r4, r7, pc}

080056e8 <stm32__spi__transmit_receive__2>:
 80056e8:	b590      	push	{r4, r7, lr}
 80056ea:	b085      	sub	sp, #20
 80056ec:	af00      	add	r7, sp, #0
 80056ee:	6078      	str	r0, [r7, #4]
 80056f0:	460b      	mov	r3, r1
 80056f2:	70fb      	strb	r3, [r7, #3]
 80056f4:	6878      	ldr	r0, [r7, #4]
 80056f6:	f7ff fc65 	bl	8004fc4 <stm32__spi__crc_enabled>
 80056fa:	4603      	mov	r3, r0
 80056fc:	2b00      	cmp	r3, #0
 80056fe:	d002      	beq.n	8005706 <stm32__spi__transmit_receive__2+0x1e>
 8005700:	6878      	ldr	r0, [r7, #4]
 8005702:	f7ff fced 	bl	80050e0 <stm32__spi__reset_crc>
 8005706:	6878      	ldr	r0, [r7, #4]
 8005708:	f7ff fb4e 	bl	8004da8 <stm32__spi__enabled>
 800570c:	4603      	mov	r3, r0
 800570e:	f083 0301 	eor.w	r3, r3, #1
 8005712:	b2db      	uxtb	r3, r3
 8005714:	2b00      	cmp	r3, #0
 8005716:	d002      	beq.n	800571e <stm32__spi__transmit_receive__2+0x36>
 8005718:	6878      	ldr	r0, [r7, #4]
 800571a:	f7ff fb1f 	bl	8004d5c <stm32__spi__enable>
 800571e:	6878      	ldr	r0, [r7, #4]
 8005720:	f7ff fcfa 	bl	8005118 <stm32__spi__is_data_frame_16bit>
 8005724:	4603      	mov	r3, r0
 8005726:	2b00      	cmp	r3, #0
 8005728:	d004      	beq.n	8005734 <stm32__spi__transmit_receive__2+0x4c>
 800572a:	4834      	ldr	r0, [pc, #208]	; (80057fc <stm32__spi__transmit_receive__2+0x114>)
 800572c:	f240 2199 	movw	r1, #665	; 0x299
 8005730:	f002 fc46 	bl	8007fc0 <__gnat_last_chance_handler>
 8005734:	687b      	ldr	r3, [r7, #4]
 8005736:	685b      	ldr	r3, [r3, #4]
 8005738:	330c      	adds	r3, #12
 800573a:	681b      	ldr	r3, [r3, #0]
 800573c:	78fa      	ldrb	r2, [r7, #3]
 800573e:	b292      	uxth	r2, r2
 8005740:	f362 030f 	bfi	r3, r2, #0, #16
 8005744:	687a      	ldr	r2, [r7, #4]
 8005746:	6852      	ldr	r2, [r2, #4]
 8005748:	320c      	adds	r2, #12
 800574a:	6013      	str	r3, [r2, #0]
 800574c:	6878      	ldr	r0, [r7, #4]
 800574e:	f7ff fc39 	bl	8004fc4 <stm32__spi__crc_enabled>
 8005752:	4603      	mov	r3, r0
 8005754:	2b00      	cmp	r3, #0
 8005756:	d009      	beq.n	800576c <stm32__spi__transmit_receive__2+0x84>
 8005758:	687b      	ldr	r3, [r7, #4]
 800575a:	685b      	ldr	r3, [r3, #4]
 800575c:	681b      	ldr	r3, [r3, #0]
 800575e:	461a      	mov	r2, r3
 8005760:	4613      	mov	r3, r2
 8005762:	f443 5280 	orr.w	r2, r3, #4096	; 0x1000
 8005766:	687b      	ldr	r3, [r7, #4]
 8005768:	685b      	ldr	r3, [r3, #4]
 800576a:	601a      	str	r2, [r3, #0]
 800576c:	6878      	ldr	r0, [r7, #4]
 800576e:	f7ff fbad 	bl	8004ecc <stm32__spi__rx_is_empty>
 8005772:	4603      	mov	r3, r0
 8005774:	2b00      	cmp	r3, #0
 8005776:	d001      	beq.n	800577c <stm32__spi__transmit_receive__2+0x94>
 8005778:	bf00      	nop
 800577a:	e7f7      	b.n	800576c <stm32__spi__transmit_receive__2+0x84>
 800577c:	687b      	ldr	r3, [r7, #4]
 800577e:	685b      	ldr	r3, [r3, #4]
 8005780:	330c      	adds	r3, #12
 8005782:	681b      	ldr	r3, [r3, #0]
 8005784:	b29b      	uxth	r3, r3
 8005786:	2bff      	cmp	r3, #255	; 0xff
 8005788:	d904      	bls.n	8005794 <stm32__spi__transmit_receive__2+0xac>
 800578a:	481c      	ldr	r0, [pc, #112]	; (80057fc <stm32__spi__transmit_receive__2+0x114>)
 800578c:	f44f 712a 	mov.w	r1, #680	; 0x2a8
 8005790:	f002 fc16 	bl	8007fc0 <__gnat_last_chance_handler>
 8005794:	b2db      	uxtb	r3, r3
 8005796:	737b      	strb	r3, [r7, #13]
 8005798:	6878      	ldr	r0, [r7, #4]
 800579a:	f7ff fc13 	bl	8004fc4 <stm32__spi__crc_enabled>
 800579e:	4603      	mov	r3, r0
 80057a0:	2b00      	cmp	r3, #0
 80057a2:	d00c      	beq.n	80057be <stm32__spi__transmit_receive__2+0xd6>
 80057a4:	6878      	ldr	r0, [r7, #4]
 80057a6:	f7ff fb91 	bl	8004ecc <stm32__spi__rx_is_empty>
 80057aa:	4603      	mov	r3, r0
 80057ac:	2b00      	cmp	r3, #0
 80057ae:	d001      	beq.n	80057b4 <stm32__spi__transmit_receive__2+0xcc>
 80057b0:	bf00      	nop
 80057b2:	e7f7      	b.n	80057a4 <stm32__spi__transmit_receive__2+0xbc>
 80057b4:	687b      	ldr	r3, [r7, #4]
 80057b6:	685b      	ldr	r3, [r3, #4]
 80057b8:	330c      	adds	r3, #12
 80057ba:	681b      	ldr	r3, [r3, #0]
 80057bc:	81fb      	strh	r3, [r7, #14]
 80057be:	6878      	ldr	r0, [r7, #4]
 80057c0:	f7ff fb9a 	bl	8004ef8 <stm32__spi__busy>
 80057c4:	4603      	mov	r3, r0
 80057c6:	2b00      	cmp	r3, #0
 80057c8:	d001      	beq.n	80057ce <stm32__spi__transmit_receive__2+0xe6>
 80057ca:	bf00      	nop
 80057cc:	e7f7      	b.n	80057be <stm32__spi__transmit_receive__2+0xd6>
 80057ce:	6878      	ldr	r0, [r7, #4]
 80057d0:	f7ff fbf8 	bl	8004fc4 <stm32__spi__crc_enabled>
 80057d4:	4603      	mov	r3, r0
 80057d6:	461c      	mov	r4, r3
 80057d8:	6878      	ldr	r0, [r7, #4]
 80057da:	f7ff fc29 	bl	8005030 <stm32__spi__crc_error_indicated>
 80057de:	4603      	mov	r3, r0
 80057e0:	4023      	ands	r3, r4
 80057e2:	b2db      	uxtb	r3, r3
 80057e4:	2b00      	cmp	r3, #0
 80057e6:	d002      	beq.n	80057ee <stm32__spi__transmit_receive__2+0x106>
 80057e8:	6878      	ldr	r0, [r7, #4]
 80057ea:	f7ff fc79 	bl	80050e0 <stm32__spi__reset_crc>
 80057ee:	7b7b      	ldrb	r3, [r7, #13]
 80057f0:	bf00      	nop
 80057f2:	4618      	mov	r0, r3
 80057f4:	3714      	adds	r7, #20
 80057f6:	46bd      	mov	sp, r7
 80057f8:	bd90      	pop	{r4, r7, pc}
 80057fa:	bf00      	nop
 80057fc:	08009404 	.word	0x08009404

08005800 <stm32__spi__send_receive_16bit_mode>:
 8005800:	b5f0      	push	{r4, r5, r6, r7, lr}
 8005802:	b08d      	sub	sp, #52	; 0x34
 8005804:	af00      	add	r7, sp, #0
 8005806:	60f8      	str	r0, [r7, #12]
 8005808:	e9c7 2300 	strd	r2, r3, [r7]
 800580c:	687b      	ldr	r3, [r7, #4]
 800580e:	681c      	ldr	r4, [r3, #0]
 8005810:	687b      	ldr	r3, [r7, #4]
 8005812:	685d      	ldr	r5, [r3, #4]
 8005814:	6cfb      	ldr	r3, [r7, #76]	; 0x4c
 8005816:	681b      	ldr	r3, [r3, #0]
 8005818:	623b      	str	r3, [r7, #32]
 800581a:	6cfb      	ldr	r3, [r7, #76]	; 0x4c
 800581c:	685a      	ldr	r2, [r3, #4]
 800581e:	6cfb      	ldr	r3, [r7, #76]	; 0x4c
 8005820:	681b      	ldr	r3, [r3, #0]
 8005822:	429a      	cmp	r2, r3
 8005824:	db03      	blt.n	800582e <stm32__spi__send_receive_16bit_mode+0x2e>
 8005826:	6cfb      	ldr	r3, [r7, #76]	; 0x4c
 8005828:	685b      	ldr	r3, [r3, #4]
 800582a:	61fb      	str	r3, [r7, #28]
 800582c:	e003      	b.n	8005836 <stm32__spi__send_receive_16bit_mode+0x36>
 800582e:	6cfb      	ldr	r3, [r7, #76]	; 0x4c
 8005830:	681b      	ldr	r3, [r3, #0]
 8005832:	3b01      	subs	r3, #1
 8005834:	61fb      	str	r3, [r7, #28]
 8005836:	61bc      	str	r4, [r7, #24]
 8005838:	42a5      	cmp	r5, r4
 800583a:	db01      	blt.n	8005840 <stm32__spi__send_receive_16bit_mode+0x40>
 800583c:	617d      	str	r5, [r7, #20]
 800583e:	e002      	b.n	8005846 <stm32__spi__send_receive_16bit_mode+0x46>
 8005840:	4623      	mov	r3, r4
 8005842:	3b01      	subs	r3, #1
 8005844:	617b      	str	r3, [r7, #20]
 8005846:	6d3b      	ldr	r3, [r7, #80]	; 0x50
 8005848:	62fb      	str	r3, [r7, #44]	; 0x2c
 800584a:	2c00      	cmp	r4, #0
 800584c:	da04      	bge.n	8005858 <stm32__spi__send_receive_16bit_mode+0x58>
 800584e:	48a7      	ldr	r0, [pc, #668]	; (8005aec <stm32__spi__send_receive_16bit_mode+0x2ec>)
 8005850:	f240 21cb 	movw	r1, #715	; 0x2cb
 8005854:	f002 fbb4 	bl	8007fc0 <__gnat_last_chance_handler>
 8005858:	62bc      	str	r4, [r7, #40]	; 0x28
 800585a:	6cfb      	ldr	r3, [r7, #76]	; 0x4c
 800585c:	681b      	ldr	r3, [r3, #0]
 800585e:	2b00      	cmp	r3, #0
 8005860:	da04      	bge.n	800586c <stm32__spi__send_receive_16bit_mode+0x6c>
 8005862:	48a2      	ldr	r0, [pc, #648]	; (8005aec <stm32__spi__send_receive_16bit_mode+0x2ec>)
 8005864:	f44f 7133 	mov.w	r1, #716	; 0x2cc
 8005868:	f002 fbaa 	bl	8007fc0 <__gnat_last_chance_handler>
 800586c:	6cfb      	ldr	r3, [r7, #76]	; 0x4c
 800586e:	681b      	ldr	r3, [r3, #0]
 8005870:	627b      	str	r3, [r7, #36]	; 0x24
 8005872:	68f8      	ldr	r0, [r7, #12]
 8005874:	f7ff fb52 	bl	8004f1c <stm32__spi__current_mode>
 8005878:	4603      	mov	r3, r0
 800587a:	2b01      	cmp	r3, #1
 800587c:	d002      	beq.n	8005884 <stm32__spi__send_receive_16bit_mode+0x84>
 800587e:	6afb      	ldr	r3, [r7, #44]	; 0x2c
 8005880:	2b01      	cmp	r3, #1
 8005882:	d13c      	bne.n	80058fe <stm32__spi__send_receive_16bit_mode+0xfe>
 8005884:	6abb      	ldr	r3, [r7, #40]	; 0x28
 8005886:	42a3      	cmp	r3, r4
 8005888:	db02      	blt.n	8005890 <stm32__spi__send_receive_16bit_mode+0x90>
 800588a:	6abb      	ldr	r3, [r7, #40]	; 0x28
 800588c:	42ab      	cmp	r3, r5
 800588e:	dd04      	ble.n	800589a <stm32__spi__send_receive_16bit_mode+0x9a>
 8005890:	4896      	ldr	r0, [pc, #600]	; (8005aec <stm32__spi__send_receive_16bit_mode+0x2ec>)
 8005892:	f44f 7134 	mov.w	r1, #720	; 0x2d0
 8005896:	f002 fb93 	bl	8007fc0 <__gnat_last_chance_handler>
 800589a:	683a      	ldr	r2, [r7, #0]
 800589c:	4621      	mov	r1, r4
 800589e:	6abb      	ldr	r3, [r7, #40]	; 0x28
 80058a0:	1a5b      	subs	r3, r3, r1
 80058a2:	4413      	add	r3, r2
 80058a4:	2b00      	cmp	r3, #0
 80058a6:	d104      	bne.n	80058b2 <stm32__spi__send_receive_16bit_mode+0xb2>
 80058a8:	4890      	ldr	r0, [pc, #576]	; (8005aec <stm32__spi__send_receive_16bit_mode+0x2ec>)
 80058aa:	f44f 7134 	mov.w	r1, #720	; 0x2d0
 80058ae:	f002 fb87 	bl	8007fc0 <__gnat_last_chance_handler>
 80058b2:	68fb      	ldr	r3, [r7, #12]
 80058b4:	685b      	ldr	r3, [r3, #4]
 80058b6:	330c      	adds	r3, #12
 80058b8:	681b      	ldr	r3, [r3, #0]
 80058ba:	6839      	ldr	r1, [r7, #0]
 80058bc:	4620      	mov	r0, r4
 80058be:	6aba      	ldr	r2, [r7, #40]	; 0x28
 80058c0:	1a12      	subs	r2, r2, r0
 80058c2:	440a      	add	r2, r1
 80058c4:	8812      	ldrh	r2, [r2, #0]
 80058c6:	f362 030f 	bfi	r3, r2, #0, #16
 80058ca:	68fa      	ldr	r2, [r7, #12]
 80058cc:	6852      	ldr	r2, [r2, #4]
 80058ce:	320c      	adds	r2, #12
 80058d0:	6013      	str	r3, [r2, #0]
 80058d2:	6abb      	ldr	r3, [r7, #40]	; 0x28
 80058d4:	4a86      	ldr	r2, [pc, #536]	; (8005af0 <stm32__spi__send_receive_16bit_mode+0x2f0>)
 80058d6:	4293      	cmp	r3, r2
 80058d8:	dd04      	ble.n	80058e4 <stm32__spi__send_receive_16bit_mode+0xe4>
 80058da:	4884      	ldr	r0, [pc, #528]	; (8005aec <stm32__spi__send_receive_16bit_mode+0x2ec>)
 80058dc:	f240 21d1 	movw	r1, #721	; 0x2d1
 80058e0:	f002 fb6e 	bl	8007fc0 <__gnat_last_chance_handler>
 80058e4:	6abb      	ldr	r3, [r7, #40]	; 0x28
 80058e6:	3302      	adds	r3, #2
 80058e8:	62bb      	str	r3, [r7, #40]	; 0x28
 80058ea:	6afb      	ldr	r3, [r7, #44]	; 0x2c
 80058ec:	3b01      	subs	r3, #1
 80058ee:	2b00      	cmp	r3, #0
 80058f0:	da04      	bge.n	80058fc <stm32__spi__send_receive_16bit_mode+0xfc>
 80058f2:	487e      	ldr	r0, [pc, #504]	; (8005aec <stm32__spi__send_receive_16bit_mode+0x2ec>)
 80058f4:	f240 21d2 	movw	r1, #722	; 0x2d2
 80058f8:	f002 fb62 	bl	8007fc0 <__gnat_last_chance_handler>
 80058fc:	62fb      	str	r3, [r7, #44]	; 0x2c
 80058fe:	6afb      	ldr	r3, [r7, #44]	; 0x2c
 8005900:	2b00      	cmp	r3, #0
 8005902:	d142      	bne.n	800598a <stm32__spi__send_receive_16bit_mode+0x18a>
 8005904:	68f8      	ldr	r0, [r7, #12]
 8005906:	f7ff fb5d 	bl	8004fc4 <stm32__spi__crc_enabled>
 800590a:	4603      	mov	r3, r0
 800590c:	2b00      	cmp	r3, #0
 800590e:	d009      	beq.n	8005924 <stm32__spi__send_receive_16bit_mode+0x124>
 8005910:	68fb      	ldr	r3, [r7, #12]
 8005912:	685b      	ldr	r3, [r3, #4]
 8005914:	681b      	ldr	r3, [r3, #0]
 8005916:	461a      	mov	r2, r3
 8005918:	4613      	mov	r3, r2
 800591a:	f443 5280 	orr.w	r2, r3, #4096	; 0x1000
 800591e:	68fb      	ldr	r3, [r7, #12]
 8005920:	685b      	ldr	r3, [r3, #4]
 8005922:	601a      	str	r2, [r3, #0]
 8005924:	68f8      	ldr	r0, [r7, #12]
 8005926:	f7ff fad1 	bl	8004ecc <stm32__spi__rx_is_empty>
 800592a:	4603      	mov	r3, r0
 800592c:	2b00      	cmp	r3, #0
 800592e:	d001      	beq.n	8005934 <stm32__spi__send_receive_16bit_mode+0x134>
 8005930:	bf00      	nop
 8005932:	e7f7      	b.n	8005924 <stm32__spi__send_receive_16bit_mode+0x124>
 8005934:	6a7a      	ldr	r2, [r7, #36]	; 0x24
 8005936:	6cfb      	ldr	r3, [r7, #76]	; 0x4c
 8005938:	681b      	ldr	r3, [r3, #0]
 800593a:	429a      	cmp	r2, r3
 800593c:	db04      	blt.n	8005948 <stm32__spi__send_receive_16bit_mode+0x148>
 800593e:	6a7a      	ldr	r2, [r7, #36]	; 0x24
 8005940:	6cfb      	ldr	r3, [r7, #76]	; 0x4c
 8005942:	685b      	ldr	r3, [r3, #4]
 8005944:	429a      	cmp	r2, r3
 8005946:	dd04      	ble.n	8005952 <stm32__spi__send_receive_16bit_mode+0x152>
 8005948:	4868      	ldr	r0, [pc, #416]	; (8005aec <stm32__spi__send_receive_16bit_mode+0x2ec>)
 800594a:	f240 21e1 	movw	r1, #737	; 0x2e1
 800594e:	f002 fb37 	bl	8007fc0 <__gnat_last_chance_handler>
 8005952:	6cba      	ldr	r2, [r7, #72]	; 0x48
 8005954:	6cfb      	ldr	r3, [r7, #76]	; 0x4c
 8005956:	681b      	ldr	r3, [r3, #0]
 8005958:	4619      	mov	r1, r3
 800595a:	6a7b      	ldr	r3, [r7, #36]	; 0x24
 800595c:	1a5b      	subs	r3, r3, r1
 800595e:	4413      	add	r3, r2
 8005960:	2b00      	cmp	r3, #0
 8005962:	d104      	bne.n	800596e <stm32__spi__send_receive_16bit_mode+0x16e>
 8005964:	4861      	ldr	r0, [pc, #388]	; (8005aec <stm32__spi__send_receive_16bit_mode+0x2ec>)
 8005966:	f240 21e1 	movw	r1, #737	; 0x2e1
 800596a:	f002 fb29 	bl	8007fc0 <__gnat_last_chance_handler>
 800596e:	6cba      	ldr	r2, [r7, #72]	; 0x48
 8005970:	6cfb      	ldr	r3, [r7, #76]	; 0x4c
 8005972:	681b      	ldr	r3, [r3, #0]
 8005974:	4619      	mov	r1, r3
 8005976:	6a7b      	ldr	r3, [r7, #36]	; 0x24
 8005978:	1a5b      	subs	r3, r3, r1
 800597a:	4413      	add	r3, r2
 800597c:	68fa      	ldr	r2, [r7, #12]
 800597e:	6852      	ldr	r2, [r2, #4]
 8005980:	320c      	adds	r2, #12
 8005982:	6812      	ldr	r2, [r2, #0]
 8005984:	b292      	uxth	r2, r2
 8005986:	801a      	strh	r2, [r3, #0]
 8005988:	e0de      	b.n	8005b48 <stm32__spi__send_receive_16bit_mode+0x348>
 800598a:	6afb      	ldr	r3, [r7, #44]	; 0x2c
 800598c:	2b00      	cmp	r3, #0
 800598e:	f340 809f 	ble.w	8005ad0 <stm32__spi__send_receive_16bit_mode+0x2d0>
 8005992:	68f8      	ldr	r0, [r7, #12]
 8005994:	f7ff fa88 	bl	8004ea8 <stm32__spi__tx_is_empty>
 8005998:	4603      	mov	r3, r0
 800599a:	f083 0301 	eor.w	r3, r3, #1
 800599e:	b2db      	uxtb	r3, r3
 80059a0:	2b00      	cmp	r3, #0
 80059a2:	d001      	beq.n	80059a8 <stm32__spi__send_receive_16bit_mode+0x1a8>
 80059a4:	bf00      	nop
 80059a6:	e7f4      	b.n	8005992 <stm32__spi__send_receive_16bit_mode+0x192>
 80059a8:	6abb      	ldr	r3, [r7, #40]	; 0x28
 80059aa:	42a3      	cmp	r3, r4
 80059ac:	db02      	blt.n	80059b4 <stm32__spi__send_receive_16bit_mode+0x1b4>
 80059ae:	6abb      	ldr	r3, [r7, #40]	; 0x28
 80059b0:	42ab      	cmp	r3, r5
 80059b2:	dd04      	ble.n	80059be <stm32__spi__send_receive_16bit_mode+0x1be>
 80059b4:	484d      	ldr	r0, [pc, #308]	; (8005aec <stm32__spi__send_receive_16bit_mode+0x2ec>)
 80059b6:	f240 21ee 	movw	r1, #750	; 0x2ee
 80059ba:	f002 fb01 	bl	8007fc0 <__gnat_last_chance_handler>
 80059be:	683a      	ldr	r2, [r7, #0]
 80059c0:	4621      	mov	r1, r4
 80059c2:	6abb      	ldr	r3, [r7, #40]	; 0x28
 80059c4:	1a5b      	subs	r3, r3, r1
 80059c6:	4413      	add	r3, r2
 80059c8:	2b00      	cmp	r3, #0
 80059ca:	d104      	bne.n	80059d6 <stm32__spi__send_receive_16bit_mode+0x1d6>
 80059cc:	4847      	ldr	r0, [pc, #284]	; (8005aec <stm32__spi__send_receive_16bit_mode+0x2ec>)
 80059ce:	f240 21ee 	movw	r1, #750	; 0x2ee
 80059d2:	f002 faf5 	bl	8007fc0 <__gnat_last_chance_handler>
 80059d6:	68fb      	ldr	r3, [r7, #12]
 80059d8:	685b      	ldr	r3, [r3, #4]
 80059da:	330c      	adds	r3, #12
 80059dc:	681b      	ldr	r3, [r3, #0]
 80059de:	6839      	ldr	r1, [r7, #0]
 80059e0:	4620      	mov	r0, r4
 80059e2:	6aba      	ldr	r2, [r7, #40]	; 0x28
 80059e4:	1a12      	subs	r2, r2, r0
 80059e6:	440a      	add	r2, r1
 80059e8:	8812      	ldrh	r2, [r2, #0]
 80059ea:	f362 030f 	bfi	r3, r2, #0, #16
 80059ee:	68fa      	ldr	r2, [r7, #12]
 80059f0:	6852      	ldr	r2, [r2, #4]
 80059f2:	320c      	adds	r2, #12
 80059f4:	6013      	str	r3, [r2, #0]
 80059f6:	6abb      	ldr	r3, [r7, #40]	; 0x28
 80059f8:	4a3d      	ldr	r2, [pc, #244]	; (8005af0 <stm32__spi__send_receive_16bit_mode+0x2f0>)
 80059fa:	4293      	cmp	r3, r2
 80059fc:	dd04      	ble.n	8005a08 <stm32__spi__send_receive_16bit_mode+0x208>
 80059fe:	483b      	ldr	r0, [pc, #236]	; (8005aec <stm32__spi__send_receive_16bit_mode+0x2ec>)
 8005a00:	f240 21ef 	movw	r1, #751	; 0x2ef
 8005a04:	f002 fadc 	bl	8007fc0 <__gnat_last_chance_handler>
 8005a08:	6abb      	ldr	r3, [r7, #40]	; 0x28
 8005a0a:	3302      	adds	r3, #2
 8005a0c:	62bb      	str	r3, [r7, #40]	; 0x28
 8005a0e:	6afb      	ldr	r3, [r7, #44]	; 0x2c
 8005a10:	3b01      	subs	r3, #1
 8005a12:	2b00      	cmp	r3, #0
 8005a14:	da04      	bge.n	8005a20 <stm32__spi__send_receive_16bit_mode+0x220>
 8005a16:	4835      	ldr	r0, [pc, #212]	; (8005aec <stm32__spi__send_receive_16bit_mode+0x2ec>)
 8005a18:	f44f 713c 	mov.w	r1, #752	; 0x2f0
 8005a1c:	f002 fad0 	bl	8007fc0 <__gnat_last_chance_handler>
 8005a20:	62fb      	str	r3, [r7, #44]	; 0x2c
 8005a22:	6afb      	ldr	r3, [r7, #44]	; 0x2c
 8005a24:	2b00      	cmp	r3, #0
 8005a26:	bf0c      	ite	eq
 8005a28:	2301      	moveq	r3, #1
 8005a2a:	2300      	movne	r3, #0
 8005a2c:	b2de      	uxtb	r6, r3
 8005a2e:	68f8      	ldr	r0, [r7, #12]
 8005a30:	f7ff fac8 	bl	8004fc4 <stm32__spi__crc_enabled>
 8005a34:	4603      	mov	r3, r0
 8005a36:	4033      	ands	r3, r6
 8005a38:	b2db      	uxtb	r3, r3
 8005a3a:	2b00      	cmp	r3, #0
 8005a3c:	d009      	beq.n	8005a52 <stm32__spi__send_receive_16bit_mode+0x252>
 8005a3e:	68fb      	ldr	r3, [r7, #12]
 8005a40:	685b      	ldr	r3, [r3, #4]
 8005a42:	681b      	ldr	r3, [r3, #0]
 8005a44:	461a      	mov	r2, r3
 8005a46:	4613      	mov	r3, r2
 8005a48:	f443 5280 	orr.w	r2, r3, #4096	; 0x1000
 8005a4c:	68fb      	ldr	r3, [r7, #12]
 8005a4e:	685b      	ldr	r3, [r3, #4]
 8005a50:	601a      	str	r2, [r3, #0]
 8005a52:	68f8      	ldr	r0, [r7, #12]
 8005a54:	f7ff fa3a 	bl	8004ecc <stm32__spi__rx_is_empty>
 8005a58:	4603      	mov	r3, r0
 8005a5a:	2b00      	cmp	r3, #0
 8005a5c:	d001      	beq.n	8005a62 <stm32__spi__send_receive_16bit_mode+0x262>
 8005a5e:	bf00      	nop
 8005a60:	e7f7      	b.n	8005a52 <stm32__spi__send_receive_16bit_mode+0x252>
 8005a62:	6a7a      	ldr	r2, [r7, #36]	; 0x24
 8005a64:	6cfb      	ldr	r3, [r7, #76]	; 0x4c
 8005a66:	681b      	ldr	r3, [r3, #0]
 8005a68:	429a      	cmp	r2, r3
 8005a6a:	db04      	blt.n	8005a76 <stm32__spi__send_receive_16bit_mode+0x276>
 8005a6c:	6a7a      	ldr	r2, [r7, #36]	; 0x24
 8005a6e:	6cfb      	ldr	r3, [r7, #76]	; 0x4c
 8005a70:	685b      	ldr	r3, [r3, #4]
 8005a72:	429a      	cmp	r2, r3
 8005a74:	dd04      	ble.n	8005a80 <stm32__spi__send_receive_16bit_mode+0x280>
 8005a76:	481d      	ldr	r0, [pc, #116]	; (8005aec <stm32__spi__send_receive_16bit_mode+0x2ec>)
 8005a78:	f44f 713f 	mov.w	r1, #764	; 0x2fc
 8005a7c:	f002 faa0 	bl	8007fc0 <__gnat_last_chance_handler>
 8005a80:	6cba      	ldr	r2, [r7, #72]	; 0x48
 8005a82:	6cfb      	ldr	r3, [r7, #76]	; 0x4c
 8005a84:	681b      	ldr	r3, [r3, #0]
 8005a86:	4619      	mov	r1, r3
 8005a88:	6a7b      	ldr	r3, [r7, #36]	; 0x24
 8005a8a:	1a5b      	subs	r3, r3, r1
 8005a8c:	4413      	add	r3, r2
 8005a8e:	2b00      	cmp	r3, #0
 8005a90:	d104      	bne.n	8005a9c <stm32__spi__send_receive_16bit_mode+0x29c>
 8005a92:	4816      	ldr	r0, [pc, #88]	; (8005aec <stm32__spi__send_receive_16bit_mode+0x2ec>)
 8005a94:	f44f 713f 	mov.w	r1, #764	; 0x2fc
 8005a98:	f002 fa92 	bl	8007fc0 <__gnat_last_chance_handler>
 8005a9c:	6cba      	ldr	r2, [r7, #72]	; 0x48
 8005a9e:	6cfb      	ldr	r3, [r7, #76]	; 0x4c
 8005aa0:	681b      	ldr	r3, [r3, #0]
 8005aa2:	4619      	mov	r1, r3
 8005aa4:	6a7b      	ldr	r3, [r7, #36]	; 0x24
 8005aa6:	1a5b      	subs	r3, r3, r1
 8005aa8:	4413      	add	r3, r2
 8005aaa:	68fa      	ldr	r2, [r7, #12]
 8005aac:	6852      	ldr	r2, [r2, #4]
 8005aae:	320c      	adds	r2, #12
 8005ab0:	6812      	ldr	r2, [r2, #0]
 8005ab2:	b292      	uxth	r2, r2
 8005ab4:	801a      	strh	r2, [r3, #0]
 8005ab6:	6a7b      	ldr	r3, [r7, #36]	; 0x24
 8005ab8:	4a0d      	ldr	r2, [pc, #52]	; (8005af0 <stm32__spi__send_receive_16bit_mode+0x2f0>)
 8005aba:	4293      	cmp	r3, r2
 8005abc:	dd04      	ble.n	8005ac8 <stm32__spi__send_receive_16bit_mode+0x2c8>
 8005abe:	480b      	ldr	r0, [pc, #44]	; (8005aec <stm32__spi__send_receive_16bit_mode+0x2ec>)
 8005ac0:	f240 21fe 	movw	r1, #766	; 0x2fe
 8005ac4:	f002 fa7c 	bl	8007fc0 <__gnat_last_chance_handler>
 8005ac8:	6a7b      	ldr	r3, [r7, #36]	; 0x24
 8005aca:	3302      	adds	r3, #2
 8005acc:	627b      	str	r3, [r7, #36]	; 0x24
 8005ace:	e75c      	b.n	800598a <stm32__spi__send_receive_16bit_mode+0x18a>
 8005ad0:	68f8      	ldr	r0, [r7, #12]
 8005ad2:	f7ff fa23 	bl	8004f1c <stm32__spi__current_mode>
 8005ad6:	4603      	mov	r3, r0
 8005ad8:	2b01      	cmp	r3, #1
 8005ada:	d135      	bne.n	8005b48 <stm32__spi__send_receive_16bit_mode+0x348>
 8005adc:	68f8      	ldr	r0, [r7, #12]
 8005ade:	f7ff f9f5 	bl	8004ecc <stm32__spi__rx_is_empty>
 8005ae2:	4603      	mov	r3, r0
 8005ae4:	2b00      	cmp	r3, #0
 8005ae6:	d005      	beq.n	8005af4 <stm32__spi__send_receive_16bit_mode+0x2f4>
 8005ae8:	bf00      	nop
 8005aea:	e7f7      	b.n	8005adc <stm32__spi__send_receive_16bit_mode+0x2dc>
 8005aec:	08009404 	.word	0x08009404
 8005af0:	7ffffffd 	.word	0x7ffffffd
 8005af4:	6a7a      	ldr	r2, [r7, #36]	; 0x24
 8005af6:	6cfb      	ldr	r3, [r7, #76]	; 0x4c
 8005af8:	681b      	ldr	r3, [r3, #0]
 8005afa:	429a      	cmp	r2, r3
 8005afc:	db04      	blt.n	8005b08 <stm32__spi__send_receive_16bit_mode+0x308>
 8005afe:	6a7a      	ldr	r2, [r7, #36]	; 0x24
 8005b00:	6cfb      	ldr	r3, [r7, #76]	; 0x4c
 8005b02:	685b      	ldr	r3, [r3, #4]
 8005b04:	429a      	cmp	r2, r3
 8005b06:	dd04      	ble.n	8005b12 <stm32__spi__send_receive_16bit_mode+0x312>
 8005b08:	4811      	ldr	r0, [pc, #68]	; (8005b50 <stm32__spi__send_receive_16bit_mode+0x350>)
 8005b0a:	f44f 7142 	mov.w	r1, #776	; 0x308
 8005b0e:	f002 fa57 	bl	8007fc0 <__gnat_last_chance_handler>
 8005b12:	6cba      	ldr	r2, [r7, #72]	; 0x48
 8005b14:	6cfb      	ldr	r3, [r7, #76]	; 0x4c
 8005b16:	681b      	ldr	r3, [r3, #0]
 8005b18:	4619      	mov	r1, r3
 8005b1a:	6a7b      	ldr	r3, [r7, #36]	; 0x24
 8005b1c:	1a5b      	subs	r3, r3, r1
 8005b1e:	4413      	add	r3, r2
 8005b20:	2b00      	cmp	r3, #0
 8005b22:	d104      	bne.n	8005b2e <stm32__spi__send_receive_16bit_mode+0x32e>
 8005b24:	480a      	ldr	r0, [pc, #40]	; (8005b50 <stm32__spi__send_receive_16bit_mode+0x350>)
 8005b26:	f44f 7142 	mov.w	r1, #776	; 0x308
 8005b2a:	f002 fa49 	bl	8007fc0 <__gnat_last_chance_handler>
 8005b2e:	6cba      	ldr	r2, [r7, #72]	; 0x48
 8005b30:	6cfb      	ldr	r3, [r7, #76]	; 0x4c
 8005b32:	681b      	ldr	r3, [r3, #0]
 8005b34:	4619      	mov	r1, r3
 8005b36:	6a7b      	ldr	r3, [r7, #36]	; 0x24
 8005b38:	1a5b      	subs	r3, r3, r1
 8005b3a:	4413      	add	r3, r2
 8005b3c:	68fa      	ldr	r2, [r7, #12]
 8005b3e:	6852      	ldr	r2, [r2, #4]
 8005b40:	320c      	adds	r2, #12
 8005b42:	6812      	ldr	r2, [r2, #0]
 8005b44:	b292      	uxth	r2, r2
 8005b46:	801a      	strh	r2, [r3, #0]
 8005b48:	3734      	adds	r7, #52	; 0x34
 8005b4a:	46bd      	mov	sp, r7
 8005b4c:	bdf0      	pop	{r4, r5, r6, r7, pc}
 8005b4e:	bf00      	nop
 8005b50:	08009404 	.word	0x08009404

08005b54 <stm32__spi__send_receive_8bit_mode>:
 8005b54:	b5f0      	push	{r4, r5, r6, r7, lr}
 8005b56:	b08d      	sub	sp, #52	; 0x34
 8005b58:	af00      	add	r7, sp, #0
 8005b5a:	60f8      	str	r0, [r7, #12]
 8005b5c:	e9c7 2300 	strd	r2, r3, [r7]
 8005b60:	687b      	ldr	r3, [r7, #4]
 8005b62:	681c      	ldr	r4, [r3, #0]
 8005b64:	687b      	ldr	r3, [r7, #4]
 8005b66:	685d      	ldr	r5, [r3, #4]
 8005b68:	6cfb      	ldr	r3, [r7, #76]	; 0x4c
 8005b6a:	681b      	ldr	r3, [r3, #0]
 8005b6c:	623b      	str	r3, [r7, #32]
 8005b6e:	6cfb      	ldr	r3, [r7, #76]	; 0x4c
 8005b70:	685a      	ldr	r2, [r3, #4]
 8005b72:	6cfb      	ldr	r3, [r7, #76]	; 0x4c
 8005b74:	681b      	ldr	r3, [r3, #0]
 8005b76:	429a      	cmp	r2, r3
 8005b78:	db03      	blt.n	8005b82 <stm32__spi__send_receive_8bit_mode+0x2e>
 8005b7a:	6cfb      	ldr	r3, [r7, #76]	; 0x4c
 8005b7c:	685b      	ldr	r3, [r3, #4]
 8005b7e:	61fb      	str	r3, [r7, #28]
 8005b80:	e003      	b.n	8005b8a <stm32__spi__send_receive_8bit_mode+0x36>
 8005b82:	6cfb      	ldr	r3, [r7, #76]	; 0x4c
 8005b84:	681b      	ldr	r3, [r3, #0]
 8005b86:	3b01      	subs	r3, #1
 8005b88:	61fb      	str	r3, [r7, #28]
 8005b8a:	61bc      	str	r4, [r7, #24]
 8005b8c:	42a5      	cmp	r5, r4
 8005b8e:	db01      	blt.n	8005b94 <stm32__spi__send_receive_8bit_mode+0x40>
 8005b90:	617d      	str	r5, [r7, #20]
 8005b92:	e002      	b.n	8005b9a <stm32__spi__send_receive_8bit_mode+0x46>
 8005b94:	4623      	mov	r3, r4
 8005b96:	3b01      	subs	r3, #1
 8005b98:	617b      	str	r3, [r7, #20]
 8005b9a:	6d3b      	ldr	r3, [r7, #80]	; 0x50
 8005b9c:	62fb      	str	r3, [r7, #44]	; 0x2c
 8005b9e:	2c00      	cmp	r4, #0
 8005ba0:	da04      	bge.n	8005bac <stm32__spi__send_receive_8bit_mode+0x58>
 8005ba2:	48a8      	ldr	r0, [pc, #672]	; (8005e44 <stm32__spi__send_receive_8bit_mode+0x2f0>)
 8005ba4:	f44f 7146 	mov.w	r1, #792	; 0x318
 8005ba8:	f002 fa0a 	bl	8007fc0 <__gnat_last_chance_handler>
 8005bac:	62bc      	str	r4, [r7, #40]	; 0x28
 8005bae:	6cfb      	ldr	r3, [r7, #76]	; 0x4c
 8005bb0:	681b      	ldr	r3, [r3, #0]
 8005bb2:	2b00      	cmp	r3, #0
 8005bb4:	da04      	bge.n	8005bc0 <stm32__spi__send_receive_8bit_mode+0x6c>
 8005bb6:	48a3      	ldr	r0, [pc, #652]	; (8005e44 <stm32__spi__send_receive_8bit_mode+0x2f0>)
 8005bb8:	f240 3119 	movw	r1, #793	; 0x319
 8005bbc:	f002 fa00 	bl	8007fc0 <__gnat_last_chance_handler>
 8005bc0:	6cfb      	ldr	r3, [r7, #76]	; 0x4c
 8005bc2:	681b      	ldr	r3, [r3, #0]
 8005bc4:	627b      	str	r3, [r7, #36]	; 0x24
 8005bc6:	68f8      	ldr	r0, [r7, #12]
 8005bc8:	f7ff f9a8 	bl	8004f1c <stm32__spi__current_mode>
 8005bcc:	4603      	mov	r3, r0
 8005bce:	2b01      	cmp	r3, #1
 8005bd0:	d002      	beq.n	8005bd8 <stm32__spi__send_receive_8bit_mode+0x84>
 8005bd2:	6afb      	ldr	r3, [r7, #44]	; 0x2c
 8005bd4:	2b01      	cmp	r3, #1
 8005bd6:	d131      	bne.n	8005c3c <stm32__spi__send_receive_8bit_mode+0xe8>
 8005bd8:	6abb      	ldr	r3, [r7, #40]	; 0x28
 8005bda:	42a3      	cmp	r3, r4
 8005bdc:	db02      	blt.n	8005be4 <stm32__spi__send_receive_8bit_mode+0x90>
 8005bde:	6abb      	ldr	r3, [r7, #40]	; 0x28
 8005be0:	42ab      	cmp	r3, r5
 8005be2:	dd04      	ble.n	8005bee <stm32__spi__send_receive_8bit_mode+0x9a>
 8005be4:	4897      	ldr	r0, [pc, #604]	; (8005e44 <stm32__spi__send_receive_8bit_mode+0x2f0>)
 8005be6:	f44f 7147 	mov.w	r1, #796	; 0x31c
 8005bea:	f002 f9e9 	bl	8007fc0 <__gnat_last_chance_handler>
 8005bee:	68fb      	ldr	r3, [r7, #12]
 8005bf0:	685b      	ldr	r3, [r3, #4]
 8005bf2:	330c      	adds	r3, #12
 8005bf4:	681b      	ldr	r3, [r3, #0]
 8005bf6:	6839      	ldr	r1, [r7, #0]
 8005bf8:	6ab8      	ldr	r0, [r7, #40]	; 0x28
 8005bfa:	69ba      	ldr	r2, [r7, #24]
 8005bfc:	1a82      	subs	r2, r0, r2
 8005bfe:	5c8a      	ldrb	r2, [r1, r2]
 8005c00:	b292      	uxth	r2, r2
 8005c02:	f362 030f 	bfi	r3, r2, #0, #16
 8005c06:	68fa      	ldr	r2, [r7, #12]
 8005c08:	6852      	ldr	r2, [r2, #4]
 8005c0a:	320c      	adds	r2, #12
 8005c0c:	6013      	str	r3, [r2, #0]
 8005c0e:	6abb      	ldr	r3, [r7, #40]	; 0x28
 8005c10:	f06f 4200 	mvn.w	r2, #2147483648	; 0x80000000
 8005c14:	4293      	cmp	r3, r2
 8005c16:	d104      	bne.n	8005c22 <stm32__spi__send_receive_8bit_mode+0xce>
 8005c18:	488a      	ldr	r0, [pc, #552]	; (8005e44 <stm32__spi__send_receive_8bit_mode+0x2f0>)
 8005c1a:	f240 311d 	movw	r1, #797	; 0x31d
 8005c1e:	f002 f9cf 	bl	8007fc0 <__gnat_last_chance_handler>
 8005c22:	6abb      	ldr	r3, [r7, #40]	; 0x28
 8005c24:	3301      	adds	r3, #1
 8005c26:	62bb      	str	r3, [r7, #40]	; 0x28
 8005c28:	6afb      	ldr	r3, [r7, #44]	; 0x2c
 8005c2a:	3b01      	subs	r3, #1
 8005c2c:	2b00      	cmp	r3, #0
 8005c2e:	da04      	bge.n	8005c3a <stm32__spi__send_receive_8bit_mode+0xe6>
 8005c30:	4884      	ldr	r0, [pc, #528]	; (8005e44 <stm32__spi__send_receive_8bit_mode+0x2f0>)
 8005c32:	f240 311e 	movw	r1, #798	; 0x31e
 8005c36:	f002 f9c3 	bl	8007fc0 <__gnat_last_chance_handler>
 8005c3a:	62fb      	str	r3, [r7, #44]	; 0x2c
 8005c3c:	6afb      	ldr	r3, [r7, #44]	; 0x2c
 8005c3e:	2b00      	cmp	r3, #0
 8005c40:	d142      	bne.n	8005cc8 <stm32__spi__send_receive_8bit_mode+0x174>
 8005c42:	68f8      	ldr	r0, [r7, #12]
 8005c44:	f7ff f9be 	bl	8004fc4 <stm32__spi__crc_enabled>
 8005c48:	4603      	mov	r3, r0
 8005c4a:	2b00      	cmp	r3, #0
 8005c4c:	d009      	beq.n	8005c62 <stm32__spi__send_receive_8bit_mode+0x10e>
 8005c4e:	68fb      	ldr	r3, [r7, #12]
 8005c50:	685b      	ldr	r3, [r3, #4]
 8005c52:	681b      	ldr	r3, [r3, #0]
 8005c54:	461a      	mov	r2, r3
 8005c56:	4613      	mov	r3, r2
 8005c58:	f443 5280 	orr.w	r2, r3, #4096	; 0x1000
 8005c5c:	68fb      	ldr	r3, [r7, #12]
 8005c5e:	685b      	ldr	r3, [r3, #4]
 8005c60:	601a      	str	r2, [r3, #0]
 8005c62:	68f8      	ldr	r0, [r7, #12]
 8005c64:	f7ff f932 	bl	8004ecc <stm32__spi__rx_is_empty>
 8005c68:	4603      	mov	r3, r0
 8005c6a:	2b00      	cmp	r3, #0
 8005c6c:	d001      	beq.n	8005c72 <stm32__spi__send_receive_8bit_mode+0x11e>
 8005c6e:	bf00      	nop
 8005c70:	e7f7      	b.n	8005c62 <stm32__spi__send_receive_8bit_mode+0x10e>
 8005c72:	6a7a      	ldr	r2, [r7, #36]	; 0x24
 8005c74:	6cfb      	ldr	r3, [r7, #76]	; 0x4c
 8005c76:	681b      	ldr	r3, [r3, #0]
 8005c78:	429a      	cmp	r2, r3
 8005c7a:	db04      	blt.n	8005c86 <stm32__spi__send_receive_8bit_mode+0x132>
 8005c7c:	6a7a      	ldr	r2, [r7, #36]	; 0x24
 8005c7e:	6cfb      	ldr	r3, [r7, #76]	; 0x4c
 8005c80:	685b      	ldr	r3, [r3, #4]
 8005c82:	429a      	cmp	r2, r3
 8005c84:	dd04      	ble.n	8005c90 <stm32__spi__send_receive_8bit_mode+0x13c>
 8005c86:	486f      	ldr	r0, [pc, #444]	; (8005e44 <stm32__spi__send_receive_8bit_mode+0x2f0>)
 8005c88:	f240 312d 	movw	r1, #813	; 0x32d
 8005c8c:	f002 f998 	bl	8007fc0 <__gnat_last_chance_handler>
 8005c90:	68fb      	ldr	r3, [r7, #12]
 8005c92:	685b      	ldr	r3, [r3, #4]
 8005c94:	330c      	adds	r3, #12
 8005c96:	681b      	ldr	r3, [r3, #0]
 8005c98:	b29b      	uxth	r3, r3
 8005c9a:	2bff      	cmp	r3, #255	; 0xff
 8005c9c:	d904      	bls.n	8005ca8 <stm32__spi__send_receive_8bit_mode+0x154>
 8005c9e:	4869      	ldr	r0, [pc, #420]	; (8005e44 <stm32__spi__send_receive_8bit_mode+0x2f0>)
 8005ca0:	f240 312d 	movw	r1, #813	; 0x32d
 8005ca4:	f002 f98c 	bl	8007fc0 <__gnat_last_chance_handler>
 8005ca8:	6a7a      	ldr	r2, [r7, #36]	; 0x24
 8005caa:	2a00      	cmp	r2, #0
 8005cac:	da04      	bge.n	8005cb8 <stm32__spi__send_receive_8bit_mode+0x164>
 8005cae:	4865      	ldr	r0, [pc, #404]	; (8005e44 <stm32__spi__send_receive_8bit_mode+0x2f0>)
 8005cb0:	f240 312d 	movw	r1, #813	; 0x32d
 8005cb4:	f002 f984 	bl	8007fc0 <__gnat_last_chance_handler>
 8005cb8:	6cba      	ldr	r2, [r7, #72]	; 0x48
 8005cba:	b2d8      	uxtb	r0, r3
 8005cbc:	6a79      	ldr	r1, [r7, #36]	; 0x24
 8005cbe:	6a3b      	ldr	r3, [r7, #32]
 8005cc0:	1acb      	subs	r3, r1, r3
 8005cc2:	4601      	mov	r1, r0
 8005cc4:	54d1      	strb	r1, [r2, r3]
 8005cc6:	e0ca      	b.n	8005e5e <stm32__spi__send_receive_8bit_mode+0x30a>
 8005cc8:	6afb      	ldr	r3, [r7, #44]	; 0x2c
 8005cca:	2b00      	cmp	r3, #0
 8005ccc:	f340 8095 	ble.w	8005dfa <stm32__spi__send_receive_8bit_mode+0x2a6>
 8005cd0:	68f8      	ldr	r0, [r7, #12]
 8005cd2:	f7ff f8e9 	bl	8004ea8 <stm32__spi__tx_is_empty>
 8005cd6:	4603      	mov	r3, r0
 8005cd8:	f083 0301 	eor.w	r3, r3, #1
 8005cdc:	b2db      	uxtb	r3, r3
 8005cde:	2b00      	cmp	r3, #0
 8005ce0:	d001      	beq.n	8005ce6 <stm32__spi__send_receive_8bit_mode+0x192>
 8005ce2:	bf00      	nop
 8005ce4:	e7f4      	b.n	8005cd0 <stm32__spi__send_receive_8bit_mode+0x17c>
 8005ce6:	6abb      	ldr	r3, [r7, #40]	; 0x28
 8005ce8:	42a3      	cmp	r3, r4
 8005cea:	db02      	blt.n	8005cf2 <stm32__spi__send_receive_8bit_mode+0x19e>
 8005cec:	6abb      	ldr	r3, [r7, #40]	; 0x28
 8005cee:	42ab      	cmp	r3, r5
 8005cf0:	dd04      	ble.n	8005cfc <stm32__spi__send_receive_8bit_mode+0x1a8>
 8005cf2:	4854      	ldr	r0, [pc, #336]	; (8005e44 <stm32__spi__send_receive_8bit_mode+0x2f0>)
 8005cf4:	f240 3139 	movw	r1, #825	; 0x339
 8005cf8:	f002 f962 	bl	8007fc0 <__gnat_last_chance_handler>
 8005cfc:	68fb      	ldr	r3, [r7, #12]
 8005cfe:	685b      	ldr	r3, [r3, #4]
 8005d00:	330c      	adds	r3, #12
 8005d02:	681b      	ldr	r3, [r3, #0]
 8005d04:	6839      	ldr	r1, [r7, #0]
 8005d06:	6ab8      	ldr	r0, [r7, #40]	; 0x28
 8005d08:	69ba      	ldr	r2, [r7, #24]
 8005d0a:	1a82      	subs	r2, r0, r2
 8005d0c:	5c8a      	ldrb	r2, [r1, r2]
 8005d0e:	b292      	uxth	r2, r2
 8005d10:	f362 030f 	bfi	r3, r2, #0, #16
 8005d14:	68fa      	ldr	r2, [r7, #12]
 8005d16:	6852      	ldr	r2, [r2, #4]
 8005d18:	320c      	adds	r2, #12
 8005d1a:	6013      	str	r3, [r2, #0]
 8005d1c:	6abb      	ldr	r3, [r7, #40]	; 0x28
 8005d1e:	f06f 4200 	mvn.w	r2, #2147483648	; 0x80000000
 8005d22:	4293      	cmp	r3, r2
 8005d24:	d104      	bne.n	8005d30 <stm32__spi__send_receive_8bit_mode+0x1dc>
 8005d26:	4847      	ldr	r0, [pc, #284]	; (8005e44 <stm32__spi__send_receive_8bit_mode+0x2f0>)
 8005d28:	f240 313a 	movw	r1, #826	; 0x33a
 8005d2c:	f002 f948 	bl	8007fc0 <__gnat_last_chance_handler>
 8005d30:	6abb      	ldr	r3, [r7, #40]	; 0x28
 8005d32:	3301      	adds	r3, #1
 8005d34:	62bb      	str	r3, [r7, #40]	; 0x28
 8005d36:	6afb      	ldr	r3, [r7, #44]	; 0x2c
 8005d38:	3b01      	subs	r3, #1
 8005d3a:	2b00      	cmp	r3, #0
 8005d3c:	da04      	bge.n	8005d48 <stm32__spi__send_receive_8bit_mode+0x1f4>
 8005d3e:	4841      	ldr	r0, [pc, #260]	; (8005e44 <stm32__spi__send_receive_8bit_mode+0x2f0>)
 8005d40:	f240 313b 	movw	r1, #827	; 0x33b
 8005d44:	f002 f93c 	bl	8007fc0 <__gnat_last_chance_handler>
 8005d48:	62fb      	str	r3, [r7, #44]	; 0x2c
 8005d4a:	6afb      	ldr	r3, [r7, #44]	; 0x2c
 8005d4c:	2b00      	cmp	r3, #0
 8005d4e:	bf0c      	ite	eq
 8005d50:	2301      	moveq	r3, #1
 8005d52:	2300      	movne	r3, #0
 8005d54:	b2de      	uxtb	r6, r3
 8005d56:	68f8      	ldr	r0, [r7, #12]
 8005d58:	f7ff f934 	bl	8004fc4 <stm32__spi__crc_enabled>
 8005d5c:	4603      	mov	r3, r0
 8005d5e:	4033      	ands	r3, r6
 8005d60:	b2db      	uxtb	r3, r3
 8005d62:	2b00      	cmp	r3, #0
 8005d64:	d009      	beq.n	8005d7a <stm32__spi__send_receive_8bit_mode+0x226>
 8005d66:	68fb      	ldr	r3, [r7, #12]
 8005d68:	685b      	ldr	r3, [r3, #4]
 8005d6a:	681b      	ldr	r3, [r3, #0]
 8005d6c:	461a      	mov	r2, r3
 8005d6e:	4613      	mov	r3, r2
 8005d70:	f443 5280 	orr.w	r2, r3, #4096	; 0x1000
 8005d74:	68fb      	ldr	r3, [r7, #12]
 8005d76:	685b      	ldr	r3, [r3, #4]
 8005d78:	601a      	str	r2, [r3, #0]
 8005d7a:	68f8      	ldr	r0, [r7, #12]
 8005d7c:	f7ff f8a6 	bl	8004ecc <stm32__spi__rx_is_empty>
 8005d80:	4603      	mov	r3, r0
 8005d82:	2b00      	cmp	r3, #0
 8005d84:	d001      	beq.n	8005d8a <stm32__spi__send_receive_8bit_mode+0x236>
 8005d86:	bf00      	nop
 8005d88:	e7f7      	b.n	8005d7a <stm32__spi__send_receive_8bit_mode+0x226>
 8005d8a:	6a7a      	ldr	r2, [r7, #36]	; 0x24
 8005d8c:	6cfb      	ldr	r3, [r7, #76]	; 0x4c
 8005d8e:	681b      	ldr	r3, [r3, #0]
 8005d90:	429a      	cmp	r2, r3
 8005d92:	db04      	blt.n	8005d9e <stm32__spi__send_receive_8bit_mode+0x24a>
 8005d94:	6a7a      	ldr	r2, [r7, #36]	; 0x24
 8005d96:	6cfb      	ldr	r3, [r7, #76]	; 0x4c
 8005d98:	685b      	ldr	r3, [r3, #4]
 8005d9a:	429a      	cmp	r2, r3
 8005d9c:	dd04      	ble.n	8005da8 <stm32__spi__send_receive_8bit_mode+0x254>
 8005d9e:	4829      	ldr	r0, [pc, #164]	; (8005e44 <stm32__spi__send_receive_8bit_mode+0x2f0>)
 8005da0:	f240 3147 	movw	r1, #839	; 0x347
 8005da4:	f002 f90c 	bl	8007fc0 <__gnat_last_chance_handler>
 8005da8:	68fb      	ldr	r3, [r7, #12]
 8005daa:	685b      	ldr	r3, [r3, #4]
 8005dac:	330c      	adds	r3, #12
 8005dae:	681b      	ldr	r3, [r3, #0]
 8005db0:	b29b      	uxth	r3, r3
 8005db2:	2bff      	cmp	r3, #255	; 0xff
 8005db4:	d904      	bls.n	8005dc0 <stm32__spi__send_receive_8bit_mode+0x26c>
 8005db6:	4823      	ldr	r0, [pc, #140]	; (8005e44 <stm32__spi__send_receive_8bit_mode+0x2f0>)
 8005db8:	f240 3147 	movw	r1, #839	; 0x347
 8005dbc:	f002 f900 	bl	8007fc0 <__gnat_last_chance_handler>
 8005dc0:	6a7a      	ldr	r2, [r7, #36]	; 0x24
 8005dc2:	2a00      	cmp	r2, #0
 8005dc4:	da04      	bge.n	8005dd0 <stm32__spi__send_receive_8bit_mode+0x27c>
 8005dc6:	481f      	ldr	r0, [pc, #124]	; (8005e44 <stm32__spi__send_receive_8bit_mode+0x2f0>)
 8005dc8:	f240 3147 	movw	r1, #839	; 0x347
 8005dcc:	f002 f8f8 	bl	8007fc0 <__gnat_last_chance_handler>
 8005dd0:	6cba      	ldr	r2, [r7, #72]	; 0x48
 8005dd2:	b2d8      	uxtb	r0, r3
 8005dd4:	6a79      	ldr	r1, [r7, #36]	; 0x24
 8005dd6:	6a3b      	ldr	r3, [r7, #32]
 8005dd8:	1acb      	subs	r3, r1, r3
 8005dda:	4601      	mov	r1, r0
 8005ddc:	54d1      	strb	r1, [r2, r3]
 8005dde:	6a7b      	ldr	r3, [r7, #36]	; 0x24
 8005de0:	f06f 4200 	mvn.w	r2, #2147483648	; 0x80000000
 8005de4:	4293      	cmp	r3, r2
 8005de6:	d104      	bne.n	8005df2 <stm32__spi__send_receive_8bit_mode+0x29e>
 8005de8:	4816      	ldr	r0, [pc, #88]	; (8005e44 <stm32__spi__send_receive_8bit_mode+0x2f0>)
 8005dea:	f44f 7152 	mov.w	r1, #840	; 0x348
 8005dee:	f002 f8e7 	bl	8007fc0 <__gnat_last_chance_handler>
 8005df2:	6a7b      	ldr	r3, [r7, #36]	; 0x24
 8005df4:	3301      	adds	r3, #1
 8005df6:	627b      	str	r3, [r7, #36]	; 0x24
 8005df8:	e766      	b.n	8005cc8 <stm32__spi__send_receive_8bit_mode+0x174>
 8005dfa:	68f8      	ldr	r0, [r7, #12]
 8005dfc:	f7ff f88e 	bl	8004f1c <stm32__spi__current_mode>
 8005e00:	4603      	mov	r3, r0
 8005e02:	2b01      	cmp	r3, #1
 8005e04:	d12b      	bne.n	8005e5e <stm32__spi__send_receive_8bit_mode+0x30a>
 8005e06:	68f8      	ldr	r0, [r7, #12]
 8005e08:	f7ff f860 	bl	8004ecc <stm32__spi__rx_is_empty>
 8005e0c:	4603      	mov	r3, r0
 8005e0e:	2b00      	cmp	r3, #0
 8005e10:	d001      	beq.n	8005e16 <stm32__spi__send_receive_8bit_mode+0x2c2>
 8005e12:	bf00      	nop
 8005e14:	e7f7      	b.n	8005e06 <stm32__spi__send_receive_8bit_mode+0x2b2>
 8005e16:	6a7a      	ldr	r2, [r7, #36]	; 0x24
 8005e18:	6cfb      	ldr	r3, [r7, #76]	; 0x4c
 8005e1a:	681b      	ldr	r3, [r3, #0]
 8005e1c:	429a      	cmp	r2, r3
 8005e1e:	db04      	blt.n	8005e2a <stm32__spi__send_receive_8bit_mode+0x2d6>
 8005e20:	6a7a      	ldr	r2, [r7, #36]	; 0x24
 8005e22:	6cfb      	ldr	r3, [r7, #76]	; 0x4c
 8005e24:	685b      	ldr	r3, [r3, #4]
 8005e26:	429a      	cmp	r2, r3
 8005e28:	dd04      	ble.n	8005e34 <stm32__spi__send_receive_8bit_mode+0x2e0>
 8005e2a:	4806      	ldr	r0, [pc, #24]	; (8005e44 <stm32__spi__send_receive_8bit_mode+0x2f0>)
 8005e2c:	f240 3151 	movw	r1, #849	; 0x351
 8005e30:	f002 f8c6 	bl	8007fc0 <__gnat_last_chance_handler>
 8005e34:	6a7b      	ldr	r3, [r7, #36]	; 0x24
 8005e36:	2b00      	cmp	r3, #0
 8005e38:	da06      	bge.n	8005e48 <stm32__spi__send_receive_8bit_mode+0x2f4>
 8005e3a:	4802      	ldr	r0, [pc, #8]	; (8005e44 <stm32__spi__send_receive_8bit_mode+0x2f0>)
 8005e3c:	f240 3151 	movw	r1, #849	; 0x351
 8005e40:	f002 f8be 	bl	8007fc0 <__gnat_last_chance_handler>
 8005e44:	08009404 	.word	0x08009404
 8005e48:	6cbc      	ldr	r4, [r7, #72]	; 0x48
 8005e4a:	68f8      	ldr	r0, [r7, #12]
 8005e4c:	f7fe fff4 	bl	8004e38 <stm32__spi__data__2>
 8005e50:	4603      	mov	r3, r0
 8005e52:	4619      	mov	r1, r3
 8005e54:	6a7a      	ldr	r2, [r7, #36]	; 0x24
 8005e56:	6a3b      	ldr	r3, [r7, #32]
 8005e58:	1ad3      	subs	r3, r2, r3
 8005e5a:	460a      	mov	r2, r1
 8005e5c:	54e2      	strb	r2, [r4, r3]
 8005e5e:	3734      	adds	r7, #52	; 0x34
 8005e60:	46bd      	mov	sp, r7
 8005e62:	bdf0      	pop	{r4, r5, r6, r7, pc}

08005e64 <stm32__spi__send_16bit_mode>:
 8005e64:	e92d 43b0 	stmdb	sp!, {r4, r5, r7, r8, r9, lr}
 8005e68:	b086      	sub	sp, #24
 8005e6a:	af00      	add	r7, sp, #0
 8005e6c:	60f8      	str	r0, [r7, #12]
 8005e6e:	e9c7 2300 	strd	r2, r3, [r7]
 8005e72:	687b      	ldr	r3, [r7, #4]
 8005e74:	681c      	ldr	r4, [r3, #0]
 8005e76:	687b      	ldr	r3, [r7, #4]
 8005e78:	685d      	ldr	r5, [r3, #4]
 8005e7a:	42a5      	cmp	r5, r4
 8005e7c:	db0d      	blt.n	8005e9a <stm32__spi__send_16bit_mode+0x36>
 8005e7e:	4628      	mov	r0, r5
 8005e80:	ea4f 71e0 	mov.w	r1, r0, asr #31
 8005e84:	4622      	mov	r2, r4
 8005e86:	ea4f 73e2 	mov.w	r3, r2, asr #31
 8005e8a:	1a82      	subs	r2, r0, r2
 8005e8c:	eb61 0303 	sbc.w	r3, r1, r3
 8005e90:	f112 0801 	adds.w	r8, r2, #1
 8005e94:	f143 0900 	adc.w	r9, r3, #0
 8005e98:	e003      	b.n	8005ea2 <stm32__spi__send_16bit_mode+0x3e>
 8005e9a:	f04f 0800 	mov.w	r8, #0
 8005e9e:	f04f 0900 	mov.w	r9, #0
 8005ea2:	4622      	mov	r2, r4
 8005ea4:	ea4f 73e2 	mov.w	r3, r2, asr #31
 8005ea8:	4862      	ldr	r0, [pc, #392]	; (8006034 <stm32__spi__send_16bit_mode+0x1d0>)
 8005eaa:	f04f 0100 	mov.w	r1, #0
 8005eae:	1880      	adds	r0, r0, r2
 8005eb0:	eb41 0103 	adc.w	r1, r1, r3
 8005eb4:	462a      	mov	r2, r5
 8005eb6:	ea4f 73e2 	mov.w	r3, r2, asr #31
 8005eba:	4290      	cmp	r0, r2
 8005ebc:	eb71 0303 	sbcs.w	r3, r1, r3
 8005ec0:	da04      	bge.n	8005ecc <stm32__spi__send_16bit_mode+0x68>
 8005ec2:	485d      	ldr	r0, [pc, #372]	; (8006038 <stm32__spi__send_16bit_mode+0x1d4>)
 8005ec4:	f240 315d 	movw	r1, #861	; 0x35d
 8005ec8:	f002 f87a 	bl	8007fc0 <__gnat_last_chance_handler>
 8005ecc:	4643      	mov	r3, r8
 8005ece:	617b      	str	r3, [r7, #20]
 8005ed0:	2c00      	cmp	r4, #0
 8005ed2:	da04      	bge.n	8005ede <stm32__spi__send_16bit_mode+0x7a>
 8005ed4:	4858      	ldr	r0, [pc, #352]	; (8006038 <stm32__spi__send_16bit_mode+0x1d4>)
 8005ed6:	f240 315e 	movw	r1, #862	; 0x35e
 8005eda:	f002 f871 	bl	8007fc0 <__gnat_last_chance_handler>
 8005ede:	613c      	str	r4, [r7, #16]
 8005ee0:	68f8      	ldr	r0, [r7, #12]
 8005ee2:	f7ff f81b 	bl	8004f1c <stm32__spi__current_mode>
 8005ee6:	4603      	mov	r3, r0
 8005ee8:	2b01      	cmp	r3, #1
 8005eea:	d002      	beq.n	8005ef2 <stm32__spi__send_16bit_mode+0x8e>
 8005eec:	697b      	ldr	r3, [r7, #20]
 8005eee:	2b01      	cmp	r3, #1
 8005ef0:	d13e      	bne.n	8005f70 <stm32__spi__send_16bit_mode+0x10c>
 8005ef2:	693b      	ldr	r3, [r7, #16]
 8005ef4:	42a3      	cmp	r3, r4
 8005ef6:	db02      	blt.n	8005efe <stm32__spi__send_16bit_mode+0x9a>
 8005ef8:	693b      	ldr	r3, [r7, #16]
 8005efa:	42ab      	cmp	r3, r5
 8005efc:	dd04      	ble.n	8005f08 <stm32__spi__send_16bit_mode+0xa4>
 8005efe:	484e      	ldr	r0, [pc, #312]	; (8006038 <stm32__spi__send_16bit_mode+0x1d4>)
 8005f00:	f240 3162 	movw	r1, #866	; 0x362
 8005f04:	f002 f85c 	bl	8007fc0 <__gnat_last_chance_handler>
 8005f08:	683a      	ldr	r2, [r7, #0]
 8005f0a:	4621      	mov	r1, r4
 8005f0c:	693b      	ldr	r3, [r7, #16]
 8005f0e:	1a5b      	subs	r3, r3, r1
 8005f10:	005b      	lsls	r3, r3, #1
 8005f12:	4413      	add	r3, r2
 8005f14:	2b00      	cmp	r3, #0
 8005f16:	d104      	bne.n	8005f22 <stm32__spi__send_16bit_mode+0xbe>
 8005f18:	4847      	ldr	r0, [pc, #284]	; (8006038 <stm32__spi__send_16bit_mode+0x1d4>)
 8005f1a:	f240 3162 	movw	r1, #866	; 0x362
 8005f1e:	f002 f84f 	bl	8007fc0 <__gnat_last_chance_handler>
 8005f22:	68fb      	ldr	r3, [r7, #12]
 8005f24:	685b      	ldr	r3, [r3, #4]
 8005f26:	330c      	adds	r3, #12
 8005f28:	681b      	ldr	r3, [r3, #0]
 8005f2a:	6839      	ldr	r1, [r7, #0]
 8005f2c:	4620      	mov	r0, r4
 8005f2e:	693a      	ldr	r2, [r7, #16]
 8005f30:	1a12      	subs	r2, r2, r0
 8005f32:	0052      	lsls	r2, r2, #1
 8005f34:	440a      	add	r2, r1
 8005f36:	8812      	ldrh	r2, [r2, #0]
 8005f38:	f362 030f 	bfi	r3, r2, #0, #16
 8005f3c:	68fa      	ldr	r2, [r7, #12]
 8005f3e:	6852      	ldr	r2, [r2, #4]
 8005f40:	320c      	adds	r2, #12
 8005f42:	6013      	str	r3, [r2, #0]
 8005f44:	693b      	ldr	r3, [r7, #16]
 8005f46:	4a3d      	ldr	r2, [pc, #244]	; (800603c <stm32__spi__send_16bit_mode+0x1d8>)
 8005f48:	4293      	cmp	r3, r2
 8005f4a:	dd04      	ble.n	8005f56 <stm32__spi__send_16bit_mode+0xf2>
 8005f4c:	483a      	ldr	r0, [pc, #232]	; (8006038 <stm32__spi__send_16bit_mode+0x1d4>)
 8005f4e:	f240 3163 	movw	r1, #867	; 0x363
 8005f52:	f002 f835 	bl	8007fc0 <__gnat_last_chance_handler>
 8005f56:	693b      	ldr	r3, [r7, #16]
 8005f58:	3302      	adds	r3, #2
 8005f5a:	613b      	str	r3, [r7, #16]
 8005f5c:	697b      	ldr	r3, [r7, #20]
 8005f5e:	3b01      	subs	r3, #1
 8005f60:	2b00      	cmp	r3, #0
 8005f62:	da04      	bge.n	8005f6e <stm32__spi__send_16bit_mode+0x10a>
 8005f64:	4834      	ldr	r0, [pc, #208]	; (8006038 <stm32__spi__send_16bit_mode+0x1d4>)
 8005f66:	f44f 7159 	mov.w	r1, #868	; 0x364
 8005f6a:	f002 f829 	bl	8007fc0 <__gnat_last_chance_handler>
 8005f6e:	617b      	str	r3, [r7, #20]
 8005f70:	697b      	ldr	r3, [r7, #20]
 8005f72:	2b00      	cmp	r3, #0
 8005f74:	dd4a      	ble.n	800600c <stm32__spi__send_16bit_mode+0x1a8>
 8005f76:	68f8      	ldr	r0, [r7, #12]
 8005f78:	f7fe ff96 	bl	8004ea8 <stm32__spi__tx_is_empty>
 8005f7c:	4603      	mov	r3, r0
 8005f7e:	f083 0301 	eor.w	r3, r3, #1
 8005f82:	b2db      	uxtb	r3, r3
 8005f84:	2b00      	cmp	r3, #0
 8005f86:	d001      	beq.n	8005f8c <stm32__spi__send_16bit_mode+0x128>
 8005f88:	bf00      	nop
 8005f8a:	e7f4      	b.n	8005f76 <stm32__spi__send_16bit_mode+0x112>
 8005f8c:	693b      	ldr	r3, [r7, #16]
 8005f8e:	42a3      	cmp	r3, r4
 8005f90:	db02      	blt.n	8005f98 <stm32__spi__send_16bit_mode+0x134>
 8005f92:	693b      	ldr	r3, [r7, #16]
 8005f94:	42ab      	cmp	r3, r5
 8005f96:	dd04      	ble.n	8005fa2 <stm32__spi__send_16bit_mode+0x13e>
 8005f98:	4827      	ldr	r0, [pc, #156]	; (8006038 <stm32__spi__send_16bit_mode+0x1d4>)
 8005f9a:	f240 316e 	movw	r1, #878	; 0x36e
 8005f9e:	f002 f80f 	bl	8007fc0 <__gnat_last_chance_handler>
 8005fa2:	683a      	ldr	r2, [r7, #0]
 8005fa4:	4621      	mov	r1, r4
 8005fa6:	693b      	ldr	r3, [r7, #16]
 8005fa8:	1a5b      	subs	r3, r3, r1
 8005faa:	005b      	lsls	r3, r3, #1
 8005fac:	4413      	add	r3, r2
 8005fae:	2b00      	cmp	r3, #0
 8005fb0:	d104      	bne.n	8005fbc <stm32__spi__send_16bit_mode+0x158>
 8005fb2:	4821      	ldr	r0, [pc, #132]	; (8006038 <stm32__spi__send_16bit_mode+0x1d4>)
 8005fb4:	f240 316e 	movw	r1, #878	; 0x36e
 8005fb8:	f002 f802 	bl	8007fc0 <__gnat_last_chance_handler>
 8005fbc:	68fb      	ldr	r3, [r7, #12]
 8005fbe:	685b      	ldr	r3, [r3, #4]
 8005fc0:	330c      	adds	r3, #12
 8005fc2:	681b      	ldr	r3, [r3, #0]
 8005fc4:	6839      	ldr	r1, [r7, #0]
 8005fc6:	4620      	mov	r0, r4
 8005fc8:	693a      	ldr	r2, [r7, #16]
 8005fca:	1a12      	subs	r2, r2, r0
 8005fcc:	0052      	lsls	r2, r2, #1
 8005fce:	440a      	add	r2, r1
 8005fd0:	8812      	ldrh	r2, [r2, #0]
 8005fd2:	f362 030f 	bfi	r3, r2, #0, #16
 8005fd6:	68fa      	ldr	r2, [r7, #12]
 8005fd8:	6852      	ldr	r2, [r2, #4]
 8005fda:	320c      	adds	r2, #12
 8005fdc:	6013      	str	r3, [r2, #0]
 8005fde:	693b      	ldr	r3, [r7, #16]
 8005fe0:	4a16      	ldr	r2, [pc, #88]	; (800603c <stm32__spi__send_16bit_mode+0x1d8>)
 8005fe2:	4293      	cmp	r3, r2
 8005fe4:	dd04      	ble.n	8005ff0 <stm32__spi__send_16bit_mode+0x18c>
 8005fe6:	4814      	ldr	r0, [pc, #80]	; (8006038 <stm32__spi__send_16bit_mode+0x1d4>)
 8005fe8:	f240 316f 	movw	r1, #879	; 0x36f
 8005fec:	f001 ffe8 	bl	8007fc0 <__gnat_last_chance_handler>
 8005ff0:	693b      	ldr	r3, [r7, #16]
 8005ff2:	3302      	adds	r3, #2
 8005ff4:	613b      	str	r3, [r7, #16]
 8005ff6:	697b      	ldr	r3, [r7, #20]
 8005ff8:	3b01      	subs	r3, #1
 8005ffa:	2b00      	cmp	r3, #0
 8005ffc:	da04      	bge.n	8006008 <stm32__spi__send_16bit_mode+0x1a4>
 8005ffe:	480e      	ldr	r0, [pc, #56]	; (8006038 <stm32__spi__send_16bit_mode+0x1d4>)
 8006000:	f44f 715c 	mov.w	r1, #880	; 0x370
 8006004:	f001 ffdc 	bl	8007fc0 <__gnat_last_chance_handler>
 8006008:	617b      	str	r3, [r7, #20]
 800600a:	e7b1      	b.n	8005f70 <stm32__spi__send_16bit_mode+0x10c>
 800600c:	68f8      	ldr	r0, [r7, #12]
 800600e:	f7fe ffd9 	bl	8004fc4 <stm32__spi__crc_enabled>
 8006012:	4603      	mov	r3, r0
 8006014:	2b00      	cmp	r3, #0
 8006016:	d009      	beq.n	800602c <stm32__spi__send_16bit_mode+0x1c8>
 8006018:	68fb      	ldr	r3, [r7, #12]
 800601a:	685b      	ldr	r3, [r3, #4]
 800601c:	681b      	ldr	r3, [r3, #0]
 800601e:	461a      	mov	r2, r3
 8006020:	4613      	mov	r3, r2
 8006022:	f443 5280 	orr.w	r2, r3, #4096	; 0x1000
 8006026:	68fb      	ldr	r3, [r7, #12]
 8006028:	685b      	ldr	r3, [r3, #4]
 800602a:	601a      	str	r2, [r3, #0]
 800602c:	3718      	adds	r7, #24
 800602e:	46bd      	mov	sp, r7
 8006030:	e8bd 83b0 	ldmia.w	sp!, {r4, r5, r7, r8, r9, pc}
 8006034:	7ffffffe 	.word	0x7ffffffe
 8006038:	08009404 	.word	0x08009404
 800603c:	7ffffffd 	.word	0x7ffffffd

08006040 <stm32__spi__send_8bit_mode>:
 8006040:	e92d 43f0 	stmdb	sp!, {r4, r5, r6, r7, r8, r9, lr}
 8006044:	b087      	sub	sp, #28
 8006046:	af00      	add	r7, sp, #0
 8006048:	60f8      	str	r0, [r7, #12]
 800604a:	e9c7 2300 	strd	r2, r3, [r7]
 800604e:	687b      	ldr	r3, [r7, #4]
 8006050:	681c      	ldr	r4, [r3, #0]
 8006052:	687b      	ldr	r3, [r7, #4]
 8006054:	685d      	ldr	r5, [r3, #4]
 8006056:	42a5      	cmp	r5, r4
 8006058:	db0d      	blt.n	8006076 <stm32__spi__send_8bit_mode+0x36>
 800605a:	4628      	mov	r0, r5
 800605c:	ea4f 71e0 	mov.w	r1, r0, asr #31
 8006060:	4622      	mov	r2, r4
 8006062:	ea4f 73e2 	mov.w	r3, r2, asr #31
 8006066:	1a82      	subs	r2, r0, r2
 8006068:	eb61 0303 	sbc.w	r3, r1, r3
 800606c:	f112 0801 	adds.w	r8, r2, #1
 8006070:	f143 0900 	adc.w	r9, r3, #0
 8006074:	e003      	b.n	800607e <stm32__spi__send_8bit_mode+0x3e>
 8006076:	f04f 0800 	mov.w	r8, #0
 800607a:	f04f 0900 	mov.w	r9, #0
 800607e:	4626      	mov	r6, r4
 8006080:	4622      	mov	r2, r4
 8006082:	ea4f 73e2 	mov.w	r3, r2, asr #31
 8006086:	4855      	ldr	r0, [pc, #340]	; (80061dc <stm32__spi__send_8bit_mode+0x19c>)
 8006088:	f04f 0100 	mov.w	r1, #0
 800608c:	1880      	adds	r0, r0, r2
 800608e:	eb41 0103 	adc.w	r1, r1, r3
 8006092:	462a      	mov	r2, r5
 8006094:	ea4f 73e2 	mov.w	r3, r2, asr #31
 8006098:	4290      	cmp	r0, r2
 800609a:	eb71 0303 	sbcs.w	r3, r1, r3
 800609e:	da04      	bge.n	80060aa <stm32__spi__send_8bit_mode+0x6a>
 80060a0:	484f      	ldr	r0, [pc, #316]	; (80061e0 <stm32__spi__send_8bit_mode+0x1a0>)
 80060a2:	f44f 7160 	mov.w	r1, #896	; 0x380
 80060a6:	f001 ff8b 	bl	8007fc0 <__gnat_last_chance_handler>
 80060aa:	4643      	mov	r3, r8
 80060ac:	617b      	str	r3, [r7, #20]
 80060ae:	2c00      	cmp	r4, #0
 80060b0:	da04      	bge.n	80060bc <stm32__spi__send_8bit_mode+0x7c>
 80060b2:	484b      	ldr	r0, [pc, #300]	; (80061e0 <stm32__spi__send_8bit_mode+0x1a0>)
 80060b4:	f240 3181 	movw	r1, #897	; 0x381
 80060b8:	f001 ff82 	bl	8007fc0 <__gnat_last_chance_handler>
 80060bc:	613c      	str	r4, [r7, #16]
 80060be:	68f8      	ldr	r0, [r7, #12]
 80060c0:	f7fe ff2c 	bl	8004f1c <stm32__spi__current_mode>
 80060c4:	4603      	mov	r3, r0
 80060c6:	2b01      	cmp	r3, #1
 80060c8:	d002      	beq.n	80060d0 <stm32__spi__send_8bit_mode+0x90>
 80060ca:	697b      	ldr	r3, [r7, #20]
 80060cc:	2b01      	cmp	r3, #1
 80060ce:	d130      	bne.n	8006132 <stm32__spi__send_8bit_mode+0xf2>
 80060d0:	693b      	ldr	r3, [r7, #16]
 80060d2:	42a3      	cmp	r3, r4
 80060d4:	db02      	blt.n	80060dc <stm32__spi__send_8bit_mode+0x9c>
 80060d6:	693b      	ldr	r3, [r7, #16]
 80060d8:	42ab      	cmp	r3, r5
 80060da:	dd04      	ble.n	80060e6 <stm32__spi__send_8bit_mode+0xa6>
 80060dc:	4840      	ldr	r0, [pc, #256]	; (80061e0 <stm32__spi__send_8bit_mode+0x1a0>)
 80060de:	f44f 7161 	mov.w	r1, #900	; 0x384
 80060e2:	f001 ff6d 	bl	8007fc0 <__gnat_last_chance_handler>
 80060e6:	68fb      	ldr	r3, [r7, #12]
 80060e8:	685b      	ldr	r3, [r3, #4]
 80060ea:	330c      	adds	r3, #12
 80060ec:	681b      	ldr	r3, [r3, #0]
 80060ee:	6839      	ldr	r1, [r7, #0]
 80060f0:	693a      	ldr	r2, [r7, #16]
 80060f2:	1b92      	subs	r2, r2, r6
 80060f4:	5c8a      	ldrb	r2, [r1, r2]
 80060f6:	b292      	uxth	r2, r2
 80060f8:	f362 030f 	bfi	r3, r2, #0, #16
 80060fc:	68fa      	ldr	r2, [r7, #12]
 80060fe:	6852      	ldr	r2, [r2, #4]
 8006100:	320c      	adds	r2, #12
 8006102:	6013      	str	r3, [r2, #0]
 8006104:	693b      	ldr	r3, [r7, #16]
 8006106:	f06f 4200 	mvn.w	r2, #2147483648	; 0x80000000
 800610a:	4293      	cmp	r3, r2
 800610c:	d104      	bne.n	8006118 <stm32__spi__send_8bit_mode+0xd8>
 800610e:	4834      	ldr	r0, [pc, #208]	; (80061e0 <stm32__spi__send_8bit_mode+0x1a0>)
 8006110:	f240 3185 	movw	r1, #901	; 0x385
 8006114:	f001 ff54 	bl	8007fc0 <__gnat_last_chance_handler>
 8006118:	693b      	ldr	r3, [r7, #16]
 800611a:	3301      	adds	r3, #1
 800611c:	613b      	str	r3, [r7, #16]
 800611e:	697b      	ldr	r3, [r7, #20]
 8006120:	3b01      	subs	r3, #1
 8006122:	2b00      	cmp	r3, #0
 8006124:	da04      	bge.n	8006130 <stm32__spi__send_8bit_mode+0xf0>
 8006126:	482e      	ldr	r0, [pc, #184]	; (80061e0 <stm32__spi__send_8bit_mode+0x1a0>)
 8006128:	f240 3186 	movw	r1, #902	; 0x386
 800612c:	f001 ff48 	bl	8007fc0 <__gnat_last_chance_handler>
 8006130:	617b      	str	r3, [r7, #20]
 8006132:	697b      	ldr	r3, [r7, #20]
 8006134:	2b00      	cmp	r3, #0
 8006136:	dd3c      	ble.n	80061b2 <stm32__spi__send_8bit_mode+0x172>
 8006138:	68f8      	ldr	r0, [r7, #12]
 800613a:	f7fe feb5 	bl	8004ea8 <stm32__spi__tx_is_empty>
 800613e:	4603      	mov	r3, r0
 8006140:	f083 0301 	eor.w	r3, r3, #1
 8006144:	b2db      	uxtb	r3, r3
 8006146:	2b00      	cmp	r3, #0
 8006148:	d001      	beq.n	800614e <stm32__spi__send_8bit_mode+0x10e>
 800614a:	bf00      	nop
 800614c:	e7f4      	b.n	8006138 <stm32__spi__send_8bit_mode+0xf8>
 800614e:	693b      	ldr	r3, [r7, #16]
 8006150:	42a3      	cmp	r3, r4
 8006152:	db02      	blt.n	800615a <stm32__spi__send_8bit_mode+0x11a>
 8006154:	693b      	ldr	r3, [r7, #16]
 8006156:	42ab      	cmp	r3, r5
 8006158:	dd04      	ble.n	8006164 <stm32__spi__send_8bit_mode+0x124>
 800615a:	4821      	ldr	r0, [pc, #132]	; (80061e0 <stm32__spi__send_8bit_mode+0x1a0>)
 800615c:	f240 318f 	movw	r1, #911	; 0x38f
 8006160:	f001 ff2e 	bl	8007fc0 <__gnat_last_chance_handler>
 8006164:	68fb      	ldr	r3, [r7, #12]
 8006166:	685b      	ldr	r3, [r3, #4]
 8006168:	330c      	adds	r3, #12
 800616a:	681b      	ldr	r3, [r3, #0]
 800616c:	6839      	ldr	r1, [r7, #0]
 800616e:	693a      	ldr	r2, [r7, #16]
 8006170:	1b92      	subs	r2, r2, r6
 8006172:	5c8a      	ldrb	r2, [r1, r2]
 8006174:	b292      	uxth	r2, r2
 8006176:	f362 030f 	bfi	r3, r2, #0, #16
 800617a:	68fa      	ldr	r2, [r7, #12]
 800617c:	6852      	ldr	r2, [r2, #4]
 800617e:	320c      	adds	r2, #12
 8006180:	6013      	str	r3, [r2, #0]
 8006182:	693b      	ldr	r3, [r7, #16]
 8006184:	f06f 4200 	mvn.w	r2, #2147483648	; 0x80000000
 8006188:	4293      	cmp	r3, r2
 800618a:	d104      	bne.n	8006196 <stm32__spi__send_8bit_mode+0x156>
 800618c:	4814      	ldr	r0, [pc, #80]	; (80061e0 <stm32__spi__send_8bit_mode+0x1a0>)
 800618e:	f44f 7164 	mov.w	r1, #912	; 0x390
 8006192:	f001 ff15 	bl	8007fc0 <__gnat_last_chance_handler>
 8006196:	693b      	ldr	r3, [r7, #16]
 8006198:	3301      	adds	r3, #1
 800619a:	613b      	str	r3, [r7, #16]
 800619c:	697b      	ldr	r3, [r7, #20]
 800619e:	3b01      	subs	r3, #1
 80061a0:	2b00      	cmp	r3, #0
 80061a2:	da04      	bge.n	80061ae <stm32__spi__send_8bit_mode+0x16e>
 80061a4:	480e      	ldr	r0, [pc, #56]	; (80061e0 <stm32__spi__send_8bit_mode+0x1a0>)
 80061a6:	f240 3191 	movw	r1, #913	; 0x391
 80061aa:	f001 ff09 	bl	8007fc0 <__gnat_last_chance_handler>
 80061ae:	617b      	str	r3, [r7, #20]
 80061b0:	e7bf      	b.n	8006132 <stm32__spi__send_8bit_mode+0xf2>
 80061b2:	68f8      	ldr	r0, [r7, #12]
 80061b4:	f7fe ff06 	bl	8004fc4 <stm32__spi__crc_enabled>
 80061b8:	4603      	mov	r3, r0
 80061ba:	2b00      	cmp	r3, #0
 80061bc:	d009      	beq.n	80061d2 <stm32__spi__send_8bit_mode+0x192>
 80061be:	68fb      	ldr	r3, [r7, #12]
 80061c0:	685b      	ldr	r3, [r3, #4]
 80061c2:	681b      	ldr	r3, [r3, #0]
 80061c4:	461a      	mov	r2, r3
 80061c6:	4613      	mov	r3, r2
 80061c8:	f443 5280 	orr.w	r2, r3, #4096	; 0x1000
 80061cc:	68fb      	ldr	r3, [r7, #12]
 80061ce:	685b      	ldr	r3, [r3, #4]
 80061d0:	601a      	str	r2, [r3, #0]
 80061d2:	371c      	adds	r7, #28
 80061d4:	46bd      	mov	sp, r7
 80061d6:	e8bd 83f0 	ldmia.w	sp!, {r4, r5, r6, r7, r8, r9, pc}
 80061da:	bf00      	nop
 80061dc:	7ffffffe 	.word	0x7ffffffe
 80061e0:	08009404 	.word	0x08009404

080061e4 <stm32__spi__receive_16bit_mode>:
 80061e4:	e92d 41f0 	stmdb	sp!, {r4, r5, r6, r7, r8, lr}
 80061e8:	b086      	sub	sp, #24
 80061ea:	af00      	add	r7, sp, #0
 80061ec:	60f8      	str	r0, [r7, #12]
 80061ee:	e9c7 2300 	strd	r2, r3, [r7]
 80061f2:	687b      	ldr	r3, [r7, #4]
 80061f4:	681b      	ldr	r3, [r3, #0]
 80061f6:	461e      	mov	r6, r3
 80061f8:	68f8      	ldr	r0, [r7, #12]
 80061fa:	f7fe fe8f 	bl	8004f1c <stm32__spi__current_mode>
 80061fe:	4603      	mov	r3, r0
 8006200:	2b00      	cmp	r3, #0
 8006202:	bf0c      	ite	eq
 8006204:	2301      	moveq	r3, #1
 8006206:	2300      	movne	r3, #0
 8006208:	75fb      	strb	r3, [r7, #23]
 800620a:	687b      	ldr	r3, [r7, #4]
 800620c:	681c      	ldr	r4, [r3, #0]
 800620e:	687b      	ldr	r3, [r7, #4]
 8006210:	685d      	ldr	r5, [r3, #4]
 8006212:	42ac      	cmp	r4, r5
 8006214:	dc29      	bgt.n	800626a <stm32__spi__receive_16bit_mode+0x86>
 8006216:	683a      	ldr	r2, [r7, #0]
 8006218:	46a0      	mov	r8, r4
 800621a:	ebc6 0308 	rsb	r3, r6, r8
 800621e:	005b      	lsls	r3, r3, #1
 8006220:	4413      	add	r3, r2
 8006222:	613b      	str	r3, [r7, #16]
 8006224:	7dfb      	ldrb	r3, [r7, #23]
 8006226:	2b00      	cmp	r3, #0
 8006228:	d009      	beq.n	800623e <stm32__spi__receive_16bit_mode+0x5a>
 800622a:	68fb      	ldr	r3, [r7, #12]
 800622c:	685b      	ldr	r3, [r3, #4]
 800622e:	330c      	adds	r3, #12
 8006230:	681b      	ldr	r3, [r3, #0]
 8006232:	f36f 030f 	bfc	r3, #0, #16
 8006236:	68fa      	ldr	r2, [r7, #12]
 8006238:	6852      	ldr	r2, [r2, #4]
 800623a:	320c      	adds	r2, #12
 800623c:	6013      	str	r3, [r2, #0]
 800623e:	68f8      	ldr	r0, [r7, #12]
 8006240:	f7fe fe44 	bl	8004ecc <stm32__spi__rx_is_empty>
 8006244:	4603      	mov	r3, r0
 8006246:	2b00      	cmp	r3, #0
 8006248:	d001      	beq.n	800624e <stm32__spi__receive_16bit_mode+0x6a>
 800624a:	bf00      	nop
 800624c:	e7f7      	b.n	800623e <stm32__spi__receive_16bit_mode+0x5a>
 800624e:	683b      	ldr	r3, [r7, #0]
 8006250:	68fa      	ldr	r2, [r7, #12]
 8006252:	6852      	ldr	r2, [r2, #4]
 8006254:	320c      	adds	r2, #12
 8006256:	6812      	ldr	r2, [r2, #0]
 8006258:	b291      	uxth	r1, r2
 800625a:	ebc6 0208 	rsb	r2, r6, r8
 800625e:	f823 1012 	strh.w	r1, [r3, r2, lsl #1]
 8006262:	42ac      	cmp	r4, r5
 8006264:	d001      	beq.n	800626a <stm32__spi__receive_16bit_mode+0x86>
 8006266:	3401      	adds	r4, #1
 8006268:	e7d5      	b.n	8006216 <stm32__spi__receive_16bit_mode+0x32>
 800626a:	3718      	adds	r7, #24
 800626c:	46bd      	mov	sp, r7
 800626e:	e8bd 81f0 	ldmia.w	sp!, {r4, r5, r6, r7, r8, pc}
 8006272:	bf00      	nop

08006274 <stm32__spi__receive_8bit_mode>:
 8006274:	e92d 41f0 	stmdb	sp!, {r4, r5, r6, r7, r8, lr}
 8006278:	b086      	sub	sp, #24
 800627a:	af00      	add	r7, sp, #0
 800627c:	60f8      	str	r0, [r7, #12]
 800627e:	e9c7 2300 	strd	r2, r3, [r7]
 8006282:	687b      	ldr	r3, [r7, #4]
 8006284:	681b      	ldr	r3, [r3, #0]
 8006286:	461e      	mov	r6, r3
 8006288:	68f8      	ldr	r0, [r7, #12]
 800628a:	f7fe fe47 	bl	8004f1c <stm32__spi__current_mode>
 800628e:	4603      	mov	r3, r0
 8006290:	2b00      	cmp	r3, #0
 8006292:	bf0c      	ite	eq
 8006294:	2301      	moveq	r3, #1
 8006296:	2300      	movne	r3, #0
 8006298:	75fb      	strb	r3, [r7, #23]
 800629a:	687b      	ldr	r3, [r7, #4]
 800629c:	681c      	ldr	r4, [r3, #0]
 800629e:	687b      	ldr	r3, [r7, #4]
 80062a0:	685d      	ldr	r5, [r3, #4]
 80062a2:	42ac      	cmp	r4, r5
 80062a4:	dc2f      	bgt.n	8006306 <stm32__spi__receive_8bit_mode+0x92>
 80062a6:	683a      	ldr	r2, [r7, #0]
 80062a8:	46a0      	mov	r8, r4
 80062aa:	ebc6 0308 	rsb	r3, r6, r8
 80062ae:	4413      	add	r3, r2
 80062b0:	613b      	str	r3, [r7, #16]
 80062b2:	7dfb      	ldrb	r3, [r7, #23]
 80062b4:	2b00      	cmp	r3, #0
 80062b6:	d009      	beq.n	80062cc <stm32__spi__receive_8bit_mode+0x58>
 80062b8:	68fb      	ldr	r3, [r7, #12]
 80062ba:	685b      	ldr	r3, [r3, #4]
 80062bc:	330c      	adds	r3, #12
 80062be:	681b      	ldr	r3, [r3, #0]
 80062c0:	f36f 030f 	bfc	r3, #0, #16
 80062c4:	68fa      	ldr	r2, [r7, #12]
 80062c6:	6852      	ldr	r2, [r2, #4]
 80062c8:	320c      	adds	r2, #12
 80062ca:	6013      	str	r3, [r2, #0]
 80062cc:	68f8      	ldr	r0, [r7, #12]
 80062ce:	f7fe fdfd 	bl	8004ecc <stm32__spi__rx_is_empty>
 80062d2:	4603      	mov	r3, r0
 80062d4:	2b00      	cmp	r3, #0
 80062d6:	d001      	beq.n	80062dc <stm32__spi__receive_8bit_mode+0x68>
 80062d8:	bf00      	nop
 80062da:	e7f7      	b.n	80062cc <stm32__spi__receive_8bit_mode+0x58>
 80062dc:	68fb      	ldr	r3, [r7, #12]
 80062de:	685b      	ldr	r3, [r3, #4]
 80062e0:	330c      	adds	r3, #12
 80062e2:	681b      	ldr	r3, [r3, #0]
 80062e4:	b29b      	uxth	r3, r3
 80062e6:	2bff      	cmp	r3, #255	; 0xff
 80062e8:	d904      	bls.n	80062f4 <stm32__spi__receive_8bit_mode+0x80>
 80062ea:	4809      	ldr	r0, [pc, #36]	; (8006310 <stm32__spi__receive_8bit_mode+0x9c>)
 80062ec:	f240 31bf 	movw	r1, #959	; 0x3bf
 80062f0:	f001 fe66 	bl	8007fc0 <__gnat_last_chance_handler>
 80062f4:	683a      	ldr	r2, [r7, #0]
 80062f6:	b2d9      	uxtb	r1, r3
 80062f8:	ebc6 0308 	rsb	r3, r6, r8
 80062fc:	54d1      	strb	r1, [r2, r3]
 80062fe:	42ac      	cmp	r4, r5
 8006300:	d001      	beq.n	8006306 <stm32__spi__receive_8bit_mode+0x92>
 8006302:	3401      	adds	r4, #1
 8006304:	e7cf      	b.n	80062a6 <stm32__spi__receive_8bit_mode+0x32>
 8006306:	3718      	adds	r7, #24
 8006308:	46bd      	mov	sp, r7
 800630a:	e8bd 81f0 	ldmia.w	sp!, {r4, r5, r6, r7, r8, pc}
 800630e:	bf00      	nop
 8006310:	08009404 	.word	0x08009404

08006314 <stm32__i2s__i2s_portIP>:
 8006314:	b480      	push	{r7}
 8006316:	b085      	sub	sp, #20
 8006318:	af00      	add	r7, sp, #0
 800631a:	60f8      	str	r0, [r7, #12]
 800631c:	60b9      	str	r1, [r7, #8]
 800631e:	4613      	mov	r3, r2
 8006320:	71fb      	strb	r3, [r7, #7]
 8006322:	79fb      	ldrb	r3, [r7, #7]
 8006324:	2b00      	cmp	r3, #0
 8006326:	d002      	beq.n	800632e <stm32__i2s__i2s_portIP+0x1a>
 8006328:	68fb      	ldr	r3, [r7, #12]
 800632a:	4a05      	ldr	r2, [pc, #20]	; (8006340 <stm32__i2s__i2s_portIP+0x2c>)
 800632c:	601a      	str	r2, [r3, #0]
 800632e:	68fb      	ldr	r3, [r7, #12]
 8006330:	68ba      	ldr	r2, [r7, #8]
 8006332:	605a      	str	r2, [r3, #4]
 8006334:	3714      	adds	r7, #20
 8006336:	46bd      	mov	sp, r7
 8006338:	f85d 7b04 	ldr.w	r7, [sp], #4
 800633c:	4770      	bx	lr
 800633e:	bf00      	nop
 8006340:	08009540 	.word	0x08009540

08006344 <stm32__i2s___size__2>:
 8006344:	b490      	push	{r4, r7}
 8006346:	b082      	sub	sp, #8
 8006348:	af00      	add	r7, sp, #0
 800634a:	6078      	str	r0, [r7, #4]
 800634c:	f04f 0340 	mov.w	r3, #64	; 0x40
 8006350:	f04f 0400 	mov.w	r4, #0
 8006354:	4618      	mov	r0, r3
 8006356:	4621      	mov	r1, r4
 8006358:	3708      	adds	r7, #8
 800635a:	46bd      	mov	sp, r7
 800635c:	bc90      	pop	{r4, r7}
 800635e:	4770      	bx	lr

08006360 <stm32__i2s__configure___postconditions.4585>:
 8006360:	b5b0      	push	{r4, r5, r7, lr}
 8006362:	b082      	sub	sp, #8
 8006364:	af00      	add	r7, sp, #0
 8006366:	4663      	mov	r3, ip
 8006368:	f8c7 c004 	str.w	ip, [r7, #4]
 800636c:	681b      	ldr	r3, [r3, #0]
 800636e:	4618      	mov	r0, r3
 8006370:	f000 f9ac 	bl	80066cc <stm32__i2s__enabled>
 8006374:	4603      	mov	r3, r0
 8006376:	2b00      	cmp	r3, #0
 8006378:	d005      	beq.n	8006386 <stm32__i2s__configure___postconditions.4585+0x26>
 800637a:	4c04      	ldr	r4, [pc, #16]	; (800638c <stm32__i2s__configure___postconditions.4585+0x2c>)
 800637c:	4d04      	ldr	r5, [pc, #16]	; (8006390 <stm32__i2s__configure___postconditions.4585+0x30>)
 800637e:	4620      	mov	r0, r4
 8006380:	4629      	mov	r1, r5
 8006382:	f001 fe55 	bl	8008030 <system__assertions__raise_assert_failure>
 8006386:	3708      	adds	r7, #8
 8006388:	46bd      	mov	sp, r7
 800638a:	bdb0      	pop	{r4, r5, r7, pc}
 800638c:	08009564 	.word	0x08009564
 8006390:	08009590 	.word	0x08009590

08006394 <stm32__i2s__configure>:
 8006394:	b5b0      	push	{r4, r5, r7, lr}
 8006396:	b084      	sub	sp, #16
 8006398:	af00      	add	r7, sp, #0
 800639a:	6078      	str	r0, [r7, #4]
 800639c:	6039      	str	r1, [r7, #0]
 800639e:	f107 0320 	add.w	r3, r7, #32
 80063a2:	60fb      	str	r3, [r7, #12]
 80063a4:	687b      	ldr	r3, [r7, #4]
 80063a6:	60bb      	str	r3, [r7, #8]
 80063a8:	68bb      	ldr	r3, [r7, #8]
 80063aa:	4618      	mov	r0, r3
 80063ac:	f000 f98e 	bl	80066cc <stm32__i2s__enabled>
 80063b0:	4603      	mov	r3, r0
 80063b2:	2b00      	cmp	r3, #0
 80063b4:	d005      	beq.n	80063c2 <stm32__i2s__configure+0x2e>
 80063b6:	4c72      	ldr	r4, [pc, #456]	; (8006580 <stm32__i2s__configure+0x1ec>)
 80063b8:	4d72      	ldr	r5, [pc, #456]	; (8006584 <stm32__i2s__configure+0x1f0>)
 80063ba:	4620      	mov	r0, r4
 80063bc:	4629      	mov	r1, r5
 80063be:	f001 fe37 	bl	8008030 <system__assertions__raise_assert_failure>
 80063c2:	683b      	ldr	r3, [r7, #0]
 80063c4:	781b      	ldrb	r3, [r3, #0]
 80063c6:	2b03      	cmp	r3, #3
 80063c8:	d903      	bls.n	80063d2 <stm32__i2s__configure+0x3e>
 80063ca:	486f      	ldr	r0, [pc, #444]	; (8006588 <stm32__i2s__configure+0x1f4>)
 80063cc:	2139      	movs	r1, #57	; 0x39
 80063ce:	f001 fdf7 	bl	8007fc0 <__gnat_last_chance_handler>
 80063d2:	683b      	ldr	r3, [r7, #0]
 80063d4:	781b      	ldrb	r3, [r3, #0]
 80063d6:	2b01      	cmp	r3, #1
 80063d8:	d006      	beq.n	80063e8 <stm32__i2s__configure+0x54>
 80063da:	2b01      	cmp	r3, #1
 80063dc:	d302      	bcc.n	80063e4 <stm32__i2s__configure+0x50>
 80063de:	2b02      	cmp	r3, #2
 80063e0:	d004      	beq.n	80063ec <stm32__i2s__configure+0x58>
 80063e2:	e005      	b.n	80063f0 <stm32__i2s__configure+0x5c>
 80063e4:	2200      	movs	r2, #0
 80063e6:	e004      	b.n	80063f2 <stm32__i2s__configure+0x5e>
 80063e8:	2201      	movs	r2, #1
 80063ea:	e002      	b.n	80063f2 <stm32__i2s__configure+0x5e>
 80063ec:	2202      	movs	r2, #2
 80063ee:	e000      	b.n	80063f2 <stm32__i2s__configure+0x5e>
 80063f0:	2203      	movs	r2, #3
 80063f2:	bf00      	nop
 80063f4:	68bb      	ldr	r3, [r7, #8]
 80063f6:	685b      	ldr	r3, [r3, #4]
 80063f8:	331c      	adds	r3, #28
 80063fa:	681b      	ldr	r3, [r3, #0]
 80063fc:	f002 0203 	and.w	r2, r2, #3
 8006400:	b2d2      	uxtb	r2, r2
 8006402:	f362 2309 	bfi	r3, r2, #8, #2
 8006406:	68ba      	ldr	r2, [r7, #8]
 8006408:	6852      	ldr	r2, [r2, #4]
 800640a:	321c      	adds	r2, #28
 800640c:	6013      	str	r3, [r2, #0]
 800640e:	68bb      	ldr	r3, [r7, #8]
 8006410:	685b      	ldr	r3, [r3, #4]
 8006412:	331c      	adds	r3, #28
 8006414:	681b      	ldr	r3, [r3, #0]
 8006416:	683a      	ldr	r2, [r7, #0]
 8006418:	7892      	ldrb	r2, [r2, #2]
 800641a:	2a01      	cmp	r2, #1
 800641c:	bf0c      	ite	eq
 800641e:	2201      	moveq	r2, #1
 8006420:	2200      	movne	r2, #0
 8006422:	b2d2      	uxtb	r2, r2
 8006424:	f002 0201 	and.w	r2, r2, #1
 8006428:	b2d2      	uxtb	r2, r2
 800642a:	f362 13c7 	bfi	r3, r2, #7, #1
 800642e:	68ba      	ldr	r2, [r7, #8]
 8006430:	6852      	ldr	r2, [r2, #4]
 8006432:	321c      	adds	r2, #28
 8006434:	6013      	str	r3, [r2, #0]
 8006436:	683b      	ldr	r3, [r7, #0]
 8006438:	785b      	ldrb	r3, [r3, #1]
 800643a:	2b03      	cmp	r3, #3
 800643c:	d903      	bls.n	8006446 <stm32__i2s__configure+0xb2>
 800643e:	4852      	ldr	r0, [pc, #328]	; (8006588 <stm32__i2s__configure+0x1f4>)
 8006440:	2141      	movs	r1, #65	; 0x41
 8006442:	f001 fdbd 	bl	8007fc0 <__gnat_last_chance_handler>
 8006446:	683b      	ldr	r3, [r7, #0]
 8006448:	785b      	ldrb	r3, [r3, #1]
 800644a:	2b01      	cmp	r3, #1
 800644c:	d006      	beq.n	800645c <stm32__i2s__configure+0xc8>
 800644e:	2b01      	cmp	r3, #1
 8006450:	d302      	bcc.n	8006458 <stm32__i2s__configure+0xc4>
 8006452:	2b02      	cmp	r3, #2
 8006454:	d004      	beq.n	8006460 <stm32__i2s__configure+0xcc>
 8006456:	e005      	b.n	8006464 <stm32__i2s__configure+0xd0>
 8006458:	2200      	movs	r2, #0
 800645a:	e004      	b.n	8006466 <stm32__i2s__configure+0xd2>
 800645c:	2201      	movs	r2, #1
 800645e:	e002      	b.n	8006466 <stm32__i2s__configure+0xd2>
 8006460:	2202      	movs	r2, #2
 8006462:	e000      	b.n	8006466 <stm32__i2s__configure+0xd2>
 8006464:	2203      	movs	r2, #3
 8006466:	bf00      	nop
 8006468:	68bb      	ldr	r3, [r7, #8]
 800646a:	685b      	ldr	r3, [r3, #4]
 800646c:	331c      	adds	r3, #28
 800646e:	681b      	ldr	r3, [r3, #0]
 8006470:	f002 0203 	and.w	r2, r2, #3
 8006474:	b2d2      	uxtb	r2, r2
 8006476:	f362 1305 	bfi	r3, r2, #4, #2
 800647a:	68ba      	ldr	r2, [r7, #8]
 800647c:	6852      	ldr	r2, [r2, #4]
 800647e:	321c      	adds	r2, #28
 8006480:	6013      	str	r3, [r2, #0]
 8006482:	68bb      	ldr	r3, [r7, #8]
 8006484:	685b      	ldr	r3, [r3, #4]
 8006486:	331c      	adds	r3, #28
 8006488:	681b      	ldr	r3, [r3, #0]
 800648a:	683a      	ldr	r2, [r7, #0]
 800648c:	78d2      	ldrb	r2, [r2, #3]
 800648e:	2a01      	cmp	r2, #1
 8006490:	bf0c      	ite	eq
 8006492:	2201      	moveq	r2, #1
 8006494:	2200      	movne	r2, #0
 8006496:	b2d2      	uxtb	r2, r2
 8006498:	f002 0201 	and.w	r2, r2, #1
 800649c:	b2d2      	uxtb	r2, r2
 800649e:	f362 03c3 	bfi	r3, r2, #3, #1
 80064a2:	68ba      	ldr	r2, [r7, #8]
 80064a4:	6852      	ldr	r2, [r2, #4]
 80064a6:	321c      	adds	r2, #28
 80064a8:	6013      	str	r3, [r2, #0]
 80064aa:	683b      	ldr	r3, [r7, #0]
 80064ac:	791b      	ldrb	r3, [r3, #4]
 80064ae:	2b02      	cmp	r3, #2
 80064b0:	d903      	bls.n	80064ba <stm32__i2s__configure+0x126>
 80064b2:	4835      	ldr	r0, [pc, #212]	; (8006588 <stm32__i2s__configure+0x1f4>)
 80064b4:	2149      	movs	r1, #73	; 0x49
 80064b6:	f001 fd83 	bl	8007fc0 <__gnat_last_chance_handler>
 80064ba:	683b      	ldr	r3, [r7, #0]
 80064bc:	791b      	ldrb	r3, [r3, #4]
 80064be:	2b00      	cmp	r3, #0
 80064c0:	d002      	beq.n	80064c8 <stm32__i2s__configure+0x134>
 80064c2:	2b01      	cmp	r3, #1
 80064c4:	d002      	beq.n	80064cc <stm32__i2s__configure+0x138>
 80064c6:	e003      	b.n	80064d0 <stm32__i2s__configure+0x13c>
 80064c8:	2200      	movs	r2, #0
 80064ca:	e002      	b.n	80064d2 <stm32__i2s__configure+0x13e>
 80064cc:	2201      	movs	r2, #1
 80064ce:	e000      	b.n	80064d2 <stm32__i2s__configure+0x13e>
 80064d0:	2202      	movs	r2, #2
 80064d2:	bf00      	nop
 80064d4:	68bb      	ldr	r3, [r7, #8]
 80064d6:	685b      	ldr	r3, [r3, #4]
 80064d8:	331c      	adds	r3, #28
 80064da:	681b      	ldr	r3, [r3, #0]
 80064dc:	f002 0203 	and.w	r2, r2, #3
 80064e0:	b2d2      	uxtb	r2, r2
 80064e2:	f362 0342 	bfi	r3, r2, #1, #2
 80064e6:	68ba      	ldr	r2, [r7, #8]
 80064e8:	6852      	ldr	r2, [r2, #4]
 80064ea:	321c      	adds	r2, #28
 80064ec:	6013      	str	r3, [r2, #0]
 80064ee:	68bb      	ldr	r3, [r7, #8]
 80064f0:	685b      	ldr	r3, [r3, #4]
 80064f2:	331c      	adds	r3, #28
 80064f4:	681b      	ldr	r3, [r3, #0]
 80064f6:	683a      	ldr	r2, [r7, #0]
 80064f8:	7952      	ldrb	r2, [r2, #5]
 80064fa:	2a01      	cmp	r2, #1
 80064fc:	bf0c      	ite	eq
 80064fe:	2201      	moveq	r2, #1
 8006500:	2200      	movne	r2, #0
 8006502:	b2d2      	uxtb	r2, r2
 8006504:	f002 0201 	and.w	r2, r2, #1
 8006508:	b2d2      	uxtb	r2, r2
 800650a:	f362 0300 	bfi	r3, r2, #0, #1
 800650e:	68ba      	ldr	r2, [r7, #8]
 8006510:	6852      	ldr	r2, [r2, #4]
 8006512:	321c      	adds	r2, #28
 8006514:	6013      	str	r3, [r2, #0]
 8006516:	68bb      	ldr	r3, [r7, #8]
 8006518:	685b      	ldr	r3, [r3, #4]
 800651a:	3320      	adds	r3, #32
 800651c:	681b      	ldr	r3, [r3, #0]
 800651e:	683a      	ldr	r2, [r7, #0]
 8006520:	7992      	ldrb	r2, [r2, #6]
 8006522:	f002 0201 	and.w	r2, r2, #1
 8006526:	b2d2      	uxtb	r2, r2
 8006528:	f362 2349 	bfi	r3, r2, #9, #1
 800652c:	68ba      	ldr	r2, [r7, #8]
 800652e:	6852      	ldr	r2, [r2, #4]
 8006530:	3220      	adds	r2, #32
 8006532:	6013      	str	r3, [r2, #0]
 8006534:	68bb      	ldr	r3, [r7, #8]
 8006536:	685b      	ldr	r3, [r3, #4]
 8006538:	3304      	adds	r3, #4
 800653a:	681b      	ldr	r3, [r3, #0]
 800653c:	683a      	ldr	r2, [r7, #0]
 800653e:	79d2      	ldrb	r2, [r2, #7]
 8006540:	f002 0201 	and.w	r2, r2, #1
 8006544:	b2d2      	uxtb	r2, r2
 8006546:	f362 0341 	bfi	r3, r2, #1, #1
 800654a:	68ba      	ldr	r2, [r7, #8]
 800654c:	6852      	ldr	r2, [r2, #4]
 800654e:	3204      	adds	r2, #4
 8006550:	6013      	str	r3, [r2, #0]
 8006552:	68bb      	ldr	r3, [r7, #8]
 8006554:	685b      	ldr	r3, [r3, #4]
 8006556:	3304      	adds	r3, #4
 8006558:	681b      	ldr	r3, [r3, #0]
 800655a:	683a      	ldr	r2, [r7, #0]
 800655c:	7a12      	ldrb	r2, [r2, #8]
 800655e:	f002 0201 	and.w	r2, r2, #1
 8006562:	b2d2      	uxtb	r2, r2
 8006564:	f362 0300 	bfi	r3, r2, #0, #1
 8006568:	68ba      	ldr	r2, [r7, #8]
 800656a:	6852      	ldr	r2, [r2, #4]
 800656c:	3204      	adds	r2, #4
 800656e:	6013      	str	r3, [r2, #0]
 8006570:	f107 0308 	add.w	r3, r7, #8
 8006574:	469c      	mov	ip, r3
 8006576:	f7ff fef3 	bl	8006360 <stm32__i2s__configure___postconditions.4585>
 800657a:	3710      	adds	r7, #16
 800657c:	46bd      	mov	sp, r7
 800657e:	bdb0      	pop	{r4, r5, r7, pc}
 8006580:	08009598 	.word	0x08009598
 8006584:	080095d4 	.word	0x080095d4
 8006588:	080095c4 	.word	0x080095c4

0800658c <stm32__i2s__in_i2s_mode>:
 800658c:	b480      	push	{r7}
 800658e:	b083      	sub	sp, #12
 8006590:	af00      	add	r7, sp, #0
 8006592:	6078      	str	r0, [r7, #4]
 8006594:	687b      	ldr	r3, [r7, #4]
 8006596:	685b      	ldr	r3, [r3, #4]
 8006598:	331c      	adds	r3, #28
 800659a:	681b      	ldr	r3, [r3, #0]
 800659c:	f3c3 23c0 	ubfx	r3, r3, #11, #1
 80065a0:	b2db      	uxtb	r3, r3
 80065a2:	bf00      	nop
 80065a4:	4618      	mov	r0, r3
 80065a6:	370c      	adds	r7, #12
 80065a8:	46bd      	mov	sp, r7
 80065aa:	f85d 7b04 	ldr.w	r7, [sp], #4
 80065ae:	4770      	bx	lr

080065b0 <stm32__i2s__enable___postconditions.4608>:
 80065b0:	e92d 41f0 	stmdb	sp!, {r4, r5, r6, r7, r8, lr}
 80065b4:	b082      	sub	sp, #8
 80065b6:	af00      	add	r7, sp, #0
 80065b8:	4664      	mov	r4, ip
 80065ba:	f8c7 c004 	str.w	ip, [r7, #4]
 80065be:	6823      	ldr	r3, [r4, #0]
 80065c0:	4618      	mov	r0, r3
 80065c2:	f000 f883 	bl	80066cc <stm32__i2s__enabled>
 80065c6:	4603      	mov	r3, r0
 80065c8:	f083 0301 	eor.w	r3, r3, #1
 80065cc:	fa5f f883 	uxtb.w	r8, r3
 80065d0:	6823      	ldr	r3, [r4, #0]
 80065d2:	4618      	mov	r0, r3
 80065d4:	f7ff ffda 	bl	800658c <stm32__i2s__in_i2s_mode>
 80065d8:	4603      	mov	r3, r0
 80065da:	f083 0301 	eor.w	r3, r3, #1
 80065de:	b2db      	uxtb	r3, r3
 80065e0:	ea48 0303 	orr.w	r3, r8, r3
 80065e4:	b2db      	uxtb	r3, r3
 80065e6:	2b00      	cmp	r3, #0
 80065e8:	d005      	beq.n	80065f6 <stm32__i2s__enable___postconditions.4608+0x46>
 80065ea:	4d05      	ldr	r5, [pc, #20]	; (8006600 <stm32__i2s__enable___postconditions.4608+0x50>)
 80065ec:	4e05      	ldr	r6, [pc, #20]	; (8006604 <stm32__i2s__enable___postconditions.4608+0x54>)
 80065ee:	4628      	mov	r0, r5
 80065f0:	4631      	mov	r1, r6
 80065f2:	f001 fd1d 	bl	8008030 <system__assertions__raise_assert_failure>
 80065f6:	3708      	adds	r7, #8
 80065f8:	46bd      	mov	sp, r7
 80065fa:	e8bd 81f0 	ldmia.w	sp!, {r4, r5, r6, r7, r8, pc}
 80065fe:	bf00      	nop
 8006600:	080095dc 	.word	0x080095dc
 8006604:	08009590 	.word	0x08009590

08006608 <stm32__i2s__enable>:
 8006608:	b590      	push	{r4, r7, lr}
 800660a:	b087      	sub	sp, #28
 800660c:	af00      	add	r7, sp, #0
 800660e:	6078      	str	r0, [r7, #4]
 8006610:	f107 0228 	add.w	r2, r7, #40	; 0x28
 8006614:	617a      	str	r2, [r7, #20]
 8006616:	687a      	ldr	r2, [r7, #4]
 8006618:	613a      	str	r2, [r7, #16]
 800661a:	693a      	ldr	r2, [r7, #16]
 800661c:	6852      	ldr	r2, [r2, #4]
 800661e:	6812      	ldr	r2, [r2, #0]
 8006620:	f3c2 1280 	ubfx	r2, r2, #6, #1
 8006624:	b2d2      	uxtb	r2, r2
 8006626:	2a00      	cmp	r2, #0
 8006628:	d008      	beq.n	800663c <stm32__i2s__enable+0x34>
 800662a:	4b14      	ldr	r3, [pc, #80]	; (800667c <stm32__i2s__enable+0x74>)
 800662c:	4c14      	ldr	r4, [pc, #80]	; (8006680 <stm32__i2s__enable+0x78>)
 800662e:	e9c7 3402 	strd	r3, r4, [r7, #8]
 8006632:	68bb      	ldr	r3, [r7, #8]
 8006634:	4618      	mov	r0, r3
 8006636:	2100      	movs	r1, #0
 8006638:	f001 fcc2 	bl	8007fc0 <__gnat_last_chance_handler>
 800663c:	693b      	ldr	r3, [r7, #16]
 800663e:	685b      	ldr	r3, [r3, #4]
 8006640:	331c      	adds	r3, #28
 8006642:	681b      	ldr	r3, [r3, #0]
 8006644:	461a      	mov	r2, r3
 8006646:	4613      	mov	r3, r2
 8006648:	f443 6200 	orr.w	r2, r3, #2048	; 0x800
 800664c:	693b      	ldr	r3, [r7, #16]
 800664e:	685b      	ldr	r3, [r3, #4]
 8006650:	331c      	adds	r3, #28
 8006652:	601a      	str	r2, [r3, #0]
 8006654:	693b      	ldr	r3, [r7, #16]
 8006656:	685b      	ldr	r3, [r3, #4]
 8006658:	331c      	adds	r3, #28
 800665a:	681b      	ldr	r3, [r3, #0]
 800665c:	461a      	mov	r2, r3
 800665e:	4613      	mov	r3, r2
 8006660:	f443 6280 	orr.w	r2, r3, #1024	; 0x400
 8006664:	693b      	ldr	r3, [r7, #16]
 8006666:	685b      	ldr	r3, [r3, #4]
 8006668:	331c      	adds	r3, #28
 800666a:	601a      	str	r2, [r3, #0]
 800666c:	f107 0310 	add.w	r3, r7, #16
 8006670:	469c      	mov	ip, r3
 8006672:	f7ff ff9d 	bl	80065b0 <stm32__i2s__enable___postconditions.4608>
 8006676:	371c      	adds	r7, #28
 8006678:	46bd      	mov	sp, r7
 800667a:	bd90      	pop	{r4, r7, pc}
 800667c:	08009608 	.word	0x08009608
 8006680:	0800962c 	.word	0x0800962c

08006684 <stm32__i2s__disable>:
 8006684:	b5b0      	push	{r4, r5, r7, lr}
 8006686:	b082      	sub	sp, #8
 8006688:	af00      	add	r7, sp, #0
 800668a:	6078      	str	r0, [r7, #4]
 800668c:	6878      	ldr	r0, [r7, #4]
 800668e:	f7ff ff7d 	bl	800658c <stm32__i2s__in_i2s_mode>
 8006692:	4603      	mov	r3, r0
 8006694:	f083 0301 	eor.w	r3, r3, #1
 8006698:	b2db      	uxtb	r3, r3
 800669a:	2b00      	cmp	r3, #0
 800669c:	d005      	beq.n	80066aa <stm32__i2s__disable+0x26>
 800669e:	4c09      	ldr	r4, [pc, #36]	; (80066c4 <stm32__i2s__disable+0x40>)
 80066a0:	4d09      	ldr	r5, [pc, #36]	; (80066c8 <stm32__i2s__disable+0x44>)
 80066a2:	4620      	mov	r0, r4
 80066a4:	4629      	mov	r1, r5
 80066a6:	f001 fcc3 	bl	8008030 <system__assertions__raise_assert_failure>
 80066aa:	687b      	ldr	r3, [r7, #4]
 80066ac:	685b      	ldr	r3, [r3, #4]
 80066ae:	331c      	adds	r3, #28
 80066b0:	681b      	ldr	r3, [r3, #0]
 80066b2:	f36f 238a 	bfc	r3, #10, #1
 80066b6:	687a      	ldr	r2, [r7, #4]
 80066b8:	6852      	ldr	r2, [r2, #4]
 80066ba:	321c      	adds	r2, #28
 80066bc:	6013      	str	r3, [r2, #0]
 80066be:	3708      	adds	r7, #8
 80066c0:	46bd      	mov	sp, r7
 80066c2:	bdb0      	pop	{r4, r5, r7, pc}
 80066c4:	08009634 	.word	0x08009634
 80066c8:	08009590 	.word	0x08009590

080066cc <stm32__i2s__enabled>:
 80066cc:	b480      	push	{r7}
 80066ce:	b083      	sub	sp, #12
 80066d0:	af00      	add	r7, sp, #0
 80066d2:	6078      	str	r0, [r7, #4]
 80066d4:	687b      	ldr	r3, [r7, #4]
 80066d6:	685b      	ldr	r3, [r3, #4]
 80066d8:	331c      	adds	r3, #28
 80066da:	681b      	ldr	r3, [r3, #0]
 80066dc:	f3c3 2380 	ubfx	r3, r3, #10, #1
 80066e0:	b2db      	uxtb	r3, r3
 80066e2:	bf00      	nop
 80066e4:	4618      	mov	r0, r3
 80066e6:	370c      	adds	r7, #12
 80066e8:	46bd      	mov	sp, r7
 80066ea:	f85d 7b04 	ldr.w	r7, [sp], #4
 80066ee:	4770      	bx	lr

080066f0 <stm32__i2s__data_register_address>:
 80066f0:	b480      	push	{r7}
 80066f2:	b083      	sub	sp, #12
 80066f4:	af00      	add	r7, sp, #0
 80066f6:	6078      	str	r0, [r7, #4]
 80066f8:	687b      	ldr	r3, [r7, #4]
 80066fa:	685b      	ldr	r3, [r3, #4]
 80066fc:	330c      	adds	r3, #12
 80066fe:	bf00      	nop
 8006700:	4618      	mov	r0, r3
 8006702:	370c      	adds	r7, #12
 8006704:	46bd      	mov	sp, r7
 8006706:	f85d 7b04 	ldr.w	r7, [sp], #4
 800670a:	4770      	bx	lr

0800670c <stm32__i2s__set_frequency>:
 800670c:	b5b0      	push	{r4, r5, r7, lr}
 800670e:	b08e      	sub	sp, #56	; 0x38
 8006710:	af00      	add	r7, sp, #0
 8006712:	6078      	str	r0, [r7, #4]
 8006714:	6039      	str	r1, [r7, #0]
 8006716:	6878      	ldr	r0, [r7, #4]
 8006718:	f7ff ffd8 	bl	80066cc <stm32__i2s__enabled>
 800671c:	4603      	mov	r3, r0
 800671e:	2b00      	cmp	r3, #0
 8006720:	d005      	beq.n	800672e <stm32__i2s__set_frequency+0x22>
 8006722:	4c4a      	ldr	r4, [pc, #296]	; (800684c <stm32__i2s__set_frequency+0x140>)
 8006724:	4d4a      	ldr	r5, [pc, #296]	; (8006850 <stm32__i2s__set_frequency+0x144>)
 8006726:	4620      	mov	r0, r4
 8006728:	4629      	mov	r1, r5
 800672a:	f001 fc81 	bl	8008030 <system__assertions__raise_assert_failure>
 800672e:	f107 0308 	add.w	r3, r7, #8
 8006732:	4618      	mov	r0, r3
 8006734:	f7f9 fdde 	bl	80002f4 <stm32__device__system_clock_frequencies>
 8006738:	6a3b      	ldr	r3, [r7, #32]
 800673a:	62bb      	str	r3, [r7, #40]	; 0x28
 800673c:	687b      	ldr	r3, [r7, #4]
 800673e:	685b      	ldr	r3, [r3, #4]
 8006740:	331c      	adds	r3, #28
 8006742:	681b      	ldr	r3, [r3, #0]
 8006744:	b2db      	uxtb	r3, r3
 8006746:	f003 0306 	and.w	r3, r3, #6
 800674a:	b2db      	uxtb	r3, r3
 800674c:	2b00      	cmp	r3, #0
 800674e:	d101      	bne.n	8006754 <stm32__i2s__set_frequency+0x48>
 8006750:	2301      	movs	r3, #1
 8006752:	e000      	b.n	8006756 <stm32__i2s__set_frequency+0x4a>
 8006754:	2302      	movs	r3, #2
 8006756:	627b      	str	r3, [r7, #36]	; 0x24
 8006758:	687b      	ldr	r3, [r7, #4]
 800675a:	685b      	ldr	r3, [r3, #4]
 800675c:	3320      	adds	r3, #32
 800675e:	681b      	ldr	r3, [r3, #0]
 8006760:	f3c3 2340 	ubfx	r3, r3, #9, #1
 8006764:	b2db      	uxtb	r3, r3
 8006766:	2b00      	cmp	r3, #0
 8006768:	d007      	beq.n	800677a <stm32__i2s__set_frequency+0x6e>
 800676a:	6abb      	ldr	r3, [r7, #40]	; 0x28
 800676c:	0a1a      	lsrs	r2, r3, #8
 800676e:	4613      	mov	r3, r2
 8006770:	009b      	lsls	r3, r3, #2
 8006772:	4413      	add	r3, r2
 8006774:	005b      	lsls	r3, r3, #1
 8006776:	637b      	str	r3, [r7, #52]	; 0x34
 8006778:	e011      	b.n	800679e <stm32__i2s__set_frequency+0x92>
 800677a:	6a7b      	ldr	r3, [r7, #36]	; 0x24
 800677c:	015b      	lsls	r3, r3, #5
 800677e:	2b00      	cmp	r3, #0
 8006780:	d103      	bne.n	800678a <stm32__i2s__set_frequency+0x7e>
 8006782:	4834      	ldr	r0, [pc, #208]	; (8006854 <stm32__i2s__set_frequency+0x148>)
 8006784:	2199      	movs	r1, #153	; 0x99
 8006786:	f001 fc1b 	bl	8007fc0 <__gnat_last_chance_handler>
 800678a:	6a7b      	ldr	r3, [r7, #36]	; 0x24
 800678c:	015b      	lsls	r3, r3, #5
 800678e:	6aba      	ldr	r2, [r7, #40]	; 0x28
 8006790:	fbb2 f2f3 	udiv	r2, r2, r3
 8006794:	4613      	mov	r3, r2
 8006796:	009b      	lsls	r3, r3, #2
 8006798:	4413      	add	r3, r2
 800679a:	005b      	lsls	r3, r3, #1
 800679c:	637b      	str	r3, [r7, #52]	; 0x34
 800679e:	683b      	ldr	r3, [r7, #0]
 80067a0:	2b00      	cmp	r3, #0
 80067a2:	d103      	bne.n	80067ac <stm32__i2s__set_frequency+0xa0>
 80067a4:	482b      	ldr	r0, [pc, #172]	; (8006854 <stm32__i2s__set_frequency+0x148>)
 80067a6:	219c      	movs	r1, #156	; 0x9c
 80067a8:	f001 fc0a 	bl	8007fc0 <__gnat_last_chance_handler>
 80067ac:	6b7a      	ldr	r2, [r7, #52]	; 0x34
 80067ae:	683b      	ldr	r3, [r7, #0]
 80067b0:	fbb2 f3f3 	udiv	r3, r2, r3
 80067b4:	3305      	adds	r3, #5
 80067b6:	4a28      	ldr	r2, [pc, #160]	; (8006858 <stm32__i2s__set_frequency+0x14c>)
 80067b8:	fba2 2303 	umull	r2, r3, r2, r3
 80067bc:	08db      	lsrs	r3, r3, #3
 80067be:	637b      	str	r3, [r7, #52]	; 0x34
 80067c0:	6b7b      	ldr	r3, [r7, #52]	; 0x34
 80067c2:	f003 0301 	and.w	r3, r3, #1
 80067c6:	2b00      	cmp	r3, #0
 80067c8:	bf14      	ite	ne
 80067ca:	2301      	movne	r3, #1
 80067cc:	2300      	moveq	r3, #0
 80067ce:	f887 3033 	strb.w	r3, [r7, #51]	; 0x33
 80067d2:	f897 3033 	ldrb.w	r3, [r7, #51]	; 0x33
 80067d6:	2b00      	cmp	r3, #0
 80067d8:	d004      	beq.n	80067e4 <stm32__i2s__set_frequency+0xd8>
 80067da:	6b7b      	ldr	r3, [r7, #52]	; 0x34
 80067dc:	3b01      	subs	r3, #1
 80067de:	085b      	lsrs	r3, r3, #1
 80067e0:	62fb      	str	r3, [r7, #44]	; 0x2c
 80067e2:	e002      	b.n	80067ea <stm32__i2s__set_frequency+0xde>
 80067e4:	6b7b      	ldr	r3, [r7, #52]	; 0x34
 80067e6:	085b      	lsrs	r3, r3, #1
 80067e8:	62fb      	str	r3, [r7, #44]	; 0x2c
 80067ea:	6afb      	ldr	r3, [r7, #44]	; 0x2c
 80067ec:	2b01      	cmp	r3, #1
 80067ee:	d902      	bls.n	80067f6 <stm32__i2s__set_frequency+0xea>
 80067f0:	6afb      	ldr	r3, [r7, #44]	; 0x2c
 80067f2:	2bff      	cmp	r3, #255	; 0xff
 80067f4:	d904      	bls.n	8006800 <stm32__i2s__set_frequency+0xf4>
 80067f6:	2302      	movs	r3, #2
 80067f8:	62fb      	str	r3, [r7, #44]	; 0x2c
 80067fa:	2300      	movs	r3, #0
 80067fc:	f887 3033 	strb.w	r3, [r7, #51]	; 0x33
 8006800:	687b      	ldr	r3, [r7, #4]
 8006802:	685b      	ldr	r3, [r3, #4]
 8006804:	3320      	adds	r3, #32
 8006806:	681b      	ldr	r3, [r3, #0]
 8006808:	f897 2033 	ldrb.w	r2, [r7, #51]	; 0x33
 800680c:	f002 0201 	and.w	r2, r2, #1
 8006810:	b2d2      	uxtb	r2, r2
 8006812:	f362 2308 	bfi	r3, r2, #8, #1
 8006816:	687a      	ldr	r2, [r7, #4]
 8006818:	6852      	ldr	r2, [r2, #4]
 800681a:	3220      	adds	r2, #32
 800681c:	6013      	str	r3, [r2, #0]
 800681e:	6afb      	ldr	r3, [r7, #44]	; 0x2c
 8006820:	2bff      	cmp	r3, #255	; 0xff
 8006822:	d903      	bls.n	800682c <stm32__i2s__set_frequency+0x120>
 8006824:	480b      	ldr	r0, [pc, #44]	; (8006854 <stm32__i2s__set_frequency+0x148>)
 8006826:	21ad      	movs	r1, #173	; 0xad
 8006828:	f001 fbca 	bl	8007fc0 <__gnat_last_chance_handler>
 800682c:	687b      	ldr	r3, [r7, #4]
 800682e:	685b      	ldr	r3, [r3, #4]
 8006830:	3320      	adds	r3, #32
 8006832:	681b      	ldr	r3, [r3, #0]
 8006834:	6afa      	ldr	r2, [r7, #44]	; 0x2c
 8006836:	b2d2      	uxtb	r2, r2
 8006838:	f362 0307 	bfi	r3, r2, #0, #8
 800683c:	687a      	ldr	r2, [r7, #4]
 800683e:	6852      	ldr	r2, [r2, #4]
 8006840:	3220      	adds	r2, #32
 8006842:	6013      	str	r3, [r2, #0]
 8006844:	3738      	adds	r7, #56	; 0x38
 8006846:	46bd      	mov	sp, r7
 8006848:	bdb0      	pop	{r4, r5, r7, pc}
 800684a:	bf00      	nop
 800684c:	08009660 	.word	0x08009660
 8006850:	08009590 	.word	0x08009590
 8006854:	080095c4 	.word	0x080095c4
 8006858:	cccccccd 	.word	0xcccccccd

0800685c <stm32__i2s__receive>:
 800685c:	b5b0      	push	{r4, r5, r7, lr}
 800685e:	b088      	sub	sp, #32
 8006860:	af00      	add	r7, sp, #0
 8006862:	60f8      	str	r0, [r7, #12]
 8006864:	e9c7 2300 	strd	r2, r3, [r7]
 8006868:	68f8      	ldr	r0, [r7, #12]
 800686a:	f7ff fe8f 	bl	800658c <stm32__i2s__in_i2s_mode>
 800686e:	4603      	mov	r3, r0
 8006870:	f083 0301 	eor.w	r3, r3, #1
 8006874:	b2db      	uxtb	r3, r3
 8006876:	2b00      	cmp	r3, #0
 8006878:	d005      	beq.n	8006886 <stm32__i2s__receive+0x2a>
 800687a:	4c22      	ldr	r4, [pc, #136]	; (8006904 <stm32__i2s__receive+0xa8>)
 800687c:	4d22      	ldr	r5, [pc, #136]	; (8006908 <stm32__i2s__receive+0xac>)
 800687e:	4620      	mov	r0, r4
 8006880:	4629      	mov	r1, r5
 8006882:	f001 fbd5 	bl	8008030 <system__assertions__raise_assert_failure>
 8006886:	687b      	ldr	r3, [r7, #4]
 8006888:	681b      	ldr	r3, [r3, #0]
 800688a:	61fb      	str	r3, [r7, #28]
 800688c:	687b      	ldr	r3, [r7, #4]
 800688e:	685a      	ldr	r2, [r3, #4]
 8006890:	687b      	ldr	r3, [r7, #4]
 8006892:	681b      	ldr	r3, [r3, #0]
 8006894:	429a      	cmp	r2, r3
 8006896:	db03      	blt.n	80068a0 <stm32__i2s__receive+0x44>
 8006898:	687b      	ldr	r3, [r7, #4]
 800689a:	685b      	ldr	r3, [r3, #4]
 800689c:	61bb      	str	r3, [r7, #24]
 800689e:	e003      	b.n	80068a8 <stm32__i2s__receive+0x4c>
 80068a0:	687b      	ldr	r3, [r7, #4]
 80068a2:	681b      	ldr	r3, [r3, #0]
 80068a4:	3b01      	subs	r3, #1
 80068a6:	61bb      	str	r3, [r7, #24]
 80068a8:	687b      	ldr	r3, [r7, #4]
 80068aa:	681b      	ldr	r3, [r3, #0]
 80068ac:	687a      	ldr	r2, [r7, #4]
 80068ae:	6852      	ldr	r2, [r2, #4]
 80068b0:	4293      	cmp	r3, r2
 80068b2:	dc24      	bgt.n	80068fe <stm32__i2s__receive+0xa2>
 80068b4:	683c      	ldr	r4, [r7, #0]
 80068b6:	4619      	mov	r1, r3
 80068b8:	69f8      	ldr	r0, [r7, #28]
 80068ba:	1a08      	subs	r0, r1, r0
 80068bc:	0040      	lsls	r0, r0, #1
 80068be:	4420      	add	r0, r4
 80068c0:	6178      	str	r0, [r7, #20]
 80068c2:	68f8      	ldr	r0, [r7, #12]
 80068c4:	6840      	ldr	r0, [r0, #4]
 80068c6:	3008      	adds	r0, #8
 80068c8:	6800      	ldr	r0, [r0, #0]
 80068ca:	f3c0 0000 	ubfx	r0, r0, #0, #1
 80068ce:	b2c0      	uxtb	r0, r0
 80068d0:	f080 0001 	eor.w	r0, r0, #1
 80068d4:	b2c0      	uxtb	r0, r0
 80068d6:	2800      	cmp	r0, #0
 80068d8:	d001      	beq.n	80068de <stm32__i2s__receive+0x82>
 80068da:	bf00      	nop
 80068dc:	e7f1      	b.n	80068c2 <stm32__i2s__receive+0x66>
 80068de:	6838      	ldr	r0, [r7, #0]
 80068e0:	68fc      	ldr	r4, [r7, #12]
 80068e2:	6864      	ldr	r4, [r4, #4]
 80068e4:	340c      	adds	r4, #12
 80068e6:	6824      	ldr	r4, [r4, #0]
 80068e8:	b2a4      	uxth	r4, r4
 80068ea:	b2a5      	uxth	r5, r4
 80068ec:	69fc      	ldr	r4, [r7, #28]
 80068ee:	1b09      	subs	r1, r1, r4
 80068f0:	462c      	mov	r4, r5
 80068f2:	f820 4011 	strh.w	r4, [r0, r1, lsl #1]
 80068f6:	4293      	cmp	r3, r2
 80068f8:	d001      	beq.n	80068fe <stm32__i2s__receive+0xa2>
 80068fa:	3301      	adds	r3, #1
 80068fc:	e7da      	b.n	80068b4 <stm32__i2s__receive+0x58>
 80068fe:	3720      	adds	r7, #32
 8006900:	46bd      	mov	sp, r7
 8006902:	bdb0      	pop	{r4, r5, r7, pc}
 8006904:	0800968c 	.word	0x0800968c
 8006908:	08009590 	.word	0x08009590

0800690c <stm32__i2s__transmit>:
 800690c:	e92d 43b0 	stmdb	sp!, {r4, r5, r7, r8, r9, lr}
 8006910:	b088      	sub	sp, #32
 8006912:	af00      	add	r7, sp, #0
 8006914:	60f8      	str	r0, [r7, #12]
 8006916:	e9c7 2300 	strd	r2, r3, [r7]
 800691a:	687b      	ldr	r3, [r7, #4]
 800691c:	681c      	ldr	r4, [r3, #0]
 800691e:	687b      	ldr	r3, [r7, #4]
 8006920:	685d      	ldr	r5, [r3, #4]
 8006922:	68f8      	ldr	r0, [r7, #12]
 8006924:	f7ff fe32 	bl	800658c <stm32__i2s__in_i2s_mode>
 8006928:	4603      	mov	r3, r0
 800692a:	f083 0301 	eor.w	r3, r3, #1
 800692e:	b2db      	uxtb	r3, r3
 8006930:	2b00      	cmp	r3, #0
 8006932:	d007      	beq.n	8006944 <stm32__i2s__transmit+0x38>
 8006934:	f8df 807c 	ldr.w	r8, [pc, #124]	; 80069b4 <stm32__i2s__transmit+0xa8>
 8006938:	f8df 907c 	ldr.w	r9, [pc, #124]	; 80069b8 <stm32__i2s__transmit+0xac>
 800693c:	4640      	mov	r0, r8
 800693e:	4649      	mov	r1, r9
 8006940:	f001 fb76 	bl	8008030 <system__assertions__raise_assert_failure>
 8006944:	61fc      	str	r4, [r7, #28]
 8006946:	42a5      	cmp	r5, r4
 8006948:	db01      	blt.n	800694e <stm32__i2s__transmit+0x42>
 800694a:	61bd      	str	r5, [r7, #24]
 800694c:	e002      	b.n	8006954 <stm32__i2s__transmit+0x48>
 800694e:	4623      	mov	r3, r4
 8006950:	3b01      	subs	r3, #1
 8006952:	61bb      	str	r3, [r7, #24]
 8006954:	42ac      	cmp	r4, r5
 8006956:	dc28      	bgt.n	80069aa <stm32__i2s__transmit+0x9e>
 8006958:	6839      	ldr	r1, [r7, #0]
 800695a:	4622      	mov	r2, r4
 800695c:	69fb      	ldr	r3, [r7, #28]
 800695e:	1ad3      	subs	r3, r2, r3
 8006960:	005b      	lsls	r3, r3, #1
 8006962:	440b      	add	r3, r1
 8006964:	617b      	str	r3, [r7, #20]
 8006966:	68fb      	ldr	r3, [r7, #12]
 8006968:	685b      	ldr	r3, [r3, #4]
 800696a:	3308      	adds	r3, #8
 800696c:	681b      	ldr	r3, [r3, #0]
 800696e:	f3c3 0340 	ubfx	r3, r3, #1, #1
 8006972:	b2db      	uxtb	r3, r3
 8006974:	f083 0301 	eor.w	r3, r3, #1
 8006978:	b2db      	uxtb	r3, r3
 800697a:	2b00      	cmp	r3, #0
 800697c:	d001      	beq.n	8006982 <stm32__i2s__transmit+0x76>
 800697e:	bf00      	nop
 8006980:	e7f1      	b.n	8006966 <stm32__i2s__transmit+0x5a>
 8006982:	68fb      	ldr	r3, [r7, #12]
 8006984:	685b      	ldr	r3, [r3, #4]
 8006986:	330c      	adds	r3, #12
 8006988:	681b      	ldr	r3, [r3, #0]
 800698a:	6839      	ldr	r1, [r7, #0]
 800698c:	69f8      	ldr	r0, [r7, #28]
 800698e:	1a12      	subs	r2, r2, r0
 8006990:	f831 2012 	ldrh.w	r2, [r1, r2, lsl #1]
 8006994:	b292      	uxth	r2, r2
 8006996:	f362 030f 	bfi	r3, r2, #0, #16
 800699a:	68fa      	ldr	r2, [r7, #12]
 800699c:	6852      	ldr	r2, [r2, #4]
 800699e:	320c      	adds	r2, #12
 80069a0:	6013      	str	r3, [r2, #0]
 80069a2:	42ac      	cmp	r4, r5
 80069a4:	d001      	beq.n	80069aa <stm32__i2s__transmit+0x9e>
 80069a6:	3401      	adds	r4, #1
 80069a8:	e7d6      	b.n	8006958 <stm32__i2s__transmit+0x4c>
 80069aa:	3720      	adds	r7, #32
 80069ac:	46bd      	mov	sp, r7
 80069ae:	e8bd 83b0 	ldmia.w	sp!, {r4, r5, r7, r8, r9, pc}
 80069b2:	bf00      	nop
 80069b4:	080096b8 	.word	0x080096b8
 80069b8:	08009590 	.word	0x08009590

080069bc <stm32_svd__spi__sr_registerIP>:
 80069bc:	b480      	push	{r7}
 80069be:	b083      	sub	sp, #12
 80069c0:	af00      	add	r7, sp, #0
 80069c2:	6078      	str	r0, [r7, #4]
 80069c4:	687b      	ldr	r3, [r7, #4]
 80069c6:	781a      	ldrb	r2, [r3, #0]
 80069c8:	f022 0201 	bic.w	r2, r2, #1
 80069cc:	701a      	strb	r2, [r3, #0]
 80069ce:	687b      	ldr	r3, [r7, #4]
 80069d0:	781a      	ldrb	r2, [r3, #0]
 80069d2:	f042 0202 	orr.w	r2, r2, #2
 80069d6:	701a      	strb	r2, [r3, #0]
 80069d8:	687b      	ldr	r3, [r7, #4]
 80069da:	781a      	ldrb	r2, [r3, #0]
 80069dc:	f022 0204 	bic.w	r2, r2, #4
 80069e0:	701a      	strb	r2, [r3, #0]
 80069e2:	687b      	ldr	r3, [r7, #4]
 80069e4:	781a      	ldrb	r2, [r3, #0]
 80069e6:	f022 0208 	bic.w	r2, r2, #8
 80069ea:	701a      	strb	r2, [r3, #0]
 80069ec:	687b      	ldr	r3, [r7, #4]
 80069ee:	781a      	ldrb	r2, [r3, #0]
 80069f0:	f022 0210 	bic.w	r2, r2, #16
 80069f4:	701a      	strb	r2, [r3, #0]
 80069f6:	687b      	ldr	r3, [r7, #4]
 80069f8:	781a      	ldrb	r2, [r3, #0]
 80069fa:	f022 0220 	bic.w	r2, r2, #32
 80069fe:	701a      	strb	r2, [r3, #0]
 8006a00:	687b      	ldr	r3, [r7, #4]
 8006a02:	781a      	ldrb	r2, [r3, #0]
 8006a04:	f022 0240 	bic.w	r2, r2, #64	; 0x40
 8006a08:	701a      	strb	r2, [r3, #0]
 8006a0a:	687b      	ldr	r3, [r7, #4]
 8006a0c:	781a      	ldrb	r2, [r3, #0]
 8006a0e:	f002 027f 	and.w	r2, r2, #127	; 0x7f
 8006a12:	701a      	strb	r2, [r3, #0]
 8006a14:	687b      	ldr	r3, [r7, #4]
 8006a16:	681a      	ldr	r2, [r3, #0]
 8006a18:	b2d2      	uxtb	r2, r2
 8006a1a:	601a      	str	r2, [r3, #0]
 8006a1c:	370c      	adds	r7, #12
 8006a1e:	46bd      	mov	sp, r7
 8006a20:	f85d 7b04 	ldr.w	r7, [sp], #4
 8006a24:	4770      	bx	lr
 8006a26:	bf00      	nop

08006a28 <stm32_svd__i2c__cr1_registerIP>:
 8006a28:	b480      	push	{r7}
 8006a2a:	b083      	sub	sp, #12
 8006a2c:	af00      	add	r7, sp, #0
 8006a2e:	6078      	str	r0, [r7, #4]
 8006a30:	687b      	ldr	r3, [r7, #4]
 8006a32:	781a      	ldrb	r2, [r3, #0]
 8006a34:	f022 0201 	bic.w	r2, r2, #1
 8006a38:	701a      	strb	r2, [r3, #0]
 8006a3a:	687b      	ldr	r3, [r7, #4]
 8006a3c:	781a      	ldrb	r2, [r3, #0]
 8006a3e:	f022 0202 	bic.w	r2, r2, #2
 8006a42:	701a      	strb	r2, [r3, #0]
 8006a44:	687b      	ldr	r3, [r7, #4]
 8006a46:	781a      	ldrb	r2, [r3, #0]
 8006a48:	f022 0204 	bic.w	r2, r2, #4
 8006a4c:	701a      	strb	r2, [r3, #0]
 8006a4e:	687b      	ldr	r3, [r7, #4]
 8006a50:	781a      	ldrb	r2, [r3, #0]
 8006a52:	f022 0208 	bic.w	r2, r2, #8
 8006a56:	701a      	strb	r2, [r3, #0]
 8006a58:	687b      	ldr	r3, [r7, #4]
 8006a5a:	781a      	ldrb	r2, [r3, #0]
 8006a5c:	f022 0210 	bic.w	r2, r2, #16
 8006a60:	701a      	strb	r2, [r3, #0]
 8006a62:	687b      	ldr	r3, [r7, #4]
 8006a64:	781a      	ldrb	r2, [r3, #0]
 8006a66:	f022 0220 	bic.w	r2, r2, #32
 8006a6a:	701a      	strb	r2, [r3, #0]
 8006a6c:	687b      	ldr	r3, [r7, #4]
 8006a6e:	781a      	ldrb	r2, [r3, #0]
 8006a70:	f022 0240 	bic.w	r2, r2, #64	; 0x40
 8006a74:	701a      	strb	r2, [r3, #0]
 8006a76:	687b      	ldr	r3, [r7, #4]
 8006a78:	781a      	ldrb	r2, [r3, #0]
 8006a7a:	f002 027f 	and.w	r2, r2, #127	; 0x7f
 8006a7e:	701a      	strb	r2, [r3, #0]
 8006a80:	687b      	ldr	r3, [r7, #4]
 8006a82:	785a      	ldrb	r2, [r3, #1]
 8006a84:	f022 0201 	bic.w	r2, r2, #1
 8006a88:	705a      	strb	r2, [r3, #1]
 8006a8a:	687b      	ldr	r3, [r7, #4]
 8006a8c:	785a      	ldrb	r2, [r3, #1]
 8006a8e:	f022 0202 	bic.w	r2, r2, #2
 8006a92:	705a      	strb	r2, [r3, #1]
 8006a94:	687b      	ldr	r3, [r7, #4]
 8006a96:	785a      	ldrb	r2, [r3, #1]
 8006a98:	f022 0204 	bic.w	r2, r2, #4
 8006a9c:	705a      	strb	r2, [r3, #1]
 8006a9e:	687b      	ldr	r3, [r7, #4]
 8006aa0:	785a      	ldrb	r2, [r3, #1]
 8006aa2:	f022 0208 	bic.w	r2, r2, #8
 8006aa6:	705a      	strb	r2, [r3, #1]
 8006aa8:	687b      	ldr	r3, [r7, #4]
 8006aaa:	785a      	ldrb	r2, [r3, #1]
 8006aac:	f022 0210 	bic.w	r2, r2, #16
 8006ab0:	705a      	strb	r2, [r3, #1]
 8006ab2:	687b      	ldr	r3, [r7, #4]
 8006ab4:	785a      	ldrb	r2, [r3, #1]
 8006ab6:	f022 0220 	bic.w	r2, r2, #32
 8006aba:	705a      	strb	r2, [r3, #1]
 8006abc:	687b      	ldr	r3, [r7, #4]
 8006abe:	785a      	ldrb	r2, [r3, #1]
 8006ac0:	f022 0240 	bic.w	r2, r2, #64	; 0x40
 8006ac4:	705a      	strb	r2, [r3, #1]
 8006ac6:	687b      	ldr	r3, [r7, #4]
 8006ac8:	785a      	ldrb	r2, [r3, #1]
 8006aca:	f002 027f 	and.w	r2, r2, #127	; 0x7f
 8006ace:	705a      	strb	r2, [r3, #1]
 8006ad0:	687b      	ldr	r3, [r7, #4]
 8006ad2:	2200      	movs	r2, #0
 8006ad4:	805a      	strh	r2, [r3, #2]
 8006ad6:	370c      	adds	r7, #12
 8006ad8:	46bd      	mov	sp, r7
 8006ada:	f85d 7b04 	ldr.w	r7, [sp], #4
 8006ade:	4770      	bx	lr

08006ae0 <stm32_svd__i2c__oar1_registerIP>:
 8006ae0:	b480      	push	{r7}
 8006ae2:	b083      	sub	sp, #12
 8006ae4:	af00      	add	r7, sp, #0
 8006ae6:	6078      	str	r0, [r7, #4]
 8006ae8:	687b      	ldr	r3, [r7, #4]
 8006aea:	781a      	ldrb	r2, [r3, #0]
 8006aec:	f022 0201 	bic.w	r2, r2, #1
 8006af0:	701a      	strb	r2, [r3, #0]
 8006af2:	687b      	ldr	r3, [r7, #4]
 8006af4:	781a      	ldrb	r2, [r3, #0]
 8006af6:	f002 0201 	and.w	r2, r2, #1
 8006afa:	701a      	strb	r2, [r3, #0]
 8006afc:	687b      	ldr	r3, [r7, #4]
 8006afe:	785a      	ldrb	r2, [r3, #1]
 8006b00:	f022 0203 	bic.w	r2, r2, #3
 8006b04:	705a      	strb	r2, [r3, #1]
 8006b06:	687b      	ldr	r3, [r7, #4]
 8006b08:	785a      	ldrb	r2, [r3, #1]
 8006b0a:	f022 027c 	bic.w	r2, r2, #124	; 0x7c
 8006b0e:	705a      	strb	r2, [r3, #1]
 8006b10:	687b      	ldr	r3, [r7, #4]
 8006b12:	785a      	ldrb	r2, [r3, #1]
 8006b14:	f002 027f 	and.w	r2, r2, #127	; 0x7f
 8006b18:	705a      	strb	r2, [r3, #1]
 8006b1a:	687b      	ldr	r3, [r7, #4]
 8006b1c:	2200      	movs	r2, #0
 8006b1e:	805a      	strh	r2, [r3, #2]
 8006b20:	370c      	adds	r7, #12
 8006b22:	46bd      	mov	sp, r7
 8006b24:	f85d 7b04 	ldr.w	r7, [sp], #4
 8006b28:	4770      	bx	lr
 8006b2a:	bf00      	nop

08006b2c <stm32_svd__i2c__ccr_registerIP>:
 8006b2c:	b480      	push	{r7}
 8006b2e:	b083      	sub	sp, #12
 8006b30:	af00      	add	r7, sp, #0
 8006b32:	6078      	str	r0, [r7, #4]
 8006b34:	687a      	ldr	r2, [r7, #4]
 8006b36:	8813      	ldrh	r3, [r2, #0]
 8006b38:	f423 637f 	bic.w	r3, r3, #4080	; 0xff0
 8006b3c:	f023 030f 	bic.w	r3, r3, #15
 8006b40:	8013      	strh	r3, [r2, #0]
 8006b42:	687b      	ldr	r3, [r7, #4]
 8006b44:	785a      	ldrb	r2, [r3, #1]
 8006b46:	f022 0230 	bic.w	r2, r2, #48	; 0x30
 8006b4a:	705a      	strb	r2, [r3, #1]
 8006b4c:	687b      	ldr	r3, [r7, #4]
 8006b4e:	785a      	ldrb	r2, [r3, #1]
 8006b50:	f022 0240 	bic.w	r2, r2, #64	; 0x40
 8006b54:	705a      	strb	r2, [r3, #1]
 8006b56:	687b      	ldr	r3, [r7, #4]
 8006b58:	785a      	ldrb	r2, [r3, #1]
 8006b5a:	f002 027f 	and.w	r2, r2, #127	; 0x7f
 8006b5e:	705a      	strb	r2, [r3, #1]
 8006b60:	687b      	ldr	r3, [r7, #4]
 8006b62:	2200      	movs	r2, #0
 8006b64:	805a      	strh	r2, [r3, #2]
 8006b66:	370c      	adds	r7, #12
 8006b68:	46bd      	mov	sp, r7
 8006b6a:	f85d 7b04 	ldr.w	r7, [sp], #4
 8006b6e:	4770      	bx	lr

08006b70 <ada__real_time__Oadd>:
 8006b70:	2a00      	cmp	r2, #0
 8006b72:	b5f8      	push	{r3, r4, r5, r6, r7, lr}
 8006b74:	f173 0400 	sbcs.w	r4, r3, #0
 8006b78:	db1f      	blt.n	8006bba <ada__real_time__Oadd+0x4a>
 8006b7a:	43cd      	mvns	r5, r1
 8006b7c:	43c4      	mvns	r4, r0
 8006b7e:	429d      	cmp	r5, r3
 8006b80:	bf08      	it	eq
 8006b82:	4294      	cmpeq	r4, r2
 8006b84:	d216      	bcs.n	8006bb4 <ada__real_time__Oadd+0x44>
 8006b86:	f112 34ff 	adds.w	r4, r2, #4294967295
 8006b8a:	f163 4500 	sbc.w	r5, r3, #2147483648	; 0x80000000
 8006b8e:	f06f 4700 	mvn.w	r7, #2147483648	; 0x80000000
 8006b92:	f06f 0601 	mvn.w	r6, #1
 8006b96:	42af      	cmp	r7, r5
 8006b98:	bf08      	it	eq
 8006b9a:	42a6      	cmpeq	r6, r4
 8006b9c:	d316      	bcc.n	8006bcc <ada__real_time__Oadd+0x5c>
 8006b9e:	4252      	negs	r2, r2
 8006ba0:	eb63 0343 	sbc.w	r3, r3, r3, lsl #1
 8006ba4:	4299      	cmp	r1, r3
 8006ba6:	bf08      	it	eq
 8006ba8:	4290      	cmpeq	r0, r2
 8006baa:	d30f      	bcc.n	8006bcc <ada__real_time__Oadd+0x5c>
 8006bac:	1a80      	subs	r0, r0, r2
 8006bae:	eb61 0103 	sbc.w	r1, r1, r3
 8006bb2:	bdf8      	pop	{r3, r4, r5, r6, r7, pc}
 8006bb4:	1880      	adds	r0, r0, r2
 8006bb6:	4159      	adcs	r1, r3
 8006bb8:	bdf8      	pop	{r3, r4, r5, r6, r7, pc}
 8006bba:	f1b3 4f00 	cmp.w	r3, #2147483648	; 0x80000000
 8006bbe:	bf08      	it	eq
 8006bc0:	2a00      	cmpeq	r2, #0
 8006bc2:	d1e0      	bne.n	8006b86 <ada__real_time__Oadd+0x16>
 8006bc4:	2800      	cmp	r0, #0
 8006bc6:	f171 0300 	sbcs.w	r3, r1, #0
 8006bca:	db03      	blt.n	8006bd4 <ada__real_time__Oadd+0x64>
 8006bcc:	4803      	ldr	r0, [pc, #12]	; (8006bdc <ada__real_time__Oadd+0x6c>)
 8006bce:	21cf      	movs	r1, #207	; 0xcf
 8006bd0:	f001 f9f6 	bl	8007fc0 <__gnat_last_chance_handler>
 8006bd4:	3000      	adds	r0, #0
 8006bd6:	f141 4100 	adc.w	r1, r1, #2147483648	; 0x80000000
 8006bda:	bdf8      	pop	{r3, r4, r5, r6, r7, pc}
 8006bdc:	08009814 	.word	0x08009814

08006be0 <ada__real_time__Osubtract__2>:
 8006be0:	4299      	cmp	r1, r3
 8006be2:	bf08      	it	eq
 8006be4:	4290      	cmpeq	r0, r2
 8006be6:	b508      	push	{r3, lr}
 8006be8:	d309      	bcc.n	8006bfe <ada__real_time__Osubtract__2+0x1e>
 8006bea:	1a82      	subs	r2, r0, r2
 8006bec:	eb61 0303 	sbc.w	r3, r1, r3
 8006bf0:	2a00      	cmp	r2, #0
 8006bf2:	f173 0100 	sbcs.w	r1, r3, #0
 8006bf6:	db0e      	blt.n	8006c16 <ada__real_time__Osubtract__2+0x36>
 8006bf8:	4610      	mov	r0, r2
 8006bfa:	4619      	mov	r1, r3
 8006bfc:	bd08      	pop	{r3, pc}
 8006bfe:	1a12      	subs	r2, r2, r0
 8006c00:	eb63 0301 	sbc.w	r3, r3, r1
 8006c04:	f1b3 4f00 	cmp.w	r3, #2147483648	; 0x80000000
 8006c08:	bf08      	it	eq
 8006c0a:	2a01      	cmpeq	r2, #1
 8006c0c:	d203      	bcs.n	8006c16 <ada__real_time__Osubtract__2+0x36>
 8006c0e:	4250      	negs	r0, r2
 8006c10:	eb63 0143 	sbc.w	r1, r3, r3, lsl #1
 8006c14:	bd08      	pop	{r3, pc}
 8006c16:	4802      	ldr	r0, [pc, #8]	; (8006c20 <ada__real_time__Osubtract__2+0x40>)
 8006c18:	f44f 7186 	mov.w	r1, #268	; 0x10c
 8006c1c:	f001 f9d0 	bl	8007fc0 <__gnat_last_chance_handler>
 8006c20:	08009814 	.word	0x08009814

08006c24 <ada__real_time__clock>:
 8006c24:	e92d 43f8 	stmdb	sp!, {r3, r4, r5, r6, r7, r8, r9, lr}
 8006c28:	4e13      	ldr	r6, [pc, #76]	; (8006c78 <ada__real_time__clock+0x54>)
 8006c2a:	2400      	movs	r4, #0
 8006c2c:	f106 0804 	add.w	r8, r6, #4
 8006c30:	6835      	ldr	r5, [r6, #0]
 8006c32:	f8d8 7000 	ldr.w	r7, [r8]
 8006c36:	f000 f9dd 	bl	8006ff4 <system__bb__board_support__read_clock>
 8006c3a:	6833      	ldr	r3, [r6, #0]
 8006c3c:	ebc9 0205 	rsb	r2, r9, r5
 8006c40:	429d      	cmp	r5, r3
 8006c42:	f104 0401 	add.w	r4, r4, #1
 8006c46:	d00d      	beq.n	8006c64 <ada__real_time__clock+0x40>
 8006c48:	2c01      	cmp	r4, #1
 8006c4a:	d009      	beq.n	8006c60 <ada__real_time__clock+0x3c>
 8006c4c:	2a01      	cmp	r2, #1
 8006c4e:	d801      	bhi.n	8006c54 <ada__real_time__clock+0x30>
 8006c50:	2c03      	cmp	r4, #3
 8006c52:	d1ed      	bne.n	8006c30 <ada__real_time__clock+0xc>
 8006c54:	462b      	mov	r3, r5
 8006c56:	2200      	movs	r2, #0
 8006c58:	4610      	mov	r0, r2
 8006c5a:	4619      	mov	r1, r3
 8006c5c:	e8bd 83f8 	ldmia.w	sp!, {r3, r4, r5, r6, r7, r8, r9, pc}
 8006c60:	46a9      	mov	r9, r5
 8006c62:	e7e5      	b.n	8006c30 <ada__real_time__clock+0xc>
 8006c64:	4287      	cmp	r7, r0
 8006c66:	bf94      	ite	ls
 8006c68:	462b      	movls	r3, r5
 8006c6a:	1c6b      	addhi	r3, r5, #1
 8006c6c:	2200      	movs	r2, #0
 8006c6e:	1812      	adds	r2, r2, r0
 8006c70:	f143 0300 	adc.w	r3, r3, #0
 8006c74:	e7f0      	b.n	8006c58 <ada__real_time__clock+0x34>
 8006c76:	bf00      	nop
 8006c78:	20000070 	.word	0x20000070

08006c7c <ada__real_time__milliseconds>:
 8006c7c:	b508      	push	{r3, lr}
 8006c7e:	4b0d      	ldr	r3, [pc, #52]	; (8006cb4 <ada__real_time__milliseconds+0x38>)
 8006c80:	fb80 0103 	smull	r0, r1, r0, r3
 8006c84:	2800      	cmp	r0, #0
 8006c86:	f171 0300 	sbcs.w	r3, r1, #0
 8006c8a:	db09      	blt.n	8006ca0 <ada__real_time__milliseconds+0x24>
 8006c8c:	f510 70fa 	adds.w	r0, r0, #500	; 0x1f4
 8006c90:	f141 0100 	adc.w	r1, r1, #0
 8006c94:	f44f 727a 	mov.w	r2, #1000	; 0x3e8
 8006c98:	2300      	movs	r3, #0
 8006c9a:	f001 fba3 	bl	80083e4 <__aeabi_ldivmod>
 8006c9e:	bd08      	pop	{r3, pc}
 8006ca0:	f5b0 70fa 	subs.w	r0, r0, #500	; 0x1f4
 8006ca4:	f141 31ff 	adc.w	r1, r1, #4294967295
 8006ca8:	f44f 727a 	mov.w	r2, #1000	; 0x3e8
 8006cac:	2300      	movs	r3, #0
 8006cae:	f001 fb99 	bl	80083e4 <__aeabi_ldivmod>
 8006cb2:	bd08      	pop	{r3, pc}
 8006cb4:	044aa200 	.word	0x044aa200

08006cb8 <ada__real_time___elabb>:
 8006cb8:	f000 ba66 	b.w	8007188 <system__tasking__initialize>

08006cbc <__gnat_start_slave_cpus>:
 8006cbc:	4770      	bx	lr
 8006cbe:	bf00      	nop

08006cc0 <system__bb__time__get_next_timeout>:
 8006cc0:	b240      	sxtb	r0, r0
 8006cc2:	f100 4080 	add.w	r0, r0, #1073741824	; 0x40000000
 8006cc6:	4b12      	ldr	r3, [pc, #72]	; (8006d10 <system__bb__time__get_next_timeout+0x50>)
 8006cc8:	3801      	subs	r0, #1
 8006cca:	f853 3020 	ldr.w	r3, [r3, r0, lsl #2]
 8006cce:	b430      	push	{r4, r5}
 8006cd0:	b18b      	cbz	r3, 8006cf6 <system__bb__time__get_next_timeout+0x36>
 8006cd2:	e9d3 4512 	ldrd	r4, r5, [r3, #72]	; 0x48
 8006cd6:	4b0f      	ldr	r3, [pc, #60]	; (8006d14 <system__bb__time__get_next_timeout+0x54>)
 8006cd8:	f853 3020 	ldr.w	r3, [r3, r0, lsl #2]
 8006cdc:	b1a3      	cbz	r3, 8006d08 <system__bb__time__get_next_timeout+0x48>
 8006cde:	689a      	ldr	r2, [r3, #8]
 8006ce0:	68db      	ldr	r3, [r3, #12]
 8006ce2:	429d      	cmp	r5, r3
 8006ce4:	bf08      	it	eq
 8006ce6:	4294      	cmpeq	r4, r2
 8006ce8:	4610      	mov	r0, r2
 8006cea:	4619      	mov	r1, r3
 8006cec:	bf3c      	itt	cc
 8006cee:	4620      	movcc	r0, r4
 8006cf0:	4629      	movcc	r1, r5
 8006cf2:	bc30      	pop	{r4, r5}
 8006cf4:	4770      	bx	lr
 8006cf6:	4b07      	ldr	r3, [pc, #28]	; (8006d14 <system__bb__time__get_next_timeout+0x54>)
 8006cf8:	f04f 34ff 	mov.w	r4, #4294967295
 8006cfc:	f853 3020 	ldr.w	r3, [r3, r0, lsl #2]
 8006d00:	f04f 35ff 	mov.w	r5, #4294967295
 8006d04:	2b00      	cmp	r3, #0
 8006d06:	d1ea      	bne.n	8006cde <system__bb__time__get_next_timeout+0x1e>
 8006d08:	f04f 32ff 	mov.w	r2, #4294967295
 8006d0c:	4613      	mov	r3, r2
 8006d0e:	e7e8      	b.n	8006ce2 <system__bb__time__get_next_timeout+0x22>
 8006d10:	200000b0 	.word	0x200000b0
 8006d14:	2000009c 	.word	0x2000009c

08006d18 <system__bb__time__initialize_timers>:
 8006d18:	e92d 4ff8 	stmdb	sp!, {r3, r4, r5, r6, r7, r8, r9, sl, fp, lr}
 8006d1c:	4b1e      	ldr	r3, [pc, #120]	; (8006d98 <system__bb__time__initialize_timers+0x80>)
 8006d1e:	4c1f      	ldr	r4, [pc, #124]	; (8006d9c <system__bb__time__initialize_timers+0x84>)
 8006d20:	f8df a08c 	ldr.w	sl, [pc, #140]	; 8006db0 <system__bb__time__initialize_timers+0x98>
 8006d24:	4f1e      	ldr	r7, [pc, #120]	; (8006da0 <system__bb__time__initialize_timers+0x88>)
 8006d26:	481f      	ldr	r0, [pc, #124]	; (8006da4 <system__bb__time__initialize_timers+0x8c>)
 8006d28:	2101      	movs	r1, #1
 8006d2a:	22ff      	movs	r2, #255	; 0xff
 8006d2c:	f04f 0b00 	mov.w	fp, #0
 8006d30:	605c      	str	r4, [r3, #4]
 8006d32:	e9c7 ab00 	strd	sl, fp, [r7]
 8006d36:	f000 f9e9 	bl	800710c <system__bb__board_support__install_interrupt_handler>
 8006d3a:	f000 f95b 	bl	8006ff4 <system__bb__board_support__read_clock>
 8006d3e:	4d1a      	ldr	r5, [pc, #104]	; (8006da8 <system__bb__time__initialize_timers+0x90>)
 8006d40:	2400      	movs	r4, #0
 8006d42:	6068      	str	r0, [r5, #4]
 8006d44:	682e      	ldr	r6, [r5, #0]
 8006d46:	f8d5 8004 	ldr.w	r8, [r5, #4]
 8006d4a:	f000 f953 	bl	8006ff4 <system__bb__board_support__read_clock>
 8006d4e:	682b      	ldr	r3, [r5, #0]
 8006d50:	ebc9 0206 	rsb	r2, r9, r6
 8006d54:	429e      	cmp	r6, r3
 8006d56:	f104 0401 	add.w	r4, r4, #1
 8006d5a:	d014      	beq.n	8006d86 <system__bb__time__initialize_timers+0x6e>
 8006d5c:	2c01      	cmp	r4, #1
 8006d5e:	d010      	beq.n	8006d82 <system__bb__time__initialize_timers+0x6a>
 8006d60:	2a01      	cmp	r2, #1
 8006d62:	d801      	bhi.n	8006d68 <system__bb__time__initialize_timers+0x50>
 8006d64:	2c03      	cmp	r4, #3
 8006d66:	d1ed      	bne.n	8006d44 <system__bb__time__initialize_timers+0x2c>
 8006d68:	4633      	mov	r3, r6
 8006d6a:	2200      	movs	r2, #0
 8006d6c:	e9d7 0100 	ldrd	r0, r1, [r7]
 8006d70:	1812      	adds	r2, r2, r0
 8006d72:	414b      	adcs	r3, r1
 8006d74:	490d      	ldr	r1, [pc, #52]	; (8006dac <system__bb__time__initialize_timers+0x94>)
 8006d76:	e9c1 2300 	strd	r2, r3, [r1]
 8006d7a:	e8bd 4ff8 	ldmia.w	sp!, {r3, r4, r5, r6, r7, r8, r9, sl, fp, lr}
 8006d7e:	f000 b959 	b.w	8007034 <system__bb__board_support__set_alarm>
 8006d82:	46b1      	mov	r9, r6
 8006d84:	e7de      	b.n	8006d44 <system__bb__time__initialize_timers+0x2c>
 8006d86:	4580      	cmp	r8, r0
 8006d88:	bf94      	ite	ls
 8006d8a:	4633      	movls	r3, r6
 8006d8c:	1c73      	addhi	r3, r6, #1
 8006d8e:	2200      	movs	r2, #0
 8006d90:	1812      	adds	r2, r2, r0
 8006d92:	f143 0300 	adc.w	r3, r3, #0
 8006d96:	e7e9      	b.n	8006d6c <system__bb__time__initialize_timers+0x54>
 8006d98:	20001450 	.word	0x20001450
 8006d9c:	08006f61 	.word	0x08006f61
 8006da0:	20000078 	.word	0x20000078
 8006da4:	080075d1 	.word	0x080075d1
 8006da8:	20000070 	.word	0x20000070
 8006dac:	20000068 	.word	0x20000068
 8006db0:	dffffff9 	.word	0xdffffff9

08006db4 <system__bb__time__update_alarm>:
 8006db4:	e92d 47f0 	stmdb	sp!, {r4, r5, r6, r7, r8, r9, sl, lr}
 8006db8:	4680      	mov	r8, r0
 8006dba:	4689      	mov	r9, r1
 8006dbc:	4e1f      	ldr	r6, [pc, #124]	; (8006e3c <system__bb__time__update_alarm+0x88>)
 8006dbe:	2400      	movs	r4, #0
 8006dc0:	6835      	ldr	r5, [r6, #0]
 8006dc2:	6877      	ldr	r7, [r6, #4]
 8006dc4:	f000 f916 	bl	8006ff4 <system__bb__board_support__read_clock>
 8006dc8:	6833      	ldr	r3, [r6, #0]
 8006dca:	ebca 0205 	rsb	r2, sl, r5
 8006dce:	429d      	cmp	r5, r3
 8006dd0:	f104 0401 	add.w	r4, r4, #1
 8006dd4:	d029      	beq.n	8006e2a <system__bb__time__update_alarm+0x76>
 8006dd6:	2c01      	cmp	r4, #1
 8006dd8:	d022      	beq.n	8006e20 <system__bb__time__update_alarm+0x6c>
 8006dda:	2a01      	cmp	r2, #1
 8006ddc:	d801      	bhi.n	8006de2 <system__bb__time__update_alarm+0x2e>
 8006dde:	2c03      	cmp	r4, #3
 8006de0:	d1ee      	bne.n	8006dc0 <system__bb__time__update_alarm+0xc>
 8006de2:	462b      	mov	r3, r5
 8006de4:	2200      	movs	r2, #0
 8006de6:	454b      	cmp	r3, r9
 8006de8:	bf08      	it	eq
 8006dea:	4542      	cmpeq	r2, r8
 8006dec:	d21a      	bcs.n	8006e24 <system__bb__time__update_alarm+0x70>
 8006dee:	ebb8 0002 	subs.w	r0, r8, r2
 8006df2:	eb69 0103 	sbc.w	r1, r9, r3
 8006df6:	4b12      	ldr	r3, [pc, #72]	; (8006e40 <system__bb__time__update_alarm+0x8c>)
 8006df8:	4e12      	ldr	r6, [pc, #72]	; (8006e44 <system__bb__time__update_alarm+0x90>)
 8006dfa:	e9d3 4500 	ldrd	r4, r5, [r3]
 8006dfe:	e9d6 2300 	ldrd	r2, r3, [r6]
 8006e02:	4599      	cmp	r9, r3
 8006e04:	bf08      	it	eq
 8006e06:	4590      	cmpeq	r8, r2
 8006e08:	d208      	bcs.n	8006e1c <system__bb__time__update_alarm+0x68>
 8006e0a:	428d      	cmp	r5, r1
 8006e0c:	bf08      	it	eq
 8006e0e:	4284      	cmpeq	r4, r0
 8006e10:	bf38      	it	cc
 8006e12:	4620      	movcc	r0, r4
 8006e14:	f000 f90e 	bl	8007034 <system__bb__board_support__set_alarm>
 8006e18:	e9c6 8900 	strd	r8, r9, [r6]
 8006e1c:	e8bd 87f0 	ldmia.w	sp!, {r4, r5, r6, r7, r8, r9, sl, pc}
 8006e20:	46aa      	mov	sl, r5
 8006e22:	e7cd      	b.n	8006dc0 <system__bb__time__update_alarm+0xc>
 8006e24:	2001      	movs	r0, #1
 8006e26:	2100      	movs	r1, #0
 8006e28:	e7e5      	b.n	8006df6 <system__bb__time__update_alarm+0x42>
 8006e2a:	4287      	cmp	r7, r0
 8006e2c:	bf94      	ite	ls
 8006e2e:	462b      	movls	r3, r5
 8006e30:	1c6b      	addhi	r3, r5, #1
 8006e32:	2200      	movs	r2, #0
 8006e34:	1812      	adds	r2, r2, r0
 8006e36:	f143 0300 	adc.w	r3, r3, #0
 8006e3a:	e7d4      	b.n	8006de6 <system__bb__time__update_alarm+0x32>
 8006e3c:	20000070 	.word	0x20000070
 8006e40:	20000078 	.word	0x20000078
 8006e44:	20000068 	.word	0x20000068

08006e48 <system__bb__time__delay_until>:
 8006e48:	e92d 47f0 	stmdb	sp!, {r4, r5, r6, r7, r8, r9, sl, lr}
 8006e4c:	4680      	mov	r8, r0
 8006e4e:	4689      	mov	r9, r1
 8006e50:	b672      	cpsid	i
 8006e52:	4e32      	ldr	r6, [pc, #200]	; (8006f1c <system__bb__time__delay_until+0xd4>)
 8006e54:	2400      	movs	r4, #0
 8006e56:	6835      	ldr	r5, [r6, #0]
 8006e58:	f8d6 a004 	ldr.w	sl, [r6, #4]
 8006e5c:	f000 f8ca 	bl	8006ff4 <system__bb__board_support__read_clock>
 8006e60:	6833      	ldr	r3, [r6, #0]
 8006e62:	1bea      	subs	r2, r5, r7
 8006e64:	429d      	cmp	r5, r3
 8006e66:	f104 0401 	add.w	r4, r4, #1
 8006e6a:	d045      	beq.n	8006ef8 <system__bb__time__delay_until+0xb0>
 8006e6c:	2c01      	cmp	r4, #1
 8006e6e:	d038      	beq.n	8006ee2 <system__bb__time__delay_until+0x9a>
 8006e70:	2a01      	cmp	r2, #1
 8006e72:	d801      	bhi.n	8006e78 <system__bb__time__delay_until+0x30>
 8006e74:	2c03      	cmp	r4, #3
 8006e76:	d1ee      	bne.n	8006e56 <system__bb__time__delay_until+0xe>
 8006e78:	462f      	mov	r7, r5
 8006e7a:	2600      	movs	r6, #0
 8006e7c:	4b28      	ldr	r3, [pc, #160]	; (8006f20 <system__bb__time__delay_until+0xd8>)
 8006e7e:	454f      	cmp	r7, r9
 8006e80:	bf08      	it	eq
 8006e82:	4546      	cmpeq	r6, r8
 8006e84:	681a      	ldr	r2, [r3, #0]
 8006e86:	d230      	bcs.n	8006eea <system__bb__time__delay_until+0xa2>
 8006e88:	f892 302c 	ldrb.w	r3, [r2, #44]	; 0x2c
 8006e8c:	2102      	movs	r1, #2
 8006e8e:	f882 1054 	strb.w	r1, [r2, #84]	; 0x54
 8006e92:	b343      	cbz	r3, 8006ee6 <system__bb__time__delay_until+0x9e>
 8006e94:	b25b      	sxtb	r3, r3
 8006e96:	6c15      	ldr	r5, [r2, #64]	; 0x40
 8006e98:	f103 4380 	add.w	r3, r3, #1073741824	; 0x40000000
 8006e9c:	4c21      	ldr	r4, [pc, #132]	; (8006f24 <system__bb__time__delay_until+0xdc>)
 8006e9e:	2600      	movs	r6, #0
 8006ea0:	3b01      	subs	r3, #1
 8006ea2:	4640      	mov	r0, r8
 8006ea4:	4649      	mov	r1, r9
 8006ea6:	6416      	str	r6, [r2, #64]	; 0x40
 8006ea8:	f844 5023 	str.w	r5, [r4, r3, lsl #2]
 8006eac:	f000 fd58 	bl	8007960 <system__bb__threads__queues__insert_alarm>
 8006eb0:	b198      	cbz	r0, 8006eda <system__bb__time__delay_until+0x92>
 8006eb2:	4b1d      	ldr	r3, [pc, #116]	; (8006f28 <system__bb__time__delay_until+0xe0>)
 8006eb4:	681b      	ldr	r3, [r3, #0]
 8006eb6:	b343      	cbz	r3, 8006f0a <system__bb__time__delay_until+0xc2>
 8006eb8:	e9d3 4512 	ldrd	r4, r5, [r3, #72]	; 0x48
 8006ebc:	4b1b      	ldr	r3, [pc, #108]	; (8006f2c <system__bb__time__delay_until+0xe4>)
 8006ebe:	681b      	ldr	r3, [r3, #0]
 8006ec0:	b343      	cbz	r3, 8006f14 <system__bb__time__delay_until+0xcc>
 8006ec2:	689a      	ldr	r2, [r3, #8]
 8006ec4:	68db      	ldr	r3, [r3, #12]
 8006ec6:	429d      	cmp	r5, r3
 8006ec8:	bf08      	it	eq
 8006eca:	4294      	cmpeq	r4, r2
 8006ecc:	4610      	mov	r0, r2
 8006ece:	4619      	mov	r1, r3
 8006ed0:	bf3c      	itt	cc
 8006ed2:	4620      	movcc	r0, r4
 8006ed4:	4629      	movcc	r1, r5
 8006ed6:	f7ff ff6d 	bl	8006db4 <system__bb__time__update_alarm>
 8006eda:	e8bd 47f0 	ldmia.w	sp!, {r4, r5, r6, r7, r8, r9, sl, lr}
 8006ede:	f000 bb0d 	b.w	80074fc <system__bb__protection__leave_kernel>
 8006ee2:	462f      	mov	r7, r5
 8006ee4:	e7b7      	b.n	8006e56 <system__bb__time__delay_until+0xe>
 8006ee6:	2301      	movs	r3, #1
 8006ee8:	e7d5      	b.n	8006e96 <system__bb__time__delay_until+0x4e>
 8006eea:	4610      	mov	r0, r2
 8006eec:	f000 fdde 	bl	8007aac <system__bb__threads__queues__yield>
 8006ef0:	e8bd 47f0 	ldmia.w	sp!, {r4, r5, r6, r7, r8, r9, sl, lr}
 8006ef4:	f000 bb02 	b.w	80074fc <system__bb__protection__leave_kernel>
 8006ef8:	4582      	cmp	sl, r0
 8006efa:	bf94      	ite	ls
 8006efc:	462f      	movls	r7, r5
 8006efe:	1c6f      	addhi	r7, r5, #1
 8006f00:	2600      	movs	r6, #0
 8006f02:	1836      	adds	r6, r6, r0
 8006f04:	f147 0700 	adc.w	r7, r7, #0
 8006f08:	e7b8      	b.n	8006e7c <system__bb__time__delay_until+0x34>
 8006f0a:	f04f 34ff 	mov.w	r4, #4294967295
 8006f0e:	f04f 35ff 	mov.w	r5, #4294967295
 8006f12:	e7d3      	b.n	8006ebc <system__bb__time__delay_until+0x74>
 8006f14:	f04f 32ff 	mov.w	r2, #4294967295
 8006f18:	4613      	mov	r3, r2
 8006f1a:	e7d4      	b.n	8006ec6 <system__bb__time__delay_until+0x7e>
 8006f1c:	20000070 	.word	0x20000070
 8006f20:	200000b4 	.word	0x200000b4
 8006f24:	200000a8 	.word	0x200000a8
 8006f28:	200000b0 	.word	0x200000b0
 8006f2c:	2000009c 	.word	0x2000009c

08006f30 <system__bb__time__update_clock>:
 8006f30:	b570      	push	{r4, r5, r6, lr}
 8006f32:	4c0a      	ldr	r4, [pc, #40]	; (8006f5c <system__bb__time__update_clock+0x2c>)
 8006f34:	6825      	ldr	r5, [r4, #0]
 8006f36:	6866      	ldr	r6, [r4, #4]
 8006f38:	f000 f85c 	bl	8006ff4 <system__bb__board_support__read_clock>
 8006f3c:	4286      	cmp	r6, r0
 8006f3e:	d807      	bhi.n	8006f50 <system__bb__time__update_clock+0x20>
 8006f40:	6060      	str	r0, [r4, #4]
 8006f42:	2200      	movs	r2, #0
 8006f44:	1814      	adds	r4, r2, r0
 8006f46:	f145 0500 	adc.w	r5, r5, #0
 8006f4a:	4620      	mov	r0, r4
 8006f4c:	4629      	mov	r1, r5
 8006f4e:	bd70      	pop	{r4, r5, r6, pc}
 8006f50:	3501      	adds	r5, #1
 8006f52:	2300      	movs	r3, #0
 8006f54:	6023      	str	r3, [r4, #0]
 8006f56:	6060      	str	r0, [r4, #4]
 8006f58:	6025      	str	r5, [r4, #0]
 8006f5a:	e7f2      	b.n	8006f42 <system__bb__time__update_clock+0x12>
 8006f5c:	20000070 	.word	0x20000070

08006f60 <system__bb__time__alarm_handler>:
 8006f60:	e92d 43f8 	stmdb	sp!, {r3, r4, r5, r6, r7, r8, r9, lr}
 8006f64:	4b1e      	ldr	r3, [pc, #120]	; (8006fe0 <system__bb__time__alarm_handler+0x80>)
 8006f66:	f04f 7200 	mov.w	r2, #33554432	; 0x2000000
 8006f6a:	601a      	str	r2, [r3, #0]
 8006f6c:	b672      	cpsid	i
 8006f6e:	4b1d      	ldr	r3, [pc, #116]	; (8006fe4 <system__bb__time__alarm_handler+0x84>)
 8006f70:	f04f 37ff 	mov.w	r7, #4294967295
 8006f74:	601f      	str	r7, [r3, #0]
 8006f76:	605f      	str	r7, [r3, #4]
 8006f78:	f7ff ffda 	bl	8006f30 <system__bb__time__update_clock>
 8006f7c:	4680      	mov	r8, r0
 8006f7e:	4689      	mov	r9, r1
 8006f80:	4b19      	ldr	r3, [pc, #100]	; (8006fe8 <system__bb__time__alarm_handler+0x88>)
 8006f82:	463e      	mov	r6, r7
 8006f84:	e9d3 4500 	ldrd	r4, r5, [r3]
 8006f88:	1824      	adds	r4, r4, r0
 8006f8a:	414d      	adcs	r5, r1
 8006f8c:	f000 fae0 	bl	8007550 <system__bb__timing_events__execute_expired_timing_events>
 8006f90:	4640      	mov	r0, r8
 8006f92:	4649      	mov	r1, r9
 8006f94:	f000 fd14 	bl	80079c0 <system__bb__threads__queues__wakeup_expired_alarms>
 8006f98:	4b14      	ldr	r3, [pc, #80]	; (8006fec <system__bb__time__alarm_handler+0x8c>)
 8006f9a:	681b      	ldr	r3, [r3, #0]
 8006f9c:	b10b      	cbz	r3, 8006fa2 <system__bb__time__alarm_handler+0x42>
 8006f9e:	6c9f      	ldr	r7, [r3, #72]	; 0x48
 8006fa0:	6cde      	ldr	r6, [r3, #76]	; 0x4c
 8006fa2:	4b13      	ldr	r3, [pc, #76]	; (8006ff0 <system__bb__time__alarm_handler+0x90>)
 8006fa4:	681b      	ldr	r3, [r3, #0]
 8006fa6:	b1b3      	cbz	r3, 8006fd6 <system__bb__time__alarm_handler+0x76>
 8006fa8:	e9d3 2302 	ldrd	r2, r3, [r3, #8]
 8006fac:	42b5      	cmp	r5, r6
 8006fae:	bf08      	it	eq
 8006fb0:	42bc      	cmpeq	r4, r7
 8006fb2:	4631      	mov	r1, r6
 8006fb4:	bf38      	it	cc
 8006fb6:	4629      	movcc	r1, r5
 8006fb8:	4638      	mov	r0, r7
 8006fba:	bf38      	it	cc
 8006fbc:	4620      	movcc	r0, r4
 8006fbe:	428b      	cmp	r3, r1
 8006fc0:	bf08      	it	eq
 8006fc2:	4282      	cmpeq	r2, r0
 8006fc4:	bf3c      	itt	cc
 8006fc6:	4619      	movcc	r1, r3
 8006fc8:	4610      	movcc	r0, r2
 8006fca:	f7ff fef3 	bl	8006db4 <system__bb__time__update_alarm>
 8006fce:	e8bd 43f8 	ldmia.w	sp!, {r3, r4, r5, r6, r7, r8, r9, lr}
 8006fd2:	f000 ba93 	b.w	80074fc <system__bb__protection__leave_kernel>
 8006fd6:	f04f 32ff 	mov.w	r2, #4294967295
 8006fda:	f04f 33ff 	mov.w	r3, #4294967295
 8006fde:	e7e5      	b.n	8006fac <system__bb__time__alarm_handler+0x4c>
 8006fe0:	e000ed04 	.word	0xe000ed04
 8006fe4:	20000068 	.word	0x20000068
 8006fe8:	20000078 	.word	0x20000078
 8006fec:	200000b0 	.word	0x200000b0
 8006ff0:	2000009c 	.word	0x2000009c

08006ff4 <system__bb__board_support__read_clock>:
 8006ff4:	f3ef 8210 	mrs	r2, PRIMASK
 8006ff8:	2301      	movs	r3, #1
 8006ffa:	f383 8810 	msr	PRIMASK, r3
 8006ffe:	4b0b      	ldr	r3, [pc, #44]	; (800702c <system__bb__board_support__read_clock+0x38>)
 8007000:	6898      	ldr	r0, [r3, #8]
 8007002:	681b      	ldr	r3, [r3, #0]
 8007004:	03db      	lsls	r3, r3, #15
 8007006:	d405      	bmi.n	8007014 <system__bb__board_support__read_clock+0x20>
 8007008:	4b09      	ldr	r3, [pc, #36]	; (8007030 <system__bb__board_support__read_clock+0x3c>)
 800700a:	681b      	ldr	r3, [r3, #0]
 800700c:	1a18      	subs	r0, r3, r0
 800700e:	f382 8810 	msr	PRIMASK, r2
 8007012:	4770      	bx	lr
 8007014:	4906      	ldr	r1, [pc, #24]	; (8007030 <system__bb__board_support__read_clock+0x3c>)
 8007016:	6808      	ldr	r0, [r1, #0]
 8007018:	680b      	ldr	r3, [r1, #0]
 800701a:	f503 338c 	add.w	r3, r3, #71680	; 0x11800
 800701e:	f503 73a0 	add.w	r3, r3, #320	; 0x140
 8007022:	600b      	str	r3, [r1, #0]
 8007024:	f382 8810 	msr	PRIMASK, r2
 8007028:	4770      	bx	lr
 800702a:	bf00      	nop
 800702c:	e000e010 	.word	0xe000e010
 8007030:	20000694 	.word	0x20000694

08007034 <system__bb__board_support__set_alarm>:
 8007034:	b510      	push	{r4, lr}
 8007036:	4604      	mov	r4, r0
 8007038:	f7ff ffdc 	bl	8006ff4 <system__bb__board_support__read_clock>
 800703c:	f06f 4300 	mvn.w	r3, #2147483648	; 0x80000000
 8007040:	429c      	cmp	r4, r3
 8007042:	bf94      	ite	ls
 8007044:	1900      	addls	r0, r0, r4
 8007046:	18c0      	addhi	r0, r0, r3
 8007048:	4a03      	ldr	r2, [pc, #12]	; (8007058 <system__bb__board_support__set_alarm+0x24>)
 800704a:	6010      	str	r0, [r2, #0]
 800704c:	b91c      	cbnz	r4, 8007056 <system__bb__board_support__set_alarm+0x22>
 800704e:	4b03      	ldr	r3, [pc, #12]	; (800705c <system__bb__board_support__set_alarm+0x28>)
 8007050:	f04f 6280 	mov.w	r2, #67108864	; 0x4000000
 8007054:	601a      	str	r2, [r3, #0]
 8007056:	bd10      	pop	{r4, pc}
 8007058:	20000690 	.word	0x20000690
 800705c:	e000ed04 	.word	0xe000ed04

08007060 <system__bb__board_support__initialize_board>:
 8007060:	b570      	push	{r4, r5, r6, lr}
 8007062:	b672      	cpsid	i
 8007064:	4b0d      	ldr	r3, [pc, #52]	; (800709c <system__bb__board_support__initialize_board+0x3c>)
 8007066:	4e0e      	ldr	r6, [pc, #56]	; (80070a0 <system__bb__board_support__initialize_board+0x40>)
 8007068:	4a0e      	ldr	r2, [pc, #56]	; (80070a4 <system__bb__board_support__initialize_board+0x44>)
 800706a:	490f      	ldr	r1, [pc, #60]	; (80070a8 <system__bb__board_support__initialize_board+0x48>)
 800706c:	2004      	movs	r0, #4
 800706e:	2400      	movs	r4, #0
 8007070:	2505      	movs	r5, #5
 8007072:	6018      	str	r0, [r3, #0]
 8007074:	605e      	str	r6, [r3, #4]
 8007076:	f04f 30ff 	mov.w	r0, #4294967295
 800707a:	609c      	str	r4, [r3, #8]
 800707c:	601d      	str	r5, [r3, #0]
 800707e:	6011      	str	r1, [r2, #0]
 8007080:	f7ff ffd8 	bl	8007034 <system__bb__board_support__set_alarm>
 8007084:	4b09      	ldr	r3, [pc, #36]	; (80070ac <system__bb__board_support__initialize_board+0x4c>)
 8007086:	f04f 7200 	mov.w	r2, #33554432	; 0x2000000
 800708a:	601a      	str	r2, [r3, #0]
 800708c:	f384 8811 	msr	BASEPRI, r4
 8007090:	b662      	cpsie	i
 8007092:	f3bf 8f4f 	dsb	sy
 8007096:	f3bf 8f6f 	isb	sy
 800709a:	bd70      	pop	{r4, r5, r6, pc}
 800709c:	e000e010 	.word	0xe000e010
 80070a0:	0001193f 	.word	0x0001193f
 80070a4:	20000694 	.word	0x20000694
 80070a8:	00011940 	.word	0x00011940
 80070ac:	e000ed04 	.word	0xe000ed04

080070b0 <system__bb__board_support__enable_interrupt_request>:
 80070b0:	2801      	cmp	r0, #1
 80070b2:	d013      	beq.n	80070dc <system__bb__board_support__enable_interrupt_request+0x2c>
 80070b4:	1e81      	subs	r1, r0, #2
 80070b6:	460a      	mov	r2, r1
 80070b8:	4b10      	ldr	r3, [pc, #64]	; (80070fc <system__bb__board_support__enable_interrupt_request+0x4c>)
 80070ba:	2900      	cmp	r1, #0
 80070bc:	ea03 0301 	and.w	r3, r3, r1
 80070c0:	bfb8      	it	lt
 80070c2:	f100 021d 	addlt.w	r2, r0, #29
 80070c6:	2b00      	cmp	r3, #0
 80070c8:	ea4f 1262 	mov.w	r2, r2, asr #5
 80070cc:	db10      	blt.n	80070f0 <system__bb__board_support__enable_interrupt_request+0x40>
 80070ce:	2101      	movs	r1, #1
 80070d0:	480b      	ldr	r0, [pc, #44]	; (8007100 <system__bb__board_support__enable_interrupt_request+0x50>)
 80070d2:	fa01 f303 	lsl.w	r3, r1, r3
 80070d6:	f840 3022 	str.w	r3, [r0, r2, lsl #2]
 80070da:	4770      	bx	lr
 80070dc:	4b09      	ldr	r3, [pc, #36]	; (8007104 <system__bb__board_support__enable_interrupt_request+0x54>)
 80070de:	4a0a      	ldr	r2, [pc, #40]	; (8007108 <system__bb__board_support__enable_interrupt_request+0x58>)
 80070e0:	f04f 7100 	mov.w	r1, #33554432	; 0x2000000
 80070e4:	6019      	str	r1, [r3, #0]
 80070e6:	6813      	ldr	r3, [r2, #0]
 80070e8:	f043 0302 	orr.w	r3, r3, #2
 80070ec:	6013      	str	r3, [r2, #0]
 80070ee:	4770      	bx	lr
 80070f0:	3b01      	subs	r3, #1
 80070f2:	f063 031f 	orn	r3, r3, #31
 80070f6:	3301      	adds	r3, #1
 80070f8:	e7e9      	b.n	80070ce <system__bb__board_support__enable_interrupt_request+0x1e>
 80070fa:	bf00      	nop
 80070fc:	8000001f 	.word	0x8000001f
 8007100:	e000e100 	.word	0xe000e100
 8007104:	e000ed04 	.word	0xe000ed04
 8007108:	e000e010 	.word	0xe000e010

0800710c <system__bb__board_support__install_interrupt_handler>:
 800710c:	2901      	cmp	r1, #1
 800710e:	b570      	push	{r4, r5, r6, lr}
 8007110:	460c      	mov	r4, r1
 8007112:	4615      	mov	r5, r2
 8007114:	d017      	beq.n	8007146 <system__bb__board_support__install_interrupt_handler+0x3a>
 8007116:	f1a5 03f1 	sub.w	r3, r5, #241	; 0xf1
 800711a:	2b0e      	cmp	r3, #14
 800711c:	bf9c      	itt	ls
 800711e:	ebc5 1305 	rsbls	r3, r5, r5, lsl #4
 8007122:	011b      	lslls	r3, r3, #4
 8007124:	4e0a      	ldr	r6, [pc, #40]	; (8007150 <system__bb__board_support__install_interrupt_handler+0x44>)
 8007126:	f1a1 0102 	sub.w	r1, r1, #2
 800712a:	bf94      	ite	ls
 800712c:	b2db      	uxtbls	r3, r3
 800712e:	2300      	movhi	r3, #0
 8007130:	5473      	strb	r3, [r6, r1]
 8007132:	2200      	movs	r2, #0
 8007134:	2110      	movs	r1, #16
 8007136:	f000 f965 	bl	8007404 <system__bb__cpu_primitives__install_trap_handler>
 800713a:	4620      	mov	r0, r4
 800713c:	4629      	mov	r1, r5
 800713e:	e8bd 4070 	ldmia.w	sp!, {r4, r5, r6, lr}
 8007142:	f7ff bfb5 	b.w	80070b0 <system__bb__board_support__enable_interrupt_request>
 8007146:	210f      	movs	r1, #15
 8007148:	2200      	movs	r2, #0
 800714a:	f000 f95b 	bl	8007404 <system__bb__cpu_primitives__install_trap_handler>
 800714e:	e7f4      	b.n	800713a <system__bb__board_support__install_interrupt_handler+0x2e>
 8007150:	e000e400 	.word	0xe000e400

08007154 <system__tasking__initialize_atcb>:
 8007154:	b5f8      	push	{r3, r4, r5, r6, r7, lr}
 8007156:	9c09      	ldr	r4, [sp, #36]	; 0x24
 8007158:	f89d 7018 	ldrb.w	r7, [sp, #24]
 800715c:	9e07      	ldr	r6, [sp, #28]
 800715e:	2500      	movs	r5, #0
 8007160:	7225      	strb	r5, [r4, #8]
 8007162:	60e2      	str	r2, [r4, #12]
 8007164:	7263      	strb	r3, [r4, #9]
 8007166:	6125      	str	r5, [r4, #16]
 8007168:	f8c4 008c 	str.w	r0, [r4, #140]	; 0x8c
 800716c:	f8c4 1088 	str.w	r1, [r4, #136]	; 0x88
 8007170:	f884 70a0 	strb.w	r7, [r4, #160]	; 0xa0
 8007174:	f8c4 6090 	str.w	r6, [r4, #144]	; 0x90
 8007178:	9808      	ldr	r0, [sp, #32]
 800717a:	f000 ff4d 	bl	8008018 <system__parameters__adjust_storage_size>
 800717e:	f8c4 0094 	str.w	r0, [r4, #148]	; 0x94
 8007182:	2001      	movs	r0, #1
 8007184:	bdf8      	pop	{r3, r4, r5, r6, r7, pc}
 8007186:	bf00      	nop

08007188 <system__tasking__initialize>:
 8007188:	4b3b      	ldr	r3, [pc, #236]	; (8007278 <system__tasking__initialize+0xf0>)
 800718a:	781a      	ldrb	r2, [r3, #0]
 800718c:	2a00      	cmp	r2, #0
 800718e:	d16c      	bne.n	800726a <system__tasking__initialize+0xe2>
 8007190:	b5f0      	push	{r4, r5, r6, r7, lr}
 8007192:	4a3a      	ldr	r2, [pc, #232]	; (800727c <system__tasking__initialize+0xf4>)
 8007194:	4c3a      	ldr	r4, [pc, #232]	; (8007280 <system__tasking__initialize+0xf8>)
 8007196:	6811      	ldr	r1, [r2, #0]
 8007198:	2001      	movs	r0, #1
 800719a:	7018      	strb	r0, [r3, #0]
 800719c:	2500      	movs	r5, #0
 800719e:	b085      	sub	sp, #20
 80071a0:	3101      	adds	r1, #1
 80071a2:	f04f 0302 	mov.w	r3, #2
 80071a6:	bf14      	ite	ne
 80071a8:	6812      	ldrne	r2, [r2, #0]
 80071aa:	2278      	moveq	r2, #120	; 0x78
 80071ac:	e88d 0028 	stmia.w	sp, {r3, r5}
 80071b0:	4629      	mov	r1, r5
 80071b2:	2301      	movs	r3, #1
 80071b4:	9403      	str	r4, [sp, #12]
 80071b6:	9502      	str	r5, [sp, #8]
 80071b8:	4628      	mov	r0, r5
 80071ba:	f7ff ffcb 	bl	8007154 <system__tasking__initialize_atcb>
 80071be:	f104 0318 	add.w	r3, r4, #24
 80071c2:	f8c4 3080 	str.w	r3, [r4, #128]	; 0x80
 80071c6:	68e1      	ldr	r1, [r4, #12]
 80071c8:	f8d4 0080 	ldr.w	r0, [r4, #128]	; 0x80
 80071cc:	f8c4 509c 	str.w	r5, [r4, #156]	; 0x9c
 80071d0:	f000 fb12 	bl	80077f8 <system__bb__threads__initialize>
 80071d4:	4b2b      	ldr	r3, [pc, #172]	; (8007284 <system__tasking__initialize+0xfc>)
 80071d6:	f8d4 1080 	ldr.w	r1, [r4, #128]	; 0x80
 80071da:	681a      	ldr	r2, [r3, #0]
 80071dc:	628c      	str	r4, [r1, #40]	; 0x28
 80071de:	f8c4 5084 	str.w	r5, [r4, #132]	; 0x84
 80071e2:	2a00      	cmp	r2, #0
 80071e4:	d042      	beq.n	800726c <system__tasking__initialize+0xe4>
 80071e6:	f8c2 409c 	str.w	r4, [r2, #156]	; 0x9c
 80071ea:	601c      	str	r4, [r3, #0]
 80071ec:	b672      	cpsid	i
 80071ee:	4e26      	ldr	r6, [pc, #152]	; (8007288 <system__tasking__initialize+0x100>)
 80071f0:	4b26      	ldr	r3, [pc, #152]	; (800728c <system__tasking__initialize+0x104>)
 80071f2:	4635      	mov	r5, r6
 80071f4:	6818      	ldr	r0, [r3, #0]
 80071f6:	68e1      	ldr	r1, [r4, #12]
 80071f8:	f000 fb7c 	bl	80078f4 <system__bb__threads__queues__change_priority>
 80071fc:	f000 f97e 	bl	80074fc <system__bb__protection__leave_kernel>
 8007200:	4923      	ldr	r1, [pc, #140]	; (8007290 <system__tasking__initialize+0x108>)
 8007202:	4a24      	ldr	r2, [pc, #144]	; (8007294 <system__tasking__initialize+0x10c>)
 8007204:	4b24      	ldr	r3, [pc, #144]	; (8007298 <system__tasking__initialize+0x110>)
 8007206:	2001      	movs	r0, #1
 8007208:	601a      	str	r2, [r3, #0]
 800720a:	600c      	str	r4, [r1, #0]
 800720c:	f000 f942 	bl	8007494 <system__task_primitives__operations__initialize_idle>
 8007210:	f1a6 0368 	sub.w	r3, r6, #104	; 0x68
 8007214:	6033      	str	r3, [r6, #0]
 8007216:	f855 0980 	ldr.w	r0, [r5], #-128
 800721a:	2701      	movs	r7, #1
 800721c:	f8d5 2090 	ldr.w	r2, [r5, #144]	; 0x90
 8007220:	f8d5 3094 	ldr.w	r3, [r5, #148]	; 0x94
 8007224:	491d      	ldr	r1, [pc, #116]	; (800729c <system__tasking__initialize+0x114>)
 8007226:	9201      	str	r2, [sp, #4]
 8007228:	9302      	str	r3, [sp, #8]
 800722a:	462a      	mov	r2, r5
 800722c:	f04f 33ff 	mov.w	r3, #4294967295
 8007230:	9700      	str	r7, [sp, #0]
 8007232:	f000 fb4b 	bl	80078cc <system__bb__threads__thread_create>
 8007236:	6832      	ldr	r2, [r6, #0]
 8007238:	4b19      	ldr	r3, [pc, #100]	; (80072a0 <system__tasking__initialize+0x118>)
 800723a:	6295      	str	r5, [r2, #40]	; 0x28
 800723c:	4618      	mov	r0, r3
 800723e:	7227      	strb	r7, [r4, #8]
 8007240:	f44f 6180 	mov.w	r1, #1024	; 0x400
 8007244:	f8c4 3098 	str.w	r3, [r4, #152]	; 0x98
 8007248:	f8c4 40a8 	str.w	r4, [r4, #168]	; 0xa8
 800724c:	f000 feea 	bl	8008024 <system__secondary_stack__ss_init>
 8007250:	4a14      	ldr	r2, [pc, #80]	; (80072a4 <system__tasking__initialize+0x11c>)
 8007252:	4b15      	ldr	r3, [pc, #84]	; (80072a8 <system__tasking__initialize+0x120>)
 8007254:	6810      	ldr	r0, [r2, #0]
 8007256:	2100      	movs	r1, #0
 8007258:	3001      	adds	r0, #1
 800725a:	6019      	str	r1, [r3, #0]
 800725c:	6059      	str	r1, [r3, #4]
 800725e:	d002      	beq.n	8007266 <system__tasking__initialize+0xde>
 8007260:	6813      	ldr	r3, [r2, #0]
 8007262:	42bb      	cmp	r3, r7
 8007264:	d105      	bne.n	8007272 <system__tasking__initialize+0xea>
 8007266:	b005      	add	sp, #20
 8007268:	bdf0      	pop	{r4, r5, r6, r7, pc}
 800726a:	4770      	bx	lr
 800726c:	4a0f      	ldr	r2, [pc, #60]	; (80072ac <system__tasking__initialize+0x124>)
 800726e:	6014      	str	r4, [r2, #0]
 8007270:	e7bb      	b.n	80071ea <system__tasking__initialize+0x62>
 8007272:	480f      	ldr	r0, [pc, #60]	; (80072b0 <system__tasking__initialize+0x128>)
 8007274:	f000 fea4 	bl	8007fc0 <__gnat_last_chance_handler>
 8007278:	20000088 	.word	0x20000088
 800727c:	20000084 	.word	0x20000084
 8007280:	20000698 	.word	0x20000698
 8007284:	200000bc 	.word	0x200000bc
 8007288:	20000c18 	.word	0x20000c18
 800728c:	200000b4 	.word	0x200000b4
 8007290:	20000098 	.word	0x20000098
 8007294:	20001450 	.word	0x20001450
 8007298:	20000b94 	.word	0x20000b94
 800729c:	08007481 	.word	0x08007481
 80072a0:	20000750 	.word	0x20000750
 80072a4:	20000094 	.word	0x20000094
 80072a8:	2000008c 	.word	0x2000008c
 80072ac:	200000b8 	.word	0x200000b8
 80072b0:	08009824 	.word	0x08009824

080072b4 <system__bb__cpu_primitives__gnat_error_handler>:
 80072b4:	b240      	sxtb	r0, r0
 80072b6:	3801      	subs	r0, #1
 80072b8:	b508      	push	{r3, lr}
 80072ba:	2805      	cmp	r0, #5
 80072bc:	d818      	bhi.n	80072f0 <system__bb__cpu_primitives__gnat_error_handler+0x3c>
 80072be:	e8df f000 	tbb	[pc, r0]
 80072c2:	0b07      	.short	0x0b07
 80072c4:	0313170f 	.word	0x0313170f
 80072c8:	480b      	ldr	r0, [pc, #44]	; (80072f8 <system__bb__cpu_primitives__gnat_error_handler+0x44>)
 80072ca:	2100      	movs	r1, #0
 80072cc:	f000 fe78 	bl	8007fc0 <__gnat_last_chance_handler>
 80072d0:	480a      	ldr	r0, [pc, #40]	; (80072fc <system__bb__cpu_primitives__gnat_error_handler+0x48>)
 80072d2:	2100      	movs	r1, #0
 80072d4:	f000 fe74 	bl	8007fc0 <__gnat_last_chance_handler>
 80072d8:	4809      	ldr	r0, [pc, #36]	; (8007300 <system__bb__cpu_primitives__gnat_error_handler+0x4c>)
 80072da:	2100      	movs	r1, #0
 80072dc:	f000 fe70 	bl	8007fc0 <__gnat_last_chance_handler>
 80072e0:	4808      	ldr	r0, [pc, #32]	; (8007304 <system__bb__cpu_primitives__gnat_error_handler+0x50>)
 80072e2:	2100      	movs	r1, #0
 80072e4:	f000 fe6c 	bl	8007fc0 <__gnat_last_chance_handler>
 80072e8:	4807      	ldr	r0, [pc, #28]	; (8007308 <system__bb__cpu_primitives__gnat_error_handler+0x54>)
 80072ea:	2100      	movs	r1, #0
 80072ec:	f000 fe68 	bl	8007fc0 <__gnat_last_chance_handler>
 80072f0:	4806      	ldr	r0, [pc, #24]	; (800730c <system__bb__cpu_primitives__gnat_error_handler+0x58>)
 80072f2:	2100      	movs	r1, #0
 80072f4:	f000 fe64 	bl	8007fc0 <__gnat_last_chance_handler>
 80072f8:	08009954 	.word	0x08009954
 80072fc:	08009860 	.word	0x08009860
 8007300:	080098a0 	.word	0x080098a0
 8007304:	080098e4 	.word	0x080098e4
 8007308:	0800991c 	.word	0x0800991c
 800730c:	0800998c 	.word	0x0800998c

08007310 <__gnat_irq_trap>:
 8007310:	b508      	push	{r3, lr}
 8007312:	4b10      	ldr	r3, [pc, #64]	; (8007354 <__gnat_irq_trap+0x44>)
 8007314:	2010      	movs	r0, #16
 8007316:	6c1b      	ldr	r3, [r3, #64]	; 0x40
 8007318:	4798      	blx	r3
 800731a:	4a0f      	ldr	r2, [pc, #60]	; (8007358 <__gnat_irq_trap+0x48>)
 800731c:	4b0f      	ldr	r3, [pc, #60]	; (800735c <__gnat_irq_trap+0x4c>)
 800731e:	6811      	ldr	r1, [r2, #0]
 8007320:	681a      	ldr	r2, [r3, #0]
 8007322:	4291      	cmp	r1, r2
 8007324:	d003      	beq.n	800732e <__gnat_irq_trap+0x1e>
 8007326:	4a0e      	ldr	r2, [pc, #56]	; (8007360 <__gnat_irq_trap+0x50>)
 8007328:	f04f 5180 	mov.w	r1, #268435456	; 0x10000000
 800732c:	6011      	str	r1, [r2, #0]
 800732e:	681b      	ldr	r3, [r3, #0]
 8007330:	6b5b      	ldr	r3, [r3, #52]	; 0x34
 8007332:	f1a3 02f1 	sub.w	r2, r3, #241	; 0xf1
 8007336:	2a0e      	cmp	r2, #14
 8007338:	bf9d      	ittte	ls
 800733a:	ebc3 1303 	rsbls	r3, r3, r3, lsl #4
 800733e:	011b      	lslls	r3, r3, #4
 8007340:	b2db      	uxtbls	r3, r3
 8007342:	2300      	movhi	r3, #0
 8007344:	f383 8811 	msr	BASEPRI, r3
 8007348:	b662      	cpsie	i
 800734a:	f3bf 8f4f 	dsb	sy
 800734e:	f3bf 8f6f 	isb	sy
 8007352:	bd08      	pop	{r3, pc}
 8007354:	20000b50 	.word	0x20000b50
 8007358:	200000a8 	.word	0x200000a8
 800735c:	200000b4 	.word	0x200000b4
 8007360:	e000ed04 	.word	0xe000ed04

08007364 <__gnat_pend_sv_trap>:
 8007364:	f240 02b4 	movw	r2, #180	; 0xb4
 8007368:	f2c2 0200 	movt	r2, #8192	; 0x2000
 800736c:	f3ef 8c09 	mrs	ip, PSP
 8007370:	6813      	ldr	r3, [r2, #0]
 8007372:	e883 1ff0 	stmia.w	r3, {r4, r5, r6, r7, r8, r9, sl, fp, ip}
 8007376:	f240 03a8 	movw	r3, #168	; 0xa8
 800737a:	f2c2 0300 	movt	r3, #8192	; 0x2000
 800737e:	681b      	ldr	r3, [r3, #0]
 8007380:	6013      	str	r3, [r2, #0]
 8007382:	e893 1ff0 	ldmia.w	r3, {r4, r5, r6, r7, r8, r9, sl, fp, ip}
 8007386:	f38c 8809 	msr	PSP, ip
 800738a:	4770      	bx	lr

0800738c <__gnat_sv_call_trap>:
 800738c:	b508      	push	{r3, lr}
 800738e:	200b      	movs	r0, #11
 8007390:	f7ff ff90 	bl	80072b4 <system__bb__cpu_primitives__gnat_error_handler>

08007394 <__gnat_sys_tick_trap>:
 8007394:	b508      	push	{r3, lr}
 8007396:	f7ff fe2d 	bl	8006ff4 <system__bb__board_support__read_clock>
 800739a:	4a15      	ldr	r2, [pc, #84]	; (80073f0 <__gnat_sys_tick_trap+0x5c>)
 800739c:	6813      	ldr	r3, [r2, #0]
 800739e:	1a1b      	subs	r3, r3, r0
 80073a0:	2b00      	cmp	r3, #0
 80073a2:	db00      	blt.n	80073a6 <__gnat_sys_tick_trap+0x12>
 80073a4:	bd08      	pop	{r3, pc}
 80073a6:	f100 4000 	add.w	r0, r0, #2147483648	; 0x80000000
 80073aa:	3801      	subs	r0, #1
 80073ac:	4b11      	ldr	r3, [pc, #68]	; (80073f4 <__gnat_sys_tick_trap+0x60>)
 80073ae:	6010      	str	r0, [r2, #0]
 80073b0:	6bdb      	ldr	r3, [r3, #60]	; 0x3c
 80073b2:	200f      	movs	r0, #15
 80073b4:	4798      	blx	r3
 80073b6:	4a10      	ldr	r2, [pc, #64]	; (80073f8 <__gnat_sys_tick_trap+0x64>)
 80073b8:	4b10      	ldr	r3, [pc, #64]	; (80073fc <__gnat_sys_tick_trap+0x68>)
 80073ba:	6811      	ldr	r1, [r2, #0]
 80073bc:	681a      	ldr	r2, [r3, #0]
 80073be:	4291      	cmp	r1, r2
 80073c0:	d003      	beq.n	80073ca <__gnat_sys_tick_trap+0x36>
 80073c2:	4a0f      	ldr	r2, [pc, #60]	; (8007400 <__gnat_sys_tick_trap+0x6c>)
 80073c4:	f04f 5180 	mov.w	r1, #268435456	; 0x10000000
 80073c8:	6011      	str	r1, [r2, #0]
 80073ca:	681b      	ldr	r3, [r3, #0]
 80073cc:	6b5b      	ldr	r3, [r3, #52]	; 0x34
 80073ce:	f1a3 02f1 	sub.w	r2, r3, #241	; 0xf1
 80073d2:	2a0e      	cmp	r2, #14
 80073d4:	bf9d      	ittte	ls
 80073d6:	ebc3 1303 	rsbls	r3, r3, r3, lsl #4
 80073da:	011b      	lslls	r3, r3, #4
 80073dc:	b2db      	uxtbls	r3, r3
 80073de:	2300      	movhi	r3, #0
 80073e0:	f383 8811 	msr	BASEPRI, r3
 80073e4:	b662      	cpsie	i
 80073e6:	f3bf 8f4f 	dsb	sy
 80073ea:	f3bf 8f6f 	isb	sy
 80073ee:	bd08      	pop	{r3, pc}
 80073f0:	20000690 	.word	0x20000690
 80073f4:	20000b50 	.word	0x20000b50
 80073f8:	200000a8 	.word	0x200000a8
 80073fc:	200000b4 	.word	0x200000b4
 8007400:	e000ed04 	.word	0xe000ed04

08007404 <system__bb__cpu_primitives__install_trap_handler>:
 8007404:	4b02      	ldr	r3, [pc, #8]	; (8007410 <system__bb__cpu_primitives__install_trap_handler+0xc>)
 8007406:	b249      	sxtb	r1, r1
 8007408:	f843 0021 	str.w	r0, [r3, r1, lsl #2]
 800740c:	4770      	bx	lr
 800740e:	bf00      	nop
 8007410:	20000b50 	.word	0x20000b50

08007414 <ada__real_time__delays__delay_until>:
 8007414:	4b09      	ldr	r3, [pc, #36]	; (800743c <ada__real_time__delays__delay_until+0x28>)
 8007416:	b510      	push	{r4, lr}
 8007418:	681a      	ldr	r2, [r3, #0]
 800741a:	6a92      	ldr	r2, [r2, #40]	; 0x28
 800741c:	6912      	ldr	r2, [r2, #16]
 800741e:	2a00      	cmp	r2, #0
 8007420:	dc08      	bgt.n	8007434 <ada__real_time__delays__delay_until+0x20>
 8007422:	681a      	ldr	r2, [r3, #0]
 8007424:	2307      	movs	r3, #7
 8007426:	6a94      	ldr	r4, [r2, #40]	; 0x28
 8007428:	7223      	strb	r3, [r4, #8]
 800742a:	f7ff fd0d 	bl	8006e48 <system__bb__time__delay_until>
 800742e:	2301      	movs	r3, #1
 8007430:	7223      	strb	r3, [r4, #8]
 8007432:	bd10      	pop	{r4, pc}
 8007434:	4802      	ldr	r0, [pc, #8]	; (8007440 <ada__real_time__delays__delay_until+0x2c>)
 8007436:	212e      	movs	r1, #46	; 0x2e
 8007438:	f000 fdc2 	bl	8007fc0 <__gnat_last_chance_handler>
 800743c:	200000b4 	.word	0x200000b4
 8007440:	080099c8 	.word	0x080099c8

08007444 <system__task_primitives__operations__enter_task>:
 8007444:	b508      	push	{r3, lr}
 8007446:	4b0b      	ldr	r3, [pc, #44]	; (8007474 <system__task_primitives__operations__enter_task+0x30>)
 8007448:	2100      	movs	r1, #0
 800744a:	681a      	ldr	r2, [r3, #0]
 800744c:	f8c0 1084 	str.w	r1, [r0, #132]	; 0x84
 8007450:	b162      	cbz	r2, 800746c <system__task_primitives__operations__enter_task+0x28>
 8007452:	f8c2 009c 	str.w	r0, [r2, #156]	; 0x9c
 8007456:	6018      	str	r0, [r3, #0]
 8007458:	b672      	cpsid	i
 800745a:	4b07      	ldr	r3, [pc, #28]	; (8007478 <system__task_primitives__operations__enter_task+0x34>)
 800745c:	68c1      	ldr	r1, [r0, #12]
 800745e:	6818      	ldr	r0, [r3, #0]
 8007460:	f000 fa48 	bl	80078f4 <system__bb__threads__queues__change_priority>
 8007464:	e8bd 4008 	ldmia.w	sp!, {r3, lr}
 8007468:	f000 b848 	b.w	80074fc <system__bb__protection__leave_kernel>
 800746c:	4a03      	ldr	r2, [pc, #12]	; (800747c <system__task_primitives__operations__enter_task+0x38>)
 800746e:	6010      	str	r0, [r2, #0]
 8007470:	e7f1      	b.n	8007456 <system__task_primitives__operations__enter_task+0x12>
 8007472:	bf00      	nop
 8007474:	200000bc 	.word	0x200000bc
 8007478:	200000b4 	.word	0x200000b4
 800747c:	200000b8 	.word	0x200000b8

08007480 <system__task_primitives__operations__idle>:
 8007480:	b508      	push	{r3, lr}
 8007482:	4b03      	ldr	r3, [pc, #12]	; (8007490 <system__task_primitives__operations__idle+0x10>)
 8007484:	681b      	ldr	r3, [r3, #0]
 8007486:	6a98      	ldr	r0, [r3, #40]	; 0x28
 8007488:	f7ff ffdc 	bl	8007444 <system__task_primitives__operations__enter_task>
 800748c:	bf30      	wfi
 800748e:	e7fd      	b.n	800748c <system__task_primitives__operations__idle+0xc>
 8007490:	200000b4 	.word	0x200000b4

08007494 <system__task_primitives__operations__initialize_idle>:
 8007494:	b570      	push	{r4, r5, r6, lr}
 8007496:	4603      	mov	r3, r0
 8007498:	24b8      	movs	r4, #184	; 0xb8
 800749a:	b240      	sxtb	r0, r0
 800749c:	fb04 f400 	mul.w	r4, r4, r0
 80074a0:	4912      	ldr	r1, [pc, #72]	; (80074ec <system__task_primitives__operations__initialize_idle+0x58>)
 80074a2:	4d13      	ldr	r5, [pc, #76]	; (80074f0 <system__task_primitives__operations__initialize_idle+0x5c>)
 80074a4:	4a13      	ldr	r2, [pc, #76]	; (80074f4 <system__task_primitives__operations__initialize_idle+0x60>)
 80074a6:	4401      	add	r1, r0
 80074a8:	f1a4 06b8 	sub.w	r6, r4, #184	; 0xb8
 80074ac:	b084      	sub	sp, #16
 80074ae:	eb02 22c1 	add.w	r2, r2, r1, lsl #11
 80074b2:	442e      	add	r6, r5
 80074b4:	2002      	movs	r0, #2
 80074b6:	f44f 6100 	mov.w	r1, #2048	; 0x800
 80074ba:	9201      	str	r2, [sp, #4]
 80074bc:	9000      	str	r0, [sp, #0]
 80074be:	9102      	str	r1, [sp, #8]
 80074c0:	9603      	str	r6, [sp, #12]
 80074c2:	2100      	movs	r1, #0
 80074c4:	f04f 32ff 	mov.w	r2, #4294967295
 80074c8:	480b      	ldr	r0, [pc, #44]	; (80074f8 <system__task_primitives__operations__initialize_idle+0x64>)
 80074ca:	f7ff fe43 	bl	8007154 <system__tasking__initialize_atcb>
 80074ce:	f1a4 03a0 	sub.w	r3, r4, #160	; 0xa0
 80074d2:	f1a4 0038 	sub.w	r0, r4, #56	; 0x38
 80074d6:	1929      	adds	r1, r5, r4
 80074d8:	442b      	add	r3, r5
 80074da:	3cb0      	subs	r4, #176	; 0xb0
 80074dc:	2201      	movs	r2, #1
 80074de:	502b      	str	r3, [r5, r0]
 80074e0:	f841 6c10 	str.w	r6, [r1, #-16]
 80074e4:	552a      	strb	r2, [r5, r4]
 80074e6:	b004      	add	sp, #16
 80074e8:	bd70      	pop	{r4, r5, r6, pc}
 80074ea:	bf00      	nop
 80074ec:	001fffff 	.word	0x001fffff
 80074f0:	20000b98 	.word	0x20000b98
 80074f4:	20000c50 	.word	0x20000c50
 80074f8:	08007481 	.word	0x08007481

080074fc <system__bb__protection__leave_kernel>:
 80074fc:	4b10      	ldr	r3, [pc, #64]	; (8007540 <system__bb__protection__leave_kernel+0x44>)
 80074fe:	b510      	push	{r4, lr}
 8007500:	4c10      	ldr	r4, [pc, #64]	; (8007544 <system__bb__protection__leave_kernel+0x48>)
 8007502:	681a      	ldr	r2, [r3, #0]
 8007504:	6823      	ldr	r3, [r4, #0]
 8007506:	429a      	cmp	r2, r3
 8007508:	d007      	beq.n	800751a <system__bb__protection__leave_kernel+0x1e>
 800750a:	4b0f      	ldr	r3, [pc, #60]	; (8007548 <system__bb__protection__leave_kernel+0x4c>)
 800750c:	681b      	ldr	r3, [r3, #0]
 800750e:	b103      	cbz	r3, 8007512 <system__bb__protection__leave_kernel+0x16>
 8007510:	4798      	blx	r3
 8007512:	4b0e      	ldr	r3, [pc, #56]	; (800754c <system__bb__protection__leave_kernel+0x50>)
 8007514:	f04f 5280 	mov.w	r2, #268435456	; 0x10000000
 8007518:	601a      	str	r2, [r3, #0]
 800751a:	6823      	ldr	r3, [r4, #0]
 800751c:	6b5b      	ldr	r3, [r3, #52]	; 0x34
 800751e:	f1a3 02f1 	sub.w	r2, r3, #241	; 0xf1
 8007522:	2a0e      	cmp	r2, #14
 8007524:	bf9d      	ittte	ls
 8007526:	ebc3 1303 	rsbls	r3, r3, r3, lsl #4
 800752a:	011b      	lslls	r3, r3, #4
 800752c:	b2db      	uxtbls	r3, r3
 800752e:	2300      	movhi	r3, #0
 8007530:	f383 8811 	msr	BASEPRI, r3
 8007534:	b662      	cpsie	i
 8007536:	f3bf 8f4f 	dsb	sy
 800753a:	f3bf 8f6f 	isb	sy
 800753e:	bd10      	pop	{r4, pc}
 8007540:	200000a8 	.word	0x200000a8
 8007544:	200000b4 	.word	0x200000b4
 8007548:	20000080 	.word	0x20000080
 800754c:	e000ed04 	.word	0xe000ed04

08007550 <system__bb__timing_events__execute_expired_timing_events>:
 8007550:	e92d 4ff8 	stmdb	sp!, {r3, r4, r5, r6, r7, r8, r9, sl, fp, lr}
 8007554:	f8df b074 	ldr.w	fp, [pc, #116]	; 80075cc <system__bb__timing_events__execute_expired_timing_events+0x7c>
 8007558:	f8db 4000 	ldr.w	r4, [fp]
 800755c:	2c00      	cmp	r4, #0
 800755e:	d030      	beq.n	80075c2 <system__bb__timing_events__execute_expired_timing_events+0x72>
 8007560:	4b19      	ldr	r3, [pc, #100]	; (80075c8 <system__bb__timing_events__execute_expired_timing_events+0x78>)
 8007562:	4606      	mov	r6, r0
 8007564:	f8d3 a000 	ldr.w	sl, [r3]
 8007568:	460f      	mov	r7, r1
 800756a:	4650      	mov	r0, sl
 800756c:	21ff      	movs	r1, #255	; 0xff
 800756e:	f8da 9034 	ldr.w	r9, [sl, #52]	; 0x34
 8007572:	46d8      	mov	r8, fp
 8007574:	f000 f9be 	bl	80078f4 <system__bb__threads__queues__change_priority>
 8007578:	2500      	movs	r5, #0
 800757a:	e9d4 2302 	ldrd	r2, r3, [r4, #8]
 800757e:	429f      	cmp	r7, r3
 8007580:	bf08      	it	eq
 8007582:	4296      	cmpeq	r6, r2
 8007584:	d317      	bcc.n	80075b6 <system__bb__timing_events__execute_expired_timing_events+0x66>
 8007586:	f8db 3000 	ldr.w	r3, [fp]
 800758a:	6962      	ldr	r2, [r4, #20]
 800758c:	429c      	cmp	r4, r3
 800758e:	bf18      	it	ne
 8007590:	69a3      	ldrne	r3, [r4, #24]
 8007592:	6921      	ldr	r1, [r4, #16]
 8007594:	bf1a      	itte	ne
 8007596:	615a      	strne	r2, [r3, #20]
 8007598:	6962      	ldrne	r2, [r4, #20]
 800759a:	f8c8 2000 	streq.w	r2, [r8]
 800759e:	4620      	mov	r0, r4
 80075a0:	b10a      	cbz	r2, 80075a6 <system__bb__timing_events__execute_expired_timing_events+0x56>
 80075a2:	69a3      	ldr	r3, [r4, #24]
 80075a4:	6193      	str	r3, [r2, #24]
 80075a6:	6165      	str	r5, [r4, #20]
 80075a8:	61a5      	str	r5, [r4, #24]
 80075aa:	6125      	str	r5, [r4, #16]
 80075ac:	4788      	blx	r1
 80075ae:	f8db 4000 	ldr.w	r4, [fp]
 80075b2:	2c00      	cmp	r4, #0
 80075b4:	d1e1      	bne.n	800757a <system__bb__timing_events__execute_expired_timing_events+0x2a>
 80075b6:	4650      	mov	r0, sl
 80075b8:	4649      	mov	r1, r9
 80075ba:	e8bd 4ff8 	ldmia.w	sp!, {r3, r4, r5, r6, r7, r8, r9, sl, fp, lr}
 80075be:	f000 b999 	b.w	80078f4 <system__bb__threads__queues__change_priority>
 80075c2:	e8bd 8ff8 	ldmia.w	sp!, {r3, r4, r5, r6, r7, r8, r9, sl, fp, pc}
 80075c6:	bf00      	nop
 80075c8:	200000b4 	.word	0x200000b4
 80075cc:	2000009c 	.word	0x2000009c

080075d0 <system__bb__interrupts__interrupt_wrapper>:
 80075d0:	e92d 4ff0 	stmdb	sp!, {r4, r5, r6, r7, r8, r9, sl, fp, lr}
 80075d4:	4b3a      	ldr	r3, [pc, #232]	; (80076c0 <system__bb__interrupts__interrupt_wrapper+0xf0>)
 80075d6:	280f      	cmp	r0, #15
 80075d8:	681d      	ldr	r5, [r3, #0]
 80075da:	b083      	sub	sp, #12
 80075dc:	f8d5 8034 	ldr.w	r8, [r5, #52]	; 0x34
 80075e0:	d050      	beq.n	8007684 <system__bb__interrupts__interrupt_wrapper+0xb4>
 80075e2:	f3ef 8305 	mrs	r3, IPSR
 80075e6:	b2db      	uxtb	r3, r3
 80075e8:	f1a3 060e 	sub.w	r6, r3, #14
 80075ec:	2e01      	cmp	r6, #1
 80075ee:	d049      	beq.n	8007684 <system__bb__interrupts__interrupt_wrapper+0xb4>
 80075f0:	4a34      	ldr	r2, [pc, #208]	; (80076c4 <system__bb__interrupts__interrupt_wrapper+0xf4>)
 80075f2:	3b10      	subs	r3, #16
 80075f4:	5cd3      	ldrb	r3, [r2, r3]
 80075f6:	f003 04ff 	and.w	r4, r3, #255	; 0xff
 80075fa:	b95b      	cbnz	r3, 8007614 <system__bb__interrupts__interrupt_wrapper+0x44>
 80075fc:	24ff      	movs	r4, #255	; 0xff
 80075fe:	f8df 90cc 	ldr.w	r9, [pc, #204]	; 80076cc <system__bb__interrupts__interrupt_wrapper+0xfc>
 8007602:	f8d9 b000 	ldr.w	fp, [r9]
 8007606:	f895 7055 	ldrb.w	r7, [r5, #85]	; 0x55
 800760a:	b2ff      	uxtb	r7, r7
 800760c:	b936      	cbnz	r6, 800761c <system__bb__interrupts__interrupt_wrapper+0x4c>
 800760e:	b003      	add	sp, #12
 8007610:	e8bd 8ff0 	ldmia.w	sp!, {r4, r5, r6, r7, r8, r9, sl, fp, pc}
 8007614:	0924      	lsrs	r4, r4, #4
 8007616:	f5c4 7480 	rsb	r4, r4, #256	; 0x100
 800761a:	e7f0      	b.n	80075fe <system__bb__interrupts__interrupt_wrapper+0x2e>
 800761c:	f8df a0b0 	ldr.w	sl, [pc, #176]	; 80076d0 <system__bb__interrupts__interrupt_wrapper+0x100>
 8007620:	4621      	mov	r1, r4
 8007622:	f8da 3000 	ldr.w	r3, [sl]
 8007626:	b113      	cbz	r3, 800762e <system__bb__interrupts__interrupt_wrapper+0x5e>
 8007628:	9101      	str	r1, [sp, #4]
 800762a:	4798      	blx	r3
 800762c:	9901      	ldr	r1, [sp, #4]
 800762e:	2301      	movs	r3, #1
 8007630:	f8c9 6000 	str.w	r6, [r9]
 8007634:	4628      	mov	r0, r5
 8007636:	f885 3055 	strb.w	r3, [r5, #85]	; 0x55
 800763a:	f000 f95b 	bl	80078f4 <system__bb__threads__queues__change_priority>
 800763e:	f5b4 7f80 	cmp.w	r4, #256	; 0x100
 8007642:	d02f      	beq.n	80076a4 <system__bb__interrupts__interrupt_wrapper+0xd4>
 8007644:	ebc4 1404 	rsb	r4, r4, r4, lsl #4
 8007648:	0124      	lsls	r4, r4, #4
 800764a:	b2e4      	uxtb	r4, r4
 800764c:	f384 8811 	msr	BASEPRI, r4
 8007650:	b662      	cpsie	i
 8007652:	f3bf 8f4f 	dsb	sy
 8007656:	f3bf 8f6f 	isb	sy
 800765a:	4b1b      	ldr	r3, [pc, #108]	; (80076c8 <system__bb__interrupts__interrupt_wrapper+0xf8>)
 800765c:	4630      	mov	r0, r6
 800765e:	f853 3026 	ldr.w	r3, [r3, r6, lsl #2]
 8007662:	4798      	blx	r3
 8007664:	b672      	cpsid	i
 8007666:	f8da 3000 	ldr.w	r3, [sl]
 800766a:	b103      	cbz	r3, 800766e <system__bb__interrupts__interrupt_wrapper+0x9e>
 800766c:	4798      	blx	r3
 800766e:	4641      	mov	r1, r8
 8007670:	4628      	mov	r0, r5
 8007672:	f000 f93f 	bl	80078f4 <system__bb__threads__queues__change_priority>
 8007676:	f8c9 b000 	str.w	fp, [r9]
 800767a:	f885 7055 	strb.w	r7, [r5, #85]	; 0x55
 800767e:	b003      	add	sp, #12
 8007680:	e8bd 8ff0 	ldmia.w	sp!, {r4, r5, r6, r7, r8, r9, sl, fp, pc}
 8007684:	f8df 9044 	ldr.w	r9, [pc, #68]	; 80076cc <system__bb__interrupts__interrupt_wrapper+0xfc>
 8007688:	f8df a044 	ldr.w	sl, [pc, #68]	; 80076d0 <system__bb__interrupts__interrupt_wrapper+0x100>
 800768c:	f8d9 b000 	ldr.w	fp, [r9]
 8007690:	f8da 3000 	ldr.w	r3, [sl]
 8007694:	f895 7055 	ldrb.w	r7, [r5, #85]	; 0x55
 8007698:	b2ff      	uxtb	r7, r7
 800769a:	b12b      	cbz	r3, 80076a8 <system__bb__interrupts__interrupt_wrapper+0xd8>
 800769c:	21ff      	movs	r1, #255	; 0xff
 800769e:	460c      	mov	r4, r1
 80076a0:	2601      	movs	r6, #1
 80076a2:	e7c1      	b.n	8007628 <system__bb__interrupts__interrupt_wrapper+0x58>
 80076a4:	2400      	movs	r4, #0
 80076a6:	e7d1      	b.n	800764c <system__bb__interrupts__interrupt_wrapper+0x7c>
 80076a8:	2601      	movs	r6, #1
 80076aa:	f8c9 6000 	str.w	r6, [r9]
 80076ae:	4628      	mov	r0, r5
 80076b0:	f885 6055 	strb.w	r6, [r5, #85]	; 0x55
 80076b4:	21ff      	movs	r1, #255	; 0xff
 80076b6:	f000 f91d 	bl	80078f4 <system__bb__threads__queues__change_priority>
 80076ba:	24ff      	movs	r4, #255	; 0xff
 80076bc:	e7c2      	b.n	8007644 <system__bb__interrupts__interrupt_wrapper+0x74>
 80076be:	bf00      	nop
 80076c0:	200000b4 	.word	0x200000b4
 80076c4:	e000e400 	.word	0xe000e400
 80076c8:	20001450 	.word	0x20001450
 80076cc:	200000a0 	.word	0x200000a0
 80076d0:	20000080 	.word	0x20000080

080076d4 <system__bb__interrupts__initialize_interrupts>:
 80076d4:	4a01      	ldr	r2, [pc, #4]	; (80076dc <system__bb__interrupts__initialize_interrupts+0x8>)
 80076d6:	4b02      	ldr	r3, [pc, #8]	; (80076e0 <system__bb__interrupts__initialize_interrupts+0xc>)
 80076d8:	601a      	str	r2, [r3, #0]
 80076da:	4770      	bx	lr
 80076dc:	20001da0 	.word	0x20001da0
 80076e0:	200015a0 	.word	0x200015a0

080076e4 <system__bb__threads__get_cpu>:
 80076e4:	f890 002c 	ldrb.w	r0, [r0, #44]	; 0x2c
 80076e8:	2800      	cmp	r0, #0
 80076ea:	bf08      	it	eq
 80076ec:	2001      	moveq	r0, #1
 80076ee:	4770      	bx	lr

080076f0 <system__bb__threads__initialize_thread>:
 80076f0:	e92d 43f0 	stmdb	sp!, {r4, r5, r6, r7, r8, r9, lr}
 80076f4:	4604      	mov	r4, r0
 80076f6:	4d3e      	ldr	r5, [pc, #248]	; (80077f0 <system__bb__threads__initialize_thread+0x100>)
 80076f8:	b089      	sub	sp, #36	; 0x24
 80076fa:	682e      	ldr	r6, [r5, #0]
 80076fc:	f89d 0040 	ldrb.w	r0, [sp, #64]	; 0x40
 8007700:	4696      	mov	lr, r2
 8007702:	65a6      	str	r6, [r4, #88]	; 0x58
 8007704:	6323      	str	r3, [r4, #48]	; 0x30
 8007706:	6363      	str	r3, [r4, #52]	; 0x34
 8007708:	602c      	str	r4, [r5, #0]
 800770a:	f884 002c 	strb.w	r0, [r4, #44]	; 0x2c
 800770e:	9a11      	ldr	r2, [sp, #68]	; 0x44
 8007710:	9e12      	ldr	r6, [sp, #72]	; 0x48
 8007712:	2800      	cmp	r0, #0
 8007714:	d058      	beq.n	80077c8 <system__bb__threads__initialize_thread+0xd8>
 8007716:	b243      	sxtb	r3, r0
 8007718:	f103 4380 	add.w	r3, r3, #1073741824	; 0x40000000
 800771c:	4835      	ldr	r0, [pc, #212]	; (80077f4 <system__bb__threads__initialize_thread+0x104>)
 800771e:	3b01      	subs	r3, #1
 8007720:	f850 5023 	ldr.w	r5, [r0, r3, lsl #2]
 8007724:	42ac      	cmp	r4, r5
 8007726:	d018      	beq.n	800775a <system__bb__threads__initialize_thread+0x6a>
 8007728:	f850 5023 	ldr.w	r5, [r0, r3, lsl #2]
 800772c:	2d00      	cmp	r5, #0
 800772e:	d04d      	beq.n	80077cc <system__bb__threads__initialize_thread+0xdc>
 8007730:	6b67      	ldr	r7, [r4, #52]	; 0x34
 8007732:	f850 5023 	ldr.w	r5, [r0, r3, lsl #2]
 8007736:	6b6d      	ldr	r5, [r5, #52]	; 0x34
 8007738:	42af      	cmp	r7, r5
 800773a:	dc47      	bgt.n	80077cc <system__bb__threads__initialize_thread+0xdc>
 800773c:	f850 0023 	ldr.w	r0, [r0, r3, lsl #2]
 8007740:	e006      	b.n	8007750 <system__bb__threads__initialize_thread+0x60>
 8007742:	429c      	cmp	r4, r3
 8007744:	d048      	beq.n	80077d8 <system__bb__threads__initialize_thread+0xe8>
 8007746:	6b5f      	ldr	r7, [r3, #52]	; 0x34
 8007748:	6b65      	ldr	r5, [r4, #52]	; 0x34
 800774a:	42af      	cmp	r7, r5
 800774c:	db03      	blt.n	8007756 <system__bb__threads__initialize_thread+0x66>
 800774e:	4618      	mov	r0, r3
 8007750:	6c03      	ldr	r3, [r0, #64]	; 0x40
 8007752:	2b00      	cmp	r3, #0
 8007754:	d1f5      	bne.n	8007742 <system__bb__threads__initialize_thread+0x52>
 8007756:	6423      	str	r3, [r4, #64]	; 0x40
 8007758:	6404      	str	r4, [r0, #64]	; 0x40
 800775a:	2500      	movs	r5, #0
 800775c:	f04f 38ff 	mov.w	r8, #4294967295
 8007760:	f04f 39ff 	mov.w	r9, #4294967295
 8007764:	63a2      	str	r2, [r4, #56]	; 0x38
 8007766:	63e6      	str	r6, [r4, #60]	; 0x3c
 8007768:	e9c4 8912 	strd	r8, r9, [r4, #72]	; 0x48
 800776c:	f884 5054 	strb.w	r5, [r4, #84]	; 0x54
 8007770:	f884 5055 	strb.w	r5, [r4, #85]	; 0x55
 8007774:	f884 5056 	strb.w	r5, [r4, #86]	; 0x56
 8007778:	6525      	str	r5, [r4, #80]	; 0x50
 800777a:	65e5      	str	r5, [r4, #92]	; 0x5c
 800777c:	6625      	str	r5, [r4, #96]	; 0x60
 800777e:	b301      	cbz	r1, 80077c2 <system__bb__threads__initialize_thread+0xd2>
 8007780:	3a20      	subs	r2, #32
 8007782:	f022 0c04 	bic.w	ip, r2, #4
 8007786:	4666      	mov	r6, ip
 8007788:	466f      	mov	r7, sp
 800778a:	f04f 7380 	mov.w	r3, #16777216	; 0x1000000
 800778e:	9504      	str	r5, [sp, #16]
 8007790:	9505      	str	r5, [sp, #20]
 8007792:	9106      	str	r1, [sp, #24]
 8007794:	9307      	str	r3, [sp, #28]
 8007796:	f8cd e000 	str.w	lr, [sp]
 800779a:	9501      	str	r5, [sp, #4]
 800779c:	9502      	str	r5, [sp, #8]
 800779e:	9503      	str	r5, [sp, #12]
 80077a0:	cf0f      	ldmia	r7!, {r0, r1, r2, r3}
 80077a2:	c60f      	stmia	r6!, {r0, r1, r2, r3}
 80077a4:	e897 000f 	ldmia.w	r7, {r0, r1, r2, r3}
 80077a8:	e886 000f 	stmia.w	r6, {r0, r1, r2, r3}
 80077ac:	f8c4 c020 	str.w	ip, [r4, #32]
 80077b0:	6025      	str	r5, [r4, #0]
 80077b2:	6065      	str	r5, [r4, #4]
 80077b4:	60a5      	str	r5, [r4, #8]
 80077b6:	60e5      	str	r5, [r4, #12]
 80077b8:	6125      	str	r5, [r4, #16]
 80077ba:	6165      	str	r5, [r4, #20]
 80077bc:	61a5      	str	r5, [r4, #24]
 80077be:	61e5      	str	r5, [r4, #28]
 80077c0:	6265      	str	r5, [r4, #36]	; 0x24
 80077c2:	b009      	add	sp, #36	; 0x24
 80077c4:	e8bd 83f0 	ldmia.w	sp!, {r4, r5, r6, r7, r8, r9, pc}
 80077c8:	2301      	movs	r3, #1
 80077ca:	e7a5      	b.n	8007718 <system__bb__threads__initialize_thread+0x28>
 80077cc:	f850 5023 	ldr.w	r5, [r0, r3, lsl #2]
 80077d0:	f840 4023 	str.w	r4, [r0, r3, lsl #2]
 80077d4:	6425      	str	r5, [r4, #64]	; 0x40
 80077d6:	e7c0      	b.n	800775a <system__bb__threads__initialize_thread+0x6a>
 80077d8:	6c23      	ldr	r3, [r4, #64]	; 0x40
 80077da:	6403      	str	r3, [r0, #64]	; 0x40
 80077dc:	2b00      	cmp	r3, #0
 80077de:	d0ba      	beq.n	8007756 <system__bb__threads__initialize_thread+0x66>
 80077e0:	6b5f      	ldr	r7, [r3, #52]	; 0x34
 80077e2:	6b65      	ldr	r5, [r4, #52]	; 0x34
 80077e4:	42af      	cmp	r7, r5
 80077e6:	dbb6      	blt.n	8007756 <system__bb__threads__initialize_thread+0x66>
 80077e8:	4618      	mov	r0, r3
 80077ea:	6c1b      	ldr	r3, [r3, #64]	; 0x40
 80077ec:	e7f6      	b.n	80077dc <system__bb__threads__initialize_thread+0xec>
 80077ee:	bf00      	nop
 80077f0:	200000ac 	.word	0x200000ac
 80077f4:	200000a8 	.word	0x200000a8

080077f8 <system__bb__threads__initialize>:
 80077f8:	e92d 43f0 	stmdb	sp!, {r4, r5, r6, r7, r8, r9, lr}
 80077fc:	b085      	sub	sp, #20
 80077fe:	4606      	mov	r6, r0
 8007800:	460f      	mov	r7, r1
 8007802:	f7ff ff67 	bl	80076d4 <system__bb__interrupts__initialize_interrupts>
 8007806:	f3ef 8008 	mrs	r0, MSP
 800780a:	f380 8809 	msr	PSP, r0
 800780e:	f3ef 8014 	mrs	r0, CONTROL
 8007812:	f040 0002 	orr.w	r0, r0, #2
 8007816:	f380 8814 	msr	CONTROL, r0
 800781a:	4b1f      	ldr	r3, [pc, #124]	; (8007898 <system__bb__threads__initialize+0xa0>)
 800781c:	681b      	ldr	r3, [r3, #0]
 800781e:	f383 8808 	msr	MSP, r3
 8007822:	4b1e      	ldr	r3, [pc, #120]	; (800789c <system__bb__threads__initialize+0xa4>)
 8007824:	4a1e      	ldr	r2, [pc, #120]	; (80078a0 <system__bb__threads__initialize+0xa8>)
 8007826:	4d1f      	ldr	r5, [pc, #124]	; (80078a4 <system__bb__threads__initialize+0xac>)
 8007828:	601a      	str	r2, [r3, #0]
 800782a:	682a      	ldr	r2, [r5, #0]
 800782c:	f8df 9090 	ldr.w	r9, [pc, #144]	; 80078c0 <system__bb__threads__initialize+0xc8>
 8007830:	f8df 8090 	ldr.w	r8, [pc, #144]	; 80078c4 <system__bb__threads__initialize+0xcc>
 8007834:	f8df e090 	ldr.w	lr, [pc, #144]	; 80078c8 <system__bb__threads__initialize+0xd0>
 8007838:	491b      	ldr	r1, [pc, #108]	; (80078a8 <system__bb__threads__initialize+0xb0>)
 800783a:	f442 7204 	orr.w	r2, r2, #528	; 0x210
 800783e:	2400      	movs	r4, #0
 8007840:	481a      	ldr	r0, [pc, #104]	; (80078ac <system__bb__threads__initialize+0xb4>)
 8007842:	f042 0201 	orr.w	r2, r2, #1
 8007846:	f44f 0c7f 	mov.w	ip, #16711680	; 0xff0000
 800784a:	602a      	str	r2, [r5, #0]
 800784c:	f8c9 4000 	str.w	r4, [r9]
 8007850:	f8c8 4000 	str.w	r4, [r8]
 8007854:	f8ce c000 	str.w	ip, [lr]
 8007858:	6059      	str	r1, [r3, #4]
 800785a:	6802      	ldr	r2, [r0, #0]
 800785c:	f442 22e0 	orr.w	r2, r2, #458752	; 0x70000
 8007860:	6002      	str	r2, [r0, #0]
 8007862:	b661      	cpsie	f
 8007864:	f7ff fbfc 	bl	8007060 <system__bb__board_support__initialize_board>
 8007868:	f7ff fa56 	bl	8006d18 <system__bb__time__initialize_timers>
 800786c:	b672      	cpsid	i
 800786e:	4810      	ldr	r0, [pc, #64]	; (80078b0 <system__bb__threads__initialize+0xb8>)
 8007870:	4a10      	ldr	r2, [pc, #64]	; (80078b4 <system__bb__threads__initialize+0xbc>)
 8007872:	2501      	movs	r5, #1
 8007874:	463b      	mov	r3, r7
 8007876:	9001      	str	r0, [sp, #4]
 8007878:	9202      	str	r2, [sp, #8]
 800787a:	9500      	str	r5, [sp, #0]
 800787c:	4622      	mov	r2, r4
 800787e:	4630      	mov	r0, r6
 8007880:	4621      	mov	r1, r4
 8007882:	f7ff ff35 	bl	80076f0 <system__bb__threads__initialize_thread>
 8007886:	4a0c      	ldr	r2, [pc, #48]	; (80078b8 <system__bb__threads__initialize+0xc0>)
 8007888:	4b0c      	ldr	r3, [pc, #48]	; (80078bc <system__bb__threads__initialize+0xc4>)
 800788a:	6016      	str	r6, [r2, #0]
 800788c:	701d      	strb	r5, [r3, #0]
 800788e:	b005      	add	sp, #20
 8007890:	e8bd 43f0 	ldmia.w	sp!, {r4, r5, r6, r7, r8, r9, lr}
 8007894:	f7ff be32 	b.w	80074fc <system__bb__protection__leave_kernel>
 8007898:	200015a0 	.word	0x200015a0
 800789c:	e000ed08 	.word	0xe000ed08
 80078a0:	08007c00 	.word	0x08007c00
 80078a4:	e000ed14 	.word	0xe000ed14
 80078a8:	05fa0300 	.word	0x05fa0300
 80078ac:	e000ed24 	.word	0xe000ed24
 80078b0:	200021a8 	.word	0x200021a8
 80078b4:	20001da8 	.word	0x20001da8
 80078b8:	200000b4 	.word	0x200000b4
 80078bc:	200000a4 	.word	0x200000a4
 80078c0:	e000ed18 	.word	0xe000ed18
 80078c4:	e000ed1c 	.word	0xe000ed1c
 80078c8:	e000ed20 	.word	0xe000ed20

080078cc <system__bb__threads__thread_create>:
 80078cc:	b570      	push	{r4, r5, r6, lr}
 80078ce:	b084      	sub	sp, #16
 80078d0:	f89d 6020 	ldrb.w	r6, [sp, #32]
 80078d4:	9d09      	ldr	r5, [sp, #36]	; 0x24
 80078d6:	9c0a      	ldr	r4, [sp, #40]	; 0x28
 80078d8:	b672      	cpsid	i
 80078da:	442c      	add	r4, r5
 80078dc:	f024 0407 	bic.w	r4, r4, #7
 80078e0:	9401      	str	r4, [sp, #4]
 80078e2:	9600      	str	r6, [sp, #0]
 80078e4:	9502      	str	r5, [sp, #8]
 80078e6:	f7ff ff03 	bl	80076f0 <system__bb__threads__initialize_thread>
 80078ea:	b004      	add	sp, #16
 80078ec:	e8bd 4070 	ldmia.w	sp!, {r4, r5, r6, lr}
 80078f0:	f7ff be04 	b.w	80074fc <system__bb__protection__leave_kernel>

080078f4 <system__bb__threads__queues__change_priority>:
 80078f4:	6b43      	ldr	r3, [r0, #52]	; 0x34
 80078f6:	428b      	cmp	r3, r1
 80078f8:	d011      	beq.n	800791e <system__bb__threads__queues__change_priority+0x2a>
 80078fa:	b470      	push	{r4, r5, r6}
 80078fc:	4e17      	ldr	r6, [pc, #92]	; (800795c <system__bb__threads__queues__change_priority+0x68>)
 80078fe:	6341      	str	r1, [r0, #52]	; 0x34
 8007900:	6834      	ldr	r4, [r6, #0]
 8007902:	4284      	cmp	r4, r0
 8007904:	d023      	beq.n	800794e <system__bb__threads__queues__change_priority+0x5a>
 8007906:	b14c      	cbz	r4, 800791c <system__bb__threads__queues__change_priority+0x28>
 8007908:	6c23      	ldr	r3, [r4, #64]	; 0x40
 800790a:	4283      	cmp	r3, r0
 800790c:	d008      	beq.n	8007920 <system__bb__threads__queues__change_priority+0x2c>
 800790e:	b12b      	cbz	r3, 800791c <system__bb__threads__queues__change_priority+0x28>
 8007910:	6c1a      	ldr	r2, [r3, #64]	; 0x40
 8007912:	4282      	cmp	r2, r0
 8007914:	d005      	beq.n	8007922 <system__bb__threads__queues__change_priority+0x2e>
 8007916:	4613      	mov	r3, r2
 8007918:	2b00      	cmp	r3, #0
 800791a:	d1f9      	bne.n	8007910 <system__bb__threads__queues__change_priority+0x1c>
 800791c:	bc70      	pop	{r4, r5, r6}
 800791e:	4770      	bx	lr
 8007920:	4623      	mov	r3, r4
 8007922:	6c02      	ldr	r2, [r0, #64]	; 0x40
 8007924:	641a      	str	r2, [r3, #64]	; 0x40
 8007926:	6b63      	ldr	r3, [r4, #52]	; 0x34
 8007928:	4299      	cmp	r1, r3
 800792a:	db03      	blt.n	8007934 <system__bb__threads__queues__change_priority+0x40>
 800792c:	6404      	str	r4, [r0, #64]	; 0x40
 800792e:	4604      	mov	r4, r0
 8007930:	6034      	str	r4, [r6, #0]
 8007932:	e7f3      	b.n	800791c <system__bb__threads__queues__change_priority+0x28>
 8007934:	4622      	mov	r2, r4
 8007936:	e003      	b.n	8007940 <system__bb__threads__queues__change_priority+0x4c>
 8007938:	6b5d      	ldr	r5, [r3, #52]	; 0x34
 800793a:	42a9      	cmp	r1, r5
 800793c:	da03      	bge.n	8007946 <system__bb__threads__queues__change_priority+0x52>
 800793e:	461a      	mov	r2, r3
 8007940:	6c13      	ldr	r3, [r2, #64]	; 0x40
 8007942:	2b00      	cmp	r3, #0
 8007944:	d1f8      	bne.n	8007938 <system__bb__threads__queues__change_priority+0x44>
 8007946:	6403      	str	r3, [r0, #64]	; 0x40
 8007948:	6034      	str	r4, [r6, #0]
 800794a:	6410      	str	r0, [r2, #64]	; 0x40
 800794c:	e7e6      	b.n	800791c <system__bb__threads__queues__change_priority+0x28>
 800794e:	6c24      	ldr	r4, [r4, #64]	; 0x40
 8007950:	2c00      	cmp	r4, #0
 8007952:	d0e3      	beq.n	800791c <system__bb__threads__queues__change_priority+0x28>
 8007954:	6b63      	ldr	r3, [r4, #52]	; 0x34
 8007956:	4299      	cmp	r1, r3
 8007958:	dbe5      	blt.n	8007926 <system__bb__threads__queues__change_priority+0x32>
 800795a:	e7df      	b.n	800791c <system__bb__threads__queues__change_priority+0x28>
 800795c:	200000a8 	.word	0x200000a8

08007960 <system__bb__threads__queues__insert_alarm>:
 8007960:	e92d 43d0 	stmdb	sp!, {r4, r6, r7, r8, r9, lr}
 8007964:	4606      	mov	r6, r0
 8007966:	4610      	mov	r0, r2
 8007968:	4614      	mov	r4, r2
 800796a:	460f      	mov	r7, r1
 800796c:	f7ff feba 	bl	80076e4 <system__bb__threads__get_cpu>
 8007970:	b240      	sxtb	r0, r0
 8007972:	f100 4380 	add.w	r3, r0, #1073741824	; 0x40000000
 8007976:	4a11      	ldr	r2, [pc, #68]	; (80079bc <system__bb__threads__queues__insert_alarm+0x5c>)
 8007978:	3b01      	subs	r3, #1
 800797a:	f852 1023 	ldr.w	r1, [r2, r3, lsl #2]
 800797e:	e9c4 6712 	strd	r6, r7, [r4, #72]	; 0x48
 8007982:	b1a9      	cbz	r1, 80079b0 <system__bb__threads__queues__insert_alarm+0x50>
 8007984:	e9d1 8912 	ldrd	r8, r9, [r1, #72]	; 0x48
 8007988:	454f      	cmp	r7, r9
 800798a:	bf08      	it	eq
 800798c:	4546      	cmpeq	r6, r8
 800798e:	d207      	bcs.n	80079a0 <system__bb__threads__queues__insert_alarm+0x40>
 8007990:	e00e      	b.n	80079b0 <system__bb__threads__queues__insert_alarm+0x50>
 8007992:	e9d3 8912 	ldrd	r8, r9, [r3, #72]	; 0x48
 8007996:	45b9      	cmp	r9, r7
 8007998:	bf08      	it	eq
 800799a:	45b0      	cmpeq	r8, r6
 800799c:	d203      	bcs.n	80079a6 <system__bb__threads__queues__insert_alarm+0x46>
 800799e:	4619      	mov	r1, r3
 80079a0:	6d0b      	ldr	r3, [r1, #80]	; 0x50
 80079a2:	2b00      	cmp	r3, #0
 80079a4:	d1f5      	bne.n	8007992 <system__bb__threads__queues__insert_alarm+0x32>
 80079a6:	6523      	str	r3, [r4, #80]	; 0x50
 80079a8:	2000      	movs	r0, #0
 80079aa:	650c      	str	r4, [r1, #80]	; 0x50
 80079ac:	e8bd 83d0 	ldmia.w	sp!, {r4, r6, r7, r8, r9, pc}
 80079b0:	6521      	str	r1, [r4, #80]	; 0x50
 80079b2:	f842 4023 	str.w	r4, [r2, r3, lsl #2]
 80079b6:	2001      	movs	r0, #1
 80079b8:	e8bd 83d0 	ldmia.w	sp!, {r4, r6, r7, r8, r9, pc}
 80079bc:	200000b0 	.word	0x200000b0

080079c0 <system__bb__threads__queues__wakeup_expired_alarms>:
 80079c0:	e92d 47f0 	stmdb	sp!, {r4, r5, r6, r7, r8, r9, sl, lr}
 80079c4:	4604      	mov	r4, r0
 80079c6:	460d      	mov	r5, r1
 80079c8:	f8df a0dc 	ldr.w	sl, [pc, #220]	; 8007aa8 <system__bb__threads__queues__wakeup_expired_alarms+0xe8>
 80079cc:	f8df 90d4 	ldr.w	r9, [pc, #212]	; 8007aa4 <system__bb__threads__queues__wakeup_expired_alarms+0xe4>
 80079d0:	f04f 36ff 	mov.w	r6, #4294967295
 80079d4:	f04f 37ff 	mov.w	r7, #4294967295
 80079d8:	f8da 8000 	ldr.w	r8, [sl]
 80079dc:	f1b8 0f00 	cmp.w	r8, #0
 80079e0:	d03d      	beq.n	8007a5e <system__bb__threads__queues__wakeup_expired_alarms+0x9e>
 80079e2:	e9d8 2312 	ldrd	r2, r3, [r8, #72]	; 0x48
 80079e6:	429d      	cmp	r5, r3
 80079e8:	bf08      	it	eq
 80079ea:	4294      	cmpeq	r4, r2
 80079ec:	d33f      	bcc.n	8007a6e <system__bb__threads__queues__wakeup_expired_alarms+0xae>
 80079ee:	f8d8 3050 	ldr.w	r3, [r8, #80]	; 0x50
 80079f2:	2200      	movs	r2, #0
 80079f4:	f8c8 2050 	str.w	r2, [r8, #80]	; 0x50
 80079f8:	f888 2054 	strb.w	r2, [r8, #84]	; 0x54
 80079fc:	e9c8 6712 	strd	r6, r7, [r8, #72]	; 0x48
 8007a00:	4640      	mov	r0, r8
 8007a02:	f8ca 3000 	str.w	r3, [sl]
 8007a06:	f7ff fe6d 	bl	80076e4 <system__bb__threads__get_cpu>
 8007a0a:	b240      	sxtb	r0, r0
 8007a0c:	f100 4080 	add.w	r0, r0, #1073741824	; 0x40000000
 8007a10:	3801      	subs	r0, #1
 8007a12:	f859 2020 	ldr.w	r2, [r9, r0, lsl #2]
 8007a16:	4b23      	ldr	r3, [pc, #140]	; (8007aa4 <system__bb__threads__queues__wakeup_expired_alarms+0xe4>)
 8007a18:	4590      	cmp	r8, r2
 8007a1a:	d0dd      	beq.n	80079d8 <system__bb__threads__queues__wakeup_expired_alarms+0x18>
 8007a1c:	f853 2020 	ldr.w	r2, [r3, r0, lsl #2]
 8007a20:	b362      	cbz	r2, 8007a7c <system__bb__threads__queues__wakeup_expired_alarms+0xbc>
 8007a22:	f8d8 1034 	ldr.w	r1, [r8, #52]	; 0x34
 8007a26:	f853 2020 	ldr.w	r2, [r3, r0, lsl #2]
 8007a2a:	6b52      	ldr	r2, [r2, #52]	; 0x34
 8007a2c:	4291      	cmp	r1, r2
 8007a2e:	dc25      	bgt.n	8007a7c <system__bb__threads__queues__wakeup_expired_alarms+0xbc>
 8007a30:	f853 2020 	ldr.w	r2, [r3, r0, lsl #2]
 8007a34:	e007      	b.n	8007a46 <system__bb__threads__queues__wakeup_expired_alarms+0x86>
 8007a36:	4543      	cmp	r3, r8
 8007a38:	d027      	beq.n	8007a8a <system__bb__threads__queues__wakeup_expired_alarms+0xca>
 8007a3a:	6b58      	ldr	r0, [r3, #52]	; 0x34
 8007a3c:	f8d8 1034 	ldr.w	r1, [r8, #52]	; 0x34
 8007a40:	4288      	cmp	r0, r1
 8007a42:	db03      	blt.n	8007a4c <system__bb__threads__queues__wakeup_expired_alarms+0x8c>
 8007a44:	461a      	mov	r2, r3
 8007a46:	6c13      	ldr	r3, [r2, #64]	; 0x40
 8007a48:	2b00      	cmp	r3, #0
 8007a4a:	d1f4      	bne.n	8007a36 <system__bb__threads__queues__wakeup_expired_alarms+0x76>
 8007a4c:	f8c8 3040 	str.w	r3, [r8, #64]	; 0x40
 8007a50:	f8c2 8040 	str.w	r8, [r2, #64]	; 0x40
 8007a54:	f8da 8000 	ldr.w	r8, [sl]
 8007a58:	f1b8 0f00 	cmp.w	r8, #0
 8007a5c:	d1c1      	bne.n	80079e2 <system__bb__threads__queues__wakeup_expired_alarms+0x22>
 8007a5e:	f04f 33ff 	mov.w	r3, #4294967295
 8007a62:	f04f 32ff 	mov.w	r2, #4294967295
 8007a66:	429d      	cmp	r5, r3
 8007a68:	bf08      	it	eq
 8007a6a:	4294      	cmpeq	r4, r2
 8007a6c:	d2bf      	bcs.n	80079ee <system__bb__threads__queues__wakeup_expired_alarms+0x2e>
 8007a6e:	2001      	movs	r0, #1
 8007a70:	f7ff f926 	bl	8006cc0 <system__bb__time__get_next_timeout>
 8007a74:	e8bd 47f0 	ldmia.w	sp!, {r4, r5, r6, r7, r8, r9, sl, lr}
 8007a78:	f7ff b99c 	b.w	8006db4 <system__bb__time__update_alarm>
 8007a7c:	f853 2020 	ldr.w	r2, [r3, r0, lsl #2]
 8007a80:	f843 8020 	str.w	r8, [r3, r0, lsl #2]
 8007a84:	f8c8 2040 	str.w	r2, [r8, #64]	; 0x40
 8007a88:	e7a6      	b.n	80079d8 <system__bb__threads__queues__wakeup_expired_alarms+0x18>
 8007a8a:	f8d8 3040 	ldr.w	r3, [r8, #64]	; 0x40
 8007a8e:	6413      	str	r3, [r2, #64]	; 0x40
 8007a90:	2b00      	cmp	r3, #0
 8007a92:	d0db      	beq.n	8007a4c <system__bb__threads__queues__wakeup_expired_alarms+0x8c>
 8007a94:	6b58      	ldr	r0, [r3, #52]	; 0x34
 8007a96:	f8d8 1034 	ldr.w	r1, [r8, #52]	; 0x34
 8007a9a:	4288      	cmp	r0, r1
 8007a9c:	dbd6      	blt.n	8007a4c <system__bb__threads__queues__wakeup_expired_alarms+0x8c>
 8007a9e:	461a      	mov	r2, r3
 8007aa0:	6c1b      	ldr	r3, [r3, #64]	; 0x40
 8007aa2:	e7f5      	b.n	8007a90 <system__bb__threads__queues__wakeup_expired_alarms+0xd0>
 8007aa4:	200000a8 	.word	0x200000a8
 8007aa8:	200000b0 	.word	0x200000b0

08007aac <system__bb__threads__queues__yield>:
 8007aac:	b538      	push	{r3, r4, r5, lr}
 8007aae:	4605      	mov	r5, r0
 8007ab0:	f7ff fe18 	bl	80076e4 <system__bb__threads__get_cpu>
 8007ab4:	6c2a      	ldr	r2, [r5, #64]	; 0x40
 8007ab6:	6b6b      	ldr	r3, [r5, #52]	; 0x34
 8007ab8:	b112      	cbz	r2, 8007ac0 <system__bb__threads__queues__yield+0x14>
 8007aba:	6b54      	ldr	r4, [r2, #52]	; 0x34
 8007abc:	429c      	cmp	r4, r3
 8007abe:	d000      	beq.n	8007ac2 <system__bb__threads__queues__yield+0x16>
 8007ac0:	bd38      	pop	{r3, r4, r5, pc}
 8007ac2:	b243      	sxtb	r3, r0
 8007ac4:	4909      	ldr	r1, [pc, #36]	; (8007aec <system__bb__threads__queues__yield+0x40>)
 8007ac6:	f103 4380 	add.w	r3, r3, #1073741824	; 0x40000000
 8007aca:	3b01      	subs	r3, #1
 8007acc:	f841 2023 	str.w	r2, [r1, r3, lsl #2]
 8007ad0:	f851 2023 	ldr.w	r2, [r1, r3, lsl #2]
 8007ad4:	e003      	b.n	8007ade <system__bb__threads__queues__yield+0x32>
 8007ad6:	6b59      	ldr	r1, [r3, #52]	; 0x34
 8007ad8:	428c      	cmp	r4, r1
 8007ada:	d103      	bne.n	8007ae4 <system__bb__threads__queues__yield+0x38>
 8007adc:	461a      	mov	r2, r3
 8007ade:	6c13      	ldr	r3, [r2, #64]	; 0x40
 8007ae0:	2b00      	cmp	r3, #0
 8007ae2:	d1f8      	bne.n	8007ad6 <system__bb__threads__queues__yield+0x2a>
 8007ae4:	642b      	str	r3, [r5, #64]	; 0x40
 8007ae6:	6415      	str	r5, [r2, #64]	; 0x40
 8007ae8:	bd38      	pop	{r3, r4, r5, pc}
 8007aea:	bf00      	nop
 8007aec:	200000a8 	.word	0x200000a8
	...

08007c00 <__vectors>:
 8007c00:	00000000 	.word	0x00000000
 8007c04:	08007d91 	.word	0x08007d91
 8007c08:	08007d91 	.word	0x08007d91
 8007c0c:	08007d91 	.word	0x08007d91
 8007c10:	08007d91 	.word	0x08007d91
 8007c14:	08007d91 	.word	0x08007d91
 8007c18:	08007d91 	.word	0x08007d91
 8007c1c:	08007d91 	.word	0x08007d91
 8007c20:	08007d91 	.word	0x08007d91
 8007c24:	08007d91 	.word	0x08007d91
 8007c28:	08007d91 	.word	0x08007d91
 8007c2c:	0800738d 	.word	0x0800738d
 8007c30:	08007d91 	.word	0x08007d91
 8007c34:	08007d91 	.word	0x08007d91
 8007c38:	08007365 	.word	0x08007365
 8007c3c:	08007395 	.word	0x08007395
 8007c40:	08007311 	.word	0x08007311
 8007c44:	08007311 	.word	0x08007311
 8007c48:	08007311 	.word	0x08007311
 8007c4c:	08007311 	.word	0x08007311
 8007c50:	08007311 	.word	0x08007311
 8007c54:	08007311 	.word	0x08007311
 8007c58:	08007311 	.word	0x08007311
 8007c5c:	08007311 	.word	0x08007311
 8007c60:	08007311 	.word	0x08007311
 8007c64:	08007311 	.word	0x08007311
 8007c68:	08007311 	.word	0x08007311
 8007c6c:	08007311 	.word	0x08007311
 8007c70:	08007311 	.word	0x08007311
 8007c74:	08007311 	.word	0x08007311
 8007c78:	08007311 	.word	0x08007311
 8007c7c:	08007311 	.word	0x08007311
 8007c80:	08007311 	.word	0x08007311
 8007c84:	08007311 	.word	0x08007311
 8007c88:	08007311 	.word	0x08007311
 8007c8c:	08007311 	.word	0x08007311
 8007c90:	08007311 	.word	0x08007311
 8007c94:	08007311 	.word	0x08007311
 8007c98:	08007311 	.word	0x08007311
 8007c9c:	08007311 	.word	0x08007311
 8007ca0:	08007311 	.word	0x08007311
 8007ca4:	08007311 	.word	0x08007311
 8007ca8:	08007311 	.word	0x08007311
 8007cac:	08007311 	.word	0x08007311
 8007cb0:	08007311 	.word	0x08007311
 8007cb4:	08007311 	.word	0x08007311
 8007cb8:	08007311 	.word	0x08007311
 8007cbc:	08007311 	.word	0x08007311
 8007cc0:	08007311 	.word	0x08007311
 8007cc4:	08007311 	.word	0x08007311
 8007cc8:	08007311 	.word	0x08007311
 8007ccc:	08007311 	.word	0x08007311
 8007cd0:	08007311 	.word	0x08007311
 8007cd4:	08007311 	.word	0x08007311
 8007cd8:	08007311 	.word	0x08007311
 8007cdc:	08007311 	.word	0x08007311
 8007ce0:	08007311 	.word	0x08007311
 8007ce4:	08007311 	.word	0x08007311
 8007ce8:	08007311 	.word	0x08007311
 8007cec:	08007311 	.word	0x08007311
 8007cf0:	08007311 	.word	0x08007311
 8007cf4:	08007311 	.word	0x08007311
 8007cf8:	08007311 	.word	0x08007311
 8007cfc:	08007311 	.word	0x08007311
 8007d00:	08007311 	.word	0x08007311
 8007d04:	08007311 	.word	0x08007311
 8007d08:	08007311 	.word	0x08007311
 8007d0c:	08007311 	.word	0x08007311
 8007d10:	08007311 	.word	0x08007311
 8007d14:	08007311 	.word	0x08007311
 8007d18:	08007311 	.word	0x08007311
 8007d1c:	08007311 	.word	0x08007311
 8007d20:	08007311 	.word	0x08007311
 8007d24:	08007311 	.word	0x08007311
 8007d28:	08007311 	.word	0x08007311
 8007d2c:	08007311 	.word	0x08007311
 8007d30:	08007311 	.word	0x08007311
 8007d34:	08007311 	.word	0x08007311
 8007d38:	08007311 	.word	0x08007311
 8007d3c:	08007311 	.word	0x08007311
 8007d40:	08007311 	.word	0x08007311
 8007d44:	08007311 	.word	0x08007311
 8007d48:	08007311 	.word	0x08007311
 8007d4c:	08007311 	.word	0x08007311
 8007d50:	08007311 	.word	0x08007311
 8007d54:	08007311 	.word	0x08007311
 8007d58:	08007311 	.word	0x08007311
 8007d5c:	08007311 	.word	0x08007311
 8007d60:	08007311 	.word	0x08007311
 8007d64:	08007311 	.word	0x08007311
 8007d68:	08007311 	.word	0x08007311
 8007d6c:	08007311 	.word	0x08007311
 8007d70:	08007311 	.word	0x08007311
 8007d74:	08007311 	.word	0x08007311
 8007d78:	08007311 	.word	0x08007311
 8007d7c:	08007311 	.word	0x08007311
 8007d80:	08007311 	.word	0x08007311
 8007d84:	08007311 	.word	0x08007311
 8007d88:	e7fe      	b.n	8007d88 <__vectors+0x188>
 8007d8a:	e7fe      	b.n	8007d8a <__vectors+0x18a>
 8007d8c:	e7fe      	b.n	8007d8c <__vectors+0x18c>
 8007d8e:	e7fe      	b.n	8007d8e <__vectors+0x18e>

08007d90 <fault>:
 8007d90:	e7fe      	b.n	8007d90 <fault>
 8007d92:	bf00      	nop

08007d94 <_start_rom>:
 8007d94:	f000 f836 	bl	8007e04 <_stm32_start_common>
 8007d98:	f240 0000 	movw	r0, #0
 8007d9c:	f2c2 0000 	movt	r0, #8192	; 0x2000
 8007da0:	f240 0132 	movw	r1, #50	; 0x32
 8007da4:	f649 224c 	movw	r2, #39500	; 0x9a4c
 8007da8:	f6c0 0200 	movt	r2, #2048	; 0x800
 8007dac:	b129      	cbz	r1, 8007dba <_start_rom+0x26>
 8007dae:	f852 4b04 	ldr.w	r4, [r2], #4
 8007db2:	f840 4b04 	str.w	r4, [r0], #4
 8007db6:	3901      	subs	r1, #1
 8007db8:	d1f9      	bne.n	8007dae <_start_rom+0x1a>
 8007dba:	f240 00c8 	movw	r0, #200	; 0xc8
 8007dbe:	f2c2 0000 	movt	r0, #8192	; 0x2000
 8007dc2:	f240 0100 	movw	r1, #0
 8007dc6:	f649 3214 	movw	r2, #39700	; 0x9b14
 8007dca:	f6c0 0200 	movt	r2, #2048	; 0x800
 8007dce:	b129      	cbz	r1, 8007ddc <_start_rom+0x48>
 8007dd0:	f852 4b04 	ldr.w	r4, [r2], #4
 8007dd4:	f840 4b04 	str.w	r4, [r0], #4
 8007dd8:	3901      	subs	r1, #1
 8007dda:	d1f9      	bne.n	8007dd0 <_start_rom+0x3c>
 8007ddc:	f240 00c8 	movw	r0, #200	; 0xc8
 8007de0:	f2c2 0000 	movt	r0, #8192	; 0x2000
 8007de4:	f240 5138 	movw	r1, #1336	; 0x538
 8007de8:	f04f 0200 	mov.w	r2, #0
 8007dec:	b119      	cbz	r1, 8007df6 <_start_rom+0x62>
 8007dee:	f840 2b04 	str.w	r2, [r0], #4
 8007df2:	3901      	subs	r1, #1
 8007df4:	d1fb      	bne.n	8007dee <_start_rom+0x5a>
 8007df6:	f000 f9ab 	bl	8008150 <_ada_setup_pll>
 8007dfa:	f7f8 f9a9 	bl	8000150 <main>
 8007dfe:	f000 f997 	bl	8008130 <_exit>

08007e02 <hang>:
 8007e02:	e7fe      	b.n	8007e02 <hang>

08007e04 <_stm32_start_common>:
 8007e04:	f64e 5088 	movw	r0, #60808	; 0xed88
 8007e08:	f2ce 0000 	movt	r0, #57344	; 0xe000
 8007e0c:	6801      	ldr	r1, [r0, #0]
 8007e0e:	f441 0170 	orr.w	r1, r1, #15728640	; 0xf00000
 8007e12:	6001      	str	r1, [r0, #0]
 8007e14:	f3bf 8f4f 	dsb	sy
 8007e18:	f3bf 8f6f 	isb	sy
 8007e1c:	4829      	ldr	r0, [pc, #164]	; (8007ec4 <end+0x4>)
 8007e1e:	6801      	ldr	r1, [r0, #0]
 8007e20:	f640 72ff 	movw	r2, #4095	; 0xfff
 8007e24:	ea01 0102 	and.w	r1, r1, r2
 8007e28:	f240 4249 	movw	r2, #1097	; 0x449
 8007e2c:	4291      	cmp	r1, r2
 8007e2e:	d147      	bne.n	8007ec0 <end>

08007e30 <dcache_invalidate>:
 8007e30:	f04f 0100 	mov.w	r1, #0
 8007e34:	4824      	ldr	r0, [pc, #144]	; (8007ec8 <end+0x8>)
 8007e36:	6001      	str	r1, [r0, #0]
 8007e38:	f3bf 8f4f 	dsb	sy
 8007e3c:	4823      	ldr	r0, [pc, #140]	; (8007ecc <end+0xc>)
 8007e3e:	6802      	ldr	r2, [r0, #0]
 8007e40:	f002 0107 	and.w	r1, r2, #7
 8007e44:	f101 0704 	add.w	r7, r1, #4
 8007e48:	f3c2 04c9 	ubfx	r4, r2, #3, #10
 8007e4c:	f3c2 324e 	ubfx	r2, r2, #13, #15
 8007e50:	fab4 f684 	clz	r6, r4
 8007e54:	481e      	ldr	r0, [pc, #120]	; (8007ed0 <end+0x10>)

08007e56 <inv_loop1>:
 8007e56:	4621      	mov	r1, r4
 8007e58:	fa12 f807 	lsls.w	r8, r2, r7

08007e5c <inv_loop2>:
 8007e5c:	fa11 f306 	lsls.w	r3, r1, r6
 8007e60:	ea53 0308 	orrs.w	r3, r3, r8
 8007e64:	6003      	str	r3, [r0, #0]
 8007e66:	3901      	subs	r1, #1
 8007e68:	daf8      	bge.n	8007e5c <inv_loop2>
 8007e6a:	3a01      	subs	r2, #1
 8007e6c:	daf3      	bge.n	8007e56 <inv_loop1>
 8007e6e:	f3bf 8f4f 	dsb	sy
 8007e72:	f3bf 8f6f 	isb	sy

08007e76 <icache_invalidate>:
 8007e76:	f04f 0100 	mov.w	r1, #0
 8007e7a:	4816      	ldr	r0, [pc, #88]	; (8007ed4 <end+0x14>)
 8007e7c:	6001      	str	r1, [r0, #0]
 8007e7e:	f3bf 8f4f 	dsb	sy
 8007e82:	f3bf 8f6f 	isb	sy
 8007e86:	4814      	ldr	r0, [pc, #80]	; (8007ed8 <end+0x18>)
 8007e88:	6801      	ldr	r1, [r0, #0]
 8007e8a:	f441 3180 	orr.w	r1, r1, #65536	; 0x10000
 8007e8e:	f441 3100 	orr.w	r1, r1, #131072	; 0x20000
 8007e92:	6001      	str	r1, [r0, #0]
 8007e94:	f3bf 8f4f 	dsb	sy
 8007e98:	f3bf 8f6f 	isb	sy
 8007e9c:	f3bf 8f4f 	dsb	sy
 8007ea0:	f3bf 8f6f 	isb	sy
 8007ea4:	480d      	ldr	r0, [pc, #52]	; (8007edc <end+0x1c>)
 8007ea6:	6801      	ldr	r1, [r0, #0]
 8007ea8:	f041 0101 	orr.w	r1, r1, #1
 8007eac:	6001      	str	r1, [r0, #0]
 8007eae:	480c      	ldr	r0, [pc, #48]	; (8007ee0 <end+0x20>)
 8007eb0:	6801      	ldr	r1, [r0, #0]
 8007eb2:	f041 0101 	orr.w	r1, r1, #1
 8007eb6:	6001      	str	r1, [r0, #0]
 8007eb8:	f3bf 8f4f 	dsb	sy
 8007ebc:	f3bf 8f6f 	isb	sy

08007ec0 <end>:
 8007ec0:	4770      	bx	lr
 8007ec2:	0000      	.short	0x0000
 8007ec4:	e0042000 	.word	0xe0042000
 8007ec8:	e000ed84 	.word	0xe000ed84
 8007ecc:	e000ed80 	.word	0xe000ed80
 8007ed0:	e000ef60 	.word	0xe000ef60
 8007ed4:	e000ef50 	.word	0xe000ef50
 8007ed8:	e000ed14 	.word	0xe000ed14
 8007edc:	e000ef90 	.word	0xe000ef90
 8007ee0:	e000ef94 	.word	0xe000ef94

08007ee4 <ada__text_io___elabb>:
 8007ee4:	4b02      	ldr	r3, [pc, #8]	; (8007ef0 <ada__text_io___elabb+0xc>)
 8007ee6:	781b      	ldrb	r3, [r3, #0]
 8007ee8:	b103      	cbz	r3, 8007eec <ada__text_io___elabb+0x8>
 8007eea:	4770      	bx	lr
 8007eec:	f000 ba68 	b.w	80083c0 <system__text_io__initialize>
 8007ef0:	200000c2 	.word	0x200000c2

08007ef4 <system__img_uns__set_image_unsigned>:
 8007ef4:	b5f0      	push	{r4, r5, r6, r7, lr}
 8007ef6:	2809      	cmp	r0, #9
 8007ef8:	b083      	sub	sp, #12
 8007efa:	4601      	mov	r1, r0
 8007efc:	681d      	ldr	r5, [r3, #0]
 8007efe:	d806      	bhi.n	8007f0e <system__img_uns__set_image_unsigned+0x1a>
 8007f00:	9b08      	ldr	r3, [sp, #32]
 8007f02:	3130      	adds	r1, #48	; 0x30
 8007f04:	1c58      	adds	r0, r3, #1
 8007f06:	1b45      	subs	r5, r0, r5
 8007f08:	5551      	strb	r1, [r2, r5]
 8007f0a:	b003      	add	sp, #12
 8007f0c:	bdf0      	pop	{r4, r5, r6, r7, pc}
 8007f0e:	9908      	ldr	r1, [sp, #32]
 8007f10:	4f09      	ldr	r7, [pc, #36]	; (8007f38 <system__img_uns__set_image_unsigned+0x44>)
 8007f12:	9100      	str	r1, [sp, #0]
 8007f14:	fba7 1700 	umull	r1, r7, r7, r0
 8007f18:	08ff      	lsrs	r7, r7, #3
 8007f1a:	4604      	mov	r4, r0
 8007f1c:	4638      	mov	r0, r7
 8007f1e:	4616      	mov	r6, r2
 8007f20:	f7ff ffe8 	bl	8007ef4 <system__img_uns__set_image_unsigned>
 8007f24:	eb07 0187 	add.w	r1, r7, r7, lsl #2
 8007f28:	3001      	adds	r0, #1
 8007f2a:	eba4 0141 	sub.w	r1, r4, r1, lsl #1
 8007f2e:	1b45      	subs	r5, r0, r5
 8007f30:	3130      	adds	r1, #48	; 0x30
 8007f32:	5571      	strb	r1, [r6, r5]
 8007f34:	b003      	add	sp, #12
 8007f36:	bdf0      	pop	{r4, r5, r6, r7, pc}
 8007f38:	cccccccd 	.word	0xcccccccd

08007f3c <system__img_uns__image_unsigned>:
 8007f3c:	b530      	push	{r4, r5, lr}
 8007f3e:	6819      	ldr	r1, [r3, #0]
 8007f40:	b083      	sub	sp, #12
 8007f42:	f1c1 0101 	rsb	r1, r1, #1
 8007f46:	2520      	movs	r5, #32
 8007f48:	2401      	movs	r4, #1
 8007f4a:	5455      	strb	r5, [r2, r1]
 8007f4c:	9400      	str	r4, [sp, #0]
 8007f4e:	f7ff ffd1 	bl	8007ef4 <system__img_uns__set_image_unsigned>
 8007f52:	b003      	add	sp, #12
 8007f54:	bd30      	pop	{r4, r5, pc}
 8007f56:	bf00      	nop

08007f58 <memcpy>:
 8007f58:	ea40 0301 	orr.w	r3, r0, r1
 8007f5c:	079b      	lsls	r3, r3, #30
 8007f5e:	b4f0      	push	{r4, r5, r6, r7}
 8007f60:	d11c      	bne.n	8007f9c <memcpy+0x44>
 8007f62:	2a03      	cmp	r2, #3
 8007f64:	d91a      	bls.n	8007f9c <memcpy+0x44>
 8007f66:	4605      	mov	r5, r0
 8007f68:	1f13      	subs	r3, r2, #4
 8007f6a:	460c      	mov	r4, r1
 8007f6c:	f023 0703 	bic.w	r7, r3, #3
 8007f70:	3104      	adds	r1, #4
 8007f72:	4439      	add	r1, r7
 8007f74:	f854 6b04 	ldr.w	r6, [r4], #4
 8007f78:	428c      	cmp	r4, r1
 8007f7a:	f845 6b04 	str.w	r6, [r5], #4
 8007f7e:	d1f9      	bne.n	8007f74 <memcpy+0x1c>
 8007f80:	1d03      	adds	r3, r0, #4
 8007f82:	f002 0203 	and.w	r2, r2, #3
 8007f86:	443b      	add	r3, r7
 8007f88:	b132      	cbz	r2, 8007f98 <memcpy+0x40>
 8007f8a:	440a      	add	r2, r1
 8007f8c:	f811 4b01 	ldrb.w	r4, [r1], #1
 8007f90:	4291      	cmp	r1, r2
 8007f92:	f803 4b01 	strb.w	r4, [r3], #1
 8007f96:	d1f9      	bne.n	8007f8c <memcpy+0x34>
 8007f98:	bcf0      	pop	{r4, r5, r6, r7}
 8007f9a:	4770      	bx	lr
 8007f9c:	4603      	mov	r3, r0
 8007f9e:	e7f3      	b.n	8007f88 <memcpy+0x30>

08007fa0 <ada__exceptions__last_chance_handler__put.4097>:
 8007fa0:	b538      	push	{r3, r4, r5, lr}
 8007fa2:	f100 4500 	add.w	r5, r0, #2147483648	; 0x80000000
 8007fa6:	4604      	mov	r4, r0
 8007fa8:	3d01      	subs	r5, #1
 8007faa:	e003      	b.n	8007fb4 <ada__exceptions__last_chance_handler__put.4097+0x14>
 8007fac:	f000 f844 	bl	8008038 <gnat__io__put__2>
 8007fb0:	42ac      	cmp	r4, r5
 8007fb2:	d003      	beq.n	8007fbc <ada__exceptions__last_chance_handler__put.4097+0x1c>
 8007fb4:	7820      	ldrb	r0, [r4, #0]
 8007fb6:	3401      	adds	r4, #1
 8007fb8:	2800      	cmp	r0, #0
 8007fba:	d1f7      	bne.n	8007fac <ada__exceptions__last_chance_handler__put.4097+0xc>
 8007fbc:	bd38      	pop	{r3, r4, r5, pc}
 8007fbe:	bf00      	nop

08007fc0 <__gnat_last_chance_handler>:
 8007fc0:	460c      	mov	r4, r1
 8007fc2:	4605      	mov	r5, r0
 8007fc4:	4811      	ldr	r0, [pc, #68]	; (800800c <__gnat_last_chance_handler+0x4c>)
 8007fc6:	b508      	push	{r3, lr}
 8007fc8:	f100 0118 	add.w	r1, r0, #24
 8007fcc:	f000 f8a8 	bl	8008120 <gnat__io__put_line>
 8007fd0:	b194      	cbz	r4, 8007ff8 <__gnat_last_chance_handler+0x38>
 8007fd2:	480f      	ldr	r0, [pc, #60]	; (8008010 <__gnat_last_chance_handler+0x50>)
 8007fd4:	f100 0120 	add.w	r1, r0, #32
 8007fd8:	f000 f85a 	bl	8008090 <gnat__io__put__3>
 8007fdc:	4628      	mov	r0, r5
 8007fde:	f7ff ffdf 	bl	8007fa0 <ada__exceptions__last_chance_handler__put.4097>
 8007fe2:	203a      	movs	r0, #58	; 0x3a
 8007fe4:	f000 f828 	bl	8008038 <gnat__io__put__2>
 8007fe8:	4620      	mov	r0, r4
 8007fea:	f000 f85f 	bl	80080ac <gnat__io__put>
 8007fee:	2001      	movs	r0, #1
 8007ff0:	f000 f844 	bl	800807c <gnat__io__new_line>
 8007ff4:	f000 f8a4 	bl	8008140 <system__machine_reset__stop>
 8007ff8:	4806      	ldr	r0, [pc, #24]	; (8008014 <__gnat_last_chance_handler+0x54>)
 8007ffa:	f100 0124 	add.w	r1, r0, #36	; 0x24
 8007ffe:	f000 f847 	bl	8008090 <gnat__io__put__3>
 8008002:	4628      	mov	r0, r5
 8008004:	f7ff ffcc 	bl	8007fa0 <ada__exceptions__last_chance_handler__put.4097>
 8008008:	e7f1      	b.n	8007fee <__gnat_last_chance_handler+0x2e>
 800800a:	bf00      	nop
 800800c:	080099d8 	.word	0x080099d8
 8008010:	080099f8 	.word	0x080099f8
 8008014:	08009a20 	.word	0x08009a20

08008018 <system__parameters__adjust_storage_size>:
 8008018:	f1b0 4f00 	cmp.w	r0, #2147483648	; 0x80000000
 800801c:	bf08      	it	eq
 800801e:	f44f 5080 	moveq.w	r0, #4096	; 0x1000
 8008022:	4770      	bx	lr

08008024 <system__secondary_stack__ss_init>:
 8008024:	3908      	subs	r1, #8
 8008026:	2301      	movs	r3, #1
 8008028:	6041      	str	r1, [r0, #4]
 800802a:	6003      	str	r3, [r0, #0]
 800802c:	4770      	bx	lr
 800802e:	bf00      	nop

08008030 <system__assertions__raise_assert_failure>:
 8008030:	b508      	push	{r3, lr}
 8008032:	2100      	movs	r1, #0
 8008034:	f7ff ffc4 	bl	8007fc0 <__gnat_last_chance_handler>

08008038 <gnat__io__put__2>:
 8008038:	4b0f      	ldr	r3, [pc, #60]	; (8008078 <gnat__io__put__2+0x40>)
 800803a:	b510      	push	{r4, lr}
 800803c:	781b      	ldrb	r3, [r3, #0]
 800803e:	4604      	mov	r4, r0
 8008040:	b153      	cbz	r3, 8008058 <gnat__io__put__2+0x20>
 8008042:	2c0a      	cmp	r4, #10
 8008044:	d00c      	beq.n	8008060 <gnat__io__put__2+0x28>
 8008046:	f000 f9bd 	bl	80083c4 <system__text_io__is_tx_ready>
 800804a:	2800      	cmp	r0, #0
 800804c:	d0fb      	beq.n	8008046 <gnat__io__put__2+0xe>
 800804e:	4620      	mov	r0, r4
 8008050:	e8bd 4010 	ldmia.w	sp!, {r4, lr}
 8008054:	f000 b9b8 	b.w	80083c8 <system__text_io__put>
 8008058:	f000 f9b2 	bl	80083c0 <system__text_io__initialize>
 800805c:	2c0a      	cmp	r4, #10
 800805e:	d1f2      	bne.n	8008046 <gnat__io__put__2+0xe>
 8008060:	f000 f9b4 	bl	80083cc <system__text_io__use_cr_lf_for_new_line>
 8008064:	2800      	cmp	r0, #0
 8008066:	d0ee      	beq.n	8008046 <gnat__io__put__2+0xe>
 8008068:	f000 f9ac 	bl	80083c4 <system__text_io__is_tx_ready>
 800806c:	2800      	cmp	r0, #0
 800806e:	d0fb      	beq.n	8008068 <gnat__io__put__2+0x30>
 8008070:	200d      	movs	r0, #13
 8008072:	f000 f9a9 	bl	80083c8 <system__text_io__put>
 8008076:	e7e6      	b.n	8008046 <gnat__io__put__2+0xe>
 8008078:	200000c2 	.word	0x200000c2

0800807c <gnat__io__new_line>:
 800807c:	b538      	push	{r3, r4, r5, lr}
 800807e:	4605      	mov	r5, r0
 8008080:	2400      	movs	r4, #0
 8008082:	3401      	adds	r4, #1
 8008084:	200a      	movs	r0, #10
 8008086:	f7ff ffd7 	bl	8008038 <gnat__io__put__2>
 800808a:	42ac      	cmp	r4, r5
 800808c:	d1f9      	bne.n	8008082 <gnat__io__new_line+0x6>
 800808e:	bd38      	pop	{r3, r4, r5, pc}

08008090 <gnat__io__put__3>:
 8008090:	b570      	push	{r4, r5, r6, lr}
 8008092:	e891 0050 	ldmia.w	r1, {r4, r6}
 8008096:	42b4      	cmp	r4, r6
 8008098:	dc07      	bgt.n	80080aa <gnat__io__put__3+0x1a>
 800809a:	1b05      	subs	r5, r0, r4
 800809c:	3c01      	subs	r4, #1
 800809e:	3401      	adds	r4, #1
 80080a0:	5d28      	ldrb	r0, [r5, r4]
 80080a2:	f7ff ffc9 	bl	8008038 <gnat__io__put__2>
 80080a6:	42b4      	cmp	r4, r6
 80080a8:	d1f9      	bne.n	800809e <gnat__io__put__3+0xe>
 80080aa:	bd70      	pop	{r4, r5, r6, pc}

080080ac <gnat__io__put>:
 80080ac:	b570      	push	{r4, r5, r6, lr}
 80080ae:	ea80 72e0 	eor.w	r2, r0, r0, asr #31
 80080b2:	4e1a      	ldr	r6, [pc, #104]	; (800811c <gnat__io__put+0x70>)
 80080b4:	b086      	sub	sp, #24
 80080b6:	ebc2 72e0 	rsb	r2, r2, r0, asr #31
 80080ba:	250c      	movs	r5, #12
 80080bc:	fb86 3102 	smull	r3, r1, r6, r2
 80080c0:	17d3      	asrs	r3, r2, #31
 80080c2:	ebc3 03a1 	rsb	r3, r3, r1, asr #2
 80080c6:	eb03 0383 	add.w	r3, r3, r3, lsl #2
 80080ca:	eba2 0343 	sub.w	r3, r2, r3, lsl #1
 80080ce:	1ad2      	subs	r2, r2, r3
 80080d0:	fb86 4102 	smull	r4, r1, r6, r2
 80080d4:	1e6c      	subs	r4, r5, #1
 80080d6:	17d2      	asrs	r2, r2, #31
 80080d8:	ad06      	add	r5, sp, #24
 80080da:	4425      	add	r5, r4
 80080dc:	f1c3 0330 	rsb	r3, r3, #48	; 0x30
 80080e0:	ebd2 02a1 	rsbs	r2, r2, r1, asr #2
 80080e4:	f805 3c0d 	strb.w	r3, [r5, #-13]
 80080e8:	4625      	mov	r5, r4
 80080ea:	d1e7      	bne.n	80080bc <gnat__io__put+0x10>
 80080ec:	2800      	cmp	r0, #0
 80080ee:	da05      	bge.n	80080fc <gnat__io__put+0x50>
 80080f0:	3c01      	subs	r4, #1
 80080f2:	ab06      	add	r3, sp, #24
 80080f4:	4423      	add	r3, r4
 80080f6:	222d      	movs	r2, #45	; 0x2d
 80080f8:	f803 2c0d 	strb.w	r2, [r3, #-13]
 80080fc:	4620      	mov	r0, r4
 80080fe:	2c0c      	cmp	r4, #12
 8008100:	bfa8      	it	ge
 8008102:	200c      	movge	r0, #12
 8008104:	ab06      	add	r3, sp, #24
 8008106:	4418      	add	r0, r3
 8008108:	380d      	subs	r0, #13
 800810a:	230b      	movs	r3, #11
 800810c:	a901      	add	r1, sp, #4
 800810e:	9401      	str	r4, [sp, #4]
 8008110:	9302      	str	r3, [sp, #8]
 8008112:	f7ff ffbd 	bl	8008090 <gnat__io__put__3>
 8008116:	b006      	add	sp, #24
 8008118:	bd70      	pop	{r4, r5, r6, pc}
 800811a:	bf00      	nop
 800811c:	66666667 	.word	0x66666667

08008120 <gnat__io__put_line>:
 8008120:	b508      	push	{r3, lr}
 8008122:	f7ff ffb5 	bl	8008090 <gnat__io__put__3>
 8008126:	e8bd 4008 	ldmia.w	sp!, {r3, lr}
 800812a:	200a      	movs	r0, #10
 800812c:	f7ff bf84 	b.w	8008038 <gnat__io__put__2>

08008130 <_exit>:
 8008130:	4b01      	ldr	r3, [pc, #4]	; (8008138 <_exit+0x8>)
 8008132:	4a02      	ldr	r2, [pc, #8]	; (800813c <_exit+0xc>)
 8008134:	601a      	str	r2, [r3, #0]
 8008136:	e7fe      	b.n	8008136 <_exit+0x6>
 8008138:	e000ed0c 	.word	0xe000ed0c
 800813c:	05fa0004 	.word	0x05fa0004

08008140 <system__machine_reset__stop>:
 8008140:	4b01      	ldr	r3, [pc, #4]	; (8008148 <system__machine_reset__stop+0x8>)
 8008142:	4a02      	ldr	r2, [pc, #8]	; (800814c <system__machine_reset__stop+0xc>)
 8008144:	601a      	str	r2, [r3, #0]
 8008146:	e7fe      	b.n	8008146 <system__machine_reset__stop+0x6>
 8008148:	e000ed0c 	.word	0xe000ed0c
 800814c:	05fa0004 	.word	0x05fa0004

08008150 <_ada_setup_pll>:
 8008150:	b530      	push	{r4, r5, lr}
 8008152:	4c96      	ldr	r4, [pc, #600]	; (80083ac <_ada_setup_pll+0x25c>)
 8008154:	b085      	sub	sp, #20
 8008156:	6823      	ldr	r3, [r4, #0]
 8008158:	4d95      	ldr	r5, [pc, #596]	; (80083b0 <_ada_setup_pll+0x260>)
 800815a:	f043 0301 	orr.w	r3, r3, #1
 800815e:	6023      	str	r3, [r4, #0]
 8008160:	9a01      	ldr	r2, [sp, #4]
 8008162:	4994      	ldr	r1, [pc, #592]	; (80083b4 <_ada_setup_pll+0x264>)
 8008164:	f36f 0201 	bfc	r2, #0, #2
 8008168:	9201      	str	r2, [sp, #4]
 800816a:	9a01      	ldr	r2, [sp, #4]
 800816c:	4b92      	ldr	r3, [pc, #584]	; (80083b8 <_ada_setup_pll+0x268>)
 800816e:	f36f 0283 	bfc	r2, #2, #2
 8008172:	9201      	str	r2, [sp, #4]
 8008174:	9a01      	ldr	r2, [sp, #4]
 8008176:	f36f 1207 	bfc	r2, #4, #4
 800817a:	9201      	str	r2, [sp, #4]
 800817c:	9a01      	ldr	r2, [sp, #4]
 800817e:	f36f 220d 	bfc	r2, #8, #6
 8008182:	9201      	str	r2, [sp, #4]
 8008184:	9a01      	ldr	r2, [sp, #4]
 8008186:	f36f 328f 	bfc	r2, #14, #2
 800818a:	9201      	str	r2, [sp, #4]
 800818c:	9a01      	ldr	r2, [sp, #4]
 800818e:	f36f 4210 	bfc	r2, #16, #1
 8008192:	9201      	str	r2, [sp, #4]
 8008194:	9a01      	ldr	r2, [sp, #4]
 8008196:	f36f 4251 	bfc	r2, #17, #1
 800819a:	9201      	str	r2, [sp, #4]
 800819c:	9a01      	ldr	r2, [sp, #4]
 800819e:	f36f 4295 	bfc	r2, #18, #4
 80081a2:	9201      	str	r2, [sp, #4]
 80081a4:	9a01      	ldr	r2, [sp, #4]
 80081a6:	f36f 5296 	bfc	r2, #22, #1
 80081aa:	9201      	str	r2, [sp, #4]
 80081ac:	9a01      	ldr	r2, [sp, #4]
 80081ae:	f36f 52d7 	bfc	r2, #23, #1
 80081b2:	9201      	str	r2, [sp, #4]
 80081b4:	9a01      	ldr	r2, [sp, #4]
 80081b6:	f36f 621a 	bfc	r2, #24, #3
 80081ba:	9201      	str	r2, [sp, #4]
 80081bc:	9a01      	ldr	r2, [sp, #4]
 80081be:	f36f 62df 	bfc	r2, #27, #5
 80081c2:	9201      	str	r2, [sp, #4]
 80081c4:	9a01      	ldr	r2, [sp, #4]
 80081c6:	602a      	str	r2, [r5, #0]
 80081c8:	6822      	ldr	r2, [r4, #0]
 80081ca:	f36f 4210 	bfc	r2, #16, #1
 80081ce:	6022      	str	r2, [r4, #0]
 80081d0:	6822      	ldr	r2, [r4, #0]
 80081d2:	f36f 42d3 	bfc	r2, #19, #1
 80081d6:	6022      	str	r2, [r4, #0]
 80081d8:	6822      	ldr	r2, [r4, #0]
 80081da:	f36f 6218 	bfc	r2, #24, #1
 80081de:	6022      	str	r2, [r4, #0]
 80081e0:	6822      	ldr	r2, [r4, #0]
 80081e2:	f36f 4292 	bfc	r2, #18, #1
 80081e6:	6022      	str	r2, [r4, #0]
 80081e8:	9a00      	ldr	r2, [sp, #0]
 80081ea:	f36f 0200 	bfc	r2, #0, #1
 80081ee:	9200      	str	r2, [sp, #0]
 80081f0:	9a00      	ldr	r2, [sp, #0]
 80081f2:	f36f 0241 	bfc	r2, #1, #1
 80081f6:	9200      	str	r2, [sp, #0]
 80081f8:	9a00      	ldr	r2, [sp, #0]
 80081fa:	f36f 0282 	bfc	r2, #2, #1
 80081fe:	9200      	str	r2, [sp, #0]
 8008200:	9a00      	ldr	r2, [sp, #0]
 8008202:	f36f 02c3 	bfc	r2, #3, #1
 8008206:	9200      	str	r2, [sp, #0]
 8008208:	9a00      	ldr	r2, [sp, #0]
 800820a:	f36f 1204 	bfc	r2, #4, #1
 800820e:	9200      	str	r2, [sp, #0]
 8008210:	9a00      	ldr	r2, [sp, #0]
 8008212:	f36f 1246 	bfc	r2, #5, #2
 8008216:	9200      	str	r2, [sp, #0]
 8008218:	9a00      	ldr	r2, [sp, #0]
 800821a:	f36f 12c7 	bfc	r2, #7, #1
 800821e:	9200      	str	r2, [sp, #0]
 8008220:	9a00      	ldr	r2, [sp, #0]
 8008222:	f36f 2208 	bfc	r2, #8, #1
 8008226:	9200      	str	r2, [sp, #0]
 8008228:	9a00      	ldr	r2, [sp, #0]
 800822a:	f36f 2249 	bfc	r2, #9, #1
 800822e:	9200      	str	r2, [sp, #0]
 8008230:	9a00      	ldr	r2, [sp, #0]
 8008232:	f36f 228a 	bfc	r2, #10, #1
 8008236:	9200      	str	r2, [sp, #0]
 8008238:	9a00      	ldr	r2, [sp, #0]
 800823a:	f36f 22cb 	bfc	r2, #11, #1
 800823e:	9200      	str	r2, [sp, #0]
 8008240:	9a00      	ldr	r2, [sp, #0]
 8008242:	f36f 320c 	bfc	r2, #12, #1
 8008246:	9200      	str	r2, [sp, #0]
 8008248:	9a00      	ldr	r2, [sp, #0]
 800824a:	f36f 324f 	bfc	r2, #13, #3
 800824e:	9200      	str	r2, [sp, #0]
 8008250:	9a00      	ldr	r2, [sp, #0]
 8008252:	f36f 4210 	bfc	r2, #16, #1
 8008256:	9200      	str	r2, [sp, #0]
 8008258:	9a00      	ldr	r2, [sp, #0]
 800825a:	f36f 4251 	bfc	r2, #17, #1
 800825e:	9200      	str	r2, [sp, #0]
 8008260:	9a00      	ldr	r2, [sp, #0]
 8008262:	f36f 4292 	bfc	r2, #18, #1
 8008266:	9200      	str	r2, [sp, #0]
 8008268:	9a00      	ldr	r2, [sp, #0]
 800826a:	f36f 42d3 	bfc	r2, #19, #1
 800826e:	9200      	str	r2, [sp, #0]
 8008270:	9a00      	ldr	r2, [sp, #0]
 8008272:	f36f 5214 	bfc	r2, #20, #1
 8008276:	9200      	str	r2, [sp, #0]
 8008278:	9a00      	ldr	r2, [sp, #0]
 800827a:	f36f 5256 	bfc	r2, #21, #2
 800827e:	9200      	str	r2, [sp, #0]
 8008280:	9a00      	ldr	r2, [sp, #0]
 8008282:	f36f 52d7 	bfc	r2, #23, #1
 8008286:	9200      	str	r2, [sp, #0]
 8008288:	9a00      	ldr	r2, [sp, #0]
 800828a:	f36f 621f 	bfc	r2, #24, #8
 800828e:	9200      	str	r2, [sp, #0]
 8008290:	9a00      	ldr	r2, [sp, #0]
 8008292:	600a      	str	r2, [r1, #0]
 8008294:	681a      	ldr	r2, [r3, #0]
 8008296:	f042 0220 	orr.w	r2, r2, #32
 800829a:	601a      	str	r2, [r3, #0]
 800829c:	681a      	ldr	r2, [r3, #0]
 800829e:	f042 0201 	orr.w	r2, r2, #1
 80082a2:	601a      	str	r2, [r3, #0]
 80082a4:	f000 f894 	bl	80083d0 <system__bb__mcu_parameters__pwr_initialize>
 80082a8:	6823      	ldr	r3, [r4, #0]
 80082aa:	f443 3380 	orr.w	r3, r3, #65536	; 0x10000
 80082ae:	6023      	str	r3, [r4, #0]
 80082b0:	6823      	ldr	r3, [r4, #0]
 80082b2:	f36f 4392 	bfc	r3, #18, #1
 80082b6:	6023      	str	r3, [r4, #0]
 80082b8:	6823      	ldr	r3, [r4, #0]
 80082ba:	039a      	lsls	r2, r3, #14
 80082bc:	d5fc      	bpl.n	80082b8 <_ada_setup_pll+0x168>
 80082be:	6823      	ldr	r3, [r4, #0]
 80082c0:	2207      	movs	r2, #7
 80082c2:	f36f 6318 	bfc	r3, #24, #1
 80082c6:	6023      	str	r3, [r4, #0]
 80082c8:	682b      	ldr	r3, [r5, #0]
 80082ca:	f443 3380 	orr.w	r3, r3, #65536	; 0x10000
 80082ce:	602b      	str	r3, [r5, #0]
 80082d0:	682b      	ldr	r3, [r5, #0]
 80082d2:	f362 4395 	bfi	r3, r2, #18, #4
 80082d6:	602b      	str	r3, [r5, #0]
 80082d8:	6823      	ldr	r3, [r4, #0]
 80082da:	f043 7380 	orr.w	r3, r3, #16777216	; 0x1000000
 80082de:	6023      	str	r3, [r4, #0]
 80082e0:	6823      	ldr	r3, [r4, #0]
 80082e2:	019b      	lsls	r3, r3, #6
 80082e4:	d5fc      	bpl.n	80082e0 <_ada_setup_pll+0x190>
 80082e6:	9b03      	ldr	r3, [sp, #12]
 80082e8:	2202      	movs	r2, #2
 80082ea:	f362 0302 	bfi	r3, r2, #0, #3
 80082ee:	9303      	str	r3, [sp, #12]
 80082f0:	9b03      	ldr	r3, [sp, #12]
 80082f2:	4932      	ldr	r1, [pc, #200]	; (80083bc <_ada_setup_pll+0x26c>)
 80082f4:	f36f 03c3 	bfc	r3, #3, #1
 80082f8:	9303      	str	r3, [sp, #12]
 80082fa:	9b03      	ldr	r3, [sp, #12]
 80082fc:	f043 0310 	orr.w	r3, r3, #16
 8008300:	9303      	str	r3, [sp, #12]
 8008302:	9b03      	ldr	r3, [sp, #12]
 8008304:	f043 0320 	orr.w	r3, r3, #32
 8008308:	9303      	str	r3, [sp, #12]
 800830a:	9b03      	ldr	r3, [sp, #12]
 800830c:	f36f 139f 	bfc	r3, #6, #26
 8008310:	9303      	str	r3, [sp, #12]
 8008312:	9b03      	ldr	r3, [sp, #12]
 8008314:	600b      	str	r3, [r1, #0]
 8008316:	9b02      	ldr	r3, [sp, #8]
 8008318:	f362 0301 	bfi	r3, r2, #0, #2
 800831c:	9302      	str	r3, [sp, #8]
 800831e:	9b02      	ldr	r3, [sp, #8]
 8008320:	f36f 0383 	bfc	r3, #2, #2
 8008324:	9302      	str	r3, [sp, #8]
 8008326:	9b02      	ldr	r3, [sp, #8]
 8008328:	f36f 1307 	bfc	r3, #4, #4
 800832c:	9302      	str	r3, [sp, #8]
 800832e:	9b02      	ldr	r3, [sp, #8]
 8008330:	f36f 230d 	bfc	r3, #8, #6
 8008334:	9302      	str	r3, [sp, #8]
 8008336:	9a02      	ldr	r2, [sp, #8]
 8008338:	9b02      	ldr	r3, [sp, #8]
 800833a:	f3c3 2305 	ubfx	r3, r3, #8, #6
 800833e:	f023 0307 	bic.w	r3, r3, #7
 8008342:	f043 0304 	orr.w	r3, r3, #4
 8008346:	f363 220d 	bfi	r2, r3, #8, #6
 800834a:	9202      	str	r2, [sp, #8]
 800834c:	9b02      	ldr	r3, [sp, #8]
 800834e:	9a02      	ldr	r2, [sp, #8]
 8008350:	f3c2 2202 	ubfx	r2, r2, #8, #3
 8008354:	f362 230d 	bfi	r3, r2, #8, #6
 8008358:	9302      	str	r3, [sp, #8]
 800835a:	9b02      	ldr	r3, [sp, #8]
 800835c:	f36f 338f 	bfc	r3, #14, #2
 8008360:	9302      	str	r3, [sp, #8]
 8008362:	9b02      	ldr	r3, [sp, #8]
 8008364:	f36f 4310 	bfc	r3, #16, #1
 8008368:	9302      	str	r3, [sp, #8]
 800836a:	9b02      	ldr	r3, [sp, #8]
 800836c:	f36f 4351 	bfc	r3, #17, #1
 8008370:	9302      	str	r3, [sp, #8]
 8008372:	9b02      	ldr	r3, [sp, #8]
 8008374:	f36f 4395 	bfc	r3, #18, #4
 8008378:	9302      	str	r3, [sp, #8]
 800837a:	9b02      	ldr	r3, [sp, #8]
 800837c:	f36f 5396 	bfc	r3, #22, #1
 8008380:	9302      	str	r3, [sp, #8]
 8008382:	9b02      	ldr	r3, [sp, #8]
 8008384:	f36f 53d7 	bfc	r3, #23, #1
 8008388:	9302      	str	r3, [sp, #8]
 800838a:	9b02      	ldr	r3, [sp, #8]
 800838c:	f36f 631a 	bfc	r3, #24, #3
 8008390:	9302      	str	r3, [sp, #8]
 8008392:	9b02      	ldr	r3, [sp, #8]
 8008394:	f36f 63df 	bfc	r3, #27, #5
 8008398:	9302      	str	r3, [sp, #8]
 800839a:	9b02      	ldr	r3, [sp, #8]
 800839c:	602b      	str	r3, [r5, #0]
 800839e:	682b      	ldr	r3, [r5, #0]
 80083a0:	f003 030c 	and.w	r3, r3, #12
 80083a4:	2b08      	cmp	r3, #8
 80083a6:	d1fa      	bne.n	800839e <_ada_setup_pll+0x24e>
 80083a8:	b005      	add	sp, #20
 80083aa:	bd30      	pop	{r4, r5, pc}
 80083ac:	40021000 	.word	0x40021000
 80083b0:	40021004 	.word	0x40021004
 80083b4:	40021008 	.word	0x40021008
 80083b8:	40021018 	.word	0x40021018
 80083bc:	40022000 	.word	0x40022000

080083c0 <system__text_io__initialize>:
 80083c0:	4770      	bx	lr
 80083c2:	bf00      	nop

080083c4 <system__text_io__is_tx_ready>:
 80083c4:	2000      	movs	r0, #0
 80083c6:	4770      	bx	lr

080083c8 <system__text_io__put>:
 80083c8:	4770      	bx	lr
 80083ca:	bf00      	nop

080083cc <system__text_io__use_cr_lf_for_new_line>:
 80083cc:	2001      	movs	r0, #1
 80083ce:	4770      	bx	lr

080083d0 <system__bb__mcu_parameters__pwr_initialize>:
 80083d0:	4b03      	ldr	r3, [pc, #12]	; (80083e0 <system__bb__mcu_parameters__pwr_initialize+0x10>)
 80083d2:	681a      	ldr	r2, [r3, #0]
 80083d4:	6813      	ldr	r3, [r2, #0]
 80083d6:	f443 4380 	orr.w	r3, r3, #16384	; 0x4000
 80083da:	6013      	str	r3, [r2, #0]
 80083dc:	4770      	bx	lr
 80083de:	bf00      	nop
 80083e0:	200000c4 	.word	0x200000c4

080083e4 <__aeabi_ldivmod>:
 80083e4:	b97b      	cbnz	r3, 8008406 <__aeabi_ldivmod+0x22>
 80083e6:	b972      	cbnz	r2, 8008406 <__aeabi_ldivmod+0x22>
 80083e8:	2900      	cmp	r1, #0
 80083ea:	bfbe      	ittt	lt
 80083ec:	2000      	movlt	r0, #0
 80083ee:	f04f 4100 	movlt.w	r1, #2147483648	; 0x80000000
 80083f2:	e006      	blt.n	8008402 <__aeabi_ldivmod+0x1e>
 80083f4:	bf08      	it	eq
 80083f6:	2800      	cmpeq	r0, #0
 80083f8:	bf1c      	itt	ne
 80083fa:	f06f 4100 	mvnne.w	r1, #2147483648	; 0x80000000
 80083fe:	f04f 30ff 	movne.w	r0, #4294967295
 8008402:	f000 b83b 	b.w	800847c <__aeabi_idiv0>
 8008406:	b082      	sub	sp, #8
 8008408:	46ec      	mov	ip, sp
 800840a:	e92d 5000 	stmdb	sp!, {ip, lr}
 800840e:	f000 f805 	bl	800841c <__gnu_ldivmod_helper>
 8008412:	f8dd e004 	ldr.w	lr, [sp, #4]
 8008416:	b002      	add	sp, #8
 8008418:	bc0c      	pop	{r2, r3}
 800841a:	4770      	bx	lr

0800841c <__gnu_ldivmod_helper>:
 800841c:	e92d 41f0 	stmdb	sp!, {r4, r5, r6, r7, r8, lr}
 8008420:	9c06      	ldr	r4, [sp, #24]
 8008422:	4690      	mov	r8, r2
 8008424:	4606      	mov	r6, r0
 8008426:	460f      	mov	r7, r1
 8008428:	461d      	mov	r5, r3
 800842a:	f000 f829 	bl	8008480 <__divdi3>
 800842e:	fb08 fc01 	mul.w	ip, r8, r1
 8008432:	fba8 2300 	umull	r2, r3, r8, r0
 8008436:	fb00 c505 	mla	r5, r0, r5, ip
 800843a:	1ab2      	subs	r2, r6, r2
 800843c:	442b      	add	r3, r5
 800843e:	eb67 0303 	sbc.w	r3, r7, r3
 8008442:	4686      	mov	lr, r0
 8008444:	e9c4 2300 	strd	r2, r3, [r4]
 8008448:	e8bd 81f0 	ldmia.w	sp!, {r4, r5, r6, r7, r8, pc}

0800844c <__gnu_uldivmod_helper>:
 800844c:	e92d 43f8 	stmdb	sp!, {r3, r4, r5, r6, r7, r8, r9, lr}
 8008450:	9e08      	ldr	r6, [sp, #32]
 8008452:	4617      	mov	r7, r2
 8008454:	4680      	mov	r8, r0
 8008456:	4689      	mov	r9, r1
 8008458:	461d      	mov	r5, r3
 800845a:	f000 f967 	bl	800872c <__udivdi3>
 800845e:	fb00 f305 	mul.w	r3, r0, r5
 8008462:	fba0 4507 	umull	r4, r5, r0, r7
 8008466:	fb07 3701 	mla	r7, r7, r1, r3
 800846a:	ebb8 0404 	subs.w	r4, r8, r4
 800846e:	443d      	add	r5, r7
 8008470:	eb69 0505 	sbc.w	r5, r9, r5
 8008474:	e9c6 4500 	strd	r4, r5, [r6]
 8008478:	e8bd 83f8 	ldmia.w	sp!, {r3, r4, r5, r6, r7, r8, r9, pc}

0800847c <__aeabi_idiv0>:
 800847c:	4770      	bx	lr
 800847e:	bf00      	nop

08008480 <__divdi3>:
 8008480:	2900      	cmp	r1, #0
 8008482:	e92d 43f0 	stmdb	sp!, {r4, r5, r6, r7, r8, r9, lr}
 8008486:	f2c0 80a7 	blt.w	80085d8 <__divdi3+0x158>
 800848a:	2600      	movs	r6, #0
 800848c:	2b00      	cmp	r3, #0
 800848e:	f2c0 809d 	blt.w	80085cc <__divdi3+0x14c>
 8008492:	4681      	mov	r9, r0
 8008494:	468e      	mov	lr, r1
 8008496:	4690      	mov	r8, r2
 8008498:	469c      	mov	ip, r3
 800849a:	4617      	mov	r7, r2
 800849c:	4604      	mov	r4, r0
 800849e:	460d      	mov	r5, r1
 80084a0:	2b00      	cmp	r3, #0
 80084a2:	d13d      	bne.n	8008520 <__divdi3+0xa0>
 80084a4:	428a      	cmp	r2, r1
 80084a6:	d959      	bls.n	800855c <__divdi3+0xdc>
 80084a8:	fab2 f382 	clz	r3, r2
 80084ac:	b13b      	cbz	r3, 80084be <__divdi3+0x3e>
 80084ae:	f1c3 0220 	rsb	r2, r3, #32
 80084b2:	409d      	lsls	r5, r3
 80084b4:	fa20 f202 	lsr.w	r2, r0, r2
 80084b8:	409f      	lsls	r7, r3
 80084ba:	4315      	orrs	r5, r2
 80084bc:	409c      	lsls	r4, r3
 80084be:	0c39      	lsrs	r1, r7, #16
 80084c0:	fbb5 f0f1 	udiv	r0, r5, r1
 80084c4:	fa1f fe87 	uxth.w	lr, r7
 80084c8:	fb01 5510 	mls	r5, r1, r0, r5
 80084cc:	fb0e f300 	mul.w	r3, lr, r0
 80084d0:	0c22      	lsrs	r2, r4, #16
 80084d2:	ea42 4505 	orr.w	r5, r2, r5, lsl #16
 80084d6:	42ab      	cmp	r3, r5
 80084d8:	d909      	bls.n	80084ee <__divdi3+0x6e>
 80084da:	19ed      	adds	r5, r5, r7
 80084dc:	f100 32ff 	add.w	r2, r0, #4294967295
 80084e0:	f080 810b 	bcs.w	80086fa <__divdi3+0x27a>
 80084e4:	42ab      	cmp	r3, r5
 80084e6:	f240 8108 	bls.w	80086fa <__divdi3+0x27a>
 80084ea:	3802      	subs	r0, #2
 80084ec:	443d      	add	r5, r7
 80084ee:	1aed      	subs	r5, r5, r3
 80084f0:	fbb5 f3f1 	udiv	r3, r5, r1
 80084f4:	fb01 5513 	mls	r5, r1, r3, r5
 80084f8:	fb0e fe03 	mul.w	lr, lr, r3
 80084fc:	b2a4      	uxth	r4, r4
 80084fe:	ea44 4505 	orr.w	r5, r4, r5, lsl #16
 8008502:	45ae      	cmp	lr, r5
 8008504:	d908      	bls.n	8008518 <__divdi3+0x98>
 8008506:	19ed      	adds	r5, r5, r7
 8008508:	f103 32ff 	add.w	r2, r3, #4294967295
 800850c:	f080 80f7 	bcs.w	80086fe <__divdi3+0x27e>
 8008510:	45ae      	cmp	lr, r5
 8008512:	f240 80f4 	bls.w	80086fe <__divdi3+0x27e>
 8008516:	3b02      	subs	r3, #2
 8008518:	ea43 4300 	orr.w	r3, r3, r0, lsl #16
 800851c:	2200      	movs	r2, #0
 800851e:	e003      	b.n	8008528 <__divdi3+0xa8>
 8008520:	428b      	cmp	r3, r1
 8008522:	d90f      	bls.n	8008544 <__divdi3+0xc4>
 8008524:	2200      	movs	r2, #0
 8008526:	4613      	mov	r3, r2
 8008528:	1c34      	adds	r4, r6, #0
 800852a:	bf18      	it	ne
 800852c:	2401      	movne	r4, #1
 800852e:	4260      	negs	r0, r4
 8008530:	f04f 0500 	mov.w	r5, #0
 8008534:	eb65 0145 	sbc.w	r1, r5, r5, lsl #1
 8008538:	4058      	eors	r0, r3
 800853a:	4051      	eors	r1, r2
 800853c:	1900      	adds	r0, r0, r4
 800853e:	4169      	adcs	r1, r5
 8008540:	e8bd 83f0 	ldmia.w	sp!, {r4, r5, r6, r7, r8, r9, pc}
 8008544:	fab3 f283 	clz	r2, r3
 8008548:	2a00      	cmp	r2, #0
 800854a:	f040 8089 	bne.w	8008660 <__divdi3+0x1e0>
 800854e:	428b      	cmp	r3, r1
 8008550:	d302      	bcc.n	8008558 <__divdi3+0xd8>
 8008552:	4580      	cmp	r8, r0
 8008554:	f200 80de 	bhi.w	8008714 <__divdi3+0x294>
 8008558:	2301      	movs	r3, #1
 800855a:	e7e5      	b.n	8008528 <__divdi3+0xa8>
 800855c:	b912      	cbnz	r2, 8008564 <__divdi3+0xe4>
 800855e:	2301      	movs	r3, #1
 8008560:	fbb3 f7f2 	udiv	r7, r3, r2
 8008564:	fab7 f887 	clz	r8, r7
 8008568:	f1b8 0f00 	cmp.w	r8, #0
 800856c:	d13a      	bne.n	80085e4 <__divdi3+0x164>
 800856e:	1bed      	subs	r5, r5, r7
 8008570:	b2b8      	uxth	r0, r7
 8008572:	0c39      	lsrs	r1, r7, #16
 8008574:	2201      	movs	r2, #1
 8008576:	fbb5 fcf1 	udiv	ip, r5, r1
 800857a:	fb01 551c 	mls	r5, r1, ip, r5
 800857e:	fb00 f30c 	mul.w	r3, r0, ip
 8008582:	ea4f 4e14 	mov.w	lr, r4, lsr #16
 8008586:	ea4e 4505 	orr.w	r5, lr, r5, lsl #16
 800858a:	42ab      	cmp	r3, r5
 800858c:	d907      	bls.n	800859e <__divdi3+0x11e>
 800858e:	19ed      	adds	r5, r5, r7
 8008590:	f10c 3eff 	add.w	lr, ip, #4294967295
 8008594:	d202      	bcs.n	800859c <__divdi3+0x11c>
 8008596:	42ab      	cmp	r3, r5
 8008598:	f200 80c2 	bhi.w	8008720 <__divdi3+0x2a0>
 800859c:	46f4      	mov	ip, lr
 800859e:	1aed      	subs	r5, r5, r3
 80085a0:	fbb5 f3f1 	udiv	r3, r5, r1
 80085a4:	fb01 5513 	mls	r5, r1, r3, r5
 80085a8:	fb00 f003 	mul.w	r0, r0, r3
 80085ac:	b2a4      	uxth	r4, r4
 80085ae:	ea44 4505 	orr.w	r5, r4, r5, lsl #16
 80085b2:	42a8      	cmp	r0, r5
 80085b4:	d907      	bls.n	80085c6 <__divdi3+0x146>
 80085b6:	19ed      	adds	r5, r5, r7
 80085b8:	f103 31ff 	add.w	r1, r3, #4294967295
 80085bc:	d202      	bcs.n	80085c4 <__divdi3+0x144>
 80085be:	42a8      	cmp	r0, r5
 80085c0:	f200 80b2 	bhi.w	8008728 <__divdi3+0x2a8>
 80085c4:	460b      	mov	r3, r1
 80085c6:	ea43 430c 	orr.w	r3, r3, ip, lsl #16
 80085ca:	e7ad      	b.n	8008528 <__divdi3+0xa8>
 80085cc:	4252      	negs	r2, r2
 80085ce:	ea6f 0606 	mvn.w	r6, r6
 80085d2:	eb63 0343 	sbc.w	r3, r3, r3, lsl #1
 80085d6:	e75c      	b.n	8008492 <__divdi3+0x12>
 80085d8:	4240      	negs	r0, r0
 80085da:	eb61 0141 	sbc.w	r1, r1, r1, lsl #1
 80085de:	f04f 36ff 	mov.w	r6, #4294967295
 80085e2:	e753      	b.n	800848c <__divdi3+0xc>
 80085e4:	fa07 f708 	lsl.w	r7, r7, r8
 80085e8:	f1c8 0220 	rsb	r2, r8, #32
 80085ec:	fa25 f302 	lsr.w	r3, r5, r2
 80085f0:	0c39      	lsrs	r1, r7, #16
 80085f2:	fbb3 fef1 	udiv	lr, r3, r1
 80085f6:	b2b8      	uxth	r0, r7
 80085f8:	fb01 331e 	mls	r3, r1, lr, r3
 80085fc:	fa24 f202 	lsr.w	r2, r4, r2
 8008600:	fa05 f508 	lsl.w	r5, r5, r8
 8008604:	fb00 f90e 	mul.w	r9, r0, lr
 8008608:	432a      	orrs	r2, r5
 800860a:	ea4f 4c12 	mov.w	ip, r2, lsr #16
 800860e:	ea4c 4303 	orr.w	r3, ip, r3, lsl #16
 8008612:	4599      	cmp	r9, r3
 8008614:	fa04 f408 	lsl.w	r4, r4, r8
 8008618:	d908      	bls.n	800862c <__divdi3+0x1ac>
 800861a:	19db      	adds	r3, r3, r7
 800861c:	f10e 35ff 	add.w	r5, lr, #4294967295
 8008620:	d27c      	bcs.n	800871c <__divdi3+0x29c>
 8008622:	4599      	cmp	r9, r3
 8008624:	d97a      	bls.n	800871c <__divdi3+0x29c>
 8008626:	f1ae 0e02 	sub.w	lr, lr, #2
 800862a:	443b      	add	r3, r7
 800862c:	ebc9 0303 	rsb	r3, r9, r3
 8008630:	fbb3 fcf1 	udiv	ip, r3, r1
 8008634:	fb01 331c 	mls	r3, r1, ip, r3
 8008638:	fb00 f50c 	mul.w	r5, r0, ip
 800863c:	b292      	uxth	r2, r2
 800863e:	ea42 4303 	orr.w	r3, r2, r3, lsl #16
 8008642:	429d      	cmp	r5, r3
 8008644:	d908      	bls.n	8008658 <__divdi3+0x1d8>
 8008646:	19db      	adds	r3, r3, r7
 8008648:	f10c 32ff 	add.w	r2, ip, #4294967295
 800864c:	d25e      	bcs.n	800870c <__divdi3+0x28c>
 800864e:	429d      	cmp	r5, r3
 8008650:	d95c      	bls.n	800870c <__divdi3+0x28c>
 8008652:	f1ac 0c02 	sub.w	ip, ip, #2
 8008656:	443b      	add	r3, r7
 8008658:	1b5d      	subs	r5, r3, r5
 800865a:	ea4c 420e 	orr.w	r2, ip, lr, lsl #16
 800865e:	e78a      	b.n	8008576 <__divdi3+0xf6>
 8008660:	f1c2 0320 	rsb	r3, r2, #32
 8008664:	fa28 f103 	lsr.w	r1, r8, r3
 8008668:	fa0c fc02 	lsl.w	ip, ip, r2
 800866c:	ea41 0c0c 	orr.w	ip, r1, ip
 8008670:	ea4f 401c 	mov.w	r0, ip, lsr #16
 8008674:	fa2e f103 	lsr.w	r1, lr, r3
 8008678:	fbb1 f5f0 	udiv	r5, r1, r0
 800867c:	fa1f f78c 	uxth.w	r7, ip
 8008680:	fb00 1115 	mls	r1, r0, r5, r1
 8008684:	fa29 f303 	lsr.w	r3, r9, r3
 8008688:	fa0e fe02 	lsl.w	lr, lr, r2
 800868c:	fb07 f905 	mul.w	r9, r7, r5
 8008690:	ea43 0e0e 	orr.w	lr, r3, lr
 8008694:	ea4f 431e 	mov.w	r3, lr, lsr #16
 8008698:	ea43 4101 	orr.w	r1, r3, r1, lsl #16
 800869c:	4589      	cmp	r9, r1
 800869e:	fa08 f802 	lsl.w	r8, r8, r2
 80086a2:	d908      	bls.n	80086b6 <__divdi3+0x236>
 80086a4:	eb11 010c 	adds.w	r1, r1, ip
 80086a8:	f105 33ff 	add.w	r3, r5, #4294967295
 80086ac:	d234      	bcs.n	8008718 <__divdi3+0x298>
 80086ae:	4589      	cmp	r9, r1
 80086b0:	d932      	bls.n	8008718 <__divdi3+0x298>
 80086b2:	3d02      	subs	r5, #2
 80086b4:	4461      	add	r1, ip
 80086b6:	ebc9 0101 	rsb	r1, r9, r1
 80086ba:	fbb1 f3f0 	udiv	r3, r1, r0
 80086be:	fb00 1113 	mls	r1, r0, r3, r1
 80086c2:	fb07 f703 	mul.w	r7, r7, r3
 80086c6:	fa1f fe8e 	uxth.w	lr, lr
 80086ca:	ea4e 4e01 	orr.w	lr, lr, r1, lsl #16
 80086ce:	4577      	cmp	r7, lr
 80086d0:	d908      	bls.n	80086e4 <__divdi3+0x264>
 80086d2:	eb1e 0e0c 	adds.w	lr, lr, ip
 80086d6:	f103 31ff 	add.w	r1, r3, #4294967295
 80086da:	d219      	bcs.n	8008710 <__divdi3+0x290>
 80086dc:	4577      	cmp	r7, lr
 80086de:	d917      	bls.n	8008710 <__divdi3+0x290>
 80086e0:	3b02      	subs	r3, #2
 80086e2:	44e6      	add	lr, ip
 80086e4:	ea43 4305 	orr.w	r3, r3, r5, lsl #16
 80086e8:	fba3 8908 	umull	r8, r9, r3, r8
 80086ec:	ebc7 0e0e 	rsb	lr, r7, lr
 80086f0:	45ce      	cmp	lr, r9
 80086f2:	d309      	bcc.n	8008708 <__divdi3+0x288>
 80086f4:	d005      	beq.n	8008702 <__divdi3+0x282>
 80086f6:	2200      	movs	r2, #0
 80086f8:	e716      	b.n	8008528 <__divdi3+0xa8>
 80086fa:	4610      	mov	r0, r2
 80086fc:	e6f7      	b.n	80084ee <__divdi3+0x6e>
 80086fe:	4613      	mov	r3, r2
 8008700:	e70a      	b.n	8008518 <__divdi3+0x98>
 8008702:	4094      	lsls	r4, r2
 8008704:	4544      	cmp	r4, r8
 8008706:	d2f6      	bcs.n	80086f6 <__divdi3+0x276>
 8008708:	3b01      	subs	r3, #1
 800870a:	e7f4      	b.n	80086f6 <__divdi3+0x276>
 800870c:	4694      	mov	ip, r2
 800870e:	e7a3      	b.n	8008658 <__divdi3+0x1d8>
 8008710:	460b      	mov	r3, r1
 8008712:	e7e7      	b.n	80086e4 <__divdi3+0x264>
 8008714:	4613      	mov	r3, r2
 8008716:	e707      	b.n	8008528 <__divdi3+0xa8>
 8008718:	461d      	mov	r5, r3
 800871a:	e7cc      	b.n	80086b6 <__divdi3+0x236>
 800871c:	46ae      	mov	lr, r5
 800871e:	e785      	b.n	800862c <__divdi3+0x1ac>
 8008720:	f1ac 0c02 	sub.w	ip, ip, #2
 8008724:	443d      	add	r5, r7
 8008726:	e73a      	b.n	800859e <__divdi3+0x11e>
 8008728:	3b02      	subs	r3, #2
 800872a:	e74c      	b.n	80085c6 <__divdi3+0x146>

0800872c <__udivdi3>:
 800872c:	e92d 43f0 	stmdb	sp!, {r4, r5, r6, r7, r8, r9, lr}
 8008730:	2b00      	cmp	r3, #0
 8008732:	d144      	bne.n	80087be <__udivdi3+0x92>
 8008734:	428a      	cmp	r2, r1
 8008736:	4615      	mov	r5, r2
 8008738:	4604      	mov	r4, r0
 800873a:	d94f      	bls.n	80087dc <__udivdi3+0xb0>
 800873c:	fab2 f782 	clz	r7, r2
 8008740:	460e      	mov	r6, r1
 8008742:	b14f      	cbz	r7, 8008758 <__udivdi3+0x2c>
 8008744:	f1c7 0320 	rsb	r3, r7, #32
 8008748:	40b9      	lsls	r1, r7
 800874a:	fa20 f603 	lsr.w	r6, r0, r3
 800874e:	fa02 f507 	lsl.w	r5, r2, r7
 8008752:	430e      	orrs	r6, r1
 8008754:	fa00 f407 	lsl.w	r4, r0, r7
 8008758:	0c2f      	lsrs	r7, r5, #16
 800875a:	fbb6 f0f7 	udiv	r0, r6, r7
 800875e:	fa1f fe85 	uxth.w	lr, r5
 8008762:	fb07 6210 	mls	r2, r7, r0, r6
 8008766:	fb0e f100 	mul.w	r1, lr, r0
 800876a:	0c26      	lsrs	r6, r4, #16
 800876c:	ea46 4302 	orr.w	r3, r6, r2, lsl #16
 8008770:	4299      	cmp	r1, r3
 8008772:	d909      	bls.n	8008788 <__udivdi3+0x5c>
 8008774:	195b      	adds	r3, r3, r5
 8008776:	f100 32ff 	add.w	r2, r0, #4294967295
 800877a:	f080 80f4 	bcs.w	8008966 <__udivdi3+0x23a>
 800877e:	4299      	cmp	r1, r3
 8008780:	f240 80f1 	bls.w	8008966 <__udivdi3+0x23a>
 8008784:	3802      	subs	r0, #2
 8008786:	442b      	add	r3, r5
 8008788:	1a59      	subs	r1, r3, r1
 800878a:	fbb1 f3f7 	udiv	r3, r1, r7
 800878e:	fb07 1113 	mls	r1, r7, r3, r1
 8008792:	fb0e fe03 	mul.w	lr, lr, r3
 8008796:	b2a4      	uxth	r4, r4
 8008798:	ea44 4101 	orr.w	r1, r4, r1, lsl #16
 800879c:	458e      	cmp	lr, r1
 800879e:	d908      	bls.n	80087b2 <__udivdi3+0x86>
 80087a0:	1949      	adds	r1, r1, r5
 80087a2:	f103 32ff 	add.w	r2, r3, #4294967295
 80087a6:	f080 80e8 	bcs.w	800897a <__udivdi3+0x24e>
 80087aa:	458e      	cmp	lr, r1
 80087ac:	f240 80e5 	bls.w	800897a <__udivdi3+0x24e>
 80087b0:	3b02      	subs	r3, #2
 80087b2:	ea43 4000 	orr.w	r0, r3, r0, lsl #16
 80087b6:	2600      	movs	r6, #0
 80087b8:	4631      	mov	r1, r6
 80087ba:	e8bd 83f0 	ldmia.w	sp!, {r4, r5, r6, r7, r8, r9, pc}
 80087be:	428b      	cmp	r3, r1
 80087c0:	d847      	bhi.n	8008852 <__udivdi3+0x126>
 80087c2:	fab3 f683 	clz	r6, r3
 80087c6:	2e00      	cmp	r6, #0
 80087c8:	d148      	bne.n	800885c <__udivdi3+0x130>
 80087ca:	428b      	cmp	r3, r1
 80087cc:	d302      	bcc.n	80087d4 <__udivdi3+0xa8>
 80087ce:	4282      	cmp	r2, r0
 80087d0:	f200 80d5 	bhi.w	800897e <__udivdi3+0x252>
 80087d4:	2001      	movs	r0, #1
 80087d6:	4631      	mov	r1, r6
 80087d8:	e8bd 83f0 	ldmia.w	sp!, {r4, r5, r6, r7, r8, r9, pc}
 80087dc:	b912      	cbnz	r2, 80087e4 <__udivdi3+0xb8>
 80087de:	2501      	movs	r5, #1
 80087e0:	fbb5 f5f2 	udiv	r5, r5, r2
 80087e4:	fab5 fc85 	clz	ip, r5
 80087e8:	f1bc 0f00 	cmp.w	ip, #0
 80087ec:	d17f      	bne.n	80088ee <__udivdi3+0x1c2>
 80087ee:	1b49      	subs	r1, r1, r5
 80087f0:	fa1f fe85 	uxth.w	lr, r5
 80087f4:	0c2f      	lsrs	r7, r5, #16
 80087f6:	2601      	movs	r6, #1
 80087f8:	fbb1 f0f7 	udiv	r0, r1, r7
 80087fc:	fb07 1110 	mls	r1, r7, r0, r1
 8008800:	fb0e f200 	mul.w	r2, lr, r0
 8008804:	0c23      	lsrs	r3, r4, #16
 8008806:	ea43 4101 	orr.w	r1, r3, r1, lsl #16
 800880a:	428a      	cmp	r2, r1
 800880c:	d907      	bls.n	800881e <__udivdi3+0xf2>
 800880e:	1949      	adds	r1, r1, r5
 8008810:	f100 33ff 	add.w	r3, r0, #4294967295
 8008814:	d202      	bcs.n	800881c <__udivdi3+0xf0>
 8008816:	428a      	cmp	r2, r1
 8008818:	f200 80bb 	bhi.w	8008992 <__udivdi3+0x266>
 800881c:	4618      	mov	r0, r3
 800881e:	1a89      	subs	r1, r1, r2
 8008820:	fbb1 f3f7 	udiv	r3, r1, r7
 8008824:	fb07 1113 	mls	r1, r7, r3, r1
 8008828:	fb0e fe03 	mul.w	lr, lr, r3
 800882c:	b2a4      	uxth	r4, r4
 800882e:	ea44 4201 	orr.w	r2, r4, r1, lsl #16
 8008832:	4596      	cmp	lr, r2
 8008834:	d908      	bls.n	8008848 <__udivdi3+0x11c>
 8008836:	1952      	adds	r2, r2, r5
 8008838:	f103 31ff 	add.w	r1, r3, #4294967295
 800883c:	f080 809b 	bcs.w	8008976 <__udivdi3+0x24a>
 8008840:	4596      	cmp	lr, r2
 8008842:	f240 8098 	bls.w	8008976 <__udivdi3+0x24a>
 8008846:	3b02      	subs	r3, #2
 8008848:	ea43 4000 	orr.w	r0, r3, r0, lsl #16
 800884c:	4631      	mov	r1, r6
 800884e:	e8bd 83f0 	ldmia.w	sp!, {r4, r5, r6, r7, r8, r9, pc}
 8008852:	2600      	movs	r6, #0
 8008854:	4630      	mov	r0, r6
 8008856:	4631      	mov	r1, r6
 8008858:	e8bd 83f0 	ldmia.w	sp!, {r4, r5, r6, r7, r8, r9, pc}
 800885c:	f1c6 0420 	rsb	r4, r6, #32
 8008860:	fa22 f504 	lsr.w	r5, r2, r4
 8008864:	40b3      	lsls	r3, r6
 8008866:	432b      	orrs	r3, r5
 8008868:	fa21 f704 	lsr.w	r7, r1, r4
 800886c:	ea4f 4813 	mov.w	r8, r3, lsr #16
 8008870:	fbb7 fcf8 	udiv	ip, r7, r8
 8008874:	fa1f f983 	uxth.w	r9, r3
 8008878:	fb08 771c 	mls	r7, r8, ip, r7
 800887c:	fa20 fe04 	lsr.w	lr, r0, r4
 8008880:	fa01 f506 	lsl.w	r5, r1, r6
 8008884:	fb09 f40c 	mul.w	r4, r9, ip
 8008888:	ea4e 0505 	orr.w	r5, lr, r5
 800888c:	ea4f 4e15 	mov.w	lr, r5, lsr #16
 8008890:	ea4e 4707 	orr.w	r7, lr, r7, lsl #16
 8008894:	42bc      	cmp	r4, r7
 8008896:	fa02 f206 	lsl.w	r2, r2, r6
 800889a:	d908      	bls.n	80088ae <__udivdi3+0x182>
 800889c:	18ff      	adds	r7, r7, r3
 800889e:	f10c 31ff 	add.w	r1, ip, #4294967295
 80088a2:	d26e      	bcs.n	8008982 <__udivdi3+0x256>
 80088a4:	42bc      	cmp	r4, r7
 80088a6:	d96c      	bls.n	8008982 <__udivdi3+0x256>
 80088a8:	f1ac 0c02 	sub.w	ip, ip, #2
 80088ac:	441f      	add	r7, r3
 80088ae:	1b3f      	subs	r7, r7, r4
 80088b0:	fbb7 f4f8 	udiv	r4, r7, r8
 80088b4:	fb08 7714 	mls	r7, r8, r4, r7
 80088b8:	fb09 f904 	mul.w	r9, r9, r4
 80088bc:	b2ad      	uxth	r5, r5
 80088be:	ea45 4107 	orr.w	r1, r5, r7, lsl #16
 80088c2:	4589      	cmp	r9, r1
 80088c4:	d907      	bls.n	80088d6 <__udivdi3+0x1aa>
 80088c6:	18c9      	adds	r1, r1, r3
 80088c8:	f104 35ff 	add.w	r5, r4, #4294967295
 80088cc:	d25b      	bcs.n	8008986 <__udivdi3+0x25a>
 80088ce:	4589      	cmp	r9, r1
 80088d0:	d959      	bls.n	8008986 <__udivdi3+0x25a>
 80088d2:	3c02      	subs	r4, #2
 80088d4:	4419      	add	r1, r3
 80088d6:	ea44 440c 	orr.w	r4, r4, ip, lsl #16
 80088da:	fba4 2302 	umull	r2, r3, r4, r2
 80088de:	ebc9 0101 	rsb	r1, r9, r1
 80088e2:	4299      	cmp	r1, r3
 80088e4:	d344      	bcc.n	8008970 <__udivdi3+0x244>
 80088e6:	d040      	beq.n	800896a <__udivdi3+0x23e>
 80088e8:	4620      	mov	r0, r4
 80088ea:	2600      	movs	r6, #0
 80088ec:	e764      	b.n	80087b8 <__udivdi3+0x8c>
 80088ee:	fa05 f50c 	lsl.w	r5, r5, ip
 80088f2:	f1cc 0220 	rsb	r2, ip, #32
 80088f6:	fa21 f302 	lsr.w	r3, r1, r2
 80088fa:	0c2f      	lsrs	r7, r5, #16
 80088fc:	fbb3 f6f7 	udiv	r6, r3, r7
 8008900:	fa1f fe85 	uxth.w	lr, r5
 8008904:	fb07 3816 	mls	r8, r7, r6, r3
 8008908:	fa20 f202 	lsr.w	r2, r0, r2
 800890c:	fa01 f10c 	lsl.w	r1, r1, ip
 8008910:	fb0e f906 	mul.w	r9, lr, r6
 8008914:	430a      	orrs	r2, r1
 8008916:	0c14      	lsrs	r4, r2, #16
 8008918:	ea44 4308 	orr.w	r3, r4, r8, lsl #16
 800891c:	4599      	cmp	r9, r3
 800891e:	fa00 f40c 	lsl.w	r4, r0, ip
 8008922:	d907      	bls.n	8008934 <__udivdi3+0x208>
 8008924:	195b      	adds	r3, r3, r5
 8008926:	f106 31ff 	add.w	r1, r6, #4294967295
 800892a:	d230      	bcs.n	800898e <__udivdi3+0x262>
 800892c:	4599      	cmp	r9, r3
 800892e:	d92e      	bls.n	800898e <__udivdi3+0x262>
 8008930:	3e02      	subs	r6, #2
 8008932:	442b      	add	r3, r5
 8008934:	ebc9 0303 	rsb	r3, r9, r3
 8008938:	fbb3 f0f7 	udiv	r0, r3, r7
 800893c:	fb07 3310 	mls	r3, r7, r0, r3
 8008940:	fb0e f100 	mul.w	r1, lr, r0
 8008944:	b292      	uxth	r2, r2
 8008946:	ea42 4303 	orr.w	r3, r2, r3, lsl #16
 800894a:	4299      	cmp	r1, r3
 800894c:	d907      	bls.n	800895e <__udivdi3+0x232>
 800894e:	195b      	adds	r3, r3, r5
 8008950:	f100 32ff 	add.w	r2, r0, #4294967295
 8008954:	d219      	bcs.n	800898a <__udivdi3+0x25e>
 8008956:	4299      	cmp	r1, r3
 8008958:	d917      	bls.n	800898a <__udivdi3+0x25e>
 800895a:	3802      	subs	r0, #2
 800895c:	442b      	add	r3, r5
 800895e:	1a59      	subs	r1, r3, r1
 8008960:	ea40 4606 	orr.w	r6, r0, r6, lsl #16
 8008964:	e748      	b.n	80087f8 <__udivdi3+0xcc>
 8008966:	4610      	mov	r0, r2
 8008968:	e70e      	b.n	8008788 <__udivdi3+0x5c>
 800896a:	40b0      	lsls	r0, r6
 800896c:	4290      	cmp	r0, r2
 800896e:	d2bb      	bcs.n	80088e8 <__udivdi3+0x1bc>
 8008970:	1e60      	subs	r0, r4, #1
 8008972:	2600      	movs	r6, #0
 8008974:	e720      	b.n	80087b8 <__udivdi3+0x8c>
 8008976:	460b      	mov	r3, r1
 8008978:	e766      	b.n	8008848 <__udivdi3+0x11c>
 800897a:	4613      	mov	r3, r2
 800897c:	e719      	b.n	80087b2 <__udivdi3+0x86>
 800897e:	4630      	mov	r0, r6
 8008980:	e71a      	b.n	80087b8 <__udivdi3+0x8c>
 8008982:	468c      	mov	ip, r1
 8008984:	e793      	b.n	80088ae <__udivdi3+0x182>
 8008986:	462c      	mov	r4, r5
 8008988:	e7a5      	b.n	80088d6 <__udivdi3+0x1aa>
 800898a:	4610      	mov	r0, r2
 800898c:	e7e7      	b.n	800895e <__udivdi3+0x232>
 800898e:	460e      	mov	r6, r1
 8008990:	e7d0      	b.n	8008934 <__udivdi3+0x208>
 8008992:	3802      	subs	r0, #2
 8008994:	4429      	add	r1, r5
 8008996:	e742      	b.n	800881e <__udivdi3+0xf2>
