Archive member included to satisfy reference by file (symbol)

/home/hedley/ada/STM32/L/L562/hash/Ada_Drivers_Library/boards/lib/stm32l5discovery_s/ravenscar-sfp/Debug/libstm32l5discovery_s.a(stm32-board.o)
                              test_s.o (stm32__board__initialize_board)
/home/hedley/ada/STM32/L/L562/hash/Ada_Drivers_Library/arch/ARM/STM32/lib/stm32l5nucleo_s/ravenscar-sfp/Debug/libstm32l5xx.a(stm32-device.o)
                              /home/hedley/ada/STM32/L/L562/hash/Ada_Drivers_Library/boards/lib/stm32l5discovery_s/ravenscar-sfp/Debug/libstm32l5discovery_s.a(stm32-board.o) (stm32__device__enable_clock__2)
/home/hedley/ada/STM32/L/L562/hash/Ada_Drivers_Library/arch/ARM/STM32/lib/stm32l5nucleo_s/ravenscar-sfp/Debug/libstm32l5xx.a(stm32-exti.o)
                              /home/hedley/ada/STM32/L/L562/hash/Ada_Drivers_Library/boards/lib/stm32l5discovery_s/ravenscar-sfp/Debug/libstm32l5discovery_s.a(stm32-board.o) (stm32__exti__enable_external_interrupt)
/home/hedley/ada/STM32/L/L562/hash/Ada_Drivers_Library/arch/ARM/STM32/lib/stm32l5nucleo_s/ravenscar-sfp/Debug/libstm32l5xx.a(stm32-gpio.o)
                              /home/hedley/ada/STM32/L/L562/hash/Ada_Drivers_Library/boards/lib/stm32l5discovery_s/ravenscar-sfp/Debug/libstm32l5discovery_s.a(stm32-board.o) (stm32__gpio__gpio_pinRP)
/home/hedley/ada/STM32/L/L562/hash/Ada_Drivers_Library/arch/ARM/STM32/lib/stm32l5nucleo_s/ravenscar-sfp/Debug/libstm32l5xx.a(stm32-hash.o)
                              test_s.o (stm32__hash__enable_hash)
/home/hedley/ada/STM32/L/L562/hash/Ada_Drivers_Library/arch/ARM/STM32/lib/stm32l5nucleo_s/ravenscar-sfp/Debug/libstm32l5xx.a(stm32-mpu.o)
                              test_s.o (stm32__mpu__add_region)
/home/hedley/ada/STM32/L/L562/hash/Ada_Drivers_Library/arch/ARM/STM32/lib/stm32l5nucleo_s/ravenscar-sfp/Debug/libstm32l5xx.a(stm32-rcc.o)
                              b__test_s.o (stm32__rcc_E)
/home/hedley/ada/STM32/L/L562/hash/Ada_Drivers_Library/arch/ARM/STM32/lib/stm32l5nucleo_s/ravenscar-sfp/Debug/libstm32l5xx.a(stm32-sau.o)
                              test_s.o (stm32__sau__all_ns)
/home/hedley/ada/STM32/L/L562/hash/Ada_Drivers_Library/arch/ARM/STM32/lib/stm32l5nucleo_s/ravenscar-sfp/Debug/libstm32l5xx.a(stm32-spi.o)
                              /home/hedley/ada/STM32/L/L562/hash/Ada_Drivers_Library/arch/ARM/STM32/lib/stm32l5nucleo_s/ravenscar-sfp/Debug/libstm32l5xx.a(stm32-device.o) (stm32__spi__spi_portIP)
/home/hedley/ada/STM32/L/L562/hash/Ada_Drivers_Library/arch/ARM/STM32/lib/stm32l5nucleo_s/ravenscar-sfp/Debug/libstm32l5xx.a(stm32-syscfg.o)
                              b__test_s.o (stm32__syscfg_E)
/home/hedley/ada/STM32/L/L562/hash/Ada_Drivers_Library/arch/ARM/STM32/lib/stm32l5nucleo_s/ravenscar-sfp/Debug/libstm32l5xx.a(stm32_svd-spi.o)
                              /home/hedley/ada/STM32/L/L562/hash/Ada_Drivers_Library/arch/ARM/STM32/lib/stm32l5nucleo_s/ravenscar-sfp/Debug/libstm32l5xx.a(stm32-spi.o) (stm32_svd__spi__sr_registerIP)
/home/hedley/ada/Ada_Drivers_Library/hal/lib/stm32l5nucleo_s/ravenscar-sfp/Debug/libHAL.a(hal-gpio.o)
                              /home/hedley/ada/STM32/L/L562/hash/Ada_Drivers_Library/arch/ARM/STM32/lib/stm32l5nucleo_s/ravenscar-sfp/Debug/libstm32l5xx.a(stm32-gpio.o) (hal__gpio__gpio_pointT)
/home/hedley/ada/Ada_Drivers_Library/hal/lib/stm32l5nucleo_s/ravenscar-sfp/Debug/libHAL.a(hal-spi.o)
                              /home/hedley/ada/STM32/L/L562/hash/Ada_Drivers_Library/arch/ARM/STM32/lib/stm32l5nucleo_s/ravenscar-sfp/Debug/libstm32l5xx.a(stm32-spi.o) (hal__spi__spi_portT)
/home/hedley/ada/STM32/L/L562/hash/Ada_Drivers_Library/embedded-runtimes/ravenscar-stm32l5nucleo_s/sfp/adalib/libgnarl.a(a-reatim.o)
                              b__test_s.o (ada__real_time___elabb)
/home/hedley/ada/STM32/L/L562/hash/Ada_Drivers_Library/embedded-runtimes/ravenscar-stm32l5nucleo_s/sfp/adalib/libgnarl.a(s-bbbosu.o)
                              /home/hedley/ada/STM32/L/L562/hash/Ada_Drivers_Library/embedded-runtimes/ravenscar-stm32l5nucleo_s/sfp/adalib/libgnarl.a(a-reatim.o) (system__bb__board_support__time__read_clock)
/home/hedley/ada/STM32/L/L562/hash/Ada_Drivers_Library/embedded-runtimes/ravenscar-stm32l5nucleo_s/sfp/adalib/libgnarl.a(s-bbcppr.o)
                              /home/hedley/ada/STM32/L/L562/hash/Ada_Drivers_Library/embedded-runtimes/ravenscar-stm32l5nucleo_s/sfp/adalib/libgnarl.a(s-bbbosu.o) (system__bb__cpu_primitives__install_trap_handler)
/home/hedley/ada/STM32/L/L562/hash/Ada_Drivers_Library/embedded-runtimes/ravenscar-stm32l5nucleo_s/sfp/adalib/libgnarl.a(s-bbinte.o)
                              /home/hedley/ada/STM32/L/L562/hash/Ada_Drivers_Library/embedded-runtimes/ravenscar-stm32l5nucleo_s/sfp/adalib/libgnarl.a(s-bbbosu.o) (system__bb__interrupts__interrupt_wrapper)
/home/hedley/ada/STM32/L/L562/hash/Ada_Drivers_Library/embedded-runtimes/ravenscar-stm32l5nucleo_s/sfp/adalib/libgnarl.a(s-bbthqu.o)
                              /home/hedley/ada/STM32/L/L562/hash/Ada_Drivers_Library/embedded-runtimes/ravenscar-stm32l5nucleo_s/sfp/adalib/libgnarl.a(s-bbinte.o) (system__bb__threads__queues__change_priority)
/home/hedley/ada/STM32/L/L562/hash/Ada_Drivers_Library/embedded-runtimes/ravenscar-stm32l5nucleo_s/sfp/adalib/libgnarl.a(s-bbtime.o)
                              /home/hedley/ada/STM32/L/L562/hash/Ada_Drivers_Library/embedded-runtimes/ravenscar-stm32l5nucleo_s/sfp/adalib/libgnarl.a(a-reatim.o) (system__bb__time__software_clock)
/home/hedley/ada/STM32/L/L562/hash/Ada_Drivers_Library/embedded-runtimes/ravenscar-stm32l5nucleo_s/sfp/adalib/libgnarl.a(s-bcpcst.o)
                              /home/hedley/ada/STM32/L/L562/hash/Ada_Drivers_Library/embedded-runtimes/ravenscar-stm32l5nucleo_s/sfp/adalib/libgnarl.a(s-bbcppr.o) (system__bb__cpu_primitives__context_switch_trigger__initialize_context_switch)
/home/hedley/ada/STM32/L/L562/hash/Ada_Drivers_Library/embedded-runtimes/ravenscar-stm32l5nucleo_s/sfp/adalib/libgnarl.a(s-taprob.o)
                              b__test_s.o (system__tasking__protected_objects___elabb)
/home/hedley/ada/STM32/L/L562/hash/Ada_Drivers_Library/embedded-runtimes/ravenscar-stm32l5nucleo_s/sfp/adalib/libgnarl.a(s-tarest.o)
                              b__test_s.o (__gnat_activate_all_tasks)
/home/hedley/ada/STM32/L/L562/hash/Ada_Drivers_Library/embedded-runtimes/ravenscar-stm32l5nucleo_s/sfp/adalib/libgnarl.a(s-tasdeb.o)
                              /home/hedley/ada/STM32/L/L562/hash/Ada_Drivers_Library/embedded-runtimes/ravenscar-stm32l5nucleo_s/sfp/adalib/libgnarl.a(s-tarest.o) (system__tasking__debug__last_task)
/home/hedley/ada/STM32/L/L562/hash/Ada_Drivers_Library/embedded-runtimes/ravenscar-stm32l5nucleo_s/sfp/adalib/libgnarl.a(s-taskin.o)
                              /home/hedley/ada/STM32/L/L562/hash/Ada_Drivers_Library/embedded-runtimes/ravenscar-stm32l5nucleo_s/sfp/adalib/libgnarl.a(s-tarest.o) (system__tasking__initialize_atcb)
/home/hedley/ada/STM32/L/L562/hash/Ada_Drivers_Library/embedded-runtimes/ravenscar-stm32l5nucleo_s/sfp/adalib/libgnarl.a(s-tpobmu.o)
                              b__test_s.o (system__tasking__protected_objects__multiprocessors___elabb)
/home/hedley/ada/STM32/L/L562/hash/Ada_Drivers_Library/embedded-runtimes/ravenscar-stm32l5nucleo_s/sfp/adalib/libgnarl.a(s-bbprot.o)
                              /home/hedley/ada/STM32/L/L562/hash/Ada_Drivers_Library/embedded-runtimes/ravenscar-stm32l5nucleo_s/sfp/adalib/libgnarl.a(s-bbtime.o) (system__bb__protection__leave_kernel)
/home/hedley/ada/STM32/L/L562/hash/Ada_Drivers_Library/embedded-runtimes/ravenscar-stm32l5nucleo_s/sfp/adalib/libgnarl.a(s-bbthre.o)
                              /home/hedley/ada/STM32/L/L562/hash/Ada_Drivers_Library/embedded-runtimes/ravenscar-stm32l5nucleo_s/sfp/adalib/libgnarl.a(s-taskin.o) (system__bb__threads__initialize)
/home/hedley/ada/STM32/L/L562/hash/Ada_Drivers_Library/embedded-runtimes/ravenscar-stm32l5nucleo_s/sfp/adalib/libgnarl.a(s-bbtiev.o)
                              /home/hedley/ada/STM32/L/L562/hash/Ada_Drivers_Library/embedded-runtimes/ravenscar-stm32l5nucleo_s/sfp/adalib/libgnarl.a(s-bbtime.o) (system__bb__timing_events__execute_expired_timing_events)
/home/hedley/ada/STM32/L/L562/hash/Ada_Drivers_Library/embedded-runtimes/ravenscar-stm32l5nucleo_s/sfp/adalib/libgnarl.a(s-taprop.o)
                              /home/hedley/ada/STM32/L/L562/hash/Ada_Drivers_Library/embedded-runtimes/ravenscar-stm32l5nucleo_s/sfp/adalib/libgnarl.a(s-tpobmu.o) (system__task_primitives__operations__get_cpu)
/home/hedley/ada/STM32/L/L562/hash/Ada_Drivers_Library/embedded-runtimes/ravenscar-stm32l5nucleo_s/sfp/adalib/libgnat.a(a-elchha.o)
                              /home/hedley/ada/STM32/L/L562/hash/Ada_Drivers_Library/boards/lib/stm32l5discovery_s/ravenscar-sfp/Debug/libstm32l5discovery_s.a(stm32-board.o) (__gnat_last_chance_handler)
/home/hedley/ada/STM32/L/L562/hash/Ada_Drivers_Library/embedded-runtimes/ravenscar-stm32l5nucleo_s/sfp/adalib/libgnat.a(a-except.o)
                              /home/hedley/ada/STM32/L/L562/hash/Ada_Drivers_Library/arch/ARM/STM32/lib/stm32l5nucleo_s/ravenscar-sfp/Debug/libstm32l5xx.a(stm32-device.o) (ada__exceptions__empty_c_string___UNC)
/home/hedley/ada/STM32/L/L562/hash/Ada_Drivers_Library/embedded-runtimes/ravenscar-stm32l5nucleo_s/sfp/adalib/libgnat.a(g-io.o)
                              /home/hedley/ada/STM32/L/L562/hash/Ada_Drivers_Library/embedded-runtimes/ravenscar-stm32l5nucleo_s/sfp/adalib/libgnat.a(a-elchha.o) (gnat__io__put__2)
/home/hedley/ada/STM32/L/L562/hash/Ada_Drivers_Library/embedded-runtimes/ravenscar-stm32l5nucleo_s/sfp/adalib/libgnat.a(handler.o)
                              /home/hedley/ada/STM32/L/L562/hash/Ada_Drivers_Library/embedded-runtimes/ravenscar-stm32l5nucleo_s/sfp/adalib/libgnarl.a(s-bbcppr.o) (__vectors)
/home/hedley/ada/STM32/L/L562/hash/Ada_Drivers_Library/embedded-runtimes/ravenscar-stm32l5nucleo_s/sfp/adalib/libgnat.a(s-assert.o)
                              /home/hedley/ada/STM32/L/L562/hash/Ada_Drivers_Library/arch/ARM/STM32/lib/stm32l5nucleo_s/ravenscar-sfp/Debug/libstm32l5xx.a(stm32-gpio.o) (system__assertions__raise_assert_failure)
/home/hedley/ada/STM32/L/L562/hash/Ada_Drivers_Library/embedded-runtimes/ravenscar-stm32l5nucleo_s/sfp/adalib/libgnat.a(s-macres.o)
                              /home/hedley/ada/STM32/L/L562/hash/Ada_Drivers_Library/embedded-runtimes/ravenscar-stm32l5nucleo_s/sfp/adalib/libgnat.a(a-elchha.o) (system__machine_reset__stop)
/home/hedley/ada/STM32/L/L562/hash/Ada_Drivers_Library/embedded-runtimes/ravenscar-stm32l5nucleo_s/sfp/adalib/libgnat.a(s-memcop.o)
                              /home/hedley/ada/STM32/L/L562/hash/Ada_Drivers_Library/arch/ARM/STM32/lib/stm32l5nucleo_s/ravenscar-sfp/Debug/libstm32l5xx.a(stm32-device.o) (memcpy)
/home/hedley/ada/STM32/L/L562/hash/Ada_Drivers_Library/embedded-runtimes/ravenscar-stm32l5nucleo_s/sfp/adalib/libgnat.a(s-memset.o)
                              /home/hedley/ada/STM32/L/L562/hash/Ada_Drivers_Library/embedded-runtimes/ravenscar-stm32l5nucleo_s/sfp/adalib/libgnarl.a(s-bbcppr.o) (memset)
/home/hedley/ada/STM32/L/L562/hash/Ada_Drivers_Library/embedded-runtimes/ravenscar-stm32l5nucleo_s/sfp/adalib/libgnat.a(s-parame.o)
                              /home/hedley/ada/STM32/L/L562/hash/Ada_Drivers_Library/embedded-runtimes/ravenscar-stm32l5nucleo_s/sfp/adalib/libgnarl.a(s-taskin.o) (system__parameters__adjust_storage_size)
/home/hedley/ada/STM32/L/L562/hash/Ada_Drivers_Library/embedded-runtimes/ravenscar-stm32l5nucleo_s/sfp/adalib/libgnat.a(s-secsta.o)
                              b__test_s.o (system__secondary_stack__ss_stackIP)
/home/hedley/ada/STM32/L/L562/hash/Ada_Drivers_Library/embedded-runtimes/ravenscar-stm32l5nucleo_s/sfp/adalib/libgnat.a(s-textio.o)
                              /home/hedley/ada/STM32/L/L562/hash/Ada_Drivers_Library/embedded-runtimes/ravenscar-stm32l5nucleo_s/sfp/adalib/libgnat.a(g-io.o) (system__text_io__initialize)
/home/hedley/ada/STM32/L/L562/hash/Ada_Drivers_Library/embedded-runtimes/ravenscar-stm32l5nucleo_s/sfp/adalib/libgnat.a(start-common.o)
                              /home/hedley/ada/STM32/L/L562/hash/Ada_Drivers_Library/arch/ARM/STM32/lib/stm32l5nucleo_s/ravenscar-sfp/Debug/libstm32l5xx.a(stm32-device.o) (secure_code)
/home/hedley/ada/STM32/L/L562/hash/Ada_Drivers_Library/embedded-runtimes/ravenscar-stm32l5nucleo_s/sfp/adalib/libgnat.a(start-ram.o)
                              (_start_ram)
/home/hedley/ada/STM32/L/L562/hash/Ada_Drivers_Library/embedded-runtimes/ravenscar-stm32l5nucleo_s/sfp/adalib/libgnat.a(setup_pll.o)
                              /home/hedley/ada/STM32/L/L562/hash/Ada_Drivers_Library/embedded-runtimes/ravenscar-stm32l5nucleo_s/sfp/adalib/libgnat.a(start-ram.o) (_ada_setup_pll)
/home/hedley/ada/STM32/L/L562/hash/Ada_Drivers_Library/embedded-runtimes/ravenscar-stm32l5nucleo_s/sfp/adalib/libgnat.a(s-bbmcpa.o)
                              /home/hedley/ada/STM32/L/L562/hash/Ada_Drivers_Library/embedded-runtimes/ravenscar-stm32l5nucleo_s/sfp/adalib/libgnat.a(setup_pll.o) (system__bb__mcu_parameters__pwr_initialize)
/opt/GNAT/2019-arm-elf/bin/../lib/gcc/arm-eabi/7.4.1/thumb/v7e-m/fpv4-sp/hard/libgcc.a(_aeabi_ldivmod.o)
                              /home/hedley/ada/STM32/L/L562/hash/Ada_Drivers_Library/embedded-runtimes/ravenscar-stm32l5nucleo_s/sfp/adalib/libgnarl.a(a-reatim.o) (__aeabi_ldivmod)
/opt/GNAT/2019-arm-elf/bin/../lib/gcc/arm-eabi/7.4.1/thumb/v7e-m/fpv4-sp/hard/libgcc.a(_aeabi_uldivmod.o)
                              /home/hedley/ada/STM32/L/L562/hash/Ada_Drivers_Library/embedded-runtimes/ravenscar-stm32l5nucleo_s/sfp/adalib/libgnarl.a(a-reatim.o) (__aeabi_uldivmod)
/opt/GNAT/2019-arm-elf/bin/../lib/gcc/arm-eabi/7.4.1/thumb/v7e-m/fpv4-sp/hard/libgcc.a(_udivmoddi4.o)
                              /opt/GNAT/2019-arm-elf/bin/../lib/gcc/arm-eabi/7.4.1/thumb/v7e-m/fpv4-sp/hard/libgcc.a(_aeabi_ldivmod.o) (__udivmoddi4)
/opt/GNAT/2019-arm-elf/bin/../lib/gcc/arm-eabi/7.4.1/thumb/v7e-m/fpv4-sp/hard/libgcc.a(_dvmd_tls.o)
                              /opt/GNAT/2019-arm-elf/bin/../lib/gcc/arm-eabi/7.4.1/thumb/v7e-m/fpv4-sp/hard/libgcc.a(_aeabi_ldivmod.o) (__aeabi_ldiv0)

Discarded input sections

 .text          0x0000000000000000        0x0 test_s.o
 .data          0x0000000000000000        0x0 test_s.o
 .bss           0x0000000000000000        0x0 test_s.o
 .rodata.test1.5461
                0x0000000000000000        0x4 test_s.o
 .rodata.dev.5489
                0x0000000000000000        0x1 test_s.o
 .rodata.ram.5488
                0x0000000000000000        0x1 test_s.o
 .text          0x0000000000000000        0x0 b__test_s.o
 .data          0x0000000000000000        0x0 b__test_s.o
 .bss           0x0000000000000000        0x0 b__test_s.o
 .data.ada_main_E
                0x0000000000000000        0x2 b__test_s.o
 .rodata.__gnat_version
                0x0000000000000000       0x2b b__test_s.o
 .text          0x0000000000000000        0x0 /home/hedley/ada/STM32/L/L562/hash/Ada_Drivers_Library/boards/lib/stm32l5discovery_s/ravenscar-sfp/Debug/libstm32l5discovery_s.a(stm32-board.o)
 .data          0x0000000000000000        0x0 /home/hedley/ada/STM32/L/L562/hash/Ada_Drivers_Library/boards/lib/stm32l5discovery_s/ravenscar-sfp/Debug/libstm32l5discovery_s.a(stm32-board.o)
 .bss           0x0000000000000000        0x0 /home/hedley/ada/STM32/L/L562/hash/Ada_Drivers_Library/boards/lib/stm32l5discovery_s/ravenscar-sfp/Debug/libstm32l5discovery_s.a(stm32-board.o)
 .text.stm32__board__all_leds_off
                0x0000000000000000       0x10 /home/hedley/ada/STM32/L/L562/hash/Ada_Drivers_Library/boards/lib/stm32l5discovery_s/ravenscar-sfp/Debug/libstm32l5discovery_s.a(stm32-board.o)
 .rodata.stm32__board__red_led
                0x0000000000000000        0x4 /home/hedley/ada/STM32/L/L562/hash/Ada_Drivers_Library/boards/lib/stm32l5discovery_s/ravenscar-sfp/Debug/libstm32l5discovery_s.a(stm32-board.o)
 .rodata.stm32__board__green_led
                0x0000000000000000        0x4 /home/hedley/ada/STM32/L/L562/hash/Ada_Drivers_Library/boards/lib/stm32l5discovery_s/ravenscar-sfp/Debug/libstm32l5discovery_s.a(stm32-board.o)
 .rodata.stm32__board__leds
                0x0000000000000000        0x4 /home/hedley/ada/STM32/L/L562/hash/Ada_Drivers_Library/boards/lib/stm32l5discovery_s/ravenscar-sfp/Debug/libstm32l5discovery_s.a(stm32-board.o)
 .rodata.stm32__board__user_button
                0x0000000000000000        0x4 /home/hedley/ada/STM32/L/L562/hash/Ada_Drivers_Library/boards/lib/stm32l5discovery_s/ravenscar-sfp/Debug/libstm32l5discovery_s.a(stm32-board.o)
 .rodata.stm32__board__lch_led
                0x0000000000000000        0x4 /home/hedley/ada/STM32/L/L562/hash/Ada_Drivers_Library/boards/lib/stm32l5discovery_s/ravenscar-sfp/Debug/libstm32l5discovery_s.a(stm32-board.o)
 .text          0x0000000000000000        0x0 /home/hedley/ada/STM32/L/L562/hash/Ada_Drivers_Library/arch/ARM/STM32/lib/stm32l5nucleo_s/ravenscar-sfp/Debug/libstm32l5xx.a(stm32-device.o)
 .data          0x0000000000000000        0x0 /home/hedley/ada/STM32/L/L562/hash/Ada_Drivers_Library/arch/ARM/STM32/lib/stm32l5nucleo_s/ravenscar-sfp/Debug/libstm32l5xx.a(stm32-device.o)
 .bss           0x0000000000000000        0x0 /home/hedley/ada/STM32/L/L562/hash/Ada_Drivers_Library/arch/ARM/STM32/lib/stm32l5nucleo_s/ravenscar-sfp/Debug/libstm32l5xx.a(stm32-device.o)
 .text.stm32__device__disable_clock
                0x0000000000000000      0x2bc /home/hedley/ada/STM32/L/L562/hash/Ada_Drivers_Library/arch/ARM/STM32/lib/stm32l5nucleo_s/ravenscar-sfp/Debug/libstm32l5xx.a(stm32-device.o)
 .text.stm32__device__disable_clock__2
                0x0000000000000000       0x2c /home/hedley/ada/STM32/L/L562/hash/Ada_Drivers_Library/arch/ARM/STM32/lib/stm32l5nucleo_s/ravenscar-sfp/Debug/libstm32l5xx.a(stm32-device.o)
 .text.stm32__device__disable_clock__3
                0x0000000000000000       0x78 /home/hedley/ada/STM32/L/L562/hash/Ada_Drivers_Library/arch/ARM/STM32/lib/stm32l5nucleo_s/ravenscar-sfp/Debug/libstm32l5xx.a(stm32-device.o)
 .text.stm32__device__reset
                0x0000000000000000      0x2bc /home/hedley/ada/STM32/L/L562/hash/Ada_Drivers_Library/arch/ARM/STM32/lib/stm32l5nucleo_s/ravenscar-sfp/Debug/libstm32l5xx.a(stm32-device.o)
 .text.stm32__device__reset__2
                0x0000000000000000       0x2c /home/hedley/ada/STM32/L/L562/hash/Ada_Drivers_Library/arch/ARM/STM32/lib/stm32l5nucleo_s/ravenscar-sfp/Debug/libstm32l5xx.a(stm32-device.o)
 .text.stm32__device__reset__3
                0x0000000000000000      0x104 /home/hedley/ada/STM32/L/L562/hash/Ada_Drivers_Library/arch/ARM/STM32/lib/stm32l5nucleo_s/ravenscar-sfp/Debug/libstm32l5xx.a(stm32-device.o)
 .text.stm32__device__gpio_port_representation
                0x0000000000000000       0x8c /home/hedley/ada/STM32/L/L562/hash/Ada_Drivers_Library/arch/ARM/STM32/lib/stm32l5nucleo_s/ravenscar-sfp/Debug/libstm32l5xx.a(stm32-device.o)
 .text.stm32__device__enable_clock__4
                0x0000000000000000      0x20c /home/hedley/ada/STM32/L/L562/hash/Ada_Drivers_Library/arch/ARM/STM32/lib/stm32l5nucleo_s/ravenscar-sfp/Debug/libstm32l5xx.a(stm32-device.o)
 .text.stm32__device__reset__4
                0x0000000000000000      0x248 /home/hedley/ada/STM32/L/L562/hash/Ada_Drivers_Library/arch/ARM/STM32/lib/stm32l5nucleo_s/ravenscar-sfp/Debug/libstm32l5xx.a(stm32-device.o)
 .rodata.stm32__device__unknown_deviceE
                0x0000000000000000       0x1c /home/hedley/ada/STM32/L/L562/hash/Ada_Drivers_Library/arch/ARM/STM32/lib/stm32l5nucleo_s/ravenscar-sfp/Debug/libstm32l5xx.a(stm32-device.o)
 .rodata.stm32__device__R2s
                0x0000000000000000        0x4 /home/hedley/ada/STM32/L/L562/hash/Ada_Drivers_Library/arch/ARM/STM32/lib/stm32l5nucleo_s/ravenscar-sfp/Debug/libstm32l5xx.a(stm32-device.o)
 .data.stm32__device__unknown_device
                0x0000000000000000       0x18 /home/hedley/ada/STM32/L/L562/hash/Ada_Drivers_Library/arch/ARM/STM32/lib/stm32l5nucleo_s/ravenscar-sfp/Debug/libstm32l5xx.a(stm32-device.o)
 .rodata.stm32__device__gpio_af_rtc_50hz_0
                0x0000000000000000        0x1 /home/hedley/ada/STM32/L/L562/hash/Ada_Drivers_Library/arch/ARM/STM32/lib/stm32l5nucleo_s/ravenscar-sfp/Debug/libstm32l5xx.a(stm32-device.o)
 .rodata.stm32__device__gpio_af_mco_0
                0x0000000000000000        0x1 /home/hedley/ada/STM32/L/L562/hash/Ada_Drivers_Library/arch/ARM/STM32/lib/stm32l5nucleo_s/ravenscar-sfp/Debug/libstm32l5xx.a(stm32-device.o)
 .rodata.stm32__device__gpio_af_tamper_0
                0x0000000000000000        0x1 /home/hedley/ada/STM32/L/L562/hash/Ada_Drivers_Library/arch/ARM/STM32/lib/stm32l5nucleo_s/ravenscar-sfp/Debug/libstm32l5xx.a(stm32-device.o)
 .rodata.stm32__device__gpio_af_swj_0
                0x0000000000000000        0x1 /home/hedley/ada/STM32/L/L562/hash/Ada_Drivers_Library/arch/ARM/STM32/lib/stm32l5nucleo_s/ravenscar-sfp/Debug/libstm32l5xx.a(stm32-device.o)
 .rodata.stm32__device__gpio_af_trace_0
                0x0000000000000000        0x1 /home/hedley/ada/STM32/L/L562/hash/Ada_Drivers_Library/arch/ARM/STM32/lib/stm32l5nucleo_s/ravenscar-sfp/Debug/libstm32l5xx.a(stm32-device.o)
 .rodata.stm32__device__gpio_af_tim1_1
                0x0000000000000000        0x1 /home/hedley/ada/STM32/L/L562/hash/Ada_Drivers_Library/arch/ARM/STM32/lib/stm32l5nucleo_s/ravenscar-sfp/Debug/libstm32l5xx.a(stm32-device.o)
 .rodata.stm32__device__gpio_af_tim2_1
                0x0000000000000000        0x1 /home/hedley/ada/STM32/L/L562/hash/Ada_Drivers_Library/arch/ARM/STM32/lib/stm32l5nucleo_s/ravenscar-sfp/Debug/libstm32l5xx.a(stm32-device.o)
 .rodata.stm32__device__gpio_af_tim3_2
                0x0000000000000000        0x1 /home/hedley/ada/STM32/L/L562/hash/Ada_Drivers_Library/arch/ARM/STM32/lib/stm32l5nucleo_s/ravenscar-sfp/Debug/libstm32l5xx.a(stm32-device.o)
 .rodata.stm32__device__gpio_af_tim4_2
                0x0000000000000000        0x1 /home/hedley/ada/STM32/L/L562/hash/Ada_Drivers_Library/arch/ARM/STM32/lib/stm32l5nucleo_s/ravenscar-sfp/Debug/libstm32l5xx.a(stm32-device.o)
 .rodata.stm32__device__gpio_af_tim5_2
                0x0000000000000000        0x1 /home/hedley/ada/STM32/L/L562/hash/Ada_Drivers_Library/arch/ARM/STM32/lib/stm32l5nucleo_s/ravenscar-sfp/Debug/libstm32l5xx.a(stm32-device.o)
 .rodata.stm32__device__gpio_af_tim8_3
                0x0000000000000000        0x1 /home/hedley/ada/STM32/L/L562/hash/Ada_Drivers_Library/arch/ARM/STM32/lib/stm32l5nucleo_s/ravenscar-sfp/Debug/libstm32l5xx.a(stm32-device.o)
 .rodata.stm32__device__gpio_af_tim9_3
                0x0000000000000000        0x1 /home/hedley/ada/STM32/L/L562/hash/Ada_Drivers_Library/arch/ARM/STM32/lib/stm32l5nucleo_s/ravenscar-sfp/Debug/libstm32l5xx.a(stm32-device.o)
 .rodata.stm32__device__gpio_af_tim10_3
                0x0000000000000000        0x1 /home/hedley/ada/STM32/L/L562/hash/Ada_Drivers_Library/arch/ARM/STM32/lib/stm32l5nucleo_s/ravenscar-sfp/Debug/libstm32l5xx.a(stm32-device.o)
 .rodata.stm32__device__gpio_af_tim11_3
                0x0000000000000000        0x1 /home/hedley/ada/STM32/L/L562/hash/Ada_Drivers_Library/arch/ARM/STM32/lib/stm32l5nucleo_s/ravenscar-sfp/Debug/libstm32l5xx.a(stm32-device.o)
 .rodata.stm32__device__gpio_af_i2c1_4
                0x0000000000000000        0x1 /home/hedley/ada/STM32/L/L562/hash/Ada_Drivers_Library/arch/ARM/STM32/lib/stm32l5nucleo_s/ravenscar-sfp/Debug/libstm32l5xx.a(stm32-device.o)
 .rodata.stm32__device__gpio_af_i2c2_4
                0x0000000000000000        0x1 /home/hedley/ada/STM32/L/L562/hash/Ada_Drivers_Library/arch/ARM/STM32/lib/stm32l5nucleo_s/ravenscar-sfp/Debug/libstm32l5xx.a(stm32-device.o)
 .rodata.stm32__device__gpio_af_i2c3_4
                0x0000000000000000        0x1 /home/hedley/ada/STM32/L/L562/hash/Ada_Drivers_Library/arch/ARM/STM32/lib/stm32l5nucleo_s/ravenscar-sfp/Debug/libstm32l5xx.a(stm32-device.o)
 .rodata.stm32__device__gpio_af_spi1_5
                0x0000000000000000        0x1 /home/hedley/ada/STM32/L/L562/hash/Ada_Drivers_Library/arch/ARM/STM32/lib/stm32l5nucleo_s/ravenscar-sfp/Debug/libstm32l5xx.a(stm32-device.o)
 .rodata.stm32__device__gpio_af_spi2_5
                0x0000000000000000        0x1 /home/hedley/ada/STM32/L/L562/hash/Ada_Drivers_Library/arch/ARM/STM32/lib/stm32l5nucleo_s/ravenscar-sfp/Debug/libstm32l5xx.a(stm32-device.o)
 .rodata.stm32__device__gpio_af_i2s2_5
                0x0000000000000000        0x1 /home/hedley/ada/STM32/L/L562/hash/Ada_Drivers_Library/arch/ARM/STM32/lib/stm32l5nucleo_s/ravenscar-sfp/Debug/libstm32l5xx.a(stm32-device.o)
 .rodata.stm32__device__gpio_af_i2s2ext_5
                0x0000000000000000        0x1 /home/hedley/ada/STM32/L/L562/hash/Ada_Drivers_Library/arch/ARM/STM32/lib/stm32l5nucleo_s/ravenscar-sfp/Debug/libstm32l5xx.a(stm32-device.o)
 .rodata.stm32__device__gpio_af_spi3_6
                0x0000000000000000        0x1 /home/hedley/ada/STM32/L/L562/hash/Ada_Drivers_Library/arch/ARM/STM32/lib/stm32l5nucleo_s/ravenscar-sfp/Debug/libstm32l5xx.a(stm32-device.o)
 .rodata.stm32__device__gpio_af_i2s3_6
                0x0000000000000000        0x1 /home/hedley/ada/STM32/L/L562/hash/Ada_Drivers_Library/arch/ARM/STM32/lib/stm32l5nucleo_s/ravenscar-sfp/Debug/libstm32l5xx.a(stm32-device.o)
 .rodata.stm32__device__gpio_af_i2sext_6
                0x0000000000000000        0x1 /home/hedley/ada/STM32/L/L562/hash/Ada_Drivers_Library/arch/ARM/STM32/lib/stm32l5nucleo_s/ravenscar-sfp/Debug/libstm32l5xx.a(stm32-device.o)
 .rodata.stm32__device__gpio_af_i2s3ext_7
                0x0000000000000000        0x1 /home/hedley/ada/STM32/L/L562/hash/Ada_Drivers_Library/arch/ARM/STM32/lib/stm32l5nucleo_s/ravenscar-sfp/Debug/libstm32l5xx.a(stm32-device.o)
 .rodata.stm32__device__gpio_af_usart1_7
                0x0000000000000000        0x1 /home/hedley/ada/STM32/L/L562/hash/Ada_Drivers_Library/arch/ARM/STM32/lib/stm32l5nucleo_s/ravenscar-sfp/Debug/libstm32l5xx.a(stm32-device.o)
 .rodata.stm32__device__gpio_af_usart2_7
                0x0000000000000000        0x1 /home/hedley/ada/STM32/L/L562/hash/Ada_Drivers_Library/arch/ARM/STM32/lib/stm32l5nucleo_s/ravenscar-sfp/Debug/libstm32l5xx.a(stm32-device.o)
 .rodata.stm32__device__gpio_af_usart3_7
                0x0000000000000000        0x1 /home/hedley/ada/STM32/L/L562/hash/Ada_Drivers_Library/arch/ARM/STM32/lib/stm32l5nucleo_s/ravenscar-sfp/Debug/libstm32l5xx.a(stm32-device.o)
 .rodata.stm32__device__gpio_af_uart4_8
                0x0000000000000000        0x1 /home/hedley/ada/STM32/L/L562/hash/Ada_Drivers_Library/arch/ARM/STM32/lib/stm32l5nucleo_s/ravenscar-sfp/Debug/libstm32l5xx.a(stm32-device.o)
 .rodata.stm32__device__gpio_af_uart5_8
                0x0000000000000000        0x1 /home/hedley/ada/STM32/L/L562/hash/Ada_Drivers_Library/arch/ARM/STM32/lib/stm32l5nucleo_s/ravenscar-sfp/Debug/libstm32l5xx.a(stm32-device.o)
 .rodata.stm32__device__gpio_af_usart6_8
                0x0000000000000000        0x1 /home/hedley/ada/STM32/L/L562/hash/Ada_Drivers_Library/arch/ARM/STM32/lib/stm32l5nucleo_s/ravenscar-sfp/Debug/libstm32l5xx.a(stm32-device.o)
 .rodata.stm32__device__gpio_af_can1_9
                0x0000000000000000        0x1 /home/hedley/ada/STM32/L/L562/hash/Ada_Drivers_Library/arch/ARM/STM32/lib/stm32l5nucleo_s/ravenscar-sfp/Debug/libstm32l5xx.a(stm32-device.o)
 .rodata.stm32__device__gpio_af_can2_9
                0x0000000000000000        0x1 /home/hedley/ada/STM32/L/L562/hash/Ada_Drivers_Library/arch/ARM/STM32/lib/stm32l5nucleo_s/ravenscar-sfp/Debug/libstm32l5xx.a(stm32-device.o)
 .rodata.stm32__device__gpio_af_tim12_9
                0x0000000000000000        0x1 /home/hedley/ada/STM32/L/L562/hash/Ada_Drivers_Library/arch/ARM/STM32/lib/stm32l5nucleo_s/ravenscar-sfp/Debug/libstm32l5xx.a(stm32-device.o)
 .rodata.stm32__device__gpio_af_tim13_9
                0x0000000000000000        0x1 /home/hedley/ada/STM32/L/L562/hash/Ada_Drivers_Library/arch/ARM/STM32/lib/stm32l5nucleo_s/ravenscar-sfp/Debug/libstm32l5xx.a(stm32-device.o)
 .rodata.stm32__device__gpio_af_tim14_9
                0x0000000000000000        0x1 /home/hedley/ada/STM32/L/L562/hash/Ada_Drivers_Library/arch/ARM/STM32/lib/stm32l5nucleo_s/ravenscar-sfp/Debug/libstm32l5xx.a(stm32-device.o)
 .rodata.stm32__device__gpio_af_otg_fs_10
                0x0000000000000000        0x1 /home/hedley/ada/STM32/L/L562/hash/Ada_Drivers_Library/arch/ARM/STM32/lib/stm32l5nucleo_s/ravenscar-sfp/Debug/libstm32l5xx.a(stm32-device.o)
 .rodata.stm32__device__gpio_af_otg_hs_10
                0x0000000000000000        0x1 /home/hedley/ada/STM32/L/L562/hash/Ada_Drivers_Library/arch/ARM/STM32/lib/stm32l5nucleo_s/ravenscar-sfp/Debug/libstm32l5xx.a(stm32-device.o)
 .rodata.stm32__device__gpio_af_eth_11
                0x0000000000000000        0x1 /home/hedley/ada/STM32/L/L562/hash/Ada_Drivers_Library/arch/ARM/STM32/lib/stm32l5nucleo_s/ravenscar-sfp/Debug/libstm32l5xx.a(stm32-device.o)
 .rodata.stm32__device__gpio_af_fmc_12
                0x0000000000000000        0x1 /home/hedley/ada/STM32/L/L562/hash/Ada_Drivers_Library/arch/ARM/STM32/lib/stm32l5nucleo_s/ravenscar-sfp/Debug/libstm32l5xx.a(stm32-device.o)
 .rodata.stm32__device__gpio_af_otg_fs_12
                0x0000000000000000        0x1 /home/hedley/ada/STM32/L/L562/hash/Ada_Drivers_Library/arch/ARM/STM32/lib/stm32l5nucleo_s/ravenscar-sfp/Debug/libstm32l5xx.a(stm32-device.o)
 .rodata.stm32__device__gpio_af_dcmi_13
                0x0000000000000000        0x1 /home/hedley/ada/STM32/L/L562/hash/Ada_Drivers_Library/arch/ARM/STM32/lib/stm32l5nucleo_s/ravenscar-sfp/Debug/libstm32l5xx.a(stm32-device.o)
 .rodata.stm32__device__gpio_af_eventout_15
                0x0000000000000000        0x1 /home/hedley/ada/STM32/L/L562/hash/Ada_Drivers_Library/arch/ARM/STM32/lib/stm32l5nucleo_s/ravenscar-sfp/Debug/libstm32l5xx.a(stm32-device.o)
 .text          0x0000000000000000        0x0 /home/hedley/ada/STM32/L/L562/hash/Ada_Drivers_Library/arch/ARM/STM32/lib/stm32l5nucleo_s/ravenscar-sfp/Debug/libstm32l5xx.a(stm32-exti.o)
 .data          0x0000000000000000        0x0 /home/hedley/ada/STM32/L/L562/hash/Ada_Drivers_Library/arch/ARM/STM32/lib/stm32l5nucleo_s/ravenscar-sfp/Debug/libstm32l5xx.a(stm32-exti.o)
 .bss           0x0000000000000000        0x0 /home/hedley/ada/STM32/L/L562/hash/Ada_Drivers_Library/arch/ARM/STM32/lib/stm32l5nucleo_s/ravenscar-sfp/Debug/libstm32l5xx.a(stm32-exti.o)
 .text.stm32__exti__disable_external_interrupt
                0x0000000000000000      0x198 /home/hedley/ada/STM32/L/L562/hash/Ada_Drivers_Library/arch/ARM/STM32/lib/stm32l5nucleo_s/ravenscar-sfp/Debug/libstm32l5xx.a(stm32-exti.o)
 .text.stm32__exti__disable_external_event
                0x0000000000000000       0xe0 /home/hedley/ada/STM32/L/L562/hash/Ada_Drivers_Library/arch/ARM/STM32/lib/stm32l5nucleo_s/ravenscar-sfp/Debug/libstm32l5xx.a(stm32-exti.o)
 .text.stm32__exti__generate_swi
                0x0000000000000000       0x60 /home/hedley/ada/STM32/L/L562/hash/Ada_Drivers_Library/arch/ARM/STM32/lib/stm32l5nucleo_s/ravenscar-sfp/Debug/libstm32l5xx.a(stm32-exti.o)
 .text.stm32__exti__external_interrupt_pending
                0x0000000000000000       0x7c /home/hedley/ada/STM32/L/L562/hash/Ada_Drivers_Library/arch/ARM/STM32/lib/stm32l5nucleo_s/ravenscar-sfp/Debug/libstm32l5xx.a(stm32-exti.o)
 .text.stm32__exti__clear_external_interrupt
                0x0000000000000000       0xbc /home/hedley/ada/STM32/L/L562/hash/Ada_Drivers_Library/arch/ARM/STM32/lib/stm32l5nucleo_s/ravenscar-sfp/Debug/libstm32l5xx.a(stm32-exti.o)
 .rodata.stm32__exti__external_triggersS
                0x0000000000000000       0x84 /home/hedley/ada/STM32/L/L562/hash/Ada_Drivers_Library/arch/ARM/STM32/lib/stm32l5nucleo_s/ravenscar-sfp/Debug/libstm32l5xx.a(stm32-exti.o)
 .rodata.stm32__exti__external_triggersN
                0x0000000000000000        0xe /home/hedley/ada/STM32/L/L562/hash/Ada_Drivers_Library/arch/ARM/STM32/lib/stm32l5nucleo_s/ravenscar-sfp/Debug/libstm32l5xx.a(stm32-exti.o)
 .rodata.stm32__exti__external_line_numberS
                0x0000000000000000      0x10a /home/hedley/ada/STM32/L/L562/hash/Ada_Drivers_Library/arch/ARM/STM32/lib/stm32l5nucleo_s/ravenscar-sfp/Debug/libstm32l5xx.a(stm32-exti.o)
 .rodata.stm32__exti__external_line_numberN
                0x0000000000000000       0x30 /home/hedley/ada/STM32/L/L562/hash/Ada_Drivers_Library/arch/ARM/STM32/lib/stm32l5nucleo_s/ravenscar-sfp/Debug/libstm32l5xx.a(stm32-exti.o)
 .text          0x0000000000000000        0x0 /home/hedley/ada/STM32/L/L562/hash/Ada_Drivers_Library/arch/ARM/STM32/lib/stm32l5nucleo_s/ravenscar-sfp/Debug/libstm32l5xx.a(stm32-gpio.o)
 .data          0x0000000000000000        0x0 /home/hedley/ada/STM32/L/L562/hash/Ada_Drivers_Library/arch/ARM/STM32/lib/stm32l5nucleo_s/ravenscar-sfp/Debug/libstm32l5xx.a(stm32-gpio.o)
 .bss           0x0000000000000000        0x0 /home/hedley/ada/STM32/L/L562/hash/Ada_Drivers_Library/arch/ARM/STM32/lib/stm32l5nucleo_s/ravenscar-sfp/Debug/libstm32l5xx.a(stm32-gpio.o)
 .text.stm32__gpio__gpio_pinsIP
                0x0000000000000000       0x14 /home/hedley/ada/STM32/L/L562/hash/Ada_Drivers_Library/arch/ARM/STM32/lib/stm32l5nucleo_s/ravenscar-sfp/Debug/libstm32l5xx.a(stm32-gpio.o)
 .text.stm32__gpio__gpio_portEQ
                0x0000000000000000       0x18 /home/hedley/ada/STM32/L/L562/hash/Ada_Drivers_Library/arch/ARM/STM32/lib/stm32l5nucleo_s/ravenscar-sfp/Debug/libstm32l5xx.a(stm32-gpio.o)
 .text.stm32__gpio__gpio_port_configurationIP
                0x0000000000000000       0x14 /home/hedley/ada/STM32/L/L562/hash/Ada_Drivers_Library/arch/ARM/STM32/lib/stm32l5nucleo_s/ravenscar-sfp/Debug/libstm32l5xx.a(stm32-gpio.o)
 .text.stm32__gpio__any_set
                0x0000000000000000       0x60 /home/hedley/ada/STM32/L/L562/hash/Ada_Drivers_Library/arch/ARM/STM32/lib/stm32l5nucleo_s/ravenscar-sfp/Debug/libstm32l5xx.a(stm32-gpio.o)
 .text.stm32__gpio__all_set
                0x0000000000000000       0x68 /home/hedley/ada/STM32/L/L562/hash/Ada_Drivers_Library/arch/ARM/STM32/lib/stm32l5nucleo_s/ravenscar-sfp/Debug/libstm32l5xx.a(stm32-gpio.o)
 .text.stm32__gpio__set__4
                0x0000000000000000       0x50 /home/hedley/ada/STM32/L/L562/hash/Ada_Drivers_Library/arch/ARM/STM32/lib/stm32l5nucleo_s/ravenscar-sfp/Debug/libstm32l5xx.a(stm32-gpio.o)
 .text.stm32__gpio__clear__2
                0x0000000000000000       0x50 /home/hedley/ada/STM32/L/L562/hash/Ada_Drivers_Library/arch/ARM/STM32/lib/stm32l5nucleo_s/ravenscar-sfp/Debug/libstm32l5xx.a(stm32-gpio.o)
 .text.stm32__gpio__toggle__2
                0x0000000000000000       0x50 /home/hedley/ada/STM32/L/L562/hash/Ada_Drivers_Library/arch/ARM/STM32/lib/stm32l5nucleo_s/ravenscar-sfp/Debug/libstm32l5xx.a(stm32-gpio.o)
 .text.stm32__gpio__lock__2
                0x0000000000000000       0x74 /home/hedley/ada/STM32/L/L562/hash/Ada_Drivers_Library/arch/ARM/STM32/lib/stm32l5nucleo_s/ravenscar-sfp/Debug/libstm32l5xx.a(stm32-gpio.o)
 .text.stm32__gpio__configure_alternate_function__2
                0x0000000000000000       0x58 /home/hedley/ada/STM32/L/L562/hash/Ada_Drivers_Library/arch/ARM/STM32/lib/stm32l5nucleo_s/ravenscar-sfp/Debug/libstm32l5xx.a(stm32-gpio.o)
 .text.stm32__gpio__configure_trigger__2
                0x0000000000000000       0x60 /home/hedley/ada/STM32/L/L562/hash/Ada_Drivers_Library/arch/ARM/STM32/lib/stm32l5nucleo_s/ravenscar-sfp/Debug/libstm32l5xx.a(stm32-gpio.o)
 .rodata.stm32__gpio__gpio_pinS
                0x0000000000000000       0x56 /home/hedley/ada/STM32/L/L562/hash/Ada_Drivers_Library/arch/ARM/STM32/lib/stm32l5nucleo_s/ravenscar-sfp/Debug/libstm32l5xx.a(stm32-gpio.o)
 .rodata.stm32__gpio__gpio_pinN
                0x0000000000000000       0x11 /home/hedley/ada/STM32/L/L562/hash/Ada_Drivers_Library/arch/ARM/STM32/lib/stm32l5nucleo_s/ravenscar-sfp/Debug/libstm32l5xx.a(stm32-gpio.o)
 .rodata.stm32__gpio__gpio_pinA
                0x0000000000000000       0x20 /home/hedley/ada/STM32/L/L562/hash/Ada_Drivers_Library/arch/ARM/STM32/lib/stm32l5nucleo_s/ravenscar-sfp/Debug/libstm32l5xx.a(stm32-gpio.o)
 .rodata.stm32__gpio__all_pins
                0x0000000000000000       0x20 /home/hedley/ada/STM32/L/L562/hash/Ada_Drivers_Library/arch/ARM/STM32/lib/stm32l5nucleo_s/ravenscar-sfp/Debug/libstm32l5xx.a(stm32-gpio.o)
 .rodata.stm32__gpio__pin_output_speedsS
                0x0000000000000000       0x2c /home/hedley/ada/STM32/L/L562/hash/Ada_Drivers_Library/arch/ARM/STM32/lib/stm32l5nucleo_s/ravenscar-sfp/Debug/libstm32l5xx.a(stm32-gpio.o)
 .rodata.stm32__gpio__pin_output_speedsN
                0x0000000000000000        0x8 /home/hedley/ada/STM32/L/L562/hash/Ada_Drivers_Library/arch/ARM/STM32/lib/stm32l5nucleo_s/ravenscar-sfp/Debug/libstm32l5xx.a(stm32-gpio.o)
 .rodata.stm32__gpio__speed_low
                0x0000000000000000        0x1 /home/hedley/ada/STM32/L/L562/hash/Ada_Drivers_Library/arch/ARM/STM32/lib/stm32l5nucleo_s/ravenscar-sfp/Debug/libstm32l5xx.a(stm32-gpio.o)
 .rodata.stm32__gpio__speed_medium
                0x0000000000000000        0x1 /home/hedley/ada/STM32/L/L562/hash/Ada_Drivers_Library/arch/ARM/STM32/lib/stm32l5nucleo_s/ravenscar-sfp/Debug/libstm32l5xx.a(stm32-gpio.o)
 .rodata.stm32__gpio__speed_high
                0x0000000000000000        0x1 /home/hedley/ada/STM32/L/L562/hash/Ada_Drivers_Library/arch/ARM/STM32/lib/stm32l5nucleo_s/ravenscar-sfp/Debug/libstm32l5xx.a(stm32-gpio.o)
 .rodata.stm32__gpio__speed_very_high
                0x0000000000000000        0x1 /home/hedley/ada/STM32/L/L562/hash/Ada_Drivers_Library/arch/ARM/STM32/lib/stm32l5nucleo_s/ravenscar-sfp/Debug/libstm32l5xx.a(stm32-gpio.o)
 .rodata.stm32__gpio__lcck
                0x0000000000000000        0x4 /home/hedley/ada/STM32/L/L562/hash/Ada_Drivers_Library/arch/ARM/STM32/lib/stm32l5nucleo_s/ravenscar-sfp/Debug/libstm32l5xx.a(stm32-gpio.o)
 .rodata.stm32__gpio__pin_io_modesS
                0x0000000000000000       0x21 /home/hedley/ada/STM32/L/L562/hash/Ada_Drivers_Library/arch/ARM/STM32/lib/stm32l5nucleo_s/ravenscar-sfp/Debug/libstm32l5xx.a(stm32-gpio.o)
 .rodata.stm32__gpio__pin_io_modesN
                0x0000000000000000        0x8 /home/hedley/ada/STM32/L/L562/hash/Ada_Drivers_Library/arch/ARM/STM32/lib/stm32l5nucleo_s/ravenscar-sfp/Debug/libstm32l5xx.a(stm32-gpio.o)
 .rodata.stm32__gpio__pin_output_typesS
                0x0000000000000000       0x13 /home/hedley/ada/STM32/L/L562/hash/Ada_Drivers_Library/arch/ARM/STM32/lib/stm32l5nucleo_s/ravenscar-sfp/Debug/libstm32l5xx.a(stm32-gpio.o)
 .rodata.stm32__gpio__pin_output_typesN
                0x0000000000000000        0x4 /home/hedley/ada/STM32/L/L562/hash/Ada_Drivers_Library/arch/ARM/STM32/lib/stm32l5nucleo_s/ravenscar-sfp/Debug/libstm32l5xx.a(stm32-gpio.o)
 .rodata.stm32__gpio__internal_pin_resistorsS
                0x0000000000000000       0x18 /home/hedley/ada/STM32/L/L562/hash/Ada_Drivers_Library/arch/ARM/STM32/lib/stm32l5nucleo_s/ravenscar-sfp/Debug/libstm32l5xx.a(stm32-gpio.o)
 .rodata.stm32__gpio__internal_pin_resistorsN
                0x0000000000000000        0x4 /home/hedley/ada/STM32/L/L562/hash/Ada_Drivers_Library/arch/ARM/STM32/lib/stm32l5nucleo_s/ravenscar-sfp/Debug/libstm32l5xx.a(stm32-gpio.o)
 .rodata.stm32__gpio__gpio_pointP
                0x0000000000000000        0x4 /home/hedley/ada/STM32/L/L562/hash/Ada_Drivers_Library/arch/ARM/STM32/lib/stm32l5nucleo_s/ravenscar-sfp/Debug/libstm32l5xx.a(stm32-gpio.o)
 .rodata.stm32__gpio__gpio_pointY
                0x0000000000000000        0x4 /home/hedley/ada/STM32/L/L562/hash/Ada_Drivers_Library/arch/ARM/STM32/lib/stm32l5nucleo_s/ravenscar-sfp/Debug/libstm32l5xx.a(stm32-gpio.o)
 .rodata.stm32__gpio__gpio_pointR72s
                0x0000000000000000        0x4 /home/hedley/ada/STM32/L/L562/hash/Ada_Drivers_Library/arch/ARM/STM32/lib/stm32l5nucleo_s/ravenscar-sfp/Debug/libstm32l5xx.a(stm32-gpio.o)
 .text          0x0000000000000000        0x0 /home/hedley/ada/STM32/L/L562/hash/Ada_Drivers_Library/arch/ARM/STM32/lib/stm32l5nucleo_s/ravenscar-sfp/Debug/libstm32l5xx.a(stm32-hash.o)
 .data          0x0000000000000000        0x0 /home/hedley/ada/STM32/L/L562/hash/Ada_Drivers_Library/arch/ARM/STM32/lib/stm32l5nucleo_s/ravenscar-sfp/Debug/libstm32l5xx.a(stm32-hash.o)
 .bss           0x0000000000000000        0x0 /home/hedley/ada/STM32/L/L562/hash/Ada_Drivers_Library/arch/ARM/STM32/lib/stm32l5nucleo_s/ravenscar-sfp/Debug/libstm32l5xx.a(stm32-hash.o)
 .text.stm32__hash__feed_hash__2
                0x0000000000000000       0xac /home/hedley/ada/STM32/L/L562/hash/Ada_Drivers_Library/arch/ARM/STM32/lib/stm32l5nucleo_s/ravenscar-sfp/Debug/libstm32l5xx.a(stm32-hash.o)
 .text.stm32__hash__feed_hash__3
                0x0000000000000000       0x4c /home/hedley/ada/STM32/L/L562/hash/Ada_Drivers_Library/arch/ARM/STM32/lib/stm32l5nucleo_s/ravenscar-sfp/Debug/libstm32l5xx.a(stm32-hash.o)
 .rodata.stm32__hash__algorithm_selectionS
                0x0000000000000000       0x16 /home/hedley/ada/STM32/L/L562/hash/Ada_Drivers_Library/arch/ARM/STM32/lib/stm32l5nucleo_s/ravenscar-sfp/Debug/libstm32l5xx.a(stm32-hash.o)
 .rodata.stm32__hash__algorithm_selectionN
                0x0000000000000000        0x8 /home/hedley/ada/STM32/L/L562/hash/Ada_Drivers_Library/arch/ARM/STM32/lib/stm32l5nucleo_s/ravenscar-sfp/Debug/libstm32l5xx.a(stm32-hash.o)
 .rodata.stm32__hash__mode_selectionS
                0x0000000000000000       0x12 /home/hedley/ada/STM32/L/L562/hash/Ada_Drivers_Library/arch/ARM/STM32/lib/stm32l5nucleo_s/ravenscar-sfp/Debug/libstm32l5xx.a(stm32-hash.o)
 .rodata.stm32__hash__mode_selectionN
                0x0000000000000000        0x4 /home/hedley/ada/STM32/L/L562/hash/Ada_Drivers_Library/arch/ARM/STM32/lib/stm32l5nucleo_s/ravenscar-sfp/Debug/libstm32l5xx.a(stm32-hash.o)
 .rodata.stm32__hash__width_selectionS
                0x0000000000000000       0x2a /home/hedley/ada/STM32/L/L562/hash/Ada_Drivers_Library/arch/ARM/STM32/lib/stm32l5nucleo_s/ravenscar-sfp/Debug/libstm32l5xx.a(stm32-hash.o)
 .rodata.stm32__hash__width_selectionN
                0x0000000000000000        0x8 /home/hedley/ada/STM32/L/L562/hash/Ada_Drivers_Library/arch/ARM/STM32/lib/stm32l5nucleo_s/ravenscar-sfp/Debug/libstm32l5xx.a(stm32-hash.o)
 .text          0x0000000000000000        0x0 /home/hedley/ada/STM32/L/L562/hash/Ada_Drivers_Library/arch/ARM/STM32/lib/stm32l5nucleo_s/ravenscar-sfp/Debug/libstm32l5xx.a(stm32-mpu.o)
 .data          0x0000000000000000        0x0 /home/hedley/ada/STM32/L/L562/hash/Ada_Drivers_Library/arch/ARM/STM32/lib/stm32l5nucleo_s/ravenscar-sfp/Debug/libstm32l5xx.a(stm32-mpu.o)
 .bss           0x0000000000000000        0x0 /home/hedley/ada/STM32/L/L562/hash/Ada_Drivers_Library/arch/ARM/STM32/lib/stm32l5nucleo_s/ravenscar-sfp/Debug/libstm32l5xx.a(stm32-mpu.o)
 .text.stm32__mpu__attr_typeIP
                0x0000000000000000       0x14 /home/hedley/ada/STM32/L/L562/hash/Ada_Drivers_Library/arch/ARM/STM32/lib/stm32l5nucleo_s/ravenscar-sfp/Debug/libstm32l5xx.a(stm32-mpu.o)
 .text.stm32__mpu__rlar_overlayEQ
                0x0000000000000000       0xe4 /home/hedley/ada/STM32/L/L562/hash/Ada_Drivers_Library/arch/ARM/STM32/lib/stm32l5nucleo_s/ravenscar-sfp/Debug/libstm32l5xx.a(stm32-mpu.o)
 .text.stm32__mpu__rlar_overlayIP
                0x0000000000000000       0x18 /home/hedley/ada/STM32/L/L562/hash/Ada_Drivers_Library/arch/ARM/STM32/lib/stm32l5nucleo_s/ravenscar-sfp/Debug/libstm32l5xx.a(stm32-mpu.o)
 .text          0x0000000000000000        0x0 /home/hedley/ada/STM32/L/L562/hash/Ada_Drivers_Library/arch/ARM/STM32/lib/stm32l5nucleo_s/ravenscar-sfp/Debug/libstm32l5xx.a(stm32-rcc.o)
 .data          0x0000000000000000        0x0 /home/hedley/ada/STM32/L/L562/hash/Ada_Drivers_Library/arch/ARM/STM32/lib/stm32l5nucleo_s/ravenscar-sfp/Debug/libstm32l5xx.a(stm32-rcc.o)
 .bss           0x0000000000000000        0x0 /home/hedley/ada/STM32/L/L562/hash/Ada_Drivers_Library/arch/ARM/STM32/lib/stm32l5nucleo_s/ravenscar-sfp/Debug/libstm32l5xx.a(stm32-rcc.o)
 .text.stm32__rcc__syscfg_clock_enable
                0x0000000000000000       0x24 /home/hedley/ada/STM32/L/L562/hash/Ada_Drivers_Library/arch/ARM/STM32/lib/stm32l5nucleo_s/ravenscar-sfp/Debug/libstm32l5xx.a(stm32-rcc.o)
 .text          0x0000000000000000        0x0 /home/hedley/ada/STM32/L/L562/hash/Ada_Drivers_Library/arch/ARM/STM32/lib/stm32l5nucleo_s/ravenscar-sfp/Debug/libstm32l5xx.a(stm32-sau.o)
 .data          0x0000000000000000        0x0 /home/hedley/ada/STM32/L/L562/hash/Ada_Drivers_Library/arch/ARM/STM32/lib/stm32l5nucleo_s/ravenscar-sfp/Debug/libstm32l5xx.a(stm32-sau.o)
 .bss           0x0000000000000000        0x0 /home/hedley/ada/STM32/L/L562/hash/Ada_Drivers_Library/arch/ARM/STM32/lib/stm32l5nucleo_s/ravenscar-sfp/Debug/libstm32l5xx.a(stm32-sau.o)
 .text.stm32__sau__rlar_overlayEQ
                0x0000000000000000       0xe4 /home/hedley/ada/STM32/L/L562/hash/Ada_Drivers_Library/arch/ARM/STM32/lib/stm32l5nucleo_s/ravenscar-sfp/Debug/libstm32l5xx.a(stm32-sau.o)
 .text.stm32__sau__rlar_overlayIP
                0x0000000000000000       0x18 /home/hedley/ada/STM32/L/L562/hash/Ada_Drivers_Library/arch/ARM/STM32/lib/stm32l5nucleo_s/ravenscar-sfp/Debug/libstm32l5xx.a(stm32-sau.o)
 .text.stm32__sau__add_region
                0x0000000000000000       0x84 /home/hedley/ada/STM32/L/L562/hash/Ada_Drivers_Library/arch/ARM/STM32/lib/stm32l5nucleo_s/ravenscar-sfp/Debug/libstm32l5xx.a(stm32-sau.o)
 .text.stm32__sau__enable_sau
                0x0000000000000000       0x1c /home/hedley/ada/STM32/L/L562/hash/Ada_Drivers_Library/arch/ARM/STM32/lib/stm32l5nucleo_s/ravenscar-sfp/Debug/libstm32l5xx.a(stm32-sau.o)
 .text          0x0000000000000000        0x0 /home/hedley/ada/STM32/L/L562/hash/Ada_Drivers_Library/arch/ARM/STM32/lib/stm32l5nucleo_s/ravenscar-sfp/Debug/libstm32l5xx.a(stm32-spi.o)
 .data          0x0000000000000000        0x0 /home/hedley/ada/STM32/L/L562/hash/Ada_Drivers_Library/arch/ARM/STM32/lib/stm32l5nucleo_s/ravenscar-sfp/Debug/libstm32l5xx.a(stm32-spi.o)
 .bss           0x0000000000000000        0x0 /home/hedley/ada/STM32/L/L562/hash/Ada_Drivers_Library/arch/ARM/STM32/lib/stm32l5nucleo_s/ravenscar-sfp/Debug/libstm32l5xx.a(stm32-spi.o)
 .text.stm32__spi__spi_configurationIP
                0x0000000000000000       0x14 /home/hedley/ada/STM32/L/L562/hash/Ada_Drivers_Library/arch/ARM/STM32/lib/stm32l5nucleo_s/ravenscar-sfp/Debug/libstm32l5xx.a(stm32-spi.o)
 .text.stm32__spi__uint8_bufferIP
                0x0000000000000000       0x14 /home/hedley/ada/STM32/L/L562/hash/Ada_Drivers_Library/arch/ARM/STM32/lib/stm32l5nucleo_s/ravenscar-sfp/Debug/libstm32l5xx.a(stm32-spi.o)
 .rodata.stm32__spi__spi_portP
                0x0000000000000000        0x4 /home/hedley/ada/STM32/L/L562/hash/Ada_Drivers_Library/arch/ARM/STM32/lib/stm32l5nucleo_s/ravenscar-sfp/Debug/libstm32l5xx.a(stm32-spi.o)
 .rodata.stm32__spi__spi_portY
                0x0000000000000000        0x4 /home/hedley/ada/STM32/L/L562/hash/Ada_Drivers_Library/arch/ARM/STM32/lib/stm32l5nucleo_s/ravenscar-sfp/Debug/libstm32l5xx.a(stm32-spi.o)
 .rodata.stm32__spi__spi_data_directionS
                0x0000000000000000       0x32 /home/hedley/ada/STM32/L/L562/hash/Ada_Drivers_Library/arch/ARM/STM32/lib/stm32l5nucleo_s/ravenscar-sfp/Debug/libstm32l5xx.a(stm32-spi.o)
 .rodata.stm32__spi__spi_data_directionN
                0x0000000000000000        0x8 /home/hedley/ada/STM32/L/L562/hash/Ada_Drivers_Library/arch/ARM/STM32/lib/stm32l5nucleo_s/ravenscar-sfp/Debug/libstm32l5xx.a(stm32-spi.o)
 .rodata.stm32__spi__spi_modeS
                0x0000000000000000        0xb /home/hedley/ada/STM32/L/L562/hash/Ada_Drivers_Library/arch/ARM/STM32/lib/stm32l5nucleo_s/ravenscar-sfp/Debug/libstm32l5xx.a(stm32-spi.o)
 .rodata.stm32__spi__spi_modeN
                0x0000000000000000        0x4 /home/hedley/ada/STM32/L/L562/hash/Ada_Drivers_Library/arch/ARM/STM32/lib/stm32l5nucleo_s/ravenscar-sfp/Debug/libstm32l5xx.a(stm32-spi.o)
 .rodata.stm32__spi__spi_clock_polarityS
                0x0000000000000000        0x8 /home/hedley/ada/STM32/L/L562/hash/Ada_Drivers_Library/arch/ARM/STM32/lib/stm32l5nucleo_s/ravenscar-sfp/Debug/libstm32l5xx.a(stm32-spi.o)
 .rodata.stm32__spi__spi_clock_polarityN
                0x0000000000000000        0x4 /home/hedley/ada/STM32/L/L562/hash/Ada_Drivers_Library/arch/ARM/STM32/lib/stm32l5nucleo_s/ravenscar-sfp/Debug/libstm32l5xx.a(stm32-spi.o)
 .rodata.stm32__spi__spi_clock_phaseS
                0x0000000000000000        0xc /home/hedley/ada/STM32/L/L562/hash/Ada_Drivers_Library/arch/ARM/STM32/lib/stm32l5nucleo_s/ravenscar-sfp/Debug/libstm32l5xx.a(stm32-spi.o)
 .rodata.stm32__spi__spi_clock_phaseN
                0x0000000000000000        0x4 /home/hedley/ada/STM32/L/L562/hash/Ada_Drivers_Library/arch/ARM/STM32/lib/stm32l5nucleo_s/ravenscar-sfp/Debug/libstm32l5xx.a(stm32-spi.o)
 .rodata.stm32__spi__spi_slave_managementS
                0x0000000000000000       0x20 /home/hedley/ada/STM32/L/L562/hash/Ada_Drivers_Library/arch/ARM/STM32/lib/stm32l5nucleo_s/ravenscar-sfp/Debug/libstm32l5xx.a(stm32-spi.o)
 .rodata.stm32__spi__spi_slave_managementN
                0x0000000000000000        0x4 /home/hedley/ada/STM32/L/L562/hash/Ada_Drivers_Library/arch/ARM/STM32/lib/stm32l5nucleo_s/ravenscar-sfp/Debug/libstm32l5xx.a(stm32-spi.o)
 .rodata.stm32__spi__spi_baud_rate_prescalerS
                0x0000000000000000       0x2f /home/hedley/ada/STM32/L/L562/hash/Ada_Drivers_Library/arch/ARM/STM32/lib/stm32l5nucleo_s/ravenscar-sfp/Debug/libstm32l5xx.a(stm32-spi.o)
 .rodata.stm32__spi__spi_baud_rate_prescalerN
                0x0000000000000000        0x9 /home/hedley/ada/STM32/L/L562/hash/Ada_Drivers_Library/arch/ARM/STM32/lib/stm32l5nucleo_s/ravenscar-sfp/Debug/libstm32l5xx.a(stm32-spi.o)
 .rodata.stm32__spi__spi_first_bitS
                0x0000000000000000        0x8 /home/hedley/ada/STM32/L/L562/hash/Ada_Drivers_Library/arch/ARM/STM32/lib/stm32l5nucleo_s/ravenscar-sfp/Debug/libstm32l5xx.a(stm32-spi.o)
 .rodata.stm32__spi__spi_first_bitN
                0x0000000000000000        0x4 /home/hedley/ada/STM32/L/L562/hash/Ada_Drivers_Library/arch/ARM/STM32/lib/stm32l5nucleo_s/ravenscar-sfp/Debug/libstm32l5xx.a(stm32-spi.o)
 .rodata.stm32__spi__spi_portR52s
                0x0000000000000000        0x4 /home/hedley/ada/STM32/L/L562/hash/Ada_Drivers_Library/arch/ARM/STM32/lib/stm32l5nucleo_s/ravenscar-sfp/Debug/libstm32l5xx.a(stm32-spi.o)
 .text          0x0000000000000000        0x0 /home/hedley/ada/STM32/L/L562/hash/Ada_Drivers_Library/arch/ARM/STM32/lib/stm32l5nucleo_s/ravenscar-sfp/Debug/libstm32l5xx.a(stm32-syscfg.o)
 .data          0x0000000000000000        0x0 /home/hedley/ada/STM32/L/L562/hash/Ada_Drivers_Library/arch/ARM/STM32/lib/stm32l5nucleo_s/ravenscar-sfp/Debug/libstm32l5xx.a(stm32-syscfg.o)
 .bss           0x0000000000000000        0x0 /home/hedley/ada/STM32/L/L562/hash/Ada_Drivers_Library/arch/ARM/STM32/lib/stm32l5nucleo_s/ravenscar-sfp/Debug/libstm32l5xx.a(stm32-syscfg.o)
 .text.stm32__syscfg__connect_external_interrupt__4
                0x0000000000000000       0x18 /home/hedley/ada/STM32/L/L562/hash/Ada_Drivers_Library/arch/ARM/STM32/lib/stm32l5nucleo_s/ravenscar-sfp/Debug/libstm32l5xx.a(stm32-syscfg.o)
 .rodata        0x0000000000000000       0x11 /home/hedley/ada/STM32/L/L562/hash/Ada_Drivers_Library/arch/ARM/STM32/lib/stm32l5nucleo_s/ravenscar-sfp/Debug/libstm32l5xx.a(stm32-syscfg.o)
 .text.stm32__syscfg__connect_external_interrupt
                0x0000000000000000       0x3c /home/hedley/ada/STM32/L/L562/hash/Ada_Drivers_Library/arch/ARM/STM32/lib/stm32l5nucleo_s/ravenscar-sfp/Debug/libstm32l5xx.a(stm32-syscfg.o)
 .text.stm32__syscfg__connect_external_interrupt__2
                0x0000000000000000       0x34 /home/hedley/ada/STM32/L/L562/hash/Ada_Drivers_Library/arch/ARM/STM32/lib/stm32l5nucleo_s/ravenscar-sfp/Debug/libstm32l5xx.a(stm32-syscfg.o)
 .text.stm32__syscfg__connect_external_interrupt__3
                0x0000000000000000       0x48 /home/hedley/ada/STM32/L/L562/hash/Ada_Drivers_Library/arch/ARM/STM32/lib/stm32l5nucleo_s/ravenscar-sfp/Debug/libstm32l5xx.a(stm32-syscfg.o)
 .text.stm32__syscfg__clear_external_interrupt
                0x0000000000000000       0x44 /home/hedley/ada/STM32/L/L562/hash/Ada_Drivers_Library/arch/ARM/STM32/lib/stm32l5nucleo_s/ravenscar-sfp/Debug/libstm32l5xx.a(stm32-syscfg.o)
 .text          0x0000000000000000        0x0 /home/hedley/ada/STM32/L/L562/hash/Ada_Drivers_Library/arch/ARM/STM32/lib/stm32l5nucleo_s/ravenscar-sfp/Debug/libstm32l5xx.a(stm32_svd-spi.o)
 .data          0x0000000000000000        0x0 /home/hedley/ada/STM32/L/L562/hash/Ada_Drivers_Library/arch/ARM/STM32/lib/stm32l5nucleo_s/ravenscar-sfp/Debug/libstm32l5xx.a(stm32_svd-spi.o)
 .bss           0x0000000000000000        0x0 /home/hedley/ada/STM32/L/L562/hash/Ada_Drivers_Library/arch/ARM/STM32/lib/stm32l5nucleo_s/ravenscar-sfp/Debug/libstm32l5xx.a(stm32_svd-spi.o)
 .text.stm32_svd__spi__cr1_registerIP
                0x0000000000000000       0xe4 /home/hedley/ada/STM32/L/L562/hash/Ada_Drivers_Library/arch/ARM/STM32/lib/stm32l5nucleo_s/ravenscar-sfp/Debug/libstm32l5xx.a(stm32_svd-spi.o)
 .text.stm32_svd__spi__cr2_registerIP
                0x0000000000000000       0xc8 /home/hedley/ada/STM32/L/L562/hash/Ada_Drivers_Library/arch/ARM/STM32/lib/stm32l5nucleo_s/ravenscar-sfp/Debug/libstm32l5xx.a(stm32_svd-spi.o)
 .text.stm32_svd__spi__dr_registerIP
                0x0000000000000000       0x30 /home/hedley/ada/STM32/L/L562/hash/Ada_Drivers_Library/arch/ARM/STM32/lib/stm32l5nucleo_s/ravenscar-sfp/Debug/libstm32l5xx.a(stm32_svd-spi.o)
 .text.stm32_svd__spi__crcpr_registerIP
                0x0000000000000000       0x30 /home/hedley/ada/STM32/L/L562/hash/Ada_Drivers_Library/arch/ARM/STM32/lib/stm32l5nucleo_s/ravenscar-sfp/Debug/libstm32l5xx.a(stm32_svd-spi.o)
 .text.stm32_svd__spi__rxcrcr_registerIP
                0x0000000000000000       0x14 /home/hedley/ada/STM32/L/L562/hash/Ada_Drivers_Library/arch/ARM/STM32/lib/stm32l5nucleo_s/ravenscar-sfp/Debug/libstm32l5xx.a(stm32_svd-spi.o)
 .text.stm32_svd__spi__txcrcr_registerIP
                0x0000000000000000       0x14 /home/hedley/ada/STM32/L/L562/hash/Ada_Drivers_Library/arch/ARM/STM32/lib/stm32l5nucleo_s/ravenscar-sfp/Debug/libstm32l5xx.a(stm32_svd-spi.o)
 .text.stm32_svd__spi__spi_peripheralIP
                0x0000000000000000       0x40 /home/hedley/ada/STM32/L/L562/hash/Ada_Drivers_Library/arch/ARM/STM32/lib/stm32l5nucleo_s/ravenscar-sfp/Debug/libstm32l5xx.a(stm32_svd-spi.o)
 .rodata.stm32_svd__spi__sec_spi1_periph
                0x0000000000000000        0x4 /home/hedley/ada/STM32/L/L562/hash/Ada_Drivers_Library/arch/ARM/STM32/lib/stm32l5nucleo_s/ravenscar-sfp/Debug/libstm32l5xx.a(stm32_svd-spi.o)
 .rodata.stm32_svd__spi__sec_spi2_periph
                0x0000000000000000        0x4 /home/hedley/ada/STM32/L/L562/hash/Ada_Drivers_Library/arch/ARM/STM32/lib/stm32l5nucleo_s/ravenscar-sfp/Debug/libstm32l5xx.a(stm32_svd-spi.o)
 .rodata.stm32_svd__spi__sec_spi3_periph
                0x0000000000000000        0x4 /home/hedley/ada/STM32/L/L562/hash/Ada_Drivers_Library/arch/ARM/STM32/lib/stm32l5nucleo_s/ravenscar-sfp/Debug/libstm32l5xx.a(stm32_svd-spi.o)
 .rodata.stm32_svd__spi__spi1_periph
                0x0000000000000000        0x4 /home/hedley/ada/STM32/L/L562/hash/Ada_Drivers_Library/arch/ARM/STM32/lib/stm32l5nucleo_s/ravenscar-sfp/Debug/libstm32l5xx.a(stm32_svd-spi.o)
 .rodata.stm32_svd__spi__spi2_periph
                0x0000000000000000        0x4 /home/hedley/ada/STM32/L/L562/hash/Ada_Drivers_Library/arch/ARM/STM32/lib/stm32l5nucleo_s/ravenscar-sfp/Debug/libstm32l5xx.a(stm32_svd-spi.o)
 .rodata.stm32_svd__spi__spi3_periph
                0x0000000000000000        0x4 /home/hedley/ada/STM32/L/L562/hash/Ada_Drivers_Library/arch/ARM/STM32/lib/stm32l5nucleo_s/ravenscar-sfp/Debug/libstm32l5xx.a(stm32_svd-spi.o)
 .text          0x0000000000000000        0x0 /home/hedley/ada/Ada_Drivers_Library/hal/lib/stm32l5nucleo_s/ravenscar-sfp/Debug/libHAL.a(hal-gpio.o)
 .data          0x0000000000000000        0x0 /home/hedley/ada/Ada_Drivers_Library/hal/lib/stm32l5nucleo_s/ravenscar-sfp/Debug/libHAL.a(hal-gpio.o)
 .bss           0x0000000000000000        0x0 /home/hedley/ada/Ada_Drivers_Library/hal/lib/stm32l5nucleo_s/ravenscar-sfp/Debug/libHAL.a(hal-gpio.o)
 .data.hal__gpio_E
                0x0000000000000000        0x2 /home/hedley/ada/Ada_Drivers_Library/hal/lib/stm32l5nucleo_s/ravenscar-sfp/Debug/libHAL.a(hal-gpio.o)
 .rodata.hal__gpio__gpio_modeS
                0x0000000000000000       0x12 /home/hedley/ada/Ada_Drivers_Library/hal/lib/stm32l5nucleo_s/ravenscar-sfp/Debug/libHAL.a(hal-gpio.o)
 .rodata.hal__gpio__gpio_modeN
                0x0000000000000000        0x4 /home/hedley/ada/Ada_Drivers_Library/hal/lib/stm32l5nucleo_s/ravenscar-sfp/Debug/libHAL.a(hal-gpio.o)
 .rodata.hal__gpio__gpio_pull_resistorS
                0x0000000000000000       0x18 /home/hedley/ada/Ada_Drivers_Library/hal/lib/stm32l5nucleo_s/ravenscar-sfp/Debug/libHAL.a(hal-gpio.o)
 .rodata.hal__gpio__gpio_pull_resistorN
                0x0000000000000000        0x4 /home/hedley/ada/Ada_Drivers_Library/hal/lib/stm32l5nucleo_s/ravenscar-sfp/Debug/libHAL.a(hal-gpio.o)
 .rodata.hal__gpio__gpio_pointP
                0x0000000000000000        0x4 /home/hedley/ada/Ada_Drivers_Library/hal/lib/stm32l5nucleo_s/ravenscar-sfp/Debug/libHAL.a(hal-gpio.o)
 .text          0x0000000000000000        0x0 /home/hedley/ada/Ada_Drivers_Library/hal/lib/stm32l5nucleo_s/ravenscar-sfp/Debug/libHAL.a(hal-spi.o)
 .data          0x0000000000000000        0x0 /home/hedley/ada/Ada_Drivers_Library/hal/lib/stm32l5nucleo_s/ravenscar-sfp/Debug/libHAL.a(hal-spi.o)
 .bss           0x0000000000000000        0x0 /home/hedley/ada/Ada_Drivers_Library/hal/lib/stm32l5nucleo_s/ravenscar-sfp/Debug/libHAL.a(hal-spi.o)
 .text.hal__spi__spi_data_8bIP
                0x0000000000000000       0x14 /home/hedley/ada/Ada_Drivers_Library/hal/lib/stm32l5nucleo_s/ravenscar-sfp/Debug/libHAL.a(hal-spi.o)
 .text.hal__spi__spi_data_16bIP
                0x0000000000000000       0x14 /home/hedley/ada/Ada_Drivers_Library/hal/lib/stm32l5nucleo_s/ravenscar-sfp/Debug/libHAL.a(hal-spi.o)
 .data.hal__spi_E
                0x0000000000000000        0x2 /home/hedley/ada/Ada_Drivers_Library/hal/lib/stm32l5nucleo_s/ravenscar-sfp/Debug/libHAL.a(hal-spi.o)
 .rodata.hal__spi__spi_statusS
                0x0000000000000000       0x1a /home/hedley/ada/Ada_Drivers_Library/hal/lib/stm32l5nucleo_s/ravenscar-sfp/Debug/libHAL.a(hal-spi.o)
 .rodata.hal__spi__spi_statusN
                0x0000000000000000        0x8 /home/hedley/ada/Ada_Drivers_Library/hal/lib/stm32l5nucleo_s/ravenscar-sfp/Debug/libHAL.a(hal-spi.o)
 .rodata.hal__spi__spi_data_sizeS
                0x0000000000000000       0x19 /home/hedley/ada/Ada_Drivers_Library/hal/lib/stm32l5nucleo_s/ravenscar-sfp/Debug/libHAL.a(hal-spi.o)
 .rodata.hal__spi__spi_data_sizeN
                0x0000000000000000        0x4 /home/hedley/ada/Ada_Drivers_Library/hal/lib/stm32l5nucleo_s/ravenscar-sfp/Debug/libHAL.a(hal-spi.o)
 .rodata.hal__spi__spi_portP
                0x0000000000000000        0x4 /home/hedley/ada/Ada_Drivers_Library/hal/lib/stm32l5nucleo_s/ravenscar-sfp/Debug/libHAL.a(hal-spi.o)
 .text          0x0000000000000000        0x0 /home/hedley/ada/STM32/L/L562/hash/Ada_Drivers_Library/embedded-runtimes/ravenscar-stm32l5nucleo_s/sfp/adalib/libgnarl.a(a-reatim.o)
 .data          0x0000000000000000        0x0 /home/hedley/ada/STM32/L/L562/hash/Ada_Drivers_Library/embedded-runtimes/ravenscar-stm32l5nucleo_s/sfp/adalib/libgnarl.a(a-reatim.o)
 .bss           0x0000000000000000        0x0 /home/hedley/ada/STM32/L/L562/hash/Ada_Drivers_Library/embedded-runtimes/ravenscar-stm32l5nucleo_s/sfp/adalib/libgnarl.a(a-reatim.o)
 .text.ada__real_time__Oadd__2
                0x0000000000000000       0x14 /home/hedley/ada/STM32/L/L562/hash/Ada_Drivers_Library/embedded-runtimes/ravenscar-stm32l5nucleo_s/sfp/adalib/libgnarl.a(a-reatim.o)
 .text.ada__real_time__Omultiply
                0x0000000000000000       0xac /home/hedley/ada/STM32/L/L562/hash/Ada_Drivers_Library/embedded-runtimes/ravenscar-stm32l5nucleo_s/sfp/adalib/libgnarl.a(a-reatim.o)
 .text.ada__real_time__Omultiply__2
                0x0000000000000000       0x10 /home/hedley/ada/STM32/L/L562/hash/Ada_Drivers_Library/embedded-runtimes/ravenscar-stm32l5nucleo_s/sfp/adalib/libgnarl.a(a-reatim.o)
 .text.ada__real_time__Oadd
                0x0000000000000000       0x68 /home/hedley/ada/STM32/L/L562/hash/Ada_Drivers_Library/embedded-runtimes/ravenscar-stm32l5nucleo_s/sfp/adalib/libgnarl.a(a-reatim.o)
 .text.ada__real_time__Oadd__3
                0x0000000000000000       0x30 /home/hedley/ada/STM32/L/L562/hash/Ada_Drivers_Library/embedded-runtimes/ravenscar-stm32l5nucleo_s/sfp/adalib/libgnarl.a(a-reatim.o)
 .text.ada__real_time__Osubtract
                0x0000000000000000       0x6c /home/hedley/ada/STM32/L/L562/hash/Ada_Drivers_Library/embedded-runtimes/ravenscar-stm32l5nucleo_s/sfp/adalib/libgnarl.a(a-reatim.o)
 .text.ada__real_time__Osubtract__2
                0x0000000000000000       0x48 /home/hedley/ada/STM32/L/L562/hash/Ada_Drivers_Library/embedded-runtimes/ravenscar-stm32l5nucleo_s/sfp/adalib/libgnarl.a(a-reatim.o)
 .text.ada__real_time__Osubtract__3
                0x0000000000000000       0x30 /home/hedley/ada/STM32/L/L562/hash/Ada_Drivers_Library/embedded-runtimes/ravenscar-stm32l5nucleo_s/sfp/adalib/libgnarl.a(a-reatim.o)
 .text.ada__real_time__Osubtract__4
                0x0000000000000000       0x24 /home/hedley/ada/STM32/L/L562/hash/Ada_Drivers_Library/embedded-runtimes/ravenscar-stm32l5nucleo_s/sfp/adalib/libgnarl.a(a-reatim.o)
 .text.ada__real_time__Odivide
                0x0000000000000000       0x44 /home/hedley/ada/STM32/L/L562/hash/Ada_Drivers_Library/embedded-runtimes/ravenscar-stm32l5nucleo_s/sfp/adalib/libgnarl.a(a-reatim.o)
 .text.ada__real_time__Odivide__2
                0x0000000000000000       0x34 /home/hedley/ada/STM32/L/L562/hash/Ada_Drivers_Library/embedded-runtimes/ravenscar-stm32l5nucleo_s/sfp/adalib/libgnarl.a(a-reatim.o)
 .text.ada__real_time__clock
                0x0000000000000000       0x60 /home/hedley/ada/STM32/L/L562/hash/Ada_Drivers_Library/embedded-runtimes/ravenscar-stm32l5nucleo_s/sfp/adalib/libgnarl.a(a-reatim.o)
 .text.ada__real_time__microseconds
                0x0000000000000000       0x44 /home/hedley/ada/STM32/L/L562/hash/Ada_Drivers_Library/embedded-runtimes/ravenscar-stm32l5nucleo_s/sfp/adalib/libgnarl.a(a-reatim.o)
 .text.ada__real_time__milliseconds
                0x0000000000000000       0x44 /home/hedley/ada/STM32/L/L562/hash/Ada_Drivers_Library/embedded-runtimes/ravenscar-stm32l5nucleo_s/sfp/adalib/libgnarl.a(a-reatim.o)
 .text.ada__real_time__minutes
                0x0000000000000000       0x50 /home/hedley/ada/STM32/L/L562/hash/Ada_Drivers_Library/embedded-runtimes/ravenscar-stm32l5nucleo_s/sfp/adalib/libgnarl.a(a-reatim.o)
 .text.ada__real_time__mul_div
                0x0000000000000000      0x11c /home/hedley/ada/STM32/L/L562/hash/Ada_Drivers_Library/embedded-runtimes/ravenscar-stm32l5nucleo_s/sfp/adalib/libgnarl.a(a-reatim.o)
 .text.ada__real_time__nanoseconds
                0x0000000000000000       0x6c /home/hedley/ada/STM32/L/L562/hash/Ada_Drivers_Library/embedded-runtimes/ravenscar-stm32l5nucleo_s/sfp/adalib/libgnarl.a(a-reatim.o)
 .text.ada__real_time__rounded_div
                0x0000000000000000       0x48 /home/hedley/ada/STM32/L/L562/hash/Ada_Drivers_Library/embedded-runtimes/ravenscar-stm32l5nucleo_s/sfp/adalib/libgnarl.a(a-reatim.o)
 .text.ada__real_time__seconds
                0x0000000000000000        0xc /home/hedley/ada/STM32/L/L562/hash/Ada_Drivers_Library/embedded-runtimes/ravenscar-stm32l5nucleo_s/sfp/adalib/libgnarl.a(a-reatim.o)
 .text.ada__real_time__split
                0x0000000000000000       0x80 /home/hedley/ada/STM32/L/L562/hash/Ada_Drivers_Library/embedded-runtimes/ravenscar-stm32l5nucleo_s/sfp/adalib/libgnarl.a(a-reatim.o)
 .text.ada__real_time__time_of
                0x0000000000000000      0x110 /home/hedley/ada/STM32/L/L562/hash/Ada_Drivers_Library/embedded-runtimes/ravenscar-stm32l5nucleo_s/sfp/adalib/libgnarl.a(a-reatim.o)
 .text.ada__real_time__to_duration
                0x0000000000000000       0x10 /home/hedley/ada/STM32/L/L562/hash/Ada_Drivers_Library/embedded-runtimes/ravenscar-stm32l5nucleo_s/sfp/adalib/libgnarl.a(a-reatim.o)
 .text.ada__real_time__to_time_span
                0x0000000000000000       0x10 /home/hedley/ada/STM32/L/L562/hash/Ada_Drivers_Library/embedded-runtimes/ravenscar-stm32l5nucleo_s/sfp/adalib/libgnarl.a(a-reatim.o)
 .rodata        0x0000000000000000        0xd /home/hedley/ada/STM32/L/L562/hash/Ada_Drivers_Library/embedded-runtimes/ravenscar-stm32l5nucleo_s/sfp/adalib/libgnarl.a(a-reatim.o)
 .rodata.ada__real_time__duration_units
                0x0000000000000000        0x4 /home/hedley/ada/STM32/L/L562/hash/Ada_Drivers_Library/embedded-runtimes/ravenscar-stm32l5nucleo_s/sfp/adalib/libgnarl.a(a-reatim.o)
 .rodata.ada__real_time__tick
                0x0000000000000000        0x8 /home/hedley/ada/STM32/L/L562/hash/Ada_Drivers_Library/embedded-runtimes/ravenscar-stm32l5nucleo_s/sfp/adalib/libgnarl.a(a-reatim.o)
 .rodata.ada__real_time__time_first
                0x0000000000000000        0x8 /home/hedley/ada/STM32/L/L562/hash/Ada_Drivers_Library/embedded-runtimes/ravenscar-stm32l5nucleo_s/sfp/adalib/libgnarl.a(a-reatim.o)
 .rodata.ada__real_time__time_last
                0x0000000000000000        0x8 /home/hedley/ada/STM32/L/L562/hash/Ada_Drivers_Library/embedded-runtimes/ravenscar-stm32l5nucleo_s/sfp/adalib/libgnarl.a(a-reatim.o)
 .rodata.ada__real_time__time_span_first
                0x0000000000000000        0x8 /home/hedley/ada/STM32/L/L562/hash/Ada_Drivers_Library/embedded-runtimes/ravenscar-stm32l5nucleo_s/sfp/adalib/libgnarl.a(a-reatim.o)
 .rodata.ada__real_time__time_span_last
                0x0000000000000000        0x8 /home/hedley/ada/STM32/L/L562/hash/Ada_Drivers_Library/embedded-runtimes/ravenscar-stm32l5nucleo_s/sfp/adalib/libgnarl.a(a-reatim.o)
 .rodata.ada__real_time__time_span_unit
                0x0000000000000000        0x8 /home/hedley/ada/STM32/L/L562/hash/Ada_Drivers_Library/embedded-runtimes/ravenscar-stm32l5nucleo_s/sfp/adalib/libgnarl.a(a-reatim.o)
 .rodata.ada__real_time__time_span_zero
                0x0000000000000000        0x8 /home/hedley/ada/STM32/L/L562/hash/Ada_Drivers_Library/embedded-runtimes/ravenscar-stm32l5nucleo_s/sfp/adalib/libgnarl.a(a-reatim.o)
 .text          0x0000000000000000        0x0 /home/hedley/ada/STM32/L/L562/hash/Ada_Drivers_Library/embedded-runtimes/ravenscar-stm32l5nucleo_s/sfp/adalib/libgnarl.a(s-bbbosu.o)
 .data          0x0000000000000000        0x0 /home/hedley/ada/STM32/L/L562/hash/Ada_Drivers_Library/embedded-runtimes/ravenscar-stm32l5nucleo_s/sfp/adalib/libgnarl.a(s-bbbosu.o)
 .bss           0x0000000000000000        0x0 /home/hedley/ada/STM32/L/L562/hash/Ada_Drivers_Library/embedded-runtimes/ravenscar-stm32l5nucleo_s/sfp/adalib/libgnarl.a(s-bbbosu.o)
 .text.system__bb__board_support__time__max_timer_interval
                0x0000000000000000        0x8 /home/hedley/ada/STM32/L/L562/hash/Ada_Drivers_Library/embedded-runtimes/ravenscar-stm32l5nucleo_s/sfp/adalib/libgnarl.a(s-bbbosu.o)
 .text.system__bb__board_support__time__clear_alarm_interrupt
                0x0000000000000000       0x10 /home/hedley/ada/STM32/L/L562/hash/Ada_Drivers_Library/embedded-runtimes/ravenscar-stm32l5nucleo_s/sfp/adalib/libgnarl.a(s-bbbosu.o)
 .text.system__bb__board_support__multiprocessors__number_of_cpus
                0x0000000000000000        0x4 /home/hedley/ada/STM32/L/L562/hash/Ada_Drivers_Library/embedded-runtimes/ravenscar-stm32l5nucleo_s/sfp/adalib/libgnarl.a(s-bbbosu.o)
 .text.system__bb__board_support__multiprocessors__current_cpu
                0x0000000000000000        0x4 /home/hedley/ada/STM32/L/L562/hash/Ada_Drivers_Library/embedded-runtimes/ravenscar-stm32l5nucleo_s/sfp/adalib/libgnarl.a(s-bbbosu.o)
 .text.system__bb__board_support__multiprocessors__poke_cpu
                0x0000000000000000        0x4 /home/hedley/ada/STM32/L/L562/hash/Ada_Drivers_Library/embedded-runtimes/ravenscar-stm32l5nucleo_s/sfp/adalib/libgnarl.a(s-bbbosu.o)
 .text.system__bb__board_support__multiprocessors__start_all_cpus
                0x0000000000000000        0x4 /home/hedley/ada/STM32/L/L562/hash/Ada_Drivers_Library/embedded-runtimes/ravenscar-stm32l5nucleo_s/sfp/adalib/libgnarl.a(s-bbbosu.o)
 .text.system__bb__board_support__interrupts__install_interrupt_handler
                0x0000000000000000       0x5c /home/hedley/ada/STM32/L/L562/hash/Ada_Drivers_Library/embedded-runtimes/ravenscar-stm32l5nucleo_s/sfp/adalib/libgnarl.a(s-bbbosu.o)
 .text.system__bb__board_support__interrupts__priority_of_interrupt
                0x0000000000000000       0x20 /home/hedley/ada/STM32/L/L562/hash/Ada_Drivers_Library/embedded-runtimes/ravenscar-stm32l5nucleo_s/sfp/adalib/libgnarl.a(s-bbbosu.o)
 .text.system__bb__board_support__interrupts__power_down
                0x0000000000000000        0x4 /home/hedley/ada/STM32/L/L562/hash/Ada_Drivers_Library/embedded-runtimes/ravenscar-stm32l5nucleo_s/sfp/adalib/libgnarl.a(s-bbbosu.o)
 .text.system__bb__board_support__interrupts__set_current_priority
                0x0000000000000000       0x18 /home/hedley/ada/STM32/L/L562/hash/Ada_Drivers_Library/embedded-runtimes/ravenscar-stm32l5nucleo_s/sfp/adalib/libgnarl.a(s-bbbosu.o)
 .text.system__bb__board_support__sys_tick_registersIP
                0x0000000000000000        0x4 /home/hedley/ada/STM32/L/L562/hash/Ada_Drivers_Library/embedded-runtimes/ravenscar-stm32l5nucleo_s/sfp/adalib/libgnarl.a(s-bbbosu.o)
 .text.system__bb__board_support__TipBIP
                0x0000000000000000        0x4 /home/hedley/ada/STM32/L/L562/hash/Ada_Drivers_Library/embedded-runtimes/ravenscar-stm32l5nucleo_s/sfp/adalib/libgnarl.a(s-bbbosu.o)
 .text.system__bb__board_support__enable_interrupt_request
                0x0000000000000000       0x40 /home/hedley/ada/STM32/L/L562/hash/Ada_Drivers_Library/embedded-runtimes/ravenscar-stm32l5nucleo_s/sfp/adalib/libgnarl.a(s-bbbosu.o)
 .text.system__bb__board_support__to_pri
                0x0000000000000000       0x14 /home/hedley/ada/STM32/L/L562/hash/Ada_Drivers_Library/embedded-runtimes/ravenscar-stm32l5nucleo_s/sfp/adalib/libgnarl.a(s-bbbosu.o)
 .text.system__bb__board_support__to_priority
                0x0000000000000000       0x10 /home/hedley/ada/STM32/L/L562/hash/Ada_Drivers_Library/embedded-runtimes/ravenscar-stm32l5nucleo_s/sfp/adalib/libgnarl.a(s-bbbosu.o)
 .rodata.system__bb__board_support__alarm_interrupt_id
                0x0000000000000000        0x4 /home/hedley/ada/STM32/L/L562/hash/Ada_Drivers_Library/embedded-runtimes/ravenscar-stm32l5nucleo_s/sfp/adalib/libgnarl.a(s-bbbosu.o)
 .rodata.system__bb__board_support__interrupt_request_vector
                0x0000000000000000        0x1 /home/hedley/ada/STM32/L/L562/hash/Ada_Drivers_Library/embedded-runtimes/ravenscar-stm32l5nucleo_s/sfp/adalib/libgnarl.a(s-bbbosu.o)
 .rodata.system__bb__board_support__nvic_iser0
                0x0000000000000000        0x4 /home/hedley/ada/STM32/L/L562/hash/Ada_Drivers_Library/embedded-runtimes/ravenscar-stm32l5nucleo_s/sfp/adalib/libgnarl.a(s-bbbosu.o)
 .rodata.system__bb__board_support__sys_tick_vector
                0x0000000000000000        0x1 /home/hedley/ada/STM32/L/L562/hash/Ada_Drivers_Library/embedded-runtimes/ravenscar-stm32l5nucleo_s/sfp/adalib/libgnarl.a(s-bbbosu.o)
 .rodata.system__bb__board_support__tick_period
                0x0000000000000000        0x4 /home/hedley/ada/STM32/L/L562/hash/Ada_Drivers_Library/embedded-runtimes/ravenscar-stm32l5nucleo_s/sfp/adalib/libgnarl.a(s-bbbosu.o)
 .text          0x0000000000000000        0x0 /home/hedley/ada/STM32/L/L562/hash/Ada_Drivers_Library/embedded-runtimes/ravenscar-stm32l5nucleo_s/sfp/adalib/libgnarl.a(s-bbcppr.o)
 .data          0x0000000000000000        0x0 /home/hedley/ada/STM32/L/L562/hash/Ada_Drivers_Library/embedded-runtimes/ravenscar-stm32l5nucleo_s/sfp/adalib/libgnarl.a(s-bbcppr.o)
 .bss           0x0000000000000000        0x0 /home/hedley/ada/STM32/L/L562/hash/Ada_Drivers_Library/embedded-runtimes/ravenscar-stm32l5nucleo_s/sfp/adalib/libgnarl.a(s-bbcppr.o)
 .text.system__bb__cpu_primitives__Tcontext_bufferBIP
                0x0000000000000000        0x4 /home/hedley/ada/STM32/L/L562/hash/Ada_Drivers_Library/embedded-runtimes/ravenscar-stm32l5nucleo_s/sfp/adalib/libgnarl.a(s-bbcppr.o)
 .text.system__bb__cpu_primitives__hardware_contextIP
                0x0000000000000000        0x4 /home/hedley/ada/STM32/L/L562/hash/Ada_Drivers_Library/embedded-runtimes/ravenscar-stm32l5nucleo_s/sfp/adalib/libgnarl.a(s-bbcppr.o)
 .text.primask  0x0000000000000000        0x8 /home/hedley/ada/STM32/L/L562/hash/Ada_Drivers_Library/embedded-runtimes/ravenscar-stm32l5nucleo_s/sfp/adalib/libgnarl.a(s-bbcppr.o)
 .text.system__bb__cpu_primitives__initialize_cpu
                0x0000000000000000       0x84 /home/hedley/ada/STM32/L/L562/hash/Ada_Drivers_Library/embedded-runtimes/ravenscar-stm32l5nucleo_s/sfp/adalib/libgnarl.a(s-bbcppr.o)
 .text.system__bb__cpu_primitives__context_switch
                0x0000000000000000       0x14 /home/hedley/ada/STM32/L/L562/hash/Ada_Drivers_Library/embedded-runtimes/ravenscar-stm32l5nucleo_s/sfp/adalib/libgnarl.a(s-bbcppr.o)
 .text.system__bb__cpu_primitives__get_context
                0x0000000000000000        0x8 /home/hedley/ada/STM32/L/L562/hash/Ada_Drivers_Library/embedded-runtimes/ravenscar-stm32l5nucleo_s/sfp/adalib/libgnarl.a(s-bbcppr.o)
 .text.system__bb__cpu_primitives__set_context
                0x0000000000000000        0x8 /home/hedley/ada/STM32/L/L562/hash/Ada_Drivers_Library/embedded-runtimes/ravenscar-stm32l5nucleo_s/sfp/adalib/libgnarl.a(s-bbcppr.o)
 .text.system__bb__cpu_primitives__initialize_context
                0x0000000000000000       0x50 /home/hedley/ada/STM32/L/L562/hash/Ada_Drivers_Library/embedded-runtimes/ravenscar-stm32l5nucleo_s/sfp/adalib/libgnarl.a(s-bbcppr.o)
 .text.system__bb__cpu_primitives__install_error_handlers
                0x0000000000000000       0x1c /home/hedley/ada/STM32/L/L562/hash/Ada_Drivers_Library/embedded-runtimes/ravenscar-stm32l5nucleo_s/sfp/adalib/libgnarl.a(s-bbcppr.o)
 .text.system__bb__cpu_primitives__disable_interrupts
                0x0000000000000000        0x4 /home/hedley/ada/STM32/L/L562/hash/Ada_Drivers_Library/embedded-runtimes/ravenscar-stm32l5nucleo_s/sfp/adalib/libgnarl.a(s-bbcppr.o)
 .text.system__bb__cpu_primitives__enable_interrupts
                0x0000000000000000       0x24 /home/hedley/ada/STM32/L/L562/hash/Ada_Drivers_Library/embedded-runtimes/ravenscar-stm32l5nucleo_s/sfp/adalib/libgnarl.a(s-bbcppr.o)
 .rodata.system__bb__cpu_primitives__bus_fault_vector
                0x0000000000000000        0x1 /home/hedley/ada/STM32/L/L562/hash/Ada_Drivers_Library/embedded-runtimes/ravenscar-stm32l5nucleo_s/sfp/adalib/libgnarl.a(s-bbcppr.o)
 .rodata.system__bb__cpu_primitives__hard_fault_vector
                0x0000000000000000        0x1 /home/hedley/ada/STM32/L/L562/hash/Ada_Drivers_Library/embedded-runtimes/ravenscar-stm32l5nucleo_s/sfp/adalib/libgnarl.a(s-bbcppr.o)
 .rodata.system__bb__cpu_primitives__has_os_extensions
                0x0000000000000000        0x1 /home/hedley/ada/STM32/L/L562/hash/Ada_Drivers_Library/embedded-runtimes/ravenscar-stm32l5nucleo_s/sfp/adalib/libgnarl.a(s-bbcppr.o)
 .rodata.system__bb__cpu_primitives__has_vtor
                0x0000000000000000        0x1 /home/hedley/ada/STM32/L/L562/hash/Ada_Drivers_Library/embedded-runtimes/ravenscar-stm32l5nucleo_s/sfp/adalib/libgnarl.a(s-bbcppr.o)
 .rodata.system__bb__cpu_primitives__interrupt_request_vector
                0x0000000000000000        0x1 /home/hedley/ada/STM32/L/L562/hash/Ada_Drivers_Library/embedded-runtimes/ravenscar-stm32l5nucleo_s/sfp/adalib/libgnarl.a(s-bbcppr.o)
 .rodata.system__bb__cpu_primitives__is_armv6m
                0x0000000000000000        0x1 /home/hedley/ada/STM32/L/L562/hash/Ada_Drivers_Library/embedded-runtimes/ravenscar-stm32l5nucleo_s/sfp/adalib/libgnarl.a(s-bbcppr.o)
 .rodata.system__bb__cpu_primitives__nl
                0x0000000000000000        0x2 /home/hedley/ada/STM32/L/L562/hash/Ada_Drivers_Library/embedded-runtimes/ravenscar-stm32l5nucleo_s/sfp/adalib/libgnarl.a(s-bbcppr.o)
 .rodata.system__bb__cpu_primitives__nmi_vector
                0x0000000000000000        0x1 /home/hedley/ada/STM32/L/L562/hash/Ada_Drivers_Library/embedded-runtimes/ravenscar-stm32l5nucleo_s/sfp/adalib/libgnarl.a(s-bbcppr.o)
 .rodata.system__bb__cpu_primitives__pend_sv_vector
                0x0000000000000000        0x1 /home/hedley/ada/STM32/L/L562/hash/Ada_Drivers_Library/embedded-runtimes/ravenscar-stm32l5nucleo_s/sfp/adalib/libgnarl.a(s-bbcppr.o)
 .rodata.system__bb__cpu_primitives__reset_vector
                0x0000000000000000        0x1 /home/hedley/ada/STM32/L/L562/hash/Ada_Drivers_Library/embedded-runtimes/ravenscar-stm32l5nucleo_s/sfp/adalib/libgnarl.a(s-bbcppr.o)
 .rodata.system__bb__cpu_primitives__sp_process
                0x0000000000000000        0x1 /home/hedley/ada/STM32/L/L562/hash/Ada_Drivers_Library/embedded-runtimes/ravenscar-stm32l5nucleo_s/sfp/adalib/libgnarl.a(s-bbcppr.o)
 .rodata.system__bb__cpu_primitives__sv_call_vector
                0x0000000000000000        0x1 /home/hedley/ada/STM32/L/L562/hash/Ada_Drivers_Library/embedded-runtimes/ravenscar-stm32l5nucleo_s/sfp/adalib/libgnarl.a(s-bbcppr.o)
 .rodata.system__bb__cpu_primitives__sys_tick_vector
                0x0000000000000000        0x1 /home/hedley/ada/STM32/L/L562/hash/Ada_Drivers_Library/embedded-runtimes/ravenscar-stm32l5nucleo_s/sfp/adalib/libgnarl.a(s-bbcppr.o)
 .rodata.system__bb__cpu_primitives__usage_fault_vector
                0x0000000000000000        0x1 /home/hedley/ada/STM32/L/L562/hash/Ada_Drivers_Library/embedded-runtimes/ravenscar-stm32l5nucleo_s/sfp/adalib/libgnarl.a(s-bbcppr.o)
 .text          0x0000000000000000        0x0 /home/hedley/ada/STM32/L/L562/hash/Ada_Drivers_Library/embedded-runtimes/ravenscar-stm32l5nucleo_s/sfp/adalib/libgnarl.a(s-bbinte.o)
 .data          0x0000000000000000        0x0 /home/hedley/ada/STM32/L/L562/hash/Ada_Drivers_Library/embedded-runtimes/ravenscar-stm32l5nucleo_s/sfp/adalib/libgnarl.a(s-bbinte.o)
 .bss           0x0000000000000000        0x0 /home/hedley/ada/STM32/L/L562/hash/Ada_Drivers_Library/embedded-runtimes/ravenscar-stm32l5nucleo_s/sfp/adalib/libgnarl.a(s-bbinte.o)
 .text.system__bb__interrupts__Tinterrupt_stacksBIP
                0x0000000000000000        0x4 /home/hedley/ada/STM32/L/L562/hash/Ada_Drivers_Library/embedded-runtimes/ravenscar-stm32l5nucleo_s/sfp/adalib/libgnarl.a(s-bbinte.o)
 .text.system__bb__interrupts__Tinterrupt_stack_tableBIP
                0x0000000000000000        0x4 /home/hedley/ada/STM32/L/L562/hash/Ada_Drivers_Library/embedded-runtimes/ravenscar-stm32l5nucleo_s/sfp/adalib/libgnarl.a(s-bbinte.o)
 .text.system__bb__interrupts__attach_handler
                0x0000000000000000       0x1c /home/hedley/ada/STM32/L/L562/hash/Ada_Drivers_Library/embedded-runtimes/ravenscar-stm32l5nucleo_s/sfp/adalib/libgnarl.a(s-bbinte.o)
 .text.system__bb__interrupts__current_interrupt
                0x0000000000000000       0x1c /home/hedley/ada/STM32/L/L562/hash/Ada_Drivers_Library/embedded-runtimes/ravenscar-stm32l5nucleo_s/sfp/adalib/libgnarl.a(s-bbinte.o)
 .text.system__bb__interrupts__within_interrupt_stack
                0x0000000000000000       0x40 /home/hedley/ada/STM32/L/L562/hash/Ada_Drivers_Library/embedded-runtimes/ravenscar-stm32l5nucleo_s/sfp/adalib/libgnarl.a(s-bbinte.o)
 .rodata.system__bb__interrupts__no_interrupt
                0x0000000000000000        0x4 /home/hedley/ada/STM32/L/L562/hash/Ada_Drivers_Library/embedded-runtimes/ravenscar-stm32l5nucleo_s/sfp/adalib/libgnarl.a(s-bbinte.o)
 .text          0x0000000000000000        0x0 /home/hedley/ada/STM32/L/L562/hash/Ada_Drivers_Library/embedded-runtimes/ravenscar-stm32l5nucleo_s/sfp/adalib/libgnarl.a(s-bbthqu.o)
 .data          0x0000000000000000        0x0 /home/hedley/ada/STM32/L/L562/hash/Ada_Drivers_Library/embedded-runtimes/ravenscar-stm32l5nucleo_s/sfp/adalib/libgnarl.a(s-bbthqu.o)
 .bss           0x0000000000000000        0x0 /home/hedley/ada/STM32/L/L562/hash/Ada_Drivers_Library/embedded-runtimes/ravenscar-stm32l5nucleo_s/sfp/adalib/libgnarl.a(s-bbthqu.o)
 .text.__gnat_context_switch_needed
                0x0000000000000000       0x18 /home/hedley/ada/STM32/L/L562/hash/Ada_Drivers_Library/embedded-runtimes/ravenscar-stm32l5nucleo_s/sfp/adalib/libgnarl.a(s-bbthqu.o)
 .text.system__bb__threads__queues__current_priority
                0x0000000000000000       0x20 /home/hedley/ada/STM32/L/L562/hash/Ada_Drivers_Library/embedded-runtimes/ravenscar-stm32l5nucleo_s/sfp/adalib/libgnarl.a(s-bbthqu.o)
 .text.system__bb__threads__queues__extract
                0x0000000000000000       0x28 /home/hedley/ada/STM32/L/L562/hash/Ada_Drivers_Library/embedded-runtimes/ravenscar-stm32l5nucleo_s/sfp/adalib/libgnarl.a(s-bbthqu.o)
 .text.system__bb__threads__queues__extract_first_alarm
                0x0000000000000000       0x24 /home/hedley/ada/STM32/L/L562/hash/Ada_Drivers_Library/embedded-runtimes/ravenscar-stm32l5nucleo_s/sfp/adalib/libgnarl.a(s-bbthqu.o)
 .text.system__bb__threads__queues__first_thread
                0x0000000000000000        0xc /home/hedley/ada/STM32/L/L562/hash/Ada_Drivers_Library/embedded-runtimes/ravenscar-stm32l5nucleo_s/sfp/adalib/libgnarl.a(s-bbthqu.o)
 .text.system__bb__threads__queues__get_next_alarm_time
                0x0000000000000000       0x24 /home/hedley/ada/STM32/L/L562/hash/Ada_Drivers_Library/embedded-runtimes/ravenscar-stm32l5nucleo_s/sfp/adalib/libgnarl.a(s-bbthqu.o)
 .text.system__bb__threads__queues__insert
                0x0000000000000000       0x88 /home/hedley/ada/STM32/L/L562/hash/Ada_Drivers_Library/embedded-runtimes/ravenscar-stm32l5nucleo_s/sfp/adalib/libgnarl.a(s-bbthqu.o)
 .text.system__bb__threads__queues__insert_alarm
                0x0000000000000000       0x58 /home/hedley/ada/STM32/L/L562/hash/Ada_Drivers_Library/embedded-runtimes/ravenscar-stm32l5nucleo_s/sfp/adalib/libgnarl.a(s-bbthqu.o)
 .text.system__bb__threads__queues__running_thread
                0x0000000000000000        0xc /home/hedley/ada/STM32/L/L562/hash/Ada_Drivers_Library/embedded-runtimes/ravenscar-stm32l5nucleo_s/sfp/adalib/libgnarl.a(s-bbthqu.o)
 .text.system__bb__threads__queues__yield
                0x0000000000000000       0x50 /home/hedley/ada/STM32/L/L562/hash/Ada_Drivers_Library/embedded-runtimes/ravenscar-stm32l5nucleo_s/sfp/adalib/libgnarl.a(s-bbthqu.o)
 .text          0x0000000000000000        0x0 /home/hedley/ada/STM32/L/L562/hash/Ada_Drivers_Library/embedded-runtimes/ravenscar-stm32l5nucleo_s/sfp/adalib/libgnarl.a(s-bbtime.o)
 .data          0x0000000000000000        0x0 /home/hedley/ada/STM32/L/L562/hash/Ada_Drivers_Library/embedded-runtimes/ravenscar-stm32l5nucleo_s/sfp/adalib/libgnarl.a(s-bbtime.o)
 .bss           0x0000000000000000        0x0 /home/hedley/ada/STM32/L/L562/hash/Ada_Drivers_Library/embedded-runtimes/ravenscar-stm32l5nucleo_s/sfp/adalib/libgnarl.a(s-bbtime.o)
 .text.system__bb__time__composite_execution_timeIP
                0x0000000000000000        0x4 /home/hedley/ada/STM32/L/L562/hash/Ada_Drivers_Library/embedded-runtimes/ravenscar-stm32l5nucleo_s/sfp/adalib/libgnarl.a(s-bbtime.o)
 .text.system__bb__time__composite_timeIP
                0x0000000000000000        0xc /home/hedley/ada/STM32/L/L562/hash/Ada_Drivers_Library/embedded-runtimes/ravenscar-stm32l5nucleo_s/sfp/adalib/libgnarl.a(s-bbtime.o)
 .text.system__bb__time__clock
                0x0000000000000000       0x5c /home/hedley/ada/STM32/L/L562/hash/Ada_Drivers_Library/embedded-runtimes/ravenscar-stm32l5nucleo_s/sfp/adalib/libgnarl.a(s-bbtime.o)
 .text.system__bb__time__epoch
                0x0000000000000000        0x8 /home/hedley/ada/STM32/L/L562/hash/Ada_Drivers_Library/embedded-runtimes/ravenscar-stm32l5nucleo_s/sfp/adalib/libgnarl.a(s-bbtime.o)
 .text.system__bb__time__get_next_timeout
                0x0000000000000000       0x40 /home/hedley/ada/STM32/L/L562/hash/Ada_Drivers_Library/embedded-runtimes/ravenscar-stm32l5nucleo_s/sfp/adalib/libgnarl.a(s-bbtime.o)
 .text.system__bb__time__delay_until
                0x0000000000000000       0xe0 /home/hedley/ada/STM32/L/L562/hash/Ada_Drivers_Library/embedded-runtimes/ravenscar-stm32l5nucleo_s/sfp/adalib/libgnarl.a(s-bbtime.o)
 .text.system__bb__time__Oconcat
                0x0000000000000000       0x18 /home/hedley/ada/STM32/L/L562/hash/Ada_Drivers_Library/embedded-runtimes/ravenscar-stm32l5nucleo_s/sfp/adalib/libgnarl.a(s-bbtime.o)
 .data.system__bb__time__alarm_lock
                0x0000000000000000        0x2 /home/hedley/ada/STM32/L/L562/hash/Ada_Drivers_Library/embedded-runtimes/ravenscar-stm32l5nucleo_s/sfp/adalib/libgnarl.a(s-bbtime.o)
 .rodata.system__bb__time__initial_composite_execution_time
                0x0000000000000000        0x8 /home/hedley/ada/STM32/L/L562/hash/Ada_Drivers_Library/embedded-runtimes/ravenscar-stm32l5nucleo_s/sfp/adalib/libgnarl.a(s-bbtime.o)
 .rodata.system__bb__time__periods_in_epoch
                0x0000000000000000        0x4 /home/hedley/ada/STM32/L/L562/hash/Ada_Drivers_Library/embedded-runtimes/ravenscar-stm32l5nucleo_s/sfp/adalib/libgnarl.a(s-bbtime.o)
 .rodata.system__bb__time__update_in_progress
                0x0000000000000000        0x4 /home/hedley/ada/STM32/L/L562/hash/Ada_Drivers_Library/embedded-runtimes/ravenscar-stm32l5nucleo_s/sfp/adalib/libgnarl.a(s-bbtime.o)
 .text          0x0000000000000000        0x0 /home/hedley/ada/STM32/L/L562/hash/Ada_Drivers_Library/embedded-runtimes/ravenscar-stm32l5nucleo_s/sfp/adalib/libgnarl.a(s-bcpcst.o)
 .data          0x0000000000000000        0x0 /home/hedley/ada/STM32/L/L562/hash/Ada_Drivers_Library/embedded-runtimes/ravenscar-stm32l5nucleo_s/sfp/adalib/libgnarl.a(s-bcpcst.o)
 .bss           0x0000000000000000        0x0 /home/hedley/ada/STM32/L/L562/hash/Ada_Drivers_Library/embedded-runtimes/ravenscar-stm32l5nucleo_s/sfp/adalib/libgnarl.a(s-bcpcst.o)
 .text          0x0000000000000000        0x0 /home/hedley/ada/STM32/L/L562/hash/Ada_Drivers_Library/embedded-runtimes/ravenscar-stm32l5nucleo_s/sfp/adalib/libgnarl.a(s-taprob.o)
 .data          0x0000000000000000        0x0 /home/hedley/ada/STM32/L/L562/hash/Ada_Drivers_Library/embedded-runtimes/ravenscar-stm32l5nucleo_s/sfp/adalib/libgnarl.a(s-taprob.o)
 .bss           0x0000000000000000        0x0 /home/hedley/ada/STM32/L/L562/hash/Ada_Drivers_Library/embedded-runtimes/ravenscar-stm32l5nucleo_s/sfp/adalib/libgnarl.a(s-taprob.o)
 .text.system__tasking__protected_objects__entry_bodyIP
                0x0000000000000000        0x8 /home/hedley/ada/STM32/L/L562/hash/Ada_Drivers_Library/embedded-runtimes/ravenscar-stm32l5nucleo_s/sfp/adalib/libgnarl.a(s-taprob.o)
 .text.system__tasking__protected_objects__initialize_protection
                0x0000000000000000       0x14 /home/hedley/ada/STM32/L/L562/hash/Ada_Drivers_Library/embedded-runtimes/ravenscar-stm32l5nucleo_s/sfp/adalib/libgnarl.a(s-taprob.o)
 .text.system__tasking__protected_objects__lock
                0x0000000000000000       0x50 /home/hedley/ada/STM32/L/L562/hash/Ada_Drivers_Library/embedded-runtimes/ravenscar-stm32l5nucleo_s/sfp/adalib/libgnarl.a(s-taprob.o)
 .text.system__tasking__protected_objects__unlock
                0x0000000000000000       0x2c /home/hedley/ada/STM32/L/L562/hash/Ada_Drivers_Library/embedded-runtimes/ravenscar-stm32l5nucleo_s/sfp/adalib/libgnarl.a(s-taprob.o)
 .rodata        0x0000000000000000        0xd /home/hedley/ada/STM32/L/L562/hash/Ada_Drivers_Library/embedded-runtimes/ravenscar-stm32l5nucleo_s/sfp/adalib/libgnarl.a(s-taprob.o)
 .rodata.system__tasking__protected_objects__null_po
                0x0000000000000000        0x4 /home/hedley/ada/STM32/L/L562/hash/Ada_Drivers_Library/embedded-runtimes/ravenscar-stm32l5nucleo_s/sfp/adalib/libgnarl.a(s-taprob.o)
 .text          0x0000000000000000        0x0 /home/hedley/ada/STM32/L/L562/hash/Ada_Drivers_Library/embedded-runtimes/ravenscar-stm32l5nucleo_s/sfp/adalib/libgnarl.a(s-tarest.o)
 .data          0x0000000000000000        0x0 /home/hedley/ada/STM32/L/L562/hash/Ada_Drivers_Library/embedded-runtimes/ravenscar-stm32l5nucleo_s/sfp/adalib/libgnarl.a(s-tarest.o)
 .bss           0x0000000000000000        0x0 /home/hedley/ada/STM32/L/L562/hash/Ada_Drivers_Library/embedded-runtimes/ravenscar-stm32l5nucleo_s/sfp/adalib/libgnarl.a(s-tarest.o)
 .text.system__tasking__restricted__stages__create_restricted_task__2
                0x0000000000000000       0xb0 /home/hedley/ada/STM32/L/L562/hash/Ada_Drivers_Library/embedded-runtimes/ravenscar-stm32l5nucleo_s/sfp/adalib/libgnarl.a(s-tarest.o)
 .text.system__tasking__restricted__stages__activate_restricted_tasks
                0x0000000000000000       0x20 /home/hedley/ada/STM32/L/L562/hash/Ada_Drivers_Library/embedded-runtimes/ravenscar-stm32l5nucleo_s/sfp/adalib/libgnarl.a(s-tarest.o)
 .text.system__tasking__restricted__stages__complete_restricted_activation
                0x0000000000000000        0x4 /home/hedley/ada/STM32/L/L562/hash/Ada_Drivers_Library/embedded-runtimes/ravenscar-stm32l5nucleo_s/sfp/adalib/libgnarl.a(s-tarest.o)
 .text.system__tasking__restricted__stages__complete_restricted_task
                0x0000000000000000       0x10 /home/hedley/ada/STM32/L/L562/hash/Ada_Drivers_Library/embedded-runtimes/ravenscar-stm32l5nucleo_s/sfp/adalib/libgnarl.a(s-tarest.o)
 .text.system__tasking__restricted__stages__create_restricted_task
                0x0000000000000000       0x64 /home/hedley/ada/STM32/L/L562/hash/Ada_Drivers_Library/embedded-runtimes/ravenscar-stm32l5nucleo_s/sfp/adalib/libgnarl.a(s-tarest.o)
 .text.system__tasking__restricted__stages__create_restricted_task_sequential
                0x0000000000000000       0x34 /home/hedley/ada/STM32/L/L562/hash/Ada_Drivers_Library/embedded-runtimes/ravenscar-stm32l5nucleo_s/sfp/adalib/libgnarl.a(s-tarest.o)
 .text.system__tasking__restricted__stages__finalize_global_tasks
                0x0000000000000000       0x10 /home/hedley/ada/STM32/L/L562/hash/Ada_Drivers_Library/embedded-runtimes/ravenscar-stm32l5nucleo_s/sfp/adalib/libgnarl.a(s-tarest.o)
 .text.system__tasking__restricted__stages__restricted_terminated
                0x0000000000000000       0x10 /home/hedley/ada/STM32/L/L562/hash/Ada_Drivers_Library/embedded-runtimes/ravenscar-stm32l5nucleo_s/sfp/adalib/libgnarl.a(s-tarest.o)
 .rodata.system__tasking__restricted__stages__create_restricted_task__2.str1.4
                0x0000000000000000       0x4a /home/hedley/ada/STM32/L/L562/hash/Ada_Drivers_Library/embedded-runtimes/ravenscar-stm32l5nucleo_s/sfp/adalib/libgnarl.a(s-tarest.o)
 .text          0x0000000000000000        0x0 /home/hedley/ada/STM32/L/L562/hash/Ada_Drivers_Library/embedded-runtimes/ravenscar-stm32l5nucleo_s/sfp/adalib/libgnarl.a(s-tasdeb.o)
 .data          0x0000000000000000        0x0 /home/hedley/ada/STM32/L/L562/hash/Ada_Drivers_Library/embedded-runtimes/ravenscar-stm32l5nucleo_s/sfp/adalib/libgnarl.a(s-tasdeb.o)
 .bss           0x0000000000000000        0x0 /home/hedley/ada/STM32/L/L562/hash/Ada_Drivers_Library/embedded-runtimes/ravenscar-stm32l5nucleo_s/sfp/adalib/libgnarl.a(s-tasdeb.o)
 .text.system__tasking__debug__add_task_id
                0x0000000000000000       0x3c /home/hedley/ada/STM32/L/L562/hash/Ada_Drivers_Library/embedded-runtimes/ravenscar-stm32l5nucleo_s/sfp/adalib/libgnarl.a(s-tasdeb.o)
 .data.system__tasking__debug_E
                0x0000000000000000        0x2 /home/hedley/ada/STM32/L/L562/hash/Ada_Drivers_Library/embedded-runtimes/ravenscar-stm32l5nucleo_s/sfp/adalib/libgnarl.a(s-tasdeb.o)
 .text          0x0000000000000000        0x0 /home/hedley/ada/STM32/L/L562/hash/Ada_Drivers_Library/embedded-runtimes/ravenscar-stm32l5nucleo_s/sfp/adalib/libgnarl.a(s-taskin.o)
 .data          0x0000000000000000        0x0 /home/hedley/ada/STM32/L/L562/hash/Ada_Drivers_Library/embedded-runtimes/ravenscar-stm32l5nucleo_s/sfp/adalib/libgnarl.a(s-taskin.o)
 .bss           0x0000000000000000        0x0 /home/hedley/ada/STM32/L/L562/hash/Ada_Drivers_Library/embedded-runtimes/ravenscar-stm32l5nucleo_s/sfp/adalib/libgnarl.a(s-taskin.o)
 .text.system__tasking__E5sIP
                0x0000000000000000        0x8 /home/hedley/ada/STM32/L/L562/hash/Ada_Drivers_Library/embedded-runtimes/ravenscar-stm32l5nucleo_s/sfp/adalib/libgnarl.a(s-taskin.o)
 .text.system__tasking__activation_chainIP
                0x0000000000000000        0x8 /home/hedley/ada/STM32/L/L562/hash/Ada_Drivers_Library/embedded-runtimes/ravenscar-stm32l5nucleo_s/sfp/adalib/libgnarl.a(s-taskin.o)
 .text.__gnat_get_secondary_stack
                0x0000000000000000       0x10 /home/hedley/ada/STM32/L/L562/hash/Ada_Drivers_Library/embedded-runtimes/ravenscar-stm32l5nucleo_s/sfp/adalib/libgnarl.a(s-taskin.o)
 .text.system__tasking__self
                0x0000000000000000        0xc /home/hedley/ada/STM32/L/L562/hash/Ada_Drivers_Library/embedded-runtimes/ravenscar-stm32l5nucleo_s/sfp/adalib/libgnarl.a(s-taskin.o)
 .text.system__tasking__storage_size
                0x0000000000000000        0x8 /home/hedley/ada/STM32/L/L562/hash/Ada_Drivers_Library/embedded-runtimes/ravenscar-stm32l5nucleo_s/sfp/adalib/libgnarl.a(s-taskin.o)
 .rodata.system__tasking__idle_priority
                0x0000000000000000        0x4 /home/hedley/ada/STM32/L/L562/hash/Ada_Drivers_Library/embedded-runtimes/ravenscar-stm32l5nucleo_s/sfp/adalib/libgnarl.a(s-taskin.o)
 .rodata.system__tasking__library_task_level
                0x0000000000000000        0x4 /home/hedley/ada/STM32/L/L562/hash/Ada_Drivers_Library/embedded-runtimes/ravenscar-stm32l5nucleo_s/sfp/adalib/libgnarl.a(s-taskin.o)
 .rodata.system__tasking__null_task
                0x0000000000000000        0x4 /home/hedley/ada/STM32/L/L562/hash/Ada_Drivers_Library/embedded-runtimes/ravenscar-stm32l5nucleo_s/sfp/adalib/libgnarl.a(s-taskin.o)
 .rodata.system__tasking__task_statesN
                0x0000000000000000       0x22 /home/hedley/ada/STM32/L/L562/hash/Ada_Drivers_Library/embedded-runtimes/ravenscar-stm32l5nucleo_s/sfp/adalib/libgnarl.a(s-taskin.o)
 .rodata.system__tasking__task_statesS
                0x0000000000000000      0x130 /home/hedley/ada/STM32/L/L562/hash/Ada_Drivers_Library/embedded-runtimes/ravenscar-stm32l5nucleo_s/sfp/adalib/libgnarl.a(s-taskin.o)
 .text          0x0000000000000000        0x0 /home/hedley/ada/STM32/L/L562/hash/Ada_Drivers_Library/embedded-runtimes/ravenscar-stm32l5nucleo_s/sfp/adalib/libgnarl.a(s-tpobmu.o)
 .data          0x0000000000000000        0x0 /home/hedley/ada/STM32/L/L562/hash/Ada_Drivers_Library/embedded-runtimes/ravenscar-stm32l5nucleo_s/sfp/adalib/libgnarl.a(s-tpobmu.o)
 .bss           0x0000000000000000        0x0 /home/hedley/ada/STM32/L/L562/hash/Ada_Drivers_Library/embedded-runtimes/ravenscar-stm32l5nucleo_s/sfp/adalib/libgnarl.a(s-tpobmu.o)
 .text.system__tasking__protected_objects__multiprocessors__entry_call_listIP
                0x0000000000000000        0xc /home/hedley/ada/STM32/L/L562/hash/Ada_Drivers_Library/embedded-runtimes/ravenscar-stm32l5nucleo_s/sfp/adalib/libgnarl.a(s-tpobmu.o)
 .text.system__tasking__protected_objects__multiprocessors__served
                0x0000000000000000       0xd4 /home/hedley/ada/STM32/L/L562/hash/Ada_Drivers_Library/embedded-runtimes/ravenscar-stm32l5nucleo_s/sfp/adalib/libgnarl.a(s-tpobmu.o)
 .text          0x0000000000000000        0x0 /home/hedley/ada/STM32/L/L562/hash/Ada_Drivers_Library/embedded-runtimes/ravenscar-stm32l5nucleo_s/sfp/adalib/libgnarl.a(s-bbprot.o)
 .data          0x0000000000000000        0x0 /home/hedley/ada/STM32/L/L562/hash/Ada_Drivers_Library/embedded-runtimes/ravenscar-stm32l5nucleo_s/sfp/adalib/libgnarl.a(s-bbprot.o)
 .bss           0x0000000000000000        0x0 /home/hedley/ada/STM32/L/L562/hash/Ada_Drivers_Library/embedded-runtimes/ravenscar-stm32l5nucleo_s/sfp/adalib/libgnarl.a(s-bbprot.o)
 .text.system__bb__protection__enter_kernel
                0x0000000000000000        0x4 /home/hedley/ada/STM32/L/L562/hash/Ada_Drivers_Library/embedded-runtimes/ravenscar-stm32l5nucleo_s/sfp/adalib/libgnarl.a(s-bbprot.o)
 .text          0x0000000000000000        0x0 /home/hedley/ada/STM32/L/L562/hash/Ada_Drivers_Library/embedded-runtimes/ravenscar-stm32l5nucleo_s/sfp/adalib/libgnarl.a(s-bbthre.o)
 .data          0x0000000000000000        0x0 /home/hedley/ada/STM32/L/L562/hash/Ada_Drivers_Library/embedded-runtimes/ravenscar-stm32l5nucleo_s/sfp/adalib/libgnarl.a(s-bbthre.o)
 .bss           0x0000000000000000        0x0 /home/hedley/ada/STM32/L/L562/hash/Ada_Drivers_Library/embedded-runtimes/ravenscar-stm32l5nucleo_s/sfp/adalib/libgnarl.a(s-bbthre.o)
 .text.system__bb__threads__thread_descriptorIP
                0x0000000000000000        0xc /home/hedley/ada/STM32/L/L562/hash/Ada_Drivers_Library/embedded-runtimes/ravenscar-stm32l5nucleo_s/sfp/adalib/libgnarl.a(s-bbthre.o)
 .text.system__bb__threads__get_affinity
                0x0000000000000000        0x8 /home/hedley/ada/STM32/L/L562/hash/Ada_Drivers_Library/embedded-runtimes/ravenscar-stm32l5nucleo_s/sfp/adalib/libgnarl.a(s-bbthre.o)
 .text.system__bb__threads__get_cpu
                0x0000000000000000        0xc /home/hedley/ada/STM32/L/L562/hash/Ada_Drivers_Library/embedded-runtimes/ravenscar-stm32l5nucleo_s/sfp/adalib/libgnarl.a(s-bbthre.o)
 .text.system__bb__threads__get_atcb
                0x0000000000000000        0xc /home/hedley/ada/STM32/L/L562/hash/Ada_Drivers_Library/embedded-runtimes/ravenscar-stm32l5nucleo_s/sfp/adalib/libgnarl.a(s-bbthre.o)
 .text.system__bb__threads__get_priority
                0x0000000000000000        0x4 /home/hedley/ada/STM32/L/L562/hash/Ada_Drivers_Library/embedded-runtimes/ravenscar-stm32l5nucleo_s/sfp/adalib/libgnarl.a(s-bbthre.o)
 .text.system__bb__threads__initialize_slave
                0x0000000000000000       0xa0 /home/hedley/ada/STM32/L/L562/hash/Ada_Drivers_Library/embedded-runtimes/ravenscar-stm32l5nucleo_s/sfp/adalib/libgnarl.a(s-bbthre.o)
 .text.system__bb__threads__set_atcb
                0x0000000000000000        0x4 /home/hedley/ada/STM32/L/L562/hash/Ada_Drivers_Library/embedded-runtimes/ravenscar-stm32l5nucleo_s/sfp/adalib/libgnarl.a(s-bbthre.o)
 .text.system__bb__threads__set_priority
                0x0000000000000000       0x1c /home/hedley/ada/STM32/L/L562/hash/Ada_Drivers_Library/embedded-runtimes/ravenscar-stm32l5nucleo_s/sfp/adalib/libgnarl.a(s-bbthre.o)
 .text.system__bb__threads__thread_self
                0x0000000000000000        0xc /home/hedley/ada/STM32/L/L562/hash/Ada_Drivers_Library/embedded-runtimes/ravenscar-stm32l5nucleo_s/sfp/adalib/libgnarl.a(s-bbthre.o)
 .rodata.system__bb__threads__null_thread_id
                0x0000000000000000        0x4 /home/hedley/ada/STM32/L/L562/hash/Ada_Drivers_Library/embedded-runtimes/ravenscar-stm32l5nucleo_s/sfp/adalib/libgnarl.a(s-bbthre.o)
 .rodata.system__bb__threads__thread_statesN
                0x0000000000000000        0x4 /home/hedley/ada/STM32/L/L562/hash/Ada_Drivers_Library/embedded-runtimes/ravenscar-stm32l5nucleo_s/sfp/adalib/libgnarl.a(s-bbthre.o)
 .rodata.system__bb__threads__thread_statesS
                0x0000000000000000       0x18 /home/hedley/ada/STM32/L/L562/hash/Ada_Drivers_Library/embedded-runtimes/ravenscar-stm32l5nucleo_s/sfp/adalib/libgnarl.a(s-bbthre.o)
 .text          0x0000000000000000        0x0 /home/hedley/ada/STM32/L/L562/hash/Ada_Drivers_Library/embedded-runtimes/ravenscar-stm32l5nucleo_s/sfp/adalib/libgnarl.a(s-bbtiev.o)
 .data          0x0000000000000000        0x0 /home/hedley/ada/STM32/L/L562/hash/Ada_Drivers_Library/embedded-runtimes/ravenscar-stm32l5nucleo_s/sfp/adalib/libgnarl.a(s-bbtiev.o)
 .bss           0x0000000000000000        0x0 /home/hedley/ada/STM32/L/L562/hash/Ada_Drivers_Library/embedded-runtimes/ravenscar-stm32l5nucleo_s/sfp/adalib/libgnarl.a(s-bbtiev.o)
 .text.system__bb__timing_events___size
                0x0000000000000000        0x8 /home/hedley/ada/STM32/L/L562/hash/Ada_Drivers_Library/embedded-runtimes/ravenscar-stm32l5nucleo_s/sfp/adalib/libgnarl.a(s-bbtiev.o)
 .text.system__bb__timing_events__time_of_event
                0x0000000000000000       0x10 /home/hedley/ada/STM32/L/L562/hash/Ada_Drivers_Library/embedded-runtimes/ravenscar-stm32l5nucleo_s/sfp/adalib/libgnarl.a(s-bbtiev.o)
 .text.system__bb__timing_events__set_handler
                0x0000000000000000       0xa4 /home/hedley/ada/STM32/L/L562/hash/Ada_Drivers_Library/embedded-runtimes/ravenscar-stm32l5nucleo_s/sfp/adalib/libgnarl.a(s-bbtiev.o)
 .text.system__bb__timing_events__cancel_handler
                0x0000000000000000       0x5c /home/hedley/ada/STM32/L/L562/hash/Ada_Drivers_Library/embedded-runtimes/ravenscar-stm32l5nucleo_s/sfp/adalib/libgnarl.a(s-bbtiev.o)
 .text.system__bb__timing_events__timing_eventIP
                0x0000000000000000       0x1c /home/hedley/ada/STM32/L/L562/hash/Ada_Drivers_Library/embedded-runtimes/ravenscar-stm32l5nucleo_s/sfp/adalib/libgnarl.a(s-bbtiev.o)
 .text.system__bb__timing_events__get_next_timeout
                0x0000000000000000       0x24 /home/hedley/ada/STM32/L/L562/hash/Ada_Drivers_Library/embedded-runtimes/ravenscar-stm32l5nucleo_s/sfp/adalib/libgnarl.a(s-bbtiev.o)
 .data.system__bb__timing_events_E
                0x0000000000000000        0x2 /home/hedley/ada/STM32/L/L562/hash/Ada_Drivers_Library/embedded-runtimes/ravenscar-stm32l5nucleo_s/sfp/adalib/libgnarl.a(s-bbtiev.o)
 .rodata.system__bb__timing_events__timing_eventB10s
                0x0000000000000000       0x1c /home/hedley/ada/STM32/L/L562/hash/Ada_Drivers_Library/embedded-runtimes/ravenscar-stm32l5nucleo_s/sfp/adalib/libgnarl.a(s-bbtiev.o)
 .rodata.system__bb__timing_events__timing_eventE6s
                0x0000000000000000       0x25 /home/hedley/ada/STM32/L/L562/hash/Ada_Drivers_Library/embedded-runtimes/ravenscar-stm32l5nucleo_s/sfp/adalib/libgnarl.a(s-bbtiev.o)
 .rodata.system__bb__timing_events__timing_eventP
                0x0000000000000000        0x4 /home/hedley/ada/STM32/L/L562/hash/Ada_Drivers_Library/embedded-runtimes/ravenscar-stm32l5nucleo_s/sfp/adalib/libgnarl.a(s-bbtiev.o)
 .rodata.system__bb__timing_events__timing_eventR8s
                0x0000000000000000        0x4 /home/hedley/ada/STM32/L/L562/hash/Ada_Drivers_Library/embedded-runtimes/ravenscar-stm32l5nucleo_s/sfp/adalib/libgnarl.a(s-bbtiev.o)
 .rodata.system__bb__timing_events__timing_eventR8s___UNC
                0x0000000000000000        0xc /home/hedley/ada/STM32/L/L562/hash/Ada_Drivers_Library/embedded-runtimes/ravenscar-stm32l5nucleo_s/sfp/adalib/libgnarl.a(s-bbtiev.o)
 .rodata.system__bb__timing_events__timing_eventT
                0x0000000000000000       0x1c /home/hedley/ada/STM32/L/L562/hash/Ada_Drivers_Library/embedded-runtimes/ravenscar-stm32l5nucleo_s/sfp/adalib/libgnarl.a(s-bbtiev.o)
 .rodata.system__bb__timing_events__timing_eventY
                0x0000000000000000        0x4 /home/hedley/ada/STM32/L/L562/hash/Ada_Drivers_Library/embedded-runtimes/ravenscar-stm32l5nucleo_s/sfp/adalib/libgnarl.a(s-bbtiev.o)
 .text          0x0000000000000000        0x0 /home/hedley/ada/STM32/L/L562/hash/Ada_Drivers_Library/embedded-runtimes/ravenscar-stm32l5nucleo_s/sfp/adalib/libgnarl.a(s-taprop.o)
 .data          0x0000000000000000        0x0 /home/hedley/ada/STM32/L/L562/hash/Ada_Drivers_Library/embedded-runtimes/ravenscar-stm32l5nucleo_s/sfp/adalib/libgnarl.a(s-taprop.o)
 .bss           0x0000000000000000        0x0 /home/hedley/ada/STM32/L/L562/hash/Ada_Drivers_Library/embedded-runtimes/ravenscar-stm32l5nucleo_s/sfp/adalib/libgnarl.a(s-taprop.o)
 .text.system__task_primitives__operations__Tidle_stacksBIP
                0x0000000000000000        0x4 /home/hedley/ada/STM32/L/L562/hash/Ada_Drivers_Library/embedded-runtimes/ravenscar-stm32l5nucleo_s/sfp/adalib/libgnarl.a(s-taprop.o)
 .text.system__task_primitives__operations__Tidle_stacks_tableBIP
                0x0000000000000000        0x4 /home/hedley/ada/STM32/L/L562/hash/Ada_Drivers_Library/embedded-runtimes/ravenscar-stm32l5nucleo_s/sfp/adalib/libgnarl.a(s-taprop.o)
 .text.system__task_primitives__operations__Tidle_tasksBIP
                0x0000000000000000        0x4 /home/hedley/ada/STM32/L/L562/hash/Ada_Drivers_Library/embedded-runtimes/ravenscar-stm32l5nucleo_s/sfp/adalib/libgnarl.a(s-taprop.o)
 .text.system__task_primitives__operations__self
                0x0000000000000000        0xc /home/hedley/ada/STM32/L/L562/hash/Ada_Drivers_Library/embedded-runtimes/ravenscar-stm32l5nucleo_s/sfp/adalib/libgnarl.a(s-taprop.o)
 .text.system__task_primitives__operations__sleep
                0x0000000000000000        0x4 /home/hedley/ada/STM32/L/L562/hash/Ada_Drivers_Library/embedded-runtimes/ravenscar-stm32l5nucleo_s/sfp/adalib/libgnarl.a(s-taprop.o)
 .text.system__task_primitives__operations__delay_until
                0x0000000000000000       0x1c /home/hedley/ada/STM32/L/L562/hash/Ada_Drivers_Library/embedded-runtimes/ravenscar-stm32l5nucleo_s/sfp/adalib/libgnarl.a(s-taprop.o)
 .text.system__task_primitives__operations__monotonic_clock
                0x0000000000000000       0x60 /home/hedley/ada/STM32/L/L562/hash/Ada_Drivers_Library/embedded-runtimes/ravenscar-stm32l5nucleo_s/sfp/adalib/libgnarl.a(s-taprop.o)
 .text.system__task_primitives__operations__wakeup
                0x0000000000000000        0x8 /home/hedley/ada/STM32/L/L562/hash/Ada_Drivers_Library/embedded-runtimes/ravenscar-stm32l5nucleo_s/sfp/adalib/libgnarl.a(s-taprop.o)
 .text.system__task_primitives__operations__set_priority
                0x0000000000000000       0x18 /home/hedley/ada/STM32/L/L562/hash/Ada_Drivers_Library/embedded-runtimes/ravenscar-stm32l5nucleo_s/sfp/adalib/libgnarl.a(s-taprop.o)
 .text.system__task_primitives__operations__get_priority
                0x0000000000000000        0x8 /home/hedley/ada/STM32/L/L562/hash/Ada_Drivers_Library/embedded-runtimes/ravenscar-stm32l5nucleo_s/sfp/adalib/libgnarl.a(s-taprop.o)
 .text.system__task_primitives__operations__get_affinity
                0x0000000000000000        0xc /home/hedley/ada/STM32/L/L562/hash/Ada_Drivers_Library/embedded-runtimes/ravenscar-stm32l5nucleo_s/sfp/adalib/libgnarl.a(s-taprop.o)
 .text.system__task_primitives__operations__get_cpu
                0x0000000000000000       0x10 /home/hedley/ada/STM32/L/L562/hash/Ada_Drivers_Library/embedded-runtimes/ravenscar-stm32l5nucleo_s/sfp/adalib/libgnarl.a(s-taprop.o)
 .text.system__task_primitives__operations__get_thread_id
                0x0000000000000000        0x8 /home/hedley/ada/STM32/L/L562/hash/Ada_Drivers_Library/embedded-runtimes/ravenscar-stm32l5nucleo_s/sfp/adalib/libgnarl.a(s-taprop.o)
 .text.system__task_primitives__operations__initialize_tcb
                0x0000000000000000        0x4 /home/hedley/ada/STM32/L/L562/hash/Ada_Drivers_Library/embedded-runtimes/ravenscar-stm32l5nucleo_s/sfp/adalib/libgnarl.a(s-taprop.o)
 .text.system__task_primitives__operations__create_task
                0x0000000000000000       0x34 /home/hedley/ada/STM32/L/L562/hash/Ada_Drivers_Library/embedded-runtimes/ravenscar-stm32l5nucleo_s/sfp/adalib/libgnarl.a(s-taprop.o)
 .text.__gnat_initialize_slave
                0x0000000000000000       0x34 /home/hedley/ada/STM32/L/L562/hash/Ada_Drivers_Library/embedded-runtimes/ravenscar-stm32l5nucleo_s/sfp/adalib/libgnarl.a(s-taprop.o)
 .text.system__task_primitives__operations__initialize
                0x0000000000000000       0xac /home/hedley/ada/STM32/L/L562/hash/Ada_Drivers_Library/embedded-runtimes/ravenscar-stm32l5nucleo_s/sfp/adalib/libgnarl.a(s-taprop.o)
 .text.system__task_primitives__operations__is_task_context
                0x0000000000000000       0x14 /home/hedley/ada/STM32/L/L562/hash/Ada_Drivers_Library/embedded-runtimes/ravenscar-stm32l5nucleo_s/sfp/adalib/libgnarl.a(s-taprop.o)
 .rodata.system__task_primitives__operations__idle_stack_size
                0x0000000000000000        0x4 /home/hedley/ada/STM32/L/L562/hash/Ada_Drivers_Library/embedded-runtimes/ravenscar-stm32l5nucleo_s/sfp/adalib/libgnarl.a(s-taprop.o)
 .text          0x0000000000000000        0x0 /home/hedley/ada/STM32/L/L562/hash/Ada_Drivers_Library/embedded-runtimes/ravenscar-stm32l5nucleo_s/sfp/adalib/libgnat.a(a-elchha.o)
 .data          0x0000000000000000        0x0 /home/hedley/ada/STM32/L/L562/hash/Ada_Drivers_Library/embedded-runtimes/ravenscar-stm32l5nucleo_s/sfp/adalib/libgnat.a(a-elchha.o)
 .bss           0x0000000000000000        0x0 /home/hedley/ada/STM32/L/L562/hash/Ada_Drivers_Library/embedded-runtimes/ravenscar-stm32l5nucleo_s/sfp/adalib/libgnat.a(a-elchha.o)
 .data.ada__exceptions__last_chance_handler_E
                0x0000000000000000        0x2 /home/hedley/ada/STM32/L/L562/hash/Ada_Drivers_Library/embedded-runtimes/ravenscar-stm32l5nucleo_s/sfp/adalib/libgnat.a(a-elchha.o)
 .text          0x0000000000000000        0x0 /home/hedley/ada/STM32/L/L562/hash/Ada_Drivers_Library/embedded-runtimes/ravenscar-stm32l5nucleo_s/sfp/adalib/libgnat.a(a-except.o)
 .data          0x0000000000000000        0x0 /home/hedley/ada/STM32/L/L562/hash/Ada_Drivers_Library/embedded-runtimes/ravenscar-stm32l5nucleo_s/sfp/adalib/libgnat.a(a-except.o)
 .bss           0x0000000000000000        0x0 /home/hedley/ada/STM32/L/L562/hash/Ada_Drivers_Library/embedded-runtimes/ravenscar-stm32l5nucleo_s/sfp/adalib/libgnat.a(a-except.o)
 .data.ada__exceptions_E
                0x0000000000000000        0x2 /home/hedley/ada/STM32/L/L562/hash/Ada_Drivers_Library/embedded-runtimes/ravenscar-stm32l5nucleo_s/sfp/adalib/libgnat.a(a-except.o)
 .rodata.ada__exceptions__null_id
                0x0000000000000000        0x4 /home/hedley/ada/STM32/L/L562/hash/Ada_Drivers_Library/embedded-runtimes/ravenscar-stm32l5nucleo_s/sfp/adalib/libgnat.a(a-except.o)
 .rodata.ada__exceptions__empty_c_string
                0x0000000000000000        0x4 /home/hedley/ada/STM32/L/L562/hash/Ada_Drivers_Library/embedded-runtimes/ravenscar-stm32l5nucleo_s/sfp/adalib/libgnat.a(a-except.o)
 .text          0x0000000000000000        0x0 /home/hedley/ada/STM32/L/L562/hash/Ada_Drivers_Library/embedded-runtimes/ravenscar-stm32l5nucleo_s/sfp/adalib/libgnat.a(g-io.o)
 .data          0x0000000000000000        0x0 /home/hedley/ada/STM32/L/L562/hash/Ada_Drivers_Library/embedded-runtimes/ravenscar-stm32l5nucleo_s/sfp/adalib/libgnat.a(g-io.o)
 .bss           0x0000000000000000        0x0 /home/hedley/ada/STM32/L/L562/hash/Ada_Drivers_Library/embedded-runtimes/ravenscar-stm32l5nucleo_s/sfp/adalib/libgnat.a(g-io.o)
 .data.gnat__io_E
                0x0000000000000000        0x2 /home/hedley/ada/STM32/L/L562/hash/Ada_Drivers_Library/embedded-runtimes/ravenscar-stm32l5nucleo_s/sfp/adalib/libgnat.a(g-io.o)
 .data          0x0000000000000000        0x0 /home/hedley/ada/STM32/L/L562/hash/Ada_Drivers_Library/embedded-runtimes/ravenscar-stm32l5nucleo_s/sfp/adalib/libgnat.a(handler.o)
 .bss           0x0000000000000000        0x0 /home/hedley/ada/STM32/L/L562/hash/Ada_Drivers_Library/embedded-runtimes/ravenscar-stm32l5nucleo_s/sfp/adalib/libgnat.a(handler.o)
 .text          0x0000000000000000        0x0 /home/hedley/ada/STM32/L/L562/hash/Ada_Drivers_Library/embedded-runtimes/ravenscar-stm32l5nucleo_s/sfp/adalib/libgnat.a(s-assert.o)
 .data          0x0000000000000000        0x0 /home/hedley/ada/STM32/L/L562/hash/Ada_Drivers_Library/embedded-runtimes/ravenscar-stm32l5nucleo_s/sfp/adalib/libgnat.a(s-assert.o)
 .bss           0x0000000000000000        0x0 /home/hedley/ada/STM32/L/L562/hash/Ada_Drivers_Library/embedded-runtimes/ravenscar-stm32l5nucleo_s/sfp/adalib/libgnat.a(s-assert.o)
 .data.system__assertions_E
                0x0000000000000000        0x2 /home/hedley/ada/STM32/L/L562/hash/Ada_Drivers_Library/embedded-runtimes/ravenscar-stm32l5nucleo_s/sfp/adalib/libgnat.a(s-assert.o)
 .data.system__assertions__assert_failure
                0x0000000000000000       0x18 /home/hedley/ada/STM32/L/L562/hash/Ada_Drivers_Library/embedded-runtimes/ravenscar-stm32l5nucleo_s/sfp/adalib/libgnat.a(s-assert.o)
 .rodata.system__assertions__R2s
                0x0000000000000000        0x4 /home/hedley/ada/STM32/L/L562/hash/Ada_Drivers_Library/embedded-runtimes/ravenscar-stm32l5nucleo_s/sfp/adalib/libgnat.a(s-assert.o)
 .rodata.system__assertions__assert_failureE
                0x0000000000000000       0x21 /home/hedley/ada/STM32/L/L562/hash/Ada_Drivers_Library/embedded-runtimes/ravenscar-stm32l5nucleo_s/sfp/adalib/libgnat.a(s-assert.o)
 .text          0x0000000000000000        0x0 /home/hedley/ada/STM32/L/L562/hash/Ada_Drivers_Library/embedded-runtimes/ravenscar-stm32l5nucleo_s/sfp/adalib/libgnat.a(s-macres.o)
 .data          0x0000000000000000        0x0 /home/hedley/ada/STM32/L/L562/hash/Ada_Drivers_Library/embedded-runtimes/ravenscar-stm32l5nucleo_s/sfp/adalib/libgnat.a(s-macres.o)
 .bss           0x0000000000000000        0x0 /home/hedley/ada/STM32/L/L562/hash/Ada_Drivers_Library/embedded-runtimes/ravenscar-stm32l5nucleo_s/sfp/adalib/libgnat.a(s-macres.o)
 .text.abort    0x0000000000000000       0x10 /home/hedley/ada/STM32/L/L562/hash/Ada_Drivers_Library/embedded-runtimes/ravenscar-stm32l5nucleo_s/sfp/adalib/libgnat.a(s-macres.o)
 .data.system__machine_reset_E
                0x0000000000000000        0x2 /home/hedley/ada/STM32/L/L562/hash/Ada_Drivers_Library/embedded-runtimes/ravenscar-stm32l5nucleo_s/sfp/adalib/libgnat.a(s-macres.o)
 .text          0x0000000000000000        0x0 /home/hedley/ada/STM32/L/L562/hash/Ada_Drivers_Library/embedded-runtimes/ravenscar-stm32l5nucleo_s/sfp/adalib/libgnat.a(s-memcop.o)
 .data          0x0000000000000000        0x0 /home/hedley/ada/STM32/L/L562/hash/Ada_Drivers_Library/embedded-runtimes/ravenscar-stm32l5nucleo_s/sfp/adalib/libgnat.a(s-memcop.o)
 .bss           0x0000000000000000        0x0 /home/hedley/ada/STM32/L/L562/hash/Ada_Drivers_Library/embedded-runtimes/ravenscar-stm32l5nucleo_s/sfp/adalib/libgnat.a(s-memcop.o)
 .data.system__memory_copy_E
                0x0000000000000000        0x2 /home/hedley/ada/STM32/L/L562/hash/Ada_Drivers_Library/embedded-runtimes/ravenscar-stm32l5nucleo_s/sfp/adalib/libgnat.a(s-memcop.o)
 .text          0x0000000000000000        0x0 /home/hedley/ada/STM32/L/L562/hash/Ada_Drivers_Library/embedded-runtimes/ravenscar-stm32l5nucleo_s/sfp/adalib/libgnat.a(s-memset.o)
 .data          0x0000000000000000        0x0 /home/hedley/ada/STM32/L/L562/hash/Ada_Drivers_Library/embedded-runtimes/ravenscar-stm32l5nucleo_s/sfp/adalib/libgnat.a(s-memset.o)
 .bss           0x0000000000000000        0x0 /home/hedley/ada/STM32/L/L562/hash/Ada_Drivers_Library/embedded-runtimes/ravenscar-stm32l5nucleo_s/sfp/adalib/libgnat.a(s-memset.o)
 .data.system__memory_set_E
                0x0000000000000000        0x2 /home/hedley/ada/STM32/L/L562/hash/Ada_Drivers_Library/embedded-runtimes/ravenscar-stm32l5nucleo_s/sfp/adalib/libgnat.a(s-memset.o)
 .text          0x0000000000000000        0x0 /home/hedley/ada/STM32/L/L562/hash/Ada_Drivers_Library/embedded-runtimes/ravenscar-stm32l5nucleo_s/sfp/adalib/libgnat.a(s-parame.o)
 .data          0x0000000000000000        0x0 /home/hedley/ada/STM32/L/L562/hash/Ada_Drivers_Library/embedded-runtimes/ravenscar-stm32l5nucleo_s/sfp/adalib/libgnat.a(s-parame.o)
 .bss           0x0000000000000000        0x0 /home/hedley/ada/STM32/L/L562/hash/Ada_Drivers_Library/embedded-runtimes/ravenscar-stm32l5nucleo_s/sfp/adalib/libgnat.a(s-parame.o)
 .data.system__parameters_E
                0x0000000000000000        0x2 /home/hedley/ada/STM32/L/L562/hash/Ada_Drivers_Library/embedded-runtimes/ravenscar-stm32l5nucleo_s/sfp/adalib/libgnat.a(s-parame.o)
 .rodata.system__parameters__c_malloc_linkname
                0x0000000000000000        0xd /home/hedley/ada/STM32/L/L562/hash/Ada_Drivers_Library/embedded-runtimes/ravenscar-stm32l5nucleo_s/sfp/adalib/libgnat.a(s-parame.o)
 .rodata.system__parameters__default_stack_size
                0x0000000000000000        0x4 /home/hedley/ada/STM32/L/L562/hash/Ada_Drivers_Library/embedded-runtimes/ravenscar-stm32l5nucleo_s/sfp/adalib/libgnat.a(s-parame.o)
 .rodata.system__parameters__garbage_collected
                0x0000000000000000        0x1 /home/hedley/ada/STM32/L/L562/hash/Ada_Drivers_Library/embedded-runtimes/ravenscar-stm32l5nucleo_s/sfp/adalib/libgnat.a(s-parame.o)
 .rodata.system__parameters__minimum_stack_size
                0x0000000000000000        0x4 /home/hedley/ada/STM32/L/L562/hash/Ada_Drivers_Library/embedded-runtimes/ravenscar-stm32l5nucleo_s/sfp/adalib/libgnat.a(s-parame.o)
 .rodata.system__parameters__no_abort
                0x0000000000000000        0x1 /home/hedley/ada/STM32/L/L562/hash/Ada_Drivers_Library/embedded-runtimes/ravenscar-stm32l5nucleo_s/sfp/adalib/libgnat.a(s-parame.o)
 .rodata.system__parameters__runtime_default_sec_stack_size
                0x0000000000000000        0x4 /home/hedley/ada/STM32/L/L562/hash/Ada_Drivers_Library/embedded-runtimes/ravenscar-stm32l5nucleo_s/sfp/adalib/libgnat.a(s-parame.o)
 .rodata.system__parameters__single_lock
                0x0000000000000000        0x1 /home/hedley/ada/STM32/L/L562/hash/Ada_Drivers_Library/embedded-runtimes/ravenscar-stm32l5nucleo_s/sfp/adalib/libgnat.a(s-parame.o)
 .rodata.system__parameters__stack_grows_down
                0x0000000000000000        0x1 /home/hedley/ada/STM32/L/L562/hash/Ada_Drivers_Library/embedded-runtimes/ravenscar-stm32l5nucleo_s/sfp/adalib/libgnat.a(s-parame.o)
 .rodata.system__parameters__unspecified_size
                0x0000000000000000        0x4 /home/hedley/ada/STM32/L/L562/hash/Ada_Drivers_Library/embedded-runtimes/ravenscar-stm32l5nucleo_s/sfp/adalib/libgnat.a(s-parame.o)
 .text          0x0000000000000000        0x0 /home/hedley/ada/STM32/L/L562/hash/Ada_Drivers_Library/embedded-runtimes/ravenscar-stm32l5nucleo_s/sfp/adalib/libgnat.a(s-secsta.o)
 .data          0x0000000000000000        0x0 /home/hedley/ada/STM32/L/L562/hash/Ada_Drivers_Library/embedded-runtimes/ravenscar-stm32l5nucleo_s/sfp/adalib/libgnat.a(s-secsta.o)
 .bss           0x0000000000000000        0x0 /home/hedley/ada/STM32/L/L562/hash/Ada_Drivers_Library/embedded-runtimes/ravenscar-stm32l5nucleo_s/sfp/adalib/libgnat.a(s-secsta.o)
 .text.system__secondary_stack__memoryIP
                0x0000000000000000        0x4 /home/hedley/ada/STM32/L/L562/hash/Ada_Drivers_Library/embedded-runtimes/ravenscar-stm32l5nucleo_s/sfp/adalib/libgnat.a(s-secsta.o)
 .text.system__secondary_stack__ss_allocate
                0x0000000000000000       0x60 /home/hedley/ada/STM32/L/L562/hash/Ada_Drivers_Library/embedded-runtimes/ravenscar-stm32l5nucleo_s/sfp/adalib/libgnat.a(s-secsta.o)
 .text.system__secondary_stack__ss_get_max
                0x0000000000000000       0x10 /home/hedley/ada/STM32/L/L562/hash/Ada_Drivers_Library/embedded-runtimes/ravenscar-stm32l5nucleo_s/sfp/adalib/libgnat.a(s-secsta.o)
 .text.system__secondary_stack__ss_mark
                0x0000000000000000        0xc /home/hedley/ada/STM32/L/L562/hash/Ada_Drivers_Library/embedded-runtimes/ravenscar-stm32l5nucleo_s/sfp/adalib/libgnat.a(s-secsta.o)
 .text.system__secondary_stack__ss_release
                0x0000000000000000        0xc /home/hedley/ada/STM32/L/L562/hash/Ada_Drivers_Library/embedded-runtimes/ravenscar-stm32l5nucleo_s/sfp/adalib/libgnat.a(s-secsta.o)
 .bss.system__secondary_stack__ss_pool
                0x0000000000000000        0x4 /home/hedley/ada/STM32/L/L562/hash/Ada_Drivers_Library/embedded-runtimes/ravenscar-stm32l5nucleo_s/sfp/adalib/libgnat.a(s-secsta.o)
 .data.system__secondary_stack_E
                0x0000000000000000        0x2 /home/hedley/ada/STM32/L/L562/hash/Ada_Drivers_Library/embedded-runtimes/ravenscar-stm32l5nucleo_s/sfp/adalib/libgnat.a(s-secsta.o)
 .text          0x0000000000000000        0x0 /home/hedley/ada/STM32/L/L562/hash/Ada_Drivers_Library/embedded-runtimes/ravenscar-stm32l5nucleo_s/sfp/adalib/libgnat.a(s-textio.o)
 .data          0x0000000000000000        0x0 /home/hedley/ada/STM32/L/L562/hash/Ada_Drivers_Library/embedded-runtimes/ravenscar-stm32l5nucleo_s/sfp/adalib/libgnat.a(s-textio.o)
 .bss           0x0000000000000000        0x0 /home/hedley/ada/STM32/L/L562/hash/Ada_Drivers_Library/embedded-runtimes/ravenscar-stm32l5nucleo_s/sfp/adalib/libgnat.a(s-textio.o)
 .text.system__text_io__is_rx_ready
                0x0000000000000000       0x10 /home/hedley/ada/STM32/L/L562/hash/Ada_Drivers_Library/embedded-runtimes/ravenscar-stm32l5nucleo_s/sfp/adalib/libgnat.a(s-textio.o)
 .text.system__text_io__get
                0x0000000000000000        0xc /home/hedley/ada/STM32/L/L562/hash/Ada_Drivers_Library/embedded-runtimes/ravenscar-stm32l5nucleo_s/sfp/adalib/libgnat.a(s-textio.o)
 .data.system__text_io_E
                0x0000000000000000        0x2 /home/hedley/ada/STM32/L/L562/hash/Ada_Drivers_Library/embedded-runtimes/ravenscar-stm32l5nucleo_s/sfp/adalib/libgnat.a(s-textio.o)
 .data          0x0000000000000000        0x0 /home/hedley/ada/STM32/L/L562/hash/Ada_Drivers_Library/embedded-runtimes/ravenscar-stm32l5nucleo_s/sfp/adalib/libgnat.a(start-common.o)
 .bss           0x0000000000000000        0x0 /home/hedley/ada/STM32/L/L562/hash/Ada_Drivers_Library/embedded-runtimes/ravenscar-stm32l5nucleo_s/sfp/adalib/libgnat.a(start-common.o)
 .data          0x0000000000000000        0x0 /home/hedley/ada/STM32/L/L562/hash/Ada_Drivers_Library/embedded-runtimes/ravenscar-stm32l5nucleo_s/sfp/adalib/libgnat.a(start-ram.o)
 .bss           0x0000000000000000        0x0 /home/hedley/ada/STM32/L/L562/hash/Ada_Drivers_Library/embedded-runtimes/ravenscar-stm32l5nucleo_s/sfp/adalib/libgnat.a(start-ram.o)
 .text          0x0000000000000000        0x0 /home/hedley/ada/STM32/L/L562/hash/Ada_Drivers_Library/embedded-runtimes/ravenscar-stm32l5nucleo_s/sfp/adalib/libgnat.a(setup_pll.o)
 .data          0x0000000000000000        0x0 /home/hedley/ada/STM32/L/L562/hash/Ada_Drivers_Library/embedded-runtimes/ravenscar-stm32l5nucleo_s/sfp/adalib/libgnat.a(setup_pll.o)
 .bss           0x0000000000000000        0x0 /home/hedley/ada/STM32/L/L562/hash/Ada_Drivers_Library/embedded-runtimes/ravenscar-stm32l5nucleo_s/sfp/adalib/libgnat.a(setup_pll.o)
 .text          0x0000000000000000        0x0 /home/hedley/ada/STM32/L/L562/hash/Ada_Drivers_Library/embedded-runtimes/ravenscar-stm32l5nucleo_s/sfp/adalib/libgnat.a(s-bbmcpa.o)
 .data          0x0000000000000000        0x0 /home/hedley/ada/STM32/L/L562/hash/Ada_Drivers_Library/embedded-runtimes/ravenscar-stm32l5nucleo_s/sfp/adalib/libgnat.a(s-bbmcpa.o)
 .bss           0x0000000000000000        0x0 /home/hedley/ada/STM32/L/L562/hash/Ada_Drivers_Library/embedded-runtimes/ravenscar-stm32l5nucleo_s/sfp/adalib/libgnat.a(s-bbmcpa.o)
 .text.system__bb__mcu_parameters__is_pwr_stabilized
                0x0000000000000000        0x4 /home/hedley/ada/STM32/L/L562/hash/Ada_Drivers_Library/embedded-runtimes/ravenscar-stm32l5nucleo_s/sfp/adalib/libgnat.a(s-bbmcpa.o)
 .text.system__bb__mcu_parameters__pwr_overdrive_enable
                0x0000000000000000        0x4 /home/hedley/ada/STM32/L/L562/hash/Ada_Drivers_Library/embedded-runtimes/ravenscar-stm32l5nucleo_s/sfp/adalib/libgnat.a(s-bbmcpa.o)
 .data.system__bb__mcu_parameters_E
                0x0000000000000000        0x2 /home/hedley/ada/STM32/L/L562/hash/Ada_Drivers_Library/embedded-runtimes/ravenscar-stm32l5nucleo_s/sfp/adalib/libgnat.a(s-bbmcpa.o)
 .text          0x0000000000000000       0xa0 /opt/GNAT/2019-arm-elf/bin/../lib/gcc/arm-eabi/7.4.1/thumb/v7e-m/fpv4-sp/hard/libgcc.a(_aeabi_ldivmod.o)
 .data          0x0000000000000000        0x0 /opt/GNAT/2019-arm-elf/bin/../lib/gcc/arm-eabi/7.4.1/thumb/v7e-m/fpv4-sp/hard/libgcc.a(_aeabi_ldivmod.o)
 .bss           0x0000000000000000        0x0 /opt/GNAT/2019-arm-elf/bin/../lib/gcc/arm-eabi/7.4.1/thumb/v7e-m/fpv4-sp/hard/libgcc.a(_aeabi_ldivmod.o)
 .debug_line    0x0000000000000000       0x85 /opt/GNAT/2019-arm-elf/bin/../lib/gcc/arm-eabi/7.4.1/thumb/v7e-m/fpv4-sp/hard/libgcc.a(_aeabi_ldivmod.o)
 .debug_info    0x0000000000000000       0x26 /opt/GNAT/2019-arm-elf/bin/../lib/gcc/arm-eabi/7.4.1/thumb/v7e-m/fpv4-sp/hard/libgcc.a(_aeabi_ldivmod.o)
 .debug_abbrev  0x0000000000000000       0x14 /opt/GNAT/2019-arm-elf/bin/../lib/gcc/arm-eabi/7.4.1/thumb/v7e-m/fpv4-sp/hard/libgcc.a(_aeabi_ldivmod.o)
 .debug_aranges
                0x0000000000000000       0x20 /opt/GNAT/2019-arm-elf/bin/../lib/gcc/arm-eabi/7.4.1/thumb/v7e-m/fpv4-sp/hard/libgcc.a(_aeabi_ldivmod.o)
 .debug_str     0x0000000000000000       0x94 /opt/GNAT/2019-arm-elf/bin/../lib/gcc/arm-eabi/7.4.1/thumb/v7e-m/fpv4-sp/hard/libgcc.a(_aeabi_ldivmod.o)
 .debug_frame   0x0000000000000000       0x44 /opt/GNAT/2019-arm-elf/bin/../lib/gcc/arm-eabi/7.4.1/thumb/v7e-m/fpv4-sp/hard/libgcc.a(_aeabi_ldivmod.o)
 .ARM.attributes
                0x0000000000000000       0x22 /opt/GNAT/2019-arm-elf/bin/../lib/gcc/arm-eabi/7.4.1/thumb/v7e-m/fpv4-sp/hard/libgcc.a(_aeabi_ldivmod.o)
 .text          0x0000000000000000       0x30 /opt/GNAT/2019-arm-elf/bin/../lib/gcc/arm-eabi/7.4.1/thumb/v7e-m/fpv4-sp/hard/libgcc.a(_aeabi_uldivmod.o)
 .data          0x0000000000000000        0x0 /opt/GNAT/2019-arm-elf/bin/../lib/gcc/arm-eabi/7.4.1/thumb/v7e-m/fpv4-sp/hard/libgcc.a(_aeabi_uldivmod.o)
 .bss           0x0000000000000000        0x0 /opt/GNAT/2019-arm-elf/bin/../lib/gcc/arm-eabi/7.4.1/thumb/v7e-m/fpv4-sp/hard/libgcc.a(_aeabi_uldivmod.o)
 .debug_line    0x0000000000000000       0x67 /opt/GNAT/2019-arm-elf/bin/../lib/gcc/arm-eabi/7.4.1/thumb/v7e-m/fpv4-sp/hard/libgcc.a(_aeabi_uldivmod.o)
 .debug_info    0x0000000000000000       0x26 /opt/GNAT/2019-arm-elf/bin/../lib/gcc/arm-eabi/7.4.1/thumb/v7e-m/fpv4-sp/hard/libgcc.a(_aeabi_uldivmod.o)
 .debug_abbrev  0x0000000000000000       0x14 /opt/GNAT/2019-arm-elf/bin/../lib/gcc/arm-eabi/7.4.1/thumb/v7e-m/fpv4-sp/hard/libgcc.a(_aeabi_uldivmod.o)
 .debug_aranges
                0x0000000000000000       0x20 /opt/GNAT/2019-arm-elf/bin/../lib/gcc/arm-eabi/7.4.1/thumb/v7e-m/fpv4-sp/hard/libgcc.a(_aeabi_uldivmod.o)
 .debug_str     0x0000000000000000       0x94 /opt/GNAT/2019-arm-elf/bin/../lib/gcc/arm-eabi/7.4.1/thumb/v7e-m/fpv4-sp/hard/libgcc.a(_aeabi_uldivmod.o)
 .debug_frame   0x0000000000000000       0x2c /opt/GNAT/2019-arm-elf/bin/../lib/gcc/arm-eabi/7.4.1/thumb/v7e-m/fpv4-sp/hard/libgcc.a(_aeabi_uldivmod.o)
 .ARM.attributes
                0x0000000000000000       0x22 /opt/GNAT/2019-arm-elf/bin/../lib/gcc/arm-eabi/7.4.1/thumb/v7e-m/fpv4-sp/hard/libgcc.a(_aeabi_uldivmod.o)
 .text          0x0000000000000000      0x2cc /opt/GNAT/2019-arm-elf/bin/../lib/gcc/arm-eabi/7.4.1/thumb/v7e-m/fpv4-sp/hard/libgcc.a(_udivmoddi4.o)
 .data          0x0000000000000000        0x0 /opt/GNAT/2019-arm-elf/bin/../lib/gcc/arm-eabi/7.4.1/thumb/v7e-m/fpv4-sp/hard/libgcc.a(_udivmoddi4.o)
 .bss           0x0000000000000000        0x0 /opt/GNAT/2019-arm-elf/bin/../lib/gcc/arm-eabi/7.4.1/thumb/v7e-m/fpv4-sp/hard/libgcc.a(_udivmoddi4.o)
 .ARM.extab     0x0000000000000000        0x0 /opt/GNAT/2019-arm-elf/bin/../lib/gcc/arm-eabi/7.4.1/thumb/v7e-m/fpv4-sp/hard/libgcc.a(_udivmoddi4.o)
 .ARM.exidx     0x0000000000000000        0x8 /opt/GNAT/2019-arm-elf/bin/../lib/gcc/arm-eabi/7.4.1/thumb/v7e-m/fpv4-sp/hard/libgcc.a(_udivmoddi4.o)
 .debug_info    0x0000000000000000      0xcff /opt/GNAT/2019-arm-elf/bin/../lib/gcc/arm-eabi/7.4.1/thumb/v7e-m/fpv4-sp/hard/libgcc.a(_udivmoddi4.o)
 .debug_abbrev  0x0000000000000000      0x199 /opt/GNAT/2019-arm-elf/bin/../lib/gcc/arm-eabi/7.4.1/thumb/v7e-m/fpv4-sp/hard/libgcc.a(_udivmoddi4.o)
 .debug_loc     0x0000000000000000      0xdaa /opt/GNAT/2019-arm-elf/bin/../lib/gcc/arm-eabi/7.4.1/thumb/v7e-m/fpv4-sp/hard/libgcc.a(_udivmoddi4.o)
 .debug_aranges
                0x0000000000000000       0x20 /opt/GNAT/2019-arm-elf/bin/../lib/gcc/arm-eabi/7.4.1/thumb/v7e-m/fpv4-sp/hard/libgcc.a(_udivmoddi4.o)
 .debug_ranges  0x0000000000000000       0xd8 /opt/GNAT/2019-arm-elf/bin/../lib/gcc/arm-eabi/7.4.1/thumb/v7e-m/fpv4-sp/hard/libgcc.a(_udivmoddi4.o)
 .debug_line    0x0000000000000000      0x267 /opt/GNAT/2019-arm-elf/bin/../lib/gcc/arm-eabi/7.4.1/thumb/v7e-m/fpv4-sp/hard/libgcc.a(_udivmoddi4.o)
 .debug_str     0x0000000000000000     0x13f3 /opt/GNAT/2019-arm-elf/bin/../lib/gcc/arm-eabi/7.4.1/thumb/v7e-m/fpv4-sp/hard/libgcc.a(_udivmoddi4.o)
 .comment       0x0000000000000000       0x3e /opt/GNAT/2019-arm-elf/bin/../lib/gcc/arm-eabi/7.4.1/thumb/v7e-m/fpv4-sp/hard/libgcc.a(_udivmoddi4.o)
 .debug_frame   0x0000000000000000       0x34 /opt/GNAT/2019-arm-elf/bin/../lib/gcc/arm-eabi/7.4.1/thumb/v7e-m/fpv4-sp/hard/libgcc.a(_udivmoddi4.o)
 .ARM.attributes
                0x0000000000000000       0x34 /opt/GNAT/2019-arm-elf/bin/../lib/gcc/arm-eabi/7.4.1/thumb/v7e-m/fpv4-sp/hard/libgcc.a(_udivmoddi4.o)
 .text          0x0000000000000000        0x4 /opt/GNAT/2019-arm-elf/bin/../lib/gcc/arm-eabi/7.4.1/thumb/v7e-m/fpv4-sp/hard/libgcc.a(_dvmd_tls.o)
 .data          0x0000000000000000        0x0 /opt/GNAT/2019-arm-elf/bin/../lib/gcc/arm-eabi/7.4.1/thumb/v7e-m/fpv4-sp/hard/libgcc.a(_dvmd_tls.o)
 .bss           0x0000000000000000        0x0 /opt/GNAT/2019-arm-elf/bin/../lib/gcc/arm-eabi/7.4.1/thumb/v7e-m/fpv4-sp/hard/libgcc.a(_dvmd_tls.o)
 .debug_line    0x0000000000000000       0x67 /opt/GNAT/2019-arm-elf/bin/../lib/gcc/arm-eabi/7.4.1/thumb/v7e-m/fpv4-sp/hard/libgcc.a(_dvmd_tls.o)
 .debug_info    0x0000000000000000       0x26 /opt/GNAT/2019-arm-elf/bin/../lib/gcc/arm-eabi/7.4.1/thumb/v7e-m/fpv4-sp/hard/libgcc.a(_dvmd_tls.o)
 .debug_abbrev  0x0000000000000000       0x14 /opt/GNAT/2019-arm-elf/bin/../lib/gcc/arm-eabi/7.4.1/thumb/v7e-m/fpv4-sp/hard/libgcc.a(_dvmd_tls.o)
 .debug_aranges
                0x0000000000000000       0x20 /opt/GNAT/2019-arm-elf/bin/../lib/gcc/arm-eabi/7.4.1/thumb/v7e-m/fpv4-sp/hard/libgcc.a(_dvmd_tls.o)
 .debug_str     0x0000000000000000       0x98 /opt/GNAT/2019-arm-elf/bin/../lib/gcc/arm-eabi/7.4.1/thumb/v7e-m/fpv4-sp/hard/libgcc.a(_dvmd_tls.o)
 .ARM.attributes
                0x0000000000000000       0x22 /opt/GNAT/2019-arm-elf/bin/../lib/gcc/arm-eabi/7.4.1/thumb/v7e-m/fpv4-sp/hard/libgcc.a(_dvmd_tls.o)

Memory Configuration

Name             Origin             Length             Attributes
sflash           0x000000000c000000 0x0000000000080000 xr
sram12           0x0000000030000000 0x0000000000040000 xrw
sglue            0x0000000030010000 0x000000000000f000 xrw
nsglue           0x000000003001f000 0x0000000000001000 xrw
ns               0x0000000030020000 0x0000000000020000 xrw
*default*        0x0000000000000000 0xffffffffffffffff

Linker script and memory map

LOAD test_s.o
LOAD b__test_s.o
LOAD /home/hedley/ada/STM32/L/L562/hash/Ada_Drivers_Library/boards/lib/stm32l5discovery_s/ravenscar-sfp/Debug/libstm32l5discovery_s.a
LOAD /home/hedley/ada/STM32/L/L562/hash/Ada_Drivers_Library/components/lib/stm32l5nucleo_s/ravenscar-sfp/Debug/libcomponents.a
LOAD /home/hedley/ada/STM32/L/L562/hash/Ada_Drivers_Library/middleware/lib/stm32l5nucleo_s/ravenscar-sfp/Debug/libservices.a
LOAD /home/hedley/ada/STM32/L/L562/hash/Ada_Drivers_Library/arch/ARM/STM32/lib/stm32l5nucleo_s/ravenscar-sfp/Debug/libstm32l5xx.a
LOAD /home/hedley/ada/STM32/L/L562/hash/Ada_Drivers_Library/arch/ARM/cortex_m/lib/cortex-m4f/stm32l5nucleo_s/ravenscar-sfp/Debug/libcortex-m4f.a
LOAD /home/hedley/ada/Ada_Drivers_Library/hal/lib/stm32l5nucleo_s/ravenscar-sfp/Debug/libHAL.a
LOAD /home/hedley/ada/STM32/L/L562/hash/Ada_Drivers_Library/embedded-runtimes/ravenscar-stm32l5nucleo_s/sfp/adalib/libgnarl.a
LOAD /home/hedley/ada/STM32/L/L562/hash/Ada_Drivers_Library/embedded-runtimes/ravenscar-stm32l5nucleo_s/sfp/adalib/libgnat.a
                0x0000000000008000                __stack_size = 0x8000
LOAD /home/hedley/ada/Ada_Drivers_Library/embedded-runtimes/ravenscar-stm32l5discovery_s/sfp/adalib/libgnarl.a
LOAD /home/hedley/ada/Ada_Drivers_Library/embedded-runtimes/ravenscar-stm32l5discovery_s/sfp/adalib/libgnat.a
START GROUP
LOAD /opt/GNAT/2019-arm-elf/bin/../lib/gcc/arm-eabi/7.4.1/thumb/v7e-m/fpv4-sp/hard/libgcc.a
END GROUP
                0x0000000000000000                __DYNAMIC = 0x0
                0x0000000000001000                _DEFAULT_STACK_SIZE = 0x1000

.text           0x0000000030000000     0x6140
 *(.vectors)
 .vectors       0x0000000030000000       0x18 /home/hedley/ada/STM32/L/L562/hash/Ada_Drivers_Library/embedded-runtimes/ravenscar-stm32l5nucleo_s/sfp/adalib/libgnat.a(start-ram.o)
                0x0000000030000014                local_id
 *(.text .text.* .gnu.linkonce.t*)
 .text._ada_test_s
                0x0000000030000018       0x70 test_s.o
                0x0000000030000018                _ada_test_s
 .text.test_s__init_mpu.5424
                0x0000000030000088       0x84 test_s.o
 .text.test_s__enable_gtzc_sram.5428
                0x000000003000010c      0x180 test_s.o
 .text.ada_main__Tsec_default_sized_stacksBIP
                0x000000003000028c       0x44 b__test_s.o
                0x000000003000028c                ada_main__Tsec_default_sized_stacksBIP
 .text.adainit  0x00000000300002d0      0x158 b__test_s.o
                0x00000000300002d0                adainit
 .text.main     0x0000000030000428       0x1c b__test_s.o
                0x0000000030000428                main
 .text.ada_main___elabb
                0x0000000030000444       0x1c b__test_s.o
                0x0000000030000444                ada_main___elabb
 .text.stm32__board__initialize_leds
                0x0000000030000460       0x5c /home/hedley/ada/STM32/L/L562/hash/Ada_Drivers_Library/boards/lib/stm32l5discovery_s/ravenscar-sfp/Debug/libstm32l5discovery_s.a(stm32-board.o)
                0x0000000030000460                stm32__board__initialize_leds
 .text.stm32__board__initialize_button
                0x00000000300004bc       0x94 /home/hedley/ada/STM32/L/L562/hash/Ada_Drivers_Library/boards/lib/stm32l5discovery_s/ravenscar-sfp/Debug/libstm32l5discovery_s.a(stm32-board.o)
                0x00000000300004bc                stm32__board__initialize_button
 .text.stm32__board__initialize_board
                0x0000000030000550       0x10 /home/hedley/ada/STM32/L/L562/hash/Ada_Drivers_Library/boards/lib/stm32l5discovery_s/ravenscar-sfp/Debug/libstm32l5discovery_s.a(stm32-board.o)
                0x0000000030000550                stm32__board__initialize_board
 .text.stm32__board___elabs
                0x0000000030000560       0x38 /home/hedley/ada/STM32/L/L562/hash/Ada_Drivers_Library/boards/lib/stm32l5discovery_s/ravenscar-sfp/Debug/libstm32l5discovery_s.a(stm32-board.o)
                0x0000000030000560                stm32__board___elabs
 .text.stm32__device__enable_clock
                0x0000000030000598      0x2dc /home/hedley/ada/STM32/L/L562/hash/Ada_Drivers_Library/arch/ARM/STM32/lib/stm32l5nucleo_s/ravenscar-sfp/Debug/libstm32l5xx.a(stm32-device.o)
                0x0000000030000598                stm32__device__enable_clock
 .text.stm32__device__enable_clock__2
                0x0000000030000874       0x2c /home/hedley/ada/STM32/L/L562/hash/Ada_Drivers_Library/arch/ARM/STM32/lib/stm32l5nucleo_s/ravenscar-sfp/Debug/libstm32l5xx.a(stm32-device.o)
                0x0000000030000874                stm32__device__enable_clock__2
 .text.stm32__device__enable_clock__3
                0x00000000300008a0       0x78 /home/hedley/ada/STM32/L/L562/hash/Ada_Drivers_Library/arch/ARM/STM32/lib/stm32l5nucleo_s/ravenscar-sfp/Debug/libstm32l5xx.a(stm32-device.o)
                0x00000000300008a0                stm32__device__enable_clock__3
 .text.stm32__device__s_ns_periph
                0x0000000030000918       0x3c /home/hedley/ada/STM32/L/L562/hash/Ada_Drivers_Library/arch/ARM/STM32/lib/stm32l5nucleo_s/ravenscar-sfp/Debug/libstm32l5xx.a(stm32-device.o)
                0x0000000030000918                stm32__device__s_ns_periph
 .text.stm32__device___elabb
                0x0000000030000954       0x50 /home/hedley/ada/STM32/L/L562/hash/Ada_Drivers_Library/arch/ARM/STM32/lib/stm32l5nucleo_s/ravenscar-sfp/Debug/libstm32l5xx.a(stm32-device.o)
                0x0000000030000954                stm32__device___elabb
 .text.stm32__device___elabs
                0x00000000300009a4      0xfe4 /home/hedley/ada/STM32/L/L562/hash/Ada_Drivers_Library/arch/ARM/STM32/lib/stm32l5nucleo_s/ravenscar-sfp/Debug/libstm32l5xx.a(stm32-device.o)
                0x00000000300009a4                stm32__device___elabs
 .text.stm32__exti__enable_external_interrupt
                0x0000000030001988      0x268 /home/hedley/ada/STM32/L/L562/hash/Ada_Drivers_Library/arch/ARM/STM32/lib/stm32l5nucleo_s/ravenscar-sfp/Debug/libstm32l5xx.a(stm32-exti.o)
                0x0000000030001988                stm32__exti__enable_external_interrupt
 .text.stm32__exti__enable_external_event
                0x0000000030001bf0      0x11c /home/hedley/ada/STM32/L/L562/hash/Ada_Drivers_Library/arch/ARM/STM32/lib/stm32l5nucleo_s/ravenscar-sfp/Debug/libstm32l5xx.a(stm32-exti.o)
                0x0000000030001bf0                stm32__exti__enable_external_event
 .text.stm32__gpio__gpio_pinRP
                0x0000000030001d0c       0xd0 /home/hedley/ada/STM32/L/L562/hash/Ada_Drivers_Library/arch/ARM/STM32/lib/stm32l5nucleo_s/ravenscar-sfp/Debug/libstm32l5xx.a(stm32-gpio.o)
                0x0000000030001d0c                stm32__gpio__gpio_pinRP
 .text.stm32__gpio__gpio_pointIP
                0x0000000030001ddc       0x2c /home/hedley/ada/STM32/L/L562/hash/Ada_Drivers_Library/arch/ARM/STM32/lib/stm32l5nucleo_s/ravenscar-sfp/Debug/libstm32l5xx.a(stm32-gpio.o)
                0x0000000030001ddc                stm32__gpio__gpio_pointIP
 .text.stm32__gpio___size__2
                0x0000000030001e08       0x1c /home/hedley/ada/STM32/L/L562/hash/Ada_Drivers_Library/arch/ARM/STM32/lib/stm32l5nucleo_s/ravenscar-sfp/Debug/libstm32l5xx.a(stm32-gpio.o)
                0x0000000030001e08                stm32__gpio___size__2
 .text.stm32__gpio__Oeq
                0x0000000030001e24       0x34 /home/hedley/ada/STM32/L/L562/hash/Ada_Drivers_Library/arch/ARM/STM32/lib/stm32l5nucleo_s/ravenscar-sfp/Debug/libstm32l5xx.a(stm32-gpio.o)
                0x0000000030001e24                stm32__gpio__Oeq
 .text.stm32__gpio___assign
                0x0000000030001e58       0x24 /home/hedley/ada/STM32/L/L562/hash/Ada_Drivers_Library/arch/ARM/STM32/lib/stm32l5nucleo_s/ravenscar-sfp/Debug/libstm32l5xx.a(stm32-gpio.o)
                0x0000000030001e58                stm32__gpio___assign
 .text.stm32__gpio__gpio_pointsIP
                0x0000000030001e7c       0x44 /home/hedley/ada/STM32/L/L562/hash/Ada_Drivers_Library/arch/ARM/STM32/lib/stm32l5nucleo_s/ravenscar-sfp/Debug/libstm32l5xx.a(stm32-gpio.o)
                0x0000000030001e7c                stm32__gpio__gpio_pointsIP
 .text.stm32__gpio__mode
                0x0000000030001ec0       0x7c /home/hedley/ada/STM32/L/L562/hash/Ada_Drivers_Library/arch/ARM/STM32/lib/stm32l5nucleo_s/ravenscar-sfp/Debug/libstm32l5xx.a(stm32-gpio.o)
                0x0000000030001ec0                stm32__gpio__mode
 .text.stm32__gpio__set_mode
                0x0000000030001f3c       0xd0 /home/hedley/ada/STM32/L/L562/hash/Ada_Drivers_Library/arch/ARM/STM32/lib/stm32l5nucleo_s/ravenscar-sfp/Debug/libstm32l5xx.a(stm32-gpio.o)
                0x0000000030001f3c                stm32__gpio__set_mode
 .text.stm32__gpio__pull_resistor
                0x000000003000200c       0x9c /home/hedley/ada/STM32/L/L562/hash/Ada_Drivers_Library/arch/ARM/STM32/lib/stm32l5nucleo_s/ravenscar-sfp/Debug/libstm32l5xx.a(stm32-gpio.o)
                0x000000003000200c                stm32__gpio__pull_resistor
 .text.stm32__gpio__set_pull_resistor
                0x00000000300020a8      0x124 /home/hedley/ada/STM32/L/L562/hash/Ada_Drivers_Library/arch/ARM/STM32/lib/stm32l5nucleo_s/ravenscar-sfp/Debug/libstm32l5xx.a(stm32-gpio.o)
                0x00000000300020a8                stm32__gpio__set_pull_resistor
 .text.stm32__gpio__set
                0x00000000300021cc       0x48 /home/hedley/ada/STM32/L/L562/hash/Ada_Drivers_Library/arch/ARM/STM32/lib/stm32l5nucleo_s/ravenscar-sfp/Debug/libstm32l5xx.a(stm32-gpio.o)
                0x00000000300021cc                stm32__gpio__set
 .text.stm32__gpio__set__2
                0x0000000030002214       0x5c /home/hedley/ada/STM32/L/L562/hash/Ada_Drivers_Library/arch/ARM/STM32/lib/stm32l5nucleo_s/ravenscar-sfp/Debug/libstm32l5xx.a(stm32-gpio.o)
                0x0000000030002214                stm32__gpio__set__2
 .text.stm32__gpio__clear
                0x0000000030002270       0x5c /home/hedley/ada/STM32/L/L562/hash/Ada_Drivers_Library/arch/ARM/STM32/lib/stm32l5nucleo_s/ravenscar-sfp/Debug/libstm32l5xx.a(stm32-gpio.o)
                0x0000000030002270                stm32__gpio__clear
 .text.stm32__gpio__toggle
                0x00000000300022cc       0x78 /home/hedley/ada/STM32/L/L562/hash/Ada_Drivers_Library/arch/ARM/STM32/lib/stm32l5nucleo_s/ravenscar-sfp/Debug/libstm32l5xx.a(stm32-gpio.o)
                0x00000000300022cc                stm32__gpio__toggle
 .text.stm32__gpio__locked
                0x0000000030002344       0x4c /home/hedley/ada/STM32/L/L562/hash/Ada_Drivers_Library/arch/ARM/STM32/lib/stm32l5nucleo_s/ravenscar-sfp/Debug/libstm32l5xx.a(stm32-gpio.o)
                0x0000000030002344                stm32__gpio__locked
 .text.stm32__gpio__lock_the_pin
                0x0000000030002390       0x34 /home/hedley/ada/STM32/L/L562/hash/Ada_Drivers_Library/arch/ARM/STM32/lib/stm32l5nucleo_s/ravenscar-sfp/Debug/libstm32l5xx.a(stm32-gpio.o)
 .text.stm32__gpio__lock___postconditions.6823
                0x00000000300023c4       0x3c /home/hedley/ada/STM32/L/L562/hash/Ada_Drivers_Library/arch/ARM/STM32/lib/stm32l5nucleo_s/ravenscar-sfp/Debug/libstm32l5xx.a(stm32-gpio.o)
 .text.stm32__gpio__lock
                0x0000000030002400       0x6c /home/hedley/ada/STM32/L/L562/hash/Ada_Drivers_Library/arch/ARM/STM32/lib/stm32l5nucleo_s/ravenscar-sfp/Debug/libstm32l5xx.a(stm32-gpio.o)
                0x0000000030002400                stm32__gpio__lock
 .text.stm32__gpio__configure_io
                0x000000003000246c      0x1dc /home/hedley/ada/STM32/L/L562/hash/Ada_Drivers_Library/arch/ARM/STM32/lib/stm32l5nucleo_s/ravenscar-sfp/Debug/libstm32l5xx.a(stm32-gpio.o)
                0x000000003000246c                stm32__gpio__configure_io
 .text.stm32__gpio__configure_io__2
                0x0000000030002648       0x54 /home/hedley/ada/STM32/L/L562/hash/Ada_Drivers_Library/arch/ARM/STM32/lib/stm32l5nucleo_s/ravenscar-sfp/Debug/libstm32l5xx.a(stm32-gpio.o)
                0x0000000030002648                stm32__gpio__configure_io__2
 .text.stm32__gpio__configure_alternate_function
                0x000000003000269c       0xf8 /home/hedley/ada/STM32/L/L562/hash/Ada_Drivers_Library/arch/ARM/STM32/lib/stm32l5nucleo_s/ravenscar-sfp/Debug/libstm32l5xx.a(stm32-gpio.o)
                0x000000003000269c                stm32__gpio__configure_alternate_function
 .text.stm32__gpio__interrupt_line_number
                0x0000000030002794       0x44 /home/hedley/ada/STM32/L/L562/hash/Ada_Drivers_Library/arch/ARM/STM32/lib/stm32l5nucleo_s/ravenscar-sfp/Debug/libstm32l5xx.a(stm32-gpio.o)
                0x0000000030002794                stm32__gpio__interrupt_line_number
 .text.stm32__gpio__configure_trigger
                0x00000000300027d8       0x78 /home/hedley/ada/STM32/L/L562/hash/Ada_Drivers_Library/arch/ARM/STM32/lib/stm32l5nucleo_s/ravenscar-sfp/Debug/libstm32l5xx.a(stm32-gpio.o)
                0x00000000300027d8                stm32__gpio__configure_trigger
 .text.stm32__hash__enable_hash
                0x0000000030002850       0x4c /home/hedley/ada/STM32/L/L562/hash/Ada_Drivers_Library/arch/ARM/STM32/lib/stm32l5nucleo_s/ravenscar-sfp/Debug/libstm32l5xx.a(stm32-hash.o)
                0x0000000030002850                stm32__hash__enable_hash
 .text.stm32__hash__init_hash
                0x000000003000289c       0xb0 /home/hedley/ada/STM32/L/L562/hash/Ada_Drivers_Library/arch/ARM/STM32/lib/stm32l5nucleo_s/ravenscar-sfp/Debug/libstm32l5xx.a(stm32-hash.o)
                0x000000003000289c                stm32__hash__init_hash
 .text.stm32__hash__feed_hash
                0x000000003000294c       0xa8 /home/hedley/ada/STM32/L/L562/hash/Ada_Drivers_Library/arch/ARM/STM32/lib/stm32l5nucleo_s/ravenscar-sfp/Debug/libstm32l5xx.a(stm32-hash.o)
                0x000000003000294c                stm32__hash__feed_hash
 .text.stm32__hash__finish_hash
                0x00000000300029f4       0x40 /home/hedley/ada/STM32/L/L562/hash/Ada_Drivers_Library/arch/ARM/STM32/lib/stm32l5nucleo_s/ravenscar-sfp/Debug/libstm32l5xx.a(stm32-hash.o)
                0x00000000300029f4                stm32__hash__finish_hash
 .text.stm32__hash___elabs
                0x0000000030002a34       0x50 /home/hedley/ada/STM32/L/L562/hash/Ada_Drivers_Library/arch/ARM/STM32/lib/stm32l5nucleo_s/ravenscar-sfp/Debug/libstm32l5xx.a(stm32-hash.o)
                0x0000000030002a34                stm32__hash___elabs
 .text.stm32__mpu__add_region
                0x0000000030002a84       0x84 /home/hedley/ada/STM32/L/L562/hash/Ada_Drivers_Library/arch/ARM/STM32/lib/stm32l5nucleo_s/ravenscar-sfp/Debug/libstm32l5xx.a(stm32-mpu.o)
                0x0000000030002a84                stm32__mpu__add_region
 .text.stm32__mpu__add_attrib
                0x0000000030002b08       0x88 /home/hedley/ada/STM32/L/L562/hash/Ada_Drivers_Library/arch/ARM/STM32/lib/stm32l5nucleo_s/ravenscar-sfp/Debug/libstm32l5xx.a(stm32-mpu.o)
                0x0000000030002b08                stm32__mpu__add_attrib
 .text.stm32__mpu__enable_mpu
                0x0000000030002b90       0x24 /home/hedley/ada/STM32/L/L562/hash/Ada_Drivers_Library/arch/ARM/STM32/lib/stm32l5nucleo_s/ravenscar-sfp/Debug/libstm32l5xx.a(stm32-mpu.o)
                0x0000000030002b90                stm32__mpu__enable_mpu
 .text.stm32__sau__all_ns
                0x0000000030002bb4       0x28 /home/hedley/ada/STM32/L/L562/hash/Ada_Drivers_Library/arch/ARM/STM32/lib/stm32l5nucleo_s/ravenscar-sfp/Debug/libstm32l5xx.a(stm32-sau.o)
                0x0000000030002bb4                stm32__sau__all_ns
 .text.stm32__spi__spi_portIP
                0x0000000030002bdc       0x30 /home/hedley/ada/STM32/L/L562/hash/Ada_Drivers_Library/arch/ARM/STM32/lib/stm32l5nucleo_s/ravenscar-sfp/Debug/libstm32l5xx.a(stm32-spi.o)
                0x0000000030002bdc                stm32__spi__spi_portIP
 .text.stm32__spi___size__2
                0x0000000030002c0c       0x1c /home/hedley/ada/STM32/L/L562/hash/Ada_Drivers_Library/arch/ARM/STM32/lib/stm32l5nucleo_s/ravenscar-sfp/Debug/libstm32l5xx.a(stm32-spi.o)
                0x0000000030002c0c                stm32__spi___size__2
 .text.stm32__spi__configure
                0x0000000030002c28      0x2f8 /home/hedley/ada/STM32/L/L562/hash/Ada_Drivers_Library/arch/ARM/STM32/lib/stm32l5nucleo_s/ravenscar-sfp/Debug/libstm32l5xx.a(stm32-spi.o)
                0x0000000030002c28                stm32__spi__configure
 .text.stm32__spi__enable
                0x0000000030002f20       0x28 /home/hedley/ada/STM32/L/L562/hash/Ada_Drivers_Library/arch/ARM/STM32/lib/stm32l5nucleo_s/ravenscar-sfp/Debug/libstm32l5xx.a(stm32-spi.o)
                0x0000000030002f20                stm32__spi__enable
 .text.stm32__spi__disable
                0x0000000030002f48       0x24 /home/hedley/ada/STM32/L/L562/hash/Ada_Drivers_Library/arch/ARM/STM32/lib/stm32l5nucleo_s/ravenscar-sfp/Debug/libstm32l5xx.a(stm32-spi.o)
                0x0000000030002f48                stm32__spi__disable
 .text.stm32__spi__enabled
                0x0000000030002f6c       0x24 /home/hedley/ada/STM32/L/L562/hash/Ada_Drivers_Library/arch/ARM/STM32/lib/stm32l5nucleo_s/ravenscar-sfp/Debug/libstm32l5xx.a(stm32-spi.o)
                0x0000000030002f6c                stm32__spi__enabled
 .text.stm32__spi__send
                0x0000000030002f90       0x2c /home/hedley/ada/STM32/L/L562/hash/Ada_Drivers_Library/arch/ARM/STM32/lib/stm32l5nucleo_s/ravenscar-sfp/Debug/libstm32l5xx.a(stm32-spi.o)
                0x0000000030002f90                stm32__spi__send
 .text.stm32__spi__data
                0x0000000030002fbc       0x20 /home/hedley/ada/STM32/L/L562/hash/Ada_Drivers_Library/arch/ARM/STM32/lib/stm32l5nucleo_s/ravenscar-sfp/Debug/libstm32l5xx.a(stm32-spi.o)
                0x0000000030002fbc                stm32__spi__data
 .text.stm32__spi__send__2
                0x0000000030002fdc       0x24 /home/hedley/ada/STM32/L/L562/hash/Ada_Drivers_Library/arch/ARM/STM32/lib/stm32l5nucleo_s/ravenscar-sfp/Debug/libstm32l5xx.a(stm32-spi.o)
                0x0000000030002fdc                stm32__spi__send__2
 .text.stm32__spi__data__2
                0x0000000030003000       0x2c /home/hedley/ada/STM32/L/L562/hash/Ada_Drivers_Library/arch/ARM/STM32/lib/stm32l5nucleo_s/ravenscar-sfp/Debug/libstm32l5xx.a(stm32-spi.o)
                0x0000000030003000                stm32__spi__data__2
 .text.stm32__spi__is_busy
                0x000000003000302c       0x44 /home/hedley/ada/STM32/L/L562/hash/Ada_Drivers_Library/arch/ARM/STM32/lib/stm32l5nucleo_s/ravenscar-sfp/Debug/libstm32l5xx.a(stm32-spi.o)
                0x000000003000302c                stm32__spi__is_busy
 .text.stm32__spi__tx_is_empty
                0x0000000030003070       0x24 /home/hedley/ada/STM32/L/L562/hash/Ada_Drivers_Library/arch/ARM/STM32/lib/stm32l5nucleo_s/ravenscar-sfp/Debug/libstm32l5xx.a(stm32-spi.o)
                0x0000000030003070                stm32__spi__tx_is_empty
 .text.stm32__spi__rx_is_empty
                0x0000000030003094       0x30 /home/hedley/ada/STM32/L/L562/hash/Ada_Drivers_Library/arch/ARM/STM32/lib/stm32l5nucleo_s/ravenscar-sfp/Debug/libstm32l5xx.a(stm32-spi.o)
                0x0000000030003094                stm32__spi__rx_is_empty
 .text.stm32__spi__busy
                0x00000000300030c4       0x24 /home/hedley/ada/STM32/L/L562/hash/Ada_Drivers_Library/arch/ARM/STM32/lib/stm32l5nucleo_s/ravenscar-sfp/Debug/libstm32l5xx.a(stm32-spi.o)
                0x00000000300030c4                stm32__spi__busy
 .text.stm32__spi__current_mode
                0x00000000300030e8       0x58 /home/hedley/ada/STM32/L/L562/hash/Ada_Drivers_Library/arch/ARM/STM32/lib/stm32l5nucleo_s/ravenscar-sfp/Debug/libstm32l5xx.a(stm32-spi.o)
                0x00000000300030e8                stm32__spi__current_mode
 .text.stm32__spi__current_data_direction
                0x0000000030003140       0x64 /home/hedley/ada/STM32/L/L562/hash/Ada_Drivers_Library/arch/ARM/STM32/lib/stm32l5nucleo_s/ravenscar-sfp/Debug/libstm32l5xx.a(stm32-spi.o)
                0x0000000030003140                stm32__spi__current_data_direction
 .text.stm32__spi__crc_enabled
                0x00000000300031a4       0x24 /home/hedley/ada/STM32/L/L562/hash/Ada_Drivers_Library/arch/ARM/STM32/lib/stm32l5nucleo_s/ravenscar-sfp/Debug/libstm32l5xx.a(stm32-spi.o)
                0x00000000300031a4                stm32__spi__crc_enabled
 .text.stm32__spi__crc_error_indicated
                0x00000000300031c8       0x24 /home/hedley/ada/STM32/L/L562/hash/Ada_Drivers_Library/arch/ARM/STM32/lib/stm32l5nucleo_s/ravenscar-sfp/Debug/libstm32l5xx.a(stm32-spi.o)
                0x00000000300031c8                stm32__spi__crc_error_indicated
 .text.stm32__spi__mode_fault_indicated
                0x00000000300031ec       0x24 /home/hedley/ada/STM32/L/L562/hash/Ada_Drivers_Library/arch/ARM/STM32/lib/stm32l5nucleo_s/ravenscar-sfp/Debug/libstm32l5xx.a(stm32-spi.o)
                0x00000000300031ec                stm32__spi__mode_fault_indicated
 .text.stm32__spi__overrun_indicated
                0x0000000030003210       0x24 /home/hedley/ada/STM32/L/L562/hash/Ada_Drivers_Library/arch/ARM/STM32/lib/stm32l5nucleo_s/ravenscar-sfp/Debug/libstm32l5xx.a(stm32-spi.o)
                0x0000000030003210                stm32__spi__overrun_indicated
 .text.stm32__spi__frame_fmt_error_indicated
                0x0000000030003234       0x24 /home/hedley/ada/STM32/L/L562/hash/Ada_Drivers_Library/arch/ARM/STM32/lib/stm32l5nucleo_s/ravenscar-sfp/Debug/libstm32l5xx.a(stm32-spi.o)
                0x0000000030003234                stm32__spi__frame_fmt_error_indicated
 .text.stm32__spi__clear_overrun
                0x0000000030003258       0x2c /home/hedley/ada/STM32/L/L562/hash/Ada_Drivers_Library/arch/ARM/STM32/lib/stm32l5nucleo_s/ravenscar-sfp/Debug/libstm32l5xx.a(stm32-spi.o)
                0x0000000030003258                stm32__spi__clear_overrun
 .text.stm32__spi__reset_crc
                0x0000000030003284       0x38 /home/hedley/ada/STM32/L/L562/hash/Ada_Drivers_Library/arch/ARM/STM32/lib/stm32l5nucleo_s/ravenscar-sfp/Debug/libstm32l5xx.a(stm32-spi.o)
                0x0000000030003284                stm32__spi__reset_crc
 .text.stm32__spi__is_data_frame_16bit
                0x00000000300032bc       0x24 /home/hedley/ada/STM32/L/L562/hash/Ada_Drivers_Library/arch/ARM/STM32/lib/stm32l5nucleo_s/ravenscar-sfp/Debug/libstm32l5xx.a(stm32-spi.o)
                0x00000000300032bc                stm32__spi__is_data_frame_16bit
 .text.stm32__spi__data_size
                0x00000000300032e0       0x34 /home/hedley/ada/STM32/L/L562/hash/Ada_Drivers_Library/arch/ARM/STM32/lib/stm32l5nucleo_s/ravenscar-sfp/Debug/libstm32l5xx.a(stm32-spi.o)
                0x00000000300032e0                stm32__spi__data_size
 .text.stm32__spi__transmit
                0x0000000030003314       0xd4 /home/hedley/ada/STM32/L/L562/hash/Ada_Drivers_Library/arch/ARM/STM32/lib/stm32l5nucleo_s/ravenscar-sfp/Debug/libstm32l5xx.a(stm32-spi.o)
                0x0000000030003314                stm32__spi__transmit
 .text.stm32__spi__transmit__2
                0x00000000300033e8       0xd8 /home/hedley/ada/STM32/L/L562/hash/Ada_Drivers_Library/arch/ARM/STM32/lib/stm32l5nucleo_s/ravenscar-sfp/Debug/libstm32l5xx.a(stm32-spi.o)
                0x00000000300033e8                stm32__spi__transmit__2
 .text.stm32__spi__transmit__3
                0x00000000300034c0       0xd0 /home/hedley/ada/STM32/L/L562/hash/Ada_Drivers_Library/arch/ARM/STM32/lib/stm32l5nucleo_s/ravenscar-sfp/Debug/libstm32l5xx.a(stm32-spi.o)
                0x00000000300034c0                stm32__spi__transmit__3
 .text.stm32__spi__receive
                0x0000000030003590      0x14c /home/hedley/ada/STM32/L/L562/hash/Ada_Drivers_Library/arch/ARM/STM32/lib/stm32l5nucleo_s/ravenscar-sfp/Debug/libstm32l5xx.a(stm32-spi.o)
                0x0000000030003590                stm32__spi(long double,...)(char,...)(int, void,...)
 .text.stm32__spi__receive__2
                0x00000000300036dc       0xac /home/hedley/ada/STM32/L/L562/hash/Ada_Drivers_Library/arch/ARM/STM32/lib/stm32l5nucleo_s/ravenscar-sfp/Debug/libstm32l5xx.a(stm32-spi.o)
                0x00000000300036dc                stm32__spi__receive__2
 .text.stm32__spi__receive__3
                0x0000000030003788       0xcc /home/hedley/ada/STM32/L/L562/hash/Ada_Drivers_Library/arch/ARM/STM32/lib/stm32l5nucleo_s/ravenscar-sfp/Debug/libstm32l5xx.a(stm32-spi.o)
                0x0000000030003788                stm32__spi__receive__3
 .text.stm32__spi__transmit_receive__2
                0x0000000030003854      0x124 /home/hedley/ada/STM32/L/L562/hash/Ada_Drivers_Library/arch/ARM/STM32/lib/stm32l5nucleo_s/ravenscar-sfp/Debug/libstm32l5xx.a(stm32-spi.o)
                0x0000000030003854                stm32__spi__transmit_receive__2
 .text.stm32__spi__transmit_receive__3
                0x0000000030003978      0x10c /home/hedley/ada/STM32/L/L562/hash/Ada_Drivers_Library/arch/ARM/STM32/lib/stm32l5nucleo_s/ravenscar-sfp/Debug/libstm32l5xx.a(stm32-spi.o)
                0x0000000030003978                stm32__spi__transmit_receive__3
 .text.stm32__spi__send_receive_16bit_mode
                0x0000000030003a84      0x378 /home/hedley/ada/STM32/L/L562/hash/Ada_Drivers_Library/arch/ARM/STM32/lib/stm32l5nucleo_s/ravenscar-sfp/Debug/libstm32l5xx.a(stm32-spi.o)
                0x0000000030003a84                stm32__spi__send_receive_16bit_mode
 .text.stm32__spi__send_receive_8bit_mode
                0x0000000030003dfc      0x2f4 /home/hedley/ada/STM32/L/L562/hash/Ada_Drivers_Library/arch/ARM/STM32/lib/stm32l5nucleo_s/ravenscar-sfp/Debug/libstm32l5xx.a(stm32-spi.o)
                0x0000000030003dfc                stm32__spi__send_receive_8bit_mode
 .text.stm32__spi__send_16bit_mode
                0x00000000300040f0      0x1e8 /home/hedley/ada/STM32/L/L562/hash/Ada_Drivers_Library/arch/ARM/STM32/lib/stm32l5nucleo_s/ravenscar-sfp/Debug/libstm32l5xx.a(stm32-spi.o)
                0x00000000300040f0                stm32__spi__send_16bit_mode
 .text.stm32__spi__send_8bit_mode
                0x00000000300042d8      0x194 /home/hedley/ada/STM32/L/L562/hash/Ada_Drivers_Library/arch/ARM/STM32/lib/stm32l5nucleo_s/ravenscar-sfp/Debug/libstm32l5xx.a(stm32-spi.o)
                0x00000000300042d8                stm32__spi__send_8bit_mode
 .text.stm32__spi__receive_16bit_mode
                0x000000003000446c       0x94 /home/hedley/ada/STM32/L/L562/hash/Ada_Drivers_Library/arch/ARM/STM32/lib/stm32l5nucleo_s/ravenscar-sfp/Debug/libstm32l5xx.a(stm32-spi.o)
                0x000000003000446c                stm32__spi__receive_16bit_mode
 .text.stm32__spi__receive_8bit_mode
                0x0000000030004500       0xa0 /home/hedley/ada/STM32/L/L562/hash/Ada_Drivers_Library/arch/ARM/STM32/lib/stm32l5nucleo_s/ravenscar-sfp/Debug/libstm32l5xx.a(stm32-spi.o)
                0x0000000030004500                stm32__spi__receive_8bit_mode
 .text.stm32__spi__transmit_receive
                0x00000000300045a0      0x214 /home/hedley/ada/STM32/L/L562/hash/Ada_Drivers_Library/arch/ARM/STM32/lib/stm32l5nucleo_s/ravenscar-sfp/Debug/libstm32l5xx.a(stm32-spi.o)
                0x00000000300045a0                stm32__spi__transmit_receive
 .text.stm32_svd__spi__sr_registerIP
                0x00000000300047b4       0xac /home/hedley/ada/STM32/L/L562/hash/Ada_Drivers_Library/arch/ARM/STM32/lib/stm32l5nucleo_s/ravenscar-sfp/Debug/libstm32l5xx.a(stm32_svd-spi.o)
                0x00000000300047b4                stm32_svd__spi__sr_registerIP
 .text.ada__real_time___elabb
                0x0000000030004860        0x4 /home/hedley/ada/STM32/L/L562/hash/Ada_Drivers_Library/embedded-runtimes/ravenscar-stm32l5nucleo_s/sfp/adalib/libgnarl.a(a-reatim.o)
                0x0000000030004860                ada__real_time___elabb
 .text.system__bb__board_support__timer_interrupt_handler
                0x0000000030004864        0x8 /home/hedley/ada/STM32/L/L562/hash/Ada_Drivers_Library/embedded-runtimes/ravenscar-stm32l5nucleo_s/sfp/adalib/libgnarl.a(s-bbbosu.o)
                0x0000000030004864                system__bb__board_support__timer_interrupt_handler
 .text.system__bb__board_support__interrupt_handler
                0x000000003000486c        0xc /home/hedley/ada/STM32/L/L562/hash/Ada_Drivers_Library/embedded-runtimes/ravenscar-stm32l5nucleo_s/sfp/adalib/libgnarl.a(s-bbbosu.o)
                0x000000003000486c                system__bb__board_support__interrupt_handler
 .text.system__bb__board_support__enable_interrupt_request.part.0
                0x0000000030004878       0x1c /home/hedley/ada/STM32/L/L562/hash/Ada_Drivers_Library/embedded-runtimes/ravenscar-stm32l5nucleo_s/sfp/adalib/libgnarl.a(s-bbbosu.o)
 .text.system__bb__board_support__time__read_clock
                0x0000000030004894       0x44 /home/hedley/ada/STM32/L/L562/hash/Ada_Drivers_Library/embedded-runtimes/ravenscar-stm32l5nucleo_s/sfp/adalib/libgnarl.a(s-bbbosu.o)
                0x0000000030004894                system__bb__board_support__time__read_clock
 .text.system__bb__board_support__time__set_alarm
                0x00000000300048d8       0x64 /home/hedley/ada/STM32/L/L562/hash/Ada_Drivers_Library/embedded-runtimes/ravenscar-stm32l5nucleo_s/sfp/adalib/libgnarl.a(s-bbbosu.o)
                0x00000000300048d8                system__bb__board_support__time__set_alarm
 .text.system__bb__board_support__time__install_alarm_handler
                0x000000003000493c        0xc /home/hedley/ada/STM32/L/L562/hash/Ada_Drivers_Library/embedded-runtimes/ravenscar-stm32l5nucleo_s/sfp/adalib/libgnarl.a(s-bbbosu.o)
                0x000000003000493c                system__bb__board_support__time__install_alarm_handler
 .text.system__bb__board_support__initialize_board
                0x0000000030004948       0x9c /home/hedley/ada/STM32/L/L562/hash/Ada_Drivers_Library/embedded-runtimes/ravenscar-stm32l5nucleo_s/sfp/adalib/libgnarl.a(s-bbbosu.o)
                0x0000000030004948                system__bb__board_support__initialize_board
 .text.system__bb__cpu_primitives__gnat_error_handler
                0x00000000300049e4      0x1b8 /home/hedley/ada/STM32/L/L562/hash/Ada_Drivers_Library/embedded-runtimes/ravenscar-stm32l5nucleo_s/sfp/adalib/libgnarl.a(s-bbcppr.o)
                0x00000000300049e4                system__bb__cpu_primitives__gnat_error_handler
 .text.__gnat_irq_trap
                0x0000000030004b9c       0x64 /home/hedley/ada/STM32/L/L562/hash/Ada_Drivers_Library/embedded-runtimes/ravenscar-stm32l5nucleo_s/sfp/adalib/libgnarl.a(s-bbcppr.o)
                0x0000000030004b9c                __gnat_irq_trap
 .text.__gnat_sv_call_trap
                0x0000000030004c00        0x8 /home/hedley/ada/STM32/L/L562/hash/Ada_Drivers_Library/embedded-runtimes/ravenscar-stm32l5nucleo_s/sfp/adalib/libgnarl.a(s-bbcppr.o)
                0x0000000030004c00                __gnat_sv_call_trap
 .text.__gnat_sys_tick_trap
                0x0000000030004c08       0x80 /home/hedley/ada/STM32/L/L562/hash/Ada_Drivers_Library/embedded-runtimes/ravenscar-stm32l5nucleo_s/sfp/adalib/libgnarl.a(s-bbcppr.o)
                0x0000000030004c08                __gnat_sys_tick_trap
 .text.system__bb__cpu_primitives__install_trap_handler
                0x0000000030004c88        0xc /home/hedley/ada/STM32/L/L562/hash/Ada_Drivers_Library/embedded-runtimes/ravenscar-stm32l5nucleo_s/sfp/adalib/libgnarl.a(s-bbcppr.o)
                0x0000000030004c88                system__bb__cpu_primitives__install_trap_handler
 .text.system__bb__interrupts__interrupt_wrapper
                0x0000000030004c94       0xf4 /home/hedley/ada/STM32/L/L562/hash/Ada_Drivers_Library/embedded-runtimes/ravenscar-stm32l5nucleo_s/sfp/adalib/libgnarl.a(s-bbinte.o)
                0x0000000030004c94                system__bb__interrupts__interrupt_wrapper
 .text.system__bb__interrupts__initialize_interrupts
                0x0000000030004d88       0x10 /home/hedley/ada/STM32/L/L562/hash/Ada_Drivers_Library/embedded-runtimes/ravenscar-stm32l5nucleo_s/sfp/adalib/libgnarl.a(s-bbinte.o)
                0x0000000030004d88                system__bb__interrupts__initialize_interrupts
 .text.system__bb__threads__queues__change_priority
                0x0000000030004d98       0x70 /home/hedley/ada/STM32/L/L562/hash/Ada_Drivers_Library/embedded-runtimes/ravenscar-stm32l5nucleo_s/sfp/adalib/libgnarl.a(s-bbthqu.o)
                0x0000000030004d98                system__bb__threads__queues__change_priority
 .text.system__bb__threads__queues__wakeup_expired_alarms
                0x0000000030004e08       0xf4 /home/hedley/ada/STM32/L/L562/hash/Ada_Drivers_Library/embedded-runtimes/ravenscar-stm32l5nucleo_s/sfp/adalib/libgnarl.a(s-bbthqu.o)
                0x0000000030004e08                system__bb__threads__queues__wakeup_expired_alarms
 .text.system__bb__time__initialize_timers
                0x0000000030004efc       0x94 /home/hedley/ada/STM32/L/L562/hash/Ada_Drivers_Library/embedded-runtimes/ravenscar-stm32l5nucleo_s/sfp/adalib/libgnarl.a(s-bbtime.o)
                0x0000000030004efc                system__bb__time__initialize_timers
 .text.system__bb__time__update_alarm
                0x0000000030004f90       0x98 /home/hedley/ada/STM32/L/L562/hash/Ada_Drivers_Library/embedded-runtimes/ravenscar-stm32l5nucleo_s/sfp/adalib/libgnarl.a(s-bbtime.o)
                0x0000000030004f90                system__bb__time__update_alarm
 .text.system__bb__time__alarm_handler
                0x0000000030005028       0xb8 /home/hedley/ada/STM32/L/L562/hash/Ada_Drivers_Library/embedded-runtimes/ravenscar-stm32l5nucleo_s/sfp/adalib/libgnarl.a(s-bbtime.o)
 .text.system__bb__cpu_primitives__context_switch_trigger__initialize_context_switch
                0x00000000300050e0        0x4 /home/hedley/ada/STM32/L/L562/hash/Ada_Drivers_Library/embedded-runtimes/ravenscar-stm32l5nucleo_s/sfp/adalib/libgnarl.a(s-bcpcst.o)
                0x00000000300050e0                system__bb__cpu_primitives__context_switch_trigger__initialize_context_switch
 .text.system__bb__cpu_primitives__context_switch_trigger__trigger_context_switch
                0x00000000300050e4       0x10 /home/hedley/ada/STM32/L/L562/hash/Ada_Drivers_Library/embedded-runtimes/ravenscar-stm32l5nucleo_s/sfp/adalib/libgnarl.a(s-bcpcst.o)
                0x00000000300050e4                system__bb__cpu_primitives__context_switch_trigger__trigger_context_switch
 .text.__gnat_pend_sv_trap
                0x00000000300050f4       0x48 /home/hedley/ada/STM32/L/L562/hash/Ada_Drivers_Library/embedded-runtimes/ravenscar-stm32l5nucleo_s/sfp/adalib/libgnarl.a(s-bcpcst.o)
                0x00000000300050f4                __gnat_pend_sv_trap
 .text.system__tasking__protected_objects___elabb
                0x000000003000513c        0x4 /home/hedley/ada/STM32/L/L562/hash/Ada_Drivers_Library/embedded-runtimes/ravenscar-stm32l5nucleo_s/sfp/adalib/libgnarl.a(s-taprob.o)
                0x000000003000513c                system__tasking__protected_objects___elabb
 .text.system__tasking__restricted__stages__task_wrapper
                0x0000000030005140       0xa0 /home/hedley/ada/STM32/L/L562/hash/Ada_Drivers_Library/embedded-runtimes/ravenscar-stm32l5nucleo_s/sfp/adalib/libgnarl.a(s-tarest.o)
 .text.system__tasking__restricted__stages__activate_tasks
                0x00000000300051e0       0x94 /home/hedley/ada/STM32/L/L562/hash/Ada_Drivers_Library/embedded-runtimes/ravenscar-stm32l5nucleo_s/sfp/adalib/libgnarl.a(s-tarest.o)
 .text.__gnat_activate_all_tasks
                0x0000000030005274       0x14 /home/hedley/ada/STM32/L/L562/hash/Ada_Drivers_Library/embedded-runtimes/ravenscar-stm32l5nucleo_s/sfp/adalib/libgnarl.a(s-tarest.o)
                0x0000000030005274                __gnat_activate_all_tasks
 .text.system__tasking__restricted__stages___elabb
                0x0000000030005288        0x4 /home/hedley/ada/STM32/L/L562/hash/Ada_Drivers_Library/embedded-runtimes/ravenscar-stm32l5nucleo_s/sfp/adalib/libgnarl.a(s-tarest.o)
                0x0000000030005288                system__tasking__restricted__stages___elabb
 .text.system__tasking__initialize_atcb
                0x000000003000528c       0x30 /home/hedley/ada/STM32/L/L562/hash/Ada_Drivers_Library/embedded-runtimes/ravenscar-stm32l5nucleo_s/sfp/adalib/libgnarl.a(s-taskin.o)
                0x000000003000528c                system__tasking__initialize_atcb
 .text.system__tasking__initialize
                0x00000000300052bc      0x174 /home/hedley/ada/STM32/L/L562/hash/Ada_Drivers_Library/embedded-runtimes/ravenscar-stm32l5nucleo_s/sfp/adalib/libgnarl.a(s-taskin.o)
                0x00000000300052bc                system__tasking__initialize
 .text.system__tasking__protected_objects__multiprocessors__wakeup_served_entry
                0x0000000030005430       0x58 /home/hedley/ada/STM32/L/L562/hash/Ada_Drivers_Library/embedded-runtimes/ravenscar-stm32l5nucleo_s/sfp/adalib/libgnarl.a(s-tpobmu.o)
                0x0000000030005430                system__tasking__protected_objects__multiprocessors__wakeup_served_entry
 .text.system__tasking__protected_objects__multiprocessors___elabb
                0x0000000030005488       0x20 /home/hedley/ada/STM32/L/L562/hash/Ada_Drivers_Library/embedded-runtimes/ravenscar-stm32l5nucleo_s/sfp/adalib/libgnarl.a(s-tpobmu.o)
                0x0000000030005488                system__tasking__protected_objects__multiprocessors___elabb
 .text.system__bb__protection__leave_kernel
                0x00000000300054a8       0x58 /home/hedley/ada/STM32/L/L562/hash/Ada_Drivers_Library/embedded-runtimes/ravenscar-stm32l5nucleo_s/sfp/adalib/libgnarl.a(s-bbprot.o)
                0x00000000300054a8                system__bb__protection__leave_kernel
 .text.system__bb__threads__initialize
                0x0000000030005500      0x14c /home/hedley/ada/STM32/L/L562/hash/Ada_Drivers_Library/embedded-runtimes/ravenscar-stm32l5nucleo_s/sfp/adalib/libgnarl.a(s-bbthre.o)
                0x0000000030005500                system__bb__threads__initialize
 .text.system__bb__threads__sleep
                0x000000003000564c       0x48 /home/hedley/ada/STM32/L/L562/hash/Ada_Drivers_Library/embedded-runtimes/ravenscar-stm32l5nucleo_s/sfp/adalib/libgnarl.a(s-bbthre.o)
                0x000000003000564c                system__bb__threads(short, long,...)(...)( *)
 .text.system__bb__threads__thread_create
                0x0000000030005694      0x100 /home/hedley/ada/STM32/L/L562/hash/Ada_Drivers_Library/embedded-runtimes/ravenscar-stm32l5nucleo_s/sfp/adalib/libgnarl.a(s-bbthre.o)
                0x0000000030005694                system__bb__threads__thread_create
 .text.system__bb__threads__wakeup
                0x0000000030005794       0x94 /home/hedley/ada/STM32/L/L562/hash/Ada_Drivers_Library/embedded-runtimes/ravenscar-stm32l5nucleo_s/sfp/adalib/libgnarl.a(s-bbthre.o)
                0x0000000030005794                system__bb__threads__wakeup
 .text.system__bb__timing_events__execute_expired_timing_events
                0x0000000030005828       0x78 /home/hedley/ada/STM32/L/L562/hash/Ada_Drivers_Library/embedded-runtimes/ravenscar-stm32l5nucleo_s/sfp/adalib/libgnarl.a(s-bbtiev.o)
                0x0000000030005828                system__bb__timing_events__execute_expired_timing_events
 .text.system__task_primitives__operations__enter_task
                0x00000000300058a0       0x3c /home/hedley/ada/STM32/L/L562/hash/Ada_Drivers_Library/embedded-runtimes/ravenscar-stm32l5nucleo_s/sfp/adalib/libgnarl.a(s-taprop.o)
                0x00000000300058a0                system__task_primitives__operations__enter_task
 .text.system__task_primitives__operations__idle
                0x00000000300058dc       0x14 /home/hedley/ada/STM32/L/L562/hash/Ada_Drivers_Library/embedded-runtimes/ravenscar-stm32l5nucleo_s/sfp/adalib/libgnarl.a(s-taprop.o)
                0x00000000300058dc                system__task_primitives__operations(int, double, long,...)
 .text.system__task_primitives__operations__initialize_idle
                0x00000000300058f0       0x60 /home/hedley/ada/STM32/L/L562/hash/Ada_Drivers_Library/embedded-runtimes/ravenscar-stm32l5nucleo_s/sfp/adalib/libgnarl.a(s-taprop.o)
                0x00000000300058f0                system__task_primitives__operations__initialize_idle
 .text.__gnat_last_chance_handler
                0x0000000030005950       0x84 /home/hedley/ada/STM32/L/L562/hash/Ada_Drivers_Library/embedded-runtimes/ravenscar-stm32l5nucleo_s/sfp/adalib/libgnat.a(a-elchha.o)
                0x0000000030005950                __gnat_last_chance_handler
 .text.gnat__io__put__2
                0x00000000300059d4       0x44 /home/hedley/ada/STM32/L/L562/hash/Ada_Drivers_Library/embedded-runtimes/ravenscar-stm32l5nucleo_s/sfp/adalib/libgnat.a(g-io.o)
                0x00000000300059d4                gnat__io__put__2
 .text.gnat__io__new_line
                0x0000000030005a18       0x14 /home/hedley/ada/STM32/L/L562/hash/Ada_Drivers_Library/embedded-runtimes/ravenscar-stm32l5nucleo_s/sfp/adalib/libgnat.a(g-io.o)
                0x0000000030005a18                gnat__io__new_line
 .text.gnat__io__put__3
                0x0000000030005a2c       0x20 /home/hedley/ada/STM32/L/L562/hash/Ada_Drivers_Library/embedded-runtimes/ravenscar-stm32l5nucleo_s/sfp/adalib/libgnat.a(g-io.o)
                0x0000000030005a2c                gnat__io__put__3
 .text.gnat__io__put
                0x0000000030005a4c       0x70 /home/hedley/ada/STM32/L/L562/hash/Ada_Drivers_Library/embedded-runtimes/ravenscar-stm32l5nucleo_s/sfp/adalib/libgnat.a(g-io.o)
                0x0000000030005a4c                gnat__io__put
 .text.gnat__io__put_line
                0x0000000030005abc       0x10 /home/hedley/ada/STM32/L/L562/hash/Ada_Drivers_Library/embedded-runtimes/ravenscar-stm32l5nucleo_s/sfp/adalib/libgnat.a(g-io.o)
                0x0000000030005abc                gnat__io__put_line
 *fill*         0x0000000030005acc      0x134 
 .text          0x0000000030005c00      0x1a0 /home/hedley/ada/STM32/L/L562/hash/Ada_Drivers_Library/embedded-runtimes/ravenscar-stm32l5nucleo_s/sfp/adalib/libgnat.a(handler.o)
                0x0000000030005c00                __vectors
 .text.system__assertions__raise_assert_failure
                0x0000000030005da0       0x68 /home/hedley/ada/STM32/L/L562/hash/Ada_Drivers_Library/embedded-runtimes/ravenscar-stm32l5nucleo_s/sfp/adalib/libgnat.a(s-assert.o)
                0x0000000030005da0                system__assertions__raise_assert_failure
 .text._exit    0x0000000030005e08       0x10 /home/hedley/ada/STM32/L/L562/hash/Ada_Drivers_Library/embedded-runtimes/ravenscar-stm32l5nucleo_s/sfp/adalib/libgnat.a(s-macres.o)
                0x0000000030005e08                _exit
 .text.system__machine_reset__stop
                0x0000000030005e18       0x10 /home/hedley/ada/STM32/L/L562/hash/Ada_Drivers_Library/embedded-runtimes/ravenscar-stm32l5nucleo_s/sfp/adalib/libgnat.a(s-macres.o)
                0x0000000030005e18                system__machine_reset__stop
 .text.memcpy   0x0000000030005e28       0x48 /home/hedley/ada/STM32/L/L562/hash/Ada_Drivers_Library/embedded-runtimes/ravenscar-stm32l5nucleo_s/sfp/adalib/libgnat.a(s-memcop.o)
                0x0000000030005e28                memcpy
 .text.memset   0x0000000030005e70       0x50 /home/hedley/ada/STM32/L/L562/hash/Ada_Drivers_Library/embedded-runtimes/ravenscar-stm32l5nucleo_s/sfp/adalib/libgnat.a(s-memset.o)
                0x0000000030005e70                memset
 .text.system__parameters__adjust_storage_size
                0x0000000030005ec0        0xc /home/hedley/ada/STM32/L/L562/hash/Ada_Drivers_Library/embedded-runtimes/ravenscar-stm32l5nucleo_s/sfp/adalib/libgnat.a(s-parame.o)
                0x0000000030005ec0                system__parameters__adjust_storage_size
 .text.system__secondary_stack__ss_stackIP
                0x0000000030005ecc        0x4 /home/hedley/ada/STM32/L/L562/hash/Ada_Drivers_Library/embedded-runtimes/ravenscar-stm32l5nucleo_s/sfp/adalib/libgnat.a(s-secsta.o)
                0x0000000030005ecc                system__secondary_stack__ss_stackIP
 .text.system__secondary_stack__ss_init
                0x0000000030005ed0       0x6c /home/hedley/ada/STM32/L/L562/hash/Ada_Drivers_Library/embedded-runtimes/ravenscar-stm32l5nucleo_s/sfp/adalib/libgnat.a(s-secsta.o)
                0x0000000030005ed0                system__secondary_stack__ss_init
 .text.system__text_io__initialize
                0x0000000030005f3c        0x4 /home/hedley/ada/STM32/L/L562/hash/Ada_Drivers_Library/embedded-runtimes/ravenscar-stm32l5nucleo_s/sfp/adalib/libgnat.a(s-textio.o)
                0x0000000030005f3c                system__text_io__initialize
 .text.system__text_io__is_tx_ready
                0x0000000030005f40       0x10 /home/hedley/ada/STM32/L/L562/hash/Ada_Drivers_Library/embedded-runtimes/ravenscar-stm32l5nucleo_s/sfp/adalib/libgnat.a(s-textio.o)
                0x0000000030005f40                system__text_io__is_tx_ready
 .text.system__text_io__put
                0x0000000030005f50       0x10 /home/hedley/ada/STM32/L/L562/hash/Ada_Drivers_Library/embedded-runtimes/ravenscar-stm32l5nucleo_s/sfp/adalib/libgnat.a(s-textio.o)
                0x0000000030005f50                system__text_io__put
 .text.system__text_io__use_cr_lf_for_new_line
                0x0000000030005f60        0x4 /home/hedley/ada/STM32/L/L562/hash/Ada_Drivers_Library/embedded-runtimes/ravenscar-stm32l5nucleo_s/sfp/adalib/libgnat.a(s-textio.o)
                0x0000000030005f60                system__text_io__use_cr_lf_for_new_line
 .text          0x0000000030005f64       0x34 /home/hedley/ada/STM32/L/L562/hash/Ada_Drivers_Library/embedded-runtimes/ravenscar-stm32l5nucleo_s/sfp/adalib/libgnat.a(start-common.o)
                0x0000000030005f64                _stm32_start_common
                0x0000000030005f7e                is_secure
                0x0000000030005f94                secure_code
 *fill*         0x0000000030005f98        0x8 
 .text          0x0000000030005fa0       0x34 /home/hedley/ada/STM32/L/L562/hash/Ada_Drivers_Library/embedded-runtimes/ravenscar-stm32l5nucleo_s/sfp/adalib/libgnat.a(start-ram.o)
                0x0000000030005fa0                _start_ram
 .text._ada_setup_pll
                0x0000000030005fd4      0x168 /home/hedley/ada/STM32/L/L562/hash/Ada_Drivers_Library/embedded-runtimes/ravenscar-stm32l5nucleo_s/sfp/adalib/libgnat.a(setup_pll.o)
                0x0000000030005fd4                _ada_setup_pll
 .text.system__bb__mcu_parameters__pwr_initialize
                0x000000003000613c        0x4 /home/hedley/ada/STM32/L/L562/hash/Ada_Drivers_Library/embedded-runtimes/ravenscar-stm32l5nucleo_s/sfp/adalib/libgnat.a(s-bbmcpa.o)
                0x000000003000613c                system__bb__mcu_parameters__pwr_initialize
 *(.gnu.warning)

.glue_7         0x0000000030006140        0x0
 .glue_7        0x0000000030006140        0x0 linker stubs

.glue_7t        0x0000000030006140        0x0
 .glue_7t       0x0000000030006140        0x0 linker stubs

.vfp11_veneer   0x0000000030006140        0x0
 .vfp11_veneer  0x0000000030006140        0x0 linker stubs

.v4_bx          0x0000000030006140        0x0
 .v4_bx         0x0000000030006140        0x0 linker stubs

.iplt           0x0000000030006140        0x0
 .iplt          0x0000000030006140        0x0 test_s.o

.ARM.extab
 *(.ARM.extab* .gnu.linkonce.armextab.*)
                [!provide]                        PROVIDE (__exidx_start = .)

.ARM.exidx
 *(.ARM.exidx* .gnu.linkonce.armexidx.*)
                [!provide]                        PROVIDE (__exidx_end = .)

.gnu.sgstubs    0x000000003001f000        0x0
                0x000000003001f000                . = ALIGN (0x20)
                0x000000003001f000                _start_sg = .
 *(.gnu.sgstubs*)
                0x000000003001f000                . = ALIGN (0x20)
                0x000000003001f000                _end_sg = .

.rodata         0x0000000030006140      0x8d8
 *(.lit)
 *(.rodata .rodata.* .gnu.linkonce.r*)
 .rodata        0x0000000030006140        0x9 test_s.o
 *fill*         0x0000000030006149        0x3 
 .rodata.test2.5465
                0x000000003000614c      0x105 test_s.o
 *fill*         0x0000000030006251        0x3 
 .rodata        0x0000000030006254        0x8 b__test_s.o
 .rodata.__gnat_ada_main_program_name
                0x000000003000625c        0xc b__test_s.o
                0x000000003000625c                __gnat_ada_main_program_name
 .rodata        0x0000000030006268       0x18 /home/hedley/ada/STM32/L/L562/hash/Ada_Drivers_Library/boards/lib/stm32l5discovery_s/ravenscar-sfp/Debug/libstm32l5discovery_s.a(stm32-board.o)
 .rodata        0x0000000030006280       0xb5 /home/hedley/ada/STM32/L/L562/hash/Ada_Drivers_Library/arch/ARM/STM32/lib/stm32l5nucleo_s/ravenscar-sfp/Debug/libstm32l5xx.a(stm32-device.o)
 *fill*         0x0000000030006335        0x3 
 .rodata        0x0000000030006338        0xf /home/hedley/ada/STM32/L/L562/hash/Ada_Drivers_Library/arch/ARM/STM32/lib/stm32l5nucleo_s/ravenscar-sfp/Debug/libstm32l5xx.a(stm32-exti.o)
 *fill*         0x0000000030006347        0x1 
 .rodata        0x0000000030006348      0x130 /home/hedley/ada/STM32/L/L562/hash/Ada_Drivers_Library/arch/ARM/STM32/lib/stm32l5nucleo_s/ravenscar-sfp/Debug/libstm32l5xx.a(stm32-gpio.o)
 .rodata.stm32__gpio__gpio_pointE70s
                0x0000000030006478       0x16 /home/hedley/ada/STM32/L/L562/hash/Ada_Drivers_Library/arch/ARM/STM32/lib/stm32l5nucleo_s/ravenscar-sfp/Debug/libstm32l5xx.a(stm32-gpio.o)
                0x0000000030006478                stm32__gpio__gpio_pointE70s
 *fill*         0x000000003000648e        0x2 
 .rodata.stm32__gpio__gpio_pointB74s
                0x0000000030006490       0x20 /home/hedley/ada/STM32/L/L562/hash/Ada_Drivers_Library/arch/ARM/STM32/lib/stm32l5nucleo_s/ravenscar-sfp/Debug/libstm32l5xx.a(stm32-gpio.o)
                0x0000000030006490                stm32__gpio__gpio_pointB74s
 .rodata.stm32__gpio__gpio_pointR72s___UNC
                0x00000000300064b0       0x24 /home/hedley/ada/STM32/L/L562/hash/Ada_Drivers_Library/arch/ARM/STM32/lib/stm32l5nucleo_s/ravenscar-sfp/Debug/libstm32l5xx.a(stm32-gpio.o)
                0x00000000300064b0                stm32__gpio__gpio_pointR72s___UNC
 .rodata.stm32__gpio__gpio_pointT
                0x00000000300064d4       0x48 /home/hedley/ada/STM32/L/L562/hash/Ada_Drivers_Library/arch/ARM/STM32/lib/stm32l5nucleo_s/ravenscar-sfp/Debug/libstm32l5xx.a(stm32-gpio.o)
                0x00000000300064d4                stm32__gpio__gpio_pointT
 .rodata        0x000000003000651c       0x1f /home/hedley/ada/STM32/L/L562/hash/Ada_Drivers_Library/arch/ARM/STM32/lib/stm32l5nucleo_s/ravenscar-sfp/Debug/libstm32l5xx.a(stm32-hash.o)
 *fill*         0x000000003000653b        0x1 
 .rodata        0x000000003000653c        0xe /home/hedley/ada/STM32/L/L562/hash/Ada_Drivers_Library/arch/ARM/STM32/lib/stm32l5nucleo_s/ravenscar-sfp/Debug/libstm32l5xx.a(stm32-mpu.o)
 *fill*         0x000000003000654a        0x2 
 .rodata        0x000000003000654c      0x11a /home/hedley/ada/STM32/L/L562/hash/Ada_Drivers_Library/arch/ARM/STM32/lib/stm32l5nucleo_s/ravenscar-sfp/Debug/libstm32l5xx.a(stm32-spi.o)
 *fill*         0x0000000030006666        0x2 
 .rodata.stm32__spi__spi_portE50s
                0x0000000030006668       0x13 /home/hedley/ada/STM32/L/L562/hash/Ada_Drivers_Library/arch/ARM/STM32/lib/stm32l5nucleo_s/ravenscar-sfp/Debug/libstm32l5xx.a(stm32-spi.o)
                0x0000000030006668                stm32__spi__spi_portE50s
 *fill*         0x000000003000667b        0x1 
 .rodata.stm32__spi__spi_portB54s
                0x000000003000667c       0x20 /home/hedley/ada/STM32/L/L562/hash/Ada_Drivers_Library/arch/ARM/STM32/lib/stm32l5nucleo_s/ravenscar-sfp/Debug/libstm32l5xx.a(stm32-spi.o)
                0x000000003000667c                stm32__spi__spi_portB54s
 .rodata.stm32__spi__spi_portR52s___UNC
                0x000000003000669c        0xc /home/hedley/ada/STM32/L/L562/hash/Ada_Drivers_Library/arch/ARM/STM32/lib/stm32l5nucleo_s/ravenscar-sfp/Debug/libstm32l5xx.a(stm32-spi.o)
                0x000000003000669c                stm32__spi__spi_portR52s___UNC
 .rodata.stm32__spi__spi_portT
                0x00000000300066a8       0xa8 /home/hedley/ada/STM32/L/L562/hash/Ada_Drivers_Library/arch/ARM/STM32/lib/stm32l5nucleo_s/ravenscar-sfp/Debug/libstm32l5xx.a(stm32-spi.o)
                0x00000000300066a8                stm32__spi__spi_portT
 .rodata.stm32__spi__baud_rate_value
                0x0000000030006750        0x8 /home/hedley/ada/STM32/L/L562/hash/Ada_Drivers_Library/arch/ARM/STM32/lib/stm32l5nucleo_s/ravenscar-sfp/Debug/libstm32l5xx.a(stm32-spi.o)
                0x0000000030006750                stm32__spi__baud_rate_value
 .rodata.hal__gpio__gpio_pointE15s
                0x0000000030006758       0x14 /home/hedley/ada/Ada_Drivers_Library/hal/lib/stm32l5nucleo_s/ravenscar-sfp/Debug/libHAL.a(hal-gpio.o)
                0x0000000030006758                hal__gpio__gpio_pointE15s
 .rodata.hal__gpio__gpio_pointB19s
                0x000000003000676c       0x1c /home/hedley/ada/Ada_Drivers_Library/hal/lib/stm32l5nucleo_s/ravenscar-sfp/Debug/libHAL.a(hal-gpio.o)
                0x000000003000676c                hal__gpio__gpio_pointB19s
 .rodata.hal__gpio__gpio_pointT
                0x0000000030006788        0x8 /home/hedley/ada/Ada_Drivers_Library/hal/lib/stm32l5nucleo_s/ravenscar-sfp/Debug/libHAL.a(hal-gpio.o)
                0x0000000030006788                hal__gpio__gpio_pointT
 .rodata.hal__spi__spi_portE21s
                0x0000000030006790       0x11 /home/hedley/ada/Ada_Drivers_Library/hal/lib/stm32l5nucleo_s/ravenscar-sfp/Debug/libHAL.a(hal-spi.o)
                0x0000000030006790                hal__spi__spi_portE21s
 *fill*         0x00000000300067a1        0x3 
 .rodata.hal__spi__spi_portB25s
                0x00000000300067a4       0x1c /home/hedley/ada/Ada_Drivers_Library/hal/lib/stm32l5nucleo_s/ravenscar-sfp/Debug/libHAL.a(hal-spi.o)
                0x00000000300067a4                hal__spi__spi_portB25s
 .rodata.hal__spi__spi_portT
                0x00000000300067c0        0x8 /home/hedley/ada/Ada_Drivers_Library/hal/lib/stm32l5nucleo_s/ravenscar-sfp/Debug/libHAL.a(hal-spi.o)
                0x00000000300067c0                hal__spi__spi_portT
 .rodata.system__bb__cpu_primitives__gnat_error_handler.str1.4
                0x00000000300067c8      0x16c /home/hedley/ada/STM32/L/L562/hash/Ada_Drivers_Library/embedded-runtimes/ravenscar-stm32l5nucleo_s/sfp/adalib/libgnarl.a(s-bbcppr.o)
 .rodata        0x0000000030006934       0x15 /home/hedley/ada/STM32/L/L562/hash/Ada_Drivers_Library/embedded-runtimes/ravenscar-stm32l5nucleo_s/sfp/adalib/libgnarl.a(s-tarest.o)
 *fill*         0x0000000030006949        0x3 
 .rodata.system__tasking__initialize.str1.4
                0x000000003000694c       0x3a /home/hedley/ada/STM32/L/L562/hash/Ada_Drivers_Library/embedded-runtimes/ravenscar-stm32l5nucleo_s/sfp/adalib/libgnarl.a(s-taskin.o)
 *fill*         0x0000000030006986        0x2 
 .rodata        0x0000000030006988       0x18 /home/hedley/ada/STM32/L/L562/hash/Ada_Drivers_Library/embedded-runtimes/ravenscar-stm32l5nucleo_s/sfp/adalib/libgnat.a(a-elchha.o)
 .rodata.__gnat_last_chance_handler.str1.4
                0x00000000300069a0       0x5c /home/hedley/ada/STM32/L/L562/hash/Ada_Drivers_Library/embedded-runtimes/ravenscar-stm32l5nucleo_s/sfp/adalib/libgnat.a(a-elchha.o)
                                         0x5a (size before relaxing)
 .rodata.ada__exceptions__empty_c_string___UNC
                0x00000000300069fc        0xc /home/hedley/ada/STM32/L/L562/hash/Ada_Drivers_Library/embedded-runtimes/ravenscar-stm32l5nucleo_s/sfp/adalib/libgnat.a(a-except.o)
                0x00000000300069fc                ada__exceptions__empty_c_string___UNC
 .rodata        0x0000000030006a08        0xd /home/hedley/ada/STM32/L/L562/hash/Ada_Drivers_Library/embedded-runtimes/ravenscar-stm32l5nucleo_s/sfp/adalib/libgnat.a(s-secsta.o)
                0x0000000030006a18                . = ALIGN (0x4)
 *fill*         0x0000000030006a15        0x3 

.rel.dyn        0x0000000030006a18        0x0
 .rel.iplt      0x0000000030006a18        0x0 test_s.o

.data           0x0000000030006a18       0x8c
                0x0000000030006a18                __data_start = .
 *(.data .data.* .gnu.linkonce.d*)
 .data.stm32__board_E
                0x0000000030006a18        0x2 /home/hedley/ada/STM32/L/L562/hash/Ada_Drivers_Library/boards/lib/stm32l5discovery_s/ravenscar-sfp/Debug/libstm32l5discovery_s.a(stm32-board.o)
                0x0000000030006a18                stm32__board_E
 .data.stm32__device_E
                0x0000000030006a1a        0x2 /home/hedley/ada/STM32/L/L562/hash/Ada_Drivers_Library/arch/ARM/STM32/lib/stm32l5nucleo_s/ravenscar-sfp/Debug/libstm32l5xx.a(stm32-device.o)
                0x0000000030006a1a                stm32__device_E
 .data.stm32__exti_E
                0x0000000030006a1c        0x2 /home/hedley/ada/STM32/L/L562/hash/Ada_Drivers_Library/arch/ARM/STM32/lib/stm32l5nucleo_s/ravenscar-sfp/Debug/libstm32l5xx.a(stm32-exti.o)
                0x0000000030006a1c                stm32__exti_E
 .data.stm32__gpio_E
                0x0000000030006a1e        0x2 /home/hedley/ada/STM32/L/L562/hash/Ada_Drivers_Library/arch/ARM/STM32/lib/stm32l5nucleo_s/ravenscar-sfp/Debug/libstm32l5xx.a(stm32-gpio.o)
                0x0000000030006a1e                stm32__gpio_E
 .data.stm32__hash_E
                0x0000000030006a20        0x2 /home/hedley/ada/STM32/L/L562/hash/Ada_Drivers_Library/arch/ARM/STM32/lib/stm32l5nucleo_s/ravenscar-sfp/Debug/libstm32l5xx.a(stm32-hash.o)
                0x0000000030006a20                stm32__hash_E
 .data.stm32__mpu_E
                0x0000000030006a22        0x2 /home/hedley/ada/STM32/L/L562/hash/Ada_Drivers_Library/arch/ARM/STM32/lib/stm32l5nucleo_s/ravenscar-sfp/Debug/libstm32l5xx.a(stm32-mpu.o)
                0x0000000030006a22                stm32__mpu_E
 .data.stm32__rcc_E
                0x0000000030006a24        0x2 /home/hedley/ada/STM32/L/L562/hash/Ada_Drivers_Library/arch/ARM/STM32/lib/stm32l5nucleo_s/ravenscar-sfp/Debug/libstm32l5xx.a(stm32-rcc.o)
                0x0000000030006a24                stm32__rcc_E
 .data.stm32__sau_E
                0x0000000030006a26        0x2 /home/hedley/ada/STM32/L/L562/hash/Ada_Drivers_Library/arch/ARM/STM32/lib/stm32l5nucleo_s/ravenscar-sfp/Debug/libstm32l5xx.a(stm32-sau.o)
                0x0000000030006a26                stm32__sau_E
 .data.stm32__spi_E
                0x0000000030006a28        0x2 /home/hedley/ada/STM32/L/L562/hash/Ada_Drivers_Library/arch/ARM/STM32/lib/stm32l5nucleo_s/ravenscar-sfp/Debug/libstm32l5xx.a(stm32-spi.o)
                0x0000000030006a28                stm32__spi_E
 .data.stm32__syscfg_E
                0x0000000030006a2a        0x2 /home/hedley/ada/STM32/L/L562/hash/Ada_Drivers_Library/arch/ARM/STM32/lib/stm32l5nucleo_s/ravenscar-sfp/Debug/libstm32l5xx.a(stm32-syscfg.o)
                0x0000000030006a2a                stm32__syscfg_E
 .data.ada__real_time_E
                0x0000000030006a2c        0x2 /home/hedley/ada/STM32/L/L562/hash/Ada_Drivers_Library/embedded-runtimes/ravenscar-stm32l5nucleo_s/sfp/adalib/libgnarl.a(a-reatim.o)
                0x0000000030006a2c                ada__real_time_E
 .data.system__bb__cpu_primitives__defer_context_switch
                0x0000000030006a2e        0x1 /home/hedley/ada/STM32/L/L562/hash/Ada_Drivers_Library/embedded-runtimes/ravenscar-stm32l5nucleo_s/sfp/adalib/libgnarl.a(s-bbcppr.o)
                0x0000000030006a2e                system__bb__cpu_primitives__defer_context_switch
 *fill*         0x0000000030006a2f        0x1 
 .data.system__bb__interrupts__interrupt_being_handled
                0x0000000030006a30        0x4 /home/hedley/ada/STM32/L/L562/hash/Ada_Drivers_Library/embedded-runtimes/ravenscar-stm32l5nucleo_s/sfp/adalib/libgnarl.a(s-bbinte.o)
                0x0000000030006a30                system__bb__interrupts__interrupt_being_handled
 .data.__gnat_running_thread_table
                0x0000000030006a34        0x4 /home/hedley/ada/STM32/L/L562/hash/Ada_Drivers_Library/embedded-runtimes/ravenscar-stm32l5nucleo_s/sfp/adalib/libgnarl.a(s-bbthqu.o)
                0x0000000030006a34                __gnat_running_thread_table
 .data.first_thread_table
                0x0000000030006a38        0x4 /home/hedley/ada/STM32/L/L562/hash/Ada_Drivers_Library/embedded-runtimes/ravenscar-stm32l5nucleo_s/sfp/adalib/libgnarl.a(s-bbthqu.o)
                0x0000000030006a38                first_thread_table
 .data.system__bb__threads__queues__alarms_table
                0x0000000030006a3c        0x4 /home/hedley/ada/STM32/L/L562/hash/Ada_Drivers_Library/embedded-runtimes/ravenscar-stm32l5nucleo_s/sfp/adalib/libgnarl.a(s-bbthqu.o)
                0x0000000030006a3c                system__bb__threads__queues__alarms_table
 .data.system__bb__threads__queues__global_list
                0x0000000030006a40        0x4 /home/hedley/ada/STM32/L/L562/hash/Ada_Drivers_Library/embedded-runtimes/ravenscar-stm32l5nucleo_s/sfp/adalib/libgnarl.a(s-bbthqu.o)
                0x0000000030006a40                system__bb__threads__queues__global_list
 *fill*         0x0000000030006a44        0x4 
 .data.system__bb__time__max_sleep
                0x0000000030006a48        0x8 /home/hedley/ada/STM32/L/L562/hash/Ada_Drivers_Library/embedded-runtimes/ravenscar-stm32l5nucleo_s/sfp/adalib/libgnarl.a(s-bbtime.o)
                0x0000000030006a48                system__bb__time__max_sleep
 .data.system__bb__time__pending_alarm
                0x0000000030006a50        0x8 /home/hedley/ada/STM32/L/L562/hash/Ada_Drivers_Library/embedded-runtimes/ravenscar-stm32l5nucleo_s/sfp/adalib/libgnarl.a(s-bbtime.o)
                0x0000000030006a50                system__bb__time__pending_alarm
 .data.system__bb__time__scheduling_event_hook
                0x0000000030006a58        0x4 /home/hedley/ada/STM32/L/L562/hash/Ada_Drivers_Library/embedded-runtimes/ravenscar-stm32l5nucleo_s/sfp/adalib/libgnarl.a(s-bbtime.o)
                0x0000000030006a58                system__bb__time__scheduling_event_hook
 .data.system__bb__time__software_clock
                0x0000000030006a5c        0x8 /home/hedley/ada/STM32/L/L562/hash/Ada_Drivers_Library/embedded-runtimes/ravenscar-stm32l5nucleo_s/sfp/adalib/libgnarl.a(s-bbtime.o)
                0x0000000030006a5c                system__bb__time__software_clock
 .data.system__tasking__protected_objects_E
                0x0000000030006a64        0x2 /home/hedley/ada/STM32/L/L562/hash/Ada_Drivers_Library/embedded-runtimes/ravenscar-stm32l5nucleo_s/sfp/adalib/libgnarl.a(s-taprob.o)
                0x0000000030006a64                system__tasking__protected_objects_E
 .data.__gnat_partition_elaboration_policy
                0x0000000030006a66        0x1 /home/hedley/ada/STM32/L/L562/hash/Ada_Drivers_Library/embedded-runtimes/ravenscar-stm32l5nucleo_s/sfp/adalib/libgnarl.a(s-tarest.o)
                0x0000000030006a66                __gnat_partition_elaboration_policy
 *fill*         0x0000000030006a67        0x1 
 .data.system__tasking__restricted__stages_E
                0x0000000030006a68        0x2 /home/hedley/ada/STM32/L/L562/hash/Ada_Drivers_Library/embedded-runtimes/ravenscar-stm32l5nucleo_s/sfp/adalib/libgnarl.a(s-tarest.o)
                0x0000000030006a68                system__tasking__restricted__stages_E
 *fill*         0x0000000030006a6a        0x2 
 .data.system__tasking__restricted__stages__tasks_activation_chain
                0x0000000030006a6c        0x4 /home/hedley/ada/STM32/L/L562/hash/Ada_Drivers_Library/embedded-runtimes/ravenscar-stm32l5nucleo_s/sfp/adalib/libgnarl.a(s-tarest.o)
 .data.system__tasking__debug__first_task
                0x0000000030006a70        0x4 /home/hedley/ada/STM32/L/L562/hash/Ada_Drivers_Library/embedded-runtimes/ravenscar-stm32l5nucleo_s/sfp/adalib/libgnarl.a(s-tasdeb.o)
                0x0000000030006a70                system__tasking__debug__first_task
 .data.system__tasking__debug__last_task
                0x0000000030006a74        0x4 /home/hedley/ada/STM32/L/L562/hash/Ada_Drivers_Library/embedded-runtimes/ravenscar-stm32l5nucleo_s/sfp/adalib/libgnarl.a(s-tasdeb.o)
                0x0000000030006a74                system__tasking__debug__last_task
 .data.__gl_main_cpu
                0x0000000030006a78        0x4 /home/hedley/ada/STM32/L/L562/hash/Ada_Drivers_Library/embedded-runtimes/ravenscar-stm32l5nucleo_s/sfp/adalib/libgnarl.a(s-taskin.o)
                0x0000000030006a78                __gl_main_cpu
 .data.__gl_main_priority
                0x0000000030006a7c        0x4 /home/hedley/ada/STM32/L/L562/hash/Ada_Drivers_Library/embedded-runtimes/ravenscar-stm32l5nucleo_s/sfp/adalib/libgnarl.a(s-taskin.o)
                0x0000000030006a7c                __gl_main_priority
 .data.system__tasking__fall_back_handler
                0x0000000030006a80        0x8 /home/hedley/ada/STM32/L/L562/hash/Ada_Drivers_Library/embedded-runtimes/ravenscar-stm32l5nucleo_s/sfp/adalib/libgnarl.a(s-taskin.o)
                0x0000000030006a80                system__tasking__fall_back_handler
 .data.system__tasking__initialized
                0x0000000030006a88        0x1 /home/hedley/ada/STM32/L/L562/hash/Ada_Drivers_Library/embedded-runtimes/ravenscar-stm32l5nucleo_s/sfp/adalib/libgnarl.a(s-taskin.o)
 *fill*         0x0000000030006a89        0x1 
 .data.system__tasking__protected_objects__multiprocessors_E
                0x0000000030006a8a        0x2 /home/hedley/ada/STM32/L/L562/hash/Ada_Drivers_Library/embedded-runtimes/ravenscar-stm32l5nucleo_s/sfp/adalib/libgnarl.a(s-tpobmu.o)
                0x0000000030006a8a                system__tasking__protected_objects__multiprocessors_E
 .data.system__bb__protection__wakeup_served_entry_callback
                0x0000000030006a8c        0x4 /home/hedley/ada/STM32/L/L562/hash/Ada_Drivers_Library/embedded-runtimes/ravenscar-stm32l5nucleo_s/sfp/adalib/libgnarl.a(s-bbprot.o)
                0x0000000030006a8c                system__bb__protection__wakeup_served_entry_callback
 .data.system__bb__threads__initialized
                0x0000000030006a90        0x1 /home/hedley/ada/STM32/L/L562/hash/Ada_Drivers_Library/embedded-runtimes/ravenscar-stm32l5nucleo_s/sfp/adalib/libgnarl.a(s-bbthre.o)
                0x0000000030006a90                system__bb__threads__initialized
 *fill*         0x0000000030006a91        0x3 
 .data.system__bb__timing_events__events_table
                0x0000000030006a94        0x4 /home/hedley/ada/STM32/L/L562/hash/Ada_Drivers_Library/embedded-runtimes/ravenscar-stm32l5nucleo_s/sfp/adalib/libgnarl.a(s-bbtiev.o)
                0x0000000030006a94                system__bb__timing_events__events_table
 .data.system__task_primitives__operations__environment_task
                0x0000000030006a98        0x4 /home/hedley/ada/STM32/L/L562/hash/Ada_Drivers_Library/embedded-runtimes/ravenscar-stm32l5nucleo_s/sfp/adalib/libgnarl.a(s-taprop.o)
                0x0000000030006a98                system__task_primitives__operations__environment_task
 .data.system__secondary_stack__num_of_assigned_stacks
                0x0000000030006a9c        0x4 /home/hedley/ada/STM32/L/L562/hash/Ada_Drivers_Library/embedded-runtimes/ravenscar-stm32l5nucleo_s/sfp/adalib/libgnat.a(s-secsta.o)
                0x0000000030006a9c                system__secondary_stack__num_of_assigned_stacks
 .data.system__text_io__initialized
                0x0000000030006aa0        0x1 /home/hedley/ada/STM32/L/L562/hash/Ada_Drivers_Library/embedded-runtimes/ravenscar-stm32l5nucleo_s/sfp/adalib/libgnat.a(s-textio.o)
                0x0000000030006aa0                system__text_io__initialized
                0x0000000030006aa4                . = ALIGN (0x4)
 *fill*         0x0000000030006aa1        0x3 
                0x0000000030006aa4                __data_end = .

.igot.plt       0x0000000030006aa4        0x0
 .igot.plt      0x0000000030006aa4        0x0 test_s.o

.bss            0x0000000030006aa8     0x9c40
                0x0000000030006aa8                . = ALIGN (0x8)
                0x0000000030006aa8                __bss_start = .
 *(.bss .bss.*)
 .bss.ada_main__sec_default_sized_stacks
                0x0000000030006aa8      0x210 b__test_s.o
 .bss.stm32__board__S1s
                0x0000000030006cb8       0x18 /home/hedley/ada/STM32/L/L562/hash/Ada_Drivers_Library/boards/lib/stm32l5discovery_s/ravenscar-sfp/Debug/libstm32l5discovery_s.a(stm32-board.o)
                0x0000000030006cb8                s::stm32__board(void) static
 .bss.stm32__device__R4s
                0x0000000030006cd0        0x4 /home/hedley/ada/STM32/L/L562/hash/Ada_Drivers_Library/arch/ARM/STM32/lib/stm32l5nucleo_s/ravenscar-sfp/Debug/libstm32l5xx.a(stm32-device.o)
                0x0000000030006cd0                stm32__device__R4s
 .bss.stm32__device__gpio_a
                0x0000000030006cd4        0x4 /home/hedley/ada/STM32/L/L562/hash/Ada_Drivers_Library/arch/ARM/STM32/lib/stm32l5nucleo_s/ravenscar-sfp/Debug/libstm32l5xx.a(stm32-device.o)
                0x0000000030006cd4                stm32__device__gpio_a
 .bss.stm32__device__pa0
                0x0000000030006cd8        0xc /home/hedley/ada/STM32/L/L562/hash/Ada_Drivers_Library/arch/ARM/STM32/lib/stm32l5nucleo_s/ravenscar-sfp/Debug/libstm32l5xx.a(stm32-device.o)
                0x0000000030006cd8                stm32__device__pa0
 .bss.stm32__device__pa1
                0x0000000030006ce4        0xc /home/hedley/ada/STM32/L/L562/hash/Ada_Drivers_Library/arch/ARM/STM32/lib/stm32l5nucleo_s/ravenscar-sfp/Debug/libstm32l5xx.a(stm32-device.o)
                0x0000000030006ce4                stm32__device__pa1
 .bss.stm32__device__pa2
                0x0000000030006cf0        0xc /home/hedley/ada/STM32/L/L562/hash/Ada_Drivers_Library/arch/ARM/STM32/lib/stm32l5nucleo_s/ravenscar-sfp/Debug/libstm32l5xx.a(stm32-device.o)
                0x0000000030006cf0                stm32__device__pa2
 .bss.stm32__device__pa3
                0x0000000030006cfc        0xc /home/hedley/ada/STM32/L/L562/hash/Ada_Drivers_Library/arch/ARM/STM32/lib/stm32l5nucleo_s/ravenscar-sfp/Debug/libstm32l5xx.a(stm32-device.o)
                0x0000000030006cfc                stm32__device__pa3
 .bss.stm32__device__pa4
                0x0000000030006d08        0xc /home/hedley/ada/STM32/L/L562/hash/Ada_Drivers_Library/arch/ARM/STM32/lib/stm32l5nucleo_s/ravenscar-sfp/Debug/libstm32l5xx.a(stm32-device.o)
                0x0000000030006d08                stm32__device__pa4
 .bss.stm32__device__pa5
                0x0000000030006d14        0xc /home/hedley/ada/STM32/L/L562/hash/Ada_Drivers_Library/arch/ARM/STM32/lib/stm32l5nucleo_s/ravenscar-sfp/Debug/libstm32l5xx.a(stm32-device.o)
                0x0000000030006d14                stm32__device__pa5
 .bss.stm32__device__pa6
                0x0000000030006d20        0xc /home/hedley/ada/STM32/L/L562/hash/Ada_Drivers_Library/arch/ARM/STM32/lib/stm32l5nucleo_s/ravenscar-sfp/Debug/libstm32l5xx.a(stm32-device.o)
                0x0000000030006d20                stm32__device__pa6
 .bss.stm32__device__pa7
                0x0000000030006d2c        0xc /home/hedley/ada/STM32/L/L562/hash/Ada_Drivers_Library/arch/ARM/STM32/lib/stm32l5nucleo_s/ravenscar-sfp/Debug/libstm32l5xx.a(stm32-device.o)
                0x0000000030006d2c                stm32__device__pa7
 .bss.stm32__device__pa8
                0x0000000030006d38        0xc /home/hedley/ada/STM32/L/L562/hash/Ada_Drivers_Library/arch/ARM/STM32/lib/stm32l5nucleo_s/ravenscar-sfp/Debug/libstm32l5xx.a(stm32-device.o)
                0x0000000030006d38                stm32__device__pa8
 .bss.stm32__device__pa9
                0x0000000030006d44        0xc /home/hedley/ada/STM32/L/L562/hash/Ada_Drivers_Library/arch/ARM/STM32/lib/stm32l5nucleo_s/ravenscar-sfp/Debug/libstm32l5xx.a(stm32-device.o)
                0x0000000030006d44                stm32__device__pa9
 .bss.stm32__device__pa10
                0x0000000030006d50        0xc /home/hedley/ada/STM32/L/L562/hash/Ada_Drivers_Library/arch/ARM/STM32/lib/stm32l5nucleo_s/ravenscar-sfp/Debug/libstm32l5xx.a(stm32-device.o)
                0x0000000030006d50                stm32__device__pa10
 .bss.stm32__device__pa11
                0x0000000030006d5c        0xc /home/hedley/ada/STM32/L/L562/hash/Ada_Drivers_Library/arch/ARM/STM32/lib/stm32l5nucleo_s/ravenscar-sfp/Debug/libstm32l5xx.a(stm32-device.o)
                0x0000000030006d5c                stm32__device__pa11
 .bss.stm32__device__pa12
                0x0000000030006d68        0xc /home/hedley/ada/STM32/L/L562/hash/Ada_Drivers_Library/arch/ARM/STM32/lib/stm32l5nucleo_s/ravenscar-sfp/Debug/libstm32l5xx.a(stm32-device.o)
                0x0000000030006d68                stm32__device__pa12
 .bss.stm32__device__pa13
                0x0000000030006d74        0xc /home/hedley/ada/STM32/L/L562/hash/Ada_Drivers_Library/arch/ARM/STM32/lib/stm32l5nucleo_s/ravenscar-sfp/Debug/libstm32l5xx.a(stm32-device.o)
                0x0000000030006d74                stm32__device__pa13
 .bss.stm32__device__pa14
                0x0000000030006d80        0xc /home/hedley/ada/STM32/L/L562/hash/Ada_Drivers_Library/arch/ARM/STM32/lib/stm32l5nucleo_s/ravenscar-sfp/Debug/libstm32l5xx.a(stm32-device.o)
                0x0000000030006d80                stm32__device__pa14
 .bss.stm32__device__pa15
                0x0000000030006d8c        0xc /home/hedley/ada/STM32/L/L562/hash/Ada_Drivers_Library/arch/ARM/STM32/lib/stm32l5nucleo_s/ravenscar-sfp/Debug/libstm32l5xx.a(stm32-device.o)
                0x0000000030006d8c                stm32__device__pa15
 .bss.stm32__device__R39s
                0x0000000030006d98        0x4 /home/hedley/ada/STM32/L/L562/hash/Ada_Drivers_Library/arch/ARM/STM32/lib/stm32l5nucleo_s/ravenscar-sfp/Debug/libstm32l5xx.a(stm32-device.o)
                0x0000000030006d98                stm32__device__R39s
 .bss.stm32__device__gpio_b
                0x0000000030006d9c        0x4 /home/hedley/ada/STM32/L/L562/hash/Ada_Drivers_Library/arch/ARM/STM32/lib/stm32l5nucleo_s/ravenscar-sfp/Debug/libstm32l5xx.a(stm32-device.o)
                0x0000000030006d9c                stm32__device__gpio_b
 .bss.stm32__device__pb0
                0x0000000030006da0        0xc /home/hedley/ada/STM32/L/L562/hash/Ada_Drivers_Library/arch/ARM/STM32/lib/stm32l5nucleo_s/ravenscar-sfp/Debug/libstm32l5xx.a(stm32-device.o)
                0x0000000030006da0                stm32__device(bool *, )
 .bss.stm32__device__pb1
                0x0000000030006dac        0xc /home/hedley/ada/STM32/L/L562/hash/Ada_Drivers_Library/arch/ARM/STM32/lib/stm32l5nucleo_s/ravenscar-sfp/Debug/libstm32l5xx.a(stm32-device.o)
                0x0000000030006dac                stm32__device__pb1
 .bss.stm32__device__pb2
                0x0000000030006db8        0xc /home/hedley/ada/STM32/L/L562/hash/Ada_Drivers_Library/arch/ARM/STM32/lib/stm32l5nucleo_s/ravenscar-sfp/Debug/libstm32l5xx.a(stm32-device.o)
                0x0000000030006db8                stm32__device__pb2
 .bss.stm32__device__pb3
                0x0000000030006dc4        0xc /home/hedley/ada/STM32/L/L562/hash/Ada_Drivers_Library/arch/ARM/STM32/lib/stm32l5nucleo_s/ravenscar-sfp/Debug/libstm32l5xx.a(stm32-device.o)
                0x0000000030006dc4                stm32__device__pb3
 .bss.stm32__device__pb4
                0x0000000030006dd0        0xc /home/hedley/ada/STM32/L/L562/hash/Ada_Drivers_Library/arch/ARM/STM32/lib/stm32l5nucleo_s/ravenscar-sfp/Debug/libstm32l5xx.a(stm32-device.o)
                0x0000000030006dd0                stm32__device__pb4
 .bss.stm32__device__pb5
                0x0000000030006ddc        0xc /home/hedley/ada/STM32/L/L562/hash/Ada_Drivers_Library/arch/ARM/STM32/lib/stm32l5nucleo_s/ravenscar-sfp/Debug/libstm32l5xx.a(stm32-device.o)
                0x0000000030006ddc                stm32__device__pb5
 .bss.stm32__device__pb6
                0x0000000030006de8        0xc /home/hedley/ada/STM32/L/L562/hash/Ada_Drivers_Library/arch/ARM/STM32/lib/stm32l5nucleo_s/ravenscar-sfp/Debug/libstm32l5xx.a(stm32-device.o)
                0x0000000030006de8                stm32__device__pb6
 .bss.stm32__device__pb7
                0x0000000030006df4        0xc /home/hedley/ada/STM32/L/L562/hash/Ada_Drivers_Library/arch/ARM/STM32/lib/stm32l5nucleo_s/ravenscar-sfp/Debug/libstm32l5xx.a(stm32-device.o)
                0x0000000030006df4                stm32__device__pb7
 .bss.stm32__device__pb8
                0x0000000030006e00        0xc /home/hedley/ada/STM32/L/L562/hash/Ada_Drivers_Library/arch/ARM/STM32/lib/stm32l5nucleo_s/ravenscar-sfp/Debug/libstm32l5xx.a(stm32-device.o)
                0x0000000030006e00                stm32__device__pb8
 .bss.stm32__device__pb9
                0x0000000030006e0c        0xc /home/hedley/ada/STM32/L/L562/hash/Ada_Drivers_Library/arch/ARM/STM32/lib/stm32l5nucleo_s/ravenscar-sfp/Debug/libstm32l5xx.a(stm32-device.o)
                0x0000000030006e0c                stm32__device__pb9
 .bss.stm32__device__pb10
                0x0000000030006e18        0xc /home/hedley/ada/STM32/L/L562/hash/Ada_Drivers_Library/arch/ARM/STM32/lib/stm32l5nucleo_s/ravenscar-sfp/Debug/libstm32l5xx.a(stm32-device.o)
                0x0000000030006e18                stm32__device__pb10
 .bss.stm32__device__pb11
                0x0000000030006e24        0xc /home/hedley/ada/STM32/L/L562/hash/Ada_Drivers_Library/arch/ARM/STM32/lib/stm32l5nucleo_s/ravenscar-sfp/Debug/libstm32l5xx.a(stm32-device.o)
                0x0000000030006e24                stm32__device__pb11
 .bss.stm32__device__pb12
                0x0000000030006e30        0xc /home/hedley/ada/STM32/L/L562/hash/Ada_Drivers_Library/arch/ARM/STM32/lib/stm32l5nucleo_s/ravenscar-sfp/Debug/libstm32l5xx.a(stm32-device.o)
                0x0000000030006e30                stm32__device__pb12
 .bss.stm32__device__pb13
                0x0000000030006e3c        0xc /home/hedley/ada/STM32/L/L562/hash/Ada_Drivers_Library/arch/ARM/STM32/lib/stm32l5nucleo_s/ravenscar-sfp/Debug/libstm32l5xx.a(stm32-device.o)
                0x0000000030006e3c                stm32__device__pb13
 .bss.stm32__device__pb14
                0x0000000030006e48        0xc /home/hedley/ada/STM32/L/L562/hash/Ada_Drivers_Library/arch/ARM/STM32/lib/stm32l5nucleo_s/ravenscar-sfp/Debug/libstm32l5xx.a(stm32-device.o)
                0x0000000030006e48                stm32__device__pb14
 .bss.stm32__device__pb15
                0x0000000030006e54        0xc /home/hedley/ada/STM32/L/L562/hash/Ada_Drivers_Library/arch/ARM/STM32/lib/stm32l5nucleo_s/ravenscar-sfp/Debug/libstm32l5xx.a(stm32-device.o)
                0x0000000030006e54                stm32__device__pb15
 .bss.stm32__device__R74s
                0x0000000030006e60        0x4 /home/hedley/ada/STM32/L/L562/hash/Ada_Drivers_Library/arch/ARM/STM32/lib/stm32l5nucleo_s/ravenscar-sfp/Debug/libstm32l5xx.a(stm32-device.o)
                0x0000000030006e60                stm32__device__R74s
 .bss.stm32__device__gpio_c
                0x0000000030006e64        0x4 /home/hedley/ada/STM32/L/L562/hash/Ada_Drivers_Library/arch/ARM/STM32/lib/stm32l5nucleo_s/ravenscar-sfp/Debug/libstm32l5xx.a(stm32-device.o)
                0x0000000030006e64                stm32__device__gpio_c
 .bss.stm32__device__pc0
                0x0000000030006e68        0xc /home/hedley/ada/STM32/L/L562/hash/Ada_Drivers_Library/arch/ARM/STM32/lib/stm32l5nucleo_s/ravenscar-sfp/Debug/libstm32l5xx.a(stm32-device.o)
                0x0000000030006e68                stm32__device(char *, )
 .bss.stm32__device__pc1
                0x0000000030006e74        0xc /home/hedley/ada/STM32/L/L562/hash/Ada_Drivers_Library/arch/ARM/STM32/lib/stm32l5nucleo_s/ravenscar-sfp/Debug/libstm32l5xx.a(stm32-device.o)
                0x0000000030006e74                stm32__device__pc1
 .bss.stm32__device__pc2
                0x0000000030006e80        0xc /home/hedley/ada/STM32/L/L562/hash/Ada_Drivers_Library/arch/ARM/STM32/lib/stm32l5nucleo_s/ravenscar-sfp/Debug/libstm32l5xx.a(stm32-device.o)
                0x0000000030006e80                stm32__device__pc2
 .bss.stm32__device__pc3
                0x0000000030006e8c        0xc /home/hedley/ada/STM32/L/L562/hash/Ada_Drivers_Library/arch/ARM/STM32/lib/stm32l5nucleo_s/ravenscar-sfp/Debug/libstm32l5xx.a(stm32-device.o)
                0x0000000030006e8c                stm32__device__pc3
 .bss.stm32__device__pc4
                0x0000000030006e98        0xc /home/hedley/ada/STM32/L/L562/hash/Ada_Drivers_Library/arch/ARM/STM32/lib/stm32l5nucleo_s/ravenscar-sfp/Debug/libstm32l5xx.a(stm32-device.o)
                0x0000000030006e98                stm32__device__pc4
 .bss.stm32__device__pc5
                0x0000000030006ea4        0xc /home/hedley/ada/STM32/L/L562/hash/Ada_Drivers_Library/arch/ARM/STM32/lib/stm32l5nucleo_s/ravenscar-sfp/Debug/libstm32l5xx.a(stm32-device.o)
                0x0000000030006ea4                stm32__device__pc5
 .bss.stm32__device__pc6
                0x0000000030006eb0        0xc /home/hedley/ada/STM32/L/L562/hash/Ada_Drivers_Library/arch/ARM/STM32/lib/stm32l5nucleo_s/ravenscar-sfp/Debug/libstm32l5xx.a(stm32-device.o)
                0x0000000030006eb0                stm32__device__pc6
 .bss.stm32__device__pc7
                0x0000000030006ebc        0xc /home/hedley/ada/STM32/L/L562/hash/Ada_Drivers_Library/arch/ARM/STM32/lib/stm32l5nucleo_s/ravenscar-sfp/Debug/libstm32l5xx.a(stm32-device.o)
                0x0000000030006ebc                stm32__device__pc7
 .bss.stm32__device__pc8
                0x0000000030006ec8        0xc /home/hedley/ada/STM32/L/L562/hash/Ada_Drivers_Library/arch/ARM/STM32/lib/stm32l5nucleo_s/ravenscar-sfp/Debug/libstm32l5xx.a(stm32-device.o)
                0x0000000030006ec8                stm32__device__pc8
 .bss.stm32__device__pc9
                0x0000000030006ed4        0xc /home/hedley/ada/STM32/L/L562/hash/Ada_Drivers_Library/arch/ARM/STM32/lib/stm32l5nucleo_s/ravenscar-sfp/Debug/libstm32l5xx.a(stm32-device.o)
                0x0000000030006ed4                stm32__device__pc9
 .bss.stm32__device__pc10
                0x0000000030006ee0        0xc /home/hedley/ada/STM32/L/L562/hash/Ada_Drivers_Library/arch/ARM/STM32/lib/stm32l5nucleo_s/ravenscar-sfp/Debug/libstm32l5xx.a(stm32-device.o)
                0x0000000030006ee0                stm32__device__pc10
 .bss.stm32__device__pc11
                0x0000000030006eec        0xc /home/hedley/ada/STM32/L/L562/hash/Ada_Drivers_Library/arch/ARM/STM32/lib/stm32l5nucleo_s/ravenscar-sfp/Debug/libstm32l5xx.a(stm32-device.o)
                0x0000000030006eec                stm32__device__pc11
 .bss.stm32__device__pc12
                0x0000000030006ef8        0xc /home/hedley/ada/STM32/L/L562/hash/Ada_Drivers_Library/arch/ARM/STM32/lib/stm32l5nucleo_s/ravenscar-sfp/Debug/libstm32l5xx.a(stm32-device.o)
                0x0000000030006ef8                stm32__device__pc12
 .bss.stm32__device__pc13
                0x0000000030006f04        0xc /home/hedley/ada/STM32/L/L562/hash/Ada_Drivers_Library/arch/ARM/STM32/lib/stm32l5nucleo_s/ravenscar-sfp/Debug/libstm32l5xx.a(stm32-device.o)
                0x0000000030006f04                stm32__device__pc13
 .bss.stm32__device__pc14
                0x0000000030006f10        0xc /home/hedley/ada/STM32/L/L562/hash/Ada_Drivers_Library/arch/ARM/STM32/lib/stm32l5nucleo_s/ravenscar-sfp/Debug/libstm32l5xx.a(stm32-device.o)
                0x0000000030006f10                stm32__device__pc14
 .bss.stm32__device__pc15
                0x0000000030006f1c        0xc /home/hedley/ada/STM32/L/L562/hash/Ada_Drivers_Library/arch/ARM/STM32/lib/stm32l5nucleo_s/ravenscar-sfp/Debug/libstm32l5xx.a(stm32-device.o)
                0x0000000030006f1c                stm32__device__pc15
 .bss.stm32__device__R109s
                0x0000000030006f28        0x4 /home/hedley/ada/STM32/L/L562/hash/Ada_Drivers_Library/arch/ARM/STM32/lib/stm32l5nucleo_s/ravenscar-sfp/Debug/libstm32l5xx.a(stm32-device.o)
                0x0000000030006f28                stm32__device__R109s
 .bss.stm32__device__gpio_d
                0x0000000030006f2c        0x4 /home/hedley/ada/STM32/L/L562/hash/Ada_Drivers_Library/arch/ARM/STM32/lib/stm32l5nucleo_s/ravenscar-sfp/Debug/libstm32l5xx.a(stm32-device.o)
                0x0000000030006f2c                stm32__device__gpio_d
 .bss.stm32__device__pd0
                0x0000000030006f30        0xc /home/hedley/ada/STM32/L/L562/hash/Ada_Drivers_Library/arch/ARM/STM32/lib/stm32l5nucleo_s/ravenscar-sfp/Debug/libstm32l5xx.a(stm32-device.o)
                0x0000000030006f30                stm32__device(double *, )
 .bss.stm32__device__pd1
                0x0000000030006f3c        0xc /home/hedley/ada/STM32/L/L562/hash/Ada_Drivers_Library/arch/ARM/STM32/lib/stm32l5nucleo_s/ravenscar-sfp/Debug/libstm32l5xx.a(stm32-device.o)
                0x0000000030006f3c                stm32__device__pd1
 .bss.stm32__device__pd2
                0x0000000030006f48        0xc /home/hedley/ada/STM32/L/L562/hash/Ada_Drivers_Library/arch/ARM/STM32/lib/stm32l5nucleo_s/ravenscar-sfp/Debug/libstm32l5xx.a(stm32-device.o)
                0x0000000030006f48                stm32__device__pd2
 .bss.stm32__device__pd3
                0x0000000030006f54        0xc /home/hedley/ada/STM32/L/L562/hash/Ada_Drivers_Library/arch/ARM/STM32/lib/stm32l5nucleo_s/ravenscar-sfp/Debug/libstm32l5xx.a(stm32-device.o)
                0x0000000030006f54                stm32__device__pd3
 .bss.stm32__device__pd4
                0x0000000030006f60        0xc /home/hedley/ada/STM32/L/L562/hash/Ada_Drivers_Library/arch/ARM/STM32/lib/stm32l5nucleo_s/ravenscar-sfp/Debug/libstm32l5xx.a(stm32-device.o)
                0x0000000030006f60                stm32__device__pd4
 .bss.stm32__device__pd5
                0x0000000030006f6c        0xc /home/hedley/ada/STM32/L/L562/hash/Ada_Drivers_Library/arch/ARM/STM32/lib/stm32l5nucleo_s/ravenscar-sfp/Debug/libstm32l5xx.a(stm32-device.o)
                0x0000000030006f6c                stm32__device__pd5
 .bss.stm32__device__pd6
                0x0000000030006f78        0xc /home/hedley/ada/STM32/L/L562/hash/Ada_Drivers_Library/arch/ARM/STM32/lib/stm32l5nucleo_s/ravenscar-sfp/Debug/libstm32l5xx.a(stm32-device.o)
                0x0000000030006f78                stm32__device__pd6
 .bss.stm32__device__pd7
                0x0000000030006f84        0xc /home/hedley/ada/STM32/L/L562/hash/Ada_Drivers_Library/arch/ARM/STM32/lib/stm32l5nucleo_s/ravenscar-sfp/Debug/libstm32l5xx.a(stm32-device.o)
                0x0000000030006f84                stm32__device__pd7
 .bss.stm32__device__pd8
                0x0000000030006f90        0xc /home/hedley/ada/STM32/L/L562/hash/Ada_Drivers_Library/arch/ARM/STM32/lib/stm32l5nucleo_s/ravenscar-sfp/Debug/libstm32l5xx.a(stm32-device.o)
                0x0000000030006f90                stm32__device__pd8
 .bss.stm32__device__pd9
                0x0000000030006f9c        0xc /home/hedley/ada/STM32/L/L562/hash/Ada_Drivers_Library/arch/ARM/STM32/lib/stm32l5nucleo_s/ravenscar-sfp/Debug/libstm32l5xx.a(stm32-device.o)
                0x0000000030006f9c                stm32__device__pd9
 .bss.stm32__device__pd10
                0x0000000030006fa8        0xc /home/hedley/ada/STM32/L/L562/hash/Ada_Drivers_Library/arch/ARM/STM32/lib/stm32l5nucleo_s/ravenscar-sfp/Debug/libstm32l5xx.a(stm32-device.o)
                0x0000000030006fa8                stm32__device__pd10
 .bss.stm32__device__pd11
                0x0000000030006fb4        0xc /home/hedley/ada/STM32/L/L562/hash/Ada_Drivers_Library/arch/ARM/STM32/lib/stm32l5nucleo_s/ravenscar-sfp/Debug/libstm32l5xx.a(stm32-device.o)
                0x0000000030006fb4                stm32__device__pd11
 .bss.stm32__device__pd12
                0x0000000030006fc0        0xc /home/hedley/ada/STM32/L/L562/hash/Ada_Drivers_Library/arch/ARM/STM32/lib/stm32l5nucleo_s/ravenscar-sfp/Debug/libstm32l5xx.a(stm32-device.o)
                0x0000000030006fc0                stm32__device__pd12
 .bss.stm32__device__pd13
                0x0000000030006fcc        0xc /home/hedley/ada/STM32/L/L562/hash/Ada_Drivers_Library/arch/ARM/STM32/lib/stm32l5nucleo_s/ravenscar-sfp/Debug/libstm32l5xx.a(stm32-device.o)
                0x0000000030006fcc                stm32__device__pd13
 .bss.stm32__device__pd14
                0x0000000030006fd8        0xc /home/hedley/ada/STM32/L/L562/hash/Ada_Drivers_Library/arch/ARM/STM32/lib/stm32l5nucleo_s/ravenscar-sfp/Debug/libstm32l5xx.a(stm32-device.o)
                0x0000000030006fd8                stm32__device__pd14
 .bss.stm32__device__pd15
                0x0000000030006fe4        0xc /home/hedley/ada/STM32/L/L562/hash/Ada_Drivers_Library/arch/ARM/STM32/lib/stm32l5nucleo_s/ravenscar-sfp/Debug/libstm32l5xx.a(stm32-device.o)
                0x0000000030006fe4                stm32__device__pd15
 .bss.stm32__device__R144s
                0x0000000030006ff0        0x4 /home/hedley/ada/STM32/L/L562/hash/Ada_Drivers_Library/arch/ARM/STM32/lib/stm32l5nucleo_s/ravenscar-sfp/Debug/libstm32l5xx.a(stm32-device.o)
                0x0000000030006ff0                stm32__device__R144s
 .bss.stm32__device__gpio_e
                0x0000000030006ff4        0x4 /home/hedley/ada/STM32/L/L562/hash/Ada_Drivers_Library/arch/ARM/STM32/lib/stm32l5nucleo_s/ravenscar-sfp/Debug/libstm32l5xx.a(stm32-device.o)
                0x0000000030006ff4                stm32__device__gpio_e
 .bss.stm32__device__pe0
                0x0000000030006ff8        0xc /home/hedley/ada/STM32/L/L562/hash/Ada_Drivers_Library/arch/ARM/STM32/lib/stm32l5nucleo_s/ravenscar-sfp/Debug/libstm32l5xx.a(stm32-device.o)
                0x0000000030006ff8                stm32__device__pe0
 .bss.stm32__device__pe1
                0x0000000030007004        0xc /home/hedley/ada/STM32/L/L562/hash/Ada_Drivers_Library/arch/ARM/STM32/lib/stm32l5nucleo_s/ravenscar-sfp/Debug/libstm32l5xx.a(stm32-device.o)
                0x0000000030007004                stm32__device__pe1
 .bss.stm32__device__pe2
                0x0000000030007010        0xc /home/hedley/ada/STM32/L/L562/hash/Ada_Drivers_Library/arch/ARM/STM32/lib/stm32l5nucleo_s/ravenscar-sfp/Debug/libstm32l5xx.a(stm32-device.o)
                0x0000000030007010                stm32__device__pe2
 .bss.stm32__device__pe3
                0x000000003000701c        0xc /home/hedley/ada/STM32/L/L562/hash/Ada_Drivers_Library/arch/ARM/STM32/lib/stm32l5nucleo_s/ravenscar-sfp/Debug/libstm32l5xx.a(stm32-device.o)
                0x000000003000701c                stm32__device__pe3
 .bss.stm32__device__pe4
                0x0000000030007028        0xc /home/hedley/ada/STM32/L/L562/hash/Ada_Drivers_Library/arch/ARM/STM32/lib/stm32l5nucleo_s/ravenscar-sfp/Debug/libstm32l5xx.a(stm32-device.o)
                0x0000000030007028                stm32__device__pe4
 .bss.stm32__device__pe5
                0x0000000030007034        0xc /home/hedley/ada/STM32/L/L562/hash/Ada_Drivers_Library/arch/ARM/STM32/lib/stm32l5nucleo_s/ravenscar-sfp/Debug/libstm32l5xx.a(stm32-device.o)
                0x0000000030007034                stm32__device__pe5
 .bss.stm32__device__pe6
                0x0000000030007040        0xc /home/hedley/ada/STM32/L/L562/hash/Ada_Drivers_Library/arch/ARM/STM32/lib/stm32l5nucleo_s/ravenscar-sfp/Debug/libstm32l5xx.a(stm32-device.o)
                0x0000000030007040                stm32__device__pe6
 .bss.stm32__device__pe7
                0x000000003000704c        0xc /home/hedley/ada/STM32/L/L562/hash/Ada_Drivers_Library/arch/ARM/STM32/lib/stm32l5nucleo_s/ravenscar-sfp/Debug/libstm32l5xx.a(stm32-device.o)
                0x000000003000704c                stm32__device__pe7
 .bss.stm32__device__pe8
                0x0000000030007058        0xc /home/hedley/ada/STM32/L/L562/hash/Ada_Drivers_Library/arch/ARM/STM32/lib/stm32l5nucleo_s/ravenscar-sfp/Debug/libstm32l5xx.a(stm32-device.o)
                0x0000000030007058                stm32__device__pe8
 .bss.stm32__device__pe9
                0x0000000030007064        0xc /home/hedley/ada/STM32/L/L562/hash/Ada_Drivers_Library/arch/ARM/STM32/lib/stm32l5nucleo_s/ravenscar-sfp/Debug/libstm32l5xx.a(stm32-device.o)
                0x0000000030007064                stm32__device__pe9
 .bss.stm32__device__pe10
                0x0000000030007070        0xc /home/hedley/ada/STM32/L/L562/hash/Ada_Drivers_Library/arch/ARM/STM32/lib/stm32l5nucleo_s/ravenscar-sfp/Debug/libstm32l5xx.a(stm32-device.o)
                0x0000000030007070                stm32__device__pe10
 .bss.stm32__device__pe11
                0x000000003000707c        0xc /home/hedley/ada/STM32/L/L562/hash/Ada_Drivers_Library/arch/ARM/STM32/lib/stm32l5nucleo_s/ravenscar-sfp/Debug/libstm32l5xx.a(stm32-device.o)
                0x000000003000707c                stm32__device__pe11
 .bss.stm32__device__pe12
                0x0000000030007088        0xc /home/hedley/ada/STM32/L/L562/hash/Ada_Drivers_Library/arch/ARM/STM32/lib/stm32l5nucleo_s/ravenscar-sfp/Debug/libstm32l5xx.a(stm32-device.o)
                0x0000000030007088                stm32__device__pe12
 .bss.stm32__device__pe13
                0x0000000030007094        0xc /home/hedley/ada/STM32/L/L562/hash/Ada_Drivers_Library/arch/ARM/STM32/lib/stm32l5nucleo_s/ravenscar-sfp/Debug/libstm32l5xx.a(stm32-device.o)
                0x0000000030007094                stm32__device__pe13
 .bss.stm32__device__pe14
                0x00000000300070a0        0xc /home/hedley/ada/STM32/L/L562/hash/Ada_Drivers_Library/arch/ARM/STM32/lib/stm32l5nucleo_s/ravenscar-sfp/Debug/libstm32l5xx.a(stm32-device.o)
                0x00000000300070a0                stm32__device__pe14
 .bss.stm32__device__pe15
                0x00000000300070ac        0xc /home/hedley/ada/STM32/L/L562/hash/Ada_Drivers_Library/arch/ARM/STM32/lib/stm32l5nucleo_s/ravenscar-sfp/Debug/libstm32l5xx.a(stm32-device.o)
                0x00000000300070ac                stm32__device__pe15
 .bss.stm32__device__R179s
                0x00000000300070b8        0x4 /home/hedley/ada/STM32/L/L562/hash/Ada_Drivers_Library/arch/ARM/STM32/lib/stm32l5nucleo_s/ravenscar-sfp/Debug/libstm32l5xx.a(stm32-device.o)
                0x00000000300070b8                stm32__device__R179s
 .bss.stm32__device__gpio_f
                0x00000000300070bc        0x4 /home/hedley/ada/STM32/L/L562/hash/Ada_Drivers_Library/arch/ARM/STM32/lib/stm32l5nucleo_s/ravenscar-sfp/Debug/libstm32l5xx.a(stm32-device.o)
                0x00000000300070bc                stm32__device__gpio_f
 .bss.stm32__device__pf0
                0x00000000300070c0        0xc /home/hedley/ada/STM32/L/L562/hash/Ada_Drivers_Library/arch/ARM/STM32/lib/stm32l5nucleo_s/ravenscar-sfp/Debug/libstm32l5xx.a(stm32-device.o)
                0x00000000300070c0                stm32__device(float *, )
 .bss.stm32__device__pf1
                0x00000000300070cc        0xc /home/hedley/ada/STM32/L/L562/hash/Ada_Drivers_Library/arch/ARM/STM32/lib/stm32l5nucleo_s/ravenscar-sfp/Debug/libstm32l5xx.a(stm32-device.o)
                0x00000000300070cc                stm32__device__pf1
 .bss.stm32__device__pf2
                0x00000000300070d8        0xc /home/hedley/ada/STM32/L/L562/hash/Ada_Drivers_Library/arch/ARM/STM32/lib/stm32l5nucleo_s/ravenscar-sfp/Debug/libstm32l5xx.a(stm32-device.o)
                0x00000000300070d8                stm32__device__pf2
 .bss.stm32__device__pf3
                0x00000000300070e4        0xc /home/hedley/ada/STM32/L/L562/hash/Ada_Drivers_Library/arch/ARM/STM32/lib/stm32l5nucleo_s/ravenscar-sfp/Debug/libstm32l5xx.a(stm32-device.o)
                0x00000000300070e4                stm32__device__pf3
 .bss.stm32__device__pf4
                0x00000000300070f0        0xc /home/hedley/ada/STM32/L/L562/hash/Ada_Drivers_Library/arch/ARM/STM32/lib/stm32l5nucleo_s/ravenscar-sfp/Debug/libstm32l5xx.a(stm32-device.o)
                0x00000000300070f0                stm32__device__pf4
 .bss.stm32__device__pf5
                0x00000000300070fc        0xc /home/hedley/ada/STM32/L/L562/hash/Ada_Drivers_Library/arch/ARM/STM32/lib/stm32l5nucleo_s/ravenscar-sfp/Debug/libstm32l5xx.a(stm32-device.o)
                0x00000000300070fc                stm32__device__pf5
 .bss.stm32__device__pf6
                0x0000000030007108        0xc /home/hedley/ada/STM32/L/L562/hash/Ada_Drivers_Library/arch/ARM/STM32/lib/stm32l5nucleo_s/ravenscar-sfp/Debug/libstm32l5xx.a(stm32-device.o)
                0x0000000030007108                stm32__device__pf6
 .bss.stm32__device__pf7
                0x0000000030007114        0xc /home/hedley/ada/STM32/L/L562/hash/Ada_Drivers_Library/arch/ARM/STM32/lib/stm32l5nucleo_s/ravenscar-sfp/Debug/libstm32l5xx.a(stm32-device.o)
                0x0000000030007114                stm32__device__pf7
 .bss.stm32__device__pf8
                0x0000000030007120        0xc /home/hedley/ada/STM32/L/L562/hash/Ada_Drivers_Library/arch/ARM/STM32/lib/stm32l5nucleo_s/ravenscar-sfp/Debug/libstm32l5xx.a(stm32-device.o)
                0x0000000030007120                stm32__device__pf8
 .bss.stm32__device__pf9
                0x000000003000712c        0xc /home/hedley/ada/STM32/L/L562/hash/Ada_Drivers_Library/arch/ARM/STM32/lib/stm32l5nucleo_s/ravenscar-sfp/Debug/libstm32l5xx.a(stm32-device.o)
                0x000000003000712c                stm32__device__pf9
 .bss.stm32__device__pf10
                0x0000000030007138        0xc /home/hedley/ada/STM32/L/L562/hash/Ada_Drivers_Library/arch/ARM/STM32/lib/stm32l5nucleo_s/ravenscar-sfp/Debug/libstm32l5xx.a(stm32-device.o)
                0x0000000030007138                stm32__device__pf10
 .bss.stm32__device__pf11
                0x0000000030007144        0xc /home/hedley/ada/STM32/L/L562/hash/Ada_Drivers_Library/arch/ARM/STM32/lib/stm32l5nucleo_s/ravenscar-sfp/Debug/libstm32l5xx.a(stm32-device.o)
                0x0000000030007144                stm32__device__pf11
 .bss.stm32__device__pf12
                0x0000000030007150        0xc /home/hedley/ada/STM32/L/L562/hash/Ada_Drivers_Library/arch/ARM/STM32/lib/stm32l5nucleo_s/ravenscar-sfp/Debug/libstm32l5xx.a(stm32-device.o)
                0x0000000030007150                stm32__device__pf12
 .bss.stm32__device__pf13
                0x000000003000715c        0xc /home/hedley/ada/STM32/L/L562/hash/Ada_Drivers_Library/arch/ARM/STM32/lib/stm32l5nucleo_s/ravenscar-sfp/Debug/libstm32l5xx.a(stm32-device.o)
                0x000000003000715c                stm32__device__pf13
 .bss.stm32__device__pf14
                0x0000000030007168        0xc /home/hedley/ada/STM32/L/L562/hash/Ada_Drivers_Library/arch/ARM/STM32/lib/stm32l5nucleo_s/ravenscar-sfp/Debug/libstm32l5xx.a(stm32-device.o)
                0x0000000030007168                stm32__device__pf14
 .bss.stm32__device__pf15
                0x0000000030007174        0xc /home/hedley/ada/STM32/L/L562/hash/Ada_Drivers_Library/arch/ARM/STM32/lib/stm32l5nucleo_s/ravenscar-sfp/Debug/libstm32l5xx.a(stm32-device.o)
                0x0000000030007174                stm32__device__pf15
 .bss.stm32__device__R214s
                0x0000000030007180        0x4 /home/hedley/ada/STM32/L/L562/hash/Ada_Drivers_Library/arch/ARM/STM32/lib/stm32l5nucleo_s/ravenscar-sfp/Debug/libstm32l5xx.a(stm32-device.o)
                0x0000000030007180                stm32__device__R214s
 .bss.stm32__device__gpio_g
                0x0000000030007184        0x4 /home/hedley/ada/STM32/L/L562/hash/Ada_Drivers_Library/arch/ARM/STM32/lib/stm32l5nucleo_s/ravenscar-sfp/Debug/libstm32l5xx.a(stm32-device.o)
                0x0000000030007184                stm32__device__gpio_g
 .bss.stm32__device__pg0
                0x0000000030007188        0xc /home/hedley/ada/STM32/L/L562/hash/Ada_Drivers_Library/arch/ARM/STM32/lib/stm32l5nucleo_s/ravenscar-sfp/Debug/libstm32l5xx.a(stm32-device.o)
                0x0000000030007188                stm32__device__pg0
 .bss.stm32__device__pg1
                0x0000000030007194        0xc /home/hedley/ada/STM32/L/L562/hash/Ada_Drivers_Library/arch/ARM/STM32/lib/stm32l5nucleo_s/ravenscar-sfp/Debug/libstm32l5xx.a(stm32-device.o)
                0x0000000030007194                stm32__device__pg1
 .bss.stm32__device__pg2
                0x00000000300071a0        0xc /home/hedley/ada/STM32/L/L562/hash/Ada_Drivers_Library/arch/ARM/STM32/lib/stm32l5nucleo_s/ravenscar-sfp/Debug/libstm32l5xx.a(stm32-device.o)
                0x00000000300071a0                stm32__device__pg2
 .bss.stm32__device__pg3
                0x00000000300071ac        0xc /home/hedley/ada/STM32/L/L562/hash/Ada_Drivers_Library/arch/ARM/STM32/lib/stm32l5nucleo_s/ravenscar-sfp/Debug/libstm32l5xx.a(stm32-device.o)
                0x00000000300071ac                stm32__device__pg3
 .bss.stm32__device__pg4
                0x00000000300071b8        0xc /home/hedley/ada/STM32/L/L562/hash/Ada_Drivers_Library/arch/ARM/STM32/lib/stm32l5nucleo_s/ravenscar-sfp/Debug/libstm32l5xx.a(stm32-device.o)
                0x00000000300071b8                stm32__device__pg4
 .bss.stm32__device__pg5
                0x00000000300071c4        0xc /home/hedley/ada/STM32/L/L562/hash/Ada_Drivers_Library/arch/ARM/STM32/lib/stm32l5nucleo_s/ravenscar-sfp/Debug/libstm32l5xx.a(stm32-device.o)
                0x00000000300071c4                stm32__device__pg5
 .bss.stm32__device__pg6
                0x00000000300071d0        0xc /home/hedley/ada/STM32/L/L562/hash/Ada_Drivers_Library/arch/ARM/STM32/lib/stm32l5nucleo_s/ravenscar-sfp/Debug/libstm32l5xx.a(stm32-device.o)
                0x00000000300071d0                stm32__device__pg6
 .bss.stm32__device__pg7
                0x00000000300071dc        0xc /home/hedley/ada/STM32/L/L562/hash/Ada_Drivers_Library/arch/ARM/STM32/lib/stm32l5nucleo_s/ravenscar-sfp/Debug/libstm32l5xx.a(stm32-device.o)
                0x00000000300071dc                stm32__device__pg7
 .bss.stm32__device__pg8
                0x00000000300071e8        0xc /home/hedley/ada/STM32/L/L562/hash/Ada_Drivers_Library/arch/ARM/STM32/lib/stm32l5nucleo_s/ravenscar-sfp/Debug/libstm32l5xx.a(stm32-device.o)
                0x00000000300071e8                stm32__device__pg8
 .bss.stm32__device__pg9
                0x00000000300071f4        0xc /home/hedley/ada/STM32/L/L562/hash/Ada_Drivers_Library/arch/ARM/STM32/lib/stm32l5nucleo_s/ravenscar-sfp/Debug/libstm32l5xx.a(stm32-device.o)
                0x00000000300071f4                stm32__device__pg9
 .bss.stm32__device__pg10
                0x0000000030007200        0xc /home/hedley/ada/STM32/L/L562/hash/Ada_Drivers_Library/arch/ARM/STM32/lib/stm32l5nucleo_s/ravenscar-sfp/Debug/libstm32l5xx.a(stm32-device.o)
                0x0000000030007200                stm32__device__pg10
 .bss.stm32__device__pg11
                0x000000003000720c        0xc /home/hedley/ada/STM32/L/L562/hash/Ada_Drivers_Library/arch/ARM/STM32/lib/stm32l5nucleo_s/ravenscar-sfp/Debug/libstm32l5xx.a(stm32-device.o)
                0x000000003000720c                stm32__device__pg11
 .bss.stm32__device__pg12
                0x0000000030007218        0xc /home/hedley/ada/STM32/L/L562/hash/Ada_Drivers_Library/arch/ARM/STM32/lib/stm32l5nucleo_s/ravenscar-sfp/Debug/libstm32l5xx.a(stm32-device.o)
                0x0000000030007218                stm32__device__pg12
 .bss.stm32__device__pg13
                0x0000000030007224        0xc /home/hedley/ada/STM32/L/L562/hash/Ada_Drivers_Library/arch/ARM/STM32/lib/stm32l5nucleo_s/ravenscar-sfp/Debug/libstm32l5xx.a(stm32-device.o)
                0x0000000030007224                stm32__device__pg13
 .bss.stm32__device__pg14
                0x0000000030007230        0xc /home/hedley/ada/STM32/L/L562/hash/Ada_Drivers_Library/arch/ARM/STM32/lib/stm32l5nucleo_s/ravenscar-sfp/Debug/libstm32l5xx.a(stm32-device.o)
                0x0000000030007230                stm32__device__pg14
 .bss.stm32__device__pg15
                0x000000003000723c        0xc /home/hedley/ada/STM32/L/L562/hash/Ada_Drivers_Library/arch/ARM/STM32/lib/stm32l5nucleo_s/ravenscar-sfp/Debug/libstm32l5xx.a(stm32-device.o)
                0x000000003000723c                stm32__device__pg15
 .bss.stm32__device__R249s
                0x0000000030007248        0x4 /home/hedley/ada/STM32/L/L562/hash/Ada_Drivers_Library/arch/ARM/STM32/lib/stm32l5nucleo_s/ravenscar-sfp/Debug/libstm32l5xx.a(stm32-device.o)
                0x0000000030007248                stm32__device__R249s
 .bss.stm32__device__gpio_h
                0x000000003000724c        0x4 /home/hedley/ada/STM32/L/L562/hash/Ada_Drivers_Library/arch/ARM/STM32/lib/stm32l5nucleo_s/ravenscar-sfp/Debug/libstm32l5xx.a(stm32-device.o)
                0x000000003000724c                stm32__device__gpio_h
 .bss.stm32__device__ph0
                0x0000000030007250        0xc /home/hedley/ada/STM32/L/L562/hash/Ada_Drivers_Library/arch/ARM/STM32/lib/stm32l5nucleo_s/ravenscar-sfp/Debug/libstm32l5xx.a(stm32-device.o)
                0x0000000030007250                stm32__device__ph0
 .bss.stm32__device__ph1
                0x000000003000725c        0xc /home/hedley/ada/STM32/L/L562/hash/Ada_Drivers_Library/arch/ARM/STM32/lib/stm32l5nucleo_s/ravenscar-sfp/Debug/libstm32l5xx.a(stm32-device.o)
                0x000000003000725c                stm32__device__ph1
 .bss.stm32__device__ph2
                0x0000000030007268        0xc /home/hedley/ada/STM32/L/L562/hash/Ada_Drivers_Library/arch/ARM/STM32/lib/stm32l5nucleo_s/ravenscar-sfp/Debug/libstm32l5xx.a(stm32-device.o)
                0x0000000030007268                stm32__device__ph2
 .bss.stm32__device__ph3
                0x0000000030007274        0xc /home/hedley/ada/STM32/L/L562/hash/Ada_Drivers_Library/arch/ARM/STM32/lib/stm32l5nucleo_s/ravenscar-sfp/Debug/libstm32l5xx.a(stm32-device.o)
                0x0000000030007274                stm32__device__ph3
 .bss.stm32__device__ph4
                0x0000000030007280        0xc /home/hedley/ada/STM32/L/L562/hash/Ada_Drivers_Library/arch/ARM/STM32/lib/stm32l5nucleo_s/ravenscar-sfp/Debug/libstm32l5xx.a(stm32-device.o)
                0x0000000030007280                stm32__device__ph4
 .bss.stm32__device__ph5
                0x000000003000728c        0xc /home/hedley/ada/STM32/L/L562/hash/Ada_Drivers_Library/arch/ARM/STM32/lib/stm32l5nucleo_s/ravenscar-sfp/Debug/libstm32l5xx.a(stm32-device.o)
                0x000000003000728c                stm32__device__ph5
 .bss.stm32__device__ph6
                0x0000000030007298        0xc /home/hedley/ada/STM32/L/L562/hash/Ada_Drivers_Library/arch/ARM/STM32/lib/stm32l5nucleo_s/ravenscar-sfp/Debug/libstm32l5xx.a(stm32-device.o)
                0x0000000030007298                stm32__device__ph6
 .bss.stm32__device__ph7
                0x00000000300072a4        0xc /home/hedley/ada/STM32/L/L562/hash/Ada_Drivers_Library/arch/ARM/STM32/lib/stm32l5nucleo_s/ravenscar-sfp/Debug/libstm32l5xx.a(stm32-device.o)
                0x00000000300072a4                stm32__device__ph7
 .bss.stm32__device__ph8
                0x00000000300072b0        0xc /home/hedley/ada/STM32/L/L562/hash/Ada_Drivers_Library/arch/ARM/STM32/lib/stm32l5nucleo_s/ravenscar-sfp/Debug/libstm32l5xx.a(stm32-device.o)
                0x00000000300072b0                stm32__device__ph8
 .bss.stm32__device__ph9
                0x00000000300072bc        0xc /home/hedley/ada/STM32/L/L562/hash/Ada_Drivers_Library/arch/ARM/STM32/lib/stm32l5nucleo_s/ravenscar-sfp/Debug/libstm32l5xx.a(stm32-device.o)
                0x00000000300072bc                stm32__device__ph9
 .bss.stm32__device__ph10
                0x00000000300072c8        0xc /home/hedley/ada/STM32/L/L562/hash/Ada_Drivers_Library/arch/ARM/STM32/lib/stm32l5nucleo_s/ravenscar-sfp/Debug/libstm32l5xx.a(stm32-device.o)
                0x00000000300072c8                stm32__device__ph10
 .bss.stm32__device__ph11
                0x00000000300072d4        0xc /home/hedley/ada/STM32/L/L562/hash/Ada_Drivers_Library/arch/ARM/STM32/lib/stm32l5nucleo_s/ravenscar-sfp/Debug/libstm32l5xx.a(stm32-device.o)
                0x00000000300072d4                stm32__device__ph11
 .bss.stm32__device__ph12
                0x00000000300072e0        0xc /home/hedley/ada/STM32/L/L562/hash/Ada_Drivers_Library/arch/ARM/STM32/lib/stm32l5nucleo_s/ravenscar-sfp/Debug/libstm32l5xx.a(stm32-device.o)
                0x00000000300072e0                stm32__device__ph12
 .bss.stm32__device__ph13
                0x00000000300072ec        0xc /home/hedley/ada/STM32/L/L562/hash/Ada_Drivers_Library/arch/ARM/STM32/lib/stm32l5nucleo_s/ravenscar-sfp/Debug/libstm32l5xx.a(stm32-device.o)
                0x00000000300072ec                stm32__device__ph13
 .bss.stm32__device__ph14
                0x00000000300072f8        0xc /home/hedley/ada/STM32/L/L562/hash/Ada_Drivers_Library/arch/ARM/STM32/lib/stm32l5nucleo_s/ravenscar-sfp/Debug/libstm32l5xx.a(stm32-device.o)
                0x00000000300072f8                stm32__device__ph14
 .bss.stm32__device__ph15
                0x0000000030007304        0xc /home/hedley/ada/STM32/L/L562/hash/Ada_Drivers_Library/arch/ARM/STM32/lib/stm32l5nucleo_s/ravenscar-sfp/Debug/libstm32l5xx.a(stm32-device.o)
                0x0000000030007304                stm32__device__ph15
 .bss.stm32__device__R284s
                0x0000000030007310        0x4 /home/hedley/ada/STM32/L/L562/hash/Ada_Drivers_Library/arch/ARM/STM32/lib/stm32l5nucleo_s/ravenscar-sfp/Debug/libstm32l5xx.a(stm32-device.o)
                0x0000000030007310                stm32__device__R284s
 .bss.stm32__device__internal_spi_1
                0x0000000030007314        0x4 /home/hedley/ada/STM32/L/L562/hash/Ada_Drivers_Library/arch/ARM/STM32/lib/stm32l5nucleo_s/ravenscar-sfp/Debug/libstm32l5xx.a(stm32-device.o)
                0x0000000030007314                stm32__device__internal_spi_1
 .bss.stm32__device__spi_1
                0x0000000030007318        0x8 /home/hedley/ada/STM32/L/L562/hash/Ada_Drivers_Library/arch/ARM/STM32/lib/stm32l5nucleo_s/ravenscar-sfp/Debug/libstm32l5xx.a(stm32-device.o)
                0x0000000030007318                stm32__device__spi_1
 .bss.stm32__device__R288s
                0x0000000030007320        0x4 /home/hedley/ada/STM32/L/L562/hash/Ada_Drivers_Library/arch/ARM/STM32/lib/stm32l5nucleo_s/ravenscar-sfp/Debug/libstm32l5xx.a(stm32-device.o)
                0x0000000030007320                stm32__device__R288s
 .bss.stm32__device__internal_spi_2
                0x0000000030007324        0x4 /home/hedley/ada/STM32/L/L562/hash/Ada_Drivers_Library/arch/ARM/STM32/lib/stm32l5nucleo_s/ravenscar-sfp/Debug/libstm32l5xx.a(stm32-device.o)
                0x0000000030007324                stm32__device__internal_spi_2
 .bss.stm32__device__spi_2
                0x0000000030007328        0x8 /home/hedley/ada/STM32/L/L562/hash/Ada_Drivers_Library/arch/ARM/STM32/lib/stm32l5nucleo_s/ravenscar-sfp/Debug/libstm32l5xx.a(stm32-device.o)
                0x0000000030007328                stm32__device__spi_2
 .bss.stm32__device__R292s
                0x0000000030007330        0x4 /home/hedley/ada/STM32/L/L562/hash/Ada_Drivers_Library/arch/ARM/STM32/lib/stm32l5nucleo_s/ravenscar-sfp/Debug/libstm32l5xx.a(stm32-device.o)
                0x0000000030007330                stm32__device__R292s
 .bss.stm32__device__internal_spi_3
                0x0000000030007334        0x4 /home/hedley/ada/STM32/L/L562/hash/Ada_Drivers_Library/arch/ARM/STM32/lib/stm32l5nucleo_s/ravenscar-sfp/Debug/libstm32l5xx.a(stm32-device.o)
                0x0000000030007334                stm32__device__internal_spi_3
 .bss.stm32__device__spi_3
                0x0000000030007338        0x8 /home/hedley/ada/STM32/L/L562/hash/Ada_Drivers_Library/arch/ARM/STM32/lib/stm32l5nucleo_s/ravenscar-sfp/Debug/libstm32l5xx.a(stm32-device.o)
                0x0000000030007338                stm32__device__spi_3
 .bss.stm32__device__R4b
                0x0000000030007340        0x4 /home/hedley/ada/STM32/L/L562/hash/Ada_Drivers_Library/arch/ARM/STM32/lib/stm32l5nucleo_s/ravenscar-sfp/Debug/libstm32l5xx.a(stm32-device.o)
                0x0000000030007340                stm32__device__R4b
 .bss.stm32__device__rcc
                0x0000000030007344        0x4 /home/hedley/ada/STM32/L/L562/hash/Ada_Drivers_Library/arch/ARM/STM32/lib/stm32l5nucleo_s/ravenscar-sfp/Debug/libstm32l5xx.a(stm32-device.o)
                0x0000000030007344                stm32__device(long double, char, char)
 .bss.stm32__hash__R1s
                0x0000000030007348        0x4 /home/hedley/ada/STM32/L/L562/hash/Ada_Drivers_Library/arch/ARM/STM32/lib/stm32l5nucleo_s/ravenscar-sfp/Debug/libstm32l5xx.a(stm32-hash.o)
                0x0000000030007348                stm32__hash(s &)
 .bss.stm32__hash__hash
                0x000000003000734c        0x4 /home/hedley/ada/STM32/L/L562/hash/Ada_Drivers_Library/arch/ARM/STM32/lib/stm32l5nucleo_s/ravenscar-sfp/Debug/libstm32l5xx.a(stm32-hash.o)
                0x000000003000734c                stm32__hash__hash
 .bss.__gnat_alarm_time
                0x0000000030007350        0x4 /home/hedley/ada/STM32/L/L562/hash/Ada_Drivers_Library/embedded-runtimes/ravenscar-stm32l5nucleo_s/sfp/adalib/libgnarl.a(s-bbbosu.o)
                0x0000000030007350                __gnat_alarm_time
 .bss.system__bb__board_support__next_tick_time
                0x0000000030007354        0x4 /home/hedley/ada/STM32/L/L562/hash/Ada_Drivers_Library/embedded-runtimes/ravenscar-stm32l5nucleo_s/sfp/adalib/libgnarl.a(s-bbbosu.o)
                0x0000000030007354                system__bb__board_support__next_tick_time
 .bss.__gnat_bb_exception_handlers
                0x0000000030007358       0x44 /home/hedley/ada/STM32/L/L562/hash/Ada_Drivers_Library/embedded-runtimes/ravenscar-stm32l5nucleo_s/sfp/adalib/libgnarl.a(s-bbcppr.o)
                0x0000000030007358                __gnat_bb_exception_handlers
 .bss.interrupt_stack_table
                0x000000003000739c        0x4 /home/hedley/ada/STM32/L/L562/hash/Ada_Drivers_Library/embedded-runtimes/ravenscar-stm32l5nucleo_s/sfp/adalib/libgnarl.a(s-bbinte.o)
                0x000000003000739c                interrupt_stack_table
 .bss.system__bb__interrupts__interrupt_handlers_table
                0x00000000300073a0      0x1b4 /home/hedley/ada/STM32/L/L562/hash/Ada_Drivers_Library/embedded-runtimes/ravenscar-stm32l5nucleo_s/sfp/adalib/libgnarl.a(s-bbinte.o)
                0x00000000300073a0                system__bb__interrupts__interrupt_handlers_table
 *fill*         0x0000000030007554        0x4 
 .bss.system__tasking__environment_task
                0x0000000030007558       0xb8 /home/hedley/ada/STM32/L/L562/hash/Ada_Drivers_Library/embedded-runtimes/ravenscar-stm32l5nucleo_s/sfp/adalib/libgnarl.a(s-taskin.o)
 .bss.system__tasking__protected_objects__multiprocessors__served_entry_call
                0x0000000030007610        0x8 /home/hedley/ada/STM32/L/L562/hash/Ada_Drivers_Library/embedded-runtimes/ravenscar-stm32l5nucleo_s/sfp/adalib/libgnarl.a(s-tpobmu.o)
 .bss.__gnat_idle_stack_table
                0x0000000030007618        0x4 /home/hedley/ada/STM32/L/L562/hash/Ada_Drivers_Library/embedded-runtimes/ravenscar-stm32l5nucleo_s/sfp/adalib/libgnarl.a(s-taprop.o)
                0x0000000030007618                __gnat_idle_stack_table
 *fill*         0x000000003000761c        0x4 
 .bss.system__task_primitives__operations__idle_stacks
                0x0000000030007620      0x800 /home/hedley/ada/STM32/L/L562/hash/Ada_Drivers_Library/embedded-runtimes/ravenscar-stm32l5nucleo_s/sfp/adalib/libgnarl.a(s-taprop.o)
                0x0000000030007620                system__task_primitives__operations__idle_stacks
 .bss.system__task_primitives__operations__idle_tasks
                0x0000000030007e20       0xb8 /home/hedley/ada/STM32/L/L562/hash/Ada_Drivers_Library/embedded-runtimes/ravenscar-stm32l5nucleo_s/sfp/adalib/libgnarl.a(s-taprop.o)
                0x0000000030007e20                system__task_primitives__operations__idle_tasks
 .bss.__gnat_binder_ss_count
                0x0000000030007ed8        0x4 /home/hedley/ada/STM32/L/L562/hash/Ada_Drivers_Library/embedded-runtimes/ravenscar-stm32l5nucleo_s/sfp/adalib/libgnat.a(s-secsta.o)
                0x0000000030007ed8                __gnat_binder_ss_count
 .bss.__gnat_default_ss_pool
                0x0000000030007edc        0x4 /home/hedley/ada/STM32/L/L562/hash/Ada_Drivers_Library/embedded-runtimes/ravenscar-stm32l5nucleo_s/sfp/adalib/libgnat.a(s-secsta.o)
                0x0000000030007edc                __gnat_default_ss_pool
 .bss.__gnat_default_ss_size
                0x0000000030007ee0        0x4 /home/hedley/ada/STM32/L/L562/hash/Ada_Drivers_Library/embedded-runtimes/ravenscar-stm32l5nucleo_s/sfp/adalib/libgnat.a(s-secsta.o)
                0x0000000030007ee0                __gnat_default_ss_size
 *(COMMON)
                0x0000000030007ee8                . = ALIGN (0x8)
 *fill*         0x0000000030007ee4        0x4 
                0x0000000030007ee8                __bss_end = .
                0x0000000030007ee8                __interrupt_stack_start = .
 *(.interrupt_stacks)
 .interrupt_stacks
                0x0000000030007ee8      0x800 /home/hedley/ada/STM32/L/L562/hash/Ada_Drivers_Library/embedded-runtimes/ravenscar-stm32l5nucleo_s/sfp/adalib/libgnarl.a(s-bbinte.o)
                0x0000000030007ee8                system__bb__interrupts__interrupt_stacks
                0x00000000300086e8                . = ALIGN (0x8)
                0x00000000300086e8                __interrupt_stack_end = .
                0x00000000300086e8                __stack_start = .
                0x00000000300096e8                . = (. + DEFINED (__stack_size)?__stack_size:_DEFAULT_STACK_SIZE)
 *fill*         0x00000000300086e8     0x8000 
                0x00000000300106e8                . = ALIGN (0x8)
                0x00000000300106e8                __stack_end = .
                0x00000000300106e8                _end = .
                0x00000000300106e8                __heap_start = .
                0x0000000030040000                __heap_end = (ORIGIN (sram_bs) + LENGTH (sram_bs))
                0x0000000000000510                __bss_words = ((__bss_end - __bss_start) >> 0x2)

.debug
 *(.debug)

.line
 *(.line)

.debug_srcinfo
 *(.debug_srcinfo)

.debug_sfnames
 *(.debug_sfnames)

.debug_aranges  0x0000000000000000      0xd08
 *(.debug_aranges)
 .debug_aranges
                0x0000000000000000       0x30 test_s.o
 .debug_aranges
                0x0000000000000030       0x30 b__test_s.o
 .debug_aranges
                0x0000000000000060       0x40 /home/hedley/ada/STM32/L/L562/hash/Ada_Drivers_Library/boards/lib/stm32l5discovery_s/ravenscar-sfp/Debug/libstm32l5discovery_s.a(stm32-board.o)
 .debug_aranges
                0x00000000000000a0       0x90 /home/hedley/ada/STM32/L/L562/hash/Ada_Drivers_Library/arch/ARM/STM32/lib/stm32l5nucleo_s/ravenscar-sfp/Debug/libstm32l5xx.a(stm32-device.o)
 .debug_aranges
                0x0000000000000130       0x50 /home/hedley/ada/STM32/L/L562/hash/Ada_Drivers_Library/arch/ARM/STM32/lib/stm32l5nucleo_s/ravenscar-sfp/Debug/libstm32l5xx.a(stm32-exti.o)
 .debug_aranges
                0x0000000000000180       0xe0 /home/hedley/ada/STM32/L/L562/hash/Ada_Drivers_Library/arch/ARM/STM32/lib/stm32l5nucleo_s/ravenscar-sfp/Debug/libstm32l5xx.a(stm32-gpio.o)
 .debug_aranges
                0x0000000000000260       0x50 /home/hedley/ada/STM32/L/L562/hash/Ada_Drivers_Library/arch/ARM/STM32/lib/stm32l5nucleo_s/ravenscar-sfp/Debug/libstm32l5xx.a(stm32-hash.o)
 .debug_aranges
                0x00000000000002b0       0x30 /home/hedley/ada/STM32/L/L562/hash/Ada_Drivers_Library/arch/ARM/STM32/lib/stm32l5nucleo_s/ravenscar-sfp/Debug/libstm32l5xx.a(stm32-mpu.o)
 .debug_aranges
                0x00000000000002e0       0x20 /home/hedley/ada/STM32/L/L562/hash/Ada_Drivers_Library/arch/ARM/STM32/lib/stm32l5nucleo_s/ravenscar-sfp/Debug/libstm32l5xx.a(stm32-rcc.o)
 .debug_aranges
                0x0000000000000300       0x30 /home/hedley/ada/STM32/L/L562/hash/Ada_Drivers_Library/arch/ARM/STM32/lib/stm32l5nucleo_s/ravenscar-sfp/Debug/libstm32l5xx.a(stm32-sau.o)
 .debug_aranges
                0x0000000000000330      0x148 /home/hedley/ada/STM32/L/L562/hash/Ada_Drivers_Library/arch/ARM/STM32/lib/stm32l5nucleo_s/ravenscar-sfp/Debug/libstm32l5xx.a(stm32-spi.o)
 .debug_aranges
                0x0000000000000478       0x40 /home/hedley/ada/STM32/L/L562/hash/Ada_Drivers_Library/arch/ARM/STM32/lib/stm32l5nucleo_s/ravenscar-sfp/Debug/libstm32l5xx.a(stm32-syscfg.o)
 .debug_aranges
                0x00000000000004b8       0x18 /home/hedley/ada/STM32/L/L562/hash/Ada_Drivers_Library/arch/ARM/STM32/lib/stm32l5nucleo_s/ravenscar-sfp/Debug/libstm32l5xx.a(stm32_svd-spi.o)
 .debug_aranges
                0x00000000000004d0       0x18 /home/hedley/ada/Ada_Drivers_Library/hal/lib/stm32l5nucleo_s/ravenscar-sfp/Debug/libHAL.a(hal-gpio.o)
 .debug_aranges
                0x00000000000004e8       0x18 /home/hedley/ada/Ada_Drivers_Library/hal/lib/stm32l5nucleo_s/ravenscar-sfp/Debug/libHAL.a(hal-spi.o)
 .debug_aranges
                0x0000000000000500       0xd8 /home/hedley/ada/STM32/L/L562/hash/Ada_Drivers_Library/embedded-runtimes/ravenscar-stm32l5nucleo_s/sfp/adalib/libgnarl.a(a-reatim.o)
 .debug_aranges
                0x00000000000005d8       0xb0 /home/hedley/ada/STM32/L/L562/hash/Ada_Drivers_Library/embedded-runtimes/ravenscar-stm32l5nucleo_s/sfp/adalib/libgnarl.a(s-bbbosu.o)
 .debug_aranges
                0x0000000000000688       0x88 /home/hedley/ada/STM32/L/L562/hash/Ada_Drivers_Library/embedded-runtimes/ravenscar-stm32l5nucleo_s/sfp/adalib/libgnarl.a(s-bbcppr.o)
 .debug_aranges
                0x0000000000000710       0x40 /home/hedley/ada/STM32/L/L562/hash/Ada_Drivers_Library/embedded-runtimes/ravenscar-stm32l5nucleo_s/sfp/adalib/libgnarl.a(s-bbinte.o)
 .debug_aranges
                0x0000000000000750       0x78 /home/hedley/ada/STM32/L/L562/hash/Ada_Drivers_Library/embedded-runtimes/ravenscar-stm32l5nucleo_s/sfp/adalib/libgnarl.a(s-bbthqu.o)
 .debug_aranges
                0x00000000000007c8       0x58 /home/hedley/ada/STM32/L/L562/hash/Ada_Drivers_Library/embedded-runtimes/ravenscar-stm32l5nucleo_s/sfp/adalib/libgnarl.a(s-bbtime.o)
 .debug_aranges
                0x0000000000000820       0x30 /home/hedley/ada/STM32/L/L562/hash/Ada_Drivers_Library/embedded-runtimes/ravenscar-stm32l5nucleo_s/sfp/adalib/libgnarl.a(s-bcpcst.o)
 .debug_aranges
                0x0000000000000850       0x38 /home/hedley/ada/STM32/L/L562/hash/Ada_Drivers_Library/embedded-runtimes/ravenscar-stm32l5nucleo_s/sfp/adalib/libgnarl.a(s-taprob.o)
 .debug_aranges
                0x0000000000000888       0x78 /home/hedley/ada/STM32/L/L562/hash/Ada_Drivers_Library/embedded-runtimes/ravenscar-stm32l5nucleo_s/sfp/adalib/libgnarl.a(s-tarest.o)
 .debug_aranges
                0x0000000000000900       0x20 /home/hedley/ada/STM32/L/L562/hash/Ada_Drivers_Library/embedded-runtimes/ravenscar-stm32l5nucleo_s/sfp/adalib/libgnarl.a(s-tasdeb.o)
 .debug_aranges
                0x0000000000000920       0x40 /home/hedley/ada/STM32/L/L562/hash/Ada_Drivers_Library/embedded-runtimes/ravenscar-stm32l5nucleo_s/sfp/adalib/libgnarl.a(s-taskin.o)
 .debug_aranges
                0x0000000000000960       0x30 /home/hedley/ada/STM32/L/L562/hash/Ada_Drivers_Library/embedded-runtimes/ravenscar-stm32l5nucleo_s/sfp/adalib/libgnarl.a(s-tpobmu.o)
 .debug_aranges
                0x0000000000000990       0x28 /home/hedley/ada/STM32/L/L562/hash/Ada_Drivers_Library/embedded-runtimes/ravenscar-stm32l5nucleo_s/sfp/adalib/libgnarl.a(s-bbprot.o)
 .debug_aranges
                0x00000000000009b8       0x78 /home/hedley/ada/STM32/L/L562/hash/Ada_Drivers_Library/embedded-runtimes/ravenscar-stm32l5nucleo_s/sfp/adalib/libgnarl.a(s-bbthre.o)
 .debug_aranges
                0x0000000000000a30       0x40 /home/hedley/ada/STM32/L/L562/hash/Ada_Drivers_Library/embedded-runtimes/ravenscar-stm32l5nucleo_s/sfp/adalib/libgnarl.a(s-bbtiev.o)
 .debug_aranges
                0x0000000000000a70       0xa8 /home/hedley/ada/STM32/L/L562/hash/Ada_Drivers_Library/embedded-runtimes/ravenscar-stm32l5nucleo_s/sfp/adalib/libgnarl.a(s-taprop.o)
 .debug_aranges
                0x0000000000000b18       0x20 /home/hedley/ada/STM32/L/L562/hash/Ada_Drivers_Library/embedded-runtimes/ravenscar-stm32l5nucleo_s/sfp/adalib/libgnat.a(a-elchha.o)
 .debug_aranges
                0x0000000000000b38       0x18 /home/hedley/ada/STM32/L/L562/hash/Ada_Drivers_Library/embedded-runtimes/ravenscar-stm32l5nucleo_s/sfp/adalib/libgnat.a(a-except.o)
 .debug_aranges
                0x0000000000000b50       0x40 /home/hedley/ada/STM32/L/L562/hash/Ada_Drivers_Library/embedded-runtimes/ravenscar-stm32l5nucleo_s/sfp/adalib/libgnat.a(g-io.o)
 .debug_aranges
                0x0000000000000b90       0x20 /home/hedley/ada/STM32/L/L562/hash/Ada_Drivers_Library/embedded-runtimes/ravenscar-stm32l5nucleo_s/sfp/adalib/libgnat.a(s-assert.o)
 .debug_aranges
                0x0000000000000bb0       0x28 /home/hedley/ada/STM32/L/L562/hash/Ada_Drivers_Library/embedded-runtimes/ravenscar-stm32l5nucleo_s/sfp/adalib/libgnat.a(s-macres.o)
 .debug_aranges
                0x0000000000000bd8       0x20 /home/hedley/ada/STM32/L/L562/hash/Ada_Drivers_Library/embedded-runtimes/ravenscar-stm32l5nucleo_s/sfp/adalib/libgnat.a(s-memcop.o)
 .debug_aranges
                0x0000000000000bf8       0x20 /home/hedley/ada/STM32/L/L562/hash/Ada_Drivers_Library/embedded-runtimes/ravenscar-stm32l5nucleo_s/sfp/adalib/libgnat.a(s-memset.o)
 .debug_aranges
                0x0000000000000c18       0x20 /home/hedley/ada/STM32/L/L562/hash/Ada_Drivers_Library/embedded-runtimes/ravenscar-stm32l5nucleo_s/sfp/adalib/libgnat.a(s-parame.o)
 .debug_aranges
                0x0000000000000c38       0x40 /home/hedley/ada/STM32/L/L562/hash/Ada_Drivers_Library/embedded-runtimes/ravenscar-stm32l5nucleo_s/sfp/adalib/libgnat.a(s-secsta.o)
 .debug_aranges
                0x0000000000000c78       0x48 /home/hedley/ada/STM32/L/L562/hash/Ada_Drivers_Library/embedded-runtimes/ravenscar-stm32l5nucleo_s/sfp/adalib/libgnat.a(s-textio.o)
 .debug_aranges
                0x0000000000000cc0       0x20 /home/hedley/ada/STM32/L/L562/hash/Ada_Drivers_Library/embedded-runtimes/ravenscar-stm32l5nucleo_s/sfp/adalib/libgnat.a(setup_pll.o)
 .debug_aranges
                0x0000000000000ce0       0x28 /home/hedley/ada/STM32/L/L562/hash/Ada_Drivers_Library/embedded-runtimes/ravenscar-stm32l5nucleo_s/sfp/adalib/libgnat.a(s-bbmcpa.o)

.debug_pubnames
 *(.debug_pubnames)

.debug_info     0x0000000000000000    0x1bfbe
 *(.debug_info .gnu.linkonce.wi.*)
 .debug_info    0x0000000000000000      0x2ba test_s.o
 .debug_info    0x00000000000002ba      0x4ca b__test_s.o
 .debug_info    0x0000000000000784      0xc2a /home/hedley/ada/STM32/L/L562/hash/Ada_Drivers_Library/boards/lib/stm32l5discovery_s/ravenscar-sfp/Debug/libstm32l5discovery_s.a(stm32-board.o)
 .debug_info    0x00000000000013ae     0x5a8a /home/hedley/ada/STM32/L/L562/hash/Ada_Drivers_Library/arch/ARM/STM32/lib/stm32l5nucleo_s/ravenscar-sfp/Debug/libstm32l5xx.a(stm32-device.o)
 .debug_info    0x0000000000006e38      0x339 /home/hedley/ada/STM32/L/L562/hash/Ada_Drivers_Library/arch/ARM/STM32/lib/stm32l5nucleo_s/ravenscar-sfp/Debug/libstm32l5xx.a(stm32-exti.o)
 .debug_info    0x0000000000007171     0x14ee /home/hedley/ada/STM32/L/L562/hash/Ada_Drivers_Library/arch/ARM/STM32/lib/stm32l5nucleo_s/ravenscar-sfp/Debug/libstm32l5xx.a(stm32-gpio.o)
 .debug_info    0x000000000000865f     0x4357 /home/hedley/ada/STM32/L/L562/hash/Ada_Drivers_Library/arch/ARM/STM32/lib/stm32l5nucleo_s/ravenscar-sfp/Debug/libstm32l5xx.a(stm32-hash.o)
 .debug_info    0x000000000000c9b6      0x306 /home/hedley/ada/STM32/L/L562/hash/Ada_Drivers_Library/arch/ARM/STM32/lib/stm32l5nucleo_s/ravenscar-sfp/Debug/libstm32l5xx.a(stm32-mpu.o)
 .debug_info    0x000000000000ccbc       0xca /home/hedley/ada/STM32/L/L562/hash/Ada_Drivers_Library/arch/ARM/STM32/lib/stm32l5nucleo_s/ravenscar-sfp/Debug/libstm32l5xx.a(stm32-rcc.o)
 .debug_info    0x000000000000cd86      0x21b /home/hedley/ada/STM32/L/L562/hash/Ada_Drivers_Library/arch/ARM/STM32/lib/stm32l5nucleo_s/ravenscar-sfp/Debug/libstm32l5xx.a(stm32-sau.o)
 .debug_info    0x000000000000cfa1     0x170c /home/hedley/ada/STM32/L/L562/hash/Ada_Drivers_Library/arch/ARM/STM32/lib/stm32l5nucleo_s/ravenscar-sfp/Debug/libstm32l5xx.a(stm32-spi.o)
 .debug_info    0x000000000000e6ad      0xc20 /home/hedley/ada/STM32/L/L562/hash/Ada_Drivers_Library/arch/ARM/STM32/lib/stm32l5nucleo_s/ravenscar-sfp/Debug/libstm32l5xx.a(stm32-syscfg.o)
 .debug_info    0x000000000000f2cd      0x5c5 /home/hedley/ada/STM32/L/L562/hash/Ada_Drivers_Library/arch/ARM/STM32/lib/stm32l5nucleo_s/ravenscar-sfp/Debug/libstm32l5xx.a(stm32_svd-spi.o)
 .debug_info    0x000000000000f892       0x41 /home/hedley/ada/Ada_Drivers_Library/hal/lib/stm32l5nucleo_s/ravenscar-sfp/Debug/libHAL.a(hal-gpio.o)
 .debug_info    0x000000000000f8d3       0x5d /home/hedley/ada/Ada_Drivers_Library/hal/lib/stm32l5nucleo_s/ravenscar-sfp/Debug/libHAL.a(hal-spi.o)
 .debug_info    0x000000000000f930     0x1137 /home/hedley/ada/STM32/L/L562/hash/Ada_Drivers_Library/embedded-runtimes/ravenscar-stm32l5nucleo_s/sfp/adalib/libgnarl.a(a-reatim.o)
 .debug_info    0x0000000000010a67      0x877 /home/hedley/ada/STM32/L/L562/hash/Ada_Drivers_Library/embedded-runtimes/ravenscar-stm32l5nucleo_s/sfp/adalib/libgnarl.a(s-bbbosu.o)
 .debug_info    0x00000000000112de      0xc4e /home/hedley/ada/STM32/L/L562/hash/Ada_Drivers_Library/embedded-runtimes/ravenscar-stm32l5nucleo_s/sfp/adalib/libgnarl.a(s-bbcppr.o)
 .debug_info    0x0000000000011f2c      0x742 /home/hedley/ada/STM32/L/L562/hash/Ada_Drivers_Library/embedded-runtimes/ravenscar-stm32l5nucleo_s/sfp/adalib/libgnarl.a(s-bbinte.o)
 .debug_info    0x000000000001266e      0x6c6 /home/hedley/ada/STM32/L/L562/hash/Ada_Drivers_Library/embedded-runtimes/ravenscar-stm32l5nucleo_s/sfp/adalib/libgnarl.a(s-bbthqu.o)
 .debug_info    0x0000000000012d34      0xdc1 /home/hedley/ada/STM32/L/L562/hash/Ada_Drivers_Library/embedded-runtimes/ravenscar-stm32l5nucleo_s/sfp/adalib/libgnarl.a(s-bbtime.o)
 .debug_info    0x0000000000013af5       0xb7 /home/hedley/ada/STM32/L/L562/hash/Ada_Drivers_Library/embedded-runtimes/ravenscar-stm32l5nucleo_s/sfp/adalib/libgnarl.a(s-bcpcst.o)
 .debug_info    0x0000000000013bac      0xa5e /home/hedley/ada/STM32/L/L562/hash/Ada_Drivers_Library/embedded-runtimes/ravenscar-stm32l5nucleo_s/sfp/adalib/libgnarl.a(s-taprob.o)
 .debug_info    0x000000000001460a     0x1469 /home/hedley/ada/STM32/L/L562/hash/Ada_Drivers_Library/embedded-runtimes/ravenscar-stm32l5nucleo_s/sfp/adalib/libgnarl.a(s-tarest.o)
 .debug_info    0x0000000000015a73      0x65b /home/hedley/ada/STM32/L/L562/hash/Ada_Drivers_Library/embedded-runtimes/ravenscar-stm32l5nucleo_s/sfp/adalib/libgnarl.a(s-tasdeb.o)
 .debug_info    0x00000000000160ce      0xdd1 /home/hedley/ada/STM32/L/L562/hash/Ada_Drivers_Library/embedded-runtimes/ravenscar-stm32l5nucleo_s/sfp/adalib/libgnarl.a(s-taskin.o)
 .debug_info    0x0000000000016e9f      0xc52 /home/hedley/ada/STM32/L/L562/hash/Ada_Drivers_Library/embedded-runtimes/ravenscar-stm32l5nucleo_s/sfp/adalib/libgnarl.a(s-tpobmu.o)
 .debug_info    0x0000000000017af1      0x373 /home/hedley/ada/STM32/L/L562/hash/Ada_Drivers_Library/embedded-runtimes/ravenscar-stm32l5nucleo_s/sfp/adalib/libgnarl.a(s-bbprot.o)
 .debug_info    0x0000000000017e64      0xbc6 /home/hedley/ada/STM32/L/L562/hash/Ada_Drivers_Library/embedded-runtimes/ravenscar-stm32l5nucleo_s/sfp/adalib/libgnarl.a(s-bbthre.o)
 .debug_info    0x0000000000018a2a      0x85e /home/hedley/ada/STM32/L/L562/hash/Ada_Drivers_Library/embedded-runtimes/ravenscar-stm32l5nucleo_s/sfp/adalib/libgnarl.a(s-bbtiev.o)
 .debug_info    0x0000000000019288     0x12f1 /home/hedley/ada/STM32/L/L562/hash/Ada_Drivers_Library/embedded-runtimes/ravenscar-stm32l5nucleo_s/sfp/adalib/libgnarl.a(s-taprop.o)
 .debug_info    0x000000000001a579      0x2be /home/hedley/ada/STM32/L/L562/hash/Ada_Drivers_Library/embedded-runtimes/ravenscar-stm32l5nucleo_s/sfp/adalib/libgnat.a(a-elchha.o)
 .debug_info    0x000000000001a837      0x157 /home/hedley/ada/STM32/L/L562/hash/Ada_Drivers_Library/embedded-runtimes/ravenscar-stm32l5nucleo_s/sfp/adalib/libgnat.a(a-except.o)
 .debug_info    0x000000000001a98e      0x31f /home/hedley/ada/STM32/L/L562/hash/Ada_Drivers_Library/embedded-runtimes/ravenscar-stm32l5nucleo_s/sfp/adalib/libgnat.a(g-io.o)
 .debug_info    0x000000000001acad      0x1b8 /home/hedley/ada/STM32/L/L562/hash/Ada_Drivers_Library/embedded-runtimes/ravenscar-stm32l5nucleo_s/sfp/adalib/libgnat.a(s-assert.o)
 .debug_info    0x000000000001ae65       0xee /home/hedley/ada/STM32/L/L562/hash/Ada_Drivers_Library/embedded-runtimes/ravenscar-stm32l5nucleo_s/sfp/adalib/libgnat.a(s-macres.o)
 .debug_info    0x000000000001af53       0xc3 /home/hedley/ada/STM32/L/L562/hash/Ada_Drivers_Library/embedded-runtimes/ravenscar-stm32l5nucleo_s/sfp/adalib/libgnat.a(s-memcop.o)
 .debug_info    0x000000000001b016      0x122 /home/hedley/ada/STM32/L/L562/hash/Ada_Drivers_Library/embedded-runtimes/ravenscar-stm32l5nucleo_s/sfp/adalib/libgnat.a(s-memset.o)
 .debug_info    0x000000000001b138      0x13d /home/hedley/ada/STM32/L/L562/hash/Ada_Drivers_Library/embedded-runtimes/ravenscar-stm32l5nucleo_s/sfp/adalib/libgnat.a(s-parame.o)
 .debug_info    0x000000000001b275      0x661 /home/hedley/ada/STM32/L/L562/hash/Ada_Drivers_Library/embedded-runtimes/ravenscar-stm32l5nucleo_s/sfp/adalib/libgnat.a(s-secsta.o)
 .debug_info    0x000000000001b8d6      0x140 /home/hedley/ada/STM32/L/L562/hash/Ada_Drivers_Library/embedded-runtimes/ravenscar-stm32l5nucleo_s/sfp/adalib/libgnat.a(s-textio.o)
 .debug_info    0x000000000001ba16      0x548 /home/hedley/ada/STM32/L/L562/hash/Ada_Drivers_Library/embedded-runtimes/ravenscar-stm32l5nucleo_s/sfp/adalib/libgnat.a(setup_pll.o)
 .debug_info    0x000000000001bf5e       0x60 /home/hedley/ada/STM32/L/L562/hash/Ada_Drivers_Library/embedded-runtimes/ravenscar-stm32l5nucleo_s/sfp/adalib/libgnat.a(s-bbmcpa.o)

.debug_abbrev   0x0000000000000000     0x656e
 *(.debug_abbrev)
 .debug_abbrev  0x0000000000000000      0x170 test_s.o
 .debug_abbrev  0x0000000000000170      0x213 b__test_s.o
 .debug_abbrev  0x0000000000000383      0x2dd /home/hedley/ada/STM32/L/L562/hash/Ada_Drivers_Library/boards/lib/stm32l5discovery_s/ravenscar-sfp/Debug/libstm32l5discovery_s.a(stm32-board.o)
 .debug_abbrev  0x0000000000000660      0x45d /home/hedley/ada/STM32/L/L562/hash/Ada_Drivers_Library/arch/ARM/STM32/lib/stm32l5nucleo_s/ravenscar-sfp/Debug/libstm32l5xx.a(stm32-device.o)
 .debug_abbrev  0x0000000000000abd       0xc2 /home/hedley/ada/STM32/L/L562/hash/Ada_Drivers_Library/arch/ARM/STM32/lib/stm32l5nucleo_s/ravenscar-sfp/Debug/libstm32l5xx.a(stm32-exti.o)
 .debug_abbrev  0x0000000000000b7f      0x3e0 /home/hedley/ada/STM32/L/L562/hash/Ada_Drivers_Library/arch/ARM/STM32/lib/stm32l5nucleo_s/ravenscar-sfp/Debug/libstm32l5xx.a(stm32-gpio.o)
 .debug_abbrev  0x0000000000000f5f      0x32c /home/hedley/ada/STM32/L/L562/hash/Ada_Drivers_Library/arch/ARM/STM32/lib/stm32l5nucleo_s/ravenscar-sfp/Debug/libstm32l5xx.a(stm32-hash.o)
 .debug_abbrev  0x000000000000128b      0x159 /home/hedley/ada/STM32/L/L562/hash/Ada_Drivers_Library/arch/ARM/STM32/lib/stm32l5nucleo_s/ravenscar-sfp/Debug/libstm32l5xx.a(stm32-mpu.o)
 .debug_abbrev  0x00000000000013e4       0x42 /home/hedley/ada/STM32/L/L562/hash/Ada_Drivers_Library/arch/ARM/STM32/lib/stm32l5nucleo_s/ravenscar-sfp/Debug/libstm32l5xx.a(stm32-rcc.o)
 .debug_abbrev  0x0000000000001426      0x125 /home/hedley/ada/STM32/L/L562/hash/Ada_Drivers_Library/arch/ARM/STM32/lib/stm32l5nucleo_s/ravenscar-sfp/Debug/libstm32l5xx.a(stm32-sau.o)
 .debug_abbrev  0x000000000000154b      0x2fb /home/hedley/ada/STM32/L/L562/hash/Ada_Drivers_Library/arch/ARM/STM32/lib/stm32l5nucleo_s/ravenscar-sfp/Debug/libstm32l5xx.a(stm32-spi.o)
 .debug_abbrev  0x0000000000001846      0x2cc /home/hedley/ada/STM32/L/L562/hash/Ada_Drivers_Library/arch/ARM/STM32/lib/stm32l5nucleo_s/ravenscar-sfp/Debug/libstm32l5xx.a(stm32-syscfg.o)
 .debug_abbrev  0x0000000000001b12       0xdb /home/hedley/ada/STM32/L/L562/hash/Ada_Drivers_Library/arch/ARM/STM32/lib/stm32l5nucleo_s/ravenscar-sfp/Debug/libstm32l5xx.a(stm32_svd-spi.o)
 .debug_abbrev  0x0000000000001bed       0x28 /home/hedley/ada/Ada_Drivers_Library/hal/lib/stm32l5nucleo_s/ravenscar-sfp/Debug/libHAL.a(hal-gpio.o)
 .debug_abbrev  0x0000000000001c15       0x28 /home/hedley/ada/Ada_Drivers_Library/hal/lib/stm32l5nucleo_s/ravenscar-sfp/Debug/libHAL.a(hal-spi.o)
 .debug_abbrev  0x0000000000001c3d      0x34c /home/hedley/ada/STM32/L/L562/hash/Ada_Drivers_Library/embedded-runtimes/ravenscar-stm32l5nucleo_s/sfp/adalib/libgnarl.a(a-reatim.o)
 .debug_abbrev  0x0000000000001f89      0x3c7 /home/hedley/ada/STM32/L/L562/hash/Ada_Drivers_Library/embedded-runtimes/ravenscar-stm32l5nucleo_s/sfp/adalib/libgnarl.a(s-bbbosu.o)
 .debug_abbrev  0x0000000000002350      0x436 /home/hedley/ada/STM32/L/L562/hash/Ada_Drivers_Library/embedded-runtimes/ravenscar-stm32l5nucleo_s/sfp/adalib/libgnarl.a(s-bbcppr.o)
 .debug_abbrev  0x0000000000002786      0x397 /home/hedley/ada/STM32/L/L562/hash/Ada_Drivers_Library/embedded-runtimes/ravenscar-stm32l5nucleo_s/sfp/adalib/libgnarl.a(s-bbinte.o)
 .debug_abbrev  0x0000000000002b1d      0x375 /home/hedley/ada/STM32/L/L562/hash/Ada_Drivers_Library/embedded-runtimes/ravenscar-stm32l5nucleo_s/sfp/adalib/libgnarl.a(s-bbthqu.o)
 .debug_abbrev  0x0000000000002e92      0x405 /home/hedley/ada/STM32/L/L562/hash/Ada_Drivers_Library/embedded-runtimes/ravenscar-stm32l5nucleo_s/sfp/adalib/libgnarl.a(s-bbtime.o)
 .debug_abbrev  0x0000000000003297       0x99 /home/hedley/ada/STM32/L/L562/hash/Ada_Drivers_Library/embedded-runtimes/ravenscar-stm32l5nucleo_s/sfp/adalib/libgnarl.a(s-bcpcst.o)
 .debug_abbrev  0x0000000000003330      0x421 /home/hedley/ada/STM32/L/L562/hash/Ada_Drivers_Library/embedded-runtimes/ravenscar-stm32l5nucleo_s/sfp/adalib/libgnarl.a(s-taprob.o)
 .debug_abbrev  0x0000000000003751      0x5c6 /home/hedley/ada/STM32/L/L562/hash/Ada_Drivers_Library/embedded-runtimes/ravenscar-stm32l5nucleo_s/sfp/adalib/libgnarl.a(s-tarest.o)
 .debug_abbrev  0x0000000000003d17      0x232 /home/hedley/ada/STM32/L/L562/hash/Ada_Drivers_Library/embedded-runtimes/ravenscar-stm32l5nucleo_s/sfp/adalib/libgnarl.a(s-tasdeb.o)
 .debug_abbrev  0x0000000000003f49      0x4f2 /home/hedley/ada/STM32/L/L562/hash/Ada_Drivers_Library/embedded-runtimes/ravenscar-stm32l5nucleo_s/sfp/adalib/libgnarl.a(s-taskin.o)
 .debug_abbrev  0x000000000000443b      0x3d7 /home/hedley/ada/STM32/L/L562/hash/Ada_Drivers_Library/embedded-runtimes/ravenscar-stm32l5nucleo_s/sfp/adalib/libgnarl.a(s-tpobmu.o)
 .debug_abbrev  0x0000000000004812      0x24a /home/hedley/ada/STM32/L/L562/hash/Ada_Drivers_Library/embedded-runtimes/ravenscar-stm32l5nucleo_s/sfp/adalib/libgnarl.a(s-bbprot.o)
 .debug_abbrev  0x0000000000004a5c      0x43a /home/hedley/ada/STM32/L/L562/hash/Ada_Drivers_Library/embedded-runtimes/ravenscar-stm32l5nucleo_s/sfp/adalib/libgnarl.a(s-bbthre.o)
 .debug_abbrev  0x0000000000004e96      0x35b /home/hedley/ada/STM32/L/L562/hash/Ada_Drivers_Library/embedded-runtimes/ravenscar-stm32l5nucleo_s/sfp/adalib/libgnarl.a(s-bbtiev.o)
 .debug_abbrev  0x00000000000051f1      0x5a1 /home/hedley/ada/STM32/L/L562/hash/Ada_Drivers_Library/embedded-runtimes/ravenscar-stm32l5nucleo_s/sfp/adalib/libgnarl.a(s-taprop.o)
 .debug_abbrev  0x0000000000005792      0x1a9 /home/hedley/ada/STM32/L/L562/hash/Ada_Drivers_Library/embedded-runtimes/ravenscar-stm32l5nucleo_s/sfp/adalib/libgnat.a(a-elchha.o)
 .debug_abbrev  0x000000000000593b       0xd3 /home/hedley/ada/STM32/L/L562/hash/Ada_Drivers_Library/embedded-runtimes/ravenscar-stm32l5nucleo_s/sfp/adalib/libgnat.a(a-except.o)
 .debug_abbrev  0x0000000000005a0e      0x1f4 /home/hedley/ada/STM32/L/L562/hash/Ada_Drivers_Library/embedded-runtimes/ravenscar-stm32l5nucleo_s/sfp/adalib/libgnat.a(g-io.o)
 .debug_abbrev  0x0000000000005c02      0x118 /home/hedley/ada/STM32/L/L562/hash/Ada_Drivers_Library/embedded-runtimes/ravenscar-stm32l5nucleo_s/sfp/adalib/libgnat.a(s-assert.o)
 .debug_abbrev  0x0000000000005d1a       0xff /home/hedley/ada/STM32/L/L562/hash/Ada_Drivers_Library/embedded-runtimes/ravenscar-stm32l5nucleo_s/sfp/adalib/libgnat.a(s-macres.o)
 .debug_abbrev  0x0000000000005e19       0x76 /home/hedley/ada/STM32/L/L562/hash/Ada_Drivers_Library/embedded-runtimes/ravenscar-stm32l5nucleo_s/sfp/adalib/libgnat.a(s-memcop.o)
 .debug_abbrev  0x0000000000005e8f       0xe4 /home/hedley/ada/STM32/L/L562/hash/Ada_Drivers_Library/embedded-runtimes/ravenscar-stm32l5nucleo_s/sfp/adalib/libgnat.a(s-memset.o)
 .debug_abbrev  0x0000000000005f73       0x95 /home/hedley/ada/STM32/L/L562/hash/Ada_Drivers_Library/embedded-runtimes/ravenscar-stm32l5nucleo_s/sfp/adalib/libgnat.a(s-parame.o)
 .debug_abbrev  0x0000000000006008      0x2e9 /home/hedley/ada/STM32/L/L562/hash/Ada_Drivers_Library/embedded-runtimes/ravenscar-stm32l5nucleo_s/sfp/adalib/libgnat.a(s-secsta.o)
 .debug_abbrev  0x00000000000062f1       0x8c /home/hedley/ada/STM32/L/L562/hash/Ada_Drivers_Library/embedded-runtimes/ravenscar-stm32l5nucleo_s/sfp/adalib/libgnat.a(s-textio.o)
 .debug_abbrev  0x000000000000637d      0x18e /home/hedley/ada/STM32/L/L562/hash/Ada_Drivers_Library/embedded-runtimes/ravenscar-stm32l5nucleo_s/sfp/adalib/libgnat.a(setup_pll.o)
 .debug_abbrev  0x000000000000650b       0x63 /home/hedley/ada/STM32/L/L562/hash/Ada_Drivers_Library/embedded-runtimes/ravenscar-stm32l5nucleo_s/sfp/adalib/libgnat.a(s-bbmcpa.o)

.debug_line     0x0000000000000000     0x704c
 *(.debug_line)
 .debug_line    0x0000000000000000      0x1ca test_s.o
 .debug_line    0x00000000000001ca      0x146 b__test_s.o
 .debug_line    0x0000000000000310      0x2af /home/hedley/ada/STM32/L/L562/hash/Ada_Drivers_Library/boards/lib/stm32l5discovery_s/ravenscar-sfp/Debug/libstm32l5discovery_s.a(stm32-board.o)
 .debug_line    0x00000000000005bf      0x854 /home/hedley/ada/STM32/L/L562/hash/Ada_Drivers_Library/arch/ARM/STM32/lib/stm32l5nucleo_s/ravenscar-sfp/Debug/libstm32l5xx.a(stm32-device.o)
 .debug_line    0x0000000000000e13      0x34f /home/hedley/ada/STM32/L/L562/hash/Ada_Drivers_Library/arch/ARM/STM32/lib/stm32l5nucleo_s/ravenscar-sfp/Debug/libstm32l5xx.a(stm32-exti.o)
 .debug_line    0x0000000000001162      0x719 /home/hedley/ada/STM32/L/L562/hash/Ada_Drivers_Library/arch/ARM/STM32/lib/stm32l5nucleo_s/ravenscar-sfp/Debug/libstm32l5xx.a(stm32-gpio.o)
 .debug_line    0x000000000000187b      0x2e1 /home/hedley/ada/STM32/L/L562/hash/Ada_Drivers_Library/arch/ARM/STM32/lib/stm32l5nucleo_s/ravenscar-sfp/Debug/libstm32l5xx.a(stm32-hash.o)
 .debug_line    0x0000000000001b5c      0x188 /home/hedley/ada/STM32/L/L562/hash/Ada_Drivers_Library/arch/ARM/STM32/lib/stm32l5nucleo_s/ravenscar-sfp/Debug/libstm32l5xx.a(stm32-mpu.o)
 .debug_line    0x0000000000001ce4       0x95 /home/hedley/ada/STM32/L/L562/hash/Ada_Drivers_Library/arch/ARM/STM32/lib/stm32l5nucleo_s/ravenscar-sfp/Debug/libstm32l5xx.a(stm32-rcc.o)
 .debug_line    0x0000000000001d79      0x16c /home/hedley/ada/STM32/L/L562/hash/Ada_Drivers_Library/arch/ARM/STM32/lib/stm32l5nucleo_s/ravenscar-sfp/Debug/libstm32l5xx.a(stm32-sau.o)
 .debug_line    0x0000000000001ee5      0xae3 /home/hedley/ada/STM32/L/L562/hash/Ada_Drivers_Library/arch/ARM/STM32/lib/stm32l5nucleo_s/ravenscar-sfp/Debug/libstm32l5xx.a(stm32-spi.o)
 .debug_line    0x00000000000029c8      0x27e /home/hedley/ada/STM32/L/L562/hash/Ada_Drivers_Library/arch/ARM/STM32/lib/stm32l5nucleo_s/ravenscar-sfp/Debug/libstm32l5xx.a(stm32-syscfg.o)
 .debug_line    0x0000000000002c46       0xbe /home/hedley/ada/STM32/L/L562/hash/Ada_Drivers_Library/arch/ARM/STM32/lib/stm32l5nucleo_s/ravenscar-sfp/Debug/libstm32l5xx.a(stm32_svd-spi.o)
 .debug_line    0x0000000000002d04       0x1d /home/hedley/ada/Ada_Drivers_Library/hal/lib/stm32l5nucleo_s/ravenscar-sfp/Debug/libHAL.a(hal-gpio.o)
 .debug_line    0x0000000000002d21       0x1d /home/hedley/ada/Ada_Drivers_Library/hal/lib/stm32l5nucleo_s/ravenscar-sfp/Debug/libHAL.a(hal-spi.o)
 .debug_line    0x0000000000002d3e      0x4e5 /home/hedley/ada/STM32/L/L562/hash/Ada_Drivers_Library/embedded-runtimes/ravenscar-stm32l5nucleo_s/sfp/adalib/libgnarl.a(a-reatim.o)
 .debug_line    0x0000000000003223      0x338 /home/hedley/ada/STM32/L/L562/hash/Ada_Drivers_Library/embedded-runtimes/ravenscar-stm32l5nucleo_s/sfp/adalib/libgnarl.a(s-bbbosu.o)
 .debug_line    0x000000000000355b      0x3a4 /home/hedley/ada/STM32/L/L562/hash/Ada_Drivers_Library/embedded-runtimes/ravenscar-stm32l5nucleo_s/sfp/adalib/libgnarl.a(s-bbcppr.o)
 .debug_line    0x00000000000038ff      0x2ab /home/hedley/ada/STM32/L/L562/hash/Ada_Drivers_Library/embedded-runtimes/ravenscar-stm32l5nucleo_s/sfp/adalib/libgnarl.a(s-bbinte.o)
 .debug_line    0x0000000000003baa      0x328 /home/hedley/ada/STM32/L/L562/hash/Ada_Drivers_Library/embedded-runtimes/ravenscar-stm32l5nucleo_s/sfp/adalib/libgnarl.a(s-bbthqu.o)
 .debug_line    0x0000000000003ed2      0x4e5 /home/hedley/ada/STM32/L/L562/hash/Ada_Drivers_Library/embedded-runtimes/ravenscar-stm32l5nucleo_s/sfp/adalib/libgnarl.a(s-bbtime.o)
 .debug_line    0x00000000000043b7       0xd3 /home/hedley/ada/STM32/L/L562/hash/Ada_Drivers_Library/embedded-runtimes/ravenscar-stm32l5nucleo_s/sfp/adalib/libgnarl.a(s-bcpcst.o)
 .debug_line    0x000000000000448a      0x2f9 /home/hedley/ada/STM32/L/L562/hash/Ada_Drivers_Library/embedded-runtimes/ravenscar-stm32l5nucleo_s/sfp/adalib/libgnarl.a(s-taprob.o)
 .debug_line    0x0000000000004783      0x4c3 /home/hedley/ada/STM32/L/L562/hash/Ada_Drivers_Library/embedded-runtimes/ravenscar-stm32l5nucleo_s/sfp/adalib/libgnarl.a(s-tarest.o)
 .debug_line    0x0000000000004c46      0x1af /home/hedley/ada/STM32/L/L562/hash/Ada_Drivers_Library/embedded-runtimes/ravenscar-stm32l5nucleo_s/sfp/adalib/libgnarl.a(s-tasdeb.o)
 .debug_line    0x0000000000004df5      0x3ac /home/hedley/ada/STM32/L/L562/hash/Ada_Drivers_Library/embedded-runtimes/ravenscar-stm32l5nucleo_s/sfp/adalib/libgnarl.a(s-taskin.o)
 .debug_line    0x00000000000051a1      0x3d3 /home/hedley/ada/STM32/L/L562/hash/Ada_Drivers_Library/embedded-runtimes/ravenscar-stm32l5nucleo_s/sfp/adalib/libgnarl.a(s-tpobmu.o)
 .debug_line    0x0000000000005574      0x1ba /home/hedley/ada/STM32/L/L562/hash/Ada_Drivers_Library/embedded-runtimes/ravenscar-stm32l5nucleo_s/sfp/adalib/libgnarl.a(s-bbprot.o)
 .debug_line    0x000000000000572e      0x548 /home/hedley/ada/STM32/L/L562/hash/Ada_Drivers_Library/embedded-runtimes/ravenscar-stm32l5nucleo_s/sfp/adalib/libgnarl.a(s-bbthre.o)
 .debug_line    0x0000000000005c76      0x2c9 /home/hedley/ada/STM32/L/L562/hash/Ada_Drivers_Library/embedded-runtimes/ravenscar-stm32l5nucleo_s/sfp/adalib/libgnarl.a(s-bbtiev.o)
 .debug_line    0x0000000000005f3f      0x56b /home/hedley/ada/STM32/L/L562/hash/Ada_Drivers_Library/embedded-runtimes/ravenscar-stm32l5nucleo_s/sfp/adalib/libgnarl.a(s-taprop.o)
 .debug_line    0x00000000000064aa       0xf3 /home/hedley/ada/STM32/L/L562/hash/Ada_Drivers_Library/embedded-runtimes/ravenscar-stm32l5nucleo_s/sfp/adalib/libgnat.a(a-elchha.o)
 .debug_line    0x000000000000659d       0xb7 /home/hedley/ada/STM32/L/L562/hash/Ada_Drivers_Library/embedded-runtimes/ravenscar-stm32l5nucleo_s/sfp/adalib/libgnat.a(a-except.o)
 .debug_line    0x0000000000006654      0x177 /home/hedley/ada/STM32/L/L562/hash/Ada_Drivers_Library/embedded-runtimes/ravenscar-stm32l5nucleo_s/sfp/adalib/libgnat.a(g-io.o)
 .debug_line    0x00000000000067cb       0xe6 /home/hedley/ada/STM32/L/L562/hash/Ada_Drivers_Library/embedded-runtimes/ravenscar-stm32l5nucleo_s/sfp/adalib/libgnat.a(s-assert.o)
 .debug_line    0x00000000000068b1       0xbc /home/hedley/ada/STM32/L/L562/hash/Ada_Drivers_Library/embedded-runtimes/ravenscar-stm32l5nucleo_s/sfp/adalib/libgnat.a(s-macres.o)
 .debug_line    0x000000000000696d       0xcb /home/hedley/ada/STM32/L/L562/hash/Ada_Drivers_Library/embedded-runtimes/ravenscar-stm32l5nucleo_s/sfp/adalib/libgnat.a(s-memcop.o)
 .debug_line    0x0000000000006a38       0xda /home/hedley/ada/STM32/L/L562/hash/Ada_Drivers_Library/embedded-runtimes/ravenscar-stm32l5nucleo_s/sfp/adalib/libgnat.a(s-memset.o)
 .debug_line    0x0000000000006b12       0xb9 /home/hedley/ada/STM32/L/L562/hash/Ada_Drivers_Library/embedded-runtimes/ravenscar-stm32l5nucleo_s/sfp/adalib/libgnat.a(s-parame.o)
 .debug_line    0x0000000000006bcb      0x16c /home/hedley/ada/STM32/L/L562/hash/Ada_Drivers_Library/embedded-runtimes/ravenscar-stm32l5nucleo_s/sfp/adalib/libgnat.a(s-secsta.o)
 .debug_line    0x0000000000006d37      0x16d /home/hedley/ada/STM32/L/L562/hash/Ada_Drivers_Library/embedded-runtimes/ravenscar-stm32l5nucleo_s/sfp/adalib/libgnat.a(s-textio.o)
 .debug_line    0x0000000000006ea4       0xeb /home/hedley/ada/STM32/L/L562/hash/Ada_Drivers_Library/embedded-runtimes/ravenscar-stm32l5nucleo_s/sfp/adalib/libgnat.a(setup_pll.o)
 .debug_line    0x0000000000006f8f       0xbd /home/hedley/ada/STM32/L/L562/hash/Ada_Drivers_Library/embedded-runtimes/ravenscar-stm32l5nucleo_s/sfp/adalib/libgnat.a(s-bbmcpa.o)

.debug_frame    0x0000000000000000     0x2bb4
 *(.debug_frame)
 .debug_frame   0x0000000000000000       0x84 test_s.o
 .debug_frame   0x0000000000000084       0x9c b__test_s.o
 .debug_frame   0x0000000000000120       0xb8 /home/hedley/ada/STM32/L/L562/hash/Ada_Drivers_Library/boards/lib/stm32l5discovery_s/ravenscar-sfp/Debug/libstm32l5discovery_s.a(stm32-board.o)
 .debug_frame   0x00000000000001d8      0x274 /home/hedley/ada/STM32/L/L562/hash/Ada_Drivers_Library/arch/ARM/STM32/lib/stm32l5nucleo_s/ravenscar-sfp/Debug/libstm32l5xx.a(stm32-device.o)
 .debug_frame   0x000000000000044c      0x110 /home/hedley/ada/STM32/L/L562/hash/Ada_Drivers_Library/arch/ARM/STM32/lib/stm32l5nucleo_s/ravenscar-sfp/Debug/libstm32l5xx.a(stm32-exti.o)
 .debug_frame   0x000000000000055c      0x560 /home/hedley/ada/STM32/L/L562/hash/Ada_Drivers_Library/arch/ARM/STM32/lib/stm32l5nucleo_s/ravenscar-sfp/Debug/libstm32l5xx.a(stm32-gpio.o)
 .debug_frame   0x0000000000000abc      0x120 /home/hedley/ada/STM32/L/L562/hash/Ada_Drivers_Library/arch/ARM/STM32/lib/stm32l5nucleo_s/ravenscar-sfp/Debug/libstm32l5xx.a(stm32-hash.o)
 .debug_frame   0x0000000000000bdc       0xf4 /home/hedley/ada/STM32/L/L562/hash/Ada_Drivers_Library/arch/ARM/STM32/lib/stm32l5nucleo_s/ravenscar-sfp/Debug/libstm32l5xx.a(stm32-mpu.o)
 .debug_frame   0x0000000000000cd0       0x30 /home/hedley/ada/STM32/L/L562/hash/Ada_Drivers_Library/arch/ARM/STM32/lib/stm32l5nucleo_s/ravenscar-sfp/Debug/libstm32l5xx.a(stm32-rcc.o)
 .debug_frame   0x0000000000000d00       0xc8 /home/hedley/ada/STM32/L/L562/hash/Ada_Drivers_Library/arch/ARM/STM32/lib/stm32l5nucleo_s/ravenscar-sfp/Debug/libstm32l5xx.a(stm32-sau.o)
 .debug_frame   0x0000000000000dc8      0x6fc /home/hedley/ada/STM32/L/L562/hash/Ada_Drivers_Library/arch/ARM/STM32/lib/stm32l5nucleo_s/ravenscar-sfp/Debug/libstm32l5xx.a(stm32-spi.o)
 .debug_frame   0x00000000000014c4       0xd4 /home/hedley/ada/STM32/L/L562/hash/Ada_Drivers_Library/arch/ARM/STM32/lib/stm32l5nucleo_s/ravenscar-sfp/Debug/libstm32l5xx.a(stm32-syscfg.o)
 .debug_frame   0x0000000000001598      0x14c /home/hedley/ada/STM32/L/L562/hash/Ada_Drivers_Library/arch/ARM/STM32/lib/stm32l5nucleo_s/ravenscar-sfp/Debug/libstm32l5xx.a(stm32_svd-spi.o)
 .debug_frame   0x00000000000016e4       0x60 /home/hedley/ada/Ada_Drivers_Library/hal/lib/stm32l5nucleo_s/ravenscar-sfp/Debug/libHAL.a(hal-spi.o)
 .debug_frame   0x0000000000001744      0x2bc /home/hedley/ada/STM32/L/L562/hash/Ada_Drivers_Library/embedded-runtimes/ravenscar-stm32l5nucleo_s/sfp/adalib/libgnarl.a(a-reatim.o)
 .debug_frame   0x0000000000001a00      0x188 /home/hedley/ada/STM32/L/L562/hash/Ada_Drivers_Library/embedded-runtimes/ravenscar-stm32l5nucleo_s/sfp/adalib/libgnarl.a(s-bbbosu.o)
 .debug_frame   0x0000000000001b88      0x170 /home/hedley/ada/STM32/L/L562/hash/Ada_Drivers_Library/embedded-runtimes/ravenscar-stm32l5nucleo_s/sfp/adalib/libgnarl.a(s-bbcppr.o)
 .debug_frame   0x0000000000001cf8       0xa4 /home/hedley/ada/STM32/L/L562/hash/Ada_Drivers_Library/embedded-runtimes/ravenscar-stm32l5nucleo_s/sfp/adalib/libgnarl.a(s-bbinte.o)
 .debug_frame   0x0000000000001d9c      0x178 /home/hedley/ada/STM32/L/L562/hash/Ada_Drivers_Library/embedded-runtimes/ravenscar-stm32l5nucleo_s/sfp/adalib/libgnarl.a(s-bbthqu.o)
 .debug_frame   0x0000000000001f14      0x158 /home/hedley/ada/STM32/L/L562/hash/Ada_Drivers_Library/embedded-runtimes/ravenscar-stm32l5nucleo_s/sfp/adalib/libgnarl.a(s-bbtime.o)
 .debug_frame   0x000000000000206c       0x40 /home/hedley/ada/STM32/L/L562/hash/Ada_Drivers_Library/embedded-runtimes/ravenscar-stm32l5nucleo_s/sfp/adalib/libgnarl.a(s-bcpcst.o)
 .debug_frame   0x00000000000020ac       0x78 /home/hedley/ada/STM32/L/L562/hash/Ada_Drivers_Library/embedded-runtimes/ravenscar-stm32l5nucleo_s/sfp/adalib/libgnarl.a(s-taprob.o)
 .debug_frame   0x0000000000002124      0x188 /home/hedley/ada/STM32/L/L562/hash/Ada_Drivers_Library/embedded-runtimes/ravenscar-stm32l5nucleo_s/sfp/adalib/libgnarl.a(s-tarest.o)
 .debug_frame   0x00000000000022ac       0x38 /home/hedley/ada/STM32/L/L562/hash/Ada_Drivers_Library/embedded-runtimes/ravenscar-stm32l5nucleo_s/sfp/adalib/libgnarl.a(s-tasdeb.o)
 .debug_frame   0x00000000000022e4       0xcc /home/hedley/ada/STM32/L/L562/hash/Ada_Drivers_Library/embedded-runtimes/ravenscar-stm32l5nucleo_s/sfp/adalib/libgnarl.a(s-taskin.o)
 .debug_frame   0x00000000000023b0       0x74 /home/hedley/ada/STM32/L/L562/hash/Ada_Drivers_Library/embedded-runtimes/ravenscar-stm32l5nucleo_s/sfp/adalib/libgnarl.a(s-tpobmu.o)
 .debug_frame   0x0000000000002424       0x38 /home/hedley/ada/STM32/L/L562/hash/Ada_Drivers_Library/embedded-runtimes/ravenscar-stm32l5nucleo_s/sfp/adalib/libgnarl.a(s-bbprot.o)
 .debug_frame   0x000000000000245c      0x158 /home/hedley/ada/STM32/L/L562/hash/Ada_Drivers_Library/embedded-runtimes/ravenscar-stm32l5nucleo_s/sfp/adalib/libgnarl.a(s-bbthre.o)
 .debug_frame   0x00000000000025b4       0xd0 /home/hedley/ada/STM32/L/L562/hash/Ada_Drivers_Library/embedded-runtimes/ravenscar-stm32l5nucleo_s/sfp/adalib/libgnarl.a(s-bbtiev.o)
 .debug_frame   0x0000000000002684      0x1ec /home/hedley/ada/STM32/L/L562/hash/Ada_Drivers_Library/embedded-runtimes/ravenscar-stm32l5nucleo_s/sfp/adalib/libgnarl.a(s-taprop.o)
 .debug_frame   0x0000000000002870       0x28 /home/hedley/ada/STM32/L/L562/hash/Ada_Drivers_Library/embedded-runtimes/ravenscar-stm32l5nucleo_s/sfp/adalib/libgnat.a(a-elchha.o)
 .debug_frame   0x0000000000002898       0xa8 /home/hedley/ada/STM32/L/L562/hash/Ada_Drivers_Library/embedded-runtimes/ravenscar-stm32l5nucleo_s/sfp/adalib/libgnat.a(g-io.o)
 .debug_frame   0x0000000000002940       0x2c /home/hedley/ada/STM32/L/L562/hash/Ada_Drivers_Library/embedded-runtimes/ravenscar-stm32l5nucleo_s/sfp/adalib/libgnat.a(s-assert.o)
 .debug_frame   0x000000000000296c       0x40 /home/hedley/ada/STM32/L/L562/hash/Ada_Drivers_Library/embedded-runtimes/ravenscar-stm32l5nucleo_s/sfp/adalib/libgnat.a(s-macres.o)
 .debug_frame   0x00000000000029ac       0x34 /home/hedley/ada/STM32/L/L562/hash/Ada_Drivers_Library/embedded-runtimes/ravenscar-stm32l5nucleo_s/sfp/adalib/libgnat.a(s-memcop.o)
 .debug_frame   0x00000000000029e0       0x30 /home/hedley/ada/STM32/L/L562/hash/Ada_Drivers_Library/embedded-runtimes/ravenscar-stm32l5nucleo_s/sfp/adalib/libgnat.a(s-memset.o)
 .debug_frame   0x0000000000002a10       0x20 /home/hedley/ada/STM32/L/L562/hash/Ada_Drivers_Library/embedded-runtimes/ravenscar-stm32l5nucleo_s/sfp/adalib/libgnat.a(s-parame.o)
 .debug_frame   0x0000000000002a30       0xa8 /home/hedley/ada/STM32/L/L562/hash/Ada_Drivers_Library/embedded-runtimes/ravenscar-stm32l5nucleo_s/sfp/adalib/libgnat.a(s-secsta.o)
 .debug_frame   0x0000000000002ad8       0x70 /home/hedley/ada/STM32/L/L562/hash/Ada_Drivers_Library/embedded-runtimes/ravenscar-stm32l5nucleo_s/sfp/adalib/libgnat.a(s-textio.o)
 .debug_frame   0x0000000000002b48       0x2c /home/hedley/ada/STM32/L/L562/hash/Ada_Drivers_Library/embedded-runtimes/ravenscar-stm32l5nucleo_s/sfp/adalib/libgnat.a(setup_pll.o)
 .debug_frame   0x0000000000002b74       0x40 /home/hedley/ada/STM32/L/L562/hash/Ada_Drivers_Library/embedded-runtimes/ravenscar-stm32l5nucleo_s/sfp/adalib/libgnat.a(s-bbmcpa.o)

.debug_str      0x0000000000000000     0xe64f
 *(.debug_str)
 .debug_str     0x0000000000000000      0x5e9 test_s.o
                                        0x600 (size before relaxing)
 .debug_str     0x00000000000005e9      0x8cc b__test_s.o
                                        0x9ab (size before relaxing)
 .debug_str     0x0000000000000eb5     0x115a /home/hedley/ada/STM32/L/L562/hash/Ada_Drivers_Library/boards/lib/stm32l5discovery_s/ravenscar-sfp/Debug/libstm32l5discovery_s.a(stm32-board.o)
                                       0x1363 (size before relaxing)
 .debug_str     0x000000000000200f     0x32fc /home/hedley/ada/STM32/L/L562/hash/Ada_Drivers_Library/arch/ARM/STM32/lib/stm32l5nucleo_s/ravenscar-sfp/Debug/libstm32l5xx.a(stm32-device.o)
                                       0x40e5 (size before relaxing)
 .debug_str     0x000000000000530b      0x521 /home/hedley/ada/STM32/L/L562/hash/Ada_Drivers_Library/arch/ARM/STM32/lib/stm32l5nucleo_s/ravenscar-sfp/Debug/libstm32l5xx.a(stm32-exti.o)
                                        0x92e (size before relaxing)
 .debug_str     0x000000000000582c      0x4b0 /home/hedley/ada/STM32/L/L562/hash/Ada_Drivers_Library/arch/ARM/STM32/lib/stm32l5nucleo_s/ravenscar-sfp/Debug/libstm32l5xx.a(stm32-gpio.o)
                                       0x18e2 (size before relaxing)
 .debug_str     0x0000000000005cdc      0x6ae /home/hedley/ada/STM32/L/L562/hash/Ada_Drivers_Library/arch/ARM/STM32/lib/stm32l5nucleo_s/ravenscar-sfp/Debug/libstm32l5xx.a(stm32-hash.o)
                                       0x24a2 (size before relaxing)
 .debug_str     0x000000000000638a      0x189 /home/hedley/ada/STM32/L/L562/hash/Ada_Drivers_Library/arch/ARM/STM32/lib/stm32l5nucleo_s/ravenscar-sfp/Debug/libstm32l5xx.a(stm32-mpu.o)
                                        0x522 (size before relaxing)
 .debug_str     0x0000000000006513       0x84 /home/hedley/ada/STM32/L/L562/hash/Ada_Drivers_Library/arch/ARM/STM32/lib/stm32l5nucleo_s/ravenscar-sfp/Debug/libstm32l5xx.a(stm32-rcc.o)
                                        0x434 (size before relaxing)
 .debug_str     0x0000000000006597      0x147 /home/hedley/ada/STM32/L/L562/hash/Ada_Drivers_Library/arch/ARM/STM32/lib/stm32l5nucleo_s/ravenscar-sfp/Debug/libstm32l5xx.a(stm32-sau.o)
                                        0x487 (size before relaxing)
 .debug_str     0x00000000000066de      0x99c /home/hedley/ada/STM32/L/L562/hash/Ada_Drivers_Library/arch/ARM/STM32/lib/stm32l5nucleo_s/ravenscar-sfp/Debug/libstm32l5xx.a(stm32-spi.o)
                                       0x129c (size before relaxing)
 .debug_str     0x000000000000707a      0x165 /home/hedley/ada/STM32/L/L562/hash/Ada_Drivers_Library/arch/ARM/STM32/lib/stm32l5nucleo_s/ravenscar-sfp/Debug/libstm32l5xx.a(stm32-syscfg.o)
                                        0xf14 (size before relaxing)
 .debug_str     0x00000000000071df      0x139 /home/hedley/ada/STM32/L/L562/hash/Ada_Drivers_Library/arch/ARM/STM32/lib/stm32l5nucleo_s/ravenscar-sfp/Debug/libstm32l5xx.a(stm32_svd-spi.o)
                                        0x691 (size before relaxing)
 .debug_str     0x0000000000007318      0x2a2 /home/hedley/ada/Ada_Drivers_Library/hal/lib/stm32l5nucleo_s/ravenscar-sfp/Debug/libHAL.a(hal-gpio.o)
                                        0x2d6 (size before relaxing)
 .debug_str     0x00000000000075ba       0x39 /home/hedley/ada/Ada_Drivers_Library/hal/lib/stm32l5nucleo_s/ravenscar-sfp/Debug/libHAL.a(hal-spi.o)
                                        0x31f (size before relaxing)
 .debug_str     0x00000000000075f3      0xabc /home/hedley/ada/STM32/L/L562/hash/Ada_Drivers_Library/embedded-runtimes/ravenscar-stm32l5nucleo_s/sfp/adalib/libgnarl.a(a-reatim.o)
                                        0xb59 (size before relaxing)
 .debug_str     0x00000000000080af      0x810 /home/hedley/ada/STM32/L/L562/hash/Ada_Drivers_Library/embedded-runtimes/ravenscar-stm32l5nucleo_s/sfp/adalib/libgnarl.a(s-bbbosu.o)
                                        0xb43 (size before relaxing)
 .debug_str     0x00000000000088bf      0xb5b /home/hedley/ada/STM32/L/L562/hash/Ada_Drivers_Library/embedded-runtimes/ravenscar-stm32l5nucleo_s/sfp/adalib/libgnarl.a(s-bbcppr.o)
                                       0x1101 (size before relaxing)
 .debug_str     0x000000000000941a      0x3da /home/hedley/ada/STM32/L/L562/hash/Ada_Drivers_Library/embedded-runtimes/ravenscar-stm32l5nucleo_s/sfp/adalib/libgnarl.a(s-bbinte.o)
                                        0xc68 (size before relaxing)
 .debug_str     0x00000000000097f4      0x3f4 /home/hedley/ada/STM32/L/L562/hash/Ada_Drivers_Library/embedded-runtimes/ravenscar-stm32l5nucleo_s/sfp/adalib/libgnarl.a(s-bbthqu.o)
                                        0xa64 (size before relaxing)
 .debug_str     0x0000000000009be8      0x538 /home/hedley/ada/STM32/L/L562/hash/Ada_Drivers_Library/embedded-runtimes/ravenscar-stm32l5nucleo_s/sfp/adalib/libgnarl.a(s-bbtime.o)
                                        0xf45 (size before relaxing)
 .debug_str     0x000000000000a120      0x184 /home/hedley/ada/STM32/L/L562/hash/Ada_Drivers_Library/embedded-runtimes/ravenscar-stm32l5nucleo_s/sfp/adalib/libgnarl.a(s-bcpcst.o)
                                        0x47b (size before relaxing)
 .debug_str     0x000000000000a2a4      0x8ba /home/hedley/ada/STM32/L/L562/hash/Ada_Drivers_Library/embedded-runtimes/ravenscar-stm32l5nucleo_s/sfp/adalib/libgnarl.a(s-taprob.o)
                                       0x1334 (size before relaxing)
 .debug_str     0x000000000000ab5e      0x6b8 /home/hedley/ada/STM32/L/L562/hash/Ada_Drivers_Library/embedded-runtimes/ravenscar-stm32l5nucleo_s/sfp/adalib/libgnarl.a(s-tarest.o)
                                       0x177d (size before relaxing)
 .debug_str     0x000000000000b216      0x28d /home/hedley/ada/STM32/L/L562/hash/Ada_Drivers_Library/embedded-runtimes/ravenscar-stm32l5nucleo_s/sfp/adalib/libgnarl.a(s-tasdeb.o)
                                        0xe70 (size before relaxing)
 .debug_str     0x000000000000b4a3      0x415 /home/hedley/ada/STM32/L/L562/hash/Ada_Drivers_Library/embedded-runtimes/ravenscar-stm32l5nucleo_s/sfp/adalib/libgnarl.a(s-taskin.o)
                                       0x159d (size before relaxing)
 .debug_str     0x000000000000b8b8      0x419 /home/hedley/ada/STM32/L/L562/hash/Ada_Drivers_Library/embedded-runtimes/ravenscar-stm32l5nucleo_s/sfp/adalib/libgnarl.a(s-tpobmu.o)
                                       0x14d5 (size before relaxing)
 .debug_str     0x000000000000bcd1       0xd0 /home/hedley/ada/STM32/L/L562/hash/Ada_Drivers_Library/embedded-runtimes/ravenscar-stm32l5nucleo_s/sfp/adalib/libgnarl.a(s-bbprot.o)
                                        0x880 (size before relaxing)
 .debug_str     0x000000000000bda1      0x172 /home/hedley/ada/STM32/L/L562/hash/Ada_Drivers_Library/embedded-runtimes/ravenscar-stm32l5nucleo_s/sfp/adalib/libgnarl.a(s-bbthre.o)
                                        0xce7 (size before relaxing)
 .debug_str     0x000000000000bf13      0x1ac /home/hedley/ada/STM32/L/L562/hash/Ada_Drivers_Library/embedded-runtimes/ravenscar-stm32l5nucleo_s/sfp/adalib/libgnarl.a(s-bbtiev.o)
                                        0xa14 (size before relaxing)
 .debug_str     0x000000000000c0bf      0x4c5 /home/hedley/ada/STM32/L/L562/hash/Ada_Drivers_Library/embedded-runtimes/ravenscar-stm32l5nucleo_s/sfp/adalib/libgnarl.a(s-taprop.o)
                                       0x1ae1 (size before relaxing)
 .debug_str     0x000000000000c584      0x47f /home/hedley/ada/STM32/L/L562/hash/Ada_Drivers_Library/embedded-runtimes/ravenscar-stm32l5nucleo_s/sfp/adalib/libgnat.a(a-elchha.o)
                                        0x51a (size before relaxing)
 .debug_str     0x000000000000ca03      0x322 /home/hedley/ada/STM32/L/L562/hash/Ada_Drivers_Library/embedded-runtimes/ravenscar-stm32l5nucleo_s/sfp/adalib/libgnat.a(a-except.o)
                                        0x3e2 (size before relaxing)
 .debug_str     0x000000000000cd25      0x165 /home/hedley/ada/STM32/L/L562/hash/Ada_Drivers_Library/embedded-runtimes/ravenscar-stm32l5nucleo_s/sfp/adalib/libgnat.a(g-io.o)
                                        0x461 (size before relaxing)
 .debug_str     0x000000000000ce8a      0x28a /home/hedley/ada/STM32/L/L562/hash/Ada_Drivers_Library/embedded-runtimes/ravenscar-stm32l5nucleo_s/sfp/adalib/libgnat.a(s-assert.o)
                                        0x458 (size before relaxing)
 .debug_str     0x000000000000d114       0xbc /home/hedley/ada/STM32/L/L562/hash/Ada_Drivers_Library/embedded-runtimes/ravenscar-stm32l5nucleo_s/sfp/adalib/libgnat.a(s-macres.o)
                                        0x336 (size before relaxing)
 .debug_str     0x000000000000d1d0      0x106 /home/hedley/ada/STM32/L/L562/hash/Ada_Drivers_Library/embedded-runtimes/ravenscar-stm32l5nucleo_s/sfp/adalib/libgnat.a(s-memcop.o)
                                        0x338 (size before relaxing)
 .debug_str     0x000000000000d2d6       0xba /home/hedley/ada/STM32/L/L562/hash/Ada_Drivers_Library/embedded-runtimes/ravenscar-stm32l5nucleo_s/sfp/adalib/libgnat.a(s-memset.o)
                                        0x382 (size before relaxing)
 .debug_str     0x000000000000d390      0x1f5 /home/hedley/ada/STM32/L/L562/hash/Ada_Drivers_Library/embedded-runtimes/ravenscar-stm32l5nucleo_s/sfp/adalib/libgnat.a(s-parame.o)
                                        0x4a5 (size before relaxing)
 .debug_str     0x000000000000d585      0x787 /home/hedley/ada/STM32/L/L562/hash/Ada_Drivers_Library/embedded-runtimes/ravenscar-stm32l5nucleo_s/sfp/adalib/libgnat.a(s-secsta.o)
                                        0xdc4 (size before relaxing)
 .debug_str     0x000000000000dd0c      0x23e /home/hedley/ada/STM32/L/L562/hash/Ada_Drivers_Library/embedded-runtimes/ravenscar-stm32l5nucleo_s/sfp/adalib/libgnat.a(s-textio.o)
                                        0x555 (size before relaxing)
 .debug_str     0x000000000000df4a      0x63b /home/hedley/ada/STM32/L/L562/hash/Ada_Drivers_Library/embedded-runtimes/ravenscar-stm32l5nucleo_s/sfp/adalib/libgnat.a(setup_pll.o)
                                        0xa2e (size before relaxing)
 .debug_str     0x000000000000e585       0xca /home/hedley/ada/STM32/L/L562/hash/Ada_Drivers_Library/embedded-runtimes/ravenscar-stm32l5nucleo_s/sfp/adalib/libgnat.a(s-bbmcpa.o)
                                        0x318 (size before relaxing)

.debug_loc      0x0000000000000000     0x4ce1
 *(.debug_loc)
 .debug_loc     0x0000000000000000      0xd3b /home/hedley/ada/STM32/L/L562/hash/Ada_Drivers_Library/embedded-runtimes/ravenscar-stm32l5nucleo_s/sfp/adalib/libgnarl.a(a-reatim.o)
 .debug_loc     0x0000000000000d3b      0x386 /home/hedley/ada/STM32/L/L562/hash/Ada_Drivers_Library/embedded-runtimes/ravenscar-stm32l5nucleo_s/sfp/adalib/libgnarl.a(s-bbbosu.o)
 .debug_loc     0x00000000000010c1      0x568 /home/hedley/ada/STM32/L/L562/hash/Ada_Drivers_Library/embedded-runtimes/ravenscar-stm32l5nucleo_s/sfp/adalib/libgnarl.a(s-bbcppr.o)
 .debug_loc     0x0000000000001629      0x1a1 /home/hedley/ada/STM32/L/L562/hash/Ada_Drivers_Library/embedded-runtimes/ravenscar-stm32l5nucleo_s/sfp/adalib/libgnarl.a(s-bbinte.o)
 .debug_loc     0x00000000000017ca      0x30f /home/hedley/ada/STM32/L/L562/hash/Ada_Drivers_Library/embedded-runtimes/ravenscar-stm32l5nucleo_s/sfp/adalib/libgnarl.a(s-bbthqu.o)
 .debug_loc     0x0000000000001ad9      0x58e /home/hedley/ada/STM32/L/L562/hash/Ada_Drivers_Library/embedded-runtimes/ravenscar-stm32l5nucleo_s/sfp/adalib/libgnarl.a(s-bbtime.o)
 .debug_loc     0x0000000000002067      0x142 /home/hedley/ada/STM32/L/L562/hash/Ada_Drivers_Library/embedded-runtimes/ravenscar-stm32l5nucleo_s/sfp/adalib/libgnarl.a(s-taprob.o)
 .debug_loc     0x00000000000021a9      0xae9 /home/hedley/ada/STM32/L/L562/hash/Ada_Drivers_Library/embedded-runtimes/ravenscar-stm32l5nucleo_s/sfp/adalib/libgnarl.a(s-tarest.o)
 .debug_loc     0x0000000000002c92      0x286 /home/hedley/ada/STM32/L/L562/hash/Ada_Drivers_Library/embedded-runtimes/ravenscar-stm32l5nucleo_s/sfp/adalib/libgnarl.a(s-taskin.o)
 .debug_loc     0x0000000000002f18      0x251 /home/hedley/ada/STM32/L/L562/hash/Ada_Drivers_Library/embedded-runtimes/ravenscar-stm32l5nucleo_s/sfp/adalib/libgnarl.a(s-tpobmu.o)
 .debug_loc     0x0000000000003169       0x63 /home/hedley/ada/STM32/L/L562/hash/Ada_Drivers_Library/embedded-runtimes/ravenscar-stm32l5nucleo_s/sfp/adalib/libgnarl.a(s-bbprot.o)
 .debug_loc     0x00000000000031cc      0x8b8 /home/hedley/ada/STM32/L/L562/hash/Ada_Drivers_Library/embedded-runtimes/ravenscar-stm32l5nucleo_s/sfp/adalib/libgnarl.a(s-bbthre.o)
 .debug_loc     0x0000000000003a84      0x437 /home/hedley/ada/STM32/L/L562/hash/Ada_Drivers_Library/embedded-runtimes/ravenscar-stm32l5nucleo_s/sfp/adalib/libgnarl.a(s-bbtiev.o)
 .debug_loc     0x0000000000003ebb      0x63a /home/hedley/ada/STM32/L/L562/hash/Ada_Drivers_Library/embedded-runtimes/ravenscar-stm32l5nucleo_s/sfp/adalib/libgnarl.a(s-taprop.o)
 .debug_loc     0x00000000000044f5      0x19b /home/hedley/ada/STM32/L/L562/hash/Ada_Drivers_Library/embedded-runtimes/ravenscar-stm32l5nucleo_s/sfp/adalib/libgnat.a(a-elchha.o)
 .debug_loc     0x0000000000004690      0x1a4 /home/hedley/ada/STM32/L/L562/hash/Ada_Drivers_Library/embedded-runtimes/ravenscar-stm32l5nucleo_s/sfp/adalib/libgnat.a(g-io.o)
 .debug_loc     0x0000000000004834       0x38 /home/hedley/ada/STM32/L/L562/hash/Ada_Drivers_Library/embedded-runtimes/ravenscar-stm32l5nucleo_s/sfp/adalib/libgnat.a(s-assert.o)
 .debug_loc     0x000000000000486c      0x14f /home/hedley/ada/STM32/L/L562/hash/Ada_Drivers_Library/embedded-runtimes/ravenscar-stm32l5nucleo_s/sfp/adalib/libgnat.a(s-memcop.o)
 .debug_loc     0x00000000000049bb      0x131 /home/hedley/ada/STM32/L/L562/hash/Ada_Drivers_Library/embedded-runtimes/ravenscar-stm32l5nucleo_s/sfp/adalib/libgnat.a(s-memset.o)
 .debug_loc     0x0000000000004aec       0x21 /home/hedley/ada/STM32/L/L562/hash/Ada_Drivers_Library/embedded-runtimes/ravenscar-stm32l5nucleo_s/sfp/adalib/libgnat.a(s-parame.o)
 .debug_loc     0x0000000000004b0d      0x1d4 /home/hedley/ada/STM32/L/L562/hash/Ada_Drivers_Library/embedded-runtimes/ravenscar-stm32l5nucleo_s/sfp/adalib/libgnat.a(s-secsta.o)

.debug_macinfo
 *(.debug_macinfo)

.debug_pubtypes
 *(.debug_pubtypes)

.debug_ranges   0x0000000000000000     0x1750
 *(.debug_ranges)
 .debug_ranges  0x0000000000000000       0x20 test_s.o
 .debug_ranges  0x0000000000000020       0x20 b__test_s.o
 .debug_ranges  0x0000000000000040       0x30 /home/hedley/ada/STM32/L/L562/hash/Ada_Drivers_Library/boards/lib/stm32l5discovery_s/ravenscar-sfp/Debug/libstm32l5discovery_s.a(stm32-board.o)
 .debug_ranges  0x0000000000000070       0x80 /home/hedley/ada/STM32/L/L562/hash/Ada_Drivers_Library/arch/ARM/STM32/lib/stm32l5nucleo_s/ravenscar-sfp/Debug/libstm32l5xx.a(stm32-device.o)
 .debug_ranges  0x00000000000000f0       0x40 /home/hedley/ada/STM32/L/L562/hash/Ada_Drivers_Library/arch/ARM/STM32/lib/stm32l5nucleo_s/ravenscar-sfp/Debug/libstm32l5xx.a(stm32-exti.o)
 .debug_ranges  0x0000000000000130       0xd0 /home/hedley/ada/STM32/L/L562/hash/Ada_Drivers_Library/arch/ARM/STM32/lib/stm32l5nucleo_s/ravenscar-sfp/Debug/libstm32l5xx.a(stm32-gpio.o)
 .debug_ranges  0x0000000000000200       0x40 /home/hedley/ada/STM32/L/L562/hash/Ada_Drivers_Library/arch/ARM/STM32/lib/stm32l5nucleo_s/ravenscar-sfp/Debug/libstm32l5xx.a(stm32-hash.o)
 .debug_ranges  0x0000000000000240       0x20 /home/hedley/ada/STM32/L/L562/hash/Ada_Drivers_Library/arch/ARM/STM32/lib/stm32l5nucleo_s/ravenscar-sfp/Debug/libstm32l5xx.a(stm32-mpu.o)
 .debug_ranges  0x0000000000000260       0x10 /home/hedley/ada/STM32/L/L562/hash/Ada_Drivers_Library/arch/ARM/STM32/lib/stm32l5nucleo_s/ravenscar-sfp/Debug/libstm32l5xx.a(stm32-rcc.o)
 .debug_ranges  0x0000000000000270       0x20 /home/hedley/ada/STM32/L/L562/hash/Ada_Drivers_Library/arch/ARM/STM32/lib/stm32l5nucleo_s/ravenscar-sfp/Debug/libstm32l5xx.a(stm32-sau.o)
 .debug_ranges  0x0000000000000290      0x138 /home/hedley/ada/STM32/L/L562/hash/Ada_Drivers_Library/arch/ARM/STM32/lib/stm32l5nucleo_s/ravenscar-sfp/Debug/libstm32l5xx.a(stm32-spi.o)
 .debug_ranges  0x00000000000003c8       0x30 /home/hedley/ada/STM32/L/L562/hash/Ada_Drivers_Library/arch/ARM/STM32/lib/stm32l5nucleo_s/ravenscar-sfp/Debug/libstm32l5xx.a(stm32-syscfg.o)
 .debug_ranges  0x00000000000003f8      0x190 /home/hedley/ada/STM32/L/L562/hash/Ada_Drivers_Library/embedded-runtimes/ravenscar-stm32l5nucleo_s/sfp/adalib/libgnarl.a(a-reatim.o)
 .debug_ranges  0x0000000000000588      0x180 /home/hedley/ada/STM32/L/L562/hash/Ada_Drivers_Library/embedded-runtimes/ravenscar-stm32l5nucleo_s/sfp/adalib/libgnarl.a(s-bbbosu.o)
 .debug_ranges  0x0000000000000708      0x120 /home/hedley/ada/STM32/L/L562/hash/Ada_Drivers_Library/embedded-runtimes/ravenscar-stm32l5nucleo_s/sfp/adalib/libgnarl.a(s-bbcppr.o)
 .debug_ranges  0x0000000000000828       0xd0 /home/hedley/ada/STM32/L/L562/hash/Ada_Drivers_Library/embedded-runtimes/ravenscar-stm32l5nucleo_s/sfp/adalib/libgnarl.a(s-bbinte.o)
 .debug_ranges  0x00000000000008f8      0x180 /home/hedley/ada/STM32/L/L562/hash/Ada_Drivers_Library/embedded-runtimes/ravenscar-stm32l5nucleo_s/sfp/adalib/libgnarl.a(s-bbthqu.o)
 .debug_ranges  0x0000000000000a78      0x208 /home/hedley/ada/STM32/L/L562/hash/Ada_Drivers_Library/embedded-runtimes/ravenscar-stm32l5nucleo_s/sfp/adalib/libgnarl.a(s-bbtime.o)
 .debug_ranges  0x0000000000000c80       0x20 /home/hedley/ada/STM32/L/L562/hash/Ada_Drivers_Library/embedded-runtimes/ravenscar-stm32l5nucleo_s/sfp/adalib/libgnarl.a(s-bcpcst.o)
 .debug_ranges  0x0000000000000ca0       0x58 /home/hedley/ada/STM32/L/L562/hash/Ada_Drivers_Library/embedded-runtimes/ravenscar-stm32l5nucleo_s/sfp/adalib/libgnarl.a(s-taprob.o)
 .debug_ranges  0x0000000000000cf8      0x138 /home/hedley/ada/STM32/L/L562/hash/Ada_Drivers_Library/embedded-runtimes/ravenscar-stm32l5nucleo_s/sfp/adalib/libgnarl.a(s-tarest.o)
 .debug_ranges  0x0000000000000e30       0x10 /home/hedley/ada/STM32/L/L562/hash/Ada_Drivers_Library/embedded-runtimes/ravenscar-stm32l5nucleo_s/sfp/adalib/libgnarl.a(s-tasdeb.o)
 .debug_ranges  0x0000000000000e40      0x128 /home/hedley/ada/STM32/L/L562/hash/Ada_Drivers_Library/embedded-runtimes/ravenscar-stm32l5nucleo_s/sfp/adalib/libgnarl.a(s-taskin.o)
 .debug_ranges  0x0000000000000f68       0xc8 /home/hedley/ada/STM32/L/L562/hash/Ada_Drivers_Library/embedded-runtimes/ravenscar-stm32l5nucleo_s/sfp/adalib/libgnarl.a(s-tpobmu.o)
 .debug_ranges  0x0000000000001030       0x78 /home/hedley/ada/STM32/L/L562/hash/Ada_Drivers_Library/embedded-runtimes/ravenscar-stm32l5nucleo_s/sfp/adalib/libgnarl.a(s-bbprot.o)
 .debug_ranges  0x00000000000010a8      0x228 /home/hedley/ada/STM32/L/L562/hash/Ada_Drivers_Library/embedded-runtimes/ravenscar-stm32l5nucleo_s/sfp/adalib/libgnarl.a(s-bbthre.o)
 .debug_ranges  0x00000000000012d0       0xf0 /home/hedley/ada/STM32/L/L562/hash/Ada_Drivers_Library/embedded-runtimes/ravenscar-stm32l5nucleo_s/sfp/adalib/libgnarl.a(s-bbtiev.o)
 .debug_ranges  0x00000000000013c0      0x208 /home/hedley/ada/STM32/L/L562/hash/Ada_Drivers_Library/embedded-runtimes/ravenscar-stm32l5nucleo_s/sfp/adalib/libgnarl.a(s-taprop.o)
 .debug_ranges  0x00000000000015c8       0x10 /home/hedley/ada/STM32/L/L562/hash/Ada_Drivers_Library/embedded-runtimes/ravenscar-stm32l5nucleo_s/sfp/adalib/libgnat.a(a-elchha.o)
 .debug_ranges  0x00000000000015d8       0x48 /home/hedley/ada/STM32/L/L562/hash/Ada_Drivers_Library/embedded-runtimes/ravenscar-stm32l5nucleo_s/sfp/adalib/libgnat.a(g-io.o)
 .debug_ranges  0x0000000000001620       0x10 /home/hedley/ada/STM32/L/L562/hash/Ada_Drivers_Library/embedded-runtimes/ravenscar-stm32l5nucleo_s/sfp/adalib/libgnat.a(s-assert.o)
 .debug_ranges  0x0000000000001630       0x18 /home/hedley/ada/STM32/L/L562/hash/Ada_Drivers_Library/embedded-runtimes/ravenscar-stm32l5nucleo_s/sfp/adalib/libgnat.a(s-macres.o)
 .debug_ranges  0x0000000000001648       0x10 /home/hedley/ada/STM32/L/L562/hash/Ada_Drivers_Library/embedded-runtimes/ravenscar-stm32l5nucleo_s/sfp/adalib/libgnat.a(s-memcop.o)
 .debug_ranges  0x0000000000001658       0x10 /home/hedley/ada/STM32/L/L562/hash/Ada_Drivers_Library/embedded-runtimes/ravenscar-stm32l5nucleo_s/sfp/adalib/libgnat.a(s-memset.o)
 .debug_ranges  0x0000000000001668       0x10 /home/hedley/ada/STM32/L/L562/hash/Ada_Drivers_Library/embedded-runtimes/ravenscar-stm32l5nucleo_s/sfp/adalib/libgnat.a(s-parame.o)
 .debug_ranges  0x0000000000001678       0x60 /home/hedley/ada/STM32/L/L562/hash/Ada_Drivers_Library/embedded-runtimes/ravenscar-stm32l5nucleo_s/sfp/adalib/libgnat.a(s-secsta.o)
 .debug_ranges  0x00000000000016d8       0x38 /home/hedley/ada/STM32/L/L562/hash/Ada_Drivers_Library/embedded-runtimes/ravenscar-stm32l5nucleo_s/sfp/adalib/libgnat.a(s-textio.o)
 .debug_ranges  0x0000000000001710       0x28 /home/hedley/ada/STM32/L/L562/hash/Ada_Drivers_Library/embedded-runtimes/ravenscar-stm32l5nucleo_s/sfp/adalib/libgnat.a(setup_pll.o)
 .debug_ranges  0x0000000000001738       0x18 /home/hedley/ada/STM32/L/L562/hash/Ada_Drivers_Library/embedded-runtimes/ravenscar-stm32l5nucleo_s/sfp/adalib/libgnat.a(s-bbmcpa.o)

.comment        0x0000000000000000       0x3d
 .comment       0x0000000000000000       0x3d test_s.o
                                         0x3e (size before relaxing)
 .comment       0x000000000000003d       0x3e b__test_s.o
 .comment       0x000000000000003d       0x3e /home/hedley/ada/STM32/L/L562/hash/Ada_Drivers_Library/boards/lib/stm32l5discovery_s/ravenscar-sfp/Debug/libstm32l5discovery_s.a(stm32-board.o)
 .comment       0x000000000000003d       0x3e /home/hedley/ada/STM32/L/L562/hash/Ada_Drivers_Library/arch/ARM/STM32/lib/stm32l5nucleo_s/ravenscar-sfp/Debug/libstm32l5xx.a(stm32-device.o)
 .comment       0x000000000000003d       0x3e /home/hedley/ada/STM32/L/L562/hash/Ada_Drivers_Library/arch/ARM/STM32/lib/stm32l5nucleo_s/ravenscar-sfp/Debug/libstm32l5xx.a(stm32-exti.o)
 .comment       0x000000000000003d       0x3e /home/hedley/ada/STM32/L/L562/hash/Ada_Drivers_Library/arch/ARM/STM32/lib/stm32l5nucleo_s/ravenscar-sfp/Debug/libstm32l5xx.a(stm32-gpio.o)
 .comment       0x000000000000003d       0x3e /home/hedley/ada/STM32/L/L562/hash/Ada_Drivers_Library/arch/ARM/STM32/lib/stm32l5nucleo_s/ravenscar-sfp/Debug/libstm32l5xx.a(stm32-hash.o)
 .comment       0x000000000000003d       0x3e /home/hedley/ada/STM32/L/L562/hash/Ada_Drivers_Library/arch/ARM/STM32/lib/stm32l5nucleo_s/ravenscar-sfp/Debug/libstm32l5xx.a(stm32-mpu.o)
 .comment       0x000000000000003d       0x3e /home/hedley/ada/STM32/L/L562/hash/Ada_Drivers_Library/arch/ARM/STM32/lib/stm32l5nucleo_s/ravenscar-sfp/Debug/libstm32l5xx.a(stm32-rcc.o)
 .comment       0x000000000000003d       0x3e /home/hedley/ada/STM32/L/L562/hash/Ada_Drivers_Library/arch/ARM/STM32/lib/stm32l5nucleo_s/ravenscar-sfp/Debug/libstm32l5xx.a(stm32-sau.o)
 .comment       0x000000000000003d       0x3e /home/hedley/ada/STM32/L/L562/hash/Ada_Drivers_Library/arch/ARM/STM32/lib/stm32l5nucleo_s/ravenscar-sfp/Debug/libstm32l5xx.a(stm32-spi.o)
 .comment       0x000000000000003d       0x3e /home/hedley/ada/STM32/L/L562/hash/Ada_Drivers_Library/arch/ARM/STM32/lib/stm32l5nucleo_s/ravenscar-sfp/Debug/libstm32l5xx.a(stm32-syscfg.o)
 .comment       0x000000000000003d       0x3e /home/hedley/ada/STM32/L/L562/hash/Ada_Drivers_Library/arch/ARM/STM32/lib/stm32l5nucleo_s/ravenscar-sfp/Debug/libstm32l5xx.a(stm32_svd-spi.o)
 .comment       0x000000000000003d       0x3e /home/hedley/ada/Ada_Drivers_Library/hal/lib/stm32l5nucleo_s/ravenscar-sfp/Debug/libHAL.a(hal-gpio.o)
 .comment       0x000000000000003d       0x3e /home/hedley/ada/Ada_Drivers_Library/hal/lib/stm32l5nucleo_s/ravenscar-sfp/Debug/libHAL.a(hal-spi.o)
 .comment       0x000000000000003d       0x3e /home/hedley/ada/STM32/L/L562/hash/Ada_Drivers_Library/embedded-runtimes/ravenscar-stm32l5nucleo_s/sfp/adalib/libgnarl.a(a-reatim.o)
 .comment       0x000000000000003d       0x3e /home/hedley/ada/STM32/L/L562/hash/Ada_Drivers_Library/embedded-runtimes/ravenscar-stm32l5nucleo_s/sfp/adalib/libgnarl.a(s-bbbosu.o)
 .comment       0x000000000000003d       0x3e /home/hedley/ada/STM32/L/L562/hash/Ada_Drivers_Library/embedded-runtimes/ravenscar-stm32l5nucleo_s/sfp/adalib/libgnarl.a(s-bbcppr.o)
 .comment       0x000000000000003d       0x3e /home/hedley/ada/STM32/L/L562/hash/Ada_Drivers_Library/embedded-runtimes/ravenscar-stm32l5nucleo_s/sfp/adalib/libgnarl.a(s-bbinte.o)
 .comment       0x000000000000003d       0x3e /home/hedley/ada/STM32/L/L562/hash/Ada_Drivers_Library/embedded-runtimes/ravenscar-stm32l5nucleo_s/sfp/adalib/libgnarl.a(s-bbthqu.o)
 .comment       0x000000000000003d       0x3e /home/hedley/ada/STM32/L/L562/hash/Ada_Drivers_Library/embedded-runtimes/ravenscar-stm32l5nucleo_s/sfp/adalib/libgnarl.a(s-bbtime.o)
 .comment       0x000000000000003d       0x3e /home/hedley/ada/STM32/L/L562/hash/Ada_Drivers_Library/embedded-runtimes/ravenscar-stm32l5nucleo_s/sfp/adalib/libgnarl.a(s-bcpcst.o)
 .comment       0x000000000000003d       0x3e /home/hedley/ada/STM32/L/L562/hash/Ada_Drivers_Library/embedded-runtimes/ravenscar-stm32l5nucleo_s/sfp/adalib/libgnarl.a(s-taprob.o)
 .comment       0x000000000000003d       0x3e /home/hedley/ada/STM32/L/L562/hash/Ada_Drivers_Library/embedded-runtimes/ravenscar-stm32l5nucleo_s/sfp/adalib/libgnarl.a(s-tarest.o)
 .comment       0x000000000000003d       0x3e /home/hedley/ada/STM32/L/L562/hash/Ada_Drivers_Library/embedded-runtimes/ravenscar-stm32l5nucleo_s/sfp/adalib/libgnarl.a(s-tasdeb.o)
 .comment       0x000000000000003d       0x3e /home/hedley/ada/STM32/L/L562/hash/Ada_Drivers_Library/embedded-runtimes/ravenscar-stm32l5nucleo_s/sfp/adalib/libgnarl.a(s-taskin.o)
 .comment       0x000000000000003d       0x3e /home/hedley/ada/STM32/L/L562/hash/Ada_Drivers_Library/embedded-runtimes/ravenscar-stm32l5nucleo_s/sfp/adalib/libgnarl.a(s-tpobmu.o)
 .comment       0x000000000000003d       0x3e /home/hedley/ada/STM32/L/L562/hash/Ada_Drivers_Library/embedded-runtimes/ravenscar-stm32l5nucleo_s/sfp/adalib/libgnarl.a(s-bbprot.o)
 .comment       0x000000000000003d       0x3e /home/hedley/ada/STM32/L/L562/hash/Ada_Drivers_Library/embedded-runtimes/ravenscar-stm32l5nucleo_s/sfp/adalib/libgnarl.a(s-bbthre.o)
 .comment       0x000000000000003d       0x3e /home/hedley/ada/STM32/L/L562/hash/Ada_Drivers_Library/embedded-runtimes/ravenscar-stm32l5nucleo_s/sfp/adalib/libgnarl.a(s-bbtiev.o)
 .comment       0x000000000000003d       0x3e /home/hedley/ada/STM32/L/L562/hash/Ada_Drivers_Library/embedded-runtimes/ravenscar-stm32l5nucleo_s/sfp/adalib/libgnarl.a(s-taprop.o)
 .comment       0x000000000000003d       0x3e /home/hedley/ada/STM32/L/L562/hash/Ada_Drivers_Library/embedded-runtimes/ravenscar-stm32l5nucleo_s/sfp/adalib/libgnat.a(a-elchha.o)
 .comment       0x000000000000003d       0x3e /home/hedley/ada/STM32/L/L562/hash/Ada_Drivers_Library/embedded-runtimes/ravenscar-stm32l5nucleo_s/sfp/adalib/libgnat.a(a-except.o)
 .comment       0x000000000000003d       0x3e /home/hedley/ada/STM32/L/L562/hash/Ada_Drivers_Library/embedded-runtimes/ravenscar-stm32l5nucleo_s/sfp/adalib/libgnat.a(g-io.o)
 .comment       0x000000000000003d       0x3e /home/hedley/ada/STM32/L/L562/hash/Ada_Drivers_Library/embedded-runtimes/ravenscar-stm32l5nucleo_s/sfp/adalib/libgnat.a(s-assert.o)
 .comment       0x000000000000003d       0x3e /home/hedley/ada/STM32/L/L562/hash/Ada_Drivers_Library/embedded-runtimes/ravenscar-stm32l5nucleo_s/sfp/adalib/libgnat.a(s-macres.o)
 .comment       0x000000000000003d       0x3e /home/hedley/ada/STM32/L/L562/hash/Ada_Drivers_Library/embedded-runtimes/ravenscar-stm32l5nucleo_s/sfp/adalib/libgnat.a(s-memcop.o)
 .comment       0x000000000000003d       0x3e /home/hedley/ada/STM32/L/L562/hash/Ada_Drivers_Library/embedded-runtimes/ravenscar-stm32l5nucleo_s/sfp/adalib/libgnat.a(s-memset.o)
 .comment       0x000000000000003d       0x3e /home/hedley/ada/STM32/L/L562/hash/Ada_Drivers_Library/embedded-runtimes/ravenscar-stm32l5nucleo_s/sfp/adalib/libgnat.a(s-parame.o)
 .comment       0x000000000000003d       0x3e /home/hedley/ada/STM32/L/L562/hash/Ada_Drivers_Library/embedded-runtimes/ravenscar-stm32l5nucleo_s/sfp/adalib/libgnat.a(s-secsta.o)
 .comment       0x000000000000003d       0x3e /home/hedley/ada/STM32/L/L562/hash/Ada_Drivers_Library/embedded-runtimes/ravenscar-stm32l5nucleo_s/sfp/adalib/libgnat.a(s-textio.o)
 .comment       0x000000000000003d       0x3e /home/hedley/ada/STM32/L/L562/hash/Ada_Drivers_Library/embedded-runtimes/ravenscar-stm32l5nucleo_s/sfp/adalib/libgnat.a(setup_pll.o)
 .comment       0x000000000000003d       0x3e /home/hedley/ada/STM32/L/L562/hash/Ada_Drivers_Library/embedded-runtimes/ravenscar-stm32l5nucleo_s/sfp/adalib/libgnat.a(s-bbmcpa.o)

.ARM.attributes
                0x0000000000000000       0x3a
 .ARM.attributes
                0x0000000000000000       0x37 test_s.o
 .ARM.attributes
                0x0000000000000037       0x37 b__test_s.o
 .ARM.attributes
                0x000000000000006e       0x37 /home/hedley/ada/STM32/L/L562/hash/Ada_Drivers_Library/boards/lib/stm32l5discovery_s/ravenscar-sfp/Debug/libstm32l5discovery_s.a(stm32-board.o)
 .ARM.attributes
                0x00000000000000a5       0x37 /home/hedley/ada/STM32/L/L562/hash/Ada_Drivers_Library/arch/ARM/STM32/lib/stm32l5nucleo_s/ravenscar-sfp/Debug/libstm32l5xx.a(stm32-device.o)
 .ARM.attributes
                0x00000000000000dc       0x37 /home/hedley/ada/STM32/L/L562/hash/Ada_Drivers_Library/arch/ARM/STM32/lib/stm32l5nucleo_s/ravenscar-sfp/Debug/libstm32l5xx.a(stm32-exti.o)
 .ARM.attributes
                0x0000000000000113       0x37 /home/hedley/ada/STM32/L/L562/hash/Ada_Drivers_Library/arch/ARM/STM32/lib/stm32l5nucleo_s/ravenscar-sfp/Debug/libstm32l5xx.a(stm32-gpio.o)
 .ARM.attributes
                0x000000000000014a       0x37 /home/hedley/ada/STM32/L/L562/hash/Ada_Drivers_Library/arch/ARM/STM32/lib/stm32l5nucleo_s/ravenscar-sfp/Debug/libstm32l5xx.a(stm32-hash.o)
 .ARM.attributes
                0x0000000000000181       0x37 /home/hedley/ada/STM32/L/L562/hash/Ada_Drivers_Library/arch/ARM/STM32/lib/stm32l5nucleo_s/ravenscar-sfp/Debug/libstm32l5xx.a(stm32-mpu.o)
 .ARM.attributes
                0x00000000000001b8       0x37 /home/hedley/ada/STM32/L/L562/hash/Ada_Drivers_Library/arch/ARM/STM32/lib/stm32l5nucleo_s/ravenscar-sfp/Debug/libstm32l5xx.a(stm32-rcc.o)
 .ARM.attributes
                0x00000000000001ef       0x37 /home/hedley/ada/STM32/L/L562/hash/Ada_Drivers_Library/arch/ARM/STM32/lib/stm32l5nucleo_s/ravenscar-sfp/Debug/libstm32l5xx.a(stm32-sau.o)
 .ARM.attributes
                0x0000000000000226       0x37 /home/hedley/ada/STM32/L/L562/hash/Ada_Drivers_Library/arch/ARM/STM32/lib/stm32l5nucleo_s/ravenscar-sfp/Debug/libstm32l5xx.a(stm32-spi.o)
 .ARM.attributes
                0x000000000000025d       0x37 /home/hedley/ada/STM32/L/L562/hash/Ada_Drivers_Library/arch/ARM/STM32/lib/stm32l5nucleo_s/ravenscar-sfp/Debug/libstm32l5xx.a(stm32-syscfg.o)
 .ARM.attributes
                0x0000000000000294       0x37 /home/hedley/ada/STM32/L/L562/hash/Ada_Drivers_Library/arch/ARM/STM32/lib/stm32l5nucleo_s/ravenscar-sfp/Debug/libstm32l5xx.a(stm32_svd-spi.o)
 .ARM.attributes
                0x00000000000002cb       0x37 /home/hedley/ada/Ada_Drivers_Library/hal/lib/stm32l5nucleo_s/ravenscar-sfp/Debug/libHAL.a(hal-gpio.o)
 .ARM.attributes
                0x0000000000000302       0x37 /home/hedley/ada/Ada_Drivers_Library/hal/lib/stm32l5nucleo_s/ravenscar-sfp/Debug/libHAL.a(hal-spi.o)
 .ARM.attributes
                0x0000000000000339       0x37 /home/hedley/ada/STM32/L/L562/hash/Ada_Drivers_Library/embedded-runtimes/ravenscar-stm32l5nucleo_s/sfp/adalib/libgnarl.a(a-reatim.o)
 .ARM.attributes
                0x0000000000000370       0x37 /home/hedley/ada/STM32/L/L562/hash/Ada_Drivers_Library/embedded-runtimes/ravenscar-stm32l5nucleo_s/sfp/adalib/libgnarl.a(s-bbbosu.o)
 .ARM.attributes
                0x00000000000003a7       0x37 /home/hedley/ada/STM32/L/L562/hash/Ada_Drivers_Library/embedded-runtimes/ravenscar-stm32l5nucleo_s/sfp/adalib/libgnarl.a(s-bbcppr.o)
 .ARM.attributes
                0x00000000000003de       0x37 /home/hedley/ada/STM32/L/L562/hash/Ada_Drivers_Library/embedded-runtimes/ravenscar-stm32l5nucleo_s/sfp/adalib/libgnarl.a(s-bbinte.o)
 .ARM.attributes
                0x0000000000000415       0x37 /home/hedley/ada/STM32/L/L562/hash/Ada_Drivers_Library/embedded-runtimes/ravenscar-stm32l5nucleo_s/sfp/adalib/libgnarl.a(s-bbthqu.o)
 .ARM.attributes
                0x000000000000044c       0x37 /home/hedley/ada/STM32/L/L562/hash/Ada_Drivers_Library/embedded-runtimes/ravenscar-stm32l5nucleo_s/sfp/adalib/libgnarl.a(s-bbtime.o)
 .ARM.attributes
                0x0000000000000483       0x37 /home/hedley/ada/STM32/L/L562/hash/Ada_Drivers_Library/embedded-runtimes/ravenscar-stm32l5nucleo_s/sfp/adalib/libgnarl.a(s-bcpcst.o)
 .ARM.attributes
                0x00000000000004ba       0x37 /home/hedley/ada/STM32/L/L562/hash/Ada_Drivers_Library/embedded-runtimes/ravenscar-stm32l5nucleo_s/sfp/adalib/libgnarl.a(s-taprob.o)
 .ARM.attributes
                0x00000000000004f1       0x37 /home/hedley/ada/STM32/L/L562/hash/Ada_Drivers_Library/embedded-runtimes/ravenscar-stm32l5nucleo_s/sfp/adalib/libgnarl.a(s-tarest.o)
 .ARM.attributes
                0x0000000000000528       0x37 /home/hedley/ada/STM32/L/L562/hash/Ada_Drivers_Library/embedded-runtimes/ravenscar-stm32l5nucleo_s/sfp/adalib/libgnarl.a(s-tasdeb.o)
 .ARM.attributes
                0x000000000000055f       0x37 /home/hedley/ada/STM32/L/L562/hash/Ada_Drivers_Library/embedded-runtimes/ravenscar-stm32l5nucleo_s/sfp/adalib/libgnarl.a(s-taskin.o)
 .ARM.attributes
                0x0000000000000596       0x37 /home/hedley/ada/STM32/L/L562/hash/Ada_Drivers_Library/embedded-runtimes/ravenscar-stm32l5nucleo_s/sfp/adalib/libgnarl.a(s-tpobmu.o)
 .ARM.attributes
                0x00000000000005cd       0x37 /home/hedley/ada/STM32/L/L562/hash/Ada_Drivers_Library/embedded-runtimes/ravenscar-stm32l5nucleo_s/sfp/adalib/libgnarl.a(s-bbprot.o)
 .ARM.attributes
                0x0000000000000604       0x37 /home/hedley/ada/STM32/L/L562/hash/Ada_Drivers_Library/embedded-runtimes/ravenscar-stm32l5nucleo_s/sfp/adalib/libgnarl.a(s-bbthre.o)
 .ARM.attributes
                0x000000000000063b       0x37 /home/hedley/ada/STM32/L/L562/hash/Ada_Drivers_Library/embedded-runtimes/ravenscar-stm32l5nucleo_s/sfp/adalib/libgnarl.a(s-bbtiev.o)
 .ARM.attributes
                0x0000000000000672       0x37 /home/hedley/ada/STM32/L/L562/hash/Ada_Drivers_Library/embedded-runtimes/ravenscar-stm32l5nucleo_s/sfp/adalib/libgnarl.a(s-taprop.o)
 .ARM.attributes
                0x00000000000006a9       0x37 /home/hedley/ada/STM32/L/L562/hash/Ada_Drivers_Library/embedded-runtimes/ravenscar-stm32l5nucleo_s/sfp/adalib/libgnat.a(a-elchha.o)
 .ARM.attributes
                0x00000000000006e0       0x37 /home/hedley/ada/STM32/L/L562/hash/Ada_Drivers_Library/embedded-runtimes/ravenscar-stm32l5nucleo_s/sfp/adalib/libgnat.a(a-except.o)
 .ARM.attributes
                0x0000000000000717       0x37 /home/hedley/ada/STM32/L/L562/hash/Ada_Drivers_Library/embedded-runtimes/ravenscar-stm32l5nucleo_s/sfp/adalib/libgnat.a(g-io.o)
 .ARM.attributes
                0x000000000000074e       0x21 /home/hedley/ada/STM32/L/L562/hash/Ada_Drivers_Library/embedded-runtimes/ravenscar-stm32l5nucleo_s/sfp/adalib/libgnat.a(handler.o)
 .ARM.attributes
                0x000000000000076f       0x37 /home/hedley/ada/STM32/L/L562/hash/Ada_Drivers_Library/embedded-runtimes/ravenscar-stm32l5nucleo_s/sfp/adalib/libgnat.a(s-assert.o)
 .ARM.attributes
                0x00000000000007a6       0x37 /home/hedley/ada/STM32/L/L562/hash/Ada_Drivers_Library/embedded-runtimes/ravenscar-stm32l5nucleo_s/sfp/adalib/libgnat.a(s-macres.o)
 .ARM.attributes
                0x00000000000007dd       0x37 /home/hedley/ada/STM32/L/L562/hash/Ada_Drivers_Library/embedded-runtimes/ravenscar-stm32l5nucleo_s/sfp/adalib/libgnat.a(s-memcop.o)
 .ARM.attributes
                0x0000000000000814       0x37 /home/hedley/ada/STM32/L/L562/hash/Ada_Drivers_Library/embedded-runtimes/ravenscar-stm32l5nucleo_s/sfp/adalib/libgnat.a(s-memset.o)
 .ARM.attributes
                0x000000000000084b       0x37 /home/hedley/ada/STM32/L/L562/hash/Ada_Drivers_Library/embedded-runtimes/ravenscar-stm32l5nucleo_s/sfp/adalib/libgnat.a(s-parame.o)
 .ARM.attributes
                0x0000000000000882       0x37 /home/hedley/ada/STM32/L/L562/hash/Ada_Drivers_Library/embedded-runtimes/ravenscar-stm32l5nucleo_s/sfp/adalib/libgnat.a(s-secsta.o)
 .ARM.attributes
                0x00000000000008b9       0x37 /home/hedley/ada/STM32/L/L562/hash/Ada_Drivers_Library/embedded-runtimes/ravenscar-stm32l5nucleo_s/sfp/adalib/libgnat.a(s-textio.o)
 .ARM.attributes
                0x00000000000008f0       0x24 /home/hedley/ada/STM32/L/L562/hash/Ada_Drivers_Library/embedded-runtimes/ravenscar-stm32l5nucleo_s/sfp/adalib/libgnat.a(start-common.o)
 .ARM.attributes
                0x0000000000000914       0x21 /home/hedley/ada/STM32/L/L562/hash/Ada_Drivers_Library/embedded-runtimes/ravenscar-stm32l5nucleo_s/sfp/adalib/libgnat.a(start-ram.o)
 .ARM.attributes
                0x0000000000000935       0x37 /home/hedley/ada/STM32/L/L562/hash/Ada_Drivers_Library/embedded-runtimes/ravenscar-stm32l5nucleo_s/sfp/adalib/libgnat.a(setup_pll.o)
 .ARM.attributes
                0x000000000000096c       0x37 /home/hedley/ada/STM32/L/L562/hash/Ada_Drivers_Library/embedded-runtimes/ravenscar-stm32l5nucleo_s/sfp/adalib/libgnat.a(s-bbmcpa.o)

.gnu.attributes
 *(.gnu.attributes)

/DISCARD/
 *(.note.GNU-stack)
 *(.gnu_debuglink)
 *(.gnu.lto_*)
OUTPUT(test_s elf32-littlearm)
