
fonts_f103:     file format elf32-littlearm


Disassembly of section .text:

08000000 <__vectors0>:
 8000000:	200024d0 	.word	0x200024d0
 8000004:	08007f95 	.word	0x08007f95
 8000008:	08008088 	.word	0x08008088
 800000c:	08008088 	.word	0x08008088
 8000010:	08008088 	.word	0x08008088

08000014 <_ada_fonts_f103>:
 8000014:	e92d 4ff0 	stmdb	sp!, {r4, r5, r6, r7, r8, r9, sl, fp, lr}
 8000018:	b095      	sub	sp, #84	; 0x54
 800001a:	f001 ff5d 	bl	8001ed8 <ravenscar_time__delays>
 800001e:	2500      	movs	r5, #0
 8000020:	462c      	mov	r4, r5
 8000022:	4a78      	ldr	r2, [pc, #480]	; (8000204 <_ada_fonts_f103+0x1f0>)
 8000024:	4b78      	ldr	r3, [pc, #480]	; (8000208 <_ada_fonts_f103+0x1f4>)
 8000026:	4f79      	ldr	r7, [pc, #484]	; (800020c <_ada_fonts_f103+0x1f8>)
 8000028:	f8df b1f0 	ldr.w	fp, [pc, #496]	; 800021c <_ada_fonts_f103+0x208>
 800002c:	f8df 91f0 	ldr.w	r9, [pc, #496]	; 8000220 <_ada_fonts_f103+0x20c>
 8000030:	f8df a1f0 	ldr.w	sl, [pc, #496]	; 8000224 <_ada_fonts_f103+0x210>
 8000034:	2601      	movs	r6, #1
 8000036:	900f      	str	r0, [sp, #60]	; 0x3c
 8000038:	4875      	ldr	r0, [pc, #468]	; (8000210 <_ada_fonts_f103+0x1fc>)
 800003a:	920a      	str	r2, [sp, #40]	; 0x28
 800003c:	9311      	str	r3, [sp, #68]	; 0x44
 800003e:	970b      	str	r7, [sp, #44]	; 0x2c
 8000040:	f8cd b030 	str.w	fp, [sp, #48]	; 0x30
 8000044:	f8cd 9034 	str.w	r9, [sp, #52]	; 0x34
 8000048:	f8cd a038 	str.w	sl, [sp, #56]	; 0x38
 800004c:	f88d 6040 	strb.w	r6, [sp, #64]	; 0x40
 8000050:	9512      	str	r5, [sp, #72]	; 0x48
 8000052:	f003 f8eb 	bl	800322c <stm32__device__enable_clock__2>
 8000056:	486f      	ldr	r0, [pc, #444]	; (8000214 <_ada_fonts_f103+0x200>)
 8000058:	f003 f8e8 	bl	800322c <stm32__device__enable_clock__2>
 800005c:	486e      	ldr	r0, [pc, #440]	; (8000218 <_ada_fonts_f103+0x204>)
 800005e:	f003 f8e5 	bl	800322c <stm32__device__enable_clock__2>
 8000062:	4658      	mov	r0, fp
 8000064:	f003 f8e2 	bl	800322c <stm32__device__enable_clock__2>
 8000068:	4650      	mov	r0, sl
 800006a:	f003 f8df 	bl	800322c <stm32__device__enable_clock__2>
 800006e:	f365 240f 	bfi	r4, r5, #8, #8
 8000072:	4648      	mov	r0, r9
 8000074:	f003 f8da 	bl	800322c <stm32__device__enable_clock__2>
 8000078:	f04f 0802 	mov.w	r8, #2
 800007c:	4638      	mov	r0, r7
 800007e:	f365 641f 	bfi	r4, r5, #24, #8
 8000082:	f003 f937 	bl	80032f4 <stm32__device__enable_clock__9>
 8000086:	f368 4417 	bfi	r4, r8, #16, #8
 800008a:	4638      	mov	r0, r7
 800008c:	f368 0407 	bfi	r4, r8, #0, #8
 8000090:	f005 ffa2 	bl	8005fd8 <stm32__spi__enable>
 8000094:	4638      	mov	r0, r7
 8000096:	f003 f95d 	bl	8003354 <stm32__device__reset__8>
 800009a:	4621      	mov	r1, r4
 800009c:	485c      	ldr	r0, [pc, #368]	; (8000210 <_ada_fonts_f103+0x1fc>)
 800009e:	9405      	str	r4, [sp, #20]
 80000a0:	f005 fc46 	bl	8005930 <stm32__gpio__configure_io>
 80000a4:	4621      	mov	r1, r4
 80000a6:	485b      	ldr	r0, [pc, #364]	; (8000214 <_ada_fonts_f103+0x200>)
 80000a8:	9405      	str	r4, [sp, #20]
 80000aa:	f005 fc41 	bl	8005930 <stm32__gpio__configure_io>
 80000ae:	4621      	mov	r1, r4
 80000b0:	4859      	ldr	r0, [pc, #356]	; (8000218 <_ada_fonts_f103+0x204>)
 80000b2:	9405      	str	r4, [sp, #20]
 80000b4:	f005 fc3c 	bl	8005930 <stm32__gpio__configure_io>
 80000b8:	2307      	movs	r3, #7
 80000ba:	4638      	mov	r0, r7
 80000bc:	f8ad 3024 	strh.w	r3, [sp, #36]	; 0x24
 80000c0:	f366 0407 	bfi	r4, r6, #0, #8
 80000c4:	f88d 501d 	strb.w	r5, [sp, #29]
 80000c8:	f88d 6022 	strb.w	r6, [sp, #34]	; 0x22
 80000cc:	f88d 601f 	strb.w	r6, [sp, #31]
 80000d0:	f88d 5020 	strb.w	r5, [sp, #32]
 80000d4:	f88d 5023 	strb.w	r5, [sp, #35]	; 0x23
 80000d8:	f88d 5021 	strb.w	r5, [sp, #33]	; 0x21
 80000dc:	f88d 501c 	strb.w	r5, [sp, #28]
 80000e0:	f88d 501e 	strb.w	r5, [sp, #30]
 80000e4:	f005 ff7e 	bl	8005fe4 <stm32__spi__disable>
 80000e8:	a907      	add	r1, sp, #28
 80000ea:	4638      	mov	r0, r7
 80000ec:	f365 4417 	bfi	r4, r5, #16, #8
 80000f0:	f005 fed4 	bl	8005e9c <stm32__spi__configure>
 80000f4:	4638      	mov	r0, r7
 80000f6:	f005 ff6f 	bl	8005fd8 <stm32__spi__enable>
 80000fa:	4658      	mov	r0, fp
 80000fc:	4621      	mov	r1, r4
 80000fe:	9405      	str	r4, [sp, #20]
 8000100:	f005 fc16 	bl	8005930 <stm32__gpio__configure_io>
 8000104:	4650      	mov	r0, sl
 8000106:	4621      	mov	r1, r4
 8000108:	9405      	str	r4, [sp, #20]
 800010a:	f005 fc11 	bl	8005930 <stm32__gpio__configure_io>
 800010e:	4621      	mov	r1, r4
 8000110:	4648      	mov	r0, r9
 8000112:	9405      	str	r4, [sp, #20]
 8000114:	f005 fc0c 	bl	8005930 <stm32__gpio__configure_io>
 8000118:	a80a      	add	r0, sp, #40	; 0x28
 800011a:	f000 ff9f 	bl	800105c <st7735r__initialize>
 800011e:	a80a      	add	r0, sp, #40	; 0x28
 8000120:	4631      	mov	r1, r6
 8000122:	222c      	movs	r2, #44	; 0x2c
 8000124:	232d      	movs	r3, #45	; 0x2d
 8000126:	f000 fd89 	bl	8000c3c <st7735r__set_frame_rate_normal>
 800012a:	a80a      	add	r0, sp, #40	; 0x28
 800012c:	4631      	mov	r1, r6
 800012e:	222c      	movs	r2, #44	; 0x2c
 8000130:	232d      	movs	r3, #45	; 0x2d
 8000132:	f000 fdb7 	bl	8000ca4 <st7735r__set_frame_rate_idle>
 8000136:	222c      	movs	r2, #44	; 0x2c
 8000138:	232d      	movs	r3, #45	; 0x2d
 800013a:	a80a      	add	r0, sp, #40	; 0x28
 800013c:	4631      	mov	r1, r6
 800013e:	9201      	str	r2, [sp, #4]
 8000140:	9302      	str	r3, [sp, #8]
 8000142:	9600      	str	r6, [sp, #0]
 8000144:	f000 fe88 	bl	8000e58 <st7735r__set_frame_rate_partial_full>
 8000148:	a80a      	add	r0, sp, #40	; 0x28
 800014a:	4631      	mov	r1, r6
 800014c:	4632      	mov	r2, r6
 800014e:	4633      	mov	r3, r6
 8000150:	f000 ff00 	bl	8000f54 <st7735r__set_inversion_control>
 8000154:	a80a      	add	r0, sp, #40	; 0x28
 8000156:	4642      	mov	r2, r8
 8000158:	4643      	mov	r3, r8
 800015a:	2105      	movs	r1, #5
 800015c:	f8cd 8000 	str.w	r8, [sp]
 8000160:	f000 febc 	bl	8000edc <st7735r__set_power_control_1>
 8000164:	4633      	mov	r3, r6
 8000166:	a80a      	add	r0, sp, #40	; 0x28
 8000168:	4632      	mov	r2, r6
 800016a:	2103      	movs	r1, #3
 800016c:	f000 fe3e 	bl	8000dec <st7735r__set_power_control_2>
 8000170:	a80a      	add	r0, sp, #40	; 0x28
 8000172:	462a      	mov	r2, r5
 8000174:	210a      	movs	r1, #10
 8000176:	f000 fcf5 	bl	8000b64 <st7735r__set_power_control_3>
 800017a:	a80a      	add	r0, sp, #40	; 0x28
 800017c:	218a      	movs	r1, #138	; 0x8a
 800017e:	222a      	movs	r2, #42	; 0x2a
 8000180:	f000 fc8c 	bl	8000a9c <st7735r__set_power_control_4>
 8000184:	22ee      	movs	r2, #238	; 0xee
 8000186:	a80a      	add	r0, sp, #40	; 0x28
 8000188:	218a      	movs	r1, #138	; 0x8a
 800018a:	f000 fcb9 	bl	8000b00 <st7735r__set_power_control_5>
 800018e:	210e      	movs	r1, #14
 8000190:	a80a      	add	r0, sp, #40	; 0x28
 8000192:	f000 fc1f 	bl	80009d4 <st7735r__set_vcom>
 8000196:	a80a      	add	r0, sp, #40	; 0x28
 8000198:	f000 fb94 	bl	80008c4 <st7735r__display_inversion_off>
 800019c:	462a      	mov	r2, r5
 800019e:	462b      	mov	r3, r5
 80001a0:	a80a      	add	r0, sp, #40	; 0x28
 80001a2:	4629      	mov	r1, r5
 80001a4:	9600      	str	r6, [sp, #0]
 80001a6:	9601      	str	r6, [sp, #4]
 80001a8:	9502      	str	r5, [sp, #8]
 80001aa:	f000 ff11 	bl	8000fd0 <st7735r__set_memory_data_access>
 80001ae:	a80a      	add	r0, sp, #40	; 0x28
 80001b0:	4631      	mov	r1, r6
 80001b2:	f000 fd09 	bl	8000bc8 <st7735r__set_pixel_format>
 80001b6:	4629      	mov	r1, r5
 80001b8:	a80a      	add	r0, sp, #40	; 0x28
 80001ba:	f001 fd75 	bl	8001ca8 <st7735r__set_display>
 80001be:	a80a      	add	r0, sp, #40	; 0x28
 80001c0:	f000 fb30 	bl	8000824 <st7735r__turn_on>
 80001c4:	a80a      	add	r0, sp, #40	; 0x28
 80001c6:	f000 f9fb 	bl	80005c0 <st7735r__width>
 80001ca:	a80a      	add	r0, sp, #40	; 0x28
 80001cc:	f000 f9fa 	bl	80005c4 <st7735r__height>
 80001d0:	a80a      	add	r0, sp, #40	; 0x28
 80001d2:	f000 f9f5 	bl	80005c0 <st7735r__width>
 80001d6:	a80a      	add	r0, sp, #40	; 0x28
 80001d8:	f000 f9f4 	bl	80005c4 <st7735r__height>
 80001dc:	2364      	movs	r3, #100	; 0x64
 80001de:	210a      	movs	r1, #10
 80001e0:	f44f 4278 	mov.w	r2, #63488	; 0xf800
 80001e4:	a80a      	add	r0, sp, #40	; 0x28
 80001e6:	9300      	str	r3, [sp, #0]
 80001e8:	9201      	str	r2, [sp, #4]
 80001ea:	460a      	mov	r2, r1
 80001ec:	f001 fbe8 	bl	80019c0 <st7735r__drawrect>
 80001f0:	231f      	movs	r3, #31
 80001f2:	2114      	movs	r1, #20
 80001f4:	9300      	str	r3, [sp, #0]
 80001f6:	9501      	str	r5, [sp, #4]
 80001f8:	a80a      	add	r0, sp, #40	; 0x28
 80001fa:	460a      	mov	r2, r1
 80001fc:	2348      	movs	r3, #72	; 0x48
 80001fe:	f000 f8af 	bl	8000360 <fonts__drawchar>
 8000202:	e7fe      	b.n	8000202 <_ada_fonts_f103+0x1ee>
 8000204:	08009c60 	.word	0x08009c60
 8000208:	08009d30 	.word	0x08009d30
 800020c:	2000073c 	.word	0x2000073c
 8000210:	20000484 	.word	0x20000484
 8000214:	2000049c 	.word	0x2000049c
 8000218:	20000490 	.word	0x20000490
 800021c:	20000478 	.word	0x20000478
 8000220:	20000460 	.word	0x20000460
 8000224:	2000046c 	.word	0x2000046c

08000228 <adainit>:
 8000228:	b508      	push	{r3, lr}
 800022a:	f007 ffa9 	bl	8008180 <ada__text_io___elabb>
 800022e:	4a33      	ldr	r2, [pc, #204]	; (80002fc <adainit+0xd4>)
 8000230:	8813      	ldrh	r3, [r2, #0]
 8000232:	3301      	adds	r3, #1
 8000234:	b29b      	uxth	r3, r3
 8000236:	8013      	strh	r3, [r2, #0]
 8000238:	f006 fde2 	bl	8006e00 <ada__real_time___elabb>
 800023c:	4930      	ldr	r1, [pc, #192]	; (8000300 <adainit+0xd8>)
 800023e:	4a31      	ldr	r2, [pc, #196]	; (8000304 <adainit+0xdc>)
 8000240:	880b      	ldrh	r3, [r1, #0]
 8000242:	3301      	adds	r3, #1
 8000244:	b29b      	uxth	r3, r3
 8000246:	800b      	strh	r3, [r1, #0]
 8000248:	8813      	ldrh	r3, [r2, #0]
 800024a:	3301      	adds	r3, #1
 800024c:	b29b      	uxth	r3, r3
 800024e:	8013      	strh	r3, [r2, #0]
 8000250:	f001 fe46 	bl	8001ee0 <ravenscar_time___elabb>
 8000254:	4a2c      	ldr	r2, [pc, #176]	; (8000308 <adainit+0xe0>)
 8000256:	482d      	ldr	r0, [pc, #180]	; (800030c <adainit+0xe4>)
 8000258:	8813      	ldrh	r3, [r2, #0]
 800025a:	492d      	ldr	r1, [pc, #180]	; (8000310 <adainit+0xe8>)
 800025c:	3301      	adds	r3, #1
 800025e:	b29b      	uxth	r3, r3
 8000260:	8013      	strh	r3, [r2, #0]
 8000262:	8803      	ldrh	r3, [r0, #0]
 8000264:	4a2b      	ldr	r2, [pc, #172]	; (8000314 <adainit+0xec>)
 8000266:	3301      	adds	r3, #1
 8000268:	b29b      	uxth	r3, r3
 800026a:	8003      	strh	r3, [r0, #0]
 800026c:	880b      	ldrh	r3, [r1, #0]
 800026e:	3301      	adds	r3, #1
 8000270:	b29b      	uxth	r3, r3
 8000272:	800b      	strh	r3, [r1, #0]
 8000274:	8813      	ldrh	r3, [r2, #0]
 8000276:	3301      	adds	r3, #1
 8000278:	b29b      	uxth	r3, r3
 800027a:	8013      	strh	r3, [r2, #0]
 800027c:	f006 fd28 	bl	8006cd0 <stm32__adc___elabs>
 8000280:	4925      	ldr	r1, [pc, #148]	; (8000318 <adainit+0xf0>)
 8000282:	4a26      	ldr	r2, [pc, #152]	; (800031c <adainit+0xf4>)
 8000284:	880b      	ldrh	r3, [r1, #0]
 8000286:	4826      	ldr	r0, [pc, #152]	; (8000320 <adainit+0xf8>)
 8000288:	3301      	adds	r3, #1
 800028a:	b29b      	uxth	r3, r3
 800028c:	800b      	strh	r3, [r1, #0]
 800028e:	8813      	ldrh	r3, [r2, #0]
 8000290:	4924      	ldr	r1, [pc, #144]	; (8000324 <adainit+0xfc>)
 8000292:	3301      	adds	r3, #1
 8000294:	b29b      	uxth	r3, r3
 8000296:	8013      	strh	r3, [r2, #0]
 8000298:	8803      	ldrh	r3, [r0, #0]
 800029a:	4a23      	ldr	r2, [pc, #140]	; (8000328 <adainit+0x100>)
 800029c:	3301      	adds	r3, #1
 800029e:	b29b      	uxth	r3, r3
 80002a0:	8003      	strh	r3, [r0, #0]
 80002a2:	880b      	ldrh	r3, [r1, #0]
 80002a4:	3301      	adds	r3, #1
 80002a6:	b29b      	uxth	r3, r3
 80002a8:	800b      	strh	r3, [r1, #0]
 80002aa:	8813      	ldrh	r3, [r2, #0]
 80002ac:	3301      	adds	r3, #1
 80002ae:	b29b      	uxth	r3, r3
 80002b0:	8013      	strh	r3, [r2, #0]
 80002b2:	f003 f8e1 	bl	8003478 <stm32__device___elabs>
 80002b6:	481d      	ldr	r0, [pc, #116]	; (800032c <adainit+0x104>)
 80002b8:	491d      	ldr	r1, [pc, #116]	; (8000330 <adainit+0x108>)
 80002ba:	8803      	ldrh	r3, [r0, #0]
 80002bc:	4a1d      	ldr	r2, [pc, #116]	; (8000334 <adainit+0x10c>)
 80002be:	3301      	adds	r3, #1
 80002c0:	b29b      	uxth	r3, r3
 80002c2:	8003      	strh	r3, [r0, #0]
 80002c4:	880b      	ldrh	r3, [r1, #0]
 80002c6:	481c      	ldr	r0, [pc, #112]	; (8000338 <adainit+0x110>)
 80002c8:	3301      	adds	r3, #1
 80002ca:	b29b      	uxth	r3, r3
 80002cc:	800b      	strh	r3, [r1, #0]
 80002ce:	8813      	ldrh	r3, [r2, #0]
 80002d0:	491a      	ldr	r1, [pc, #104]	; (800033c <adainit+0x114>)
 80002d2:	3301      	adds	r3, #1
 80002d4:	b29b      	uxth	r3, r3
 80002d6:	8013      	strh	r3, [r2, #0]
 80002d8:	8803      	ldrh	r3, [r0, #0]
 80002da:	4a19      	ldr	r2, [pc, #100]	; (8000340 <adainit+0x118>)
 80002dc:	3301      	adds	r3, #1
 80002de:	b29b      	uxth	r3, r3
 80002e0:	8003      	strh	r3, [r0, #0]
 80002e2:	880b      	ldrh	r3, [r1, #0]
 80002e4:	3301      	adds	r3, #1
 80002e6:	b29b      	uxth	r3, r3
 80002e8:	800b      	strh	r3, [r1, #0]
 80002ea:	8813      	ldrh	r3, [r2, #0]
 80002ec:	3301      	adds	r3, #1
 80002ee:	b29b      	uxth	r3, r3
 80002f0:	8013      	strh	r3, [r2, #0]
 80002f2:	e8bd 4008 	ldmia.w	sp!, {r3, lr}
 80002f6:	f006 bd85 	b.w	8006e04 <__gnat_start_slave_cpus>
 80002fa:	bf00      	nop
 80002fc:	200003d0 	.word	0x200003d0
 8000300:	20000372 	.word	0x20000372
 8000304:	20000308 	.word	0x20000308
 8000308:	20000306 	.word	0x20000306
 800030c:	2000030a 	.word	0x2000030a
 8000310:	20000304 	.word	0x20000304
 8000314:	20000300 	.word	0x20000300
 8000318:	2000036c 	.word	0x2000036c
 800031c:	20000370 	.word	0x20000370
 8000320:	2000036e 	.word	0x2000036e
 8000324:	20000366 	.word	0x20000366
 8000328:	20000368 	.word	0x20000368
 800032c:	20000328 	.word	0x20000328
 8000330:	20000360 	.word	0x20000360
 8000334:	2000036a 	.word	0x2000036a
 8000338:	20000362 	.word	0x20000362
 800033c:	20000364 	.word	0x20000364
 8000340:	20000302 	.word	0x20000302

08000344 <main>:
 8000344:	b500      	push	{lr}
 8000346:	4b05      	ldr	r3, [pc, #20]	; (800035c <main+0x18>)
 8000348:	b083      	sub	sp, #12
 800034a:	9301      	str	r3, [sp, #4]
 800034c:	f7ff ff6c 	bl	8000228 <adainit>
 8000350:	f7ff fe60 	bl	8000014 <_ada_fonts_f103>
 8000354:	b003      	add	sp, #12
 8000356:	f85d fb04 	ldr.w	pc, [sp], #4
 800035a:	bf00      	nop
 800035c:	0800926c 	.word	0x0800926c

08000360 <fonts__drawchar>:
 8000360:	e92d 4ff0 	stmdb	sp!, {r4, r5, r6, r7, r8, r9, sl, fp, lr}
 8000364:	b25b      	sxtb	r3, r3
 8000366:	4c53      	ldr	r4, [pc, #332]	; (80004b4 <fonts__drawchar+0x154>)
 8000368:	b087      	sub	sp, #28
 800036a:	4f53      	ldr	r7, [pc, #332]	; (80004b8 <fonts__drawchar+0x158>)
 800036c:	f103 5500 	add.w	r5, r3, #536870912	; 0x20000000
 8000370:	3d20      	subs	r5, #32
 8000372:	4423      	add	r3, r4
 8000374:	f8bd 6040 	ldrh.w	r6, [sp, #64]	; 0x40
 8000378:	f8bd e044 	ldrh.w	lr, [sp, #68]	; 0x44
 800037c:	4614      	mov	r4, r2
 800037e:	f813 2c20 	ldrb.w	r2, [r3, #-32]
 8000382:	f857 3035 	ldr.w	r3, [r7, r5, lsl #3]
 8000386:	eb07 0cc5 	add.w	ip, r7, r5, lsl #3
 800038a:	4576      	cmp	r6, lr
 800038c:	f8dc a004 	ldr.w	sl, [ip, #4]
 8000390:	9303      	str	r3, [sp, #12]
 8000392:	4607      	mov	r7, r0
 8000394:	4688      	mov	r8, r1
 8000396:	d009      	beq.n	80003ac <fonts__drawchar+0x4c>
 8000398:	f104 0310 	add.w	r3, r4, #16
 800039c:	b29b      	uxth	r3, r3
 800039e:	440a      	add	r2, r1
 80003a0:	e88d 4008 	stmia.w	sp, {r3, lr}
 80003a4:	b292      	uxth	r2, r2
 80003a6:	4623      	mov	r3, r4
 80003a8:	f001 fa0c 	bl	80017c4 <st7735r__fill_region>
 80003ac:	f108 0301 	add.w	r3, r8, #1
 80003b0:	f104 0c01 	add.w	ip, r4, #1
 80003b4:	b29b      	uxth	r3, r3
 80003b6:	fa1f fb8c 	uxth.w	fp, ip
 80003ba:	9304      	str	r3, [sp, #16]
 80003bc:	f108 0302 	add.w	r3, r8, #2
 80003c0:	9305      	str	r3, [sp, #20]
 80003c2:	465b      	mov	r3, fp
 80003c4:	3411      	adds	r4, #17
 80003c6:	fa1f f984 	uxth.w	r9, r4
 80003ca:	46cb      	mov	fp, r9
 80003cc:	2501      	movs	r5, #1
 80003ce:	4699      	mov	r9, r3
 80003d0:	e015      	b.n	80003fe <fonts__drawchar+0x9e>
 80003d2:	0661      	lsls	r1, r4, #25
 80003d4:	d422      	bmi.n	800041c <fonts__drawchar+0xbc>
 80003d6:	06a2      	lsls	r2, r4, #26
 80003d8:	d428      	bmi.n	800042c <fonts__drawchar+0xcc>
 80003da:	06e3      	lsls	r3, r4, #27
 80003dc:	d42f      	bmi.n	800043e <fonts__drawchar+0xde>
 80003de:	0720      	lsls	r0, r4, #28
 80003e0:	d437      	bmi.n	8000452 <fonts__drawchar+0xf2>
 80003e2:	0761      	lsls	r1, r4, #29
 80003e4:	d43f      	bmi.n	8000466 <fonts__drawchar+0x106>
 80003e6:	07a2      	lsls	r2, r4, #30
 80003e8:	d447      	bmi.n	800047a <fonts__drawchar+0x11a>
 80003ea:	07e3      	lsls	r3, r4, #31
 80003ec:	d44f      	bmi.n	800048e <fonts__drawchar+0x12e>
 80003ee:	f109 0c01 	add.w	ip, r9, #1
 80003f2:	fa1f f98c 	uxth.w	r9, ip
 80003f6:	45d9      	cmp	r9, fp
 80003f8:	f105 0501 	add.w	r5, r5, #1
 80003fc:	d057      	beq.n	80004ae <fonts__drawchar+0x14e>
 80003fe:	f8da 3000 	ldr.w	r3, [sl]
 8000402:	9a03      	ldr	r2, [sp, #12]
 8000404:	1aeb      	subs	r3, r5, r3
 8000406:	5cd4      	ldrb	r4, [r2, r3]
 8000408:	0620      	lsls	r0, r4, #24
 800040a:	d5e2      	bpl.n	80003d2 <fonts__drawchar+0x72>
 800040c:	4641      	mov	r1, r8
 800040e:	4638      	mov	r0, r7
 8000410:	464a      	mov	r2, r9
 8000412:	4633      	mov	r3, r6
 8000414:	f000 ff4c 	bl	80012b0 <st7735r__set_pixel>
 8000418:	0661      	lsls	r1, r4, #25
 800041a:	d5dc      	bpl.n	80003d6 <fonts__drawchar+0x76>
 800041c:	464a      	mov	r2, r9
 800041e:	4638      	mov	r0, r7
 8000420:	9904      	ldr	r1, [sp, #16]
 8000422:	4633      	mov	r3, r6
 8000424:	f000 ff44 	bl	80012b0 <st7735r__set_pixel>
 8000428:	06a2      	lsls	r2, r4, #26
 800042a:	d5d6      	bpl.n	80003da <fonts__drawchar+0x7a>
 800042c:	4633      	mov	r3, r6
 800042e:	4638      	mov	r0, r7
 8000430:	f8bd 1014 	ldrh.w	r1, [sp, #20]
 8000434:	464a      	mov	r2, r9
 8000436:	f000 ff3b 	bl	80012b0 <st7735r__set_pixel>
 800043a:	06e3      	lsls	r3, r4, #27
 800043c:	d5cf      	bpl.n	80003de <fonts__drawchar+0x7e>
 800043e:	f108 0103 	add.w	r1, r8, #3
 8000442:	4638      	mov	r0, r7
 8000444:	b289      	uxth	r1, r1
 8000446:	464a      	mov	r2, r9
 8000448:	4633      	mov	r3, r6
 800044a:	f000 ff31 	bl	80012b0 <st7735r__set_pixel>
 800044e:	0720      	lsls	r0, r4, #28
 8000450:	d5c7      	bpl.n	80003e2 <fonts__drawchar+0x82>
 8000452:	f108 0104 	add.w	r1, r8, #4
 8000456:	b289      	uxth	r1, r1
 8000458:	4638      	mov	r0, r7
 800045a:	464a      	mov	r2, r9
 800045c:	4633      	mov	r3, r6
 800045e:	f000 ff27 	bl	80012b0 <st7735r__set_pixel>
 8000462:	0761      	lsls	r1, r4, #29
 8000464:	d5bf      	bpl.n	80003e6 <fonts__drawchar+0x86>
 8000466:	f108 0105 	add.w	r1, r8, #5
 800046a:	464a      	mov	r2, r9
 800046c:	b289      	uxth	r1, r1
 800046e:	4638      	mov	r0, r7
 8000470:	4633      	mov	r3, r6
 8000472:	f000 ff1d 	bl	80012b0 <st7735r__set_pixel>
 8000476:	07a2      	lsls	r2, r4, #30
 8000478:	d5b7      	bpl.n	80003ea <fonts__drawchar+0x8a>
 800047a:	f108 0106 	add.w	r1, r8, #6
 800047e:	4633      	mov	r3, r6
 8000480:	b289      	uxth	r1, r1
 8000482:	4638      	mov	r0, r7
 8000484:	464a      	mov	r2, r9
 8000486:	f000 ff13 	bl	80012b0 <st7735r__set_pixel>
 800048a:	07e3      	lsls	r3, r4, #31
 800048c:	d5af      	bpl.n	80003ee <fonts__drawchar+0x8e>
 800048e:	f108 0107 	add.w	r1, r8, #7
 8000492:	464a      	mov	r2, r9
 8000494:	b289      	uxth	r1, r1
 8000496:	4638      	mov	r0, r7
 8000498:	4633      	mov	r3, r6
 800049a:	f000 ff09 	bl	80012b0 <st7735r__set_pixel>
 800049e:	f109 0c01 	add.w	ip, r9, #1
 80004a2:	fa1f f98c 	uxth.w	r9, ip
 80004a6:	45d9      	cmp	r9, fp
 80004a8:	f105 0501 	add.w	r5, r5, #1
 80004ac:	d1a7      	bne.n	80003fe <fonts__drawchar+0x9e>
 80004ae:	b007      	add	sp, #28
 80004b0:	e8bd 8ff0 	ldmia.w	sp!, {r4, r5, r6, r7, r8, r9, sl, fp, pc}
 80004b4:	080099ec 	.word	0x080099ec
 80004b8:	20000000 	.word	0x20000000
 80004bc:	00000000 	.word	0x00000000

080004c0 <__gnat_last_chance_handler>:
 80004c0:	b508      	push	{r3, lr}
 80004c2:	f000 f82b 	bl	800051c <stm32__board__initialize_leds>
 80004c6:	f000 f843 	bl	8000550 <stm32__board__all_leds_off>
 80004ca:	4c13      	ldr	r4, [pc, #76]	; (8000518 <__gnat_last_chance_handler+0x58>)
 80004cc:	6862      	ldr	r2, [r4, #4]
 80004ce:	6913      	ldr	r3, [r2, #16]
 80004d0:	8921      	ldrh	r1, [r4, #8]
 80004d2:	f361 431f 	bfi	r3, r1, #16, #16
 80004d6:	6113      	str	r3, [r2, #16]
 80004d8:	f006 fc66 	bl	8006da8 <ada__real_time__clock>
 80004dc:	a30c      	add	r3, pc, #48	; (adr r3, 8000510 <__gnat_last_chance_handler+0x50>)
 80004de:	e9d3 2300 	ldrd	r2, r3, [r3]
 80004e2:	f006 fc07 	bl	8006cf4 <ada__real_time__Oadd>
 80004e6:	f007 f839 	bl	800755c <ada__real_time__delays__delay_until>
 80004ea:	6862      	ldr	r2, [r4, #4]
 80004ec:	6913      	ldr	r3, [r2, #16]
 80004ee:	8921      	ldrh	r1, [r4, #8]
 80004f0:	f361 030f 	bfi	r3, r1, #0, #16
 80004f4:	6113      	str	r3, [r2, #16]
 80004f6:	f006 fc57 	bl	8006da8 <ada__real_time__clock>
 80004fa:	a305      	add	r3, pc, #20	; (adr r3, 8000510 <__gnat_last_chance_handler+0x50>)
 80004fc:	e9d3 2300 	ldrd	r2, r3, [r3]
 8000500:	f006 fbf8 	bl	8006cf4 <ada__real_time__Oadd>
 8000504:	f007 f82a 	bl	800755c <ada__real_time__delays__delay_until>
 8000508:	e7e0      	b.n	80004cc <__gnat_last_chance_handler+0xc>
 800050a:	bf00      	nop
 800050c:	f3af 8000 	nop.w
 8000510:	02255100 	.word	0x02255100
 8000514:	00000000 	.word	0x00000000
 8000518:	200005fc 	.word	0x200005fc

0800051c <stm32__board__initialize_leds>:
 800051c:	b510      	push	{r4, lr}
 800051e:	4c0b      	ldr	r4, [pc, #44]	; (800054c <stm32__board__initialize_leds+0x30>)
 8000520:	b082      	sub	sp, #8
 8000522:	4620      	mov	r0, r4
 8000524:	f002 fe82 	bl	800322c <stm32__device__enable_clock__2>
 8000528:	2201      	movs	r2, #1
 800052a:	2300      	movs	r3, #0
 800052c:	f362 0307 	bfi	r3, r2, #0, #8
 8000530:	f36f 230f 	bfc	r3, #8, #8
 8000534:	f36f 4317 	bfc	r3, #16, #8
 8000538:	f36f 631f 	bfc	r3, #24, #8
 800053c:	4620      	mov	r0, r4
 800053e:	4619      	mov	r1, r3
 8000540:	9301      	str	r3, [sp, #4]
 8000542:	f005 f9f5 	bl	8005930 <stm32__gpio__configure_io>
 8000546:	b002      	add	sp, #8
 8000548:	bd10      	pop	{r4, pc}
 800054a:	bf00      	nop
 800054c:	200005fc 	.word	0x200005fc

08000550 <stm32__board__all_leds_off>:
 8000550:	4903      	ldr	r1, [pc, #12]	; (8000560 <stm32__board__all_leds_off+0x10>)
 8000552:	684a      	ldr	r2, [r1, #4]
 8000554:	6913      	ldr	r3, [r2, #16]
 8000556:	8909      	ldrh	r1, [r1, #8]
 8000558:	f361 030f 	bfi	r3, r1, #0, #16
 800055c:	6113      	str	r3, [r2, #16]
 800055e:	4770      	bx	lr
 8000560:	200005fc 	.word	0x200005fc

08000564 <st7735r___size__4>:
 8000564:	2060      	movs	r0, #96	; 0x60
 8000566:	2100      	movs	r1, #0
 8000568:	4770      	bx	lr
 800056a:	bf00      	nop

0800056c <st7735r___assign__2>:
 800056c:	4603      	mov	r3, r0
 800056e:	c907      	ldmia	r1, {r0, r1, r2}
 8000570:	b410      	push	{r4}
 8000572:	681c      	ldr	r4, [r3, #0]
 8000574:	e883 0007 	stmia.w	r3, {r0, r1, r2}
 8000578:	601c      	str	r4, [r3, #0]
 800057a:	f85d 4b04 	ldr.w	r4, [sp], #4
 800057e:	4770      	bx	lr

08000580 <st7735r___size__5>:
 8000580:	f44f 70a0 	mov.w	r0, #320	; 0x140
 8000584:	2100      	movs	r1, #0
 8000586:	4770      	bx	lr

08000588 <st7735r__width__3>:
 8000588:	2080      	movs	r0, #128	; 0x80
 800058a:	4770      	bx	lr

0800058c <st7735r__height__3>:
 800058c:	20a0      	movs	r0, #160	; 0xa0
 800058e:	4770      	bx	lr

08000590 <st7735r__swapped__3>:
 8000590:	2000      	movs	r0, #0
 8000592:	4770      	bx	lr

08000594 <st7735r__color_mode__3>:
 8000594:	2002      	movs	r0, #2
 8000596:	4770      	bx	lr

08000598 <st7735r__mapped_in_ram__2>:
 8000598:	2000      	movs	r0, #0
 800059a:	4770      	bx	lr

0800059c <st7735r__memory_address__2>:
 800059c:	2000      	movs	r0, #0
 800059e:	4770      	bx	lr

080005a0 <st7735r__buffer_size__2>:
 80005a0:	2000      	movs	r0, #0
 80005a2:	4770      	bx	lr

080005a4 <st7735r__initialized>:
 80005a4:	7e00      	ldrb	r0, [r0, #24]
 80005a6:	4770      	bx	lr

080005a8 <st7735r__max_layers>:
 80005a8:	2001      	movs	r0, #1
 80005aa:	4770      	bx	lr

080005ac <st7735r__supported>:
 80005ac:	f1a1 0002 	sub.w	r0, r1, #2
 80005b0:	fab0 f080 	clz	r0, r0
 80005b4:	0940      	lsrs	r0, r0, #5
 80005b6:	4770      	bx	lr

080005b8 <st7735r__set_orientation>:
 80005b8:	4770      	bx	lr
 80005ba:	bf00      	nop

080005bc <st7735r__set_mode>:
 80005bc:	4770      	bx	lr
 80005be:	bf00      	nop

080005c0 <st7735r__width>:
 80005c0:	2080      	movs	r0, #128	; 0x80
 80005c2:	4770      	bx	lr

080005c4 <st7735r__height>:
 80005c4:	20a0      	movs	r0, #160	; 0xa0
 80005c6:	4770      	bx	lr

080005c8 <st7735r__swapped>:
 80005c8:	2000      	movs	r0, #0
 80005ca:	4770      	bx	lr

080005cc <st7735r__initialized__2>:
 80005cc:	f1a1 0001 	sub.w	r0, r1, #1
 80005d0:	fab0 f080 	clz	r0, r0
 80005d4:	0940      	lsrs	r0, r0, #5
 80005d6:	4770      	bx	lr

080005d8 <st7735r__update_layers>:
 80005d8:	4770      	bx	lr
 80005da:	bf00      	nop

080005dc <st7735r__pixel_size>:
 80005dc:	2010      	movs	r0, #16
 80005de:	4770      	bx	lr

080005e0 <st7735r__set_source__3>:
 80005e0:	6081      	str	r1, [r0, #8]
 80005e2:	4770      	bx	lr

080005e4 <st7735r__source__3>:
 80005e4:	6880      	ldr	r0, [r0, #8]
 80005e6:	4770      	bx	lr

080005e8 <st7735r__set_pixel__5>:
 80005e8:	460a      	mov	r2, r1
 80005ea:	b410      	push	{r4}
 80005ec:	6841      	ldr	r1, [r0, #4]
 80005ee:	8903      	ldrh	r3, [r0, #8]
 80005f0:	680c      	ldr	r4, [r1, #0]
 80005f2:	4608      	mov	r0, r1
 80005f4:	f8d4 4094 	ldr.w	r4, [r4, #148]	; 0x94
 80005f8:	8811      	ldrh	r1, [r2, #0]
 80005fa:	46a4      	mov	ip, r4
 80005fc:	8892      	ldrh	r2, [r2, #4]
 80005fe:	f85d 4b04 	ldr.w	r4, [sp], #4
 8000602:	4760      	bx	ip

08000604 <st7735r__set_pixel_blend__2>:
 8000604:	460a      	mov	r2, r1
 8000606:	b410      	push	{r4}
 8000608:	6841      	ldr	r1, [r0, #4]
 800060a:	8903      	ldrh	r3, [r0, #8]
 800060c:	680c      	ldr	r4, [r1, #0]
 800060e:	4608      	mov	r0, r1
 8000610:	f8d4 4094 	ldr.w	r4, [r4, #148]	; 0x94
 8000614:	8811      	ldrh	r1, [r2, #0]
 8000616:	46a4      	mov	ip, r4
 8000618:	8892      	ldrh	r2, [r2, #4]
 800061a:	f85d 4b04 	ldr.w	r4, [sp], #4
 800061e:	4760      	bx	ip

08000620 <st7735r__pixel__4>:
 8000620:	460b      	mov	r3, r1
 8000622:	b510      	push	{r4, lr}
 8000624:	6840      	ldr	r0, [r0, #4]
 8000626:	8809      	ldrh	r1, [r1, #0]
 8000628:	6802      	ldr	r2, [r0, #0]
 800062a:	f8d2 4098 	ldr.w	r4, [r2, #152]	; 0x98
 800062e:	889a      	ldrh	r2, [r3, #4]
 8000630:	47a0      	blx	r4
 8000632:	bd10      	pop	{r4, pc}

08000634 <st7735r__Oeq__2>:
 8000634:	b538      	push	{r3, r4, r5, lr}
 8000636:	4605      	mov	r5, r0
 8000638:	460c      	mov	r4, r1
 800063a:	f001 fd5b 	bl	80020f4 <soft_drawing_bitmap__Oeq>
 800063e:	b120      	cbz	r0, 800064a <st7735r__Oeq__2+0x16>
 8000640:	686a      	ldr	r2, [r5, #4]
 8000642:	6863      	ldr	r3, [r4, #4]
 8000644:	429a      	cmp	r2, r3
 8000646:	d001      	beq.n	800064c <st7735r__Oeq__2+0x18>
 8000648:	2000      	movs	r0, #0
 800064a:	bd38      	pop	{r3, r4, r5, pc}
 800064c:	68ab      	ldr	r3, [r5, #8]
 800064e:	68a0      	ldr	r0, [r4, #8]
 8000650:	1a18      	subs	r0, r3, r0
 8000652:	fab0 f080 	clz	r0, r0
 8000656:	0940      	lsrs	r0, r0, #5
 8000658:	bd38      	pop	{r3, r4, r5, pc}
 800065a:	bf00      	nop

0800065c <st7735r__write_data__2>:
 800065c:	e92d 43f0 	stmdb	sp!, {r4, r5, r6, r7, r8, r9, lr}
 8000660:	4699      	mov	r9, r3
 8000662:	4680      	mov	r8, r0
 8000664:	6880      	ldr	r0, [r0, #8]
 8000666:	b085      	sub	sp, #20
 8000668:	6803      	ldr	r3, [r0, #0]
 800066a:	4615      	mov	r5, r2
 800066c:	699b      	ldr	r3, [r3, #24]
 800066e:	f8d9 6000 	ldr.w	r6, [r9]
 8000672:	4798      	blx	r3
 8000674:	f8d8 000c 	ldr.w	r0, [r8, #12]
 8000678:	6803      	ldr	r3, [r0, #0]
 800067a:	695b      	ldr	r3, [r3, #20]
 800067c:	4798      	blx	r3
 800067e:	f8d9 4000 	ldr.w	r4, [r9]
 8000682:	f8d9 3004 	ldr.w	r3, [r9, #4]
 8000686:	429c      	cmp	r4, r3
 8000688:	dc16      	bgt.n	80006b8 <st7735r__write_data__2+0x5c>
 800068a:	1ba4      	subs	r4, r4, r6
 800068c:	442c      	add	r4, r5
 800068e:	1b76      	subs	r6, r6, r5
 8000690:	f44f 777a 	mov.w	r7, #1000	; 0x3e8
 8000694:	f8d8 0004 	ldr.w	r0, [r8, #4]
 8000698:	7825      	ldrb	r5, [r4, #0]
 800069a:	6801      	ldr	r1, [r0, #0]
 800069c:	aa03      	add	r2, sp, #12
 800069e:	6849      	ldr	r1, [r1, #4]
 80006a0:	f88d 500c 	strb.w	r5, [sp, #12]
 80006a4:	9700      	str	r7, [sp, #0]
 80006a6:	4b0a      	ldr	r3, [pc, #40]	; (80006d0 <st7735r__write_data__2+0x74>)
 80006a8:	1935      	adds	r5, r6, r4
 80006aa:	4788      	blx	r1
 80006ac:	b960      	cbnz	r0, 80006c8 <st7735r__write_data__2+0x6c>
 80006ae:	f8d9 3004 	ldr.w	r3, [r9, #4]
 80006b2:	3401      	adds	r4, #1
 80006b4:	42ab      	cmp	r3, r5
 80006b6:	d1ed      	bne.n	8000694 <st7735r__write_data__2+0x38>
 80006b8:	f8d8 0008 	ldr.w	r0, [r8, #8]
 80006bc:	6803      	ldr	r3, [r0, #0]
 80006be:	695b      	ldr	r3, [r3, #20]
 80006c0:	4798      	blx	r3
 80006c2:	b005      	add	sp, #20
 80006c4:	e8bd 83f0 	ldmia.w	sp!, {r4, r5, r6, r7, r8, r9, pc}
 80006c8:	4802      	ldr	r0, [pc, #8]	; (80006d4 <st7735r__write_data__2+0x78>)
 80006ca:	21c0      	movs	r1, #192	; 0xc0
 80006cc:	f7ff fef8 	bl	80004c0 <__gnat_last_chance_handler>
 80006d0:	08009bfc 	.word	0x08009bfc
 80006d4:	08009c04 	.word	0x08009c04

080006d8 <st7735r__write_data__3>:
 80006d8:	e92d 47f0 	stmdb	sp!, {r4, r5, r6, r7, r8, r9, sl, lr}
 80006dc:	469a      	mov	sl, r3
 80006de:	4681      	mov	r9, r0
 80006e0:	6880      	ldr	r0, [r0, #8]
 80006e2:	b084      	sub	sp, #16
 80006e4:	6803      	ldr	r3, [r0, #0]
 80006e6:	4617      	mov	r7, r2
 80006e8:	699b      	ldr	r3, [r3, #24]
 80006ea:	f8da 5000 	ldr.w	r5, [sl]
 80006ee:	4798      	blx	r3
 80006f0:	f8d9 000c 	ldr.w	r0, [r9, #12]
 80006f4:	6803      	ldr	r3, [r0, #0]
 80006f6:	695b      	ldr	r3, [r3, #20]
 80006f8:	4798      	blx	r3
 80006fa:	f8da 4000 	ldr.w	r4, [sl]
 80006fe:	f8da 3004 	ldr.w	r3, [sl, #4]
 8000702:	429c      	cmp	r4, r3
 8000704:	dc1a      	bgt.n	800073c <st7735r__write_data__3+0x64>
 8000706:	3c01      	subs	r4, #1
 8000708:	eba7 0745 	sub.w	r7, r7, r5, lsl #1
 800070c:	f44f 787a 	mov.w	r8, #1000	; 0x3e8
 8000710:	f8d9 0004 	ldr.w	r0, [r9, #4]
 8000714:	3401      	adds	r4, #1
 8000716:	f837 1014 	ldrh.w	r1, [r7, r4, lsl #1]
 800071a:	6805      	ldr	r5, [r0, #0]
 800071c:	0a0e      	lsrs	r6, r1, #8
 800071e:	686d      	ldr	r5, [r5, #4]
 8000720:	f88d 600c 	strb.w	r6, [sp, #12]
 8000724:	f88d 100d 	strb.w	r1, [sp, #13]
 8000728:	f8cd 8000 	str.w	r8, [sp]
 800072c:	aa03      	add	r2, sp, #12
 800072e:	4b0a      	ldr	r3, [pc, #40]	; (8000758 <st7735r__write_data__3+0x80>)
 8000730:	47a8      	blx	r5
 8000732:	b958      	cbnz	r0, 800074c <st7735r__write_data__3+0x74>
 8000734:	f8da 3004 	ldr.w	r3, [sl, #4]
 8000738:	42a3      	cmp	r3, r4
 800073a:	d1e9      	bne.n	8000710 <st7735r__write_data__3+0x38>
 800073c:	f8d9 0008 	ldr.w	r0, [r9, #8]
 8000740:	6803      	ldr	r3, [r0, #0]
 8000742:	695b      	ldr	r3, [r3, #20]
 8000744:	4798      	blx	r3
 8000746:	b004      	add	sp, #16
 8000748:	e8bd 87f0 	ldmia.w	sp!, {r4, r5, r6, r7, r8, r9, sl, pc}
 800074c:	4803      	ldr	r0, [pc, #12]	; (800075c <st7735r__write_data__3+0x84>)
 800074e:	f240 11b1 	movw	r1, #433	; 0x1b1
 8000752:	f7ff feb5 	bl	80004c0 <__gnat_last_chance_handler>
 8000756:	bf00      	nop
 8000758:	08009c10 	.word	0x08009c10
 800075c:	08009c04 	.word	0x08009c04

08000760 <st7735r__set_background>:
 8000760:	b508      	push	{r3, lr}
 8000762:	4802      	ldr	r0, [pc, #8]	; (800076c <st7735r__set_background+0xc>)
 8000764:	f240 318b 	movw	r1, #907	; 0x38b
 8000768:	f7ff feaa 	bl	80004c0 <__gnat_last_chance_handler>
 800076c:	08009c04 	.word	0x08009c04

08000770 <st7735r__initialize_layer>:
 8000770:	2901      	cmp	r1, #1
 8000772:	b508      	push	{r3, lr}
 8000774:	d102      	bne.n	800077c <st7735r__initialize_layer+0xc>
 8000776:	2a02      	cmp	r2, #2
 8000778:	d100      	bne.n	800077c <st7735r__initialize_layer+0xc>
 800077a:	bd08      	pop	{r3, pc}
 800077c:	4802      	ldr	r0, [pc, #8]	; (8000788 <st7735r__initialize_layer+0x18>)
 800077e:	f240 319f 	movw	r1, #927	; 0x39f
 8000782:	f7ff fe9d 	bl	80004c0 <__gnat_last_chance_handler>
 8000786:	bf00      	nop
 8000788:	08009c04 	.word	0x08009c04

0800078c <st7735r__update_layer>:
 800078c:	2901      	cmp	r1, #1
 800078e:	d100      	bne.n	8000792 <st7735r__update_layer+0x6>
 8000790:	4770      	bx	lr
 8000792:	b508      	push	{r3, lr}
 8000794:	4802      	ldr	r0, [pc, #8]	; (80007a0 <st7735r__update_layer+0x14>)
 8000796:	f240 31be 	movw	r1, #958	; 0x3be
 800079a:	f7ff fe91 	bl	80004c0 <__gnat_last_chance_handler>
 800079e:	bf00      	nop
 80007a0:	08009c04 	.word	0x08009c04

080007a4 <st7735r__color_mode>:
 80007a4:	2901      	cmp	r1, #1
 80007a6:	d101      	bne.n	80007ac <st7735r__color_mode+0x8>
 80007a8:	2002      	movs	r0, #2
 80007aa:	4770      	bx	lr
 80007ac:	b508      	push	{r3, lr}
 80007ae:	4802      	ldr	r0, [pc, #8]	; (80007b8 <st7735r__color_mode+0x14>)
 80007b0:	f240 31da 	movw	r1, #986	; 0x3da
 80007b4:	f7ff fe84 	bl	80004c0 <__gnat_last_chance_handler>
 80007b8:	08009c04 	.word	0x08009c04

080007bc <st7735r__hidden_buffer>:
 80007bc:	2901      	cmp	r1, #1
 80007be:	d101      	bne.n	80007c4 <st7735r__hidden_buffer+0x8>
 80007c0:	301c      	adds	r0, #28
 80007c2:	4770      	bx	lr
 80007c4:	b508      	push	{r3, lr}
 80007c6:	4802      	ldr	r0, [pc, #8]	; (80007d0 <st7735r__hidden_buffer+0x14>)
 80007c8:	f240 31ea 	movw	r1, #1002	; 0x3ea
 80007cc:	f7ff fe78 	bl	80004c0 <__gnat_last_chance_handler>
 80007d0:	08009c04 	.word	0x08009c04

080007d4 <st7735r__display_inversion_on>:
 80007d4:	b530      	push	{r4, r5, lr}
 80007d6:	4604      	mov	r4, r0
 80007d8:	6880      	ldr	r0, [r0, #8]
 80007da:	b085      	sub	sp, #20
 80007dc:	6803      	ldr	r3, [r0, #0]
 80007de:	2521      	movs	r5, #33	; 0x21
 80007e0:	699b      	ldr	r3, [r3, #24]
 80007e2:	4798      	blx	r3
 80007e4:	68e0      	ldr	r0, [r4, #12]
 80007e6:	6803      	ldr	r3, [r0, #0]
 80007e8:	699b      	ldr	r3, [r3, #24]
 80007ea:	4798      	blx	r3
 80007ec:	6860      	ldr	r0, [r4, #4]
 80007ee:	aa04      	add	r2, sp, #16
 80007f0:	6801      	ldr	r1, [r0, #0]
 80007f2:	f44f 737a 	mov.w	r3, #1000	; 0x3e8
 80007f6:	f802 5d04 	strb.w	r5, [r2, #-4]!
 80007fa:	6849      	ldr	r1, [r1, #4]
 80007fc:	9300      	str	r3, [sp, #0]
 80007fe:	4b07      	ldr	r3, [pc, #28]	; (800081c <st7735r__display_inversion_on+0x48>)
 8000800:	4788      	blx	r1
 8000802:	4605      	mov	r5, r0
 8000804:	68a0      	ldr	r0, [r4, #8]
 8000806:	6802      	ldr	r2, [r0, #0]
 8000808:	6953      	ldr	r3, [r2, #20]
 800080a:	4798      	blx	r3
 800080c:	b90d      	cbnz	r5, 8000812 <st7735r__display_inversion_on+0x3e>
 800080e:	b005      	add	sp, #20
 8000810:	bd30      	pop	{r4, r5, pc}
 8000812:	4803      	ldr	r0, [pc, #12]	; (8000820 <st7735r__display_inversion_on+0x4c>)
 8000814:	218b      	movs	r1, #139	; 0x8b
 8000816:	f7ff fe53 	bl	80004c0 <__gnat_last_chance_handler>
 800081a:	bf00      	nop
 800081c:	08009bfc 	.word	0x08009bfc
 8000820:	08009c04 	.word	0x08009c04

08000824 <st7735r__turn_on>:
 8000824:	b530      	push	{r4, r5, lr}
 8000826:	4604      	mov	r4, r0
 8000828:	6880      	ldr	r0, [r0, #8]
 800082a:	b085      	sub	sp, #20
 800082c:	6803      	ldr	r3, [r0, #0]
 800082e:	2529      	movs	r5, #41	; 0x29
 8000830:	699b      	ldr	r3, [r3, #24]
 8000832:	4798      	blx	r3
 8000834:	68e0      	ldr	r0, [r4, #12]
 8000836:	6803      	ldr	r3, [r0, #0]
 8000838:	699b      	ldr	r3, [r3, #24]
 800083a:	4798      	blx	r3
 800083c:	6860      	ldr	r0, [r4, #4]
 800083e:	aa04      	add	r2, sp, #16
 8000840:	6801      	ldr	r1, [r0, #0]
 8000842:	f44f 737a 	mov.w	r3, #1000	; 0x3e8
 8000846:	f802 5d04 	strb.w	r5, [r2, #-4]!
 800084a:	6849      	ldr	r1, [r1, #4]
 800084c:	9300      	str	r3, [sp, #0]
 800084e:	4b07      	ldr	r3, [pc, #28]	; (800086c <st7735r__turn_on+0x48>)
 8000850:	4788      	blx	r1
 8000852:	4605      	mov	r5, r0
 8000854:	68a0      	ldr	r0, [r4, #8]
 8000856:	6802      	ldr	r2, [r0, #0]
 8000858:	6953      	ldr	r3, [r2, #20]
 800085a:	4798      	blx	r3
 800085c:	b90d      	cbnz	r5, 8000862 <st7735r__turn_on+0x3e>
 800085e:	b005      	add	sp, #20
 8000860:	bd30      	pop	{r4, r5, pc}
 8000862:	4803      	ldr	r0, [pc, #12]	; (8000870 <st7735r__turn_on+0x4c>)
 8000864:	218b      	movs	r1, #139	; 0x8b
 8000866:	f7ff fe2b 	bl	80004c0 <__gnat_last_chance_handler>
 800086a:	bf00      	nop
 800086c:	08009bfc 	.word	0x08009bfc
 8000870:	08009c04 	.word	0x08009c04

08000874 <st7735r__turn_off>:
 8000874:	b530      	push	{r4, r5, lr}
 8000876:	4604      	mov	r4, r0
 8000878:	6880      	ldr	r0, [r0, #8]
 800087a:	b085      	sub	sp, #20
 800087c:	6803      	ldr	r3, [r0, #0]
 800087e:	2528      	movs	r5, #40	; 0x28
 8000880:	699b      	ldr	r3, [r3, #24]
 8000882:	4798      	blx	r3
 8000884:	68e0      	ldr	r0, [r4, #12]
 8000886:	6803      	ldr	r3, [r0, #0]
 8000888:	699b      	ldr	r3, [r3, #24]
 800088a:	4798      	blx	r3
 800088c:	6860      	ldr	r0, [r4, #4]
 800088e:	aa04      	add	r2, sp, #16
 8000890:	6801      	ldr	r1, [r0, #0]
 8000892:	f44f 737a 	mov.w	r3, #1000	; 0x3e8
 8000896:	f802 5d04 	strb.w	r5, [r2, #-4]!
 800089a:	6849      	ldr	r1, [r1, #4]
 800089c:	9300      	str	r3, [sp, #0]
 800089e:	4b07      	ldr	r3, [pc, #28]	; (80008bc <st7735r__turn_off+0x48>)
 80008a0:	4788      	blx	r1
 80008a2:	4605      	mov	r5, r0
 80008a4:	68a0      	ldr	r0, [r4, #8]
 80008a6:	6802      	ldr	r2, [r0, #0]
 80008a8:	6953      	ldr	r3, [r2, #20]
 80008aa:	4798      	blx	r3
 80008ac:	b90d      	cbnz	r5, 80008b2 <st7735r__turn_off+0x3e>
 80008ae:	b005      	add	sp, #20
 80008b0:	bd30      	pop	{r4, r5, pc}
 80008b2:	4803      	ldr	r0, [pc, #12]	; (80008c0 <st7735r__turn_off+0x4c>)
 80008b4:	218b      	movs	r1, #139	; 0x8b
 80008b6:	f7ff fe03 	bl	80004c0 <__gnat_last_chance_handler>
 80008ba:	bf00      	nop
 80008bc:	08009bfc 	.word	0x08009bfc
 80008c0:	08009c04 	.word	0x08009c04

080008c4 <st7735r__display_inversion_off>:
 80008c4:	b530      	push	{r4, r5, lr}
 80008c6:	4604      	mov	r4, r0
 80008c8:	6880      	ldr	r0, [r0, #8]
 80008ca:	b085      	sub	sp, #20
 80008cc:	6803      	ldr	r3, [r0, #0]
 80008ce:	2520      	movs	r5, #32
 80008d0:	699b      	ldr	r3, [r3, #24]
 80008d2:	4798      	blx	r3
 80008d4:	68e0      	ldr	r0, [r4, #12]
 80008d6:	6803      	ldr	r3, [r0, #0]
 80008d8:	699b      	ldr	r3, [r3, #24]
 80008da:	4798      	blx	r3
 80008dc:	6860      	ldr	r0, [r4, #4]
 80008de:	aa04      	add	r2, sp, #16
 80008e0:	6801      	ldr	r1, [r0, #0]
 80008e2:	f44f 737a 	mov.w	r3, #1000	; 0x3e8
 80008e6:	f802 5d04 	strb.w	r5, [r2, #-4]!
 80008ea:	6849      	ldr	r1, [r1, #4]
 80008ec:	9300      	str	r3, [sp, #0]
 80008ee:	4b07      	ldr	r3, [pc, #28]	; (800090c <st7735r__display_inversion_off+0x48>)
 80008f0:	4788      	blx	r1
 80008f2:	4605      	mov	r5, r0
 80008f4:	68a0      	ldr	r0, [r4, #8]
 80008f6:	6802      	ldr	r2, [r0, #0]
 80008f8:	6953      	ldr	r3, [r2, #20]
 80008fa:	4798      	blx	r3
 80008fc:	b90d      	cbnz	r5, 8000902 <st7735r__display_inversion_off+0x3e>
 80008fe:	b005      	add	sp, #20
 8000900:	bd30      	pop	{r4, r5, pc}
 8000902:	4803      	ldr	r0, [pc, #12]	; (8000910 <st7735r__display_inversion_off+0x4c>)
 8000904:	218b      	movs	r1, #139	; 0x8b
 8000906:	f7ff fddb 	bl	80004c0 <__gnat_last_chance_handler>
 800090a:	bf00      	nop
 800090c:	08009bfc 	.word	0x08009bfc
 8000910:	08009c04 	.word	0x08009c04

08000914 <st7735r__write_raw_pixels>:
 8000914:	b5f0      	push	{r4, r5, r6, r7, lr}
 8000916:	4604      	mov	r4, r0
 8000918:	6880      	ldr	r0, [r0, #8]
 800091a:	461f      	mov	r7, r3
 800091c:	6803      	ldr	r3, [r0, #0]
 800091e:	b085      	sub	sp, #20
 8000920:	699b      	ldr	r3, [r3, #24]
 8000922:	4616      	mov	r6, r2
 8000924:	4798      	blx	r3
 8000926:	68e0      	ldr	r0, [r4, #12]
 8000928:	f44f 757a 	mov.w	r5, #1000	; 0x3e8
 800092c:	6803      	ldr	r3, [r0, #0]
 800092e:	699b      	ldr	r3, [r3, #24]
 8000930:	4798      	blx	r3
 8000932:	6860      	ldr	r0, [r4, #4]
 8000934:	ab04      	add	r3, sp, #16
 8000936:	6802      	ldr	r2, [r0, #0]
 8000938:	212c      	movs	r1, #44	; 0x2c
 800093a:	f803 1d04 	strb.w	r1, [r3, #-4]!
 800093e:	6851      	ldr	r1, [r2, #4]
 8000940:	461a      	mov	r2, r3
 8000942:	9500      	str	r5, [sp, #0]
 8000944:	4b09      	ldr	r3, [pc, #36]	; (800096c <st7735r__write_raw_pixels+0x58>)
 8000946:	4788      	blx	r1
 8000948:	4605      	mov	r5, r0
 800094a:	68a0      	ldr	r0, [r4, #8]
 800094c:	6802      	ldr	r2, [r0, #0]
 800094e:	6953      	ldr	r3, [r2, #20]
 8000950:	4798      	blx	r3
 8000952:	b935      	cbnz	r5, 8000962 <st7735r__write_raw_pixels+0x4e>
 8000954:	4620      	mov	r0, r4
 8000956:	4632      	mov	r2, r6
 8000958:	463b      	mov	r3, r7
 800095a:	f7ff fe7f 	bl	800065c <st7735r__write_data__2>
 800095e:	b005      	add	sp, #20
 8000960:	bdf0      	pop	{r4, r5, r6, r7, pc}
 8000962:	4803      	ldr	r0, [pc, #12]	; (8000970 <st7735r__write_raw_pixels+0x5c>)
 8000964:	218b      	movs	r1, #139	; 0x8b
 8000966:	f7ff fdab 	bl	80004c0 <__gnat_last_chance_handler>
 800096a:	bf00      	nop
 800096c:	08009bfc 	.word	0x08009bfc
 8000970:	08009c04 	.word	0x08009c04

08000974 <st7735r__write_raw_pixels__2>:
 8000974:	b5f0      	push	{r4, r5, r6, r7, lr}
 8000976:	4604      	mov	r4, r0
 8000978:	6880      	ldr	r0, [r0, #8]
 800097a:	461f      	mov	r7, r3
 800097c:	6803      	ldr	r3, [r0, #0]
 800097e:	b085      	sub	sp, #20
 8000980:	699b      	ldr	r3, [r3, #24]
 8000982:	4616      	mov	r6, r2
 8000984:	4798      	blx	r3
 8000986:	68e0      	ldr	r0, [r4, #12]
 8000988:	f44f 757a 	mov.w	r5, #1000	; 0x3e8
 800098c:	6803      	ldr	r3, [r0, #0]
 800098e:	699b      	ldr	r3, [r3, #24]
 8000990:	4798      	blx	r3
 8000992:	6860      	ldr	r0, [r4, #4]
 8000994:	ab04      	add	r3, sp, #16
 8000996:	6802      	ldr	r2, [r0, #0]
 8000998:	212c      	movs	r1, #44	; 0x2c
 800099a:	f803 1d04 	strb.w	r1, [r3, #-4]!
 800099e:	6851      	ldr	r1, [r2, #4]
 80009a0:	461a      	mov	r2, r3
 80009a2:	9500      	str	r5, [sp, #0]
 80009a4:	4b09      	ldr	r3, [pc, #36]	; (80009cc <st7735r__write_raw_pixels__2+0x58>)
 80009a6:	4788      	blx	r1
 80009a8:	4605      	mov	r5, r0
 80009aa:	68a0      	ldr	r0, [r4, #8]
 80009ac:	6802      	ldr	r2, [r0, #0]
 80009ae:	6953      	ldr	r3, [r2, #20]
 80009b0:	4798      	blx	r3
 80009b2:	b935      	cbnz	r5, 80009c2 <st7735r__write_raw_pixels__2+0x4e>
 80009b4:	4620      	mov	r0, r4
 80009b6:	4632      	mov	r2, r6
 80009b8:	463b      	mov	r3, r7
 80009ba:	f7ff fe8d 	bl	80006d8 <st7735r__write_data__3>
 80009be:	b005      	add	sp, #20
 80009c0:	bdf0      	pop	{r4, r5, r6, r7, pc}
 80009c2:	4803      	ldr	r0, [pc, #12]	; (80009d0 <st7735r__write_raw_pixels__2+0x5c>)
 80009c4:	218b      	movs	r1, #139	; 0x8b
 80009c6:	f7ff fd7b 	bl	80004c0 <__gnat_last_chance_handler>
 80009ca:	bf00      	nop
 80009cc:	08009bfc 	.word	0x08009bfc
 80009d0:	08009c04 	.word	0x08009c04

080009d4 <st7735r__set_vcom>:
 80009d4:	b570      	push	{r4, r5, r6, lr}
 80009d6:	4604      	mov	r4, r0
 80009d8:	6880      	ldr	r0, [r0, #8]
 80009da:	b084      	sub	sp, #16
 80009dc:	6803      	ldr	r3, [r0, #0]
 80009de:	ad04      	add	r5, sp, #16
 80009e0:	f805 1d08 	strb.w	r1, [r5, #-8]!
 80009e4:	699b      	ldr	r3, [r3, #24]
 80009e6:	4798      	blx	r3
 80009e8:	68e0      	ldr	r0, [r4, #12]
 80009ea:	26c5      	movs	r6, #197	; 0xc5
 80009ec:	6803      	ldr	r3, [r0, #0]
 80009ee:	699b      	ldr	r3, [r3, #24]
 80009f0:	4798      	blx	r3
 80009f2:	6860      	ldr	r0, [r4, #4]
 80009f4:	aa04      	add	r2, sp, #16
 80009f6:	6801      	ldr	r1, [r0, #0]
 80009f8:	f44f 737a 	mov.w	r3, #1000	; 0x3e8
 80009fc:	f802 6d04 	strb.w	r6, [r2, #-4]!
 8000a00:	6849      	ldr	r1, [r1, #4]
 8000a02:	9300      	str	r3, [sp, #0]
 8000a04:	4b09      	ldr	r3, [pc, #36]	; (8000a2c <st7735r__set_vcom+0x58>)
 8000a06:	4788      	blx	r1
 8000a08:	4606      	mov	r6, r0
 8000a0a:	68a0      	ldr	r0, [r4, #8]
 8000a0c:	6802      	ldr	r2, [r0, #0]
 8000a0e:	6953      	ldr	r3, [r2, #20]
 8000a10:	4798      	blx	r3
 8000a12:	b936      	cbnz	r6, 8000a22 <st7735r__set_vcom+0x4e>
 8000a14:	4620      	mov	r0, r4
 8000a16:	462a      	mov	r2, r5
 8000a18:	4b05      	ldr	r3, [pc, #20]	; (8000a30 <st7735r__set_vcom+0x5c>)
 8000a1a:	f7ff fe1f 	bl	800065c <st7735r__write_data__2>
 8000a1e:	b004      	add	sp, #16
 8000a20:	bd70      	pop	{r4, r5, r6, pc}
 8000a22:	4804      	ldr	r0, [pc, #16]	; (8000a34 <st7735r__set_vcom+0x60>)
 8000a24:	218b      	movs	r1, #139	; 0x8b
 8000a26:	f7ff fd4b 	bl	80004c0 <__gnat_last_chance_handler>
 8000a2a:	bf00      	nop
 8000a2c:	08009bfc 	.word	0x08009bfc
 8000a30:	08009c18 	.word	0x08009c18
 8000a34:	08009c04 	.word	0x08009c04

08000a38 <st7735r__gamma_set>:
 8000a38:	b570      	push	{r4, r5, r6, lr}
 8000a3a:	4604      	mov	r4, r0
 8000a3c:	6880      	ldr	r0, [r0, #8]
 8000a3e:	b084      	sub	sp, #16
 8000a40:	6803      	ldr	r3, [r0, #0]
 8000a42:	ad04      	add	r5, sp, #16
 8000a44:	f805 1d08 	strb.w	r1, [r5, #-8]!
 8000a48:	699b      	ldr	r3, [r3, #24]
 8000a4a:	4798      	blx	r3
 8000a4c:	68e0      	ldr	r0, [r4, #12]
 8000a4e:	2626      	movs	r6, #38	; 0x26
 8000a50:	6803      	ldr	r3, [r0, #0]
 8000a52:	699b      	ldr	r3, [r3, #24]
 8000a54:	4798      	blx	r3
 8000a56:	6860      	ldr	r0, [r4, #4]
 8000a58:	aa04      	add	r2, sp, #16
 8000a5a:	6801      	ldr	r1, [r0, #0]
 8000a5c:	f44f 737a 	mov.w	r3, #1000	; 0x3e8
 8000a60:	f802 6d04 	strb.w	r6, [r2, #-4]!
 8000a64:	6849      	ldr	r1, [r1, #4]
 8000a66:	9300      	str	r3, [sp, #0]
 8000a68:	4b09      	ldr	r3, [pc, #36]	; (8000a90 <st7735r__gamma_set+0x58>)
 8000a6a:	4788      	blx	r1
 8000a6c:	4606      	mov	r6, r0
 8000a6e:	68a0      	ldr	r0, [r4, #8]
 8000a70:	6802      	ldr	r2, [r0, #0]
 8000a72:	6953      	ldr	r3, [r2, #20]
 8000a74:	4798      	blx	r3
 8000a76:	b936      	cbnz	r6, 8000a86 <st7735r__gamma_set+0x4e>
 8000a78:	4620      	mov	r0, r4
 8000a7a:	462a      	mov	r2, r5
 8000a7c:	4b05      	ldr	r3, [pc, #20]	; (8000a94 <st7735r__gamma_set+0x5c>)
 8000a7e:	f7ff fded 	bl	800065c <st7735r__write_data__2>
 8000a82:	b004      	add	sp, #16
 8000a84:	bd70      	pop	{r4, r5, r6, pc}
 8000a86:	4804      	ldr	r0, [pc, #16]	; (8000a98 <st7735r__gamma_set+0x60>)
 8000a88:	218b      	movs	r1, #139	; 0x8b
 8000a8a:	f7ff fd19 	bl	80004c0 <__gnat_last_chance_handler>
 8000a8e:	bf00      	nop
 8000a90:	08009bfc 	.word	0x08009bfc
 8000a94:	08009c18 	.word	0x08009c18
 8000a98:	08009c04 	.word	0x08009c04

08000a9c <st7735r__set_power_control_4>:
 8000a9c:	b530      	push	{r4, r5, lr}
 8000a9e:	4604      	mov	r4, r0
 8000aa0:	6880      	ldr	r0, [r0, #8]
 8000aa2:	b085      	sub	sp, #20
 8000aa4:	6803      	ldr	r3, [r0, #0]
 8000aa6:	f88d 100c 	strb.w	r1, [sp, #12]
 8000aaa:	f88d 200d 	strb.w	r2, [sp, #13]
 8000aae:	699b      	ldr	r3, [r3, #24]
 8000ab0:	4798      	blx	r3
 8000ab2:	68e0      	ldr	r0, [r4, #12]
 8000ab4:	25c3      	movs	r5, #195	; 0xc3
 8000ab6:	6803      	ldr	r3, [r0, #0]
 8000ab8:	699b      	ldr	r3, [r3, #24]
 8000aba:	4798      	blx	r3
 8000abc:	6860      	ldr	r0, [r4, #4]
 8000abe:	aa04      	add	r2, sp, #16
 8000ac0:	6801      	ldr	r1, [r0, #0]
 8000ac2:	f44f 737a 	mov.w	r3, #1000	; 0x3e8
 8000ac6:	f802 5d08 	strb.w	r5, [r2, #-8]!
 8000aca:	6849      	ldr	r1, [r1, #4]
 8000acc:	9300      	str	r3, [sp, #0]
 8000ace:	4b09      	ldr	r3, [pc, #36]	; (8000af4 <st7735r__set_power_control_4+0x58>)
 8000ad0:	4788      	blx	r1
 8000ad2:	4605      	mov	r5, r0
 8000ad4:	68a0      	ldr	r0, [r4, #8]
 8000ad6:	6802      	ldr	r2, [r0, #0]
 8000ad8:	6953      	ldr	r3, [r2, #20]
 8000ada:	4798      	blx	r3
 8000adc:	b935      	cbnz	r5, 8000aec <st7735r__set_power_control_4+0x50>
 8000ade:	4620      	mov	r0, r4
 8000ae0:	aa03      	add	r2, sp, #12
 8000ae2:	4b05      	ldr	r3, [pc, #20]	; (8000af8 <st7735r__set_power_control_4+0x5c>)
 8000ae4:	f7ff fdba 	bl	800065c <st7735r__write_data__2>
 8000ae8:	b005      	add	sp, #20
 8000aea:	bd30      	pop	{r4, r5, pc}
 8000aec:	4803      	ldr	r0, [pc, #12]	; (8000afc <st7735r__set_power_control_4+0x60>)
 8000aee:	218b      	movs	r1, #139	; 0x8b
 8000af0:	f7ff fce6 	bl	80004c0 <__gnat_last_chance_handler>
 8000af4:	08009bfc 	.word	0x08009bfc
 8000af8:	08009c20 	.word	0x08009c20
 8000afc:	08009c04 	.word	0x08009c04

08000b00 <st7735r__set_power_control_5>:
 8000b00:	b530      	push	{r4, r5, lr}
 8000b02:	4604      	mov	r4, r0
 8000b04:	6880      	ldr	r0, [r0, #8]
 8000b06:	b085      	sub	sp, #20
 8000b08:	6803      	ldr	r3, [r0, #0]
 8000b0a:	f88d 100c 	strb.w	r1, [sp, #12]
 8000b0e:	f88d 200d 	strb.w	r2, [sp, #13]
 8000b12:	699b      	ldr	r3, [r3, #24]
 8000b14:	4798      	blx	r3
 8000b16:	68e0      	ldr	r0, [r4, #12]
 8000b18:	25c4      	movs	r5, #196	; 0xc4
 8000b1a:	6803      	ldr	r3, [r0, #0]
 8000b1c:	699b      	ldr	r3, [r3, #24]
 8000b1e:	4798      	blx	r3
 8000b20:	6860      	ldr	r0, [r4, #4]
 8000b22:	aa04      	add	r2, sp, #16
 8000b24:	6801      	ldr	r1, [r0, #0]
 8000b26:	f44f 737a 	mov.w	r3, #1000	; 0x3e8
 8000b2a:	f802 5d08 	strb.w	r5, [r2, #-8]!
 8000b2e:	6849      	ldr	r1, [r1, #4]
 8000b30:	9300      	str	r3, [sp, #0]
 8000b32:	4b09      	ldr	r3, [pc, #36]	; (8000b58 <st7735r__set_power_control_5+0x58>)
 8000b34:	4788      	blx	r1
 8000b36:	4605      	mov	r5, r0
 8000b38:	68a0      	ldr	r0, [r4, #8]
 8000b3a:	6802      	ldr	r2, [r0, #0]
 8000b3c:	6953      	ldr	r3, [r2, #20]
 8000b3e:	4798      	blx	r3
 8000b40:	b935      	cbnz	r5, 8000b50 <st7735r__set_power_control_5+0x50>
 8000b42:	4620      	mov	r0, r4
 8000b44:	aa03      	add	r2, sp, #12
 8000b46:	4b05      	ldr	r3, [pc, #20]	; (8000b5c <st7735r__set_power_control_5+0x5c>)
 8000b48:	f7ff fd88 	bl	800065c <st7735r__write_data__2>
 8000b4c:	b005      	add	sp, #20
 8000b4e:	bd30      	pop	{r4, r5, pc}
 8000b50:	4803      	ldr	r0, [pc, #12]	; (8000b60 <st7735r__set_power_control_5+0x60>)
 8000b52:	218b      	movs	r1, #139	; 0x8b
 8000b54:	f7ff fcb4 	bl	80004c0 <__gnat_last_chance_handler>
 8000b58:	08009bfc 	.word	0x08009bfc
 8000b5c:	08009c20 	.word	0x08009c20
 8000b60:	08009c04 	.word	0x08009c04

08000b64 <st7735r__set_power_control_3>:
 8000b64:	b530      	push	{r4, r5, lr}
 8000b66:	4604      	mov	r4, r0
 8000b68:	6880      	ldr	r0, [r0, #8]
 8000b6a:	b085      	sub	sp, #20
 8000b6c:	6803      	ldr	r3, [r0, #0]
 8000b6e:	f88d 100c 	strb.w	r1, [sp, #12]
 8000b72:	f88d 200d 	strb.w	r2, [sp, #13]
 8000b76:	699b      	ldr	r3, [r3, #24]
 8000b78:	4798      	blx	r3
 8000b7a:	68e0      	ldr	r0, [r4, #12]
 8000b7c:	25c2      	movs	r5, #194	; 0xc2
 8000b7e:	6803      	ldr	r3, [r0, #0]
 8000b80:	699b      	ldr	r3, [r3, #24]
 8000b82:	4798      	blx	r3
 8000b84:	6860      	ldr	r0, [r4, #4]
 8000b86:	aa04      	add	r2, sp, #16
 8000b88:	6801      	ldr	r1, [r0, #0]
 8000b8a:	f44f 737a 	mov.w	r3, #1000	; 0x3e8
 8000b8e:	f802 5d08 	strb.w	r5, [r2, #-8]!
 8000b92:	6849      	ldr	r1, [r1, #4]
 8000b94:	9300      	str	r3, [sp, #0]
 8000b96:	4b09      	ldr	r3, [pc, #36]	; (8000bbc <st7735r__set_power_control_3+0x58>)
 8000b98:	4788      	blx	r1
 8000b9a:	4605      	mov	r5, r0
 8000b9c:	68a0      	ldr	r0, [r4, #8]
 8000b9e:	6802      	ldr	r2, [r0, #0]
 8000ba0:	6953      	ldr	r3, [r2, #20]
 8000ba2:	4798      	blx	r3
 8000ba4:	b935      	cbnz	r5, 8000bb4 <st7735r__set_power_control_3+0x50>
 8000ba6:	4620      	mov	r0, r4
 8000ba8:	aa03      	add	r2, sp, #12
 8000baa:	4b05      	ldr	r3, [pc, #20]	; (8000bc0 <st7735r__set_power_control_3+0x5c>)
 8000bac:	f7ff fd56 	bl	800065c <st7735r__write_data__2>
 8000bb0:	b005      	add	sp, #20
 8000bb2:	bd30      	pop	{r4, r5, pc}
 8000bb4:	4803      	ldr	r0, [pc, #12]	; (8000bc4 <st7735r__set_power_control_3+0x60>)
 8000bb6:	218b      	movs	r1, #139	; 0x8b
 8000bb8:	f7ff fc82 	bl	80004c0 <__gnat_last_chance_handler>
 8000bbc:	08009bfc 	.word	0x08009bfc
 8000bc0:	08009c20 	.word	0x08009c20
 8000bc4:	08009c04 	.word	0x08009c04

08000bc8 <st7735r__set_pixel_format>:
 8000bc8:	b570      	push	{r4, r5, r6, lr}
 8000bca:	4604      	mov	r4, r0
 8000bcc:	b084      	sub	sp, #16
 8000bce:	2900      	cmp	r1, #0
 8000bd0:	d027      	beq.n	8000c22 <st7735r__set_pixel_format+0x5a>
 8000bd2:	2901      	cmp	r1, #1
 8000bd4:	bf0c      	ite	eq
 8000bd6:	2305      	moveq	r3, #5
 8000bd8:	2306      	movne	r3, #6
 8000bda:	68a0      	ldr	r0, [r4, #8]
 8000bdc:	ad04      	add	r5, sp, #16
 8000bde:	f805 3d08 	strb.w	r3, [r5, #-8]!
 8000be2:	6803      	ldr	r3, [r0, #0]
 8000be4:	263a      	movs	r6, #58	; 0x3a
 8000be6:	699b      	ldr	r3, [r3, #24]
 8000be8:	4798      	blx	r3
 8000bea:	68e0      	ldr	r0, [r4, #12]
 8000bec:	6803      	ldr	r3, [r0, #0]
 8000bee:	699b      	ldr	r3, [r3, #24]
 8000bf0:	4798      	blx	r3
 8000bf2:	6860      	ldr	r0, [r4, #4]
 8000bf4:	aa04      	add	r2, sp, #16
 8000bf6:	6801      	ldr	r1, [r0, #0]
 8000bf8:	f44f 737a 	mov.w	r3, #1000	; 0x3e8
 8000bfc:	f802 6d04 	strb.w	r6, [r2, #-4]!
 8000c00:	6849      	ldr	r1, [r1, #4]
 8000c02:	9300      	str	r3, [sp, #0]
 8000c04:	4b0a      	ldr	r3, [pc, #40]	; (8000c30 <st7735r__set_pixel_format+0x68>)
 8000c06:	4788      	blx	r1
 8000c08:	4606      	mov	r6, r0
 8000c0a:	68a0      	ldr	r0, [r4, #8]
 8000c0c:	6802      	ldr	r2, [r0, #0]
 8000c0e:	6953      	ldr	r3, [r2, #20]
 8000c10:	4798      	blx	r3
 8000c12:	b946      	cbnz	r6, 8000c26 <st7735r__set_pixel_format+0x5e>
 8000c14:	4620      	mov	r0, r4
 8000c16:	462a      	mov	r2, r5
 8000c18:	4b06      	ldr	r3, [pc, #24]	; (8000c34 <st7735r__set_pixel_format+0x6c>)
 8000c1a:	f7ff fd1f 	bl	800065c <st7735r__write_data__2>
 8000c1e:	b004      	add	sp, #16
 8000c20:	bd70      	pop	{r4, r5, r6, pc}
 8000c22:	2303      	movs	r3, #3
 8000c24:	e7d9      	b.n	8000bda <st7735r__set_pixel_format+0x12>
 8000c26:	4804      	ldr	r0, [pc, #16]	; (8000c38 <st7735r__set_pixel_format+0x70>)
 8000c28:	218b      	movs	r1, #139	; 0x8b
 8000c2a:	f7ff fc49 	bl	80004c0 <__gnat_last_chance_handler>
 8000c2e:	bf00      	nop
 8000c30:	08009bfc 	.word	0x08009bfc
 8000c34:	08009c18 	.word	0x08009c18
 8000c38:	08009c04 	.word	0x08009c04

08000c3c <st7735r__set_frame_rate_normal>:
 8000c3c:	b530      	push	{r4, r5, lr}
 8000c3e:	4604      	mov	r4, r0
 8000c40:	6880      	ldr	r0, [r0, #8]
 8000c42:	b085      	sub	sp, #20
 8000c44:	f88d 100c 	strb.w	r1, [sp, #12]
 8000c48:	6801      	ldr	r1, [r0, #0]
 8000c4a:	f88d 200d 	strb.w	r2, [sp, #13]
 8000c4e:	f88d 300e 	strb.w	r3, [sp, #14]
 8000c52:	698b      	ldr	r3, [r1, #24]
 8000c54:	4798      	blx	r3
 8000c56:	68e0      	ldr	r0, [r4, #12]
 8000c58:	25b1      	movs	r5, #177	; 0xb1
 8000c5a:	6803      	ldr	r3, [r0, #0]
 8000c5c:	699b      	ldr	r3, [r3, #24]
 8000c5e:	4798      	blx	r3
 8000c60:	6860      	ldr	r0, [r4, #4]
 8000c62:	aa04      	add	r2, sp, #16
 8000c64:	6801      	ldr	r1, [r0, #0]
 8000c66:	f44f 737a 	mov.w	r3, #1000	; 0x3e8
 8000c6a:	f802 5d08 	strb.w	r5, [r2, #-8]!
 8000c6e:	6849      	ldr	r1, [r1, #4]
 8000c70:	9300      	str	r3, [sp, #0]
 8000c72:	4b09      	ldr	r3, [pc, #36]	; (8000c98 <st7735r__set_frame_rate_normal+0x5c>)
 8000c74:	4788      	blx	r1
 8000c76:	4605      	mov	r5, r0
 8000c78:	68a0      	ldr	r0, [r4, #8]
 8000c7a:	6802      	ldr	r2, [r0, #0]
 8000c7c:	6953      	ldr	r3, [r2, #20]
 8000c7e:	4798      	blx	r3
 8000c80:	b935      	cbnz	r5, 8000c90 <st7735r__set_frame_rate_normal+0x54>
 8000c82:	4620      	mov	r0, r4
 8000c84:	aa03      	add	r2, sp, #12
 8000c86:	4b05      	ldr	r3, [pc, #20]	; (8000c9c <st7735r__set_frame_rate_normal+0x60>)
 8000c88:	f7ff fce8 	bl	800065c <st7735r__write_data__2>
 8000c8c:	b005      	add	sp, #20
 8000c8e:	bd30      	pop	{r4, r5, pc}
 8000c90:	4803      	ldr	r0, [pc, #12]	; (8000ca0 <st7735r__set_frame_rate_normal+0x64>)
 8000c92:	218b      	movs	r1, #139	; 0x8b
 8000c94:	f7ff fc14 	bl	80004c0 <__gnat_last_chance_handler>
 8000c98:	08009bfc 	.word	0x08009bfc
 8000c9c:	08009c28 	.word	0x08009c28
 8000ca0:	08009c04 	.word	0x08009c04

08000ca4 <st7735r__set_frame_rate_idle>:
 8000ca4:	b530      	push	{r4, r5, lr}
 8000ca6:	4604      	mov	r4, r0
 8000ca8:	6880      	ldr	r0, [r0, #8]
 8000caa:	b085      	sub	sp, #20
 8000cac:	f88d 100c 	strb.w	r1, [sp, #12]
 8000cb0:	6801      	ldr	r1, [r0, #0]
 8000cb2:	f88d 200d 	strb.w	r2, [sp, #13]
 8000cb6:	f88d 300e 	strb.w	r3, [sp, #14]
 8000cba:	698b      	ldr	r3, [r1, #24]
 8000cbc:	4798      	blx	r3
 8000cbe:	68e0      	ldr	r0, [r4, #12]
 8000cc0:	25b2      	movs	r5, #178	; 0xb2
 8000cc2:	6803      	ldr	r3, [r0, #0]
 8000cc4:	699b      	ldr	r3, [r3, #24]
 8000cc6:	4798      	blx	r3
 8000cc8:	6860      	ldr	r0, [r4, #4]
 8000cca:	aa04      	add	r2, sp, #16
 8000ccc:	6801      	ldr	r1, [r0, #0]
 8000cce:	f44f 737a 	mov.w	r3, #1000	; 0x3e8
 8000cd2:	f802 5d08 	strb.w	r5, [r2, #-8]!
 8000cd6:	6849      	ldr	r1, [r1, #4]
 8000cd8:	9300      	str	r3, [sp, #0]
 8000cda:	4b09      	ldr	r3, [pc, #36]	; (8000d00 <st7735r__set_frame_rate_idle+0x5c>)
 8000cdc:	4788      	blx	r1
 8000cde:	4605      	mov	r5, r0
 8000ce0:	68a0      	ldr	r0, [r4, #8]
 8000ce2:	6802      	ldr	r2, [r0, #0]
 8000ce4:	6953      	ldr	r3, [r2, #20]
 8000ce6:	4798      	blx	r3
 8000ce8:	b935      	cbnz	r5, 8000cf8 <st7735r__set_frame_rate_idle+0x54>
 8000cea:	4620      	mov	r0, r4
 8000cec:	aa03      	add	r2, sp, #12
 8000cee:	4b05      	ldr	r3, [pc, #20]	; (8000d04 <st7735r__set_frame_rate_idle+0x60>)
 8000cf0:	f7ff fcb4 	bl	800065c <st7735r__write_data__2>
 8000cf4:	b005      	add	sp, #20
 8000cf6:	bd30      	pop	{r4, r5, pc}
 8000cf8:	4803      	ldr	r0, [pc, #12]	; (8000d08 <st7735r__set_frame_rate_idle+0x64>)
 8000cfa:	218b      	movs	r1, #139	; 0x8b
 8000cfc:	f7ff fbe0 	bl	80004c0 <__gnat_last_chance_handler>
 8000d00:	08009bfc 	.word	0x08009bfc
 8000d04:	08009c28 	.word	0x08009c28
 8000d08:	08009c04 	.word	0x08009c04

08000d0c <st7735r__set_row_address>:
 8000d0c:	b530      	push	{r4, r5, lr}
 8000d0e:	4604      	mov	r4, r0
 8000d10:	6880      	ldr	r0, [r0, #8]
 8000d12:	b085      	sub	sp, #20
 8000d14:	6805      	ldr	r5, [r0, #0]
 8000d16:	2300      	movs	r3, #0
 8000d18:	f88d 100d 	strb.w	r1, [sp, #13]
 8000d1c:	f88d 200f 	strb.w	r2, [sp, #15]
 8000d20:	f88d 300c 	strb.w	r3, [sp, #12]
 8000d24:	69aa      	ldr	r2, [r5, #24]
 8000d26:	f88d 300e 	strb.w	r3, [sp, #14]
 8000d2a:	4790      	blx	r2
 8000d2c:	68e0      	ldr	r0, [r4, #12]
 8000d2e:	252b      	movs	r5, #43	; 0x2b
 8000d30:	6803      	ldr	r3, [r0, #0]
 8000d32:	699b      	ldr	r3, [r3, #24]
 8000d34:	4798      	blx	r3
 8000d36:	6860      	ldr	r0, [r4, #4]
 8000d38:	aa04      	add	r2, sp, #16
 8000d3a:	6801      	ldr	r1, [r0, #0]
 8000d3c:	f44f 737a 	mov.w	r3, #1000	; 0x3e8
 8000d40:	f802 5d08 	strb.w	r5, [r2, #-8]!
 8000d44:	6849      	ldr	r1, [r1, #4]
 8000d46:	9300      	str	r3, [sp, #0]
 8000d48:	4b09      	ldr	r3, [pc, #36]	; (8000d70 <st7735r__set_row_address+0x64>)
 8000d4a:	4788      	blx	r1
 8000d4c:	4605      	mov	r5, r0
 8000d4e:	68a0      	ldr	r0, [r4, #8]
 8000d50:	6802      	ldr	r2, [r0, #0]
 8000d52:	6953      	ldr	r3, [r2, #20]
 8000d54:	4798      	blx	r3
 8000d56:	b935      	cbnz	r5, 8000d66 <st7735r__set_row_address+0x5a>
 8000d58:	4620      	mov	r0, r4
 8000d5a:	aa03      	add	r2, sp, #12
 8000d5c:	4b05      	ldr	r3, [pc, #20]	; (8000d74 <st7735r__set_row_address+0x68>)
 8000d5e:	f7ff fc7d 	bl	800065c <st7735r__write_data__2>
 8000d62:	b005      	add	sp, #20
 8000d64:	bd30      	pop	{r4, r5, pc}
 8000d66:	4804      	ldr	r0, [pc, #16]	; (8000d78 <st7735r__set_row_address+0x6c>)
 8000d68:	218b      	movs	r1, #139	; 0x8b
 8000d6a:	f7ff fba9 	bl	80004c0 <__gnat_last_chance_handler>
 8000d6e:	bf00      	nop
 8000d70:	08009bfc 	.word	0x08009bfc
 8000d74:	08009c30 	.word	0x08009c30
 8000d78:	08009c04 	.word	0x08009c04

08000d7c <st7735r__set_column_address>:
 8000d7c:	b530      	push	{r4, r5, lr}
 8000d7e:	4604      	mov	r4, r0
 8000d80:	6880      	ldr	r0, [r0, #8]
 8000d82:	b085      	sub	sp, #20
 8000d84:	6805      	ldr	r5, [r0, #0]
 8000d86:	2300      	movs	r3, #0
 8000d88:	f88d 100d 	strb.w	r1, [sp, #13]
 8000d8c:	f88d 200f 	strb.w	r2, [sp, #15]
 8000d90:	f88d 300c 	strb.w	r3, [sp, #12]
 8000d94:	69aa      	ldr	r2, [r5, #24]
 8000d96:	f88d 300e 	strb.w	r3, [sp, #14]
 8000d9a:	4790      	blx	r2
 8000d9c:	68e0      	ldr	r0, [r4, #12]
 8000d9e:	252a      	movs	r5, #42	; 0x2a
 8000da0:	6803      	ldr	r3, [r0, #0]
 8000da2:	699b      	ldr	r3, [r3, #24]
 8000da4:	4798      	blx	r3
 8000da6:	6860      	ldr	r0, [r4, #4]
 8000da8:	aa04      	add	r2, sp, #16
 8000daa:	6801      	ldr	r1, [r0, #0]
 8000dac:	f44f 737a 	mov.w	r3, #1000	; 0x3e8
 8000db0:	f802 5d08 	strb.w	r5, [r2, #-8]!
 8000db4:	6849      	ldr	r1, [r1, #4]
 8000db6:	9300      	str	r3, [sp, #0]
 8000db8:	4b09      	ldr	r3, [pc, #36]	; (8000de0 <st7735r__set_column_address+0x64>)
 8000dba:	4788      	blx	r1
 8000dbc:	4605      	mov	r5, r0
 8000dbe:	68a0      	ldr	r0, [r4, #8]
 8000dc0:	6802      	ldr	r2, [r0, #0]
 8000dc2:	6953      	ldr	r3, [r2, #20]
 8000dc4:	4798      	blx	r3
 8000dc6:	b935      	cbnz	r5, 8000dd6 <st7735r__set_column_address+0x5a>
 8000dc8:	4620      	mov	r0, r4
 8000dca:	aa03      	add	r2, sp, #12
 8000dcc:	4b05      	ldr	r3, [pc, #20]	; (8000de4 <st7735r__set_column_address+0x68>)
 8000dce:	f7ff fc45 	bl	800065c <st7735r__write_data__2>
 8000dd2:	b005      	add	sp, #20
 8000dd4:	bd30      	pop	{r4, r5, pc}
 8000dd6:	4804      	ldr	r0, [pc, #16]	; (8000de8 <st7735r__set_column_address+0x6c>)
 8000dd8:	218b      	movs	r1, #139	; 0x8b
 8000dda:	f7ff fb71 	bl	80004c0 <__gnat_last_chance_handler>
 8000dde:	bf00      	nop
 8000de0:	08009bfc 	.word	0x08009bfc
 8000de4:	08009c30 	.word	0x08009c30
 8000de8:	08009c04 	.word	0x08009c04

08000dec <st7735r__set_power_control_2>:
 8000dec:	b570      	push	{r4, r5, r6, lr}
 8000dee:	4604      	mov	r4, r0
 8000df0:	6880      	ldr	r0, [r0, #8]
 8000df2:	b084      	sub	sp, #16
 8000df4:	ea43 0382 	orr.w	r3, r3, r2, lsl #2
 8000df8:	6802      	ldr	r2, [r0, #0]
 8000dfa:	ea43 1181 	orr.w	r1, r3, r1, lsl #6
 8000dfe:	ad04      	add	r5, sp, #16
 8000e00:	6993      	ldr	r3, [r2, #24]
 8000e02:	f805 1d08 	strb.w	r1, [r5, #-8]!
 8000e06:	4798      	blx	r3
 8000e08:	68e0      	ldr	r0, [r4, #12]
 8000e0a:	26c1      	movs	r6, #193	; 0xc1
 8000e0c:	6803      	ldr	r3, [r0, #0]
 8000e0e:	699b      	ldr	r3, [r3, #24]
 8000e10:	4798      	blx	r3
 8000e12:	6860      	ldr	r0, [r4, #4]
 8000e14:	aa04      	add	r2, sp, #16
 8000e16:	6801      	ldr	r1, [r0, #0]
 8000e18:	f44f 737a 	mov.w	r3, #1000	; 0x3e8
 8000e1c:	f802 6d04 	strb.w	r6, [r2, #-4]!
 8000e20:	6849      	ldr	r1, [r1, #4]
 8000e22:	9300      	str	r3, [sp, #0]
 8000e24:	4b09      	ldr	r3, [pc, #36]	; (8000e4c <st7735r__set_power_control_2+0x60>)
 8000e26:	4788      	blx	r1
 8000e28:	4606      	mov	r6, r0
 8000e2a:	68a0      	ldr	r0, [r4, #8]
 8000e2c:	6802      	ldr	r2, [r0, #0]
 8000e2e:	6953      	ldr	r3, [r2, #20]
 8000e30:	4798      	blx	r3
 8000e32:	b936      	cbnz	r6, 8000e42 <st7735r__set_power_control_2+0x56>
 8000e34:	4620      	mov	r0, r4
 8000e36:	462a      	mov	r2, r5
 8000e38:	4b05      	ldr	r3, [pc, #20]	; (8000e50 <st7735r__set_power_control_2+0x64>)
 8000e3a:	f7ff fc0f 	bl	800065c <st7735r__write_data__2>
 8000e3e:	b004      	add	sp, #16
 8000e40:	bd70      	pop	{r4, r5, r6, pc}
 8000e42:	4804      	ldr	r0, [pc, #16]	; (8000e54 <st7735r__set_power_control_2+0x68>)
 8000e44:	218b      	movs	r1, #139	; 0x8b
 8000e46:	f7ff fb3b 	bl	80004c0 <__gnat_last_chance_handler>
 8000e4a:	bf00      	nop
 8000e4c:	08009bfc 	.word	0x08009bfc
 8000e50:	08009c18 	.word	0x08009c18
 8000e54:	08009c04 	.word	0x08009c04

08000e58 <st7735r__set_frame_rate_partial_full>:
 8000e58:	b5f0      	push	{r4, r5, r6, r7, lr}
 8000e5a:	4604      	mov	r4, r0
 8000e5c:	6880      	ldr	r0, [r0, #8]
 8000e5e:	b087      	sub	sp, #28
 8000e60:	f8d0 e000 	ldr.w	lr, [r0]
 8000e64:	f89d 5038 	ldrb.w	r5, [sp, #56]	; 0x38
 8000e68:	f89d 7030 	ldrb.w	r7, [sp, #48]	; 0x30
 8000e6c:	f89d 6034 	ldrb.w	r6, [sp, #52]	; 0x34
 8000e70:	f88d 1010 	strb.w	r1, [sp, #16]
 8000e74:	f88d 2011 	strb.w	r2, [sp, #17]
 8000e78:	f88d 3012 	strb.w	r3, [sp, #18]
 8000e7c:	f88d 5015 	strb.w	r5, [sp, #21]
 8000e80:	f8de 3018 	ldr.w	r3, [lr, #24]
 8000e84:	f88d 7013 	strb.w	r7, [sp, #19]
 8000e88:	f88d 6014 	strb.w	r6, [sp, #20]
 8000e8c:	4798      	blx	r3
 8000e8e:	68e0      	ldr	r0, [r4, #12]
 8000e90:	25b3      	movs	r5, #179	; 0xb3
 8000e92:	6803      	ldr	r3, [r0, #0]
 8000e94:	699b      	ldr	r3, [r3, #24]
 8000e96:	4798      	blx	r3
 8000e98:	6860      	ldr	r0, [r4, #4]
 8000e9a:	aa06      	add	r2, sp, #24
 8000e9c:	6801      	ldr	r1, [r0, #0]
 8000e9e:	f44f 737a 	mov.w	r3, #1000	; 0x3e8
 8000ea2:	f802 5d0c 	strb.w	r5, [r2, #-12]!
 8000ea6:	6849      	ldr	r1, [r1, #4]
 8000ea8:	9300      	str	r3, [sp, #0]
 8000eaa:	4b09      	ldr	r3, [pc, #36]	; (8000ed0 <st7735r__set_frame_rate_partial_full+0x78>)
 8000eac:	4788      	blx	r1
 8000eae:	4605      	mov	r5, r0
 8000eb0:	68a0      	ldr	r0, [r4, #8]
 8000eb2:	6802      	ldr	r2, [r0, #0]
 8000eb4:	6953      	ldr	r3, [r2, #20]
 8000eb6:	4798      	blx	r3
 8000eb8:	b935      	cbnz	r5, 8000ec8 <st7735r__set_frame_rate_partial_full+0x70>
 8000eba:	4620      	mov	r0, r4
 8000ebc:	aa04      	add	r2, sp, #16
 8000ebe:	4b05      	ldr	r3, [pc, #20]	; (8000ed4 <st7735r__set_frame_rate_partial_full+0x7c>)
 8000ec0:	f7ff fbcc 	bl	800065c <st7735r__write_data__2>
 8000ec4:	b007      	add	sp, #28
 8000ec6:	bdf0      	pop	{r4, r5, r6, r7, pc}
 8000ec8:	4803      	ldr	r0, [pc, #12]	; (8000ed8 <st7735r__set_frame_rate_partial_full+0x80>)
 8000eca:	218b      	movs	r1, #139	; 0x8b
 8000ecc:	f7ff faf8 	bl	80004c0 <__gnat_last_chance_handler>
 8000ed0:	08009bfc 	.word	0x08009bfc
 8000ed4:	08009c38 	.word	0x08009c38
 8000ed8:	08009c04 	.word	0x08009c04

08000edc <st7735r__set_power_control_1>:
 8000edc:	b570      	push	{r4, r5, r6, lr}
 8000ede:	4604      	mov	r4, r0
 8000ee0:	b084      	sub	sp, #16
 8000ee2:	6880      	ldr	r0, [r0, #8]
 8000ee4:	f89d 5020 	ldrb.w	r5, [sp, #32]
 8000ee8:	6806      	ldr	r6, [r0, #0]
 8000eea:	01ad      	lsls	r5, r5, #6
 8000eec:	ea42 1241 	orr.w	r2, r2, r1, lsl #5
 8000ef0:	f045 0504 	orr.w	r5, r5, #4
 8000ef4:	f88d 200c 	strb.w	r2, [sp, #12]
 8000ef8:	f88d 300d 	strb.w	r3, [sp, #13]
 8000efc:	f88d 500e 	strb.w	r5, [sp, #14]
 8000f00:	69b3      	ldr	r3, [r6, #24]
 8000f02:	4798      	blx	r3
 8000f04:	68e0      	ldr	r0, [r4, #12]
 8000f06:	25c0      	movs	r5, #192	; 0xc0
 8000f08:	6803      	ldr	r3, [r0, #0]
 8000f0a:	699b      	ldr	r3, [r3, #24]
 8000f0c:	4798      	blx	r3
 8000f0e:	6860      	ldr	r0, [r4, #4]
 8000f10:	aa04      	add	r2, sp, #16
 8000f12:	6801      	ldr	r1, [r0, #0]
 8000f14:	f44f 737a 	mov.w	r3, #1000	; 0x3e8
 8000f18:	f802 5d08 	strb.w	r5, [r2, #-8]!
 8000f1c:	6849      	ldr	r1, [r1, #4]
 8000f1e:	9300      	str	r3, [sp, #0]
 8000f20:	4b09      	ldr	r3, [pc, #36]	; (8000f48 <st7735r__set_power_control_1+0x6c>)
 8000f22:	4788      	blx	r1
 8000f24:	4605      	mov	r5, r0
 8000f26:	68a0      	ldr	r0, [r4, #8]
 8000f28:	6802      	ldr	r2, [r0, #0]
 8000f2a:	6953      	ldr	r3, [r2, #20]
 8000f2c:	4798      	blx	r3
 8000f2e:	b935      	cbnz	r5, 8000f3e <st7735r__set_power_control_1+0x62>
 8000f30:	4620      	mov	r0, r4
 8000f32:	aa03      	add	r2, sp, #12
 8000f34:	4b05      	ldr	r3, [pc, #20]	; (8000f4c <st7735r__set_power_control_1+0x70>)
 8000f36:	f7ff fb91 	bl	800065c <st7735r__write_data__2>
 8000f3a:	b004      	add	sp, #16
 8000f3c:	bd70      	pop	{r4, r5, r6, pc}
 8000f3e:	4804      	ldr	r0, [pc, #16]	; (8000f50 <st7735r__set_power_control_1+0x74>)
 8000f40:	218b      	movs	r1, #139	; 0x8b
 8000f42:	f7ff fabd 	bl	80004c0 <__gnat_last_chance_handler>
 8000f46:	bf00      	nop
 8000f48:	08009bfc 	.word	0x08009bfc
 8000f4c:	08009c28 	.word	0x08009c28
 8000f50:	08009c04 	.word	0x08009c04

08000f54 <st7735r__set_inversion_control>:
 8000f54:	2901      	cmp	r1, #1
 8000f56:	b570      	push	{r4, r5, r6, lr}
 8000f58:	bf19      	ittee	ne
 8000f5a:	2100      	movne	r1, #0
 8000f5c:	2502      	movne	r5, #2
 8000f5e:	2506      	moveq	r5, #6
 8000f60:	2104      	moveq	r1, #4
 8000f62:	2a01      	cmp	r2, #1
 8000f64:	bf08      	it	eq
 8000f66:	4629      	moveq	r1, r5
 8000f68:	4604      	mov	r4, r0
 8000f6a:	6880      	ldr	r0, [r0, #8]
 8000f6c:	b084      	sub	sp, #16
 8000f6e:	2b01      	cmp	r3, #1
 8000f70:	6803      	ldr	r3, [r0, #0]
 8000f72:	bf08      	it	eq
 8000f74:	f041 0101 	orreq.w	r1, r1, #1
 8000f78:	ad04      	add	r5, sp, #16
 8000f7a:	f805 1d08 	strb.w	r1, [r5, #-8]!
 8000f7e:	699b      	ldr	r3, [r3, #24]
 8000f80:	4798      	blx	r3
 8000f82:	68e0      	ldr	r0, [r4, #12]
 8000f84:	26b4      	movs	r6, #180	; 0xb4
 8000f86:	6803      	ldr	r3, [r0, #0]
 8000f88:	699b      	ldr	r3, [r3, #24]
 8000f8a:	4798      	blx	r3
 8000f8c:	6860      	ldr	r0, [r4, #4]
 8000f8e:	aa04      	add	r2, sp, #16
 8000f90:	6801      	ldr	r1, [r0, #0]
 8000f92:	f44f 737a 	mov.w	r3, #1000	; 0x3e8
 8000f96:	f802 6d04 	strb.w	r6, [r2, #-4]!
 8000f9a:	6849      	ldr	r1, [r1, #4]
 8000f9c:	9300      	str	r3, [sp, #0]
 8000f9e:	4b09      	ldr	r3, [pc, #36]	; (8000fc4 <st7735r__set_inversion_control+0x70>)
 8000fa0:	4788      	blx	r1
 8000fa2:	4606      	mov	r6, r0
 8000fa4:	68a0      	ldr	r0, [r4, #8]
 8000fa6:	6802      	ldr	r2, [r0, #0]
 8000fa8:	6953      	ldr	r3, [r2, #20]
 8000faa:	4798      	blx	r3
 8000fac:	b936      	cbnz	r6, 8000fbc <st7735r__set_inversion_control+0x68>
 8000fae:	4620      	mov	r0, r4
 8000fb0:	462a      	mov	r2, r5
 8000fb2:	4b05      	ldr	r3, [pc, #20]	; (8000fc8 <st7735r__set_inversion_control+0x74>)
 8000fb4:	f7ff fb52 	bl	800065c <st7735r__write_data__2>
 8000fb8:	b004      	add	sp, #16
 8000fba:	bd70      	pop	{r4, r5, r6, pc}
 8000fbc:	4803      	ldr	r0, [pc, #12]	; (8000fcc <st7735r__set_inversion_control+0x78>)
 8000fbe:	218b      	movs	r1, #139	; 0x8b
 8000fc0:	f7ff fa7e 	bl	80004c0 <__gnat_last_chance_handler>
 8000fc4:	08009bfc 	.word	0x08009bfc
 8000fc8:	08009c18 	.word	0x08009c18
 8000fcc:	08009c04 	.word	0x08009c04

08000fd0 <st7735r__set_memory_data_access>:
 8000fd0:	b570      	push	{r4, r5, r6, lr}
 8000fd2:	f04f 0400 	mov.w	r4, #0
 8000fd6:	4605      	mov	r5, r0
 8000fd8:	b084      	sub	sp, #16
 8000fda:	f363 0482 	bfi	r4, r3, #2, #1
 8000fde:	f361 04c3 	bfi	r4, r1, #3, #1
 8000fe2:	f89d 1028 	ldrb.w	r1, [sp, #40]	; 0x28
 8000fe6:	f89d 3024 	ldrb.w	r3, [sp, #36]	; 0x24
 8000fea:	6880      	ldr	r0, [r0, #8]
 8000fec:	f362 1404 	bfi	r4, r2, #4, #1
 8000ff0:	f361 1445 	bfi	r4, r1, #5, #1
 8000ff4:	f89d 2020 	ldrb.w	r2, [sp, #32]
 8000ff8:	f363 1486 	bfi	r4, r3, #6, #1
 8000ffc:	6803      	ldr	r3, [r0, #0]
 8000ffe:	f362 14c7 	bfi	r4, r2, #7, #1
 8001002:	ae04      	add	r6, sp, #16
 8001004:	f806 4d08 	strb.w	r4, [r6, #-8]!
 8001008:	699b      	ldr	r3, [r3, #24]
 800100a:	4798      	blx	r3
 800100c:	68e8      	ldr	r0, [r5, #12]
 800100e:	2436      	movs	r4, #54	; 0x36
 8001010:	6803      	ldr	r3, [r0, #0]
 8001012:	699b      	ldr	r3, [r3, #24]
 8001014:	4798      	blx	r3
 8001016:	6868      	ldr	r0, [r5, #4]
 8001018:	aa04      	add	r2, sp, #16
 800101a:	6801      	ldr	r1, [r0, #0]
 800101c:	f44f 737a 	mov.w	r3, #1000	; 0x3e8
 8001020:	f802 4d04 	strb.w	r4, [r2, #-4]!
 8001024:	6849      	ldr	r1, [r1, #4]
 8001026:	9300      	str	r3, [sp, #0]
 8001028:	4b09      	ldr	r3, [pc, #36]	; (8001050 <st7735r__set_memory_data_access+0x80>)
 800102a:	4788      	blx	r1
 800102c:	4604      	mov	r4, r0
 800102e:	68a8      	ldr	r0, [r5, #8]
 8001030:	6802      	ldr	r2, [r0, #0]
 8001032:	6953      	ldr	r3, [r2, #20]
 8001034:	4798      	blx	r3
 8001036:	b934      	cbnz	r4, 8001046 <st7735r__set_memory_data_access+0x76>
 8001038:	4628      	mov	r0, r5
 800103a:	4632      	mov	r2, r6
 800103c:	4b05      	ldr	r3, [pc, #20]	; (8001054 <st7735r__set_memory_data_access+0x84>)
 800103e:	f7ff fb0d 	bl	800065c <st7735r__write_data__2>
 8001042:	b004      	add	sp, #16
 8001044:	bd70      	pop	{r4, r5, r6, pc}
 8001046:	4804      	ldr	r0, [pc, #16]	; (8001058 <st7735r__set_memory_data_access+0x88>)
 8001048:	218b      	movs	r1, #139	; 0x8b
 800104a:	f7ff fa39 	bl	80004c0 <__gnat_last_chance_handler>
 800104e:	bf00      	nop
 8001050:	08009bfc 	.word	0x08009bfc
 8001054:	08009c18 	.word	0x08009c18
 8001058:	08009c04 	.word	0x08009c04

0800105c <st7735r__initialize>:
 800105c:	b530      	push	{r4, r5, lr}
 800105e:	4604      	mov	r4, r0
 8001060:	6900      	ldr	r0, [r0, #16]
 8001062:	6224      	str	r4, [r4, #32]
 8001064:	6803      	ldr	r3, [r0, #0]
 8001066:	b085      	sub	sp, #20
 8001068:	699b      	ldr	r3, [r3, #24]
 800106a:	4798      	blx	r3
 800106c:	6960      	ldr	r0, [r4, #20]
 800106e:	2164      	movs	r1, #100	; 0x64
 8001070:	6803      	ldr	r3, [r0, #0]
 8001072:	2511      	movs	r5, #17
 8001074:	685b      	ldr	r3, [r3, #4]
 8001076:	4798      	blx	r3
 8001078:	6920      	ldr	r0, [r4, #16]
 800107a:	6803      	ldr	r3, [r0, #0]
 800107c:	695b      	ldr	r3, [r3, #20]
 800107e:	4798      	blx	r3
 8001080:	6960      	ldr	r0, [r4, #20]
 8001082:	2164      	movs	r1, #100	; 0x64
 8001084:	6803      	ldr	r3, [r0, #0]
 8001086:	685b      	ldr	r3, [r3, #4]
 8001088:	4798      	blx	r3
 800108a:	68a0      	ldr	r0, [r4, #8]
 800108c:	6803      	ldr	r3, [r0, #0]
 800108e:	699b      	ldr	r3, [r3, #24]
 8001090:	4798      	blx	r3
 8001092:	68e0      	ldr	r0, [r4, #12]
 8001094:	6803      	ldr	r3, [r0, #0]
 8001096:	699b      	ldr	r3, [r3, #24]
 8001098:	4798      	blx	r3
 800109a:	6860      	ldr	r0, [r4, #4]
 800109c:	aa04      	add	r2, sp, #16
 800109e:	6801      	ldr	r1, [r0, #0]
 80010a0:	f44f 737a 	mov.w	r3, #1000	; 0x3e8
 80010a4:	f802 5d04 	strb.w	r5, [r2, #-4]!
 80010a8:	6849      	ldr	r1, [r1, #4]
 80010aa:	9300      	str	r3, [sp, #0]
 80010ac:	4b0a      	ldr	r3, [pc, #40]	; (80010d8 <st7735r__initialize+0x7c>)
 80010ae:	4788      	blx	r1
 80010b0:	4605      	mov	r5, r0
 80010b2:	68a0      	ldr	r0, [r4, #8]
 80010b4:	6802      	ldr	r2, [r0, #0]
 80010b6:	6953      	ldr	r3, [r2, #20]
 80010b8:	4798      	blx	r3
 80010ba:	b945      	cbnz	r5, 80010ce <st7735r__initialize+0x72>
 80010bc:	6960      	ldr	r0, [r4, #20]
 80010be:	2164      	movs	r1, #100	; 0x64
 80010c0:	6803      	ldr	r3, [r0, #0]
 80010c2:	685b      	ldr	r3, [r3, #4]
 80010c4:	4798      	blx	r3
 80010c6:	2301      	movs	r3, #1
 80010c8:	7623      	strb	r3, [r4, #24]
 80010ca:	b005      	add	sp, #20
 80010cc:	bd30      	pop	{r4, r5, pc}
 80010ce:	4803      	ldr	r0, [pc, #12]	; (80010dc <st7735r__initialize+0x80>)
 80010d0:	218b      	movs	r1, #139	; 0x8b
 80010d2:	f7ff f9f5 	bl	80004c0 <__gnat_last_chance_handler>
 80010d6:	bf00      	nop
 80010d8:	08009bfc 	.word	0x08009bfc
 80010dc:	08009c04 	.word	0x08009c04

080010e0 <st7735r__set_address>:
 80010e0:	e92d 43f0 	stmdb	sp!, {r4, r5, r6, r7, r8, r9, lr}
 80010e4:	4604      	mov	r4, r0
 80010e6:	6880      	ldr	r0, [r0, #8]
 80010e8:	b085      	sub	sp, #20
 80010ea:	6807      	ldr	r7, [r0, #0]
 80010ec:	2600      	movs	r6, #0
 80010ee:	f88d 1009 	strb.w	r1, [sp, #9]
 80010f2:	f88d 6008 	strb.w	r6, [sp, #8]
 80010f6:	f88d 600a 	strb.w	r6, [sp, #10]
 80010fa:	f88d 200b 	strb.w	r2, [sp, #11]
 80010fe:	69ba      	ldr	r2, [r7, #24]
 8001100:	4699      	mov	r9, r3
 8001102:	f8bd 8030 	ldrh.w	r8, [sp, #48]	; 0x30
 8001106:	4790      	blx	r2
 8001108:	68e0      	ldr	r0, [r4, #12]
 800110a:	ad04      	add	r5, sp, #16
 800110c:	6803      	ldr	r3, [r0, #0]
 800110e:	f44f 777a 	mov.w	r7, #1000	; 0x3e8
 8001112:	699b      	ldr	r3, [r3, #24]
 8001114:	4798      	blx	r3
 8001116:	6860      	ldr	r0, [r4, #4]
 8001118:	232a      	movs	r3, #42	; 0x2a
 800111a:	6802      	ldr	r2, [r0, #0]
 800111c:	6851      	ldr	r1, [r2, #4]
 800111e:	f805 3d04 	strb.w	r3, [r5, #-4]!
 8001122:	462a      	mov	r2, r5
 8001124:	4b1d      	ldr	r3, [pc, #116]	; (800119c <st7735r__set_address+0xbc>)
 8001126:	9700      	str	r7, [sp, #0]
 8001128:	4788      	blx	r1
 800112a:	4606      	mov	r6, r0
 800112c:	68a0      	ldr	r0, [r4, #8]
 800112e:	6803      	ldr	r3, [r0, #0]
 8001130:	695b      	ldr	r3, [r3, #20]
 8001132:	4798      	blx	r3
 8001134:	2e00      	cmp	r6, #0
 8001136:	d12c      	bne.n	8001192 <st7735r__set_address+0xb2>
 8001138:	aa02      	add	r2, sp, #8
 800113a:	4620      	mov	r0, r4
 800113c:	4b18      	ldr	r3, [pc, #96]	; (80011a0 <st7735r__set_address+0xc0>)
 800113e:	f7ff fa8d 	bl	800065c <st7735r__write_data__2>
 8001142:	68a0      	ldr	r0, [r4, #8]
 8001144:	f88d 600c 	strb.w	r6, [sp, #12]
 8001148:	6803      	ldr	r3, [r0, #0]
 800114a:	f88d 600e 	strb.w	r6, [sp, #14]
 800114e:	f88d 900d 	strb.w	r9, [sp, #13]
 8001152:	f88d 800f 	strb.w	r8, [sp, #15]
 8001156:	699b      	ldr	r3, [r3, #24]
 8001158:	4798      	blx	r3
 800115a:	68e0      	ldr	r0, [r4, #12]
 800115c:	6803      	ldr	r3, [r0, #0]
 800115e:	699b      	ldr	r3, [r3, #24]
 8001160:	4798      	blx	r3
 8001162:	6860      	ldr	r0, [r4, #4]
 8001164:	232b      	movs	r3, #43	; 0x2b
 8001166:	6801      	ldr	r1, [r0, #0]
 8001168:	aa02      	add	r2, sp, #8
 800116a:	6849      	ldr	r1, [r1, #4]
 800116c:	f88d 3008 	strb.w	r3, [sp, #8]
 8001170:	9700      	str	r7, [sp, #0]
 8001172:	4b0a      	ldr	r3, [pc, #40]	; (800119c <st7735r__set_address+0xbc>)
 8001174:	4788      	blx	r1
 8001176:	4606      	mov	r6, r0
 8001178:	68a0      	ldr	r0, [r4, #8]
 800117a:	6802      	ldr	r2, [r0, #0]
 800117c:	6953      	ldr	r3, [r2, #20]
 800117e:	4798      	blx	r3
 8001180:	b93e      	cbnz	r6, 8001192 <st7735r__set_address+0xb2>
 8001182:	4620      	mov	r0, r4
 8001184:	462a      	mov	r2, r5
 8001186:	4b06      	ldr	r3, [pc, #24]	; (80011a0 <st7735r__set_address+0xc0>)
 8001188:	f7ff fa68 	bl	800065c <st7735r__write_data__2>
 800118c:	b005      	add	sp, #20
 800118e:	e8bd 83f0 	ldmia.w	sp!, {r4, r5, r6, r7, r8, r9, pc}
 8001192:	4804      	ldr	r0, [pc, #16]	; (80011a4 <st7735r__set_address+0xc4>)
 8001194:	218b      	movs	r1, #139	; 0x8b
 8001196:	f7ff f993 	bl	80004c0 <__gnat_last_chance_handler>
 800119a:	bf00      	nop
 800119c:	08009bfc 	.word	0x08009bfc
 80011a0:	08009c30 	.word	0x08009c30
 80011a4:	08009c04 	.word	0x08009c04

080011a8 <st7735r__pixel>:
 80011a8:	e92d 43f0 	stmdb	sp!, {r4, r5, r6, r7, r8, r9, lr}
 80011ac:	4604      	mov	r4, r0
 80011ae:	6880      	ldr	r0, [r0, #8]
 80011b0:	b085      	sub	sp, #20
 80011b2:	1c4e      	adds	r6, r1, #1
 80011b4:	2300      	movs	r3, #0
 80011b6:	4691      	mov	r9, r2
 80011b8:	6802      	ldr	r2, [r0, #0]
 80011ba:	f88d 1009 	strb.w	r1, [sp, #9]
 80011be:	f88d 600b 	strb.w	r6, [sp, #11]
 80011c2:	f88d 3008 	strb.w	r3, [sp, #8]
 80011c6:	f88d 300a 	strb.w	r3, [sp, #10]
 80011ca:	6993      	ldr	r3, [r2, #24]
 80011cc:	4798      	blx	r3
 80011ce:	68e0      	ldr	r0, [r4, #12]
 80011d0:	ad04      	add	r5, sp, #16
 80011d2:	6803      	ldr	r3, [r0, #0]
 80011d4:	f44f 777a 	mov.w	r7, #1000	; 0x3e8
 80011d8:	699b      	ldr	r3, [r3, #24]
 80011da:	4798      	blx	r3
 80011dc:	6860      	ldr	r0, [r4, #4]
 80011de:	232a      	movs	r3, #42	; 0x2a
 80011e0:	6802      	ldr	r2, [r0, #0]
 80011e2:	f109 0601 	add.w	r6, r9, #1
 80011e6:	6851      	ldr	r1, [r2, #4]
 80011e8:	f805 3d04 	strb.w	r3, [r5, #-4]!
 80011ec:	462a      	mov	r2, r5
 80011ee:	4b2c      	ldr	r3, [pc, #176]	; (80012a0 <st7735r__pixel+0xf8>)
 80011f0:	9700      	str	r7, [sp, #0]
 80011f2:	4788      	blx	r1
 80011f4:	4680      	mov	r8, r0
 80011f6:	68a0      	ldr	r0, [r4, #8]
 80011f8:	b2b6      	uxth	r6, r6
 80011fa:	6803      	ldr	r3, [r0, #0]
 80011fc:	695b      	ldr	r3, [r3, #20]
 80011fe:	4798      	blx	r3
 8001200:	f1b8 0f00 	cmp.w	r8, #0
 8001204:	d142      	bne.n	800128c <st7735r__pixel+0xe4>
 8001206:	aa02      	add	r2, sp, #8
 8001208:	4620      	mov	r0, r4
 800120a:	4b26      	ldr	r3, [pc, #152]	; (80012a4 <st7735r__pixel+0xfc>)
 800120c:	f7ff fa26 	bl	800065c <st7735r__write_data__2>
 8001210:	68a0      	ldr	r0, [r4, #8]
 8001212:	f88d 800c 	strb.w	r8, [sp, #12]
 8001216:	6803      	ldr	r3, [r0, #0]
 8001218:	f88d 600f 	strb.w	r6, [sp, #15]
 800121c:	f88d 900d 	strb.w	r9, [sp, #13]
 8001220:	f88d 800e 	strb.w	r8, [sp, #14]
 8001224:	699b      	ldr	r3, [r3, #24]
 8001226:	4798      	blx	r3
 8001228:	68e0      	ldr	r0, [r4, #12]
 800122a:	6803      	ldr	r3, [r0, #0]
 800122c:	699b      	ldr	r3, [r3, #24]
 800122e:	4798      	blx	r3
 8001230:	6860      	ldr	r0, [r4, #4]
 8001232:	232b      	movs	r3, #43	; 0x2b
 8001234:	6801      	ldr	r1, [r0, #0]
 8001236:	aa02      	add	r2, sp, #8
 8001238:	6849      	ldr	r1, [r1, #4]
 800123a:	f88d 3008 	strb.w	r3, [sp, #8]
 800123e:	9700      	str	r7, [sp, #0]
 8001240:	4b17      	ldr	r3, [pc, #92]	; (80012a0 <st7735r__pixel+0xf8>)
 8001242:	4788      	blx	r1
 8001244:	4606      	mov	r6, r0
 8001246:	68a0      	ldr	r0, [r4, #8]
 8001248:	6802      	ldr	r2, [r0, #0]
 800124a:	6953      	ldr	r3, [r2, #20]
 800124c:	4798      	blx	r3
 800124e:	b9ee      	cbnz	r6, 800128c <st7735r__pixel+0xe4>
 8001250:	462a      	mov	r2, r5
 8001252:	4620      	mov	r0, r4
 8001254:	4b13      	ldr	r3, [pc, #76]	; (80012a4 <st7735r__pixel+0xfc>)
 8001256:	f7ff fa01 	bl	800065c <st7735r__write_data__2>
 800125a:	68a0      	ldr	r0, [r4, #8]
 800125c:	6803      	ldr	r3, [r0, #0]
 800125e:	699b      	ldr	r3, [r3, #24]
 8001260:	4798      	blx	r3
 8001262:	68e0      	ldr	r0, [r4, #12]
 8001264:	6803      	ldr	r3, [r0, #0]
 8001266:	695b      	ldr	r3, [r3, #20]
 8001268:	4798      	blx	r3
 800126a:	6860      	ldr	r0, [r4, #4]
 800126c:	462a      	mov	r2, r5
 800126e:	6803      	ldr	r3, [r0, #0]
 8001270:	6919      	ldr	r1, [r3, #16]
 8001272:	4b0d      	ldr	r3, [pc, #52]	; (80012a8 <st7735r__pixel+0x100>)
 8001274:	9700      	str	r7, [sp, #0]
 8001276:	4788      	blx	r1
 8001278:	b960      	cbnz	r0, 8001294 <st7735r__pixel+0xec>
 800127a:	68a0      	ldr	r0, [r4, #8]
 800127c:	6803      	ldr	r3, [r0, #0]
 800127e:	695b      	ldr	r3, [r3, #20]
 8001280:	4798      	blx	r3
 8001282:	f8bd 000c 	ldrh.w	r0, [sp, #12]
 8001286:	b005      	add	sp, #20
 8001288:	e8bd 83f0 	ldmia.w	sp!, {r4, r5, r6, r7, r8, r9, pc}
 800128c:	4807      	ldr	r0, [pc, #28]	; (80012ac <st7735r__pixel+0x104>)
 800128e:	218b      	movs	r1, #139	; 0x8b
 8001290:	f7ff f916 	bl	80004c0 <__gnat_last_chance_handler>
 8001294:	4805      	ldr	r0, [pc, #20]	; (80012ac <st7735r__pixel+0x104>)
 8001296:	f44f 71e3 	mov.w	r1, #454	; 0x1c6
 800129a:	f7ff f911 	bl	80004c0 <__gnat_last_chance_handler>
 800129e:	bf00      	nop
 80012a0:	08009bfc 	.word	0x08009bfc
 80012a4:	08009c30 	.word	0x08009c30
 80012a8:	08009c40 	.word	0x08009c40
 80012ac:	08009c04 	.word	0x08009c04

080012b0 <st7735r__set_pixel>:
 80012b0:	e92d 43f0 	stmdb	sp!, {r4, r5, r6, r7, r8, r9, lr}
 80012b4:	4604      	mov	r4, r0
 80012b6:	6880      	ldr	r0, [r0, #8]
 80012b8:	b087      	sub	sp, #28
 80012ba:	6806      	ldr	r6, [r0, #0]
 80012bc:	1c4f      	adds	r7, r1, #1
 80012be:	4691      	mov	r9, r2
 80012c0:	2200      	movs	r2, #0
 80012c2:	f88d 1011 	strb.w	r1, [sp, #17]
 80012c6:	f88d 2010 	strb.w	r2, [sp, #16]
 80012ca:	f88d 2012 	strb.w	r2, [sp, #18]
 80012ce:	f88d 7013 	strb.w	r7, [sp, #19]
 80012d2:	f8ad 300c 	strh.w	r3, [sp, #12]
 80012d6:	69b3      	ldr	r3, [r6, #24]
 80012d8:	4798      	blx	r3
 80012da:	68e0      	ldr	r0, [r4, #12]
 80012dc:	ad06      	add	r5, sp, #24
 80012de:	6803      	ldr	r3, [r0, #0]
 80012e0:	f44f 777a 	mov.w	r7, #1000	; 0x3e8
 80012e4:	699b      	ldr	r3, [r3, #24]
 80012e6:	4798      	blx	r3
 80012e8:	6860      	ldr	r0, [r4, #4]
 80012ea:	232a      	movs	r3, #42	; 0x2a
 80012ec:	6802      	ldr	r2, [r0, #0]
 80012ee:	f109 0601 	add.w	r6, r9, #1
 80012f2:	6851      	ldr	r1, [r2, #4]
 80012f4:	f805 3d04 	strb.w	r3, [r5, #-4]!
 80012f8:	462a      	mov	r2, r5
 80012fa:	4b2d      	ldr	r3, [pc, #180]	; (80013b0 <st7735r__set_pixel+0x100>)
 80012fc:	9700      	str	r7, [sp, #0]
 80012fe:	4788      	blx	r1
 8001300:	4680      	mov	r8, r0
 8001302:	68a0      	ldr	r0, [r4, #8]
 8001304:	b2b6      	uxth	r6, r6
 8001306:	6803      	ldr	r3, [r0, #0]
 8001308:	695b      	ldr	r3, [r3, #20]
 800130a:	4798      	blx	r3
 800130c:	f1b8 0f00 	cmp.w	r8, #0
 8001310:	d149      	bne.n	80013a6 <st7735r__set_pixel+0xf6>
 8001312:	aa04      	add	r2, sp, #16
 8001314:	4620      	mov	r0, r4
 8001316:	4b27      	ldr	r3, [pc, #156]	; (80013b4 <st7735r__set_pixel+0x104>)
 8001318:	f7ff f9a0 	bl	800065c <st7735r__write_data__2>
 800131c:	68a0      	ldr	r0, [r4, #8]
 800131e:	f88d 8014 	strb.w	r8, [sp, #20]
 8001322:	6803      	ldr	r3, [r0, #0]
 8001324:	f88d 6017 	strb.w	r6, [sp, #23]
 8001328:	f88d 9015 	strb.w	r9, [sp, #21]
 800132c:	f88d 8016 	strb.w	r8, [sp, #22]
 8001330:	699b      	ldr	r3, [r3, #24]
 8001332:	4798      	blx	r3
 8001334:	68e0      	ldr	r0, [r4, #12]
 8001336:	6803      	ldr	r3, [r0, #0]
 8001338:	699b      	ldr	r3, [r3, #24]
 800133a:	4798      	blx	r3
 800133c:	6860      	ldr	r0, [r4, #4]
 800133e:	232b      	movs	r3, #43	; 0x2b
 8001340:	6801      	ldr	r1, [r0, #0]
 8001342:	aa04      	add	r2, sp, #16
 8001344:	6849      	ldr	r1, [r1, #4]
 8001346:	f88d 3010 	strb.w	r3, [sp, #16]
 800134a:	9700      	str	r7, [sp, #0]
 800134c:	4b18      	ldr	r3, [pc, #96]	; (80013b0 <st7735r__set_pixel+0x100>)
 800134e:	4788      	blx	r1
 8001350:	4606      	mov	r6, r0
 8001352:	68a0      	ldr	r0, [r4, #8]
 8001354:	6802      	ldr	r2, [r0, #0]
 8001356:	6953      	ldr	r3, [r2, #20]
 8001358:	4798      	blx	r3
 800135a:	bb26      	cbnz	r6, 80013a6 <st7735r__set_pixel+0xf6>
 800135c:	462a      	mov	r2, r5
 800135e:	4620      	mov	r0, r4
 8001360:	4b14      	ldr	r3, [pc, #80]	; (80013b4 <st7735r__set_pixel+0x104>)
 8001362:	f7ff f97b 	bl	800065c <st7735r__write_data__2>
 8001366:	68a0      	ldr	r0, [r4, #8]
 8001368:	6803      	ldr	r3, [r0, #0]
 800136a:	699b      	ldr	r3, [r3, #24]
 800136c:	4798      	blx	r3
 800136e:	68e0      	ldr	r0, [r4, #12]
 8001370:	6803      	ldr	r3, [r0, #0]
 8001372:	699b      	ldr	r3, [r3, #24]
 8001374:	4798      	blx	r3
 8001376:	6860      	ldr	r0, [r4, #4]
 8001378:	232c      	movs	r3, #44	; 0x2c
 800137a:	6801      	ldr	r1, [r0, #0]
 800137c:	462a      	mov	r2, r5
 800137e:	6849      	ldr	r1, [r1, #4]
 8001380:	f88d 3014 	strb.w	r3, [sp, #20]
 8001384:	9700      	str	r7, [sp, #0]
 8001386:	4b0a      	ldr	r3, [pc, #40]	; (80013b0 <st7735r__set_pixel+0x100>)
 8001388:	4788      	blx	r1
 800138a:	4605      	mov	r5, r0
 800138c:	68a0      	ldr	r0, [r4, #8]
 800138e:	6802      	ldr	r2, [r0, #0]
 8001390:	6953      	ldr	r3, [r2, #20]
 8001392:	4798      	blx	r3
 8001394:	b93d      	cbnz	r5, 80013a6 <st7735r__set_pixel+0xf6>
 8001396:	4620      	mov	r0, r4
 8001398:	aa03      	add	r2, sp, #12
 800139a:	4b07      	ldr	r3, [pc, #28]	; (80013b8 <st7735r__set_pixel+0x108>)
 800139c:	f7ff f99c 	bl	80006d8 <st7735r__write_data__3>
 80013a0:	b007      	add	sp, #28
 80013a2:	e8bd 83f0 	ldmia.w	sp!, {r4, r5, r6, r7, r8, r9, pc}
 80013a6:	4805      	ldr	r0, [pc, #20]	; (80013bc <st7735r__set_pixel+0x10c>)
 80013a8:	218b      	movs	r1, #139	; 0x8b
 80013aa:	f7ff f889 	bl	80004c0 <__gnat_last_chance_handler>
 80013ae:	bf00      	nop
 80013b0:	08009bfc 	.word	0x08009bfc
 80013b4:	08009c30 	.word	0x08009c30
 80013b8:	08009c48 	.word	0x08009c48
 80013bc:	08009c04 	.word	0x08009c04

080013c0 <st7735r__drawcircle>:
 80013c0:	e92d 4ff0 	stmdb	sp!, {r4, r5, r6, r7, r8, r9, sl, fp, lr}
 80013c4:	461c      	mov	r4, r3
 80013c6:	ebc3 7383 	rsb	r3, r3, r3, lsl #30
 80013ca:	b091      	sub	sp, #68	; 0x44
 80013cc:	009b      	lsls	r3, r3, #2
 80013ce:	1d5e      	adds	r6, r3, #5
 80013d0:	9104      	str	r1, [sp, #16]
 80013d2:	bf48      	it	mi
 80013d4:	f103 0608 	addmi.w	r6, r3, #8
 80013d8:	4692      	mov	sl, r2
 80013da:	f8dd 8010 	ldr.w	r8, [sp, #16]
 80013de:	4607      	mov	r7, r0
 80013e0:	10b6      	asrs	r6, r6, #2
 80013e2:	9603      	str	r6, [sp, #12]
 80013e4:	4646      	mov	r6, r8
 80013e6:	f8bd b068 	ldrh.w	fp, [sp, #104]	; 0x68
 80013ea:	18a2      	adds	r2, r4, r2
 80013ec:	b292      	uxth	r2, r2
 80013ee:	4641      	mov	r1, r8
 80013f0:	465b      	mov	r3, fp
 80013f2:	f7ff ff5d 	bl	80012b0 <st7735r__set_pixel>
 80013f6:	ebc4 020a 	rsb	r2, r4, sl
 80013fa:	b292      	uxth	r2, r2
 80013fc:	4638      	mov	r0, r7
 80013fe:	4641      	mov	r1, r8
 8001400:	465b      	mov	r3, fp
 8001402:	f7ff ff55 	bl	80012b0 <st7735r__set_pixel>
 8001406:	19a1      	adds	r1, r4, r6
 8001408:	b289      	uxth	r1, r1
 800140a:	4638      	mov	r0, r7
 800140c:	4652      	mov	r2, sl
 800140e:	465b      	mov	r3, fp
 8001410:	f7ff ff4e 	bl	80012b0 <st7735r__set_pixel>
 8001414:	1b31      	subs	r1, r6, r4
 8001416:	b289      	uxth	r1, r1
 8001418:	4638      	mov	r0, r7
 800141a:	4652      	mov	r2, sl
 800141c:	465b      	mov	r3, fp
 800141e:	4625      	mov	r5, r4
 8001420:	f7ff ff46 	bl	80012b0 <st7735r__set_pixel>
 8001424:	b184      	cbz	r4, 8001448 <st7735r__drawcircle+0x88>
 8001426:	2600      	movs	r6, #0
 8001428:	9b03      	ldr	r3, [sp, #12]
 800142a:	3601      	adds	r6, #1
 800142c:	2b00      	cmp	r3, #0
 800142e:	db39      	blt.n	80014a4 <st7735r__drawcircle+0xe4>
 8001430:	461a      	mov	r2, r3
 8001432:	3d01      	subs	r5, #1
 8001434:	1b73      	subs	r3, r6, r5
 8001436:	eb02 0343 	add.w	r3, r2, r3, lsl #1
 800143a:	3301      	adds	r3, #1
 800143c:	9303      	str	r3, [sp, #12]
 800143e:	b136      	cbz	r6, 800144e <st7735r__drawcircle+0x8e>
 8001440:	42b5      	cmp	r5, r6
 8001442:	f000 818a 	beq.w	800175a <st7735r__drawcircle+0x39a>
 8001446:	dc32      	bgt.n	80014ae <st7735r__drawcircle+0xee>
 8001448:	b011      	add	sp, #68	; 0x44
 800144a:	e8bd 8ff0 	ldmia.w	sp!, {r4, r5, r6, r7, r8, r9, sl, fp, pc}
 800144e:	f8dd 8010 	ldr.w	r8, [sp, #16]
 8001452:	b2ac      	uxth	r4, r5
 8001454:	eb04 020a 	add.w	r2, r4, sl
 8001458:	b292      	uxth	r2, r2
 800145a:	4638      	mov	r0, r7
 800145c:	4641      	mov	r1, r8
 800145e:	465b      	mov	r3, fp
 8001460:	f7ff ff26 	bl	80012b0 <st7735r__set_pixel>
 8001464:	ebc4 020a 	rsb	r2, r4, sl
 8001468:	b292      	uxth	r2, r2
 800146a:	4638      	mov	r0, r7
 800146c:	4641      	mov	r1, r8
 800146e:	465b      	mov	r3, fp
 8001470:	f7ff ff1e 	bl	80012b0 <st7735r__set_pixel>
 8001474:	4643      	mov	r3, r8
 8001476:	18e1      	adds	r1, r4, r3
 8001478:	b289      	uxth	r1, r1
 800147a:	4638      	mov	r0, r7
 800147c:	4652      	mov	r2, sl
 800147e:	465b      	mov	r3, fp
 8001480:	f8cd 8010 	str.w	r8, [sp, #16]
 8001484:	f7ff ff14 	bl	80012b0 <st7735r__set_pixel>
 8001488:	9b04      	ldr	r3, [sp, #16]
 800148a:	4638      	mov	r0, r7
 800148c:	1b19      	subs	r1, r3, r4
 800148e:	b289      	uxth	r1, r1
 8001490:	4652      	mov	r2, sl
 8001492:	465b      	mov	r3, fp
 8001494:	f7ff ff0c 	bl	80012b0 <st7735r__set_pixel>
 8001498:	2d00      	cmp	r5, #0
 800149a:	ddd5      	ble.n	8001448 <st7735r__drawcircle+0x88>
 800149c:	9b03      	ldr	r3, [sp, #12]
 800149e:	3601      	adds	r6, #1
 80014a0:	2b00      	cmp	r3, #0
 80014a2:	dac5      	bge.n	8001430 <st7735r__drawcircle+0x70>
 80014a4:	eb03 0346 	add.w	r3, r3, r6, lsl #1
 80014a8:	3301      	adds	r3, #1
 80014aa:	9303      	str	r3, [sp, #12]
 80014ac:	e7c7      	b.n	800143e <st7735r__drawcircle+0x7e>
 80014ae:	9a04      	ldr	r2, [sp, #16]
 80014b0:	b2b3      	uxth	r3, r6
 80014b2:	9305      	str	r3, [sp, #20]
 80014b4:	18d3      	adds	r3, r2, r3
 80014b6:	b29b      	uxth	r3, r3
 80014b8:	461c      	mov	r4, r3
 80014ba:	4621      	mov	r1, r4
 80014bc:	b2aa      	uxth	r2, r5
 80014be:	68b8      	ldr	r0, [r7, #8]
 80014c0:	9308      	str	r3, [sp, #32]
 80014c2:	eb02 030a 	add.w	r3, r2, sl
 80014c6:	b29b      	uxth	r3, r3
 80014c8:	9307      	str	r3, [sp, #28]
 80014ca:	9206      	str	r2, [sp, #24]
 80014cc:	3101      	adds	r1, #1
 80014ce:	6802      	ldr	r2, [r0, #0]
 80014d0:	2300      	movs	r3, #0
 80014d2:	f88d 1033 	strb.w	r1, [sp, #51]	; 0x33
 80014d6:	9907      	ldr	r1, [sp, #28]
 80014d8:	6992      	ldr	r2, [r2, #24]
 80014da:	f88d 4031 	strb.w	r4, [sp, #49]	; 0x31
 80014de:	f88d 3030 	strb.w	r3, [sp, #48]	; 0x30
 80014e2:	f88d 3032 	strb.w	r3, [sp, #50]	; 0x32
 80014e6:	f8ad b028 	strh.w	fp, [sp, #40]	; 0x28
 80014ea:	1c4c      	adds	r4, r1, #1
 80014ec:	4790      	blx	r2
 80014ee:	68f8      	ldr	r0, [r7, #12]
 80014f0:	f10d 0940 	add.w	r9, sp, #64	; 0x40
 80014f4:	6803      	ldr	r3, [r0, #0]
 80014f6:	b2a4      	uxth	r4, r4
 80014f8:	699b      	ldr	r3, [r3, #24]
 80014fa:	4798      	blx	r3
 80014fc:	6878      	ldr	r0, [r7, #4]
 80014fe:	6803      	ldr	r3, [r0, #0]
 8001500:	6859      	ldr	r1, [r3, #4]
 8001502:	f04f 032a 	mov.w	r3, #42	; 0x2a
 8001506:	f809 3d04 	strb.w	r3, [r9, #-4]!
 800150a:	f44f 737a 	mov.w	r3, #1000	; 0x3e8
 800150e:	9300      	str	r3, [sp, #0]
 8001510:	464a      	mov	r2, r9
 8001512:	4ba8      	ldr	r3, [pc, #672]	; (80017b4 <st7735r__drawcircle+0x3f4>)
 8001514:	4788      	blx	r1
 8001516:	4680      	mov	r8, r0
 8001518:	68b8      	ldr	r0, [r7, #8]
 800151a:	6803      	ldr	r3, [r0, #0]
 800151c:	695b      	ldr	r3, [r3, #20]
 800151e:	4798      	blx	r3
 8001520:	f1b8 0f00 	cmp.w	r8, #0
 8001524:	f040 8141 	bne.w	80017aa <st7735r__drawcircle+0x3ea>
 8001528:	aa0c      	add	r2, sp, #48	; 0x30
 800152a:	4638      	mov	r0, r7
 800152c:	4ba2      	ldr	r3, [pc, #648]	; (80017b8 <st7735r__drawcircle+0x3f8>)
 800152e:	f7ff f895 	bl	800065c <st7735r__write_data__2>
 8001532:	68b8      	ldr	r0, [r7, #8]
 8001534:	f89d 101c 	ldrb.w	r1, [sp, #28]
 8001538:	6803      	ldr	r3, [r0, #0]
 800153a:	f88d 8034 	strb.w	r8, [sp, #52]	; 0x34
 800153e:	f88d 1035 	strb.w	r1, [sp, #53]	; 0x35
 8001542:	f88d 4037 	strb.w	r4, [sp, #55]	; 0x37
 8001546:	699b      	ldr	r3, [r3, #24]
 8001548:	f88d 8036 	strb.w	r8, [sp, #54]	; 0x36
 800154c:	4798      	blx	r3
 800154e:	68f8      	ldr	r0, [r7, #12]
 8001550:	f44f 747a 	mov.w	r4, #1000	; 0x3e8
 8001554:	6803      	ldr	r3, [r0, #0]
 8001556:	699b      	ldr	r3, [r3, #24]
 8001558:	4798      	blx	r3
 800155a:	6878      	ldr	r0, [r7, #4]
 800155c:	464a      	mov	r2, r9
 800155e:	6803      	ldr	r3, [r0, #0]
 8001560:	6859      	ldr	r1, [r3, #4]
 8001562:	9400      	str	r4, [sp, #0]
 8001564:	f04f 042b 	mov.w	r4, #43	; 0x2b
 8001568:	4b92      	ldr	r3, [pc, #584]	; (80017b4 <st7735r__drawcircle+0x3f4>)
 800156a:	f88d 403c 	strb.w	r4, [sp, #60]	; 0x3c
 800156e:	4788      	blx	r1
 8001570:	4604      	mov	r4, r0
 8001572:	68b8      	ldr	r0, [r7, #8]
 8001574:	6802      	ldr	r2, [r0, #0]
 8001576:	6953      	ldr	r3, [r2, #20]
 8001578:	4798      	blx	r3
 800157a:	2c00      	cmp	r4, #0
 800157c:	f040 8115 	bne.w	80017aa <st7735r__drawcircle+0x3ea>
 8001580:	ab0d      	add	r3, sp, #52	; 0x34
 8001582:	461a      	mov	r2, r3
 8001584:	4638      	mov	r0, r7
 8001586:	4b8c      	ldr	r3, [pc, #560]	; (80017b8 <st7735r__drawcircle+0x3f8>)
 8001588:	f7ff f868 	bl	800065c <st7735r__write_data__2>
 800158c:	68b8      	ldr	r0, [r7, #8]
 800158e:	f44f 747a 	mov.w	r4, #1000	; 0x3e8
 8001592:	6803      	ldr	r3, [r0, #0]
 8001594:	699b      	ldr	r3, [r3, #24]
 8001596:	4798      	blx	r3
 8001598:	68f8      	ldr	r0, [r7, #12]
 800159a:	6803      	ldr	r3, [r0, #0]
 800159c:	699b      	ldr	r3, [r3, #24]
 800159e:	4798      	blx	r3
 80015a0:	6878      	ldr	r0, [r7, #4]
 80015a2:	464a      	mov	r2, r9
 80015a4:	6803      	ldr	r3, [r0, #0]
 80015a6:	6859      	ldr	r1, [r3, #4]
 80015a8:	9400      	str	r4, [sp, #0]
 80015aa:	f04f 042c 	mov.w	r4, #44	; 0x2c
 80015ae:	4b81      	ldr	r3, [pc, #516]	; (80017b4 <st7735r__drawcircle+0x3f4>)
 80015b0:	f88d 403c 	strb.w	r4, [sp, #60]	; 0x3c
 80015b4:	4788      	blx	r1
 80015b6:	4604      	mov	r4, r0
 80015b8:	68b8      	ldr	r0, [r7, #8]
 80015ba:	6803      	ldr	r3, [r0, #0]
 80015bc:	695b      	ldr	r3, [r3, #20]
 80015be:	4798      	blx	r3
 80015c0:	9409      	str	r4, [sp, #36]	; 0x24
 80015c2:	2c00      	cmp	r4, #0
 80015c4:	f040 80f1 	bne.w	80017aa <st7735r__drawcircle+0x3ea>
 80015c8:	a90a      	add	r1, sp, #40	; 0x28
 80015ca:	460a      	mov	r2, r1
 80015cc:	4638      	mov	r0, r7
 80015ce:	4b7b      	ldr	r3, [pc, #492]	; (80017bc <st7735r__drawcircle+0x3fc>)
 80015d0:	f7ff f882 	bl	80006d8 <st7735r__write_data__3>
 80015d4:	9b04      	ldr	r3, [sp, #16]
 80015d6:	9905      	ldr	r1, [sp, #20]
 80015d8:	9a07      	ldr	r2, [sp, #28]
 80015da:	ebc1 0803 	rsb	r8, r1, r3
 80015de:	fa1f f888 	uxth.w	r8, r8
 80015e2:	4641      	mov	r1, r8
 80015e4:	4638      	mov	r0, r7
 80015e6:	465b      	mov	r3, fp
 80015e8:	f7ff fe62 	bl	80012b0 <st7735r__set_pixel>
 80015ec:	9a06      	ldr	r2, [sp, #24]
 80015ee:	9908      	ldr	r1, [sp, #32]
 80015f0:	ebc2 040a 	rsb	r4, r2, sl
 80015f4:	b2a4      	uxth	r4, r4
 80015f6:	4622      	mov	r2, r4
 80015f8:	4638      	mov	r0, r7
 80015fa:	465b      	mov	r3, fp
 80015fc:	f7ff fe58 	bl	80012b0 <st7735r__set_pixel>
 8001600:	4641      	mov	r1, r8
 8001602:	4622      	mov	r2, r4
 8001604:	4638      	mov	r0, r7
 8001606:	465b      	mov	r3, fp
 8001608:	f7ff fe52 	bl	80012b0 <st7735r__set_pixel>
 800160c:	9806      	ldr	r0, [sp, #24]
 800160e:	9c04      	ldr	r4, [sp, #16]
 8001610:	9b05      	ldr	r3, [sp, #20]
 8001612:	eb00 0c04 	add.w	ip, r0, r4
 8001616:	eb0a 0803 	add.w	r8, sl, r3
 800161a:	fa1f fc8c 	uxth.w	ip, ip
 800161e:	fa1f f888 	uxth.w	r8, r8
 8001622:	4661      	mov	r1, ip
 8001624:	4642      	mov	r2, r8
 8001626:	4638      	mov	r0, r7
 8001628:	465b      	mov	r3, fp
 800162a:	f8cd c01c 	str.w	ip, [sp, #28]
 800162e:	f7ff fe3f 	bl	80012b0 <st7735r__set_pixel>
 8001632:	9806      	ldr	r0, [sp, #24]
 8001634:	4642      	mov	r2, r8
 8001636:	1a24      	subs	r4, r4, r0
 8001638:	b2a4      	uxth	r4, r4
 800163a:	4621      	mov	r1, r4
 800163c:	4638      	mov	r0, r7
 800163e:	465b      	mov	r3, fp
 8001640:	f7ff fe36 	bl	80012b0 <st7735r__set_pixel>
 8001644:	9b05      	ldr	r3, [sp, #20]
 8001646:	f8dd c01c 	ldr.w	ip, [sp, #28]
 800164a:	ebc3 080a 	rsb	r8, r3, sl
 800164e:	fa1f f888 	uxth.w	r8, r8
 8001652:	4661      	mov	r1, ip
 8001654:	4642      	mov	r2, r8
 8001656:	4638      	mov	r0, r7
 8001658:	465b      	mov	r3, fp
 800165a:	f7ff fe29 	bl	80012b0 <st7735r__set_pixel>
 800165e:	68b8      	ldr	r0, [r7, #8]
 8001660:	1c62      	adds	r2, r4, #1
 8001662:	6803      	ldr	r3, [r0, #0]
 8001664:	f88d 203b 	strb.w	r2, [sp, #59]	; 0x3b
 8001668:	9a09      	ldr	r2, [sp, #36]	; 0x24
 800166a:	f88d 4039 	strb.w	r4, [sp, #57]	; 0x39
 800166e:	f108 0401 	add.w	r4, r8, #1
 8001672:	f88d 2038 	strb.w	r2, [sp, #56]	; 0x38
 8001676:	f88d 203a 	strb.w	r2, [sp, #58]	; 0x3a
 800167a:	b2a2      	uxth	r2, r4
 800167c:	f04f 042a 	mov.w	r4, #42	; 0x2a
 8001680:	9205      	str	r2, [sp, #20]
 8001682:	699b      	ldr	r3, [r3, #24]
 8001684:	f8ad b02c 	strh.w	fp, [sp, #44]	; 0x2c
 8001688:	4798      	blx	r3
 800168a:	68f8      	ldr	r0, [r7, #12]
 800168c:	6803      	ldr	r3, [r0, #0]
 800168e:	699b      	ldr	r3, [r3, #24]
 8001690:	4798      	blx	r3
 8001692:	6878      	ldr	r0, [r7, #4]
 8001694:	464a      	mov	r2, r9
 8001696:	6803      	ldr	r3, [r0, #0]
 8001698:	6859      	ldr	r1, [r3, #4]
 800169a:	f88d 403c 	strb.w	r4, [sp, #60]	; 0x3c
 800169e:	f44f 747a 	mov.w	r4, #1000	; 0x3e8
 80016a2:	4b44      	ldr	r3, [pc, #272]	; (80017b4 <st7735r__drawcircle+0x3f4>)
 80016a4:	9400      	str	r4, [sp, #0]
 80016a6:	4788      	blx	r1
 80016a8:	4604      	mov	r4, r0
 80016aa:	68b8      	ldr	r0, [r7, #8]
 80016ac:	6803      	ldr	r3, [r0, #0]
 80016ae:	695b      	ldr	r3, [r3, #20]
 80016b0:	4798      	blx	r3
 80016b2:	2c00      	cmp	r4, #0
 80016b4:	d179      	bne.n	80017aa <st7735r__drawcircle+0x3ea>
 80016b6:	ab0e      	add	r3, sp, #56	; 0x38
 80016b8:	461a      	mov	r2, r3
 80016ba:	4638      	mov	r0, r7
 80016bc:	4b3e      	ldr	r3, [pc, #248]	; (80017b8 <st7735r__drawcircle+0x3f8>)
 80016be:	f7fe ffcd 	bl	800065c <st7735r__write_data__2>
 80016c2:	68b8      	ldr	r0, [r7, #8]
 80016c4:	f88d 403c 	strb.w	r4, [sp, #60]	; 0x3c
 80016c8:	6803      	ldr	r3, [r0, #0]
 80016ca:	f88d 403e 	strb.w	r4, [sp, #62]	; 0x3e
 80016ce:	f04f 042b 	mov.w	r4, #43	; 0x2b
 80016d2:	f89d 2014 	ldrb.w	r2, [sp, #20]
 80016d6:	f88d 803d 	strb.w	r8, [sp, #61]	; 0x3d
 80016da:	f88d 203f 	strb.w	r2, [sp, #63]	; 0x3f
 80016de:	699b      	ldr	r3, [r3, #24]
 80016e0:	4798      	blx	r3
 80016e2:	68f8      	ldr	r0, [r7, #12]
 80016e4:	6803      	ldr	r3, [r0, #0]
 80016e6:	699b      	ldr	r3, [r3, #24]
 80016e8:	4798      	blx	r3
 80016ea:	6878      	ldr	r0, [r7, #4]
 80016ec:	aa0e      	add	r2, sp, #56	; 0x38
 80016ee:	6803      	ldr	r3, [r0, #0]
 80016f0:	6859      	ldr	r1, [r3, #4]
 80016f2:	f88d 4038 	strb.w	r4, [sp, #56]	; 0x38
 80016f6:	f44f 747a 	mov.w	r4, #1000	; 0x3e8
 80016fa:	4b2e      	ldr	r3, [pc, #184]	; (80017b4 <st7735r__drawcircle+0x3f4>)
 80016fc:	9400      	str	r4, [sp, #0]
 80016fe:	4788      	blx	r1
 8001700:	4604      	mov	r4, r0
 8001702:	68b8      	ldr	r0, [r7, #8]
 8001704:	6802      	ldr	r2, [r0, #0]
 8001706:	6953      	ldr	r3, [r2, #20]
 8001708:	4798      	blx	r3
 800170a:	2c00      	cmp	r4, #0
 800170c:	d14d      	bne.n	80017aa <st7735r__drawcircle+0x3ea>
 800170e:	464a      	mov	r2, r9
 8001710:	4638      	mov	r0, r7
 8001712:	4b29      	ldr	r3, [pc, #164]	; (80017b8 <st7735r__drawcircle+0x3f8>)
 8001714:	f7fe ffa2 	bl	800065c <st7735r__write_data__2>
 8001718:	68b8      	ldr	r0, [r7, #8]
 800171a:	6803      	ldr	r3, [r0, #0]
 800171c:	699b      	ldr	r3, [r3, #24]
 800171e:	4798      	blx	r3
 8001720:	68f8      	ldr	r0, [r7, #12]
 8001722:	6803      	ldr	r3, [r0, #0]
 8001724:	699b      	ldr	r3, [r3, #24]
 8001726:	4798      	blx	r3
 8001728:	6878      	ldr	r0, [r7, #4]
 800172a:	464a      	mov	r2, r9
 800172c:	6803      	ldr	r3, [r0, #0]
 800172e:	6859      	ldr	r1, [r3, #4]
 8001730:	f04f 032c 	mov.w	r3, #44	; 0x2c
 8001734:	f88d 303c 	strb.w	r3, [sp, #60]	; 0x3c
 8001738:	f44f 737a 	mov.w	r3, #1000	; 0x3e8
 800173c:	9300      	str	r3, [sp, #0]
 800173e:	4b1d      	ldr	r3, [pc, #116]	; (80017b4 <st7735r__drawcircle+0x3f4>)
 8001740:	4788      	blx	r1
 8001742:	4604      	mov	r4, r0
 8001744:	68b8      	ldr	r0, [r7, #8]
 8001746:	6802      	ldr	r2, [r0, #0]
 8001748:	6953      	ldr	r3, [r2, #20]
 800174a:	4798      	blx	r3
 800174c:	bb6c      	cbnz	r4, 80017aa <st7735r__drawcircle+0x3ea>
 800174e:	aa0b      	add	r2, sp, #44	; 0x2c
 8001750:	4638      	mov	r0, r7
 8001752:	4b1a      	ldr	r3, [pc, #104]	; (80017bc <st7735r__drawcircle+0x3fc>)
 8001754:	f7fe ffc0 	bl	80006d8 <st7735r__write_data__3>
 8001758:	e666      	b.n	8001428 <st7735r__drawcircle+0x68>
 800175a:	b2ac      	uxth	r4, r5
 800175c:	9d04      	ldr	r5, [sp, #16]
 800175e:	eb04 030a 	add.w	r3, r4, sl
 8001762:	1962      	adds	r2, r4, r5
 8001764:	b296      	uxth	r6, r2
 8001766:	fa1f f883 	uxth.w	r8, r3
 800176a:	1b2d      	subs	r5, r5, r4
 800176c:	4631      	mov	r1, r6
 800176e:	4642      	mov	r2, r8
 8001770:	4638      	mov	r0, r7
 8001772:	465b      	mov	r3, fp
 8001774:	b2ad      	uxth	r5, r5
 8001776:	ebc4 040a 	rsb	r4, r4, sl
 800177a:	f7ff fd99 	bl	80012b0 <st7735r__set_pixel>
 800177e:	b2a4      	uxth	r4, r4
 8001780:	4642      	mov	r2, r8
 8001782:	4629      	mov	r1, r5
 8001784:	4638      	mov	r0, r7
 8001786:	465b      	mov	r3, fp
 8001788:	f7ff fd92 	bl	80012b0 <st7735r__set_pixel>
 800178c:	4631      	mov	r1, r6
 800178e:	4622      	mov	r2, r4
 8001790:	4638      	mov	r0, r7
 8001792:	465b      	mov	r3, fp
 8001794:	f7ff fd8c 	bl	80012b0 <st7735r__set_pixel>
 8001798:	4638      	mov	r0, r7
 800179a:	4629      	mov	r1, r5
 800179c:	4622      	mov	r2, r4
 800179e:	465b      	mov	r3, fp
 80017a0:	f7ff fd86 	bl	80012b0 <st7735r__set_pixel>
 80017a4:	b011      	add	sp, #68	; 0x44
 80017a6:	e8bd 8ff0 	ldmia.w	sp!, {r4, r5, r6, r7, r8, r9, sl, fp, pc}
 80017aa:	4805      	ldr	r0, [pc, #20]	; (80017c0 <st7735r__drawcircle+0x400>)
 80017ac:	218b      	movs	r1, #139	; 0x8b
 80017ae:	f7fe fe87 	bl	80004c0 <__gnat_last_chance_handler>
 80017b2:	bf00      	nop
 80017b4:	08009bfc 	.word	0x08009bfc
 80017b8:	08009c30 	.word	0x08009c30
 80017bc:	08009c48 	.word	0x08009c48
 80017c0:	08009c04 	.word	0x08009c04

080017c4 <st7735r__fill_region>:
 80017c4:	e92d 4ff0 	stmdb	sp!, {r4, r5, r6, r7, r8, r9, sl, fp, lr}
 80017c8:	460c      	mov	r4, r1
 80017ca:	4691      	mov	r9, r2
 80017cc:	4682      	mov	sl, r0
 80017ce:	6880      	ldr	r0, [r0, #8]
 80017d0:	b087      	sub	sp, #28
 80017d2:	2200      	movs	r2, #0
 80017d4:	9103      	str	r1, [sp, #12]
 80017d6:	6801      	ldr	r1, [r0, #0]
 80017d8:	f88d 4011 	strb.w	r4, [sp, #17]
 80017dc:	f88d 9013 	strb.w	r9, [sp, #19]
 80017e0:	f88d 2010 	strb.w	r2, [sp, #16]
 80017e4:	f88d 2012 	strb.w	r2, [sp, #18]
 80017e8:	698a      	ldr	r2, [r1, #24]
 80017ea:	469b      	mov	fp, r3
 80017ec:	f8bd 4040 	ldrh.w	r4, [sp, #64]	; 0x40
 80017f0:	f8bd 7044 	ldrh.w	r7, [sp, #68]	; 0x44
 80017f4:	4790      	blx	r2
 80017f6:	f8da 000c 	ldr.w	r0, [sl, #12]
 80017fa:	ad06      	add	r5, sp, #24
 80017fc:	6803      	ldr	r3, [r0, #0]
 80017fe:	f44f 767a 	mov.w	r6, #1000	; 0x3e8
 8001802:	699b      	ldr	r3, [r3, #24]
 8001804:	4798      	blx	r3
 8001806:	f8da 0004 	ldr.w	r0, [sl, #4]
 800180a:	232a      	movs	r3, #42	; 0x2a
 800180c:	6802      	ldr	r2, [r0, #0]
 800180e:	6851      	ldr	r1, [r2, #4]
 8001810:	f805 3d04 	strb.w	r3, [r5, #-4]!
 8001814:	462a      	mov	r2, r5
 8001816:	4b4a      	ldr	r3, [pc, #296]	; (8001940 <st7735r__fill_region+0x17c>)
 8001818:	9600      	str	r6, [sp, #0]
 800181a:	4788      	blx	r1
 800181c:	4680      	mov	r8, r0
 800181e:	f8da 0008 	ldr.w	r0, [sl, #8]
 8001822:	6803      	ldr	r3, [r0, #0]
 8001824:	695b      	ldr	r3, [r3, #20]
 8001826:	4798      	blx	r3
 8001828:	f1b8 0f00 	cmp.w	r8, #0
 800182c:	f040 8083 	bne.w	8001936 <st7735r__fill_region+0x172>
 8001830:	aa04      	add	r2, sp, #16
 8001832:	4650      	mov	r0, sl
 8001834:	4b43      	ldr	r3, [pc, #268]	; (8001944 <st7735r__fill_region+0x180>)
 8001836:	f7fe ff11 	bl	800065c <st7735r__write_data__2>
 800183a:	f8da 0008 	ldr.w	r0, [sl, #8]
 800183e:	f88d 8014 	strb.w	r8, [sp, #20]
 8001842:	6803      	ldr	r3, [r0, #0]
 8001844:	f88d 8016 	strb.w	r8, [sp, #22]
 8001848:	f88d b015 	strb.w	fp, [sp, #21]
 800184c:	f88d 4017 	strb.w	r4, [sp, #23]
 8001850:	699b      	ldr	r3, [r3, #24]
 8001852:	4798      	blx	r3
 8001854:	f8da 000c 	ldr.w	r0, [sl, #12]
 8001858:	6803      	ldr	r3, [r0, #0]
 800185a:	699b      	ldr	r3, [r3, #24]
 800185c:	4798      	blx	r3
 800185e:	f8da 0004 	ldr.w	r0, [sl, #4]
 8001862:	232b      	movs	r3, #43	; 0x2b
 8001864:	6801      	ldr	r1, [r0, #0]
 8001866:	aa04      	add	r2, sp, #16
 8001868:	6849      	ldr	r1, [r1, #4]
 800186a:	f88d 3010 	strb.w	r3, [sp, #16]
 800186e:	9600      	str	r6, [sp, #0]
 8001870:	4b33      	ldr	r3, [pc, #204]	; (8001940 <st7735r__fill_region+0x17c>)
 8001872:	4788      	blx	r1
 8001874:	4680      	mov	r8, r0
 8001876:	f8da 0008 	ldr.w	r0, [sl, #8]
 800187a:	6802      	ldr	r2, [r0, #0]
 800187c:	6953      	ldr	r3, [r2, #20]
 800187e:	4798      	blx	r3
 8001880:	f1b8 0f00 	cmp.w	r8, #0
 8001884:	d157      	bne.n	8001936 <st7735r__fill_region+0x172>
 8001886:	462a      	mov	r2, r5
 8001888:	4650      	mov	r0, sl
 800188a:	4b2e      	ldr	r3, [pc, #184]	; (8001944 <st7735r__fill_region+0x180>)
 800188c:	f7fe fee6 	bl	800065c <st7735r__write_data__2>
 8001890:	f8da 0008 	ldr.w	r0, [sl, #8]
 8001894:	6803      	ldr	r3, [r0, #0]
 8001896:	699b      	ldr	r3, [r3, #24]
 8001898:	4798      	blx	r3
 800189a:	f8da 000c 	ldr.w	r0, [sl, #12]
 800189e:	6803      	ldr	r3, [r0, #0]
 80018a0:	699b      	ldr	r3, [r3, #24]
 80018a2:	4798      	blx	r3
 80018a4:	f8da 0004 	ldr.w	r0, [sl, #4]
 80018a8:	232c      	movs	r3, #44	; 0x2c
 80018aa:	6802      	ldr	r2, [r0, #0]
 80018ac:	6851      	ldr	r1, [r2, #4]
 80018ae:	462a      	mov	r2, r5
 80018b0:	f88d 3014 	strb.w	r3, [sp, #20]
 80018b4:	9600      	str	r6, [sp, #0]
 80018b6:	4b22      	ldr	r3, [pc, #136]	; (8001940 <st7735r__fill_region+0x17c>)
 80018b8:	4788      	blx	r1
 80018ba:	4680      	mov	r8, r0
 80018bc:	f8da 0008 	ldr.w	r0, [sl, #8]
 80018c0:	6802      	ldr	r2, [r0, #0]
 80018c2:	6953      	ldr	r3, [r2, #20]
 80018c4:	4798      	blx	r3
 80018c6:	f1b8 0f00 	cmp.w	r8, #0
 80018ca:	d134      	bne.n	8001936 <st7735r__fill_region+0x172>
 80018cc:	f8da 0008 	ldr.w	r0, [sl, #8]
 80018d0:	3401      	adds	r4, #1
 80018d2:	6803      	ldr	r3, [r0, #0]
 80018d4:	ebcb 0b04 	rsb	fp, fp, r4
 80018d8:	699b      	ldr	r3, [r3, #24]
 80018da:	4798      	blx	r3
 80018dc:	f8da 000c 	ldr.w	r0, [sl, #12]
 80018e0:	ea4f 2817 	mov.w	r8, r7, lsr #8
 80018e4:	6803      	ldr	r3, [r0, #0]
 80018e6:	b2ff      	uxtb	r7, r7
 80018e8:	695b      	ldr	r3, [r3, #20]
 80018ea:	4798      	blx	r3
 80018ec:	9b03      	ldr	r3, [sp, #12]
 80018ee:	ebc3 0909 	rsb	r9, r3, r9
 80018f2:	fb09 bb0b 	mla	fp, r9, fp, fp
 80018f6:	fa1f f48b 	uxth.w	r4, fp
 80018fa:	b184      	cbz	r4, 800191e <st7735r__fill_region+0x15a>
 80018fc:	f8da 0004 	ldr.w	r0, [sl, #4]
 8001900:	462a      	mov	r2, r5
 8001902:	6803      	ldr	r3, [r0, #0]
 8001904:	6859      	ldr	r1, [r3, #4]
 8001906:	4b10      	ldr	r3, [pc, #64]	; (8001948 <st7735r__fill_region+0x184>)
 8001908:	f88d 8014 	strb.w	r8, [sp, #20]
 800190c:	f88d 7015 	strb.w	r7, [sp, #21]
 8001910:	9600      	str	r6, [sp, #0]
 8001912:	4788      	blx	r1
 8001914:	b958      	cbnz	r0, 800192e <st7735r__fill_region+0x16a>
 8001916:	3c01      	subs	r4, #1
 8001918:	b2a4      	uxth	r4, r4
 800191a:	2c00      	cmp	r4, #0
 800191c:	d1ee      	bne.n	80018fc <st7735r__fill_region+0x138>
 800191e:	f8da 0008 	ldr.w	r0, [sl, #8]
 8001922:	6803      	ldr	r3, [r0, #0]
 8001924:	695b      	ldr	r3, [r3, #20]
 8001926:	4798      	blx	r3
 8001928:	b007      	add	sp, #28
 800192a:	e8bd 8ff0 	ldmia.w	sp!, {r4, r5, r6, r7, r8, r9, sl, fp, pc}
 800192e:	4807      	ldr	r0, [pc, #28]	; (800194c <st7735r__fill_region+0x188>)
 8001930:	21de      	movs	r1, #222	; 0xde
 8001932:	f7fe fdc5 	bl	80004c0 <__gnat_last_chance_handler>
 8001936:	4805      	ldr	r0, [pc, #20]	; (800194c <st7735r__fill_region+0x188>)
 8001938:	218b      	movs	r1, #139	; 0x8b
 800193a:	f7fe fdc1 	bl	80004c0 <__gnat_last_chance_handler>
 800193e:	bf00      	nop
 8001940:	08009bfc 	.word	0x08009bfc
 8001944:	08009c30 	.word	0x08009c30
 8001948:	08009c10 	.word	0x08009c10
 800194c:	08009c04 	.word	0x08009c04

08001950 <st7735r__drawfastvline>:
 8001950:	b530      	push	{r4, r5, lr}
 8001952:	297f      	cmp	r1, #127	; 0x7f
 8001954:	b083      	sub	sp, #12
 8001956:	f8bd 5018 	ldrh.w	r5, [sp, #24]
 800195a:	d812      	bhi.n	8001982 <st7735r__drawfastvline+0x32>
 800195c:	2a9f      	cmp	r2, #159	; 0x9f
 800195e:	d810      	bhi.n	8001982 <st7735r__drawfastvline+0x32>
 8001960:	1e54      	subs	r4, r2, #1
 8001962:	441c      	add	r4, r3
 8001964:	b2a4      	uxth	r4, r4
 8001966:	2c9f      	cmp	r4, #159	; 0x9f
 8001968:	bf92      	itee	ls
 800196a:	461c      	movls	r4, r3
 800196c:	f1c2 04a0 	rsbhi	r4, r2, #160	; 0xa0
 8001970:	b2a4      	uxthhi	r4, r4
 8001972:	4414      	add	r4, r2
 8001974:	b2a4      	uxth	r4, r4
 8001976:	4613      	mov	r3, r2
 8001978:	e88d 0030 	stmia.w	sp, {r4, r5}
 800197c:	460a      	mov	r2, r1
 800197e:	f7ff ff21 	bl	80017c4 <st7735r__fill_region>
 8001982:	b003      	add	sp, #12
 8001984:	bd30      	pop	{r4, r5, pc}
 8001986:	bf00      	nop

08001988 <st7735r__drawfasthline>:
 8001988:	b530      	push	{r4, r5, lr}
 800198a:	297f      	cmp	r1, #127	; 0x7f
 800198c:	b083      	sub	sp, #12
 800198e:	f8bd 5018 	ldrh.w	r5, [sp, #24]
 8001992:	d812      	bhi.n	80019ba <st7735r__drawfasthline+0x32>
 8001994:	2a9f      	cmp	r2, #159	; 0x9f
 8001996:	d810      	bhi.n	80019ba <st7735r__drawfasthline+0x32>
 8001998:	1e4c      	subs	r4, r1, #1
 800199a:	441c      	add	r4, r3
 800199c:	b2a4      	uxth	r4, r4
 800199e:	2c7f      	cmp	r4, #127	; 0x7f
 80019a0:	bf98      	it	ls
 80019a2:	461c      	movls	r4, r3
 80019a4:	4613      	mov	r3, r2
 80019a6:	bf84      	itt	hi
 80019a8:	f1c1 0480 	rsbhi	r4, r1, #128	; 0x80
 80019ac:	b2a4      	uxthhi	r4, r4
 80019ae:	1862      	adds	r2, r4, r1
 80019b0:	b292      	uxth	r2, r2
 80019b2:	e88d 0028 	stmia.w	sp, {r3, r5}
 80019b6:	f7ff ff05 	bl	80017c4 <st7735r__fill_region>
 80019ba:	b003      	add	sp, #12
 80019bc:	bd30      	pop	{r4, r5, pc}
 80019be:	bf00      	nop

080019c0 <st7735r__drawrect>:
 80019c0:	e92d 4ff0 	stmdb	sp!, {r4, r5, r6, r7, r8, r9, sl, fp, lr}
 80019c4:	4616      	mov	r6, r2
 80019c6:	297f      	cmp	r1, #127	; 0x7f
 80019c8:	b083      	sub	sp, #12
 80019ca:	bf94      	ite	ls
 80019cc:	2200      	movls	r2, #0
 80019ce:	2201      	movhi	r2, #1
 80019d0:	2e9f      	cmp	r6, #159	; 0x9f
 80019d2:	460f      	mov	r7, r1
 80019d4:	461d      	mov	r5, r3
 80019d6:	bf94      	ite	ls
 80019d8:	f04f 0800 	movls.w	r8, #0
 80019dc:	f04f 0801 	movhi.w	r8, #1
 80019e0:	4682      	mov	sl, r0
 80019e2:	f8bd 4030 	ldrh.w	r4, [sp, #48]	; 0x30
 80019e6:	f8bd 9034 	ldrh.w	r9, [sp, #52]	; 0x34
 80019ea:	b912      	cbnz	r2, 80019f2 <st7735r__drawrect+0x32>
 80019ec:	f1b8 0f00 	cmp.w	r8, #0
 80019f0:	d00c      	beq.n	8001a0c <st7735r__drawrect+0x4c>
 80019f2:	4434      	add	r4, r6
 80019f4:	b2a4      	uxth	r4, r4
 80019f6:	2c9f      	cmp	r4, #159	; 0x9f
 80019f8:	d801      	bhi.n	80019fe <st7735r__drawrect+0x3e>
 80019fa:	2a00      	cmp	r2, #0
 80019fc:	d03c      	beq.n	8001a78 <st7735r__drawrect+0xb8>
 80019fe:	443d      	add	r5, r7
 8001a00:	b2a9      	uxth	r1, r5
 8001a02:	297f      	cmp	r1, #127	; 0x7f
 8001a04:	d925      	bls.n	8001a52 <st7735r__drawrect+0x92>
 8001a06:	b003      	add	sp, #12
 8001a08:	e8bd 8ff0 	ldmia.w	sp!, {r4, r5, r6, r7, r8, r9, sl, fp, pc}
 8001a0c:	3b01      	subs	r3, #1
 8001a0e:	440b      	add	r3, r1
 8001a10:	b29b      	uxth	r3, r3
 8001a12:	2b7f      	cmp	r3, #127	; 0x7f
 8001a14:	d83f      	bhi.n	8001a96 <st7735r__drawrect+0xd6>
 8001a16:	440d      	add	r5, r1
 8001a18:	fa1f fb85 	uxth.w	fp, r5
 8001a1c:	4434      	add	r4, r6
 8001a1e:	e88d 0240 	stmia.w	sp, {r6, r9}
 8001a22:	465a      	mov	r2, fp
 8001a24:	4633      	mov	r3, r6
 8001a26:	b2a4      	uxth	r4, r4
 8001a28:	f7ff fecc 	bl	80017c4 <st7735r__fill_region>
 8001a2c:	2c9f      	cmp	r4, #159	; 0x9f
 8001a2e:	d952      	bls.n	8001ad6 <st7735r__drawrect+0x116>
 8001a30:	1e63      	subs	r3, r4, #1
 8001a32:	b29b      	uxth	r3, r3
 8001a34:	2b9f      	cmp	r3, #159	; 0x9f
 8001a36:	bf94      	ite	ls
 8001a38:	4623      	movls	r3, r4
 8001a3a:	23a0      	movhi	r3, #160	; 0xa0
 8001a3c:	e88d 0208 	stmia.w	sp, {r3, r9}
 8001a40:	4650      	mov	r0, sl
 8001a42:	4639      	mov	r1, r7
 8001a44:	463a      	mov	r2, r7
 8001a46:	4633      	mov	r3, r6
 8001a48:	f7ff febc 	bl	80017c4 <st7735r__fill_region>
 8001a4c:	b2a9      	uxth	r1, r5
 8001a4e:	297f      	cmp	r1, #127	; 0x7f
 8001a50:	d8d9      	bhi.n	8001a06 <st7735r__drawrect+0x46>
 8001a52:	f1b8 0f00 	cmp.w	r8, #0
 8001a56:	d1d6      	bne.n	8001a06 <st7735r__drawrect+0x46>
 8001a58:	1e63      	subs	r3, r4, #1
 8001a5a:	b29b      	uxth	r3, r3
 8001a5c:	2ba0      	cmp	r3, #160	; 0xa0
 8001a5e:	4650      	mov	r0, sl
 8001a60:	4633      	mov	r3, r6
 8001a62:	460a      	mov	r2, r1
 8001a64:	bf28      	it	cs
 8001a66:	24a0      	movcs	r4, #160	; 0xa0
 8001a68:	f8cd 9034 	str.w	r9, [sp, #52]	; 0x34
 8001a6c:	940c      	str	r4, [sp, #48]	; 0x30
 8001a6e:	b003      	add	sp, #12
 8001a70:	e8bd 4ff0 	ldmia.w	sp!, {r4, r5, r6, r7, r8, r9, sl, fp, lr}
 8001a74:	f7ff bea6 	b.w	80017c4 <st7735r__fill_region>
 8001a78:	1e6b      	subs	r3, r5, #1
 8001a7a:	443b      	add	r3, r7
 8001a7c:	b29b      	uxth	r3, r3
 8001a7e:	2b7f      	cmp	r3, #127	; 0x7f
 8001a80:	d91f      	bls.n	8001ac2 <st7735r__drawrect+0x102>
 8001a82:	e88d 0210 	stmia.w	sp, {r4, r9}
 8001a86:	4650      	mov	r0, sl
 8001a88:	4639      	mov	r1, r7
 8001a8a:	2280      	movs	r2, #128	; 0x80
 8001a8c:	4623      	mov	r3, r4
 8001a8e:	f7ff fe99 	bl	80017c4 <st7735r__fill_region>
 8001a92:	443d      	add	r5, r7
 8001a94:	e7b4      	b.n	8001a00 <st7735r__drawrect+0x40>
 8001a96:	4434      	add	r4, r6
 8001a98:	e88d 0240 	stmia.w	sp, {r6, r9}
 8001a9c:	2280      	movs	r2, #128	; 0x80
 8001a9e:	4633      	mov	r3, r6
 8001aa0:	b2a4      	uxth	r4, r4
 8001aa2:	f7ff fe8f 	bl	80017c4 <st7735r__fill_region>
 8001aa6:	2c9f      	cmp	r4, #159	; 0x9f
 8001aa8:	d901      	bls.n	8001aae <st7735r__drawrect+0xee>
 8001aaa:	443d      	add	r5, r7
 8001aac:	e7c0      	b.n	8001a30 <st7735r__drawrect+0x70>
 8001aae:	e88d 0210 	stmia.w	sp, {r4, r9}
 8001ab2:	4650      	mov	r0, sl
 8001ab4:	4639      	mov	r1, r7
 8001ab6:	2280      	movs	r2, #128	; 0x80
 8001ab8:	4623      	mov	r3, r4
 8001aba:	f7ff fe83 	bl	80017c4 <st7735r__fill_region>
 8001abe:	443d      	add	r5, r7
 8001ac0:	e7b6      	b.n	8001a30 <st7735r__drawrect+0x70>
 8001ac2:	443d      	add	r5, r7
 8001ac4:	e88d 0210 	stmia.w	sp, {r4, r9}
 8001ac8:	4639      	mov	r1, r7
 8001aca:	b2aa      	uxth	r2, r5
 8001acc:	4650      	mov	r0, sl
 8001ace:	4623      	mov	r3, r4
 8001ad0:	f7ff fe78 	bl	80017c4 <st7735r__fill_region>
 8001ad4:	e7ba      	b.n	8001a4c <st7735r__drawrect+0x8c>
 8001ad6:	e88d 0210 	stmia.w	sp, {r4, r9}
 8001ada:	465a      	mov	r2, fp
 8001adc:	4650      	mov	r0, sl
 8001ade:	4639      	mov	r1, r7
 8001ae0:	4623      	mov	r3, r4
 8001ae2:	f7ff fe6f 	bl	80017c4 <st7735r__fill_region>
 8001ae6:	e7a3      	b.n	8001a30 <st7735r__drawrect+0x70>

08001ae8 <st7735r__drawline>:
 8001ae8:	e92d 4ff0 	stmdb	sp!, {r4, r5, r6, r7, r8, r9, sl, fp, lr}
 8001aec:	b085      	sub	sp, #20
 8001aee:	f8bd b038 	ldrh.w	fp, [sp, #56]	; 0x38
 8001af2:	1a5d      	subs	r5, r3, r1
 8001af4:	ebc2 060b 	rsb	r6, r2, fp
 8001af8:	b2ad      	uxth	r5, r5
 8001afa:	b2b6      	uxth	r6, r6
 8001afc:	42ae      	cmp	r6, r5
 8001afe:	bf94      	ite	ls
 8001b00:	2500      	movls	r5, #0
 8001b02:	2501      	movhi	r5, #1
 8001b04:	4680      	mov	r8, r0
 8001b06:	4617      	mov	r7, r2
 8001b08:	4608      	mov	r0, r1
 8001b0a:	469a      	mov	sl, r3
 8001b0c:	f8bd 903c 	ldrh.w	r9, [sp, #60]	; 0x3c
 8001b10:	b11d      	cbz	r5, 8001b1a <st7735r__drawline+0x32>
 8001b12:	46da      	mov	sl, fp
 8001b14:	4610      	mov	r0, r2
 8001b16:	469b      	mov	fp, r3
 8001b18:	460f      	mov	r7, r1
 8001b1a:	4550      	cmp	r0, sl
 8001b1c:	dd05      	ble.n	8001b2a <st7735r__drawline+0x42>
 8001b1e:	463a      	mov	r2, r7
 8001b20:	4603      	mov	r3, r0
 8001b22:	465f      	mov	r7, fp
 8001b24:	4650      	mov	r0, sl
 8001b26:	4693      	mov	fp, r2
 8001b28:	469a      	mov	sl, r3
 8001b2a:	ebc7 060b 	rsb	r6, r7, fp
 8001b2e:	ebc0 0c0a 	rsb	ip, r0, sl
 8001b32:	2e00      	cmp	r6, #0
 8001b34:	eb0c 74dc 	add.w	r4, ip, ip, lsr #31
 8001b38:	bfb8      	it	lt
 8001b3a:	4276      	neglt	r6, r6
 8001b3c:	1064      	asrs	r4, r4, #1
 8001b3e:	455f      	cmp	r7, fp
 8001b40:	bfac      	ite	ge
 8001b42:	f04f 3bff 	movge.w	fp, #4294967295
 8001b46:	f04f 0b01 	movlt.w	fp, #1
 8001b4a:	2d00      	cmp	r5, #0
 8001b4c:	d155      	bne.n	8001bfa <st7735r__drawline+0x112>
 8001b4e:	4550      	cmp	r0, sl
 8001b50:	dc50      	bgt.n	8001bf4 <st7735r__drawline+0x10c>
 8001b52:	462a      	mov	r2, r5
 8001b54:	1c45      	adds	r5, r0, #1
 8001b56:	e004      	b.n	8001b62 <st7735r__drawline+0x7a>
 8001b58:	462b      	mov	r3, r5
 8001b5a:	459a      	cmp	sl, r3
 8001b5c:	f105 0501 	add.w	r5, r5, #1
 8001b60:	db2a      	blt.n	8001bb8 <st7735r__drawline+0xd0>
 8001b62:	1ba4      	subs	r4, r4, r6
 8001b64:	f102 0201 	add.w	r2, r2, #1
 8001b68:	d5f6      	bpl.n	8001b58 <st7735r__drawline+0x70>
 8001b6a:	2a01      	cmp	r2, #1
 8001b6c:	4464      	add	r4, ip
 8001b6e:	f000 8085 	beq.w	8001c7c <st7735r__drawline+0x194>
 8001b72:	b2bb      	uxth	r3, r7
 8001b74:	2b9f      	cmp	r3, #159	; 0x9f
 8001b76:	b281      	uxth	r1, r0
 8001b78:	d815      	bhi.n	8001ba6 <st7735r__drawline+0xbe>
 8001b7a:	297f      	cmp	r1, #127	; 0x7f
 8001b7c:	d813      	bhi.n	8001ba6 <st7735r__drawline+0xbe>
 8001b7e:	b292      	uxth	r2, r2
 8001b80:	1e50      	subs	r0, r2, #1
 8001b82:	4408      	add	r0, r1
 8001b84:	b280      	uxth	r0, r0
 8001b86:	287f      	cmp	r0, #127	; 0x7f
 8001b88:	bf84      	itt	hi
 8001b8a:	f1c1 0280 	rsbhi	r2, r1, #128	; 0x80
 8001b8e:	b292      	uxthhi	r2, r2
 8001b90:	440a      	add	r2, r1
 8001b92:	b292      	uxth	r2, r2
 8001b94:	e88d 0208 	stmia.w	sp, {r3, r9}
 8001b98:	4640      	mov	r0, r8
 8001b9a:	f8cd c00c 	str.w	ip, [sp, #12]
 8001b9e:	f7ff fe11 	bl	80017c4 <st7735r__fill_region>
 8001ba2:	f8dd c00c 	ldr.w	ip, [sp, #12]
 8001ba6:	462b      	mov	r3, r5
 8001ba8:	459a      	cmp	sl, r3
 8001baa:	4628      	mov	r0, r5
 8001bac:	445f      	add	r7, fp
 8001bae:	f04f 0200 	mov.w	r2, #0
 8001bb2:	f105 0501 	add.w	r5, r5, #1
 8001bb6:	dad4      	bge.n	8001b62 <st7735r__drawline+0x7a>
 8001bb8:	b1e2      	cbz	r2, 8001bf4 <st7735r__drawline+0x10c>
 8001bba:	b2bc      	uxth	r4, r7
 8001bbc:	2c9f      	cmp	r4, #159	; 0x9f
 8001bbe:	b281      	uxth	r1, r0
 8001bc0:	d818      	bhi.n	8001bf4 <st7735r__drawline+0x10c>
 8001bc2:	297f      	cmp	r1, #127	; 0x7f
 8001bc4:	d816      	bhi.n	8001bf4 <st7735r__drawline+0x10c>
 8001bc6:	440a      	add	r2, r1
 8001bc8:	b292      	uxth	r2, r2
 8001bca:	1e53      	subs	r3, r2, #1
 8001bcc:	2b7f      	cmp	r3, #127	; 0x7f
 8001bce:	4640      	mov	r0, r8
 8001bd0:	4623      	mov	r3, r4
 8001bd2:	bf88      	it	hi
 8001bd4:	2280      	movhi	r2, #128	; 0x80
 8001bd6:	940e      	str	r4, [sp, #56]	; 0x38
 8001bd8:	f8cd 903c 	str.w	r9, [sp, #60]	; 0x3c
 8001bdc:	b005      	add	sp, #20
 8001bde:	e8bd 4ff0 	ldmia.w	sp!, {r4, r5, r6, r7, r8, r9, sl, fp, lr}
 8001be2:	f7ff bdef 	b.w	80017c4 <st7735r__fill_region>
 8001be6:	b12a      	cbz	r2, 8001bf4 <st7735r__drawline+0x10c>
 8001be8:	b283      	uxth	r3, r0
 8001bea:	2b9f      	cmp	r3, #159	; 0x9f
 8001bec:	b2b9      	uxth	r1, r7
 8001bee:	d801      	bhi.n	8001bf4 <st7735r__drawline+0x10c>
 8001bf0:	297f      	cmp	r1, #127	; 0x7f
 8001bf2:	d933      	bls.n	8001c5c <st7735r__drawline+0x174>
 8001bf4:	b005      	add	sp, #20
 8001bf6:	e8bd 8ff0 	ldmia.w	sp!, {r4, r5, r6, r7, r8, r9, sl, fp, pc}
 8001bfa:	4550      	cmp	r0, sl
 8001bfc:	dcfa      	bgt.n	8001bf4 <st7735r__drawline+0x10c>
 8001bfe:	1c45      	adds	r5, r0, #1
 8001c00:	2200      	movs	r2, #0
 8001c02:	e004      	b.n	8001c0e <st7735r__drawline+0x126>
 8001c04:	462b      	mov	r3, r5
 8001c06:	459a      	cmp	sl, r3
 8001c08:	f105 0501 	add.w	r5, r5, #1
 8001c0c:	dbeb      	blt.n	8001be6 <st7735r__drawline+0xfe>
 8001c0e:	1ba4      	subs	r4, r4, r6
 8001c10:	f102 0201 	add.w	r2, r2, #1
 8001c14:	d5f6      	bpl.n	8001c04 <st7735r__drawline+0x11c>
 8001c16:	2a01      	cmp	r2, #1
 8001c18:	4464      	add	r4, ip
 8001c1a:	d03a      	beq.n	8001c92 <st7735r__drawline+0x1aa>
 8001c1c:	b283      	uxth	r3, r0
 8001c1e:	2b9f      	cmp	r3, #159	; 0x9f
 8001c20:	b2b9      	uxth	r1, r7
 8001c22:	d816      	bhi.n	8001c52 <st7735r__drawline+0x16a>
 8001c24:	297f      	cmp	r1, #127	; 0x7f
 8001c26:	d814      	bhi.n	8001c52 <st7735r__drawline+0x16a>
 8001c28:	b292      	uxth	r2, r2
 8001c2a:	1e50      	subs	r0, r2, #1
 8001c2c:	4418      	add	r0, r3
 8001c2e:	b280      	uxth	r0, r0
 8001c30:	289f      	cmp	r0, #159	; 0x9f
 8001c32:	bf84      	itt	hi
 8001c34:	f1c3 02a0 	rsbhi	r2, r3, #160	; 0xa0
 8001c38:	b292      	uxthhi	r2, r2
 8001c3a:	441a      	add	r2, r3
 8001c3c:	b292      	uxth	r2, r2
 8001c3e:	e88d 0204 	stmia.w	sp, {r2, r9}
 8001c42:	4640      	mov	r0, r8
 8001c44:	460a      	mov	r2, r1
 8001c46:	f8cd c00c 	str.w	ip, [sp, #12]
 8001c4a:	f7ff fdbb 	bl	80017c4 <st7735r__fill_region>
 8001c4e:	f8dd c00c 	ldr.w	ip, [sp, #12]
 8001c52:	4628      	mov	r0, r5
 8001c54:	462b      	mov	r3, r5
 8001c56:	445f      	add	r7, fp
 8001c58:	2200      	movs	r2, #0
 8001c5a:	e7d4      	b.n	8001c06 <st7735r__drawline+0x11e>
 8001c5c:	189d      	adds	r5, r3, r2
 8001c5e:	b2ad      	uxth	r5, r5
 8001c60:	1e6a      	subs	r2, r5, #1
 8001c62:	2a9f      	cmp	r2, #159	; 0x9f
 8001c64:	4640      	mov	r0, r8
 8001c66:	460a      	mov	r2, r1
 8001c68:	bf88      	it	hi
 8001c6a:	25a0      	movhi	r5, #160	; 0xa0
 8001c6c:	f8cd 903c 	str.w	r9, [sp, #60]	; 0x3c
 8001c70:	950e      	str	r5, [sp, #56]	; 0x38
 8001c72:	b005      	add	sp, #20
 8001c74:	e8bd 4ff0 	ldmia.w	sp!, {r4, r5, r6, r7, r8, r9, sl, fp, lr}
 8001c78:	f7ff bda4 	b.w	80017c4 <st7735r__fill_region>
 8001c7c:	b281      	uxth	r1, r0
 8001c7e:	b2ba      	uxth	r2, r7
 8001c80:	4640      	mov	r0, r8
 8001c82:	464b      	mov	r3, r9
 8001c84:	f8cd c00c 	str.w	ip, [sp, #12]
 8001c88:	f7ff fb12 	bl	80012b0 <st7735r__set_pixel>
 8001c8c:	f8dd c00c 	ldr.w	ip, [sp, #12]
 8001c90:	e789      	b.n	8001ba6 <st7735r__drawline+0xbe>
 8001c92:	b282      	uxth	r2, r0
 8001c94:	b2b9      	uxth	r1, r7
 8001c96:	4640      	mov	r0, r8
 8001c98:	464b      	mov	r3, r9
 8001c9a:	f8cd c00c 	str.w	ip, [sp, #12]
 8001c9e:	f7ff fb07 	bl	80012b0 <st7735r__set_pixel>
 8001ca2:	f8dd c00c 	ldr.w	ip, [sp, #12]
 8001ca6:	e7d4      	b.n	8001c52 <st7735r__drawline+0x16a>

08001ca8 <st7735r__set_display>:
 8001ca8:	e92d 47f0 	stmdb	sp!, {r4, r5, r6, r7, r8, r9, sl, lr}
 8001cac:	4682      	mov	sl, r0
 8001cae:	b084      	sub	sp, #16
 8001cb0:	ac04      	add	r4, sp, #16
 8001cb2:	4627      	mov	r7, r4
 8001cb4:	6880      	ldr	r0, [r0, #8]
 8001cb6:	f04f 42fe 	mov.w	r2, #2130706432	; 0x7f000000
 8001cba:	6803      	ldr	r3, [r0, #0]
 8001cbc:	f844 2d08 	str.w	r2, [r4, #-8]!
 8001cc0:	699b      	ldr	r3, [r3, #24]
 8001cc2:	4688      	mov	r8, r1
 8001cc4:	4798      	blx	r3
 8001cc6:	f8da 000c 	ldr.w	r0, [sl, #12]
 8001cca:	f44f 767a 	mov.w	r6, #1000	; 0x3e8
 8001cce:	6803      	ldr	r3, [r0, #0]
 8001cd0:	699b      	ldr	r3, [r3, #24]
 8001cd2:	4798      	blx	r3
 8001cd4:	f8da 0004 	ldr.w	r0, [sl, #4]
 8001cd8:	232a      	movs	r3, #42	; 0x2a
 8001cda:	6802      	ldr	r2, [r0, #0]
 8001cdc:	6851      	ldr	r1, [r2, #4]
 8001cde:	f807 3d04 	strb.w	r3, [r7, #-4]!
 8001ce2:	463a      	mov	r2, r7
 8001ce4:	4b43      	ldr	r3, [pc, #268]	; (8001df4 <st7735r__set_display+0x14c>)
 8001ce6:	9600      	str	r6, [sp, #0]
 8001ce8:	4788      	blx	r1
 8001cea:	4605      	mov	r5, r0
 8001cec:	f8da 0008 	ldr.w	r0, [sl, #8]
 8001cf0:	6803      	ldr	r3, [r0, #0]
 8001cf2:	695b      	ldr	r3, [r3, #20]
 8001cf4:	4798      	blx	r3
 8001cf6:	2d00      	cmp	r5, #0
 8001cf8:	d178      	bne.n	8001dec <st7735r__set_display+0x144>
 8001cfa:	4622      	mov	r2, r4
 8001cfc:	4650      	mov	r0, sl
 8001cfe:	4b3e      	ldr	r3, [pc, #248]	; (8001df8 <st7735r__set_display+0x150>)
 8001d00:	f7fe fcac 	bl	800065c <st7735r__write_data__2>
 8001d04:	f8da 0008 	ldr.w	r0, [sl, #8]
 8001d08:	229f      	movs	r2, #159	; 0x9f
 8001d0a:	6803      	ldr	r3, [r0, #0]
 8001d0c:	f88d 200f 	strb.w	r2, [sp, #15]
 8001d10:	f88d 500c 	strb.w	r5, [sp, #12]
 8001d14:	f88d 500d 	strb.w	r5, [sp, #13]
 8001d18:	f88d 500e 	strb.w	r5, [sp, #14]
 8001d1c:	699b      	ldr	r3, [r3, #24]
 8001d1e:	4798      	blx	r3
 8001d20:	f8da 000c 	ldr.w	r0, [sl, #12]
 8001d24:	6803      	ldr	r3, [r0, #0]
 8001d26:	699b      	ldr	r3, [r3, #24]
 8001d28:	4798      	blx	r3
 8001d2a:	f8da 0004 	ldr.w	r0, [sl, #4]
 8001d2e:	232b      	movs	r3, #43	; 0x2b
 8001d30:	6801      	ldr	r1, [r0, #0]
 8001d32:	4622      	mov	r2, r4
 8001d34:	6849      	ldr	r1, [r1, #4]
 8001d36:	f88d 3008 	strb.w	r3, [sp, #8]
 8001d3a:	9600      	str	r6, [sp, #0]
 8001d3c:	4b2d      	ldr	r3, [pc, #180]	; (8001df4 <st7735r__set_display+0x14c>)
 8001d3e:	4788      	blx	r1
 8001d40:	4604      	mov	r4, r0
 8001d42:	f8da 0008 	ldr.w	r0, [sl, #8]
 8001d46:	6802      	ldr	r2, [r0, #0]
 8001d48:	6953      	ldr	r3, [r2, #20]
 8001d4a:	4798      	blx	r3
 8001d4c:	2c00      	cmp	r4, #0
 8001d4e:	d14d      	bne.n	8001dec <st7735r__set_display+0x144>
 8001d50:	463a      	mov	r2, r7
 8001d52:	4650      	mov	r0, sl
 8001d54:	4b28      	ldr	r3, [pc, #160]	; (8001df8 <st7735r__set_display+0x150>)
 8001d56:	f7fe fc81 	bl	800065c <st7735r__write_data__2>
 8001d5a:	f8da 0008 	ldr.w	r0, [sl, #8]
 8001d5e:	6803      	ldr	r3, [r0, #0]
 8001d60:	699b      	ldr	r3, [r3, #24]
 8001d62:	4798      	blx	r3
 8001d64:	f8da 000c 	ldr.w	r0, [sl, #12]
 8001d68:	6803      	ldr	r3, [r0, #0]
 8001d6a:	699b      	ldr	r3, [r3, #24]
 8001d6c:	4798      	blx	r3
 8001d6e:	f8da 0004 	ldr.w	r0, [sl, #4]
 8001d72:	232c      	movs	r3, #44	; 0x2c
 8001d74:	6802      	ldr	r2, [r0, #0]
 8001d76:	6851      	ldr	r1, [r2, #4]
 8001d78:	463a      	mov	r2, r7
 8001d7a:	f88d 300c 	strb.w	r3, [sp, #12]
 8001d7e:	9600      	str	r6, [sp, #0]
 8001d80:	4b1c      	ldr	r3, [pc, #112]	; (8001df4 <st7735r__set_display+0x14c>)
 8001d82:	4788      	blx	r1
 8001d84:	4604      	mov	r4, r0
 8001d86:	f8da 0008 	ldr.w	r0, [sl, #8]
 8001d8a:	6802      	ldr	r2, [r0, #0]
 8001d8c:	6953      	ldr	r3, [r2, #20]
 8001d8e:	4798      	blx	r3
 8001d90:	bb64      	cbnz	r4, 8001dec <st7735r__set_display+0x144>
 8001d92:	f8da 0008 	ldr.w	r0, [sl, #8]
 8001d96:	ea4f 2918 	mov.w	r9, r8, lsr #8
 8001d9a:	6803      	ldr	r3, [r0, #0]
 8001d9c:	fa5f f888 	uxtb.w	r8, r8
 8001da0:	699b      	ldr	r3, [r3, #24]
 8001da2:	4798      	blx	r3
 8001da4:	f8da 000c 	ldr.w	r0, [sl, #12]
 8001da8:	f44f 44a0 	mov.w	r4, #20480	; 0x5000
 8001dac:	6803      	ldr	r3, [r0, #0]
 8001dae:	695b      	ldr	r3, [r3, #20]
 8001db0:	4798      	blx	r3
 8001db2:	f8da 0004 	ldr.w	r0, [sl, #4]
 8001db6:	463a      	mov	r2, r7
 8001db8:	6803      	ldr	r3, [r0, #0]
 8001dba:	685d      	ldr	r5, [r3, #4]
 8001dbc:	4b0f      	ldr	r3, [pc, #60]	; (8001dfc <st7735r__set_display+0x154>)
 8001dbe:	f88d 900c 	strb.w	r9, [sp, #12]
 8001dc2:	f88d 800d 	strb.w	r8, [sp, #13]
 8001dc6:	9600      	str	r6, [sp, #0]
 8001dc8:	47a8      	blx	r5
 8001dca:	b958      	cbnz	r0, 8001de4 <st7735r__set_display+0x13c>
 8001dcc:	3c01      	subs	r4, #1
 8001dce:	b2a4      	uxth	r4, r4
 8001dd0:	2c00      	cmp	r4, #0
 8001dd2:	d1ee      	bne.n	8001db2 <st7735r__set_display+0x10a>
 8001dd4:	f8da 0008 	ldr.w	r0, [sl, #8]
 8001dd8:	6803      	ldr	r3, [r0, #0]
 8001dda:	695b      	ldr	r3, [r3, #20]
 8001ddc:	4798      	blx	r3
 8001dde:	b004      	add	sp, #16
 8001de0:	e8bd 87f0 	ldmia.w	sp!, {r4, r5, r6, r7, r8, r9, sl, pc}
 8001de4:	4806      	ldr	r0, [pc, #24]	; (8001e00 <st7735r__set_display+0x158>)
 8001de6:	21de      	movs	r1, #222	; 0xde
 8001de8:	f7fe fb6a 	bl	80004c0 <__gnat_last_chance_handler>
 8001dec:	4804      	ldr	r0, [pc, #16]	; (8001e00 <st7735r__set_display+0x158>)
 8001dee:	218b      	movs	r1, #139	; 0x8b
 8001df0:	f7fe fb66 	bl	80004c0 <__gnat_last_chance_handler>
 8001df4:	08009bfc 	.word	0x08009bfc
 8001df8:	08009c30 	.word	0x08009c30
 8001dfc:	08009c10 	.word	0x08009c10
 8001e00:	08009c04 	.word	0x08009c04

08001e04 <ravenscar_time___size__2>:
 8001e04:	2020      	movs	r0, #32
 8001e06:	2100      	movs	r1, #0
 8001e08:	4770      	bx	lr
 8001e0a:	bf00      	nop

08001e0c <ravenscar_time__Oeq>:
 8001e0c:	2001      	movs	r0, #1
 8001e0e:	4770      	bx	lr

08001e10 <ravenscar_time___assign>:
 8001e10:	4770      	bx	lr
 8001e12:	bf00      	nop

08001e14 <ravenscar_time__delay_microseconds__2>:
 8001e14:	b570      	push	{r4, r5, r6, lr}
 8001e16:	460e      	mov	r6, r1
 8001e18:	f004 ffc6 	bl	8006da8 <ada__real_time__clock>
 8001e1c:	4a0e      	ldr	r2, [pc, #56]	; (8001e58 <ravenscar_time__delay_microseconds__2+0x44>)
 8001e1e:	460d      	mov	r5, r1
 8001e20:	fb86 2302 	smull	r2, r3, r6, r2
 8001e24:	2a00      	cmp	r2, #0
 8001e26:	f173 0100 	sbcs.w	r1, r3, #0
 8001e2a:	4604      	mov	r4, r0
 8001e2c:	bfab      	itete	ge
 8001e2e:	480b      	ldrge	r0, [pc, #44]	; (8001e5c <ravenscar_time__delay_microseconds__2+0x48>)
 8001e30:	480b      	ldrlt	r0, [pc, #44]	; (8001e60 <ravenscar_time__delay_microseconds__2+0x4c>)
 8001e32:	2100      	movge	r1, #0
 8001e34:	f04f 31ff 	movlt.w	r1, #4294967295
 8001e38:	1880      	adds	r0, r0, r2
 8001e3a:	4159      	adcs	r1, r3
 8001e3c:	4a09      	ldr	r2, [pc, #36]	; (8001e64 <ravenscar_time__delay_microseconds__2+0x50>)
 8001e3e:	2300      	movs	r3, #0
 8001e40:	f006 ff36 	bl	8008cb0 <__aeabi_ldivmod>
 8001e44:	4602      	mov	r2, r0
 8001e46:	460b      	mov	r3, r1
 8001e48:	4620      	mov	r0, r4
 8001e4a:	4629      	mov	r1, r5
 8001e4c:	f004 ff52 	bl	8006cf4 <ada__real_time__Oadd>
 8001e50:	e8bd 4070 	ldmia.w	sp!, {r4, r5, r6, lr}
 8001e54:	f005 bb82 	b.w	800755c <ada__real_time__delays__delay_until>
 8001e58:	044aa200 	.word	0x044aa200
 8001e5c:	0007a120 	.word	0x0007a120
 8001e60:	fff85ee0 	.word	0xfff85ee0
 8001e64:	000f4240 	.word	0x000f4240

08001e68 <ravenscar_time__delay_milliseconds__2>:
 8001e68:	b570      	push	{r4, r5, r6, lr}
 8001e6a:	460e      	mov	r6, r1
 8001e6c:	f004 ff9c 	bl	8006da8 <ada__real_time__clock>
 8001e70:	4a10      	ldr	r2, [pc, #64]	; (8001eb4 <ravenscar_time__delay_milliseconds__2+0x4c>)
 8001e72:	460d      	mov	r5, r1
 8001e74:	fb86 2302 	smull	r2, r3, r6, r2
 8001e78:	2a00      	cmp	r2, #0
 8001e7a:	f173 0100 	sbcs.w	r1, r3, #0
 8001e7e:	4604      	mov	r4, r0
 8001e80:	db12      	blt.n	8001ea8 <ravenscar_time__delay_milliseconds__2+0x40>
 8001e82:	f512 70fa 	adds.w	r0, r2, #500	; 0x1f4
 8001e86:	f143 0100 	adc.w	r1, r3, #0
 8001e8a:	f44f 727a 	mov.w	r2, #1000	; 0x3e8
 8001e8e:	2300      	movs	r3, #0
 8001e90:	f006 ff0e 	bl	8008cb0 <__aeabi_ldivmod>
 8001e94:	4602      	mov	r2, r0
 8001e96:	460b      	mov	r3, r1
 8001e98:	4620      	mov	r0, r4
 8001e9a:	4629      	mov	r1, r5
 8001e9c:	f004 ff2a 	bl	8006cf4 <ada__real_time__Oadd>
 8001ea0:	e8bd 4070 	ldmia.w	sp!, {r4, r5, r6, lr}
 8001ea4:	f005 bb5a 	b.w	800755c <ada__real_time__delays__delay_until>
 8001ea8:	f5b2 70fa 	subs.w	r0, r2, #500	; 0x1f4
 8001eac:	f143 31ff 	adc.w	r1, r3, #4294967295
 8001eb0:	e7eb      	b.n	8001e8a <ravenscar_time__delay_milliseconds__2+0x22>
 8001eb2:	bf00      	nop
 8001eb4:	044aa200 	.word	0x044aa200

08001eb8 <ravenscar_time__delay_seconds__2>:
 8001eb8:	b510      	push	{r4, lr}
 8001eba:	460c      	mov	r4, r1
 8001ebc:	f004 ff74 	bl	8006da8 <ada__real_time__clock>
 8001ec0:	4a04      	ldr	r2, [pc, #16]	; (8001ed4 <ravenscar_time__delay_seconds__2+0x1c>)
 8001ec2:	fb84 2302 	smull	r2, r3, r4, r2
 8001ec6:	f004 ff15 	bl	8006cf4 <ada__real_time__Oadd>
 8001eca:	e8bd 4010 	ldmia.w	sp!, {r4, lr}
 8001ece:	f005 bb45 	b.w	800755c <ada__real_time__delays__delay_until>
 8001ed2:	bf00      	nop
 8001ed4:	044aa200 	.word	0x044aa200

08001ed8 <ravenscar_time__delays>:
 8001ed8:	4800      	ldr	r0, [pc, #0]	; (8001edc <ravenscar_time__delays+0x4>)
 8001eda:	4770      	bx	lr
 8001edc:	200003d8 	.word	0x200003d8

08001ee0 <ravenscar_time___elabb>:
 8001ee0:	4b01      	ldr	r3, [pc, #4]	; (8001ee8 <ravenscar_time___elabb+0x8>)
 8001ee2:	4a02      	ldr	r2, [pc, #8]	; (8001eec <ravenscar_time___elabb+0xc>)
 8001ee4:	601a      	str	r2, [r3, #0]
 8001ee6:	4770      	bx	lr
 8001ee8:	200003d8 	.word	0x200003d8
 8001eec:	08009eb4 	.word	0x08009eb4

08001ef0 <bitmap_color_conversion__bitmap_color_to_word>:
 8001ef0:	b4f0      	push	{r4, r5, r6, r7}
 8001ef2:	f3c1 4307 	ubfx	r3, r1, #16, #8
 8001ef6:	b2cd      	uxtb	r5, r1
 8001ef8:	f3c1 2707 	ubfx	r7, r1, #8, #8
 8001efc:	0e09      	lsrs	r1, r1, #24
 8001efe:	280a      	cmp	r0, #10
 8001f00:	d85b      	bhi.n	8001fba <bitmap_color_conversion__bitmap_color_to_word+0xca>
 8001f02:	e8df f000 	tbb	[pc, r0]
 8001f06:	1009      	.short	0x1009
 8001f08:	35291e16 	.word	0x35291e16
 8001f0c:	5850473c 	.word	0x5850473c
 8001f10:	06          	.byte	0x06
 8001f11:	00          	.byte	0x00
 8001f12:	0908      	lsrs	r0, r1, #4
 8001f14:	bcf0      	pop	{r4, r5, r6, r7}
 8001f16:	4770      	bx	lr
 8001f18:	041b      	lsls	r3, r3, #16
 8001f1a:	ea43 6301 	orr.w	r3, r3, r1, lsl #24
 8001f1e:	432b      	orrs	r3, r5
 8001f20:	ea43 2007 	orr.w	r0, r3, r7, lsl #8
 8001f24:	e7f6      	b.n	8001f14 <bitmap_color_conversion__bitmap_color_to_word+0x24>
 8001f26:	023a      	lsls	r2, r7, #8
 8001f28:	ea42 4303 	orr.w	r3, r2, r3, lsl #16
 8001f2c:	ea43 0005 	orr.w	r0, r3, r5
 8001f30:	e7f0      	b.n	8001f14 <bitmap_color_conversion__bitmap_color_to_word+0x24>
 8001f32:	08ba      	lsrs	r2, r7, #2
 8001f34:	0150      	lsls	r0, r2, #5
 8001f36:	08db      	lsrs	r3, r3, #3
 8001f38:	ea40 23c3 	orr.w	r3, r0, r3, lsl #11
 8001f3c:	ea43 00d5 	orr.w	r0, r3, r5, lsr #3
 8001f40:	e7e8      	b.n	8001f14 <bitmap_color_conversion__bitmap_color_to_word+0x24>
 8001f42:	08db      	lsrs	r3, r3, #3
 8001f44:	09c8      	lsrs	r0, r1, #7
 8001f46:	029b      	lsls	r3, r3, #10
 8001f48:	ea43 33c0 	orr.w	r3, r3, r0, lsl #15
 8001f4c:	ea43 00d5 	orr.w	r0, r3, r5, lsr #3
 8001f50:	08fb      	lsrs	r3, r7, #3
 8001f52:	ea40 1043 	orr.w	r0, r0, r3, lsl #5
 8001f56:	e7dd      	b.n	8001f14 <bitmap_color_conversion__bitmap_color_to_word+0x24>
 8001f58:	091c      	lsrs	r4, r3, #4
 8001f5a:	0226      	lsls	r6, r4, #8
 8001f5c:	090c      	lsrs	r4, r1, #4
 8001f5e:	ea46 3404 	orr.w	r4, r6, r4, lsl #12
 8001f62:	ea44 1415 	orr.w	r4, r4, r5, lsr #4
 8001f66:	f007 03f0 	and.w	r3, r7, #240	; 0xf0
 8001f6a:	ea44 0003 	orr.w	r0, r4, r3
 8001f6e:	e7d1      	b.n	8001f14 <bitmap_color_conversion__bitmap_color_to_word+0x24>
 8001f70:	eb03 0443 	add.w	r4, r3, r3, lsl #1
 8001f74:	eb04 0287 	add.w	r2, r4, r7, lsl #2
 8001f78:	1953      	adds	r3, r2, r5
 8001f7a:	08d8      	lsrs	r0, r3, #3
 8001f7c:	e7ca      	b.n	8001f14 <bitmap_color_conversion__bitmap_color_to_word+0x24>
 8001f7e:	eb03 0443 	add.w	r4, r3, r3, lsl #1
 8001f82:	eb04 0287 	add.w	r2, r4, r7, lsl #2
 8001f86:	1953      	adds	r3, r2, r5
 8001f88:	f3c3 13c3 	ubfx	r3, r3, #7, #4
 8001f8c:	f001 00f0 	and.w	r0, r1, #240	; 0xf0
 8001f90:	4318      	orrs	r0, r3
 8001f92:	e7bf      	b.n	8001f14 <bitmap_color_conversion__bitmap_color_to_word+0x24>
 8001f94:	eb03 0443 	add.w	r4, r3, r3, lsl #1
 8001f98:	eb04 0287 	add.w	r2, r4, r7, lsl #2
 8001f9c:	1953      	adds	r3, r2, r5
 8001f9e:	0208      	lsls	r0, r1, #8
 8001fa0:	ea40 00d3 	orr.w	r0, r0, r3, lsr #3
 8001fa4:	e7b6      	b.n	8001f14 <bitmap_color_conversion__bitmap_color_to_word+0x24>
 8001fa6:	eb03 0243 	add.w	r2, r3, r3, lsl #1
 8001faa:	eb02 0387 	add.w	r3, r2, r7, lsl #2
 8001fae:	1958      	adds	r0, r3, r5
 8001fb0:	f3c0 10c3 	ubfx	r0, r0, #7, #4
 8001fb4:	e7ae      	b.n	8001f14 <bitmap_color_conversion__bitmap_color_to_word+0x24>
 8001fb6:	4608      	mov	r0, r1
 8001fb8:	e7ac      	b.n	8001f14 <bitmap_color_conversion__bitmap_color_to_word+0x24>
 8001fba:	eb03 0343 	add.w	r3, r3, r3, lsl #1
 8001fbe:	eb03 0387 	add.w	r3, r3, r7, lsl #2
 8001fc2:	442b      	add	r3, r5
 8001fc4:	f3c3 2080 	ubfx	r0, r3, #10, #1
 8001fc8:	e7a4      	b.n	8001f14 <bitmap_color_conversion__bitmap_color_to_word+0x24>
 8001fca:	bf00      	nop

08001fcc <bitmap_color_conversion__word_to_bitmap_color>:
 8001fcc:	b4f0      	push	{r4, r5, r6, r7}
 8001fce:	b082      	sub	sp, #8
 8001fd0:	280a      	cmp	r0, #10
 8001fd2:	f200 8081 	bhi.w	80020d8 <bitmap_color_conversion__word_to_bitmap_color+0x10c>
 8001fd6:	e8df f000 	tbb	[pc, r0]
 8001fda:	2019      	.short	0x2019
 8001fdc:	5c4b3827 	.word	0x5c4b3827
 8001fe0:	7a726c61 	.word	0x7a726c61
 8001fe4:	06          	.byte	0x06
 8001fe5:	00          	.byte	0x00
 8001fe6:	23ff      	movs	r3, #255	; 0xff
 8001fe8:	461c      	mov	r4, r3
 8001fea:	461d      	mov	r5, r3
 8001fec:	f001 010f 	and.w	r1, r1, #15
 8001ff0:	ea41 1201 	orr.w	r2, r1, r1, lsl #4
 8001ff4:	2000      	movs	r0, #0
 8001ff6:	f363 0007 	bfi	r0, r3, #0, #8
 8001ffa:	f364 200f 	bfi	r0, r4, #8, #8
 8001ffe:	f365 4017 	bfi	r0, r5, #16, #8
 8002002:	f362 601f 	bfi	r0, r2, #24, #8
 8002006:	b002      	add	sp, #8
 8002008:	bcf0      	pop	{r4, r5, r6, r7}
 800200a:	4770      	bx	lr
 800200c:	0e0a      	lsrs	r2, r1, #24
 800200e:	f3c1 4507 	ubfx	r5, r1, #16, #8
 8002012:	f3c1 2407 	ubfx	r4, r1, #8, #8
 8002016:	b2cb      	uxtb	r3, r1
 8002018:	e7ec      	b.n	8001ff4 <bitmap_color_conversion__word_to_bitmap_color+0x28>
 800201a:	f3c1 4507 	ubfx	r5, r1, #16, #8
 800201e:	f3c1 2407 	ubfx	r4, r1, #8, #8
 8002022:	b2cb      	uxtb	r3, r1
 8002024:	22ff      	movs	r2, #255	; 0xff
 8002026:	e7e5      	b.n	8001ff4 <bitmap_color_conversion__word_to_bitmap_color+0x28>
 8002028:	f3c1 1445 	ubfx	r4, r1, #5, #6
 800202c:	f001 001f 	and.w	r0, r1, #31
 8002030:	f3c1 25c4 	ubfx	r5, r1, #11, #5
 8002034:	00a2      	lsls	r2, r4, #2
 8002036:	00e9      	lsls	r1, r5, #3
 8002038:	00c3      	lsls	r3, r0, #3
 800203a:	ea42 1414 	orr.w	r4, r2, r4, lsr #4
 800203e:	ea41 0595 	orr.w	r5, r1, r5, lsr #2
 8002042:	ea43 0390 	orr.w	r3, r3, r0, lsr #2
 8002046:	22ff      	movs	r2, #255	; 0xff
 8002048:	e7d4      	b.n	8001ff4 <bitmap_color_conversion__word_to_bitmap_color+0x28>
 800204a:	f3c1 2584 	ubfx	r5, r1, #10, #5
 800204e:	f3c1 1444 	ubfx	r4, r1, #5, #5
 8002052:	f001 061f 	and.w	r6, r1, #31
 8002056:	00ef      	lsls	r7, r5, #3
 8002058:	00e0      	lsls	r0, r4, #3
 800205a:	f341 32c0 	sbfx	r2, r1, #15, #1
 800205e:	00f3      	lsls	r3, r6, #3
 8002060:	ea47 0595 	orr.w	r5, r7, r5, lsr #2
 8002064:	ea40 0494 	orr.w	r4, r0, r4, lsr #2
 8002068:	b2d2      	uxtb	r2, r2
 800206a:	ea43 0396 	orr.w	r3, r3, r6, lsr #2
 800206e:	e7c1      	b.n	8001ff4 <bitmap_color_conversion__word_to_bitmap_color+0x28>
 8002070:	f3c1 3203 	ubfx	r2, r1, #12, #4
 8002074:	f3c1 2503 	ubfx	r5, r1, #8, #4
 8002078:	f3c1 1403 	ubfx	r4, r1, #4, #4
 800207c:	f001 030f 	and.w	r3, r1, #15
 8002080:	ea42 1202 	orr.w	r2, r2, r2, lsl #4
 8002084:	ea45 1505 	orr.w	r5, r5, r5, lsl #4
 8002088:	ea44 1404 	orr.w	r4, r4, r4, lsl #4
 800208c:	ea43 1303 	orr.w	r3, r3, r3, lsl #4
 8002090:	e7b0      	b.n	8001ff4 <bitmap_color_conversion__word_to_bitmap_color+0x28>
 8002092:	b2cd      	uxtb	r5, r1
 8002094:	462b      	mov	r3, r5
 8002096:	462c      	mov	r4, r5
 8002098:	22ff      	movs	r2, #255	; 0xff
 800209a:	e7ab      	b.n	8001ff4 <bitmap_color_conversion__word_to_bitmap_color+0x28>
 800209c:	f001 050f 	and.w	r5, r1, #15
 80020a0:	ea45 1505 	orr.w	r5, r5, r5, lsl #4
 80020a4:	f3c1 1103 	ubfx	r1, r1, #4, #4
 80020a8:	ea41 1201 	orr.w	r2, r1, r1, lsl #4
 80020ac:	462b      	mov	r3, r5
 80020ae:	462c      	mov	r4, r5
 80020b0:	e7a0      	b.n	8001ff4 <bitmap_color_conversion__word_to_bitmap_color+0x28>
 80020b2:	b2cd      	uxtb	r5, r1
 80020b4:	f3c1 2207 	ubfx	r2, r1, #8, #8
 80020b8:	462b      	mov	r3, r5
 80020ba:	462c      	mov	r4, r5
 80020bc:	e79a      	b.n	8001ff4 <bitmap_color_conversion__word_to_bitmap_color+0x28>
 80020be:	f001 010f 	and.w	r1, r1, #15
 80020c2:	ea41 1501 	orr.w	r5, r1, r1, lsl #4
 80020c6:	462b      	mov	r3, r5
 80020c8:	462c      	mov	r4, r5
 80020ca:	22ff      	movs	r2, #255	; 0xff
 80020cc:	e792      	b.n	8001ff4 <bitmap_color_conversion__word_to_bitmap_color+0x28>
 80020ce:	23ff      	movs	r3, #255	; 0xff
 80020d0:	b2ca      	uxtb	r2, r1
 80020d2:	461c      	mov	r4, r3
 80020d4:	461d      	mov	r5, r3
 80020d6:	e78d      	b.n	8001ff4 <bitmap_color_conversion__word_to_bitmap_color+0x28>
 80020d8:	b919      	cbnz	r1, 80020e2 <bitmap_color_conversion__word_to_bitmap_color+0x116>
 80020da:	460c      	mov	r4, r1
 80020dc:	460d      	mov	r5, r1
 80020de:	460a      	mov	r2, r1
 80020e0:	e788      	b.n	8001ff4 <bitmap_color_conversion__word_to_bitmap_color+0x28>
 80020e2:	23ff      	movs	r3, #255	; 0xff
 80020e4:	461c      	mov	r4, r3
 80020e6:	461d      	mov	r5, r3
 80020e8:	461a      	mov	r2, r3
 80020ea:	e783      	b.n	8001ff4 <bitmap_color_conversion__word_to_bitmap_color+0x28>

080020ec <soft_drawing_bitmap___size>:
 80020ec:	2020      	movs	r0, #32
 80020ee:	2100      	movs	r1, #0
 80020f0:	4770      	bx	lr
 80020f2:	bf00      	nop

080020f4 <soft_drawing_bitmap__Oeq>:
 80020f4:	2001      	movs	r0, #1
 80020f6:	4770      	bx	lr

080020f8 <soft_drawing_bitmap___assign>:
 80020f8:	4770      	bx	lr
 80020fa:	bf00      	nop

080020fc <soft_drawing_bitmap__set_pixel__2>:
 80020fc:	b570      	push	{r4, r5, r6, lr}
 80020fe:	4604      	mov	r4, r0
 8002100:	460d      	mov	r5, r1
 8002102:	6803      	ldr	r3, [r0, #0]
 8002104:	4611      	mov	r1, r2
 8002106:	699b      	ldr	r3, [r3, #24]
 8002108:	4798      	blx	r3
 800210a:	6823      	ldr	r3, [r4, #0]
 800210c:	4629      	mov	r1, r5
 800210e:	4620      	mov	r0, r4
 8002110:	e8bd 4070 	ldmia.w	sp!, {r4, r5, r6, lr}
 8002114:	6a9b      	ldr	r3, [r3, #40]	; 0x28
 8002116:	4718      	bx	r3

08002118 <soft_drawing_bitmap__set_pixel__3>:
 8002118:	b570      	push	{r4, r5, r6, lr}
 800211a:	4604      	mov	r4, r0
 800211c:	460d      	mov	r5, r1
 800211e:	6803      	ldr	r3, [r0, #0]
 8002120:	4611      	mov	r1, r2
 8002122:	69db      	ldr	r3, [r3, #28]
 8002124:	4798      	blx	r3
 8002126:	6823      	ldr	r3, [r4, #0]
 8002128:	4629      	mov	r1, r5
 800212a:	4620      	mov	r0, r4
 800212c:	e8bd 4070 	ldmia.w	sp!, {r4, r5, r6, lr}
 8002130:	6a9b      	ldr	r3, [r3, #40]	; 0x28
 8002132:	4718      	bx	r3

08002134 <soft_drawing_bitmap__fill>:
 8002134:	e92d 41f0 	stmdb	sp!, {r4, r5, r6, r7, r8, lr}
 8002138:	6803      	ldr	r3, [r0, #0]
 800213a:	b082      	sub	sp, #8
 800213c:	685b      	ldr	r3, [r3, #4]
 800213e:	4605      	mov	r5, r0
 8002140:	4798      	blx	r3
 8002142:	2800      	cmp	r0, #0
 8002144:	dd1a      	ble.n	800217c <soft_drawing_bitmap__fill+0x48>
 8002146:	f100 38ff 	add.w	r8, r0, #4294967295
 800214a:	f04f 36ff 	mov.w	r6, #4294967295
 800214e:	682b      	ldr	r3, [r5, #0]
 8002150:	4628      	mov	r0, r5
 8002152:	681b      	ldr	r3, [r3, #0]
 8002154:	4798      	blx	r3
 8002156:	2800      	cmp	r0, #0
 8002158:	f106 0601 	add.w	r6, r6, #1
 800215c:	dd0c      	ble.n	8002178 <soft_drawing_bitmap__fill+0x44>
 800215e:	1e47      	subs	r7, r0, #1
 8002160:	f04f 34ff 	mov.w	r4, #4294967295
 8002164:	682b      	ldr	r3, [r5, #0]
 8002166:	3401      	adds	r4, #1
 8002168:	e88d 0050 	stmia.w	sp, {r4, r6}
 800216c:	6a9b      	ldr	r3, [r3, #40]	; 0x28
 800216e:	4628      	mov	r0, r5
 8002170:	4669      	mov	r1, sp
 8002172:	4798      	blx	r3
 8002174:	42bc      	cmp	r4, r7
 8002176:	d1f5      	bne.n	8002164 <soft_drawing_bitmap__fill+0x30>
 8002178:	4546      	cmp	r6, r8
 800217a:	d1e8      	bne.n	800214e <soft_drawing_bitmap__fill+0x1a>
 800217c:	b002      	add	sp, #8
 800217e:	e8bd 81f0 	ldmia.w	sp!, {r4, r5, r6, r7, r8, pc}
 8002182:	bf00      	nop

08002184 <soft_drawing_bitmap__fill_rect>:
 8002184:	e92d 43f0 	stmdb	sp!, {r4, r5, r6, r7, r8, r9, lr}
 8002188:	68cb      	ldr	r3, [r1, #12]
 800218a:	684e      	ldr	r6, [r1, #4]
 800218c:	b083      	sub	sp, #12
 800218e:	eb06 0803 	add.w	r8, r6, r3
 8002192:	4546      	cmp	r6, r8
 8002194:	da1a      	bge.n	80021cc <soft_drawing_bitmap__fill_rect+0x48>
 8002196:	4605      	mov	r5, r0
 8002198:	460f      	mov	r7, r1
 800219a:	3e01      	subs	r6, #1
 800219c:	f108 38ff 	add.w	r8, r8, #4294967295
 80021a0:	683c      	ldr	r4, [r7, #0]
 80021a2:	68bb      	ldr	r3, [r7, #8]
 80021a4:	3601      	adds	r6, #1
 80021a6:	eb04 0903 	add.w	r9, r4, r3
 80021aa:	454c      	cmp	r4, r9
 80021ac:	da0c      	bge.n	80021c8 <soft_drawing_bitmap__fill_rect+0x44>
 80021ae:	3c01      	subs	r4, #1
 80021b0:	f109 39ff 	add.w	r9, r9, #4294967295
 80021b4:	682b      	ldr	r3, [r5, #0]
 80021b6:	3401      	adds	r4, #1
 80021b8:	e88d 0050 	stmia.w	sp, {r4, r6}
 80021bc:	6a9b      	ldr	r3, [r3, #40]	; 0x28
 80021be:	4628      	mov	r0, r5
 80021c0:	4669      	mov	r1, sp
 80021c2:	4798      	blx	r3
 80021c4:	454c      	cmp	r4, r9
 80021c6:	d1f5      	bne.n	80021b4 <soft_drawing_bitmap__fill_rect+0x30>
 80021c8:	4546      	cmp	r6, r8
 80021ca:	d1e9      	bne.n	80021a0 <soft_drawing_bitmap__fill_rect+0x1c>
 80021cc:	b003      	add	sp, #12
 80021ce:	e8bd 83f0 	ldmia.w	sp!, {r4, r5, r6, r7, r8, r9, pc}
 80021d2:	bf00      	nop

080021d4 <soft_drawing_bitmap__copy_rect_blend>:
 80021d4:	b5f0      	push	{r4, r5, r6, r7, lr}
 80021d6:	b087      	sub	sp, #28
 80021d8:	9c0d      	ldr	r4, [sp, #52]	; 0x34
 80021da:	9f0c      	ldr	r7, [sp, #48]	; 0x30
 80021dc:	f89d 6038 	ldrb.w	r6, [sp, #56]	; 0x38
 80021e0:	6815      	ldr	r5, [r2, #0]
 80021e2:	9301      	str	r3, [sp, #4]
 80021e4:	9200      	str	r2, [sp, #0]
 80021e6:	9702      	str	r7, [sp, #8]
 80021e8:	9403      	str	r4, [sp, #12]
 80021ea:	9604      	str	r6, [sp, #16]
 80021ec:	6cec      	ldr	r4, [r5, #76]	; 0x4c
 80021ee:	47a0      	blx	r4
 80021f0:	b007      	add	sp, #28
 80021f2:	bdf0      	pop	{r4, r5, r6, r7, pc}

080021f4 <soft_drawing_bitmap__draw_vertical_line>:
 80021f4:	b570      	push	{r4, r5, r6, lr}
 80021f6:	4604      	mov	r4, r0
 80021f8:	c903      	ldmia	r1, {r0, r1}
 80021fa:	6826      	ldr	r6, [r4, #0]
 80021fc:	b084      	sub	sp, #16
 80021fe:	2501      	movs	r5, #1
 8002200:	e88d 0003 	stmia.w	sp, {r0, r1}
 8002204:	9203      	str	r2, [sp, #12]
 8002206:	9502      	str	r5, [sp, #8]
 8002208:	6cb2      	ldr	r2, [r6, #72]	; 0x48
 800220a:	4620      	mov	r0, r4
 800220c:	4669      	mov	r1, sp
 800220e:	4790      	blx	r2
 8002210:	b004      	add	sp, #16
 8002212:	bd70      	pop	{r4, r5, r6, pc}

08002214 <soft_drawing_bitmap__draw_horizontal_line>:
 8002214:	b570      	push	{r4, r5, r6, lr}
 8002216:	4604      	mov	r4, r0
 8002218:	c903      	ldmia	r1, {r0, r1}
 800221a:	6826      	ldr	r6, [r4, #0]
 800221c:	b084      	sub	sp, #16
 800221e:	2501      	movs	r5, #1
 8002220:	e88d 0003 	stmia.w	sp, {r0, r1}
 8002224:	9202      	str	r2, [sp, #8]
 8002226:	9503      	str	r5, [sp, #12]
 8002228:	6cb2      	ldr	r2, [r6, #72]	; 0x48
 800222a:	4620      	mov	r0, r4
 800222c:	4669      	mov	r1, sp
 800222e:	4790      	blx	r2
 8002230:	b004      	add	sp, #16
 8002232:	bd70      	pop	{r4, r5, r6, pc}

08002234 <soft_drawing_bitmap__draw_rect>:
 8002234:	e92d 4ff0 	stmdb	sp!, {r4, r5, r6, r7, r8, r9, sl, fp, lr}
 8002238:	4692      	mov	sl, r2
 800223a:	460f      	mov	r7, r1
 800223c:	4605      	mov	r5, r0
 800223e:	eb02 76d2 	add.w	r6, r2, r2, lsr #31
 8002242:	68ca      	ldr	r2, [r1, #12]
 8002244:	b087      	sub	sp, #28
 8002246:	f8d1 b000 	ldr.w	fp, [r1]
 800224a:	1074      	asrs	r4, r6, #1
 800224c:	1076      	asrs	r6, r6, #1
 800224e:	f8d1 9004 	ldr.w	r9, [r1, #4]
 8002252:	4264      	negs	r4, r4
 8002254:	688b      	ldr	r3, [r1, #8]
 8002256:	9201      	str	r2, [sp, #4]
 8002258:	1991      	adds	r1, r2, r6
 800225a:	6802      	ldr	r2, [r0, #0]
 800225c:	eb0b 0804 	add.w	r8, fp, r4
 8002260:	f8d2 c048 	ldr.w	ip, [r2, #72]	; 0x48
 8002264:	445b      	add	r3, fp
 8002266:	f8cd 8008 	str.w	r8, [sp, #8]
 800226a:	9105      	str	r1, [sp, #20]
 800226c:	f8cd 900c 	str.w	r9, [sp, #12]
 8002270:	a902      	add	r1, sp, #8
 8002272:	f8cd a010 	str.w	sl, [sp, #16]
 8002276:	f103 38ff 	add.w	r8, r3, #4294967295
 800227a:	47e0      	blx	ip
 800227c:	68f9      	ldr	r1, [r7, #12]
 800227e:	6828      	ldr	r0, [r5, #0]
 8002280:	eb08 0304 	add.w	r3, r8, r4
 8002284:	4431      	add	r1, r6
 8002286:	f8d0 c048 	ldr.w	ip, [r0, #72]	; 0x48
 800228a:	4628      	mov	r0, r5
 800228c:	9302      	str	r3, [sp, #8]
 800228e:	f8cd 900c 	str.w	r9, [sp, #12]
 8002292:	9105      	str	r1, [sp, #20]
 8002294:	f8cd a010 	str.w	sl, [sp, #16]
 8002298:	a902      	add	r1, sp, #8
 800229a:	47e0      	blx	ip
 800229c:	68bb      	ldr	r3, [r7, #8]
 800229e:	6828      	ldr	r0, [r5, #0]
 80022a0:	eb09 0104 	add.w	r1, r9, r4
 80022a4:	4433      	add	r3, r6
 80022a6:	f8d0 c048 	ldr.w	ip, [r0, #72]	; 0x48
 80022aa:	4628      	mov	r0, r5
 80022ac:	9103      	str	r1, [sp, #12]
 80022ae:	9304      	str	r3, [sp, #16]
 80022b0:	a902      	add	r1, sp, #8
 80022b2:	f8cd b008 	str.w	fp, [sp, #8]
 80022b6:	f8cd a014 	str.w	sl, [sp, #20]
 80022ba:	47e0      	blx	ip
 80022bc:	9a01      	ldr	r2, [sp, #4]
 80022be:	682b      	ldr	r3, [r5, #0]
 80022c0:	4491      	add	r9, r2
 80022c2:	68ba      	ldr	r2, [r7, #8]
 80022c4:	f109 39ff 	add.w	r9, r9, #4294967295
 80022c8:	4416      	add	r6, r2
 80022ca:	444c      	add	r4, r9
 80022cc:	6c9b      	ldr	r3, [r3, #72]	; 0x48
 80022ce:	a902      	add	r1, sp, #8
 80022d0:	4628      	mov	r0, r5
 80022d2:	9403      	str	r4, [sp, #12]
 80022d4:	9604      	str	r6, [sp, #16]
 80022d6:	f8cd b008 	str.w	fp, [sp, #8]
 80022da:	f8cd a014 	str.w	sl, [sp, #20]
 80022de:	4798      	blx	r3
 80022e0:	b007      	add	sp, #28
 80022e2:	e8bd 8ff0 	ldmia.w	sp!, {r4, r5, r6, r7, r8, r9, sl, fp, pc}
 80022e6:	bf00      	nop

080022e8 <soft_drawing_bitmap__fill_rounded_rect>:
 80022e8:	e92d 4ff0 	stmdb	sp!, {r4, r5, r6, r7, r8, r9, sl, fp, lr}
 80022ec:	4688      	mov	r8, r1
 80022ee:	b08b      	sub	sp, #44	; 0x2c
 80022f0:	4604      	mov	r4, r0
 80022f2:	f8d1 a004 	ldr.w	sl, [r1, #4]
 80022f6:	68ce      	ldr	r6, [r1, #12]
 80022f8:	680f      	ldr	r7, [r1, #0]
 80022fa:	4615      	mov	r5, r2
 80022fc:	2a00      	cmp	r2, #0
 80022fe:	d07a      	beq.n	80023f6 <soft_drawing_bitmap__fill_rounded_rect+0x10e>
 8002300:	ea4f 0942 	mov.w	r9, r2, lsl #1
 8002304:	688a      	ldr	r2, [r1, #8]
 8002306:	6803      	ldr	r3, [r0, #0]
 8002308:	9201      	str	r2, [sp, #4]
 800230a:	eb05 020a 	add.w	r2, r5, sl
 800230e:	6c9b      	ldr	r3, [r3, #72]	; 0x48
 8002310:	9202      	str	r2, [sp, #8]
 8002312:	9207      	str	r2, [sp, #28]
 8002314:	f1c9 0900 	rsb	r9, r9, #0
 8002318:	9a01      	ldr	r2, [sp, #4]
 800231a:	eb09 0106 	add.w	r1, r9, r6
 800231e:	9109      	str	r1, [sp, #36]	; 0x24
 8002320:	9706      	str	r7, [sp, #24]
 8002322:	9208      	str	r2, [sp, #32]
 8002324:	a906      	add	r1, sp, #24
 8002326:	4798      	blx	r3
 8002328:	2d00      	cmp	r5, #0
 800232a:	dd61      	ble.n	80023f0 <soft_drawing_bitmap__fill_rounded_rect+0x108>
 800232c:	46cc      	mov	ip, r9
 800232e:	4456      	add	r6, sl
 8002330:	3e01      	subs	r6, #1
 8002332:	1b73      	subs	r3, r6, r5
 8002334:	9303      	str	r3, [sp, #12]
 8002336:	19eb      	adds	r3, r5, r7
 8002338:	f1c5 0701 	rsb	r7, r5, #1
 800233c:	9304      	str	r3, [sp, #16]
 800233e:	2600      	movs	r6, #0
 8002340:	9701      	str	r7, [sp, #4]
 8002342:	9b04      	ldr	r3, [sp, #16]
 8002344:	3601      	adds	r6, #1
 8002346:	ebc6 0b03 	rsb	fp, r6, r3
 800234a:	9b01      	ldr	r3, [sp, #4]
 800234c:	ea4f 0a46 	mov.w	sl, r6, lsl #1
 8002350:	2b00      	cmp	r3, #0
 8002352:	4620      	mov	r0, r4
 8002354:	a906      	add	r1, sp, #24
 8002356:	db04      	blt.n	8002362 <soft_drawing_bitmap__fill_rounded_rect+0x7a>
 8002358:	f10c 0c02 	add.w	ip, ip, #2
 800235c:	4463      	add	r3, ip
 800235e:	9301      	str	r3, [sp, #4]
 8002360:	3d01      	subs	r5, #1
 8002362:	9f03      	ldr	r7, [sp, #12]
 8002364:	f8d8 2008 	ldr.w	r2, [r8, #8]
 8002368:	eb05 0e07 	add.w	lr, r5, r7
 800236c:	9f01      	ldr	r7, [sp, #4]
 800236e:	6823      	ldr	r3, [r4, #0]
 8002370:	4457      	add	r7, sl
 8002372:	3701      	adds	r7, #1
 8002374:	444a      	add	r2, r9
 8002376:	f8cd c014 	str.w	ip, [sp, #20]
 800237a:	6ddb      	ldr	r3, [r3, #92]	; 0x5c
 800237c:	4452      	add	r2, sl
 800237e:	f8cd e01c 	str.w	lr, [sp, #28]
 8002382:	f8cd b018 	str.w	fp, [sp, #24]
 8002386:	9701      	str	r7, [sp, #4]
 8002388:	4798      	blx	r3
 800238a:	f8d8 2008 	ldr.w	r2, [r8, #8]
 800238e:	9902      	ldr	r1, [sp, #8]
 8002390:	6823      	ldr	r3, [r4, #0]
 8002392:	1b49      	subs	r1, r1, r5
 8002394:	444a      	add	r2, r9
 8002396:	6ddb      	ldr	r3, [r3, #92]	; 0x5c
 8002398:	4452      	add	r2, sl
 800239a:	4620      	mov	r0, r4
 800239c:	f8cd b018 	str.w	fp, [sp, #24]
 80023a0:	9107      	str	r1, [sp, #28]
 80023a2:	a906      	add	r1, sp, #24
 80023a4:	4798      	blx	r3
 80023a6:	9804      	ldr	r0, [sp, #16]
 80023a8:	f8d8 2008 	ldr.w	r2, [r8, #8]
 80023ac:	9f03      	ldr	r7, [sp, #12]
 80023ae:	6823      	ldr	r3, [r4, #0]
 80023b0:	ebc5 0a00 	rsb	sl, r5, r0
 80023b4:	ea4f 0b45 	mov.w	fp, r5, lsl #1
 80023b8:	19b9      	adds	r1, r7, r6
 80023ba:	444a      	add	r2, r9
 80023bc:	6ddb      	ldr	r3, [r3, #92]	; 0x5c
 80023be:	445a      	add	r2, fp
 80023c0:	4620      	mov	r0, r4
 80023c2:	9107      	str	r1, [sp, #28]
 80023c4:	f8cd a018 	str.w	sl, [sp, #24]
 80023c8:	a906      	add	r1, sp, #24
 80023ca:	4798      	blx	r3
 80023cc:	f8d8 2008 	ldr.w	r2, [r8, #8]
 80023d0:	9902      	ldr	r1, [sp, #8]
 80023d2:	6823      	ldr	r3, [r4, #0]
 80023d4:	1b89      	subs	r1, r1, r6
 80023d6:	444a      	add	r2, r9
 80023d8:	6ddb      	ldr	r3, [r3, #92]	; 0x5c
 80023da:	445a      	add	r2, fp
 80023dc:	9107      	str	r1, [sp, #28]
 80023de:	f8cd a018 	str.w	sl, [sp, #24]
 80023e2:	4620      	mov	r0, r4
 80023e4:	a906      	add	r1, sp, #24
 80023e6:	4798      	blx	r3
 80023e8:	42b5      	cmp	r5, r6
 80023ea:	f8dd c014 	ldr.w	ip, [sp, #20]
 80023ee:	dca8      	bgt.n	8002342 <soft_drawing_bitmap__fill_rounded_rect+0x5a>
 80023f0:	b00b      	add	sp, #44	; 0x2c
 80023f2:	e8bd 8ff0 	ldmia.w	sp!, {r4, r5, r6, r7, r8, r9, sl, fp, pc}
 80023f6:	ae06      	add	r6, sp, #24
 80023f8:	c90f      	ldmia	r1, {r0, r1, r2, r3}
 80023fa:	e886 000f 	stmia.w	r6, {r0, r1, r2, r3}
 80023fe:	6823      	ldr	r3, [r4, #0]
 8002400:	9506      	str	r5, [sp, #24]
 8002402:	9507      	str	r5, [sp, #28]
 8002404:	4631      	mov	r1, r6
 8002406:	6c9b      	ldr	r3, [r3, #72]	; 0x48
 8002408:	4620      	mov	r0, r4
 800240a:	4798      	blx	r3
 800240c:	b00b      	add	sp, #44	; 0x2c
 800240e:	e8bd 8ff0 	ldmia.w	sp!, {r4, r5, r6, r7, r8, r9, sl, fp, pc}
 8002412:	bf00      	nop

08002414 <soft_drawing_bitmap__draw_circle>:
 8002414:	e92d 47f0 	stmdb	sp!, {r4, r5, r6, r7, r8, r9, sl, lr}
 8002418:	4690      	mov	r8, r2
 800241a:	460c      	mov	r4, r1
 800241c:	4605      	mov	r5, r0
 800241e:	684b      	ldr	r3, [r1, #4]
 8002420:	6802      	ldr	r2, [r0, #0]
 8002422:	6809      	ldr	r1, [r1, #0]
 8002424:	b082      	sub	sp, #8
 8002426:	4443      	add	r3, r8
 8002428:	6a92      	ldr	r2, [r2, #40]	; 0x28
 800242a:	e88d 000a 	stmia.w	sp, {r1, r3}
 800242e:	4669      	mov	r1, sp
 8002430:	4790      	blx	r2
 8002432:	6863      	ldr	r3, [r4, #4]
 8002434:	6829      	ldr	r1, [r5, #0]
 8002436:	6822      	ldr	r2, [r4, #0]
 8002438:	ebc8 0303 	rsb	r3, r8, r3
 800243c:	6a8e      	ldr	r6, [r1, #40]	; 0x28
 800243e:	4628      	mov	r0, r5
 8002440:	e88d 000c 	stmia.w	sp, {r2, r3}
 8002444:	4669      	mov	r1, sp
 8002446:	47b0      	blx	r6
 8002448:	6823      	ldr	r3, [r4, #0]
 800244a:	6829      	ldr	r1, [r5, #0]
 800244c:	6862      	ldr	r2, [r4, #4]
 800244e:	4443      	add	r3, r8
 8002450:	6a8e      	ldr	r6, [r1, #40]	; 0x28
 8002452:	4628      	mov	r0, r5
 8002454:	9300      	str	r3, [sp, #0]
 8002456:	9201      	str	r2, [sp, #4]
 8002458:	4669      	mov	r1, sp
 800245a:	47b0      	blx	r6
 800245c:	6823      	ldr	r3, [r4, #0]
 800245e:	6829      	ldr	r1, [r5, #0]
 8002460:	6862      	ldr	r2, [r4, #4]
 8002462:	ebc8 0303 	rsb	r3, r8, r3
 8002466:	6a8e      	ldr	r6, [r1, #40]	; 0x28
 8002468:	4628      	mov	r0, r5
 800246a:	9300      	str	r3, [sp, #0]
 800246c:	9201      	str	r2, [sp, #4]
 800246e:	4669      	mov	r1, sp
 8002470:	ea4f 0a48 	mov.w	sl, r8, lsl #1
 8002474:	47b0      	blx	r6
 8002476:	f1b8 0f00 	cmp.w	r8, #0
 800247a:	f1ca 0a00 	rsb	sl, sl, #0
 800247e:	f1c8 0901 	rsb	r9, r8, #1
 8002482:	dd6c      	ble.n	800255e <soft_drawing_bitmap__draw_circle+0x14a>
 8002484:	2600      	movs	r6, #0
 8002486:	f1b9 0f00 	cmp.w	r9, #0
 800248a:	f106 0601 	add.w	r6, r6, #1
 800248e:	4628      	mov	r0, r5
 8002490:	4669      	mov	r1, sp
 8002492:	db04      	blt.n	800249e <soft_drawing_bitmap__draw_circle+0x8a>
 8002494:	f10a 0a02 	add.w	sl, sl, #2
 8002498:	44d1      	add	r9, sl
 800249a:	f108 38ff 	add.w	r8, r8, #4294967295
 800249e:	6827      	ldr	r7, [r4, #0]
 80024a0:	6863      	ldr	r3, [r4, #4]
 80024a2:	682a      	ldr	r2, [r5, #0]
 80024a4:	4443      	add	r3, r8
 80024a6:	4437      	add	r7, r6
 80024a8:	6a92      	ldr	r2, [r2, #40]	; 0x28
 80024aa:	9700      	str	r7, [sp, #0]
 80024ac:	9301      	str	r3, [sp, #4]
 80024ae:	4790      	blx	r2
 80024b0:	e894 000c 	ldmia.w	r4, {r2, r3}
 80024b4:	6829      	ldr	r1, [r5, #0]
 80024b6:	1b92      	subs	r2, r2, r6
 80024b8:	4443      	add	r3, r8
 80024ba:	6a8f      	ldr	r7, [r1, #40]	; 0x28
 80024bc:	4628      	mov	r0, r5
 80024be:	e88d 000c 	stmia.w	sp, {r2, r3}
 80024c2:	4669      	mov	r1, sp
 80024c4:	47b8      	blx	r7
 80024c6:	e894 000c 	ldmia.w	r4, {r2, r3}
 80024ca:	6829      	ldr	r1, [r5, #0]
 80024cc:	4432      	add	r2, r6
 80024ce:	ebc8 0303 	rsb	r3, r8, r3
 80024d2:	6a8f      	ldr	r7, [r1, #40]	; 0x28
 80024d4:	4628      	mov	r0, r5
 80024d6:	e88d 000c 	stmia.w	sp, {r2, r3}
 80024da:	4669      	mov	r1, sp
 80024dc:	47b8      	blx	r7
 80024de:	e894 000c 	ldmia.w	r4, {r2, r3}
 80024e2:	6829      	ldr	r1, [r5, #0]
 80024e4:	1b92      	subs	r2, r2, r6
 80024e6:	ebc8 0303 	rsb	r3, r8, r3
 80024ea:	6a8f      	ldr	r7, [r1, #40]	; 0x28
 80024ec:	4628      	mov	r0, r5
 80024ee:	e88d 000c 	stmia.w	sp, {r2, r3}
 80024f2:	4669      	mov	r1, sp
 80024f4:	47b8      	blx	r7
 80024f6:	e894 000c 	ldmia.w	r4, {r2, r3}
 80024fa:	6829      	ldr	r1, [r5, #0]
 80024fc:	4442      	add	r2, r8
 80024fe:	4433      	add	r3, r6
 8002500:	6a8f      	ldr	r7, [r1, #40]	; 0x28
 8002502:	4628      	mov	r0, r5
 8002504:	e88d 000c 	stmia.w	sp, {r2, r3}
 8002508:	4669      	mov	r1, sp
 800250a:	47b8      	blx	r7
 800250c:	e894 000c 	ldmia.w	r4, {r2, r3}
 8002510:	6829      	ldr	r1, [r5, #0]
 8002512:	ebc8 0202 	rsb	r2, r8, r2
 8002516:	4433      	add	r3, r6
 8002518:	6a8f      	ldr	r7, [r1, #40]	; 0x28
 800251a:	4628      	mov	r0, r5
 800251c:	e88d 000c 	stmia.w	sp, {r2, r3}
 8002520:	4669      	mov	r1, sp
 8002522:	47b8      	blx	r7
 8002524:	e894 000c 	ldmia.w	r4, {r2, r3}
 8002528:	6829      	ldr	r1, [r5, #0]
 800252a:	4442      	add	r2, r8
 800252c:	1b9b      	subs	r3, r3, r6
 800252e:	6a8f      	ldr	r7, [r1, #40]	; 0x28
 8002530:	4628      	mov	r0, r5
 8002532:	e88d 000c 	stmia.w	sp, {r2, r3}
 8002536:	4669      	mov	r1, sp
 8002538:	47b8      	blx	r7
 800253a:	e894 000c 	ldmia.w	r4, {r2, r3}
 800253e:	6829      	ldr	r1, [r5, #0]
 8002540:	ebc8 0202 	rsb	r2, r8, r2
 8002544:	1b9b      	subs	r3, r3, r6
 8002546:	6a8f      	ldr	r7, [r1, #40]	; 0x28
 8002548:	4628      	mov	r0, r5
 800254a:	e88d 000c 	stmia.w	sp, {r2, r3}
 800254e:	4669      	mov	r1, sp
 8002550:	eb09 0946 	add.w	r9, r9, r6, lsl #1
 8002554:	47b8      	blx	r7
 8002556:	45b0      	cmp	r8, r6
 8002558:	f109 0901 	add.w	r9, r9, #1
 800255c:	dc93      	bgt.n	8002486 <soft_drawing_bitmap__draw_circle+0x72>
 800255e:	b002      	add	sp, #8
 8002560:	e8bd 87f0 	ldmia.w	sp!, {r4, r5, r6, r7, r8, r9, sl, pc}

08002564 <soft_drawing_bitmap__set_source__2>:
 8002564:	b570      	push	{r4, r5, r6, lr}
 8002566:	460e      	mov	r6, r1
 8002568:	6803      	ldr	r3, [r0, #0]
 800256a:	4604      	mov	r4, r0
 800256c:	68da      	ldr	r2, [r3, #12]
 800256e:	69dd      	ldr	r5, [r3, #28]
 8002570:	4790      	blx	r2
 8002572:	4631      	mov	r1, r6
 8002574:	f7ff fcbc 	bl	8001ef0 <bitmap_color_conversion__bitmap_color_to_word>
 8002578:	462b      	mov	r3, r5
 800257a:	4601      	mov	r1, r0
 800257c:	4620      	mov	r0, r4
 800257e:	e8bd 4070 	ldmia.w	sp!, {r4, r5, r6, lr}
 8002582:	4718      	bx	r3

08002584 <soft_drawing_bitmap__source__2>:
 8002584:	b538      	push	{r3, r4, r5, lr}
 8002586:	6803      	ldr	r3, [r0, #0]
 8002588:	4604      	mov	r4, r0
 800258a:	68db      	ldr	r3, [r3, #12]
 800258c:	4798      	blx	r3
 800258e:	6823      	ldr	r3, [r4, #0]
 8002590:	4605      	mov	r5, r0
 8002592:	6a5b      	ldr	r3, [r3, #36]	; 0x24
 8002594:	4620      	mov	r0, r4
 8002596:	4798      	blx	r3
 8002598:	4601      	mov	r1, r0
 800259a:	4628      	mov	r0, r5
 800259c:	f7ff fd16 	bl	8001fcc <bitmap_color_conversion__word_to_bitmap_color>
 80025a0:	bd38      	pop	{r3, r4, r5, pc}
 80025a2:	bf00      	nop

080025a4 <soft_drawing_bitmap__pixel__2>:
 80025a4:	b570      	push	{r4, r5, r6, lr}
 80025a6:	6803      	ldr	r3, [r0, #0]
 80025a8:	4604      	mov	r4, r0
 80025aa:	68db      	ldr	r3, [r3, #12]
 80025ac:	460e      	mov	r6, r1
 80025ae:	4798      	blx	r3
 80025b0:	6823      	ldr	r3, [r4, #0]
 80025b2:	4605      	mov	r5, r0
 80025b4:	4631      	mov	r1, r6
 80025b6:	6bdb      	ldr	r3, [r3, #60]	; 0x3c
 80025b8:	4620      	mov	r0, r4
 80025ba:	4798      	blx	r3
 80025bc:	4601      	mov	r1, r0
 80025be:	4628      	mov	r0, r5
 80025c0:	f7ff fd04 	bl	8001fcc <bitmap_color_conversion__word_to_bitmap_color>
 80025c4:	bd70      	pop	{r4, r5, r6, pc}
 80025c6:	bf00      	nop

080025c8 <soft_drawing_bitmap__copy_rect>:
 80025c8:	b508      	push	{r3, lr}
 80025ca:	4802      	ldr	r0, [pc, #8]	; (80025d4 <soft_drawing_bitmap__copy_rect+0xc>)
 80025cc:	2100      	movs	r1, #0
 80025ce:	f7fd ff77 	bl	80004c0 <__gnat_last_chance_handler>
 80025d2:	bf00      	nop
 80025d4:	08009ee4 	.word	0x08009ee4

080025d8 <soft_drawing_bitmap__copy_rect__2>:
 80025d8:	e92d 4ff0 	stmdb	sp!, {r4, r5, r6, r7, r8, r9, sl, fp, lr}
 80025dc:	6805      	ldr	r5, [r0, #0]
 80025de:	b085      	sub	sp, #20
 80025e0:	680e      	ldr	r6, [r1, #0]
 80025e2:	468a      	mov	sl, r1
 80025e4:	6829      	ldr	r1, [r5, #0]
 80025e6:	9c0e      	ldr	r4, [sp, #56]	; 0x38
 80025e8:	4607      	mov	r7, r0
 80025ea:	4615      	mov	r5, r2
 80025ec:	4698      	mov	r8, r3
 80025ee:	f8dd b03c 	ldr.w	fp, [sp, #60]	; 0x3c
 80025f2:	4788      	blx	r1
 80025f4:	4426      	add	r6, r4
 80025f6:	4286      	cmp	r6, r0
 80025f8:	dc53      	bgt.n	80026a2 <soft_drawing_bitmap__copy_rect__2+0xca>
 80025fa:	683a      	ldr	r2, [r7, #0]
 80025fc:	f8da 3004 	ldr.w	r3, [sl, #4]
 8002600:	6852      	ldr	r2, [r2, #4]
 8002602:	4638      	mov	r0, r7
 8002604:	eb0b 0603 	add.w	r6, fp, r3
 8002608:	4790      	blx	r2
 800260a:	4286      	cmp	r6, r0
 800260c:	dc49      	bgt.n	80026a2 <soft_drawing_bitmap__copy_rect__2+0xca>
 800260e:	682a      	ldr	r2, [r5, #0]
 8002610:	f8d8 3000 	ldr.w	r3, [r8]
 8002614:	6812      	ldr	r2, [r2, #0]
 8002616:	4628      	mov	r0, r5
 8002618:	18e6      	adds	r6, r4, r3
 800261a:	4790      	blx	r2
 800261c:	4286      	cmp	r6, r0
 800261e:	dc44      	bgt.n	80026aa <soft_drawing_bitmap__copy_rect__2+0xd2>
 8002620:	682a      	ldr	r2, [r5, #0]
 8002622:	f8d8 3004 	ldr.w	r3, [r8, #4]
 8002626:	6852      	ldr	r2, [r2, #4]
 8002628:	4628      	mov	r0, r5
 800262a:	eb0b 0603 	add.w	r6, fp, r3
 800262e:	4790      	blx	r2
 8002630:	4286      	cmp	r6, r0
 8002632:	dc3a      	bgt.n	80026aa <soft_drawing_bitmap__copy_rect__2+0xd2>
 8002634:	2c00      	cmp	r4, #0
 8002636:	dd31      	ble.n	800269c <soft_drawing_bitmap__copy_rect__2+0xc4>
 8002638:	1e63      	subs	r3, r4, #1
 800263a:	f04f 36ff 	mov.w	r6, #4294967295
 800263e:	9301      	str	r3, [sp, #4]
 8002640:	eb0b 0906 	add.w	r9, fp, r6
 8002644:	f1bb 0f00 	cmp.w	fp, #0
 8002648:	f106 0601 	add.w	r6, r6, #1
 800264c:	dd23      	ble.n	8002696 <soft_drawing_bitmap__copy_rect__2+0xbe>
 800264e:	f04f 34ff 	mov.w	r4, #4294967295
 8002652:	f8da 1004 	ldr.w	r1, [sl, #4]
 8002656:	f8da 3000 	ldr.w	r3, [sl]
 800265a:	3401      	adds	r4, #1
 800265c:	683a      	ldr	r2, [r7, #0]
 800265e:	4433      	add	r3, r6
 8002660:	4421      	add	r1, r4
 8002662:	6b92      	ldr	r2, [r2, #56]	; 0x38
 8002664:	4638      	mov	r0, r7
 8002666:	9103      	str	r1, [sp, #12]
 8002668:	9302      	str	r3, [sp, #8]
 800266a:	a902      	add	r1, sp, #8
 800266c:	4790      	blx	r2
 800266e:	682b      	ldr	r3, [r5, #0]
 8002670:	4601      	mov	r1, r0
 8002672:	699b      	ldr	r3, [r3, #24]
 8002674:	4628      	mov	r0, r5
 8002676:	4798      	blx	r3
 8002678:	f8d8 1004 	ldr.w	r1, [r8, #4]
 800267c:	f8d8 3000 	ldr.w	r3, [r8]
 8002680:	682a      	ldr	r2, [r5, #0]
 8002682:	4421      	add	r1, r4
 8002684:	4433      	add	r3, r6
 8002686:	6a92      	ldr	r2, [r2, #40]	; 0x28
 8002688:	4628      	mov	r0, r5
 800268a:	9103      	str	r1, [sp, #12]
 800268c:	9302      	str	r3, [sp, #8]
 800268e:	a902      	add	r1, sp, #8
 8002690:	4790      	blx	r2
 8002692:	454c      	cmp	r4, r9
 8002694:	d1dd      	bne.n	8002652 <soft_drawing_bitmap__copy_rect__2+0x7a>
 8002696:	9b01      	ldr	r3, [sp, #4]
 8002698:	429e      	cmp	r6, r3
 800269a:	d1d3      	bne.n	8002644 <soft_drawing_bitmap__copy_rect__2+0x6c>
 800269c:	b005      	add	sp, #20
 800269e:	e8bd 8ff0 	ldmia.w	sp!, {r4, r5, r6, r7, r8, r9, sl, fp, pc}
 80026a2:	4804      	ldr	r0, [pc, #16]	; (80026b4 <soft_drawing_bitmap__copy_rect__2+0xdc>)
 80026a4:	2100      	movs	r1, #0
 80026a6:	f7fd ff0b 	bl	80004c0 <__gnat_last_chance_handler>
 80026aa:	4803      	ldr	r0, [pc, #12]	; (80026b8 <soft_drawing_bitmap__copy_rect__2+0xe0>)
 80026ac:	2100      	movs	r1, #0
 80026ae:	f7fd ff07 	bl	80004c0 <__gnat_last_chance_handler>
 80026b2:	bf00      	nop
 80026b4:	08009ef8 	.word	0x08009ef8
 80026b8:	08009f1c 	.word	0x08009f1c

080026bc <soft_drawing_bitmap__cubic_bezier>:
 80026bc:	e92d 4ff0 	stmdb	sp!, {r4, r5, r6, r7, r8, r9, sl, fp, lr}
 80026c0:	b08f      	sub	sp, #60	; 0x3c
 80026c2:	af02      	add	r7, sp, #8
 80026c4:	6dfc      	ldr	r4, [r7, #92]	; 0x5c
 80026c6:	f8d7 8058 	ldr.w	r8, [r7, #88]	; 0x58
 80026ca:	00e4      	lsls	r4, r4, #3
 80026cc:	3410      	adds	r4, #16
 80026ce:	ebad 0d04 	sub.w	sp, sp, r4
 80026d2:	ac02      	add	r4, sp, #8
 80026d4:	62fc      	str	r4, [r7, #44]	; 0x2c
 80026d6:	6dfc      	ldr	r4, [r7, #92]	; 0x5c
 80026d8:	2c00      	cmp	r4, #0
 80026da:	f2c0 80f3 	blt.w	80028c4 <soft_drawing_bitmap__cubic_bezier+0x208>
 80026de:	4683      	mov	fp, r0
 80026e0:	6df8      	ldr	r0, [r7, #92]	; 0x5c
 80026e2:	461c      	mov	r4, r3
 80026e4:	4615      	mov	r5, r2
 80026e6:	460e      	mov	r6, r1
 80026e8:	f006 f8a2 	bl	8008830 <__aeabi_i2f>
 80026ec:	62b8      	str	r0, [r7, #40]	; 0x28
 80026ee:	6830      	ldr	r0, [r6, #0]
 80026f0:	f006 f89e 	bl	8008830 <__aeabi_i2f>
 80026f4:	6278      	str	r0, [r7, #36]	; 0x24
 80026f6:	6828      	ldr	r0, [r5, #0]
 80026f8:	f006 f89a 	bl	8008830 <__aeabi_i2f>
 80026fc:	6238      	str	r0, [r7, #32]
 80026fe:	6820      	ldr	r0, [r4, #0]
 8002700:	f006 f896 	bl	8008830 <__aeabi_i2f>
 8002704:	61f8      	str	r0, [r7, #28]
 8002706:	f8d8 0000 	ldr.w	r0, [r8]
 800270a:	f006 f891 	bl	8008830 <__aeabi_i2f>
 800270e:	61b8      	str	r0, [r7, #24]
 8002710:	6870      	ldr	r0, [r6, #4]
 8002712:	f006 f88d 	bl	8008830 <__aeabi_i2f>
 8002716:	6178      	str	r0, [r7, #20]
 8002718:	6868      	ldr	r0, [r5, #4]
 800271a:	f006 f889 	bl	8008830 <__aeabi_i2f>
 800271e:	6138      	str	r0, [r7, #16]
 8002720:	6860      	ldr	r0, [r4, #4]
 8002722:	f006 f885 	bl	8008830 <__aeabi_i2f>
 8002726:	60f8      	str	r0, [r7, #12]
 8002728:	f8d8 0004 	ldr.w	r0, [r8, #4]
 800272c:	f006 f880 	bl	8008830 <__aeabi_i2f>
 8002730:	f04f 34ff 	mov.w	r4, #4294967295
 8002734:	60b8      	str	r0, [r7, #8]
 8002736:	f8c7 b004 	str.w	fp, [r7, #4]
 800273a:	e039      	b.n	80027b0 <soft_drawing_bitmap__cubic_bezier+0xf4>
 800273c:	f06f 4141 	mvn.w	r1, #3238002688	; 0xc1000000
 8002740:	4658      	mov	r0, fp
 8002742:	f005 ffc1 	bl	80086c8 <__addsf3>
 8002746:	f006 fa8d 	bl	8008c64 <__aeabi_f2iz>
 800274a:	4603      	mov	r3, r0
 800274c:	60a3      	str	r3, [r4, #8]
 800274e:	4650      	mov	r0, sl
 8002750:	6979      	ldr	r1, [r7, #20]
 8002752:	f006 f8c1 	bl	80088d8 <__aeabi_fmul>
 8002756:	6939      	ldr	r1, [r7, #16]
 8002758:	4682      	mov	sl, r0
 800275a:	4648      	mov	r0, r9
 800275c:	f006 f8bc 	bl	80088d8 <__aeabi_fmul>
 8002760:	4601      	mov	r1, r0
 8002762:	4650      	mov	r0, sl
 8002764:	f005 ffb0 	bl	80086c8 <__addsf3>
 8002768:	68f9      	ldr	r1, [r7, #12]
 800276a:	4681      	mov	r9, r0
 800276c:	4640      	mov	r0, r8
 800276e:	f006 f8b3 	bl	80088d8 <__aeabi_fmul>
 8002772:	4601      	mov	r1, r0
 8002774:	4648      	mov	r0, r9
 8002776:	f005 ffa7 	bl	80086c8 <__addsf3>
 800277a:	68b9      	ldr	r1, [r7, #8]
 800277c:	4680      	mov	r8, r0
 800277e:	4630      	mov	r0, r6
 8002780:	f006 f8aa 	bl	80088d8 <__aeabi_fmul>
 8002784:	4601      	mov	r1, r0
 8002786:	4640      	mov	r0, r8
 8002788:	f005 ff9e 	bl	80086c8 <__addsf3>
 800278c:	2100      	movs	r1, #0
 800278e:	4606      	mov	r6, r0
 8002790:	f006 fa54 	bl	8008c3c <__aeabi_fcmpge>
 8002794:	2800      	cmp	r0, #0
 8002796:	d06f      	beq.n	8002878 <soft_drawing_bitmap__cubic_bezier+0x1bc>
 8002798:	f06f 4141 	mvn.w	r1, #3238002688	; 0xc1000000
 800279c:	4630      	mov	r0, r6
 800279e:	f005 ff93 	bl	80086c8 <__addsf3>
 80027a2:	f006 fa5f 	bl	8008c64 <__aeabi_f2iz>
 80027a6:	6dfb      	ldr	r3, [r7, #92]	; 0x5c
 80027a8:	60e0      	str	r0, [r4, #12]
 80027aa:	42ab      	cmp	r3, r5
 80027ac:	462c      	mov	r4, r5
 80027ae:	d06f      	beq.n	8002890 <soft_drawing_bitmap__cubic_bezier+0x1d4>
 80027b0:	1c65      	adds	r5, r4, #1
 80027b2:	4628      	mov	r0, r5
 80027b4:	f006 f83c 	bl	8008830 <__aeabi_i2f>
 80027b8:	6ab9      	ldr	r1, [r7, #40]	; 0x28
 80027ba:	f006 f941 	bl	8008a40 <__aeabi_fdiv>
 80027be:	4606      	mov	r6, r0
 80027c0:	f04f 507e 	mov.w	r0, #1065353216	; 0x3f800000
 80027c4:	4631      	mov	r1, r6
 80027c6:	f005 ff7d 	bl	80086c4 <__aeabi_fsub>
 80027ca:	4601      	mov	r1, r0
 80027cc:	4680      	mov	r8, r0
 80027ce:	f006 f883 	bl	80088d8 <__aeabi_fmul>
 80027d2:	4681      	mov	r9, r0
 80027d4:	4640      	mov	r0, r8
 80027d6:	4649      	mov	r1, r9
 80027d8:	f006 f87e 	bl	80088d8 <__aeabi_fmul>
 80027dc:	493b      	ldr	r1, [pc, #236]	; (80028cc <soft_drawing_bitmap__cubic_bezier+0x210>)
 80027de:	4682      	mov	sl, r0
 80027e0:	4630      	mov	r0, r6
 80027e2:	f006 f879 	bl	80088d8 <__aeabi_fmul>
 80027e6:	4601      	mov	r1, r0
 80027e8:	4648      	mov	r0, r9
 80027ea:	f006 f875 	bl	80088d8 <__aeabi_fmul>
 80027ee:	4631      	mov	r1, r6
 80027f0:	4681      	mov	r9, r0
 80027f2:	4630      	mov	r0, r6
 80027f4:	f006 f870 	bl	80088d8 <__aeabi_fmul>
 80027f8:	4934      	ldr	r1, [pc, #208]	; (80028cc <soft_drawing_bitmap__cubic_bezier+0x210>)
 80027fa:	4683      	mov	fp, r0
 80027fc:	f006 f86c 	bl	80088d8 <__aeabi_fmul>
 8002800:	4601      	mov	r1, r0
 8002802:	4640      	mov	r0, r8
 8002804:	f006 f868 	bl	80088d8 <__aeabi_fmul>
 8002808:	4659      	mov	r1, fp
 800280a:	4680      	mov	r8, r0
 800280c:	4630      	mov	r0, r6
 800280e:	f006 f863 	bl	80088d8 <__aeabi_fmul>
 8002812:	6a79      	ldr	r1, [r7, #36]	; 0x24
 8002814:	4606      	mov	r6, r0
 8002816:	4650      	mov	r0, sl
 8002818:	f006 f85e 	bl	80088d8 <__aeabi_fmul>
 800281c:	6a39      	ldr	r1, [r7, #32]
 800281e:	4683      	mov	fp, r0
 8002820:	4648      	mov	r0, r9
 8002822:	f006 f859 	bl	80088d8 <__aeabi_fmul>
 8002826:	4601      	mov	r1, r0
 8002828:	4658      	mov	r0, fp
 800282a:	f005 ff4d 	bl	80086c8 <__addsf3>
 800282e:	69f9      	ldr	r1, [r7, #28]
 8002830:	4683      	mov	fp, r0
 8002832:	4640      	mov	r0, r8
 8002834:	f006 f850 	bl	80088d8 <__aeabi_fmul>
 8002838:	4601      	mov	r1, r0
 800283a:	4658      	mov	r0, fp
 800283c:	f005 ff44 	bl	80086c8 <__addsf3>
 8002840:	69b9      	ldr	r1, [r7, #24]
 8002842:	4683      	mov	fp, r0
 8002844:	4630      	mov	r0, r6
 8002846:	f006 f847 	bl	80088d8 <__aeabi_fmul>
 800284a:	4601      	mov	r1, r0
 800284c:	4658      	mov	r0, fp
 800284e:	f005 ff3b 	bl	80086c8 <__addsf3>
 8002852:	6afb      	ldr	r3, [r7, #44]	; 0x2c
 8002854:	2100      	movs	r1, #0
 8002856:	4683      	mov	fp, r0
 8002858:	eb03 04c4 	add.w	r4, r3, r4, lsl #3
 800285c:	f006 f9ee 	bl	8008c3c <__aeabi_fcmpge>
 8002860:	2800      	cmp	r0, #0
 8002862:	f47f af6b 	bne.w	800273c <soft_drawing_bitmap__cubic_bezier+0x80>
 8002866:	f06f 4141 	mvn.w	r1, #3238002688	; 0xc1000000
 800286a:	4658      	mov	r0, fp
 800286c:	f005 ff2a 	bl	80086c4 <__aeabi_fsub>
 8002870:	f006 f9f8 	bl	8008c64 <__aeabi_f2iz>
 8002874:	4603      	mov	r3, r0
 8002876:	e769      	b.n	800274c <soft_drawing_bitmap__cubic_bezier+0x90>
 8002878:	f06f 4141 	mvn.w	r1, #3238002688	; 0xc1000000
 800287c:	4630      	mov	r0, r6
 800287e:	f005 ff21 	bl	80086c4 <__aeabi_fsub>
 8002882:	f006 f9ef 	bl	8008c64 <__aeabi_f2iz>
 8002886:	6dfb      	ldr	r3, [r7, #92]	; 0x5c
 8002888:	60e0      	str	r0, [r4, #12]
 800288a:	42ab      	cmp	r3, r5
 800288c:	462c      	mov	r4, r5
 800288e:	d18f      	bne.n	80027b0 <soft_drawing_bitmap__cubic_bezier+0xf4>
 8002890:	6dfb      	ldr	r3, [r7, #92]	; 0x5c
 8002892:	f8d7 b004 	ldr.w	fp, [r7, #4]
 8002896:	2b00      	cmp	r3, #0
 8002898:	dd14      	ble.n	80028c4 <soft_drawing_bitmap__cubic_bezier+0x208>
 800289a:	6afc      	ldr	r4, [r7, #44]	; 0x2c
 800289c:	f103 39ff 	add.w	r9, r3, #4294967295
 80028a0:	f04f 35ff 	mov.w	r5, #4294967295
 80028a4:	f04f 0801 	mov.w	r8, #1
 80028a8:	f8db 3000 	ldr.w	r3, [fp]
 80028ac:	4621      	mov	r1, r4
 80028ae:	f8cd 8000 	str.w	r8, [sp]
 80028b2:	3408      	adds	r4, #8
 80028b4:	6c1e      	ldr	r6, [r3, #64]	; 0x40
 80028b6:	3501      	adds	r5, #1
 80028b8:	4622      	mov	r2, r4
 80028ba:	4658      	mov	r0, fp
 80028bc:	6e3b      	ldr	r3, [r7, #96]	; 0x60
 80028be:	47b0      	blx	r6
 80028c0:	454d      	cmp	r5, r9
 80028c2:	d1f1      	bne.n	80028a8 <soft_drawing_bitmap__cubic_bezier+0x1ec>
 80028c4:	3734      	adds	r7, #52	; 0x34
 80028c6:	46bd      	mov	sp, r7
 80028c8:	e8bd 8ff0 	ldmia.w	sp!, {r4, r5, r6, r7, r8, r9, sl, fp, pc}
 80028cc:	40400000 	.word	0x40400000

080028d0 <soft_drawing_bitmap__draw_line>:
 80028d0:	e92d 4ff0 	stmdb	sp!, {r4, r5, r6, r7, r8, r9, sl, fp, lr}
 80028d4:	680c      	ldr	r4, [r1, #0]
 80028d6:	f8d2 a000 	ldr.w	sl, [r2]
 80028da:	460d      	mov	r5, r1
 80028dc:	4690      	mov	r8, r2
 80028de:	b08f      	sub	sp, #60	; 0x3c
 80028e0:	4681      	mov	r9, r0
 80028e2:	ebc4 000a 	rsb	r0, r4, sl
 80028e6:	461e      	mov	r6, r3
 80028e8:	f005 ffa2 	bl	8008830 <__aeabi_i2f>
 80028ec:	686d      	ldr	r5, [r5, #4]
 80028ee:	f8d8 b004 	ldr.w	fp, [r8, #4]
 80028f2:	f020 4300 	bic.w	r3, r0, #2147483648	; 0x80000000
 80028f6:	ebc5 000b 	rsb	r0, r5, fp
 80028fa:	461f      	mov	r7, r3
 80028fc:	9301      	str	r3, [sp, #4]
 80028fe:	f005 ff97 	bl	8008830 <__aeabi_i2f>
 8002902:	f020 4300 	bic.w	r3, r0, #2147483648	; 0x80000000
 8002906:	4619      	mov	r1, r3
 8002908:	9302      	str	r3, [sp, #8]
 800290a:	45a2      	cmp	sl, r4
 800290c:	bfac      	ite	ge
 800290e:	2301      	movge	r3, #1
 8002910:	f04f 33ff 	movlt.w	r3, #4294967295
 8002914:	9304      	str	r3, [sp, #16]
 8002916:	45ab      	cmp	fp, r5
 8002918:	bfac      	ite	ge
 800291a:	2301      	movge	r3, #1
 800291c:	f04f 33ff 	movlt.w	r3, #4294967295
 8002920:	9305      	str	r3, [sp, #20]
 8002922:	f89d 3060 	ldrb.w	r3, [sp, #96]	; 0x60
 8002926:	4638      	mov	r0, r7
 8002928:	9306      	str	r3, [sp, #24]
 800292a:	f006 f991 	bl	8008c50 <__aeabi_fcmpgt>
 800292e:	2800      	cmp	r0, #0
 8002930:	d05f      	beq.n	80029f2 <soft_drawing_bitmap__draw_line+0x122>
 8002932:	4638      	mov	r0, r7
 8002934:	f04f 517c 	mov.w	r1, #1056964608	; 0x3f000000
 8002938:	f005 ffce 	bl	80088d8 <__aeabi_fmul>
 800293c:	45a2      	cmp	sl, r4
 800293e:	4607      	mov	r7, r0
 8002940:	d03d      	beq.n	80029be <soft_drawing_bitmap__draw_line+0xee>
 8002942:	eb06 7bd6 	add.w	fp, r6, r6, lsr #31
 8002946:	ea4f 0b6b 	mov.w	fp, fp, asr #1
 800294a:	2e01      	cmp	r6, #1
 800294c:	f1cb 0a00 	rsb	sl, fp, #0
 8002950:	f000 8120 	beq.w	8002b94 <soft_drawing_bitmap__draw_line+0x2c4>
 8002954:	9b06      	ldr	r3, [sp, #24]
 8002956:	2b00      	cmp	r3, #0
 8002958:	f040 80ac 	bne.w	8002ab4 <soft_drawing_bitmap__draw_line+0x1e4>
 800295c:	46a2      	mov	sl, r4
 800295e:	ab08      	add	r3, sp, #32
 8002960:	464c      	mov	r4, r9
 8002962:	9607      	str	r6, [sp, #28]
 8002964:	4699      	mov	r9, r3
 8002966:	4656      	mov	r6, sl
 8002968:	f8dd a010 	ldr.w	sl, [sp, #16]
 800296c:	e003      	b.n	8002976 <soft_drawing_bitmap__draw_line+0xa6>
 800296e:	f8d8 1000 	ldr.w	r1, [r8]
 8002972:	42b1      	cmp	r1, r6
 8002974:	d020      	beq.n	80029b8 <soft_drawing_bitmap__draw_line+0xe8>
 8002976:	6822      	ldr	r2, [r4, #0]
 8002978:	9608      	str	r6, [sp, #32]
 800297a:	9509      	str	r5, [sp, #36]	; 0x24
 800297c:	6f13      	ldr	r3, [r2, #112]	; 0x70
 800297e:	4620      	mov	r0, r4
 8002980:	465a      	mov	r2, fp
 8002982:	4649      	mov	r1, r9
 8002984:	4798      	blx	r3
 8002986:	4638      	mov	r0, r7
 8002988:	9902      	ldr	r1, [sp, #8]
 800298a:	f005 fe9b 	bl	80086c4 <__aeabi_fsub>
 800298e:	2100      	movs	r1, #0
 8002990:	4607      	mov	r7, r0
 8002992:	f006 f93f 	bl	8008c14 <__aeabi_fcmplt>
 8002996:	4456      	add	r6, sl
 8002998:	4632      	mov	r2, r6
 800299a:	2800      	cmp	r0, #0
 800299c:	d0e7      	beq.n	800296e <soft_drawing_bitmap__draw_line+0x9e>
 800299e:	4638      	mov	r0, r7
 80029a0:	9901      	ldr	r1, [sp, #4]
 80029a2:	9603      	str	r6, [sp, #12]
 80029a4:	f005 fe90 	bl	80086c8 <__addsf3>
 80029a8:	f8d8 1000 	ldr.w	r1, [r8]
 80029ac:	9b05      	ldr	r3, [sp, #20]
 80029ae:	42b1      	cmp	r1, r6
 80029b0:	4607      	mov	r7, r0
 80029b2:	441d      	add	r5, r3
 80029b4:	9a03      	ldr	r2, [sp, #12]
 80029b6:	d1de      	bne.n	8002976 <soft_drawing_bitmap__draw_line+0xa6>
 80029b8:	46a1      	mov	r9, r4
 80029ba:	4614      	mov	r4, r2
 80029bc:	9e07      	ldr	r6, [sp, #28]
 80029be:	2e01      	cmp	r6, #1
 80029c0:	9408      	str	r4, [sp, #32]
 80029c2:	9509      	str	r5, [sp, #36]	; 0x24
 80029c4:	d05f      	beq.n	8002a86 <soft_drawing_bitmap__draw_line+0x1b6>
 80029c6:	9b06      	ldr	r3, [sp, #24]
 80029c8:	2b00      	cmp	r3, #0
 80029ca:	d067      	beq.n	8002a9c <soft_drawing_bitmap__draw_line+0x1cc>
 80029cc:	eb06 73d6 	add.w	r3, r6, r6, lsr #31
 80029d0:	105b      	asrs	r3, r3, #1
 80029d2:	425b      	negs	r3, r3
 80029d4:	f8d9 2000 	ldr.w	r2, [r9]
 80029d8:	441c      	add	r4, r3
 80029da:	441d      	add	r5, r3
 80029dc:	4648      	mov	r0, r9
 80029de:	6c93      	ldr	r3, [r2, #72]	; 0x48
 80029e0:	a90a      	add	r1, sp, #40	; 0x28
 80029e2:	940a      	str	r4, [sp, #40]	; 0x28
 80029e4:	950b      	str	r5, [sp, #44]	; 0x2c
 80029e6:	960c      	str	r6, [sp, #48]	; 0x30
 80029e8:	960d      	str	r6, [sp, #52]	; 0x34
 80029ea:	4798      	blx	r3
 80029ec:	b00f      	add	sp, #60	; 0x3c
 80029ee:	e8bd 8ff0 	ldmia.w	sp!, {r4, r5, r6, r7, r8, r9, sl, fp, pc}
 80029f2:	9802      	ldr	r0, [sp, #8]
 80029f4:	f04f 517c 	mov.w	r1, #1056964608	; 0x3f000000
 80029f8:	f005 ff6e 	bl	80088d8 <__aeabi_fmul>
 80029fc:	45ab      	cmp	fp, r5
 80029fe:	4607      	mov	r7, r0
 8002a00:	d0dd      	beq.n	80029be <soft_drawing_bitmap__draw_line+0xee>
 8002a02:	eb06 7bd6 	add.w	fp, r6, r6, lsr #31
 8002a06:	ea4f 0b6b 	mov.w	fp, fp, asr #1
 8002a0a:	2e01      	cmp	r6, #1
 8002a0c:	f1cb 0a00 	rsb	sl, fp, #0
 8002a10:	f000 80ee 	beq.w	8002bf0 <soft_drawing_bitmap__draw_line+0x320>
 8002a14:	9b06      	ldr	r3, [sp, #24]
 8002a16:	2b00      	cmp	r3, #0
 8002a18:	f040 8084 	bne.w	8002b24 <soft_drawing_bitmap__draw_line+0x254>
 8002a1c:	46aa      	mov	sl, r5
 8002a1e:	ab08      	add	r3, sp, #32
 8002a20:	464d      	mov	r5, r9
 8002a22:	9607      	str	r6, [sp, #28]
 8002a24:	4699      	mov	r9, r3
 8002a26:	4656      	mov	r6, sl
 8002a28:	f8dd a014 	ldr.w	sl, [sp, #20]
 8002a2c:	e003      	b.n	8002a36 <soft_drawing_bitmap__draw_line+0x166>
 8002a2e:	f8d8 1004 	ldr.w	r1, [r8, #4]
 8002a32:	42b1      	cmp	r1, r6
 8002a34:	d020      	beq.n	8002a78 <soft_drawing_bitmap__draw_line+0x1a8>
 8002a36:	682a      	ldr	r2, [r5, #0]
 8002a38:	9609      	str	r6, [sp, #36]	; 0x24
 8002a3a:	9408      	str	r4, [sp, #32]
 8002a3c:	6f13      	ldr	r3, [r2, #112]	; 0x70
 8002a3e:	4628      	mov	r0, r5
 8002a40:	465a      	mov	r2, fp
 8002a42:	4649      	mov	r1, r9
 8002a44:	4798      	blx	r3
 8002a46:	4638      	mov	r0, r7
 8002a48:	9901      	ldr	r1, [sp, #4]
 8002a4a:	f005 fe3b 	bl	80086c4 <__aeabi_fsub>
 8002a4e:	2100      	movs	r1, #0
 8002a50:	4607      	mov	r7, r0
 8002a52:	f006 f8df 	bl	8008c14 <__aeabi_fcmplt>
 8002a56:	4456      	add	r6, sl
 8002a58:	4632      	mov	r2, r6
 8002a5a:	2800      	cmp	r0, #0
 8002a5c:	d0e7      	beq.n	8002a2e <soft_drawing_bitmap__draw_line+0x15e>
 8002a5e:	4638      	mov	r0, r7
 8002a60:	9902      	ldr	r1, [sp, #8]
 8002a62:	9603      	str	r6, [sp, #12]
 8002a64:	f005 fe30 	bl	80086c8 <__addsf3>
 8002a68:	f8d8 1004 	ldr.w	r1, [r8, #4]
 8002a6c:	9b04      	ldr	r3, [sp, #16]
 8002a6e:	42b1      	cmp	r1, r6
 8002a70:	4607      	mov	r7, r0
 8002a72:	441c      	add	r4, r3
 8002a74:	9a03      	ldr	r2, [sp, #12]
 8002a76:	d1de      	bne.n	8002a36 <soft_drawing_bitmap__draw_line+0x166>
 8002a78:	46a9      	mov	r9, r5
 8002a7a:	4615      	mov	r5, r2
 8002a7c:	9e07      	ldr	r6, [sp, #28]
 8002a7e:	9408      	str	r4, [sp, #32]
 8002a80:	2e01      	cmp	r6, #1
 8002a82:	9509      	str	r5, [sp, #36]	; 0x24
 8002a84:	d19f      	bne.n	80029c6 <soft_drawing_bitmap__draw_line+0xf6>
 8002a86:	f8d9 3000 	ldr.w	r3, [r9]
 8002a8a:	4648      	mov	r0, r9
 8002a8c:	6a9b      	ldr	r3, [r3, #40]	; 0x28
 8002a8e:	a90a      	add	r1, sp, #40	; 0x28
 8002a90:	940a      	str	r4, [sp, #40]	; 0x28
 8002a92:	950b      	str	r5, [sp, #44]	; 0x2c
 8002a94:	4798      	blx	r3
 8002a96:	b00f      	add	sp, #60	; 0x3c
 8002a98:	e8bd 8ff0 	ldmia.w	sp!, {r4, r5, r6, r7, r8, r9, sl, fp, pc}
 8002a9c:	f8d9 3000 	ldr.w	r3, [r9]
 8002aa0:	eb06 72d6 	add.w	r2, r6, r6, lsr #31
 8002aa4:	1052      	asrs	r2, r2, #1
 8002aa6:	6f1b      	ldr	r3, [r3, #112]	; 0x70
 8002aa8:	4648      	mov	r0, r9
 8002aaa:	a908      	add	r1, sp, #32
 8002aac:	4798      	blx	r3
 8002aae:	b00f      	add	sp, #60	; 0x3c
 8002ab0:	e8bd 8ff0 	ldmia.w	sp!, {r4, r5, r6, r7, r8, r9, sl, fp, pc}
 8002ab4:	ab0a      	add	r3, sp, #40	; 0x28
 8002ab6:	9303      	str	r3, [sp, #12]
 8002ab8:	4643      	mov	r3, r8
 8002aba:	f8dd b010 	ldr.w	fp, [sp, #16]
 8002abe:	46a8      	mov	r8, r5
 8002ac0:	461d      	mov	r5, r3
 8002ac2:	e002      	b.n	8002aca <soft_drawing_bitmap__draw_line+0x1fa>
 8002ac4:	6829      	ldr	r1, [r5, #0]
 8002ac6:	42a1      	cmp	r1, r4
 8002ac8:	d029      	beq.n	8002b1e <soft_drawing_bitmap__draw_line+0x24e>
 8002aca:	f8d9 0000 	ldr.w	r0, [r9]
 8002ace:	eb04 020a 	add.w	r2, r4, sl
 8002ad2:	9408      	str	r4, [sp, #32]
 8002ad4:	f8cd 8024 	str.w	r8, [sp, #36]	; 0x24
 8002ad8:	eb0a 0108 	add.w	r1, sl, r8
 8002adc:	6c83      	ldr	r3, [r0, #72]	; 0x48
 8002ade:	920a      	str	r2, [sp, #40]	; 0x28
 8002ae0:	910b      	str	r1, [sp, #44]	; 0x2c
 8002ae2:	4648      	mov	r0, r9
 8002ae4:	9903      	ldr	r1, [sp, #12]
 8002ae6:	960c      	str	r6, [sp, #48]	; 0x30
 8002ae8:	960d      	str	r6, [sp, #52]	; 0x34
 8002aea:	4798      	blx	r3
 8002aec:	4638      	mov	r0, r7
 8002aee:	9902      	ldr	r1, [sp, #8]
 8002af0:	f005 fde8 	bl	80086c4 <__aeabi_fsub>
 8002af4:	2100      	movs	r1, #0
 8002af6:	4607      	mov	r7, r0
 8002af8:	f006 f88c 	bl	8008c14 <__aeabi_fcmplt>
 8002afc:	445c      	add	r4, fp
 8002afe:	46a4      	mov	ip, r4
 8002b00:	2800      	cmp	r0, #0
 8002b02:	d0df      	beq.n	8002ac4 <soft_drawing_bitmap__draw_line+0x1f4>
 8002b04:	4638      	mov	r0, r7
 8002b06:	9901      	ldr	r1, [sp, #4]
 8002b08:	9404      	str	r4, [sp, #16]
 8002b0a:	f005 fddd 	bl	80086c8 <__addsf3>
 8002b0e:	6829      	ldr	r1, [r5, #0]
 8002b10:	9b05      	ldr	r3, [sp, #20]
 8002b12:	42a1      	cmp	r1, r4
 8002b14:	4607      	mov	r7, r0
 8002b16:	4498      	add	r8, r3
 8002b18:	f8dd c010 	ldr.w	ip, [sp, #16]
 8002b1c:	d1d5      	bne.n	8002aca <soft_drawing_bitmap__draw_line+0x1fa>
 8002b1e:	4664      	mov	r4, ip
 8002b20:	4645      	mov	r5, r8
 8002b22:	e74c      	b.n	80029be <soft_drawing_bitmap__draw_line+0xee>
 8002b24:	ab0a      	add	r3, sp, #40	; 0x28
 8002b26:	9303      	str	r3, [sp, #12]
 8002b28:	4643      	mov	r3, r8
 8002b2a:	f8dd b014 	ldr.w	fp, [sp, #20]
 8002b2e:	46a0      	mov	r8, r4
 8002b30:	461c      	mov	r4, r3
 8002b32:	e002      	b.n	8002b3a <soft_drawing_bitmap__draw_line+0x26a>
 8002b34:	6861      	ldr	r1, [r4, #4]
 8002b36:	42a9      	cmp	r1, r5
 8002b38:	d029      	beq.n	8002b8e <soft_drawing_bitmap__draw_line+0x2be>
 8002b3a:	f8d9 3000 	ldr.w	r3, [r9]
 8002b3e:	9509      	str	r5, [sp, #36]	; 0x24
 8002b40:	eb0a 0005 	add.w	r0, sl, r5
 8002b44:	f8cd 8020 	str.w	r8, [sp, #32]
 8002b48:	eb08 010a 	add.w	r1, r8, sl
 8002b4c:	6c9b      	ldr	r3, [r3, #72]	; 0x48
 8002b4e:	910a      	str	r1, [sp, #40]	; 0x28
 8002b50:	900b      	str	r0, [sp, #44]	; 0x2c
 8002b52:	9903      	ldr	r1, [sp, #12]
 8002b54:	4648      	mov	r0, r9
 8002b56:	960c      	str	r6, [sp, #48]	; 0x30
 8002b58:	960d      	str	r6, [sp, #52]	; 0x34
 8002b5a:	4798      	blx	r3
 8002b5c:	4638      	mov	r0, r7
 8002b5e:	9901      	ldr	r1, [sp, #4]
 8002b60:	f005 fdb0 	bl	80086c4 <__aeabi_fsub>
 8002b64:	2100      	movs	r1, #0
 8002b66:	4607      	mov	r7, r0
 8002b68:	f006 f854 	bl	8008c14 <__aeabi_fcmplt>
 8002b6c:	445d      	add	r5, fp
 8002b6e:	46ac      	mov	ip, r5
 8002b70:	2800      	cmp	r0, #0
 8002b72:	d0df      	beq.n	8002b34 <soft_drawing_bitmap__draw_line+0x264>
 8002b74:	4638      	mov	r0, r7
 8002b76:	9902      	ldr	r1, [sp, #8]
 8002b78:	9505      	str	r5, [sp, #20]
 8002b7a:	f005 fda5 	bl	80086c8 <__addsf3>
 8002b7e:	6861      	ldr	r1, [r4, #4]
 8002b80:	9b04      	ldr	r3, [sp, #16]
 8002b82:	42a9      	cmp	r1, r5
 8002b84:	4607      	mov	r7, r0
 8002b86:	4498      	add	r8, r3
 8002b88:	f8dd c014 	ldr.w	ip, [sp, #20]
 8002b8c:	d1d5      	bne.n	8002b3a <soft_drawing_bitmap__draw_line+0x26a>
 8002b8e:	4644      	mov	r4, r8
 8002b90:	4665      	mov	r5, ip
 8002b92:	e714      	b.n	80029be <soft_drawing_bitmap__draw_line+0xee>
 8002b94:	ab0a      	add	r3, sp, #40	; 0x28
 8002b96:	9603      	str	r6, [sp, #12]
 8002b98:	f8dd b008 	ldr.w	fp, [sp, #8]
 8002b9c:	462e      	mov	r6, r5
 8002b9e:	f8dd a010 	ldr.w	sl, [sp, #16]
 8002ba2:	461d      	mov	r5, r3
 8002ba4:	e003      	b.n	8002bae <soft_drawing_bitmap__draw_line+0x2de>
 8002ba6:	f8d8 1000 	ldr.w	r1, [r8]
 8002baa:	42a1      	cmp	r1, r4
 8002bac:	d04e      	beq.n	8002c4c <soft_drawing_bitmap__draw_line+0x37c>
 8002bae:	f8d9 1000 	ldr.w	r1, [r9]
 8002bb2:	9408      	str	r4, [sp, #32]
 8002bb4:	9609      	str	r6, [sp, #36]	; 0x24
 8002bb6:	6a8b      	ldr	r3, [r1, #40]	; 0x28
 8002bb8:	4648      	mov	r0, r9
 8002bba:	940a      	str	r4, [sp, #40]	; 0x28
 8002bbc:	4629      	mov	r1, r5
 8002bbe:	960b      	str	r6, [sp, #44]	; 0x2c
 8002bc0:	4798      	blx	r3
 8002bc2:	4638      	mov	r0, r7
 8002bc4:	4659      	mov	r1, fp
 8002bc6:	f005 fd7d 	bl	80086c4 <__aeabi_fsub>
 8002bca:	2100      	movs	r1, #0
 8002bcc:	4607      	mov	r7, r0
 8002bce:	f006 f821 	bl	8008c14 <__aeabi_fcmplt>
 8002bd2:	4454      	add	r4, sl
 8002bd4:	46a4      	mov	ip, r4
 8002bd6:	2800      	cmp	r0, #0
 8002bd8:	d0e5      	beq.n	8002ba6 <soft_drawing_bitmap__draw_line+0x2d6>
 8002bda:	4638      	mov	r0, r7
 8002bdc:	9901      	ldr	r1, [sp, #4]
 8002bde:	9402      	str	r4, [sp, #8]
 8002be0:	f005 fd72 	bl	80086c8 <__addsf3>
 8002be4:	9b05      	ldr	r3, [sp, #20]
 8002be6:	4607      	mov	r7, r0
 8002be8:	441e      	add	r6, r3
 8002bea:	f8dd c008 	ldr.w	ip, [sp, #8]
 8002bee:	e7da      	b.n	8002ba6 <soft_drawing_bitmap__draw_line+0x2d6>
 8002bf0:	ab0a      	add	r3, sp, #40	; 0x28
 8002bf2:	9603      	str	r6, [sp, #12]
 8002bf4:	f8dd b004 	ldr.w	fp, [sp, #4]
 8002bf8:	4626      	mov	r6, r4
 8002bfa:	f8dd a014 	ldr.w	sl, [sp, #20]
 8002bfe:	461c      	mov	r4, r3
 8002c00:	e003      	b.n	8002c0a <soft_drawing_bitmap__draw_line+0x33a>
 8002c02:	f8d8 1004 	ldr.w	r1, [r8, #4]
 8002c06:	42a9      	cmp	r1, r5
 8002c08:	d024      	beq.n	8002c54 <soft_drawing_bitmap__draw_line+0x384>
 8002c0a:	f8d9 1000 	ldr.w	r1, [r9]
 8002c0e:	9509      	str	r5, [sp, #36]	; 0x24
 8002c10:	9608      	str	r6, [sp, #32]
 8002c12:	6a8b      	ldr	r3, [r1, #40]	; 0x28
 8002c14:	4648      	mov	r0, r9
 8002c16:	950b      	str	r5, [sp, #44]	; 0x2c
 8002c18:	4621      	mov	r1, r4
 8002c1a:	960a      	str	r6, [sp, #40]	; 0x28
 8002c1c:	4798      	blx	r3
 8002c1e:	4638      	mov	r0, r7
 8002c20:	4659      	mov	r1, fp
 8002c22:	f005 fd4f 	bl	80086c4 <__aeabi_fsub>
 8002c26:	2100      	movs	r1, #0
 8002c28:	4607      	mov	r7, r0
 8002c2a:	f005 fff3 	bl	8008c14 <__aeabi_fcmplt>
 8002c2e:	4455      	add	r5, sl
 8002c30:	46ac      	mov	ip, r5
 8002c32:	2800      	cmp	r0, #0
 8002c34:	d0e5      	beq.n	8002c02 <soft_drawing_bitmap__draw_line+0x332>
 8002c36:	4638      	mov	r0, r7
 8002c38:	9902      	ldr	r1, [sp, #8]
 8002c3a:	9501      	str	r5, [sp, #4]
 8002c3c:	f005 fd44 	bl	80086c8 <__addsf3>
 8002c40:	9b04      	ldr	r3, [sp, #16]
 8002c42:	4607      	mov	r7, r0
 8002c44:	441e      	add	r6, r3
 8002c46:	f8dd c004 	ldr.w	ip, [sp, #4]
 8002c4a:	e7da      	b.n	8002c02 <soft_drawing_bitmap__draw_line+0x332>
 8002c4c:	4635      	mov	r5, r6
 8002c4e:	4664      	mov	r4, ip
 8002c50:	9e03      	ldr	r6, [sp, #12]
 8002c52:	e6b4      	b.n	80029be <soft_drawing_bitmap__draw_line+0xee>
 8002c54:	4634      	mov	r4, r6
 8002c56:	4665      	mov	r5, ip
 8002c58:	9e03      	ldr	r6, [sp, #12]
 8002c5a:	e6b0      	b.n	80029be <soft_drawing_bitmap__draw_line+0xee>

08002c5c <soft_drawing_bitmap__draw_rounded_rect>:
 8002c5c:	e92d 4ff0 	stmdb	sp!, {r4, r5, r6, r7, r8, r9, sl, fp, lr}
 8002c60:	f8d1 c008 	ldr.w	ip, [r1, #8]
 8002c64:	b08b      	sub	sp, #44	; 0x2c
 8002c66:	4688      	mov	r8, r1
 8002c68:	461d      	mov	r5, r3
 8002c6a:	f8d1 a004 	ldr.w	sl, [r1, #4]
 8002c6e:	f8d1 b00c 	ldr.w	fp, [r1, #12]
 8002c72:	f8d1 9000 	ldr.w	r9, [r1]
 8002c76:	2a00      	cmp	r2, #0
 8002c78:	f000 816f 	beq.w	8002f5a <soft_drawing_bitmap__draw_rounded_rect+0x2fe>
 8002c7c:	eb03 77d3 	add.w	r7, r3, r3, lsr #31
 8002c80:	0053      	lsls	r3, r2, #1
 8002c82:	425b      	negs	r3, r3
 8002c84:	4616      	mov	r6, r2
 8002c86:	461a      	mov	r2, r3
 8002c88:	4604      	mov	r4, r0
 8002c8a:	107f      	asrs	r7, r7, #1
 8002c8c:	4279      	negs	r1, r7
 8002c8e:	4617      	mov	r7, r2
 8002c90:	9104      	str	r1, [sp, #16]
 8002c92:	eb02 010b 	add.w	r1, r2, fp
 8002c96:	9a04      	ldr	r2, [sp, #16]
 8002c98:	6803      	ldr	r3, [r0, #0]
 8002c9a:	eb09 0e02 	add.w	lr, r9, r2
 8002c9e:	eb06 020a 	add.w	r2, r6, sl
 8002ca2:	6c9b      	ldr	r3, [r3, #72]	; 0x48
 8002ca4:	f8cd c004 	str.w	ip, [sp, #4]
 8002ca8:	f8cd e018 	str.w	lr, [sp, #24]
 8002cac:	9200      	str	r2, [sp, #0]
 8002cae:	9109      	str	r1, [sp, #36]	; 0x24
 8002cb0:	9207      	str	r2, [sp, #28]
 8002cb2:	a906      	add	r1, sp, #24
 8002cb4:	9508      	str	r5, [sp, #32]
 8002cb6:	4798      	blx	r3
 8002cb8:	f8d8 2000 	ldr.w	r2, [r8]
 8002cbc:	f8d8 3008 	ldr.w	r3, [r8, #8]
 8002cc0:	f8d8 000c 	ldr.w	r0, [r8, #12]
 8002cc4:	4413      	add	r3, r2
 8002cc6:	9a04      	ldr	r2, [sp, #16]
 8002cc8:	f8d8 1004 	ldr.w	r1, [r8, #4]
 8002ccc:	4413      	add	r3, r2
 8002cce:	6822      	ldr	r2, [r4, #0]
 8002cd0:	3b01      	subs	r3, #1
 8002cd2:	4438      	add	r0, r7
 8002cd4:	4431      	add	r1, r6
 8002cd6:	6c92      	ldr	r2, [r2, #72]	; 0x48
 8002cd8:	9705      	str	r7, [sp, #20]
 8002cda:	9306      	str	r3, [sp, #24]
 8002cdc:	9009      	str	r0, [sp, #36]	; 0x24
 8002cde:	9107      	str	r1, [sp, #28]
 8002ce0:	4620      	mov	r0, r4
 8002ce2:	a906      	add	r1, sp, #24
 8002ce4:	9508      	str	r5, [sp, #32]
 8002ce6:	4790      	blx	r2
 8002ce8:	f8d8 3000 	ldr.w	r3, [r8]
 8002cec:	9904      	ldr	r1, [sp, #16]
 8002cee:	f8d8 0004 	ldr.w	r0, [r8, #4]
 8002cf2:	9f05      	ldr	r7, [sp, #20]
 8002cf4:	f8d8 2008 	ldr.w	r2, [r8, #8]
 8002cf8:	4408      	add	r0, r1
 8002cfa:	18f1      	adds	r1, r6, r3
 8002cfc:	6823      	ldr	r3, [r4, #0]
 8002cfe:	443a      	add	r2, r7
 8002d00:	6c9b      	ldr	r3, [r3, #72]	; 0x48
 8002d02:	9007      	str	r0, [sp, #28]
 8002d04:	9208      	str	r2, [sp, #32]
 8002d06:	9106      	str	r1, [sp, #24]
 8002d08:	4620      	mov	r0, r4
 8002d0a:	a906      	add	r1, sp, #24
 8002d0c:	9509      	str	r5, [sp, #36]	; 0x24
 8002d0e:	4798      	blx	r3
 8002d10:	f8d8 2004 	ldr.w	r2, [r8, #4]
 8002d14:	f8d8 300c 	ldr.w	r3, [r8, #12]
 8002d18:	f8d8 0008 	ldr.w	r0, [r8, #8]
 8002d1c:	4413      	add	r3, r2
 8002d1e:	9a04      	ldr	r2, [sp, #16]
 8002d20:	f8d8 1000 	ldr.w	r1, [r8]
 8002d24:	4413      	add	r3, r2
 8002d26:	6822      	ldr	r2, [r4, #0]
 8002d28:	3b01      	subs	r3, #1
 8002d2a:	4438      	add	r0, r7
 8002d2c:	4431      	add	r1, r6
 8002d2e:	6c92      	ldr	r2, [r2, #72]	; 0x48
 8002d30:	9705      	str	r7, [sp, #20]
 8002d32:	9008      	str	r0, [sp, #32]
 8002d34:	9106      	str	r1, [sp, #24]
 8002d36:	9307      	str	r3, [sp, #28]
 8002d38:	9509      	str	r5, [sp, #36]	; 0x24
 8002d3a:	a906      	add	r1, sp, #24
 8002d3c:	4620      	mov	r0, r4
 8002d3e:	4790      	blx	r2
 8002d40:	2e00      	cmp	r6, #0
 8002d42:	f340 8107 	ble.w	8002f54 <soft_drawing_bitmap__draw_rounded_rect+0x2f8>
 8002d46:	f8dd c004 	ldr.w	ip, [sp, #4]
 8002d4a:	44da      	add	sl, fp
 8002d4c:	44cc      	add	ip, r9
 8002d4e:	f10c 3cff 	add.w	ip, ip, #4294967295
 8002d52:	ebc6 030c 	rsb	r3, r6, ip
 8002d56:	f10a 3aff 	add.w	sl, sl, #4294967295
 8002d5a:	9303      	str	r3, [sp, #12]
 8002d5c:	ebc6 030a 	rsb	r3, r6, sl
 8002d60:	9301      	str	r3, [sp, #4]
 8002d62:	eb06 0309 	add.w	r3, r6, r9
 8002d66:	9302      	str	r3, [sp, #8]
 8002d68:	f1c6 0901 	rsb	r9, r6, #1
 8002d6c:	f04f 0800 	mov.w	r8, #0
 8002d70:	f8dd c014 	ldr.w	ip, [sp, #20]
 8002d74:	9f04      	ldr	r7, [sp, #16]
 8002d76:	e079      	b.n	8002e6c <soft_drawing_bitmap__draw_rounded_rect+0x210>
 8002d78:	9903      	ldr	r1, [sp, #12]
 8002d7a:	6822      	ldr	r2, [r4, #0]
 8002d7c:	eb01 0a08 	add.w	sl, r1, r8
 8002d80:	44bb      	add	fp, r7
 8002d82:	44ba      	add	sl, r7
 8002d84:	f8cd c014 	str.w	ip, [sp, #20]
 8002d88:	6c92      	ldr	r2, [r2, #72]	; 0x48
 8002d8a:	4620      	mov	r0, r4
 8002d8c:	f8cd b01c 	str.w	fp, [sp, #28]
 8002d90:	f8cd a018 	str.w	sl, [sp, #24]
 8002d94:	a906      	add	r1, sp, #24
 8002d96:	9508      	str	r5, [sp, #32]
 8002d98:	9509      	str	r5, [sp, #36]	; 0x24
 8002d9a:	4790      	blx	r2
 8002d9c:	9a02      	ldr	r2, [sp, #8]
 8002d9e:	6821      	ldr	r1, [r4, #0]
 8002da0:	ebc8 0202 	rsb	r2, r8, r2
 8002da4:	443a      	add	r2, r7
 8002da6:	6c8b      	ldr	r3, [r1, #72]	; 0x48
 8002da8:	9204      	str	r2, [sp, #16]
 8002daa:	9206      	str	r2, [sp, #24]
 8002dac:	4620      	mov	r0, r4
 8002dae:	f8cd b01c 	str.w	fp, [sp, #28]
 8002db2:	a906      	add	r1, sp, #24
 8002db4:	9508      	str	r5, [sp, #32]
 8002db6:	9509      	str	r5, [sp, #36]	; 0x24
 8002db8:	4798      	blx	r3
 8002dba:	9800      	ldr	r0, [sp, #0]
 8002dbc:	6821      	ldr	r1, [r4, #0]
 8002dbe:	ebc6 0b00 	rsb	fp, r6, r0
 8002dc2:	44bb      	add	fp, r7
 8002dc4:	6c8b      	ldr	r3, [r1, #72]	; 0x48
 8002dc6:	4620      	mov	r0, r4
 8002dc8:	f8cd a018 	str.w	sl, [sp, #24]
 8002dcc:	f8cd b01c 	str.w	fp, [sp, #28]
 8002dd0:	a906      	add	r1, sp, #24
 8002dd2:	9508      	str	r5, [sp, #32]
 8002dd4:	9509      	str	r5, [sp, #36]	; 0x24
 8002dd6:	4798      	blx	r3
 8002dd8:	6821      	ldr	r1, [r4, #0]
 8002dda:	9a04      	ldr	r2, [sp, #16]
 8002ddc:	6c8b      	ldr	r3, [r1, #72]	; 0x48
 8002dde:	4620      	mov	r0, r4
 8002de0:	a906      	add	r1, sp, #24
 8002de2:	9206      	str	r2, [sp, #24]
 8002de4:	f8cd b01c 	str.w	fp, [sp, #28]
 8002de8:	9508      	str	r5, [sp, #32]
 8002dea:	9509      	str	r5, [sp, #36]	; 0x24
 8002dec:	4798      	blx	r3
 8002dee:	9903      	ldr	r1, [sp, #12]
 8002df0:	9b01      	ldr	r3, [sp, #4]
 8002df2:	6822      	ldr	r2, [r4, #0]
 8002df4:	eb03 0b08 	add.w	fp, r3, r8
 8002df8:	eb06 0a01 	add.w	sl, r6, r1
 8002dfc:	44bb      	add	fp, r7
 8002dfe:	44ba      	add	sl, r7
 8002e00:	6c92      	ldr	r2, [r2, #72]	; 0x48
 8002e02:	4620      	mov	r0, r4
 8002e04:	f8cd b01c 	str.w	fp, [sp, #28]
 8002e08:	a906      	add	r1, sp, #24
 8002e0a:	9508      	str	r5, [sp, #32]
 8002e0c:	9509      	str	r5, [sp, #36]	; 0x24
 8002e0e:	f8cd a018 	str.w	sl, [sp, #24]
 8002e12:	4790      	blx	r2
 8002e14:	9a02      	ldr	r2, [sp, #8]
 8002e16:	6821      	ldr	r1, [r4, #0]
 8002e18:	1b92      	subs	r2, r2, r6
 8002e1a:	443a      	add	r2, r7
 8002e1c:	6c8b      	ldr	r3, [r1, #72]	; 0x48
 8002e1e:	9204      	str	r2, [sp, #16]
 8002e20:	9206      	str	r2, [sp, #24]
 8002e22:	4620      	mov	r0, r4
 8002e24:	f8cd b01c 	str.w	fp, [sp, #28]
 8002e28:	a906      	add	r1, sp, #24
 8002e2a:	9508      	str	r5, [sp, #32]
 8002e2c:	9509      	str	r5, [sp, #36]	; 0x24
 8002e2e:	4798      	blx	r3
 8002e30:	9800      	ldr	r0, [sp, #0]
 8002e32:	6821      	ldr	r1, [r4, #0]
 8002e34:	ebc8 0b00 	rsb	fp, r8, r0
 8002e38:	44bb      	add	fp, r7
 8002e3a:	6c8b      	ldr	r3, [r1, #72]	; 0x48
 8002e3c:	4620      	mov	r0, r4
 8002e3e:	a906      	add	r1, sp, #24
 8002e40:	f8cd a018 	str.w	sl, [sp, #24]
 8002e44:	9508      	str	r5, [sp, #32]
 8002e46:	9509      	str	r5, [sp, #36]	; 0x24
 8002e48:	f8cd b01c 	str.w	fp, [sp, #28]
 8002e4c:	4798      	blx	r3
 8002e4e:	6821      	ldr	r1, [r4, #0]
 8002e50:	9a04      	ldr	r2, [sp, #16]
 8002e52:	6c8b      	ldr	r3, [r1, #72]	; 0x48
 8002e54:	4620      	mov	r0, r4
 8002e56:	a906      	add	r1, sp, #24
 8002e58:	9206      	str	r2, [sp, #24]
 8002e5a:	f8cd b01c 	str.w	fp, [sp, #28]
 8002e5e:	9508      	str	r5, [sp, #32]
 8002e60:	9509      	str	r5, [sp, #36]	; 0x24
 8002e62:	4798      	blx	r3
 8002e64:	4546      	cmp	r6, r8
 8002e66:	f8dd c014 	ldr.w	ip, [sp, #20]
 8002e6a:	dd73      	ble.n	8002f54 <soft_drawing_bitmap__draw_rounded_rect+0x2f8>
 8002e6c:	f1b9 0f00 	cmp.w	r9, #0
 8002e70:	db03      	blt.n	8002e7a <soft_drawing_bitmap__draw_rounded_rect+0x21e>
 8002e72:	f10c 0c02 	add.w	ip, ip, #2
 8002e76:	44e1      	add	r9, ip
 8002e78:	3e01      	subs	r6, #1
 8002e7a:	f108 0801 	add.w	r8, r8, #1
 8002e7e:	9b01      	ldr	r3, [sp, #4]
 8002e80:	eb09 0948 	add.w	r9, r9, r8, lsl #1
 8002e84:	2d01      	cmp	r5, #1
 8002e86:	f109 0901 	add.w	r9, r9, #1
 8002e8a:	eb06 0b03 	add.w	fp, r6, r3
 8002e8e:	f47f af73 	bne.w	8002d78 <soft_drawing_bitmap__draw_rounded_rect+0x11c>
 8002e92:	9b03      	ldr	r3, [sp, #12]
 8002e94:	6822      	ldr	r2, [r4, #0]
 8002e96:	eb03 0a08 	add.w	sl, r3, r8
 8002e9a:	f8cd c010 	str.w	ip, [sp, #16]
 8002e9e:	6a92      	ldr	r2, [r2, #40]	; 0x28
 8002ea0:	4620      	mov	r0, r4
 8002ea2:	f8cd b01c 	str.w	fp, [sp, #28]
 8002ea6:	f8cd a018 	str.w	sl, [sp, #24]
 8002eaa:	a906      	add	r1, sp, #24
 8002eac:	4790      	blx	r2
 8002eae:	9902      	ldr	r1, [sp, #8]
 8002eb0:	6822      	ldr	r2, [r4, #0]
 8002eb2:	ebc8 0101 	rsb	r1, r8, r1
 8002eb6:	6a92      	ldr	r2, [r2, #40]	; 0x28
 8002eb8:	4620      	mov	r0, r4
 8002eba:	f8cd b01c 	str.w	fp, [sp, #28]
 8002ebe:	9106      	str	r1, [sp, #24]
 8002ec0:	468b      	mov	fp, r1
 8002ec2:	a906      	add	r1, sp, #24
 8002ec4:	4790      	blx	r2
 8002ec6:	9800      	ldr	r0, [sp, #0]
 8002ec8:	6822      	ldr	r2, [r4, #0]
 8002eca:	1b81      	subs	r1, r0, r6
 8002ecc:	6a92      	ldr	r2, [r2, #40]	; 0x28
 8002ece:	f8cd a018 	str.w	sl, [sp, #24]
 8002ed2:	468a      	mov	sl, r1
 8002ed4:	4620      	mov	r0, r4
 8002ed6:	9107      	str	r1, [sp, #28]
 8002ed8:	a906      	add	r1, sp, #24
 8002eda:	4790      	blx	r2
 8002edc:	6822      	ldr	r2, [r4, #0]
 8002ede:	4620      	mov	r0, r4
 8002ee0:	6a92      	ldr	r2, [r2, #40]	; 0x28
 8002ee2:	a906      	add	r1, sp, #24
 8002ee4:	f8cd b018 	str.w	fp, [sp, #24]
 8002ee8:	f8cd a01c 	str.w	sl, [sp, #28]
 8002eec:	4790      	blx	r2
 8002eee:	9b03      	ldr	r3, [sp, #12]
 8002ef0:	6822      	ldr	r2, [r4, #0]
 8002ef2:	eb06 0a03 	add.w	sl, r6, r3
 8002ef6:	9b01      	ldr	r3, [sp, #4]
 8002ef8:	6a92      	ldr	r2, [r2, #40]	; 0x28
 8002efa:	eb03 0b08 	add.w	fp, r3, r8
 8002efe:	4620      	mov	r0, r4
 8002f00:	f8cd a018 	str.w	sl, [sp, #24]
 8002f04:	f8cd b01c 	str.w	fp, [sp, #28]
 8002f08:	a906      	add	r1, sp, #24
 8002f0a:	4790      	blx	r2
 8002f0c:	9902      	ldr	r1, [sp, #8]
 8002f0e:	6822      	ldr	r2, [r4, #0]
 8002f10:	1b89      	subs	r1, r1, r6
 8002f12:	6a92      	ldr	r2, [r2, #40]	; 0x28
 8002f14:	4620      	mov	r0, r4
 8002f16:	f8cd b01c 	str.w	fp, [sp, #28]
 8002f1a:	9106      	str	r1, [sp, #24]
 8002f1c:	468b      	mov	fp, r1
 8002f1e:	a906      	add	r1, sp, #24
 8002f20:	4790      	blx	r2
 8002f22:	9800      	ldr	r0, [sp, #0]
 8002f24:	6822      	ldr	r2, [r4, #0]
 8002f26:	ebc8 0100 	rsb	r1, r8, r0
 8002f2a:	6a92      	ldr	r2, [r2, #40]	; 0x28
 8002f2c:	f8cd a018 	str.w	sl, [sp, #24]
 8002f30:	468a      	mov	sl, r1
 8002f32:	4620      	mov	r0, r4
 8002f34:	9107      	str	r1, [sp, #28]
 8002f36:	a906      	add	r1, sp, #24
 8002f38:	4790      	blx	r2
 8002f3a:	6822      	ldr	r2, [r4, #0]
 8002f3c:	4620      	mov	r0, r4
 8002f3e:	6a92      	ldr	r2, [r2, #40]	; 0x28
 8002f40:	a906      	add	r1, sp, #24
 8002f42:	f8cd b018 	str.w	fp, [sp, #24]
 8002f46:	f8cd a01c 	str.w	sl, [sp, #28]
 8002f4a:	4790      	blx	r2
 8002f4c:	4546      	cmp	r6, r8
 8002f4e:	f8dd c010 	ldr.w	ip, [sp, #16]
 8002f52:	dc8b      	bgt.n	8002e6c <soft_drawing_bitmap__draw_rounded_rect+0x210>
 8002f54:	b00b      	add	sp, #44	; 0x2c
 8002f56:	e8bd 8ff0 	ldmia.w	sp!, {r4, r5, r6, r7, r8, r9, sl, fp, pc}
 8002f5a:	461a      	mov	r2, r3
 8002f5c:	f7ff f96a 	bl	8002234 <soft_drawing_bitmap__draw_rect>
 8002f60:	b00b      	add	sp, #44	; 0x2c
 8002f62:	e8bd 8ff0 	ldmia.w	sp!, {r4, r5, r6, r7, r8, r9, sl, fp, pc}
 8002f66:	bf00      	nop

08002f68 <soft_drawing_bitmap__fill_circle>:
 8002f68:	e92d 4ff0 	stmdb	sp!, {r4, r5, r6, r7, r8, r9, sl, fp, lr}
 8002f6c:	6803      	ldr	r3, [r0, #0]
 8002f6e:	4606      	mov	r6, r0
 8002f70:	b089      	sub	sp, #36	; 0x24
 8002f72:	681b      	ldr	r3, [r3, #0]
 8002f74:	9001      	str	r0, [sp, #4]
 8002f76:	4614      	mov	r4, r2
 8002f78:	0055      	lsls	r5, r2, #1
 8002f7a:	4689      	mov	r9, r1
 8002f7c:	4798      	blx	r3
 8002f7e:	6833      	ldr	r3, [r6, #0]
 8002f80:	4682      	mov	sl, r0
 8002f82:	685b      	ldr	r3, [r3, #4]
 8002f84:	4630      	mov	r0, r6
 8002f86:	4798      	blx	r3
 8002f88:	e899 000c 	ldmia.w	r9, {r2, r3}
 8002f8c:	4684      	mov	ip, r0
 8002f8e:	f1c5 0b00 	rsb	fp, r5, #0
 8002f92:	4626      	mov	r6, r4
 8002f94:	f1c4 0801 	rsb	r8, r4, #1
 8002f98:	2d00      	cmp	r5, #0
 8002f9a:	d042      	beq.n	8003022 <soft_drawing_bitmap__fill_circle+0xba>
 8002f9c:	2a00      	cmp	r2, #0
 8002f9e:	462f      	mov	r7, r5
 8002fa0:	db20      	blt.n	8002fe4 <soft_drawing_bitmap__fill_circle+0x7c>
 8002fa2:	4552      	cmp	r2, sl
 8002fa4:	da1e      	bge.n	8002fe4 <soft_drawing_bitmap__fill_circle+0x7c>
 8002fa6:	1b18      	subs	r0, r3, r4
 8002fa8:	1941      	adds	r1, r0, r5
 8002faa:	d41b      	bmi.n	8002fe4 <soft_drawing_bitmap__fill_circle+0x7c>
 8002fac:	4560      	cmp	r0, ip
 8002fae:	da19      	bge.n	8002fe4 <soft_drawing_bitmap__fill_circle+0x7c>
 8002fb0:	2800      	cmp	r0, #0
 8002fb2:	f2c0 8118 	blt.w	80031e6 <soft_drawing_bitmap__fill_circle+0x27e>
 8002fb6:	4561      	cmp	r1, ip
 8002fb8:	4686      	mov	lr, r0
 8002fba:	f280 812f 	bge.w	800321c <soft_drawing_bitmap__fill_circle+0x2b4>
 8002fbe:	4629      	mov	r1, r5
 8002fc0:	9b01      	ldr	r3, [sp, #4]
 8002fc2:	2001      	movs	r0, #1
 8002fc4:	681b      	ldr	r3, [r3, #0]
 8002fc6:	f8cd c008 	str.w	ip, [sp, #8]
 8002fca:	6c9b      	ldr	r3, [r3, #72]	; 0x48
 8002fcc:	9204      	str	r2, [sp, #16]
 8002fce:	9107      	str	r1, [sp, #28]
 8002fd0:	9006      	str	r0, [sp, #24]
 8002fd2:	f8cd e014 	str.w	lr, [sp, #20]
 8002fd6:	9801      	ldr	r0, [sp, #4]
 8002fd8:	a904      	add	r1, sp, #16
 8002fda:	4798      	blx	r3
 8002fdc:	e899 000c 	ldmia.w	r9, {r2, r3}
 8002fe0:	f8dd c008 	ldr.w	ip, [sp, #8]
 8002fe4:	2b00      	cmp	r3, #0
 8002fe6:	db1c      	blt.n	8003022 <soft_drawing_bitmap__fill_circle+0xba>
 8002fe8:	459c      	cmp	ip, r3
 8002fea:	dd1a      	ble.n	8003022 <soft_drawing_bitmap__fill_circle+0xba>
 8002fec:	1b12      	subs	r2, r2, r4
 8002fee:	18ad      	adds	r5, r5, r2
 8002ff0:	d417      	bmi.n	8003022 <soft_drawing_bitmap__fill_circle+0xba>
 8002ff2:	4552      	cmp	r2, sl
 8002ff4:	da15      	bge.n	8003022 <soft_drawing_bitmap__fill_circle+0xba>
 8002ff6:	2a00      	cmp	r2, #0
 8002ff8:	f2c0 80fd 	blt.w	80031f6 <soft_drawing_bitmap__fill_circle+0x28e>
 8002ffc:	4555      	cmp	r5, sl
 8002ffe:	4611      	mov	r1, r2
 8003000:	f280 8103 	bge.w	800320a <soft_drawing_bitmap__fill_circle+0x2a2>
 8003004:	9d01      	ldr	r5, [sp, #4]
 8003006:	2001      	movs	r0, #1
 8003008:	682a      	ldr	r2, [r5, #0]
 800300a:	f8cd c008 	str.w	ip, [sp, #8]
 800300e:	6c92      	ldr	r2, [r2, #72]	; 0x48
 8003010:	9104      	str	r1, [sp, #16]
 8003012:	9007      	str	r0, [sp, #28]
 8003014:	9305      	str	r3, [sp, #20]
 8003016:	9706      	str	r7, [sp, #24]
 8003018:	4628      	mov	r0, r5
 800301a:	a904      	add	r1, sp, #16
 800301c:	4790      	blx	r2
 800301e:	f8dd c008 	ldr.w	ip, [sp, #8]
 8003022:	2c00      	cmp	r4, #0
 8003024:	bfc8      	it	gt
 8003026:	2400      	movgt	r4, #0
 8003028:	dd7b      	ble.n	8003122 <soft_drawing_bitmap__fill_circle+0x1ba>
 800302a:	f1b8 0f00 	cmp.w	r8, #0
 800302e:	db03      	blt.n	8003038 <soft_drawing_bitmap__fill_circle+0xd0>
 8003030:	f10b 0b02 	add.w	fp, fp, #2
 8003034:	44d8      	add	r8, fp
 8003036:	3e01      	subs	r6, #1
 8003038:	3401      	adds	r4, #1
 800303a:	0065      	lsls	r5, r4, #1
 800303c:	e899 000c 	ldmia.w	r9, {r2, r3}
 8003040:	1c69      	adds	r1, r5, #1
 8003042:	199f      	adds	r7, r3, r6
 8003044:	4488      	add	r8, r1
 8003046:	eba2 0104 	sub.w	r1, r2, r4
 800304a:	d415      	bmi.n	8003078 <soft_drawing_bitmap__fill_circle+0x110>
 800304c:	4567      	cmp	r7, ip
 800304e:	da13      	bge.n	8003078 <soft_drawing_bitmap__fill_circle+0x110>
 8003050:	eb11 0e05 	adds.w	lr, r1, r5
 8003054:	d410      	bmi.n	8003078 <soft_drawing_bitmap__fill_circle+0x110>
 8003056:	4551      	cmp	r1, sl
 8003058:	da0e      	bge.n	8003078 <soft_drawing_bitmap__fill_circle+0x110>
 800305a:	2900      	cmp	r1, #0
 800305c:	f2c0 8084 	blt.w	8003168 <soft_drawing_bitmap__fill_circle+0x200>
 8003060:	45d6      	cmp	lr, sl
 8003062:	9102      	str	r1, [sp, #8]
 8003064:	f2c0 80bb 	blt.w	80031de <soft_drawing_bitmap__fill_circle+0x276>
 8003068:	468e      	mov	lr, r1
 800306a:	ebce 0e0a 	rsb	lr, lr, sl
 800306e:	f10e 3eff 	add.w	lr, lr, #4294967295
 8003072:	f1be 0f00 	cmp.w	lr, #0
 8003076:	d17e      	bne.n	8003176 <soft_drawing_bitmap__fill_circle+0x20e>
 8003078:	1b9f      	subs	r7, r3, r6
 800307a:	d41c      	bmi.n	80030b6 <soft_drawing_bitmap__fill_circle+0x14e>
 800307c:	45bc      	cmp	ip, r7
 800307e:	dd1a      	ble.n	80030b6 <soft_drawing_bitmap__fill_circle+0x14e>
 8003080:	1868      	adds	r0, r5, r1
 8003082:	d418      	bmi.n	80030b6 <soft_drawing_bitmap__fill_circle+0x14e>
 8003084:	458a      	cmp	sl, r1
 8003086:	dd16      	ble.n	80030b6 <soft_drawing_bitmap__fill_circle+0x14e>
 8003088:	2900      	cmp	r1, #0
 800308a:	db65      	blt.n	8003158 <soft_drawing_bitmap__fill_circle+0x1f0>
 800308c:	4550      	cmp	r0, sl
 800308e:	468e      	mov	lr, r1
 8003090:	f280 809b 	bge.w	80031ca <soft_drawing_bitmap__fill_circle+0x262>
 8003094:	9801      	ldr	r0, [sp, #4]
 8003096:	2201      	movs	r2, #1
 8003098:	6803      	ldr	r3, [r0, #0]
 800309a:	f8cd c008 	str.w	ip, [sp, #8]
 800309e:	6c9b      	ldr	r3, [r3, #72]	; 0x48
 80030a0:	a904      	add	r1, sp, #16
 80030a2:	9207      	str	r2, [sp, #28]
 80030a4:	f8cd e010 	str.w	lr, [sp, #16]
 80030a8:	9705      	str	r7, [sp, #20]
 80030aa:	9506      	str	r5, [sp, #24]
 80030ac:	4798      	blx	r3
 80030ae:	e899 000c 	ldmia.w	r9, {r2, r3}
 80030b2:	f8dd c008 	ldr.w	ip, [sp, #8]
 80030b6:	0075      	lsls	r5, r6, #1
 80030b8:	462f      	mov	r7, r5
 80030ba:	b385      	cbz	r5, 800311e <soft_drawing_bitmap__fill_circle+0x1b6>
 80030bc:	eb14 0e03 	adds.w	lr, r4, r3
 80030c0:	eba2 0006 	sub.w	r0, r2, r6
 80030c4:	d410      	bmi.n	80030e8 <soft_drawing_bitmap__fill_circle+0x180>
 80030c6:	45e6      	cmp	lr, ip
 80030c8:	da0e      	bge.n	80030e8 <soft_drawing_bitmap__fill_circle+0x180>
 80030ca:	1941      	adds	r1, r0, r5
 80030cc:	d40c      	bmi.n	80030e8 <soft_drawing_bitmap__fill_circle+0x180>
 80030ce:	4550      	cmp	r0, sl
 80030d0:	da0a      	bge.n	80030e8 <soft_drawing_bitmap__fill_circle+0x180>
 80030d2:	2800      	cmp	r0, #0
 80030d4:	db28      	blt.n	8003128 <soft_drawing_bitmap__fill_circle+0x1c0>
 80030d6:	4551      	cmp	r1, sl
 80030d8:	4602      	mov	r2, r0
 80030da:	f2c0 8082 	blt.w	80031e2 <soft_drawing_bitmap__fill_circle+0x27a>
 80030de:	4601      	mov	r1, r0
 80030e0:	ebc1 010a 	rsb	r1, r1, sl
 80030e4:	3901      	subs	r1, #1
 80030e6:	bb21      	cbnz	r1, 8003132 <soft_drawing_bitmap__fill_circle+0x1ca>
 80030e8:	1b1b      	subs	r3, r3, r4
 80030ea:	d418      	bmi.n	800311e <soft_drawing_bitmap__fill_circle+0x1b6>
 80030ec:	459c      	cmp	ip, r3
 80030ee:	dd16      	ble.n	800311e <soft_drawing_bitmap__fill_circle+0x1b6>
 80030f0:	182d      	adds	r5, r5, r0
 80030f2:	d414      	bmi.n	800311e <soft_drawing_bitmap__fill_circle+0x1b6>
 80030f4:	4582      	cmp	sl, r0
 80030f6:	dd12      	ble.n	800311e <soft_drawing_bitmap__fill_circle+0x1b6>
 80030f8:	2800      	cmp	r0, #0
 80030fa:	db50      	blt.n	800319e <soft_drawing_bitmap__fill_circle+0x236>
 80030fc:	4555      	cmp	r5, sl
 80030fe:	4601      	mov	r1, r0
 8003100:	da56      	bge.n	80031b0 <soft_drawing_bitmap__fill_circle+0x248>
 8003102:	9801      	ldr	r0, [sp, #4]
 8003104:	f8cd c008 	str.w	ip, [sp, #8]
 8003108:	6802      	ldr	r2, [r0, #0]
 800310a:	6c92      	ldr	r2, [r2, #72]	; 0x48
 800310c:	9305      	str	r3, [sp, #20]
 800310e:	2301      	movs	r3, #1
 8003110:	9104      	str	r1, [sp, #16]
 8003112:	9706      	str	r7, [sp, #24]
 8003114:	9307      	str	r3, [sp, #28]
 8003116:	a904      	add	r1, sp, #16
 8003118:	4790      	blx	r2
 800311a:	f8dd c008 	ldr.w	ip, [sp, #8]
 800311e:	42a6      	cmp	r6, r4
 8003120:	dc83      	bgt.n	800302a <soft_drawing_bitmap__fill_circle+0xc2>
 8003122:	b009      	add	sp, #36	; 0x24
 8003124:	e8bd 8ff0 	ldmia.w	sp!, {r4, r5, r6, r7, r8, r9, sl, fp, pc}
 8003128:	4551      	cmp	r1, sl
 800312a:	da55      	bge.n	80031d8 <soft_drawing_bitmap__fill_circle+0x270>
 800312c:	2200      	movs	r2, #0
 800312e:	2900      	cmp	r1, #0
 8003130:	d0da      	beq.n	80030e8 <soft_drawing_bitmap__fill_circle+0x180>
 8003132:	9801      	ldr	r0, [sp, #4]
 8003134:	f8cd c008 	str.w	ip, [sp, #8]
 8003138:	6803      	ldr	r3, [r0, #0]
 800313a:	6c9b      	ldr	r3, [r3, #72]	; 0x48
 800313c:	9204      	str	r2, [sp, #16]
 800313e:	2201      	movs	r2, #1
 8003140:	9106      	str	r1, [sp, #24]
 8003142:	9207      	str	r2, [sp, #28]
 8003144:	f8cd e014 	str.w	lr, [sp, #20]
 8003148:	a904      	add	r1, sp, #16
 800314a:	4798      	blx	r3
 800314c:	e899 000c 	ldmia.w	r9, {r2, r3}
 8003150:	f8dd c008 	ldr.w	ip, [sp, #8]
 8003154:	1b90      	subs	r0, r2, r6
 8003156:	e7c7      	b.n	80030e8 <soft_drawing_bitmap__fill_circle+0x180>
 8003158:	4550      	cmp	r0, sl
 800315a:	da34      	bge.n	80031c6 <soft_drawing_bitmap__fill_circle+0x25e>
 800315c:	4605      	mov	r5, r0
 800315e:	f04f 0e00 	mov.w	lr, #0
 8003162:	2d00      	cmp	r5, #0
 8003164:	d0a7      	beq.n	80030b6 <soft_drawing_bitmap__fill_circle+0x14e>
 8003166:	e795      	b.n	8003094 <soft_drawing_bitmap__fill_circle+0x12c>
 8003168:	45d6      	cmp	lr, sl
 800316a:	da27      	bge.n	80031bc <soft_drawing_bitmap__fill_circle+0x254>
 800316c:	2000      	movs	r0, #0
 800316e:	9002      	str	r0, [sp, #8]
 8003170:	f1be 0f00 	cmp.w	lr, #0
 8003174:	d080      	beq.n	8003078 <soft_drawing_bitmap__fill_circle+0x110>
 8003176:	9801      	ldr	r0, [sp, #4]
 8003178:	9a02      	ldr	r2, [sp, #8]
 800317a:	6803      	ldr	r3, [r0, #0]
 800317c:	f8cd c00c 	str.w	ip, [sp, #12]
 8003180:	6c9b      	ldr	r3, [r3, #72]	; 0x48
 8003182:	9204      	str	r2, [sp, #16]
 8003184:	2201      	movs	r2, #1
 8003186:	9207      	str	r2, [sp, #28]
 8003188:	a904      	add	r1, sp, #16
 800318a:	9705      	str	r7, [sp, #20]
 800318c:	f8cd e018 	str.w	lr, [sp, #24]
 8003190:	4798      	blx	r3
 8003192:	e899 000c 	ldmia.w	r9, {r2, r3}
 8003196:	f8dd c00c 	ldr.w	ip, [sp, #12]
 800319a:	1b11      	subs	r1, r2, r4
 800319c:	e76c      	b.n	8003078 <soft_drawing_bitmap__fill_circle+0x110>
 800319e:	4555      	cmp	r5, sl
 80031a0:	da04      	bge.n	80031ac <soft_drawing_bitmap__fill_circle+0x244>
 80031a2:	462f      	mov	r7, r5
 80031a4:	2100      	movs	r1, #0
 80031a6:	2f00      	cmp	r7, #0
 80031a8:	d0b9      	beq.n	800311e <soft_drawing_bitmap__fill_circle+0x1b6>
 80031aa:	e7aa      	b.n	8003102 <soft_drawing_bitmap__fill_circle+0x19a>
 80031ac:	2000      	movs	r0, #0
 80031ae:	4601      	mov	r1, r0
 80031b0:	ebc0 020a 	rsb	r2, r0, sl
 80031b4:	1e57      	subs	r7, r2, #1
 80031b6:	2f00      	cmp	r7, #0
 80031b8:	d0b1      	beq.n	800311e <soft_drawing_bitmap__fill_circle+0x1b6>
 80031ba:	e7a2      	b.n	8003102 <soft_drawing_bitmap__fill_circle+0x19a>
 80031bc:	f04f 0e00 	mov.w	lr, #0
 80031c0:	f8cd e008 	str.w	lr, [sp, #8]
 80031c4:	e751      	b.n	800306a <soft_drawing_bitmap__fill_circle+0x102>
 80031c6:	2100      	movs	r1, #0
 80031c8:	468e      	mov	lr, r1
 80031ca:	ebc1 010a 	rsb	r1, r1, sl
 80031ce:	1e4d      	subs	r5, r1, #1
 80031d0:	2d00      	cmp	r5, #0
 80031d2:	f43f af70 	beq.w	80030b6 <soft_drawing_bitmap__fill_circle+0x14e>
 80031d6:	e75d      	b.n	8003094 <soft_drawing_bitmap__fill_circle+0x12c>
 80031d8:	2100      	movs	r1, #0
 80031da:	460a      	mov	r2, r1
 80031dc:	e780      	b.n	80030e0 <soft_drawing_bitmap__fill_circle+0x178>
 80031de:	46ae      	mov	lr, r5
 80031e0:	e7c9      	b.n	8003176 <soft_drawing_bitmap__fill_circle+0x20e>
 80031e2:	4629      	mov	r1, r5
 80031e4:	e7a5      	b.n	8003132 <soft_drawing_bitmap__fill_circle+0x1ca>
 80031e6:	4561      	cmp	r1, ip
 80031e8:	da16      	bge.n	8003218 <soft_drawing_bitmap__fill_circle+0x2b0>
 80031ea:	f04f 0e00 	mov.w	lr, #0
 80031ee:	2900      	cmp	r1, #0
 80031f0:	f43f aef8 	beq.w	8002fe4 <soft_drawing_bitmap__fill_circle+0x7c>
 80031f4:	e6e4      	b.n	8002fc0 <soft_drawing_bitmap__fill_circle+0x58>
 80031f6:	4555      	cmp	r5, sl
 80031f8:	da05      	bge.n	8003206 <soft_drawing_bitmap__fill_circle+0x29e>
 80031fa:	462f      	mov	r7, r5
 80031fc:	2100      	movs	r1, #0
 80031fe:	2f00      	cmp	r7, #0
 8003200:	f43f af0f 	beq.w	8003022 <soft_drawing_bitmap__fill_circle+0xba>
 8003204:	e6fe      	b.n	8003004 <soft_drawing_bitmap__fill_circle+0x9c>
 8003206:	2200      	movs	r2, #0
 8003208:	4611      	mov	r1, r2
 800320a:	ebc2 020a 	rsb	r2, r2, sl
 800320e:	1e57      	subs	r7, r2, #1
 8003210:	2f00      	cmp	r7, #0
 8003212:	f43f af06 	beq.w	8003022 <soft_drawing_bitmap__fill_circle+0xba>
 8003216:	e6f5      	b.n	8003004 <soft_drawing_bitmap__fill_circle+0x9c>
 8003218:	2000      	movs	r0, #0
 800321a:	4686      	mov	lr, r0
 800321c:	ebc0 010c 	rsb	r1, r0, ip
 8003220:	3901      	subs	r1, #1
 8003222:	2900      	cmp	r1, #0
 8003224:	f43f aede 	beq.w	8002fe4 <soft_drawing_bitmap__fill_circle+0x7c>
 8003228:	e6ca      	b.n	8002fc0 <soft_drawing_bitmap__fill_circle+0x58>
 800322a:	bf00      	nop

0800322c <stm32__device__enable_clock__2>:
 800322c:	b508      	push	{r3, lr}
 800322e:	4a29      	ldr	r2, [pc, #164]	; (80032d4 <stm32__device__enable_clock__2+0xa8>)
 8003230:	6843      	ldr	r3, [r0, #4]
 8003232:	4293      	cmp	r3, r2
 8003234:	d019      	beq.n	800326a <stm32__device__enable_clock__2+0x3e>
 8003236:	4a28      	ldr	r2, [pc, #160]	; (80032d8 <stm32__device__enable_clock__2+0xac>)
 8003238:	4293      	cmp	r3, r2
 800323a:	d01e      	beq.n	800327a <stm32__device__enable_clock__2+0x4e>
 800323c:	4a27      	ldr	r2, [pc, #156]	; (80032dc <stm32__device__enable_clock__2+0xb0>)
 800323e:	4293      	cmp	r3, r2
 8003240:	d023      	beq.n	800328a <stm32__device__enable_clock__2+0x5e>
 8003242:	4a27      	ldr	r2, [pc, #156]	; (80032e0 <stm32__device__enable_clock__2+0xb4>)
 8003244:	4293      	cmp	r3, r2
 8003246:	d028      	beq.n	800329a <stm32__device__enable_clock__2+0x6e>
 8003248:	4a26      	ldr	r2, [pc, #152]	; (80032e4 <stm32__device__enable_clock__2+0xb8>)
 800324a:	4293      	cmp	r3, r2
 800324c:	d02d      	beq.n	80032aa <stm32__device__enable_clock__2+0x7e>
 800324e:	4a26      	ldr	r2, [pc, #152]	; (80032e8 <stm32__device__enable_clock__2+0xbc>)
 8003250:	4293      	cmp	r3, r2
 8003252:	d032      	beq.n	80032ba <stm32__device__enable_clock__2+0x8e>
 8003254:	4a25      	ldr	r2, [pc, #148]	; (80032ec <stm32__device__enable_clock__2+0xc0>)
 8003256:	4293      	cmp	r3, r2
 8003258:	d137      	bne.n	80032ca <stm32__device__enable_clock__2+0x9e>
 800325a:	f502 4270 	add.w	r2, r2, #61440	; 0xf000
 800325e:	3218      	adds	r2, #24
 8003260:	6813      	ldr	r3, [r2, #0]
 8003262:	f443 7380 	orr.w	r3, r3, #256	; 0x100
 8003266:	6013      	str	r3, [r2, #0]
 8003268:	bd08      	pop	{r3, pc}
 800326a:	f502 3284 	add.w	r2, r2, #67584	; 0x10800
 800326e:	3218      	adds	r2, #24
 8003270:	6813      	ldr	r3, [r2, #0]
 8003272:	f043 0304 	orr.w	r3, r3, #4
 8003276:	6013      	str	r3, [r2, #0]
 8003278:	bd08      	pop	{r3, pc}
 800327a:	f502 3282 	add.w	r2, r2, #66560	; 0x10400
 800327e:	3218      	adds	r2, #24
 8003280:	6813      	ldr	r3, [r2, #0]
 8003282:	f043 0308 	orr.w	r3, r3, #8
 8003286:	6013      	str	r3, [r2, #0]
 8003288:	bd08      	pop	{r3, pc}
 800328a:	f502 3280 	add.w	r2, r2, #65536	; 0x10000
 800328e:	3218      	adds	r2, #24
 8003290:	6813      	ldr	r3, [r2, #0]
 8003292:	f043 0310 	orr.w	r3, r3, #16
 8003296:	6013      	str	r3, [r2, #0]
 8003298:	bd08      	pop	{r3, pc}
 800329a:	f502 427c 	add.w	r2, r2, #64512	; 0xfc00
 800329e:	3218      	adds	r2, #24
 80032a0:	6813      	ldr	r3, [r2, #0]
 80032a2:	f043 0320 	orr.w	r3, r3, #32
 80032a6:	6013      	str	r3, [r2, #0]
 80032a8:	bd08      	pop	{r3, pc}
 80032aa:	f502 4278 	add.w	r2, r2, #63488	; 0xf800
 80032ae:	3218      	adds	r2, #24
 80032b0:	6813      	ldr	r3, [r2, #0]
 80032b2:	f043 0340 	orr.w	r3, r3, #64	; 0x40
 80032b6:	6013      	str	r3, [r2, #0]
 80032b8:	bd08      	pop	{r3, pc}
 80032ba:	f502 4274 	add.w	r2, r2, #62464	; 0xf400
 80032be:	3218      	adds	r2, #24
 80032c0:	6813      	ldr	r3, [r2, #0]
 80032c2:	f043 0380 	orr.w	r3, r3, #128	; 0x80
 80032c6:	6013      	str	r3, [r2, #0]
 80032c8:	bd08      	pop	{r3, pc}
 80032ca:	4809      	ldr	r0, [pc, #36]	; (80032f0 <stm32__device__enable_clock__2+0xc4>)
 80032cc:	2100      	movs	r1, #0
 80032ce:	f7fd f8f7 	bl	80004c0 <__gnat_last_chance_handler>
 80032d2:	bf00      	nop
 80032d4:	40010800 	.word	0x40010800
 80032d8:	40010c00 	.word	0x40010c00
 80032dc:	40011000 	.word	0x40011000
 80032e0:	40011400 	.word	0x40011400
 80032e4:	40011800 	.word	0x40011800
 80032e8:	40011c00 	.word	0x40011c00
 80032ec:	40012000 	.word	0x40012000
 80032f0:	0800a0b8 	.word	0x0800a0b8

080032f4 <stm32__device__enable_clock__9>:
 80032f4:	b508      	push	{r3, lr}
 80032f6:	4a13      	ldr	r2, [pc, #76]	; (8003344 <stm32__device__enable_clock__9+0x50>)
 80032f8:	6843      	ldr	r3, [r0, #4]
 80032fa:	4293      	cmp	r3, r2
 80032fc:	d00d      	beq.n	800331a <stm32__device__enable_clock__9+0x26>
 80032fe:	4a12      	ldr	r2, [pc, #72]	; (8003348 <stm32__device__enable_clock__9+0x54>)
 8003300:	4293      	cmp	r3, r2
 8003302:	d012      	beq.n	800332a <stm32__device__enable_clock__9+0x36>
 8003304:	4a11      	ldr	r2, [pc, #68]	; (800334c <stm32__device__enable_clock__9+0x58>)
 8003306:	4293      	cmp	r3, r2
 8003308:	d117      	bne.n	800333a <stm32__device__enable_clock__9+0x46>
 800330a:	f502 32ea 	add.w	r2, r2, #119808	; 0x1d400
 800330e:	321c      	adds	r2, #28
 8003310:	6813      	ldr	r3, [r2, #0]
 8003312:	f443 4300 	orr.w	r3, r3, #32768	; 0x8000
 8003316:	6013      	str	r3, [r2, #0]
 8003318:	bd08      	pop	{r3, pc}
 800331a:	f502 4260 	add.w	r2, r2, #57344	; 0xe000
 800331e:	3218      	adds	r2, #24
 8003320:	6813      	ldr	r3, [r2, #0]
 8003322:	f443 5380 	orr.w	r3, r3, #4096	; 0x1000
 8003326:	6013      	str	r3, [r2, #0]
 8003328:	bd08      	pop	{r3, pc}
 800332a:	f502 32ec 	add.w	r2, r2, #120832	; 0x1d800
 800332e:	321c      	adds	r2, #28
 8003330:	6813      	ldr	r3, [r2, #0]
 8003332:	f443 4380 	orr.w	r3, r3, #16384	; 0x4000
 8003336:	6013      	str	r3, [r2, #0]
 8003338:	bd08      	pop	{r3, pc}
 800333a:	4805      	ldr	r0, [pc, #20]	; (8003350 <stm32__device__enable_clock__9+0x5c>)
 800333c:	2100      	movs	r1, #0
 800333e:	f7fd f8bf 	bl	80004c0 <__gnat_last_chance_handler>
 8003342:	bf00      	nop
 8003344:	40013000 	.word	0x40013000
 8003348:	40003800 	.word	0x40003800
 800334c:	40003c00 	.word	0x40003c00
 8003350:	0800a12c 	.word	0x0800a12c

08003354 <stm32__device__reset__8>:
 8003354:	b508      	push	{r3, lr}
 8003356:	4a16      	ldr	r2, [pc, #88]	; (80033b0 <stm32__device__reset__8+0x5c>)
 8003358:	6843      	ldr	r3, [r0, #4]
 800335a:	4293      	cmp	r3, r2
 800335c:	d00f      	beq.n	800337e <stm32__device__reset__8+0x2a>
 800335e:	4a15      	ldr	r2, [pc, #84]	; (80033b4 <stm32__device__reset__8+0x60>)
 8003360:	4293      	cmp	r3, r2
 8003362:	d016      	beq.n	8003392 <stm32__device__reset__8+0x3e>
 8003364:	4a14      	ldr	r2, [pc, #80]	; (80033b8 <stm32__device__reset__8+0x64>)
 8003366:	4293      	cmp	r3, r2
 8003368:	d11d      	bne.n	80033a6 <stm32__device__reset__8+0x52>
 800336a:	4b14      	ldr	r3, [pc, #80]	; (80033bc <stm32__device__reset__8+0x68>)
 800336c:	681a      	ldr	r2, [r3, #0]
 800336e:	f442 4200 	orr.w	r2, r2, #32768	; 0x8000
 8003372:	601a      	str	r2, [r3, #0]
 8003374:	681a      	ldr	r2, [r3, #0]
 8003376:	f36f 32cf 	bfc	r2, #15, #1
 800337a:	601a      	str	r2, [r3, #0]
 800337c:	bd08      	pop	{r3, pc}
 800337e:	4b10      	ldr	r3, [pc, #64]	; (80033c0 <stm32__device__reset__8+0x6c>)
 8003380:	681a      	ldr	r2, [r3, #0]
 8003382:	f442 5280 	orr.w	r2, r2, #4096	; 0x1000
 8003386:	601a      	str	r2, [r3, #0]
 8003388:	681a      	ldr	r2, [r3, #0]
 800338a:	f36f 320c 	bfc	r2, #12, #1
 800338e:	601a      	str	r2, [r3, #0]
 8003390:	bd08      	pop	{r3, pc}
 8003392:	4b0a      	ldr	r3, [pc, #40]	; (80033bc <stm32__device__reset__8+0x68>)
 8003394:	681a      	ldr	r2, [r3, #0]
 8003396:	f442 4280 	orr.w	r2, r2, #16384	; 0x4000
 800339a:	601a      	str	r2, [r3, #0]
 800339c:	681a      	ldr	r2, [r3, #0]
 800339e:	f36f 328e 	bfc	r2, #14, #1
 80033a2:	601a      	str	r2, [r3, #0]
 80033a4:	bd08      	pop	{r3, pc}
 80033a6:	4807      	ldr	r0, [pc, #28]	; (80033c4 <stm32__device__reset__8+0x70>)
 80033a8:	2100      	movs	r1, #0
 80033aa:	f7fd f889 	bl	80004c0 <__gnat_last_chance_handler>
 80033ae:	bf00      	nop
 80033b0:	40013000 	.word	0x40013000
 80033b4:	40003800 	.word	0x40003800
 80033b8:	40003c00 	.word	0x40003c00
 80033bc:	40021010 	.word	0x40021010
 80033c0:	4002100c 	.word	0x4002100c
 80033c4:	0800a144 	.word	0x0800a144

080033c8 <stm32__device__system_clock_frequencies>:
 80033c8:	b430      	push	{r4, r5}
 80033ca:	4a23      	ldr	r2, [pc, #140]	; (8003458 <stm32__device__system_clock_frequencies+0x90>)
 80033cc:	6813      	ldr	r3, [r2, #0]
 80033ce:	f3c3 0381 	ubfx	r3, r3, #2, #2
 80033d2:	2b01      	cmp	r3, #1
 80033d4:	d03a      	beq.n	800344c <stm32__device__system_clock_frequencies+0x84>
 80033d6:	d301      	bcc.n	80033dc <stm32__device__system_clock_frequencies+0x14>
 80033d8:	2b02      	cmp	r3, #2
 80033da:	d026      	beq.n	800342a <stm32__device__system_clock_frequencies+0x62>
 80033dc:	4b1f      	ldr	r3, [pc, #124]	; (800345c <stm32__device__system_clock_frequencies+0x94>)
 80033de:	6003      	str	r3, [r0, #0]
 80033e0:	4b1e      	ldr	r3, [pc, #120]	; (800345c <stm32__device__system_clock_frequencies+0x94>)
 80033e2:	6814      	ldr	r4, [r2, #0]
 80033e4:	4d1e      	ldr	r5, [pc, #120]	; (8003460 <stm32__device__system_clock_frequencies+0x98>)
 80033e6:	f3c4 1403 	ubfx	r4, r4, #4, #4
 80033ea:	6811      	ldr	r1, [r2, #0]
 80033ec:	6812      	ldr	r2, [r2, #0]
 80033ee:	f855 5024 	ldr.w	r5, [r5, r4, lsl #2]
 80033f2:	4c1c      	ldr	r4, [pc, #112]	; (8003464 <stm32__device__system_clock_frequencies+0x9c>)
 80033f4:	fbb3 f3f5 	udiv	r3, r3, r5
 80033f8:	f3c1 2102 	ubfx	r1, r1, #8, #3
 80033fc:	f854 5021 	ldr.w	r5, [r4, r1, lsl #2]
 8003400:	f3c2 22c2 	ubfx	r2, r2, #11, #3
 8003404:	f854 4022 	ldr.w	r4, [r4, r2, lsl #2]
 8003408:	fbb3 f2f5 	udiv	r2, r3, r5
 800340c:	fbb3 f1f4 	udiv	r1, r3, r4
 8003410:	2d01      	cmp	r5, #1
 8003412:	6082      	str	r2, [r0, #8]
 8003414:	bf18      	it	ne
 8003416:	0052      	lslne	r2, r2, #1
 8003418:	2c01      	cmp	r4, #1
 800341a:	60c1      	str	r1, [r0, #12]
 800341c:	bf18      	it	ne
 800341e:	0049      	lslne	r1, r1, #1
 8003420:	6043      	str	r3, [r0, #4]
 8003422:	6102      	str	r2, [r0, #16]
 8003424:	6141      	str	r1, [r0, #20]
 8003426:	bc30      	pop	{r4, r5}
 8003428:	4770      	bx	lr
 800342a:	6813      	ldr	r3, [r2, #0]
 800342c:	6814      	ldr	r4, [r2, #0]
 800342e:	6811      	ldr	r1, [r2, #0]
 8003430:	03dd      	lsls	r5, r3, #15
 8003432:	f3c1 4183 	ubfx	r1, r1, #18, #4
 8003436:	d50c      	bpl.n	8003452 <stm32__device__system_clock_frequencies+0x8a>
 8003438:	03a3      	lsls	r3, r4, #14
 800343a:	d50a      	bpl.n	8003452 <stm32__device__system_clock_frequencies+0x8a>
 800343c:	4b0a      	ldr	r3, [pc, #40]	; (8003468 <stm32__device__system_clock_frequencies+0xa0>)
 800343e:	4c0b      	ldr	r4, [pc, #44]	; (800346c <stm32__device__system_clock_frequencies+0xa4>)
 8003440:	290d      	cmp	r1, #13
 8003442:	bf9c      	itt	ls
 8003444:	1c8b      	addls	r3, r1, #2
 8003446:	4363      	mulls	r3, r4
 8003448:	6003      	str	r3, [r0, #0]
 800344a:	e7ca      	b.n	80033e2 <stm32__device__system_clock_frequencies+0x1a>
 800344c:	4b08      	ldr	r3, [pc, #32]	; (8003470 <stm32__device__system_clock_frequencies+0xa8>)
 800344e:	6003      	str	r3, [r0, #0]
 8003450:	e7c7      	b.n	80033e2 <stm32__device__system_clock_frequencies+0x1a>
 8003452:	4b08      	ldr	r3, [pc, #32]	; (8003474 <stm32__device__system_clock_frequencies+0xac>)
 8003454:	4c06      	ldr	r4, [pc, #24]	; (8003470 <stm32__device__system_clock_frequencies+0xa8>)
 8003456:	e7f3      	b.n	8003440 <stm32__device__system_clock_frequencies+0x78>
 8003458:	40021004 	.word	0x40021004
 800345c:	00f42400 	.word	0x00f42400
 8003460:	0800a048 	.word	0x0800a048
 8003464:	0800a1bc 	.word	0x0800a1bc
 8003468:	03d09000 	.word	0x03d09000
 800346c:	003d0900 	.word	0x003d0900
 8003470:	007a1200 	.word	0x007a1200
 8003474:	07a12000 	.word	0x07a12000

08003478 <stm32__device___elabs>:
 8003478:	4ba8      	ldr	r3, [pc, #672]	; (800371c <stm32__device___elabs+0x2a4>)
 800347a:	4aa9      	ldr	r2, [pc, #676]	; (8003720 <stm32__device___elabs+0x2a8>)
 800347c:	681b      	ldr	r3, [r3, #0]
 800347e:	e92d 4ff0 	stmdb	sp!, {r4, r5, r6, r7, r8, r9, sl, fp, lr}
 8003482:	6053      	str	r3, [r2, #4]
 8003484:	f04f 0202 	mov.w	r2, #2
 8003488:	f8df 9358 	ldr.w	r9, [pc, #856]	; 80037e4 <stm32__device___elabs+0x36c>
 800348c:	f8df 8358 	ldr.w	r8, [pc, #856]	; 80037e8 <stm32__device___elabs+0x370>
 8003490:	f8a9 2008 	strh.w	r2, [r9, #8]
 8003494:	f04f 0204 	mov.w	r2, #4
 8003498:	f8a8 2008 	strh.w	r2, [r8, #8]
 800349c:	f04f 0208 	mov.w	r2, #8
 80034a0:	f8df e348 	ldr.w	lr, [pc, #840]	; 80037ec <stm32__device___elabs+0x374>
 80034a4:	4f9f      	ldr	r7, [pc, #636]	; (8003724 <stm32__device___elabs+0x2ac>)
 80034a6:	f8ae 2008 	strh.w	r2, [lr, #8]
 80034aa:	f04f 0210 	mov.w	r2, #16
 80034ae:	813a      	strh	r2, [r7, #8]
 80034b0:	f04f 0220 	mov.w	r2, #32
 80034b4:	f8df c338 	ldr.w	ip, [pc, #824]	; 80037f0 <stm32__device___elabs+0x378>
 80034b8:	4c9b      	ldr	r4, [pc, #620]	; (8003728 <stm32__device___elabs+0x2b0>)
 80034ba:	f8ac 2008 	strh.w	r2, [ip, #8]
 80034be:	f04f 0280 	mov.w	r2, #128	; 0x80
 80034c2:	8122      	strh	r2, [r4, #8]
 80034c4:	f44f 7280 	mov.w	r2, #256	; 0x100
 80034c8:	4898      	ldr	r0, [pc, #608]	; (800372c <stm32__device___elabs+0x2b4>)
 80034ca:	4e99      	ldr	r6, [pc, #612]	; (8003730 <stm32__device___elabs+0x2b8>)
 80034cc:	8102      	strh	r2, [r0, #8]
 80034ce:	f44f 7200 	mov.w	r2, #512	; 0x200
 80034d2:	f8c8 3004 	str.w	r3, [r8, #4]
 80034d6:	f8c8 6000 	str.w	r6, [r8]
 80034da:	f44f 6800 	mov.w	r8, #2048	; 0x800
 80034de:	4995      	ldr	r1, [pc, #596]	; (8003734 <stm32__device___elabs+0x2bc>)
 80034e0:	f8df a310 	ldr.w	sl, [pc, #784]	; 80037f4 <stm32__device___elabs+0x37c>
 80034e4:	f04f 0b01 	mov.w	fp, #1
 80034e8:	4d93      	ldr	r5, [pc, #588]	; (8003738 <stm32__device___elabs+0x2c0>)
 80034ea:	f8cc 3004 	str.w	r3, [ip, #4]
 80034ee:	f8cc 6000 	str.w	r6, [ip]
 80034f2:	810a      	strh	r2, [r1, #8]
 80034f4:	f8df c300 	ldr.w	ip, [pc, #768]	; 80037f8 <stm32__device___elabs+0x380>
 80034f8:	4a89      	ldr	r2, [pc, #548]	; (8003720 <stm32__device___elabs+0x2a8>)
 80034fa:	f8ca 3004 	str.w	r3, [sl, #4]
 80034fe:	607b      	str	r3, [r7, #4]
 8003500:	f8aa b008 	strh.w	fp, [sl, #8]
 8003504:	f8ca 6000 	str.w	r6, [sl]
 8003508:	603e      	str	r6, [r7, #0]
 800350a:	f04f 0a40 	mov.w	sl, #64	; 0x40
 800350e:	f44f 6780 	mov.w	r7, #1024	; 0x400
 8003512:	f8c9 3004 	str.w	r3, [r9, #4]
 8003516:	f8ce 3004 	str.w	r3, [lr, #4]
 800351a:	606b      	str	r3, [r5, #4]
 800351c:	6063      	str	r3, [r4, #4]
 800351e:	6043      	str	r3, [r0, #4]
 8003520:	604b      	str	r3, [r1, #4]
 8003522:	f8c9 6000 	str.w	r6, [r9]
 8003526:	f8ce 6000 	str.w	r6, [lr]
 800352a:	602e      	str	r6, [r5, #0]
 800352c:	6026      	str	r6, [r4, #0]
 800352e:	6006      	str	r6, [r0, #0]
 8003530:	600e      	str	r6, [r1, #0]
 8003532:	f8a5 a008 	strh.w	sl, [r5, #8]
 8003536:	8117      	strh	r7, [r2, #8]
 8003538:	f8cc 3004 	str.w	r3, [ip, #4]
 800353c:	f8cc 6000 	str.w	r6, [ip]
 8003540:	f8ac 8008 	strh.w	r8, [ip, #8]
 8003544:	f44f 5c80 	mov.w	ip, #4096	; 0x1000
 8003548:	f8df e2b0 	ldr.w	lr, [pc, #688]	; 80037fc <stm32__device___elabs+0x384>
 800354c:	4c7b      	ldr	r4, [pc, #492]	; (800373c <stm32__device___elabs+0x2c4>)
 800354e:	f8ce 3004 	str.w	r3, [lr, #4]
 8003552:	f8ce 6000 	str.w	r6, [lr]
 8003556:	f8ae c008 	strh.w	ip, [lr, #8]
 800355a:	f44f 4e80 	mov.w	lr, #16384	; 0x4000
 800355e:	6063      	str	r3, [r4, #4]
 8003560:	6026      	str	r6, [r4, #0]
 8003562:	f8a4 e008 	strh.w	lr, [r4, #8]
 8003566:	f04f 0404 	mov.w	r4, #4
 800356a:	4d75      	ldr	r5, [pc, #468]	; (8003740 <stm32__device___elabs+0x2c8>)
 800356c:	4875      	ldr	r0, [pc, #468]	; (8003744 <stm32__device___elabs+0x2cc>)
 800356e:	606b      	str	r3, [r5, #4]
 8003570:	6043      	str	r3, [r0, #4]
 8003572:	4b75      	ldr	r3, [pc, #468]	; (8003748 <stm32__device___elabs+0x2d0>)
 8003574:	6016      	str	r6, [r2, #0]
 8003576:	811c      	strh	r4, [r3, #8]
 8003578:	f04f 0408 	mov.w	r4, #8
 800357c:	4a73      	ldr	r2, [pc, #460]	; (800374c <stm32__device___elabs+0x2d4>)
 800357e:	4974      	ldr	r1, [pc, #464]	; (8003750 <stm32__device___elabs+0x2d8>)
 8003580:	6812      	ldr	r2, [r2, #0]
 8003582:	f44f 4c00 	mov.w	ip, #32768	; 0x8000
 8003586:	6006      	str	r6, [r0, #0]
 8003588:	f8a0 c008 	strh.w	ip, [r0, #8]
 800358c:	604a      	str	r2, [r1, #4]
 800358e:	f8a1 b008 	strh.w	fp, [r1, #8]
 8003592:	600e      	str	r6, [r1, #0]
 8003594:	f04f 0002 	mov.w	r0, #2
 8003598:	496e      	ldr	r1, [pc, #440]	; (8003754 <stm32__device___elabs+0x2dc>)
 800359a:	f44f 5800 	mov.w	r8, #8192	; 0x2000
 800359e:	810c      	strh	r4, [r1, #8]
 80035a0:	f04f 0410 	mov.w	r4, #16
 80035a4:	602e      	str	r6, [r5, #0]
 80035a6:	f8a5 8008 	strh.w	r8, [r5, #8]
 80035aa:	4d6b      	ldr	r5, [pc, #428]	; (8003758 <stm32__device___elabs+0x2e0>)
 80035ac:	605a      	str	r2, [r3, #4]
 80035ae:	8128      	strh	r0, [r5, #8]
 80035b0:	486a      	ldr	r0, [pc, #424]	; (800375c <stm32__device___elabs+0x2e4>)
 80035b2:	601e      	str	r6, [r3, #0]
 80035b4:	6042      	str	r2, [r0, #4]
 80035b6:	8104      	strh	r4, [r0, #8]
 80035b8:	6006      	str	r6, [r0, #0]
 80035ba:	f04f 0020 	mov.w	r0, #32
 80035be:	f04f 0480 	mov.w	r4, #128	; 0x80
 80035c2:	4b67      	ldr	r3, [pc, #412]	; (8003760 <stm32__device___elabs+0x2e8>)
 80035c4:	606a      	str	r2, [r5, #4]
 80035c6:	602e      	str	r6, [r5, #0]
 80035c8:	604a      	str	r2, [r1, #4]
 80035ca:	600e      	str	r6, [r1, #0]
 80035cc:	605a      	str	r2, [r3, #4]
 80035ce:	8118      	strh	r0, [r3, #8]
 80035d0:	601e      	str	r6, [r3, #0]
 80035d2:	4b64      	ldr	r3, [pc, #400]	; (8003764 <stm32__device___elabs+0x2ec>)
 80035d4:	4864      	ldr	r0, [pc, #400]	; (8003768 <stm32__device___elabs+0x2f0>)
 80035d6:	811c      	strh	r4, [r3, #8]
 80035d8:	f44f 7480 	mov.w	r4, #256	; 0x100
 80035dc:	6042      	str	r2, [r0, #4]
 80035de:	f8a0 a008 	strh.w	sl, [r0, #8]
 80035e2:	6006      	str	r6, [r0, #0]
 80035e4:	4861      	ldr	r0, [pc, #388]	; (800376c <stm32__device___elabs+0x2f4>)
 80035e6:	605a      	str	r2, [r3, #4]
 80035e8:	8104      	strh	r4, [r0, #8]
 80035ea:	f44f 7400 	mov.w	r4, #512	; 0x200
 80035ee:	601e      	str	r6, [r3, #0]
 80035f0:	4b5f      	ldr	r3, [pc, #380]	; (8003770 <stm32__device___elabs+0x2f8>)
 80035f2:	6042      	str	r2, [r0, #4]
 80035f4:	811c      	strh	r4, [r3, #8]
 80035f6:	f44f 6400 	mov.w	r4, #2048	; 0x800
 80035fa:	605a      	str	r2, [r3, #4]
 80035fc:	601e      	str	r6, [r3, #0]
 80035fe:	4b5d      	ldr	r3, [pc, #372]	; (8003774 <stm32__device___elabs+0x2fc>)
 8003600:	6006      	str	r6, [r0, #0]
 8003602:	811c      	strh	r4, [r3, #8]
 8003604:	f44f 5480 	mov.w	r4, #4096	; 0x1000
 8003608:	485b      	ldr	r0, [pc, #364]	; (8003778 <stm32__device___elabs+0x300>)
 800360a:	605a      	str	r2, [r3, #4]
 800360c:	6042      	str	r2, [r0, #4]
 800360e:	8107      	strh	r7, [r0, #8]
 8003610:	6006      	str	r6, [r0, #0]
 8003612:	485a      	ldr	r0, [pc, #360]	; (800377c <stm32__device___elabs+0x304>)
 8003614:	601e      	str	r6, [r3, #0]
 8003616:	8104      	strh	r4, [r0, #8]
 8003618:	f04f 0402 	mov.w	r4, #2
 800361c:	4b58      	ldr	r3, [pc, #352]	; (8003780 <stm32__device___elabs+0x308>)
 800361e:	6042      	str	r2, [r0, #4]
 8003620:	6006      	str	r6, [r0, #0]
 8003622:	605a      	str	r2, [r3, #4]
 8003624:	4857      	ldr	r0, [pc, #348]	; (8003784 <stm32__device___elabs+0x30c>)
 8003626:	f8a3 8008 	strh.w	r8, [r3, #8]
 800362a:	601e      	str	r6, [r3, #0]
 800362c:	4956      	ldr	r1, [pc, #344]	; (8003788 <stm32__device___elabs+0x310>)
 800362e:	4b57      	ldr	r3, [pc, #348]	; (800378c <stm32__device___elabs+0x314>)
 8003630:	6809      	ldr	r1, [r1, #0]
 8003632:	6042      	str	r2, [r0, #4]
 8003634:	f8a0 e008 	strh.w	lr, [r0, #8]
 8003638:	6006      	str	r6, [r0, #0]
 800363a:	605a      	str	r2, [r3, #4]
 800363c:	4854      	ldr	r0, [pc, #336]	; (8003790 <stm32__device___elabs+0x318>)
 800363e:	4a55      	ldr	r2, [pc, #340]	; (8003794 <stm32__device___elabs+0x31c>)
 8003640:	f8a3 c008 	strh.w	ip, [r3, #8]
 8003644:	601e      	str	r6, [r3, #0]
 8003646:	6051      	str	r1, [r2, #4]
 8003648:	f8a2 b008 	strh.w	fp, [r2, #8]
 800364c:	8104      	strh	r4, [r0, #8]
 800364e:	f04f 0404 	mov.w	r4, #4
 8003652:	4b51      	ldr	r3, [pc, #324]	; (8003798 <stm32__device___elabs+0x320>)
 8003654:	6016      	str	r6, [r2, #0]
 8003656:	811c      	strh	r4, [r3, #8]
 8003658:	f04f 0408 	mov.w	r4, #8
 800365c:	4a4f      	ldr	r2, [pc, #316]	; (800379c <stm32__device___elabs+0x324>)
 800365e:	6041      	str	r1, [r0, #4]
 8003660:	8114      	strh	r4, [r2, #8]
 8003662:	f04f 0410 	mov.w	r4, #16
 8003666:	6006      	str	r6, [r0, #0]
 8003668:	484d      	ldr	r0, [pc, #308]	; (80037a0 <stm32__device___elabs+0x328>)
 800366a:	6059      	str	r1, [r3, #4]
 800366c:	8104      	strh	r4, [r0, #8]
 800366e:	f04f 0420 	mov.w	r4, #32
 8003672:	601e      	str	r6, [r3, #0]
 8003674:	4b4b      	ldr	r3, [pc, #300]	; (80037a4 <stm32__device___elabs+0x32c>)
 8003676:	6041      	str	r1, [r0, #4]
 8003678:	811c      	strh	r4, [r3, #8]
 800367a:	f04f 0480 	mov.w	r4, #128	; 0x80
 800367e:	6006      	str	r6, [r0, #0]
 8003680:	4849      	ldr	r0, [pc, #292]	; (80037a8 <stm32__device___elabs+0x330>)
 8003682:	6059      	str	r1, [r3, #4]
 8003684:	8104      	strh	r4, [r0, #8]
 8003686:	f44f 7480 	mov.w	r4, #256	; 0x100
 800368a:	601e      	str	r6, [r3, #0]
 800368c:	4b47      	ldr	r3, [pc, #284]	; (80037ac <stm32__device___elabs+0x334>)
 800368e:	6051      	str	r1, [r2, #4]
 8003690:	811c      	strh	r4, [r3, #8]
 8003692:	f44f 7400 	mov.w	r4, #512	; 0x200
 8003696:	6016      	str	r6, [r2, #0]
 8003698:	4a45      	ldr	r2, [pc, #276]	; (80037b0 <stm32__device___elabs+0x338>)
 800369a:	6059      	str	r1, [r3, #4]
 800369c:	6051      	str	r1, [r2, #4]
 800369e:	f8a2 a008 	strh.w	sl, [r2, #8]
 80036a2:	6016      	str	r6, [r2, #0]
 80036a4:	4a43      	ldr	r2, [pc, #268]	; (80037b4 <stm32__device___elabs+0x33c>)
 80036a6:	601e      	str	r6, [r3, #0]
 80036a8:	8114      	strh	r4, [r2, #8]
 80036aa:	f44f 6400 	mov.w	r4, #2048	; 0x800
 80036ae:	4b42      	ldr	r3, [pc, #264]	; (80037b8 <stm32__device___elabs+0x340>)
 80036b0:	6041      	str	r1, [r0, #4]
 80036b2:	811c      	strh	r4, [r3, #8]
 80036b4:	f44f 5480 	mov.w	r4, #4096	; 0x1000
 80036b8:	6006      	str	r6, [r0, #0]
 80036ba:	6051      	str	r1, [r2, #4]
 80036bc:	483f      	ldr	r0, [pc, #252]	; (80037bc <stm32__device___elabs+0x344>)
 80036be:	6016      	str	r6, [r2, #0]
 80036c0:	4a3f      	ldr	r2, [pc, #252]	; (80037c0 <stm32__device___elabs+0x348>)
 80036c2:	6041      	str	r1, [r0, #4]
 80036c4:	8107      	strh	r7, [r0, #8]
 80036c6:	6006      	str	r6, [r0, #0]
 80036c8:	6059      	str	r1, [r3, #4]
 80036ca:	601e      	str	r6, [r3, #0]
 80036cc:	8114      	strh	r4, [r2, #8]
 80036ce:	4c3d      	ldr	r4, [pc, #244]	; (80037c4 <stm32__device___elabs+0x34c>)
 80036d0:	483d      	ldr	r0, [pc, #244]	; (80037c8 <stm32__device___elabs+0x350>)
 80036d2:	6061      	str	r1, [r4, #4]
 80036d4:	f8a4 c008 	strh.w	ip, [r4, #8]
 80036d8:	6026      	str	r6, [r4, #0]
 80036da:	f04f 0402 	mov.w	r4, #2
 80036de:	6803      	ldr	r3, [r0, #0]
 80036e0:	483a      	ldr	r0, [pc, #232]	; (80037cc <stm32__device___elabs+0x354>)
 80036e2:	6051      	str	r1, [r2, #4]
 80036e4:	6041      	str	r1, [r0, #4]
 80036e6:	f8a0 8008 	strh.w	r8, [r0, #8]
 80036ea:	6006      	str	r6, [r0, #0]
 80036ec:	4838      	ldr	r0, [pc, #224]	; (80037d0 <stm32__device___elabs+0x358>)
 80036ee:	6016      	str	r6, [r2, #0]
 80036f0:	8104      	strh	r4, [r0, #8]
 80036f2:	f04f 0404 	mov.w	r4, #4
 80036f6:	4a37      	ldr	r2, [pc, #220]	; (80037d4 <stm32__device___elabs+0x35c>)
 80036f8:	6043      	str	r3, [r0, #4]
 80036fa:	6051      	str	r1, [r2, #4]
 80036fc:	4936      	ldr	r1, [pc, #216]	; (80037d8 <stm32__device___elabs+0x360>)
 80036fe:	f8a2 e008 	strh.w	lr, [r2, #8]
 8003702:	810c      	strh	r4, [r1, #8]
 8003704:	f04f 0408 	mov.w	r4, #8
 8003708:	6016      	str	r6, [r2, #0]
 800370a:	4a34      	ldr	r2, [pc, #208]	; (80037dc <stm32__device___elabs+0x364>)
 800370c:	6006      	str	r6, [r0, #0]
 800370e:	6053      	str	r3, [r2, #4]
 8003710:	f8a2 b008 	strh.w	fp, [r2, #8]
 8003714:	6016      	str	r6, [r2, #0]
 8003716:	4a32      	ldr	r2, [pc, #200]	; (80037e0 <stm32__device___elabs+0x368>)
 8003718:	e072      	b.n	8003800 <stm32__device___elabs+0x388>
 800371a:	bf00      	nop
 800371c:	20000334 	.word	0x20000334
 8003720:	2000074c 	.word	0x2000074c
 8003724:	20000478 	.word	0x20000478
 8003728:	2000049c 	.word	0x2000049c
 800372c:	200004a8 	.word	0x200004a8
 8003730:	0800a3cc 	.word	0x0800a3cc
 8003734:	200004b4 	.word	0x200004b4
 8003738:	20000490 	.word	0x20000490
 800373c:	2000077c 	.word	0x2000077c
 8003740:	20000770 	.word	0x20000770
 8003744:	20000788 	.word	0x20000788
 8003748:	200008c4 	.word	0x200008c4
 800374c:	20000338 	.word	0x20000338
 8003750:	200008a4 	.word	0x200008a4
 8003754:	200008d0 	.word	0x200008d0
 8003758:	200008b0 	.word	0x200008b0
 800375c:	200008dc 	.word	0x200008dc
 8003760:	200008f4 	.word	0x200008f4
 8003764:	2000090c 	.word	0x2000090c
 8003768:	20000900 	.word	0x20000900
 800376c:	20000918 	.word	0x20000918
 8003770:	20000620 	.word	0x20000620
 8003774:	200006d0 	.word	0x200006d0
 8003778:	200006c4 	.word	0x200006c4
 800377c:	200006dc 	.word	0x200006dc
 8003780:	200006e8 	.word	0x200006e8
 8003784:	200006f4 	.word	0x200006f4
 8003788:	2000033c 	.word	0x2000033c
 800378c:	20000700 	.word	0x20000700
 8003790:	200007a0 	.word	0x200007a0
 8003794:	20000794 	.word	0x20000794
 8003798:	200007ac 	.word	0x200007ac
 800379c:	200007b8 	.word	0x200007b8
 80037a0:	200007c4 	.word	0x200007c4
 80037a4:	200007d0 	.word	0x200007d0
 80037a8:	200007e8 	.word	0x200007e8
 80037ac:	200007f4 	.word	0x200007f4
 80037b0:	200007dc 	.word	0x200007dc
 80037b4:	20000800 	.word	0x20000800
 80037b8:	200005e4 	.word	0x200005e4
 80037bc:	200005d8 	.word	0x200005d8
 80037c0:	200005f0 	.word	0x200005f0
 80037c4:	20000614 	.word	0x20000614
 80037c8:	20000340 	.word	0x20000340
 80037cc:	200005fc 	.word	0x200005fc
 80037d0:	20000930 	.word	0x20000930
 80037d4:	20000608 	.word	0x20000608
 80037d8:	2000093c 	.word	0x2000093c
 80037dc:	20000924 	.word	0x20000924
 80037e0:	20000948 	.word	0x20000948
 80037e4:	20000454 	.word	0x20000454
 80037e8:	20000460 	.word	0x20000460
 80037ec:	2000046c 	.word	0x2000046c
 80037f0:	20000484 	.word	0x20000484
 80037f4:	20000448 	.word	0x20000448
 80037f8:	20000758 	.word	0x20000758
 80037fc:	20000764 	.word	0x20000764
 8003800:	489e      	ldr	r0, [pc, #632]	; (8003a7c <stm32__device___elabs+0x604>)
 8003802:	8114      	strh	r4, [r2, #8]
 8003804:	f04f 0410 	mov.w	r4, #16
 8003808:	8104      	strh	r4, [r0, #8]
 800380a:	f04f 0420 	mov.w	r4, #32
 800380e:	604b      	str	r3, [r1, #4]
 8003810:	600e      	str	r6, [r1, #0]
 8003812:	499b      	ldr	r1, [pc, #620]	; (8003a80 <stm32__device___elabs+0x608>)
 8003814:	6053      	str	r3, [r2, #4]
 8003816:	810c      	strh	r4, [r1, #8]
 8003818:	f04f 0480 	mov.w	r4, #128	; 0x80
 800381c:	6016      	str	r6, [r2, #0]
 800381e:	6043      	str	r3, [r0, #4]
 8003820:	4a98      	ldr	r2, [pc, #608]	; (8003a84 <stm32__device___elabs+0x60c>)
 8003822:	6006      	str	r6, [r0, #0]
 8003824:	4898      	ldr	r0, [pc, #608]	; (8003a88 <stm32__device___elabs+0x610>)
 8003826:	604b      	str	r3, [r1, #4]
 8003828:	600e      	str	r6, [r1, #0]
 800382a:	6053      	str	r3, [r2, #4]
 800382c:	f8a2 a008 	strh.w	sl, [r2, #8]
 8003830:	6016      	str	r6, [r2, #0]
 8003832:	8104      	strh	r4, [r0, #8]
 8003834:	f44f 7480 	mov.w	r4, #256	; 0x100
 8003838:	6043      	str	r3, [r0, #4]
 800383a:	6006      	str	r6, [r0, #0]
 800383c:	4893      	ldr	r0, [pc, #588]	; (8003a8c <stm32__device___elabs+0x614>)
 800383e:	4994      	ldr	r1, [pc, #592]	; (8003a90 <stm32__device___elabs+0x618>)
 8003840:	8104      	strh	r4, [r0, #8]
 8003842:	f44f 7400 	mov.w	r4, #512	; 0x200
 8003846:	680a      	ldr	r2, [r1, #0]
 8003848:	4992      	ldr	r1, [pc, #584]	; (8003a94 <stm32__device___elabs+0x61c>)
 800384a:	6043      	str	r3, [r0, #4]
 800384c:	810f      	strh	r7, [r1, #8]
 800384e:	604b      	str	r3, [r1, #4]
 8003850:	600e      	str	r6, [r1, #0]
 8003852:	4991      	ldr	r1, [pc, #580]	; (8003a98 <stm32__device___elabs+0x620>)
 8003854:	6006      	str	r6, [r0, #0]
 8003856:	810c      	strh	r4, [r1, #8]
 8003858:	f44f 6400 	mov.w	r4, #2048	; 0x800
 800385c:	488f      	ldr	r0, [pc, #572]	; (8003a9c <stm32__device___elabs+0x624>)
 800385e:	604b      	str	r3, [r1, #4]
 8003860:	8104      	strh	r4, [r0, #8]
 8003862:	f44f 5480 	mov.w	r4, #4096	; 0x1000
 8003866:	600e      	str	r6, [r1, #0]
 8003868:	498d      	ldr	r1, [pc, #564]	; (8003aa0 <stm32__device___elabs+0x628>)
 800386a:	6043      	str	r3, [r0, #4]
 800386c:	810c      	strh	r4, [r1, #8]
 800386e:	f04f 0402 	mov.w	r4, #2
 8003872:	604b      	str	r3, [r1, #4]
 8003874:	600e      	str	r6, [r1, #0]
 8003876:	498b      	ldr	r1, [pc, #556]	; (8003aa4 <stm32__device___elabs+0x62c>)
 8003878:	6006      	str	r6, [r0, #0]
 800387a:	604b      	str	r3, [r1, #4]
 800387c:	f8a1 e008 	strh.w	lr, [r1, #8]
 8003880:	600e      	str	r6, [r1, #0]
 8003882:	4989      	ldr	r1, [pc, #548]	; (8003aa8 <stm32__device___elabs+0x630>)
 8003884:	4889      	ldr	r0, [pc, #548]	; (8003aac <stm32__device___elabs+0x634>)
 8003886:	810c      	strh	r4, [r1, #8]
 8003888:	f04f 0404 	mov.w	r4, #4
 800388c:	6043      	str	r3, [r0, #4]
 800388e:	f8a0 8008 	strh.w	r8, [r0, #8]
 8003892:	6006      	str	r6, [r0, #0]
 8003894:	4886      	ldr	r0, [pc, #536]	; (8003ab0 <stm32__device___elabs+0x638>)
 8003896:	604a      	str	r2, [r1, #4]
 8003898:	6043      	str	r3, [r0, #4]
 800389a:	f8a0 c008 	strh.w	ip, [r0, #8]
 800389e:	4b85      	ldr	r3, [pc, #532]	; (8003ab4 <stm32__device___elabs+0x63c>)
 80038a0:	6006      	str	r6, [r0, #0]
 80038a2:	4885      	ldr	r0, [pc, #532]	; (8003ab8 <stm32__device___elabs+0x640>)
 80038a4:	605a      	str	r2, [r3, #4]
 80038a6:	f8a3 b008 	strh.w	fp, [r3, #8]
 80038aa:	601e      	str	r6, [r3, #0]
 80038ac:	600e      	str	r6, [r1, #0]
 80038ae:	8104      	strh	r4, [r0, #8]
 80038b0:	f04f 0408 	mov.w	r4, #8
 80038b4:	4981      	ldr	r1, [pc, #516]	; (8003abc <stm32__device___elabs+0x644>)
 80038b6:	6042      	str	r2, [r0, #4]
 80038b8:	810c      	strh	r4, [r1, #8]
 80038ba:	f04f 0410 	mov.w	r4, #16
 80038be:	6006      	str	r6, [r0, #0]
 80038c0:	487f      	ldr	r0, [pc, #508]	; (8003ac0 <stm32__device___elabs+0x648>)
 80038c2:	4b80      	ldr	r3, [pc, #512]	; (8003ac4 <stm32__device___elabs+0x64c>)
 80038c4:	8104      	strh	r4, [r0, #8]
 80038c6:	f04f 0420 	mov.w	r4, #32
 80038ca:	811f      	strh	r7, [r3, #8]
 80038cc:	605a      	str	r2, [r3, #4]
 80038ce:	601e      	str	r6, [r3, #0]
 80038d0:	4b7d      	ldr	r3, [pc, #500]	; (8003ac8 <stm32__device___elabs+0x650>)
 80038d2:	6042      	str	r2, [r0, #4]
 80038d4:	811c      	strh	r4, [r3, #8]
 80038d6:	f04f 0480 	mov.w	r4, #128	; 0x80
 80038da:	6006      	str	r6, [r0, #0]
 80038dc:	487b      	ldr	r0, [pc, #492]	; (8003acc <stm32__device___elabs+0x654>)
 80038de:	605a      	str	r2, [r3, #4]
 80038e0:	8104      	strh	r4, [r0, #8]
 80038e2:	f44f 7480 	mov.w	r4, #256	; 0x100
 80038e6:	601e      	str	r6, [r3, #0]
 80038e8:	4b79      	ldr	r3, [pc, #484]	; (8003ad0 <stm32__device___elabs+0x658>)
 80038ea:	604a      	str	r2, [r1, #4]
 80038ec:	811c      	strh	r4, [r3, #8]
 80038ee:	f44f 7400 	mov.w	r4, #512	; 0x200
 80038f2:	600e      	str	r6, [r1, #0]
 80038f4:	4977      	ldr	r1, [pc, #476]	; (8003ad4 <stm32__device___elabs+0x65c>)
 80038f6:	6042      	str	r2, [r0, #4]
 80038f8:	604a      	str	r2, [r1, #4]
 80038fa:	f8a1 a008 	strh.w	sl, [r1, #8]
 80038fe:	600e      	str	r6, [r1, #0]
 8003900:	4975      	ldr	r1, [pc, #468]	; (8003ad8 <stm32__device___elabs+0x660>)
 8003902:	6006      	str	r6, [r0, #0]
 8003904:	810c      	strh	r4, [r1, #8]
 8003906:	f44f 6400 	mov.w	r4, #2048	; 0x800
 800390a:	4874      	ldr	r0, [pc, #464]	; (8003adc <stm32__device___elabs+0x664>)
 800390c:	605a      	str	r2, [r3, #4]
 800390e:	8104      	strh	r4, [r0, #8]
 8003910:	f44f 5480 	mov.w	r4, #4096	; 0x1000
 8003914:	601e      	str	r6, [r3, #0]
 8003916:	4b72      	ldr	r3, [pc, #456]	; (8003ae0 <stm32__device___elabs+0x668>)
 8003918:	604a      	str	r2, [r1, #4]
 800391a:	600e      	str	r6, [r1, #0]
 800391c:	811c      	strh	r4, [r3, #8]
 800391e:	4971      	ldr	r1, [pc, #452]	; (8003ae4 <stm32__device___elabs+0x66c>)
 8003920:	4c71      	ldr	r4, [pc, #452]	; (8003ae8 <stm32__device___elabs+0x670>)
 8003922:	6042      	str	r2, [r0, #4]
 8003924:	6006      	str	r6, [r0, #0]
 8003926:	605a      	str	r2, [r3, #4]
 8003928:	601e      	str	r6, [r3, #0]
 800392a:	604a      	str	r2, [r1, #4]
 800392c:	6062      	str	r2, [r4, #4]
 800392e:	f8a4 c008 	strh.w	ip, [r4, #8]
 8003932:	6026      	str	r6, [r4, #0]
 8003934:	f04f 0402 	mov.w	r4, #2
 8003938:	f8a1 8008 	strh.w	r8, [r1, #8]
 800393c:	600e      	str	r6, [r1, #0]
 800393e:	496b      	ldr	r1, [pc, #428]	; (8003aec <stm32__device___elabs+0x674>)
 8003940:	486b      	ldr	r0, [pc, #428]	; (8003af0 <stm32__device___elabs+0x678>)
 8003942:	604a      	str	r2, [r1, #4]
 8003944:	f8a1 e008 	strh.w	lr, [r1, #8]
 8003948:	600e      	str	r6, [r1, #0]
 800394a:	496a      	ldr	r1, [pc, #424]	; (8003af4 <stm32__device___elabs+0x67c>)
 800394c:	4a6a      	ldr	r2, [pc, #424]	; (8003af8 <stm32__device___elabs+0x680>)
 800394e:	810c      	strh	r4, [r1, #8]
 8003950:	f04f 0404 	mov.w	r4, #4
 8003954:	8114      	strh	r4, [r2, #8]
 8003956:	f04f 0408 	mov.w	r4, #8
 800395a:	6803      	ldr	r3, [r0, #0]
 800395c:	4867      	ldr	r0, [pc, #412]	; (8003afc <stm32__device___elabs+0x684>)
 800395e:	604b      	str	r3, [r1, #4]
 8003960:	6043      	str	r3, [r0, #4]
 8003962:	f8a0 b008 	strh.w	fp, [r0, #8]
 8003966:	6006      	str	r6, [r0, #0]
 8003968:	4865      	ldr	r0, [pc, #404]	; (8003b00 <stm32__device___elabs+0x688>)
 800396a:	600e      	str	r6, [r1, #0]
 800396c:	8104      	strh	r4, [r0, #8]
 800396e:	f04f 0410 	mov.w	r4, #16
 8003972:	4964      	ldr	r1, [pc, #400]	; (8003b04 <stm32__device___elabs+0x68c>)
 8003974:	6053      	str	r3, [r2, #4]
 8003976:	810c      	strh	r4, [r1, #8]
 8003978:	f04f 0420 	mov.w	r4, #32
 800397c:	6016      	str	r6, [r2, #0]
 800397e:	4a62      	ldr	r2, [pc, #392]	; (8003b08 <stm32__device___elabs+0x690>)
 8003980:	604b      	str	r3, [r1, #4]
 8003982:	8114      	strh	r4, [r2, #8]
 8003984:	f04f 0480 	mov.w	r4, #128	; 0x80
 8003988:	600e      	str	r6, [r1, #0]
 800398a:	4960      	ldr	r1, [pc, #384]	; (8003b0c <stm32__device___elabs+0x694>)
 800398c:	6043      	str	r3, [r0, #4]
 800398e:	604b      	str	r3, [r1, #4]
 8003990:	810c      	strh	r4, [r1, #8]
 8003992:	600e      	str	r6, [r1, #0]
 8003994:	f44f 7180 	mov.w	r1, #256	; 0x100
 8003998:	6006      	str	r6, [r0, #0]
 800399a:	6053      	str	r3, [r2, #4]
 800399c:	485c      	ldr	r0, [pc, #368]	; (8003b10 <stm32__device___elabs+0x698>)
 800399e:	6016      	str	r6, [r2, #0]
 80039a0:	4a5c      	ldr	r2, [pc, #368]	; (8003b14 <stm32__device___elabs+0x69c>)
 80039a2:	6043      	str	r3, [r0, #4]
 80039a4:	f8a0 a008 	strh.w	sl, [r0, #8]
 80039a8:	6006      	str	r6, [r0, #0]
 80039aa:	6053      	str	r3, [r2, #4]
 80039ac:	8111      	strh	r1, [r2, #8]
 80039ae:	6016      	str	r6, [r2, #0]
 80039b0:	4a59      	ldr	r2, [pc, #356]	; (8003b18 <stm32__device___elabs+0x6a0>)
 80039b2:	f44f 7500 	mov.w	r5, #512	; 0x200
 80039b6:	8117      	strh	r7, [r2, #8]
 80039b8:	6053      	str	r3, [r2, #4]
 80039ba:	6016      	str	r6, [r2, #0]
 80039bc:	f04f 0202 	mov.w	r2, #2
 80039c0:	4856      	ldr	r0, [pc, #344]	; (8003b1c <stm32__device___elabs+0x6a4>)
 80039c2:	4c57      	ldr	r4, [pc, #348]	; (8003b20 <stm32__device___elabs+0x6a8>)
 80039c4:	f8d0 9000 	ldr.w	r9, [r0]
 80039c8:	4856      	ldr	r0, [pc, #344]	; (8003b24 <stm32__device___elabs+0x6ac>)
 80039ca:	6063      	str	r3, [r4, #4]
 80039cc:	8102      	strh	r2, [r0, #8]
 80039ce:	4a56      	ldr	r2, [pc, #344]	; (8003b28 <stm32__device___elabs+0x6b0>)
 80039d0:	e880 0240 	stmia.w	r0, {r6, r9}
 80039d4:	8115      	strh	r5, [r2, #8]
 80039d6:	f44f 6500 	mov.w	r5, #2048	; 0x800
 80039da:	f04f 0004 	mov.w	r0, #4
 80039de:	8125      	strh	r5, [r4, #8]
 80039e0:	6026      	str	r6, [r4, #0]
 80039e2:	f44f 5480 	mov.w	r4, #4096	; 0x1000
 80039e6:	4951      	ldr	r1, [pc, #324]	; (8003b2c <stm32__device___elabs+0x6b4>)
 80039e8:	4d51      	ldr	r5, [pc, #324]	; (8003b30 <stm32__device___elabs+0x6b8>)
 80039ea:	8108      	strh	r0, [r1, #8]
 80039ec:	4851      	ldr	r0, [pc, #324]	; (8003b34 <stm32__device___elabs+0x6bc>)
 80039ee:	e881 0240 	stmia.w	r1, {r6, r9}
 80039f2:	6043      	str	r3, [r0, #4]
 80039f4:	8104      	strh	r4, [r0, #8]
 80039f6:	6006      	str	r6, [r0, #0]
 80039f8:	484f      	ldr	r0, [pc, #316]	; (8003b38 <stm32__device___elabs+0x6c0>)
 80039fa:	4950      	ldr	r1, [pc, #320]	; (8003b3c <stm32__device___elabs+0x6c4>)
 80039fc:	6053      	str	r3, [r2, #4]
 80039fe:	6016      	str	r6, [r2, #0]
 8003a00:	4c4f      	ldr	r4, [pc, #316]	; (8003b40 <stm32__device___elabs+0x6c8>)
 8003a02:	4a50      	ldr	r2, [pc, #320]	; (8003b44 <stm32__device___elabs+0x6cc>)
 8003a04:	606b      	str	r3, [r5, #4]
 8003a06:	f8a5 c008 	strh.w	ip, [r5, #8]
 8003a0a:	602e      	str	r6, [r5, #0]
 8003a0c:	f8c0 9004 	str.w	r9, [r0, #4]
 8003a10:	f8a0 b008 	strh.w	fp, [r0, #8]
 8003a14:	6006      	str	r6, [r0, #0]
 8003a16:	f04f 0508 	mov.w	r5, #8
 8003a1a:	484b      	ldr	r0, [pc, #300]	; (8003b48 <stm32__device___elabs+0x6d0>)
 8003a1c:	604b      	str	r3, [r1, #4]
 8003a1e:	f8a1 8008 	strh.w	r8, [r1, #8]
 8003a22:	600e      	str	r6, [r1, #0]
 8003a24:	6053      	str	r3, [r2, #4]
 8003a26:	f8a2 e008 	strh.w	lr, [r2, #8]
 8003a2a:	6016      	str	r6, [r2, #0]
 8003a2c:	f8c4 9004 	str.w	r9, [r4, #4]
 8003a30:	e880 0240 	stmia.w	r0, {r6, r9}
 8003a34:	f8a0 a008 	strh.w	sl, [r0, #8]
 8003a38:	f04f 0080 	mov.w	r0, #128	; 0x80
 8003a3c:	8125      	strh	r5, [r4, #8]
 8003a3e:	4d43      	ldr	r5, [pc, #268]	; (8003b4c <stm32__device___elabs+0x6d4>)
 8003a40:	6026      	str	r6, [r4, #0]
 8003a42:	e885 0240 	stmia.w	r5, {r6, r9}
 8003a46:	8128      	strh	r0, [r5, #8]
 8003a48:	f44f 7580 	mov.w	r5, #256	; 0x100
 8003a4c:	4c40      	ldr	r4, [pc, #256]	; (8003b50 <stm32__device___elabs+0x6d8>)
 8003a4e:	4941      	ldr	r1, [pc, #260]	; (8003b54 <stm32__device___elabs+0x6dc>)
 8003a50:	8125      	strh	r5, [r4, #8]
 8003a52:	f44f 7500 	mov.w	r5, #512	; 0x200
 8003a56:	e884 0240 	stmia.w	r4, {r6, r9}
 8003a5a:	4c3f      	ldr	r4, [pc, #252]	; (8003b58 <stm32__device___elabs+0x6e0>)
 8003a5c:	e881 0240 	stmia.w	r1, {r6, r9}
 8003a60:	810f      	strh	r7, [r1, #8]
 8003a62:	8125      	strh	r5, [r4, #8]
 8003a64:	f04f 0110 	mov.w	r1, #16
 8003a68:	4d3b      	ldr	r5, [pc, #236]	; (8003b58 <stm32__device___elabs+0x6e0>)
 8003a6a:	4a3c      	ldr	r2, [pc, #240]	; (8003b5c <stm32__device___elabs+0x6e4>)
 8003a6c:	e885 0240 	stmia.w	r5, {r6, r9}
 8003a70:	f44f 6500 	mov.w	r5, #2048	; 0x800
 8003a74:	e882 0240 	stmia.w	r2, {r6, r9}
 8003a78:	e072      	b.n	8003b60 <stm32__device___elabs+0x6e8>
 8003a7a:	bf00      	nop
 8003a7c:	20000954 	.word	0x20000954
 8003a80:	2000096c 	.word	0x2000096c
 8003a84:	20000960 	.word	0x20000960
 8003a88:	20000990 	.word	0x20000990
 8003a8c:	20000978 	.word	0x20000978
 8003a90:	20000344 	.word	0x20000344
 8003a94:	20000584 	.word	0x20000584
 8003a98:	20000984 	.word	0x20000984
 8003a9c:	20000590 	.word	0x20000590
 8003aa0:	2000059c 	.word	0x2000059c
 8003aa4:	200005b4 	.word	0x200005b4
 8003aa8:	20000514 	.word	0x20000514
 8003aac:	200005a8 	.word	0x200005a8
 8003ab0:	200005c0 	.word	0x200005c0
 8003ab4:	2000062c 	.word	0x2000062c
 8003ab8:	2000081c 	.word	0x2000081c
 8003abc:	20000520 	.word	0x20000520
 8003ac0:	2000052c 	.word	0x2000052c
 8003ac4:	200004cc 	.word	0x200004cc
 8003ac8:	20000538 	.word	0x20000538
 8003acc:	20000550 	.word	0x20000550
 8003ad0:	2000055c 	.word	0x2000055c
 8003ad4:	20000544 	.word	0x20000544
 8003ad8:	20000568 	.word	0x20000568
 8003adc:	200004d8 	.word	0x200004d8
 8003ae0:	200004e4 	.word	0x200004e4
 8003ae4:	200004f0 	.word	0x200004f0
 8003ae8:	20000508 	.word	0x20000508
 8003aec:	200004fc 	.word	0x200004fc
 8003af0:	20000348 	.word	0x20000348
 8003af4:	2000064c 	.word	0x2000064c
 8003af8:	20000658 	.word	0x20000658
 8003afc:	20000640 	.word	0x20000640
 8003b00:	20000664 	.word	0x20000664
 8003b04:	20000670 	.word	0x20000670
 8003b08:	2000067c 	.word	0x2000067c
 8003b0c:	20000694 	.word	0x20000694
 8003b10:	20000688 	.word	0x20000688
 8003b14:	200006a0 	.word	0x200006a0
 8003b18:	200003e8 	.word	0x200003e8
 8003b1c:	20000358 	.word	0x20000358
 8003b20:	200003f4 	.word	0x200003f4
 8003b24:	20000828 	.word	0x20000828
 8003b28:	200006ac 	.word	0x200006ac
 8003b2c:	20000834 	.word	0x20000834
 8003b30:	20000424 	.word	0x20000424
 8003b34:	20000400 	.word	0x20000400
 8003b38:	200006b8 	.word	0x200006b8
 8003b3c:	2000040c 	.word	0x2000040c
 8003b40:	20000840 	.word	0x20000840
 8003b44:	20000418 	.word	0x20000418
 8003b48:	20000864 	.word	0x20000864
 8003b4c:	20000870 	.word	0x20000870
 8003b50:	2000087c 	.word	0x2000087c
 8003b54:	200003dc 	.word	0x200003dc
 8003b58:	20000888 	.word	0x20000888
 8003b5c:	2000084c 	.word	0x2000084c
 8003b60:	8111      	strh	r1, [r2, #8]
 8003b62:	4f48      	ldr	r7, [pc, #288]	; (8003c84 <stm32__device___elabs+0x80c>)
 8003b64:	f04f 0220 	mov.w	r2, #32
 8003b68:	813d      	strh	r5, [r7, #8]
 8003b6a:	f44f 5580 	mov.w	r5, #4096	; 0x1000
 8003b6e:	4b46      	ldr	r3, [pc, #280]	; (8003c88 <stm32__device___elabs+0x810>)
 8003b70:	4946      	ldr	r1, [pc, #280]	; (8003c8c <stm32__device___elabs+0x814>)
 8003b72:	811a      	strh	r2, [r3, #8]
 8003b74:	e883 0240 	stmia.w	r3, {r6, r9}
 8003b78:	4a45      	ldr	r2, [pc, #276]	; (8003c90 <stm32__device___elabs+0x818>)
 8003b7a:	4b46      	ldr	r3, [pc, #280]	; (8003c94 <stm32__device___elabs+0x81c>)
 8003b7c:	f8df a174 	ldr.w	sl, [pc, #372]	; 8003cf4 <stm32__device___elabs+0x87c>
 8003b80:	e887 0240 	stmia.w	r7, {r6, r9}
 8003b84:	e881 0240 	stmia.w	r1, {r6, r9}
 8003b88:	e882 0240 	stmia.w	r2, {r6, r9}
 8003b8c:	810d      	strh	r5, [r1, #8]
 8003b8e:	f8a2 8008 	strh.w	r8, [r2, #8]
 8003b92:	f8a3 e008 	strh.w	lr, [r3, #8]
 8003b96:	4a40      	ldr	r2, [pc, #256]	; (8003c98 <stm32__device___elabs+0x820>)
 8003b98:	f8c3 9004 	str.w	r9, [r3, #4]
 8003b9c:	4d3f      	ldr	r5, [pc, #252]	; (8003c9c <stm32__device___elabs+0x824>)
 8003b9e:	601e      	str	r6, [r3, #0]
 8003ba0:	f8da 3000 	ldr.w	r3, [sl]
 8003ba4:	682d      	ldr	r5, [r5, #0]
 8003ba6:	6053      	str	r3, [r2, #4]
 8003ba8:	4b3d      	ldr	r3, [pc, #244]	; (8003ca0 <stm32__device___elabs+0x828>)
 8003baa:	b087      	sub	sp, #28
 8003bac:	605d      	str	r5, [r3, #4]
 8003bae:	4d3d      	ldr	r5, [pc, #244]	; (8003ca4 <stm32__device___elabs+0x82c>)
 8003bb0:	483d      	ldr	r0, [pc, #244]	; (8003ca8 <stm32__device___elabs+0x830>)
 8003bb2:	682d      	ldr	r5, [r5, #0]
 8003bb4:	493d      	ldr	r1, [pc, #244]	; (8003cac <stm32__device___elabs+0x834>)
 8003bb6:	9502      	str	r5, [sp, #8]
 8003bb8:	4d3d      	ldr	r5, [pc, #244]	; (8003cb0 <stm32__device___elabs+0x838>)
 8003bba:	6800      	ldr	r0, [r0, #0]
 8003bbc:	682d      	ldr	r5, [r5, #0]
 8003bbe:	9001      	str	r0, [sp, #4]
 8003bc0:	6011      	str	r1, [r2, #0]
 8003bc2:	6019      	str	r1, [r3, #0]
 8003bc4:	2100      	movs	r1, #0
 8003bc6:	483b      	ldr	r0, [pc, #236]	; (8003cb4 <stm32__device___elabs+0x83c>)
 8003bc8:	9503      	str	r5, [sp, #12]
 8003bca:	f882 b00d 	strb.w	fp, [r2, #13]
 8003bce:	f882 b013 	strb.w	fp, [r2, #19]
 8003bd2:	7311      	strb	r1, [r2, #12]
 8003bd4:	7491      	strb	r1, [r2, #18]
 8003bd6:	7511      	strb	r1, [r2, #20]
 8003bd8:	f8df e11c 	ldr.w	lr, [pc, #284]	; 8003cf8 <stm32__device___elabs+0x880>
 8003bdc:	9a01      	ldr	r2, [sp, #4]
 8003bde:	4c36      	ldr	r4, [pc, #216]	; (8003cb8 <stm32__device___elabs+0x840>)
 8003be0:	4d36      	ldr	r5, [pc, #216]	; (8003cbc <stm32__device___elabs+0x844>)
 8003be2:	e88e 0005 	stmia.w	lr, {r0, r2}
 8003be6:	f8df 8114 	ldr.w	r8, [pc, #276]	; 8003cfc <stm32__device___elabs+0x884>
 8003bea:	682d      	ldr	r5, [r5, #0]
 8003bec:	6824      	ldr	r4, [r4, #0]
 8003bee:	9a02      	ldr	r2, [sp, #8]
 8003bf0:	4f33      	ldr	r7, [pc, #204]	; (8003cc0 <stm32__device___elabs+0x848>)
 8003bf2:	e888 0240 	stmia.w	r8, {r6, r9}
 8003bf6:	9504      	str	r5, [sp, #16]
 8003bf8:	9405      	str	r4, [sp, #20]
 8003bfa:	f8a8 c008 	strh.w	ip, [r8, #8]
 8003bfe:	f883 b00d 	strb.w	fp, [r3, #13]
 8003c02:	f883 b013 	strb.w	fp, [r3, #19]
 8003c06:	7319      	strb	r1, [r3, #12]
 8003c08:	7499      	strb	r1, [r3, #18]
 8003c0a:	4e2e      	ldr	r6, [pc, #184]	; (8003cc4 <stm32__device___elabs+0x84c>)
 8003c0c:	e887 0005 	stmia.w	r7, {r0, r2}
 8003c10:	9a03      	ldr	r2, [sp, #12]
 8003c12:	7519      	strb	r1, [r3, #20]
 8003c14:	e886 0005 	stmia.w	r6, {r0, r2}
 8003c18:	4d2b      	ldr	r5, [pc, #172]	; (8003cc8 <stm32__device___elabs+0x850>)
 8003c1a:	9a04      	ldr	r2, [sp, #16]
 8003c1c:	4b2b      	ldr	r3, [pc, #172]	; (8003ccc <stm32__device___elabs+0x854>)
 8003c1e:	e885 0005 	stmia.w	r5, {r0, r2}
 8003c22:	681b      	ldr	r3, [r3, #0]
 8003c24:	4d2a      	ldr	r5, [pc, #168]	; (8003cd0 <stm32__device___elabs+0x858>)
 8003c26:	f8df a0d8 	ldr.w	sl, [pc, #216]	; 8003d00 <stm32__device___elabs+0x888>
 8003c2a:	606b      	str	r3, [r5, #4]
 8003c2c:	4b29      	ldr	r3, [pc, #164]	; (8003cd4 <stm32__device___elabs+0x85c>)
 8003c2e:	4c2a      	ldr	r4, [pc, #168]	; (8003cd8 <stm32__device___elabs+0x860>)
 8003c30:	9a05      	ldr	r2, [sp, #20]
 8003c32:	f8d3 b000 	ldr.w	fp, [r3]
 8003c36:	4f29      	ldr	r7, [pc, #164]	; (8003cdc <stm32__device___elabs+0x864>)
 8003c38:	f8da 3000 	ldr.w	r3, [sl]
 8003c3c:	f8df 90c4 	ldr.w	r9, [pc, #196]	; 8003d04 <stm32__device___elabs+0x88c>
 8003c40:	f8df c0c4 	ldr.w	ip, [pc, #196]	; 8003d08 <stm32__device___elabs+0x890>
 8003c44:	f8df 80c4 	ldr.w	r8, [pc, #196]	; 8003d0c <stm32__device___elabs+0x894>
 8003c48:	6020      	str	r0, [r4, #0]
 8003c4a:	6062      	str	r2, [r4, #4]
 8003c4c:	4824      	ldr	r0, [pc, #144]	; (8003ce0 <stm32__device___elabs+0x868>)
 8003c4e:	4a25      	ldr	r2, [pc, #148]	; (8003ce4 <stm32__device___elabs+0x86c>)
 8003c50:	f8df e0bc 	ldr.w	lr, [pc, #188]	; 8003d10 <stm32__device___elabs+0x898>
 8003c54:	607b      	str	r3, [r7, #4]
 8003c56:	f8d9 a000 	ldr.w	sl, [r9]
 8003c5a:	4b23      	ldr	r3, [pc, #140]	; (8003ce8 <stm32__device___elabs+0x870>)
 8003c5c:	4c23      	ldr	r4, [pc, #140]	; (8003cec <stm32__device___elabs+0x874>)
 8003c5e:	f8d8 8000 	ldr.w	r8, [r8]
 8003c62:	4e23      	ldr	r6, [pc, #140]	; (8003cf0 <stm32__device___elabs+0x878>)
 8003c64:	f8dc 1000 	ldr.w	r1, [ip]
 8003c68:	602a      	str	r2, [r5, #0]
 8003c6a:	6041      	str	r1, [r0, #4]
 8003c6c:	e88e 0804 	stmia.w	lr, {r2, fp}
 8003c70:	603a      	str	r2, [r7, #0]
 8003c72:	e884 0408 	stmia.w	r4, {r3, sl}
 8003c76:	e886 0108 	stmia.w	r6, {r3, r8}
 8003c7a:	6003      	str	r3, [r0, #0]
 8003c7c:	b007      	add	sp, #28
 8003c7e:	e8bd 8ff0 	ldmia.w	sp!, {r4, r5, r6, r7, r8, r9, sl, fp, pc}
 8003c82:	bf00      	nop
 8003c84:	200004c0 	.word	0x200004c0
 8003c88:	20000858 	.word	0x20000858
 8003c8c:	200008e8 	.word	0x200008e8
 8003c90:	200005cc 	.word	0x200005cc
 8003c94:	20000430 	.word	0x20000430
 8003c98:	2000070c 	.word	0x2000070c
 8003c9c:	20000354 	.word	0x20000354
 8003ca0:	20000724 	.word	0x20000724
 8003ca4:	20000320 	.word	0x20000320
 8003ca8:	2000032c 	.word	0x2000032c
 8003cac:	0800a35c 	.word	0x0800a35c
 8003cb0:	20000330 	.word	0x20000330
 8003cb4:	0800a210 	.word	0x0800a210
 8003cb8:	2000030c 	.word	0x2000030c
 8003cbc:	2000035c 	.word	0x2000035c
 8003cc0:	20000574 	.word	0x20000574
 8003cc4:	2000057c 	.word	0x2000057c
 8003cc8:	200008bc 	.word	0x200008bc
 8003ccc:	20000324 	.word	0x20000324
 8003cd0:	2000073c 	.word	0x2000073c
 8003cd4:	20000310 	.word	0x20000310
 8003cd8:	2000099c 	.word	0x2000099c
 8003cdc:	20000744 	.word	0x20000744
 8003ce0:	20000814 	.word	0x20000814
 8003ce4:	0800a460 	.word	0x0800a460
 8003ce8:	0800a590 	.word	0x0800a590
 8003cec:	2000089c 	.word	0x2000089c
 8003cf0:	2000080c 	.word	0x2000080c
 8003cf4:	20000350 	.word	0x20000350
 8003cf8:	20000638 	.word	0x20000638
 8003cfc:	2000043c 	.word	0x2000043c
 8003d00:	2000034c 	.word	0x2000034c
 8003d04:	20000314 	.word	0x20000314
 8003d08:	2000031c 	.word	0x2000031c
 8003d0c:	20000318 	.word	0x20000318
 8003d10:	20000894 	.word	0x20000894

08003d14 <stm32__usarts___size__2>:
 8003d14:	2040      	movs	r0, #64	; 0x40
 8003d16:	2100      	movs	r1, #0
 8003d18:	4770      	bx	lr
 8003d1a:	bf00      	nop

08003d1c <stm32__usarts__set_oversampling_mode>:
 8003d1c:	4770      	bx	lr
 8003d1e:	bf00      	nop

08003d20 <stm32__usarts__data_register_address>:
 8003d20:	6840      	ldr	r0, [r0, #4]
 8003d22:	3004      	adds	r0, #4
 8003d24:	4770      	bx	lr
 8003d26:	bf00      	nop

08003d28 <stm32__usarts__apb_clock>:
 8003d28:	b510      	push	{r4, lr}
 8003d2a:	4604      	mov	r4, r0
 8003d2c:	b088      	sub	sp, #32
 8003d2e:	a801      	add	r0, sp, #4
 8003d30:	f7ff fb4a 	bl	80033c8 <stm32__device__system_clock_frequencies>
 8003d34:	6860      	ldr	r0, [r4, #4]
 8003d36:	9a03      	ldr	r2, [sp, #12]
 8003d38:	9b04      	ldr	r3, [sp, #16]
 8003d3a:	4903      	ldr	r1, [pc, #12]	; (8003d48 <stm32__usarts__apb_clock+0x20>)
 8003d3c:	4288      	cmp	r0, r1
 8003d3e:	bf14      	ite	ne
 8003d40:	4610      	movne	r0, r2
 8003d42:	4618      	moveq	r0, r3
 8003d44:	b008      	add	sp, #32
 8003d46:	bd10      	pop	{r4, pc}
 8003d48:	40013800 	.word	0x40013800

08003d4c <stm32__usarts__enabled>:
 8003d4c:	6843      	ldr	r3, [r0, #4]
 8003d4e:	68d8      	ldr	r0, [r3, #12]
 8003d50:	f3c0 3040 	ubfx	r0, r0, #13, #1
 8003d54:	4770      	bx	lr
 8003d56:	bf00      	nop

08003d58 <stm32__usarts__current_input>:
 8003d58:	6843      	ldr	r3, [r0, #4]
 8003d5a:	6858      	ldr	r0, [r3, #4]
 8003d5c:	f3c0 0008 	ubfx	r0, r0, #0, #9
 8003d60:	4770      	bx	lr
 8003d62:	bf00      	nop

08003d64 <stm32__usarts__receive>:
 8003d64:	6843      	ldr	r3, [r0, #4]
 8003d66:	6858      	ldr	r0, [r3, #4]
 8003d68:	f3c0 0008 	ubfx	r0, r0, #0, #9
 8003d6c:	4770      	bx	lr
 8003d6e:	bf00      	nop

08003d70 <stm32__usarts__tx_ready>:
 8003d70:	6843      	ldr	r3, [r0, #4]
 8003d72:	6818      	ldr	r0, [r3, #0]
 8003d74:	f3c0 10c0 	ubfx	r0, r0, #7, #1
 8003d78:	4770      	bx	lr
 8003d7a:	bf00      	nop

08003d7c <stm32__usarts__rx_ready>:
 8003d7c:	6843      	ldr	r3, [r0, #4]
 8003d7e:	6818      	ldr	r0, [r3, #0]
 8003d80:	f3c0 1040 	ubfx	r0, r0, #5, #1
 8003d84:	4770      	bx	lr
 8003d86:	bf00      	nop

08003d88 <stm32__usarts__receive__2>:
 8003d88:	b430      	push	{r4, r5}
 8003d8a:	e893 0030 	ldmia.w	r3, {r4, r5}
 8003d8e:	42ac      	cmp	r4, r5
 8003d90:	dc0a      	bgt.n	8003da8 <stm32__usarts__receive__2+0x20>
 8003d92:	6841      	ldr	r1, [r0, #4]
 8003d94:	1aa4      	subs	r4, r4, r2
 8003d96:	18a0      	adds	r0, r4, r2
 8003d98:	680b      	ldr	r3, [r1, #0]
 8003d9a:	069b      	lsls	r3, r3, #26
 8003d9c:	d5fc      	bpl.n	8003d98 <stm32__usarts__receive__2+0x10>
 8003d9e:	684b      	ldr	r3, [r1, #4]
 8003da0:	4285      	cmp	r5, r0
 8003da2:	f802 3b01 	strb.w	r3, [r2], #1
 8003da6:	d1f6      	bne.n	8003d96 <stm32__usarts__receive__2+0xe>
 8003da8:	2000      	movs	r0, #0
 8003daa:	bc30      	pop	{r4, r5}
 8003dac:	4770      	bx	lr
 8003dae:	bf00      	nop

08003db0 <stm32__usarts__receive__3>:
 8003db0:	b430      	push	{r4, r5}
 8003db2:	e893 0030 	ldmia.w	r3, {r4, r5}
 8003db6:	42ac      	cmp	r4, r5
 8003db8:	dc0e      	bgt.n	8003dd8 <stm32__usarts__receive__3+0x28>
 8003dba:	6841      	ldr	r1, [r0, #4]
 8003dbc:	eba2 0044 	sub.w	r0, r2, r4, lsl #1
 8003dc0:	1e62      	subs	r2, r4, #1
 8003dc2:	3201      	adds	r2, #1
 8003dc4:	680b      	ldr	r3, [r1, #0]
 8003dc6:	069b      	lsls	r3, r3, #26
 8003dc8:	d5fc      	bpl.n	8003dc4 <stm32__usarts__receive__3+0x14>
 8003dca:	684b      	ldr	r3, [r1, #4]
 8003dcc:	4295      	cmp	r5, r2
 8003dce:	f3c3 0308 	ubfx	r3, r3, #0, #9
 8003dd2:	f820 3012 	strh.w	r3, [r0, r2, lsl #1]
 8003dd6:	d1f4      	bne.n	8003dc2 <stm32__usarts__receive__3+0x12>
 8003dd8:	2000      	movs	r0, #0
 8003dda:	bc30      	pop	{r4, r5}
 8003ddc:	4770      	bx	lr
 8003dde:	bf00      	nop

08003de0 <stm32__usarts__dma_transmit_requests_enabled>:
 8003de0:	6843      	ldr	r3, [r0, #4]
 8003de2:	6958      	ldr	r0, [r3, #20]
 8003de4:	f3c0 10c0 	ubfx	r0, r0, #7, #1
 8003de8:	4770      	bx	lr
 8003dea:	bf00      	nop

08003dec <stm32__usarts__dma_receive_requests_enabled>:
 8003dec:	6843      	ldr	r3, [r0, #4]
 8003dee:	6958      	ldr	r0, [r3, #20]
 8003df0:	f3c0 1080 	ubfx	r0, r0, #6, #1
 8003df4:	4770      	bx	lr
 8003df6:	bf00      	nop

08003df8 <stm32__usarts__data_size>:
 8003df8:	6843      	ldr	r3, [r0, #4]
 8003dfa:	68d8      	ldr	r0, [r3, #12]
 8003dfc:	f3c0 3000 	ubfx	r0, r0, #12, #1
 8003e00:	4770      	bx	lr
 8003e02:	bf00      	nop

08003e04 <stm32__usarts__enable>:
 8003e04:	6842      	ldr	r2, [r0, #4]
 8003e06:	68d3      	ldr	r3, [r2, #12]
 8003e08:	f443 5300 	orr.w	r3, r3, #8192	; 0x2000
 8003e0c:	60d3      	str	r3, [r2, #12]
 8003e0e:	4770      	bx	lr

08003e10 <stm32__usarts__disable>:
 8003e10:	6842      	ldr	r2, [r0, #4]
 8003e12:	68d3      	ldr	r3, [r2, #12]
 8003e14:	f36f 334d 	bfc	r3, #13, #1
 8003e18:	60d3      	str	r3, [r2, #12]
 8003e1a:	4770      	bx	lr

08003e1c <stm32__usarts__set_stop_bits>:
 8003e1c:	6842      	ldr	r2, [r0, #4]
 8003e1e:	6913      	ldr	r3, [r2, #16]
 8003e20:	f361 330d 	bfi	r3, r1, #12, #2
 8003e24:	6113      	str	r3, [r2, #16]
 8003e26:	4770      	bx	lr

08003e28 <stm32__usarts__set_word_length>:
 8003e28:	f1a1 0101 	sub.w	r1, r1, #1
 8003e2c:	fab1 f181 	clz	r1, r1
 8003e30:	6842      	ldr	r2, [r0, #4]
 8003e32:	0949      	lsrs	r1, r1, #5
 8003e34:	68d3      	ldr	r3, [r2, #12]
 8003e36:	f361 330c 	bfi	r3, r1, #12, #1
 8003e3a:	60d3      	str	r3, [r2, #12]
 8003e3c:	4770      	bx	lr
 8003e3e:	bf00      	nop

08003e40 <stm32__usarts__set_parity>:
 8003e40:	b1b9      	cbz	r1, 8003e72 <stm32__usarts__set_parity+0x32>
 8003e42:	2901      	cmp	r1, #1
 8003e44:	d10a      	bne.n	8003e5c <stm32__usarts__set_parity+0x1c>
 8003e46:	6842      	ldr	r2, [r0, #4]
 8003e48:	68d3      	ldr	r3, [r2, #12]
 8003e4a:	f443 6380 	orr.w	r3, r3, #1024	; 0x400
 8003e4e:	60d3      	str	r3, [r2, #12]
 8003e50:	6842      	ldr	r2, [r0, #4]
 8003e52:	68d3      	ldr	r3, [r2, #12]
 8003e54:	f36f 2349 	bfc	r3, #9, #1
 8003e58:	60d3      	str	r3, [r2, #12]
 8003e5a:	4770      	bx	lr
 8003e5c:	6842      	ldr	r2, [r0, #4]
 8003e5e:	68d3      	ldr	r3, [r2, #12]
 8003e60:	f443 6380 	orr.w	r3, r3, #1024	; 0x400
 8003e64:	60d3      	str	r3, [r2, #12]
 8003e66:	6842      	ldr	r2, [r0, #4]
 8003e68:	68d3      	ldr	r3, [r2, #12]
 8003e6a:	f443 7300 	orr.w	r3, r3, #512	; 0x200
 8003e6e:	60d3      	str	r3, [r2, #12]
 8003e70:	4770      	bx	lr
 8003e72:	6842      	ldr	r2, [r0, #4]
 8003e74:	68d3      	ldr	r3, [r2, #12]
 8003e76:	f361 238a 	bfi	r3, r1, #10, #1
 8003e7a:	60d3      	str	r3, [r2, #12]
 8003e7c:	6842      	ldr	r2, [r0, #4]
 8003e7e:	68d3      	ldr	r3, [r2, #12]
 8003e80:	f361 2349 	bfi	r3, r1, #9, #1
 8003e84:	60d3      	str	r3, [r2, #12]
 8003e86:	4770      	bx	lr

08003e88 <stm32__usarts__set_mode>:
 8003e88:	b410      	push	{r4}
 8003e8a:	6842      	ldr	r2, [r0, #4]
 8003e8c:	f111 34ff 	adds.w	r4, r1, #4294967295
 8003e90:	68d3      	ldr	r3, [r2, #12]
 8003e92:	bf18      	it	ne
 8003e94:	2401      	movne	r4, #1
 8003e96:	f364 0382 	bfi	r3, r4, #2, #1
 8003e9a:	60d3      	str	r3, [r2, #12]
 8003e9c:	6842      	ldr	r2, [r0, #4]
 8003e9e:	3100      	adds	r1, #0
 8003ea0:	68d3      	ldr	r3, [r2, #12]
 8003ea2:	bf18      	it	ne
 8003ea4:	2101      	movne	r1, #1
 8003ea6:	f361 03c3 	bfi	r3, r1, #3, #1
 8003eaa:	60d3      	str	r3, [r2, #12]
 8003eac:	f85d 4b04 	ldr.w	r4, [sp], #4
 8003eb0:	4770      	bx	lr
 8003eb2:	bf00      	nop

08003eb4 <stm32__usarts__set_flow_control>:
 8003eb4:	2901      	cmp	r1, #1
 8003eb6:	d01d      	beq.n	8003ef4 <stm32__usarts__set_flow_control+0x40>
 8003eb8:	d311      	bcc.n	8003ede <stm32__usarts__set_flow_control+0x2a>
 8003eba:	2902      	cmp	r1, #2
 8003ebc:	d00a      	beq.n	8003ed4 <stm32__usarts__set_flow_control+0x20>
 8003ebe:	6842      	ldr	r2, [r0, #4]
 8003ec0:	6953      	ldr	r3, [r2, #20]
 8003ec2:	f443 7380 	orr.w	r3, r3, #256	; 0x100
 8003ec6:	6153      	str	r3, [r2, #20]
 8003ec8:	6842      	ldr	r2, [r0, #4]
 8003eca:	6953      	ldr	r3, [r2, #20]
 8003ecc:	f443 7300 	orr.w	r3, r3, #512	; 0x200
 8003ed0:	6153      	str	r3, [r2, #20]
 8003ed2:	4770      	bx	lr
 8003ed4:	6842      	ldr	r2, [r0, #4]
 8003ed6:	6953      	ldr	r3, [r2, #20]
 8003ed8:	f36f 2308 	bfc	r3, #8, #1
 8003edc:	e7f3      	b.n	8003ec6 <stm32__usarts__set_flow_control+0x12>
 8003ede:	6842      	ldr	r2, [r0, #4]
 8003ee0:	6953      	ldr	r3, [r2, #20]
 8003ee2:	f36f 2308 	bfc	r3, #8, #1
 8003ee6:	6153      	str	r3, [r2, #20]
 8003ee8:	6842      	ldr	r2, [r0, #4]
 8003eea:	6953      	ldr	r3, [r2, #20]
 8003eec:	f36f 2349 	bfc	r3, #9, #1
 8003ef0:	6153      	str	r3, [r2, #20]
 8003ef2:	4770      	bx	lr
 8003ef4:	6842      	ldr	r2, [r0, #4]
 8003ef6:	6953      	ldr	r3, [r2, #20]
 8003ef8:	f443 7380 	orr.w	r3, r3, #256	; 0x100
 8003efc:	e7f3      	b.n	8003ee6 <stm32__usarts__set_flow_control+0x32>
 8003efe:	bf00      	nop

08003f00 <stm32__usarts__transmit>:
 8003f00:	6842      	ldr	r2, [r0, #4]
 8003f02:	6853      	ldr	r3, [r2, #4]
 8003f04:	f361 0308 	bfi	r3, r1, #0, #9
 8003f08:	6053      	str	r3, [r2, #4]
 8003f0a:	4770      	bx	lr

08003f0c <stm32__usarts__enable_dma_transmit_requests>:
 8003f0c:	6842      	ldr	r2, [r0, #4]
 8003f0e:	6953      	ldr	r3, [r2, #20]
 8003f10:	f043 0380 	orr.w	r3, r3, #128	; 0x80
 8003f14:	6153      	str	r3, [r2, #20]
 8003f16:	4770      	bx	lr

08003f18 <stm32__usarts__enable_dma_receive_requests>:
 8003f18:	6842      	ldr	r2, [r0, #4]
 8003f1a:	6953      	ldr	r3, [r2, #20]
 8003f1c:	f043 0340 	orr.w	r3, r3, #64	; 0x40
 8003f20:	6153      	str	r3, [r2, #20]
 8003f22:	4770      	bx	lr

08003f24 <stm32__usarts__disable_dma_transmit_requests>:
 8003f24:	6842      	ldr	r2, [r0, #4]
 8003f26:	6953      	ldr	r3, [r2, #20]
 8003f28:	f36f 13c7 	bfc	r3, #7, #1
 8003f2c:	6153      	str	r3, [r2, #20]
 8003f2e:	4770      	bx	lr

08003f30 <stm32__usarts__disable_dma_receive_requests>:
 8003f30:	6842      	ldr	r2, [r0, #4]
 8003f32:	6953      	ldr	r3, [r2, #20]
 8003f34:	f36f 1386 	bfc	r3, #6, #1
 8003f38:	6153      	str	r3, [r2, #20]
 8003f3a:	4770      	bx	lr

08003f3c <stm32__usarts__status>:
 8003f3c:	2907      	cmp	r1, #7
 8003f3e:	d805      	bhi.n	8003f4c <stm32__usarts__status+0x10>
 8003f40:	e8df f001 	tbb	[pc, r1]
 8003f44:	1d18130e 	.word	0x1d18130e
 8003f48:	092c2722 	.word	0x092c2722
 8003f4c:	6843      	ldr	r3, [r0, #4]
 8003f4e:	6818      	ldr	r0, [r3, #0]
 8003f50:	f3c0 2040 	ubfx	r0, r0, #9, #1
 8003f54:	4770      	bx	lr
 8003f56:	6843      	ldr	r3, [r0, #4]
 8003f58:	6818      	ldr	r0, [r3, #0]
 8003f5a:	f3c0 2000 	ubfx	r0, r0, #8, #1
 8003f5e:	4770      	bx	lr
 8003f60:	6843      	ldr	r3, [r0, #4]
 8003f62:	6818      	ldr	r0, [r3, #0]
 8003f64:	f000 0001 	and.w	r0, r0, #1
 8003f68:	4770      	bx	lr
 8003f6a:	6843      	ldr	r3, [r0, #4]
 8003f6c:	6818      	ldr	r0, [r3, #0]
 8003f6e:	f3c0 0040 	ubfx	r0, r0, #1, #1
 8003f72:	4770      	bx	lr
 8003f74:	6843      	ldr	r3, [r0, #4]
 8003f76:	6818      	ldr	r0, [r3, #0]
 8003f78:	f3c0 00c0 	ubfx	r0, r0, #3, #1
 8003f7c:	4770      	bx	lr
 8003f7e:	6843      	ldr	r3, [r0, #4]
 8003f80:	6818      	ldr	r0, [r3, #0]
 8003f82:	f3c0 1000 	ubfx	r0, r0, #4, #1
 8003f86:	4770      	bx	lr
 8003f88:	6843      	ldr	r3, [r0, #4]
 8003f8a:	6818      	ldr	r0, [r3, #0]
 8003f8c:	f3c0 1040 	ubfx	r0, r0, #5, #1
 8003f90:	4770      	bx	lr
 8003f92:	6843      	ldr	r3, [r0, #4]
 8003f94:	6818      	ldr	r0, [r3, #0]
 8003f96:	f3c0 1080 	ubfx	r0, r0, #6, #1
 8003f9a:	4770      	bx	lr
 8003f9c:	6843      	ldr	r3, [r0, #4]
 8003f9e:	6818      	ldr	r0, [r3, #0]
 8003fa0:	f3c0 10c0 	ubfx	r0, r0, #7, #1
 8003fa4:	4770      	bx	lr
 8003fa6:	bf00      	nop

08003fa8 <stm32__usarts__interrupt_enabled>:
 8003fa8:	2906      	cmp	r1, #6
 8003faa:	d805      	bhi.n	8003fb8 <stm32__usarts__interrupt_enabled+0x10>
 8003fac:	e8df f001 	tbb	[pc, r1]
 8003fb0:	1d18130e 	.word	0x1d18130e
 8003fb4:	2722      	.short	0x2722
 8003fb6:	09          	.byte	0x09
 8003fb7:	00          	.byte	0x00
 8003fb8:	6843      	ldr	r3, [r0, #4]
 8003fba:	6958      	ldr	r0, [r3, #20]
 8003fbc:	f000 0001 	and.w	r0, r0, #1
 8003fc0:	4770      	bx	lr
 8003fc2:	6843      	ldr	r3, [r0, #4]
 8003fc4:	6958      	ldr	r0, [r3, #20]
 8003fc6:	f3c0 2080 	ubfx	r0, r0, #10, #1
 8003fca:	4770      	bx	lr
 8003fcc:	6843      	ldr	r3, [r0, #4]
 8003fce:	68d8      	ldr	r0, [r3, #12]
 8003fd0:	f3c0 2000 	ubfx	r0, r0, #8, #1
 8003fd4:	4770      	bx	lr
 8003fd6:	6843      	ldr	r3, [r0, #4]
 8003fd8:	68d8      	ldr	r0, [r3, #12]
 8003fda:	f3c0 10c0 	ubfx	r0, r0, #7, #1
 8003fde:	4770      	bx	lr
 8003fe0:	6843      	ldr	r3, [r0, #4]
 8003fe2:	68d8      	ldr	r0, [r3, #12]
 8003fe4:	f3c0 1080 	ubfx	r0, r0, #6, #1
 8003fe8:	4770      	bx	lr
 8003fea:	6843      	ldr	r3, [r0, #4]
 8003fec:	68d8      	ldr	r0, [r3, #12]
 8003fee:	f3c0 1040 	ubfx	r0, r0, #5, #1
 8003ff2:	4770      	bx	lr
 8003ff4:	6843      	ldr	r3, [r0, #4]
 8003ff6:	68d8      	ldr	r0, [r3, #12]
 8003ff8:	f3c0 1000 	ubfx	r0, r0, #4, #1
 8003ffc:	4770      	bx	lr
 8003ffe:	6843      	ldr	r3, [r0, #4]
 8004000:	6918      	ldr	r0, [r3, #16]
 8004002:	f3c0 1080 	ubfx	r0, r0, #6, #1
 8004006:	4770      	bx	lr

08004008 <stm32__usarts__clear_status>:
 8004008:	2907      	cmp	r1, #7
 800400a:	d805      	bhi.n	8004018 <stm32__usarts__clear_status+0x10>
 800400c:	e8df f001 	tbb	[pc, r1]
 8004010:	221c1610 	.word	0x221c1610
 8004014:	0a342e28 	.word	0x0a342e28
 8004018:	6842      	ldr	r2, [r0, #4]
 800401a:	6813      	ldr	r3, [r2, #0]
 800401c:	f36f 2349 	bfc	r3, #9, #1
 8004020:	6013      	str	r3, [r2, #0]
 8004022:	4770      	bx	lr
 8004024:	6842      	ldr	r2, [r0, #4]
 8004026:	6813      	ldr	r3, [r2, #0]
 8004028:	f36f 2308 	bfc	r3, #8, #1
 800402c:	6013      	str	r3, [r2, #0]
 800402e:	4770      	bx	lr
 8004030:	6842      	ldr	r2, [r0, #4]
 8004032:	6813      	ldr	r3, [r2, #0]
 8004034:	f36f 0300 	bfc	r3, #0, #1
 8004038:	6013      	str	r3, [r2, #0]
 800403a:	4770      	bx	lr
 800403c:	6842      	ldr	r2, [r0, #4]
 800403e:	6813      	ldr	r3, [r2, #0]
 8004040:	f36f 0341 	bfc	r3, #1, #1
 8004044:	6013      	str	r3, [r2, #0]
 8004046:	4770      	bx	lr
 8004048:	6842      	ldr	r2, [r0, #4]
 800404a:	6813      	ldr	r3, [r2, #0]
 800404c:	f36f 03c3 	bfc	r3, #3, #1
 8004050:	6013      	str	r3, [r2, #0]
 8004052:	4770      	bx	lr
 8004054:	6842      	ldr	r2, [r0, #4]
 8004056:	6813      	ldr	r3, [r2, #0]
 8004058:	f36f 1304 	bfc	r3, #4, #1
 800405c:	6013      	str	r3, [r2, #0]
 800405e:	4770      	bx	lr
 8004060:	6842      	ldr	r2, [r0, #4]
 8004062:	6813      	ldr	r3, [r2, #0]
 8004064:	f36f 1345 	bfc	r3, #5, #1
 8004068:	6013      	str	r3, [r2, #0]
 800406a:	4770      	bx	lr
 800406c:	6842      	ldr	r2, [r0, #4]
 800406e:	6813      	ldr	r3, [r2, #0]
 8004070:	f36f 1386 	bfc	r3, #6, #1
 8004074:	6013      	str	r3, [r2, #0]
 8004076:	4770      	bx	lr
 8004078:	6842      	ldr	r2, [r0, #4]
 800407a:	6813      	ldr	r3, [r2, #0]
 800407c:	f36f 13c7 	bfc	r3, #7, #1
 8004080:	6013      	str	r3, [r2, #0]
 8004082:	4770      	bx	lr

08004084 <stm32__usarts__enable_interrupts>:
 8004084:	2906      	cmp	r1, #6
 8004086:	d805      	bhi.n	8004094 <stm32__usarts__enable_interrupts+0x10>
 8004088:	e8df f001 	tbb	[pc, r1]
 800408c:	221c1610 	.word	0x221c1610
 8004090:	2e28      	.short	0x2e28
 8004092:	0a          	.byte	0x0a
 8004093:	00          	.byte	0x00
 8004094:	6842      	ldr	r2, [r0, #4]
 8004096:	6953      	ldr	r3, [r2, #20]
 8004098:	f043 0301 	orr.w	r3, r3, #1
 800409c:	6153      	str	r3, [r2, #20]
 800409e:	4770      	bx	lr
 80040a0:	6842      	ldr	r2, [r0, #4]
 80040a2:	6953      	ldr	r3, [r2, #20]
 80040a4:	f443 6380 	orr.w	r3, r3, #1024	; 0x400
 80040a8:	6153      	str	r3, [r2, #20]
 80040aa:	4770      	bx	lr
 80040ac:	6842      	ldr	r2, [r0, #4]
 80040ae:	68d3      	ldr	r3, [r2, #12]
 80040b0:	f443 7380 	orr.w	r3, r3, #256	; 0x100
 80040b4:	60d3      	str	r3, [r2, #12]
 80040b6:	4770      	bx	lr
 80040b8:	6842      	ldr	r2, [r0, #4]
 80040ba:	68d3      	ldr	r3, [r2, #12]
 80040bc:	f043 0380 	orr.w	r3, r3, #128	; 0x80
 80040c0:	60d3      	str	r3, [r2, #12]
 80040c2:	4770      	bx	lr
 80040c4:	6842      	ldr	r2, [r0, #4]
 80040c6:	68d3      	ldr	r3, [r2, #12]
 80040c8:	f043 0340 	orr.w	r3, r3, #64	; 0x40
 80040cc:	60d3      	str	r3, [r2, #12]
 80040ce:	4770      	bx	lr
 80040d0:	6842      	ldr	r2, [r0, #4]
 80040d2:	68d3      	ldr	r3, [r2, #12]
 80040d4:	f043 0320 	orr.w	r3, r3, #32
 80040d8:	60d3      	str	r3, [r2, #12]
 80040da:	4770      	bx	lr
 80040dc:	6842      	ldr	r2, [r0, #4]
 80040de:	68d3      	ldr	r3, [r2, #12]
 80040e0:	f043 0310 	orr.w	r3, r3, #16
 80040e4:	60d3      	str	r3, [r2, #12]
 80040e6:	4770      	bx	lr
 80040e8:	6842      	ldr	r2, [r0, #4]
 80040ea:	6913      	ldr	r3, [r2, #16]
 80040ec:	f043 0340 	orr.w	r3, r3, #64	; 0x40
 80040f0:	6113      	str	r3, [r2, #16]
 80040f2:	4770      	bx	lr

080040f4 <stm32__usarts__disable_interrupts>:
 80040f4:	2906      	cmp	r1, #6
 80040f6:	d805      	bhi.n	8004104 <stm32__usarts__disable_interrupts+0x10>
 80040f8:	e8df f001 	tbb	[pc, r1]
 80040fc:	221c1610 	.word	0x221c1610
 8004100:	2e28      	.short	0x2e28
 8004102:	0a          	.byte	0x0a
 8004103:	00          	.byte	0x00
 8004104:	6842      	ldr	r2, [r0, #4]
 8004106:	6953      	ldr	r3, [r2, #20]
 8004108:	f36f 0300 	bfc	r3, #0, #1
 800410c:	6153      	str	r3, [r2, #20]
 800410e:	4770      	bx	lr
 8004110:	6842      	ldr	r2, [r0, #4]
 8004112:	6953      	ldr	r3, [r2, #20]
 8004114:	f36f 238a 	bfc	r3, #10, #1
 8004118:	6153      	str	r3, [r2, #20]
 800411a:	4770      	bx	lr
 800411c:	6842      	ldr	r2, [r0, #4]
 800411e:	68d3      	ldr	r3, [r2, #12]
 8004120:	f36f 2308 	bfc	r3, #8, #1
 8004124:	60d3      	str	r3, [r2, #12]
 8004126:	4770      	bx	lr
 8004128:	6842      	ldr	r2, [r0, #4]
 800412a:	68d3      	ldr	r3, [r2, #12]
 800412c:	f36f 13c7 	bfc	r3, #7, #1
 8004130:	60d3      	str	r3, [r2, #12]
 8004132:	4770      	bx	lr
 8004134:	6842      	ldr	r2, [r0, #4]
 8004136:	68d3      	ldr	r3, [r2, #12]
 8004138:	f36f 1386 	bfc	r3, #6, #1
 800413c:	60d3      	str	r3, [r2, #12]
 800413e:	4770      	bx	lr
 8004140:	6842      	ldr	r2, [r0, #4]
 8004142:	68d3      	ldr	r3, [r2, #12]
 8004144:	f36f 1345 	bfc	r3, #5, #1
 8004148:	60d3      	str	r3, [r2, #12]
 800414a:	4770      	bx	lr
 800414c:	6842      	ldr	r2, [r0, #4]
 800414e:	68d3      	ldr	r3, [r2, #12]
 8004150:	f36f 1304 	bfc	r3, #4, #1
 8004154:	60d3      	str	r3, [r2, #12]
 8004156:	4770      	bx	lr
 8004158:	6842      	ldr	r2, [r0, #4]
 800415a:	6913      	ldr	r3, [r2, #16]
 800415c:	f36f 1386 	bfc	r3, #6, #1
 8004160:	6113      	str	r3, [r2, #16]
 8004162:	4770      	bx	lr

08004164 <stm32__usarts__set_baud_rate>:
 8004164:	b570      	push	{r4, r5, r6, lr}
 8004166:	4604      	mov	r4, r0
 8004168:	b088      	sub	sp, #32
 800416a:	a801      	add	r0, sp, #4
 800416c:	460e      	mov	r6, r1
 800416e:	f7ff f92b 	bl	80033c8 <stm32__device__system_clock_frequencies>
 8004172:	9a04      	ldr	r2, [sp, #16]
 8004174:	6865      	ldr	r5, [r4, #4]
 8004176:	9b03      	ldr	r3, [sp, #12]
 8004178:	4910      	ldr	r1, [pc, #64]	; (80041bc <stm32__usarts__set_baud_rate+0x58>)
 800417a:	00b6      	lsls	r6, r6, #2
 800417c:	428d      	cmp	r5, r1
 800417e:	bf08      	it	eq
 8004180:	4613      	moveq	r3, r2
 8004182:	eb03 0383 	add.w	r3, r3, r3, lsl #2
 8004186:	eb03 0383 	add.w	r3, r3, r3, lsl #2
 800418a:	fbb3 f3f6 	udiv	r3, r3, r6
 800418e:	4e0c      	ldr	r6, [pc, #48]	; (80041c0 <stm32__usarts__set_baud_rate+0x5c>)
 8004190:	68a8      	ldr	r0, [r5, #8]
 8004192:	fba6 1203 	umull	r1, r2, r6, r3
 8004196:	2164      	movs	r1, #100	; 0x64
 8004198:	0952      	lsrs	r2, r2, #5
 800419a:	fb01 3312 	mls	r3, r1, r2, r3
 800419e:	011b      	lsls	r3, r3, #4
 80041a0:	3332      	adds	r3, #50	; 0x32
 80041a2:	fba6 1303 	umull	r1, r3, r6, r3
 80041a6:	095b      	lsrs	r3, r3, #5
 80041a8:	f363 0003 	bfi	r0, r3, #0, #4
 80041ac:	60a8      	str	r0, [r5, #8]
 80041ae:	6861      	ldr	r1, [r4, #4]
 80041b0:	688b      	ldr	r3, [r1, #8]
 80041b2:	f362 130f 	bfi	r3, r2, #4, #12
 80041b6:	608b      	str	r3, [r1, #8]
 80041b8:	b008      	add	sp, #32
 80041ba:	bd70      	pop	{r4, r5, r6, pc}
 80041bc:	40013800 	.word	0x40013800
 80041c0:	51eb851f 	.word	0x51eb851f

080041c4 <stm32__usarts__resume_dma_transmission>:
 80041c4:	6842      	ldr	r2, [r0, #4]
 80041c6:	6953      	ldr	r3, [r2, #20]
 80041c8:	f043 0380 	orr.w	r3, r3, #128	; 0x80
 80041cc:	6153      	str	r3, [r2, #20]
 80041ce:	6843      	ldr	r3, [r0, #4]
 80041d0:	68da      	ldr	r2, [r3, #12]
 80041d2:	0492      	lsls	r2, r2, #18
 80041d4:	d403      	bmi.n	80041de <stm32__usarts__resume_dma_transmission+0x1a>
 80041d6:	68da      	ldr	r2, [r3, #12]
 80041d8:	f442 5200 	orr.w	r2, r2, #8192	; 0x2000
 80041dc:	60da      	str	r2, [r3, #12]
 80041de:	4770      	bx	lr

080041e0 <stm32__usarts__resume_dma_reception>:
 80041e0:	6842      	ldr	r2, [r0, #4]
 80041e2:	6953      	ldr	r3, [r2, #20]
 80041e4:	f043 0340 	orr.w	r3, r3, #64	; 0x40
 80041e8:	6153      	str	r3, [r2, #20]
 80041ea:	6843      	ldr	r3, [r0, #4]
 80041ec:	68da      	ldr	r2, [r3, #12]
 80041ee:	0492      	lsls	r2, r2, #18
 80041f0:	d403      	bmi.n	80041fa <stm32__usarts__resume_dma_reception+0x1a>
 80041f2:	68da      	ldr	r2, [r3, #12]
 80041f4:	f442 5200 	orr.w	r2, r2, #8192	; 0x2000
 80041f8:	60da      	str	r2, [r3, #12]
 80041fa:	4770      	bx	lr

080041fc <stm32__usarts__transmit__3>:
 80041fc:	b470      	push	{r4, r5, r6}
 80041fe:	6859      	ldr	r1, [r3, #4]
 8004200:	681c      	ldr	r4, [r3, #0]
 8004202:	428c      	cmp	r4, r1
 8004204:	dc10      	bgt.n	8004228 <stm32__usarts__transmit__3+0x2c>
 8004206:	eba2 0644 	sub.w	r6, r2, r4, lsl #1
 800420a:	3c01      	subs	r4, #1
 800420c:	6841      	ldr	r1, [r0, #4]
 800420e:	3401      	adds	r4, #1
 8004210:	680a      	ldr	r2, [r1, #0]
 8004212:	0612      	lsls	r2, r2, #24
 8004214:	d5fc      	bpl.n	8004210 <stm32__usarts__transmit__3+0x14>
 8004216:	f836 5014 	ldrh.w	r5, [r6, r4, lsl #1]
 800421a:	684a      	ldr	r2, [r1, #4]
 800421c:	f365 0208 	bfi	r2, r5, #0, #9
 8004220:	604a      	str	r2, [r1, #4]
 8004222:	685a      	ldr	r2, [r3, #4]
 8004224:	42a2      	cmp	r2, r4
 8004226:	d1f1      	bne.n	800420c <stm32__usarts__transmit__3+0x10>
 8004228:	2000      	movs	r0, #0
 800422a:	bc70      	pop	{r4, r5, r6}
 800422c:	4770      	bx	lr
 800422e:	bf00      	nop

08004230 <stm32__usarts__transmit__2>:
 8004230:	b4f0      	push	{r4, r5, r6, r7}
 8004232:	6859      	ldr	r1, [r3, #4]
 8004234:	681f      	ldr	r7, [r3, #0]
 8004236:	428f      	cmp	r7, r1
 8004238:	dc0e      	bgt.n	8004258 <stm32__usarts__transmit__2+0x28>
 800423a:	1abf      	subs	r7, r7, r2
 800423c:	6844      	ldr	r4, [r0, #4]
 800423e:	18bd      	adds	r5, r7, r2
 8004240:	6821      	ldr	r1, [r4, #0]
 8004242:	0609      	lsls	r1, r1, #24
 8004244:	d5fc      	bpl.n	8004240 <stm32__usarts__transmit__2+0x10>
 8004246:	f812 6b01 	ldrb.w	r6, [r2], #1
 800424a:	6861      	ldr	r1, [r4, #4]
 800424c:	f366 0108 	bfi	r1, r6, #0, #9
 8004250:	6061      	str	r1, [r4, #4]
 8004252:	6859      	ldr	r1, [r3, #4]
 8004254:	42a9      	cmp	r1, r5
 8004256:	d1f1      	bne.n	800423c <stm32__usarts__transmit__2+0xc>
 8004258:	2000      	movs	r0, #0
 800425a:	bcf0      	pop	{r4, r5, r6, r7}
 800425c:	4770      	bx	lr
 800425e:	bf00      	nop

08004260 <stm32__i2c___size__2>:
 8004260:	20c0      	movs	r0, #192	; 0xc0
 8004262:	2100      	movs	r1, #0
 8004264:	4770      	bx	lr
 8004266:	bf00      	nop

08004268 <stm32__i2c__clear_address_sent_status>:
 8004268:	6842      	ldr	r2, [r0, #4]
 800426a:	b082      	sub	sp, #8
 800426c:	6953      	ldr	r3, [r2, #20]
 800426e:	f3c3 0340 	ubfx	r3, r3, #1, #1
 8004272:	f88d 3007 	strb.w	r3, [sp, #7]
 8004276:	6993      	ldr	r3, [r2, #24]
 8004278:	f3c3 0300 	ubfx	r3, r3, #0, #1
 800427c:	f88d 3007 	strb.w	r3, [sp, #7]
 8004280:	b002      	add	sp, #8
 8004282:	4770      	bx	lr

08004284 <stm32__i2c__port_enabled>:
 8004284:	6843      	ldr	r3, [r0, #4]
 8004286:	6818      	ldr	r0, [r3, #0]
 8004288:	f000 0001 	and.w	r0, r0, #1
 800428c:	4770      	bx	lr
 800428e:	bf00      	nop

08004290 <stm32__i2c__set_state>:
 8004290:	6842      	ldr	r2, [r0, #4]
 8004292:	6813      	ldr	r3, [r2, #0]
 8004294:	f361 0300 	bfi	r3, r1, #0, #1
 8004298:	6013      	str	r3, [r2, #0]
 800429a:	4770      	bx	lr

0800429c <stm32__i2c__enabled>:
 800429c:	b159      	cbz	r1, 80042b6 <stm32__i2c__enabled+0x1a>
 800429e:	2901      	cmp	r1, #1
 80042a0:	d104      	bne.n	80042ac <stm32__i2c__enabled+0x10>
 80042a2:	6843      	ldr	r3, [r0, #4]
 80042a4:	6858      	ldr	r0, [r3, #4]
 80042a6:	f3c0 2040 	ubfx	r0, r0, #9, #1
 80042aa:	4770      	bx	lr
 80042ac:	6843      	ldr	r3, [r0, #4]
 80042ae:	6858      	ldr	r0, [r3, #4]
 80042b0:	f3c0 2080 	ubfx	r0, r0, #10, #1
 80042b4:	4770      	bx	lr
 80042b6:	6843      	ldr	r3, [r0, #4]
 80042b8:	6858      	ldr	r0, [r3, #4]
 80042ba:	f3c0 2000 	ubfx	r0, r0, #8, #1
 80042be:	4770      	bx	lr

080042c0 <stm32__i2c__enable_interrupt>:
 80042c0:	b169      	cbz	r1, 80042de <stm32__i2c__enable_interrupt+0x1e>
 80042c2:	2901      	cmp	r1, #1
 80042c4:	d105      	bne.n	80042d2 <stm32__i2c__enable_interrupt+0x12>
 80042c6:	6842      	ldr	r2, [r0, #4]
 80042c8:	6853      	ldr	r3, [r2, #4]
 80042ca:	f443 7300 	orr.w	r3, r3, #512	; 0x200
 80042ce:	6053      	str	r3, [r2, #4]
 80042d0:	4770      	bx	lr
 80042d2:	6842      	ldr	r2, [r0, #4]
 80042d4:	6853      	ldr	r3, [r2, #4]
 80042d6:	f443 6380 	orr.w	r3, r3, #1024	; 0x400
 80042da:	6053      	str	r3, [r2, #4]
 80042dc:	4770      	bx	lr
 80042de:	6842      	ldr	r2, [r0, #4]
 80042e0:	6853      	ldr	r3, [r2, #4]
 80042e2:	f443 7380 	orr.w	r3, r3, #256	; 0x100
 80042e6:	6053      	str	r3, [r2, #4]
 80042e8:	4770      	bx	lr
 80042ea:	bf00      	nop

080042ec <stm32__i2c__disable_interrupt>:
 80042ec:	b169      	cbz	r1, 800430a <stm32__i2c__disable_interrupt+0x1e>
 80042ee:	2901      	cmp	r1, #1
 80042f0:	d105      	bne.n	80042fe <stm32__i2c__disable_interrupt+0x12>
 80042f2:	6842      	ldr	r2, [r0, #4]
 80042f4:	6853      	ldr	r3, [r2, #4]
 80042f6:	f36f 2349 	bfc	r3, #9, #1
 80042fa:	6053      	str	r3, [r2, #4]
 80042fc:	4770      	bx	lr
 80042fe:	6842      	ldr	r2, [r0, #4]
 8004300:	6853      	ldr	r3, [r2, #4]
 8004302:	f36f 238a 	bfc	r3, #10, #1
 8004306:	6053      	str	r3, [r2, #4]
 8004308:	4770      	bx	lr
 800430a:	6842      	ldr	r2, [r0, #4]
 800430c:	6853      	ldr	r3, [r2, #4]
 800430e:	f361 2308 	bfi	r3, r1, #8, #1
 8004312:	6053      	str	r3, [r2, #4]
 8004314:	4770      	bx	lr
 8004316:	bf00      	nop

08004318 <stm32__i2c__configure>:
 8004318:	e92d 47f0 	stmdb	sp!, {r4, r5, r6, r7, r8, r9, sl, lr}
 800431c:	b08e      	sub	sp, #56	; 0x38
 800431e:	af02      	add	r7, sp, #8
 8004320:	783b      	ldrb	r3, [r7, #0]
 8004322:	2200      	movs	r2, #0
 8004324:	f023 0301 	bic.w	r3, r3, #1
 8004328:	703b      	strb	r3, [r7, #0]
 800432a:	783b      	ldrb	r3, [r7, #0]
 800432c:	4605      	mov	r5, r0
 800432e:	f023 0302 	bic.w	r3, r3, #2
 8004332:	703b      	strb	r3, [r7, #0]
 8004334:	783b      	ldrb	r3, [r7, #0]
 8004336:	f107 0014 	add.w	r0, r7, #20
 800433a:	f023 0304 	bic.w	r3, r3, #4
 800433e:	703b      	strb	r3, [r7, #0]
 8004340:	783b      	ldrb	r3, [r7, #0]
 8004342:	460c      	mov	r4, r1
 8004344:	f023 0308 	bic.w	r3, r3, #8
 8004348:	703b      	strb	r3, [r7, #0]
 800434a:	783b      	ldrb	r3, [r7, #0]
 800434c:	4eb0      	ldr	r6, [pc, #704]	; (8004610 <stm32__i2c__configure+0x2f8>)
 800434e:	f023 0310 	bic.w	r3, r3, #16
 8004352:	703b      	strb	r3, [r7, #0]
 8004354:	783b      	ldrb	r3, [r7, #0]
 8004356:	f023 0320 	bic.w	r3, r3, #32
 800435a:	703b      	strb	r3, [r7, #0]
 800435c:	783b      	ldrb	r3, [r7, #0]
 800435e:	f023 0340 	bic.w	r3, r3, #64	; 0x40
 8004362:	703b      	strb	r3, [r7, #0]
 8004364:	783b      	ldrb	r3, [r7, #0]
 8004366:	f003 037f 	and.w	r3, r3, #127	; 0x7f
 800436a:	703b      	strb	r3, [r7, #0]
 800436c:	787b      	ldrb	r3, [r7, #1]
 800436e:	f023 0301 	bic.w	r3, r3, #1
 8004372:	707b      	strb	r3, [r7, #1]
 8004374:	787b      	ldrb	r3, [r7, #1]
 8004376:	f023 0302 	bic.w	r3, r3, #2
 800437a:	707b      	strb	r3, [r7, #1]
 800437c:	787b      	ldrb	r3, [r7, #1]
 800437e:	f023 0304 	bic.w	r3, r3, #4
 8004382:	707b      	strb	r3, [r7, #1]
 8004384:	787b      	ldrb	r3, [r7, #1]
 8004386:	f023 0308 	bic.w	r3, r3, #8
 800438a:	707b      	strb	r3, [r7, #1]
 800438c:	787b      	ldrb	r3, [r7, #1]
 800438e:	f023 0310 	bic.w	r3, r3, #16
 8004392:	707b      	strb	r3, [r7, #1]
 8004394:	787b      	ldrb	r3, [r7, #1]
 8004396:	f023 0320 	bic.w	r3, r3, #32
 800439a:	707b      	strb	r3, [r7, #1]
 800439c:	787b      	ldrb	r3, [r7, #1]
 800439e:	f023 0340 	bic.w	r3, r3, #64	; 0x40
 80043a2:	707b      	strb	r3, [r7, #1]
 80043a4:	787b      	ldrb	r3, [r7, #1]
 80043a6:	f003 037f 	and.w	r3, r3, #127	; 0x7f
 80043aa:	707b      	strb	r3, [r7, #1]
 80043ac:	807a      	strh	r2, [r7, #2]
 80043ae:	88bb      	ldrh	r3, [r7, #4]
 80043b0:	f423 637f 	bic.w	r3, r3, #4080	; 0xff0
 80043b4:	f023 030f 	bic.w	r3, r3, #15
 80043b8:	80bb      	strh	r3, [r7, #4]
 80043ba:	797b      	ldrb	r3, [r7, #5]
 80043bc:	f023 0330 	bic.w	r3, r3, #48	; 0x30
 80043c0:	717b      	strb	r3, [r7, #5]
 80043c2:	797b      	ldrb	r3, [r7, #5]
 80043c4:	f023 0340 	bic.w	r3, r3, #64	; 0x40
 80043c8:	717b      	strb	r3, [r7, #5]
 80043ca:	797b      	ldrb	r3, [r7, #5]
 80043cc:	f003 037f 	and.w	r3, r3, #127	; 0x7f
 80043d0:	717b      	strb	r3, [r7, #5]
 80043d2:	80fa      	strh	r2, [r7, #6]
 80043d4:	7a3b      	ldrb	r3, [r7, #8]
 80043d6:	f023 0301 	bic.w	r3, r3, #1
 80043da:	723b      	strb	r3, [r7, #8]
 80043dc:	7a3b      	ldrb	r3, [r7, #8]
 80043de:	f003 0301 	and.w	r3, r3, #1
 80043e2:	723b      	strb	r3, [r7, #8]
 80043e4:	7a7b      	ldrb	r3, [r7, #9]
 80043e6:	f023 0303 	bic.w	r3, r3, #3
 80043ea:	727b      	strb	r3, [r7, #9]
 80043ec:	7a7b      	ldrb	r3, [r7, #9]
 80043ee:	f023 037c 	bic.w	r3, r3, #124	; 0x7c
 80043f2:	727b      	strb	r3, [r7, #9]
 80043f4:	7a7b      	ldrb	r3, [r7, #9]
 80043f6:	f003 037f 	and.w	r3, r3, #127	; 0x7f
 80043fa:	727b      	strb	r3, [r7, #9]
 80043fc:	817a      	strh	r2, [r7, #10]
 80043fe:	f7fe ffe3 	bl	80033c8 <stm32__device__system_clock_frequencies>
 8004402:	f8d7 e01c 	ldr.w	lr, [r7, #28]
 8004406:	7d2b      	ldrb	r3, [r5, #20]
 8004408:	fba6 260e 	umull	r2, r6, r6, lr
 800440c:	0cb6      	lsrs	r6, r6, #18
 800440e:	fa1f fc86 	uxth.w	ip, r6
 8004412:	2b00      	cmp	r3, #0
 8004414:	f040 80a7 	bne.w	8004566 <stm32__i2c__configure+0x24e>
 8004418:	e894 0007 	ldmia.w	r4, {r0, r1, r2}
 800441c:	f1ac 0c02 	sub.w	ip, ip, #2
 8004420:	f105 0808 	add.w	r8, r5, #8
 8004424:	f1bc 0f2b 	cmp.w	ip, #43	; 0x2b
 8004428:	e888 0007 	stmia.w	r8, {r0, r1, r2}
 800442c:	f200 80f6 	bhi.w	800461c <stm32__i2c__configure+0x304>
 8004430:	6868      	ldr	r0, [r5, #4]
 8004432:	4978      	ldr	r1, [pc, #480]	; (8004614 <stm32__i2c__configure+0x2fc>)
 8004434:	6802      	ldr	r2, [r0, #0]
 8004436:	f363 0200 	bfi	r2, r3, #0, #1
 800443a:	6002      	str	r2, [r0, #0]
 800443c:	68fa      	ldr	r2, [r7, #12]
 800443e:	f366 0205 	bfi	r2, r6, #0, #6
 8004442:	60fa      	str	r2, [r7, #12]
 8004444:	68fa      	ldr	r2, [r7, #12]
 8004446:	f363 1287 	bfi	r2, r3, #6, #2
 800444a:	60fa      	str	r2, [r7, #12]
 800444c:	68fa      	ldr	r2, [r7, #12]
 800444e:	f363 2208 	bfi	r2, r3, #8, #1
 8004452:	60fa      	str	r2, [r7, #12]
 8004454:	68fa      	ldr	r2, [r7, #12]
 8004456:	f363 2249 	bfi	r2, r3, #9, #1
 800445a:	60fa      	str	r2, [r7, #12]
 800445c:	68fa      	ldr	r2, [r7, #12]
 800445e:	f363 228a 	bfi	r2, r3, #10, #1
 8004462:	60fa      	str	r2, [r7, #12]
 8004464:	68fa      	ldr	r2, [r7, #12]
 8004466:	f363 22cb 	bfi	r2, r3, #11, #1
 800446a:	60fa      	str	r2, [r7, #12]
 800446c:	68fa      	ldr	r2, [r7, #12]
 800446e:	f363 320c 	bfi	r2, r3, #12, #1
 8004472:	60fa      	str	r2, [r7, #12]
 8004474:	68fa      	ldr	r2, [r7, #12]
 8004476:	f363 325f 	bfi	r2, r3, #13, #19
 800447a:	60fa      	str	r2, [r7, #12]
 800447c:	686a      	ldr	r2, [r5, #4]
 800447e:	68f8      	ldr	r0, [r7, #12]
 8004480:	6050      	str	r0, [r2, #4]
 8004482:	6822      	ldr	r2, [r4, #0]
 8004484:	428a      	cmp	r2, r1
 8004486:	d972      	bls.n	800456e <stm32__i2c__configure+0x256>
 8004488:	687b      	ldr	r3, [r7, #4]
 800448a:	f443 4300 	orr.w	r3, r3, #32768	; 0x8000
 800448e:	607b      	str	r3, [r7, #4]
 8004490:	7963      	ldrb	r3, [r4, #5]
 8004492:	687a      	ldr	r2, [r7, #4]
 8004494:	2b01      	cmp	r3, #1
 8004496:	6823      	ldr	r3, [r4, #0]
 8004498:	f000 80b1 	beq.w	80045fe <stm32__i2c__configure+0x2e6>
 800449c:	eb03 0383 	add.w	r3, r3, r3, lsl #2
 80044a0:	eb03 0383 	add.w	r3, r3, r3, lsl #2
 80044a4:	fbbe fef3 	udiv	lr, lr, r3
 80044a8:	f36e 020b 	bfi	r2, lr, #0, #12
 80044ac:	607a      	str	r2, [r7, #4]
 80044ae:	687b      	ldr	r3, [r7, #4]
 80044b0:	f443 4380 	orr.w	r3, r3, #16384	; 0x4000
 80044b4:	607b      	str	r3, [r7, #4]
 80044b6:	687b      	ldr	r3, [r7, #4]
 80044b8:	f3c3 030b 	ubfx	r3, r3, #0, #12
 80044bc:	2b00      	cmp	r3, #0
 80044be:	f000 8092 	beq.w	80045e6 <stm32__i2c__configure+0x2ce>
 80044c2:	6869      	ldr	r1, [r5, #4]
 80044c4:	f44f 7396 	mov.w	r3, #300	; 0x12c
 80044c8:	6a0a      	ldr	r2, [r1, #32]
 80044ca:	fb03 f606 	mul.w	r6, r3, r6
 80044ce:	4613      	mov	r3, r2
 80044d0:	4a51      	ldr	r2, [pc, #324]	; (8004618 <stm32__i2c__configure+0x300>)
 80044d2:	fba2 2606 	umull	r2, r6, r2, r6
 80044d6:	09b6      	lsrs	r6, r6, #6
 80044d8:	3601      	adds	r6, #1
 80044da:	f366 0305 	bfi	r3, r6, #0, #6
 80044de:	620b      	str	r3, [r1, #32]
 80044e0:	686b      	ldr	r3, [r5, #4]
 80044e2:	687a      	ldr	r2, [r7, #4]
 80044e4:	61da      	str	r2, [r3, #28]
 80044e6:	7923      	ldrb	r3, [r4, #4]
 80044e8:	2b00      	cmp	r3, #0
 80044ea:	d073      	beq.n	80045d4 <stm32__i2c__configure+0x2bc>
 80044ec:	2b01      	cmp	r3, #1
 80044ee:	d168      	bne.n	80045c2 <stm32__i2c__configure+0x2aa>
 80044f0:	683b      	ldr	r3, [r7, #0]
 80044f2:	f043 0302 	orr.w	r3, r3, #2
 80044f6:	603b      	str	r3, [r7, #0]
 80044f8:	683b      	ldr	r3, [r7, #0]
 80044fa:	f36f 03c3 	bfc	r3, #3, #1
 80044fe:	603b      	str	r3, [r7, #0]
 8004500:	683b      	ldr	r3, [r7, #0]
 8004502:	7aa2      	ldrb	r2, [r4, #10]
 8004504:	f362 1386 	bfi	r3, r2, #6, #1
 8004508:	603b      	str	r3, [r7, #0]
 800450a:	683b      	ldr	r3, [r7, #0]
 800450c:	7ae2      	ldrb	r2, [r4, #11]
 800450e:	f082 0201 	eor.w	r2, r2, #1
 8004512:	f362 13c7 	bfi	r3, r2, #7, #1
 8004516:	603b      	str	r3, [r7, #0]
 8004518:	686b      	ldr	r3, [r5, #4]
 800451a:	683a      	ldr	r2, [r7, #0]
 800451c:	601a      	str	r2, [r3, #0]
 800451e:	68bb      	ldr	r3, [r7, #8]
 8004520:	79a2      	ldrb	r2, [r4, #6]
 8004522:	f1a2 0201 	sub.w	r2, r2, #1
 8004526:	fab2 f282 	clz	r2, r2
 800452a:	0952      	lsrs	r2, r2, #5
 800452c:	f362 33cf 	bfi	r3, r2, #15, #1
 8004530:	60bb      	str	r3, [r7, #8]
 8004532:	79a3      	ldrb	r3, [r4, #6]
 8004534:	2b00      	cmp	r3, #0
 8004536:	d132      	bne.n	800459e <stm32__i2c__configure+0x286>
 8004538:	68ba      	ldr	r2, [r7, #8]
 800453a:	f363 0200 	bfi	r2, r3, #0, #1
 800453e:	60ba      	str	r2, [r7, #8]
 8004540:	68ba      	ldr	r2, [r7, #8]
 8004542:	8921      	ldrh	r1, [r4, #8]
 8004544:	0849      	lsrs	r1, r1, #1
 8004546:	f361 0247 	bfi	r2, r1, #1, #7
 800454a:	60ba      	str	r2, [r7, #8]
 800454c:	68ba      	ldr	r2, [r7, #8]
 800454e:	f363 2209 	bfi	r2, r3, #8, #2
 8004552:	60ba      	str	r2, [r7, #8]
 8004554:	686b      	ldr	r3, [r5, #4]
 8004556:	68ba      	ldr	r2, [r7, #8]
 8004558:	2101      	movs	r1, #1
 800455a:	609a      	str	r2, [r3, #8]
 800455c:	686a      	ldr	r2, [r5, #4]
 800455e:	6813      	ldr	r3, [r2, #0]
 8004560:	430b      	orrs	r3, r1
 8004562:	6013      	str	r3, [r2, #0]
 8004564:	7529      	strb	r1, [r5, #20]
 8004566:	3730      	adds	r7, #48	; 0x30
 8004568:	46bd      	mov	sp, r7
 800456a:	e8bd 87f0 	ldmia.w	sp!, {r4, r5, r6, r7, r8, r9, sl, pc}
 800456e:	687a      	ldr	r2, [r7, #4]
 8004570:	f363 32cf 	bfi	r2, r3, #15, #1
 8004574:	607a      	str	r2, [r7, #4]
 8004576:	687a      	ldr	r2, [r7, #4]
 8004578:	6823      	ldr	r3, [r4, #0]
 800457a:	005b      	lsls	r3, r3, #1
 800457c:	fbbe fef3 	udiv	lr, lr, r3
 8004580:	f36e 020b 	bfi	r2, lr, #0, #12
 8004584:	607a      	str	r2, [r7, #4]
 8004586:	687b      	ldr	r3, [r7, #4]
 8004588:	f3c3 030b 	ubfx	r3, r3, #0, #12
 800458c:	2b03      	cmp	r3, #3
 800458e:	d930      	bls.n	80045f2 <stm32__i2c__configure+0x2da>
 8004590:	686a      	ldr	r2, [r5, #4]
 8004592:	3601      	adds	r6, #1
 8004594:	6a13      	ldr	r3, [r2, #32]
 8004596:	f366 0305 	bfi	r3, r6, #0, #6
 800459a:	6213      	str	r3, [r2, #32]
 800459c:	e7a0      	b.n	80044e0 <stm32__i2c__configure+0x1c8>
 800459e:	68bb      	ldr	r3, [r7, #8]
 80045a0:	8922      	ldrh	r2, [r4, #8]
 80045a2:	f362 0300 	bfi	r3, r2, #0, #1
 80045a6:	60bb      	str	r3, [r7, #8]
 80045a8:	68bb      	ldr	r3, [r7, #8]
 80045aa:	8922      	ldrh	r2, [r4, #8]
 80045ac:	0852      	lsrs	r2, r2, #1
 80045ae:	f362 0347 	bfi	r3, r2, #1, #7
 80045b2:	60bb      	str	r3, [r7, #8]
 80045b4:	68bb      	ldr	r3, [r7, #8]
 80045b6:	8922      	ldrh	r2, [r4, #8]
 80045b8:	0a12      	lsrs	r2, r2, #8
 80045ba:	f362 2309 	bfi	r3, r2, #8, #2
 80045be:	60bb      	str	r3, [r7, #8]
 80045c0:	e7c8      	b.n	8004554 <stm32__i2c__configure+0x23c>
 80045c2:	683b      	ldr	r3, [r7, #0]
 80045c4:	f043 0302 	orr.w	r3, r3, #2
 80045c8:	603b      	str	r3, [r7, #0]
 80045ca:	683b      	ldr	r3, [r7, #0]
 80045cc:	f043 0308 	orr.w	r3, r3, #8
 80045d0:	603b      	str	r3, [r7, #0]
 80045d2:	e795      	b.n	8004500 <stm32__i2c__configure+0x1e8>
 80045d4:	683a      	ldr	r2, [r7, #0]
 80045d6:	f363 0241 	bfi	r2, r3, #1, #1
 80045da:	603a      	str	r2, [r7, #0]
 80045dc:	683a      	ldr	r2, [r7, #0]
 80045de:	f363 02c3 	bfi	r2, r3, #3, #1
 80045e2:	603a      	str	r2, [r7, #0]
 80045e4:	e78c      	b.n	8004500 <stm32__i2c__configure+0x1e8>
 80045e6:	687b      	ldr	r3, [r7, #4]
 80045e8:	2201      	movs	r2, #1
 80045ea:	f362 030b 	bfi	r3, r2, #0, #12
 80045ee:	607b      	str	r3, [r7, #4]
 80045f0:	e767      	b.n	80044c2 <stm32__i2c__configure+0x1aa>
 80045f2:	687b      	ldr	r3, [r7, #4]
 80045f4:	2204      	movs	r2, #4
 80045f6:	f362 030b 	bfi	r3, r2, #0, #12
 80045fa:	607b      	str	r3, [r7, #4]
 80045fc:	e7c8      	b.n	8004590 <stm32__i2c__configure+0x278>
 80045fe:	eb03 0343 	add.w	r3, r3, r3, lsl #1
 8004602:	fbbe fef3 	udiv	lr, lr, r3
 8004606:	f36e 020b 	bfi	r2, lr, #0, #12
 800460a:	607a      	str	r2, [r7, #4]
 800460c:	e753      	b.n	80044b6 <stm32__i2c__configure+0x19e>
 800460e:	bf00      	nop
 8004610:	431bde83 	.word	0x431bde83
 8004614:	000186a0 	.word	0x000186a0
 8004618:	10624dd3 	.word	0x10624dd3
 800461c:	f107 0830 	add.w	r8, r7, #48	; 0x30
 8004620:	2320      	movs	r3, #32
 8004622:	f808 3d24 	strb.w	r3, [r8, #-36]!
 8004626:	2301      	movs	r3, #1
 8004628:	9300      	str	r3, [sp, #0]
 800462a:	4630      	mov	r0, r6
 800462c:	4b1c      	ldr	r3, [pc, #112]	; (80046a0 <stm32__i2c__configure+0x388>)
 800462e:	4642      	mov	r2, r8
 8004630:	f003 fdae 	bl	8008190 <system__img_uns__set_image_unsigned>
 8004634:	ea20 79e0 	bic.w	r9, r0, r0, asr #31
 8004638:	f109 0339 	add.w	r3, r9, #57	; 0x39
 800463c:	ea23 73e3 	bic.w	r3, r3, r3, asr #31
 8004640:	3307      	adds	r3, #7
 8004642:	f023 0307 	bic.w	r3, r3, #7
 8004646:	ebad 0d03 	sub.w	sp, sp, r3
 800464a:	f10d 0a08 	add.w	sl, sp, #8
 800464e:	4654      	mov	r4, sl
 8004650:	4e14      	ldr	r6, [pc, #80]	; (80046a4 <stm32__i2c__configure+0x38c>)
 8004652:	f106 0e30 	add.w	lr, r6, #48	; 0x30
 8004656:	4635      	mov	r5, r6
 8004658:	cd0f      	ldmia	r5!, {r0, r1, r2, r3}
 800465a:	4575      	cmp	r5, lr
 800465c:	6020      	str	r0, [r4, #0]
 800465e:	6061      	str	r1, [r4, #4]
 8004660:	60a2      	str	r2, [r4, #8]
 8004662:	60e3      	str	r3, [r4, #12]
 8004664:	f106 0610 	add.w	r6, r6, #16
 8004668:	f104 0410 	add.w	r4, r4, #16
 800466c:	d1f3      	bne.n	8004656 <stm32__i2c__configure+0x33e>
 800466e:	f109 0235 	add.w	r2, r9, #53	; 0x35
 8004672:	2a35      	cmp	r2, #53	; 0x35
 8004674:	6830      	ldr	r0, [r6, #0]
 8004676:	7933      	ldrb	r3, [r6, #4]
 8004678:	bfb8      	it	lt
 800467a:	2235      	movlt	r2, #53	; 0x35
 800467c:	4641      	mov	r1, r8
 800467e:	6020      	str	r0, [r4, #0]
 8004680:	7123      	strb	r3, [r4, #4]
 8004682:	3a35      	subs	r2, #53	; 0x35
 8004684:	f10a 0035 	add.w	r0, sl, #53	; 0x35
 8004688:	f003 fda6 	bl	80081d8 <memcpy>
 800468c:	4b06      	ldr	r3, [pc, #24]	; (80046a8 <stm32__i2c__configure+0x390>)
 800468e:	44d1      	add	r9, sl
 8004690:	6818      	ldr	r0, [r3, #0]
 8004692:	2100      	movs	r1, #0
 8004694:	f8c9 0035 	str.w	r0, [r9, #53]	; 0x35
 8004698:	4650      	mov	r0, sl
 800469a:	f7fb ff11 	bl	80004c0 <__gnat_last_chance_handler>
 800469e:	bf00      	nop
 80046a0:	0800a2c4 	.word	0x0800a2c4
 80046a4:	0800a2cc 	.word	0x0800a2cc
 80046a8:	0800a304 	.word	0x0800a304

080046ac <stm32__i2c__wait_master_flag.constprop.4>:
 80046ac:	e92d 41f0 	stmdb	sp!, {r4, r5, r6, r7, r8, lr}
 80046b0:	460c      	mov	r4, r1
 80046b2:	4680      	mov	r8, r0
 80046b4:	f002 fb78 	bl	8006da8 <ada__real_time__clock>
 80046b8:	4a23      	ldr	r2, [pc, #140]	; (8004748 <stm32__i2c__wait_master_flag.constprop.4+0x9c>)
 80046ba:	4606      	mov	r6, r0
 80046bc:	fb84 2302 	smull	r2, r3, r4, r2
 80046c0:	f512 74fa 	adds.w	r4, r2, #500	; 0x1f4
 80046c4:	f143 0500 	adc.w	r5, r3, #0
 80046c8:	f5b2 70fa 	subs.w	r0, r2, #500	; 0x1f4
 80046cc:	460f      	mov	r7, r1
 80046ce:	f143 31ff 	adc.w	r1, r3, #4294967295
 80046d2:	2a00      	cmp	r2, #0
 80046d4:	f173 0300 	sbcs.w	r3, r3, #0
 80046d8:	bfa4      	itt	ge
 80046da:	4620      	movge	r0, r4
 80046dc:	4629      	movge	r1, r5
 80046de:	f44f 727a 	mov.w	r2, #1000	; 0x3e8
 80046e2:	2300      	movs	r3, #0
 80046e4:	f004 fae4 	bl	8008cb0 <__aeabi_ldivmod>
 80046e8:	4604      	mov	r4, r0
 80046ea:	460d      	mov	r5, r1
 80046ec:	e00c      	b.n	8004708 <stm32__i2c__wait_master_flag.constprop.4+0x5c>
 80046ee:	6951      	ldr	r1, [r2, #20]
 80046f0:	0549      	lsls	r1, r1, #21
 80046f2:	d413      	bmi.n	800471c <stm32__i2c__wait_master_flag.constprop.4+0x70>
 80046f4:	f002 fb58 	bl	8006da8 <ada__real_time__clock>
 80046f8:	463b      	mov	r3, r7
 80046fa:	4632      	mov	r2, r6
 80046fc:	f002 fb32 	bl	8006d64 <ada__real_time__Osubtract__2>
 8004700:	4284      	cmp	r4, r0
 8004702:	eb75 0301 	sbcs.w	r3, r5, r1
 8004706:	db19      	blt.n	800473c <stm32__i2c__wait_master_flag.constprop.4+0x90>
 8004708:	f8d8 2004 	ldr.w	r2, [r8, #4]
 800470c:	6953      	ldr	r3, [r2, #20]
 800470e:	f3c3 0340 	ubfx	r3, r3, #1, #1
 8004712:	2b00      	cmp	r3, #0
 8004714:	d0eb      	beq.n	80046ee <stm32__i2c__wait_master_flag.constprop.4+0x42>
 8004716:	2000      	movs	r0, #0
 8004718:	e8bd 81f0 	ldmia.w	sp!, {r4, r5, r6, r7, r8, pc}
 800471c:	6811      	ldr	r1, [r2, #0]
 800471e:	2401      	movs	r4, #1
 8004720:	f441 7100 	orr.w	r1, r1, #512	; 0x200
 8004724:	6011      	str	r1, [r2, #0]
 8004726:	f8d8 1004 	ldr.w	r1, [r8, #4]
 800472a:	4620      	mov	r0, r4
 800472c:	694a      	ldr	r2, [r1, #20]
 800472e:	f363 228a 	bfi	r2, r3, #10, #1
 8004732:	614a      	str	r2, [r1, #20]
 8004734:	f888 4014 	strb.w	r4, [r8, #20]
 8004738:	e8bd 81f0 	ldmia.w	sp!, {r4, r5, r6, r7, r8, pc}
 800473c:	2301      	movs	r3, #1
 800473e:	f888 3014 	strb.w	r3, [r8, #20]
 8004742:	2002      	movs	r0, #2
 8004744:	e8bd 81f0 	ldmia.w	sp!, {r4, r5, r6, r7, r8, pc}
 8004748:	044aa200 	.word	0x044aa200

0800474c <stm32__i2c__mem_read>:
 800474c:	e92d 4ff0 	stmdb	sp!, {r4, r5, r6, r7, r8, r9, sl, fp, lr}
 8004750:	b087      	sub	sp, #28
 8004752:	f8dd a044 	ldr.w	sl, [sp, #68]	; 0x44
 8004756:	4604      	mov	r4, r0
 8004758:	4615      	mov	r5, r2
 800475a:	7d00      	ldrb	r0, [r0, #20]
 800475c:	9a10      	ldr	r2, [sp, #64]	; 0x40
 800475e:	9303      	str	r3, [sp, #12]
 8004760:	9102      	str	r1, [sp, #8]
 8004762:	f8da b000 	ldr.w	fp, [sl]
 8004766:	f8da 3004 	ldr.w	r3, [sl, #4]
 800476a:	9201      	str	r2, [sp, #4]
 800476c:	b108      	cbz	r0, 8004772 <stm32__i2c__mem_read+0x26>
 800476e:	459b      	cmp	fp, r3
 8004770:	dd03      	ble.n	800477a <stm32__i2c__mem_read+0x2e>
 8004772:	2001      	movs	r0, #1
 8004774:	b007      	add	sp, #28
 8004776:	e8bd 8ff0 	ldmia.w	sp!, {r4, r5, r6, r7, r8, r9, sl, fp, pc}
 800477a:	f002 fb15 	bl	8006da8 <ada__real_time__clock>
 800477e:	4ac1      	ldr	r2, [pc, #772]	; (8004a84 <stm32__i2c__mem_read+0x338>)
 8004780:	9b12      	ldr	r3, [sp, #72]	; 0x48
 8004782:	4606      	mov	r6, r0
 8004784:	fb83 2302 	smull	r2, r3, r3, r2
 8004788:	f512 78fa 	adds.w	r8, r2, #500	; 0x1f4
 800478c:	f143 0900 	adc.w	r9, r3, #0
 8004790:	f5b2 70fa 	subs.w	r0, r2, #500	; 0x1f4
 8004794:	460f      	mov	r7, r1
 8004796:	f143 31ff 	adc.w	r1, r3, #4294967295
 800479a:	2a00      	cmp	r2, #0
 800479c:	f173 0300 	sbcs.w	r3, r3, #0
 80047a0:	bfa4      	itt	ge
 80047a2:	4640      	movge	r0, r8
 80047a4:	4649      	movge	r1, r9
 80047a6:	f44f 727a 	mov.w	r2, #1000	; 0x3e8
 80047aa:	2300      	movs	r3, #0
 80047ac:	f004 fa80 	bl	8008cb0 <__aeabi_ldivmod>
 80047b0:	4680      	mov	r8, r0
 80047b2:	4689      	mov	r9, r1
 80047b4:	e00a      	b.n	80047cc <stm32__i2c__mem_read+0x80>
 80047b6:	f002 faf7 	bl	8006da8 <ada__real_time__clock>
 80047ba:	463b      	mov	r3, r7
 80047bc:	4632      	mov	r2, r6
 80047be:	f002 fad1 	bl	8006d64 <ada__real_time__Osubtract__2>
 80047c2:	4580      	cmp	r8, r0
 80047c4:	eb79 0301 	sbcs.w	r3, r9, r1
 80047c8:	f2c0 8109 	blt.w	80049de <stm32__i2c__mem_read+0x292>
 80047cc:	6862      	ldr	r2, [r4, #4]
 80047ce:	6993      	ldr	r3, [r2, #24]
 80047d0:	f3c3 0340 	ubfx	r3, r3, #1, #1
 80047d4:	2b00      	cmp	r3, #0
 80047d6:	d1ee      	bne.n	80047b6 <stm32__i2c__mem_read+0x6a>
 80047d8:	7d21      	ldrb	r1, [r4, #20]
 80047da:	2901      	cmp	r1, #1
 80047dc:	bf18      	it	ne
 80047de:	2003      	movne	r0, #3
 80047e0:	d1c8      	bne.n	8004774 <stm32__i2c__mem_read+0x28>
 80047e2:	2105      	movs	r1, #5
 80047e4:	7521      	strb	r1, [r4, #20]
 80047e6:	6811      	ldr	r1, [r2, #0]
 80047e8:	f363 21cb 	bfi	r1, r3, #11, #1
 80047ec:	6011      	str	r1, [r2, #0]
 80047ee:	6862      	ldr	r2, [r4, #4]
 80047f0:	6813      	ldr	r3, [r2, #0]
 80047f2:	f443 6380 	orr.w	r3, r3, #1024	; 0x400
 80047f6:	6013      	str	r3, [r2, #0]
 80047f8:	6862      	ldr	r2, [r4, #4]
 80047fa:	6813      	ldr	r3, [r2, #0]
 80047fc:	f443 7380 	orr.w	r3, r3, #256	; 0x100
 8004800:	6013      	str	r3, [r2, #0]
 8004802:	f002 fad1 	bl	8006da8 <ada__real_time__clock>
 8004806:	4606      	mov	r6, r0
 8004808:	460f      	mov	r7, r1
 800480a:	e00a      	b.n	8004822 <stm32__i2c__mem_read+0xd6>
 800480c:	f002 facc 	bl	8006da8 <ada__real_time__clock>
 8004810:	463b      	mov	r3, r7
 8004812:	4632      	mov	r2, r6
 8004814:	f002 faa6 	bl	8006d64 <ada__real_time__Osubtract__2>
 8004818:	4580      	cmp	r8, r0
 800481a:	eb79 0301 	sbcs.w	r3, r9, r1
 800481e:	f2c0 80e4 	blt.w	80049ea <stm32__i2c__mem_read+0x29e>
 8004822:	6863      	ldr	r3, [r4, #4]
 8004824:	695a      	ldr	r2, [r3, #20]
 8004826:	07d2      	lsls	r2, r2, #31
 8004828:	d5f0      	bpl.n	800480c <stm32__i2c__mem_read+0xc0>
 800482a:	691a      	ldr	r2, [r3, #16]
 800482c:	f89d 1008 	ldrb.w	r1, [sp, #8]
 8004830:	4620      	mov	r0, r4
 8004832:	9102      	str	r1, [sp, #8]
 8004834:	f021 0101 	bic.w	r1, r1, #1
 8004838:	f361 0207 	bfi	r2, r1, #0, #8
 800483c:	611a      	str	r2, [r3, #16]
 800483e:	9912      	ldr	r1, [sp, #72]	; 0x48
 8004840:	f7ff ff34 	bl	80046ac <stm32__i2c__wait_master_flag.constprop.4>
 8004844:	2800      	cmp	r0, #0
 8004846:	d195      	bne.n	8004774 <stm32__i2c__mem_read+0x28>
 8004848:	6862      	ldr	r2, [r4, #4]
 800484a:	6953      	ldr	r3, [r2, #20]
 800484c:	f3c3 0340 	ubfx	r3, r3, #1, #1
 8004850:	f88d 3016 	strb.w	r3, [sp, #22]
 8004854:	6993      	ldr	r3, [r2, #24]
 8004856:	f3c3 0300 	ubfx	r3, r3, #0, #1
 800485a:	f88d 3016 	strb.w	r3, [sp, #22]
 800485e:	f002 faa3 	bl	8006da8 <ada__real_time__clock>
 8004862:	4606      	mov	r6, r0
 8004864:	460f      	mov	r7, r1
 8004866:	e00a      	b.n	800487e <stm32__i2c__mem_read+0x132>
 8004868:	f002 fa9e 	bl	8006da8 <ada__real_time__clock>
 800486c:	463b      	mov	r3, r7
 800486e:	4632      	mov	r2, r6
 8004870:	f002 fa78 	bl	8006d64 <ada__real_time__Osubtract__2>
 8004874:	4580      	cmp	r8, r0
 8004876:	eb79 0301 	sbcs.w	r3, r9, r1
 800487a:	f2c0 80b6 	blt.w	80049ea <stm32__i2c__mem_read+0x29e>
 800487e:	6863      	ldr	r3, [r4, #4]
 8004880:	695a      	ldr	r2, [r3, #20]
 8004882:	0610      	lsls	r0, r2, #24
 8004884:	d5f0      	bpl.n	8004868 <stm32__i2c__mem_read+0x11c>
 8004886:	9a03      	ldr	r2, [sp, #12]
 8004888:	2a00      	cmp	r2, #0
 800488a:	f040 80b2 	bne.w	80049f2 <stm32__i2c__mem_read+0x2a6>
 800488e:	691a      	ldr	r2, [r3, #16]
 8004890:	f365 0207 	bfi	r2, r5, #0, #8
 8004894:	611a      	str	r2, [r3, #16]
 8004896:	f002 fa87 	bl	8006da8 <ada__real_time__clock>
 800489a:	4606      	mov	r6, r0
 800489c:	460f      	mov	r7, r1
 800489e:	e00a      	b.n	80048b6 <stm32__i2c__mem_read+0x16a>
 80048a0:	f002 fa82 	bl	8006da8 <ada__real_time__clock>
 80048a4:	463b      	mov	r3, r7
 80048a6:	4632      	mov	r2, r6
 80048a8:	f002 fa5c 	bl	8006d64 <ada__real_time__Osubtract__2>
 80048ac:	4580      	cmp	r8, r0
 80048ae:	eb79 0301 	sbcs.w	r3, r9, r1
 80048b2:	f2c0 809a 	blt.w	80049ea <stm32__i2c__mem_read+0x29e>
 80048b6:	6863      	ldr	r3, [r4, #4]
 80048b8:	6959      	ldr	r1, [r3, #20]
 80048ba:	060a      	lsls	r2, r1, #24
 80048bc:	d5f0      	bpl.n	80048a0 <stm32__i2c__mem_read+0x154>
 80048be:	681a      	ldr	r2, [r3, #0]
 80048c0:	f442 7280 	orr.w	r2, r2, #256	; 0x100
 80048c4:	601a      	str	r2, [r3, #0]
 80048c6:	f002 fa6f 	bl	8006da8 <ada__real_time__clock>
 80048ca:	4606      	mov	r6, r0
 80048cc:	460f      	mov	r7, r1
 80048ce:	e00a      	b.n	80048e6 <stm32__i2c__mem_read+0x19a>
 80048d0:	f002 fa6a 	bl	8006da8 <ada__real_time__clock>
 80048d4:	463b      	mov	r3, r7
 80048d6:	4632      	mov	r2, r6
 80048d8:	f002 fa44 	bl	8006d64 <ada__real_time__Osubtract__2>
 80048dc:	4580      	cmp	r8, r0
 80048de:	eb79 0301 	sbcs.w	r3, r9, r1
 80048e2:	f2c0 8082 	blt.w	80049ea <stm32__i2c__mem_read+0x29e>
 80048e6:	6862      	ldr	r2, [r4, #4]
 80048e8:	6953      	ldr	r3, [r2, #20]
 80048ea:	07dd      	lsls	r5, r3, #31
 80048ec:	d5f0      	bpl.n	80048d0 <stm32__i2c__mem_read+0x184>
 80048ee:	6913      	ldr	r3, [r2, #16]
 80048f0:	9902      	ldr	r1, [sp, #8]
 80048f2:	4620      	mov	r0, r4
 80048f4:	f041 0101 	orr.w	r1, r1, #1
 80048f8:	f361 0307 	bfi	r3, r1, #0, #8
 80048fc:	6113      	str	r3, [r2, #16]
 80048fe:	9912      	ldr	r1, [sp, #72]	; 0x48
 8004900:	f7ff fed4 	bl	80046ac <stm32__i2c__wait_master_flag.constprop.4>
 8004904:	4601      	mov	r1, r0
 8004906:	2800      	cmp	r0, #0
 8004908:	f040 8141 	bne.w	8004b8e <stm32__i2c__mem_read+0x442>
 800490c:	e89a 0044 	ldmia.w	sl, {r2, r6}
 8004910:	42b2      	cmp	r2, r6
 8004912:	f000 812e 	beq.w	8004b72 <stm32__i2c__mem_read+0x426>
 8004916:	17d3      	asrs	r3, r2, #31
 8004918:	3201      	adds	r2, #1
 800491a:	ea4f 77e6 	mov.w	r7, r6, asr #31
 800491e:	f143 0300 	adc.w	r3, r3, #0
 8004922:	42bb      	cmp	r3, r7
 8004924:	bf08      	it	eq
 8004926:	42b2      	cmpeq	r2, r6
 8004928:	6862      	ldr	r2, [r4, #4]
 800492a:	f000 8115 	beq.w	8004b58 <stm32__i2c__mem_read+0x40c>
 800492e:	6813      	ldr	r3, [r2, #0]
 8004930:	f443 6380 	orr.w	r3, r3, #1024	; 0x400
 8004934:	6013      	str	r3, [r2, #0]
 8004936:	6862      	ldr	r2, [r4, #4]
 8004938:	6953      	ldr	r3, [r2, #20]
 800493a:	f3c3 0340 	ubfx	r3, r3, #1, #1
 800493e:	f88d 3017 	strb.w	r3, [sp, #23]
 8004942:	6993      	ldr	r3, [r2, #24]
 8004944:	f3c3 0300 	ubfx	r3, r3, #0, #1
 8004948:	f88d 3017 	strb.w	r3, [sp, #23]
 800494c:	465d      	mov	r5, fp
 800494e:	4653      	mov	r3, sl
 8004950:	2000      	movs	r0, #0
 8004952:	f8cd a008 	str.w	sl, [sp, #8]
 8004956:	685e      	ldr	r6, [r3, #4]
 8004958:	42b5      	cmp	r5, r6
 800495a:	f300 80fa 	bgt.w	8004b52 <stm32__i2c__mem_read+0x406>
 800495e:	f000 80b3 	beq.w	8004ac8 <stm32__i2c__mem_read+0x37c>
 8004962:	f105 0a01 	add.w	sl, r5, #1
 8004966:	4556      	cmp	r6, sl
 8004968:	f000 80c9 	beq.w	8004afe <stm32__i2c__mem_read+0x3b2>
 800496c:	1cab      	adds	r3, r5, #2
 800496e:	429e      	cmp	r6, r3
 8004970:	9303      	str	r3, [sp, #12]
 8004972:	d060      	beq.n	8004a36 <stm32__i2c__mem_read+0x2ea>
 8004974:	f002 fa18 	bl	8006da8 <ada__real_time__clock>
 8004978:	4606      	mov	r6, r0
 800497a:	460f      	mov	r7, r1
 800497c:	e009      	b.n	8004992 <stm32__i2c__mem_read+0x246>
 800497e:	f002 fa13 	bl	8006da8 <ada__real_time__clock>
 8004982:	463b      	mov	r3, r7
 8004984:	4632      	mov	r2, r6
 8004986:	f002 f9ed 	bl	8006d64 <ada__real_time__Osubtract__2>
 800498a:	4580      	cmp	r8, r0
 800498c:	eb79 0301 	sbcs.w	r3, r9, r1
 8004990:	db2b      	blt.n	80049ea <stm32__i2c__mem_read+0x29e>
 8004992:	6863      	ldr	r3, [r4, #4]
 8004994:	695a      	ldr	r2, [r3, #20]
 8004996:	0651      	lsls	r1, r2, #25
 8004998:	d5f1      	bpl.n	800497e <stm32__i2c__mem_read+0x232>
 800499a:	691b      	ldr	r3, [r3, #16]
 800499c:	9a01      	ldr	r2, [sp, #4]
 800499e:	ebcb 0505 	rsb	r5, fp, r5
 80049a2:	5553      	strb	r3, [r2, r5]
 80049a4:	f002 fa00 	bl	8006da8 <ada__real_time__clock>
 80049a8:	4655      	mov	r5, sl
 80049aa:	4606      	mov	r6, r0
 80049ac:	460f      	mov	r7, r1
 80049ae:	e009      	b.n	80049c4 <stm32__i2c__mem_read+0x278>
 80049b0:	f002 f9fa 	bl	8006da8 <ada__real_time__clock>
 80049b4:	463b      	mov	r3, r7
 80049b6:	4632      	mov	r2, r6
 80049b8:	f002 f9d4 	bl	8006d64 <ada__real_time__Osubtract__2>
 80049bc:	4580      	cmp	r8, r0
 80049be:	eb79 0301 	sbcs.w	r3, r9, r1
 80049c2:	db33      	blt.n	8004a2c <stm32__i2c__mem_read+0x2e0>
 80049c4:	6863      	ldr	r3, [r4, #4]
 80049c6:	695a      	ldr	r2, [r3, #20]
 80049c8:	0752      	lsls	r2, r2, #29
 80049ca:	d5f1      	bpl.n	80049b0 <stm32__i2c__mem_read+0x264>
 80049cc:	691a      	ldr	r2, [r3, #16]
 80049ce:	9901      	ldr	r1, [sp, #4]
 80049d0:	ebcb 030a 	rsb	r3, fp, sl
 80049d4:	9d03      	ldr	r5, [sp, #12]
 80049d6:	54ca      	strb	r2, [r1, r3]
 80049d8:	2000      	movs	r0, #0
 80049da:	9b02      	ldr	r3, [sp, #8]
 80049dc:	e7bb      	b.n	8004956 <stm32__i2c__mem_read+0x20a>
 80049de:	2301      	movs	r3, #1
 80049e0:	2003      	movs	r0, #3
 80049e2:	7523      	strb	r3, [r4, #20]
 80049e4:	b007      	add	sp, #28
 80049e6:	e8bd 8ff0 	ldmia.w	sp!, {r4, r5, r6, r7, r8, r9, sl, fp, pc}
 80049ea:	2301      	movs	r3, #1
 80049ec:	7523      	strb	r3, [r4, #20]
 80049ee:	2002      	movs	r0, #2
 80049f0:	e6c0      	b.n	8004774 <stm32__i2c__mem_read+0x28>
 80049f2:	691a      	ldr	r2, [r3, #16]
 80049f4:	0a29      	lsrs	r1, r5, #8
 80049f6:	f361 0207 	bfi	r2, r1, #0, #8
 80049fa:	611a      	str	r2, [r3, #16]
 80049fc:	f002 f9d4 	bl	8006da8 <ada__real_time__clock>
 8004a00:	4606      	mov	r6, r0
 8004a02:	460f      	mov	r7, r1
 8004a04:	e009      	b.n	8004a1a <stm32__i2c__mem_read+0x2ce>
 8004a06:	f002 f9cf 	bl	8006da8 <ada__real_time__clock>
 8004a0a:	463b      	mov	r3, r7
 8004a0c:	4632      	mov	r2, r6
 8004a0e:	f002 f9a9 	bl	8006d64 <ada__real_time__Osubtract__2>
 8004a12:	4580      	cmp	r8, r0
 8004a14:	eb79 0301 	sbcs.w	r3, r9, r1
 8004a18:	dbe7      	blt.n	80049ea <stm32__i2c__mem_read+0x29e>
 8004a1a:	6862      	ldr	r2, [r4, #4]
 8004a1c:	6953      	ldr	r3, [r2, #20]
 8004a1e:	0619      	lsls	r1, r3, #24
 8004a20:	d5f1      	bpl.n	8004a06 <stm32__i2c__mem_read+0x2ba>
 8004a22:	6913      	ldr	r3, [r2, #16]
 8004a24:	f365 0307 	bfi	r3, r5, #0, #8
 8004a28:	6113      	str	r3, [r2, #16]
 8004a2a:	e734      	b.n	8004896 <stm32__i2c__mem_read+0x14a>
 8004a2c:	f04f 0301 	mov.w	r3, #1
 8004a30:	2002      	movs	r0, #2
 8004a32:	7523      	strb	r3, [r4, #20]
 8004a34:	e7d1      	b.n	80049da <stm32__i2c__mem_read+0x28e>
 8004a36:	f002 f9b7 	bl	8006da8 <ada__real_time__clock>
 8004a3a:	9603      	str	r6, [sp, #12]
 8004a3c:	460f      	mov	r7, r1
 8004a3e:	4606      	mov	r6, r0
 8004a40:	e009      	b.n	8004a56 <stm32__i2c__mem_read+0x30a>
 8004a42:	f002 f9b1 	bl	8006da8 <ada__real_time__clock>
 8004a46:	463b      	mov	r3, r7
 8004a48:	4632      	mov	r2, r6
 8004a4a:	f002 f98b 	bl	8006d64 <ada__real_time__Osubtract__2>
 8004a4e:	4580      	cmp	r8, r0
 8004a50:	eb79 0301 	sbcs.w	r3, r9, r1
 8004a54:	dbc9      	blt.n	80049ea <stm32__i2c__mem_read+0x29e>
 8004a56:	6863      	ldr	r3, [r4, #4]
 8004a58:	695a      	ldr	r2, [r3, #20]
 8004a5a:	0752      	lsls	r2, r2, #29
 8004a5c:	d5f1      	bpl.n	8004a42 <stm32__i2c__mem_read+0x2f6>
 8004a5e:	9e03      	ldr	r6, [sp, #12]
 8004a60:	681a      	ldr	r2, [r3, #0]
 8004a62:	ebcb 0105 	rsb	r1, fp, r5
 8004a66:	f36f 228a 	bfc	r2, #10, #1
 8004a6a:	601a      	str	r2, [r3, #0]
 8004a6c:	6863      	ldr	r3, [r4, #4]
 8004a6e:	691a      	ldr	r2, [r3, #16]
 8004a70:	460b      	mov	r3, r1
 8004a72:	9901      	ldr	r1, [sp, #4]
 8004a74:	54ca      	strb	r2, [r1, r3]
 8004a76:	f002 f997 	bl	8006da8 <ada__real_time__clock>
 8004a7a:	9603      	str	r6, [sp, #12]
 8004a7c:	460f      	mov	r7, r1
 8004a7e:	4606      	mov	r6, r0
 8004a80:	e00c      	b.n	8004a9c <stm32__i2c__mem_read+0x350>
 8004a82:	bf00      	nop
 8004a84:	044aa200 	.word	0x044aa200
 8004a88:	f002 f98e 	bl	8006da8 <ada__real_time__clock>
 8004a8c:	463b      	mov	r3, r7
 8004a8e:	4632      	mov	r2, r6
 8004a90:	f002 f968 	bl	8006d64 <ada__real_time__Osubtract__2>
 8004a94:	4580      	cmp	r8, r0
 8004a96:	eb79 0301 	sbcs.w	r3, r9, r1
 8004a9a:	dba6      	blt.n	80049ea <stm32__i2c__mem_read+0x29e>
 8004a9c:	6863      	ldr	r3, [r4, #4]
 8004a9e:	695a      	ldr	r2, [r3, #20]
 8004aa0:	0750      	lsls	r0, r2, #29
 8004aa2:	d5f1      	bpl.n	8004a88 <stm32__i2c__mem_read+0x33c>
 8004aa4:	9e03      	ldr	r6, [sp, #12]
 8004aa6:	681a      	ldr	r2, [r3, #0]
 8004aa8:	ebcb 010a 	rsb	r1, fp, sl
 8004aac:	f442 7200 	orr.w	r2, r2, #512	; 0x200
 8004ab0:	601a      	str	r2, [r3, #0]
 8004ab2:	6863      	ldr	r3, [r4, #4]
 8004ab4:	ebcb 0606 	rsb	r6, fp, r6
 8004ab8:	691a      	ldr	r2, [r3, #16]
 8004aba:	9f01      	ldr	r7, [sp, #4]
 8004abc:	3503      	adds	r5, #3
 8004abe:	547a      	strb	r2, [r7, r1]
 8004ac0:	691b      	ldr	r3, [r3, #16]
 8004ac2:	2000      	movs	r0, #0
 8004ac4:	55bb      	strb	r3, [r7, r6]
 8004ac6:	e788      	b.n	80049da <stm32__i2c__mem_read+0x28e>
 8004ac8:	f002 f96e 	bl	8006da8 <ada__real_time__clock>
 8004acc:	4606      	mov	r6, r0
 8004ace:	460f      	mov	r7, r1
 8004ad0:	e009      	b.n	8004ae6 <stm32__i2c__mem_read+0x39a>
 8004ad2:	f002 f969 	bl	8006da8 <ada__real_time__clock>
 8004ad6:	463b      	mov	r3, r7
 8004ad8:	4632      	mov	r2, r6
 8004ada:	f002 f943 	bl	8006d64 <ada__real_time__Osubtract__2>
 8004ade:	4580      	cmp	r8, r0
 8004ae0:	eb79 0301 	sbcs.w	r3, r9, r1
 8004ae4:	db81      	blt.n	80049ea <stm32__i2c__mem_read+0x29e>
 8004ae6:	6863      	ldr	r3, [r4, #4]
 8004ae8:	695a      	ldr	r2, [r3, #20]
 8004aea:	0650      	lsls	r0, r2, #25
 8004aec:	d5f1      	bpl.n	8004ad2 <stm32__i2c__mem_read+0x386>
 8004aee:	691a      	ldr	r2, [r3, #16]
 8004af0:	9901      	ldr	r1, [sp, #4]
 8004af2:	ebcb 0305 	rsb	r3, fp, r5
 8004af6:	54ca      	strb	r2, [r1, r3]
 8004af8:	3501      	adds	r5, #1
 8004afa:	2000      	movs	r0, #0
 8004afc:	e76d      	b.n	80049da <stm32__i2c__mem_read+0x28e>
 8004afe:	6862      	ldr	r2, [r4, #4]
 8004b00:	465f      	mov	r7, fp
 8004b02:	6813      	ldr	r3, [r2, #0]
 8004b04:	f36f 238a 	bfc	r3, #10, #1
 8004b08:	6013      	str	r3, [r2, #0]
 8004b0a:	f002 f94d 	bl	8006da8 <ada__real_time__clock>
 8004b0e:	4682      	mov	sl, r0
 8004b10:	468b      	mov	fp, r1
 8004b12:	e00a      	b.n	8004b2a <stm32__i2c__mem_read+0x3de>
 8004b14:	f002 f948 	bl	8006da8 <ada__real_time__clock>
 8004b18:	465b      	mov	r3, fp
 8004b1a:	4652      	mov	r2, sl
 8004b1c:	f002 f922 	bl	8006d64 <ada__real_time__Osubtract__2>
 8004b20:	4580      	cmp	r8, r0
 8004b22:	eb79 0301 	sbcs.w	r3, r9, r1
 8004b26:	f6ff af60 	blt.w	80049ea <stm32__i2c__mem_read+0x29e>
 8004b2a:	6863      	ldr	r3, [r4, #4]
 8004b2c:	695a      	ldr	r2, [r3, #20]
 8004b2e:	0751      	lsls	r1, r2, #29
 8004b30:	d5f0      	bpl.n	8004b14 <stm32__i2c__mem_read+0x3c8>
 8004b32:	681a      	ldr	r2, [r3, #0]
 8004b34:	1be9      	subs	r1, r5, r7
 8004b36:	f442 7200 	orr.w	r2, r2, #512	; 0x200
 8004b3a:	601a      	str	r2, [r3, #0]
 8004b3c:	6863      	ldr	r3, [r4, #4]
 8004b3e:	1bf6      	subs	r6, r6, r7
 8004b40:	691a      	ldr	r2, [r3, #16]
 8004b42:	46bb      	mov	fp, r7
 8004b44:	9f01      	ldr	r7, [sp, #4]
 8004b46:	3502      	adds	r5, #2
 8004b48:	547a      	strb	r2, [r7, r1]
 8004b4a:	691b      	ldr	r3, [r3, #16]
 8004b4c:	2000      	movs	r0, #0
 8004b4e:	55bb      	strb	r3, [r7, r6]
 8004b50:	e743      	b.n	80049da <stm32__i2c__mem_read+0x28e>
 8004b52:	2301      	movs	r3, #1
 8004b54:	7523      	strb	r3, [r4, #20]
 8004b56:	e60d      	b.n	8004774 <stm32__i2c__mem_read+0x28>
 8004b58:	6813      	ldr	r3, [r2, #0]
 8004b5a:	4620      	mov	r0, r4
 8004b5c:	f361 238a 	bfi	r3, r1, #10, #1
 8004b60:	6013      	str	r3, [r2, #0]
 8004b62:	6862      	ldr	r2, [r4, #4]
 8004b64:	6813      	ldr	r3, [r2, #0]
 8004b66:	f443 6300 	orr.w	r3, r3, #2048	; 0x800
 8004b6a:	6013      	str	r3, [r2, #0]
 8004b6c:	f7ff fb7c 	bl	8004268 <stm32__i2c__clear_address_sent_status>
 8004b70:	e6ec      	b.n	800494c <stm32__i2c__mem_read+0x200>
 8004b72:	6862      	ldr	r2, [r4, #4]
 8004b74:	4620      	mov	r0, r4
 8004b76:	6813      	ldr	r3, [r2, #0]
 8004b78:	f361 238a 	bfi	r3, r1, #10, #1
 8004b7c:	6013      	str	r3, [r2, #0]
 8004b7e:	f7ff fb73 	bl	8004268 <stm32__i2c__clear_address_sent_status>
 8004b82:	6862      	ldr	r2, [r4, #4]
 8004b84:	6813      	ldr	r3, [r2, #0]
 8004b86:	f443 7300 	orr.w	r3, r3, #512	; 0x200
 8004b8a:	6013      	str	r3, [r2, #0]
 8004b8c:	e6de      	b.n	800494c <stm32__i2c__mem_read+0x200>
 8004b8e:	4608      	mov	r0, r1
 8004b90:	e5f0      	b.n	8004774 <stm32__i2c__mem_read+0x28>
 8004b92:	bf00      	nop

08004b94 <stm32__i2c__master_receive>:
 8004b94:	e92d 4ff0 	stmdb	sp!, {r4, r5, r6, r7, r8, r9, sl, fp, lr}
 8004b98:	7d04      	ldrb	r4, [r0, #20]
 8004b9a:	b087      	sub	sp, #28
 8004b9c:	f8d3 9000 	ldr.w	r9, [r3]
 8004ba0:	685e      	ldr	r6, [r3, #4]
 8004ba2:	b10c      	cbz	r4, 8004ba8 <stm32__i2c__master_receive+0x14>
 8004ba4:	45b1      	cmp	r9, r6
 8004ba6:	dd03      	ble.n	8004bb0 <stm32__i2c__master_receive+0x1c>
 8004ba8:	2001      	movs	r0, #1
 8004baa:	b007      	add	sp, #28
 8004bac:	e8bd 8ff0 	ldmia.w	sp!, {r4, r5, r6, r7, r8, r9, sl, fp, pc}
 8004bb0:	4615      	mov	r5, r2
 8004bb2:	4698      	mov	r8, r3
 8004bb4:	9101      	str	r1, [sp, #4]
 8004bb6:	4604      	mov	r4, r0
 8004bb8:	f002 f8f6 	bl	8006da8 <ada__real_time__clock>
 8004bbc:	4ab9      	ldr	r2, [pc, #740]	; (8004ea4 <stm32__i2c__master_receive+0x310>)
 8004bbe:	9b10      	ldr	r3, [sp, #64]	; 0x40
 8004bc0:	4606      	mov	r6, r0
 8004bc2:	fb83 2302 	smull	r2, r3, r3, r2
 8004bc6:	f512 7afa 	adds.w	sl, r2, #500	; 0x1f4
 8004bca:	f143 0b00 	adc.w	fp, r3, #0
 8004bce:	f5b2 70fa 	subs.w	r0, r2, #500	; 0x1f4
 8004bd2:	460f      	mov	r7, r1
 8004bd4:	f143 31ff 	adc.w	r1, r3, #4294967295
 8004bd8:	2a00      	cmp	r2, #0
 8004bda:	f173 0300 	sbcs.w	r3, r3, #0
 8004bde:	bfa4      	itt	ge
 8004be0:	4650      	movge	r0, sl
 8004be2:	4659      	movge	r1, fp
 8004be4:	f44f 727a 	mov.w	r2, #1000	; 0x3e8
 8004be8:	2300      	movs	r3, #0
 8004bea:	f004 f861 	bl	8008cb0 <__aeabi_ldivmod>
 8004bee:	4682      	mov	sl, r0
 8004bf0:	468b      	mov	fp, r1
 8004bf2:	e00a      	b.n	8004c0a <stm32__i2c__master_receive+0x76>
 8004bf4:	f002 f8d8 	bl	8006da8 <ada__real_time__clock>
 8004bf8:	463b      	mov	r3, r7
 8004bfa:	4632      	mov	r2, r6
 8004bfc:	f002 f8b2 	bl	8006d64 <ada__real_time__Osubtract__2>
 8004c00:	4582      	cmp	sl, r0
 8004c02:	eb7b 0301 	sbcs.w	r3, fp, r1
 8004c06:	f2c0 80ad 	blt.w	8004d64 <stm32__i2c__master_receive+0x1d0>
 8004c0a:	6862      	ldr	r2, [r4, #4]
 8004c0c:	6993      	ldr	r3, [r2, #24]
 8004c0e:	f3c3 0340 	ubfx	r3, r3, #1, #1
 8004c12:	2b00      	cmp	r3, #0
 8004c14:	d1ee      	bne.n	8004bf4 <stm32__i2c__master_receive+0x60>
 8004c16:	7d21      	ldrb	r1, [r4, #20]
 8004c18:	2901      	cmp	r1, #1
 8004c1a:	bf18      	it	ne
 8004c1c:	2003      	movne	r0, #3
 8004c1e:	d1c4      	bne.n	8004baa <stm32__i2c__master_receive+0x16>
 8004c20:	2103      	movs	r1, #3
 8004c22:	7521      	strb	r1, [r4, #20]
 8004c24:	6811      	ldr	r1, [r2, #0]
 8004c26:	f363 21cb 	bfi	r1, r3, #11, #1
 8004c2a:	6011      	str	r1, [r2, #0]
 8004c2c:	6862      	ldr	r2, [r4, #4]
 8004c2e:	6813      	ldr	r3, [r2, #0]
 8004c30:	f443 6380 	orr.w	r3, r3, #1024	; 0x400
 8004c34:	6013      	str	r3, [r2, #0]
 8004c36:	6862      	ldr	r2, [r4, #4]
 8004c38:	6813      	ldr	r3, [r2, #0]
 8004c3a:	f443 7380 	orr.w	r3, r3, #256	; 0x100
 8004c3e:	6013      	str	r3, [r2, #0]
 8004c40:	f002 f8b2 	bl	8006da8 <ada__real_time__clock>
 8004c44:	4606      	mov	r6, r0
 8004c46:	460f      	mov	r7, r1
 8004c48:	e00a      	b.n	8004c60 <stm32__i2c__master_receive+0xcc>
 8004c4a:	f002 f8ad 	bl	8006da8 <ada__real_time__clock>
 8004c4e:	463b      	mov	r3, r7
 8004c50:	4632      	mov	r2, r6
 8004c52:	f002 f887 	bl	8006d64 <ada__real_time__Osubtract__2>
 8004c56:	4582      	cmp	sl, r0
 8004c58:	eb7b 0301 	sbcs.w	r3, fp, r1
 8004c5c:	f2c0 8088 	blt.w	8004d70 <stm32__i2c__master_receive+0x1dc>
 8004c60:	6863      	ldr	r3, [r4, #4]
 8004c62:	695a      	ldr	r2, [r3, #20]
 8004c64:	07d2      	lsls	r2, r2, #31
 8004c66:	d5f0      	bpl.n	8004c4a <stm32__i2c__master_receive+0xb6>
 8004c68:	7ba2      	ldrb	r2, [r4, #14]
 8004c6a:	2a00      	cmp	r2, #0
 8004c6c:	f040 811c 	bne.w	8004ea8 <stm32__i2c__master_receive+0x314>
 8004c70:	691a      	ldr	r2, [r3, #16]
 8004c72:	9901      	ldr	r1, [sp, #4]
 8004c74:	f041 0101 	orr.w	r1, r1, #1
 8004c78:	f361 0207 	bfi	r2, r1, #0, #8
 8004c7c:	611a      	str	r2, [r3, #16]
 8004c7e:	4620      	mov	r0, r4
 8004c80:	9910      	ldr	r1, [sp, #64]	; 0x40
 8004c82:	f7ff fd13 	bl	80046ac <stm32__i2c__wait_master_flag.constprop.4>
 8004c86:	4606      	mov	r6, r0
 8004c88:	2800      	cmp	r0, #0
 8004c8a:	d18e      	bne.n	8004baa <stm32__i2c__master_receive+0x16>
 8004c8c:	f8d8 2000 	ldr.w	r2, [r8]
 8004c90:	f8d8 0004 	ldr.w	r0, [r8, #4]
 8004c94:	4282      	cmp	r2, r0
 8004c96:	f000 8196 	beq.w	8004fc6 <stm32__i2c__master_receive+0x432>
 8004c9a:	17d3      	asrs	r3, r2, #31
 8004c9c:	3201      	adds	r2, #1
 8004c9e:	ea4f 71e0 	mov.w	r1, r0, asr #31
 8004ca2:	f143 0300 	adc.w	r3, r3, #0
 8004ca6:	428b      	cmp	r3, r1
 8004ca8:	bf08      	it	eq
 8004caa:	4282      	cmpeq	r2, r0
 8004cac:	6862      	ldr	r2, [r4, #4]
 8004cae:	f000 815a 	beq.w	8004f66 <stm32__i2c__master_receive+0x3d2>
 8004cb2:	6813      	ldr	r3, [r2, #0]
 8004cb4:	f443 6380 	orr.w	r3, r3, #1024	; 0x400
 8004cb8:	6013      	str	r3, [r2, #0]
 8004cba:	6862      	ldr	r2, [r4, #4]
 8004cbc:	6953      	ldr	r3, [r2, #20]
 8004cbe:	f3c3 0340 	ubfx	r3, r3, #1, #1
 8004cc2:	f88d 3017 	strb.w	r3, [sp, #23]
 8004cc6:	6993      	ldr	r3, [r2, #24]
 8004cc8:	f3c3 0300 	ubfx	r3, r3, #0, #1
 8004ccc:	f88d 3017 	strb.w	r3, [sp, #23]
 8004cd0:	f8cd 8008 	str.w	r8, [sp, #8]
 8004cd4:	46a8      	mov	r8, r5
 8004cd6:	464d      	mov	r5, r9
 8004cd8:	2000      	movs	r0, #0
 8004cda:	9b02      	ldr	r3, [sp, #8]
 8004cdc:	685e      	ldr	r6, [r3, #4]
 8004cde:	42b5      	cmp	r5, r6
 8004ce0:	f300 813e 	bgt.w	8004f60 <stm32__i2c__master_receive+0x3cc>
 8004ce4:	f000 8094 	beq.w	8004e10 <stm32__i2c__master_receive+0x27c>
 8004ce8:	1c6b      	adds	r3, r5, #1
 8004cea:	429e      	cmp	r6, r3
 8004cec:	9301      	str	r3, [sp, #4]
 8004cee:	f000 80aa 	beq.w	8004e46 <stm32__i2c__master_receive+0x2b2>
 8004cf2:	1cab      	adds	r3, r5, #2
 8004cf4:	429e      	cmp	r6, r3
 8004cf6:	9303      	str	r3, [sp, #12]
 8004cf8:	d043      	beq.n	8004d82 <stm32__i2c__master_receive+0x1ee>
 8004cfa:	f002 f855 	bl	8006da8 <ada__real_time__clock>
 8004cfe:	4606      	mov	r6, r0
 8004d00:	460f      	mov	r7, r1
 8004d02:	e009      	b.n	8004d18 <stm32__i2c__master_receive+0x184>
 8004d04:	f002 f850 	bl	8006da8 <ada__real_time__clock>
 8004d08:	463b      	mov	r3, r7
 8004d0a:	4632      	mov	r2, r6
 8004d0c:	f002 f82a 	bl	8006d64 <ada__real_time__Osubtract__2>
 8004d10:	4582      	cmp	sl, r0
 8004d12:	eb7b 0301 	sbcs.w	r3, fp, r1
 8004d16:	db2b      	blt.n	8004d70 <stm32__i2c__master_receive+0x1dc>
 8004d18:	6863      	ldr	r3, [r4, #4]
 8004d1a:	695a      	ldr	r2, [r3, #20]
 8004d1c:	0651      	lsls	r1, r2, #25
 8004d1e:	d5f1      	bpl.n	8004d04 <stm32__i2c__master_receive+0x170>
 8004d20:	691a      	ldr	r2, [r3, #16]
 8004d22:	ebc9 0305 	rsb	r3, r9, r5
 8004d26:	f808 2003 	strb.w	r2, [r8, r3]
 8004d2a:	f002 f83d 	bl	8006da8 <ada__real_time__clock>
 8004d2e:	9d01      	ldr	r5, [sp, #4]
 8004d30:	4606      	mov	r6, r0
 8004d32:	460f      	mov	r7, r1
 8004d34:	e009      	b.n	8004d4a <stm32__i2c__master_receive+0x1b6>
 8004d36:	f002 f837 	bl	8006da8 <ada__real_time__clock>
 8004d3a:	463b      	mov	r3, r7
 8004d3c:	4632      	mov	r2, r6
 8004d3e:	f002 f811 	bl	8006d64 <ada__real_time__Osubtract__2>
 8004d42:	4582      	cmp	sl, r0
 8004d44:	eb7b 0301 	sbcs.w	r3, fp, r1
 8004d48:	db16      	blt.n	8004d78 <stm32__i2c__master_receive+0x1e4>
 8004d4a:	6863      	ldr	r3, [r4, #4]
 8004d4c:	695a      	ldr	r2, [r3, #20]
 8004d4e:	0752      	lsls	r2, r2, #29
 8004d50:	d5f1      	bpl.n	8004d36 <stm32__i2c__master_receive+0x1a2>
 8004d52:	691a      	ldr	r2, [r3, #16]
 8004d54:	9b01      	ldr	r3, [sp, #4]
 8004d56:	9d03      	ldr	r5, [sp, #12]
 8004d58:	ebc9 0303 	rsb	r3, r9, r3
 8004d5c:	f808 2003 	strb.w	r2, [r8, r3]
 8004d60:	2000      	movs	r0, #0
 8004d62:	e7ba      	b.n	8004cda <stm32__i2c__master_receive+0x146>
 8004d64:	2301      	movs	r3, #1
 8004d66:	2003      	movs	r0, #3
 8004d68:	7523      	strb	r3, [r4, #20]
 8004d6a:	b007      	add	sp, #28
 8004d6c:	e8bd 8ff0 	ldmia.w	sp!, {r4, r5, r6, r7, r8, r9, sl, fp, pc}
 8004d70:	2301      	movs	r3, #1
 8004d72:	7523      	strb	r3, [r4, #20]
 8004d74:	2002      	movs	r0, #2
 8004d76:	e718      	b.n	8004baa <stm32__i2c__master_receive+0x16>
 8004d78:	f04f 0301 	mov.w	r3, #1
 8004d7c:	2002      	movs	r0, #2
 8004d7e:	7523      	strb	r3, [r4, #20]
 8004d80:	e7ab      	b.n	8004cda <stm32__i2c__master_receive+0x146>
 8004d82:	f002 f811 	bl	8006da8 <ada__real_time__clock>
 8004d86:	9603      	str	r6, [sp, #12]
 8004d88:	460f      	mov	r7, r1
 8004d8a:	4606      	mov	r6, r0
 8004d8c:	e009      	b.n	8004da2 <stm32__i2c__master_receive+0x20e>
 8004d8e:	f002 f80b 	bl	8006da8 <ada__real_time__clock>
 8004d92:	463b      	mov	r3, r7
 8004d94:	4632      	mov	r2, r6
 8004d96:	f001 ffe5 	bl	8006d64 <ada__real_time__Osubtract__2>
 8004d9a:	4582      	cmp	sl, r0
 8004d9c:	eb7b 0301 	sbcs.w	r3, fp, r1
 8004da0:	dbe6      	blt.n	8004d70 <stm32__i2c__master_receive+0x1dc>
 8004da2:	6863      	ldr	r3, [r4, #4]
 8004da4:	695a      	ldr	r2, [r3, #20]
 8004da6:	0752      	lsls	r2, r2, #29
 8004da8:	d5f1      	bpl.n	8004d8e <stm32__i2c__master_receive+0x1fa>
 8004daa:	9e03      	ldr	r6, [sp, #12]
 8004dac:	681a      	ldr	r2, [r3, #0]
 8004dae:	ebc9 0105 	rsb	r1, r9, r5
 8004db2:	f36f 228a 	bfc	r2, #10, #1
 8004db6:	601a      	str	r2, [r3, #0]
 8004db8:	6863      	ldr	r3, [r4, #4]
 8004dba:	691a      	ldr	r2, [r3, #16]
 8004dbc:	f808 2001 	strb.w	r2, [r8, r1]
 8004dc0:	f001 fff2 	bl	8006da8 <ada__real_time__clock>
 8004dc4:	9603      	str	r6, [sp, #12]
 8004dc6:	460f      	mov	r7, r1
 8004dc8:	4606      	mov	r6, r0
 8004dca:	e009      	b.n	8004de0 <stm32__i2c__master_receive+0x24c>
 8004dcc:	f001 ffec 	bl	8006da8 <ada__real_time__clock>
 8004dd0:	463b      	mov	r3, r7
 8004dd2:	4632      	mov	r2, r6
 8004dd4:	f001 ffc6 	bl	8006d64 <ada__real_time__Osubtract__2>
 8004dd8:	4582      	cmp	sl, r0
 8004dda:	eb7b 0301 	sbcs.w	r3, fp, r1
 8004dde:	dbc7      	blt.n	8004d70 <stm32__i2c__master_receive+0x1dc>
 8004de0:	6863      	ldr	r3, [r4, #4]
 8004de2:	695a      	ldr	r2, [r3, #20]
 8004de4:	0750      	lsls	r0, r2, #29
 8004de6:	d5f1      	bpl.n	8004dcc <stm32__i2c__master_receive+0x238>
 8004de8:	9e03      	ldr	r6, [sp, #12]
 8004dea:	681a      	ldr	r2, [r3, #0]
 8004dec:	9901      	ldr	r1, [sp, #4]
 8004dee:	f442 7200 	orr.w	r2, r2, #512	; 0x200
 8004df2:	601a      	str	r2, [r3, #0]
 8004df4:	6863      	ldr	r3, [r4, #4]
 8004df6:	ebc9 0101 	rsb	r1, r9, r1
 8004dfa:	691a      	ldr	r2, [r3, #16]
 8004dfc:	ebc9 0606 	rsb	r6, r9, r6
 8004e00:	f808 2001 	strb.w	r2, [r8, r1]
 8004e04:	691b      	ldr	r3, [r3, #16]
 8004e06:	3503      	adds	r5, #3
 8004e08:	f808 3006 	strb.w	r3, [r8, r6]
 8004e0c:	2000      	movs	r0, #0
 8004e0e:	e764      	b.n	8004cda <stm32__i2c__master_receive+0x146>
 8004e10:	f001 ffca 	bl	8006da8 <ada__real_time__clock>
 8004e14:	4606      	mov	r6, r0
 8004e16:	460f      	mov	r7, r1
 8004e18:	e009      	b.n	8004e2e <stm32__i2c__master_receive+0x29a>
 8004e1a:	f001 ffc5 	bl	8006da8 <ada__real_time__clock>
 8004e1e:	463b      	mov	r3, r7
 8004e20:	4632      	mov	r2, r6
 8004e22:	f001 ff9f 	bl	8006d64 <ada__real_time__Osubtract__2>
 8004e26:	4582      	cmp	sl, r0
 8004e28:	eb7b 0301 	sbcs.w	r3, fp, r1
 8004e2c:	dba0      	blt.n	8004d70 <stm32__i2c__master_receive+0x1dc>
 8004e2e:	6863      	ldr	r3, [r4, #4]
 8004e30:	695a      	ldr	r2, [r3, #20]
 8004e32:	0650      	lsls	r0, r2, #25
 8004e34:	d5f1      	bpl.n	8004e1a <stm32__i2c__master_receive+0x286>
 8004e36:	691a      	ldr	r2, [r3, #16]
 8004e38:	ebc9 0305 	rsb	r3, r9, r5
 8004e3c:	f808 2003 	strb.w	r2, [r8, r3]
 8004e40:	3501      	adds	r5, #1
 8004e42:	2000      	movs	r0, #0
 8004e44:	e749      	b.n	8004cda <stm32__i2c__master_receive+0x146>
 8004e46:	6862      	ldr	r2, [r4, #4]
 8004e48:	6813      	ldr	r3, [r2, #0]
 8004e4a:	f36f 238a 	bfc	r3, #10, #1
 8004e4e:	6013      	str	r3, [r2, #0]
 8004e50:	f001 ffaa 	bl	8006da8 <ada__real_time__clock>
 8004e54:	9501      	str	r5, [sp, #4]
 8004e56:	460f      	mov	r7, r1
 8004e58:	4635      	mov	r5, r6
 8004e5a:	4606      	mov	r6, r0
 8004e5c:	e00a      	b.n	8004e74 <stm32__i2c__master_receive+0x2e0>
 8004e5e:	f001 ffa3 	bl	8006da8 <ada__real_time__clock>
 8004e62:	463b      	mov	r3, r7
 8004e64:	4632      	mov	r2, r6
 8004e66:	f001 ff7d 	bl	8006d64 <ada__real_time__Osubtract__2>
 8004e6a:	4582      	cmp	sl, r0
 8004e6c:	eb7b 0301 	sbcs.w	r3, fp, r1
 8004e70:	f6ff af7e 	blt.w	8004d70 <stm32__i2c__master_receive+0x1dc>
 8004e74:	6863      	ldr	r3, [r4, #4]
 8004e76:	695a      	ldr	r2, [r3, #20]
 8004e78:	0751      	lsls	r1, r2, #29
 8004e7a:	d5f0      	bpl.n	8004e5e <stm32__i2c__master_receive+0x2ca>
 8004e7c:	462e      	mov	r6, r5
 8004e7e:	9d01      	ldr	r5, [sp, #4]
 8004e80:	681a      	ldr	r2, [r3, #0]
 8004e82:	ebc9 0105 	rsb	r1, r9, r5
 8004e86:	f442 7200 	orr.w	r2, r2, #512	; 0x200
 8004e8a:	601a      	str	r2, [r3, #0]
 8004e8c:	6863      	ldr	r3, [r4, #4]
 8004e8e:	ebc9 0606 	rsb	r6, r9, r6
 8004e92:	691a      	ldr	r2, [r3, #16]
 8004e94:	3502      	adds	r5, #2
 8004e96:	f808 2001 	strb.w	r2, [r8, r1]
 8004e9a:	691b      	ldr	r3, [r3, #16]
 8004e9c:	2000      	movs	r0, #0
 8004e9e:	f808 3006 	strb.w	r3, [r8, r6]
 8004ea2:	e71a      	b.n	8004cda <stm32__i2c__master_receive+0x146>
 8004ea4:	044aa200 	.word	0x044aa200
 8004ea8:	691a      	ldr	r2, [r3, #16]
 8004eaa:	9901      	ldr	r1, [sp, #4]
 8004eac:	f401 7140 	and.w	r1, r1, #768	; 0x300
 8004eb0:	09c9      	lsrs	r1, r1, #7
 8004eb2:	9102      	str	r1, [sp, #8]
 8004eb4:	f061 010f 	orn	r1, r1, #15
 8004eb8:	f361 0207 	bfi	r2, r1, #0, #8
 8004ebc:	611a      	str	r2, [r3, #16]
 8004ebe:	f001 ff73 	bl	8006da8 <ada__real_time__clock>
 8004ec2:	4606      	mov	r6, r0
 8004ec4:	460f      	mov	r7, r1
 8004ec6:	e00e      	b.n	8004ee6 <stm32__i2c__master_receive+0x352>
 8004ec8:	694a      	ldr	r2, [r1, #20]
 8004eca:	0550      	lsls	r0, r2, #21
 8004ecc:	f100 8089 	bmi.w	8004fe2 <stm32__i2c__master_receive+0x44e>
 8004ed0:	f001 ff6a 	bl	8006da8 <ada__real_time__clock>
 8004ed4:	463b      	mov	r3, r7
 8004ed6:	4632      	mov	r2, r6
 8004ed8:	f001 ff44 	bl	8006d64 <ada__real_time__Osubtract__2>
 8004edc:	4582      	cmp	sl, r0
 8004ede:	eb7b 0301 	sbcs.w	r3, fp, r1
 8004ee2:	f6ff af45 	blt.w	8004d70 <stm32__i2c__master_receive+0x1dc>
 8004ee6:	6861      	ldr	r1, [r4, #4]
 8004ee8:	694b      	ldr	r3, [r1, #20]
 8004eea:	f3c3 03c0 	ubfx	r3, r3, #3, #1
 8004eee:	2b00      	cmp	r3, #0
 8004ef0:	d0ea      	beq.n	8004ec8 <stm32__i2c__master_receive+0x334>
 8004ef2:	690b      	ldr	r3, [r1, #16]
 8004ef4:	9a01      	ldr	r2, [sp, #4]
 8004ef6:	4620      	mov	r0, r4
 8004ef8:	f362 0307 	bfi	r3, r2, #0, #8
 8004efc:	610b      	str	r3, [r1, #16]
 8004efe:	9910      	ldr	r1, [sp, #64]	; 0x40
 8004f00:	f7ff fbd4 	bl	80046ac <stm32__i2c__wait_master_flag.constprop.4>
 8004f04:	2800      	cmp	r0, #0
 8004f06:	f47f ae50 	bne.w	8004baa <stm32__i2c__master_receive+0x16>
 8004f0a:	6863      	ldr	r3, [r4, #4]
 8004f0c:	695a      	ldr	r2, [r3, #20]
 8004f0e:	f3c2 0240 	ubfx	r2, r2, #1, #1
 8004f12:	f88d 2016 	strb.w	r2, [sp, #22]
 8004f16:	699a      	ldr	r2, [r3, #24]
 8004f18:	f3c2 0200 	ubfx	r2, r2, #0, #1
 8004f1c:	f88d 2016 	strb.w	r2, [sp, #22]
 8004f20:	681a      	ldr	r2, [r3, #0]
 8004f22:	f442 7280 	orr.w	r2, r2, #256	; 0x100
 8004f26:	601a      	str	r2, [r3, #0]
 8004f28:	f001 ff3e 	bl	8006da8 <ada__real_time__clock>
 8004f2c:	4606      	mov	r6, r0
 8004f2e:	460f      	mov	r7, r1
 8004f30:	e00a      	b.n	8004f48 <stm32__i2c__master_receive+0x3b4>
 8004f32:	f001 ff39 	bl	8006da8 <ada__real_time__clock>
 8004f36:	463b      	mov	r3, r7
 8004f38:	4632      	mov	r2, r6
 8004f3a:	f001 ff13 	bl	8006d64 <ada__real_time__Osubtract__2>
 8004f3e:	4582      	cmp	sl, r0
 8004f40:	eb7b 0301 	sbcs.w	r3, fp, r1
 8004f44:	f6ff af14 	blt.w	8004d70 <stm32__i2c__master_receive+0x1dc>
 8004f48:	6862      	ldr	r2, [r4, #4]
 8004f4a:	6953      	ldr	r3, [r2, #20]
 8004f4c:	07d9      	lsls	r1, r3, #31
 8004f4e:	d5f0      	bpl.n	8004f32 <stm32__i2c__master_receive+0x39e>
 8004f50:	6913      	ldr	r3, [r2, #16]
 8004f52:	9902      	ldr	r1, [sp, #8]
 8004f54:	f061 010e 	orn	r1, r1, #14
 8004f58:	f361 0307 	bfi	r3, r1, #0, #8
 8004f5c:	6113      	str	r3, [r2, #16]
 8004f5e:	e68e      	b.n	8004c7e <stm32__i2c__master_receive+0xea>
 8004f60:	2301      	movs	r3, #1
 8004f62:	7523      	strb	r3, [r4, #20]
 8004f64:	e621      	b.n	8004baa <stm32__i2c__master_receive+0x16>
 8004f66:	6813      	ldr	r3, [r2, #0]
 8004f68:	4620      	mov	r0, r4
 8004f6a:	f443 6300 	orr.w	r3, r3, #2048	; 0x800
 8004f6e:	6013      	str	r3, [r2, #0]
 8004f70:	f7ff f97a 	bl	8004268 <stm32__i2c__clear_address_sent_status>
 8004f74:	6862      	ldr	r2, [r4, #4]
 8004f76:	6813      	ldr	r3, [r2, #0]
 8004f78:	f366 238a 	bfi	r3, r6, #10, #1
 8004f7c:	6013      	str	r3, [r2, #0]
 8004f7e:	f001 ff13 	bl	8006da8 <ada__real_time__clock>
 8004f82:	4606      	mov	r6, r0
 8004f84:	460f      	mov	r7, r1
 8004f86:	e00a      	b.n	8004f9e <stm32__i2c__master_receive+0x40a>
 8004f88:	f001 ff0e 	bl	8006da8 <ada__real_time__clock>
 8004f8c:	463b      	mov	r3, r7
 8004f8e:	4632      	mov	r2, r6
 8004f90:	f001 fee8 	bl	8006d64 <ada__real_time__Osubtract__2>
 8004f94:	4582      	cmp	sl, r0
 8004f96:	eb7b 0301 	sbcs.w	r3, fp, r1
 8004f9a:	f6ff aee9 	blt.w	8004d70 <stm32__i2c__master_receive+0x1dc>
 8004f9e:	6863      	ldr	r3, [r4, #4]
 8004fa0:	695a      	ldr	r2, [r3, #20]
 8004fa2:	0752      	lsls	r2, r2, #29
 8004fa4:	d5f0      	bpl.n	8004f88 <stm32__i2c__master_receive+0x3f4>
 8004fa6:	461a      	mov	r2, r3
 8004fa8:	681b      	ldr	r3, [r3, #0]
 8004faa:	2101      	movs	r1, #1
 8004fac:	f443 7300 	orr.w	r3, r3, #512	; 0x200
 8004fb0:	6013      	str	r3, [r2, #0]
 8004fb2:	6863      	ldr	r3, [r4, #4]
 8004fb4:	2000      	movs	r0, #0
 8004fb6:	691a      	ldr	r2, [r3, #16]
 8004fb8:	702a      	strb	r2, [r5, #0]
 8004fba:	691b      	ldr	r3, [r3, #16]
 8004fbc:	706b      	strb	r3, [r5, #1]
 8004fbe:	7521      	strb	r1, [r4, #20]
 8004fc0:	b007      	add	sp, #28
 8004fc2:	e8bd 8ff0 	ldmia.w	sp!, {r4, r5, r6, r7, r8, r9, sl, fp, pc}
 8004fc6:	6862      	ldr	r2, [r4, #4]
 8004fc8:	4620      	mov	r0, r4
 8004fca:	6813      	ldr	r3, [r2, #0]
 8004fcc:	f366 238a 	bfi	r3, r6, #10, #1
 8004fd0:	6013      	str	r3, [r2, #0]
 8004fd2:	f7ff f949 	bl	8004268 <stm32__i2c__clear_address_sent_status>
 8004fd6:	6862      	ldr	r2, [r4, #4]
 8004fd8:	6813      	ldr	r3, [r2, #0]
 8004fda:	f443 7300 	orr.w	r3, r3, #512	; 0x200
 8004fde:	6013      	str	r3, [r2, #0]
 8004fe0:	e676      	b.n	8004cd0 <stm32__i2c__master_receive+0x13c>
 8004fe2:	680a      	ldr	r2, [r1, #0]
 8004fe4:	2501      	movs	r5, #1
 8004fe6:	f442 7200 	orr.w	r2, r2, #512	; 0x200
 8004fea:	600a      	str	r2, [r1, #0]
 8004fec:	6861      	ldr	r1, [r4, #4]
 8004fee:	4628      	mov	r0, r5
 8004ff0:	694a      	ldr	r2, [r1, #20]
 8004ff2:	f363 228a 	bfi	r2, r3, #10, #1
 8004ff6:	614a      	str	r2, [r1, #20]
 8004ff8:	7525      	strb	r5, [r4, #20]
 8004ffa:	e5d6      	b.n	8004baa <stm32__i2c__master_receive+0x16>

08004ffc <stm32__i2c__master_transmit>:
 8004ffc:	e92d 4ff0 	stmdb	sp!, {r4, r5, r6, r7, r8, r9, sl, fp, lr}
 8005000:	e893 0060 	ldmia.w	r3, {r5, r6}
 8005004:	7d04      	ldrb	r4, [r0, #20]
 8005006:	b087      	sub	sp, #28
 8005008:	b10c      	cbz	r4, 800500e <stm32__i2c__master_transmit+0x12>
 800500a:	42b5      	cmp	r5, r6
 800500c:	dd05      	ble.n	800501a <stm32__i2c__master_transmit+0x1e>
 800500e:	f04f 0a01 	mov.w	sl, #1
 8005012:	4650      	mov	r0, sl
 8005014:	b007      	add	sp, #28
 8005016:	e8bd 8ff0 	ldmia.w	sp!, {r4, r5, r6, r7, r8, r9, sl, fp, pc}
 800501a:	9202      	str	r2, [sp, #8]
 800501c:	9301      	str	r3, [sp, #4]
 800501e:	9103      	str	r1, [sp, #12]
 8005020:	4604      	mov	r4, r0
 8005022:	f001 fec1 	bl	8006da8 <ada__real_time__clock>
 8005026:	4a85      	ldr	r2, [pc, #532]	; (800523c <stm32__i2c__master_transmit+0x240>)
 8005028:	9b10      	ldr	r3, [sp, #64]	; 0x40
 800502a:	4680      	mov	r8, r0
 800502c:	fb83 2302 	smull	r2, r3, r3, r2
 8005030:	f512 76fa 	adds.w	r6, r2, #500	; 0x1f4
 8005034:	f143 0700 	adc.w	r7, r3, #0
 8005038:	f5b2 7afa 	subs.w	sl, r2, #500	; 0x1f4
 800503c:	f143 3bff 	adc.w	fp, r3, #4294967295
 8005040:	2a00      	cmp	r2, #0
 8005042:	f173 0300 	sbcs.w	r3, r3, #0
 8005046:	4689      	mov	r9, r1
 8005048:	bfa7      	ittee	ge
 800504a:	4630      	movge	r0, r6
 800504c:	4639      	movge	r1, r7
 800504e:	4650      	movlt	r0, sl
 8005050:	4659      	movlt	r1, fp
 8005052:	f44f 727a 	mov.w	r2, #1000	; 0x3e8
 8005056:	2300      	movs	r3, #0
 8005058:	f003 fe2a 	bl	8008cb0 <__aeabi_ldivmod>
 800505c:	4606      	mov	r6, r0
 800505e:	460f      	mov	r7, r1
 8005060:	e00a      	b.n	8005078 <stm32__i2c__master_transmit+0x7c>
 8005062:	f001 fea1 	bl	8006da8 <ada__real_time__clock>
 8005066:	464b      	mov	r3, r9
 8005068:	4642      	mov	r2, r8
 800506a:	f001 fe7b 	bl	8006d64 <ada__real_time__Osubtract__2>
 800506e:	4286      	cmp	r6, r0
 8005070:	eb77 0301 	sbcs.w	r3, r7, r1
 8005074:	f2c0 8082 	blt.w	800517c <stm32__i2c__master_transmit+0x180>
 8005078:	6862      	ldr	r2, [r4, #4]
 800507a:	6993      	ldr	r3, [r2, #24]
 800507c:	f3c3 0340 	ubfx	r3, r3, #1, #1
 8005080:	2b00      	cmp	r3, #0
 8005082:	d1ee      	bne.n	8005062 <stm32__i2c__master_transmit+0x66>
 8005084:	7d21      	ldrb	r1, [r4, #20]
 8005086:	2901      	cmp	r1, #1
 8005088:	bf18      	it	ne
 800508a:	f04f 0a03 	movne.w	sl, #3
 800508e:	d1c0      	bne.n	8005012 <stm32__i2c__master_transmit+0x16>
 8005090:	2102      	movs	r1, #2
 8005092:	7521      	strb	r1, [r4, #20]
 8005094:	6811      	ldr	r1, [r2, #0]
 8005096:	f363 21cb 	bfi	r1, r3, #11, #1
 800509a:	6011      	str	r1, [r2, #0]
 800509c:	6862      	ldr	r2, [r4, #4]
 800509e:	6813      	ldr	r3, [r2, #0]
 80050a0:	f443 7380 	orr.w	r3, r3, #256	; 0x100
 80050a4:	6013      	str	r3, [r2, #0]
 80050a6:	f001 fe7f 	bl	8006da8 <ada__real_time__clock>
 80050aa:	4680      	mov	r8, r0
 80050ac:	4689      	mov	r9, r1
 80050ae:	e009      	b.n	80050c4 <stm32__i2c__master_transmit+0xc8>
 80050b0:	f001 fe7a 	bl	8006da8 <ada__real_time__clock>
 80050b4:	464b      	mov	r3, r9
 80050b6:	4642      	mov	r2, r8
 80050b8:	f001 fe54 	bl	8006d64 <ada__real_time__Osubtract__2>
 80050bc:	4286      	cmp	r6, r0
 80050be:	eb77 0301 	sbcs.w	r3, r7, r1
 80050c2:	db63      	blt.n	800518c <stm32__i2c__master_transmit+0x190>
 80050c4:	6863      	ldr	r3, [r4, #4]
 80050c6:	695a      	ldr	r2, [r3, #20]
 80050c8:	07d2      	lsls	r2, r2, #31
 80050ca:	d5f1      	bpl.n	80050b0 <stm32__i2c__master_transmit+0xb4>
 80050cc:	7ba2      	ldrb	r2, [r4, #14]
 80050ce:	2a00      	cmp	r2, #0
 80050d0:	d161      	bne.n	8005196 <stm32__i2c__master_transmit+0x19a>
 80050d2:	691a      	ldr	r2, [r3, #16]
 80050d4:	9903      	ldr	r1, [sp, #12]
 80050d6:	f021 0101 	bic.w	r1, r1, #1
 80050da:	f361 0207 	bfi	r2, r1, #0, #8
 80050de:	611a      	str	r2, [r3, #16]
 80050e0:	4620      	mov	r0, r4
 80050e2:	9910      	ldr	r1, [sp, #64]	; 0x40
 80050e4:	f7ff fae2 	bl	80046ac <stm32__i2c__wait_master_flag.constprop.4>
 80050e8:	4682      	mov	sl, r0
 80050ea:	2800      	cmp	r0, #0
 80050ec:	d191      	bne.n	8005012 <stm32__i2c__master_transmit+0x16>
 80050ee:	46ab      	mov	fp, r5
 80050f0:	6862      	ldr	r2, [r4, #4]
 80050f2:	6953      	ldr	r3, [r2, #20]
 80050f4:	f3c3 0340 	ubfx	r3, r3, #1, #1
 80050f8:	f88d 3017 	strb.w	r3, [sp, #23]
 80050fc:	6992      	ldr	r2, [r2, #24]
 80050fe:	9b01      	ldr	r3, [sp, #4]
 8005100:	f3c2 0200 	ubfx	r2, r2, #0, #1
 8005104:	685b      	ldr	r3, [r3, #4]
 8005106:	f88d 2017 	strb.w	r2, [sp, #23]
 800510a:	459b      	cmp	fp, r3
 800510c:	f8cd b00c 	str.w	fp, [sp, #12]
 8005110:	dc69      	bgt.n	80051e6 <stm32__i2c__master_transmit+0x1ea>
 8005112:	f001 fe49 	bl	8006da8 <ada__real_time__clock>
 8005116:	4680      	mov	r8, r0
 8005118:	4689      	mov	r9, r1
 800511a:	e009      	b.n	8005130 <stm32__i2c__master_transmit+0x134>
 800511c:	f001 fe44 	bl	8006da8 <ada__real_time__clock>
 8005120:	464b      	mov	r3, r9
 8005122:	4642      	mov	r2, r8
 8005124:	f001 fe1e 	bl	8006d64 <ada__real_time__Osubtract__2>
 8005128:	4286      	cmp	r6, r0
 800512a:	eb77 0301 	sbcs.w	r3, r7, r1
 800512e:	db2d      	blt.n	800518c <stm32__i2c__master_transmit+0x190>
 8005130:	6863      	ldr	r3, [r4, #4]
 8005132:	695a      	ldr	r2, [r3, #20]
 8005134:	0611      	lsls	r1, r2, #24
 8005136:	d5f1      	bpl.n	800511c <stm32__i2c__master_transmit+0x120>
 8005138:	691a      	ldr	r2, [r3, #16]
 800513a:	9802      	ldr	r0, [sp, #8]
 800513c:	ebc5 010b 	rsb	r1, r5, fp
 8005140:	5c41      	ldrb	r1, [r0, r1]
 8005142:	f10b 0b01 	add.w	fp, fp, #1
 8005146:	f361 0207 	bfi	r2, r1, #0, #8
 800514a:	611a      	str	r2, [r3, #16]
 800514c:	6862      	ldr	r2, [r4, #4]
 800514e:	6953      	ldr	r3, [r2, #20]
 8005150:	f013 0f04 	tst.w	r3, #4
 8005154:	9b01      	ldr	r3, [sp, #4]
 8005156:	685b      	ldr	r3, [r3, #4]
 8005158:	d0d7      	beq.n	800510a <stm32__i2c__master_transmit+0x10e>
 800515a:	459b      	cmp	fp, r3
 800515c:	dcd5      	bgt.n	800510a <stm32__i2c__master_transmit+0x10e>
 800515e:	6913      	ldr	r3, [r2, #16]
 8005160:	9902      	ldr	r1, [sp, #8]
 8005162:	ebc5 0b0b 	rsb	fp, r5, fp
 8005166:	f811 100b 	ldrb.w	r1, [r1, fp]
 800516a:	9803      	ldr	r0, [sp, #12]
 800516c:	f361 0307 	bfi	r3, r1, #0, #8
 8005170:	6113      	str	r3, [r2, #16]
 8005172:	9b01      	ldr	r3, [sp, #4]
 8005174:	f100 0b02 	add.w	fp, r0, #2
 8005178:	685b      	ldr	r3, [r3, #4]
 800517a:	e7c6      	b.n	800510a <stm32__i2c__master_transmit+0x10e>
 800517c:	f04f 0a03 	mov.w	sl, #3
 8005180:	4650      	mov	r0, sl
 8005182:	2301      	movs	r3, #1
 8005184:	7523      	strb	r3, [r4, #20]
 8005186:	b007      	add	sp, #28
 8005188:	e8bd 8ff0 	ldmia.w	sp!, {r4, r5, r6, r7, r8, r9, sl, fp, pc}
 800518c:	2301      	movs	r3, #1
 800518e:	7523      	strb	r3, [r4, #20]
 8005190:	f04f 0a02 	mov.w	sl, #2
 8005194:	e73d      	b.n	8005012 <stm32__i2c__master_transmit+0x16>
 8005196:	6919      	ldr	r1, [r3, #16]
 8005198:	9a03      	ldr	r2, [sp, #12]
 800519a:	f402 7240 	and.w	r2, r2, #768	; 0x300
 800519e:	09d2      	lsrs	r2, r2, #7
 80051a0:	f062 020f 	orn	r2, r2, #15
 80051a4:	f362 0107 	bfi	r1, r2, #0, #8
 80051a8:	6119      	str	r1, [r3, #16]
 80051aa:	f001 fdfd 	bl	8006da8 <ada__real_time__clock>
 80051ae:	4680      	mov	r8, r0
 80051b0:	4689      	mov	r9, r1
 80051b2:	e00c      	b.n	80051ce <stm32__i2c__master_transmit+0x1d2>
 80051b4:	694a      	ldr	r2, [r1, #20]
 80051b6:	0550      	lsls	r0, r2, #21
 80051b8:	d433      	bmi.n	8005222 <stm32__i2c__master_transmit+0x226>
 80051ba:	f001 fdf5 	bl	8006da8 <ada__real_time__clock>
 80051be:	464b      	mov	r3, r9
 80051c0:	4642      	mov	r2, r8
 80051c2:	f001 fdcf 	bl	8006d64 <ada__real_time__Osubtract__2>
 80051c6:	4286      	cmp	r6, r0
 80051c8:	eb77 0301 	sbcs.w	r3, r7, r1
 80051cc:	dbde      	blt.n	800518c <stm32__i2c__master_transmit+0x190>
 80051ce:	6861      	ldr	r1, [r4, #4]
 80051d0:	694b      	ldr	r3, [r1, #20]
 80051d2:	f3c3 03c0 	ubfx	r3, r3, #3, #1
 80051d6:	2b00      	cmp	r3, #0
 80051d8:	d0ec      	beq.n	80051b4 <stm32__i2c__master_transmit+0x1b8>
 80051da:	690b      	ldr	r3, [r1, #16]
 80051dc:	9a03      	ldr	r2, [sp, #12]
 80051de:	f362 0307 	bfi	r3, r2, #0, #8
 80051e2:	610b      	str	r3, [r1, #16]
 80051e4:	e77c      	b.n	80050e0 <stm32__i2c__master_transmit+0xe4>
 80051e6:	f001 fddf 	bl	8006da8 <ada__real_time__clock>
 80051ea:	4680      	mov	r8, r0
 80051ec:	4689      	mov	r9, r1
 80051ee:	e009      	b.n	8005204 <stm32__i2c__master_transmit+0x208>
 80051f0:	f001 fdda 	bl	8006da8 <ada__real_time__clock>
 80051f4:	464b      	mov	r3, r9
 80051f6:	4642      	mov	r2, r8
 80051f8:	f001 fdb4 	bl	8006d64 <ada__real_time__Osubtract__2>
 80051fc:	4286      	cmp	r6, r0
 80051fe:	eb77 0301 	sbcs.w	r3, r7, r1
 8005202:	dbc3      	blt.n	800518c <stm32__i2c__master_transmit+0x190>
 8005204:	6863      	ldr	r3, [r4, #4]
 8005206:	695a      	ldr	r2, [r3, #20]
 8005208:	0612      	lsls	r2, r2, #24
 800520a:	d5f1      	bpl.n	80051f0 <stm32__i2c__master_transmit+0x1f4>
 800520c:	461a      	mov	r2, r3
 800520e:	4650      	mov	r0, sl
 8005210:	681b      	ldr	r3, [r3, #0]
 8005212:	2101      	movs	r1, #1
 8005214:	f443 7300 	orr.w	r3, r3, #512	; 0x200
 8005218:	6013      	str	r3, [r2, #0]
 800521a:	7521      	strb	r1, [r4, #20]
 800521c:	b007      	add	sp, #28
 800521e:	e8bd 8ff0 	ldmia.w	sp!, {r4, r5, r6, r7, r8, r9, sl, fp, pc}
 8005222:	680a      	ldr	r2, [r1, #0]
 8005224:	2001      	movs	r0, #1
 8005226:	f442 7200 	orr.w	r2, r2, #512	; 0x200
 800522a:	600a      	str	r2, [r1, #0]
 800522c:	6861      	ldr	r1, [r4, #4]
 800522e:	4682      	mov	sl, r0
 8005230:	694a      	ldr	r2, [r1, #20]
 8005232:	f363 228a 	bfi	r2, r3, #10, #1
 8005236:	614a      	str	r2, [r1, #20]
 8005238:	7520      	strb	r0, [r4, #20]
 800523a:	e6ea      	b.n	8005012 <stm32__i2c__master_transmit+0x16>
 800523c:	044aa200 	.word	0x044aa200

08005240 <stm32__i2c__mem_write>:
 8005240:	e92d 4ff0 	stmdb	sp!, {r4, r5, r6, r7, r8, r9, sl, fp, lr}
 8005244:	b089      	sub	sp, #36	; 0x24
 8005246:	9d13      	ldr	r5, [sp, #76]	; 0x4c
 8005248:	7d04      	ldrb	r4, [r0, #20]
 800524a:	f8d5 8000 	ldr.w	r8, [r5]
 800524e:	686e      	ldr	r6, [r5, #4]
 8005250:	f8dd 9048 	ldr.w	r9, [sp, #72]	; 0x48
 8005254:	b10c      	cbz	r4, 800525a <stm32__i2c__mem_write+0x1a>
 8005256:	45b0      	cmp	r8, r6
 8005258:	dd04      	ble.n	8005264 <stm32__i2c__mem_write+0x24>
 800525a:	2601      	movs	r6, #1
 800525c:	4630      	mov	r0, r6
 800525e:	b009      	add	sp, #36	; 0x24
 8005260:	e8bd 8ff0 	ldmia.w	sp!, {r4, r5, r6, r7, r8, r9, sl, fp, pc}
 8005264:	9305      	str	r3, [sp, #20]
 8005266:	9200      	str	r2, [sp, #0]
 8005268:	9102      	str	r1, [sp, #8]
 800526a:	4604      	mov	r4, r0
 800526c:	f001 fd9c 	bl	8006da8 <ada__real_time__clock>
 8005270:	4a8e      	ldr	r2, [pc, #568]	; (80054ac <stm32__i2c__mem_write+0x26c>)
 8005272:	9b14      	ldr	r3, [sp, #80]	; 0x50
 8005274:	4606      	mov	r6, r0
 8005276:	fb83 2302 	smull	r2, r3, r3, r2
 800527a:	f512 7afa 	adds.w	sl, r2, #500	; 0x1f4
 800527e:	f143 0b00 	adc.w	fp, r3, #0
 8005282:	f5b2 70fa 	subs.w	r0, r2, #500	; 0x1f4
 8005286:	460f      	mov	r7, r1
 8005288:	f143 31ff 	adc.w	r1, r3, #4294967295
 800528c:	2a00      	cmp	r2, #0
 800528e:	f173 0300 	sbcs.w	r3, r3, #0
 8005292:	bfa4      	itt	ge
 8005294:	4650      	movge	r0, sl
 8005296:	4659      	movge	r1, fp
 8005298:	f44f 727a 	mov.w	r2, #1000	; 0x3e8
 800529c:	2300      	movs	r3, #0
 800529e:	f003 fd07 	bl	8008cb0 <__aeabi_ldivmod>
 80052a2:	4682      	mov	sl, r0
 80052a4:	468b      	mov	fp, r1
 80052a6:	e00a      	b.n	80052be <stm32__i2c__mem_write+0x7e>
 80052a8:	f001 fd7e 	bl	8006da8 <ada__real_time__clock>
 80052ac:	463b      	mov	r3, r7
 80052ae:	4632      	mov	r2, r6
 80052b0:	f001 fd58 	bl	8006d64 <ada__real_time__Osubtract__2>
 80052b4:	4582      	cmp	sl, r0
 80052b6:	eb7b 0301 	sbcs.w	r3, fp, r1
 80052ba:	f2c0 80ad 	blt.w	8005418 <stm32__i2c__mem_write+0x1d8>
 80052be:	6862      	ldr	r2, [r4, #4]
 80052c0:	6993      	ldr	r3, [r2, #24]
 80052c2:	f3c3 0340 	ubfx	r3, r3, #1, #1
 80052c6:	2b00      	cmp	r3, #0
 80052c8:	d1ee      	bne.n	80052a8 <stm32__i2c__mem_write+0x68>
 80052ca:	7d21      	ldrb	r1, [r4, #20]
 80052cc:	2901      	cmp	r1, #1
 80052ce:	bf18      	it	ne
 80052d0:	2603      	movne	r6, #3
 80052d2:	d1c3      	bne.n	800525c <stm32__i2c__mem_write+0x1c>
 80052d4:	2104      	movs	r1, #4
 80052d6:	7521      	strb	r1, [r4, #20]
 80052d8:	6811      	ldr	r1, [r2, #0]
 80052da:	f363 21cb 	bfi	r1, r3, #11, #1
 80052de:	6011      	str	r1, [r2, #0]
 80052e0:	6862      	ldr	r2, [r4, #4]
 80052e2:	6813      	ldr	r3, [r2, #0]
 80052e4:	f443 7380 	orr.w	r3, r3, #256	; 0x100
 80052e8:	6013      	str	r3, [r2, #0]
 80052ea:	f001 fd5d 	bl	8006da8 <ada__real_time__clock>
 80052ee:	4606      	mov	r6, r0
 80052f0:	460f      	mov	r7, r1
 80052f2:	e00a      	b.n	800530a <stm32__i2c__mem_write+0xca>
 80052f4:	f001 fd58 	bl	8006da8 <ada__real_time__clock>
 80052f8:	463b      	mov	r3, r7
 80052fa:	4632      	mov	r2, r6
 80052fc:	f001 fd32 	bl	8006d64 <ada__real_time__Osubtract__2>
 8005300:	4582      	cmp	sl, r0
 8005302:	eb7b 0301 	sbcs.w	r3, fp, r1
 8005306:	f2c0 808e 	blt.w	8005426 <stm32__i2c__mem_write+0x1e6>
 800530a:	6862      	ldr	r2, [r4, #4]
 800530c:	6953      	ldr	r3, [r2, #20]
 800530e:	07d9      	lsls	r1, r3, #31
 8005310:	d5f0      	bpl.n	80052f4 <stm32__i2c__mem_write+0xb4>
 8005312:	6911      	ldr	r1, [r2, #16]
 8005314:	9b02      	ldr	r3, [sp, #8]
 8005316:	4620      	mov	r0, r4
 8005318:	f023 0301 	bic.w	r3, r3, #1
 800531c:	f363 0107 	bfi	r1, r3, #0, #8
 8005320:	6111      	str	r1, [r2, #16]
 8005322:	9914      	ldr	r1, [sp, #80]	; 0x50
 8005324:	f7ff f9c2 	bl	80046ac <stm32__i2c__wait_master_flag.constprop.4>
 8005328:	4606      	mov	r6, r0
 800532a:	2800      	cmp	r0, #0
 800532c:	d196      	bne.n	800525c <stm32__i2c__mem_write+0x1c>
 800532e:	6862      	ldr	r2, [r4, #4]
 8005330:	6953      	ldr	r3, [r2, #20]
 8005332:	f3c3 0340 	ubfx	r3, r3, #1, #1
 8005336:	f88d 301f 	strb.w	r3, [sp, #31]
 800533a:	6993      	ldr	r3, [r2, #24]
 800533c:	f3c3 0300 	ubfx	r3, r3, #0, #1
 8005340:	f88d 301f 	strb.w	r3, [sp, #31]
 8005344:	f001 fd30 	bl	8006da8 <ada__real_time__clock>
 8005348:	e9cd 0102 	strd	r0, r1, [sp, #8]
 800534c:	e009      	b.n	8005362 <stm32__i2c__mem_write+0x122>
 800534e:	f001 fd2b 	bl	8006da8 <ada__real_time__clock>
 8005352:	e9dd 2302 	ldrd	r2, r3, [sp, #8]
 8005356:	f001 fd05 	bl	8006d64 <ada__real_time__Osubtract__2>
 800535a:	4582      	cmp	sl, r0
 800535c:	eb7b 0301 	sbcs.w	r3, fp, r1
 8005360:	db61      	blt.n	8005426 <stm32__i2c__mem_write+0x1e6>
 8005362:	6863      	ldr	r3, [r4, #4]
 8005364:	695a      	ldr	r2, [r3, #20]
 8005366:	0612      	lsls	r2, r2, #24
 8005368:	d5f1      	bpl.n	800534e <stm32__i2c__mem_write+0x10e>
 800536a:	9a05      	ldr	r2, [sp, #20]
 800536c:	2a00      	cmp	r2, #0
 800536e:	d17d      	bne.n	800546c <stm32__i2c__mem_write+0x22c>
 8005370:	691a      	ldr	r2, [r3, #16]
 8005372:	9900      	ldr	r1, [sp, #0]
 8005374:	f361 0207 	bfi	r2, r1, #0, #8
 8005378:	611a      	str	r2, [r3, #16]
 800537a:	f001 fd15 	bl	8006da8 <ada__real_time__clock>
 800537e:	e9cd 0100 	strd	r0, r1, [sp]
 8005382:	e009      	b.n	8005398 <stm32__i2c__mem_write+0x158>
 8005384:	f001 fd10 	bl	8006da8 <ada__real_time__clock>
 8005388:	e9dd 2300 	ldrd	r2, r3, [sp]
 800538c:	f001 fcea 	bl	8006d64 <ada__real_time__Osubtract__2>
 8005390:	4582      	cmp	sl, r0
 8005392:	eb7b 0301 	sbcs.w	r3, fp, r1
 8005396:	db46      	blt.n	8005426 <stm32__i2c__mem_write+0x1e6>
 8005398:	6863      	ldr	r3, [r4, #4]
 800539a:	695b      	ldr	r3, [r3, #20]
 800539c:	0618      	lsls	r0, r3, #24
 800539e:	d5f1      	bpl.n	8005384 <stm32__i2c__mem_write+0x144>
 80053a0:	686b      	ldr	r3, [r5, #4]
 80053a2:	9605      	str	r6, [sp, #20]
 80053a4:	f8cd 8008 	str.w	r8, [sp, #8]
 80053a8:	4598      	cmp	r8, r3
 80053aa:	f8cd 8000 	str.w	r8, [sp]
 80053ae:	dc3e      	bgt.n	800542e <stm32__i2c__mem_write+0x1ee>
 80053b0:	f001 fcfa 	bl	8006da8 <ada__real_time__clock>
 80053b4:	4606      	mov	r6, r0
 80053b6:	460f      	mov	r7, r1
 80053b8:	e009      	b.n	80053ce <stm32__i2c__mem_write+0x18e>
 80053ba:	f001 fcf5 	bl	8006da8 <ada__real_time__clock>
 80053be:	463b      	mov	r3, r7
 80053c0:	4632      	mov	r2, r6
 80053c2:	f001 fccf 	bl	8006d64 <ada__real_time__Osubtract__2>
 80053c6:	4582      	cmp	sl, r0
 80053c8:	eb7b 0301 	sbcs.w	r3, fp, r1
 80053cc:	db2b      	blt.n	8005426 <stm32__i2c__mem_write+0x1e6>
 80053ce:	6863      	ldr	r3, [r4, #4]
 80053d0:	695a      	ldr	r2, [r3, #20]
 80053d2:	0611      	lsls	r1, r2, #24
 80053d4:	d5f1      	bpl.n	80053ba <stm32__i2c__mem_write+0x17a>
 80053d6:	691a      	ldr	r2, [r3, #16]
 80053d8:	9902      	ldr	r1, [sp, #8]
 80053da:	ebc1 0108 	rsb	r1, r1, r8
 80053de:	f819 1001 	ldrb.w	r1, [r9, r1]
 80053e2:	f108 0801 	add.w	r8, r8, #1
 80053e6:	f361 0207 	bfi	r2, r1, #0, #8
 80053ea:	611a      	str	r2, [r3, #16]
 80053ec:	6862      	ldr	r2, [r4, #4]
 80053ee:	6953      	ldr	r3, [r2, #20]
 80053f0:	f013 0f04 	tst.w	r3, #4
 80053f4:	686b      	ldr	r3, [r5, #4]
 80053f6:	d0d7      	beq.n	80053a8 <stm32__i2c__mem_write+0x168>
 80053f8:	4598      	cmp	r8, r3
 80053fa:	dcd5      	bgt.n	80053a8 <stm32__i2c__mem_write+0x168>
 80053fc:	6913      	ldr	r3, [r2, #16]
 80053fe:	9902      	ldr	r1, [sp, #8]
 8005400:	9800      	ldr	r0, [sp, #0]
 8005402:	ebc1 0808 	rsb	r8, r1, r8
 8005406:	f819 1008 	ldrb.w	r1, [r9, r8]
 800540a:	f100 0802 	add.w	r8, r0, #2
 800540e:	f361 0307 	bfi	r3, r1, #0, #8
 8005412:	6113      	str	r3, [r2, #16]
 8005414:	686b      	ldr	r3, [r5, #4]
 8005416:	e7c7      	b.n	80053a8 <stm32__i2c__mem_write+0x168>
 8005418:	2603      	movs	r6, #3
 800541a:	4630      	mov	r0, r6
 800541c:	2301      	movs	r3, #1
 800541e:	7523      	strb	r3, [r4, #20]
 8005420:	b009      	add	sp, #36	; 0x24
 8005422:	e8bd 8ff0 	ldmia.w	sp!, {r4, r5, r6, r7, r8, r9, sl, fp, pc}
 8005426:	2301      	movs	r3, #1
 8005428:	7523      	strb	r3, [r4, #20]
 800542a:	2602      	movs	r6, #2
 800542c:	e716      	b.n	800525c <stm32__i2c__mem_write+0x1c>
 800542e:	9e05      	ldr	r6, [sp, #20]
 8005430:	f001 fcba 	bl	8006da8 <ada__real_time__clock>
 8005434:	4680      	mov	r8, r0
 8005436:	4689      	mov	r9, r1
 8005438:	e009      	b.n	800544e <stm32__i2c__mem_write+0x20e>
 800543a:	f001 fcb5 	bl	8006da8 <ada__real_time__clock>
 800543e:	464b      	mov	r3, r9
 8005440:	4642      	mov	r2, r8
 8005442:	f001 fc8f 	bl	8006d64 <ada__real_time__Osubtract__2>
 8005446:	4582      	cmp	sl, r0
 8005448:	eb7b 0301 	sbcs.w	r3, fp, r1
 800544c:	dbeb      	blt.n	8005426 <stm32__i2c__mem_write+0x1e6>
 800544e:	6863      	ldr	r3, [r4, #4]
 8005450:	695a      	ldr	r2, [r3, #20]
 8005452:	0612      	lsls	r2, r2, #24
 8005454:	d5f1      	bpl.n	800543a <stm32__i2c__mem_write+0x1fa>
 8005456:	461a      	mov	r2, r3
 8005458:	4630      	mov	r0, r6
 800545a:	681b      	ldr	r3, [r3, #0]
 800545c:	2101      	movs	r1, #1
 800545e:	f443 7300 	orr.w	r3, r3, #512	; 0x200
 8005462:	6013      	str	r3, [r2, #0]
 8005464:	7521      	strb	r1, [r4, #20]
 8005466:	b009      	add	sp, #36	; 0x24
 8005468:	e8bd 8ff0 	ldmia.w	sp!, {r4, r5, r6, r7, r8, r9, sl, fp, pc}
 800546c:	691a      	ldr	r2, [r3, #16]
 800546e:	9900      	ldr	r1, [sp, #0]
 8005470:	0a09      	lsrs	r1, r1, #8
 8005472:	f361 0207 	bfi	r2, r1, #0, #8
 8005476:	611a      	str	r2, [r3, #16]
 8005478:	f001 fc96 	bl	8006da8 <ada__real_time__clock>
 800547c:	e9cd 0102 	strd	r0, r1, [sp, #8]
 8005480:	e009      	b.n	8005496 <stm32__i2c__mem_write+0x256>
 8005482:	f001 fc91 	bl	8006da8 <ada__real_time__clock>
 8005486:	e9dd 2302 	ldrd	r2, r3, [sp, #8]
 800548a:	f001 fc6b 	bl	8006d64 <ada__real_time__Osubtract__2>
 800548e:	4582      	cmp	sl, r0
 8005490:	eb7b 0301 	sbcs.w	r3, fp, r1
 8005494:	dbc7      	blt.n	8005426 <stm32__i2c__mem_write+0x1e6>
 8005496:	6862      	ldr	r2, [r4, #4]
 8005498:	6953      	ldr	r3, [r2, #20]
 800549a:	061f      	lsls	r7, r3, #24
 800549c:	d5f1      	bpl.n	8005482 <stm32__i2c__mem_write+0x242>
 800549e:	6913      	ldr	r3, [r2, #16]
 80054a0:	9900      	ldr	r1, [sp, #0]
 80054a2:	f361 0307 	bfi	r3, r1, #0, #8
 80054a6:	6113      	str	r3, [r2, #16]
 80054a8:	e767      	b.n	800537a <stm32__i2c__mem_write+0x13a>
 80054aa:	bf00      	nop
 80054ac:	044aa200 	.word	0x044aa200

080054b0 <stm32__device__gpio_port_representation.part.0>:
 80054b0:	b508      	push	{r3, lr}
 80054b2:	4802      	ldr	r0, [pc, #8]	; (80054bc <stm32__device__gpio_port_representation.part.0+0xc>)
 80054b4:	21bb      	movs	r1, #187	; 0xbb
 80054b6:	f7fb f803 	bl	80004c0 <__gnat_last_chance_handler>
 80054ba:	bf00      	nop
 80054bc:	0800a384 	.word	0x0800a384

080054c0 <stm32__afio__connect_external_interrupt>:
 80054c0:	4b2e      	ldr	r3, [pc, #184]	; (800557c <stm32__afio__connect_external_interrupt+0xbc>)
 80054c2:	b570      	push	{r4, r5, r6, lr}
 80054c4:	4298      	cmp	r0, r3
 80054c6:	d03a      	beq.n	800553e <stm32__afio__connect_external_interrupt+0x7e>
 80054c8:	f503 6380 	add.w	r3, r3, #1024	; 0x400
 80054cc:	4298      	cmp	r0, r3
 80054ce:	d038      	beq.n	8005542 <stm32__afio__connect_external_interrupt+0x82>
 80054d0:	f503 6380 	add.w	r3, r3, #1024	; 0x400
 80054d4:	4298      	cmp	r0, r3
 80054d6:	d013      	beq.n	8005500 <stm32__afio__connect_external_interrupt+0x40>
 80054d8:	f503 6380 	add.w	r3, r3, #1024	; 0x400
 80054dc:	4298      	cmp	r0, r3
 80054de:	d032      	beq.n	8005546 <stm32__afio__connect_external_interrupt+0x86>
 80054e0:	f503 6380 	add.w	r3, r3, #1024	; 0x400
 80054e4:	4298      	cmp	r0, r3
 80054e6:	d028      	beq.n	800553a <stm32__afio__connect_external_interrupt+0x7a>
 80054e8:	f503 6380 	add.w	r3, r3, #1024	; 0x400
 80054ec:	4298      	cmp	r0, r3
 80054ee:	d043      	beq.n	8005578 <stm32__afio__connect_external_interrupt+0xb8>
 80054f0:	f503 6380 	add.w	r3, r3, #1024	; 0x400
 80054f4:	4298      	cmp	r0, r3
 80054f6:	bf08      	it	eq
 80054f8:	2406      	moveq	r4, #6
 80054fa:	d002      	beq.n	8005502 <stm32__afio__connect_external_interrupt+0x42>
 80054fc:	f7ff ffd8 	bl	80054b0 <stm32__device__gpio_port_representation.part.0>
 8005500:	2402      	movs	r4, #2
 8005502:	290b      	cmp	r1, #11
 8005504:	d809      	bhi.n	800551a <stm32__afio__connect_external_interrupt+0x5a>
 8005506:	2301      	movs	r3, #1
 8005508:	408b      	lsls	r3, r1
 800550a:	f413 6f70 	tst.w	r3, #3840	; 0xf00
 800550e:	d11c      	bne.n	800554a <stm32__afio__connect_external_interrupt+0x8a>
 8005510:	f013 0ff0 	tst.w	r3, #240	; 0xf0
 8005514:	d128      	bne.n	8005568 <stm32__afio__connect_external_interrupt+0xa8>
 8005516:	071b      	lsls	r3, r3, #28
 8005518:	d129      	bne.n	800556e <stm32__afio__connect_external_interrupt+0xae>
 800551a:	4e19      	ldr	r6, [pc, #100]	; (8005580 <stm32__afio__connect_external_interrupt+0xc0>)
 800551c:	390c      	subs	r1, #12
 800551e:	6830      	ldr	r0, [r6, #0]
 8005520:	0089      	lsls	r1, r1, #2
 8005522:	230f      	movs	r3, #15
 8005524:	408b      	lsls	r3, r1
 8005526:	6835      	ldr	r5, [r6, #0]
 8005528:	408c      	lsls	r4, r1
 800552a:	ea20 0203 	bic.w	r2, r0, r3
 800552e:	ea44 0302 	orr.w	r3, r4, r2
 8005532:	f363 050f 	bfi	r5, r3, #0, #16
 8005536:	6035      	str	r5, [r6, #0]
 8005538:	bd70      	pop	{r4, r5, r6, pc}
 800553a:	2404      	movs	r4, #4
 800553c:	e7e1      	b.n	8005502 <stm32__afio__connect_external_interrupt+0x42>
 800553e:	2400      	movs	r4, #0
 8005540:	e7df      	b.n	8005502 <stm32__afio__connect_external_interrupt+0x42>
 8005542:	2401      	movs	r4, #1
 8005544:	e7dd      	b.n	8005502 <stm32__afio__connect_external_interrupt+0x42>
 8005546:	2403      	movs	r4, #3
 8005548:	e7db      	b.n	8005502 <stm32__afio__connect_external_interrupt+0x42>
 800554a:	4e0e      	ldr	r6, [pc, #56]	; (8005584 <stm32__afio__connect_external_interrupt+0xc4>)
 800554c:	3908      	subs	r1, #8
 800554e:	6830      	ldr	r0, [r6, #0]
 8005550:	6835      	ldr	r5, [r6, #0]
 8005552:	0089      	lsls	r1, r1, #2
 8005554:	220f      	movs	r2, #15
 8005556:	408a      	lsls	r2, r1
 8005558:	408c      	lsls	r4, r1
 800555a:	ea20 0202 	bic.w	r2, r0, r2
 800555e:	4314      	orrs	r4, r2
 8005560:	f364 050f 	bfi	r5, r4, #0, #16
 8005564:	6035      	str	r5, [r6, #0]
 8005566:	bd70      	pop	{r4, r5, r6, pc}
 8005568:	4e07      	ldr	r6, [pc, #28]	; (8005588 <stm32__afio__connect_external_interrupt+0xc8>)
 800556a:	3904      	subs	r1, #4
 800556c:	e7ef      	b.n	800554e <stm32__afio__connect_external_interrupt+0x8e>
 800556e:	4e07      	ldr	r6, [pc, #28]	; (800558c <stm32__afio__connect_external_interrupt+0xcc>)
 8005570:	0089      	lsls	r1, r1, #2
 8005572:	6830      	ldr	r0, [r6, #0]
 8005574:	6835      	ldr	r5, [r6, #0]
 8005576:	e7ed      	b.n	8005554 <stm32__afio__connect_external_interrupt+0x94>
 8005578:	2405      	movs	r4, #5
 800557a:	e7c2      	b.n	8005502 <stm32__afio__connect_external_interrupt+0x42>
 800557c:	40010800 	.word	0x40010800
 8005580:	40010014 	.word	0x40010014
 8005584:	40010010 	.word	0x40010010
 8005588:	4001000c 	.word	0x4001000c
 800558c:	40010008 	.word	0x40010008

08005590 <stm32__gpio___size__2>:
 8005590:	2060      	movs	r0, #96	; 0x60
 8005592:	2100      	movs	r1, #0
 8005594:	4770      	bx	lr
 8005596:	bf00      	nop

08005598 <stm32__gpio__Oeq>:
 8005598:	6842      	ldr	r2, [r0, #4]
 800559a:	684b      	ldr	r3, [r1, #4]
 800559c:	429a      	cmp	r2, r3
 800559e:	d001      	beq.n	80055a4 <stm32__gpio__Oeq+0xc>
 80055a0:	2000      	movs	r0, #0
 80055a2:	4770      	bx	lr
 80055a4:	8903      	ldrh	r3, [r0, #8]
 80055a6:	8908      	ldrh	r0, [r1, #8]
 80055a8:	1a18      	subs	r0, r3, r0
 80055aa:	fab0 f080 	clz	r0, r0
 80055ae:	0940      	lsrs	r0, r0, #5
 80055b0:	4770      	bx	lr
 80055b2:	bf00      	nop

080055b4 <stm32__gpio___assign>:
 80055b4:	4603      	mov	r3, r0
 80055b6:	c907      	ldmia	r1, {r0, r1, r2}
 80055b8:	b410      	push	{r4}
 80055ba:	681c      	ldr	r4, [r3, #0]
 80055bc:	e883 0007 	stmia.w	r3, {r0, r1, r2}
 80055c0:	601c      	str	r4, [r3, #0]
 80055c2:	f85d 4b04 	ldr.w	r4, [sp], #4
 80055c6:	4770      	bx	lr

080055c8 <stm32__gpio__pull_resistor>:
 80055c8:	2000      	movs	r0, #0
 80055ca:	4770      	bx	lr

080055cc <stm32__gpio__set_pull_resistor>:
 80055cc:	2001      	movs	r0, #1
 80055ce:	4770      	bx	lr

080055d0 <stm32__gpio__locked>:
 80055d0:	2001      	movs	r0, #1
 80055d2:	4770      	bx	lr

080055d4 <stm32__gpio__lock>:
 80055d4:	b410      	push	{r4}
 80055d6:	6841      	ldr	r1, [r0, #4]
 80055d8:	b083      	sub	sp, #12
 80055da:	8904      	ldrh	r4, [r0, #8]
 80055dc:	f444 3380 	orr.w	r3, r4, #65536	; 0x10000
 80055e0:	9301      	str	r3, [sp, #4]
 80055e2:	9b01      	ldr	r3, [sp, #4]
 80055e4:	61cb      	str	r3, [r1, #28]
 80055e6:	61cc      	str	r4, [r1, #28]
 80055e8:	9b01      	ldr	r3, [sp, #4]
 80055ea:	61cb      	str	r3, [r1, #28]
 80055ec:	69cb      	ldr	r3, [r1, #28]
 80055ee:	9301      	str	r3, [sp, #4]
 80055f0:	69cb      	ldr	r3, [r1, #28]
 80055f2:	9301      	str	r3, [sp, #4]
 80055f4:	b003      	add	sp, #12
 80055f6:	f85d 4b04 	ldr.w	r4, [sp], #4
 80055fa:	4770      	bx	lr

080055fc <stm32__gpio__configure_alternate_function>:
 80055fc:	4770      	bx	lr
 80055fe:	bf00      	nop

08005600 <stm32__gpio__set>:
 8005600:	6843      	ldr	r3, [r0, #4]
 8005602:	8900      	ldrh	r0, [r0, #8]
 8005604:	689b      	ldr	r3, [r3, #8]
 8005606:	4003      	ands	r3, r0
 8005608:	1a18      	subs	r0, r3, r0
 800560a:	fab0 f080 	clz	r0, r0
 800560e:	0940      	lsrs	r0, r0, #5
 8005610:	4770      	bx	lr
 8005612:	bf00      	nop

08005614 <stm32__gpio__set__2>:
 8005614:	6842      	ldr	r2, [r0, #4]
 8005616:	6913      	ldr	r3, [r2, #16]
 8005618:	8901      	ldrh	r1, [r0, #8]
 800561a:	f361 030f 	bfi	r3, r1, #0, #16
 800561e:	6113      	str	r3, [r2, #16]
 8005620:	4770      	bx	lr
 8005622:	bf00      	nop

08005624 <stm32__gpio__clear>:
 8005624:	6842      	ldr	r2, [r0, #4]
 8005626:	6913      	ldr	r3, [r2, #16]
 8005628:	8901      	ldrh	r1, [r0, #8]
 800562a:	f361 431f 	bfi	r3, r1, #16, #16
 800562e:	6113      	str	r3, [r2, #16]
 8005630:	4770      	bx	lr
 8005632:	bf00      	nop

08005634 <stm32__gpio__toggle>:
 8005634:	b410      	push	{r4}
 8005636:	6842      	ldr	r2, [r0, #4]
 8005638:	68d3      	ldr	r3, [r2, #12]
 800563a:	68d4      	ldr	r4, [r2, #12]
 800563c:	8901      	ldrh	r1, [r0, #8]
 800563e:	4061      	eors	r1, r4
 8005640:	f361 030f 	bfi	r3, r1, #0, #16
 8005644:	60d3      	str	r3, [r2, #12]
 8005646:	f85d 4b04 	ldr.w	r4, [sp], #4
 800564a:	4770      	bx	lr

0800564c <stm32__gpio__interrupt_line_number>:
 800564c:	8903      	ldrh	r3, [r0, #8]
 800564e:	2b80      	cmp	r3, #128	; 0x80
 8005650:	d045      	beq.n	80056de <stm32__gpio__interrupt_line_number+0x92>
 8005652:	d90f      	bls.n	8005674 <stm32__gpio__interrupt_line_number+0x28>
 8005654:	f5b3 6f00 	cmp.w	r3, #2048	; 0x800
 8005658:	d021      	beq.n	800569e <stm32__gpio__interrupt_line_number+0x52>
 800565a:	d924      	bls.n	80056a6 <stm32__gpio__interrupt_line_number+0x5a>
 800565c:	f5b3 5f00 	cmp.w	r3, #8192	; 0x2000
 8005660:	d01b      	beq.n	800569a <stm32__gpio__interrupt_line_number+0x4e>
 8005662:	d92b      	bls.n	80056bc <stm32__gpio__interrupt_line_number+0x70>
 8005664:	f5b3 4f80 	cmp.w	r3, #16384	; 0x4000
 8005668:	d02d      	beq.n	80056c6 <stm32__gpio__interrupt_line_number+0x7a>
 800566a:	f5b3 4f00 	cmp.w	r3, #32768	; 0x8000
 800566e:	d10a      	bne.n	8005686 <stm32__gpio__interrupt_line_number+0x3a>
 8005670:	200f      	movs	r0, #15
 8005672:	4770      	bx	lr
 8005674:	2b08      	cmp	r3, #8
 8005676:	d030      	beq.n	80056da <stm32__gpio__interrupt_line_number+0x8e>
 8005678:	d907      	bls.n	800568a <stm32__gpio__interrupt_line_number+0x3e>
 800567a:	2b20      	cmp	r3, #32
 800567c:	d02b      	beq.n	80056d6 <stm32__gpio__interrupt_line_number+0x8a>
 800567e:	2b40      	cmp	r3, #64	; 0x40
 8005680:	d027      	beq.n	80056d2 <stm32__gpio__interrupt_line_number+0x86>
 8005682:	2b10      	cmp	r3, #16
 8005684:	d00d      	beq.n	80056a2 <stm32__gpio__interrupt_line_number+0x56>
 8005686:	20ff      	movs	r0, #255	; 0xff
 8005688:	4770      	bx	lr
 800568a:	2b02      	cmp	r3, #2
 800568c:	d02b      	beq.n	80056e6 <stm32__gpio__interrupt_line_number+0x9a>
 800568e:	2b04      	cmp	r3, #4
 8005690:	d027      	beq.n	80056e2 <stm32__gpio__interrupt_line_number+0x96>
 8005692:	2b01      	cmp	r3, #1
 8005694:	d1f7      	bne.n	8005686 <stm32__gpio__interrupt_line_number+0x3a>
 8005696:	2000      	movs	r0, #0
 8005698:	4770      	bx	lr
 800569a:	200d      	movs	r0, #13
 800569c:	4770      	bx	lr
 800569e:	200b      	movs	r0, #11
 80056a0:	4770      	bx	lr
 80056a2:	2004      	movs	r0, #4
 80056a4:	4770      	bx	lr
 80056a6:	f5b3 7f00 	cmp.w	r3, #512	; 0x200
 80056aa:	d010      	beq.n	80056ce <stm32__gpio__interrupt_line_number+0x82>
 80056ac:	f5b3 6f80 	cmp.w	r3, #1024	; 0x400
 80056b0:	d00b      	beq.n	80056ca <stm32__gpio__interrupt_line_number+0x7e>
 80056b2:	f5b3 7f80 	cmp.w	r3, #256	; 0x100
 80056b6:	d1e6      	bne.n	8005686 <stm32__gpio__interrupt_line_number+0x3a>
 80056b8:	2008      	movs	r0, #8
 80056ba:	4770      	bx	lr
 80056bc:	f5b3 5f80 	cmp.w	r3, #4096	; 0x1000
 80056c0:	d1e1      	bne.n	8005686 <stm32__gpio__interrupt_line_number+0x3a>
 80056c2:	200c      	movs	r0, #12
 80056c4:	4770      	bx	lr
 80056c6:	200e      	movs	r0, #14
 80056c8:	4770      	bx	lr
 80056ca:	200a      	movs	r0, #10
 80056cc:	4770      	bx	lr
 80056ce:	2009      	movs	r0, #9
 80056d0:	4770      	bx	lr
 80056d2:	2006      	movs	r0, #6
 80056d4:	4770      	bx	lr
 80056d6:	2005      	movs	r0, #5
 80056d8:	4770      	bx	lr
 80056da:	2003      	movs	r0, #3
 80056dc:	4770      	bx	lr
 80056de:	2007      	movs	r0, #7
 80056e0:	4770      	bx	lr
 80056e2:	2002      	movs	r0, #2
 80056e4:	4770      	bx	lr
 80056e6:	2001      	movs	r0, #1
 80056e8:	4770      	bx	lr
 80056ea:	bf00      	nop

080056ec <stm32__gpio__mode>:
 80056ec:	8903      	ldrh	r3, [r0, #8]
 80056ee:	2b80      	cmp	r3, #128	; 0x80
 80056f0:	d057      	beq.n	80057a2 <stm32__gpio__mode+0xb6>
 80056f2:	d91a      	bls.n	800572a <stm32__gpio__mode+0x3e>
 80056f4:	f5b3 6f00 	cmp.w	r3, #2048	; 0x800
 80056f8:	d032      	beq.n	8005760 <stm32__gpio__mode+0x74>
 80056fa:	d935      	bls.n	8005768 <stm32__gpio__mode+0x7c>
 80056fc:	f5b3 5f00 	cmp.w	r3, #8192	; 0x2000
 8005700:	d02c      	beq.n	800575c <stm32__gpio__mode+0x70>
 8005702:	d93c      	bls.n	800577e <stm32__gpio__mode+0x92>
 8005704:	f5b3 4f80 	cmp.w	r3, #16384	; 0x4000
 8005708:	d03f      	beq.n	800578a <stm32__gpio__mode+0x9e>
 800570a:	f5b3 4f00 	cmp.w	r3, #32768	; 0x8000
 800570e:	bf08      	it	eq
 8005710:	221c      	moveq	r2, #28
 8005712:	d113      	bne.n	800573c <stm32__gpio__mode+0x50>
 8005714:	6843      	ldr	r3, [r0, #4]
 8005716:	685b      	ldr	r3, [r3, #4]
 8005718:	40d3      	lsrs	r3, r2
 800571a:	f003 030f 	and.w	r3, r3, #15
 800571e:	f013 0f03 	tst.w	r3, #3
 8005722:	bf0c      	ite	eq
 8005724:	2001      	moveq	r0, #1
 8005726:	2002      	movne	r0, #2
 8005728:	4770      	bx	lr
 800572a:	2b08      	cmp	r3, #8
 800572c:	d037      	beq.n	800579e <stm32__gpio__mode+0xb2>
 800572e:	d90d      	bls.n	800574c <stm32__gpio__mode+0x60>
 8005730:	2b20      	cmp	r3, #32
 8005732:	d032      	beq.n	800579a <stm32__gpio__mode+0xae>
 8005734:	2b40      	cmp	r3, #64	; 0x40
 8005736:	d02e      	beq.n	8005796 <stm32__gpio__mode+0xaa>
 8005738:	2b10      	cmp	r3, #16
 800573a:	d013      	beq.n	8005764 <stm32__gpio__mode+0x78>
 800573c:	f06f 0203 	mvn.w	r2, #3
 8005740:	6843      	ldr	r3, [r0, #4]
 8005742:	681b      	ldr	r3, [r3, #0]
 8005744:	40d3      	lsrs	r3, r2
 8005746:	f003 030f 	and.w	r3, r3, #15
 800574a:	e7e8      	b.n	800571e <stm32__gpio__mode+0x32>
 800574c:	2b02      	cmp	r3, #2
 800574e:	d02c      	beq.n	80057aa <stm32__gpio__mode+0xbe>
 8005750:	2b04      	cmp	r3, #4
 8005752:	d028      	beq.n	80057a6 <stm32__gpio__mode+0xba>
 8005754:	2b01      	cmp	r3, #1
 8005756:	d1f1      	bne.n	800573c <stm32__gpio__mode+0x50>
 8005758:	2200      	movs	r2, #0
 800575a:	e7f1      	b.n	8005740 <stm32__gpio__mode+0x54>
 800575c:	2214      	movs	r2, #20
 800575e:	e7d9      	b.n	8005714 <stm32__gpio__mode+0x28>
 8005760:	220c      	movs	r2, #12
 8005762:	e7d7      	b.n	8005714 <stm32__gpio__mode+0x28>
 8005764:	461a      	mov	r2, r3
 8005766:	e7eb      	b.n	8005740 <stm32__gpio__mode+0x54>
 8005768:	f5b3 7f00 	cmp.w	r3, #512	; 0x200
 800576c:	d011      	beq.n	8005792 <stm32__gpio__mode+0xa6>
 800576e:	f5b3 6f80 	cmp.w	r3, #1024	; 0x400
 8005772:	d00c      	beq.n	800578e <stm32__gpio__mode+0xa2>
 8005774:	f5b3 7f80 	cmp.w	r3, #256	; 0x100
 8005778:	d1e0      	bne.n	800573c <stm32__gpio__mode+0x50>
 800577a:	2200      	movs	r2, #0
 800577c:	e7ca      	b.n	8005714 <stm32__gpio__mode+0x28>
 800577e:	f5b3 5f80 	cmp.w	r3, #4096	; 0x1000
 8005782:	bf08      	it	eq
 8005784:	2210      	moveq	r2, #16
 8005786:	d0c5      	beq.n	8005714 <stm32__gpio__mode+0x28>
 8005788:	e7d8      	b.n	800573c <stm32__gpio__mode+0x50>
 800578a:	2218      	movs	r2, #24
 800578c:	e7c2      	b.n	8005714 <stm32__gpio__mode+0x28>
 800578e:	2208      	movs	r2, #8
 8005790:	e7c0      	b.n	8005714 <stm32__gpio__mode+0x28>
 8005792:	2204      	movs	r2, #4
 8005794:	e7be      	b.n	8005714 <stm32__gpio__mode+0x28>
 8005796:	2218      	movs	r2, #24
 8005798:	e7d2      	b.n	8005740 <stm32__gpio__mode+0x54>
 800579a:	2214      	movs	r2, #20
 800579c:	e7d0      	b.n	8005740 <stm32__gpio__mode+0x54>
 800579e:	220c      	movs	r2, #12
 80057a0:	e7ce      	b.n	8005740 <stm32__gpio__mode+0x54>
 80057a2:	221c      	movs	r2, #28
 80057a4:	e7cc      	b.n	8005740 <stm32__gpio__mode+0x54>
 80057a6:	2208      	movs	r2, #8
 80057a8:	e7ca      	b.n	8005740 <stm32__gpio__mode+0x54>
 80057aa:	2204      	movs	r2, #4
 80057ac:	e7c8      	b.n	8005740 <stm32__gpio__mode+0x54>
 80057ae:	bf00      	nop

080057b0 <stm32__gpio__set_mode>:
 80057b0:	8903      	ldrh	r3, [r0, #8]
 80057b2:	b410      	push	{r4}
 80057b4:	2b80      	cmp	r3, #128	; 0x80
 80057b6:	f000 808c 	beq.w	80058d2 <stm32__gpio__set_mode+0x122>
 80057ba:	d91f      	bls.n	80057fc <stm32__gpio__set_mode+0x4c>
 80057bc:	f5b3 6f00 	cmp.w	r3, #2048	; 0x800
 80057c0:	d043      	beq.n	800584a <stm32__gpio__set_mode+0x9a>
 80057c2:	d957      	bls.n	8005874 <stm32__gpio__set_mode+0xc4>
 80057c4:	f5b3 5f00 	cmp.w	r3, #8192	; 0x2000
 80057c8:	d046      	beq.n	8005858 <stm32__gpio__set_mode+0xa8>
 80057ca:	d96c      	bls.n	80058a6 <stm32__gpio__set_mode+0xf6>
 80057cc:	f5b3 4f80 	cmp.w	r3, #16384	; 0x4000
 80057d0:	d073      	beq.n	80058ba <stm32__gpio__set_mode+0x10a>
 80057d2:	f5b3 4f00 	cmp.w	r3, #32768	; 0x8000
 80057d6:	d11c      	bne.n	8005812 <stm32__gpio__set_mode+0x62>
 80057d8:	f04f 5200 	mov.w	r2, #536870912	; 0x20000000
 80057dc:	f04f 4300 	mov.w	r3, #2147483648	; 0x80000000
 80057e0:	f06f 4470 	mvn.w	r4, #4026531840	; 0xf0000000
 80057e4:	2902      	cmp	r1, #2
 80057e6:	d05c      	beq.n	80058a2 <stm32__gpio__set_mode+0xf2>
 80057e8:	6842      	ldr	r2, [r0, #4]
 80057ea:	2001      	movs	r0, #1
 80057ec:	6851      	ldr	r1, [r2, #4]
 80057ee:	6851      	ldr	r1, [r2, #4]
 80057f0:	4021      	ands	r1, r4
 80057f2:	430b      	orrs	r3, r1
 80057f4:	6053      	str	r3, [r2, #4]
 80057f6:	f85d 4b04 	ldr.w	r4, [sp], #4
 80057fa:	4770      	bx	lr
 80057fc:	2b08      	cmp	r3, #8
 80057fe:	d076      	beq.n	80058ee <stm32__gpio__set_mode+0x13e>
 8005800:	d917      	bls.n	8005832 <stm32__gpio__set_mode+0x82>
 8005802:	2b20      	cmp	r3, #32
 8005804:	f000 808d 	beq.w	8005922 <stm32__gpio__set_mode+0x172>
 8005808:	2b40      	cmp	r3, #64	; 0x40
 800580a:	f000 8083 	beq.w	8005914 <stm32__gpio__set_mode+0x164>
 800580e:	2b10      	cmp	r3, #16
 8005810:	d029      	beq.n	8005866 <stm32__gpio__set_mode+0xb6>
 8005812:	2200      	movs	r2, #0
 8005814:	4613      	mov	r3, r2
 8005816:	f04f 34ff 	mov.w	r4, #4294967295
 800581a:	2902      	cmp	r1, #2
 800581c:	d03c      	beq.n	8005898 <stm32__gpio__set_mode+0xe8>
 800581e:	6842      	ldr	r2, [r0, #4]
 8005820:	2001      	movs	r0, #1
 8005822:	6811      	ldr	r1, [r2, #0]
 8005824:	6811      	ldr	r1, [r2, #0]
 8005826:	4021      	ands	r1, r4
 8005828:	430b      	orrs	r3, r1
 800582a:	6013      	str	r3, [r2, #0]
 800582c:	f85d 4b04 	ldr.w	r4, [sp], #4
 8005830:	4770      	bx	lr
 8005832:	2b02      	cmp	r3, #2
 8005834:	d069      	beq.n	800590a <stm32__gpio__set_mode+0x15a>
 8005836:	2b04      	cmp	r3, #4
 8005838:	d060      	beq.n	80058fc <stm32__gpio__set_mode+0x14c>
 800583a:	2b01      	cmp	r3, #1
 800583c:	d1e9      	bne.n	8005812 <stm32__gpio__set_mode+0x62>
 800583e:	2902      	cmp	r1, #2
 8005840:	d027      	beq.n	8005892 <stm32__gpio__set_mode+0xe2>
 8005842:	2308      	movs	r3, #8
 8005844:	f06f 040f 	mvn.w	r4, #15
 8005848:	e7e9      	b.n	800581e <stm32__gpio__set_mode+0x6e>
 800584a:	f44f 5200 	mov.w	r2, #8192	; 0x2000
 800584e:	f44f 4300 	mov.w	r3, #32768	; 0x8000
 8005852:	f46f 4470 	mvn.w	r4, #61440	; 0xf000
 8005856:	e7c5      	b.n	80057e4 <stm32__gpio__set_mode+0x34>
 8005858:	f44f 1200 	mov.w	r2, #2097152	; 0x200000
 800585c:	f44f 0300 	mov.w	r3, #8388608	; 0x800000
 8005860:	f46f 0470 	mvn.w	r4, #15728640	; 0xf00000
 8005864:	e7be      	b.n	80057e4 <stm32__gpio__set_mode+0x34>
 8005866:	f44f 3200 	mov.w	r2, #131072	; 0x20000
 800586a:	f44f 2300 	mov.w	r3, #524288	; 0x80000
 800586e:	f46f 2470 	mvn.w	r4, #983040	; 0xf0000
 8005872:	e7d2      	b.n	800581a <stm32__gpio__set_mode+0x6a>
 8005874:	f5b3 7f00 	cmp.w	r3, #512	; 0x200
 8005878:	d026      	beq.n	80058c8 <stm32__gpio__set_mode+0x118>
 800587a:	f5b3 6f80 	cmp.w	r3, #1024	; 0x400
 800587e:	d02f      	beq.n	80058e0 <stm32__gpio__set_mode+0x130>
 8005880:	f5b3 7f80 	cmp.w	r3, #256	; 0x100
 8005884:	d1c5      	bne.n	8005812 <stm32__gpio__set_mode+0x62>
 8005886:	2902      	cmp	r1, #2
 8005888:	d008      	beq.n	800589c <stm32__gpio__set_mode+0xec>
 800588a:	2308      	movs	r3, #8
 800588c:	f06f 040f 	mvn.w	r4, #15
 8005890:	e7aa      	b.n	80057e8 <stm32__gpio__set_mode+0x38>
 8005892:	460a      	mov	r2, r1
 8005894:	f06f 040f 	mvn.w	r4, #15
 8005898:	4613      	mov	r3, r2
 800589a:	e7c0      	b.n	800581e <stm32__gpio__set_mode+0x6e>
 800589c:	460a      	mov	r2, r1
 800589e:	f06f 040f 	mvn.w	r4, #15
 80058a2:	4613      	mov	r3, r2
 80058a4:	e7a0      	b.n	80057e8 <stm32__gpio__set_mode+0x38>
 80058a6:	f5b3 5f80 	cmp.w	r3, #4096	; 0x1000
 80058aa:	d1b2      	bne.n	8005812 <stm32__gpio__set_mode+0x62>
 80058ac:	f44f 3200 	mov.w	r2, #131072	; 0x20000
 80058b0:	f44f 2300 	mov.w	r3, #524288	; 0x80000
 80058b4:	f46f 2470 	mvn.w	r4, #983040	; 0xf0000
 80058b8:	e794      	b.n	80057e4 <stm32__gpio__set_mode+0x34>
 80058ba:	f04f 7200 	mov.w	r2, #33554432	; 0x2000000
 80058be:	f04f 6300 	mov.w	r3, #134217728	; 0x8000000
 80058c2:	f06f 6470 	mvn.w	r4, #251658240	; 0xf000000
 80058c6:	e78d      	b.n	80057e4 <stm32__gpio__set_mode+0x34>
 80058c8:	2220      	movs	r2, #32
 80058ca:	2380      	movs	r3, #128	; 0x80
 80058cc:	f06f 04f0 	mvn.w	r4, #240	; 0xf0
 80058d0:	e788      	b.n	80057e4 <stm32__gpio__set_mode+0x34>
 80058d2:	f04f 5200 	mov.w	r2, #536870912	; 0x20000000
 80058d6:	f04f 4300 	mov.w	r3, #2147483648	; 0x80000000
 80058da:	f06f 4470 	mvn.w	r4, #4026531840	; 0xf0000000
 80058de:	e79c      	b.n	800581a <stm32__gpio__set_mode+0x6a>
 80058e0:	f44f 7200 	mov.w	r2, #512	; 0x200
 80058e4:	f44f 6300 	mov.w	r3, #2048	; 0x800
 80058e8:	f46f 6470 	mvn.w	r4, #3840	; 0xf00
 80058ec:	e77a      	b.n	80057e4 <stm32__gpio__set_mode+0x34>
 80058ee:	f44f 5200 	mov.w	r2, #8192	; 0x2000
 80058f2:	f44f 4300 	mov.w	r3, #32768	; 0x8000
 80058f6:	f46f 4470 	mvn.w	r4, #61440	; 0xf000
 80058fa:	e78e      	b.n	800581a <stm32__gpio__set_mode+0x6a>
 80058fc:	f44f 7200 	mov.w	r2, #512	; 0x200
 8005900:	f44f 6300 	mov.w	r3, #2048	; 0x800
 8005904:	f46f 6470 	mvn.w	r4, #3840	; 0xf00
 8005908:	e787      	b.n	800581a <stm32__gpio__set_mode+0x6a>
 800590a:	2220      	movs	r2, #32
 800590c:	2380      	movs	r3, #128	; 0x80
 800590e:	f06f 04f0 	mvn.w	r4, #240	; 0xf0
 8005912:	e782      	b.n	800581a <stm32__gpio__set_mode+0x6a>
 8005914:	f04f 7200 	mov.w	r2, #33554432	; 0x2000000
 8005918:	f04f 6300 	mov.w	r3, #134217728	; 0x8000000
 800591c:	f06f 6470 	mvn.w	r4, #251658240	; 0xf000000
 8005920:	e77b      	b.n	800581a <stm32__gpio__set_mode+0x6a>
 8005922:	f44f 1200 	mov.w	r2, #2097152	; 0x200000
 8005926:	f44f 0300 	mov.w	r3, #8388608	; 0x800000
 800592a:	f46f 0470 	mvn.w	r4, #15728640	; 0xf00000
 800592e:	e774      	b.n	800581a <stm32__gpio__set_mode+0x6a>

08005930 <stm32__gpio__configure_io>:
 8005930:	b470      	push	{r4, r5, r6}
 8005932:	8903      	ldrh	r3, [r0, #8]
 8005934:	b083      	sub	sp, #12
 8005936:	2b80      	cmp	r3, #128	; 0x80
 8005938:	9101      	str	r1, [sp, #4]
 800593a:	b2ca      	uxtb	r2, r1
 800593c:	f3c1 2107 	ubfx	r1, r1, #8, #8
 8005940:	f000 809b 	beq.w	8005a7a <stm32__gpio__configure_io+0x14a>
 8005944:	d941      	bls.n	80059ca <stm32__gpio__configure_io+0x9a>
 8005946:	f5b3 6f00 	cmp.w	r3, #2048	; 0x800
 800594a:	d06a      	beq.n	8005a22 <stm32__gpio__configure_io+0xf2>
 800594c:	d97d      	bls.n	8005a4a <stm32__gpio__configure_io+0x11a>
 800594e:	f5b3 5f00 	cmp.w	r3, #8192	; 0x2000
 8005952:	d068      	beq.n	8005a26 <stm32__gpio__configure_io+0xf6>
 8005954:	f240 8088 	bls.w	8005a68 <stm32__gpio__configure_io+0x138>
 8005958:	f5b3 4f80 	cmp.w	r3, #16384	; 0x4000
 800595c:	f000 808b 	beq.w	8005a76 <stm32__gpio__configure_io+0x146>
 8005960:	f5b3 4f00 	cmp.w	r3, #32768	; 0x8000
 8005964:	bf08      	it	eq
 8005966:	230f      	moveq	r3, #15
 8005968:	d138      	bne.n	80059dc <stm32__gpio__configure_io+0xac>
 800596a:	2a00      	cmp	r2, #0
 800596c:	d03a      	beq.n	80059e4 <stm32__gpio__configure_io+0xb4>
 800596e:	2900      	cmp	r1, #0
 8005970:	d076      	beq.n	8005a60 <stm32__gpio__configure_io+0x130>
 8005972:	2901      	cmp	r1, #1
 8005974:	bf0c      	ite	eq
 8005976:	2604      	moveq	r6, #4
 8005978:	2600      	movne	r6, #0
 800597a:	f89d 4006 	ldrb.w	r4, [sp, #6]
 800597e:	2c01      	cmp	r4, #1
 8005980:	d004      	beq.n	800598c <stm32__gpio__configure_io+0x5c>
 8005982:	d36f      	bcc.n	8005a64 <stm32__gpio__configure_io+0x134>
 8005984:	2c02      	cmp	r4, #2
 8005986:	bf0c      	ite	eq
 8005988:	2403      	moveq	r4, #3
 800598a:	2400      	movne	r4, #0
 800598c:	f89d 5007 	ldrb.w	r5, [sp, #7]
 8005990:	2d00      	cmp	r5, #0
 8005992:	d04c      	beq.n	8005a2e <stm32__gpio__configure_io+0xfe>
 8005994:	2a01      	cmp	r2, #1
 8005996:	f04f 0508 	mov.w	r5, #8
 800599a:	d04c      	beq.n	8005a36 <stm32__gpio__configure_io+0x106>
 800599c:	d302      	bcc.n	80059a4 <stm32__gpio__configure_io+0x74>
 800599e:	2a02      	cmp	r2, #2
 80059a0:	d04c      	beq.n	8005a3c <stm32__gpio__configure_io+0x10c>
 80059a2:	2500      	movs	r5, #0
 80059a4:	2b07      	cmp	r3, #7
 80059a6:	dd25      	ble.n	80059f4 <stm32__gpio__configure_io+0xc4>
 80059a8:	6844      	ldr	r4, [r0, #4]
 80059aa:	f1a3 0008 	sub.w	r0, r3, #8
 80059ae:	0080      	lsls	r0, r0, #2
 80059b0:	6863      	ldr	r3, [r4, #4]
 80059b2:	220f      	movs	r2, #15
 80059b4:	6861      	ldr	r1, [r4, #4]
 80059b6:	4082      	lsls	r2, r0
 80059b8:	fa05 f300 	lsl.w	r3, r5, r0
 80059bc:	ea21 0202 	bic.w	r2, r1, r2
 80059c0:	4313      	orrs	r3, r2
 80059c2:	6063      	str	r3, [r4, #4]
 80059c4:	b003      	add	sp, #12
 80059c6:	bc70      	pop	{r4, r5, r6}
 80059c8:	4770      	bx	lr
 80059ca:	2b08      	cmp	r3, #8
 80059cc:	d057      	beq.n	8005a7e <stm32__gpio__configure_io+0x14e>
 80059ce:	d920      	bls.n	8005a12 <stm32__gpio__configure_io+0xe2>
 80059d0:	2b20      	cmp	r3, #32
 80059d2:	d060      	beq.n	8005a96 <stm32__gpio__configure_io+0x166>
 80059d4:	2b40      	cmp	r3, #64	; 0x40
 80059d6:	d05c      	beq.n	8005a92 <stm32__gpio__configure_io+0x162>
 80059d8:	2b10      	cmp	r3, #16
 80059da:	d026      	beq.n	8005a2a <stm32__gpio__configure_io+0xfa>
 80059dc:	f04f 33ff 	mov.w	r3, #4294967295
 80059e0:	2a00      	cmp	r2, #0
 80059e2:	d1c4      	bne.n	800596e <stm32__gpio__configure_io+0x3e>
 80059e4:	f89d 5007 	ldrb.w	r5, [sp, #7]
 80059e8:	2d00      	cmp	r5, #0
 80059ea:	d1d3      	bne.n	8005994 <stm32__gpio__configure_io+0x64>
 80059ec:	2b07      	cmp	r3, #7
 80059ee:	f04f 0504 	mov.w	r5, #4
 80059f2:	dcd9      	bgt.n	80059a8 <stm32__gpio__configure_io+0x78>
 80059f4:	6840      	ldr	r0, [r0, #4]
 80059f6:	009b      	lsls	r3, r3, #2
 80059f8:	6802      	ldr	r2, [r0, #0]
 80059fa:	6801      	ldr	r1, [r0, #0]
 80059fc:	220f      	movs	r2, #15
 80059fe:	409a      	lsls	r2, r3
 8005a00:	fa05 f403 	lsl.w	r4, r5, r3
 8005a04:	ea21 0202 	bic.w	r2, r1, r2
 8005a08:	4314      	orrs	r4, r2
 8005a0a:	6004      	str	r4, [r0, #0]
 8005a0c:	b003      	add	sp, #12
 8005a0e:	bc70      	pop	{r4, r5, r6}
 8005a10:	4770      	bx	lr
 8005a12:	2b02      	cmp	r3, #2
 8005a14:	d03b      	beq.n	8005a8e <stm32__gpio__configure_io+0x15e>
 8005a16:	2b04      	cmp	r3, #4
 8005a18:	d037      	beq.n	8005a8a <stm32__gpio__configure_io+0x15a>
 8005a1a:	2b01      	cmp	r3, #1
 8005a1c:	d1de      	bne.n	80059dc <stm32__gpio__configure_io+0xac>
 8005a1e:	2300      	movs	r3, #0
 8005a20:	e7a3      	b.n	800596a <stm32__gpio__configure_io+0x3a>
 8005a22:	230b      	movs	r3, #11
 8005a24:	e7a1      	b.n	800596a <stm32__gpio__configure_io+0x3a>
 8005a26:	230d      	movs	r3, #13
 8005a28:	e79f      	b.n	800596a <stm32__gpio__configure_io+0x3a>
 8005a2a:	2304      	movs	r3, #4
 8005a2c:	e79d      	b.n	800596a <stm32__gpio__configure_io+0x3a>
 8005a2e:	2a01      	cmp	r2, #1
 8005a30:	f04f 0504 	mov.w	r5, #4
 8005a34:	d1b2      	bne.n	800599c <stm32__gpio__configure_io+0x6c>
 8005a36:	4334      	orrs	r4, r6
 8005a38:	b2e5      	uxtb	r5, r4
 8005a3a:	e7b3      	b.n	80059a4 <stm32__gpio__configure_io+0x74>
 8005a3c:	2901      	cmp	r1, #1
 8005a3e:	bf0c      	ite	eq
 8005a40:	220c      	moveq	r2, #12
 8005a42:	2208      	movne	r2, #8
 8005a44:	4314      	orrs	r4, r2
 8005a46:	b2e5      	uxtb	r5, r4
 8005a48:	e7ac      	b.n	80059a4 <stm32__gpio__configure_io+0x74>
 8005a4a:	f5b3 7f00 	cmp.w	r3, #512	; 0x200
 8005a4e:	d01a      	beq.n	8005a86 <stm32__gpio__configure_io+0x156>
 8005a50:	f5b3 6f80 	cmp.w	r3, #1024	; 0x400
 8005a54:	d015      	beq.n	8005a82 <stm32__gpio__configure_io+0x152>
 8005a56:	f5b3 7f80 	cmp.w	r3, #256	; 0x100
 8005a5a:	d1bf      	bne.n	80059dc <stm32__gpio__configure_io+0xac>
 8005a5c:	2308      	movs	r3, #8
 8005a5e:	e784      	b.n	800596a <stm32__gpio__configure_io+0x3a>
 8005a60:	460e      	mov	r6, r1
 8005a62:	e78a      	b.n	800597a <stm32__gpio__configure_io+0x4a>
 8005a64:	2402      	movs	r4, #2
 8005a66:	e791      	b.n	800598c <stm32__gpio__configure_io+0x5c>
 8005a68:	f5b3 5f80 	cmp.w	r3, #4096	; 0x1000
 8005a6c:	bf08      	it	eq
 8005a6e:	230c      	moveq	r3, #12
 8005a70:	f43f af7b 	beq.w	800596a <stm32__gpio__configure_io+0x3a>
 8005a74:	e7b2      	b.n	80059dc <stm32__gpio__configure_io+0xac>
 8005a76:	230e      	movs	r3, #14
 8005a78:	e777      	b.n	800596a <stm32__gpio__configure_io+0x3a>
 8005a7a:	2307      	movs	r3, #7
 8005a7c:	e775      	b.n	800596a <stm32__gpio__configure_io+0x3a>
 8005a7e:	2303      	movs	r3, #3
 8005a80:	e773      	b.n	800596a <stm32__gpio__configure_io+0x3a>
 8005a82:	230a      	movs	r3, #10
 8005a84:	e771      	b.n	800596a <stm32__gpio__configure_io+0x3a>
 8005a86:	2309      	movs	r3, #9
 8005a88:	e76f      	b.n	800596a <stm32__gpio__configure_io+0x3a>
 8005a8a:	2302      	movs	r3, #2
 8005a8c:	e76d      	b.n	800596a <stm32__gpio__configure_io+0x3a>
 8005a8e:	2301      	movs	r3, #1
 8005a90:	e76b      	b.n	800596a <stm32__gpio__configure_io+0x3a>
 8005a92:	2306      	movs	r3, #6
 8005a94:	e769      	b.n	800596a <stm32__gpio__configure_io+0x3a>
 8005a96:	2305      	movs	r3, #5
 8005a98:	e767      	b.n	800596a <stm32__gpio__configure_io+0x3a>
 8005a9a:	bf00      	nop

08005a9c <stm32__gpio__configure_trigger>:
 8005a9c:	b5f8      	push	{r3, r4, r5, r6, r7, lr}
 8005a9e:	8903      	ldrh	r3, [r0, #8]
 8005aa0:	460d      	mov	r5, r1
 8005aa2:	2b80      	cmp	r3, #128	; 0x80
 8005aa4:	f000 80f9 	beq.w	8005c9a <stm32__gpio__configure_trigger+0x1fe>
 8005aa8:	d935      	bls.n	8005b16 <stm32__gpio__configure_trigger+0x7a>
 8005aaa:	f5b3 6f00 	cmp.w	r3, #2048	; 0x800
 8005aae:	d071      	beq.n	8005b94 <stm32__gpio__configure_trigger+0xf8>
 8005ab0:	f240 80ae 	bls.w	8005c10 <stm32__gpio__configure_trigger+0x174>
 8005ab4:	f5b3 5f00 	cmp.w	r3, #8192	; 0x2000
 8005ab8:	d065      	beq.n	8005b86 <stm32__gpio__configure_trigger+0xea>
 8005aba:	f240 80b9 	bls.w	8005c30 <stm32__gpio__configure_trigger+0x194>
 8005abe:	f5b3 4f80 	cmp.w	r3, #16384	; 0x4000
 8005ac2:	f000 80c0 	beq.w	8005c46 <stm32__gpio__configure_trigger+0x1aa>
 8005ac6:	f5b3 4f00 	cmp.w	r3, #32768	; 0x8000
 8005aca:	d130      	bne.n	8005b2e <stm32__gpio__configure_trigger+0x92>
 8005acc:	461c      	mov	r4, r3
 8005ace:	6840      	ldr	r0, [r0, #4]
 8005ad0:	f46f 4600 	mvn.w	r6, #32768	; 0x8000
 8005ad4:	270f      	movs	r7, #15
 8005ad6:	210f      	movs	r1, #15
 8005ad8:	f7ff fcf2 	bl	80054c0 <stm32__afio__connect_external_interrupt>
 8005adc:	2d02      	cmp	r5, #2
 8005ade:	d967      	bls.n	8005bb0 <stm32__gpio__configure_trigger+0x114>
 8005ae0:	49b1      	ldr	r1, [pc, #708]	; (8005da8 <stm32__gpio__configure_trigger+0x30c>)
 8005ae2:	48b2      	ldr	r0, [pc, #712]	; (8005dac <stm32__gpio__configure_trigger+0x310>)
 8005ae4:	680b      	ldr	r3, [r1, #0]
 8005ae6:	680a      	ldr	r2, [r1, #0]
 8005ae8:	f3c3 0312 	ubfx	r3, r3, #0, #19
 8005aec:	4323      	orrs	r3, r4
 8005aee:	f363 0212 	bfi	r2, r3, #0, #19
 8005af2:	600a      	str	r2, [r1, #0]
 8005af4:	6802      	ldr	r2, [r0, #0]
 8005af6:	6803      	ldr	r3, [r0, #0]
 8005af8:	f3c2 0212 	ubfx	r2, r2, #0, #19
 8005afc:	4032      	ands	r2, r6
 8005afe:	f362 0312 	bfi	r3, r2, #0, #19
 8005b02:	6003      	str	r3, [r0, #0]
 8005b04:	688b      	ldr	r3, [r1, #8]
 8005b06:	688a      	ldr	r2, [r1, #8]
 8005b08:	f3c3 0312 	ubfx	r3, r3, #0, #19
 8005b0c:	4033      	ands	r3, r6
 8005b0e:	f363 0212 	bfi	r2, r3, #0, #19
 8005b12:	608a      	str	r2, [r1, #8]
 8005b14:	bdf8      	pop	{r3, r4, r5, r6, r7, pc}
 8005b16:	2b08      	cmp	r3, #8
 8005b18:	f000 80b8 	beq.w	8005c8c <stm32__gpio__configure_trigger+0x1f0>
 8005b1c:	d925      	bls.n	8005b6a <stm32__gpio__configure_trigger+0xce>
 8005b1e:	2b20      	cmp	r3, #32
 8005b20:	f000 80c9 	beq.w	8005cb6 <stm32__gpio__configure_trigger+0x21a>
 8005b24:	2b40      	cmp	r3, #64	; 0x40
 8005b26:	f000 80bf 	beq.w	8005ca8 <stm32__gpio__configure_trigger+0x20c>
 8005b2a:	2b10      	cmp	r3, #16
 8005b2c:	d039      	beq.n	8005ba2 <stm32__gpio__configure_trigger+0x106>
 8005b2e:	2b80      	cmp	r3, #128	; 0x80
 8005b30:	6840      	ldr	r0, [r0, #4]
 8005b32:	f000 8124 	beq.w	8005d7e <stm32__gpio__configure_trigger+0x2e2>
 8005b36:	f240 80c5 	bls.w	8005cc4 <stm32__gpio__configure_trigger+0x228>
 8005b3a:	f5b3 6f00 	cmp.w	r3, #2048	; 0x800
 8005b3e:	f000 810a 	beq.w	8005d56 <stm32__gpio__configure_trigger+0x2ba>
 8005b42:	f200 80cf 	bhi.w	8005ce4 <stm32__gpio__configure_trigger+0x248>
 8005b46:	f5b3 7f00 	cmp.w	r3, #512	; 0x200
 8005b4a:	f000 8127 	beq.w	8005d9c <stm32__gpio__configure_trigger+0x300>
 8005b4e:	f5b3 6f80 	cmp.w	r3, #1024	; 0x400
 8005b52:	f000 811e 	beq.w	8005d92 <stm32__gpio__configure_trigger+0x2f6>
 8005b56:	f5b3 7f80 	cmp.w	r3, #256	; 0x100
 8005b5a:	f000 8115 	beq.w	8005d88 <stm32__gpio__configure_trigger+0x2ec>
 8005b5e:	f04f 36ff 	mov.w	r6, #4294967295
 8005b62:	4631      	mov	r1, r6
 8005b64:	2400      	movs	r4, #0
 8005b66:	27ff      	movs	r7, #255	; 0xff
 8005b68:	e7b6      	b.n	8005ad8 <stm32__gpio__configure_trigger+0x3c>
 8005b6a:	2b02      	cmp	r3, #2
 8005b6c:	f000 8087 	beq.w	8005c7e <stm32__gpio__configure_trigger+0x1e2>
 8005b70:	2b04      	cmp	r3, #4
 8005b72:	d07d      	beq.n	8005c70 <stm32__gpio__configure_trigger+0x1d4>
 8005b74:	2b01      	cmp	r3, #1
 8005b76:	d1da      	bne.n	8005b2e <stm32__gpio__configure_trigger+0x92>
 8005b78:	2700      	movs	r7, #0
 8005b7a:	6840      	ldr	r0, [r0, #4]
 8005b7c:	461c      	mov	r4, r3
 8005b7e:	4639      	mov	r1, r7
 8005b80:	f06f 0601 	mvn.w	r6, #1
 8005b84:	e7a8      	b.n	8005ad8 <stm32__gpio__configure_trigger+0x3c>
 8005b86:	461c      	mov	r4, r3
 8005b88:	6840      	ldr	r0, [r0, #4]
 8005b8a:	f46f 5600 	mvn.w	r6, #8192	; 0x2000
 8005b8e:	270d      	movs	r7, #13
 8005b90:	210d      	movs	r1, #13
 8005b92:	e7a1      	b.n	8005ad8 <stm32__gpio__configure_trigger+0x3c>
 8005b94:	461c      	mov	r4, r3
 8005b96:	6840      	ldr	r0, [r0, #4]
 8005b98:	f46f 6600 	mvn.w	r6, #2048	; 0x800
 8005b9c:	270b      	movs	r7, #11
 8005b9e:	210b      	movs	r1, #11
 8005ba0:	e79a      	b.n	8005ad8 <stm32__gpio__configure_trigger+0x3c>
 8005ba2:	461c      	mov	r4, r3
 8005ba4:	6840      	ldr	r0, [r0, #4]
 8005ba6:	f06f 0610 	mvn.w	r6, #16
 8005baa:	2704      	movs	r7, #4
 8005bac:	2104      	movs	r1, #4
 8005bae:	e793      	b.n	8005ad8 <stm32__gpio__configure_trigger+0x3c>
 8005bb0:	487f      	ldr	r0, [pc, #508]	; (8005db0 <stm32__gpio__configure_trigger+0x314>)
 8005bb2:	497e      	ldr	r1, [pc, #504]	; (8005dac <stm32__gpio__configure_trigger+0x310>)
 8005bb4:	6803      	ldr	r3, [r0, #0]
 8005bb6:	6802      	ldr	r2, [r0, #0]
 8005bb8:	f3c3 0312 	ubfx	r3, r3, #0, #19
 8005bbc:	4323      	orrs	r3, r4
 8005bbe:	f363 0212 	bfi	r2, r3, #0, #19
 8005bc2:	6002      	str	r2, [r0, #0]
 8005bc4:	680b      	ldr	r3, [r1, #0]
 8005bc6:	f8d1 e000 	ldr.w	lr, [r1]
 8005bca:	f3c3 0312 	ubfx	r3, r3, #0, #19
 8005bce:	ea06 0203 	and.w	r2, r6, r3
 8005bd2:	b135      	cbz	r5, 8005be2 <stm32__gpio__configure_trigger+0x146>
 8005bd4:	f1a5 0302 	sub.w	r3, r5, #2
 8005bd8:	fab3 f383 	clz	r3, r3
 8005bdc:	095b      	lsrs	r3, r3, #5
 8005bde:	fa03 f407 	lsl.w	r4, r3, r7
 8005be2:	ea44 0302 	orr.w	r3, r4, r2
 8005be6:	4873      	ldr	r0, [pc, #460]	; (8005db4 <stm32__gpio__configure_trigger+0x318>)
 8005be8:	f363 0e12 	bfi	lr, r3, #0, #19
 8005bec:	f8c1 e000 	str.w	lr, [r1]
 8005bf0:	1e6b      	subs	r3, r5, #1
 8005bf2:	6802      	ldr	r2, [r0, #0]
 8005bf4:	2b01      	cmp	r3, #1
 8005bf6:	bf8c      	ite	hi
 8005bf8:	2300      	movhi	r3, #0
 8005bfa:	2301      	movls	r3, #1
 8005bfc:	f3c2 0212 	ubfx	r2, r2, #0, #19
 8005c00:	6801      	ldr	r1, [r0, #0]
 8005c02:	40bb      	lsls	r3, r7
 8005c04:	4032      	ands	r2, r6
 8005c06:	4313      	orrs	r3, r2
 8005c08:	f363 0112 	bfi	r1, r3, #0, #19
 8005c0c:	6001      	str	r1, [r0, #0]
 8005c0e:	bdf8      	pop	{r3, r4, r5, r6, r7, pc}
 8005c10:	f5b3 7f00 	cmp.w	r3, #512	; 0x200
 8005c14:	d025      	beq.n	8005c62 <stm32__gpio__configure_trigger+0x1c6>
 8005c16:	f5b3 6f80 	cmp.w	r3, #1024	; 0x400
 8005c1a:	d01b      	beq.n	8005c54 <stm32__gpio__configure_trigger+0x1b8>
 8005c1c:	f5b3 7f80 	cmp.w	r3, #256	; 0x100
 8005c20:	d185      	bne.n	8005b2e <stm32__gpio__configure_trigger+0x92>
 8005c22:	461c      	mov	r4, r3
 8005c24:	6840      	ldr	r0, [r0, #4]
 8005c26:	f46f 7680 	mvn.w	r6, #256	; 0x100
 8005c2a:	2708      	movs	r7, #8
 8005c2c:	2108      	movs	r1, #8
 8005c2e:	e753      	b.n	8005ad8 <stm32__gpio__configure_trigger+0x3c>
 8005c30:	f5b3 5f80 	cmp.w	r3, #4096	; 0x1000
 8005c34:	f47f af7b 	bne.w	8005b2e <stm32__gpio__configure_trigger+0x92>
 8005c38:	461c      	mov	r4, r3
 8005c3a:	6840      	ldr	r0, [r0, #4]
 8005c3c:	f46f 5680 	mvn.w	r6, #4096	; 0x1000
 8005c40:	270c      	movs	r7, #12
 8005c42:	210c      	movs	r1, #12
 8005c44:	e748      	b.n	8005ad8 <stm32__gpio__configure_trigger+0x3c>
 8005c46:	461c      	mov	r4, r3
 8005c48:	6840      	ldr	r0, [r0, #4]
 8005c4a:	f46f 4680 	mvn.w	r6, #16384	; 0x4000
 8005c4e:	270e      	movs	r7, #14
 8005c50:	210e      	movs	r1, #14
 8005c52:	e741      	b.n	8005ad8 <stm32__gpio__configure_trigger+0x3c>
 8005c54:	461c      	mov	r4, r3
 8005c56:	6840      	ldr	r0, [r0, #4]
 8005c58:	f46f 6680 	mvn.w	r6, #1024	; 0x400
 8005c5c:	270a      	movs	r7, #10
 8005c5e:	210a      	movs	r1, #10
 8005c60:	e73a      	b.n	8005ad8 <stm32__gpio__configure_trigger+0x3c>
 8005c62:	461c      	mov	r4, r3
 8005c64:	6840      	ldr	r0, [r0, #4]
 8005c66:	f46f 7600 	mvn.w	r6, #512	; 0x200
 8005c6a:	2709      	movs	r7, #9
 8005c6c:	2109      	movs	r1, #9
 8005c6e:	e733      	b.n	8005ad8 <stm32__gpio__configure_trigger+0x3c>
 8005c70:	461c      	mov	r4, r3
 8005c72:	6840      	ldr	r0, [r0, #4]
 8005c74:	f06f 0604 	mvn.w	r6, #4
 8005c78:	2702      	movs	r7, #2
 8005c7a:	2102      	movs	r1, #2
 8005c7c:	e72c      	b.n	8005ad8 <stm32__gpio__configure_trigger+0x3c>
 8005c7e:	461c      	mov	r4, r3
 8005c80:	6840      	ldr	r0, [r0, #4]
 8005c82:	f06f 0602 	mvn.w	r6, #2
 8005c86:	2701      	movs	r7, #1
 8005c88:	2101      	movs	r1, #1
 8005c8a:	e725      	b.n	8005ad8 <stm32__gpio__configure_trigger+0x3c>
 8005c8c:	461c      	mov	r4, r3
 8005c8e:	6840      	ldr	r0, [r0, #4]
 8005c90:	f06f 0608 	mvn.w	r6, #8
 8005c94:	2703      	movs	r7, #3
 8005c96:	2103      	movs	r1, #3
 8005c98:	e71e      	b.n	8005ad8 <stm32__gpio__configure_trigger+0x3c>
 8005c9a:	461c      	mov	r4, r3
 8005c9c:	6840      	ldr	r0, [r0, #4]
 8005c9e:	f06f 0680 	mvn.w	r6, #128	; 0x80
 8005ca2:	2707      	movs	r7, #7
 8005ca4:	2107      	movs	r1, #7
 8005ca6:	e717      	b.n	8005ad8 <stm32__gpio__configure_trigger+0x3c>
 8005ca8:	461c      	mov	r4, r3
 8005caa:	6840      	ldr	r0, [r0, #4]
 8005cac:	f06f 0640 	mvn.w	r6, #64	; 0x40
 8005cb0:	2706      	movs	r7, #6
 8005cb2:	2106      	movs	r1, #6
 8005cb4:	e710      	b.n	8005ad8 <stm32__gpio__configure_trigger+0x3c>
 8005cb6:	461c      	mov	r4, r3
 8005cb8:	6840      	ldr	r0, [r0, #4]
 8005cba:	f06f 0620 	mvn.w	r6, #32
 8005cbe:	2705      	movs	r7, #5
 8005cc0:	2105      	movs	r1, #5
 8005cc2:	e709      	b.n	8005ad8 <stm32__gpio__configure_trigger+0x3c>
 8005cc4:	2b08      	cmp	r3, #8
 8005cc6:	d04b      	beq.n	8005d60 <stm32__gpio__configure_trigger+0x2c4>
 8005cc8:	d819      	bhi.n	8005cfe <stm32__gpio__configure_trigger+0x262>
 8005cca:	2b02      	cmp	r3, #2
 8005ccc:	d039      	beq.n	8005d42 <stm32__gpio__configure_trigger+0x2a6>
 8005cce:	2b04      	cmp	r3, #4
 8005cd0:	d03c      	beq.n	8005d4c <stm32__gpio__configure_trigger+0x2b0>
 8005cd2:	2b01      	cmp	r3, #1
 8005cd4:	f47f af43 	bne.w	8005b5e <stm32__gpio__configure_trigger+0xc2>
 8005cd8:	2400      	movs	r4, #0
 8005cda:	4621      	mov	r1, r4
 8005cdc:	f04f 36ff 	mov.w	r6, #4294967295
 8005ce0:	27ff      	movs	r7, #255	; 0xff
 8005ce2:	e6f9      	b.n	8005ad8 <stm32__gpio__configure_trigger+0x3c>
 8005ce4:	f5b3 5f00 	cmp.w	r3, #8192	; 0x2000
 8005ce8:	d021      	beq.n	8005d2e <stm32__gpio__configure_trigger+0x292>
 8005cea:	d814      	bhi.n	8005d16 <stm32__gpio__configure_trigger+0x27a>
 8005cec:	f5b3 5f80 	cmp.w	r3, #4096	; 0x1000
 8005cf0:	f47f af35 	bne.w	8005b5e <stm32__gpio__configure_trigger+0xc2>
 8005cf4:	f04f 36ff 	mov.w	r6, #4294967295
 8005cf8:	2400      	movs	r4, #0
 8005cfa:	27ff      	movs	r7, #255	; 0xff
 8005cfc:	e7a1      	b.n	8005c42 <stm32__gpio__configure_trigger+0x1a6>
 8005cfe:	2b20      	cmp	r3, #32
 8005d00:	d038      	beq.n	8005d74 <stm32__gpio__configure_trigger+0x2d8>
 8005d02:	2b40      	cmp	r3, #64	; 0x40
 8005d04:	d031      	beq.n	8005d6a <stm32__gpio__configure_trigger+0x2ce>
 8005d06:	2b10      	cmp	r3, #16
 8005d08:	f47f af29 	bne.w	8005b5e <stm32__gpio__configure_trigger+0xc2>
 8005d0c:	f04f 36ff 	mov.w	r6, #4294967295
 8005d10:	2400      	movs	r4, #0
 8005d12:	27ff      	movs	r7, #255	; 0xff
 8005d14:	e74a      	b.n	8005bac <stm32__gpio__configure_trigger+0x110>
 8005d16:	f5b3 4f80 	cmp.w	r3, #16384	; 0x4000
 8005d1a:	d00d      	beq.n	8005d38 <stm32__gpio__configure_trigger+0x29c>
 8005d1c:	f5b3 4f00 	cmp.w	r3, #32768	; 0x8000
 8005d20:	f47f af1d 	bne.w	8005b5e <stm32__gpio__configure_trigger+0xc2>
 8005d24:	f04f 36ff 	mov.w	r6, #4294967295
 8005d28:	2400      	movs	r4, #0
 8005d2a:	27ff      	movs	r7, #255	; 0xff
 8005d2c:	e6d3      	b.n	8005ad6 <stm32__gpio__configure_trigger+0x3a>
 8005d2e:	f04f 36ff 	mov.w	r6, #4294967295
 8005d32:	2400      	movs	r4, #0
 8005d34:	27ff      	movs	r7, #255	; 0xff
 8005d36:	e72b      	b.n	8005b90 <stm32__gpio__configure_trigger+0xf4>
 8005d38:	f04f 36ff 	mov.w	r6, #4294967295
 8005d3c:	2400      	movs	r4, #0
 8005d3e:	27ff      	movs	r7, #255	; 0xff
 8005d40:	e786      	b.n	8005c50 <stm32__gpio__configure_trigger+0x1b4>
 8005d42:	f04f 36ff 	mov.w	r6, #4294967295
 8005d46:	2400      	movs	r4, #0
 8005d48:	27ff      	movs	r7, #255	; 0xff
 8005d4a:	e79d      	b.n	8005c88 <stm32__gpio__configure_trigger+0x1ec>
 8005d4c:	f04f 36ff 	mov.w	r6, #4294967295
 8005d50:	2400      	movs	r4, #0
 8005d52:	27ff      	movs	r7, #255	; 0xff
 8005d54:	e791      	b.n	8005c7a <stm32__gpio__configure_trigger+0x1de>
 8005d56:	f04f 36ff 	mov.w	r6, #4294967295
 8005d5a:	2400      	movs	r4, #0
 8005d5c:	27ff      	movs	r7, #255	; 0xff
 8005d5e:	e71e      	b.n	8005b9e <stm32__gpio__configure_trigger+0x102>
 8005d60:	f04f 36ff 	mov.w	r6, #4294967295
 8005d64:	2400      	movs	r4, #0
 8005d66:	27ff      	movs	r7, #255	; 0xff
 8005d68:	e795      	b.n	8005c96 <stm32__gpio__configure_trigger+0x1fa>
 8005d6a:	f04f 36ff 	mov.w	r6, #4294967295
 8005d6e:	2400      	movs	r4, #0
 8005d70:	27ff      	movs	r7, #255	; 0xff
 8005d72:	e79e      	b.n	8005cb2 <stm32__gpio__configure_trigger+0x216>
 8005d74:	f04f 36ff 	mov.w	r6, #4294967295
 8005d78:	2400      	movs	r4, #0
 8005d7a:	27ff      	movs	r7, #255	; 0xff
 8005d7c:	e7a0      	b.n	8005cc0 <stm32__gpio__configure_trigger+0x224>
 8005d7e:	f04f 36ff 	mov.w	r6, #4294967295
 8005d82:	2400      	movs	r4, #0
 8005d84:	27ff      	movs	r7, #255	; 0xff
 8005d86:	e78d      	b.n	8005ca4 <stm32__gpio__configure_trigger+0x208>
 8005d88:	f04f 36ff 	mov.w	r6, #4294967295
 8005d8c:	2400      	movs	r4, #0
 8005d8e:	27ff      	movs	r7, #255	; 0xff
 8005d90:	e74c      	b.n	8005c2c <stm32__gpio__configure_trigger+0x190>
 8005d92:	f04f 36ff 	mov.w	r6, #4294967295
 8005d96:	2400      	movs	r4, #0
 8005d98:	27ff      	movs	r7, #255	; 0xff
 8005d9a:	e760      	b.n	8005c5e <stm32__gpio__configure_trigger+0x1c2>
 8005d9c:	f04f 36ff 	mov.w	r6, #4294967295
 8005da0:	2400      	movs	r4, #0
 8005da2:	27ff      	movs	r7, #255	; 0xff
 8005da4:	e762      	b.n	8005c6c <stm32__gpio__configure_trigger+0x1d0>
 8005da6:	bf00      	nop
 8005da8:	40010404 	.word	0x40010404
 8005dac:	40010408 	.word	0x40010408
 8005db0:	40010400 	.word	0x40010400
 8005db4:	4001040c 	.word	0x4001040c

08005db8 <stm32__spi___size__2>:
 8005db8:	2040      	movs	r0, #64	; 0x40
 8005dba:	2100      	movs	r1, #0
 8005dbc:	4770      	bx	lr
 8005dbe:	bf00      	nop

08005dc0 <stm32__spi__frame_fmt_error_indicated>:
 8005dc0:	2000      	movs	r0, #0
 8005dc2:	4770      	bx	lr

08005dc4 <stm32__spi__enabled>:
 8005dc4:	6843      	ldr	r3, [r0, #4]
 8005dc6:	6818      	ldr	r0, [r3, #0]
 8005dc8:	f3c0 1080 	ubfx	r0, r0, #6, #1
 8005dcc:	4770      	bx	lr
 8005dce:	bf00      	nop

08005dd0 <stm32__spi__data>:
 8005dd0:	6843      	ldr	r3, [r0, #4]
 8005dd2:	68d8      	ldr	r0, [r3, #12]
 8005dd4:	b280      	uxth	r0, r0
 8005dd6:	4770      	bx	lr

08005dd8 <stm32__spi__data__2>:
 8005dd8:	6843      	ldr	r3, [r0, #4]
 8005dda:	68d8      	ldr	r0, [r3, #12]
 8005ddc:	b2c0      	uxtb	r0, r0
 8005dde:	4770      	bx	lr

08005de0 <stm32__spi__tx_is_empty>:
 8005de0:	6843      	ldr	r3, [r0, #4]
 8005de2:	6898      	ldr	r0, [r3, #8]
 8005de4:	f3c0 0040 	ubfx	r0, r0, #1, #1
 8005de8:	4770      	bx	lr
 8005dea:	bf00      	nop

08005dec <stm32__spi__rx_is_empty>:
 8005dec:	6843      	ldr	r3, [r0, #4]
 8005dee:	6898      	ldr	r0, [r3, #8]
 8005df0:	43c0      	mvns	r0, r0
 8005df2:	f000 0001 	and.w	r0, r0, #1
 8005df6:	4770      	bx	lr

08005df8 <stm32__spi__busy>:
 8005df8:	6843      	ldr	r3, [r0, #4]
 8005dfa:	6898      	ldr	r0, [r3, #8]
 8005dfc:	f3c0 10c0 	ubfx	r0, r0, #7, #1
 8005e00:	4770      	bx	lr
 8005e02:	bf00      	nop

08005e04 <stm32__spi__is_busy>:
 8005e04:	6843      	ldr	r3, [r0, #4]
 8005e06:	689a      	ldr	r2, [r3, #8]
 8005e08:	07d1      	lsls	r1, r2, #31
 8005e0a:	d402      	bmi.n	8005e12 <stm32__spi__is_busy+0xe>
 8005e0c:	689a      	ldr	r2, [r3, #8]
 8005e0e:	0792      	lsls	r2, r2, #30
 8005e10:	d503      	bpl.n	8005e1a <stm32__spi__is_busy+0x16>
 8005e12:	6898      	ldr	r0, [r3, #8]
 8005e14:	f3c0 10c0 	ubfx	r0, r0, #7, #1
 8005e18:	4770      	bx	lr
 8005e1a:	2001      	movs	r0, #1
 8005e1c:	4770      	bx	lr
 8005e1e:	bf00      	nop

08005e20 <stm32__spi__current_mode>:
 8005e20:	6843      	ldr	r3, [r0, #4]
 8005e22:	6818      	ldr	r0, [r3, #0]
 8005e24:	681a      	ldr	r2, [r3, #0]
 8005e26:	f3c0 0380 	ubfx	r3, r0, #2, #1
 8005e2a:	f3c2 2000 	ubfx	r0, r2, #8, #1
 8005e2e:	4018      	ands	r0, r3
 8005e30:	f080 0001 	eor.w	r0, r0, #1
 8005e34:	f000 0001 	and.w	r0, r0, #1
 8005e38:	4770      	bx	lr
 8005e3a:	bf00      	nop

08005e3c <stm32__spi__crc_enabled>:
 8005e3c:	6843      	ldr	r3, [r0, #4]
 8005e3e:	6818      	ldr	r0, [r3, #0]
 8005e40:	f3c0 3040 	ubfx	r0, r0, #13, #1
 8005e44:	4770      	bx	lr
 8005e46:	bf00      	nop

08005e48 <stm32__spi__channel_side_indicated>:
 8005e48:	6843      	ldr	r3, [r0, #4]
 8005e4a:	6898      	ldr	r0, [r3, #8]
 8005e4c:	f3c0 0080 	ubfx	r0, r0, #2, #1
 8005e50:	4770      	bx	lr
 8005e52:	bf00      	nop

08005e54 <stm32__spi__underrun_indicated>:
 8005e54:	6843      	ldr	r3, [r0, #4]
 8005e56:	6898      	ldr	r0, [r3, #8]
 8005e58:	f3c0 00c0 	ubfx	r0, r0, #3, #1
 8005e5c:	4770      	bx	lr
 8005e5e:	bf00      	nop

08005e60 <stm32__spi__crc_error_indicated>:
 8005e60:	6843      	ldr	r3, [r0, #4]
 8005e62:	6898      	ldr	r0, [r3, #8]
 8005e64:	f3c0 1000 	ubfx	r0, r0, #4, #1
 8005e68:	4770      	bx	lr
 8005e6a:	bf00      	nop

08005e6c <stm32__spi__mode_fault_indicated>:
 8005e6c:	6843      	ldr	r3, [r0, #4]
 8005e6e:	6898      	ldr	r0, [r3, #8]
 8005e70:	f3c0 1040 	ubfx	r0, r0, #5, #1
 8005e74:	4770      	bx	lr
 8005e76:	bf00      	nop

08005e78 <stm32__spi__overrun_indicated>:
 8005e78:	6843      	ldr	r3, [r0, #4]
 8005e7a:	6898      	ldr	r0, [r3, #8]
 8005e7c:	f3c0 1080 	ubfx	r0, r0, #6, #1
 8005e80:	4770      	bx	lr
 8005e82:	bf00      	nop

08005e84 <stm32__spi__is_data_frame_16bit>:
 8005e84:	6843      	ldr	r3, [r0, #4]
 8005e86:	6818      	ldr	r0, [r3, #0]
 8005e88:	f3c0 20c0 	ubfx	r0, r0, #11, #1
 8005e8c:	4770      	bx	lr
 8005e8e:	bf00      	nop

08005e90 <stm32__spi__data_size>:
 8005e90:	6843      	ldr	r3, [r0, #4]
 8005e92:	6818      	ldr	r0, [r3, #0]
 8005e94:	f3c0 20c0 	ubfx	r0, r0, #11, #1
 8005e98:	4770      	bx	lr
 8005e9a:	bf00      	nop

08005e9c <stm32__spi__configure>:
 8005e9c:	784b      	ldrb	r3, [r1, #1]
 8005e9e:	b430      	push	{r4, r5}
 8005ea0:	6842      	ldr	r2, [r0, #4]
 8005ea2:	2b00      	cmp	r3, #0
 8005ea4:	d165      	bne.n	8005f72 <stm32__spi__configure+0xd6>
 8005ea6:	6813      	ldr	r3, [r2, #0]
 8005ea8:	f043 0304 	orr.w	r3, r3, #4
 8005eac:	6013      	str	r3, [r2, #0]
 8005eae:	6842      	ldr	r2, [r0, #4]
 8005eb0:	6813      	ldr	r3, [r2, #0]
 8005eb2:	f443 7380 	orr.w	r3, r3, #256	; 0x100
 8005eb6:	6013      	str	r3, [r2, #0]
 8005eb8:	780b      	ldrb	r3, [r1, #0]
 8005eba:	2b01      	cmp	r3, #1
 8005ebc:	d065      	beq.n	8005f8a <stm32__spi__configure+0xee>
 8005ebe:	d37e      	bcc.n	8005fbe <stm32__spi__configure+0x122>
 8005ec0:	2b02      	cmp	r3, #2
 8005ec2:	d072      	beq.n	8005faa <stm32__spi__configure+0x10e>
 8005ec4:	6842      	ldr	r2, [r0, #4]
 8005ec6:	6813      	ldr	r3, [r2, #0]
 8005ec8:	f443 4300 	orr.w	r3, r3, #32768	; 0x8000
 8005ecc:	6013      	str	r3, [r2, #0]
 8005ece:	6842      	ldr	r2, [r0, #4]
 8005ed0:	6813      	ldr	r3, [r2, #0]
 8005ed2:	f443 4380 	orr.w	r3, r3, #16384	; 0x4000
 8005ed6:	6013      	str	r3, [r2, #0]
 8005ed8:	6842      	ldr	r2, [r0, #4]
 8005eda:	6813      	ldr	r3, [r2, #0]
 8005edc:	f36f 238a 	bfc	r3, #10, #1
 8005ee0:	6013      	str	r3, [r2, #0]
 8005ee2:	6845      	ldr	r5, [r0, #4]
 8005ee4:	4c3b      	ldr	r4, [pc, #236]	; (8005fd4 <stm32__spi__configure+0x138>)
 8005ee6:	682b      	ldr	r3, [r5, #0]
 8005ee8:	788a      	ldrb	r2, [r1, #2]
 8005eea:	f1a2 0201 	sub.w	r2, r2, #1
 8005eee:	fab2 f282 	clz	r2, r2
 8005ef2:	0952      	lsrs	r2, r2, #5
 8005ef4:	f362 23cb 	bfi	r3, r2, #11, #1
 8005ef8:	602b      	str	r3, [r5, #0]
 8005efa:	6845      	ldr	r5, [r0, #4]
 8005efc:	682a      	ldr	r2, [r5, #0]
 8005efe:	78cb      	ldrb	r3, [r1, #3]
 8005f00:	fab3 f383 	clz	r3, r3
 8005f04:	095b      	lsrs	r3, r3, #5
 8005f06:	f363 0241 	bfi	r2, r3, #1, #1
 8005f0a:	602a      	str	r2, [r5, #0]
 8005f0c:	6845      	ldr	r5, [r0, #4]
 8005f0e:	682b      	ldr	r3, [r5, #0]
 8005f10:	790a      	ldrb	r2, [r1, #4]
 8005f12:	f1a2 0201 	sub.w	r2, r2, #1
 8005f16:	fab2 f282 	clz	r2, r2
 8005f1a:	0952      	lsrs	r2, r2, #5
 8005f1c:	f362 0300 	bfi	r3, r2, #0, #1
 8005f20:	602b      	str	r3, [r5, #0]
 8005f22:	6845      	ldr	r5, [r0, #4]
 8005f24:	682a      	ldr	r2, [r5, #0]
 8005f26:	794b      	ldrb	r3, [r1, #5]
 8005f28:	fab3 f383 	clz	r3, r3
 8005f2c:	095b      	lsrs	r3, r3, #5
 8005f2e:	f363 2249 	bfi	r2, r3, #9, #1
 8005f32:	602a      	str	r2, [r5, #0]
 8005f34:	6842      	ldr	r2, [r0, #4]
 8005f36:	6813      	ldr	r3, [r2, #0]
 8005f38:	798d      	ldrb	r5, [r1, #6]
 8005f3a:	5d64      	ldrb	r4, [r4, r5]
 8005f3c:	f364 03c5 	bfi	r3, r4, #3, #3
 8005f40:	6013      	str	r3, [r2, #0]
 8005f42:	6844      	ldr	r4, [r0, #4]
 8005f44:	6823      	ldr	r3, [r4, #0]
 8005f46:	79ca      	ldrb	r2, [r1, #7]
 8005f48:	f1a2 0201 	sub.w	r2, r2, #1
 8005f4c:	fab2 f282 	clz	r2, r2
 8005f50:	0952      	lsrs	r2, r2, #5
 8005f52:	f362 13c7 	bfi	r3, r2, #7, #1
 8005f56:	6023      	str	r3, [r4, #0]
 8005f58:	6842      	ldr	r2, [r0, #4]
 8005f5a:	69d3      	ldr	r3, [r2, #28]
 8005f5c:	f36f 23cb 	bfc	r3, #11, #1
 8005f60:	61d3      	str	r3, [r2, #28]
 8005f62:	6842      	ldr	r2, [r0, #4]
 8005f64:	6913      	ldr	r3, [r2, #16]
 8005f66:	8909      	ldrh	r1, [r1, #8]
 8005f68:	f361 030f 	bfi	r3, r1, #0, #16
 8005f6c:	6113      	str	r3, [r2, #16]
 8005f6e:	bc30      	pop	{r4, r5}
 8005f70:	4770      	bx	lr
 8005f72:	6813      	ldr	r3, [r2, #0]
 8005f74:	f36f 0382 	bfc	r3, #2, #1
 8005f78:	6013      	str	r3, [r2, #0]
 8005f7a:	6842      	ldr	r2, [r0, #4]
 8005f7c:	6813      	ldr	r3, [r2, #0]
 8005f7e:	f36f 2308 	bfc	r3, #8, #1
 8005f82:	6013      	str	r3, [r2, #0]
 8005f84:	780b      	ldrb	r3, [r1, #0]
 8005f86:	2b01      	cmp	r3, #1
 8005f88:	d199      	bne.n	8005ebe <stm32__spi__configure+0x22>
 8005f8a:	6842      	ldr	r2, [r0, #4]
 8005f8c:	6813      	ldr	r3, [r2, #0]
 8005f8e:	f36f 33cf 	bfc	r3, #15, #1
 8005f92:	6013      	str	r3, [r2, #0]
 8005f94:	6842      	ldr	r2, [r0, #4]
 8005f96:	6813      	ldr	r3, [r2, #0]
 8005f98:	f36f 338e 	bfc	r3, #14, #1
 8005f9c:	6013      	str	r3, [r2, #0]
 8005f9e:	6842      	ldr	r2, [r0, #4]
 8005fa0:	6813      	ldr	r3, [r2, #0]
 8005fa2:	f443 6380 	orr.w	r3, r3, #1024	; 0x400
 8005fa6:	6013      	str	r3, [r2, #0]
 8005fa8:	e79b      	b.n	8005ee2 <stm32__spi__configure+0x46>
 8005faa:	6842      	ldr	r2, [r0, #4]
 8005fac:	6813      	ldr	r3, [r2, #0]
 8005fae:	f443 4300 	orr.w	r3, r3, #32768	; 0x8000
 8005fb2:	6013      	str	r3, [r2, #0]
 8005fb4:	6842      	ldr	r2, [r0, #4]
 8005fb6:	6813      	ldr	r3, [r2, #0]
 8005fb8:	f36f 338e 	bfc	r3, #14, #1
 8005fbc:	e78b      	b.n	8005ed6 <stm32__spi__configure+0x3a>
 8005fbe:	6842      	ldr	r2, [r0, #4]
 8005fc0:	6813      	ldr	r3, [r2, #0]
 8005fc2:	f36f 33cf 	bfc	r3, #15, #1
 8005fc6:	6013      	str	r3, [r2, #0]
 8005fc8:	6842      	ldr	r2, [r0, #4]
 8005fca:	6813      	ldr	r3, [r2, #0]
 8005fcc:	f36f 338e 	bfc	r3, #14, #1
 8005fd0:	e781      	b.n	8005ed6 <stm32__spi__configure+0x3a>
 8005fd2:	bf00      	nop
 8005fd4:	0800a510 	.word	0x0800a510

08005fd8 <stm32__spi__enable>:
 8005fd8:	6842      	ldr	r2, [r0, #4]
 8005fda:	6813      	ldr	r3, [r2, #0]
 8005fdc:	f043 0340 	orr.w	r3, r3, #64	; 0x40
 8005fe0:	6013      	str	r3, [r2, #0]
 8005fe2:	4770      	bx	lr

08005fe4 <stm32__spi__disable>:
 8005fe4:	6842      	ldr	r2, [r0, #4]
 8005fe6:	6813      	ldr	r3, [r2, #0]
 8005fe8:	f36f 1386 	bfc	r3, #6, #1
 8005fec:	6013      	str	r3, [r2, #0]
 8005fee:	4770      	bx	lr

08005ff0 <stm32__spi__send>:
 8005ff0:	6842      	ldr	r2, [r0, #4]
 8005ff2:	68d3      	ldr	r3, [r2, #12]
 8005ff4:	f361 030f 	bfi	r3, r1, #0, #16
 8005ff8:	60d3      	str	r3, [r2, #12]
 8005ffa:	4770      	bx	lr

08005ffc <stm32__spi__clear_overrun>:
 8005ffc:	b082      	sub	sp, #8
 8005ffe:	f89d 3004 	ldrb.w	r3, [sp, #4]
 8006002:	6842      	ldr	r2, [r0, #4]
 8006004:	f023 0301 	bic.w	r3, r3, #1
 8006008:	f88d 3004 	strb.w	r3, [sp, #4]
 800600c:	f89d 3004 	ldrb.w	r3, [sp, #4]
 8006010:	f043 0302 	orr.w	r3, r3, #2
 8006014:	f88d 3004 	strb.w	r3, [sp, #4]
 8006018:	f89d 3004 	ldrb.w	r3, [sp, #4]
 800601c:	f023 0304 	bic.w	r3, r3, #4
 8006020:	f88d 3004 	strb.w	r3, [sp, #4]
 8006024:	f89d 3004 	ldrb.w	r3, [sp, #4]
 8006028:	f023 0308 	bic.w	r3, r3, #8
 800602c:	f88d 3004 	strb.w	r3, [sp, #4]
 8006030:	f89d 3004 	ldrb.w	r3, [sp, #4]
 8006034:	f023 0310 	bic.w	r3, r3, #16
 8006038:	f88d 3004 	strb.w	r3, [sp, #4]
 800603c:	f89d 3004 	ldrb.w	r3, [sp, #4]
 8006040:	f023 0320 	bic.w	r3, r3, #32
 8006044:	f88d 3004 	strb.w	r3, [sp, #4]
 8006048:	f89d 3004 	ldrb.w	r3, [sp, #4]
 800604c:	f023 0340 	bic.w	r3, r3, #64	; 0x40
 8006050:	f88d 3004 	strb.w	r3, [sp, #4]
 8006054:	f89d 3004 	ldrb.w	r3, [sp, #4]
 8006058:	f003 037f 	and.w	r3, r3, #127	; 0x7f
 800605c:	f88d 3004 	strb.w	r3, [sp, #4]
 8006060:	9b01      	ldr	r3, [sp, #4]
 8006062:	b2db      	uxtb	r3, r3
 8006064:	9301      	str	r3, [sp, #4]
 8006066:	68d3      	ldr	r3, [r2, #12]
 8006068:	6893      	ldr	r3, [r2, #8]
 800606a:	9301      	str	r3, [sp, #4]
 800606c:	b002      	add	sp, #8
 800606e:	4770      	bx	lr

08006070 <stm32__spi__reset_crc>:
 8006070:	6842      	ldr	r2, [r0, #4]
 8006072:	6813      	ldr	r3, [r2, #0]
 8006074:	f36f 334d 	bfc	r3, #13, #1
 8006078:	6013      	str	r3, [r2, #0]
 800607a:	6842      	ldr	r2, [r0, #4]
 800607c:	6813      	ldr	r3, [r2, #0]
 800607e:	f443 5300 	orr.w	r3, r3, #8192	; 0x2000
 8006082:	6013      	str	r3, [r2, #0]
 8006084:	4770      	bx	lr
 8006086:	bf00      	nop

08006088 <stm32__spi__current_data_direction>:
 8006088:	6843      	ldr	r3, [r0, #4]
 800608a:	681a      	ldr	r2, [r3, #0]
 800608c:	0412      	lsls	r2, r2, #16
 800608e:	d403      	bmi.n	8006098 <stm32__spi__current_data_direction+0x10>
 8006090:	6818      	ldr	r0, [r3, #0]
 8006092:	f3c0 2080 	ubfx	r0, r0, #10, #1
 8006096:	4770      	bx	lr
 8006098:	681b      	ldr	r3, [r3, #0]
 800609a:	f413 4f80 	tst.w	r3, #16384	; 0x4000
 800609e:	bf0c      	ite	eq
 80060a0:	2002      	moveq	r0, #2
 80060a2:	2003      	movne	r0, #3
 80060a4:	4770      	bx	lr
 80060a6:	bf00      	nop

080060a8 <stm32__spi__send__2>:
 80060a8:	6842      	ldr	r2, [r0, #4]
 80060aa:	68d3      	ldr	r3, [r2, #12]
 80060ac:	f361 030f 	bfi	r3, r1, #0, #16
 80060b0:	60d3      	str	r3, [r2, #12]
 80060b2:	4770      	bx	lr

080060b4 <stm32__spi__receive_8bit_mode>:
 80060b4:	b5f0      	push	{r4, r5, r6, r7, lr}
 80060b6:	6844      	ldr	r4, [r0, #4]
 80060b8:	f8d3 e000 	ldr.w	lr, [r3]
 80060bc:	469c      	mov	ip, r3
 80060be:	6827      	ldr	r7, [r4, #0]
 80060c0:	6821      	ldr	r1, [r4, #0]
 80060c2:	685b      	ldr	r3, [r3, #4]
 80060c4:	459e      	cmp	lr, r3
 80060c6:	dc12      	bgt.n	80060ee <stm32__spi__receive_8bit_mode+0x3a>
 80060c8:	f3c1 2100 	ubfx	r1, r1, #8, #1
 80060cc:	ea01 0797 	and.w	r7, r1, r7, lsr #2
 80060d0:	f007 0701 	and.w	r7, r7, #1
 80060d4:	f10e 35ff 	add.w	r5, lr, #4294967295
 80060d8:	3501      	adds	r5, #1
 80060da:	b94f      	cbnz	r7, 80060f0 <stm32__spi__receive_8bit_mode+0x3c>
 80060dc:	68a1      	ldr	r1, [r4, #8]
 80060de:	07c9      	lsls	r1, r1, #31
 80060e0:	d5fc      	bpl.n	80060dc <stm32__spi__receive_8bit_mode+0x28>
 80060e2:	68e6      	ldr	r6, [r4, #12]
 80060e4:	ebce 0105 	rsb	r1, lr, r5
 80060e8:	42ab      	cmp	r3, r5
 80060ea:	5456      	strb	r6, [r2, r1]
 80060ec:	d1f4      	bne.n	80060d8 <stm32__spi__receive_8bit_mode+0x24>
 80060ee:	bdf0      	pop	{r4, r5, r6, r7, pc}
 80060f0:	68e3      	ldr	r3, [r4, #12]
 80060f2:	f36f 030f 	bfc	r3, #0, #16
 80060f6:	60e3      	str	r3, [r4, #12]
 80060f8:	6844      	ldr	r4, [r0, #4]
 80060fa:	f8dc 3004 	ldr.w	r3, [ip, #4]
 80060fe:	e7ed      	b.n	80060dc <stm32__spi__receive_8bit_mode+0x28>

08006100 <stm32__spi__receive_16bit_mode>:
 8006100:	b5f0      	push	{r4, r5, r6, r7, lr}
 8006102:	6844      	ldr	r4, [r0, #4]
 8006104:	f8d3 e000 	ldr.w	lr, [r3]
 8006108:	469c      	mov	ip, r3
 800610a:	6827      	ldr	r7, [r4, #0]
 800610c:	6821      	ldr	r1, [r4, #0]
 800610e:	685b      	ldr	r3, [r3, #4]
 8006110:	459e      	cmp	lr, r3
 8006112:	dc13      	bgt.n	800613c <stm32__spi__receive_16bit_mode+0x3c>
 8006114:	f3c1 2100 	ubfx	r1, r1, #8, #1
 8006118:	ea01 0797 	and.w	r7, r1, r7, lsr #2
 800611c:	f007 0701 	and.w	r7, r7, #1
 8006120:	f10e 35ff 	add.w	r5, lr, #4294967295
 8006124:	3501      	adds	r5, #1
 8006126:	b957      	cbnz	r7, 800613e <stm32__spi__receive_16bit_mode+0x3e>
 8006128:	68a1      	ldr	r1, [r4, #8]
 800612a:	07c9      	lsls	r1, r1, #31
 800612c:	d5fc      	bpl.n	8006128 <stm32__spi__receive_16bit_mode+0x28>
 800612e:	68e6      	ldr	r6, [r4, #12]
 8006130:	ebce 0105 	rsb	r1, lr, r5
 8006134:	42ab      	cmp	r3, r5
 8006136:	f822 6011 	strh.w	r6, [r2, r1, lsl #1]
 800613a:	d1f3      	bne.n	8006124 <stm32__spi__receive_16bit_mode+0x24>
 800613c:	bdf0      	pop	{r4, r5, r6, r7, pc}
 800613e:	68e3      	ldr	r3, [r4, #12]
 8006140:	f36f 030f 	bfc	r3, #0, #16
 8006144:	60e3      	str	r3, [r4, #12]
 8006146:	6844      	ldr	r4, [r0, #4]
 8006148:	f8dc 3004 	ldr.w	r3, [ip, #4]
 800614c:	e7ec      	b.n	8006128 <stm32__spi__receive_16bit_mode+0x28>
 800614e:	bf00      	nop

08006150 <stm32__spi__send_8bit_mode>:
 8006150:	b470      	push	{r4, r5, r6}
 8006152:	681e      	ldr	r6, [r3, #0]
 8006154:	685b      	ldr	r3, [r3, #4]
 8006156:	6841      	ldr	r1, [r0, #4]
 8006158:	429e      	cmp	r6, r3
 800615a:	dd0a      	ble.n	8006172 <stm32__spi__send_8bit_mode+0x22>
 800615c:	680b      	ldr	r3, [r1, #0]
 800615e:	680c      	ldr	r4, [r1, #0]
 8006160:	f3c3 0380 	ubfx	r3, r3, #2, #1
 8006164:	ea03 2314 	and.w	r3, r3, r4, lsr #8
 8006168:	07db      	lsls	r3, r3, #31
 800616a:	d425      	bmi.n	80061b8 <stm32__spi__send_8bit_mode+0x68>
 800616c:	f04f 35ff 	mov.w	r5, #4294967295
 8006170:	e00b      	b.n	800618a <stm32__spi__send_8bit_mode+0x3a>
 8006172:	1b9c      	subs	r4, r3, r6
 8006174:	680b      	ldr	r3, [r1, #0]
 8006176:	680d      	ldr	r5, [r1, #0]
 8006178:	f3c3 0380 	ubfx	r3, r3, #2, #1
 800617c:	ea03 2315 	and.w	r3, r3, r5, lsr #8
 8006180:	07db      	lsls	r3, r3, #31
 8006182:	f104 0501 	add.w	r5, r4, #1
 8006186:	d420      	bmi.n	80061ca <stm32__spi__send_8bit_mode+0x7a>
 8006188:	4625      	mov	r5, r4
 800618a:	68cb      	ldr	r3, [r1, #12]
 800618c:	7814      	ldrb	r4, [r2, #0]
 800618e:	f364 030f 	bfi	r3, r4, #0, #16
 8006192:	60cb      	str	r3, [r1, #12]
 8006194:	6841      	ldr	r1, [r0, #4]
 8006196:	1c74      	adds	r4, r6, #1
 8006198:	2d00      	cmp	r5, #0
 800619a:	dd0d      	ble.n	80061b8 <stm32__spi__send_8bit_mode+0x68>
 800619c:	4425      	add	r5, r4
 800619e:	1b96      	subs	r6, r2, r6
 80061a0:	688b      	ldr	r3, [r1, #8]
 80061a2:	079a      	lsls	r2, r3, #30
 80061a4:	d5fc      	bpl.n	80061a0 <stm32__spi__send_8bit_mode+0x50>
 80061a6:	68cb      	ldr	r3, [r1, #12]
 80061a8:	5d32      	ldrb	r2, [r6, r4]
 80061aa:	3401      	adds	r4, #1
 80061ac:	f362 030f 	bfi	r3, r2, #0, #16
 80061b0:	60cb      	str	r3, [r1, #12]
 80061b2:	42ac      	cmp	r4, r5
 80061b4:	6841      	ldr	r1, [r0, #4]
 80061b6:	d1f3      	bne.n	80061a0 <stm32__spi__send_8bit_mode+0x50>
 80061b8:	680b      	ldr	r3, [r1, #0]
 80061ba:	0498      	lsls	r0, r3, #18
 80061bc:	d503      	bpl.n	80061c6 <stm32__spi__send_8bit_mode+0x76>
 80061be:	680b      	ldr	r3, [r1, #0]
 80061c0:	f443 5380 	orr.w	r3, r3, #4096	; 0x1000
 80061c4:	600b      	str	r3, [r1, #0]
 80061c6:	bc70      	pop	{r4, r5, r6}
 80061c8:	4770      	bx	lr
 80061ca:	2d01      	cmp	r5, #1
 80061cc:	d001      	beq.n	80061d2 <stm32__spi__send_8bit_mode+0x82>
 80061ce:	4634      	mov	r4, r6
 80061d0:	e7e2      	b.n	8006198 <stm32__spi__send_8bit_mode+0x48>
 80061d2:	2500      	movs	r5, #0
 80061d4:	e7d9      	b.n	800618a <stm32__spi__send_8bit_mode+0x3a>
 80061d6:	bf00      	nop

080061d8 <stm32__spi__send_16bit_mode>:
 80061d8:	b5f0      	push	{r4, r5, r6, r7, lr}
 80061da:	6859      	ldr	r1, [r3, #4]
 80061dc:	f8d3 e000 	ldr.w	lr, [r3]
 80061e0:	6844      	ldr	r4, [r0, #4]
 80061e2:	4571      	cmp	r1, lr
 80061e4:	da0a      	bge.n	80061fc <stm32__spi__send_16bit_mode+0x24>
 80061e6:	6821      	ldr	r1, [r4, #0]
 80061e8:	6825      	ldr	r5, [r4, #0]
 80061ea:	f3c1 0180 	ubfx	r1, r1, #2, #1
 80061ee:	ea01 2115 	and.w	r1, r1, r5, lsr #8
 80061f2:	07c9      	lsls	r1, r1, #31
 80061f4:	d42c      	bmi.n	8006250 <stm32__spi__send_16bit_mode+0x78>
 80061f6:	f04f 37ff 	mov.w	r7, #4294967295
 80061fa:	e00d      	b.n	8006218 <stm32__spi__send_16bit_mode+0x40>
 80061fc:	ebce 0601 	rsb	r6, lr, r1
 8006200:	6821      	ldr	r1, [r4, #0]
 8006202:	6825      	ldr	r5, [r4, #0]
 8006204:	f3c1 0180 	ubfx	r1, r1, #2, #1
 8006208:	ea01 2115 	and.w	r1, r1, r5, lsr #8
 800620c:	07c9      	lsls	r1, r1, #31
 800620e:	f106 0701 	add.w	r7, r6, #1
 8006212:	4675      	mov	r5, lr
 8006214:	d420      	bmi.n	8006258 <stm32__spi__send_16bit_mode+0x80>
 8006216:	4637      	mov	r7, r6
 8006218:	68e1      	ldr	r1, [r4, #12]
 800621a:	8815      	ldrh	r5, [r2, #0]
 800621c:	f365 010f 	bfi	r1, r5, #0, #16
 8006220:	60e1      	str	r1, [r4, #12]
 8006222:	6844      	ldr	r4, [r0, #4]
 8006224:	f10e 0502 	add.w	r5, lr, #2
 8006228:	2f00      	cmp	r7, #0
 800622a:	bfc8      	it	gt
 800622c:	eb05 0747 	addgt.w	r7, r5, r7, lsl #1
 8006230:	dd0e      	ble.n	8006250 <stm32__spi__send_16bit_mode+0x78>
 8006232:	68a1      	ldr	r1, [r4, #8]
 8006234:	078e      	lsls	r6, r1, #30
 8006236:	d5fc      	bpl.n	8006232 <stm32__spi__send_16bit_mode+0x5a>
 8006238:	68e1      	ldr	r1, [r4, #12]
 800623a:	681e      	ldr	r6, [r3, #0]
 800623c:	1bae      	subs	r6, r5, r6
 800623e:	f832 6016 	ldrh.w	r6, [r2, r6, lsl #1]
 8006242:	3502      	adds	r5, #2
 8006244:	f366 010f 	bfi	r1, r6, #0, #16
 8006248:	60e1      	str	r1, [r4, #12]
 800624a:	42bd      	cmp	r5, r7
 800624c:	6844      	ldr	r4, [r0, #4]
 800624e:	d1f0      	bne.n	8006232 <stm32__spi__send_16bit_mode+0x5a>
 8006250:	6823      	ldr	r3, [r4, #0]
 8006252:	049f      	lsls	r7, r3, #18
 8006254:	d404      	bmi.n	8006260 <stm32__spi__send_16bit_mode+0x88>
 8006256:	bdf0      	pop	{r4, r5, r6, r7, pc}
 8006258:	2f01      	cmp	r7, #1
 800625a:	d1e5      	bne.n	8006228 <stm32__spi__send_16bit_mode+0x50>
 800625c:	2700      	movs	r7, #0
 800625e:	e7db      	b.n	8006218 <stm32__spi__send_16bit_mode+0x40>
 8006260:	6823      	ldr	r3, [r4, #0]
 8006262:	f443 5380 	orr.w	r3, r3, #4096	; 0x1000
 8006266:	6023      	str	r3, [r4, #0]
 8006268:	bdf0      	pop	{r4, r5, r6, r7, pc}
 800626a:	bf00      	nop

0800626c <stm32__spi__send_receive_8bit_mode>:
 800626c:	b5f0      	push	{r4, r5, r6, r7, lr}
 800626e:	9c06      	ldr	r4, [sp, #24]
 8006270:	6841      	ldr	r1, [r0, #4]
 8006272:	6826      	ldr	r6, [r4, #0]
 8006274:	f8d3 e000 	ldr.w	lr, [r3]
 8006278:	9f05      	ldr	r7, [sp, #20]
 800627a:	9c07      	ldr	r4, [sp, #28]
 800627c:	680b      	ldr	r3, [r1, #0]
 800627e:	680d      	ldr	r5, [r1, #0]
 8006280:	f3c3 0380 	ubfx	r3, r3, #2, #1
 8006284:	ea03 2315 	and.w	r3, r3, r5, lsr #8
 8006288:	07dd      	lsls	r5, r3, #31
 800628a:	d447      	bmi.n	800631c <stm32__spi__send_receive_8bit_mode+0xb0>
 800628c:	68cb      	ldr	r3, [r1, #12]
 800628e:	7815      	ldrb	r5, [r2, #0]
 8006290:	3c01      	subs	r4, #1
 8006292:	f365 030f 	bfi	r3, r5, #0, #16
 8006296:	60cb      	str	r3, [r1, #12]
 8006298:	2c00      	cmp	r4, #0
 800629a:	6841      	ldr	r1, [r0, #4]
 800629c:	f10e 0301 	add.w	r3, lr, #1
 80062a0:	d041      	beq.n	8006326 <stm32__spi__send_receive_8bit_mode+0xba>
 80062a2:	bfd8      	it	le
 80062a4:	4633      	movle	r3, r6
 80062a6:	dd23      	ble.n	80062f0 <stm32__spi__send_receive_8bit_mode+0x84>
 80062a8:	4635      	mov	r5, r6
 80062aa:	ebce 0303 	rsb	r3, lr, r3
 80062ae:	441a      	add	r2, r3
 80062b0:	ebc6 0e07 	rsb	lr, r6, r7
 80062b4:	688b      	ldr	r3, [r1, #8]
 80062b6:	079b      	lsls	r3, r3, #30
 80062b8:	d5fc      	bpl.n	80062b4 <stm32__spi__send_receive_8bit_mode+0x48>
 80062ba:	68cb      	ldr	r3, [r1, #12]
 80062bc:	f892 c000 	ldrb.w	ip, [r2]
 80062c0:	3c01      	subs	r4, #1
 80062c2:	f36c 030f 	bfi	r3, ip, #0, #16
 80062c6:	60cb      	str	r3, [r1, #12]
 80062c8:	6841      	ldr	r1, [r0, #4]
 80062ca:	680b      	ldr	r3, [r1, #0]
 80062cc:	f3c3 3340 	ubfx	r3, r3, #13, #1
 80062d0:	f003 0301 	and.w	r3, r3, #1
 80062d4:	bf18      	it	ne
 80062d6:	2300      	movne	r3, #0
 80062d8:	b9d3      	cbnz	r3, 8006310 <stm32__spi__send_receive_8bit_mode+0xa4>
 80062da:	688b      	ldr	r3, [r1, #8]
 80062dc:	07db      	lsls	r3, r3, #31
 80062de:	d5fc      	bpl.n	80062da <stm32__spi__send_receive_8bit_mode+0x6e>
 80062e0:	68cb      	ldr	r3, [r1, #12]
 80062e2:	3201      	adds	r2, #1
 80062e4:	f80e 3005 	strb.w	r3, [lr, r5]
 80062e8:	3501      	adds	r5, #1
 80062ea:	462b      	mov	r3, r5
 80062ec:	2c00      	cmp	r4, #0
 80062ee:	d1e1      	bne.n	80062b4 <stm32__spi__send_receive_8bit_mode+0x48>
 80062f0:	680a      	ldr	r2, [r1, #0]
 80062f2:	6808      	ldr	r0, [r1, #0]
 80062f4:	f3c2 0280 	ubfx	r2, r2, #2, #1
 80062f8:	ea02 2210 	and.w	r2, r2, r0, lsr #8
 80062fc:	07d0      	lsls	r0, r2, #31
 80062fe:	d406      	bmi.n	800630e <stm32__spi__send_receive_8bit_mode+0xa2>
 8006300:	688a      	ldr	r2, [r1, #8]
 8006302:	07d2      	lsls	r2, r2, #31
 8006304:	d5fc      	bpl.n	8006300 <stm32__spi__send_receive_8bit_mode+0x94>
 8006306:	68ca      	ldr	r2, [r1, #12]
 8006308:	1b9b      	subs	r3, r3, r6
 800630a:	54fa      	strb	r2, [r7, r3]
 800630c:	bdf0      	pop	{r4, r5, r6, r7, pc}
 800630e:	bdf0      	pop	{r4, r5, r6, r7, pc}
 8006310:	680b      	ldr	r3, [r1, #0]
 8006312:	f443 5380 	orr.w	r3, r3, #4096	; 0x1000
 8006316:	600b      	str	r3, [r1, #0]
 8006318:	6841      	ldr	r1, [r0, #4]
 800631a:	e7de      	b.n	80062da <stm32__spi__send_receive_8bit_mode+0x6e>
 800631c:	2c01      	cmp	r4, #1
 800631e:	d0b5      	beq.n	800628c <stm32__spi__send_receive_8bit_mode+0x20>
 8006320:	2c00      	cmp	r4, #0
 8006322:	4673      	mov	r3, lr
 8006324:	d1bd      	bne.n	80062a2 <stm32__spi__send_receive_8bit_mode+0x36>
 8006326:	680b      	ldr	r3, [r1, #0]
 8006328:	049c      	lsls	r4, r3, #18
 800632a:	d405      	bmi.n	8006338 <stm32__spi__send_receive_8bit_mode+0xcc>
 800632c:	688b      	ldr	r3, [r1, #8]
 800632e:	07da      	lsls	r2, r3, #31
 8006330:	d5fc      	bpl.n	800632c <stm32__spi__send_receive_8bit_mode+0xc0>
 8006332:	68cb      	ldr	r3, [r1, #12]
 8006334:	703b      	strb	r3, [r7, #0]
 8006336:	bdf0      	pop	{r4, r5, r6, r7, pc}
 8006338:	680b      	ldr	r3, [r1, #0]
 800633a:	f443 5380 	orr.w	r3, r3, #4096	; 0x1000
 800633e:	600b      	str	r3, [r1, #0]
 8006340:	6841      	ldr	r1, [r0, #4]
 8006342:	e7f3      	b.n	800632c <stm32__spi__send_receive_8bit_mode+0xc0>

08006344 <stm32__spi__send_receive_16bit_mode>:
 8006344:	e92d 41f0 	stmdb	sp!, {r4, r5, r6, r7, r8, lr}
 8006348:	f8dd e01c 	ldr.w	lr, [sp, #28]
 800634c:	6841      	ldr	r1, [r0, #4]
 800634e:	681e      	ldr	r6, [r3, #0]
 8006350:	f8de 7000 	ldr.w	r7, [lr]
 8006354:	f8dd c018 	ldr.w	ip, [sp, #24]
 8006358:	9d08      	ldr	r5, [sp, #32]
 800635a:	680c      	ldr	r4, [r1, #0]
 800635c:	f8d1 8000 	ldr.w	r8, [r1]
 8006360:	f3c4 0480 	ubfx	r4, r4, #2, #1
 8006364:	ea04 2418 	and.w	r4, r4, r8, lsr #8
 8006368:	07e4      	lsls	r4, r4, #31
 800636a:	46b0      	mov	r8, r6
 800636c:	d44b      	bmi.n	8006406 <stm32__spi__send_receive_16bit_mode+0xc2>
 800636e:	68cc      	ldr	r4, [r1, #12]
 8006370:	8816      	ldrh	r6, [r2, #0]
 8006372:	3d01      	subs	r5, #1
 8006374:	f366 040f 	bfi	r4, r6, #0, #16
 8006378:	60cc      	str	r4, [r1, #12]
 800637a:	2d00      	cmp	r5, #0
 800637c:	6841      	ldr	r1, [r0, #4]
 800637e:	f108 0602 	add.w	r6, r8, #2
 8006382:	d044      	beq.n	800640e <stm32__spi__send_receive_16bit_mode+0xca>
 8006384:	dd24      	ble.n	80063d0 <stm32__spi__send_receive_16bit_mode+0x8c>
 8006386:	688c      	ldr	r4, [r1, #8]
 8006388:	07a4      	lsls	r4, r4, #30
 800638a:	d5fc      	bpl.n	8006386 <stm32__spi__send_receive_16bit_mode+0x42>
 800638c:	68cc      	ldr	r4, [r1, #12]
 800638e:	3d01      	subs	r5, #1
 8006390:	46a0      	mov	r8, r4
 8006392:	681c      	ldr	r4, [r3, #0]
 8006394:	eba6 0404 	sub.w	r4, r6, r4
 8006398:	5b14      	ldrh	r4, [r2, r4]
 800639a:	f364 080f 	bfi	r8, r4, #0, #16
 800639e:	f8c1 800c 	str.w	r8, [r1, #12]
 80063a2:	6841      	ldr	r1, [r0, #4]
 80063a4:	680c      	ldr	r4, [r1, #0]
 80063a6:	f3c4 3440 	ubfx	r4, r4, #13, #1
 80063aa:	f004 0401 	and.w	r4, r4, #1
 80063ae:	bf18      	it	ne
 80063b0:	2400      	movne	r4, #0
 80063b2:	bb14      	cbnz	r4, 80063fa <stm32__spi__send_receive_16bit_mode+0xb6>
 80063b4:	688c      	ldr	r4, [r1, #8]
 80063b6:	07e4      	lsls	r4, r4, #31
 80063b8:	d5fc      	bpl.n	80063b4 <stm32__spi__send_receive_16bit_mode+0x70>
 80063ba:	f8de 4000 	ldr.w	r4, [lr]
 80063be:	68c9      	ldr	r1, [r1, #12]
 80063c0:	1b3c      	subs	r4, r7, r4
 80063c2:	f82c 1004 	strh.w	r1, [ip, r4]
 80063c6:	3602      	adds	r6, #2
 80063c8:	3702      	adds	r7, #2
 80063ca:	6841      	ldr	r1, [r0, #4]
 80063cc:	2d00      	cmp	r5, #0
 80063ce:	d1da      	bne.n	8006386 <stm32__spi__send_receive_16bit_mode+0x42>
 80063d0:	680b      	ldr	r3, [r1, #0]
 80063d2:	680a      	ldr	r2, [r1, #0]
 80063d4:	f3c3 0380 	ubfx	r3, r3, #2, #1
 80063d8:	ea03 2312 	and.w	r3, r3, r2, lsr #8
 80063dc:	07da      	lsls	r2, r3, #31
 80063de:	d40a      	bmi.n	80063f6 <stm32__spi__send_receive_16bit_mode+0xb2>
 80063e0:	688b      	ldr	r3, [r1, #8]
 80063e2:	07db      	lsls	r3, r3, #31
 80063e4:	d5fc      	bpl.n	80063e0 <stm32__spi__send_receive_16bit_mode+0x9c>
 80063e6:	f8de 3000 	ldr.w	r3, [lr]
 80063ea:	68ca      	ldr	r2, [r1, #12]
 80063ec:	1aff      	subs	r7, r7, r3
 80063ee:	f82c 2007 	strh.w	r2, [ip, r7]
 80063f2:	e8bd 81f0 	ldmia.w	sp!, {r4, r5, r6, r7, r8, pc}
 80063f6:	e8bd 81f0 	ldmia.w	sp!, {r4, r5, r6, r7, r8, pc}
 80063fa:	680c      	ldr	r4, [r1, #0]
 80063fc:	f444 5480 	orr.w	r4, r4, #4096	; 0x1000
 8006400:	600c      	str	r4, [r1, #0]
 8006402:	6841      	ldr	r1, [r0, #4]
 8006404:	e7d6      	b.n	80063b4 <stm32__spi__send_receive_16bit_mode+0x70>
 8006406:	2d01      	cmp	r5, #1
 8006408:	d0b1      	beq.n	800636e <stm32__spi__send_receive_16bit_mode+0x2a>
 800640a:	2d00      	cmp	r5, #0
 800640c:	d1ba      	bne.n	8006384 <stm32__spi__send_receive_16bit_mode+0x40>
 800640e:	680b      	ldr	r3, [r1, #0]
 8006410:	049e      	lsls	r6, r3, #18
 8006412:	d403      	bmi.n	800641c <stm32__spi__send_receive_16bit_mode+0xd8>
 8006414:	688b      	ldr	r3, [r1, #8]
 8006416:	07dd      	lsls	r5, r3, #31
 8006418:	d5fc      	bpl.n	8006414 <stm32__spi__send_receive_16bit_mode+0xd0>
 800641a:	e7e4      	b.n	80063e6 <stm32__spi__send_receive_16bit_mode+0xa2>
 800641c:	680b      	ldr	r3, [r1, #0]
 800641e:	f443 5380 	orr.w	r3, r3, #4096	; 0x1000
 8006422:	600b      	str	r3, [r1, #0]
 8006424:	6841      	ldr	r1, [r0, #4]
 8006426:	e7f5      	b.n	8006414 <stm32__spi__send_receive_16bit_mode+0xd0>

08006428 <stm32__spi__transmit_receive>:
 8006428:	b5f0      	push	{r4, r5, r6, r7, lr}
 800642a:	6841      	ldr	r1, [r0, #4]
 800642c:	b085      	sub	sp, #20
 800642e:	4604      	mov	r4, r0
 8006430:	e9dd 670a 	ldrd	r6, r7, [sp, #40]	; 0x28
 8006434:	980c      	ldr	r0, [sp, #48]	; 0x30
 8006436:	680d      	ldr	r5, [r1, #0]
 8006438:	04ad      	lsls	r5, r5, #18
 800643a:	d434      	bmi.n	80064a6 <stm32__spi__transmit_receive+0x7e>
 800643c:	680d      	ldr	r5, [r1, #0]
 800643e:	066d      	lsls	r5, r5, #25
 8006440:	d52b      	bpl.n	800649a <stm32__spi__transmit_receive+0x72>
 8006442:	6809      	ldr	r1, [r1, #0]
 8006444:	e9cd 6700 	strd	r6, r7, [sp]
 8006448:	050e      	lsls	r6, r1, #20
 800644a:	9002      	str	r0, [sp, #8]
 800644c:	4620      	mov	r0, r4
 800644e:	d521      	bpl.n	8006494 <stm32__spi__transmit_receive+0x6c>
 8006450:	f7ff ff78 	bl	8006344 <stm32__spi__send_receive_16bit_mode>
 8006454:	6861      	ldr	r1, [r4, #4]
 8006456:	680b      	ldr	r3, [r1, #0]
 8006458:	049d      	lsls	r5, r3, #18
 800645a:	d503      	bpl.n	8006464 <stm32__spi__transmit_receive+0x3c>
 800645c:	688b      	ldr	r3, [r1, #8]
 800645e:	07d8      	lsls	r0, r3, #31
 8006460:	d5fc      	bpl.n	800645c <stm32__spi__transmit_receive+0x34>
 8006462:	68cb      	ldr	r3, [r1, #12]
 8006464:	688b      	ldr	r3, [r1, #8]
 8006466:	f3c3 13c0 	ubfx	r3, r3, #7, #1
 800646a:	2b00      	cmp	r3, #0
 800646c:	d1fa      	bne.n	8006464 <stm32__spi__transmit_receive+0x3c>
 800646e:	680a      	ldr	r2, [r1, #0]
 8006470:	6888      	ldr	r0, [r1, #8]
 8006472:	f3c2 3240 	ubfx	r2, r2, #13, #1
 8006476:	ea02 1210 	and.w	r2, r2, r0, lsr #4
 800647a:	07d2      	lsls	r2, r2, #31
 800647c:	d508      	bpl.n	8006490 <stm32__spi__transmit_receive+0x68>
 800647e:	680a      	ldr	r2, [r1, #0]
 8006480:	f363 324d 	bfi	r2, r3, #13, #1
 8006484:	600a      	str	r2, [r1, #0]
 8006486:	6862      	ldr	r2, [r4, #4]
 8006488:	6813      	ldr	r3, [r2, #0]
 800648a:	f443 5300 	orr.w	r3, r3, #8192	; 0x2000
 800648e:	6013      	str	r3, [r2, #0]
 8006490:	b005      	add	sp, #20
 8006492:	bdf0      	pop	{r4, r5, r6, r7, pc}
 8006494:	f7ff feea 	bl	800626c <stm32__spi__send_receive_8bit_mode>
 8006498:	e7dc      	b.n	8006454 <stm32__spi__transmit_receive+0x2c>
 800649a:	680d      	ldr	r5, [r1, #0]
 800649c:	f045 0540 	orr.w	r5, r5, #64	; 0x40
 80064a0:	600d      	str	r5, [r1, #0]
 80064a2:	6861      	ldr	r1, [r4, #4]
 80064a4:	e7cd      	b.n	8006442 <stm32__spi__transmit_receive+0x1a>
 80064a6:	680d      	ldr	r5, [r1, #0]
 80064a8:	f36f 354d 	bfc	r5, #13, #1
 80064ac:	600d      	str	r5, [r1, #0]
 80064ae:	6865      	ldr	r5, [r4, #4]
 80064b0:	6829      	ldr	r1, [r5, #0]
 80064b2:	f441 5100 	orr.w	r1, r1, #8192	; 0x2000
 80064b6:	6029      	str	r1, [r5, #0]
 80064b8:	6861      	ldr	r1, [r4, #4]
 80064ba:	e7bf      	b.n	800643c <stm32__spi__transmit_receive+0x14>

080064bc <stm32__spi__transmit__3>:
 80064bc:	6843      	ldr	r3, [r0, #4]
 80064be:	681a      	ldr	r2, [r3, #0]
 80064c0:	0492      	lsls	r2, r2, #18
 80064c2:	d461      	bmi.n	8006588 <stm32__spi__transmit__3+0xcc>
 80064c4:	681a      	ldr	r2, [r3, #0]
 80064c6:	f412 4f00 	tst.w	r2, #32768	; 0x8000
 80064ca:	681a      	ldr	r2, [r3, #0]
 80064cc:	d001      	beq.n	80064d2 <stm32__spi__transmit__3+0x16>
 80064ce:	0452      	lsls	r2, r2, #17
 80064d0:	d44c      	bmi.n	800656c <stm32__spi__transmit__3+0xb0>
 80064d2:	681a      	ldr	r2, [r3, #0]
 80064d4:	0652      	lsls	r2, r2, #25
 80064d6:	d551      	bpl.n	800657c <stm32__spi__transmit__3+0xc0>
 80064d8:	68da      	ldr	r2, [r3, #12]
 80064da:	f361 020f 	bfi	r2, r1, #0, #16
 80064de:	60da      	str	r2, [r3, #12]
 80064e0:	6843      	ldr	r3, [r0, #4]
 80064e2:	689a      	ldr	r2, [r3, #8]
 80064e4:	0790      	lsls	r0, r2, #30
 80064e6:	d5fc      	bpl.n	80064e2 <stm32__spi__transmit__3+0x26>
 80064e8:	689a      	ldr	r2, [r3, #8]
 80064ea:	0611      	lsls	r1, r2, #24
 80064ec:	d4fc      	bmi.n	80064e8 <stm32__spi__transmit__3+0x2c>
 80064ee:	681a      	ldr	r2, [r3, #0]
 80064f0:	0412      	lsls	r2, r2, #16
 80064f2:	d439      	bmi.n	8006568 <stm32__spi__transmit__3+0xac>
 80064f4:	b082      	sub	sp, #8
 80064f6:	681a      	ldr	r2, [r3, #0]
 80064f8:	f89d 2004 	ldrb.w	r2, [sp, #4]
 80064fc:	f022 0201 	bic.w	r2, r2, #1
 8006500:	f88d 2004 	strb.w	r2, [sp, #4]
 8006504:	f89d 2004 	ldrb.w	r2, [sp, #4]
 8006508:	f042 0202 	orr.w	r2, r2, #2
 800650c:	f88d 2004 	strb.w	r2, [sp, #4]
 8006510:	f89d 2004 	ldrb.w	r2, [sp, #4]
 8006514:	f022 0204 	bic.w	r2, r2, #4
 8006518:	f88d 2004 	strb.w	r2, [sp, #4]
 800651c:	f89d 2004 	ldrb.w	r2, [sp, #4]
 8006520:	f022 0208 	bic.w	r2, r2, #8
 8006524:	f88d 2004 	strb.w	r2, [sp, #4]
 8006528:	f89d 2004 	ldrb.w	r2, [sp, #4]
 800652c:	f022 0210 	bic.w	r2, r2, #16
 8006530:	f88d 2004 	strb.w	r2, [sp, #4]
 8006534:	f89d 2004 	ldrb.w	r2, [sp, #4]
 8006538:	f022 0220 	bic.w	r2, r2, #32
 800653c:	f88d 2004 	strb.w	r2, [sp, #4]
 8006540:	f89d 2004 	ldrb.w	r2, [sp, #4]
 8006544:	f022 0240 	bic.w	r2, r2, #64	; 0x40
 8006548:	f88d 2004 	strb.w	r2, [sp, #4]
 800654c:	f89d 2004 	ldrb.w	r2, [sp, #4]
 8006550:	f002 027f 	and.w	r2, r2, #127	; 0x7f
 8006554:	f88d 2004 	strb.w	r2, [sp, #4]
 8006558:	9a01      	ldr	r2, [sp, #4]
 800655a:	b2d2      	uxtb	r2, r2
 800655c:	9201      	str	r2, [sp, #4]
 800655e:	68da      	ldr	r2, [r3, #12]
 8006560:	689b      	ldr	r3, [r3, #8]
 8006562:	9301      	str	r3, [sp, #4]
 8006564:	b002      	add	sp, #8
 8006566:	4770      	bx	lr
 8006568:	681b      	ldr	r3, [r3, #0]
 800656a:	4770      	bx	lr
 800656c:	681a      	ldr	r2, [r3, #0]
 800656e:	f442 4280 	orr.w	r2, r2, #16384	; 0x4000
 8006572:	601a      	str	r2, [r3, #0]
 8006574:	6843      	ldr	r3, [r0, #4]
 8006576:	681a      	ldr	r2, [r3, #0]
 8006578:	0652      	lsls	r2, r2, #25
 800657a:	d4ad      	bmi.n	80064d8 <stm32__spi__transmit__3+0x1c>
 800657c:	681a      	ldr	r2, [r3, #0]
 800657e:	f042 0240 	orr.w	r2, r2, #64	; 0x40
 8006582:	601a      	str	r2, [r3, #0]
 8006584:	6843      	ldr	r3, [r0, #4]
 8006586:	e7a7      	b.n	80064d8 <stm32__spi__transmit__3+0x1c>
 8006588:	681a      	ldr	r2, [r3, #0]
 800658a:	f36f 324d 	bfc	r2, #13, #1
 800658e:	601a      	str	r2, [r3, #0]
 8006590:	6842      	ldr	r2, [r0, #4]
 8006592:	6813      	ldr	r3, [r2, #0]
 8006594:	f443 5300 	orr.w	r3, r3, #8192	; 0x2000
 8006598:	6013      	str	r3, [r2, #0]
 800659a:	6843      	ldr	r3, [r0, #4]
 800659c:	e792      	b.n	80064c4 <stm32__spi__transmit__3+0x8>
 800659e:	bf00      	nop

080065a0 <stm32__spi__transmit>:
 80065a0:	b5d0      	push	{r4, r6, r7, lr}
 80065a2:	6841      	ldr	r1, [r0, #4]
 80065a4:	461f      	mov	r7, r3
 80065a6:	680b      	ldr	r3, [r1, #0]
 80065a8:	b082      	sub	sp, #8
 80065aa:	049b      	lsls	r3, r3, #18
 80065ac:	4604      	mov	r4, r0
 80065ae:	4616      	mov	r6, r2
 80065b0:	f100 8092 	bmi.w	80066d8 <stm32__spi__transmit+0x138>
 80065b4:	680b      	ldr	r3, [r1, #0]
 80065b6:	f413 4f00 	tst.w	r3, #32768	; 0x8000
 80065ba:	680b      	ldr	r3, [r1, #0]
 80065bc:	d002      	beq.n	80065c4 <stm32__spi__transmit+0x24>
 80065be:	0458      	lsls	r0, r3, #17
 80065c0:	f100 8084 	bmi.w	80066cc <stm32__spi__transmit+0x12c>
 80065c4:	f89d 3000 	ldrb.w	r3, [sp]
 80065c8:	f023 0301 	bic.w	r3, r3, #1
 80065cc:	f88d 3000 	strb.w	r3, [sp]
 80065d0:	f89d 3000 	ldrb.w	r3, [sp]
 80065d4:	f043 0302 	orr.w	r3, r3, #2
 80065d8:	f88d 3000 	strb.w	r3, [sp]
 80065dc:	f89d 3000 	ldrb.w	r3, [sp]
 80065e0:	f023 0304 	bic.w	r3, r3, #4
 80065e4:	f88d 3000 	strb.w	r3, [sp]
 80065e8:	f89d 3000 	ldrb.w	r3, [sp]
 80065ec:	f023 0308 	bic.w	r3, r3, #8
 80065f0:	f88d 3000 	strb.w	r3, [sp]
 80065f4:	f89d 3000 	ldrb.w	r3, [sp]
 80065f8:	f023 0310 	bic.w	r3, r3, #16
 80065fc:	f88d 3000 	strb.w	r3, [sp]
 8006600:	f89d 3000 	ldrb.w	r3, [sp]
 8006604:	f023 0320 	bic.w	r3, r3, #32
 8006608:	f88d 3000 	strb.w	r3, [sp]
 800660c:	f89d 3000 	ldrb.w	r3, [sp]
 8006610:	f023 0340 	bic.w	r3, r3, #64	; 0x40
 8006614:	f88d 3000 	strb.w	r3, [sp]
 8006618:	f89d 3000 	ldrb.w	r3, [sp]
 800661c:	f003 037f 	and.w	r3, r3, #127	; 0x7f
 8006620:	f88d 3000 	strb.w	r3, [sp]
 8006624:	9b00      	ldr	r3, [sp, #0]
 8006626:	b2db      	uxtb	r3, r3
 8006628:	9300      	str	r3, [sp, #0]
 800662a:	68cb      	ldr	r3, [r1, #12]
 800662c:	688b      	ldr	r3, [r1, #8]
 800662e:	9300      	str	r3, [sp, #0]
 8006630:	6863      	ldr	r3, [r4, #4]
 8006632:	681a      	ldr	r2, [r3, #0]
 8006634:	0651      	lsls	r1, r2, #25
 8006636:	d55a      	bpl.n	80066ee <stm32__spi__transmit+0x14e>
 8006638:	4632      	mov	r2, r6
 800663a:	463b      	mov	r3, r7
 800663c:	4620      	mov	r0, r4
 800663e:	f7ff fd87 	bl	8006150 <stm32__spi__send_8bit_mode>
 8006642:	6861      	ldr	r1, [r4, #4]
 8006644:	688b      	ldr	r3, [r1, #8]
 8006646:	079a      	lsls	r2, r3, #30
 8006648:	d5fc      	bpl.n	8006644 <stm32__spi__transmit+0xa4>
 800664a:	688b      	ldr	r3, [r1, #8]
 800664c:	061b      	lsls	r3, r3, #24
 800664e:	d4fc      	bmi.n	800664a <stm32__spi__transmit+0xaa>
 8006650:	680b      	ldr	r3, [r1, #0]
 8006652:	f413 4f00 	tst.w	r3, #32768	; 0x8000
 8006656:	680b      	ldr	r3, [r1, #0]
 8006658:	d135      	bne.n	80066c6 <stm32__spi__transmit+0x126>
 800665a:	f89d 3004 	ldrb.w	r3, [sp, #4]
 800665e:	f023 0301 	bic.w	r3, r3, #1
 8006662:	f88d 3004 	strb.w	r3, [sp, #4]
 8006666:	f89d 3004 	ldrb.w	r3, [sp, #4]
 800666a:	f043 0302 	orr.w	r3, r3, #2
 800666e:	f88d 3004 	strb.w	r3, [sp, #4]
 8006672:	f89d 3004 	ldrb.w	r3, [sp, #4]
 8006676:	f023 0304 	bic.w	r3, r3, #4
 800667a:	f88d 3004 	strb.w	r3, [sp, #4]
 800667e:	f89d 3004 	ldrb.w	r3, [sp, #4]
 8006682:	f023 0308 	bic.w	r3, r3, #8
 8006686:	f88d 3004 	strb.w	r3, [sp, #4]
 800668a:	f89d 3004 	ldrb.w	r3, [sp, #4]
 800668e:	f023 0310 	bic.w	r3, r3, #16
 8006692:	f88d 3004 	strb.w	r3, [sp, #4]
 8006696:	f89d 3004 	ldrb.w	r3, [sp, #4]
 800669a:	f023 0320 	bic.w	r3, r3, #32
 800669e:	f88d 3004 	strb.w	r3, [sp, #4]
 80066a2:	f89d 3004 	ldrb.w	r3, [sp, #4]
 80066a6:	f023 0340 	bic.w	r3, r3, #64	; 0x40
 80066aa:	f88d 3004 	strb.w	r3, [sp, #4]
 80066ae:	f89d 3004 	ldrb.w	r3, [sp, #4]
 80066b2:	f003 037f 	and.w	r3, r3, #127	; 0x7f
 80066b6:	f88d 3004 	strb.w	r3, [sp, #4]
 80066ba:	9b01      	ldr	r3, [sp, #4]
 80066bc:	b2db      	uxtb	r3, r3
 80066be:	9301      	str	r3, [sp, #4]
 80066c0:	68cb      	ldr	r3, [r1, #12]
 80066c2:	688b      	ldr	r3, [r1, #8]
 80066c4:	9301      	str	r3, [sp, #4]
 80066c6:	2000      	movs	r0, #0
 80066c8:	b002      	add	sp, #8
 80066ca:	bdd0      	pop	{r4, r6, r7, pc}
 80066cc:	680b      	ldr	r3, [r1, #0]
 80066ce:	f443 4380 	orr.w	r3, r3, #16384	; 0x4000
 80066d2:	600b      	str	r3, [r1, #0]
 80066d4:	6861      	ldr	r1, [r4, #4]
 80066d6:	e775      	b.n	80065c4 <stm32__spi__transmit+0x24>
 80066d8:	680b      	ldr	r3, [r1, #0]
 80066da:	f36f 334d 	bfc	r3, #13, #1
 80066de:	600b      	str	r3, [r1, #0]
 80066e0:	6842      	ldr	r2, [r0, #4]
 80066e2:	6813      	ldr	r3, [r2, #0]
 80066e4:	f443 5300 	orr.w	r3, r3, #8192	; 0x2000
 80066e8:	6013      	str	r3, [r2, #0]
 80066ea:	6841      	ldr	r1, [r0, #4]
 80066ec:	e762      	b.n	80065b4 <stm32__spi__transmit+0x14>
 80066ee:	681a      	ldr	r2, [r3, #0]
 80066f0:	f042 0240 	orr.w	r2, r2, #64	; 0x40
 80066f4:	601a      	str	r2, [r3, #0]
 80066f6:	e79f      	b.n	8006638 <stm32__spi__transmit+0x98>

080066f8 <stm32__spi__transmit__2>:
 80066f8:	b5d0      	push	{r4, r6, r7, lr}
 80066fa:	6841      	ldr	r1, [r0, #4]
 80066fc:	461f      	mov	r7, r3
 80066fe:	680b      	ldr	r3, [r1, #0]
 8006700:	b082      	sub	sp, #8
 8006702:	049b      	lsls	r3, r3, #18
 8006704:	4604      	mov	r4, r0
 8006706:	4616      	mov	r6, r2
 8006708:	f100 8092 	bmi.w	8006830 <stm32__spi__transmit__2+0x138>
 800670c:	680b      	ldr	r3, [r1, #0]
 800670e:	f413 4f00 	tst.w	r3, #32768	; 0x8000
 8006712:	680b      	ldr	r3, [r1, #0]
 8006714:	d002      	beq.n	800671c <stm32__spi__transmit__2+0x24>
 8006716:	0458      	lsls	r0, r3, #17
 8006718:	f100 8084 	bmi.w	8006824 <stm32__spi__transmit__2+0x12c>
 800671c:	f89d 3000 	ldrb.w	r3, [sp]
 8006720:	f023 0301 	bic.w	r3, r3, #1
 8006724:	f88d 3000 	strb.w	r3, [sp]
 8006728:	f89d 3000 	ldrb.w	r3, [sp]
 800672c:	f043 0302 	orr.w	r3, r3, #2
 8006730:	f88d 3000 	strb.w	r3, [sp]
 8006734:	f89d 3000 	ldrb.w	r3, [sp]
 8006738:	f023 0304 	bic.w	r3, r3, #4
 800673c:	f88d 3000 	strb.w	r3, [sp]
 8006740:	f89d 3000 	ldrb.w	r3, [sp]
 8006744:	f023 0308 	bic.w	r3, r3, #8
 8006748:	f88d 3000 	strb.w	r3, [sp]
 800674c:	f89d 3000 	ldrb.w	r3, [sp]
 8006750:	f023 0310 	bic.w	r3, r3, #16
 8006754:	f88d 3000 	strb.w	r3, [sp]
 8006758:	f89d 3000 	ldrb.w	r3, [sp]
 800675c:	f023 0320 	bic.w	r3, r3, #32
 8006760:	f88d 3000 	strb.w	r3, [sp]
 8006764:	f89d 3000 	ldrb.w	r3, [sp]
 8006768:	f023 0340 	bic.w	r3, r3, #64	; 0x40
 800676c:	f88d 3000 	strb.w	r3, [sp]
 8006770:	f89d 3000 	ldrb.w	r3, [sp]
 8006774:	f003 037f 	and.w	r3, r3, #127	; 0x7f
 8006778:	f88d 3000 	strb.w	r3, [sp]
 800677c:	9b00      	ldr	r3, [sp, #0]
 800677e:	b2db      	uxtb	r3, r3
 8006780:	9300      	str	r3, [sp, #0]
 8006782:	68cb      	ldr	r3, [r1, #12]
 8006784:	688b      	ldr	r3, [r1, #8]
 8006786:	9300      	str	r3, [sp, #0]
 8006788:	6863      	ldr	r3, [r4, #4]
 800678a:	681a      	ldr	r2, [r3, #0]
 800678c:	0651      	lsls	r1, r2, #25
 800678e:	d55a      	bpl.n	8006846 <stm32__spi__transmit__2+0x14e>
 8006790:	4632      	mov	r2, r6
 8006792:	463b      	mov	r3, r7
 8006794:	4620      	mov	r0, r4
 8006796:	f7ff fd1f 	bl	80061d8 <stm32__spi__send_16bit_mode>
 800679a:	6861      	ldr	r1, [r4, #4]
 800679c:	688b      	ldr	r3, [r1, #8]
 800679e:	079a      	lsls	r2, r3, #30
 80067a0:	d5fc      	bpl.n	800679c <stm32__spi__transmit__2+0xa4>
 80067a2:	688b      	ldr	r3, [r1, #8]
 80067a4:	061b      	lsls	r3, r3, #24
 80067a6:	d4fc      	bmi.n	80067a2 <stm32__spi__transmit__2+0xaa>
 80067a8:	680b      	ldr	r3, [r1, #0]
 80067aa:	f413 4f00 	tst.w	r3, #32768	; 0x8000
 80067ae:	680b      	ldr	r3, [r1, #0]
 80067b0:	d135      	bne.n	800681e <stm32__spi__transmit__2+0x126>
 80067b2:	f89d 3004 	ldrb.w	r3, [sp, #4]
 80067b6:	f023 0301 	bic.w	r3, r3, #1
 80067ba:	f88d 3004 	strb.w	r3, [sp, #4]
 80067be:	f89d 3004 	ldrb.w	r3, [sp, #4]
 80067c2:	f043 0302 	orr.w	r3, r3, #2
 80067c6:	f88d 3004 	strb.w	r3, [sp, #4]
 80067ca:	f89d 3004 	ldrb.w	r3, [sp, #4]
 80067ce:	f023 0304 	bic.w	r3, r3, #4
 80067d2:	f88d 3004 	strb.w	r3, [sp, #4]
 80067d6:	f89d 3004 	ldrb.w	r3, [sp, #4]
 80067da:	f023 0308 	bic.w	r3, r3, #8
 80067de:	f88d 3004 	strb.w	r3, [sp, #4]
 80067e2:	f89d 3004 	ldrb.w	r3, [sp, #4]
 80067e6:	f023 0310 	bic.w	r3, r3, #16
 80067ea:	f88d 3004 	strb.w	r3, [sp, #4]
 80067ee:	f89d 3004 	ldrb.w	r3, [sp, #4]
 80067f2:	f023 0320 	bic.w	r3, r3, #32
 80067f6:	f88d 3004 	strb.w	r3, [sp, #4]
 80067fa:	f89d 3004 	ldrb.w	r3, [sp, #4]
 80067fe:	f023 0340 	bic.w	r3, r3, #64	; 0x40
 8006802:	f88d 3004 	strb.w	r3, [sp, #4]
 8006806:	f89d 3004 	ldrb.w	r3, [sp, #4]
 800680a:	f003 037f 	and.w	r3, r3, #127	; 0x7f
 800680e:	f88d 3004 	strb.w	r3, [sp, #4]
 8006812:	9b01      	ldr	r3, [sp, #4]
 8006814:	b2db      	uxtb	r3, r3
 8006816:	9301      	str	r3, [sp, #4]
 8006818:	68cb      	ldr	r3, [r1, #12]
 800681a:	688b      	ldr	r3, [r1, #8]
 800681c:	9301      	str	r3, [sp, #4]
 800681e:	2000      	movs	r0, #0
 8006820:	b002      	add	sp, #8
 8006822:	bdd0      	pop	{r4, r6, r7, pc}
 8006824:	680b      	ldr	r3, [r1, #0]
 8006826:	f443 4380 	orr.w	r3, r3, #16384	; 0x4000
 800682a:	600b      	str	r3, [r1, #0]
 800682c:	6861      	ldr	r1, [r4, #4]
 800682e:	e775      	b.n	800671c <stm32__spi__transmit__2+0x24>
 8006830:	680b      	ldr	r3, [r1, #0]
 8006832:	f36f 334d 	bfc	r3, #13, #1
 8006836:	600b      	str	r3, [r1, #0]
 8006838:	6842      	ldr	r2, [r0, #4]
 800683a:	6813      	ldr	r3, [r2, #0]
 800683c:	f443 5300 	orr.w	r3, r3, #8192	; 0x2000
 8006840:	6013      	str	r3, [r2, #0]
 8006842:	6841      	ldr	r1, [r0, #4]
 8006844:	e762      	b.n	800670c <stm32__spi__transmit__2+0x14>
 8006846:	681a      	ldr	r2, [r3, #0]
 8006848:	f042 0240 	orr.w	r2, r2, #64	; 0x40
 800684c:	601a      	str	r2, [r3, #0]
 800684e:	e79f      	b.n	8006790 <stm32__spi__transmit__2+0x98>

08006850 <stm32__spi__receive__3>:
 8006850:	b430      	push	{r4, r5}
 8006852:	6842      	ldr	r2, [r0, #4]
 8006854:	4604      	mov	r4, r0
 8006856:	6813      	ldr	r3, [r2, #0]
 8006858:	049d      	lsls	r5, r3, #18
 800685a:	d431      	bmi.n	80068c0 <stm32__spi__receive__3+0x70>
 800685c:	6813      	ldr	r3, [r2, #0]
 800685e:	0658      	lsls	r0, r3, #25
 8006860:	d528      	bpl.n	80068b4 <stm32__spi__receive__3+0x64>
 8006862:	68d3      	ldr	r3, [r2, #12]
 8006864:	f36f 030f 	bfc	r3, #0, #16
 8006868:	60d3      	str	r3, [r2, #12]
 800686a:	6862      	ldr	r2, [r4, #4]
 800686c:	6893      	ldr	r3, [r2, #8]
 800686e:	07d9      	lsls	r1, r3, #31
 8006870:	d5fc      	bpl.n	800686c <stm32__spi__receive__3+0x1c>
 8006872:	68d0      	ldr	r0, [r2, #12]
 8006874:	6813      	ldr	r3, [r2, #0]
 8006876:	b2c0      	uxtb	r0, r0
 8006878:	049b      	lsls	r3, r3, #18
 800687a:	d503      	bpl.n	8006884 <stm32__spi__receive__3+0x34>
 800687c:	6893      	ldr	r3, [r2, #8]
 800687e:	07dd      	lsls	r5, r3, #31
 8006880:	d5fc      	bpl.n	800687c <stm32__spi__receive__3+0x2c>
 8006882:	68d3      	ldr	r3, [r2, #12]
 8006884:	6893      	ldr	r3, [r2, #8]
 8006886:	f3c3 13c0 	ubfx	r3, r3, #7, #1
 800688a:	2b00      	cmp	r3, #0
 800688c:	d1fa      	bne.n	8006884 <stm32__spi__receive__3+0x34>
 800688e:	6811      	ldr	r1, [r2, #0]
 8006890:	6895      	ldr	r5, [r2, #8]
 8006892:	f3c1 3140 	ubfx	r1, r1, #13, #1
 8006896:	ea01 1115 	and.w	r1, r1, r5, lsr #4
 800689a:	07c9      	lsls	r1, r1, #31
 800689c:	d508      	bpl.n	80068b0 <stm32__spi__receive__3+0x60>
 800689e:	6811      	ldr	r1, [r2, #0]
 80068a0:	f363 314d 	bfi	r1, r3, #13, #1
 80068a4:	6011      	str	r1, [r2, #0]
 80068a6:	6862      	ldr	r2, [r4, #4]
 80068a8:	6813      	ldr	r3, [r2, #0]
 80068aa:	f443 5300 	orr.w	r3, r3, #8192	; 0x2000
 80068ae:	6013      	str	r3, [r2, #0]
 80068b0:	bc30      	pop	{r4, r5}
 80068b2:	4770      	bx	lr
 80068b4:	6813      	ldr	r3, [r2, #0]
 80068b6:	f043 0340 	orr.w	r3, r3, #64	; 0x40
 80068ba:	6013      	str	r3, [r2, #0]
 80068bc:	6862      	ldr	r2, [r4, #4]
 80068be:	e7d0      	b.n	8006862 <stm32__spi__receive__3+0x12>
 80068c0:	6813      	ldr	r3, [r2, #0]
 80068c2:	f36f 334d 	bfc	r3, #13, #1
 80068c6:	6013      	str	r3, [r2, #0]
 80068c8:	6842      	ldr	r2, [r0, #4]
 80068ca:	6813      	ldr	r3, [r2, #0]
 80068cc:	f443 5300 	orr.w	r3, r3, #8192	; 0x2000
 80068d0:	6013      	str	r3, [r2, #0]
 80068d2:	6842      	ldr	r2, [r0, #4]
 80068d4:	e7c2      	b.n	800685c <stm32__spi__receive__3+0xc>
 80068d6:	bf00      	nop

080068d8 <stm32__spi__transmit_receive__2>:
 80068d8:	b538      	push	{r3, r4, r5, lr}
 80068da:	6842      	ldr	r2, [r0, #4]
 80068dc:	4604      	mov	r4, r0
 80068de:	6813      	ldr	r3, [r2, #0]
 80068e0:	0498      	lsls	r0, r3, #18
 80068e2:	d43c      	bmi.n	800695e <stm32__spi__transmit_receive__2+0x86>
 80068e4:	6813      	ldr	r3, [r2, #0]
 80068e6:	065b      	lsls	r3, r3, #25
 80068e8:	d533      	bpl.n	8006952 <stm32__spi__transmit_receive__2+0x7a>
 80068ea:	6813      	ldr	r3, [r2, #0]
 80068ec:	051d      	lsls	r5, r3, #20
 80068ee:	d441      	bmi.n	8006974 <stm32__spi__transmit_receive__2+0x9c>
 80068f0:	68d3      	ldr	r3, [r2, #12]
 80068f2:	f361 030f 	bfi	r3, r1, #0, #16
 80068f6:	60d3      	str	r3, [r2, #12]
 80068f8:	6862      	ldr	r2, [r4, #4]
 80068fa:	6813      	ldr	r3, [r2, #0]
 80068fc:	0498      	lsls	r0, r3, #18
 80068fe:	d422      	bmi.n	8006946 <stm32__spi__transmit_receive__2+0x6e>
 8006900:	6893      	ldr	r3, [r2, #8]
 8006902:	07d9      	lsls	r1, r3, #31
 8006904:	d5fc      	bpl.n	8006900 <stm32__spi__transmit_receive__2+0x28>
 8006906:	68d0      	ldr	r0, [r2, #12]
 8006908:	6813      	ldr	r3, [r2, #0]
 800690a:	b2c0      	uxtb	r0, r0
 800690c:	049b      	lsls	r3, r3, #18
 800690e:	d503      	bpl.n	8006918 <stm32__spi__transmit_receive__2+0x40>
 8006910:	6893      	ldr	r3, [r2, #8]
 8006912:	07dd      	lsls	r5, r3, #31
 8006914:	d5fc      	bpl.n	8006910 <stm32__spi__transmit_receive__2+0x38>
 8006916:	68d3      	ldr	r3, [r2, #12]
 8006918:	6893      	ldr	r3, [r2, #8]
 800691a:	f3c3 13c0 	ubfx	r3, r3, #7, #1
 800691e:	2b00      	cmp	r3, #0
 8006920:	d1fa      	bne.n	8006918 <stm32__spi__transmit_receive__2+0x40>
 8006922:	6811      	ldr	r1, [r2, #0]
 8006924:	6895      	ldr	r5, [r2, #8]
 8006926:	f3c1 3140 	ubfx	r1, r1, #13, #1
 800692a:	ea01 1115 	and.w	r1, r1, r5, lsr #4
 800692e:	07c9      	lsls	r1, r1, #31
 8006930:	d508      	bpl.n	8006944 <stm32__spi__transmit_receive__2+0x6c>
 8006932:	6811      	ldr	r1, [r2, #0]
 8006934:	f363 314d 	bfi	r1, r3, #13, #1
 8006938:	6011      	str	r1, [r2, #0]
 800693a:	6862      	ldr	r2, [r4, #4]
 800693c:	6813      	ldr	r3, [r2, #0]
 800693e:	f443 5300 	orr.w	r3, r3, #8192	; 0x2000
 8006942:	6013      	str	r3, [r2, #0]
 8006944:	bd38      	pop	{r3, r4, r5, pc}
 8006946:	6813      	ldr	r3, [r2, #0]
 8006948:	f443 5380 	orr.w	r3, r3, #4096	; 0x1000
 800694c:	6013      	str	r3, [r2, #0]
 800694e:	6862      	ldr	r2, [r4, #4]
 8006950:	e7d6      	b.n	8006900 <stm32__spi__transmit_receive__2+0x28>
 8006952:	6813      	ldr	r3, [r2, #0]
 8006954:	f043 0340 	orr.w	r3, r3, #64	; 0x40
 8006958:	6013      	str	r3, [r2, #0]
 800695a:	6862      	ldr	r2, [r4, #4]
 800695c:	e7c5      	b.n	80068ea <stm32__spi__transmit_receive__2+0x12>
 800695e:	6813      	ldr	r3, [r2, #0]
 8006960:	f36f 334d 	bfc	r3, #13, #1
 8006964:	6013      	str	r3, [r2, #0]
 8006966:	6862      	ldr	r2, [r4, #4]
 8006968:	6813      	ldr	r3, [r2, #0]
 800696a:	f443 5300 	orr.w	r3, r3, #8192	; 0x2000
 800696e:	6013      	str	r3, [r2, #0]
 8006970:	6862      	ldr	r2, [r4, #4]
 8006972:	e7b7      	b.n	80068e4 <stm32__spi__transmit_receive__2+0xc>
 8006974:	4802      	ldr	r0, [pc, #8]	; (8006980 <stm32__spi__transmit_receive__2+0xa8>)
 8006976:	f240 2199 	movw	r1, #665	; 0x299
 800697a:	f7f9 fda1 	bl	80004c0 <__gnat_last_chance_handler>
 800697e:	bf00      	nop
 8006980:	0800a440 	.word	0x0800a440

08006984 <stm32__spi__receive__2>:
 8006984:	b5f0      	push	{r4, r5, r6, r7, lr}
 8006986:	6844      	ldr	r4, [r0, #4]
 8006988:	469c      	mov	ip, r3
 800698a:	6821      	ldr	r1, [r4, #0]
 800698c:	048e      	lsls	r6, r1, #18
 800698e:	d444      	bmi.n	8006a1a <stm32__spi__receive__2+0x96>
 8006990:	6823      	ldr	r3, [r4, #0]
 8006992:	065d      	lsls	r5, r3, #25
 8006994:	d53b      	bpl.n	8006a0e <stm32__spi__receive__2+0x8a>
 8006996:	f8dc e000 	ldr.w	lr, [ip]
 800699a:	6827      	ldr	r7, [r4, #0]
 800699c:	6821      	ldr	r1, [r4, #0]
 800699e:	f8dc 3004 	ldr.w	r3, [ip, #4]
 80069a2:	459e      	cmp	lr, r3
 80069a4:	dc13      	bgt.n	80069ce <stm32__spi__receive__2+0x4a>
 80069a6:	f3c1 2100 	ubfx	r1, r1, #8, #1
 80069aa:	ea01 0797 	and.w	r7, r1, r7, lsr #2
 80069ae:	f007 0701 	and.w	r7, r7, #1
 80069b2:	f10e 35ff 	add.w	r5, lr, #4294967295
 80069b6:	3501      	adds	r5, #1
 80069b8:	bb0f      	cbnz	r7, 80069fe <stm32__spi__receive__2+0x7a>
 80069ba:	68a1      	ldr	r1, [r4, #8]
 80069bc:	07c9      	lsls	r1, r1, #31
 80069be:	d5fc      	bpl.n	80069ba <stm32__spi__receive__2+0x36>
 80069c0:	68e6      	ldr	r6, [r4, #12]
 80069c2:	ebce 0105 	rsb	r1, lr, r5
 80069c6:	429d      	cmp	r5, r3
 80069c8:	f822 6011 	strh.w	r6, [r2, r1, lsl #1]
 80069cc:	d1f3      	bne.n	80069b6 <stm32__spi__receive__2+0x32>
 80069ce:	68a3      	ldr	r3, [r4, #8]
 80069d0:	f3c3 13c0 	ubfx	r3, r3, #7, #1
 80069d4:	2b00      	cmp	r3, #0
 80069d6:	d1fa      	bne.n	80069ce <stm32__spi__receive__2+0x4a>
 80069d8:	6822      	ldr	r2, [r4, #0]
 80069da:	68a1      	ldr	r1, [r4, #8]
 80069dc:	f3c2 3240 	ubfx	r2, r2, #13, #1
 80069e0:	ea02 1211 	and.w	r2, r2, r1, lsr #4
 80069e4:	07d2      	lsls	r2, r2, #31
 80069e6:	d508      	bpl.n	80069fa <stm32__spi__receive__2+0x76>
 80069e8:	6822      	ldr	r2, [r4, #0]
 80069ea:	f363 324d 	bfi	r2, r3, #13, #1
 80069ee:	6022      	str	r2, [r4, #0]
 80069f0:	6842      	ldr	r2, [r0, #4]
 80069f2:	6813      	ldr	r3, [r2, #0]
 80069f4:	f443 5300 	orr.w	r3, r3, #8192	; 0x2000
 80069f8:	6013      	str	r3, [r2, #0]
 80069fa:	2000      	movs	r0, #0
 80069fc:	bdf0      	pop	{r4, r5, r6, r7, pc}
 80069fe:	68e3      	ldr	r3, [r4, #12]
 8006a00:	f36f 030f 	bfc	r3, #0, #16
 8006a04:	60e3      	str	r3, [r4, #12]
 8006a06:	6844      	ldr	r4, [r0, #4]
 8006a08:	f8dc 3004 	ldr.w	r3, [ip, #4]
 8006a0c:	e7d5      	b.n	80069ba <stm32__spi__receive__2+0x36>
 8006a0e:	6823      	ldr	r3, [r4, #0]
 8006a10:	f043 0340 	orr.w	r3, r3, #64	; 0x40
 8006a14:	6023      	str	r3, [r4, #0]
 8006a16:	6844      	ldr	r4, [r0, #4]
 8006a18:	e7bd      	b.n	8006996 <stm32__spi__receive__2+0x12>
 8006a1a:	6823      	ldr	r3, [r4, #0]
 8006a1c:	f36f 334d 	bfc	r3, #13, #1
 8006a20:	6023      	str	r3, [r4, #0]
 8006a22:	6841      	ldr	r1, [r0, #4]
 8006a24:	680b      	ldr	r3, [r1, #0]
 8006a26:	f443 5300 	orr.w	r3, r3, #8192	; 0x2000
 8006a2a:	600b      	str	r3, [r1, #0]
 8006a2c:	6844      	ldr	r4, [r0, #4]
 8006a2e:	e7af      	b.n	8006990 <stm32__spi__receive__2+0xc>

08006a30 <stm32__spi__receive>:
 8006a30:	b5f0      	push	{r4, r5, r6, r7, lr}
 8006a32:	6844      	ldr	r4, [r0, #4]
 8006a34:	469c      	mov	ip, r3
 8006a36:	6821      	ldr	r1, [r4, #0]
 8006a38:	048e      	lsls	r6, r1, #18
 8006a3a:	d443      	bmi.n	8006ac4 <stm32__spi__receive+0x94>
 8006a3c:	6823      	ldr	r3, [r4, #0]
 8006a3e:	065d      	lsls	r5, r3, #25
 8006a40:	d53a      	bpl.n	8006ab8 <stm32__spi__receive+0x88>
 8006a42:	f8dc e000 	ldr.w	lr, [ip]
 8006a46:	6827      	ldr	r7, [r4, #0]
 8006a48:	6821      	ldr	r1, [r4, #0]
 8006a4a:	f8dc 3004 	ldr.w	r3, [ip, #4]
 8006a4e:	459e      	cmp	lr, r3
 8006a50:	dc12      	bgt.n	8006a78 <stm32__spi__receive+0x48>
 8006a52:	f3c1 2100 	ubfx	r1, r1, #8, #1
 8006a56:	ea01 0797 	and.w	r7, r1, r7, lsr #2
 8006a5a:	f007 0701 	and.w	r7, r7, #1
 8006a5e:	f10e 35ff 	add.w	r5, lr, #4294967295
 8006a62:	3501      	adds	r5, #1
 8006a64:	bb07      	cbnz	r7, 8006aa8 <stm32__spi__receive+0x78>
 8006a66:	68a1      	ldr	r1, [r4, #8]
 8006a68:	07c9      	lsls	r1, r1, #31
 8006a6a:	d5fc      	bpl.n	8006a66 <stm32__spi__receive+0x36>
 8006a6c:	68e6      	ldr	r6, [r4, #12]
 8006a6e:	ebce 0105 	rsb	r1, lr, r5
 8006a72:	429d      	cmp	r5, r3
 8006a74:	5456      	strb	r6, [r2, r1]
 8006a76:	d1f4      	bne.n	8006a62 <stm32__spi__receive+0x32>
 8006a78:	68a3      	ldr	r3, [r4, #8]
 8006a7a:	f3c3 13c0 	ubfx	r3, r3, #7, #1
 8006a7e:	2b00      	cmp	r3, #0
 8006a80:	d1fa      	bne.n	8006a78 <stm32__spi__receive+0x48>
 8006a82:	6822      	ldr	r2, [r4, #0]
 8006a84:	68a1      	ldr	r1, [r4, #8]
 8006a86:	f3c2 3240 	ubfx	r2, r2, #13, #1
 8006a8a:	ea02 1211 	and.w	r2, r2, r1, lsr #4
 8006a8e:	07d2      	lsls	r2, r2, #31
 8006a90:	d508      	bpl.n	8006aa4 <stm32__spi__receive+0x74>
 8006a92:	6822      	ldr	r2, [r4, #0]
 8006a94:	f363 324d 	bfi	r2, r3, #13, #1
 8006a98:	6022      	str	r2, [r4, #0]
 8006a9a:	6842      	ldr	r2, [r0, #4]
 8006a9c:	6813      	ldr	r3, [r2, #0]
 8006a9e:	f443 5300 	orr.w	r3, r3, #8192	; 0x2000
 8006aa2:	6013      	str	r3, [r2, #0]
 8006aa4:	2000      	movs	r0, #0
 8006aa6:	bdf0      	pop	{r4, r5, r6, r7, pc}
 8006aa8:	68e3      	ldr	r3, [r4, #12]
 8006aaa:	f36f 030f 	bfc	r3, #0, #16
 8006aae:	60e3      	str	r3, [r4, #12]
 8006ab0:	6844      	ldr	r4, [r0, #4]
 8006ab2:	f8dc 3004 	ldr.w	r3, [ip, #4]
 8006ab6:	e7d6      	b.n	8006a66 <stm32__spi__receive+0x36>
 8006ab8:	6823      	ldr	r3, [r4, #0]
 8006aba:	f043 0340 	orr.w	r3, r3, #64	; 0x40
 8006abe:	6023      	str	r3, [r4, #0]
 8006ac0:	6844      	ldr	r4, [r0, #4]
 8006ac2:	e7be      	b.n	8006a42 <stm32__spi__receive+0x12>
 8006ac4:	6823      	ldr	r3, [r4, #0]
 8006ac6:	f36f 334d 	bfc	r3, #13, #1
 8006aca:	6023      	str	r3, [r4, #0]
 8006acc:	6841      	ldr	r1, [r0, #4]
 8006ace:	680b      	ldr	r3, [r1, #0]
 8006ad0:	f443 5300 	orr.w	r3, r3, #8192	; 0x2000
 8006ad4:	600b      	str	r3, [r1, #0]
 8006ad6:	6844      	ldr	r4, [r0, #4]
 8006ad8:	e7b0      	b.n	8006a3c <stm32__spi__receive+0xc>
 8006ada:	bf00      	nop

08006adc <stm32__i2s___size__2>:
 8006adc:	2040      	movs	r0, #64	; 0x40
 8006ade:	2100      	movs	r1, #0
 8006ae0:	4770      	bx	lr
 8006ae2:	bf00      	nop

08006ae4 <stm32__i2s__data_register_address>:
 8006ae4:	6840      	ldr	r0, [r0, #4]
 8006ae6:	300c      	adds	r0, #12
 8006ae8:	4770      	bx	lr
 8006aea:	bf00      	nop

08006aec <stm32__i2s__in_i2s_mode>:
 8006aec:	6843      	ldr	r3, [r0, #4]
 8006aee:	69d8      	ldr	r0, [r3, #28]
 8006af0:	f3c0 20c0 	ubfx	r0, r0, #11, #1
 8006af4:	4770      	bx	lr
 8006af6:	bf00      	nop

08006af8 <stm32__i2s__enabled>:
 8006af8:	6843      	ldr	r3, [r0, #4]
 8006afa:	69d8      	ldr	r0, [r3, #28]
 8006afc:	f3c0 2080 	ubfx	r0, r0, #10, #1
 8006b00:	4770      	bx	lr
 8006b02:	bf00      	nop

08006b04 <stm32__i2s__receive>:
 8006b04:	b430      	push	{r4, r5}
 8006b06:	e893 0030 	ldmia.w	r3, {r4, r5}
 8006b0a:	42ac      	cmp	r4, r5
 8006b0c:	dc0c      	bgt.n	8006b28 <stm32__i2s__receive+0x24>
 8006b0e:	6841      	ldr	r1, [r0, #4]
 8006b10:	eba2 0044 	sub.w	r0, r2, r4, lsl #1
 8006b14:	1e62      	subs	r2, r4, #1
 8006b16:	3201      	adds	r2, #1
 8006b18:	688b      	ldr	r3, [r1, #8]
 8006b1a:	07db      	lsls	r3, r3, #31
 8006b1c:	d5fc      	bpl.n	8006b18 <stm32__i2s__receive+0x14>
 8006b1e:	68cb      	ldr	r3, [r1, #12]
 8006b20:	4295      	cmp	r5, r2
 8006b22:	f820 3012 	strh.w	r3, [r0, r2, lsl #1]
 8006b26:	d1f6      	bne.n	8006b16 <stm32__i2s__receive+0x12>
 8006b28:	bc30      	pop	{r4, r5}
 8006b2a:	4770      	bx	lr

08006b2c <stm32__i2s__configure>:
 8006b2c:	780b      	ldrb	r3, [r1, #0]
 8006b2e:	b410      	push	{r4}
 8006b30:	2b02      	cmp	r3, #2
 8006b32:	bf96      	itet	ls
 8006b34:	4a2c      	ldrls	r2, [pc, #176]	; (8006be8 <stm32__i2s__configure+0xbc>)
 8006b36:	2403      	movhi	r4, #3
 8006b38:	5cd4      	ldrbls	r4, [r2, r3]
 8006b3a:	6842      	ldr	r2, [r0, #4]
 8006b3c:	bf98      	it	ls
 8006b3e:	f004 0403 	andls.w	r4, r4, #3
 8006b42:	69d3      	ldr	r3, [r2, #28]
 8006b44:	f364 2309 	bfi	r3, r4, #8, #2
 8006b48:	61d3      	str	r3, [r2, #28]
 8006b4a:	6844      	ldr	r4, [r0, #4]
 8006b4c:	69e3      	ldr	r3, [r4, #28]
 8006b4e:	788a      	ldrb	r2, [r1, #2]
 8006b50:	f1a2 0201 	sub.w	r2, r2, #1
 8006b54:	fab2 f282 	clz	r2, r2
 8006b58:	0952      	lsrs	r2, r2, #5
 8006b5a:	f362 13c7 	bfi	r3, r2, #7, #1
 8006b5e:	61e3      	str	r3, [r4, #28]
 8006b60:	784b      	ldrb	r3, [r1, #1]
 8006b62:	2b02      	cmp	r3, #2
 8006b64:	bf96      	itet	ls
 8006b66:	4a21      	ldrls	r2, [pc, #132]	; (8006bec <stm32__i2s__configure+0xc0>)
 8006b68:	2403      	movhi	r4, #3
 8006b6a:	5cd4      	ldrbls	r4, [r2, r3]
 8006b6c:	6842      	ldr	r2, [r0, #4]
 8006b6e:	bf98      	it	ls
 8006b70:	f004 0403 	andls.w	r4, r4, #3
 8006b74:	69d3      	ldr	r3, [r2, #28]
 8006b76:	f364 1305 	bfi	r3, r4, #4, #2
 8006b7a:	61d3      	str	r3, [r2, #28]
 8006b7c:	6844      	ldr	r4, [r0, #4]
 8006b7e:	69e3      	ldr	r3, [r4, #28]
 8006b80:	78ca      	ldrb	r2, [r1, #3]
 8006b82:	f1a2 0201 	sub.w	r2, r2, #1
 8006b86:	fab2 f282 	clz	r2, r2
 8006b8a:	0952      	lsrs	r2, r2, #5
 8006b8c:	f362 03c3 	bfi	r3, r2, #3, #1
 8006b90:	61e3      	str	r3, [r4, #28]
 8006b92:	790b      	ldrb	r3, [r1, #4]
 8006b94:	b11b      	cbz	r3, 8006b9e <stm32__i2s__configure+0x72>
 8006b96:	2b01      	cmp	r3, #1
 8006b98:	bf0c      	ite	eq
 8006b9a:	2301      	moveq	r3, #1
 8006b9c:	2302      	movne	r3, #2
 8006b9e:	6844      	ldr	r4, [r0, #4]
 8006ba0:	69e2      	ldr	r2, [r4, #28]
 8006ba2:	f363 0242 	bfi	r2, r3, #1, #2
 8006ba6:	61e2      	str	r2, [r4, #28]
 8006ba8:	6844      	ldr	r4, [r0, #4]
 8006baa:	69e3      	ldr	r3, [r4, #28]
 8006bac:	794a      	ldrb	r2, [r1, #5]
 8006bae:	f1a2 0201 	sub.w	r2, r2, #1
 8006bb2:	fab2 f282 	clz	r2, r2
 8006bb6:	0952      	lsrs	r2, r2, #5
 8006bb8:	f362 0300 	bfi	r3, r2, #0, #1
 8006bbc:	61e3      	str	r3, [r4, #28]
 8006bbe:	6842      	ldr	r2, [r0, #4]
 8006bc0:	6a13      	ldr	r3, [r2, #32]
 8006bc2:	798c      	ldrb	r4, [r1, #6]
 8006bc4:	f364 2349 	bfi	r3, r4, #9, #1
 8006bc8:	6213      	str	r3, [r2, #32]
 8006bca:	6842      	ldr	r2, [r0, #4]
 8006bcc:	6853      	ldr	r3, [r2, #4]
 8006bce:	79cc      	ldrb	r4, [r1, #7]
 8006bd0:	f364 0341 	bfi	r3, r4, #1, #1
 8006bd4:	6053      	str	r3, [r2, #4]
 8006bd6:	6842      	ldr	r2, [r0, #4]
 8006bd8:	6853      	ldr	r3, [r2, #4]
 8006bda:	7a09      	ldrb	r1, [r1, #8]
 8006bdc:	f361 0300 	bfi	r3, r1, #0, #1
 8006be0:	6053      	str	r3, [r2, #4]
 8006be2:	f85d 4b04 	ldr.w	r4, [sp], #4
 8006be6:	4770      	bx	lr
 8006be8:	0800a5b4 	.word	0x0800a5b4
 8006bec:	0800a5b8 	.word	0x0800a5b8

08006bf0 <stm32__i2s__disable>:
 8006bf0:	6842      	ldr	r2, [r0, #4]
 8006bf2:	69d3      	ldr	r3, [r2, #28]
 8006bf4:	f36f 238a 	bfc	r3, #10, #1
 8006bf8:	61d3      	str	r3, [r2, #28]
 8006bfa:	4770      	bx	lr

08006bfc <stm32__i2s__transmit>:
 8006bfc:	b470      	push	{r4, r5, r6}
 8006bfe:	6859      	ldr	r1, [r3, #4]
 8006c00:	681c      	ldr	r4, [r3, #0]
 8006c02:	428c      	cmp	r4, r1
 8006c04:	dc10      	bgt.n	8006c28 <stm32__i2s__transmit+0x2c>
 8006c06:	eba2 0644 	sub.w	r6, r2, r4, lsl #1
 8006c0a:	3c01      	subs	r4, #1
 8006c0c:	6841      	ldr	r1, [r0, #4]
 8006c0e:	3401      	adds	r4, #1
 8006c10:	688a      	ldr	r2, [r1, #8]
 8006c12:	0792      	lsls	r2, r2, #30
 8006c14:	d5fc      	bpl.n	8006c10 <stm32__i2s__transmit+0x14>
 8006c16:	68ca      	ldr	r2, [r1, #12]
 8006c18:	f836 5014 	ldrh.w	r5, [r6, r4, lsl #1]
 8006c1c:	f365 020f 	bfi	r2, r5, #0, #16
 8006c20:	60ca      	str	r2, [r1, #12]
 8006c22:	685a      	ldr	r2, [r3, #4]
 8006c24:	42a2      	cmp	r2, r4
 8006c26:	d1f1      	bne.n	8006c0c <stm32__i2s__transmit+0x10>
 8006c28:	bc70      	pop	{r4, r5, r6}
 8006c2a:	4770      	bx	lr

08006c2c <stm32__i2s__set_frequency>:
 8006c2c:	b530      	push	{r4, r5, lr}
 8006c2e:	4604      	mov	r4, r0
 8006c30:	b089      	sub	sp, #36	; 0x24
 8006c32:	a801      	add	r0, sp, #4
 8006c34:	460d      	mov	r5, r1
 8006c36:	f7fc fbc7 	bl	80033c8 <stm32__device__system_clock_frequencies>
 8006c3a:	6862      	ldr	r2, [r4, #4]
 8006c3c:	9b07      	ldr	r3, [sp, #28]
 8006c3e:	69d1      	ldr	r1, [r2, #28]
 8006c40:	6a10      	ldr	r0, [r2, #32]
 8006c42:	f011 0f06 	tst.w	r1, #6
 8006c46:	bf0c      	ite	eq
 8006c48:	2120      	moveq	r1, #32
 8006c4a:	2140      	movne	r1, #64	; 0x40
 8006c4c:	0580      	lsls	r0, r0, #22
 8006c4e:	bf54      	ite	pl
 8006c50:	fbb3 f3f1 	udivpl	r3, r3, r1
 8006c54:	0a1b      	lsrmi	r3, r3, #8
 8006c56:	eb03 0383 	add.w	r3, r3, r3, lsl #2
 8006c5a:	005b      	lsls	r3, r3, #1
 8006c5c:	fbb3 f1f5 	udiv	r1, r3, r5
 8006c60:	4b0f      	ldr	r3, [pc, #60]	; (8006ca0 <stm32__i2s__set_frequency+0x74>)
 8006c62:	3105      	adds	r1, #5
 8006c64:	fba3 3101 	umull	r3, r1, r3, r1
 8006c68:	08cb      	lsrs	r3, r1, #3
 8006c6a:	f013 0001 	ands.w	r0, r3, #1
 8006c6e:	bf1a      	itte	ne
 8006c70:	f103 31ff 	addne.w	r1, r3, #4294967295
 8006c74:	0849      	lsrne	r1, r1, #1
 8006c76:	0909      	lsreq	r1, r1, #4
 8006c78:	1e8b      	subs	r3, r1, #2
 8006c7a:	2bfd      	cmp	r3, #253	; 0xfd
 8006c7c:	6a13      	ldr	r3, [r2, #32]
 8006c7e:	bf88      	it	hi
 8006c80:	2000      	movhi	r0, #0
 8006c82:	f360 2308 	bfi	r3, r0, #8, #1
 8006c86:	6213      	str	r3, [r2, #32]
 8006c88:	6862      	ldr	r2, [r4, #4]
 8006c8a:	bf98      	it	ls
 8006c8c:	b2c9      	uxtbls	r1, r1
 8006c8e:	6a13      	ldr	r3, [r2, #32]
 8006c90:	bf88      	it	hi
 8006c92:	2102      	movhi	r1, #2
 8006c94:	f361 0307 	bfi	r3, r1, #0, #8
 8006c98:	6213      	str	r3, [r2, #32]
 8006c9a:	b009      	add	sp, #36	; 0x24
 8006c9c:	bd30      	pop	{r4, r5, pc}
 8006c9e:	bf00      	nop
 8006ca0:	cccccccd 	.word	0xcccccccd

08006ca4 <stm32__i2s__enable>:
 8006ca4:	b508      	push	{r3, lr}
 8006ca6:	6843      	ldr	r3, [r0, #4]
 8006ca8:	681a      	ldr	r2, [r3, #0]
 8006caa:	0652      	lsls	r2, r2, #25
 8006cac:	d409      	bmi.n	8006cc2 <stm32__i2s__enable+0x1e>
 8006cae:	69da      	ldr	r2, [r3, #28]
 8006cb0:	f442 6200 	orr.w	r2, r2, #2048	; 0x800
 8006cb4:	61da      	str	r2, [r3, #28]
 8006cb6:	6842      	ldr	r2, [r0, #4]
 8006cb8:	69d3      	ldr	r3, [r2, #28]
 8006cba:	f443 6380 	orr.w	r3, r3, #1024	; 0x400
 8006cbe:	61d3      	str	r3, [r2, #28]
 8006cc0:	bd08      	pop	{r3, pc}
 8006cc2:	4802      	ldr	r0, [pc, #8]	; (8006ccc <stm32__i2s__enable+0x28>)
 8006cc4:	2100      	movs	r1, #0
 8006cc6:	f7f9 fbfb 	bl	80004c0 <__gnat_last_chance_handler>
 8006cca:	bf00      	nop
 8006ccc:	0800a548 	.word	0x0800a548

08006cd0 <stm32__adc___elabs>:
 8006cd0:	b430      	push	{r4, r5}
 8006cd2:	4a06      	ldr	r2, [pc, #24]	; (8006cec <stm32__adc___elabs+0x1c>)
 8006cd4:	4b06      	ldr	r3, [pc, #24]	; (8006cf0 <stm32__adc___elabs+0x20>)
 8006cd6:	24d8      	movs	r4, #216	; 0xd8
 8006cd8:	2500      	movs	r5, #0
 8006cda:	f44f 7034 	mov.w	r0, #720	; 0x2d0
 8006cde:	2100      	movs	r1, #0
 8006ce0:	e9c2 4500 	strd	r4, r5, [r2]
 8006ce4:	bc30      	pop	{r4, r5}
 8006ce6:	e9c3 0100 	strd	r0, r1, [r3]
 8006cea:	4770      	bx	lr
 8006cec:	200009a8 	.word	0x200009a8
 8006cf0:	200009b0 	.word	0x200009b0

08006cf4 <ada__real_time__Oadd>:
 8006cf4:	2a00      	cmp	r2, #0
 8006cf6:	b5f8      	push	{r3, r4, r5, r6, r7, lr}
 8006cf8:	f173 0400 	sbcs.w	r4, r3, #0
 8006cfc:	db1f      	blt.n	8006d3e <ada__real_time__Oadd+0x4a>
 8006cfe:	43cd      	mvns	r5, r1
 8006d00:	43c4      	mvns	r4, r0
 8006d02:	429d      	cmp	r5, r3
 8006d04:	bf08      	it	eq
 8006d06:	4294      	cmpeq	r4, r2
 8006d08:	d216      	bcs.n	8006d38 <ada__real_time__Oadd+0x44>
 8006d0a:	f112 34ff 	adds.w	r4, r2, #4294967295
 8006d0e:	f163 4500 	sbc.w	r5, r3, #2147483648	; 0x80000000
 8006d12:	f06f 4700 	mvn.w	r7, #2147483648	; 0x80000000
 8006d16:	f06f 0601 	mvn.w	r6, #1
 8006d1a:	42af      	cmp	r7, r5
 8006d1c:	bf08      	it	eq
 8006d1e:	42a6      	cmpeq	r6, r4
 8006d20:	d316      	bcc.n	8006d50 <ada__real_time__Oadd+0x5c>
 8006d22:	4252      	negs	r2, r2
 8006d24:	eb63 0343 	sbc.w	r3, r3, r3, lsl #1
 8006d28:	4299      	cmp	r1, r3
 8006d2a:	bf08      	it	eq
 8006d2c:	4290      	cmpeq	r0, r2
 8006d2e:	d30f      	bcc.n	8006d50 <ada__real_time__Oadd+0x5c>
 8006d30:	1a80      	subs	r0, r0, r2
 8006d32:	eb61 0103 	sbc.w	r1, r1, r3
 8006d36:	bdf8      	pop	{r3, r4, r5, r6, r7, pc}
 8006d38:	1880      	adds	r0, r0, r2
 8006d3a:	4159      	adcs	r1, r3
 8006d3c:	bdf8      	pop	{r3, r4, r5, r6, r7, pc}
 8006d3e:	f1b3 4f00 	cmp.w	r3, #2147483648	; 0x80000000
 8006d42:	bf08      	it	eq
 8006d44:	2a00      	cmpeq	r2, #0
 8006d46:	d1e0      	bne.n	8006d0a <ada__real_time__Oadd+0x16>
 8006d48:	2800      	cmp	r0, #0
 8006d4a:	f171 0300 	sbcs.w	r3, r1, #0
 8006d4e:	db03      	blt.n	8006d58 <ada__real_time__Oadd+0x64>
 8006d50:	4803      	ldr	r0, [pc, #12]	; (8006d60 <ada__real_time__Oadd+0x6c>)
 8006d52:	21cf      	movs	r1, #207	; 0xcf
 8006d54:	f7f9 fbb4 	bl	80004c0 <__gnat_last_chance_handler>
 8006d58:	3000      	adds	r0, #0
 8006d5a:	f141 4100 	adc.w	r1, r1, #2147483648	; 0x80000000
 8006d5e:	bdf8      	pop	{r3, r4, r5, r6, r7, pc}
 8006d60:	0800a7e8 	.word	0x0800a7e8

08006d64 <ada__real_time__Osubtract__2>:
 8006d64:	4299      	cmp	r1, r3
 8006d66:	bf08      	it	eq
 8006d68:	4290      	cmpeq	r0, r2
 8006d6a:	b508      	push	{r3, lr}
 8006d6c:	d309      	bcc.n	8006d82 <ada__real_time__Osubtract__2+0x1e>
 8006d6e:	1a82      	subs	r2, r0, r2
 8006d70:	eb61 0303 	sbc.w	r3, r1, r3
 8006d74:	2a00      	cmp	r2, #0
 8006d76:	f173 0100 	sbcs.w	r1, r3, #0
 8006d7a:	db0e      	blt.n	8006d9a <ada__real_time__Osubtract__2+0x36>
 8006d7c:	4610      	mov	r0, r2
 8006d7e:	4619      	mov	r1, r3
 8006d80:	bd08      	pop	{r3, pc}
 8006d82:	1a12      	subs	r2, r2, r0
 8006d84:	eb63 0301 	sbc.w	r3, r3, r1
 8006d88:	f1b3 4f00 	cmp.w	r3, #2147483648	; 0x80000000
 8006d8c:	bf08      	it	eq
 8006d8e:	2a01      	cmpeq	r2, #1
 8006d90:	d203      	bcs.n	8006d9a <ada__real_time__Osubtract__2+0x36>
 8006d92:	4250      	negs	r0, r2
 8006d94:	eb63 0143 	sbc.w	r1, r3, r3, lsl #1
 8006d98:	bd08      	pop	{r3, pc}
 8006d9a:	4802      	ldr	r0, [pc, #8]	; (8006da4 <ada__real_time__Osubtract__2+0x40>)
 8006d9c:	f44f 7186 	mov.w	r1, #268	; 0x10c
 8006da0:	f7f9 fb8e 	bl	80004c0 <__gnat_last_chance_handler>
 8006da4:	0800a7e8 	.word	0x0800a7e8

08006da8 <ada__real_time__clock>:
 8006da8:	e92d 43f8 	stmdb	sp!, {r3, r4, r5, r6, r7, r8, r9, lr}
 8006dac:	4e13      	ldr	r6, [pc, #76]	; (8006dfc <ada__real_time__clock+0x54>)
 8006dae:	2400      	movs	r4, #0
 8006db0:	f106 0804 	add.w	r8, r6, #4
 8006db4:	6835      	ldr	r5, [r6, #0]
 8006db6:	f8d8 7000 	ldr.w	r7, [r8]
 8006dba:	f000 f9bf 	bl	800713c <system__bb__board_support__read_clock>
 8006dbe:	6833      	ldr	r3, [r6, #0]
 8006dc0:	ebc9 0205 	rsb	r2, r9, r5
 8006dc4:	429d      	cmp	r5, r3
 8006dc6:	f104 0401 	add.w	r4, r4, #1
 8006dca:	d00d      	beq.n	8006de8 <ada__real_time__clock+0x40>
 8006dcc:	2c01      	cmp	r4, #1
 8006dce:	d009      	beq.n	8006de4 <ada__real_time__clock+0x3c>
 8006dd0:	2a01      	cmp	r2, #1
 8006dd2:	d801      	bhi.n	8006dd8 <ada__real_time__clock+0x30>
 8006dd4:	2c03      	cmp	r4, #3
 8006dd6:	d1ed      	bne.n	8006db4 <ada__real_time__clock+0xc>
 8006dd8:	462b      	mov	r3, r5
 8006dda:	2200      	movs	r2, #0
 8006ddc:	4610      	mov	r0, r2
 8006dde:	4619      	mov	r1, r3
 8006de0:	e8bd 83f8 	ldmia.w	sp!, {r3, r4, r5, r6, r7, r8, r9, pc}
 8006de4:	46a9      	mov	r9, r5
 8006de6:	e7e5      	b.n	8006db4 <ada__real_time__clock+0xc>
 8006de8:	4287      	cmp	r7, r0
 8006dea:	bf94      	ite	ls
 8006dec:	462b      	movls	r3, r5
 8006dee:	1c6b      	addhi	r3, r5, #1
 8006df0:	2200      	movs	r2, #0
 8006df2:	1812      	adds	r2, r2, r0
 8006df4:	f143 0300 	adc.w	r3, r3, #0
 8006df8:	e7f0      	b.n	8006ddc <ada__real_time__clock+0x34>
 8006dfa:	bf00      	nop
 8006dfc:	20000380 	.word	0x20000380

08006e00 <ada__real_time___elabb>:
 8006e00:	f000 ba66 	b.w	80072d0 <system__tasking__initialize>

08006e04 <__gnat_start_slave_cpus>:
 8006e04:	4770      	bx	lr
 8006e06:	bf00      	nop

08006e08 <system__bb__time__get_next_timeout>:
 8006e08:	b240      	sxtb	r0, r0
 8006e0a:	f100 4080 	add.w	r0, r0, #1073741824	; 0x40000000
 8006e0e:	4b12      	ldr	r3, [pc, #72]	; (8006e58 <system__bb__time__get_next_timeout+0x50>)
 8006e10:	3801      	subs	r0, #1
 8006e12:	f853 3020 	ldr.w	r3, [r3, r0, lsl #2]
 8006e16:	b430      	push	{r4, r5}
 8006e18:	b18b      	cbz	r3, 8006e3e <system__bb__time__get_next_timeout+0x36>
 8006e1a:	e9d3 4512 	ldrd	r4, r5, [r3, #72]	; 0x48
 8006e1e:	4b0f      	ldr	r3, [pc, #60]	; (8006e5c <system__bb__time__get_next_timeout+0x54>)
 8006e20:	f853 3020 	ldr.w	r3, [r3, r0, lsl #2]
 8006e24:	b1a3      	cbz	r3, 8006e50 <system__bb__time__get_next_timeout+0x48>
 8006e26:	689a      	ldr	r2, [r3, #8]
 8006e28:	68db      	ldr	r3, [r3, #12]
 8006e2a:	429d      	cmp	r5, r3
 8006e2c:	bf08      	it	eq
 8006e2e:	4294      	cmpeq	r4, r2
 8006e30:	4610      	mov	r0, r2
 8006e32:	4619      	mov	r1, r3
 8006e34:	bf3c      	itt	cc
 8006e36:	4620      	movcc	r0, r4
 8006e38:	4629      	movcc	r1, r5
 8006e3a:	bc30      	pop	{r4, r5}
 8006e3c:	4770      	bx	lr
 8006e3e:	4b07      	ldr	r3, [pc, #28]	; (8006e5c <system__bb__time__get_next_timeout+0x54>)
 8006e40:	f04f 34ff 	mov.w	r4, #4294967295
 8006e44:	f853 3020 	ldr.w	r3, [r3, r0, lsl #2]
 8006e48:	f04f 35ff 	mov.w	r5, #4294967295
 8006e4c:	2b00      	cmp	r3, #0
 8006e4e:	d1ea      	bne.n	8006e26 <system__bb__time__get_next_timeout+0x1e>
 8006e50:	f04f 32ff 	mov.w	r2, #4294967295
 8006e54:	4613      	mov	r3, r2
 8006e56:	e7e8      	b.n	8006e2a <system__bb__time__get_next_timeout+0x22>
 8006e58:	200003c0 	.word	0x200003c0
 8006e5c:	200003ac 	.word	0x200003ac

08006e60 <system__bb__time__initialize_timers>:
 8006e60:	e92d 4ff8 	stmdb	sp!, {r3, r4, r5, r6, r7, r8, r9, sl, fp, lr}
 8006e64:	4b1e      	ldr	r3, [pc, #120]	; (8006ee0 <system__bb__time__initialize_timers+0x80>)
 8006e66:	4c1f      	ldr	r4, [pc, #124]	; (8006ee4 <system__bb__time__initialize_timers+0x84>)
 8006e68:	f8df a08c 	ldr.w	sl, [pc, #140]	; 8006ef8 <system__bb__time__initialize_timers+0x98>
 8006e6c:	4f1e      	ldr	r7, [pc, #120]	; (8006ee8 <system__bb__time__initialize_timers+0x88>)
 8006e6e:	481f      	ldr	r0, [pc, #124]	; (8006eec <system__bb__time__initialize_timers+0x8c>)
 8006e70:	2101      	movs	r1, #1
 8006e72:	22ff      	movs	r2, #255	; 0xff
 8006e74:	f04f 0b00 	mov.w	fp, #0
 8006e78:	605c      	str	r4, [r3, #4]
 8006e7a:	e9c7 ab00 	strd	sl, fp, [r7]
 8006e7e:	f000 f9e9 	bl	8007254 <system__bb__board_support__install_interrupt_handler>
 8006e82:	f000 f95b 	bl	800713c <system__bb__board_support__read_clock>
 8006e86:	4d1a      	ldr	r5, [pc, #104]	; (8006ef0 <system__bb__time__initialize_timers+0x90>)
 8006e88:	2400      	movs	r4, #0
 8006e8a:	6068      	str	r0, [r5, #4]
 8006e8c:	682e      	ldr	r6, [r5, #0]
 8006e8e:	f8d5 8004 	ldr.w	r8, [r5, #4]
 8006e92:	f000 f953 	bl	800713c <system__bb__board_support__read_clock>
 8006e96:	682b      	ldr	r3, [r5, #0]
 8006e98:	ebc9 0206 	rsb	r2, r9, r6
 8006e9c:	429e      	cmp	r6, r3
 8006e9e:	f104 0401 	add.w	r4, r4, #1
 8006ea2:	d014      	beq.n	8006ece <system__bb__time__initialize_timers+0x6e>
 8006ea4:	2c01      	cmp	r4, #1
 8006ea6:	d010      	beq.n	8006eca <system__bb__time__initialize_timers+0x6a>
 8006ea8:	2a01      	cmp	r2, #1
 8006eaa:	d801      	bhi.n	8006eb0 <system__bb__time__initialize_timers+0x50>
 8006eac:	2c03      	cmp	r4, #3
 8006eae:	d1ed      	bne.n	8006e8c <system__bb__time__initialize_timers+0x2c>
 8006eb0:	4633      	mov	r3, r6
 8006eb2:	2200      	movs	r2, #0
 8006eb4:	e9d7 0100 	ldrd	r0, r1, [r7]
 8006eb8:	1812      	adds	r2, r2, r0
 8006eba:	414b      	adcs	r3, r1
 8006ebc:	490d      	ldr	r1, [pc, #52]	; (8006ef4 <system__bb__time__initialize_timers+0x94>)
 8006ebe:	e9c1 2300 	strd	r2, r3, [r1]
 8006ec2:	e8bd 4ff8 	ldmia.w	sp!, {r3, r4, r5, r6, r7, r8, r9, sl, fp, lr}
 8006ec6:	f000 b959 	b.w	800717c <system__bb__board_support__set_alarm>
 8006eca:	46b1      	mov	r9, r6
 8006ecc:	e7de      	b.n	8006e8c <system__bb__time__initialize_timers+0x2c>
 8006ece:	4580      	cmp	r8, r0
 8006ed0:	bf94      	ite	ls
 8006ed2:	4633      	movls	r3, r6
 8006ed4:	1c73      	addhi	r3, r6, #1
 8006ed6:	2200      	movs	r2, #0
 8006ed8:	1812      	adds	r2, r2, r0
 8006eda:	f143 0300 	adc.w	r3, r3, #0
 8006ede:	e7e9      	b.n	8006eb4 <system__bb__time__initialize_timers+0x54>
 8006ee0:	20001778 	.word	0x20001778
 8006ee4:	080070a9 	.word	0x080070a9
 8006ee8:	20000388 	.word	0x20000388
 8006eec:	08007719 	.word	0x08007719
 8006ef0:	20000380 	.word	0x20000380
 8006ef4:	20000378 	.word	0x20000378
 8006ef8:	dffffff9 	.word	0xdffffff9

08006efc <system__bb__time__update_alarm>:
 8006efc:	e92d 47f0 	stmdb	sp!, {r4, r5, r6, r7, r8, r9, sl, lr}
 8006f00:	4680      	mov	r8, r0
 8006f02:	4689      	mov	r9, r1
 8006f04:	4e1f      	ldr	r6, [pc, #124]	; (8006f84 <system__bb__time__update_alarm+0x88>)
 8006f06:	2400      	movs	r4, #0
 8006f08:	6835      	ldr	r5, [r6, #0]
 8006f0a:	6877      	ldr	r7, [r6, #4]
 8006f0c:	f000 f916 	bl	800713c <system__bb__board_support__read_clock>
 8006f10:	6833      	ldr	r3, [r6, #0]
 8006f12:	ebca 0205 	rsb	r2, sl, r5
 8006f16:	429d      	cmp	r5, r3
 8006f18:	f104 0401 	add.w	r4, r4, #1
 8006f1c:	d029      	beq.n	8006f72 <system__bb__time__update_alarm+0x76>
 8006f1e:	2c01      	cmp	r4, #1
 8006f20:	d022      	beq.n	8006f68 <system__bb__time__update_alarm+0x6c>
 8006f22:	2a01      	cmp	r2, #1
 8006f24:	d801      	bhi.n	8006f2a <system__bb__time__update_alarm+0x2e>
 8006f26:	2c03      	cmp	r4, #3
 8006f28:	d1ee      	bne.n	8006f08 <system__bb__time__update_alarm+0xc>
 8006f2a:	462b      	mov	r3, r5
 8006f2c:	2200      	movs	r2, #0
 8006f2e:	454b      	cmp	r3, r9
 8006f30:	bf08      	it	eq
 8006f32:	4542      	cmpeq	r2, r8
 8006f34:	d21a      	bcs.n	8006f6c <system__bb__time__update_alarm+0x70>
 8006f36:	ebb8 0002 	subs.w	r0, r8, r2
 8006f3a:	eb69 0103 	sbc.w	r1, r9, r3
 8006f3e:	4b12      	ldr	r3, [pc, #72]	; (8006f88 <system__bb__time__update_alarm+0x8c>)
 8006f40:	4e12      	ldr	r6, [pc, #72]	; (8006f8c <system__bb__time__update_alarm+0x90>)
 8006f42:	e9d3 4500 	ldrd	r4, r5, [r3]
 8006f46:	e9d6 2300 	ldrd	r2, r3, [r6]
 8006f4a:	4599      	cmp	r9, r3
 8006f4c:	bf08      	it	eq
 8006f4e:	4590      	cmpeq	r8, r2
 8006f50:	d208      	bcs.n	8006f64 <system__bb__time__update_alarm+0x68>
 8006f52:	428d      	cmp	r5, r1
 8006f54:	bf08      	it	eq
 8006f56:	4284      	cmpeq	r4, r0
 8006f58:	bf38      	it	cc
 8006f5a:	4620      	movcc	r0, r4
 8006f5c:	f000 f90e 	bl	800717c <system__bb__board_support__set_alarm>
 8006f60:	e9c6 8900 	strd	r8, r9, [r6]
 8006f64:	e8bd 87f0 	ldmia.w	sp!, {r4, r5, r6, r7, r8, r9, sl, pc}
 8006f68:	46aa      	mov	sl, r5
 8006f6a:	e7cd      	b.n	8006f08 <system__bb__time__update_alarm+0xc>
 8006f6c:	2001      	movs	r0, #1
 8006f6e:	2100      	movs	r1, #0
 8006f70:	e7e5      	b.n	8006f3e <system__bb__time__update_alarm+0x42>
 8006f72:	4287      	cmp	r7, r0
 8006f74:	bf94      	ite	ls
 8006f76:	462b      	movls	r3, r5
 8006f78:	1c6b      	addhi	r3, r5, #1
 8006f7a:	2200      	movs	r2, #0
 8006f7c:	1812      	adds	r2, r2, r0
 8006f7e:	f143 0300 	adc.w	r3, r3, #0
 8006f82:	e7d4      	b.n	8006f2e <system__bb__time__update_alarm+0x32>
 8006f84:	20000380 	.word	0x20000380
 8006f88:	20000388 	.word	0x20000388
 8006f8c:	20000378 	.word	0x20000378

08006f90 <system__bb__time__delay_until>:
 8006f90:	e92d 47f0 	stmdb	sp!, {r4, r5, r6, r7, r8, r9, sl, lr}
 8006f94:	4680      	mov	r8, r0
 8006f96:	4689      	mov	r9, r1
 8006f98:	b672      	cpsid	i
 8006f9a:	4e32      	ldr	r6, [pc, #200]	; (8007064 <system__bb__time__delay_until+0xd4>)
 8006f9c:	2400      	movs	r4, #0
 8006f9e:	6835      	ldr	r5, [r6, #0]
 8006fa0:	f8d6 a004 	ldr.w	sl, [r6, #4]
 8006fa4:	f000 f8ca 	bl	800713c <system__bb__board_support__read_clock>
 8006fa8:	6833      	ldr	r3, [r6, #0]
 8006faa:	1bea      	subs	r2, r5, r7
 8006fac:	429d      	cmp	r5, r3
 8006fae:	f104 0401 	add.w	r4, r4, #1
 8006fb2:	d045      	beq.n	8007040 <system__bb__time__delay_until+0xb0>
 8006fb4:	2c01      	cmp	r4, #1
 8006fb6:	d038      	beq.n	800702a <system__bb__time__delay_until+0x9a>
 8006fb8:	2a01      	cmp	r2, #1
 8006fba:	d801      	bhi.n	8006fc0 <system__bb__time__delay_until+0x30>
 8006fbc:	2c03      	cmp	r4, #3
 8006fbe:	d1ee      	bne.n	8006f9e <system__bb__time__delay_until+0xe>
 8006fc0:	462f      	mov	r7, r5
 8006fc2:	2600      	movs	r6, #0
 8006fc4:	4b28      	ldr	r3, [pc, #160]	; (8007068 <system__bb__time__delay_until+0xd8>)
 8006fc6:	454f      	cmp	r7, r9
 8006fc8:	bf08      	it	eq
 8006fca:	4546      	cmpeq	r6, r8
 8006fcc:	681a      	ldr	r2, [r3, #0]
 8006fce:	d230      	bcs.n	8007032 <system__bb__time__delay_until+0xa2>
 8006fd0:	f892 302c 	ldrb.w	r3, [r2, #44]	; 0x2c
 8006fd4:	2102      	movs	r1, #2
 8006fd6:	f882 1054 	strb.w	r1, [r2, #84]	; 0x54
 8006fda:	b343      	cbz	r3, 800702e <system__bb__time__delay_until+0x9e>
 8006fdc:	b25b      	sxtb	r3, r3
 8006fde:	6c15      	ldr	r5, [r2, #64]	; 0x40
 8006fe0:	f103 4380 	add.w	r3, r3, #1073741824	; 0x40000000
 8006fe4:	4c21      	ldr	r4, [pc, #132]	; (800706c <system__bb__time__delay_until+0xdc>)
 8006fe6:	2600      	movs	r6, #0
 8006fe8:	3b01      	subs	r3, #1
 8006fea:	4640      	mov	r0, r8
 8006fec:	4649      	mov	r1, r9
 8006fee:	6416      	str	r6, [r2, #64]	; 0x40
 8006ff0:	f844 5023 	str.w	r5, [r4, r3, lsl #2]
 8006ff4:	f000 fd58 	bl	8007aa8 <system__bb__threads__queues__insert_alarm>
 8006ff8:	b198      	cbz	r0, 8007022 <system__bb__time__delay_until+0x92>
 8006ffa:	4b1d      	ldr	r3, [pc, #116]	; (8007070 <system__bb__time__delay_until+0xe0>)
 8006ffc:	681b      	ldr	r3, [r3, #0]
 8006ffe:	b343      	cbz	r3, 8007052 <system__bb__time__delay_until+0xc2>
 8007000:	e9d3 4512 	ldrd	r4, r5, [r3, #72]	; 0x48
 8007004:	4b1b      	ldr	r3, [pc, #108]	; (8007074 <system__bb__time__delay_until+0xe4>)
 8007006:	681b      	ldr	r3, [r3, #0]
 8007008:	b343      	cbz	r3, 800705c <system__bb__time__delay_until+0xcc>
 800700a:	689a      	ldr	r2, [r3, #8]
 800700c:	68db      	ldr	r3, [r3, #12]
 800700e:	429d      	cmp	r5, r3
 8007010:	bf08      	it	eq
 8007012:	4294      	cmpeq	r4, r2
 8007014:	4610      	mov	r0, r2
 8007016:	4619      	mov	r1, r3
 8007018:	bf3c      	itt	cc
 800701a:	4620      	movcc	r0, r4
 800701c:	4629      	movcc	r1, r5
 800701e:	f7ff ff6d 	bl	8006efc <system__bb__time__update_alarm>
 8007022:	e8bd 47f0 	ldmia.w	sp!, {r4, r5, r6, r7, r8, r9, sl, lr}
 8007026:	f000 bb0d 	b.w	8007644 <system__bb__protection__leave_kernel>
 800702a:	462f      	mov	r7, r5
 800702c:	e7b7      	b.n	8006f9e <system__bb__time__delay_until+0xe>
 800702e:	2301      	movs	r3, #1
 8007030:	e7d5      	b.n	8006fde <system__bb__time__delay_until+0x4e>
 8007032:	4610      	mov	r0, r2
 8007034:	f000 fdde 	bl	8007bf4 <system__bb__threads__queues__yield>
 8007038:	e8bd 47f0 	ldmia.w	sp!, {r4, r5, r6, r7, r8, r9, sl, lr}
 800703c:	f000 bb02 	b.w	8007644 <system__bb__protection__leave_kernel>
 8007040:	4582      	cmp	sl, r0
 8007042:	bf94      	ite	ls
 8007044:	462f      	movls	r7, r5
 8007046:	1c6f      	addhi	r7, r5, #1
 8007048:	2600      	movs	r6, #0
 800704a:	1836      	adds	r6, r6, r0
 800704c:	f147 0700 	adc.w	r7, r7, #0
 8007050:	e7b8      	b.n	8006fc4 <system__bb__time__delay_until+0x34>
 8007052:	f04f 34ff 	mov.w	r4, #4294967295
 8007056:	f04f 35ff 	mov.w	r5, #4294967295
 800705a:	e7d3      	b.n	8007004 <system__bb__time__delay_until+0x74>
 800705c:	f04f 32ff 	mov.w	r2, #4294967295
 8007060:	4613      	mov	r3, r2
 8007062:	e7d4      	b.n	800700e <system__bb__time__delay_until+0x7e>
 8007064:	20000380 	.word	0x20000380
 8007068:	200003c4 	.word	0x200003c4
 800706c:	200003b8 	.word	0x200003b8
 8007070:	200003c0 	.word	0x200003c0
 8007074:	200003ac 	.word	0x200003ac

08007078 <system__bb__time__update_clock>:
 8007078:	b570      	push	{r4, r5, r6, lr}
 800707a:	4c0a      	ldr	r4, [pc, #40]	; (80070a4 <system__bb__time__update_clock+0x2c>)
 800707c:	6825      	ldr	r5, [r4, #0]
 800707e:	6866      	ldr	r6, [r4, #4]
 8007080:	f000 f85c 	bl	800713c <system__bb__board_support__read_clock>
 8007084:	4286      	cmp	r6, r0
 8007086:	d807      	bhi.n	8007098 <system__bb__time__update_clock+0x20>
 8007088:	6060      	str	r0, [r4, #4]
 800708a:	2200      	movs	r2, #0
 800708c:	1814      	adds	r4, r2, r0
 800708e:	f145 0500 	adc.w	r5, r5, #0
 8007092:	4620      	mov	r0, r4
 8007094:	4629      	mov	r1, r5
 8007096:	bd70      	pop	{r4, r5, r6, pc}
 8007098:	3501      	adds	r5, #1
 800709a:	2300      	movs	r3, #0
 800709c:	6023      	str	r3, [r4, #0]
 800709e:	6060      	str	r0, [r4, #4]
 80070a0:	6025      	str	r5, [r4, #0]
 80070a2:	e7f2      	b.n	800708a <system__bb__time__update_clock+0x12>
 80070a4:	20000380 	.word	0x20000380

080070a8 <system__bb__time__alarm_handler>:
 80070a8:	e92d 43f8 	stmdb	sp!, {r3, r4, r5, r6, r7, r8, r9, lr}
 80070ac:	4b1e      	ldr	r3, [pc, #120]	; (8007128 <system__bb__time__alarm_handler+0x80>)
 80070ae:	f04f 7200 	mov.w	r2, #33554432	; 0x2000000
 80070b2:	601a      	str	r2, [r3, #0]
 80070b4:	b672      	cpsid	i
 80070b6:	4b1d      	ldr	r3, [pc, #116]	; (800712c <system__bb__time__alarm_handler+0x84>)
 80070b8:	f04f 37ff 	mov.w	r7, #4294967295
 80070bc:	601f      	str	r7, [r3, #0]
 80070be:	605f      	str	r7, [r3, #4]
 80070c0:	f7ff ffda 	bl	8007078 <system__bb__time__update_clock>
 80070c4:	4680      	mov	r8, r0
 80070c6:	4689      	mov	r9, r1
 80070c8:	4b19      	ldr	r3, [pc, #100]	; (8007130 <system__bb__time__alarm_handler+0x88>)
 80070ca:	463e      	mov	r6, r7
 80070cc:	e9d3 4500 	ldrd	r4, r5, [r3]
 80070d0:	1824      	adds	r4, r4, r0
 80070d2:	414d      	adcs	r5, r1
 80070d4:	f000 fae0 	bl	8007698 <system__bb__timing_events__execute_expired_timing_events>
 80070d8:	4640      	mov	r0, r8
 80070da:	4649      	mov	r1, r9
 80070dc:	f000 fd14 	bl	8007b08 <system__bb__threads__queues__wakeup_expired_alarms>
 80070e0:	4b14      	ldr	r3, [pc, #80]	; (8007134 <system__bb__time__alarm_handler+0x8c>)
 80070e2:	681b      	ldr	r3, [r3, #0]
 80070e4:	b10b      	cbz	r3, 80070ea <system__bb__time__alarm_handler+0x42>
 80070e6:	6c9f      	ldr	r7, [r3, #72]	; 0x48
 80070e8:	6cde      	ldr	r6, [r3, #76]	; 0x4c
 80070ea:	4b13      	ldr	r3, [pc, #76]	; (8007138 <system__bb__time__alarm_handler+0x90>)
 80070ec:	681b      	ldr	r3, [r3, #0]
 80070ee:	b1b3      	cbz	r3, 800711e <system__bb__time__alarm_handler+0x76>
 80070f0:	e9d3 2302 	ldrd	r2, r3, [r3, #8]
 80070f4:	42b5      	cmp	r5, r6
 80070f6:	bf08      	it	eq
 80070f8:	42bc      	cmpeq	r4, r7
 80070fa:	4631      	mov	r1, r6
 80070fc:	bf38      	it	cc
 80070fe:	4629      	movcc	r1, r5
 8007100:	4638      	mov	r0, r7
 8007102:	bf38      	it	cc
 8007104:	4620      	movcc	r0, r4
 8007106:	428b      	cmp	r3, r1
 8007108:	bf08      	it	eq
 800710a:	4282      	cmpeq	r2, r0
 800710c:	bf3c      	itt	cc
 800710e:	4619      	movcc	r1, r3
 8007110:	4610      	movcc	r0, r2
 8007112:	f7ff fef3 	bl	8006efc <system__bb__time__update_alarm>
 8007116:	e8bd 43f8 	ldmia.w	sp!, {r3, r4, r5, r6, r7, r8, r9, lr}
 800711a:	f000 ba93 	b.w	8007644 <system__bb__protection__leave_kernel>
 800711e:	f04f 32ff 	mov.w	r2, #4294967295
 8007122:	f04f 33ff 	mov.w	r3, #4294967295
 8007126:	e7e5      	b.n	80070f4 <system__bb__time__alarm_handler+0x4c>
 8007128:	e000ed04 	.word	0xe000ed04
 800712c:	20000378 	.word	0x20000378
 8007130:	20000388 	.word	0x20000388
 8007134:	200003c0 	.word	0x200003c0
 8007138:	200003ac 	.word	0x200003ac

0800713c <system__bb__board_support__read_clock>:
 800713c:	f3ef 8210 	mrs	r2, PRIMASK
 8007140:	2301      	movs	r3, #1
 8007142:	f383 8810 	msr	PRIMASK, r3
 8007146:	4b0b      	ldr	r3, [pc, #44]	; (8007174 <system__bb__board_support__read_clock+0x38>)
 8007148:	6898      	ldr	r0, [r3, #8]
 800714a:	681b      	ldr	r3, [r3, #0]
 800714c:	03db      	lsls	r3, r3, #15
 800714e:	d405      	bmi.n	800715c <system__bb__board_support__read_clock+0x20>
 8007150:	4b09      	ldr	r3, [pc, #36]	; (8007178 <system__bb__board_support__read_clock+0x3c>)
 8007152:	681b      	ldr	r3, [r3, #0]
 8007154:	1a18      	subs	r0, r3, r0
 8007156:	f382 8810 	msr	PRIMASK, r2
 800715a:	4770      	bx	lr
 800715c:	4906      	ldr	r1, [pc, #24]	; (8007178 <system__bb__board_support__read_clock+0x3c>)
 800715e:	6808      	ldr	r0, [r1, #0]
 8007160:	680b      	ldr	r3, [r1, #0]
 8007162:	f503 338c 	add.w	r3, r3, #71680	; 0x11800
 8007166:	f503 73a0 	add.w	r3, r3, #320	; 0x140
 800716a:	600b      	str	r3, [r1, #0]
 800716c:	f382 8810 	msr	PRIMASK, r2
 8007170:	4770      	bx	lr
 8007172:	bf00      	nop
 8007174:	e000e010 	.word	0xe000e010
 8007178:	200009bc 	.word	0x200009bc

0800717c <system__bb__board_support__set_alarm>:
 800717c:	b510      	push	{r4, lr}
 800717e:	4604      	mov	r4, r0
 8007180:	f7ff ffdc 	bl	800713c <system__bb__board_support__read_clock>
 8007184:	f06f 4300 	mvn.w	r3, #2147483648	; 0x80000000
 8007188:	429c      	cmp	r4, r3
 800718a:	bf94      	ite	ls
 800718c:	1900      	addls	r0, r0, r4
 800718e:	18c0      	addhi	r0, r0, r3
 8007190:	4a03      	ldr	r2, [pc, #12]	; (80071a0 <system__bb__board_support__set_alarm+0x24>)
 8007192:	6010      	str	r0, [r2, #0]
 8007194:	b91c      	cbnz	r4, 800719e <system__bb__board_support__set_alarm+0x22>
 8007196:	4b03      	ldr	r3, [pc, #12]	; (80071a4 <system__bb__board_support__set_alarm+0x28>)
 8007198:	f04f 6280 	mov.w	r2, #67108864	; 0x4000000
 800719c:	601a      	str	r2, [r3, #0]
 800719e:	bd10      	pop	{r4, pc}
 80071a0:	200009b8 	.word	0x200009b8
 80071a4:	e000ed04 	.word	0xe000ed04

080071a8 <system__bb__board_support__initialize_board>:
 80071a8:	b570      	push	{r4, r5, r6, lr}
 80071aa:	b672      	cpsid	i
 80071ac:	4b0d      	ldr	r3, [pc, #52]	; (80071e4 <system__bb__board_support__initialize_board+0x3c>)
 80071ae:	4e0e      	ldr	r6, [pc, #56]	; (80071e8 <system__bb__board_support__initialize_board+0x40>)
 80071b0:	4a0e      	ldr	r2, [pc, #56]	; (80071ec <system__bb__board_support__initialize_board+0x44>)
 80071b2:	490f      	ldr	r1, [pc, #60]	; (80071f0 <system__bb__board_support__initialize_board+0x48>)
 80071b4:	2004      	movs	r0, #4
 80071b6:	2400      	movs	r4, #0
 80071b8:	2505      	movs	r5, #5
 80071ba:	6018      	str	r0, [r3, #0]
 80071bc:	605e      	str	r6, [r3, #4]
 80071be:	f04f 30ff 	mov.w	r0, #4294967295
 80071c2:	609c      	str	r4, [r3, #8]
 80071c4:	601d      	str	r5, [r3, #0]
 80071c6:	6011      	str	r1, [r2, #0]
 80071c8:	f7ff ffd8 	bl	800717c <system__bb__board_support__set_alarm>
 80071cc:	4b09      	ldr	r3, [pc, #36]	; (80071f4 <system__bb__board_support__initialize_board+0x4c>)
 80071ce:	f04f 7200 	mov.w	r2, #33554432	; 0x2000000
 80071d2:	601a      	str	r2, [r3, #0]
 80071d4:	f384 8811 	msr	BASEPRI, r4
 80071d8:	b662      	cpsie	i
 80071da:	f3bf 8f4f 	dsb	sy
 80071de:	f3bf 8f6f 	isb	sy
 80071e2:	bd70      	pop	{r4, r5, r6, pc}
 80071e4:	e000e010 	.word	0xe000e010
 80071e8:	0001193f 	.word	0x0001193f
 80071ec:	200009bc 	.word	0x200009bc
 80071f0:	00011940 	.word	0x00011940
 80071f4:	e000ed04 	.word	0xe000ed04

080071f8 <system__bb__board_support__enable_interrupt_request>:
 80071f8:	2801      	cmp	r0, #1
 80071fa:	d013      	beq.n	8007224 <system__bb__board_support__enable_interrupt_request+0x2c>
 80071fc:	1e81      	subs	r1, r0, #2
 80071fe:	460a      	mov	r2, r1
 8007200:	4b10      	ldr	r3, [pc, #64]	; (8007244 <system__bb__board_support__enable_interrupt_request+0x4c>)
 8007202:	2900      	cmp	r1, #0
 8007204:	ea03 0301 	and.w	r3, r3, r1
 8007208:	bfb8      	it	lt
 800720a:	f100 021d 	addlt.w	r2, r0, #29
 800720e:	2b00      	cmp	r3, #0
 8007210:	ea4f 1262 	mov.w	r2, r2, asr #5
 8007214:	db10      	blt.n	8007238 <system__bb__board_support__enable_interrupt_request+0x40>
 8007216:	2101      	movs	r1, #1
 8007218:	480b      	ldr	r0, [pc, #44]	; (8007248 <system__bb__board_support__enable_interrupt_request+0x50>)
 800721a:	fa01 f303 	lsl.w	r3, r1, r3
 800721e:	f840 3022 	str.w	r3, [r0, r2, lsl #2]
 8007222:	4770      	bx	lr
 8007224:	4b09      	ldr	r3, [pc, #36]	; (800724c <system__bb__board_support__enable_interrupt_request+0x54>)
 8007226:	4a0a      	ldr	r2, [pc, #40]	; (8007250 <system__bb__board_support__enable_interrupt_request+0x58>)
 8007228:	f04f 7100 	mov.w	r1, #33554432	; 0x2000000
 800722c:	6019      	str	r1, [r3, #0]
 800722e:	6813      	ldr	r3, [r2, #0]
 8007230:	f043 0302 	orr.w	r3, r3, #2
 8007234:	6013      	str	r3, [r2, #0]
 8007236:	4770      	bx	lr
 8007238:	3b01      	subs	r3, #1
 800723a:	f063 031f 	orn	r3, r3, #31
 800723e:	3301      	adds	r3, #1
 8007240:	e7e9      	b.n	8007216 <system__bb__board_support__enable_interrupt_request+0x1e>
 8007242:	bf00      	nop
 8007244:	8000001f 	.word	0x8000001f
 8007248:	e000e100 	.word	0xe000e100
 800724c:	e000ed04 	.word	0xe000ed04
 8007250:	e000e010 	.word	0xe000e010

08007254 <system__bb__board_support__install_interrupt_handler>:
 8007254:	2901      	cmp	r1, #1
 8007256:	b570      	push	{r4, r5, r6, lr}
 8007258:	460c      	mov	r4, r1
 800725a:	4615      	mov	r5, r2
 800725c:	d017      	beq.n	800728e <system__bb__board_support__install_interrupt_handler+0x3a>
 800725e:	f1a5 03f1 	sub.w	r3, r5, #241	; 0xf1
 8007262:	2b0e      	cmp	r3, #14
 8007264:	bf9c      	itt	ls
 8007266:	ebc5 1305 	rsbls	r3, r5, r5, lsl #4
 800726a:	011b      	lslls	r3, r3, #4
 800726c:	4e0a      	ldr	r6, [pc, #40]	; (8007298 <system__bb__board_support__install_interrupt_handler+0x44>)
 800726e:	f1a1 0102 	sub.w	r1, r1, #2
 8007272:	bf94      	ite	ls
 8007274:	b2db      	uxtbls	r3, r3
 8007276:	2300      	movhi	r3, #0
 8007278:	5473      	strb	r3, [r6, r1]
 800727a:	2200      	movs	r2, #0
 800727c:	2110      	movs	r1, #16
 800727e:	f000 f965 	bl	800754c <system__bb__cpu_primitives__install_trap_handler>
 8007282:	4620      	mov	r0, r4
 8007284:	4629      	mov	r1, r5
 8007286:	e8bd 4070 	ldmia.w	sp!, {r4, r5, r6, lr}
 800728a:	f7ff bfb5 	b.w	80071f8 <system__bb__board_support__enable_interrupt_request>
 800728e:	210f      	movs	r1, #15
 8007290:	2200      	movs	r2, #0
 8007292:	f000 f95b 	bl	800754c <system__bb__cpu_primitives__install_trap_handler>
 8007296:	e7f4      	b.n	8007282 <system__bb__board_support__install_interrupt_handler+0x2e>
 8007298:	e000e400 	.word	0xe000e400

0800729c <system__tasking__initialize_atcb>:
 800729c:	b5f8      	push	{r3, r4, r5, r6, r7, lr}
 800729e:	9c09      	ldr	r4, [sp, #36]	; 0x24
 80072a0:	f89d 7018 	ldrb.w	r7, [sp, #24]
 80072a4:	9e07      	ldr	r6, [sp, #28]
 80072a6:	2500      	movs	r5, #0
 80072a8:	7225      	strb	r5, [r4, #8]
 80072aa:	60e2      	str	r2, [r4, #12]
 80072ac:	7263      	strb	r3, [r4, #9]
 80072ae:	6125      	str	r5, [r4, #16]
 80072b0:	f8c4 008c 	str.w	r0, [r4, #140]	; 0x8c
 80072b4:	f8c4 1088 	str.w	r1, [r4, #136]	; 0x88
 80072b8:	f884 70a0 	strb.w	r7, [r4, #160]	; 0xa0
 80072bc:	f8c4 6090 	str.w	r6, [r4, #144]	; 0x90
 80072c0:	9808      	ldr	r0, [sp, #32]
 80072c2:	f000 ffad 	bl	8008220 <system__parameters__adjust_storage_size>
 80072c6:	f8c4 0094 	str.w	r0, [r4, #148]	; 0x94
 80072ca:	2001      	movs	r0, #1
 80072cc:	bdf8      	pop	{r3, r4, r5, r6, r7, pc}
 80072ce:	bf00      	nop

080072d0 <system__tasking__initialize>:
 80072d0:	4b3b      	ldr	r3, [pc, #236]	; (80073c0 <system__tasking__initialize+0xf0>)
 80072d2:	781a      	ldrb	r2, [r3, #0]
 80072d4:	2a00      	cmp	r2, #0
 80072d6:	d16c      	bne.n	80073b2 <system__tasking__initialize+0xe2>
 80072d8:	b5f0      	push	{r4, r5, r6, r7, lr}
 80072da:	4a3a      	ldr	r2, [pc, #232]	; (80073c4 <system__tasking__initialize+0xf4>)
 80072dc:	4c3a      	ldr	r4, [pc, #232]	; (80073c8 <system__tasking__initialize+0xf8>)
 80072de:	6811      	ldr	r1, [r2, #0]
 80072e0:	2001      	movs	r0, #1
 80072e2:	7018      	strb	r0, [r3, #0]
 80072e4:	2500      	movs	r5, #0
 80072e6:	b085      	sub	sp, #20
 80072e8:	3101      	adds	r1, #1
 80072ea:	f04f 0302 	mov.w	r3, #2
 80072ee:	bf14      	ite	ne
 80072f0:	6812      	ldrne	r2, [r2, #0]
 80072f2:	2278      	moveq	r2, #120	; 0x78
 80072f4:	e88d 0028 	stmia.w	sp, {r3, r5}
 80072f8:	4629      	mov	r1, r5
 80072fa:	2301      	movs	r3, #1
 80072fc:	9403      	str	r4, [sp, #12]
 80072fe:	9502      	str	r5, [sp, #8]
 8007300:	4628      	mov	r0, r5
 8007302:	f7ff ffcb 	bl	800729c <system__tasking__initialize_atcb>
 8007306:	f104 0318 	add.w	r3, r4, #24
 800730a:	f8c4 3080 	str.w	r3, [r4, #128]	; 0x80
 800730e:	68e1      	ldr	r1, [r4, #12]
 8007310:	f8d4 0080 	ldr.w	r0, [r4, #128]	; 0x80
 8007314:	f8c4 509c 	str.w	r5, [r4, #156]	; 0x9c
 8007318:	f000 fb12 	bl	8007940 <system__bb__threads__initialize>
 800731c:	4b2b      	ldr	r3, [pc, #172]	; (80073cc <system__tasking__initialize+0xfc>)
 800731e:	f8d4 1080 	ldr.w	r1, [r4, #128]	; 0x80
 8007322:	681a      	ldr	r2, [r3, #0]
 8007324:	628c      	str	r4, [r1, #40]	; 0x28
 8007326:	f8c4 5084 	str.w	r5, [r4, #132]	; 0x84
 800732a:	2a00      	cmp	r2, #0
 800732c:	d042      	beq.n	80073b4 <system__tasking__initialize+0xe4>
 800732e:	f8c2 409c 	str.w	r4, [r2, #156]	; 0x9c
 8007332:	601c      	str	r4, [r3, #0]
 8007334:	b672      	cpsid	i
 8007336:	4e26      	ldr	r6, [pc, #152]	; (80073d0 <system__tasking__initialize+0x100>)
 8007338:	4b26      	ldr	r3, [pc, #152]	; (80073d4 <system__tasking__initialize+0x104>)
 800733a:	4635      	mov	r5, r6
 800733c:	6818      	ldr	r0, [r3, #0]
 800733e:	68e1      	ldr	r1, [r4, #12]
 8007340:	f000 fb7c 	bl	8007a3c <system__bb__threads__queues__change_priority>
 8007344:	f000 f97e 	bl	8007644 <system__bb__protection__leave_kernel>
 8007348:	4923      	ldr	r1, [pc, #140]	; (80073d8 <system__tasking__initialize+0x108>)
 800734a:	4a24      	ldr	r2, [pc, #144]	; (80073dc <system__tasking__initialize+0x10c>)
 800734c:	4b24      	ldr	r3, [pc, #144]	; (80073e0 <system__tasking__initialize+0x110>)
 800734e:	2001      	movs	r0, #1
 8007350:	601a      	str	r2, [r3, #0]
 8007352:	600c      	str	r4, [r1, #0]
 8007354:	f000 f942 	bl	80075dc <system__task_primitives__operations__initialize_idle>
 8007358:	f1a6 0368 	sub.w	r3, r6, #104	; 0x68
 800735c:	6033      	str	r3, [r6, #0]
 800735e:	f855 0980 	ldr.w	r0, [r5], #-128
 8007362:	2701      	movs	r7, #1
 8007364:	f8d5 2090 	ldr.w	r2, [r5, #144]	; 0x90
 8007368:	f8d5 3094 	ldr.w	r3, [r5, #148]	; 0x94
 800736c:	491d      	ldr	r1, [pc, #116]	; (80073e4 <system__tasking__initialize+0x114>)
 800736e:	9201      	str	r2, [sp, #4]
 8007370:	9302      	str	r3, [sp, #8]
 8007372:	462a      	mov	r2, r5
 8007374:	f04f 33ff 	mov.w	r3, #4294967295
 8007378:	9700      	str	r7, [sp, #0]
 800737a:	f000 fb4b 	bl	8007a14 <system__bb__threads__thread_create>
 800737e:	6832      	ldr	r2, [r6, #0]
 8007380:	4b19      	ldr	r3, [pc, #100]	; (80073e8 <system__tasking__initialize+0x118>)
 8007382:	6295      	str	r5, [r2, #40]	; 0x28
 8007384:	4618      	mov	r0, r3
 8007386:	7227      	strb	r7, [r4, #8]
 8007388:	f44f 6180 	mov.w	r1, #1024	; 0x400
 800738c:	f8c4 3098 	str.w	r3, [r4, #152]	; 0x98
 8007390:	f8c4 40a8 	str.w	r4, [r4, #168]	; 0xa8
 8007394:	f000 ff4a 	bl	800822c <system__secondary_stack__ss_init>
 8007398:	4a14      	ldr	r2, [pc, #80]	; (80073ec <system__tasking__initialize+0x11c>)
 800739a:	4b15      	ldr	r3, [pc, #84]	; (80073f0 <system__tasking__initialize+0x120>)
 800739c:	6810      	ldr	r0, [r2, #0]
 800739e:	2100      	movs	r1, #0
 80073a0:	3001      	adds	r0, #1
 80073a2:	6019      	str	r1, [r3, #0]
 80073a4:	6059      	str	r1, [r3, #4]
 80073a6:	d002      	beq.n	80073ae <system__tasking__initialize+0xde>
 80073a8:	6813      	ldr	r3, [r2, #0]
 80073aa:	42bb      	cmp	r3, r7
 80073ac:	d105      	bne.n	80073ba <system__tasking__initialize+0xea>
 80073ae:	b005      	add	sp, #20
 80073b0:	bdf0      	pop	{r4, r5, r6, r7, pc}
 80073b2:	4770      	bx	lr
 80073b4:	4a0f      	ldr	r2, [pc, #60]	; (80073f4 <system__tasking__initialize+0x124>)
 80073b6:	6014      	str	r4, [r2, #0]
 80073b8:	e7bb      	b.n	8007332 <system__tasking__initialize+0x62>
 80073ba:	480f      	ldr	r0, [pc, #60]	; (80073f8 <system__tasking__initialize+0x128>)
 80073bc:	f7f9 f880 	bl	80004c0 <__gnat_last_chance_handler>
 80073c0:	20000398 	.word	0x20000398
 80073c4:	20000394 	.word	0x20000394
 80073c8:	200009c0 	.word	0x200009c0
 80073cc:	200003cc 	.word	0x200003cc
 80073d0:	20000f40 	.word	0x20000f40
 80073d4:	200003c4 	.word	0x200003c4
 80073d8:	200003a8 	.word	0x200003a8
 80073dc:	20001778 	.word	0x20001778
 80073e0:	20000ebc 	.word	0x20000ebc
 80073e4:	080075c9 	.word	0x080075c9
 80073e8:	20000a78 	.word	0x20000a78
 80073ec:	200003a4 	.word	0x200003a4
 80073f0:	2000039c 	.word	0x2000039c
 80073f4:	200003c8 	.word	0x200003c8
 80073f8:	0800a7f8 	.word	0x0800a7f8

080073fc <system__bb__cpu_primitives__gnat_error_handler>:
 80073fc:	b240      	sxtb	r0, r0
 80073fe:	3801      	subs	r0, #1
 8007400:	b508      	push	{r3, lr}
 8007402:	2805      	cmp	r0, #5
 8007404:	d818      	bhi.n	8007438 <system__bb__cpu_primitives__gnat_error_handler+0x3c>
 8007406:	e8df f000 	tbb	[pc, r0]
 800740a:	0b07      	.short	0x0b07
 800740c:	0313170f 	.word	0x0313170f
 8007410:	480b      	ldr	r0, [pc, #44]	; (8007440 <system__bb__cpu_primitives__gnat_error_handler+0x44>)
 8007412:	2100      	movs	r1, #0
 8007414:	f7f9 f854 	bl	80004c0 <__gnat_last_chance_handler>
 8007418:	480a      	ldr	r0, [pc, #40]	; (8007444 <system__bb__cpu_primitives__gnat_error_handler+0x48>)
 800741a:	2100      	movs	r1, #0
 800741c:	f7f9 f850 	bl	80004c0 <__gnat_last_chance_handler>
 8007420:	4809      	ldr	r0, [pc, #36]	; (8007448 <system__bb__cpu_primitives__gnat_error_handler+0x4c>)
 8007422:	2100      	movs	r1, #0
 8007424:	f7f9 f84c 	bl	80004c0 <__gnat_last_chance_handler>
 8007428:	4808      	ldr	r0, [pc, #32]	; (800744c <system__bb__cpu_primitives__gnat_error_handler+0x50>)
 800742a:	2100      	movs	r1, #0
 800742c:	f7f9 f848 	bl	80004c0 <__gnat_last_chance_handler>
 8007430:	4807      	ldr	r0, [pc, #28]	; (8007450 <system__bb__cpu_primitives__gnat_error_handler+0x54>)
 8007432:	2100      	movs	r1, #0
 8007434:	f7f9 f844 	bl	80004c0 <__gnat_last_chance_handler>
 8007438:	4806      	ldr	r0, [pc, #24]	; (8007454 <system__bb__cpu_primitives__gnat_error_handler+0x58>)
 800743a:	2100      	movs	r1, #0
 800743c:	f7f9 f840 	bl	80004c0 <__gnat_last_chance_handler>
 8007440:	0800a928 	.word	0x0800a928
 8007444:	0800a834 	.word	0x0800a834
 8007448:	0800a874 	.word	0x0800a874
 800744c:	0800a8b8 	.word	0x0800a8b8
 8007450:	0800a8f0 	.word	0x0800a8f0
 8007454:	0800a960 	.word	0x0800a960

08007458 <__gnat_irq_trap>:
 8007458:	b508      	push	{r3, lr}
 800745a:	4b10      	ldr	r3, [pc, #64]	; (800749c <__gnat_irq_trap+0x44>)
 800745c:	2010      	movs	r0, #16
 800745e:	6c1b      	ldr	r3, [r3, #64]	; 0x40
 8007460:	4798      	blx	r3
 8007462:	4a0f      	ldr	r2, [pc, #60]	; (80074a0 <__gnat_irq_trap+0x48>)
 8007464:	4b0f      	ldr	r3, [pc, #60]	; (80074a4 <__gnat_irq_trap+0x4c>)
 8007466:	6811      	ldr	r1, [r2, #0]
 8007468:	681a      	ldr	r2, [r3, #0]
 800746a:	4291      	cmp	r1, r2
 800746c:	d003      	beq.n	8007476 <__gnat_irq_trap+0x1e>
 800746e:	4a0e      	ldr	r2, [pc, #56]	; (80074a8 <__gnat_irq_trap+0x50>)
 8007470:	f04f 5180 	mov.w	r1, #268435456	; 0x10000000
 8007474:	6011      	str	r1, [r2, #0]
 8007476:	681b      	ldr	r3, [r3, #0]
 8007478:	6b5b      	ldr	r3, [r3, #52]	; 0x34
 800747a:	f1a3 02f1 	sub.w	r2, r3, #241	; 0xf1
 800747e:	2a0e      	cmp	r2, #14
 8007480:	bf9d      	ittte	ls
 8007482:	ebc3 1303 	rsbls	r3, r3, r3, lsl #4
 8007486:	011b      	lslls	r3, r3, #4
 8007488:	b2db      	uxtbls	r3, r3
 800748a:	2300      	movhi	r3, #0
 800748c:	f383 8811 	msr	BASEPRI, r3
 8007490:	b662      	cpsie	i
 8007492:	f3bf 8f4f 	dsb	sy
 8007496:	f3bf 8f6f 	isb	sy
 800749a:	bd08      	pop	{r3, pc}
 800749c:	20000e78 	.word	0x20000e78
 80074a0:	200003b8 	.word	0x200003b8
 80074a4:	200003c4 	.word	0x200003c4
 80074a8:	e000ed04 	.word	0xe000ed04

080074ac <__gnat_pend_sv_trap>:
 80074ac:	f240 32c4 	movw	r2, #964	; 0x3c4
 80074b0:	f2c2 0200 	movt	r2, #8192	; 0x2000
 80074b4:	f3ef 8c09 	mrs	ip, PSP
 80074b8:	6813      	ldr	r3, [r2, #0]
 80074ba:	e883 1ff0 	stmia.w	r3, {r4, r5, r6, r7, r8, r9, sl, fp, ip}
 80074be:	f240 33b8 	movw	r3, #952	; 0x3b8
 80074c2:	f2c2 0300 	movt	r3, #8192	; 0x2000
 80074c6:	681b      	ldr	r3, [r3, #0]
 80074c8:	6013      	str	r3, [r2, #0]
 80074ca:	e893 1ff0 	ldmia.w	r3, {r4, r5, r6, r7, r8, r9, sl, fp, ip}
 80074ce:	f38c 8809 	msr	PSP, ip
 80074d2:	4770      	bx	lr

080074d4 <__gnat_sv_call_trap>:
 80074d4:	b508      	push	{r3, lr}
 80074d6:	200b      	movs	r0, #11
 80074d8:	f7ff ff90 	bl	80073fc <system__bb__cpu_primitives__gnat_error_handler>

080074dc <__gnat_sys_tick_trap>:
 80074dc:	b508      	push	{r3, lr}
 80074de:	f7ff fe2d 	bl	800713c <system__bb__board_support__read_clock>
 80074e2:	4a15      	ldr	r2, [pc, #84]	; (8007538 <__gnat_sys_tick_trap+0x5c>)
 80074e4:	6813      	ldr	r3, [r2, #0]
 80074e6:	1a1b      	subs	r3, r3, r0
 80074e8:	2b00      	cmp	r3, #0
 80074ea:	db00      	blt.n	80074ee <__gnat_sys_tick_trap+0x12>
 80074ec:	bd08      	pop	{r3, pc}
 80074ee:	f100 4000 	add.w	r0, r0, #2147483648	; 0x80000000
 80074f2:	3801      	subs	r0, #1
 80074f4:	4b11      	ldr	r3, [pc, #68]	; (800753c <__gnat_sys_tick_trap+0x60>)
 80074f6:	6010      	str	r0, [r2, #0]
 80074f8:	6bdb      	ldr	r3, [r3, #60]	; 0x3c
 80074fa:	200f      	movs	r0, #15
 80074fc:	4798      	blx	r3
 80074fe:	4a10      	ldr	r2, [pc, #64]	; (8007540 <__gnat_sys_tick_trap+0x64>)
 8007500:	4b10      	ldr	r3, [pc, #64]	; (8007544 <__gnat_sys_tick_trap+0x68>)
 8007502:	6811      	ldr	r1, [r2, #0]
 8007504:	681a      	ldr	r2, [r3, #0]
 8007506:	4291      	cmp	r1, r2
 8007508:	d003      	beq.n	8007512 <__gnat_sys_tick_trap+0x36>
 800750a:	4a0f      	ldr	r2, [pc, #60]	; (8007548 <__gnat_sys_tick_trap+0x6c>)
 800750c:	f04f 5180 	mov.w	r1, #268435456	; 0x10000000
 8007510:	6011      	str	r1, [r2, #0]
 8007512:	681b      	ldr	r3, [r3, #0]
 8007514:	6b5b      	ldr	r3, [r3, #52]	; 0x34
 8007516:	f1a3 02f1 	sub.w	r2, r3, #241	; 0xf1
 800751a:	2a0e      	cmp	r2, #14
 800751c:	bf9d      	ittte	ls
 800751e:	ebc3 1303 	rsbls	r3, r3, r3, lsl #4
 8007522:	011b      	lslls	r3, r3, #4
 8007524:	b2db      	uxtbls	r3, r3
 8007526:	2300      	movhi	r3, #0
 8007528:	f383 8811 	msr	BASEPRI, r3
 800752c:	b662      	cpsie	i
 800752e:	f3bf 8f4f 	dsb	sy
 8007532:	f3bf 8f6f 	isb	sy
 8007536:	bd08      	pop	{r3, pc}
 8007538:	200009b8 	.word	0x200009b8
 800753c:	20000e78 	.word	0x20000e78
 8007540:	200003b8 	.word	0x200003b8
 8007544:	200003c4 	.word	0x200003c4
 8007548:	e000ed04 	.word	0xe000ed04

0800754c <system__bb__cpu_primitives__install_trap_handler>:
 800754c:	4b02      	ldr	r3, [pc, #8]	; (8007558 <system__bb__cpu_primitives__install_trap_handler+0xc>)
 800754e:	b249      	sxtb	r1, r1
 8007550:	f843 0021 	str.w	r0, [r3, r1, lsl #2]
 8007554:	4770      	bx	lr
 8007556:	bf00      	nop
 8007558:	20000e78 	.word	0x20000e78

0800755c <ada__real_time__delays__delay_until>:
 800755c:	4b09      	ldr	r3, [pc, #36]	; (8007584 <ada__real_time__delays__delay_until+0x28>)
 800755e:	b510      	push	{r4, lr}
 8007560:	681a      	ldr	r2, [r3, #0]
 8007562:	6a92      	ldr	r2, [r2, #40]	; 0x28
 8007564:	6912      	ldr	r2, [r2, #16]
 8007566:	2a00      	cmp	r2, #0
 8007568:	dc08      	bgt.n	800757c <ada__real_time__delays__delay_until+0x20>
 800756a:	681a      	ldr	r2, [r3, #0]
 800756c:	2307      	movs	r3, #7
 800756e:	6a94      	ldr	r4, [r2, #40]	; 0x28
 8007570:	7223      	strb	r3, [r4, #8]
 8007572:	f7ff fd0d 	bl	8006f90 <system__bb__time__delay_until>
 8007576:	2301      	movs	r3, #1
 8007578:	7223      	strb	r3, [r4, #8]
 800757a:	bd10      	pop	{r4, pc}
 800757c:	4802      	ldr	r0, [pc, #8]	; (8007588 <ada__real_time__delays__delay_until+0x2c>)
 800757e:	212e      	movs	r1, #46	; 0x2e
 8007580:	f7f8 ff9e 	bl	80004c0 <__gnat_last_chance_handler>
 8007584:	200003c4 	.word	0x200003c4
 8007588:	0800a99c 	.word	0x0800a99c

0800758c <system__task_primitives__operations__enter_task>:
 800758c:	b508      	push	{r3, lr}
 800758e:	4b0b      	ldr	r3, [pc, #44]	; (80075bc <system__task_primitives__operations__enter_task+0x30>)
 8007590:	2100      	movs	r1, #0
 8007592:	681a      	ldr	r2, [r3, #0]
 8007594:	f8c0 1084 	str.w	r1, [r0, #132]	; 0x84
 8007598:	b162      	cbz	r2, 80075b4 <system__task_primitives__operations__enter_task+0x28>
 800759a:	f8c2 009c 	str.w	r0, [r2, #156]	; 0x9c
 800759e:	6018      	str	r0, [r3, #0]
 80075a0:	b672      	cpsid	i
 80075a2:	4b07      	ldr	r3, [pc, #28]	; (80075c0 <system__task_primitives__operations__enter_task+0x34>)
 80075a4:	68c1      	ldr	r1, [r0, #12]
 80075a6:	6818      	ldr	r0, [r3, #0]
 80075a8:	f000 fa48 	bl	8007a3c <system__bb__threads__queues__change_priority>
 80075ac:	e8bd 4008 	ldmia.w	sp!, {r3, lr}
 80075b0:	f000 b848 	b.w	8007644 <system__bb__protection__leave_kernel>
 80075b4:	4a03      	ldr	r2, [pc, #12]	; (80075c4 <system__task_primitives__operations__enter_task+0x38>)
 80075b6:	6010      	str	r0, [r2, #0]
 80075b8:	e7f1      	b.n	800759e <system__task_primitives__operations__enter_task+0x12>
 80075ba:	bf00      	nop
 80075bc:	200003cc 	.word	0x200003cc
 80075c0:	200003c4 	.word	0x200003c4
 80075c4:	200003c8 	.word	0x200003c8

080075c8 <system__task_primitives__operations__idle>:
 80075c8:	b508      	push	{r3, lr}
 80075ca:	4b03      	ldr	r3, [pc, #12]	; (80075d8 <system__task_primitives__operations__idle+0x10>)
 80075cc:	681b      	ldr	r3, [r3, #0]
 80075ce:	6a98      	ldr	r0, [r3, #40]	; 0x28
 80075d0:	f7ff ffdc 	bl	800758c <system__task_primitives__operations__enter_task>
 80075d4:	bf30      	wfi
 80075d6:	e7fd      	b.n	80075d4 <system__task_primitives__operations__idle+0xc>
 80075d8:	200003c4 	.word	0x200003c4

080075dc <system__task_primitives__operations__initialize_idle>:
 80075dc:	b570      	push	{r4, r5, r6, lr}
 80075de:	4603      	mov	r3, r0
 80075e0:	24b8      	movs	r4, #184	; 0xb8
 80075e2:	b240      	sxtb	r0, r0
 80075e4:	fb04 f400 	mul.w	r4, r4, r0
 80075e8:	4912      	ldr	r1, [pc, #72]	; (8007634 <system__task_primitives__operations__initialize_idle+0x58>)
 80075ea:	4d13      	ldr	r5, [pc, #76]	; (8007638 <system__task_primitives__operations__initialize_idle+0x5c>)
 80075ec:	4a13      	ldr	r2, [pc, #76]	; (800763c <system__task_primitives__operations__initialize_idle+0x60>)
 80075ee:	4401      	add	r1, r0
 80075f0:	f1a4 06b8 	sub.w	r6, r4, #184	; 0xb8
 80075f4:	b084      	sub	sp, #16
 80075f6:	eb02 22c1 	add.w	r2, r2, r1, lsl #11
 80075fa:	442e      	add	r6, r5
 80075fc:	2002      	movs	r0, #2
 80075fe:	f44f 6100 	mov.w	r1, #2048	; 0x800
 8007602:	9201      	str	r2, [sp, #4]
 8007604:	9000      	str	r0, [sp, #0]
 8007606:	9102      	str	r1, [sp, #8]
 8007608:	9603      	str	r6, [sp, #12]
 800760a:	2100      	movs	r1, #0
 800760c:	f04f 32ff 	mov.w	r2, #4294967295
 8007610:	480b      	ldr	r0, [pc, #44]	; (8007640 <system__task_primitives__operations__initialize_idle+0x64>)
 8007612:	f7ff fe43 	bl	800729c <system__tasking__initialize_atcb>
 8007616:	f1a4 03a0 	sub.w	r3, r4, #160	; 0xa0
 800761a:	f1a4 0038 	sub.w	r0, r4, #56	; 0x38
 800761e:	1929      	adds	r1, r5, r4
 8007620:	442b      	add	r3, r5
 8007622:	3cb0      	subs	r4, #176	; 0xb0
 8007624:	2201      	movs	r2, #1
 8007626:	502b      	str	r3, [r5, r0]
 8007628:	f841 6c10 	str.w	r6, [r1, #-16]
 800762c:	552a      	strb	r2, [r5, r4]
 800762e:	b004      	add	sp, #16
 8007630:	bd70      	pop	{r4, r5, r6, pc}
 8007632:	bf00      	nop
 8007634:	001fffff 	.word	0x001fffff
 8007638:	20000ec0 	.word	0x20000ec0
 800763c:	20000f78 	.word	0x20000f78
 8007640:	080075c9 	.word	0x080075c9

08007644 <system__bb__protection__leave_kernel>:
 8007644:	4b10      	ldr	r3, [pc, #64]	; (8007688 <system__bb__protection__leave_kernel+0x44>)
 8007646:	b510      	push	{r4, lr}
 8007648:	4c10      	ldr	r4, [pc, #64]	; (800768c <system__bb__protection__leave_kernel+0x48>)
 800764a:	681a      	ldr	r2, [r3, #0]
 800764c:	6823      	ldr	r3, [r4, #0]
 800764e:	429a      	cmp	r2, r3
 8007650:	d007      	beq.n	8007662 <system__bb__protection__leave_kernel+0x1e>
 8007652:	4b0f      	ldr	r3, [pc, #60]	; (8007690 <system__bb__protection__leave_kernel+0x4c>)
 8007654:	681b      	ldr	r3, [r3, #0]
 8007656:	b103      	cbz	r3, 800765a <system__bb__protection__leave_kernel+0x16>
 8007658:	4798      	blx	r3
 800765a:	4b0e      	ldr	r3, [pc, #56]	; (8007694 <system__bb__protection__leave_kernel+0x50>)
 800765c:	f04f 5280 	mov.w	r2, #268435456	; 0x10000000
 8007660:	601a      	str	r2, [r3, #0]
 8007662:	6823      	ldr	r3, [r4, #0]
 8007664:	6b5b      	ldr	r3, [r3, #52]	; 0x34
 8007666:	f1a3 02f1 	sub.w	r2, r3, #241	; 0xf1
 800766a:	2a0e      	cmp	r2, #14
 800766c:	bf9d      	ittte	ls
 800766e:	ebc3 1303 	rsbls	r3, r3, r3, lsl #4
 8007672:	011b      	lslls	r3, r3, #4
 8007674:	b2db      	uxtbls	r3, r3
 8007676:	2300      	movhi	r3, #0
 8007678:	f383 8811 	msr	BASEPRI, r3
 800767c:	b662      	cpsie	i
 800767e:	f3bf 8f4f 	dsb	sy
 8007682:	f3bf 8f6f 	isb	sy
 8007686:	bd10      	pop	{r4, pc}
 8007688:	200003b8 	.word	0x200003b8
 800768c:	200003c4 	.word	0x200003c4
 8007690:	20000390 	.word	0x20000390
 8007694:	e000ed04 	.word	0xe000ed04

08007698 <system__bb__timing_events__execute_expired_timing_events>:
 8007698:	e92d 4ff8 	stmdb	sp!, {r3, r4, r5, r6, r7, r8, r9, sl, fp, lr}
 800769c:	f8df b074 	ldr.w	fp, [pc, #116]	; 8007714 <system__bb__timing_events__execute_expired_timing_events+0x7c>
 80076a0:	f8db 4000 	ldr.w	r4, [fp]
 80076a4:	2c00      	cmp	r4, #0
 80076a6:	d030      	beq.n	800770a <system__bb__timing_events__execute_expired_timing_events+0x72>
 80076a8:	4b19      	ldr	r3, [pc, #100]	; (8007710 <system__bb__timing_events__execute_expired_timing_events+0x78>)
 80076aa:	4606      	mov	r6, r0
 80076ac:	f8d3 a000 	ldr.w	sl, [r3]
 80076b0:	460f      	mov	r7, r1
 80076b2:	4650      	mov	r0, sl
 80076b4:	21ff      	movs	r1, #255	; 0xff
 80076b6:	f8da 9034 	ldr.w	r9, [sl, #52]	; 0x34
 80076ba:	46d8      	mov	r8, fp
 80076bc:	f000 f9be 	bl	8007a3c <system__bb__threads__queues__change_priority>
 80076c0:	2500      	movs	r5, #0
 80076c2:	e9d4 2302 	ldrd	r2, r3, [r4, #8]
 80076c6:	429f      	cmp	r7, r3
 80076c8:	bf08      	it	eq
 80076ca:	4296      	cmpeq	r6, r2
 80076cc:	d317      	bcc.n	80076fe <system__bb__timing_events__execute_expired_timing_events+0x66>
 80076ce:	f8db 3000 	ldr.w	r3, [fp]
 80076d2:	6962      	ldr	r2, [r4, #20]
 80076d4:	429c      	cmp	r4, r3
 80076d6:	bf18      	it	ne
 80076d8:	69a3      	ldrne	r3, [r4, #24]
 80076da:	6921      	ldr	r1, [r4, #16]
 80076dc:	bf1a      	itte	ne
 80076de:	615a      	strne	r2, [r3, #20]
 80076e0:	6962      	ldrne	r2, [r4, #20]
 80076e2:	f8c8 2000 	streq.w	r2, [r8]
 80076e6:	4620      	mov	r0, r4
 80076e8:	b10a      	cbz	r2, 80076ee <system__bb__timing_events__execute_expired_timing_events+0x56>
 80076ea:	69a3      	ldr	r3, [r4, #24]
 80076ec:	6193      	str	r3, [r2, #24]
 80076ee:	6165      	str	r5, [r4, #20]
 80076f0:	61a5      	str	r5, [r4, #24]
 80076f2:	6125      	str	r5, [r4, #16]
 80076f4:	4788      	blx	r1
 80076f6:	f8db 4000 	ldr.w	r4, [fp]
 80076fa:	2c00      	cmp	r4, #0
 80076fc:	d1e1      	bne.n	80076c2 <system__bb__timing_events__execute_expired_timing_events+0x2a>
 80076fe:	4650      	mov	r0, sl
 8007700:	4649      	mov	r1, r9
 8007702:	e8bd 4ff8 	ldmia.w	sp!, {r3, r4, r5, r6, r7, r8, r9, sl, fp, lr}
 8007706:	f000 b999 	b.w	8007a3c <system__bb__threads__queues__change_priority>
 800770a:	e8bd 8ff8 	ldmia.w	sp!, {r3, r4, r5, r6, r7, r8, r9, sl, fp, pc}
 800770e:	bf00      	nop
 8007710:	200003c4 	.word	0x200003c4
 8007714:	200003ac 	.word	0x200003ac

08007718 <system__bb__interrupts__interrupt_wrapper>:
 8007718:	e92d 4ff0 	stmdb	sp!, {r4, r5, r6, r7, r8, r9, sl, fp, lr}
 800771c:	4b3a      	ldr	r3, [pc, #232]	; (8007808 <system__bb__interrupts__interrupt_wrapper+0xf0>)
 800771e:	280f      	cmp	r0, #15
 8007720:	681d      	ldr	r5, [r3, #0]
 8007722:	b083      	sub	sp, #12
 8007724:	f8d5 8034 	ldr.w	r8, [r5, #52]	; 0x34
 8007728:	d050      	beq.n	80077cc <system__bb__interrupts__interrupt_wrapper+0xb4>
 800772a:	f3ef 8305 	mrs	r3, IPSR
 800772e:	b2db      	uxtb	r3, r3
 8007730:	f1a3 060e 	sub.w	r6, r3, #14
 8007734:	2e01      	cmp	r6, #1
 8007736:	d049      	beq.n	80077cc <system__bb__interrupts__interrupt_wrapper+0xb4>
 8007738:	4a34      	ldr	r2, [pc, #208]	; (800780c <system__bb__interrupts__interrupt_wrapper+0xf4>)
 800773a:	3b10      	subs	r3, #16
 800773c:	5cd3      	ldrb	r3, [r2, r3]
 800773e:	f003 04ff 	and.w	r4, r3, #255	; 0xff
 8007742:	b95b      	cbnz	r3, 800775c <system__bb__interrupts__interrupt_wrapper+0x44>
 8007744:	24ff      	movs	r4, #255	; 0xff
 8007746:	f8df 90cc 	ldr.w	r9, [pc, #204]	; 8007814 <system__bb__interrupts__interrupt_wrapper+0xfc>
 800774a:	f8d9 b000 	ldr.w	fp, [r9]
 800774e:	f895 7055 	ldrb.w	r7, [r5, #85]	; 0x55
 8007752:	b2ff      	uxtb	r7, r7
 8007754:	b936      	cbnz	r6, 8007764 <system__bb__interrupts__interrupt_wrapper+0x4c>
 8007756:	b003      	add	sp, #12
 8007758:	e8bd 8ff0 	ldmia.w	sp!, {r4, r5, r6, r7, r8, r9, sl, fp, pc}
 800775c:	0924      	lsrs	r4, r4, #4
 800775e:	f5c4 7480 	rsb	r4, r4, #256	; 0x100
 8007762:	e7f0      	b.n	8007746 <system__bb__interrupts__interrupt_wrapper+0x2e>
 8007764:	f8df a0b0 	ldr.w	sl, [pc, #176]	; 8007818 <system__bb__interrupts__interrupt_wrapper+0x100>
 8007768:	4621      	mov	r1, r4
 800776a:	f8da 3000 	ldr.w	r3, [sl]
 800776e:	b113      	cbz	r3, 8007776 <system__bb__interrupts__interrupt_wrapper+0x5e>
 8007770:	9101      	str	r1, [sp, #4]
 8007772:	4798      	blx	r3
 8007774:	9901      	ldr	r1, [sp, #4]
 8007776:	2301      	movs	r3, #1
 8007778:	f8c9 6000 	str.w	r6, [r9]
 800777c:	4628      	mov	r0, r5
 800777e:	f885 3055 	strb.w	r3, [r5, #85]	; 0x55
 8007782:	f000 f95b 	bl	8007a3c <system__bb__threads__queues__change_priority>
 8007786:	f5b4 7f80 	cmp.w	r4, #256	; 0x100
 800778a:	d02f      	beq.n	80077ec <system__bb__interrupts__interrupt_wrapper+0xd4>
 800778c:	ebc4 1404 	rsb	r4, r4, r4, lsl #4
 8007790:	0124      	lsls	r4, r4, #4
 8007792:	b2e4      	uxtb	r4, r4
 8007794:	f384 8811 	msr	BASEPRI, r4
 8007798:	b662      	cpsie	i
 800779a:	f3bf 8f4f 	dsb	sy
 800779e:	f3bf 8f6f 	isb	sy
 80077a2:	4b1b      	ldr	r3, [pc, #108]	; (8007810 <system__bb__interrupts__interrupt_wrapper+0xf8>)
 80077a4:	4630      	mov	r0, r6
 80077a6:	f853 3026 	ldr.w	r3, [r3, r6, lsl #2]
 80077aa:	4798      	blx	r3
 80077ac:	b672      	cpsid	i
 80077ae:	f8da 3000 	ldr.w	r3, [sl]
 80077b2:	b103      	cbz	r3, 80077b6 <system__bb__interrupts__interrupt_wrapper+0x9e>
 80077b4:	4798      	blx	r3
 80077b6:	4641      	mov	r1, r8
 80077b8:	4628      	mov	r0, r5
 80077ba:	f000 f93f 	bl	8007a3c <system__bb__threads__queues__change_priority>
 80077be:	f8c9 b000 	str.w	fp, [r9]
 80077c2:	f885 7055 	strb.w	r7, [r5, #85]	; 0x55
 80077c6:	b003      	add	sp, #12
 80077c8:	e8bd 8ff0 	ldmia.w	sp!, {r4, r5, r6, r7, r8, r9, sl, fp, pc}
 80077cc:	f8df 9044 	ldr.w	r9, [pc, #68]	; 8007814 <system__bb__interrupts__interrupt_wrapper+0xfc>
 80077d0:	f8df a044 	ldr.w	sl, [pc, #68]	; 8007818 <system__bb__interrupts__interrupt_wrapper+0x100>
 80077d4:	f8d9 b000 	ldr.w	fp, [r9]
 80077d8:	f8da 3000 	ldr.w	r3, [sl]
 80077dc:	f895 7055 	ldrb.w	r7, [r5, #85]	; 0x55
 80077e0:	b2ff      	uxtb	r7, r7
 80077e2:	b12b      	cbz	r3, 80077f0 <system__bb__interrupts__interrupt_wrapper+0xd8>
 80077e4:	21ff      	movs	r1, #255	; 0xff
 80077e6:	460c      	mov	r4, r1
 80077e8:	2601      	movs	r6, #1
 80077ea:	e7c1      	b.n	8007770 <system__bb__interrupts__interrupt_wrapper+0x58>
 80077ec:	2400      	movs	r4, #0
 80077ee:	e7d1      	b.n	8007794 <system__bb__interrupts__interrupt_wrapper+0x7c>
 80077f0:	2601      	movs	r6, #1
 80077f2:	f8c9 6000 	str.w	r6, [r9]
 80077f6:	4628      	mov	r0, r5
 80077f8:	f885 6055 	strb.w	r6, [r5, #85]	; 0x55
 80077fc:	21ff      	movs	r1, #255	; 0xff
 80077fe:	f000 f91d 	bl	8007a3c <system__bb__threads__queues__change_priority>
 8007802:	24ff      	movs	r4, #255	; 0xff
 8007804:	e7c2      	b.n	800778c <system__bb__interrupts__interrupt_wrapper+0x74>
 8007806:	bf00      	nop
 8007808:	200003c4 	.word	0x200003c4
 800780c:	e000e400 	.word	0xe000e400
 8007810:	20001778 	.word	0x20001778
 8007814:	200003b0 	.word	0x200003b0
 8007818:	20000390 	.word	0x20000390

0800781c <system__bb__interrupts__initialize_interrupts>:
 800781c:	4a01      	ldr	r2, [pc, #4]	; (8007824 <system__bb__interrupts__initialize_interrupts+0x8>)
 800781e:	4b02      	ldr	r3, [pc, #8]	; (8007828 <system__bb__interrupts__initialize_interrupts+0xc>)
 8007820:	601a      	str	r2, [r3, #0]
 8007822:	4770      	bx	lr
 8007824:	200020c8 	.word	0x200020c8
 8007828:	200018c8 	.word	0x200018c8

0800782c <system__bb__threads__get_cpu>:
 800782c:	f890 002c 	ldrb.w	r0, [r0, #44]	; 0x2c
 8007830:	2800      	cmp	r0, #0
 8007832:	bf08      	it	eq
 8007834:	2001      	moveq	r0, #1
 8007836:	4770      	bx	lr

08007838 <system__bb__threads__initialize_thread>:
 8007838:	e92d 43f0 	stmdb	sp!, {r4, r5, r6, r7, r8, r9, lr}
 800783c:	4604      	mov	r4, r0
 800783e:	4d3e      	ldr	r5, [pc, #248]	; (8007938 <system__bb__threads__initialize_thread+0x100>)
 8007840:	b089      	sub	sp, #36	; 0x24
 8007842:	682e      	ldr	r6, [r5, #0]
 8007844:	f89d 0040 	ldrb.w	r0, [sp, #64]	; 0x40
 8007848:	4696      	mov	lr, r2
 800784a:	65a6      	str	r6, [r4, #88]	; 0x58
 800784c:	6323      	str	r3, [r4, #48]	; 0x30
 800784e:	6363      	str	r3, [r4, #52]	; 0x34
 8007850:	602c      	str	r4, [r5, #0]
 8007852:	f884 002c 	strb.w	r0, [r4, #44]	; 0x2c
 8007856:	9a11      	ldr	r2, [sp, #68]	; 0x44
 8007858:	9e12      	ldr	r6, [sp, #72]	; 0x48
 800785a:	2800      	cmp	r0, #0
 800785c:	d058      	beq.n	8007910 <system__bb__threads__initialize_thread+0xd8>
 800785e:	b243      	sxtb	r3, r0
 8007860:	f103 4380 	add.w	r3, r3, #1073741824	; 0x40000000
 8007864:	4835      	ldr	r0, [pc, #212]	; (800793c <system__bb__threads__initialize_thread+0x104>)
 8007866:	3b01      	subs	r3, #1
 8007868:	f850 5023 	ldr.w	r5, [r0, r3, lsl #2]
 800786c:	42ac      	cmp	r4, r5
 800786e:	d018      	beq.n	80078a2 <system__bb__threads__initialize_thread+0x6a>
 8007870:	f850 5023 	ldr.w	r5, [r0, r3, lsl #2]
 8007874:	2d00      	cmp	r5, #0
 8007876:	d04d      	beq.n	8007914 <system__bb__threads__initialize_thread+0xdc>
 8007878:	6b67      	ldr	r7, [r4, #52]	; 0x34
 800787a:	f850 5023 	ldr.w	r5, [r0, r3, lsl #2]
 800787e:	6b6d      	ldr	r5, [r5, #52]	; 0x34
 8007880:	42af      	cmp	r7, r5
 8007882:	dc47      	bgt.n	8007914 <system__bb__threads__initialize_thread+0xdc>
 8007884:	f850 0023 	ldr.w	r0, [r0, r3, lsl #2]
 8007888:	e006      	b.n	8007898 <system__bb__threads__initialize_thread+0x60>
 800788a:	429c      	cmp	r4, r3
 800788c:	d048      	beq.n	8007920 <system__bb__threads__initialize_thread+0xe8>
 800788e:	6b5f      	ldr	r7, [r3, #52]	; 0x34
 8007890:	6b65      	ldr	r5, [r4, #52]	; 0x34
 8007892:	42af      	cmp	r7, r5
 8007894:	db03      	blt.n	800789e <system__bb__threads__initialize_thread+0x66>
 8007896:	4618      	mov	r0, r3
 8007898:	6c03      	ldr	r3, [r0, #64]	; 0x40
 800789a:	2b00      	cmp	r3, #0
 800789c:	d1f5      	bne.n	800788a <system__bb__threads__initialize_thread+0x52>
 800789e:	6423      	str	r3, [r4, #64]	; 0x40
 80078a0:	6404      	str	r4, [r0, #64]	; 0x40
 80078a2:	2500      	movs	r5, #0
 80078a4:	f04f 38ff 	mov.w	r8, #4294967295
 80078a8:	f04f 39ff 	mov.w	r9, #4294967295
 80078ac:	63a2      	str	r2, [r4, #56]	; 0x38
 80078ae:	63e6      	str	r6, [r4, #60]	; 0x3c
 80078b0:	e9c4 8912 	strd	r8, r9, [r4, #72]	; 0x48
 80078b4:	f884 5054 	strb.w	r5, [r4, #84]	; 0x54
 80078b8:	f884 5055 	strb.w	r5, [r4, #85]	; 0x55
 80078bc:	f884 5056 	strb.w	r5, [r4, #86]	; 0x56
 80078c0:	6525      	str	r5, [r4, #80]	; 0x50
 80078c2:	65e5      	str	r5, [r4, #92]	; 0x5c
 80078c4:	6625      	str	r5, [r4, #96]	; 0x60
 80078c6:	b301      	cbz	r1, 800790a <system__bb__threads__initialize_thread+0xd2>
 80078c8:	3a20      	subs	r2, #32
 80078ca:	f022 0c04 	bic.w	ip, r2, #4
 80078ce:	4666      	mov	r6, ip
 80078d0:	466f      	mov	r7, sp
 80078d2:	f04f 7380 	mov.w	r3, #16777216	; 0x1000000
 80078d6:	9504      	str	r5, [sp, #16]
 80078d8:	9505      	str	r5, [sp, #20]
 80078da:	9106      	str	r1, [sp, #24]
 80078dc:	9307      	str	r3, [sp, #28]
 80078de:	f8cd e000 	str.w	lr, [sp]
 80078e2:	9501      	str	r5, [sp, #4]
 80078e4:	9502      	str	r5, [sp, #8]
 80078e6:	9503      	str	r5, [sp, #12]
 80078e8:	cf0f      	ldmia	r7!, {r0, r1, r2, r3}
 80078ea:	c60f      	stmia	r6!, {r0, r1, r2, r3}
 80078ec:	e897 000f 	ldmia.w	r7, {r0, r1, r2, r3}
 80078f0:	e886 000f 	stmia.w	r6, {r0, r1, r2, r3}
 80078f4:	f8c4 c020 	str.w	ip, [r4, #32]
 80078f8:	6025      	str	r5, [r4, #0]
 80078fa:	6065      	str	r5, [r4, #4]
 80078fc:	60a5      	str	r5, [r4, #8]
 80078fe:	60e5      	str	r5, [r4, #12]
 8007900:	6125      	str	r5, [r4, #16]
 8007902:	6165      	str	r5, [r4, #20]
 8007904:	61a5      	str	r5, [r4, #24]
 8007906:	61e5      	str	r5, [r4, #28]
 8007908:	6265      	str	r5, [r4, #36]	; 0x24
 800790a:	b009      	add	sp, #36	; 0x24
 800790c:	e8bd 83f0 	ldmia.w	sp!, {r4, r5, r6, r7, r8, r9, pc}
 8007910:	2301      	movs	r3, #1
 8007912:	e7a5      	b.n	8007860 <system__bb__threads__initialize_thread+0x28>
 8007914:	f850 5023 	ldr.w	r5, [r0, r3, lsl #2]
 8007918:	f840 4023 	str.w	r4, [r0, r3, lsl #2]
 800791c:	6425      	str	r5, [r4, #64]	; 0x40
 800791e:	e7c0      	b.n	80078a2 <system__bb__threads__initialize_thread+0x6a>
 8007920:	6c23      	ldr	r3, [r4, #64]	; 0x40
 8007922:	6403      	str	r3, [r0, #64]	; 0x40
 8007924:	2b00      	cmp	r3, #0
 8007926:	d0ba      	beq.n	800789e <system__bb__threads__initialize_thread+0x66>
 8007928:	6b5f      	ldr	r7, [r3, #52]	; 0x34
 800792a:	6b65      	ldr	r5, [r4, #52]	; 0x34
 800792c:	42af      	cmp	r7, r5
 800792e:	dbb6      	blt.n	800789e <system__bb__threads__initialize_thread+0x66>
 8007930:	4618      	mov	r0, r3
 8007932:	6c1b      	ldr	r3, [r3, #64]	; 0x40
 8007934:	e7f6      	b.n	8007924 <system__bb__threads__initialize_thread+0xec>
 8007936:	bf00      	nop
 8007938:	200003bc 	.word	0x200003bc
 800793c:	200003b8 	.word	0x200003b8

08007940 <system__bb__threads__initialize>:
 8007940:	e92d 43f0 	stmdb	sp!, {r4, r5, r6, r7, r8, r9, lr}
 8007944:	b085      	sub	sp, #20
 8007946:	4606      	mov	r6, r0
 8007948:	460f      	mov	r7, r1
 800794a:	f7ff ff67 	bl	800781c <system__bb__interrupts__initialize_interrupts>
 800794e:	f3ef 8008 	mrs	r0, MSP
 8007952:	f380 8809 	msr	PSP, r0
 8007956:	f3ef 8014 	mrs	r0, CONTROL
 800795a:	f040 0002 	orr.w	r0, r0, #2
 800795e:	f380 8814 	msr	CONTROL, r0
 8007962:	4b1f      	ldr	r3, [pc, #124]	; (80079e0 <system__bb__threads__initialize+0xa0>)
 8007964:	681b      	ldr	r3, [r3, #0]
 8007966:	f383 8808 	msr	MSP, r3
 800796a:	4b1e      	ldr	r3, [pc, #120]	; (80079e4 <system__bb__threads__initialize+0xa4>)
 800796c:	4a1e      	ldr	r2, [pc, #120]	; (80079e8 <system__bb__threads__initialize+0xa8>)
 800796e:	4d1f      	ldr	r5, [pc, #124]	; (80079ec <system__bb__threads__initialize+0xac>)
 8007970:	601a      	str	r2, [r3, #0]
 8007972:	682a      	ldr	r2, [r5, #0]
 8007974:	f8df 9090 	ldr.w	r9, [pc, #144]	; 8007a08 <system__bb__threads__initialize+0xc8>
 8007978:	f8df 8090 	ldr.w	r8, [pc, #144]	; 8007a0c <system__bb__threads__initialize+0xcc>
 800797c:	f8df e090 	ldr.w	lr, [pc, #144]	; 8007a10 <system__bb__threads__initialize+0xd0>
 8007980:	491b      	ldr	r1, [pc, #108]	; (80079f0 <system__bb__threads__initialize+0xb0>)
 8007982:	f442 7204 	orr.w	r2, r2, #528	; 0x210
 8007986:	2400      	movs	r4, #0
 8007988:	481a      	ldr	r0, [pc, #104]	; (80079f4 <system__bb__threads__initialize+0xb4>)
 800798a:	f042 0201 	orr.w	r2, r2, #1
 800798e:	f44f 0c7f 	mov.w	ip, #16711680	; 0xff0000
 8007992:	602a      	str	r2, [r5, #0]
 8007994:	f8c9 4000 	str.w	r4, [r9]
 8007998:	f8c8 4000 	str.w	r4, [r8]
 800799c:	f8ce c000 	str.w	ip, [lr]
 80079a0:	6059      	str	r1, [r3, #4]
 80079a2:	6802      	ldr	r2, [r0, #0]
 80079a4:	f442 22e0 	orr.w	r2, r2, #458752	; 0x70000
 80079a8:	6002      	str	r2, [r0, #0]
 80079aa:	b661      	cpsie	f
 80079ac:	f7ff fbfc 	bl	80071a8 <system__bb__board_support__initialize_board>
 80079b0:	f7ff fa56 	bl	8006e60 <system__bb__time__initialize_timers>
 80079b4:	b672      	cpsid	i
 80079b6:	4810      	ldr	r0, [pc, #64]	; (80079f8 <system__bb__threads__initialize+0xb8>)
 80079b8:	4a10      	ldr	r2, [pc, #64]	; (80079fc <system__bb__threads__initialize+0xbc>)
 80079ba:	2501      	movs	r5, #1
 80079bc:	463b      	mov	r3, r7
 80079be:	9001      	str	r0, [sp, #4]
 80079c0:	9202      	str	r2, [sp, #8]
 80079c2:	9500      	str	r5, [sp, #0]
 80079c4:	4622      	mov	r2, r4
 80079c6:	4630      	mov	r0, r6
 80079c8:	4621      	mov	r1, r4
 80079ca:	f7ff ff35 	bl	8007838 <system__bb__threads__initialize_thread>
 80079ce:	4a0c      	ldr	r2, [pc, #48]	; (8007a00 <system__bb__threads__initialize+0xc0>)
 80079d0:	4b0c      	ldr	r3, [pc, #48]	; (8007a04 <system__bb__threads__initialize+0xc4>)
 80079d2:	6016      	str	r6, [r2, #0]
 80079d4:	701d      	strb	r5, [r3, #0]
 80079d6:	b005      	add	sp, #20
 80079d8:	e8bd 43f0 	ldmia.w	sp!, {r4, r5, r6, r7, r8, r9, lr}
 80079dc:	f7ff be32 	b.w	8007644 <system__bb__protection__leave_kernel>
 80079e0:	200018c8 	.word	0x200018c8
 80079e4:	e000ed08 	.word	0xe000ed08
 80079e8:	08007e00 	.word	0x08007e00
 80079ec:	e000ed14 	.word	0xe000ed14
 80079f0:	05fa0300 	.word	0x05fa0300
 80079f4:	e000ed24 	.word	0xe000ed24
 80079f8:	200024d0 	.word	0x200024d0
 80079fc:	200020d0 	.word	0x200020d0
 8007a00:	200003c4 	.word	0x200003c4
 8007a04:	200003b4 	.word	0x200003b4
 8007a08:	e000ed18 	.word	0xe000ed18
 8007a0c:	e000ed1c 	.word	0xe000ed1c
 8007a10:	e000ed20 	.word	0xe000ed20

08007a14 <system__bb__threads__thread_create>:
 8007a14:	b570      	push	{r4, r5, r6, lr}
 8007a16:	b084      	sub	sp, #16
 8007a18:	f89d 6020 	ldrb.w	r6, [sp, #32]
 8007a1c:	9d09      	ldr	r5, [sp, #36]	; 0x24
 8007a1e:	9c0a      	ldr	r4, [sp, #40]	; 0x28
 8007a20:	b672      	cpsid	i
 8007a22:	442c      	add	r4, r5
 8007a24:	f024 0407 	bic.w	r4, r4, #7
 8007a28:	9401      	str	r4, [sp, #4]
 8007a2a:	9600      	str	r6, [sp, #0]
 8007a2c:	9502      	str	r5, [sp, #8]
 8007a2e:	f7ff ff03 	bl	8007838 <system__bb__threads__initialize_thread>
 8007a32:	b004      	add	sp, #16
 8007a34:	e8bd 4070 	ldmia.w	sp!, {r4, r5, r6, lr}
 8007a38:	f7ff be04 	b.w	8007644 <system__bb__protection__leave_kernel>

08007a3c <system__bb__threads__queues__change_priority>:
 8007a3c:	6b43      	ldr	r3, [r0, #52]	; 0x34
 8007a3e:	428b      	cmp	r3, r1
 8007a40:	d011      	beq.n	8007a66 <system__bb__threads__queues__change_priority+0x2a>
 8007a42:	b470      	push	{r4, r5, r6}
 8007a44:	4e17      	ldr	r6, [pc, #92]	; (8007aa4 <system__bb__threads__queues__change_priority+0x68>)
 8007a46:	6341      	str	r1, [r0, #52]	; 0x34
 8007a48:	6834      	ldr	r4, [r6, #0]
 8007a4a:	4284      	cmp	r4, r0
 8007a4c:	d023      	beq.n	8007a96 <system__bb__threads__queues__change_priority+0x5a>
 8007a4e:	b14c      	cbz	r4, 8007a64 <system__bb__threads__queues__change_priority+0x28>
 8007a50:	6c23      	ldr	r3, [r4, #64]	; 0x40
 8007a52:	4283      	cmp	r3, r0
 8007a54:	d008      	beq.n	8007a68 <system__bb__threads__queues__change_priority+0x2c>
 8007a56:	b12b      	cbz	r3, 8007a64 <system__bb__threads__queues__change_priority+0x28>
 8007a58:	6c1a      	ldr	r2, [r3, #64]	; 0x40
 8007a5a:	4282      	cmp	r2, r0
 8007a5c:	d005      	beq.n	8007a6a <system__bb__threads__queues__change_priority+0x2e>
 8007a5e:	4613      	mov	r3, r2
 8007a60:	2b00      	cmp	r3, #0
 8007a62:	d1f9      	bne.n	8007a58 <system__bb__threads__queues__change_priority+0x1c>
 8007a64:	bc70      	pop	{r4, r5, r6}
 8007a66:	4770      	bx	lr
 8007a68:	4623      	mov	r3, r4
 8007a6a:	6c02      	ldr	r2, [r0, #64]	; 0x40
 8007a6c:	641a      	str	r2, [r3, #64]	; 0x40
 8007a6e:	6b63      	ldr	r3, [r4, #52]	; 0x34
 8007a70:	4299      	cmp	r1, r3
 8007a72:	db03      	blt.n	8007a7c <system__bb__threads__queues__change_priority+0x40>
 8007a74:	6404      	str	r4, [r0, #64]	; 0x40
 8007a76:	4604      	mov	r4, r0
 8007a78:	6034      	str	r4, [r6, #0]
 8007a7a:	e7f3      	b.n	8007a64 <system__bb__threads__queues__change_priority+0x28>
 8007a7c:	4622      	mov	r2, r4
 8007a7e:	e003      	b.n	8007a88 <system__bb__threads__queues__change_priority+0x4c>
 8007a80:	6b5d      	ldr	r5, [r3, #52]	; 0x34
 8007a82:	42a9      	cmp	r1, r5
 8007a84:	da03      	bge.n	8007a8e <system__bb__threads__queues__change_priority+0x52>
 8007a86:	461a      	mov	r2, r3
 8007a88:	6c13      	ldr	r3, [r2, #64]	; 0x40
 8007a8a:	2b00      	cmp	r3, #0
 8007a8c:	d1f8      	bne.n	8007a80 <system__bb__threads__queues__change_priority+0x44>
 8007a8e:	6403      	str	r3, [r0, #64]	; 0x40
 8007a90:	6034      	str	r4, [r6, #0]
 8007a92:	6410      	str	r0, [r2, #64]	; 0x40
 8007a94:	e7e6      	b.n	8007a64 <system__bb__threads__queues__change_priority+0x28>
 8007a96:	6c24      	ldr	r4, [r4, #64]	; 0x40
 8007a98:	2c00      	cmp	r4, #0
 8007a9a:	d0e3      	beq.n	8007a64 <system__bb__threads__queues__change_priority+0x28>
 8007a9c:	6b63      	ldr	r3, [r4, #52]	; 0x34
 8007a9e:	4299      	cmp	r1, r3
 8007aa0:	dbe5      	blt.n	8007a6e <system__bb__threads__queues__change_priority+0x32>
 8007aa2:	e7df      	b.n	8007a64 <system__bb__threads__queues__change_priority+0x28>
 8007aa4:	200003b8 	.word	0x200003b8

08007aa8 <system__bb__threads__queues__insert_alarm>:
 8007aa8:	e92d 43d0 	stmdb	sp!, {r4, r6, r7, r8, r9, lr}
 8007aac:	4606      	mov	r6, r0
 8007aae:	4610      	mov	r0, r2
 8007ab0:	4614      	mov	r4, r2
 8007ab2:	460f      	mov	r7, r1
 8007ab4:	f7ff feba 	bl	800782c <system__bb__threads__get_cpu>
 8007ab8:	b240      	sxtb	r0, r0
 8007aba:	f100 4380 	add.w	r3, r0, #1073741824	; 0x40000000
 8007abe:	4a11      	ldr	r2, [pc, #68]	; (8007b04 <system__bb__threads__queues__insert_alarm+0x5c>)
 8007ac0:	3b01      	subs	r3, #1
 8007ac2:	f852 1023 	ldr.w	r1, [r2, r3, lsl #2]
 8007ac6:	e9c4 6712 	strd	r6, r7, [r4, #72]	; 0x48
 8007aca:	b1a9      	cbz	r1, 8007af8 <system__bb__threads__queues__insert_alarm+0x50>
 8007acc:	e9d1 8912 	ldrd	r8, r9, [r1, #72]	; 0x48
 8007ad0:	454f      	cmp	r7, r9
 8007ad2:	bf08      	it	eq
 8007ad4:	4546      	cmpeq	r6, r8
 8007ad6:	d207      	bcs.n	8007ae8 <system__bb__threads__queues__insert_alarm+0x40>
 8007ad8:	e00e      	b.n	8007af8 <system__bb__threads__queues__insert_alarm+0x50>
 8007ada:	e9d3 8912 	ldrd	r8, r9, [r3, #72]	; 0x48
 8007ade:	45b9      	cmp	r9, r7
 8007ae0:	bf08      	it	eq
 8007ae2:	45b0      	cmpeq	r8, r6
 8007ae4:	d203      	bcs.n	8007aee <system__bb__threads__queues__insert_alarm+0x46>
 8007ae6:	4619      	mov	r1, r3
 8007ae8:	6d0b      	ldr	r3, [r1, #80]	; 0x50
 8007aea:	2b00      	cmp	r3, #0
 8007aec:	d1f5      	bne.n	8007ada <system__bb__threads__queues__insert_alarm+0x32>
 8007aee:	6523      	str	r3, [r4, #80]	; 0x50
 8007af0:	2000      	movs	r0, #0
 8007af2:	650c      	str	r4, [r1, #80]	; 0x50
 8007af4:	e8bd 83d0 	ldmia.w	sp!, {r4, r6, r7, r8, r9, pc}
 8007af8:	6521      	str	r1, [r4, #80]	; 0x50
 8007afa:	f842 4023 	str.w	r4, [r2, r3, lsl #2]
 8007afe:	2001      	movs	r0, #1
 8007b00:	e8bd 83d0 	ldmia.w	sp!, {r4, r6, r7, r8, r9, pc}
 8007b04:	200003c0 	.word	0x200003c0

08007b08 <system__bb__threads__queues__wakeup_expired_alarms>:
 8007b08:	e92d 47f0 	stmdb	sp!, {r4, r5, r6, r7, r8, r9, sl, lr}
 8007b0c:	4604      	mov	r4, r0
 8007b0e:	460d      	mov	r5, r1
 8007b10:	f8df a0dc 	ldr.w	sl, [pc, #220]	; 8007bf0 <system__bb__threads__queues__wakeup_expired_alarms+0xe8>
 8007b14:	f8df 90d4 	ldr.w	r9, [pc, #212]	; 8007bec <system__bb__threads__queues__wakeup_expired_alarms+0xe4>
 8007b18:	f04f 36ff 	mov.w	r6, #4294967295
 8007b1c:	f04f 37ff 	mov.w	r7, #4294967295
 8007b20:	f8da 8000 	ldr.w	r8, [sl]
 8007b24:	f1b8 0f00 	cmp.w	r8, #0
 8007b28:	d03d      	beq.n	8007ba6 <system__bb__threads__queues__wakeup_expired_alarms+0x9e>
 8007b2a:	e9d8 2312 	ldrd	r2, r3, [r8, #72]	; 0x48
 8007b2e:	429d      	cmp	r5, r3
 8007b30:	bf08      	it	eq
 8007b32:	4294      	cmpeq	r4, r2
 8007b34:	d33f      	bcc.n	8007bb6 <system__bb__threads__queues__wakeup_expired_alarms+0xae>
 8007b36:	f8d8 3050 	ldr.w	r3, [r8, #80]	; 0x50
 8007b3a:	2200      	movs	r2, #0
 8007b3c:	f8c8 2050 	str.w	r2, [r8, #80]	; 0x50
 8007b40:	f888 2054 	strb.w	r2, [r8, #84]	; 0x54
 8007b44:	e9c8 6712 	strd	r6, r7, [r8, #72]	; 0x48
 8007b48:	4640      	mov	r0, r8
 8007b4a:	f8ca 3000 	str.w	r3, [sl]
 8007b4e:	f7ff fe6d 	bl	800782c <system__bb__threads__get_cpu>
 8007b52:	b240      	sxtb	r0, r0
 8007b54:	f100 4080 	add.w	r0, r0, #1073741824	; 0x40000000
 8007b58:	3801      	subs	r0, #1
 8007b5a:	f859 2020 	ldr.w	r2, [r9, r0, lsl #2]
 8007b5e:	4b23      	ldr	r3, [pc, #140]	; (8007bec <system__bb__threads__queues__wakeup_expired_alarms+0xe4>)
 8007b60:	4590      	cmp	r8, r2
 8007b62:	d0dd      	beq.n	8007b20 <system__bb__threads__queues__wakeup_expired_alarms+0x18>
 8007b64:	f853 2020 	ldr.w	r2, [r3, r0, lsl #2]
 8007b68:	b362      	cbz	r2, 8007bc4 <system__bb__threads__queues__wakeup_expired_alarms+0xbc>
 8007b6a:	f8d8 1034 	ldr.w	r1, [r8, #52]	; 0x34
 8007b6e:	f853 2020 	ldr.w	r2, [r3, r0, lsl #2]
 8007b72:	6b52      	ldr	r2, [r2, #52]	; 0x34
 8007b74:	4291      	cmp	r1, r2
 8007b76:	dc25      	bgt.n	8007bc4 <system__bb__threads__queues__wakeup_expired_alarms+0xbc>
 8007b78:	f853 2020 	ldr.w	r2, [r3, r0, lsl #2]
 8007b7c:	e007      	b.n	8007b8e <system__bb__threads__queues__wakeup_expired_alarms+0x86>
 8007b7e:	4543      	cmp	r3, r8
 8007b80:	d027      	beq.n	8007bd2 <system__bb__threads__queues__wakeup_expired_alarms+0xca>
 8007b82:	6b58      	ldr	r0, [r3, #52]	; 0x34
 8007b84:	f8d8 1034 	ldr.w	r1, [r8, #52]	; 0x34
 8007b88:	4288      	cmp	r0, r1
 8007b8a:	db03      	blt.n	8007b94 <system__bb__threads__queues__wakeup_expired_alarms+0x8c>
 8007b8c:	461a      	mov	r2, r3
 8007b8e:	6c13      	ldr	r3, [r2, #64]	; 0x40
 8007b90:	2b00      	cmp	r3, #0
 8007b92:	d1f4      	bne.n	8007b7e <system__bb__threads__queues__wakeup_expired_alarms+0x76>
 8007b94:	f8c8 3040 	str.w	r3, [r8, #64]	; 0x40
 8007b98:	f8c2 8040 	str.w	r8, [r2, #64]	; 0x40
 8007b9c:	f8da 8000 	ldr.w	r8, [sl]
 8007ba0:	f1b8 0f00 	cmp.w	r8, #0
 8007ba4:	d1c1      	bne.n	8007b2a <system__bb__threads__queues__wakeup_expired_alarms+0x22>
 8007ba6:	f04f 33ff 	mov.w	r3, #4294967295
 8007baa:	f04f 32ff 	mov.w	r2, #4294967295
 8007bae:	429d      	cmp	r5, r3
 8007bb0:	bf08      	it	eq
 8007bb2:	4294      	cmpeq	r4, r2
 8007bb4:	d2bf      	bcs.n	8007b36 <system__bb__threads__queues__wakeup_expired_alarms+0x2e>
 8007bb6:	2001      	movs	r0, #1
 8007bb8:	f7ff f926 	bl	8006e08 <system__bb__time__get_next_timeout>
 8007bbc:	e8bd 47f0 	ldmia.w	sp!, {r4, r5, r6, r7, r8, r9, sl, lr}
 8007bc0:	f7ff b99c 	b.w	8006efc <system__bb__time__update_alarm>
 8007bc4:	f853 2020 	ldr.w	r2, [r3, r0, lsl #2]
 8007bc8:	f843 8020 	str.w	r8, [r3, r0, lsl #2]
 8007bcc:	f8c8 2040 	str.w	r2, [r8, #64]	; 0x40
 8007bd0:	e7a6      	b.n	8007b20 <system__bb__threads__queues__wakeup_expired_alarms+0x18>
 8007bd2:	f8d8 3040 	ldr.w	r3, [r8, #64]	; 0x40
 8007bd6:	6413      	str	r3, [r2, #64]	; 0x40
 8007bd8:	2b00      	cmp	r3, #0
 8007bda:	d0db      	beq.n	8007b94 <system__bb__threads__queues__wakeup_expired_alarms+0x8c>
 8007bdc:	6b58      	ldr	r0, [r3, #52]	; 0x34
 8007bde:	f8d8 1034 	ldr.w	r1, [r8, #52]	; 0x34
 8007be2:	4288      	cmp	r0, r1
 8007be4:	dbd6      	blt.n	8007b94 <system__bb__threads__queues__wakeup_expired_alarms+0x8c>
 8007be6:	461a      	mov	r2, r3
 8007be8:	6c1b      	ldr	r3, [r3, #64]	; 0x40
 8007bea:	e7f5      	b.n	8007bd8 <system__bb__threads__queues__wakeup_expired_alarms+0xd0>
 8007bec:	200003b8 	.word	0x200003b8
 8007bf0:	200003c0 	.word	0x200003c0

08007bf4 <system__bb__threads__queues__yield>:
 8007bf4:	b538      	push	{r3, r4, r5, lr}
 8007bf6:	4605      	mov	r5, r0
 8007bf8:	f7ff fe18 	bl	800782c <system__bb__threads__get_cpu>
 8007bfc:	6c2a      	ldr	r2, [r5, #64]	; 0x40
 8007bfe:	6b6b      	ldr	r3, [r5, #52]	; 0x34
 8007c00:	b112      	cbz	r2, 8007c08 <system__bb__threads__queues__yield+0x14>
 8007c02:	6b54      	ldr	r4, [r2, #52]	; 0x34
 8007c04:	429c      	cmp	r4, r3
 8007c06:	d000      	beq.n	8007c0a <system__bb__threads__queues__yield+0x16>
 8007c08:	bd38      	pop	{r3, r4, r5, pc}
 8007c0a:	b243      	sxtb	r3, r0
 8007c0c:	4909      	ldr	r1, [pc, #36]	; (8007c34 <system__bb__threads__queues__yield+0x40>)
 8007c0e:	f103 4380 	add.w	r3, r3, #1073741824	; 0x40000000
 8007c12:	3b01      	subs	r3, #1
 8007c14:	f841 2023 	str.w	r2, [r1, r3, lsl #2]
 8007c18:	f851 2023 	ldr.w	r2, [r1, r3, lsl #2]
 8007c1c:	e003      	b.n	8007c26 <system__bb__threads__queues__yield+0x32>
 8007c1e:	6b59      	ldr	r1, [r3, #52]	; 0x34
 8007c20:	428c      	cmp	r4, r1
 8007c22:	d103      	bne.n	8007c2c <system__bb__threads__queues__yield+0x38>
 8007c24:	461a      	mov	r2, r3
 8007c26:	6c13      	ldr	r3, [r2, #64]	; 0x40
 8007c28:	2b00      	cmp	r3, #0
 8007c2a:	d1f8      	bne.n	8007c1e <system__bb__threads__queues__yield+0x2a>
 8007c2c:	642b      	str	r3, [r5, #64]	; 0x40
 8007c2e:	6415      	str	r5, [r2, #64]	; 0x40
 8007c30:	bd38      	pop	{r3, r4, r5, pc}
 8007c32:	bf00      	nop
 8007c34:	200003b8 	.word	0x200003b8
	...

08007e00 <__vectors>:
 8007e00:	00000000 	.word	0x00000000
 8007e04:	08007f91 	.word	0x08007f91
 8007e08:	08007f91 	.word	0x08007f91
 8007e0c:	08007f91 	.word	0x08007f91
 8007e10:	08007f91 	.word	0x08007f91
 8007e14:	08007f91 	.word	0x08007f91
 8007e18:	08007f91 	.word	0x08007f91
 8007e1c:	08007f91 	.word	0x08007f91
 8007e20:	08007f91 	.word	0x08007f91
 8007e24:	08007f91 	.word	0x08007f91
 8007e28:	08007f91 	.word	0x08007f91
 8007e2c:	080074d5 	.word	0x080074d5
 8007e30:	08007f91 	.word	0x08007f91
 8007e34:	08007f91 	.word	0x08007f91
 8007e38:	080074ad 	.word	0x080074ad
 8007e3c:	080074dd 	.word	0x080074dd
 8007e40:	08007459 	.word	0x08007459
 8007e44:	08007459 	.word	0x08007459
 8007e48:	08007459 	.word	0x08007459
 8007e4c:	08007459 	.word	0x08007459
 8007e50:	08007459 	.word	0x08007459
 8007e54:	08007459 	.word	0x08007459
 8007e58:	08007459 	.word	0x08007459
 8007e5c:	08007459 	.word	0x08007459
 8007e60:	08007459 	.word	0x08007459
 8007e64:	08007459 	.word	0x08007459
 8007e68:	08007459 	.word	0x08007459
 8007e6c:	08007459 	.word	0x08007459
 8007e70:	08007459 	.word	0x08007459
 8007e74:	08007459 	.word	0x08007459
 8007e78:	08007459 	.word	0x08007459
 8007e7c:	08007459 	.word	0x08007459
 8007e80:	08007459 	.word	0x08007459
 8007e84:	08007459 	.word	0x08007459
 8007e88:	08007459 	.word	0x08007459
 8007e8c:	08007459 	.word	0x08007459
 8007e90:	08007459 	.word	0x08007459
 8007e94:	08007459 	.word	0x08007459
 8007e98:	08007459 	.word	0x08007459
 8007e9c:	08007459 	.word	0x08007459
 8007ea0:	08007459 	.word	0x08007459
 8007ea4:	08007459 	.word	0x08007459
 8007ea8:	08007459 	.word	0x08007459
 8007eac:	08007459 	.word	0x08007459
 8007eb0:	08007459 	.word	0x08007459
 8007eb4:	08007459 	.word	0x08007459
 8007eb8:	08007459 	.word	0x08007459
 8007ebc:	08007459 	.word	0x08007459
 8007ec0:	08007459 	.word	0x08007459
 8007ec4:	08007459 	.word	0x08007459
 8007ec8:	08007459 	.word	0x08007459
 8007ecc:	08007459 	.word	0x08007459
 8007ed0:	08007459 	.word	0x08007459
 8007ed4:	08007459 	.word	0x08007459
 8007ed8:	08007459 	.word	0x08007459
 8007edc:	08007459 	.word	0x08007459
 8007ee0:	08007459 	.word	0x08007459
 8007ee4:	08007459 	.word	0x08007459
 8007ee8:	08007459 	.word	0x08007459
 8007eec:	08007459 	.word	0x08007459
 8007ef0:	08007459 	.word	0x08007459
 8007ef4:	08007459 	.word	0x08007459
 8007ef8:	08007459 	.word	0x08007459
 8007efc:	08007459 	.word	0x08007459
 8007f00:	08007459 	.word	0x08007459
 8007f04:	08007459 	.word	0x08007459
 8007f08:	08007459 	.word	0x08007459
 8007f0c:	08007459 	.word	0x08007459
 8007f10:	08007459 	.word	0x08007459
 8007f14:	08007459 	.word	0x08007459
 8007f18:	08007459 	.word	0x08007459
 8007f1c:	08007459 	.word	0x08007459
 8007f20:	08007459 	.word	0x08007459
 8007f24:	08007459 	.word	0x08007459
 8007f28:	08007459 	.word	0x08007459
 8007f2c:	08007459 	.word	0x08007459
 8007f30:	08007459 	.word	0x08007459
 8007f34:	08007459 	.word	0x08007459
 8007f38:	08007459 	.word	0x08007459
 8007f3c:	08007459 	.word	0x08007459
 8007f40:	08007459 	.word	0x08007459
 8007f44:	08007459 	.word	0x08007459
 8007f48:	08007459 	.word	0x08007459
 8007f4c:	08007459 	.word	0x08007459
 8007f50:	08007459 	.word	0x08007459
 8007f54:	08007459 	.word	0x08007459
 8007f58:	08007459 	.word	0x08007459
 8007f5c:	08007459 	.word	0x08007459
 8007f60:	08007459 	.word	0x08007459
 8007f64:	08007459 	.word	0x08007459
 8007f68:	08007459 	.word	0x08007459
 8007f6c:	08007459 	.word	0x08007459
 8007f70:	08007459 	.word	0x08007459
 8007f74:	08007459 	.word	0x08007459
 8007f78:	08007459 	.word	0x08007459
 8007f7c:	08007459 	.word	0x08007459
 8007f80:	08007459 	.word	0x08007459
 8007f84:	08007459 	.word	0x08007459
 8007f88:	e7fe      	b.n	8007f88 <__vectors+0x188>
 8007f8a:	e7fe      	b.n	8007f8a <__vectors+0x18a>
 8007f8c:	e7fe      	b.n	8007f8c <__vectors+0x18c>
 8007f8e:	e7fe      	b.n	8007f8e <__vectors+0x18e>

08007f90 <fault>:
 8007f90:	e7fe      	b.n	8007f90 <fault>
 8007f92:	bf00      	nop

08007f94 <_start_rom>:
 8007f94:	f000 f884 	bl	80080a0 <_stm32_start_common>
 8007f98:	f240 0000 	movw	r0, #0
 8007f9c:	f2c2 0000 	movt	r0, #8192	; 0x2000
 8007fa0:	f240 01f6 	movw	r1, #246	; 0xf6
 8007fa4:	f64a 12ac 	movw	r2, #43436	; 0xa9ac
 8007fa8:	f6c0 0200 	movt	r2, #2048	; 0x800
 8007fac:	b129      	cbz	r1, 8007fba <_start_rom+0x26>
 8007fae:	f852 4b04 	ldr.w	r4, [r2], #4
 8007fb2:	f840 4b04 	str.w	r4, [r0], #4
 8007fb6:	3901      	subs	r1, #1
 8007fb8:	d1f9      	bne.n	8007fae <_start_rom+0x1a>
 8007fba:	f240 30d8 	movw	r0, #984	; 0x3d8
 8007fbe:	f2c2 0000 	movt	r0, #8192	; 0x2000
 8007fc2:	f240 0100 	movw	r1, #0
 8007fc6:	f64a 5284 	movw	r2, #44420	; 0xad84
 8007fca:	f6c0 0200 	movt	r2, #2048	; 0x800
 8007fce:	b129      	cbz	r1, 8007fdc <_start_rom+0x48>
 8007fd0:	f852 4b04 	ldr.w	r4, [r2], #4
 8007fd4:	f840 4b04 	str.w	r4, [r0], #4
 8007fd8:	3901      	subs	r1, #1
 8007fda:	d1f9      	bne.n	8007fd0 <_start_rom+0x3c>
 8007fdc:	f240 30d8 	movw	r0, #984	; 0x3d8
 8007fe0:	f2c2 0000 	movt	r0, #8192	; 0x2000
 8007fe4:	f240 513e 	movw	r1, #1342	; 0x53e
 8007fe8:	f04f 0200 	mov.w	r2, #0
 8007fec:	b119      	cbz	r1, 8007ff6 <_start_rom+0x62>
 8007fee:	f840 2b04 	str.w	r2, [r0], #4
 8007ff2:	3901      	subs	r1, #1
 8007ff4:	d1fb      	bne.n	8007fee <_start_rom+0x5a>
 8007ff6:	4925      	ldr	r1, [pc, #148]	; (800808c <hang+0x4>)
 8007ff8:	6a48      	ldr	r0, [r1, #36]	; 0x24
 8007ffa:	f440 2080 	orr.w	r0, r0, #262144	; 0x40000
 8007ffe:	6248      	str	r0, [r1, #36]	; 0x24
 8008000:	f04f 0200 	mov.w	r2, #0
 8008004:	f8c1 2098 	str.w	r2, [r1, #152]	; 0x98
 8008008:	2200      	movs	r2, #0
 800800a:	f8c1 209c 	str.w	r2, [r1, #156]	; 0x9c
 800800e:	4a20      	ldr	r2, [pc, #128]	; (8008090 <hang+0x8>)
 8008010:	f8c1 20a0 	str.w	r2, [r1, #160]	; 0xa0
 8008014:	f04f 0201 	mov.w	r2, #1
 8008018:	f8c1 2098 	str.w	r2, [r1, #152]	; 0x98
 800801c:	f04f 6200 	mov.w	r2, #134217728	; 0x8000000
 8008020:	f8c1 209c 	str.w	r2, [r1, #156]	; 0x9c
 8008024:	4a1a      	ldr	r2, [pc, #104]	; (8008090 <hang+0x8>)
 8008026:	f8c1 20a0 	str.w	r2, [r1, #160]	; 0xa0
 800802a:	f04f 0202 	mov.w	r2, #2
 800802e:	f8c1 2098 	str.w	r2, [r1, #152]	; 0x98
 8008032:	f04f 5200 	mov.w	r2, #536870912	; 0x20000000
 8008036:	f8c1 209c 	str.w	r2, [r1, #156]	; 0x9c
 800803a:	4a16      	ldr	r2, [pc, #88]	; (8008094 <hang+0xc>)
 800803c:	f8c1 20a0 	str.w	r2, [r1, #160]	; 0xa0
 8008040:	f04f 0203 	mov.w	r2, #3
 8008044:	f8c1 2098 	str.w	r2, [r1, #152]	; 0x98
 8008048:	f04f 4280 	mov.w	r2, #1073741824	; 0x40000000
 800804c:	f8c1 209c 	str.w	r2, [r1, #156]	; 0x9c
 8008050:	4a11      	ldr	r2, [pc, #68]	; (8008098 <hang+0x10>)
 8008052:	f8c1 20a0 	str.w	r2, [r1, #160]	; 0xa0
 8008056:	f04f 0204 	mov.w	r2, #4
 800805a:	f8c1 2098 	str.w	r2, [r1, #152]	; 0x98
 800805e:	f04f 4260 	mov.w	r2, #3758096384	; 0xe0000000
 8008062:	f8c1 209c 	str.w	r2, [r1, #156]	; 0x9c
 8008066:	4a0d      	ldr	r2, [pc, #52]	; (800809c <hang+0x14>)
 8008068:	f8c1 20a0 	str.w	r2, [r1, #160]	; 0xa0
 800806c:	f04f 0201 	mov.w	r2, #1
 8008070:	f3bf 8f4f 	dsb	sy
 8008074:	f8c1 2094 	str.w	r2, [r1, #148]	; 0x94
 8008078:	f3bf 8f6f 	isb	sy
 800807c:	f000 f8e4 	bl	8008248 <_ada_setup_pll>
 8008080:	f7f8 f960 	bl	8000344 <main>
 8008084:	f000 f8d8 	bl	8008238 <_exit>

08008088 <hang>:
 8008088:	e7fe      	b.n	8008088 <hang>
 800808a:	0000      	.short	0x0000
 800808c:	e000ed00 	.word	0xe000ed00
 8008090:	03000021 	.word	0x03000021
 8008094:	1300001d 	.word	0x1300001d
 8008098:	13000039 	.word	0x13000039
 800809c:	1300001f 	.word	0x1300001f

080080a0 <_stm32_start_common>:
 80080a0:	f64e 5088 	movw	r0, #60808	; 0xed88
 80080a4:	f2ce 0000 	movt	r0, #57344	; 0xe000
 80080a8:	6801      	ldr	r1, [r0, #0]
 80080aa:	f441 0170 	orr.w	r1, r1, #15728640	; 0xf00000
 80080ae:	6001      	str	r1, [r0, #0]
 80080b0:	f3bf 8f4f 	dsb	sy
 80080b4:	f3bf 8f6f 	isb	sy
 80080b8:	4829      	ldr	r0, [pc, #164]	; (8008160 <end+0x4>)
 80080ba:	6801      	ldr	r1, [r0, #0]
 80080bc:	f640 72ff 	movw	r2, #4095	; 0xfff
 80080c0:	ea01 0102 	and.w	r1, r1, r2
 80080c4:	f240 4249 	movw	r2, #1097	; 0x449
 80080c8:	4291      	cmp	r1, r2
 80080ca:	d147      	bne.n	800815c <end>

080080cc <dcache_invalidate>:
 80080cc:	f04f 0100 	mov.w	r1, #0
 80080d0:	4824      	ldr	r0, [pc, #144]	; (8008164 <end+0x8>)
 80080d2:	6001      	str	r1, [r0, #0]
 80080d4:	f3bf 8f4f 	dsb	sy
 80080d8:	4823      	ldr	r0, [pc, #140]	; (8008168 <end+0xc>)
 80080da:	6802      	ldr	r2, [r0, #0]
 80080dc:	f002 0107 	and.w	r1, r2, #7
 80080e0:	f101 0704 	add.w	r7, r1, #4
 80080e4:	f3c2 04c9 	ubfx	r4, r2, #3, #10
 80080e8:	f3c2 324e 	ubfx	r2, r2, #13, #15
 80080ec:	fab4 f684 	clz	r6, r4
 80080f0:	481e      	ldr	r0, [pc, #120]	; (800816c <end+0x10>)

080080f2 <inv_loop1>:
 80080f2:	4621      	mov	r1, r4
 80080f4:	fa12 f807 	lsls.w	r8, r2, r7

080080f8 <inv_loop2>:
 80080f8:	fa11 f306 	lsls.w	r3, r1, r6
 80080fc:	ea53 0308 	orrs.w	r3, r3, r8
 8008100:	6003      	str	r3, [r0, #0]
 8008102:	3901      	subs	r1, #1
 8008104:	daf8      	bge.n	80080f8 <inv_loop2>
 8008106:	3a01      	subs	r2, #1
 8008108:	daf3      	bge.n	80080f2 <inv_loop1>
 800810a:	f3bf 8f4f 	dsb	sy
 800810e:	f3bf 8f6f 	isb	sy

08008112 <icache_invalidate>:
 8008112:	f04f 0100 	mov.w	r1, #0
 8008116:	4816      	ldr	r0, [pc, #88]	; (8008170 <end+0x14>)
 8008118:	6001      	str	r1, [r0, #0]
 800811a:	f3bf 8f4f 	dsb	sy
 800811e:	f3bf 8f6f 	isb	sy
 8008122:	4814      	ldr	r0, [pc, #80]	; (8008174 <end+0x18>)
 8008124:	6801      	ldr	r1, [r0, #0]
 8008126:	f441 3180 	orr.w	r1, r1, #65536	; 0x10000
 800812a:	f441 3100 	orr.w	r1, r1, #131072	; 0x20000
 800812e:	6001      	str	r1, [r0, #0]
 8008130:	f3bf 8f4f 	dsb	sy
 8008134:	f3bf 8f6f 	isb	sy
 8008138:	f3bf 8f4f 	dsb	sy
 800813c:	f3bf 8f6f 	isb	sy
 8008140:	480d      	ldr	r0, [pc, #52]	; (8008178 <end+0x1c>)
 8008142:	6801      	ldr	r1, [r0, #0]
 8008144:	f041 0101 	orr.w	r1, r1, #1
 8008148:	6001      	str	r1, [r0, #0]
 800814a:	480c      	ldr	r0, [pc, #48]	; (800817c <end+0x20>)
 800814c:	6801      	ldr	r1, [r0, #0]
 800814e:	f041 0101 	orr.w	r1, r1, #1
 8008152:	6001      	str	r1, [r0, #0]
 8008154:	f3bf 8f4f 	dsb	sy
 8008158:	f3bf 8f6f 	isb	sy

0800815c <end>:
 800815c:	4770      	bx	lr
 800815e:	0000      	.short	0x0000
 8008160:	e0042000 	.word	0xe0042000
 8008164:	e000ed84 	.word	0xe000ed84
 8008168:	e000ed80 	.word	0xe000ed80
 800816c:	e000ef60 	.word	0xe000ef60
 8008170:	e000ef50 	.word	0xe000ef50
 8008174:	e000ed14 	.word	0xe000ed14
 8008178:	e000ef90 	.word	0xe000ef90
 800817c:	e000ef94 	.word	0xe000ef94

08008180 <ada__text_io___elabb>:
 8008180:	4b02      	ldr	r3, [pc, #8]	; (800818c <ada__text_io___elabb+0xc>)
 8008182:	781b      	ldrb	r3, [r3, #0]
 8008184:	b103      	cbz	r3, 8008188 <ada__text_io___elabb+0x8>
 8008186:	4770      	bx	lr
 8008188:	f000 b996 	b.w	80084b8 <system__text_io__initialize>
 800818c:	200003d2 	.word	0x200003d2

08008190 <system__img_uns__set_image_unsigned>:
 8008190:	b5f0      	push	{r4, r5, r6, r7, lr}
 8008192:	2809      	cmp	r0, #9
 8008194:	b083      	sub	sp, #12
 8008196:	4601      	mov	r1, r0
 8008198:	681d      	ldr	r5, [r3, #0]
 800819a:	d806      	bhi.n	80081aa <system__img_uns__set_image_unsigned+0x1a>
 800819c:	9b08      	ldr	r3, [sp, #32]
 800819e:	3130      	adds	r1, #48	; 0x30
 80081a0:	1c58      	adds	r0, r3, #1
 80081a2:	1b45      	subs	r5, r0, r5
 80081a4:	5551      	strb	r1, [r2, r5]
 80081a6:	b003      	add	sp, #12
 80081a8:	bdf0      	pop	{r4, r5, r6, r7, pc}
 80081aa:	9908      	ldr	r1, [sp, #32]
 80081ac:	4f09      	ldr	r7, [pc, #36]	; (80081d4 <system__img_uns__set_image_unsigned+0x44>)
 80081ae:	9100      	str	r1, [sp, #0]
 80081b0:	fba7 1700 	umull	r1, r7, r7, r0
 80081b4:	08ff      	lsrs	r7, r7, #3
 80081b6:	4604      	mov	r4, r0
 80081b8:	4638      	mov	r0, r7
 80081ba:	4616      	mov	r6, r2
 80081bc:	f7ff ffe8 	bl	8008190 <system__img_uns__set_image_unsigned>
 80081c0:	eb07 0187 	add.w	r1, r7, r7, lsl #2
 80081c4:	3001      	adds	r0, #1
 80081c6:	eba4 0141 	sub.w	r1, r4, r1, lsl #1
 80081ca:	1b45      	subs	r5, r0, r5
 80081cc:	3130      	adds	r1, #48	; 0x30
 80081ce:	5571      	strb	r1, [r6, r5]
 80081d0:	b003      	add	sp, #12
 80081d2:	bdf0      	pop	{r4, r5, r6, r7, pc}
 80081d4:	cccccccd 	.word	0xcccccccd

080081d8 <memcpy>:
 80081d8:	ea40 0301 	orr.w	r3, r0, r1
 80081dc:	079b      	lsls	r3, r3, #30
 80081de:	b4f0      	push	{r4, r5, r6, r7}
 80081e0:	d11c      	bne.n	800821c <memcpy+0x44>
 80081e2:	2a03      	cmp	r2, #3
 80081e4:	d91a      	bls.n	800821c <memcpy+0x44>
 80081e6:	4605      	mov	r5, r0
 80081e8:	1f13      	subs	r3, r2, #4
 80081ea:	460c      	mov	r4, r1
 80081ec:	f023 0703 	bic.w	r7, r3, #3
 80081f0:	3104      	adds	r1, #4
 80081f2:	4439      	add	r1, r7
 80081f4:	f854 6b04 	ldr.w	r6, [r4], #4
 80081f8:	428c      	cmp	r4, r1
 80081fa:	f845 6b04 	str.w	r6, [r5], #4
 80081fe:	d1f9      	bne.n	80081f4 <memcpy+0x1c>
 8008200:	1d03      	adds	r3, r0, #4
 8008202:	f002 0203 	and.w	r2, r2, #3
 8008206:	443b      	add	r3, r7
 8008208:	b132      	cbz	r2, 8008218 <memcpy+0x40>
 800820a:	440a      	add	r2, r1
 800820c:	f811 4b01 	ldrb.w	r4, [r1], #1
 8008210:	4291      	cmp	r1, r2
 8008212:	f803 4b01 	strb.w	r4, [r3], #1
 8008216:	d1f9      	bne.n	800820c <memcpy+0x34>
 8008218:	bcf0      	pop	{r4, r5, r6, r7}
 800821a:	4770      	bx	lr
 800821c:	4603      	mov	r3, r0
 800821e:	e7f3      	b.n	8008208 <memcpy+0x30>

08008220 <system__parameters__adjust_storage_size>:
 8008220:	f1b0 4f00 	cmp.w	r0, #2147483648	; 0x80000000
 8008224:	bf08      	it	eq
 8008226:	f44f 5080 	moveq.w	r0, #4096	; 0x1000
 800822a:	4770      	bx	lr

0800822c <system__secondary_stack__ss_init>:
 800822c:	3908      	subs	r1, #8
 800822e:	2301      	movs	r3, #1
 8008230:	6041      	str	r1, [r0, #4]
 8008232:	6003      	str	r3, [r0, #0]
 8008234:	4770      	bx	lr
 8008236:	bf00      	nop

08008238 <_exit>:
 8008238:	4b01      	ldr	r3, [pc, #4]	; (8008240 <_exit+0x8>)
 800823a:	4a02      	ldr	r2, [pc, #8]	; (8008244 <_exit+0xc>)
 800823c:	601a      	str	r2, [r3, #0]
 800823e:	e7fe      	b.n	800823e <_exit+0x6>
 8008240:	e000ed0c 	.word	0xe000ed0c
 8008244:	05fa0004 	.word	0x05fa0004

08008248 <_ada_setup_pll>:
 8008248:	b530      	push	{r4, r5, lr}
 800824a:	4c96      	ldr	r4, [pc, #600]	; (80084a4 <_ada_setup_pll+0x25c>)
 800824c:	b085      	sub	sp, #20
 800824e:	6823      	ldr	r3, [r4, #0]
 8008250:	4d95      	ldr	r5, [pc, #596]	; (80084a8 <_ada_setup_pll+0x260>)
 8008252:	f043 0301 	orr.w	r3, r3, #1
 8008256:	6023      	str	r3, [r4, #0]
 8008258:	9a01      	ldr	r2, [sp, #4]
 800825a:	4994      	ldr	r1, [pc, #592]	; (80084ac <_ada_setup_pll+0x264>)
 800825c:	f36f 0201 	bfc	r2, #0, #2
 8008260:	9201      	str	r2, [sp, #4]
 8008262:	9a01      	ldr	r2, [sp, #4]
 8008264:	4b92      	ldr	r3, [pc, #584]	; (80084b0 <_ada_setup_pll+0x268>)
 8008266:	f36f 0283 	bfc	r2, #2, #2
 800826a:	9201      	str	r2, [sp, #4]
 800826c:	9a01      	ldr	r2, [sp, #4]
 800826e:	f36f 1207 	bfc	r2, #4, #4
 8008272:	9201      	str	r2, [sp, #4]
 8008274:	9a01      	ldr	r2, [sp, #4]
 8008276:	f36f 220d 	bfc	r2, #8, #6
 800827a:	9201      	str	r2, [sp, #4]
 800827c:	9a01      	ldr	r2, [sp, #4]
 800827e:	f36f 328f 	bfc	r2, #14, #2
 8008282:	9201      	str	r2, [sp, #4]
 8008284:	9a01      	ldr	r2, [sp, #4]
 8008286:	f36f 4210 	bfc	r2, #16, #1
 800828a:	9201      	str	r2, [sp, #4]
 800828c:	9a01      	ldr	r2, [sp, #4]
 800828e:	f36f 4251 	bfc	r2, #17, #1
 8008292:	9201      	str	r2, [sp, #4]
 8008294:	9a01      	ldr	r2, [sp, #4]
 8008296:	f36f 4295 	bfc	r2, #18, #4
 800829a:	9201      	str	r2, [sp, #4]
 800829c:	9a01      	ldr	r2, [sp, #4]
 800829e:	f36f 5296 	bfc	r2, #22, #1
 80082a2:	9201      	str	r2, [sp, #4]
 80082a4:	9a01      	ldr	r2, [sp, #4]
 80082a6:	f36f 52d7 	bfc	r2, #23, #1
 80082aa:	9201      	str	r2, [sp, #4]
 80082ac:	9a01      	ldr	r2, [sp, #4]
 80082ae:	f36f 621a 	bfc	r2, #24, #3
 80082b2:	9201      	str	r2, [sp, #4]
 80082b4:	9a01      	ldr	r2, [sp, #4]
 80082b6:	f36f 62df 	bfc	r2, #27, #5
 80082ba:	9201      	str	r2, [sp, #4]
 80082bc:	9a01      	ldr	r2, [sp, #4]
 80082be:	602a      	str	r2, [r5, #0]
 80082c0:	6822      	ldr	r2, [r4, #0]
 80082c2:	f36f 4210 	bfc	r2, #16, #1
 80082c6:	6022      	str	r2, [r4, #0]
 80082c8:	6822      	ldr	r2, [r4, #0]
 80082ca:	f36f 42d3 	bfc	r2, #19, #1
 80082ce:	6022      	str	r2, [r4, #0]
 80082d0:	6822      	ldr	r2, [r4, #0]
 80082d2:	f36f 6218 	bfc	r2, #24, #1
 80082d6:	6022      	str	r2, [r4, #0]
 80082d8:	6822      	ldr	r2, [r4, #0]
 80082da:	f36f 4292 	bfc	r2, #18, #1
 80082de:	6022      	str	r2, [r4, #0]
 80082e0:	9a00      	ldr	r2, [sp, #0]
 80082e2:	f36f 0200 	bfc	r2, #0, #1
 80082e6:	9200      	str	r2, [sp, #0]
 80082e8:	9a00      	ldr	r2, [sp, #0]
 80082ea:	f36f 0241 	bfc	r2, #1, #1
 80082ee:	9200      	str	r2, [sp, #0]
 80082f0:	9a00      	ldr	r2, [sp, #0]
 80082f2:	f36f 0282 	bfc	r2, #2, #1
 80082f6:	9200      	str	r2, [sp, #0]
 80082f8:	9a00      	ldr	r2, [sp, #0]
 80082fa:	f36f 02c3 	bfc	r2, #3, #1
 80082fe:	9200      	str	r2, [sp, #0]
 8008300:	9a00      	ldr	r2, [sp, #0]
 8008302:	f36f 1204 	bfc	r2, #4, #1
 8008306:	9200      	str	r2, [sp, #0]
 8008308:	9a00      	ldr	r2, [sp, #0]
 800830a:	f36f 1246 	bfc	r2, #5, #2
 800830e:	9200      	str	r2, [sp, #0]
 8008310:	9a00      	ldr	r2, [sp, #0]
 8008312:	f36f 12c7 	bfc	r2, #7, #1
 8008316:	9200      	str	r2, [sp, #0]
 8008318:	9a00      	ldr	r2, [sp, #0]
 800831a:	f36f 2208 	bfc	r2, #8, #1
 800831e:	9200      	str	r2, [sp, #0]
 8008320:	9a00      	ldr	r2, [sp, #0]
 8008322:	f36f 2249 	bfc	r2, #9, #1
 8008326:	9200      	str	r2, [sp, #0]
 8008328:	9a00      	ldr	r2, [sp, #0]
 800832a:	f36f 228a 	bfc	r2, #10, #1
 800832e:	9200      	str	r2, [sp, #0]
 8008330:	9a00      	ldr	r2, [sp, #0]
 8008332:	f36f 22cb 	bfc	r2, #11, #1
 8008336:	9200      	str	r2, [sp, #0]
 8008338:	9a00      	ldr	r2, [sp, #0]
 800833a:	f36f 320c 	bfc	r2, #12, #1
 800833e:	9200      	str	r2, [sp, #0]
 8008340:	9a00      	ldr	r2, [sp, #0]
 8008342:	f36f 324f 	bfc	r2, #13, #3
 8008346:	9200      	str	r2, [sp, #0]
 8008348:	9a00      	ldr	r2, [sp, #0]
 800834a:	f36f 4210 	bfc	r2, #16, #1
 800834e:	9200      	str	r2, [sp, #0]
 8008350:	9a00      	ldr	r2, [sp, #0]
 8008352:	f36f 4251 	bfc	r2, #17, #1
 8008356:	9200      	str	r2, [sp, #0]
 8008358:	9a00      	ldr	r2, [sp, #0]
 800835a:	f36f 4292 	bfc	r2, #18, #1
 800835e:	9200      	str	r2, [sp, #0]
 8008360:	9a00      	ldr	r2, [sp, #0]
 8008362:	f36f 42d3 	bfc	r2, #19, #1
 8008366:	9200      	str	r2, [sp, #0]
 8008368:	9a00      	ldr	r2, [sp, #0]
 800836a:	f36f 5214 	bfc	r2, #20, #1
 800836e:	9200      	str	r2, [sp, #0]
 8008370:	9a00      	ldr	r2, [sp, #0]
 8008372:	f36f 5256 	bfc	r2, #21, #2
 8008376:	9200      	str	r2, [sp, #0]
 8008378:	9a00      	ldr	r2, [sp, #0]
 800837a:	f36f 52d7 	bfc	r2, #23, #1
 800837e:	9200      	str	r2, [sp, #0]
 8008380:	9a00      	ldr	r2, [sp, #0]
 8008382:	f36f 621f 	bfc	r2, #24, #8
 8008386:	9200      	str	r2, [sp, #0]
 8008388:	9a00      	ldr	r2, [sp, #0]
 800838a:	600a      	str	r2, [r1, #0]
 800838c:	681a      	ldr	r2, [r3, #0]
 800838e:	f042 0220 	orr.w	r2, r2, #32
 8008392:	601a      	str	r2, [r3, #0]
 8008394:	681a      	ldr	r2, [r3, #0]
 8008396:	f042 0201 	orr.w	r2, r2, #1
 800839a:	601a      	str	r2, [r3, #0]
 800839c:	f000 f978 	bl	8008690 <system__bb__mcu_parameters__pwr_initialize>
 80083a0:	6823      	ldr	r3, [r4, #0]
 80083a2:	f443 3380 	orr.w	r3, r3, #65536	; 0x10000
 80083a6:	6023      	str	r3, [r4, #0]
 80083a8:	6823      	ldr	r3, [r4, #0]
 80083aa:	f36f 4392 	bfc	r3, #18, #1
 80083ae:	6023      	str	r3, [r4, #0]
 80083b0:	6823      	ldr	r3, [r4, #0]
 80083b2:	039a      	lsls	r2, r3, #14
 80083b4:	d5fc      	bpl.n	80083b0 <_ada_setup_pll+0x168>
 80083b6:	6823      	ldr	r3, [r4, #0]
 80083b8:	2207      	movs	r2, #7
 80083ba:	f36f 6318 	bfc	r3, #24, #1
 80083be:	6023      	str	r3, [r4, #0]
 80083c0:	682b      	ldr	r3, [r5, #0]
 80083c2:	f443 3380 	orr.w	r3, r3, #65536	; 0x10000
 80083c6:	602b      	str	r3, [r5, #0]
 80083c8:	682b      	ldr	r3, [r5, #0]
 80083ca:	f362 4395 	bfi	r3, r2, #18, #4
 80083ce:	602b      	str	r3, [r5, #0]
 80083d0:	6823      	ldr	r3, [r4, #0]
 80083d2:	f043 7380 	orr.w	r3, r3, #16777216	; 0x1000000
 80083d6:	6023      	str	r3, [r4, #0]
 80083d8:	6823      	ldr	r3, [r4, #0]
 80083da:	019b      	lsls	r3, r3, #6
 80083dc:	d5fc      	bpl.n	80083d8 <_ada_setup_pll+0x190>
 80083de:	9b03      	ldr	r3, [sp, #12]
 80083e0:	2202      	movs	r2, #2
 80083e2:	f362 0302 	bfi	r3, r2, #0, #3
 80083e6:	9303      	str	r3, [sp, #12]
 80083e8:	9b03      	ldr	r3, [sp, #12]
 80083ea:	4932      	ldr	r1, [pc, #200]	; (80084b4 <_ada_setup_pll+0x26c>)
 80083ec:	f36f 03c3 	bfc	r3, #3, #1
 80083f0:	9303      	str	r3, [sp, #12]
 80083f2:	9b03      	ldr	r3, [sp, #12]
 80083f4:	f043 0310 	orr.w	r3, r3, #16
 80083f8:	9303      	str	r3, [sp, #12]
 80083fa:	9b03      	ldr	r3, [sp, #12]
 80083fc:	f043 0320 	orr.w	r3, r3, #32
 8008400:	9303      	str	r3, [sp, #12]
 8008402:	9b03      	ldr	r3, [sp, #12]
 8008404:	f36f 139f 	bfc	r3, #6, #26
 8008408:	9303      	str	r3, [sp, #12]
 800840a:	9b03      	ldr	r3, [sp, #12]
 800840c:	600b      	str	r3, [r1, #0]
 800840e:	9b02      	ldr	r3, [sp, #8]
 8008410:	f362 0301 	bfi	r3, r2, #0, #2
 8008414:	9302      	str	r3, [sp, #8]
 8008416:	9b02      	ldr	r3, [sp, #8]
 8008418:	f36f 0383 	bfc	r3, #2, #2
 800841c:	9302      	str	r3, [sp, #8]
 800841e:	9b02      	ldr	r3, [sp, #8]
 8008420:	f36f 1307 	bfc	r3, #4, #4
 8008424:	9302      	str	r3, [sp, #8]
 8008426:	9b02      	ldr	r3, [sp, #8]
 8008428:	f36f 230d 	bfc	r3, #8, #6
 800842c:	9302      	str	r3, [sp, #8]
 800842e:	9a02      	ldr	r2, [sp, #8]
 8008430:	9b02      	ldr	r3, [sp, #8]
 8008432:	f3c3 2305 	ubfx	r3, r3, #8, #6
 8008436:	f023 0307 	bic.w	r3, r3, #7
 800843a:	f043 0304 	orr.w	r3, r3, #4
 800843e:	f363 220d 	bfi	r2, r3, #8, #6
 8008442:	9202      	str	r2, [sp, #8]
 8008444:	9b02      	ldr	r3, [sp, #8]
 8008446:	9a02      	ldr	r2, [sp, #8]
 8008448:	f3c2 2202 	ubfx	r2, r2, #8, #3
 800844c:	f362 230d 	bfi	r3, r2, #8, #6
 8008450:	9302      	str	r3, [sp, #8]
 8008452:	9b02      	ldr	r3, [sp, #8]
 8008454:	f36f 338f 	bfc	r3, #14, #2
 8008458:	9302      	str	r3, [sp, #8]
 800845a:	9b02      	ldr	r3, [sp, #8]
 800845c:	f36f 4310 	bfc	r3, #16, #1
 8008460:	9302      	str	r3, [sp, #8]
 8008462:	9b02      	ldr	r3, [sp, #8]
 8008464:	f36f 4351 	bfc	r3, #17, #1
 8008468:	9302      	str	r3, [sp, #8]
 800846a:	9b02      	ldr	r3, [sp, #8]
 800846c:	f36f 4395 	bfc	r3, #18, #4
 8008470:	9302      	str	r3, [sp, #8]
 8008472:	9b02      	ldr	r3, [sp, #8]
 8008474:	f36f 5396 	bfc	r3, #22, #1
 8008478:	9302      	str	r3, [sp, #8]
 800847a:	9b02      	ldr	r3, [sp, #8]
 800847c:	f36f 53d7 	bfc	r3, #23, #1
 8008480:	9302      	str	r3, [sp, #8]
 8008482:	9b02      	ldr	r3, [sp, #8]
 8008484:	f36f 631a 	bfc	r3, #24, #3
 8008488:	9302      	str	r3, [sp, #8]
 800848a:	9b02      	ldr	r3, [sp, #8]
 800848c:	f36f 63df 	bfc	r3, #27, #5
 8008490:	9302      	str	r3, [sp, #8]
 8008492:	9b02      	ldr	r3, [sp, #8]
 8008494:	602b      	str	r3, [r5, #0]
 8008496:	682b      	ldr	r3, [r5, #0]
 8008498:	f003 030c 	and.w	r3, r3, #12
 800849c:	2b08      	cmp	r3, #8
 800849e:	d1fa      	bne.n	8008496 <_ada_setup_pll+0x24e>
 80084a0:	b005      	add	sp, #20
 80084a2:	bd30      	pop	{r4, r5, pc}
 80084a4:	40021000 	.word	0x40021000
 80084a8:	40021004 	.word	0x40021004
 80084ac:	40021008 	.word	0x40021008
 80084b0:	40021018 	.word	0x40021018
 80084b4:	40022000 	.word	0x40022000

080084b8 <system__text_io__initialize>:
 80084b8:	b510      	push	{r4, lr}
 80084ba:	b08a      	sub	sp, #40	; 0x28
 80084bc:	a804      	add	r0, sp, #16
 80084be:	f000 f8f1 	bl	80086a4 <system__stm32__system_clocks>
 80084c2:	4b6c      	ldr	r3, [pc, #432]	; (8008674 <system__text_io__initialize+0x1bc>)
 80084c4:	486c      	ldr	r0, [pc, #432]	; (8008678 <system__text_io__initialize+0x1c0>)
 80084c6:	2201      	movs	r2, #1
 80084c8:	701a      	strb	r2, [r3, #0]
 80084ca:	9b07      	ldr	r3, [sp, #28]
 80084cc:	6801      	ldr	r1, [r0, #0]
 80084ce:	4a6b      	ldr	r2, [pc, #428]	; (800867c <system__text_io__initialize+0x1c4>)
 80084d0:	f441 4180 	orr.w	r1, r1, #16384	; 0x4000
 80084d4:	6001      	str	r1, [r0, #0]
 80084d6:	6804      	ldr	r4, [r0, #0]
 80084d8:	4969      	ldr	r1, [pc, #420]	; (8008680 <system__text_io__initialize+0x1c8>)
 80084da:	f044 0404 	orr.w	r4, r4, #4
 80084de:	6004      	str	r4, [r0, #0]
 80084e0:	6810      	ldr	r0, [r2, #0]
 80084e2:	6810      	ldr	r0, [r2, #0]
 80084e4:	fb81 4103 	smull	r4, r1, r1, r3
 80084e8:	f020 00f0 	bic.w	r0, r0, #240	; 0xf0
 80084ec:	f040 00b0 	orr.w	r0, r0, #176	; 0xb0
 80084f0:	6010      	str	r0, [r2, #0]
 80084f2:	6810      	ldr	r0, [r2, #0]
 80084f4:	6810      	ldr	r0, [r2, #0]
 80084f6:	4419      	add	r1, r3
 80084f8:	f420 6070 	bic.w	r0, r0, #3840	; 0xf00
 80084fc:	f440 6000 	orr.w	r0, r0, #2048	; 0x800
 8008500:	6010      	str	r0, [r2, #0]
 8008502:	9a00      	ldr	r2, [sp, #0]
 8008504:	17db      	asrs	r3, r3, #31
 8008506:	f36f 0203 	bfc	r2, #0, #4
 800850a:	9200      	str	r2, [sp, #0]
 800850c:	9a00      	ldr	r2, [sp, #0]
 800850e:	ebc3 5321 	rsb	r3, r3, r1, asr #20
 8008512:	f363 120f 	bfi	r2, r3, #4, #12
 8008516:	9200      	str	r2, [sp, #0]
 8008518:	9b00      	ldr	r3, [sp, #0]
 800851a:	4a5a      	ldr	r2, [pc, #360]	; (8008684 <system__text_io__initialize+0x1cc>)
 800851c:	f36f 431f 	bfc	r3, #16, #16
 8008520:	9300      	str	r3, [sp, #0]
 8008522:	9b00      	ldr	r3, [sp, #0]
 8008524:	4858      	ldr	r0, [pc, #352]	; (8008688 <system__text_io__initialize+0x1d0>)
 8008526:	6013      	str	r3, [r2, #0]
 8008528:	9b01      	ldr	r3, [sp, #4]
 800852a:	4958      	ldr	r1, [pc, #352]	; (800868c <system__text_io__initialize+0x1d4>)
 800852c:	f36f 0300 	bfc	r3, #0, #1
 8008530:	9301      	str	r3, [sp, #4]
 8008532:	9b01      	ldr	r3, [sp, #4]
 8008534:	f36f 0341 	bfc	r3, #1, #1
 8008538:	9301      	str	r3, [sp, #4]
 800853a:	9b01      	ldr	r3, [sp, #4]
 800853c:	f043 0304 	orr.w	r3, r3, #4
 8008540:	9301      	str	r3, [sp, #4]
 8008542:	9b01      	ldr	r3, [sp, #4]
 8008544:	f043 0308 	orr.w	r3, r3, #8
 8008548:	9301      	str	r3, [sp, #4]
 800854a:	9b01      	ldr	r3, [sp, #4]
 800854c:	f36f 1304 	bfc	r3, #4, #1
 8008550:	9301      	str	r3, [sp, #4]
 8008552:	9b01      	ldr	r3, [sp, #4]
 8008554:	f36f 1345 	bfc	r3, #5, #1
 8008558:	9301      	str	r3, [sp, #4]
 800855a:	9b01      	ldr	r3, [sp, #4]
 800855c:	f36f 1386 	bfc	r3, #6, #1
 8008560:	9301      	str	r3, [sp, #4]
 8008562:	9b01      	ldr	r3, [sp, #4]
 8008564:	f36f 13c7 	bfc	r3, #7, #1
 8008568:	9301      	str	r3, [sp, #4]
 800856a:	9b01      	ldr	r3, [sp, #4]
 800856c:	f36f 2308 	bfc	r3, #8, #1
 8008570:	9301      	str	r3, [sp, #4]
 8008572:	9b01      	ldr	r3, [sp, #4]
 8008574:	f36f 2349 	bfc	r3, #9, #1
 8008578:	9301      	str	r3, [sp, #4]
 800857a:	9b01      	ldr	r3, [sp, #4]
 800857c:	f36f 238a 	bfc	r3, #10, #1
 8008580:	9301      	str	r3, [sp, #4]
 8008582:	9b01      	ldr	r3, [sp, #4]
 8008584:	f36f 23cb 	bfc	r3, #11, #1
 8008588:	9301      	str	r3, [sp, #4]
 800858a:	9b01      	ldr	r3, [sp, #4]
 800858c:	f36f 330c 	bfc	r3, #12, #1
 8008590:	9301      	str	r3, [sp, #4]
 8008592:	9b01      	ldr	r3, [sp, #4]
 8008594:	f443 5300 	orr.w	r3, r3, #8192	; 0x2000
 8008598:	9301      	str	r3, [sp, #4]
 800859a:	9b01      	ldr	r3, [sp, #4]
 800859c:	f36f 339f 	bfc	r3, #14, #18
 80085a0:	9301      	str	r3, [sp, #4]
 80085a2:	9b01      	ldr	r3, [sp, #4]
 80085a4:	6003      	str	r3, [r0, #0]
 80085a6:	9b02      	ldr	r3, [sp, #8]
 80085a8:	f36f 0303 	bfc	r3, #0, #4
 80085ac:	9302      	str	r3, [sp, #8]
 80085ae:	9b02      	ldr	r3, [sp, #8]
 80085b0:	f36f 1304 	bfc	r3, #4, #1
 80085b4:	9302      	str	r3, [sp, #8]
 80085b6:	9b02      	ldr	r3, [sp, #8]
 80085b8:	f36f 1345 	bfc	r3, #5, #1
 80085bc:	9302      	str	r3, [sp, #8]
 80085be:	9b02      	ldr	r3, [sp, #8]
 80085c0:	f36f 1386 	bfc	r3, #6, #1
 80085c4:	9302      	str	r3, [sp, #8]
 80085c6:	9b02      	ldr	r3, [sp, #8]
 80085c8:	f36f 13c7 	bfc	r3, #7, #1
 80085cc:	9302      	str	r3, [sp, #8]
 80085ce:	9b02      	ldr	r3, [sp, #8]
 80085d0:	f36f 2308 	bfc	r3, #8, #1
 80085d4:	9302      	str	r3, [sp, #8]
 80085d6:	9b02      	ldr	r3, [sp, #8]
 80085d8:	f36f 2349 	bfc	r3, #9, #1
 80085dc:	9302      	str	r3, [sp, #8]
 80085de:	9b02      	ldr	r3, [sp, #8]
 80085e0:	f36f 238a 	bfc	r3, #10, #1
 80085e4:	9302      	str	r3, [sp, #8]
 80085e6:	9b02      	ldr	r3, [sp, #8]
 80085e8:	f36f 23cb 	bfc	r3, #11, #1
 80085ec:	9302      	str	r3, [sp, #8]
 80085ee:	9b02      	ldr	r3, [sp, #8]
 80085f0:	f36f 330d 	bfc	r3, #12, #2
 80085f4:	9302      	str	r3, [sp, #8]
 80085f6:	9b02      	ldr	r3, [sp, #8]
 80085f8:	f36f 338e 	bfc	r3, #14, #1
 80085fc:	9302      	str	r3, [sp, #8]
 80085fe:	9b02      	ldr	r3, [sp, #8]
 8008600:	f36f 33df 	bfc	r3, #15, #17
 8008604:	9302      	str	r3, [sp, #8]
 8008606:	9b02      	ldr	r3, [sp, #8]
 8008608:	600b      	str	r3, [r1, #0]
 800860a:	9b03      	ldr	r3, [sp, #12]
 800860c:	f36f 0300 	bfc	r3, #0, #1
 8008610:	9303      	str	r3, [sp, #12]
 8008612:	9b03      	ldr	r3, [sp, #12]
 8008614:	f36f 0341 	bfc	r3, #1, #1
 8008618:	9303      	str	r3, [sp, #12]
 800861a:	9b03      	ldr	r3, [sp, #12]
 800861c:	f36f 0382 	bfc	r3, #2, #1
 8008620:	9303      	str	r3, [sp, #12]
 8008622:	9b03      	ldr	r3, [sp, #12]
 8008624:	f36f 03c3 	bfc	r3, #3, #1
 8008628:	9303      	str	r3, [sp, #12]
 800862a:	9b03      	ldr	r3, [sp, #12]
 800862c:	f36f 1304 	bfc	r3, #4, #1
 8008630:	9303      	str	r3, [sp, #12]
 8008632:	9b03      	ldr	r3, [sp, #12]
 8008634:	f36f 1345 	bfc	r3, #5, #1
 8008638:	9303      	str	r3, [sp, #12]
 800863a:	9b03      	ldr	r3, [sp, #12]
 800863c:	f36f 1386 	bfc	r3, #6, #1
 8008640:	9303      	str	r3, [sp, #12]
 8008642:	9b03      	ldr	r3, [sp, #12]
 8008644:	f36f 13c7 	bfc	r3, #7, #1
 8008648:	9303      	str	r3, [sp, #12]
 800864a:	9b03      	ldr	r3, [sp, #12]
 800864c:	f36f 2308 	bfc	r3, #8, #1
 8008650:	9303      	str	r3, [sp, #12]
 8008652:	9b03      	ldr	r3, [sp, #12]
 8008654:	f36f 2349 	bfc	r3, #9, #1
 8008658:	9303      	str	r3, [sp, #12]
 800865a:	9b03      	ldr	r3, [sp, #12]
 800865c:	f36f 238a 	bfc	r3, #10, #1
 8008660:	9303      	str	r3, [sp, #12]
 8008662:	9b03      	ldr	r3, [sp, #12]
 8008664:	f36f 23df 	bfc	r3, #11, #21
 8008668:	9303      	str	r3, [sp, #12]
 800866a:	9b03      	ldr	r3, [sp, #12]
 800866c:	60d3      	str	r3, [r2, #12]
 800866e:	b00a      	add	sp, #40	; 0x28
 8008670:	bd10      	pop	{r4, pc}
 8008672:	bf00      	nop
 8008674:	200003d2 	.word	0x200003d2
 8008678:	40021018 	.word	0x40021018
 800867c:	40010804 	.word	0x40010804
 8008680:	91a2b3c5 	.word	0x91a2b3c5
 8008684:	40013808 	.word	0x40013808
 8008688:	4001380c 	.word	0x4001380c
 800868c:	40013810 	.word	0x40013810

08008690 <system__bb__mcu_parameters__pwr_initialize>:
 8008690:	4b03      	ldr	r3, [pc, #12]	; (80086a0 <system__bb__mcu_parameters__pwr_initialize+0x10>)
 8008692:	681a      	ldr	r2, [r3, #0]
 8008694:	6813      	ldr	r3, [r2, #0]
 8008696:	f443 4380 	orr.w	r3, r3, #16384	; 0x4000
 800869a:	6013      	str	r3, [r2, #0]
 800869c:	4770      	bx	lr
 800869e:	bf00      	nop
 80086a0:	200003d4 	.word	0x200003d4

080086a4 <system__stm32__system_clocks>:
 80086a4:	4a03      	ldr	r2, [pc, #12]	; (80086b4 <system__stm32__system_clocks+0x10>)
 80086a6:	4904      	ldr	r1, [pc, #16]	; (80086b8 <system__stm32__system_clocks+0x14>)
 80086a8:	6042      	str	r2, [r0, #4]
 80086aa:	6081      	str	r1, [r0, #8]
 80086ac:	60c2      	str	r2, [r0, #12]
 80086ae:	6002      	str	r2, [r0, #0]
 80086b0:	4770      	bx	lr
 80086b2:	bf00      	nop
 80086b4:	044aa200 	.word	0x044aa200
 80086b8:	02255100 	.word	0x02255100

080086bc <__aeabi_frsub>:
 80086bc:	f080 4000 	eor.w	r0, r0, #2147483648	; 0x80000000
 80086c0:	e002      	b.n	80086c8 <__addsf3>
 80086c2:	bf00      	nop

080086c4 <__aeabi_fsub>:
 80086c4:	f081 4100 	eor.w	r1, r1, #2147483648	; 0x80000000

080086c8 <__addsf3>:
 80086c8:	0042      	lsls	r2, r0, #1
 80086ca:	bf1f      	itttt	ne
 80086cc:	ea5f 0341 	movsne.w	r3, r1, lsl #1
 80086d0:	ea92 0f03 	teqne	r2, r3
 80086d4:	ea7f 6c22 	mvnsne.w	ip, r2, asr #24
 80086d8:	ea7f 6c23 	mvnsne.w	ip, r3, asr #24
 80086dc:	d06a      	beq.n	80087b4 <__addsf3+0xec>
 80086de:	ea4f 6212 	mov.w	r2, r2, lsr #24
 80086e2:	ebd2 6313 	rsbs	r3, r2, r3, lsr #24
 80086e6:	bfc1      	itttt	gt
 80086e8:	18d2      	addgt	r2, r2, r3
 80086ea:	4041      	eorgt	r1, r0
 80086ec:	4048      	eorgt	r0, r1
 80086ee:	4041      	eorgt	r1, r0
 80086f0:	bfb8      	it	lt
 80086f2:	425b      	neglt	r3, r3
 80086f4:	2b19      	cmp	r3, #25
 80086f6:	bf88      	it	hi
 80086f8:	4770      	bxhi	lr
 80086fa:	f010 4f00 	tst.w	r0, #2147483648	; 0x80000000
 80086fe:	f440 0000 	orr.w	r0, r0, #8388608	; 0x800000
 8008702:	f020 407f 	bic.w	r0, r0, #4278190080	; 0xff000000
 8008706:	bf18      	it	ne
 8008708:	4240      	negne	r0, r0
 800870a:	f011 4f00 	tst.w	r1, #2147483648	; 0x80000000
 800870e:	f441 0100 	orr.w	r1, r1, #8388608	; 0x800000
 8008712:	f021 417f 	bic.w	r1, r1, #4278190080	; 0xff000000
 8008716:	bf18      	it	ne
 8008718:	4249      	negne	r1, r1
 800871a:	ea92 0f03 	teq	r2, r3
 800871e:	d03f      	beq.n	80087a0 <__addsf3+0xd8>
 8008720:	f1a2 0201 	sub.w	r2, r2, #1
 8008724:	fa41 fc03 	asr.w	ip, r1, r3
 8008728:	eb10 000c 	adds.w	r0, r0, ip
 800872c:	f1c3 0320 	rsb	r3, r3, #32
 8008730:	fa01 f103 	lsl.w	r1, r1, r3
 8008734:	f000 4300 	and.w	r3, r0, #2147483648	; 0x80000000
 8008738:	d502      	bpl.n	8008740 <__addsf3+0x78>
 800873a:	4249      	negs	r1, r1
 800873c:	eb60 0040 	sbc.w	r0, r0, r0, lsl #1
 8008740:	f5b0 0f00 	cmp.w	r0, #8388608	; 0x800000
 8008744:	d313      	bcc.n	800876e <__addsf3+0xa6>
 8008746:	f1b0 7f80 	cmp.w	r0, #16777216	; 0x1000000
 800874a:	d306      	bcc.n	800875a <__addsf3+0x92>
 800874c:	0840      	lsrs	r0, r0, #1
 800874e:	ea4f 0131 	mov.w	r1, r1, rrx
 8008752:	f102 0201 	add.w	r2, r2, #1
 8008756:	2afe      	cmp	r2, #254	; 0xfe
 8008758:	d251      	bcs.n	80087fe <__addsf3+0x136>
 800875a:	f1b1 4f00 	cmp.w	r1, #2147483648	; 0x80000000
 800875e:	eb40 50c2 	adc.w	r0, r0, r2, lsl #23
 8008762:	bf08      	it	eq
 8008764:	f020 0001 	biceq.w	r0, r0, #1
 8008768:	ea40 0003 	orr.w	r0, r0, r3
 800876c:	4770      	bx	lr
 800876e:	0049      	lsls	r1, r1, #1
 8008770:	eb40 0000 	adc.w	r0, r0, r0
 8008774:	f410 0f00 	tst.w	r0, #8388608	; 0x800000
 8008778:	f1a2 0201 	sub.w	r2, r2, #1
 800877c:	d1ed      	bne.n	800875a <__addsf3+0x92>
 800877e:	fab0 fc80 	clz	ip, r0
 8008782:	f1ac 0c08 	sub.w	ip, ip, #8
 8008786:	ebb2 020c 	subs.w	r2, r2, ip
 800878a:	fa00 f00c 	lsl.w	r0, r0, ip
 800878e:	bfaa      	itet	ge
 8008790:	eb00 50c2 	addge.w	r0, r0, r2, lsl #23
 8008794:	4252      	neglt	r2, r2
 8008796:	4318      	orrge	r0, r3
 8008798:	bfbc      	itt	lt
 800879a:	40d0      	lsrlt	r0, r2
 800879c:	4318      	orrlt	r0, r3
 800879e:	4770      	bx	lr
 80087a0:	f092 0f00 	teq	r2, #0
 80087a4:	f481 0100 	eor.w	r1, r1, #8388608	; 0x800000
 80087a8:	bf06      	itte	eq
 80087aa:	f480 0000 	eoreq.w	r0, r0, #8388608	; 0x800000
 80087ae:	3201      	addeq	r2, #1
 80087b0:	3b01      	subne	r3, #1
 80087b2:	e7b5      	b.n	8008720 <__addsf3+0x58>
 80087b4:	ea4f 0341 	mov.w	r3, r1, lsl #1
 80087b8:	ea7f 6c22 	mvns.w	ip, r2, asr #24
 80087bc:	bf18      	it	ne
 80087be:	ea7f 6c23 	mvnsne.w	ip, r3, asr #24
 80087c2:	d021      	beq.n	8008808 <__addsf3+0x140>
 80087c4:	ea92 0f03 	teq	r2, r3
 80087c8:	d004      	beq.n	80087d4 <__addsf3+0x10c>
 80087ca:	f092 0f00 	teq	r2, #0
 80087ce:	bf08      	it	eq
 80087d0:	4608      	moveq	r0, r1
 80087d2:	4770      	bx	lr
 80087d4:	ea90 0f01 	teq	r0, r1
 80087d8:	bf1c      	itt	ne
 80087da:	2000      	movne	r0, #0
 80087dc:	4770      	bxne	lr
 80087de:	f012 4f7f 	tst.w	r2, #4278190080	; 0xff000000
 80087e2:	d104      	bne.n	80087ee <__addsf3+0x126>
 80087e4:	0040      	lsls	r0, r0, #1
 80087e6:	bf28      	it	cs
 80087e8:	f040 4000 	orrcs.w	r0, r0, #2147483648	; 0x80000000
 80087ec:	4770      	bx	lr
 80087ee:	f112 7200 	adds.w	r2, r2, #33554432	; 0x2000000
 80087f2:	bf3c      	itt	cc
 80087f4:	f500 0000 	addcc.w	r0, r0, #8388608	; 0x800000
 80087f8:	4770      	bxcc	lr
 80087fa:	f000 4300 	and.w	r3, r0, #2147483648	; 0x80000000
 80087fe:	f043 40fe 	orr.w	r0, r3, #2130706432	; 0x7f000000
 8008802:	f440 0000 	orr.w	r0, r0, #8388608	; 0x800000
 8008806:	4770      	bx	lr
 8008808:	ea7f 6222 	mvns.w	r2, r2, asr #24
 800880c:	bf16      	itet	ne
 800880e:	4608      	movne	r0, r1
 8008810:	ea7f 6323 	mvnseq.w	r3, r3, asr #24
 8008814:	4601      	movne	r1, r0
 8008816:	0242      	lsls	r2, r0, #9
 8008818:	bf06      	itte	eq
 800881a:	ea5f 2341 	movseq.w	r3, r1, lsl #9
 800881e:	ea90 0f01 	teqeq	r0, r1
 8008822:	f440 0080 	orrne.w	r0, r0, #4194304	; 0x400000
 8008826:	4770      	bx	lr

08008828 <__aeabi_ui2f>:
 8008828:	f04f 0300 	mov.w	r3, #0
 800882c:	e004      	b.n	8008838 <__aeabi_i2f+0x8>
 800882e:	bf00      	nop

08008830 <__aeabi_i2f>:
 8008830:	f010 4300 	ands.w	r3, r0, #2147483648	; 0x80000000
 8008834:	bf48      	it	mi
 8008836:	4240      	negmi	r0, r0
 8008838:	ea5f 0c00 	movs.w	ip, r0
 800883c:	bf08      	it	eq
 800883e:	4770      	bxeq	lr
 8008840:	f043 4396 	orr.w	r3, r3, #1258291200	; 0x4b000000
 8008844:	4601      	mov	r1, r0
 8008846:	f04f 0000 	mov.w	r0, #0
 800884a:	e01c      	b.n	8008886 <__aeabi_l2f+0x2a>

0800884c <__aeabi_ul2f>:
 800884c:	ea50 0201 	orrs.w	r2, r0, r1
 8008850:	bf08      	it	eq
 8008852:	4770      	bxeq	lr
 8008854:	f04f 0300 	mov.w	r3, #0
 8008858:	e00a      	b.n	8008870 <__aeabi_l2f+0x14>
 800885a:	bf00      	nop

0800885c <__aeabi_l2f>:
 800885c:	ea50 0201 	orrs.w	r2, r0, r1
 8008860:	bf08      	it	eq
 8008862:	4770      	bxeq	lr
 8008864:	f011 4300 	ands.w	r3, r1, #2147483648	; 0x80000000
 8008868:	d502      	bpl.n	8008870 <__aeabi_l2f+0x14>
 800886a:	4240      	negs	r0, r0
 800886c:	eb61 0141 	sbc.w	r1, r1, r1, lsl #1
 8008870:	ea5f 0c01 	movs.w	ip, r1
 8008874:	bf02      	ittt	eq
 8008876:	4684      	moveq	ip, r0
 8008878:	4601      	moveq	r1, r0
 800887a:	2000      	moveq	r0, #0
 800887c:	f043 43b6 	orr.w	r3, r3, #1526726656	; 0x5b000000
 8008880:	bf08      	it	eq
 8008882:	f1a3 5380 	subeq.w	r3, r3, #268435456	; 0x10000000
 8008886:	f5a3 0300 	sub.w	r3, r3, #8388608	; 0x800000
 800888a:	fabc f28c 	clz	r2, ip
 800888e:	3a08      	subs	r2, #8
 8008890:	eba3 53c2 	sub.w	r3, r3, r2, lsl #23
 8008894:	db10      	blt.n	80088b8 <__aeabi_l2f+0x5c>
 8008896:	fa01 fc02 	lsl.w	ip, r1, r2
 800889a:	4463      	add	r3, ip
 800889c:	fa00 fc02 	lsl.w	ip, r0, r2
 80088a0:	f1c2 0220 	rsb	r2, r2, #32
 80088a4:	f1bc 4f00 	cmp.w	ip, #2147483648	; 0x80000000
 80088a8:	fa20 f202 	lsr.w	r2, r0, r2
 80088ac:	eb43 0002 	adc.w	r0, r3, r2
 80088b0:	bf08      	it	eq
 80088b2:	f020 0001 	biceq.w	r0, r0, #1
 80088b6:	4770      	bx	lr
 80088b8:	f102 0220 	add.w	r2, r2, #32
 80088bc:	fa01 fc02 	lsl.w	ip, r1, r2
 80088c0:	f1c2 0220 	rsb	r2, r2, #32
 80088c4:	ea50 004c 	orrs.w	r0, r0, ip, lsl #1
 80088c8:	fa21 f202 	lsr.w	r2, r1, r2
 80088cc:	eb43 0002 	adc.w	r0, r3, r2
 80088d0:	bf08      	it	eq
 80088d2:	ea20 70dc 	biceq.w	r0, r0, ip, lsr #31
 80088d6:	4770      	bx	lr

080088d8 <__aeabi_fmul>:
 80088d8:	f04f 0cff 	mov.w	ip, #255	; 0xff
 80088dc:	ea1c 52d0 	ands.w	r2, ip, r0, lsr #23
 80088e0:	bf1e      	ittt	ne
 80088e2:	ea1c 53d1 	andsne.w	r3, ip, r1, lsr #23
 80088e6:	ea92 0f0c 	teqne	r2, ip
 80088ea:	ea93 0f0c 	teqne	r3, ip
 80088ee:	d06f      	beq.n	80089d0 <__aeabi_fmul+0xf8>
 80088f0:	441a      	add	r2, r3
 80088f2:	ea80 0c01 	eor.w	ip, r0, r1
 80088f6:	0240      	lsls	r0, r0, #9
 80088f8:	bf18      	it	ne
 80088fa:	ea5f 2141 	movsne.w	r1, r1, lsl #9
 80088fe:	d01e      	beq.n	800893e <__aeabi_fmul+0x66>
 8008900:	f04f 6300 	mov.w	r3, #134217728	; 0x8000000
 8008904:	ea43 1050 	orr.w	r0, r3, r0, lsr #5
 8008908:	ea43 1151 	orr.w	r1, r3, r1, lsr #5
 800890c:	fba0 3101 	umull	r3, r1, r0, r1
 8008910:	f00c 4000 	and.w	r0, ip, #2147483648	; 0x80000000
 8008914:	f5b1 0f00 	cmp.w	r1, #8388608	; 0x800000
 8008918:	bf3e      	ittt	cc
 800891a:	0049      	lslcc	r1, r1, #1
 800891c:	ea41 71d3 	orrcc.w	r1, r1, r3, lsr #31
 8008920:	005b      	lslcc	r3, r3, #1
 8008922:	ea40 0001 	orr.w	r0, r0, r1
 8008926:	f162 027f 	sbc.w	r2, r2, #127	; 0x7f
 800892a:	2afd      	cmp	r2, #253	; 0xfd
 800892c:	d81d      	bhi.n	800896a <__aeabi_fmul+0x92>
 800892e:	f1b3 4f00 	cmp.w	r3, #2147483648	; 0x80000000
 8008932:	eb40 50c2 	adc.w	r0, r0, r2, lsl #23
 8008936:	bf08      	it	eq
 8008938:	f020 0001 	biceq.w	r0, r0, #1
 800893c:	4770      	bx	lr
 800893e:	f090 0f00 	teq	r0, #0
 8008942:	f00c 4c00 	and.w	ip, ip, #2147483648	; 0x80000000
 8008946:	bf08      	it	eq
 8008948:	0249      	lsleq	r1, r1, #9
 800894a:	ea4c 2050 	orr.w	r0, ip, r0, lsr #9
 800894e:	ea40 2051 	orr.w	r0, r0, r1, lsr #9
 8008952:	3a7f      	subs	r2, #127	; 0x7f
 8008954:	bfc2      	ittt	gt
 8008956:	f1d2 03ff 	rsbsgt	r3, r2, #255	; 0xff
 800895a:	ea40 50c2 	orrgt.w	r0, r0, r2, lsl #23
 800895e:	4770      	bxgt	lr
 8008960:	f440 0000 	orr.w	r0, r0, #8388608	; 0x800000
 8008964:	f04f 0300 	mov.w	r3, #0
 8008968:	3a01      	subs	r2, #1
 800896a:	dc5d      	bgt.n	8008a28 <__aeabi_fmul+0x150>
 800896c:	f112 0f19 	cmn.w	r2, #25
 8008970:	bfdc      	itt	le
 8008972:	f000 4000 	andle.w	r0, r0, #2147483648	; 0x80000000
 8008976:	4770      	bxle	lr
 8008978:	f1c2 0200 	rsb	r2, r2, #0
 800897c:	0041      	lsls	r1, r0, #1
 800897e:	fa21 f102 	lsr.w	r1, r1, r2
 8008982:	f1c2 0220 	rsb	r2, r2, #32
 8008986:	fa00 fc02 	lsl.w	ip, r0, r2
 800898a:	ea5f 0031 	movs.w	r0, r1, rrx
 800898e:	f140 0000 	adc.w	r0, r0, #0
 8008992:	ea53 034c 	orrs.w	r3, r3, ip, lsl #1
 8008996:	bf08      	it	eq
 8008998:	ea20 70dc 	biceq.w	r0, r0, ip, lsr #31
 800899c:	4770      	bx	lr
 800899e:	f092 0f00 	teq	r2, #0
 80089a2:	f000 4c00 	and.w	ip, r0, #2147483648	; 0x80000000
 80089a6:	bf02      	ittt	eq
 80089a8:	0040      	lsleq	r0, r0, #1
 80089aa:	f410 0f00 	tsteq.w	r0, #8388608	; 0x800000
 80089ae:	3a01      	subeq	r2, #1
 80089b0:	d0f9      	beq.n	80089a6 <__aeabi_fmul+0xce>
 80089b2:	ea40 000c 	orr.w	r0, r0, ip
 80089b6:	f093 0f00 	teq	r3, #0
 80089ba:	f001 4c00 	and.w	ip, r1, #2147483648	; 0x80000000
 80089be:	bf02      	ittt	eq
 80089c0:	0049      	lsleq	r1, r1, #1
 80089c2:	f411 0f00 	tsteq.w	r1, #8388608	; 0x800000
 80089c6:	3b01      	subeq	r3, #1
 80089c8:	d0f9      	beq.n	80089be <__aeabi_fmul+0xe6>
 80089ca:	ea41 010c 	orr.w	r1, r1, ip
 80089ce:	e78f      	b.n	80088f0 <__aeabi_fmul+0x18>
 80089d0:	ea0c 53d1 	and.w	r3, ip, r1, lsr #23
 80089d4:	ea92 0f0c 	teq	r2, ip
 80089d8:	bf18      	it	ne
 80089da:	ea93 0f0c 	teqne	r3, ip
 80089de:	d00a      	beq.n	80089f6 <__aeabi_fmul+0x11e>
 80089e0:	f030 4c00 	bics.w	ip, r0, #2147483648	; 0x80000000
 80089e4:	bf18      	it	ne
 80089e6:	f031 4c00 	bicsne.w	ip, r1, #2147483648	; 0x80000000
 80089ea:	d1d8      	bne.n	800899e <__aeabi_fmul+0xc6>
 80089ec:	ea80 0001 	eor.w	r0, r0, r1
 80089f0:	f000 4000 	and.w	r0, r0, #2147483648	; 0x80000000
 80089f4:	4770      	bx	lr
 80089f6:	f090 0f00 	teq	r0, #0
 80089fa:	bf17      	itett	ne
 80089fc:	f090 4f00 	teqne	r0, #2147483648	; 0x80000000
 8008a00:	4608      	moveq	r0, r1
 8008a02:	f091 0f00 	teqne	r1, #0
 8008a06:	f091 4f00 	teqne	r1, #2147483648	; 0x80000000
 8008a0a:	d014      	beq.n	8008a36 <__aeabi_fmul+0x15e>
 8008a0c:	ea92 0f0c 	teq	r2, ip
 8008a10:	d101      	bne.n	8008a16 <__aeabi_fmul+0x13e>
 8008a12:	0242      	lsls	r2, r0, #9
 8008a14:	d10f      	bne.n	8008a36 <__aeabi_fmul+0x15e>
 8008a16:	ea93 0f0c 	teq	r3, ip
 8008a1a:	d103      	bne.n	8008a24 <__aeabi_fmul+0x14c>
 8008a1c:	024b      	lsls	r3, r1, #9
 8008a1e:	bf18      	it	ne
 8008a20:	4608      	movne	r0, r1
 8008a22:	d108      	bne.n	8008a36 <__aeabi_fmul+0x15e>
 8008a24:	ea80 0001 	eor.w	r0, r0, r1
 8008a28:	f000 4000 	and.w	r0, r0, #2147483648	; 0x80000000
 8008a2c:	f040 40fe 	orr.w	r0, r0, #2130706432	; 0x7f000000
 8008a30:	f440 0000 	orr.w	r0, r0, #8388608	; 0x800000
 8008a34:	4770      	bx	lr
 8008a36:	f040 40fe 	orr.w	r0, r0, #2130706432	; 0x7f000000
 8008a3a:	f440 0040 	orr.w	r0, r0, #12582912	; 0xc00000
 8008a3e:	4770      	bx	lr

08008a40 <__aeabi_fdiv>:
 8008a40:	f04f 0cff 	mov.w	ip, #255	; 0xff
 8008a44:	ea1c 52d0 	ands.w	r2, ip, r0, lsr #23
 8008a48:	bf1e      	ittt	ne
 8008a4a:	ea1c 53d1 	andsne.w	r3, ip, r1, lsr #23
 8008a4e:	ea92 0f0c 	teqne	r2, ip
 8008a52:	ea93 0f0c 	teqne	r3, ip
 8008a56:	d069      	beq.n	8008b2c <__aeabi_fdiv+0xec>
 8008a58:	eba2 0203 	sub.w	r2, r2, r3
 8008a5c:	ea80 0c01 	eor.w	ip, r0, r1
 8008a60:	0249      	lsls	r1, r1, #9
 8008a62:	ea4f 2040 	mov.w	r0, r0, lsl #9
 8008a66:	d037      	beq.n	8008ad8 <__aeabi_fdiv+0x98>
 8008a68:	f04f 5380 	mov.w	r3, #268435456	; 0x10000000
 8008a6c:	ea43 1111 	orr.w	r1, r3, r1, lsr #4
 8008a70:	ea43 1310 	orr.w	r3, r3, r0, lsr #4
 8008a74:	f00c 4000 	and.w	r0, ip, #2147483648	; 0x80000000
 8008a78:	428b      	cmp	r3, r1
 8008a7a:	bf38      	it	cc
 8008a7c:	005b      	lslcc	r3, r3, #1
 8008a7e:	f142 027d 	adc.w	r2, r2, #125	; 0x7d
 8008a82:	f44f 0c00 	mov.w	ip, #8388608	; 0x800000
 8008a86:	428b      	cmp	r3, r1
 8008a88:	bf24      	itt	cs
 8008a8a:	1a5b      	subcs	r3, r3, r1
 8008a8c:	ea40 000c 	orrcs.w	r0, r0, ip
 8008a90:	ebb3 0f51 	cmp.w	r3, r1, lsr #1
 8008a94:	bf24      	itt	cs
 8008a96:	eba3 0351 	subcs.w	r3, r3, r1, lsr #1
 8008a9a:	ea40 005c 	orrcs.w	r0, r0, ip, lsr #1
 8008a9e:	ebb3 0f91 	cmp.w	r3, r1, lsr #2
 8008aa2:	bf24      	itt	cs
 8008aa4:	eba3 0391 	subcs.w	r3, r3, r1, lsr #2
 8008aa8:	ea40 009c 	orrcs.w	r0, r0, ip, lsr #2
 8008aac:	ebb3 0fd1 	cmp.w	r3, r1, lsr #3
 8008ab0:	bf24      	itt	cs
 8008ab2:	eba3 03d1 	subcs.w	r3, r3, r1, lsr #3
 8008ab6:	ea40 00dc 	orrcs.w	r0, r0, ip, lsr #3
 8008aba:	011b      	lsls	r3, r3, #4
 8008abc:	bf18      	it	ne
 8008abe:	ea5f 1c1c 	movsne.w	ip, ip, lsr #4
 8008ac2:	d1e0      	bne.n	8008a86 <__aeabi_fdiv+0x46>
 8008ac4:	2afd      	cmp	r2, #253	; 0xfd
 8008ac6:	f63f af50 	bhi.w	800896a <__aeabi_fmul+0x92>
 8008aca:	428b      	cmp	r3, r1
 8008acc:	eb40 50c2 	adc.w	r0, r0, r2, lsl #23
 8008ad0:	bf08      	it	eq
 8008ad2:	f020 0001 	biceq.w	r0, r0, #1
 8008ad6:	4770      	bx	lr
 8008ad8:	f00c 4c00 	and.w	ip, ip, #2147483648	; 0x80000000
 8008adc:	ea4c 2050 	orr.w	r0, ip, r0, lsr #9
 8008ae0:	327f      	adds	r2, #127	; 0x7f
 8008ae2:	bfc2      	ittt	gt
 8008ae4:	f1d2 03ff 	rsbsgt	r3, r2, #255	; 0xff
 8008ae8:	ea40 50c2 	orrgt.w	r0, r0, r2, lsl #23
 8008aec:	4770      	bxgt	lr
 8008aee:	f440 0000 	orr.w	r0, r0, #8388608	; 0x800000
 8008af2:	f04f 0300 	mov.w	r3, #0
 8008af6:	3a01      	subs	r2, #1
 8008af8:	e737      	b.n	800896a <__aeabi_fmul+0x92>
 8008afa:	f092 0f00 	teq	r2, #0
 8008afe:	f000 4c00 	and.w	ip, r0, #2147483648	; 0x80000000
 8008b02:	bf02      	ittt	eq
 8008b04:	0040      	lsleq	r0, r0, #1
 8008b06:	f410 0f00 	tsteq.w	r0, #8388608	; 0x800000
 8008b0a:	3a01      	subeq	r2, #1
 8008b0c:	d0f9      	beq.n	8008b02 <__aeabi_fdiv+0xc2>
 8008b0e:	ea40 000c 	orr.w	r0, r0, ip
 8008b12:	f093 0f00 	teq	r3, #0
 8008b16:	f001 4c00 	and.w	ip, r1, #2147483648	; 0x80000000
 8008b1a:	bf02      	ittt	eq
 8008b1c:	0049      	lsleq	r1, r1, #1
 8008b1e:	f411 0f00 	tsteq.w	r1, #8388608	; 0x800000
 8008b22:	3b01      	subeq	r3, #1
 8008b24:	d0f9      	beq.n	8008b1a <__aeabi_fdiv+0xda>
 8008b26:	ea41 010c 	orr.w	r1, r1, ip
 8008b2a:	e795      	b.n	8008a58 <__aeabi_fdiv+0x18>
 8008b2c:	ea0c 53d1 	and.w	r3, ip, r1, lsr #23
 8008b30:	ea92 0f0c 	teq	r2, ip
 8008b34:	d108      	bne.n	8008b48 <__aeabi_fdiv+0x108>
 8008b36:	0242      	lsls	r2, r0, #9
 8008b38:	f47f af7d 	bne.w	8008a36 <__aeabi_fmul+0x15e>
 8008b3c:	ea93 0f0c 	teq	r3, ip
 8008b40:	f47f af70 	bne.w	8008a24 <__aeabi_fmul+0x14c>
 8008b44:	4608      	mov	r0, r1
 8008b46:	e776      	b.n	8008a36 <__aeabi_fmul+0x15e>
 8008b48:	ea93 0f0c 	teq	r3, ip
 8008b4c:	d104      	bne.n	8008b58 <__aeabi_fdiv+0x118>
 8008b4e:	024b      	lsls	r3, r1, #9
 8008b50:	f43f af4c 	beq.w	80089ec <__aeabi_fmul+0x114>
 8008b54:	4608      	mov	r0, r1
 8008b56:	e76e      	b.n	8008a36 <__aeabi_fmul+0x15e>
 8008b58:	f030 4c00 	bics.w	ip, r0, #2147483648	; 0x80000000
 8008b5c:	bf18      	it	ne
 8008b5e:	f031 4c00 	bicsne.w	ip, r1, #2147483648	; 0x80000000
 8008b62:	d1ca      	bne.n	8008afa <__aeabi_fdiv+0xba>
 8008b64:	f030 4200 	bics.w	r2, r0, #2147483648	; 0x80000000
 8008b68:	f47f af5c 	bne.w	8008a24 <__aeabi_fmul+0x14c>
 8008b6c:	f031 4300 	bics.w	r3, r1, #2147483648	; 0x80000000
 8008b70:	f47f af3c 	bne.w	80089ec <__aeabi_fmul+0x114>
 8008b74:	e75f      	b.n	8008a36 <__aeabi_fmul+0x15e>
 8008b76:	bf00      	nop

08008b78 <__gesf2>:
 8008b78:	f04f 3cff 	mov.w	ip, #4294967295
 8008b7c:	e006      	b.n	8008b8c <__cmpsf2+0x4>
 8008b7e:	bf00      	nop

08008b80 <__lesf2>:
 8008b80:	f04f 0c01 	mov.w	ip, #1
 8008b84:	e002      	b.n	8008b8c <__cmpsf2+0x4>
 8008b86:	bf00      	nop

08008b88 <__cmpsf2>:
 8008b88:	f04f 0c01 	mov.w	ip, #1
 8008b8c:	f84d cd04 	str.w	ip, [sp, #-4]!
 8008b90:	ea4f 0240 	mov.w	r2, r0, lsl #1
 8008b94:	ea4f 0341 	mov.w	r3, r1, lsl #1
 8008b98:	ea7f 6c22 	mvns.w	ip, r2, asr #24
 8008b9c:	bf18      	it	ne
 8008b9e:	ea7f 6c23 	mvnsne.w	ip, r3, asr #24
 8008ba2:	d011      	beq.n	8008bc8 <__cmpsf2+0x40>
 8008ba4:	b001      	add	sp, #4
 8008ba6:	ea52 0c53 	orrs.w	ip, r2, r3, lsr #1
 8008baa:	bf18      	it	ne
 8008bac:	ea90 0f01 	teqne	r0, r1
 8008bb0:	bf58      	it	pl
 8008bb2:	ebb2 0003 	subspl.w	r0, r2, r3
 8008bb6:	bf88      	it	hi
 8008bb8:	17c8      	asrhi	r0, r1, #31
 8008bba:	bf38      	it	cc
 8008bbc:	ea6f 70e1 	mvncc.w	r0, r1, asr #31
 8008bc0:	bf18      	it	ne
 8008bc2:	f040 0001 	orrne.w	r0, r0, #1
 8008bc6:	4770      	bx	lr
 8008bc8:	ea7f 6c22 	mvns.w	ip, r2, asr #24
 8008bcc:	d102      	bne.n	8008bd4 <__cmpsf2+0x4c>
 8008bce:	ea5f 2c40 	movs.w	ip, r0, lsl #9
 8008bd2:	d105      	bne.n	8008be0 <__cmpsf2+0x58>
 8008bd4:	ea7f 6c23 	mvns.w	ip, r3, asr #24
 8008bd8:	d1e4      	bne.n	8008ba4 <__cmpsf2+0x1c>
 8008bda:	ea5f 2c41 	movs.w	ip, r1, lsl #9
 8008bde:	d0e1      	beq.n	8008ba4 <__cmpsf2+0x1c>
 8008be0:	f85d 0b04 	ldr.w	r0, [sp], #4
 8008be4:	4770      	bx	lr
 8008be6:	bf00      	nop

08008be8 <__aeabi_cfrcmple>:
 8008be8:	4684      	mov	ip, r0
 8008bea:	4608      	mov	r0, r1
 8008bec:	4661      	mov	r1, ip
 8008bee:	e7ff      	b.n	8008bf0 <__aeabi_cfcmpeq>

08008bf0 <__aeabi_cfcmpeq>:
 8008bf0:	b50f      	push	{r0, r1, r2, r3, lr}
 8008bf2:	f7ff ffc9 	bl	8008b88 <__cmpsf2>
 8008bf6:	2800      	cmp	r0, #0
 8008bf8:	bf48      	it	mi
 8008bfa:	f110 0f00 	cmnmi.w	r0, #0
 8008bfe:	bd0f      	pop	{r0, r1, r2, r3, pc}

08008c00 <__aeabi_fcmpeq>:
 8008c00:	f84d ed08 	str.w	lr, [sp, #-8]!
 8008c04:	f7ff fff4 	bl	8008bf0 <__aeabi_cfcmpeq>
 8008c08:	bf0c      	ite	eq
 8008c0a:	2001      	moveq	r0, #1
 8008c0c:	2000      	movne	r0, #0
 8008c0e:	f85d fb08 	ldr.w	pc, [sp], #8
 8008c12:	bf00      	nop

08008c14 <__aeabi_fcmplt>:
 8008c14:	f84d ed08 	str.w	lr, [sp, #-8]!
 8008c18:	f7ff ffea 	bl	8008bf0 <__aeabi_cfcmpeq>
 8008c1c:	bf34      	ite	cc
 8008c1e:	2001      	movcc	r0, #1
 8008c20:	2000      	movcs	r0, #0
 8008c22:	f85d fb08 	ldr.w	pc, [sp], #8
 8008c26:	bf00      	nop

08008c28 <__aeabi_fcmple>:
 8008c28:	f84d ed08 	str.w	lr, [sp, #-8]!
 8008c2c:	f7ff ffe0 	bl	8008bf0 <__aeabi_cfcmpeq>
 8008c30:	bf94      	ite	ls
 8008c32:	2001      	movls	r0, #1
 8008c34:	2000      	movhi	r0, #0
 8008c36:	f85d fb08 	ldr.w	pc, [sp], #8
 8008c3a:	bf00      	nop

08008c3c <__aeabi_fcmpge>:
 8008c3c:	f84d ed08 	str.w	lr, [sp, #-8]!
 8008c40:	f7ff ffd2 	bl	8008be8 <__aeabi_cfrcmple>
 8008c44:	bf94      	ite	ls
 8008c46:	2001      	movls	r0, #1
 8008c48:	2000      	movhi	r0, #0
 8008c4a:	f85d fb08 	ldr.w	pc, [sp], #8
 8008c4e:	bf00      	nop

08008c50 <__aeabi_fcmpgt>:
 8008c50:	f84d ed08 	str.w	lr, [sp, #-8]!
 8008c54:	f7ff ffc8 	bl	8008be8 <__aeabi_cfrcmple>
 8008c58:	bf34      	ite	cc
 8008c5a:	2001      	movcc	r0, #1
 8008c5c:	2000      	movcs	r0, #0
 8008c5e:	f85d fb08 	ldr.w	pc, [sp], #8
 8008c62:	bf00      	nop

08008c64 <__aeabi_f2iz>:
 8008c64:	ea4f 0240 	mov.w	r2, r0, lsl #1
 8008c68:	f1b2 4ffe 	cmp.w	r2, #2130706432	; 0x7f000000
 8008c6c:	d30f      	bcc.n	8008c8e <__aeabi_f2iz+0x2a>
 8008c6e:	f04f 039e 	mov.w	r3, #158	; 0x9e
 8008c72:	ebb3 6212 	subs.w	r2, r3, r2, lsr #24
 8008c76:	d90d      	bls.n	8008c94 <__aeabi_f2iz+0x30>
 8008c78:	ea4f 2300 	mov.w	r3, r0, lsl #8
 8008c7c:	f043 4300 	orr.w	r3, r3, #2147483648	; 0x80000000
 8008c80:	f010 4f00 	tst.w	r0, #2147483648	; 0x80000000
 8008c84:	fa23 f002 	lsr.w	r0, r3, r2
 8008c88:	bf18      	it	ne
 8008c8a:	4240      	negne	r0, r0
 8008c8c:	4770      	bx	lr
 8008c8e:	f04f 0000 	mov.w	r0, #0
 8008c92:	4770      	bx	lr
 8008c94:	f112 0f61 	cmn.w	r2, #97	; 0x61
 8008c98:	d101      	bne.n	8008c9e <__aeabi_f2iz+0x3a>
 8008c9a:	0242      	lsls	r2, r0, #9
 8008c9c:	d105      	bne.n	8008caa <__aeabi_f2iz+0x46>
 8008c9e:	f010 4000 	ands.w	r0, r0, #2147483648	; 0x80000000
 8008ca2:	bf08      	it	eq
 8008ca4:	f06f 4000 	mvneq.w	r0, #2147483648	; 0x80000000
 8008ca8:	4770      	bx	lr
 8008caa:	f04f 0000 	mov.w	r0, #0
 8008cae:	4770      	bx	lr

08008cb0 <__aeabi_ldivmod>:
 8008cb0:	b97b      	cbnz	r3, 8008cd2 <__aeabi_ldivmod+0x22>
 8008cb2:	b972      	cbnz	r2, 8008cd2 <__aeabi_ldivmod+0x22>
 8008cb4:	2900      	cmp	r1, #0
 8008cb6:	bfbe      	ittt	lt
 8008cb8:	2000      	movlt	r0, #0
 8008cba:	f04f 4100 	movlt.w	r1, #2147483648	; 0x80000000
 8008cbe:	e006      	blt.n	8008cce <__aeabi_ldivmod+0x1e>
 8008cc0:	bf08      	it	eq
 8008cc2:	2800      	cmpeq	r0, #0
 8008cc4:	bf1c      	itt	ne
 8008cc6:	f06f 4100 	mvnne.w	r1, #2147483648	; 0x80000000
 8008cca:	f04f 30ff 	movne.w	r0, #4294967295
 8008cce:	f000 b83b 	b.w	8008d48 <__aeabi_idiv0>
 8008cd2:	b082      	sub	sp, #8
 8008cd4:	46ec      	mov	ip, sp
 8008cd6:	e92d 5000 	stmdb	sp!, {ip, lr}
 8008cda:	f000 f805 	bl	8008ce8 <__gnu_ldivmod_helper>
 8008cde:	f8dd e004 	ldr.w	lr, [sp, #4]
 8008ce2:	b002      	add	sp, #8
 8008ce4:	bc0c      	pop	{r2, r3}
 8008ce6:	4770      	bx	lr

08008ce8 <__gnu_ldivmod_helper>:
 8008ce8:	e92d 41f0 	stmdb	sp!, {r4, r5, r6, r7, r8, lr}
 8008cec:	9c06      	ldr	r4, [sp, #24]
 8008cee:	4690      	mov	r8, r2
 8008cf0:	4606      	mov	r6, r0
 8008cf2:	460f      	mov	r7, r1
 8008cf4:	461d      	mov	r5, r3
 8008cf6:	f000 f829 	bl	8008d4c <__divdi3>
 8008cfa:	fb08 fc01 	mul.w	ip, r8, r1
 8008cfe:	fba8 2300 	umull	r2, r3, r8, r0
 8008d02:	fb00 c505 	mla	r5, r0, r5, ip
 8008d06:	1ab2      	subs	r2, r6, r2
 8008d08:	442b      	add	r3, r5
 8008d0a:	eb67 0303 	sbc.w	r3, r7, r3
 8008d0e:	4686      	mov	lr, r0
 8008d10:	e9c4 2300 	strd	r2, r3, [r4]
 8008d14:	e8bd 81f0 	ldmia.w	sp!, {r4, r5, r6, r7, r8, pc}

08008d18 <__gnu_uldivmod_helper>:
 8008d18:	e92d 43f8 	stmdb	sp!, {r3, r4, r5, r6, r7, r8, r9, lr}
 8008d1c:	9e08      	ldr	r6, [sp, #32]
 8008d1e:	4617      	mov	r7, r2
 8008d20:	4680      	mov	r8, r0
 8008d22:	4689      	mov	r9, r1
 8008d24:	461d      	mov	r5, r3
 8008d26:	f000 f967 	bl	8008ff8 <__udivdi3>
 8008d2a:	fb00 f305 	mul.w	r3, r0, r5
 8008d2e:	fba0 4507 	umull	r4, r5, r0, r7
 8008d32:	fb07 3701 	mla	r7, r7, r1, r3
 8008d36:	ebb8 0404 	subs.w	r4, r8, r4
 8008d3a:	443d      	add	r5, r7
 8008d3c:	eb69 0505 	sbc.w	r5, r9, r5
 8008d40:	e9c6 4500 	strd	r4, r5, [r6]
 8008d44:	e8bd 83f8 	ldmia.w	sp!, {r3, r4, r5, r6, r7, r8, r9, pc}

08008d48 <__aeabi_idiv0>:
 8008d48:	4770      	bx	lr
 8008d4a:	bf00      	nop

08008d4c <__divdi3>:
 8008d4c:	2900      	cmp	r1, #0
 8008d4e:	e92d 43f0 	stmdb	sp!, {r4, r5, r6, r7, r8, r9, lr}
 8008d52:	f2c0 80a7 	blt.w	8008ea4 <__divdi3+0x158>
 8008d56:	2600      	movs	r6, #0
 8008d58:	2b00      	cmp	r3, #0
 8008d5a:	f2c0 809d 	blt.w	8008e98 <__divdi3+0x14c>
 8008d5e:	4681      	mov	r9, r0
 8008d60:	468e      	mov	lr, r1
 8008d62:	4690      	mov	r8, r2
 8008d64:	469c      	mov	ip, r3
 8008d66:	4617      	mov	r7, r2
 8008d68:	4604      	mov	r4, r0
 8008d6a:	460d      	mov	r5, r1
 8008d6c:	2b00      	cmp	r3, #0
 8008d6e:	d13d      	bne.n	8008dec <__divdi3+0xa0>
 8008d70:	428a      	cmp	r2, r1
 8008d72:	d959      	bls.n	8008e28 <__divdi3+0xdc>
 8008d74:	fab2 f382 	clz	r3, r2
 8008d78:	b13b      	cbz	r3, 8008d8a <__divdi3+0x3e>
 8008d7a:	f1c3 0220 	rsb	r2, r3, #32
 8008d7e:	409d      	lsls	r5, r3
 8008d80:	fa20 f202 	lsr.w	r2, r0, r2
 8008d84:	409f      	lsls	r7, r3
 8008d86:	4315      	orrs	r5, r2
 8008d88:	409c      	lsls	r4, r3
 8008d8a:	0c39      	lsrs	r1, r7, #16
 8008d8c:	fbb5 f0f1 	udiv	r0, r5, r1
 8008d90:	fa1f fe87 	uxth.w	lr, r7
 8008d94:	fb01 5510 	mls	r5, r1, r0, r5
 8008d98:	fb0e f300 	mul.w	r3, lr, r0
 8008d9c:	0c22      	lsrs	r2, r4, #16
 8008d9e:	ea42 4505 	orr.w	r5, r2, r5, lsl #16
 8008da2:	42ab      	cmp	r3, r5
 8008da4:	d909      	bls.n	8008dba <__divdi3+0x6e>
 8008da6:	19ed      	adds	r5, r5, r7
 8008da8:	f100 32ff 	add.w	r2, r0, #4294967295
 8008dac:	f080 810b 	bcs.w	8008fc6 <__divdi3+0x27a>
 8008db0:	42ab      	cmp	r3, r5
 8008db2:	f240 8108 	bls.w	8008fc6 <__divdi3+0x27a>
 8008db6:	3802      	subs	r0, #2
 8008db8:	443d      	add	r5, r7
 8008dba:	1aed      	subs	r5, r5, r3
 8008dbc:	fbb5 f3f1 	udiv	r3, r5, r1
 8008dc0:	fb01 5513 	mls	r5, r1, r3, r5
 8008dc4:	fb0e fe03 	mul.w	lr, lr, r3
 8008dc8:	b2a4      	uxth	r4, r4
 8008dca:	ea44 4505 	orr.w	r5, r4, r5, lsl #16
 8008dce:	45ae      	cmp	lr, r5
 8008dd0:	d908      	bls.n	8008de4 <__divdi3+0x98>
 8008dd2:	19ed      	adds	r5, r5, r7
 8008dd4:	f103 32ff 	add.w	r2, r3, #4294967295
 8008dd8:	f080 80f7 	bcs.w	8008fca <__divdi3+0x27e>
 8008ddc:	45ae      	cmp	lr, r5
 8008dde:	f240 80f4 	bls.w	8008fca <__divdi3+0x27e>
 8008de2:	3b02      	subs	r3, #2
 8008de4:	ea43 4300 	orr.w	r3, r3, r0, lsl #16
 8008de8:	2200      	movs	r2, #0
 8008dea:	e003      	b.n	8008df4 <__divdi3+0xa8>
 8008dec:	428b      	cmp	r3, r1
 8008dee:	d90f      	bls.n	8008e10 <__divdi3+0xc4>
 8008df0:	2200      	movs	r2, #0
 8008df2:	4613      	mov	r3, r2
 8008df4:	1c34      	adds	r4, r6, #0
 8008df6:	bf18      	it	ne
 8008df8:	2401      	movne	r4, #1
 8008dfa:	4260      	negs	r0, r4
 8008dfc:	f04f 0500 	mov.w	r5, #0
 8008e00:	eb65 0145 	sbc.w	r1, r5, r5, lsl #1
 8008e04:	4058      	eors	r0, r3
 8008e06:	4051      	eors	r1, r2
 8008e08:	1900      	adds	r0, r0, r4
 8008e0a:	4169      	adcs	r1, r5
 8008e0c:	e8bd 83f0 	ldmia.w	sp!, {r4, r5, r6, r7, r8, r9, pc}
 8008e10:	fab3 f283 	clz	r2, r3
 8008e14:	2a00      	cmp	r2, #0
 8008e16:	f040 8089 	bne.w	8008f2c <__divdi3+0x1e0>
 8008e1a:	428b      	cmp	r3, r1
 8008e1c:	d302      	bcc.n	8008e24 <__divdi3+0xd8>
 8008e1e:	4580      	cmp	r8, r0
 8008e20:	f200 80de 	bhi.w	8008fe0 <__divdi3+0x294>
 8008e24:	2301      	movs	r3, #1
 8008e26:	e7e5      	b.n	8008df4 <__divdi3+0xa8>
 8008e28:	b912      	cbnz	r2, 8008e30 <__divdi3+0xe4>
 8008e2a:	2301      	movs	r3, #1
 8008e2c:	fbb3 f7f2 	udiv	r7, r3, r2
 8008e30:	fab7 f887 	clz	r8, r7
 8008e34:	f1b8 0f00 	cmp.w	r8, #0
 8008e38:	d13a      	bne.n	8008eb0 <__divdi3+0x164>
 8008e3a:	1bed      	subs	r5, r5, r7
 8008e3c:	b2b8      	uxth	r0, r7
 8008e3e:	0c39      	lsrs	r1, r7, #16
 8008e40:	2201      	movs	r2, #1
 8008e42:	fbb5 fcf1 	udiv	ip, r5, r1
 8008e46:	fb01 551c 	mls	r5, r1, ip, r5
 8008e4a:	fb00 f30c 	mul.w	r3, r0, ip
 8008e4e:	ea4f 4e14 	mov.w	lr, r4, lsr #16
 8008e52:	ea4e 4505 	orr.w	r5, lr, r5, lsl #16
 8008e56:	42ab      	cmp	r3, r5
 8008e58:	d907      	bls.n	8008e6a <__divdi3+0x11e>
 8008e5a:	19ed      	adds	r5, r5, r7
 8008e5c:	f10c 3eff 	add.w	lr, ip, #4294967295
 8008e60:	d202      	bcs.n	8008e68 <__divdi3+0x11c>
 8008e62:	42ab      	cmp	r3, r5
 8008e64:	f200 80c2 	bhi.w	8008fec <__divdi3+0x2a0>
 8008e68:	46f4      	mov	ip, lr
 8008e6a:	1aed      	subs	r5, r5, r3
 8008e6c:	fbb5 f3f1 	udiv	r3, r5, r1
 8008e70:	fb01 5513 	mls	r5, r1, r3, r5
 8008e74:	fb00 f003 	mul.w	r0, r0, r3
 8008e78:	b2a4      	uxth	r4, r4
 8008e7a:	ea44 4505 	orr.w	r5, r4, r5, lsl #16
 8008e7e:	42a8      	cmp	r0, r5
 8008e80:	d907      	bls.n	8008e92 <__divdi3+0x146>
 8008e82:	19ed      	adds	r5, r5, r7
 8008e84:	f103 31ff 	add.w	r1, r3, #4294967295
 8008e88:	d202      	bcs.n	8008e90 <__divdi3+0x144>
 8008e8a:	42a8      	cmp	r0, r5
 8008e8c:	f200 80b2 	bhi.w	8008ff4 <__divdi3+0x2a8>
 8008e90:	460b      	mov	r3, r1
 8008e92:	ea43 430c 	orr.w	r3, r3, ip, lsl #16
 8008e96:	e7ad      	b.n	8008df4 <__divdi3+0xa8>
 8008e98:	4252      	negs	r2, r2
 8008e9a:	ea6f 0606 	mvn.w	r6, r6
 8008e9e:	eb63 0343 	sbc.w	r3, r3, r3, lsl #1
 8008ea2:	e75c      	b.n	8008d5e <__divdi3+0x12>
 8008ea4:	4240      	negs	r0, r0
 8008ea6:	eb61 0141 	sbc.w	r1, r1, r1, lsl #1
 8008eaa:	f04f 36ff 	mov.w	r6, #4294967295
 8008eae:	e753      	b.n	8008d58 <__divdi3+0xc>
 8008eb0:	fa07 f708 	lsl.w	r7, r7, r8
 8008eb4:	f1c8 0220 	rsb	r2, r8, #32
 8008eb8:	fa25 f302 	lsr.w	r3, r5, r2
 8008ebc:	0c39      	lsrs	r1, r7, #16
 8008ebe:	fbb3 fef1 	udiv	lr, r3, r1
 8008ec2:	b2b8      	uxth	r0, r7
 8008ec4:	fb01 331e 	mls	r3, r1, lr, r3
 8008ec8:	fa24 f202 	lsr.w	r2, r4, r2
 8008ecc:	fa05 f508 	lsl.w	r5, r5, r8
 8008ed0:	fb00 f90e 	mul.w	r9, r0, lr
 8008ed4:	432a      	orrs	r2, r5
 8008ed6:	ea4f 4c12 	mov.w	ip, r2, lsr #16
 8008eda:	ea4c 4303 	orr.w	r3, ip, r3, lsl #16
 8008ede:	4599      	cmp	r9, r3
 8008ee0:	fa04 f408 	lsl.w	r4, r4, r8
 8008ee4:	d908      	bls.n	8008ef8 <__divdi3+0x1ac>
 8008ee6:	19db      	adds	r3, r3, r7
 8008ee8:	f10e 35ff 	add.w	r5, lr, #4294967295
 8008eec:	d27c      	bcs.n	8008fe8 <__divdi3+0x29c>
 8008eee:	4599      	cmp	r9, r3
 8008ef0:	d97a      	bls.n	8008fe8 <__divdi3+0x29c>
 8008ef2:	f1ae 0e02 	sub.w	lr, lr, #2
 8008ef6:	443b      	add	r3, r7
 8008ef8:	ebc9 0303 	rsb	r3, r9, r3
 8008efc:	fbb3 fcf1 	udiv	ip, r3, r1
 8008f00:	fb01 331c 	mls	r3, r1, ip, r3
 8008f04:	fb00 f50c 	mul.w	r5, r0, ip
 8008f08:	b292      	uxth	r2, r2
 8008f0a:	ea42 4303 	orr.w	r3, r2, r3, lsl #16
 8008f0e:	429d      	cmp	r5, r3
 8008f10:	d908      	bls.n	8008f24 <__divdi3+0x1d8>
 8008f12:	19db      	adds	r3, r3, r7
 8008f14:	f10c 32ff 	add.w	r2, ip, #4294967295
 8008f18:	d25e      	bcs.n	8008fd8 <__divdi3+0x28c>
 8008f1a:	429d      	cmp	r5, r3
 8008f1c:	d95c      	bls.n	8008fd8 <__divdi3+0x28c>
 8008f1e:	f1ac 0c02 	sub.w	ip, ip, #2
 8008f22:	443b      	add	r3, r7
 8008f24:	1b5d      	subs	r5, r3, r5
 8008f26:	ea4c 420e 	orr.w	r2, ip, lr, lsl #16
 8008f2a:	e78a      	b.n	8008e42 <__divdi3+0xf6>
 8008f2c:	f1c2 0320 	rsb	r3, r2, #32
 8008f30:	fa28 f103 	lsr.w	r1, r8, r3
 8008f34:	fa0c fc02 	lsl.w	ip, ip, r2
 8008f38:	ea41 0c0c 	orr.w	ip, r1, ip
 8008f3c:	ea4f 401c 	mov.w	r0, ip, lsr #16
 8008f40:	fa2e f103 	lsr.w	r1, lr, r3
 8008f44:	fbb1 f5f0 	udiv	r5, r1, r0
 8008f48:	fa1f f78c 	uxth.w	r7, ip
 8008f4c:	fb00 1115 	mls	r1, r0, r5, r1
 8008f50:	fa29 f303 	lsr.w	r3, r9, r3
 8008f54:	fa0e fe02 	lsl.w	lr, lr, r2
 8008f58:	fb07 f905 	mul.w	r9, r7, r5
 8008f5c:	ea43 0e0e 	orr.w	lr, r3, lr
 8008f60:	ea4f 431e 	mov.w	r3, lr, lsr #16
 8008f64:	ea43 4101 	orr.w	r1, r3, r1, lsl #16
 8008f68:	4589      	cmp	r9, r1
 8008f6a:	fa08 f802 	lsl.w	r8, r8, r2
 8008f6e:	d908      	bls.n	8008f82 <__divdi3+0x236>
 8008f70:	eb11 010c 	adds.w	r1, r1, ip
 8008f74:	f105 33ff 	add.w	r3, r5, #4294967295
 8008f78:	d234      	bcs.n	8008fe4 <__divdi3+0x298>
 8008f7a:	4589      	cmp	r9, r1
 8008f7c:	d932      	bls.n	8008fe4 <__divdi3+0x298>
 8008f7e:	3d02      	subs	r5, #2
 8008f80:	4461      	add	r1, ip
 8008f82:	ebc9 0101 	rsb	r1, r9, r1
 8008f86:	fbb1 f3f0 	udiv	r3, r1, r0
 8008f8a:	fb00 1113 	mls	r1, r0, r3, r1
 8008f8e:	fb07 f703 	mul.w	r7, r7, r3
 8008f92:	fa1f fe8e 	uxth.w	lr, lr
 8008f96:	ea4e 4e01 	orr.w	lr, lr, r1, lsl #16
 8008f9a:	4577      	cmp	r7, lr
 8008f9c:	d908      	bls.n	8008fb0 <__divdi3+0x264>
 8008f9e:	eb1e 0e0c 	adds.w	lr, lr, ip
 8008fa2:	f103 31ff 	add.w	r1, r3, #4294967295
 8008fa6:	d219      	bcs.n	8008fdc <__divdi3+0x290>
 8008fa8:	4577      	cmp	r7, lr
 8008faa:	d917      	bls.n	8008fdc <__divdi3+0x290>
 8008fac:	3b02      	subs	r3, #2
 8008fae:	44e6      	add	lr, ip
 8008fb0:	ea43 4305 	orr.w	r3, r3, r5, lsl #16
 8008fb4:	fba3 8908 	umull	r8, r9, r3, r8
 8008fb8:	ebc7 0e0e 	rsb	lr, r7, lr
 8008fbc:	45ce      	cmp	lr, r9
 8008fbe:	d309      	bcc.n	8008fd4 <__divdi3+0x288>
 8008fc0:	d005      	beq.n	8008fce <__divdi3+0x282>
 8008fc2:	2200      	movs	r2, #0
 8008fc4:	e716      	b.n	8008df4 <__divdi3+0xa8>
 8008fc6:	4610      	mov	r0, r2
 8008fc8:	e6f7      	b.n	8008dba <__divdi3+0x6e>
 8008fca:	4613      	mov	r3, r2
 8008fcc:	e70a      	b.n	8008de4 <__divdi3+0x98>
 8008fce:	4094      	lsls	r4, r2
 8008fd0:	4544      	cmp	r4, r8
 8008fd2:	d2f6      	bcs.n	8008fc2 <__divdi3+0x276>
 8008fd4:	3b01      	subs	r3, #1
 8008fd6:	e7f4      	b.n	8008fc2 <__divdi3+0x276>
 8008fd8:	4694      	mov	ip, r2
 8008fda:	e7a3      	b.n	8008f24 <__divdi3+0x1d8>
 8008fdc:	460b      	mov	r3, r1
 8008fde:	e7e7      	b.n	8008fb0 <__divdi3+0x264>
 8008fe0:	4613      	mov	r3, r2
 8008fe2:	e707      	b.n	8008df4 <__divdi3+0xa8>
 8008fe4:	461d      	mov	r5, r3
 8008fe6:	e7cc      	b.n	8008f82 <__divdi3+0x236>
 8008fe8:	46ae      	mov	lr, r5
 8008fea:	e785      	b.n	8008ef8 <__divdi3+0x1ac>
 8008fec:	f1ac 0c02 	sub.w	ip, ip, #2
 8008ff0:	443d      	add	r5, r7
 8008ff2:	e73a      	b.n	8008e6a <__divdi3+0x11e>
 8008ff4:	3b02      	subs	r3, #2
 8008ff6:	e74c      	b.n	8008e92 <__divdi3+0x146>

08008ff8 <__udivdi3>:
 8008ff8:	e92d 43f0 	stmdb	sp!, {r4, r5, r6, r7, r8, r9, lr}
 8008ffc:	2b00      	cmp	r3, #0
 8008ffe:	d144      	bne.n	800908a <__udivdi3+0x92>
 8009000:	428a      	cmp	r2, r1
 8009002:	4615      	mov	r5, r2
 8009004:	4604      	mov	r4, r0
 8009006:	d94f      	bls.n	80090a8 <__udivdi3+0xb0>
 8009008:	fab2 f782 	clz	r7, r2
 800900c:	460e      	mov	r6, r1
 800900e:	b14f      	cbz	r7, 8009024 <__udivdi3+0x2c>
 8009010:	f1c7 0320 	rsb	r3, r7, #32
 8009014:	40b9      	lsls	r1, r7
 8009016:	fa20 f603 	lsr.w	r6, r0, r3
 800901a:	fa02 f507 	lsl.w	r5, r2, r7
 800901e:	430e      	orrs	r6, r1
 8009020:	fa00 f407 	lsl.w	r4, r0, r7
 8009024:	0c2f      	lsrs	r7, r5, #16
 8009026:	fbb6 f0f7 	udiv	r0, r6, r7
 800902a:	fa1f fe85 	uxth.w	lr, r5
 800902e:	fb07 6210 	mls	r2, r7, r0, r6
 8009032:	fb0e f100 	mul.w	r1, lr, r0
 8009036:	0c26      	lsrs	r6, r4, #16
 8009038:	ea46 4302 	orr.w	r3, r6, r2, lsl #16
 800903c:	4299      	cmp	r1, r3
 800903e:	d909      	bls.n	8009054 <__udivdi3+0x5c>
 8009040:	195b      	adds	r3, r3, r5
 8009042:	f100 32ff 	add.w	r2, r0, #4294967295
 8009046:	f080 80f4 	bcs.w	8009232 <__udivdi3+0x23a>
 800904a:	4299      	cmp	r1, r3
 800904c:	f240 80f1 	bls.w	8009232 <__udivdi3+0x23a>
 8009050:	3802      	subs	r0, #2
 8009052:	442b      	add	r3, r5
 8009054:	1a59      	subs	r1, r3, r1
 8009056:	fbb1 f3f7 	udiv	r3, r1, r7
 800905a:	fb07 1113 	mls	r1, r7, r3, r1
 800905e:	fb0e fe03 	mul.w	lr, lr, r3
 8009062:	b2a4      	uxth	r4, r4
 8009064:	ea44 4101 	orr.w	r1, r4, r1, lsl #16
 8009068:	458e      	cmp	lr, r1
 800906a:	d908      	bls.n	800907e <__udivdi3+0x86>
 800906c:	1949      	adds	r1, r1, r5
 800906e:	f103 32ff 	add.w	r2, r3, #4294967295
 8009072:	f080 80e8 	bcs.w	8009246 <__udivdi3+0x24e>
 8009076:	458e      	cmp	lr, r1
 8009078:	f240 80e5 	bls.w	8009246 <__udivdi3+0x24e>
 800907c:	3b02      	subs	r3, #2
 800907e:	ea43 4000 	orr.w	r0, r3, r0, lsl #16
 8009082:	2600      	movs	r6, #0
 8009084:	4631      	mov	r1, r6
 8009086:	e8bd 83f0 	ldmia.w	sp!, {r4, r5, r6, r7, r8, r9, pc}
 800908a:	428b      	cmp	r3, r1
 800908c:	d847      	bhi.n	800911e <__udivdi3+0x126>
 800908e:	fab3 f683 	clz	r6, r3
 8009092:	2e00      	cmp	r6, #0
 8009094:	d148      	bne.n	8009128 <__udivdi3+0x130>
 8009096:	428b      	cmp	r3, r1
 8009098:	d302      	bcc.n	80090a0 <__udivdi3+0xa8>
 800909a:	4282      	cmp	r2, r0
 800909c:	f200 80d5 	bhi.w	800924a <__udivdi3+0x252>
 80090a0:	2001      	movs	r0, #1
 80090a2:	4631      	mov	r1, r6
 80090a4:	e8bd 83f0 	ldmia.w	sp!, {r4, r5, r6, r7, r8, r9, pc}
 80090a8:	b912      	cbnz	r2, 80090b0 <__udivdi3+0xb8>
 80090aa:	2501      	movs	r5, #1
 80090ac:	fbb5 f5f2 	udiv	r5, r5, r2
 80090b0:	fab5 fc85 	clz	ip, r5
 80090b4:	f1bc 0f00 	cmp.w	ip, #0
 80090b8:	d17f      	bne.n	80091ba <__udivdi3+0x1c2>
 80090ba:	1b49      	subs	r1, r1, r5
 80090bc:	fa1f fe85 	uxth.w	lr, r5
 80090c0:	0c2f      	lsrs	r7, r5, #16
 80090c2:	2601      	movs	r6, #1
 80090c4:	fbb1 f0f7 	udiv	r0, r1, r7
 80090c8:	fb07 1110 	mls	r1, r7, r0, r1
 80090cc:	fb0e f200 	mul.w	r2, lr, r0
 80090d0:	0c23      	lsrs	r3, r4, #16
 80090d2:	ea43 4101 	orr.w	r1, r3, r1, lsl #16
 80090d6:	428a      	cmp	r2, r1
 80090d8:	d907      	bls.n	80090ea <__udivdi3+0xf2>
 80090da:	1949      	adds	r1, r1, r5
 80090dc:	f100 33ff 	add.w	r3, r0, #4294967295
 80090e0:	d202      	bcs.n	80090e8 <__udivdi3+0xf0>
 80090e2:	428a      	cmp	r2, r1
 80090e4:	f200 80bb 	bhi.w	800925e <__udivdi3+0x266>
 80090e8:	4618      	mov	r0, r3
 80090ea:	1a89      	subs	r1, r1, r2
 80090ec:	fbb1 f3f7 	udiv	r3, r1, r7
 80090f0:	fb07 1113 	mls	r1, r7, r3, r1
 80090f4:	fb0e fe03 	mul.w	lr, lr, r3
 80090f8:	b2a4      	uxth	r4, r4
 80090fa:	ea44 4201 	orr.w	r2, r4, r1, lsl #16
 80090fe:	4596      	cmp	lr, r2
 8009100:	d908      	bls.n	8009114 <__udivdi3+0x11c>
 8009102:	1952      	adds	r2, r2, r5
 8009104:	f103 31ff 	add.w	r1, r3, #4294967295
 8009108:	f080 809b 	bcs.w	8009242 <__udivdi3+0x24a>
 800910c:	4596      	cmp	lr, r2
 800910e:	f240 8098 	bls.w	8009242 <__udivdi3+0x24a>
 8009112:	3b02      	subs	r3, #2
 8009114:	ea43 4000 	orr.w	r0, r3, r0, lsl #16
 8009118:	4631      	mov	r1, r6
 800911a:	e8bd 83f0 	ldmia.w	sp!, {r4, r5, r6, r7, r8, r9, pc}
 800911e:	2600      	movs	r6, #0
 8009120:	4630      	mov	r0, r6
 8009122:	4631      	mov	r1, r6
 8009124:	e8bd 83f0 	ldmia.w	sp!, {r4, r5, r6, r7, r8, r9, pc}
 8009128:	f1c6 0420 	rsb	r4, r6, #32
 800912c:	fa22 f504 	lsr.w	r5, r2, r4
 8009130:	40b3      	lsls	r3, r6
 8009132:	432b      	orrs	r3, r5
 8009134:	fa21 f704 	lsr.w	r7, r1, r4
 8009138:	ea4f 4813 	mov.w	r8, r3, lsr #16
 800913c:	fbb7 fcf8 	udiv	ip, r7, r8
 8009140:	fa1f f983 	uxth.w	r9, r3
 8009144:	fb08 771c 	mls	r7, r8, ip, r7
 8009148:	fa20 fe04 	lsr.w	lr, r0, r4
 800914c:	fa01 f506 	lsl.w	r5, r1, r6
 8009150:	fb09 f40c 	mul.w	r4, r9, ip
 8009154:	ea4e 0505 	orr.w	r5, lr, r5
 8009158:	ea4f 4e15 	mov.w	lr, r5, lsr #16
 800915c:	ea4e 4707 	orr.w	r7, lr, r7, lsl #16
 8009160:	42bc      	cmp	r4, r7
 8009162:	fa02 f206 	lsl.w	r2, r2, r6
 8009166:	d908      	bls.n	800917a <__udivdi3+0x182>
 8009168:	18ff      	adds	r7, r7, r3
 800916a:	f10c 31ff 	add.w	r1, ip, #4294967295
 800916e:	d26e      	bcs.n	800924e <__udivdi3+0x256>
 8009170:	42bc      	cmp	r4, r7
 8009172:	d96c      	bls.n	800924e <__udivdi3+0x256>
 8009174:	f1ac 0c02 	sub.w	ip, ip, #2
 8009178:	441f      	add	r7, r3
 800917a:	1b3f      	subs	r7, r7, r4
 800917c:	fbb7 f4f8 	udiv	r4, r7, r8
 8009180:	fb08 7714 	mls	r7, r8, r4, r7
 8009184:	fb09 f904 	mul.w	r9, r9, r4
 8009188:	b2ad      	uxth	r5, r5
 800918a:	ea45 4107 	orr.w	r1, r5, r7, lsl #16
 800918e:	4589      	cmp	r9, r1
 8009190:	d907      	bls.n	80091a2 <__udivdi3+0x1aa>
 8009192:	18c9      	adds	r1, r1, r3
 8009194:	f104 35ff 	add.w	r5, r4, #4294967295
 8009198:	d25b      	bcs.n	8009252 <__udivdi3+0x25a>
 800919a:	4589      	cmp	r9, r1
 800919c:	d959      	bls.n	8009252 <__udivdi3+0x25a>
 800919e:	3c02      	subs	r4, #2
 80091a0:	4419      	add	r1, r3
 80091a2:	ea44 440c 	orr.w	r4, r4, ip, lsl #16
 80091a6:	fba4 2302 	umull	r2, r3, r4, r2
 80091aa:	ebc9 0101 	rsb	r1, r9, r1
 80091ae:	4299      	cmp	r1, r3
 80091b0:	d344      	bcc.n	800923c <__udivdi3+0x244>
 80091b2:	d040      	beq.n	8009236 <__udivdi3+0x23e>
 80091b4:	4620      	mov	r0, r4
 80091b6:	2600      	movs	r6, #0
 80091b8:	e764      	b.n	8009084 <__udivdi3+0x8c>
 80091ba:	fa05 f50c 	lsl.w	r5, r5, ip
 80091be:	f1cc 0220 	rsb	r2, ip, #32
 80091c2:	fa21 f302 	lsr.w	r3, r1, r2
 80091c6:	0c2f      	lsrs	r7, r5, #16
 80091c8:	fbb3 f6f7 	udiv	r6, r3, r7
 80091cc:	fa1f fe85 	uxth.w	lr, r5
 80091d0:	fb07 3816 	mls	r8, r7, r6, r3
 80091d4:	fa20 f202 	lsr.w	r2, r0, r2
 80091d8:	fa01 f10c 	lsl.w	r1, r1, ip
 80091dc:	fb0e f906 	mul.w	r9, lr, r6
 80091e0:	430a      	orrs	r2, r1
 80091e2:	0c14      	lsrs	r4, r2, #16
 80091e4:	ea44 4308 	orr.w	r3, r4, r8, lsl #16
 80091e8:	4599      	cmp	r9, r3
 80091ea:	fa00 f40c 	lsl.w	r4, r0, ip
 80091ee:	d907      	bls.n	8009200 <__udivdi3+0x208>
 80091f0:	195b      	adds	r3, r3, r5
 80091f2:	f106 31ff 	add.w	r1, r6, #4294967295
 80091f6:	d230      	bcs.n	800925a <__udivdi3+0x262>
 80091f8:	4599      	cmp	r9, r3
 80091fa:	d92e      	bls.n	800925a <__udivdi3+0x262>
 80091fc:	3e02      	subs	r6, #2
 80091fe:	442b      	add	r3, r5
 8009200:	ebc9 0303 	rsb	r3, r9, r3
 8009204:	fbb3 f0f7 	udiv	r0, r3, r7
 8009208:	fb07 3310 	mls	r3, r7, r0, r3
 800920c:	fb0e f100 	mul.w	r1, lr, r0
 8009210:	b292      	uxth	r2, r2
 8009212:	ea42 4303 	orr.w	r3, r2, r3, lsl #16
 8009216:	4299      	cmp	r1, r3
 8009218:	d907      	bls.n	800922a <__udivdi3+0x232>
 800921a:	195b      	adds	r3, r3, r5
 800921c:	f100 32ff 	add.w	r2, r0, #4294967295
 8009220:	d219      	bcs.n	8009256 <__udivdi3+0x25e>
 8009222:	4299      	cmp	r1, r3
 8009224:	d917      	bls.n	8009256 <__udivdi3+0x25e>
 8009226:	3802      	subs	r0, #2
 8009228:	442b      	add	r3, r5
 800922a:	1a59      	subs	r1, r3, r1
 800922c:	ea40 4606 	orr.w	r6, r0, r6, lsl #16
 8009230:	e748      	b.n	80090c4 <__udivdi3+0xcc>
 8009232:	4610      	mov	r0, r2
 8009234:	e70e      	b.n	8009054 <__udivdi3+0x5c>
 8009236:	40b0      	lsls	r0, r6
 8009238:	4290      	cmp	r0, r2
 800923a:	d2bb      	bcs.n	80091b4 <__udivdi3+0x1bc>
 800923c:	1e60      	subs	r0, r4, #1
 800923e:	2600      	movs	r6, #0
 8009240:	e720      	b.n	8009084 <__udivdi3+0x8c>
 8009242:	460b      	mov	r3, r1
 8009244:	e766      	b.n	8009114 <__udivdi3+0x11c>
 8009246:	4613      	mov	r3, r2
 8009248:	e719      	b.n	800907e <__udivdi3+0x86>
 800924a:	4630      	mov	r0, r6
 800924c:	e71a      	b.n	8009084 <__udivdi3+0x8c>
 800924e:	468c      	mov	ip, r1
 8009250:	e793      	b.n	800917a <__udivdi3+0x182>
 8009252:	462c      	mov	r4, r5
 8009254:	e7a5      	b.n	80091a2 <__udivdi3+0x1aa>
 8009256:	4610      	mov	r0, r2
 8009258:	e7e7      	b.n	800922a <__udivdi3+0x232>
 800925a:	460e      	mov	r6, r1
 800925c:	e7d0      	b.n	8009200 <__udivdi3+0x208>
 800925e:	3802      	subs	r0, #2
 8009260:	4429      	add	r1, r5
 8009262:	e742      	b.n	80090ea <__udivdi3+0xf2>
