
test_s:     file format elf32-littlearm


Disassembly of section .text:

30000000 <__vectors0>:
30000000:	30015970 	.word	0x30015970
30000004:	30009a01 	.word	0x30009a01
30000008:	30009a2e 	.word	0x30009a2e
3000000c:	30009a2e 	.word	0x30009a2e
30000010:	30009a2e 	.word	0x30009a2e

30000014 <local_id>:
30000014:	facefeed 	.word	0xfacefeed

30000018 <_ada_test_s>:
30000018:	b5b0      	push	{r4, r5, r7, lr}
3000001a:	b0a0      	sub	sp, #128	; 0x80
3000001c:	af00      	add	r7, sp, #0
3000001e:	f107 0390 	add.w	r3, r7, #144	; 0x90
30000022:	67fb      	str	r3, [r7, #124]	; 0x7c
30000024:	f107 037c 	add.w	r3, r7, #124	; 0x7c
30000028:	469c      	mov	ip, r3
3000002a:	f000 f8d1 	bl	300001d0 <test_s__init_mpu.5424>
3000002e:	f003 ffb7 	bl	30003fa0 <stm32__board__initialize_board>
30000032:	f107 037c 	add.w	r3, r7, #124	; 0x7c
30000036:	469c      	mov	ip, r3
30000038:	f000 f90c 	bl	30000254 <test_s__enable_gtzc_sram.5428>
3000003c:	f006 fa6e 	bl	3000651c <stm32__sau__all_ns>
30000040:	4c4f      	ldr	r4, [pc, #316]	; (30000180 <_ada_test_s+0x168>)
30000042:	4d50      	ldr	r5, [pc, #320]	; (30000184 <_ada_test_s+0x16c>)
30000044:	4b50      	ldr	r3, [pc, #320]	; (30000188 <_ada_test_s+0x170>)
30000046:	f240 2209 	movw	r2, #521	; 0x209
3000004a:	4620      	mov	r0, r4
3000004c:	4629      	mov	r1, r5
3000004e:	f000 fc09 	bl	30000864 <curve__test>
30000052:	4b4e      	ldr	r3, [pc, #312]	; (3000018c <_ada_test_s+0x174>)
30000054:	603b      	str	r3, [r7, #0]
30000056:	4c4b      	ldr	r4, [pc, #300]	; (30000184 <_ada_test_s+0x16c>)
30000058:	607c      	str	r4, [r7, #4]
3000005a:	4b4b      	ldr	r3, [pc, #300]	; (30000188 <_ada_test_s+0x170>)
3000005c:	f44f 72c0 	mov.w	r2, #384	; 0x180
30000060:	e9d7 0100 	ldrd	r0, r1, [r7]
30000064:	f000 fbfe 	bl	30000864 <curve__test>
30000068:	4b49      	ldr	r3, [pc, #292]	; (30000190 <_ada_test_s+0x178>)
3000006a:	60bb      	str	r3, [r7, #8]
3000006c:	60fc      	str	r4, [r7, #12]
3000006e:	4b46      	ldr	r3, [pc, #280]	; (30000188 <_ada_test_s+0x170>)
30000070:	f44f 7280 	mov.w	r2, #256	; 0x100
30000074:	e9d7 0102 	ldrd	r0, r1, [r7, #8]
30000078:	f000 fbf4 	bl	30000864 <curve__test>
3000007c:	4b45      	ldr	r3, [pc, #276]	; (30000194 <_ada_test_s+0x17c>)
3000007e:	613b      	str	r3, [r7, #16]
30000080:	617c      	str	r4, [r7, #20]
30000082:	4b41      	ldr	r3, [pc, #260]	; (30000188 <_ada_test_s+0x170>)
30000084:	f44f 7280 	mov.w	r2, #256	; 0x100
30000088:	e9d7 0104 	ldrd	r0, r1, [r7, #16]
3000008c:	f000 fbea 	bl	30000864 <curve__test>
30000090:	4b41      	ldr	r3, [pc, #260]	; (30000198 <_ada_test_s+0x180>)
30000092:	61bb      	str	r3, [r7, #24]
30000094:	61fc      	str	r4, [r7, #28]
30000096:	4b3c      	ldr	r3, [pc, #240]	; (30000188 <_ada_test_s+0x170>)
30000098:	2280      	movs	r2, #128	; 0x80
3000009a:	e9d7 0106 	ldrd	r0, r1, [r7, #24]
3000009e:	f000 fbe1 	bl	30000864 <curve__test>
300000a2:	4b3e      	ldr	r3, [pc, #248]	; (3000019c <_ada_test_s+0x184>)
300000a4:	623b      	str	r3, [r7, #32]
300000a6:	627c      	str	r4, [r7, #36]	; 0x24
300000a8:	4b37      	ldr	r3, [pc, #220]	; (30000188 <_ada_test_s+0x170>)
300000aa:	2270      	movs	r2, #112	; 0x70
300000ac:	e9d7 0108 	ldrd	r0, r1, [r7, #32]
300000b0:	f000 fbd8 	bl	30000864 <curve__test>
300000b4:	4b3a      	ldr	r3, [pc, #232]	; (300001a0 <_ada_test_s+0x188>)
300000b6:	62bb      	str	r3, [r7, #40]	; 0x28
300000b8:	62fc      	str	r4, [r7, #44]	; 0x2c
300000ba:	4b33      	ldr	r3, [pc, #204]	; (30000188 <_ada_test_s+0x170>)
300000bc:	2270      	movs	r2, #112	; 0x70
300000be:	e9d7 010a 	ldrd	r0, r1, [r7, #40]	; 0x28
300000c2:	f000 fbcf 	bl	30000864 <curve__test>
300000c6:	4b37      	ldr	r3, [pc, #220]	; (300001a4 <_ada_test_s+0x18c>)
300000c8:	633b      	str	r3, [r7, #48]	; 0x30
300000ca:	4c37      	ldr	r4, [pc, #220]	; (300001a8 <_ada_test_s+0x190>)
300000cc:	637c      	str	r4, [r7, #52]	; 0x34
300000ce:	4b2e      	ldr	r3, [pc, #184]	; (30000188 <_ada_test_s+0x170>)
300000d0:	f240 2209 	movw	r2, #521	; 0x209
300000d4:	e9d7 010c 	ldrd	r0, r1, [r7, #48]	; 0x30
300000d8:	f000 fbc4 	bl	30000864 <curve__test>
300000dc:	4b33      	ldr	r3, [pc, #204]	; (300001ac <_ada_test_s+0x194>)
300000de:	63bb      	str	r3, [r7, #56]	; 0x38
300000e0:	63fc      	str	r4, [r7, #60]	; 0x3c
300000e2:	4b29      	ldr	r3, [pc, #164]	; (30000188 <_ada_test_s+0x170>)
300000e4:	f44f 72c0 	mov.w	r2, #384	; 0x180
300000e8:	e9d7 010e 	ldrd	r0, r1, [r7, #56]	; 0x38
300000ec:	f000 fbba 	bl	30000864 <curve__test>
300000f0:	4b2f      	ldr	r3, [pc, #188]	; (300001b0 <_ada_test_s+0x198>)
300000f2:	643b      	str	r3, [r7, #64]	; 0x40
300000f4:	647c      	str	r4, [r7, #68]	; 0x44
300000f6:	4b24      	ldr	r3, [pc, #144]	; (30000188 <_ada_test_s+0x170>)
300000f8:	f44f 7280 	mov.w	r2, #256	; 0x100
300000fc:	e9d7 0110 	ldrd	r0, r1, [r7, #64]	; 0x40
30000100:	f000 fbb0 	bl	30000864 <curve__test>
30000104:	4b2b      	ldr	r3, [pc, #172]	; (300001b4 <_ada_test_s+0x19c>)
30000106:	64bb      	str	r3, [r7, #72]	; 0x48
30000108:	64fc      	str	r4, [r7, #76]	; 0x4c
3000010a:	4b1f      	ldr	r3, [pc, #124]	; (30000188 <_ada_test_s+0x170>)
3000010c:	22e0      	movs	r2, #224	; 0xe0
3000010e:	e9d7 0112 	ldrd	r0, r1, [r7, #72]	; 0x48
30000112:	f000 fba7 	bl	30000864 <curve__test>
30000116:	4b28      	ldr	r3, [pc, #160]	; (300001b8 <_ada_test_s+0x1a0>)
30000118:	653b      	str	r3, [r7, #80]	; 0x50
3000011a:	657c      	str	r4, [r7, #84]	; 0x54
3000011c:	4b1a      	ldr	r3, [pc, #104]	; (30000188 <_ada_test_s+0x170>)
3000011e:	22c0      	movs	r2, #192	; 0xc0
30000120:	e9d7 0114 	ldrd	r0, r1, [r7, #80]	; 0x50
30000124:	f000 fb9e 	bl	30000864 <curve__test>
30000128:	4b24      	ldr	r3, [pc, #144]	; (300001bc <_ada_test_s+0x1a4>)
3000012a:	65bb      	str	r3, [r7, #88]	; 0x58
3000012c:	4c24      	ldr	r4, [pc, #144]	; (300001c0 <_ada_test_s+0x1a8>)
3000012e:	65fc      	str	r4, [r7, #92]	; 0x5c
30000130:	4b15      	ldr	r3, [pc, #84]	; (30000188 <_ada_test_s+0x170>)
30000132:	f44f 7280 	mov.w	r2, #256	; 0x100
30000136:	e9d7 0116 	ldrd	r0, r1, [r7, #88]	; 0x58
3000013a:	f000 fb93 	bl	30000864 <curve__test>
3000013e:	4b21      	ldr	r3, [pc, #132]	; (300001c4 <_ada_test_s+0x1ac>)
30000140:	663b      	str	r3, [r7, #96]	; 0x60
30000142:	667c      	str	r4, [r7, #100]	; 0x64
30000144:	4b10      	ldr	r3, [pc, #64]	; (30000188 <_ada_test_s+0x170>)
30000146:	f44f 7280 	mov.w	r2, #256	; 0x100
3000014a:	e9d7 0118 	ldrd	r0, r1, [r7, #96]	; 0x60
3000014e:	f000 fb89 	bl	30000864 <curve__test>
30000152:	4b1d      	ldr	r3, [pc, #116]	; (300001c8 <_ada_test_s+0x1b0>)
30000154:	66bb      	str	r3, [r7, #104]	; 0x68
30000156:	66fc      	str	r4, [r7, #108]	; 0x6c
30000158:	4b0b      	ldr	r3, [pc, #44]	; (30000188 <_ada_test_s+0x170>)
3000015a:	f44f 72c0 	mov.w	r2, #384	; 0x180
3000015e:	e9d7 011a 	ldrd	r0, r1, [r7, #104]	; 0x68
30000162:	f000 fb7f 	bl	30000864 <curve__test>
30000166:	4b19      	ldr	r3, [pc, #100]	; (300001cc <_ada_test_s+0x1b4>)
30000168:	673b      	str	r3, [r7, #112]	; 0x70
3000016a:	677c      	str	r4, [r7, #116]	; 0x74
3000016c:	4b06      	ldr	r3, [pc, #24]	; (30000188 <_ada_test_s+0x170>)
3000016e:	f44f 72c0 	mov.w	r2, #384	; 0x180
30000172:	e9d7 011c 	ldrd	r0, r1, [r7, #112]	; 0x70
30000176:	f000 fb75 	bl	30000864 <curve__test>
3000017a:	bf00      	nop
3000017c:	e7fd      	b.n	3000017a <_ada_test_s+0x162>
3000017e:	bf00      	nop
30000180:	30009bc8 	.word	0x30009bc8
30000184:	30009c98 	.word	0x30009c98
30000188:	30009cb4 	.word	0x30009cb4
3000018c:	30009bd4 	.word	0x30009bd4
30000190:	30009be0 	.word	0x30009be0
30000194:	30009bec 	.word	0x30009bec
30000198:	30009bf8 	.word	0x30009bf8
3000019c:	30009c04 	.word	0x30009c04
300001a0:	30009c10 	.word	0x30009c10
300001a4:	30009c1c 	.word	0x30009c1c
300001a8:	30009ca0 	.word	0x30009ca0
300001ac:	30009c28 	.word	0x30009c28
300001b0:	30009c34 	.word	0x30009c34
300001b4:	30009c40 	.word	0x30009c40
300001b8:	30009c4c 	.word	0x30009c4c
300001bc:	30009c58 	.word	0x30009c58
300001c0:	30009ca8 	.word	0x30009ca8
300001c4:	30009c68 	.word	0x30009c68
300001c8:	30009c78 	.word	0x30009c78
300001cc:	30009c88 	.word	0x30009c88

300001d0 <test_s__init_mpu.5424>:
300001d0:	b590      	push	{r4, r7, lr}
300001d2:	b083      	sub	sp, #12
300001d4:	af00      	add	r7, sp, #0
300001d6:	f8c7 c004 	str.w	ip, [r7, #4]
300001da:	4b1c      	ldr	r3, [pc, #112]	; (3000024c <test_s__init_mpu.5424+0x7c>)
300001dc:	781b      	ldrb	r3, [r3, #0]
300001de:	4619      	mov	r1, r3
300001e0:	2000      	movs	r0, #0
300001e2:	f006 f89f 	bl	30006324 <stm32__mpu__add_attrib>
300001e6:	f36f 0403 	bfc	r4, #0, #4
300001ea:	f36f 1407 	bfc	r4, #4, #4
300001ee:	4621      	mov	r1, r4
300001f0:	2001      	movs	r0, #1
300001f2:	f006 f897 	bl	30006324 <stm32__mpu__add_attrib>
300001f6:	2300      	movs	r3, #0
300001f8:	4a15      	ldr	r2, [pc, #84]	; (30000250 <test_s__init_mpu.5424+0x80>)
300001fa:	f04f 5140 	mov.w	r1, #805306368	; 0x30000000
300001fe:	2000      	movs	r0, #0
30000200:	f006 f84e 	bl	300062a0 <stm32__mpu__add_region>
30000204:	2300      	movs	r3, #0
30000206:	4a12      	ldr	r2, [pc, #72]	; (30000250 <test_s__init_mpu.5424+0x80>)
30000208:	f04f 5100 	mov.w	r1, #536870912	; 0x20000000
3000020c:	2001      	movs	r0, #1
3000020e:	f006 f847 	bl	300062a0 <stm32__mpu__add_region>
30000212:	2301      	movs	r3, #1
30000214:	f06f 4270 	mvn.w	r2, #4026531840	; 0xf0000000
30000218:	f04f 41a0 	mov.w	r1, #1342177280	; 0x50000000
3000021c:	2002      	movs	r0, #2
3000021e:	f006 f83f 	bl	300062a0 <stm32__mpu__add_region>
30000222:	2301      	movs	r3, #1
30000224:	f06f 4270 	mvn.w	r2, #4026531840	; 0xf0000000
30000228:	f04f 4180 	mov.w	r1, #1073741824	; 0x40000000
3000022c:	2003      	movs	r0, #3
3000022e:	f006 f837 	bl	300062a0 <stm32__mpu__add_region>
30000232:	2301      	movs	r3, #1
30000234:	f06f 4270 	mvn.w	r2, #4026531840	; 0xf0000000
30000238:	f04f 4160 	mov.w	r1, #3758096384	; 0xe0000000
3000023c:	2004      	movs	r0, #4
3000023e:	f006 f82f 	bl	300062a0 <stm32__mpu__add_region>
30000242:	f006 f8b3 	bl	300063ac <stm32__mpu__enable_mpu>
30000246:	370c      	adds	r7, #12
30000248:	46bd      	mov	sp, r7
3000024a:	bd90      	pop	{r4, r7, pc}
3000024c:	30009cb0 	.word	0x30009cb0
30000250:	0003ffff 	.word	0x0003ffff

30000254 <test_s__enable_gtzc_sram.5428>:
30000254:	b480      	push	{r7}
30000256:	b083      	sub	sp, #12
30000258:	af00      	add	r7, sp, #0
3000025a:	f8c7 c004 	str.w	ip, [r7, #4]
3000025e:	4b5a      	ldr	r3, [pc, #360]	; (300003c8 <test_s__enable_gtzc_sram.5428+0x174>)
30000260:	681b      	ldr	r3, [r3, #0]
30000262:	f043 4300 	orr.w	r3, r3, #2147483648	; 0x80000000
30000266:	4a58      	ldr	r2, [pc, #352]	; (300003c8 <test_s__enable_gtzc_sram.5428+0x174>)
30000268:	6013      	str	r3, [r2, #0]
3000026a:	4b57      	ldr	r3, [pc, #348]	; (300003c8 <test_s__enable_gtzc_sram.5428+0x174>)
3000026c:	f503 73a0 	add.w	r3, r3, #320	; 0x140
30000270:	681b      	ldr	r3, [r3, #0]
30000272:	461a      	mov	r2, r3
30000274:	2200      	movs	r2, #0
30000276:	4b54      	ldr	r3, [pc, #336]	; (300003c8 <test_s__enable_gtzc_sram.5428+0x174>)
30000278:	f503 73a0 	add.w	r3, r3, #320	; 0x140
3000027c:	601a      	str	r2, [r3, #0]
3000027e:	4b52      	ldr	r3, [pc, #328]	; (300003c8 <test_s__enable_gtzc_sram.5428+0x174>)
30000280:	f503 73a2 	add.w	r3, r3, #324	; 0x144
30000284:	681b      	ldr	r3, [r3, #0]
30000286:	461a      	mov	r2, r3
30000288:	2200      	movs	r2, #0
3000028a:	4b4f      	ldr	r3, [pc, #316]	; (300003c8 <test_s__enable_gtzc_sram.5428+0x174>)
3000028c:	f503 73a2 	add.w	r3, r3, #324	; 0x144
30000290:	601a      	str	r2, [r3, #0]
30000292:	4b4d      	ldr	r3, [pc, #308]	; (300003c8 <test_s__enable_gtzc_sram.5428+0x174>)
30000294:	f503 73a4 	add.w	r3, r3, #328	; 0x148
30000298:	681b      	ldr	r3, [r3, #0]
3000029a:	461a      	mov	r2, r3
3000029c:	2200      	movs	r2, #0
3000029e:	4b4a      	ldr	r3, [pc, #296]	; (300003c8 <test_s__enable_gtzc_sram.5428+0x174>)
300002a0:	f503 73a4 	add.w	r3, r3, #328	; 0x148
300002a4:	601a      	str	r2, [r3, #0]
300002a6:	4b48      	ldr	r3, [pc, #288]	; (300003c8 <test_s__enable_gtzc_sram.5428+0x174>)
300002a8:	f503 73a6 	add.w	r3, r3, #332	; 0x14c
300002ac:	681b      	ldr	r3, [r3, #0]
300002ae:	461a      	mov	r2, r3
300002b0:	2200      	movs	r2, #0
300002b2:	4b45      	ldr	r3, [pc, #276]	; (300003c8 <test_s__enable_gtzc_sram.5428+0x174>)
300002b4:	f503 73a6 	add.w	r3, r3, #332	; 0x14c
300002b8:	601a      	str	r2, [r3, #0]
300002ba:	4b43      	ldr	r3, [pc, #268]	; (300003c8 <test_s__enable_gtzc_sram.5428+0x174>)
300002bc:	f503 73a8 	add.w	r3, r3, #336	; 0x150
300002c0:	681b      	ldr	r3, [r3, #0]
300002c2:	461a      	mov	r2, r3
300002c4:	2200      	movs	r2, #0
300002c6:	4b40      	ldr	r3, [pc, #256]	; (300003c8 <test_s__enable_gtzc_sram.5428+0x174>)
300002c8:	f503 73a8 	add.w	r3, r3, #336	; 0x150
300002cc:	601a      	str	r2, [r3, #0]
300002ce:	4b3e      	ldr	r3, [pc, #248]	; (300003c8 <test_s__enable_gtzc_sram.5428+0x174>)
300002d0:	f503 73aa 	add.w	r3, r3, #340	; 0x154
300002d4:	681b      	ldr	r3, [r3, #0]
300002d6:	461a      	mov	r2, r3
300002d8:	2200      	movs	r2, #0
300002da:	4b3b      	ldr	r3, [pc, #236]	; (300003c8 <test_s__enable_gtzc_sram.5428+0x174>)
300002dc:	f503 73aa 	add.w	r3, r3, #340	; 0x154
300002e0:	601a      	str	r2, [r3, #0]
300002e2:	4b39      	ldr	r3, [pc, #228]	; (300003c8 <test_s__enable_gtzc_sram.5428+0x174>)
300002e4:	f503 73ac 	add.w	r3, r3, #344	; 0x158
300002e8:	681b      	ldr	r3, [r3, #0]
300002ea:	461a      	mov	r2, r3
300002ec:	2200      	movs	r2, #0
300002ee:	4b36      	ldr	r3, [pc, #216]	; (300003c8 <test_s__enable_gtzc_sram.5428+0x174>)
300002f0:	f503 73ac 	add.w	r3, r3, #344	; 0x158
300002f4:	601a      	str	r2, [r3, #0]
300002f6:	4b34      	ldr	r3, [pc, #208]	; (300003c8 <test_s__enable_gtzc_sram.5428+0x174>)
300002f8:	f503 73ae 	add.w	r3, r3, #348	; 0x15c
300002fc:	681b      	ldr	r3, [r3, #0]
300002fe:	461a      	mov	r2, r3
30000300:	2200      	movs	r2, #0
30000302:	4b31      	ldr	r3, [pc, #196]	; (300003c8 <test_s__enable_gtzc_sram.5428+0x174>)
30000304:	f503 73ae 	add.w	r3, r3, #348	; 0x15c
30000308:	601a      	str	r2, [r3, #0]
3000030a:	4b30      	ldr	r3, [pc, #192]	; (300003cc <test_s__enable_gtzc_sram.5428+0x178>)
3000030c:	f503 7380 	add.w	r3, r3, #256	; 0x100
30000310:	681b      	ldr	r3, [r3, #0]
30000312:	461a      	mov	r2, r3
30000314:	2200      	movs	r2, #0
30000316:	4b2d      	ldr	r3, [pc, #180]	; (300003cc <test_s__enable_gtzc_sram.5428+0x178>)
30000318:	f503 7380 	add.w	r3, r3, #256	; 0x100
3000031c:	601a      	str	r2, [r3, #0]
3000031e:	4b2b      	ldr	r3, [pc, #172]	; (300003cc <test_s__enable_gtzc_sram.5428+0x178>)
30000320:	f503 7382 	add.w	r3, r3, #260	; 0x104
30000324:	681b      	ldr	r3, [r3, #0]
30000326:	461a      	mov	r2, r3
30000328:	2200      	movs	r2, #0
3000032a:	4b28      	ldr	r3, [pc, #160]	; (300003cc <test_s__enable_gtzc_sram.5428+0x178>)
3000032c:	f503 7382 	add.w	r3, r3, #260	; 0x104
30000330:	601a      	str	r2, [r3, #0]
30000332:	4b26      	ldr	r3, [pc, #152]	; (300003cc <test_s__enable_gtzc_sram.5428+0x178>)
30000334:	f503 7384 	add.w	r3, r3, #264	; 0x108
30000338:	681b      	ldr	r3, [r3, #0]
3000033a:	461a      	mov	r2, r3
3000033c:	2200      	movs	r2, #0
3000033e:	4b23      	ldr	r3, [pc, #140]	; (300003cc <test_s__enable_gtzc_sram.5428+0x178>)
30000340:	f503 7384 	add.w	r3, r3, #264	; 0x108
30000344:	601a      	str	r2, [r3, #0]
30000346:	4b21      	ldr	r3, [pc, #132]	; (300003cc <test_s__enable_gtzc_sram.5428+0x178>)
30000348:	f503 7386 	add.w	r3, r3, #268	; 0x10c
3000034c:	681b      	ldr	r3, [r3, #0]
3000034e:	461a      	mov	r2, r3
30000350:	2200      	movs	r2, #0
30000352:	4b1e      	ldr	r3, [pc, #120]	; (300003cc <test_s__enable_gtzc_sram.5428+0x178>)
30000354:	f503 7386 	add.w	r3, r3, #268	; 0x10c
30000358:	601a      	str	r2, [r3, #0]
3000035a:	4b1c      	ldr	r3, [pc, #112]	; (300003cc <test_s__enable_gtzc_sram.5428+0x178>)
3000035c:	f503 7388 	add.w	r3, r3, #272	; 0x110
30000360:	681b      	ldr	r3, [r3, #0]
30000362:	461a      	mov	r2, r3
30000364:	2200      	movs	r2, #0
30000366:	4b19      	ldr	r3, [pc, #100]	; (300003cc <test_s__enable_gtzc_sram.5428+0x178>)
30000368:	f503 7388 	add.w	r3, r3, #272	; 0x110
3000036c:	601a      	str	r2, [r3, #0]
3000036e:	4b17      	ldr	r3, [pc, #92]	; (300003cc <test_s__enable_gtzc_sram.5428+0x178>)
30000370:	f503 738a 	add.w	r3, r3, #276	; 0x114
30000374:	681b      	ldr	r3, [r3, #0]
30000376:	461a      	mov	r2, r3
30000378:	2200      	movs	r2, #0
3000037a:	4b14      	ldr	r3, [pc, #80]	; (300003cc <test_s__enable_gtzc_sram.5428+0x178>)
3000037c:	f503 738a 	add.w	r3, r3, #276	; 0x114
30000380:	601a      	str	r2, [r3, #0]
30000382:	4b12      	ldr	r3, [pc, #72]	; (300003cc <test_s__enable_gtzc_sram.5428+0x178>)
30000384:	f503 738c 	add.w	r3, r3, #280	; 0x118
30000388:	681b      	ldr	r3, [r3, #0]
3000038a:	461a      	mov	r2, r3
3000038c:	2200      	movs	r2, #0
3000038e:	4b0f      	ldr	r3, [pc, #60]	; (300003cc <test_s__enable_gtzc_sram.5428+0x178>)
30000390:	f503 738c 	add.w	r3, r3, #280	; 0x118
30000394:	601a      	str	r2, [r3, #0]
30000396:	4b0d      	ldr	r3, [pc, #52]	; (300003cc <test_s__enable_gtzc_sram.5428+0x178>)
30000398:	f503 738e 	add.w	r3, r3, #284	; 0x11c
3000039c:	681b      	ldr	r3, [r3, #0]
3000039e:	461a      	mov	r2, r3
300003a0:	2200      	movs	r2, #0
300003a2:	4b0a      	ldr	r3, [pc, #40]	; (300003cc <test_s__enable_gtzc_sram.5428+0x178>)
300003a4:	f503 738e 	add.w	r3, r3, #284	; 0x11c
300003a8:	601a      	str	r2, [r3, #0]
300003aa:	4b09      	ldr	r3, [pc, #36]	; (300003d0 <test_s__enable_gtzc_sram.5428+0x17c>)
300003ac:	3348      	adds	r3, #72	; 0x48
300003ae:	681b      	ldr	r3, [r3, #0]
300003b0:	461a      	mov	r2, r3
300003b2:	4613      	mov	r3, r2
300003b4:	f443 0280 	orr.w	r2, r3, #4194304	; 0x400000
300003b8:	4b05      	ldr	r3, [pc, #20]	; (300003d0 <test_s__enable_gtzc_sram.5428+0x17c>)
300003ba:	3348      	adds	r3, #72	; 0x48
300003bc:	601a      	str	r2, [r3, #0]
300003be:	370c      	adds	r7, #12
300003c0:	46bd      	mov	sp, r7
300003c2:	f85d 7b04 	ldr.w	r7, [sp], #4
300003c6:	4770      	bx	lr
300003c8:	50032c00 	.word	0x50032c00
300003cc:	50033000 	.word	0x50033000
300003d0:	50021000 	.word	0x50021000

300003d4 <ada_main__Tsec_default_sized_stacksBIP>:
300003d4:	b5f0      	push	{r4, r5, r6, r7, lr}
300003d6:	b083      	sub	sp, #12
300003d8:	af00      	add	r7, sp, #0
300003da:	e9c7 0100 	strd	r0, r1, [r7]
300003de:	687b      	ldr	r3, [r7, #4]
300003e0:	681b      	ldr	r3, [r3, #0]
300003e2:	461e      	mov	r6, r3
300003e4:	687b      	ldr	r3, [r7, #4]
300003e6:	681c      	ldr	r4, [r3, #0]
300003e8:	687b      	ldr	r3, [r7, #4]
300003ea:	685d      	ldr	r5, [r3, #4]
300003ec:	42ac      	cmp	r4, r5
300003ee:	dc10      	bgt.n	30000412 <ada_main__Tsec_default_sized_stacksBIP+0x3e>
300003f0:	6839      	ldr	r1, [r7, #0]
300003f2:	4623      	mov	r3, r4
300003f4:	1b9a      	subs	r2, r3, r6
300003f6:	4613      	mov	r3, r2
300003f8:	015b      	lsls	r3, r3, #5
300003fa:	4413      	add	r3, r2
300003fc:	011b      	lsls	r3, r3, #4
300003fe:	440b      	add	r3, r1
30000400:	f44f 7100 	mov.w	r1, #512	; 0x200
30000404:	4618      	mov	r0, r3
30000406:	f009 fa93 	bl	30009930 <system__secondary_stack__ss_stackIP>
3000040a:	42ac      	cmp	r4, r5
3000040c:	d001      	beq.n	30000412 <ada_main__Tsec_default_sized_stacksBIP+0x3e>
3000040e:	3401      	adds	r4, #1
30000410:	e7ee      	b.n	300003f0 <ada_main__Tsec_default_sized_stacksBIP+0x1c>
30000412:	370c      	adds	r7, #12
30000414:	46bd      	mov	sp, r7
30000416:	bdf0      	pop	{r4, r5, r6, r7, pc}

30000418 <adainit>:
30000418:	b580      	push	{r7, lr}
3000041a:	af00      	add	r7, sp, #0
3000041c:	4b48      	ldr	r3, [pc, #288]	; (30000540 <adainit+0x128>)
3000041e:	2253      	movs	r2, #83	; 0x53
30000420:	701a      	strb	r2, [r3, #0]
30000422:	f000 f8c5 	bl	300005b0 <ada_main___elabb>
30000426:	4b47      	ldr	r3, [pc, #284]	; (30000544 <adainit+0x12c>)
30000428:	f44f 7200 	mov.w	r2, #512	; 0x200
3000042c:	601a      	str	r2, [r3, #0]
3000042e:	4b46      	ldr	r3, [pc, #280]	; (30000548 <adainit+0x130>)
30000430:	2201      	movs	r2, #1
30000432:	601a      	str	r2, [r3, #0]
30000434:	4a45      	ldr	r2, [pc, #276]	; (3000054c <adainit+0x134>)
30000436:	4b46      	ldr	r3, [pc, #280]	; (30000550 <adainit+0x138>)
30000438:	601a      	str	r2, [r3, #0]
3000043a:	f007 ff31 	bl	300082a0 <ada__real_time___elabb>
3000043e:	4b45      	ldr	r3, [pc, #276]	; (30000554 <adainit+0x13c>)
30000440:	881b      	ldrh	r3, [r3, #0]
30000442:	b21b      	sxth	r3, r3
30000444:	3301      	adds	r3, #1
30000446:	b21a      	sxth	r2, r3
30000448:	4b42      	ldr	r3, [pc, #264]	; (30000554 <adainit+0x13c>)
3000044a:	801a      	strh	r2, [r3, #0]
3000044c:	f008 fb96 	bl	30008b7c <system__tasking__protected_objects___elabb>
30000450:	4b41      	ldr	r3, [pc, #260]	; (30000558 <adainit+0x140>)
30000452:	881b      	ldrh	r3, [r3, #0]
30000454:	b21b      	sxth	r3, r3
30000456:	3301      	adds	r3, #1
30000458:	b21a      	sxth	r2, r3
3000045a:	4b3f      	ldr	r3, [pc, #252]	; (30000558 <adainit+0x140>)
3000045c:	801a      	strh	r2, [r3, #0]
3000045e:	f008 fd33 	bl	30008ec8 <system__tasking__protected_objects__multiprocessors___elabb>
30000462:	4b3e      	ldr	r3, [pc, #248]	; (3000055c <adainit+0x144>)
30000464:	881b      	ldrh	r3, [r3, #0]
30000466:	b21b      	sxth	r3, r3
30000468:	3301      	adds	r3, #1
3000046a:	b21a      	sxth	r2, r3
3000046c:	4b3b      	ldr	r3, [pc, #236]	; (3000055c <adainit+0x144>)
3000046e:	801a      	strh	r2, [r3, #0]
30000470:	f008 fc2a 	bl	30008cc8 <system__tasking__restricted__stages___elabb>
30000474:	4b3a      	ldr	r3, [pc, #232]	; (30000560 <adainit+0x148>)
30000476:	881b      	ldrh	r3, [r3, #0]
30000478:	b21b      	sxth	r3, r3
3000047a:	3301      	adds	r3, #1
3000047c:	b21a      	sxth	r2, r3
3000047e:	4b38      	ldr	r3, [pc, #224]	; (30000560 <adainit+0x148>)
30000480:	801a      	strh	r2, [r3, #0]
30000482:	4b38      	ldr	r3, [pc, #224]	; (30000564 <adainit+0x14c>)
30000484:	881b      	ldrh	r3, [r3, #0]
30000486:	b21b      	sxth	r3, r3
30000488:	3301      	adds	r3, #1
3000048a:	b21a      	sxth	r2, r3
3000048c:	4b35      	ldr	r3, [pc, #212]	; (30000564 <adainit+0x14c>)
3000048e:	801a      	strh	r2, [r3, #0]
30000490:	4b35      	ldr	r3, [pc, #212]	; (30000568 <adainit+0x150>)
30000492:	881b      	ldrh	r3, [r3, #0]
30000494:	b21b      	sxth	r3, r3
30000496:	3301      	adds	r3, #1
30000498:	b21a      	sxth	r2, r3
3000049a:	4b33      	ldr	r3, [pc, #204]	; (30000568 <adainit+0x150>)
3000049c:	801a      	strh	r2, [r3, #0]
3000049e:	4b33      	ldr	r3, [pc, #204]	; (3000056c <adainit+0x154>)
300004a0:	881b      	ldrh	r3, [r3, #0]
300004a2:	b21b      	sxth	r3, r3
300004a4:	3301      	adds	r3, #1
300004a6:	b21a      	sxth	r2, r3
300004a8:	4b30      	ldr	r3, [pc, #192]	; (3000056c <adainit+0x154>)
300004aa:	801a      	strh	r2, [r3, #0]
300004ac:	4b30      	ldr	r3, [pc, #192]	; (30000570 <adainit+0x158>)
300004ae:	881b      	ldrh	r3, [r3, #0]
300004b0:	b21b      	sxth	r3, r3
300004b2:	3301      	adds	r3, #1
300004b4:	b21a      	sxth	r2, r3
300004b6:	4b2e      	ldr	r3, [pc, #184]	; (30000570 <adainit+0x158>)
300004b8:	801a      	strh	r2, [r3, #0]
300004ba:	4b2e      	ldr	r3, [pc, #184]	; (30000574 <adainit+0x15c>)
300004bc:	881b      	ldrh	r3, [r3, #0]
300004be:	b21b      	sxth	r3, r3
300004c0:	3301      	adds	r3, #1
300004c2:	b21a      	sxth	r2, r3
300004c4:	4b2b      	ldr	r3, [pc, #172]	; (30000574 <adainit+0x15c>)
300004c6:	801a      	strh	r2, [r3, #0]
300004c8:	f003 ff94 	bl	300043f4 <stm32__device___elabs>
300004cc:	f003 ff6a 	bl	300043a4 <stm32__device___elabb>
300004d0:	4b29      	ldr	r3, [pc, #164]	; (30000578 <adainit+0x160>)
300004d2:	881b      	ldrh	r3, [r3, #0]
300004d4:	b21b      	sxth	r3, r3
300004d6:	3301      	adds	r3, #1
300004d8:	b21a      	sxth	r2, r3
300004da:	4b27      	ldr	r3, [pc, #156]	; (30000578 <adainit+0x160>)
300004dc:	801a      	strh	r2, [r3, #0]
300004de:	4b27      	ldr	r3, [pc, #156]	; (3000057c <adainit+0x164>)
300004e0:	881b      	ldrh	r3, [r3, #0]
300004e2:	b21b      	sxth	r3, r3
300004e4:	3301      	adds	r3, #1
300004e6:	b21a      	sxth	r2, r3
300004e8:	4b24      	ldr	r3, [pc, #144]	; (3000057c <adainit+0x164>)
300004ea:	801a      	strh	r2, [r3, #0]
300004ec:	4b24      	ldr	r3, [pc, #144]	; (30000580 <adainit+0x168>)
300004ee:	881b      	ldrh	r3, [r3, #0]
300004f0:	b21b      	sxth	r3, r3
300004f2:	3301      	adds	r3, #1
300004f4:	b21a      	sxth	r2, r3
300004f6:	4b22      	ldr	r3, [pc, #136]	; (30000580 <adainit+0x168>)
300004f8:	801a      	strh	r2, [r3, #0]
300004fa:	f003 fd59 	bl	30003fb0 <stm32__board___elabs>
300004fe:	4b21      	ldr	r3, [pc, #132]	; (30000584 <adainit+0x16c>)
30000500:	881b      	ldrh	r3, [r3, #0]
30000502:	b21b      	sxth	r3, r3
30000504:	3301      	adds	r3, #1
30000506:	b21a      	sxth	r2, r3
30000508:	4b1e      	ldr	r3, [pc, #120]	; (30000584 <adainit+0x16c>)
3000050a:	801a      	strh	r2, [r3, #0]
3000050c:	f005 ffde 	bl	300064cc <stm32__rng___elabs>
30000510:	4b1d      	ldr	r3, [pc, #116]	; (30000588 <adainit+0x170>)
30000512:	881b      	ldrh	r3, [r3, #0]
30000514:	b21b      	sxth	r3, r3
30000516:	3301      	adds	r3, #1
30000518:	b21a      	sxth	r2, r3
3000051a:	4b1b      	ldr	r3, [pc, #108]	; (30000588 <adainit+0x170>)
3000051c:	801a      	strh	r2, [r3, #0]
3000051e:	4b1b      	ldr	r3, [pc, #108]	; (3000058c <adainit+0x174>)
30000520:	881b      	ldrh	r3, [r3, #0]
30000522:	b21b      	sxth	r3, r3
30000524:	3301      	adds	r3, #1
30000526:	b21a      	sxth	r2, r3
30000528:	4b18      	ldr	r3, [pc, #96]	; (3000058c <adainit+0x174>)
3000052a:	801a      	strh	r2, [r3, #0]
3000052c:	4b18      	ldr	r3, [pc, #96]	; (30000590 <adainit+0x178>)
3000052e:	881b      	ldrh	r3, [r3, #0]
30000530:	b21b      	sxth	r3, r3
30000532:	3301      	adds	r3, #1
30000534:	b21a      	sxth	r2, r3
30000536:	4b16      	ldr	r3, [pc, #88]	; (30000590 <adainit+0x178>)
30000538:	801a      	strh	r2, [r3, #0]
3000053a:	f008 fbbb 	bl	30008cb4 <__gnat_activate_all_tasks>
3000053e:	bd80      	pop	{r7, pc}
30000540:	3000bcee 	.word	0x3000bcee
30000544:	3000d168 	.word	0x3000d168
30000548:	3000d160 	.word	0x3000d160
3000054c:	3000bd30 	.word	0x3000bd30
30000550:	3000d164 	.word	0x3000d164
30000554:	3000bcb8 	.word	0x3000bcb8
30000558:	3000bcec 	.word	0x3000bcec
3000055c:	3000bd12 	.word	0x3000bd12
30000560:	3000bcf0 	.word	0x3000bcf0
30000564:	3000bca6 	.word	0x3000bca6
30000568:	3000bcaa 	.word	0x3000bcaa
3000056c:	3000bcae 	.word	0x3000bcae
30000570:	3000bcb2 	.word	0x3000bcb2
30000574:	3000bcb4 	.word	0x3000bcb4
30000578:	3000bca4 	.word	0x3000bca4
3000057c:	3000bcb6 	.word	0x3000bcb6
30000580:	3000bca8 	.word	0x3000bca8
30000584:	3000bca2 	.word	0x3000bca2
30000588:	3000bcb0 	.word	0x3000bcb0
3000058c:	3000bcac 	.word	0x3000bcac
30000590:	3000bca0 	.word	0x3000bca0

30000594 <main>:
30000594:	b580      	push	{r7, lr}
30000596:	b082      	sub	sp, #8
30000598:	af00      	add	r7, sp, #0
3000059a:	4b04      	ldr	r3, [pc, #16]	; (300005ac <main+0x18>)
3000059c:	607b      	str	r3, [r7, #4]
3000059e:	f7ff ff3b 	bl	30000418 <adainit>
300005a2:	f7ff fd39 	bl	30000018 <_ada_test_s>
300005a6:	3708      	adds	r7, #8
300005a8:	46bd      	mov	sp, r7
300005aa:	bd80      	pop	{r7, pc}
300005ac:	30009cfc 	.word	0x30009cfc

300005b0 <ada_main___elabb>:
300005b0:	b598      	push	{r3, r4, r7, lr}
300005b2:	af00      	add	r7, sp, #0
300005b4:	4b03      	ldr	r3, [pc, #12]	; (300005c4 <ada_main___elabb+0x14>)
300005b6:	4c04      	ldr	r4, [pc, #16]	; (300005c8 <ada_main___elabb+0x18>)
300005b8:	4618      	mov	r0, r3
300005ba:	4621      	mov	r1, r4
300005bc:	f7ff ff0a 	bl	300003d4 <ada_main__Tsec_default_sized_stacksBIP>
300005c0:	bd98      	pop	{r3, r4, r7, pc}
300005c2:	bf00      	nop
300005c4:	3000bd30 	.word	0x3000bd30
300005c8:	30009cf4 	.word	0x30009cf4

300005cc <curve__test__ec__copy_s_to_u32.5577>:
300005cc:	e92d 43f0 	stmdb	sp!, {r4, r5, r6, r7, r8, r9, lr}
300005d0:	b097      	sub	sp, #92	; 0x5c
300005d2:	af00      	add	r7, sp, #0
300005d4:	e9c7 0104 	strd	r0, r1, [r7, #16]
300005d8:	e9c7 2302 	strd	r2, r3, [r7, #8]
300005dc:	f8c7 c004 	str.w	ip, [r7, #4]
300005e0:	697b      	ldr	r3, [r7, #20]
300005e2:	6819      	ldr	r1, [r3, #0]
300005e4:	697b      	ldr	r3, [r7, #20]
300005e6:	6858      	ldr	r0, [r3, #4]
300005e8:	4288      	cmp	r0, r1
300005ea:	db10      	blt.n	3000060e <curve__test__ec__copy_s_to_u32.5577+0x42>
300005ec:	4605      	mov	r5, r0
300005ee:	ea4f 76e5 	mov.w	r6, r5, asr #31
300005f2:	4688      	mov	r8, r1
300005f4:	ea4f 79e8 	mov.w	r9, r8, asr #31
300005f8:	462b      	mov	r3, r5
300005fa:	4634      	mov	r4, r6
300005fc:	ebb3 0308 	subs.w	r3, r3, r8
30000600:	eb64 0409 	sbc.w	r4, r4, r9
30000604:	f113 0801 	adds.w	r8, r3, #1
30000608:	f144 0900 	adc.w	r9, r4, #0
3000060c:	e003      	b.n	30000616 <curve__test__ec__copy_s_to_u32.5577+0x4a>
3000060e:	f04f 0800 	mov.w	r8, #0
30000612:	f04f 0900 	mov.w	r9, #0
30000616:	466a      	mov	r2, sp
30000618:	4696      	mov	lr, r2
3000061a:	68fa      	ldr	r2, [r7, #12]
3000061c:	6812      	ldr	r2, [r2, #0]
3000061e:	4694      	mov	ip, r2
30000620:	460a      	mov	r2, r1
30000622:	2500      	movs	r5, #0
30000624:	f887 504f 	strb.w	r5, [r7, #79]	; 0x4f
30000628:	f1b8 4f00 	cmp.w	r8, #2147483648	; 0x80000000
3000062c:	f179 33ff 	sbcs.w	r3, r9, #4294967295	; 0xffffffff
30000630:	db07      	blt.n	30000642 <curve__test__ec__copy_s_to_u32.5577+0x76>
30000632:	f06f 4500 	mvn.w	r5, #2147483648	; 0x80000000
30000636:	f04f 0600 	mov.w	r6, #0
3000063a:	4545      	cmp	r5, r8
3000063c:	eb76 0309 	sbcs.w	r3, r6, r9
30000640:	da03      	bge.n	3000064a <curve__test__ec__copy_s_to_u32.5577+0x7e>
30000642:	2112      	movs	r1, #18
30000644:	4886      	ldr	r0, [pc, #536]	; (30000860 <curve__test__ec__copy_s_to_u32.5577+0x294>)
30000646:	f008 fea3 	bl	30009390 <__gnat_last_chance_handler>
3000064a:	4643      	mov	r3, r8
3000064c:	0fdc      	lsrs	r4, r3, #31
3000064e:	4423      	add	r3, r4
30000650:	105b      	asrs	r3, r3, #1
30000652:	643b      	str	r3, [r7, #64]	; 0x40
30000654:	6c3b      	ldr	r3, [r7, #64]	; 0x40
30000656:	f1b3 4f00 	cmp.w	r3, #2147483648	; 0x80000000
3000065a:	d103      	bne.n	30000664 <curve__test__ec__copy_s_to_u32.5577+0x98>
3000065c:	2113      	movs	r1, #19
3000065e:	4880      	ldr	r0, [pc, #512]	; (30000860 <curve__test__ec__copy_s_to_u32.5577+0x294>)
30000660:	f008 fe96 	bl	30009390 <__gnat_last_chance_handler>
30000664:	6c3b      	ldr	r3, [r7, #64]	; 0x40
30000666:	3b01      	subs	r3, #1
30000668:	63fb      	str	r3, [r7, #60]	; 0x3c
3000066a:	6bfb      	ldr	r3, [r7, #60]	; 0x3c
3000066c:	63bb      	str	r3, [r7, #56]	; 0x38
3000066e:	6bbb      	ldr	r3, [r7, #56]	; 0x38
30000670:	2b00      	cmp	r3, #0
30000672:	db02      	blt.n	3000067a <curve__test__ec__copy_s_to_u32.5577+0xae>
30000674:	6bbb      	ldr	r3, [r7, #56]	; 0x38
30000676:	637b      	str	r3, [r7, #52]	; 0x34
30000678:	e002      	b.n	30000680 <curve__test__ec__copy_s_to_u32.5577+0xb4>
3000067a:	f04f 33ff 	mov.w	r3, #4294967295	; 0xffffffff
3000067e:	637b      	str	r3, [r7, #52]	; 0x34
30000680:	6bbb      	ldr	r3, [r7, #56]	; 0x38
30000682:	2b00      	cmp	r3, #0
30000684:	db02      	blt.n	3000068c <curve__test__ec__copy_s_to_u32.5577+0xc0>
30000686:	6bbb      	ldr	r3, [r7, #56]	; 0x38
30000688:	3301      	adds	r3, #1
3000068a:	e000      	b.n	3000068e <curve__test__ec__copy_s_to_u32.5577+0xc2>
3000068c:	2300      	movs	r3, #0
3000068e:	3307      	adds	r3, #7
30000690:	08db      	lsrs	r3, r3, #3
30000692:	00db      	lsls	r3, r3, #3
30000694:	ebad 0d03 	sub.w	sp, sp, r3
30000698:	466b      	mov	r3, sp
3000069a:	3300      	adds	r3, #0
3000069c:	633b      	str	r3, [r7, #48]	; 0x30
3000069e:	2300      	movs	r3, #0
300006a0:	653b      	str	r3, [r7, #80]	; 0x50
300006a2:	2300      	movs	r3, #0
300006a4:	657b      	str	r3, [r7, #84]	; 0x54
300006a6:	2300      	movs	r3, #0
300006a8:	f887 304e 	strb.w	r3, [r7, #78]	; 0x4e
300006ac:	f107 031c 	add.w	r3, r7, #28
300006b0:	62fb      	str	r3, [r7, #44]	; 0x2c
300006b2:	2300      	movs	r3, #0
300006b4:	f887 304d 	strb.w	r3, [r7, #77]	; 0x4d
300006b8:	62b9      	str	r1, [r7, #40]	; 0x28
300006ba:	6278      	str	r0, [r7, #36]	; 0x24
300006bc:	6ab9      	ldr	r1, [r7, #40]	; 0x28
300006be:	6a7b      	ldr	r3, [r7, #36]	; 0x24
300006c0:	4299      	cmp	r1, r3
300006c2:	dc68      	bgt.n	30000796 <curve__test__ec__copy_s_to_u32.5577+0x1ca>
300006c4:	6abb      	ldr	r3, [r7, #40]	; 0x28
300006c6:	64bb      	str	r3, [r7, #72]	; 0x48
300006c8:	f897 304d 	ldrb.w	r3, [r7, #77]	; 0x4d
300006cc:	011b      	lsls	r3, r3, #4
300006ce:	f887 304d 	strb.w	r3, [r7, #77]	; 0x4d
300006d2:	6939      	ldr	r1, [r7, #16]
300006d4:	6cbb      	ldr	r3, [r7, #72]	; 0x48
300006d6:	1a9b      	subs	r3, r3, r2
300006d8:	5ccb      	ldrb	r3, [r1, r3]
300006da:	2b60      	cmp	r3, #96	; 0x60
300006dc:	d90b      	bls.n	300006f6 <curve__test__ec__copy_s_to_u32.5577+0x12a>
300006de:	6939      	ldr	r1, [r7, #16]
300006e0:	6cbb      	ldr	r3, [r7, #72]	; 0x48
300006e2:	1a9b      	subs	r3, r3, r2
300006e4:	5cc9      	ldrb	r1, [r1, r3]
300006e6:	f897 304d 	ldrb.w	r3, [r7, #77]	; 0x4d
300006ea:	440b      	add	r3, r1
300006ec:	b2db      	uxtb	r3, r3
300006ee:	3b57      	subs	r3, #87	; 0x57
300006f0:	f887 304d 	strb.w	r3, [r7, #77]	; 0x4d
300006f4:	e01c      	b.n	30000730 <curve__test__ec__copy_s_to_u32.5577+0x164>
300006f6:	6939      	ldr	r1, [r7, #16]
300006f8:	6cbb      	ldr	r3, [r7, #72]	; 0x48
300006fa:	1a9b      	subs	r3, r3, r2
300006fc:	5ccb      	ldrb	r3, [r1, r3]
300006fe:	2b40      	cmp	r3, #64	; 0x40
30000700:	d90b      	bls.n	3000071a <curve__test__ec__copy_s_to_u32.5577+0x14e>
30000702:	6939      	ldr	r1, [r7, #16]
30000704:	6cbb      	ldr	r3, [r7, #72]	; 0x48
30000706:	1a9b      	subs	r3, r3, r2
30000708:	5cc9      	ldrb	r1, [r1, r3]
3000070a:	f897 304d 	ldrb.w	r3, [r7, #77]	; 0x4d
3000070e:	440b      	add	r3, r1
30000710:	b2db      	uxtb	r3, r3
30000712:	3b37      	subs	r3, #55	; 0x37
30000714:	f887 304d 	strb.w	r3, [r7, #77]	; 0x4d
30000718:	e00a      	b.n	30000730 <curve__test__ec__copy_s_to_u32.5577+0x164>
3000071a:	6939      	ldr	r1, [r7, #16]
3000071c:	6cbb      	ldr	r3, [r7, #72]	; 0x48
3000071e:	1a9b      	subs	r3, r3, r2
30000720:	5cc9      	ldrb	r1, [r1, r3]
30000722:	f897 304d 	ldrb.w	r3, [r7, #77]	; 0x4d
30000726:	440b      	add	r3, r1
30000728:	b2db      	uxtb	r3, r3
3000072a:	3b30      	subs	r3, #48	; 0x30
3000072c:	f887 304d 	strb.w	r3, [r7, #77]	; 0x4d
30000730:	f897 304e 	ldrb.w	r3, [r7, #78]	; 0x4e
30000734:	3301      	adds	r3, #1
30000736:	b2db      	uxtb	r3, r3
30000738:	f003 0301 	and.w	r3, r3, #1
3000073c:	f887 304e 	strb.w	r3, [r7, #78]	; 0x4e
30000740:	f897 304e 	ldrb.w	r3, [r7, #78]	; 0x4e
30000744:	2b00      	cmp	r3, #0
30000746:	d11e      	bne.n	30000786 <curve__test__ec__copy_s_to_u32.5577+0x1ba>
30000748:	6d3b      	ldr	r3, [r7, #80]	; 0x50
3000074a:	2b00      	cmp	r3, #0
3000074c:	db03      	blt.n	30000756 <curve__test__ec__copy_s_to_u32.5577+0x18a>
3000074e:	6d39      	ldr	r1, [r7, #80]	; 0x50
30000750:	6bfb      	ldr	r3, [r7, #60]	; 0x3c
30000752:	4299      	cmp	r1, r3
30000754:	dd03      	ble.n	3000075e <curve__test__ec__copy_s_to_u32.5577+0x192>
30000756:	2126      	movs	r1, #38	; 0x26
30000758:	4841      	ldr	r0, [pc, #260]	; (30000860 <curve__test__ec__copy_s_to_u32.5577+0x294>)
3000075a:	f008 fe19 	bl	30009390 <__gnat_last_chance_handler>
3000075e:	6d3b      	ldr	r3, [r7, #80]	; 0x50
30000760:	6b39      	ldr	r1, [r7, #48]	; 0x30
30000762:	f897 004d 	ldrb.w	r0, [r7, #77]	; 0x4d
30000766:	54c8      	strb	r0, [r1, r3]
30000768:	6d3b      	ldr	r3, [r7, #80]	; 0x50
3000076a:	f06f 4100 	mvn.w	r1, #2147483648	; 0x80000000
3000076e:	428b      	cmp	r3, r1
30000770:	d103      	bne.n	3000077a <curve__test__ec__copy_s_to_u32.5577+0x1ae>
30000772:	2127      	movs	r1, #39	; 0x27
30000774:	483a      	ldr	r0, [pc, #232]	; (30000860 <curve__test__ec__copy_s_to_u32.5577+0x294>)
30000776:	f008 fe0b 	bl	30009390 <__gnat_last_chance_handler>
3000077a:	6d3b      	ldr	r3, [r7, #80]	; 0x50
3000077c:	3301      	adds	r3, #1
3000077e:	653b      	str	r3, [r7, #80]	; 0x50
30000780:	2300      	movs	r3, #0
30000782:	f887 304d 	strb.w	r3, [r7, #77]	; 0x4d
30000786:	6cb9      	ldr	r1, [r7, #72]	; 0x48
30000788:	6a7b      	ldr	r3, [r7, #36]	; 0x24
3000078a:	4299      	cmp	r1, r3
3000078c:	d003      	beq.n	30000796 <curve__test__ec__copy_s_to_u32.5577+0x1ca>
3000078e:	6cbb      	ldr	r3, [r7, #72]	; 0x48
30000790:	3301      	adds	r3, #1
30000792:	64bb      	str	r3, [r7, #72]	; 0x48
30000794:	e798      	b.n	300006c8 <curve__test__ec__copy_s_to_u32.5577+0xfc>
30000796:	6bbb      	ldr	r3, [r7, #56]	; 0x38
30000798:	623b      	str	r3, [r7, #32]
3000079a:	6a3b      	ldr	r3, [r7, #32]
3000079c:	647b      	str	r3, [r7, #68]	; 0x44
3000079e:	6c7b      	ldr	r3, [r7, #68]	; 0x44
300007a0:	2b00      	cmp	r3, #0
300007a2:	db3e      	blt.n	30000822 <curve__test__ec__copy_s_to_u32.5577+0x256>
300007a4:	6c7a      	ldr	r2, [r7, #68]	; 0x44
300007a6:	f897 304f 	ldrb.w	r3, [r7, #79]	; 0x4f
300007aa:	6b39      	ldr	r1, [r7, #48]	; 0x30
300007ac:	5c8a      	ldrb	r2, [r1, r2]
300007ae:	f107 0158 	add.w	r1, r7, #88	; 0x58
300007b2:	440b      	add	r3, r1
300007b4:	f803 2c3c 	strb.w	r2, [r3, #-60]
300007b8:	f897 304f 	ldrb.w	r3, [r7, #79]	; 0x4f
300007bc:	3301      	adds	r3, #1
300007be:	b2db      	uxtb	r3, r3
300007c0:	f003 0303 	and.w	r3, r3, #3
300007c4:	f887 304f 	strb.w	r3, [r7, #79]	; 0x4f
300007c8:	f897 304f 	ldrb.w	r3, [r7, #79]	; 0x4f
300007cc:	2b00      	cmp	r3, #0
300007ce:	d124      	bne.n	3000081a <curve__test__ec__copy_s_to_u32.5577+0x24e>
300007d0:	68fb      	ldr	r3, [r7, #12]
300007d2:	681b      	ldr	r3, [r3, #0]
300007d4:	6d7a      	ldr	r2, [r7, #84]	; 0x54
300007d6:	429a      	cmp	r2, r3
300007d8:	db04      	blt.n	300007e4 <curve__test__ec__copy_s_to_u32.5577+0x218>
300007da:	68fb      	ldr	r3, [r7, #12]
300007dc:	685b      	ldr	r3, [r3, #4]
300007de:	6d7a      	ldr	r2, [r7, #84]	; 0x54
300007e0:	429a      	cmp	r2, r3
300007e2:	dd03      	ble.n	300007ec <curve__test__ec__copy_s_to_u32.5577+0x220>
300007e4:	2131      	movs	r1, #49	; 0x31
300007e6:	481e      	ldr	r0, [pc, #120]	; (30000860 <curve__test__ec__copy_s_to_u32.5577+0x294>)
300007e8:	f008 fdd2 	bl	30009390 <__gnat_last_chance_handler>
300007ec:	68bb      	ldr	r3, [r7, #8]
300007ee:	6d7a      	ldr	r2, [r7, #84]	; 0x54
300007f0:	6af9      	ldr	r1, [r7, #44]	; 0x2c
300007f2:	6809      	ldr	r1, [r1, #0]
300007f4:	eba2 020c 	sub.w	r2, r2, ip
300007f8:	f843 1022 	str.w	r1, [r3, r2, lsl #2]
300007fc:	6afb      	ldr	r3, [r7, #44]	; 0x2c
300007fe:	2200      	movs	r2, #0
30000800:	601a      	str	r2, [r3, #0]
30000802:	6d7b      	ldr	r3, [r7, #84]	; 0x54
30000804:	f06f 4200 	mvn.w	r2, #2147483648	; 0x80000000
30000808:	4293      	cmp	r3, r2
3000080a:	d103      	bne.n	30000814 <curve__test__ec__copy_s_to_u32.5577+0x248>
3000080c:	2133      	movs	r1, #51	; 0x33
3000080e:	4814      	ldr	r0, [pc, #80]	; (30000860 <curve__test__ec__copy_s_to_u32.5577+0x294>)
30000810:	f008 fdbe 	bl	30009390 <__gnat_last_chance_handler>
30000814:	6d7b      	ldr	r3, [r7, #84]	; 0x54
30000816:	3301      	adds	r3, #1
30000818:	657b      	str	r3, [r7, #84]	; 0x54
3000081a:	6c7b      	ldr	r3, [r7, #68]	; 0x44
3000081c:	3b01      	subs	r3, #1
3000081e:	647b      	str	r3, [r7, #68]	; 0x44
30000820:	e7bd      	b.n	3000079e <curve__test__ec__copy_s_to_u32.5577+0x1d2>
30000822:	f897 304f 	ldrb.w	r3, [r7, #79]	; 0x4f
30000826:	2b00      	cmp	r3, #0
30000828:	d015      	beq.n	30000856 <curve__test__ec__copy_s_to_u32.5577+0x28a>
3000082a:	68fb      	ldr	r3, [r7, #12]
3000082c:	681b      	ldr	r3, [r3, #0]
3000082e:	6d7a      	ldr	r2, [r7, #84]	; 0x54
30000830:	429a      	cmp	r2, r3
30000832:	db04      	blt.n	3000083e <curve__test__ec__copy_s_to_u32.5577+0x272>
30000834:	68fb      	ldr	r3, [r7, #12]
30000836:	685b      	ldr	r3, [r3, #4]
30000838:	6d7a      	ldr	r2, [r7, #84]	; 0x54
3000083a:	429a      	cmp	r2, r3
3000083c:	dd03      	ble.n	30000846 <curve__test__ec__copy_s_to_u32.5577+0x27a>
3000083e:	2137      	movs	r1, #55	; 0x37
30000840:	4807      	ldr	r0, [pc, #28]	; (30000860 <curve__test__ec__copy_s_to_u32.5577+0x294>)
30000842:	f008 fda5 	bl	30009390 <__gnat_last_chance_handler>
30000846:	68bb      	ldr	r3, [r7, #8]
30000848:	6d7a      	ldr	r2, [r7, #84]	; 0x54
3000084a:	6af9      	ldr	r1, [r7, #44]	; 0x2c
3000084c:	6809      	ldr	r1, [r1, #0]
3000084e:	eba2 020c 	sub.w	r2, r2, ip
30000852:	f843 1022 	str.w	r1, [r3, r2, lsl #2]
30000856:	46f5      	mov	sp, lr
30000858:	375c      	adds	r7, #92	; 0x5c
3000085a:	46bd      	mov	sp, r7
3000085c:	e8bd 83f0 	ldmia.w	sp!, {r4, r5, r6, r7, r8, r9, pc}
30000860:	30009d08 	.word	0x30009d08

30000864 <curve__test>:
30000864:	e92d 4ff0 	stmdb	sp!, {r4, r5, r6, r7, r8, r9, sl, fp, lr}
30000868:	b0d3      	sub	sp, #332	; 0x14c
3000086a:	af00      	add	r7, sp, #0
3000086c:	f107 0610 	add.w	r6, r7, #16
30000870:	e9c6 0100 	strd	r0, r1, [r6]
30000874:	f107 010c 	add.w	r1, r7, #12
30000878:	600a      	str	r2, [r1, #0]
3000087a:	f107 0208 	add.w	r2, r7, #8
3000087e:	6013      	str	r3, [r2, #0]
30000880:	f507 72b8 	add.w	r2, r7, #368	; 0x170
30000884:	f107 0324 	add.w	r3, r7, #36	; 0x24
30000888:	f8c3 2088 	str.w	r2, [r3, #136]	; 0x88
3000088c:	f107 0310 	add.w	r3, r7, #16
30000890:	685b      	ldr	r3, [r3, #4]
30000892:	681a      	ldr	r2, [r3, #0]
30000894:	f107 0310 	add.w	r3, r7, #16
30000898:	685b      	ldr	r3, [r3, #4]
3000089a:	685b      	ldr	r3, [r3, #4]
3000089c:	4669      	mov	r1, sp
3000089e:	6079      	str	r1, [r7, #4]
300008a0:	f8c7 2134 	str.w	r2, [r7, #308]	; 0x134
300008a4:	f8c7 3138 	str.w	r3, [r7, #312]	; 0x138
300008a8:	f107 0324 	add.w	r3, r7, #36	; 0x24
300008ac:	f8d7 2134 	ldr.w	r2, [r7, #308]	; 0x134
300008b0:	65da      	str	r2, [r3, #92]	; 0x5c
300008b2:	f107 0324 	add.w	r3, r7, #36	; 0x24
300008b6:	f8d7 2138 	ldr.w	r2, [r7, #312]	; 0x138
300008ba:	661a      	str	r2, [r3, #96]	; 0x60
300008bc:	f107 0324 	add.w	r3, r7, #36	; 0x24
300008c0:	6ddb      	ldr	r3, [r3, #92]	; 0x5c
300008c2:	f8c7 313c 	str.w	r3, [r7, #316]	; 0x13c
300008c6:	f107 0324 	add.w	r3, r7, #36	; 0x24
300008ca:	6e1a      	ldr	r2, [r3, #96]	; 0x60
300008cc:	f107 0324 	add.w	r3, r7, #36	; 0x24
300008d0:	6ddb      	ldr	r3, [r3, #92]	; 0x5c
300008d2:	429a      	cmp	r2, r3
300008d4:	da06      	bge.n	300008e4 <curve__test+0x80>
300008d6:	f107 0324 	add.w	r3, r7, #36	; 0x24
300008da:	6ddb      	ldr	r3, [r3, #92]	; 0x5c
300008dc:	3b01      	subs	r3, #1
300008de:	f8c7 3140 	str.w	r3, [r7, #320]	; 0x140
300008e2:	e004      	b.n	300008ee <curve__test+0x8a>
300008e4:	f107 0324 	add.w	r3, r7, #36	; 0x24
300008e8:	6e1b      	ldr	r3, [r3, #96]	; 0x60
300008ea:	f8c7 3140 	str.w	r3, [r7, #320]	; 0x140
300008ee:	f107 0324 	add.w	r3, r7, #36	; 0x24
300008f2:	6e1a      	ldr	r2, [r3, #96]	; 0x60
300008f4:	f107 0324 	add.w	r3, r7, #36	; 0x24
300008f8:	6ddb      	ldr	r3, [r3, #92]	; 0x5c
300008fa:	429a      	cmp	r2, r3
300008fc:	db09      	blt.n	30000912 <curve__test+0xae>
300008fe:	f107 0324 	add.w	r3, r7, #36	; 0x24
30000902:	6e1b      	ldr	r3, [r3, #96]	; 0x60
30000904:	461a      	mov	r2, r3
30000906:	f107 0324 	add.w	r3, r7, #36	; 0x24
3000090a:	6ddb      	ldr	r3, [r3, #92]	; 0x5c
3000090c:	1ad3      	subs	r3, r2, r3
3000090e:	1c59      	adds	r1, r3, #1
30000910:	e000      	b.n	30000914 <curve__test+0xb0>
30000912:	2100      	movs	r1, #0
30000914:	f8d7 2138 	ldr.w	r2, [r7, #312]	; 0x138
30000918:	f8d7 3134 	ldr.w	r3, [r7, #308]	; 0x134
3000091c:	429a      	cmp	r2, r3
3000091e:	db07      	blt.n	30000930 <curve__test+0xcc>
30000920:	f8d7 3134 	ldr.w	r3, [r7, #308]	; 0x134
30000924:	2b00      	cmp	r3, #0
30000926:	dc03      	bgt.n	30000930 <curve__test+0xcc>
30000928:	2111      	movs	r1, #17
3000092a:	48ce      	ldr	r0, [pc, #824]	; (30000c64 <curve__test+0x400>)
3000092c:	f008 fd30 	bl	30009390 <__gnat_last_chance_handler>
30000930:	f107 0324 	add.w	r3, r7, #36	; 0x24
30000934:	6e1a      	ldr	r2, [r3, #96]	; 0x60
30000936:	f107 0324 	add.w	r3, r7, #36	; 0x24
3000093a:	6ddb      	ldr	r3, [r3, #92]	; 0x5c
3000093c:	429a      	cmp	r2, r3
3000093e:	db09      	blt.n	30000954 <curve__test+0xf0>
30000940:	f107 0324 	add.w	r3, r7, #36	; 0x24
30000944:	6e1b      	ldr	r3, [r3, #96]	; 0x60
30000946:	461a      	mov	r2, r3
30000948:	f107 0324 	add.w	r3, r7, #36	; 0x24
3000094c:	6ddb      	ldr	r3, [r3, #92]	; 0x5c
3000094e:	1ad3      	subs	r3, r2, r3
30000950:	3301      	adds	r3, #1
30000952:	e000      	b.n	30000956 <curve__test+0xf2>
30000954:	2300      	movs	r3, #0
30000956:	3307      	adds	r3, #7
30000958:	08db      	lsrs	r3, r3, #3
3000095a:	00db      	lsls	r3, r3, #3
3000095c:	ebad 0d03 	sub.w	sp, sp, r3
30000960:	466b      	mov	r3, sp
30000962:	3300      	adds	r3, #0
30000964:	461a      	mov	r2, r3
30000966:	f107 0324 	add.w	r3, r7, #36	; 0x24
3000096a:	659a      	str	r2, [r3, #88]	; 0x58
3000096c:	f107 0310 	add.w	r3, r7, #16
30000970:	681a      	ldr	r2, [r3, #0]
30000972:	f107 0324 	add.w	r3, r7, #36	; 0x24
30000976:	6d9b      	ldr	r3, [r3, #88]	; 0x58
30000978:	4610      	mov	r0, r2
3000097a:	460a      	mov	r2, r1
3000097c:	4601      	mov	r1, r0
3000097e:	4618      	mov	r0, r3
30000980:	f008 ff84 	bl	3000988c <memcpy>
30000984:	f107 0324 	add.w	r3, r7, #36	; 0x24
30000988:	f107 020c 	add.w	r2, r7, #12
3000098c:	6812      	ldr	r2, [r2, #0]
3000098e:	67da      	str	r2, [r3, #124]	; 0x7c
30000990:	f44f 7380 	mov.w	r3, #256	; 0x100
30000994:	f8c7 3144 	str.w	r3, [r7, #324]	; 0x144
30000998:	f107 0324 	add.w	r3, r7, #36	; 0x24
3000099c:	6fdb      	ldr	r3, [r3, #124]	; 0x7c
3000099e:	08db      	lsrs	r3, r3, #3
300009a0:	f107 0224 	add.w	r2, r7, #36	; 0x24
300009a4:	6fd2      	ldr	r2, [r2, #124]	; 0x7c
300009a6:	f002 0207 	and.w	r2, r2, #7
300009aa:	2a00      	cmp	r2, #0
300009ac:	d001      	beq.n	300009b2 <curve__test+0x14e>
300009ae:	2201      	movs	r2, #1
300009b0:	e000      	b.n	300009b4 <curve__test+0x150>
300009b2:	2200      	movs	r2, #0
300009b4:	441a      	add	r2, r3
300009b6:	f107 0324 	add.w	r3, r7, #36	; 0x24
300009ba:	f8c3 2080 	str.w	r2, [r3, #128]	; 0x80
300009be:	f107 0324 	add.w	r3, r7, #36	; 0x24
300009c2:	6fdb      	ldr	r3, [r3, #124]	; 0x7c
300009c4:	095b      	lsrs	r3, r3, #5
300009c6:	f107 0224 	add.w	r2, r7, #36	; 0x24
300009ca:	6fd2      	ldr	r2, [r2, #124]	; 0x7c
300009cc:	f002 021f 	and.w	r2, r2, #31
300009d0:	2a00      	cmp	r2, #0
300009d2:	d001      	beq.n	300009d8 <curve__test+0x174>
300009d4:	2201      	movs	r2, #1
300009d6:	e000      	b.n	300009da <curve__test+0x176>
300009d8:	2200      	movs	r2, #0
300009da:	441a      	add	r2, r3
300009dc:	f107 0324 	add.w	r3, r7, #36	; 0x24
300009e0:	611a      	str	r2, [r3, #16]
300009e2:	f107 0324 	add.w	r3, r7, #36	; 0x24
300009e6:	6fdb      	ldr	r3, [r3, #124]	; 0x7c
300009e8:	f003 021f 	and.w	r2, r3, #31
300009ec:	f107 0324 	add.w	r3, r7, #36	; 0x24
300009f0:	60da      	str	r2, [r3, #12]
300009f2:	2320      	movs	r3, #32
300009f4:	f8c7 3130 	str.w	r3, [r7, #304]	; 0x130
300009f8:	f107 0324 	add.w	r3, r7, #36	; 0x24
300009fc:	f8d3 3080 	ldr.w	r3, [r3, #128]	; 0x80
30000a00:	3b01      	subs	r3, #1
30000a02:	461a      	mov	r2, r3
30000a04:	2a00      	cmp	r2, #0
30000a06:	da03      	bge.n	30000a10 <curve__test+0x1ac>
30000a08:	2111      	movs	r1, #17
30000a0a:	4897      	ldr	r0, [pc, #604]	; (30000c68 <curve__test+0x404>)
30000a0c:	f008 fcc0 	bl	30009390 <__gnat_last_chance_handler>
30000a10:	461a      	mov	r2, r3
30000a12:	f107 0324 	add.w	r3, r7, #36	; 0x24
30000a16:	625a      	str	r2, [r3, #36]	; 0x24
30000a18:	f107 0324 	add.w	r3, r7, #36	; 0x24
30000a1c:	6a5b      	ldr	r3, [r3, #36]	; 0x24
30000a1e:	2b00      	cmp	r3, #0
30000a20:	db05      	blt.n	30000a2e <curve__test+0x1ca>
30000a22:	f107 0324 	add.w	r3, r7, #36	; 0x24
30000a26:	6a5b      	ldr	r3, [r3, #36]	; 0x24
30000a28:	f8c7 312c 	str.w	r3, [r7, #300]	; 0x12c
30000a2c:	e003      	b.n	30000a36 <curve__test+0x1d2>
30000a2e:	f04f 33ff 	mov.w	r3, #4294967295	; 0xffffffff
30000a32:	f8c7 312c 	str.w	r3, [r7, #300]	; 0x12c
30000a36:	f107 0324 	add.w	r3, r7, #36	; 0x24
30000a3a:	6a5b      	ldr	r3, [r3, #36]	; 0x24
30000a3c:	2b00      	cmp	r3, #0
30000a3e:	db05      	blt.n	30000a4c <curve__test+0x1e8>
30000a40:	f107 0324 	add.w	r3, r7, #36	; 0x24
30000a44:	6a5b      	ldr	r3, [r3, #36]	; 0x24
30000a46:	f8c7 3128 	str.w	r3, [r7, #296]	; 0x128
30000a4a:	e003      	b.n	30000a54 <curve__test+0x1f0>
30000a4c:	f04f 33ff 	mov.w	r3, #4294967295	; 0xffffffff
30000a50:	f8c7 3128 	str.w	r3, [r7, #296]	; 0x128
30000a54:	f107 0324 	add.w	r3, r7, #36	; 0x24
30000a58:	6a5b      	ldr	r3, [r3, #36]	; 0x24
30000a5a:	2b00      	cmp	r3, #0
30000a5c:	db05      	blt.n	30000a6a <curve__test+0x206>
30000a5e:	f107 0324 	add.w	r3, r7, #36	; 0x24
30000a62:	6a5b      	ldr	r3, [r3, #36]	; 0x24
30000a64:	f8c7 3124 	str.w	r3, [r7, #292]	; 0x124
30000a68:	e003      	b.n	30000a72 <curve__test+0x20e>
30000a6a:	f04f 33ff 	mov.w	r3, #4294967295	; 0xffffffff
30000a6e:	f8c7 3124 	str.w	r3, [r7, #292]	; 0x124
30000a72:	f107 0324 	add.w	r3, r7, #36	; 0x24
30000a76:	f8d3 3080 	ldr.w	r3, [r3, #128]	; 0x80
30000a7a:	005a      	lsls	r2, r3, #1
30000a7c:	f107 0324 	add.w	r3, r7, #36	; 0x24
30000a80:	609a      	str	r2, [r3, #8]
30000a82:	f107 0324 	add.w	r3, r7, #36	; 0x24
30000a86:	689b      	ldr	r3, [r3, #8]
30000a88:	2b00      	cmp	r3, #0
30000a8a:	da03      	bge.n	30000a94 <curve__test+0x230>
30000a8c:	2120      	movs	r1, #32
30000a8e:	4876      	ldr	r0, [pc, #472]	; (30000c68 <curve__test+0x404>)
30000a90:	f008 fc7e 	bl	30009390 <__gnat_last_chance_handler>
30000a94:	f107 0324 	add.w	r3, r7, #36	; 0x24
30000a98:	689b      	ldr	r3, [r3, #8]
30000a9a:	461a      	mov	r2, r3
30000a9c:	f107 0324 	add.w	r3, r7, #36	; 0x24
30000aa0:	f8c3 2084 	str.w	r2, [r3, #132]	; 0x84
30000aa4:	f107 0324 	add.w	r3, r7, #36	; 0x24
30000aa8:	f8d3 3084 	ldr.w	r3, [r3, #132]	; 0x84
30000aac:	ea23 73e3 	bic.w	r3, r3, r3, asr #31
30000ab0:	f8c7 3120 	str.w	r3, [r7, #288]	; 0x120
30000ab4:	f107 0324 	add.w	r3, r7, #36	; 0x24
30000ab8:	f8d3 3084 	ldr.w	r3, [r3, #132]	; 0x84
30000abc:	ea23 73e3 	bic.w	r3, r3, r3, asr #31
30000ac0:	461a      	mov	r2, r3
30000ac2:	f107 0324 	add.w	r3, r7, #36	; 0x24
30000ac6:	605a      	str	r2, [r3, #4]
30000ac8:	f107 0324 	add.w	r3, r7, #36	; 0x24
30000acc:	f8d3 3084 	ldr.w	r3, [r3, #132]	; 0x84
30000ad0:	ea23 73e3 	bic.w	r3, r3, r3, asr #31
30000ad4:	f8c7 311c 	str.w	r3, [r7, #284]	; 0x11c
30000ad8:	f107 0324 	add.w	r3, r7, #36	; 0x24
30000adc:	f8d3 3084 	ldr.w	r3, [r3, #132]	; 0x84
30000ae0:	ea23 73e3 	bic.w	r3, r3, r3, asr #31
30000ae4:	f8c7 3118 	str.w	r3, [r7, #280]	; 0x118
30000ae8:	f107 0324 	add.w	r3, r7, #36	; 0x24
30000aec:	f8d3 3080 	ldr.w	r3, [r3, #128]	; 0x80
30000af0:	1e5a      	subs	r2, r3, #1
30000af2:	f107 0324 	add.w	r3, r7, #36	; 0x24
30000af6:	63da      	str	r2, [r3, #60]	; 0x3c
30000af8:	f107 0324 	add.w	r3, r7, #36	; 0x24
30000afc:	6bdb      	ldr	r3, [r3, #60]	; 0x3c
30000afe:	2b00      	cmp	r3, #0
30000b00:	da03      	bge.n	30000b0a <curve__test+0x2a6>
30000b02:	212f      	movs	r1, #47	; 0x2f
30000b04:	4858      	ldr	r0, [pc, #352]	; (30000c68 <curve__test+0x404>)
30000b06:	f008 fc43 	bl	30009390 <__gnat_last_chance_handler>
30000b0a:	f107 0324 	add.w	r3, r7, #36	; 0x24
30000b0e:	6bdb      	ldr	r3, [r3, #60]	; 0x3c
30000b10:	461a      	mov	r2, r3
30000b12:	f107 0324 	add.w	r3, r7, #36	; 0x24
30000b16:	641a      	str	r2, [r3, #64]	; 0x40
30000b18:	f107 0324 	add.w	r3, r7, #36	; 0x24
30000b1c:	6c1b      	ldr	r3, [r3, #64]	; 0x40
30000b1e:	2b00      	cmp	r3, #0
30000b20:	db05      	blt.n	30000b2e <curve__test+0x2ca>
30000b22:	f107 0324 	add.w	r3, r7, #36	; 0x24
30000b26:	6c1b      	ldr	r3, [r3, #64]	; 0x40
30000b28:	f8c7 3114 	str.w	r3, [r7, #276]	; 0x114
30000b2c:	e003      	b.n	30000b36 <curve__test+0x2d2>
30000b2e:	f04f 33ff 	mov.w	r3, #4294967295	; 0xffffffff
30000b32:	f8c7 3114 	str.w	r3, [r7, #276]	; 0x114
30000b36:	f107 0324 	add.w	r3, r7, #36	; 0x24
30000b3a:	6c1b      	ldr	r3, [r3, #64]	; 0x40
30000b3c:	2b00      	cmp	r3, #0
30000b3e:	db07      	blt.n	30000b50 <curve__test+0x2ec>
30000b40:	f107 0324 	add.w	r3, r7, #36	; 0x24
30000b44:	6c1b      	ldr	r3, [r3, #64]	; 0x40
30000b46:	1c5a      	adds	r2, r3, #1
30000b48:	f107 0324 	add.w	r3, r7, #36	; 0x24
30000b4c:	639a      	str	r2, [r3, #56]	; 0x38
30000b4e:	e003      	b.n	30000b58 <curve__test+0x2f4>
30000b50:	2200      	movs	r2, #0
30000b52:	f107 0324 	add.w	r3, r7, #36	; 0x24
30000b56:	639a      	str	r2, [r3, #56]	; 0x38
30000b58:	f107 0324 	add.w	r3, r7, #36	; 0x24
30000b5c:	f8d3 3080 	ldr.w	r3, [r3, #128]	; 0x80
30000b60:	005a      	lsls	r2, r3, #1
30000b62:	f107 0324 	add.w	r3, r7, #36	; 0x24
30000b66:	631a      	str	r2, [r3, #48]	; 0x30
30000b68:	f107 0324 	add.w	r3, r7, #36	; 0x24
30000b6c:	6b1b      	ldr	r3, [r3, #48]	; 0x30
30000b6e:	2b00      	cmp	r3, #0
30000b70:	da03      	bge.n	30000b7a <curve__test+0x316>
30000b72:	2130      	movs	r1, #48	; 0x30
30000b74:	483c      	ldr	r0, [pc, #240]	; (30000c68 <curve__test+0x404>)
30000b76:	f008 fc0b 	bl	30009390 <__gnat_last_chance_handler>
30000b7a:	f107 0324 	add.w	r3, r7, #36	; 0x24
30000b7e:	6b1b      	ldr	r3, [r3, #48]	; 0x30
30000b80:	461a      	mov	r2, r3
30000b82:	f107 0324 	add.w	r3, r7, #36	; 0x24
30000b86:	635a      	str	r2, [r3, #52]	; 0x34
30000b88:	f107 0324 	add.w	r3, r7, #36	; 0x24
30000b8c:	6b5b      	ldr	r3, [r3, #52]	; 0x34
30000b8e:	ea23 73e3 	bic.w	r3, r3, r3, asr #31
30000b92:	f8c7 3110 	str.w	r3, [r7, #272]	; 0x110
30000b96:	f107 0324 	add.w	r3, r7, #36	; 0x24
30000b9a:	6b5b      	ldr	r3, [r3, #52]	; 0x34
30000b9c:	ea23 73e3 	bic.w	r3, r3, r3, asr #31
30000ba0:	461a      	mov	r2, r3
30000ba2:	f107 0324 	add.w	r3, r7, #36	; 0x24
30000ba6:	62da      	str	r2, [r3, #44]	; 0x2c
30000ba8:	f107 0324 	add.w	r3, r7, #36	; 0x24
30000bac:	f8d3 3080 	ldr.w	r3, [r3, #128]	; 0x80
30000bb0:	ea4f 0b43 	mov.w	fp, r3, lsl #1
30000bb4:	465b      	mov	r3, fp
30000bb6:	2b00      	cmp	r3, #0
30000bb8:	da03      	bge.n	30000bc2 <curve__test+0x35e>
30000bba:	21e8      	movs	r1, #232	; 0xe8
30000bbc:	482a      	ldr	r0, [pc, #168]	; (30000c68 <curve__test+0x404>)
30000bbe:	f008 fbe7 	bl	30009390 <__gnat_last_chance_handler>
30000bc2:	f107 0324 	add.w	r3, r7, #36	; 0x24
30000bc6:	f8d3 3080 	ldr.w	r3, [r3, #128]	; 0x80
30000bca:	ea4f 0a43 	mov.w	sl, r3, lsl #1
30000bce:	4653      	mov	r3, sl
30000bd0:	2b00      	cmp	r3, #0
30000bd2:	da03      	bge.n	30000bdc <curve__test+0x378>
30000bd4:	21e9      	movs	r1, #233	; 0xe9
30000bd6:	4824      	ldr	r0, [pc, #144]	; (30000c68 <curve__test+0x404>)
30000bd8:	f008 fbda 	bl	30009390 <__gnat_last_chance_handler>
30000bdc:	f107 0324 	add.w	r3, r7, #36	; 0x24
30000be0:	f8d3 3080 	ldr.w	r3, [r3, #128]	; 0x80
30000be4:	ea4f 0943 	mov.w	r9, r3, lsl #1
30000be8:	464b      	mov	r3, r9
30000bea:	2b00      	cmp	r3, #0
30000bec:	da03      	bge.n	30000bf6 <curve__test+0x392>
30000bee:	21ea      	movs	r1, #234	; 0xea
30000bf0:	481d      	ldr	r0, [pc, #116]	; (30000c68 <curve__test+0x404>)
30000bf2:	f008 fbcd 	bl	30009390 <__gnat_last_chance_handler>
30000bf6:	f107 0324 	add.w	r3, r7, #36	; 0x24
30000bfa:	f8d3 3080 	ldr.w	r3, [r3, #128]	; 0x80
30000bfe:	ea4f 0843 	mov.w	r8, r3, lsl #1
30000c02:	4643      	mov	r3, r8
30000c04:	2b00      	cmp	r3, #0
30000c06:	da03      	bge.n	30000c10 <curve__test+0x3ac>
30000c08:	21eb      	movs	r1, #235	; 0xeb
30000c0a:	4817      	ldr	r0, [pc, #92]	; (30000c68 <curve__test+0x404>)
30000c0c:	f008 fbc0 	bl	30009390 <__gnat_last_chance_handler>
30000c10:	f107 0324 	add.w	r3, r7, #36	; 0x24
30000c14:	f8d3 3080 	ldr.w	r3, [r3, #128]	; 0x80
30000c18:	005e      	lsls	r6, r3, #1
30000c1a:	4633      	mov	r3, r6
30000c1c:	2b00      	cmp	r3, #0
30000c1e:	da03      	bge.n	30000c28 <curve__test+0x3c4>
30000c20:	21ec      	movs	r1, #236	; 0xec
30000c22:	4811      	ldr	r0, [pc, #68]	; (30000c68 <curve__test+0x404>)
30000c24:	f008 fbb4 	bl	30009390 <__gnat_last_chance_handler>
30000c28:	f107 0324 	add.w	r3, r7, #36	; 0x24
30000c2c:	6a5b      	ldr	r3, [r3, #36]	; 0x24
30000c2e:	2b00      	cmp	r3, #0
30000c30:	db07      	blt.n	30000c42 <curve__test+0x3de>
30000c32:	f107 0324 	add.w	r3, r7, #36	; 0x24
30000c36:	6a5b      	ldr	r3, [r3, #36]	; 0x24
30000c38:	1c5a      	adds	r2, r3, #1
30000c3a:	f107 0324 	add.w	r3, r7, #36	; 0x24
30000c3e:	621a      	str	r2, [r3, #32]
30000c40:	e003      	b.n	30000c4a <curve__test+0x3e6>
30000c42:	2200      	movs	r2, #0
30000c44:	f107 0324 	add.w	r3, r7, #36	; 0x24
30000c48:	621a      	str	r2, [r3, #32]
30000c4a:	f107 0324 	add.w	r3, r7, #36	; 0x24
30000c4e:	6a5b      	ldr	r3, [r3, #36]	; 0x24
30000c50:	2b00      	cmp	r3, #0
30000c52:	db0b      	blt.n	30000c6c <curve__test+0x408>
30000c54:	f107 0324 	add.w	r3, r7, #36	; 0x24
30000c58:	6a5b      	ldr	r3, [r3, #36]	; 0x24
30000c5a:	1c5a      	adds	r2, r3, #1
30000c5c:	f107 0324 	add.w	r3, r7, #36	; 0x24
30000c60:	619a      	str	r2, [r3, #24]
30000c62:	e007      	b.n	30000c74 <curve__test+0x410>
30000c64:	30009d18 	.word	0x30009d18
30000c68:	30009d24 	.word	0x30009d24
30000c6c:	2200      	movs	r2, #0
30000c6e:	f107 0324 	add.w	r3, r7, #36	; 0x24
30000c72:	619a      	str	r2, [r3, #24]
30000c74:	f107 0324 	add.w	r3, r7, #36	; 0x24
30000c78:	f8d3 3084 	ldr.w	r3, [r3, #132]	; 0x84
30000c7c:	ea23 73e3 	bic.w	r3, r3, r3, asr #31
30000c80:	461a      	mov	r2, r3
30000c82:	f107 0324 	add.w	r3, r7, #36	; 0x24
30000c86:	61da      	str	r2, [r3, #28]
30000c88:	f107 0324 	add.w	r3, r7, #36	; 0x24
30000c8c:	f8d3 3084 	ldr.w	r3, [r3, #132]	; 0x84
30000c90:	ea23 73e3 	bic.w	r3, r3, r3, asr #31
30000c94:	461a      	mov	r2, r3
30000c96:	f107 0324 	add.w	r3, r7, #36	; 0x24
30000c9a:	615a      	str	r2, [r3, #20]
30000c9c:	f107 0324 	add.w	r3, r7, #36	; 0x24
30000ca0:	f8d3 3084 	ldr.w	r3, [r3, #132]	; 0x84
30000ca4:	ea23 73e3 	bic.w	r3, r3, r3, asr #31
30000ca8:	005a      	lsls	r2, r3, #1
30000caa:	f107 0324 	add.w	r3, r7, #36	; 0x24
30000cae:	601a      	str	r2, [r3, #0]
30000cb0:	48da      	ldr	r0, [pc, #872]	; (3000101c <curve__test+0x7b8>)
30000cb2:	f003 fb59 	bl	30004368 <stm32__device__s_ns_periph>
30000cb6:	4603      	mov	r3, r0
30000cb8:	f8c7 30b0 	str.w	r3, [r7, #176]	; 0xb0
30000cbc:	f107 03b0 	add.w	r3, r7, #176	; 0xb0
30000cc0:	681a      	ldr	r2, [r3, #0]
30000cc2:	4611      	mov	r1, r2
30000cc4:	f107 0224 	add.w	r2, r7, #36	; 0x24
30000cc8:	6791      	str	r1, [r2, #120]	; 0x78
30000cca:	681b      	ldr	r3, [r3, #0]
30000ccc:	f003 0303 	and.w	r3, r3, #3
30000cd0:	2b00      	cmp	r3, #0
30000cd2:	d003      	beq.n	30000cdc <curve__test+0x478>
30000cd4:	2132      	movs	r1, #50	; 0x32
30000cd6:	48d2      	ldr	r0, [pc, #840]	; (30001020 <curve__test+0x7bc>)
30000cd8:	f008 fb5a 	bl	30009390 <__gnat_last_chance_handler>
30000cdc:	465a      	mov	r2, fp
30000cde:	f107 0324 	add.w	r3, r7, #36	; 0x24
30000ce2:	675a      	str	r2, [r3, #116]	; 0x74
30000ce4:	f107 0324 	add.w	r3, r7, #36	; 0x24
30000ce8:	6f5b      	ldr	r3, [r3, #116]	; 0x74
30000cea:	ea23 73e3 	bic.w	r3, r3, r3, asr #31
30000cee:	f8c7 310c 	str.w	r3, [r7, #268]	; 0x10c
30000cf2:	4652      	mov	r2, sl
30000cf4:	f107 0324 	add.w	r3, r7, #36	; 0x24
30000cf8:	671a      	str	r2, [r3, #112]	; 0x70
30000cfa:	f107 0324 	add.w	r3, r7, #36	; 0x24
30000cfe:	6f1b      	ldr	r3, [r3, #112]	; 0x70
30000d00:	ea23 73e3 	bic.w	r3, r3, r3, asr #31
30000d04:	f8c7 3108 	str.w	r3, [r7, #264]	; 0x108
30000d08:	464a      	mov	r2, r9
30000d0a:	f107 0324 	add.w	r3, r7, #36	; 0x24
30000d0e:	66da      	str	r2, [r3, #108]	; 0x6c
30000d10:	f107 0324 	add.w	r3, r7, #36	; 0x24
30000d14:	6edb      	ldr	r3, [r3, #108]	; 0x6c
30000d16:	ea23 73e3 	bic.w	r3, r3, r3, asr #31
30000d1a:	f8c7 3104 	str.w	r3, [r7, #260]	; 0x104
30000d1e:	4642      	mov	r2, r8
30000d20:	f107 0324 	add.w	r3, r7, #36	; 0x24
30000d24:	669a      	str	r2, [r3, #104]	; 0x68
30000d26:	f107 0324 	add.w	r3, r7, #36	; 0x24
30000d2a:	6e9b      	ldr	r3, [r3, #104]	; 0x68
30000d2c:	ea23 73e3 	bic.w	r3, r3, r3, asr #31
30000d30:	f8c7 3100 	str.w	r3, [r7, #256]	; 0x100
30000d34:	4632      	mov	r2, r6
30000d36:	f107 0324 	add.w	r3, r7, #36	; 0x24
30000d3a:	665a      	str	r2, [r3, #100]	; 0x64
30000d3c:	f107 0324 	add.w	r3, r7, #36	; 0x24
30000d40:	6e5b      	ldr	r3, [r3, #100]	; 0x64
30000d42:	ea23 73e3 	bic.w	r3, r3, r3, asr #31
30000d46:	f8c7 30fc 	str.w	r3, [r7, #252]	; 0xfc
30000d4a:	f107 0324 	add.w	r3, r7, #36	; 0x24
30000d4e:	6f5b      	ldr	r3, [r3, #116]	; 0x74
30000d50:	ea23 73e3 	bic.w	r3, r3, r3, asr #31
30000d54:	461a      	mov	r2, r3
30000d56:	f107 0324 	add.w	r3, r7, #36	; 0x24
30000d5a:	651a      	str	r2, [r3, #80]	; 0x50
30000d5c:	f107 0324 	add.w	r3, r7, #36	; 0x24
30000d60:	6f5b      	ldr	r3, [r3, #116]	; 0x74
30000d62:	ea23 73e3 	bic.w	r3, r3, r3, asr #31
30000d66:	461a      	mov	r2, r3
30000d68:	f107 0324 	add.w	r3, r7, #36	; 0x24
30000d6c:	6f1b      	ldr	r3, [r3, #112]	; 0x70
30000d6e:	ea23 73e3 	bic.w	r3, r3, r3, asr #31
30000d72:	441a      	add	r2, r3
30000d74:	f107 0324 	add.w	r3, r7, #36	; 0x24
30000d78:	64da      	str	r2, [r3, #76]	; 0x4c
30000d7a:	f107 0324 	add.w	r3, r7, #36	; 0x24
30000d7e:	6f5b      	ldr	r3, [r3, #116]	; 0x74
30000d80:	ea23 73e3 	bic.w	r3, r3, r3, asr #31
30000d84:	461a      	mov	r2, r3
30000d86:	f107 0324 	add.w	r3, r7, #36	; 0x24
30000d8a:	6f1b      	ldr	r3, [r3, #112]	; 0x70
30000d8c:	ea23 73e3 	bic.w	r3, r3, r3, asr #31
30000d90:	4413      	add	r3, r2
30000d92:	f107 0224 	add.w	r2, r7, #36	; 0x24
30000d96:	6ed2      	ldr	r2, [r2, #108]	; 0x6c
30000d98:	ea22 72e2 	bic.w	r2, r2, r2, asr #31
30000d9c:	441a      	add	r2, r3
30000d9e:	f107 0324 	add.w	r3, r7, #36	; 0x24
30000da2:	655a      	str	r2, [r3, #84]	; 0x54
30000da4:	f107 0324 	add.w	r3, r7, #36	; 0x24
30000da8:	6f5b      	ldr	r3, [r3, #116]	; 0x74
30000daa:	ea23 73e3 	bic.w	r3, r3, r3, asr #31
30000dae:	461a      	mov	r2, r3
30000db0:	f107 0324 	add.w	r3, r7, #36	; 0x24
30000db4:	6f1b      	ldr	r3, [r3, #112]	; 0x70
30000db6:	ea23 73e3 	bic.w	r3, r3, r3, asr #31
30000dba:	4413      	add	r3, r2
30000dbc:	f107 0224 	add.w	r2, r7, #36	; 0x24
30000dc0:	6ed2      	ldr	r2, [r2, #108]	; 0x6c
30000dc2:	ea22 72e2 	bic.w	r2, r2, r2, asr #31
30000dc6:	4413      	add	r3, r2
30000dc8:	f107 0224 	add.w	r2, r7, #36	; 0x24
30000dcc:	6e92      	ldr	r2, [r2, #104]	; 0x68
30000dce:	ea22 72e2 	bic.w	r2, r2, r2, asr #31
30000dd2:	441a      	add	r2, r3
30000dd4:	f107 0324 	add.w	r3, r7, #36	; 0x24
30000dd8:	649a      	str	r2, [r3, #72]	; 0x48
30000dda:	f107 0324 	add.w	r3, r7, #36	; 0x24
30000dde:	6f5b      	ldr	r3, [r3, #116]	; 0x74
30000de0:	ea23 73e3 	bic.w	r3, r3, r3, asr #31
30000de4:	461a      	mov	r2, r3
30000de6:	f107 0324 	add.w	r3, r7, #36	; 0x24
30000dea:	6f1b      	ldr	r3, [r3, #112]	; 0x70
30000dec:	ea23 73e3 	bic.w	r3, r3, r3, asr #31
30000df0:	4413      	add	r3, r2
30000df2:	f107 0224 	add.w	r2, r7, #36	; 0x24
30000df6:	6ed2      	ldr	r2, [r2, #108]	; 0x6c
30000df8:	ea22 72e2 	bic.w	r2, r2, r2, asr #31
30000dfc:	4413      	add	r3, r2
30000dfe:	f107 0224 	add.w	r2, r7, #36	; 0x24
30000e02:	6e92      	ldr	r2, [r2, #104]	; 0x68
30000e04:	ea22 72e2 	bic.w	r2, r2, r2, asr #31
30000e08:	4413      	add	r3, r2
30000e0a:	f107 0224 	add.w	r2, r7, #36	; 0x24
30000e0e:	6e52      	ldr	r2, [r2, #100]	; 0x64
30000e10:	ea22 72e2 	bic.w	r2, r2, r2, asr #31
30000e14:	441a      	add	r2, r3
30000e16:	f107 0324 	add.w	r3, r7, #36	; 0x24
30000e1a:	645a      	str	r2, [r3, #68]	; 0x44
30000e1c:	f107 0324 	add.w	r3, r7, #36	; 0x24
30000e20:	6f5b      	ldr	r3, [r3, #116]	; 0x74
30000e22:	ea23 73e3 	bic.w	r3, r3, r3, asr #31
30000e26:	461a      	mov	r2, r3
30000e28:	f107 0324 	add.w	r3, r7, #36	; 0x24
30000e2c:	6f1b      	ldr	r3, [r3, #112]	; 0x70
30000e2e:	ea23 73e3 	bic.w	r3, r3, r3, asr #31
30000e32:	4413      	add	r3, r2
30000e34:	f107 0224 	add.w	r2, r7, #36	; 0x24
30000e38:	6ed2      	ldr	r2, [r2, #108]	; 0x6c
30000e3a:	ea22 72e2 	bic.w	r2, r2, r2, asr #31
30000e3e:	4413      	add	r3, r2
30000e40:	f107 0224 	add.w	r2, r7, #36	; 0x24
30000e44:	6e92      	ldr	r2, [r2, #104]	; 0x68
30000e46:	ea22 72e2 	bic.w	r2, r2, r2, asr #31
30000e4a:	4413      	add	r3, r2
30000e4c:	f107 0224 	add.w	r2, r7, #36	; 0x24
30000e50:	6e52      	ldr	r2, [r2, #100]	; 0x64
30000e52:	ea22 72e2 	bic.w	r2, r2, r2, asr #31
30000e56:	4413      	add	r3, r2
30000e58:	3307      	adds	r3, #7
30000e5a:	08db      	lsrs	r3, r3, #3
30000e5c:	00db      	lsls	r3, r3, #3
30000e5e:	ebad 0d03 	sub.w	sp, sp, r3
30000e62:	466b      	mov	r3, sp
30000e64:	3300      	adds	r3, #0
30000e66:	461a      	mov	r2, r3
30000e68:	f107 0324 	add.w	r3, r7, #36	; 0x24
30000e6c:	629a      	str	r2, [r3, #40]	; 0x28
30000e6e:	f107 0324 	add.w	r3, r7, #36	; 0x24
30000e72:	f8d3 3084 	ldr.w	r3, [r3, #132]	; 0x84
30000e76:	ea23 73e3 	bic.w	r3, r3, r3, asr #31
30000e7a:	3307      	adds	r3, #7
30000e7c:	08db      	lsrs	r3, r3, #3
30000e7e:	00db      	lsls	r3, r3, #3
30000e80:	ebad 0d03 	sub.w	sp, sp, r3
30000e84:	466b      	mov	r3, sp
30000e86:	3300      	adds	r3, #0
30000e88:	f8c7 30f8 	str.w	r3, [r7, #248]	; 0xf8
30000e8c:	f8d7 20f8 	ldr.w	r2, [r7, #248]	; 0xf8
30000e90:	f107 0324 	add.w	r3, r7, #36	; 0x24
30000e94:	469c      	mov	ip, r3
30000e96:	2100      	movs	r1, #0
30000e98:	4610      	mov	r0, r2
30000e9a:	f002 fe4d 	bl	30003b38 <curve__test__ec__make_random_group_string.5633>
30000e9e:	f107 0324 	add.w	r3, r7, #36	; 0x24
30000ea2:	f8d3 3084 	ldr.w	r3, [r3, #132]	; 0x84
30000ea6:	ea23 73e3 	bic.w	r3, r3, r3, asr #31
30000eaa:	005b      	lsls	r3, r3, #1
30000eac:	3307      	adds	r3, #7
30000eae:	08db      	lsrs	r3, r3, #3
30000eb0:	00db      	lsls	r3, r3, #3
30000eb2:	ebad 0d03 	sub.w	sp, sp, r3
30000eb6:	466b      	mov	r3, sp
30000eb8:	3300      	adds	r3, #0
30000eba:	f8c7 30f4 	str.w	r3, [r7, #244]	; 0xf4
30000ebe:	f8d7 10f8 	ldr.w	r1, [r7, #248]	; 0xf8
30000ec2:	f8d7 20f4 	ldr.w	r2, [r7, #244]	; 0xf4
30000ec6:	f107 0324 	add.w	r3, r7, #36	; 0x24
30000eca:	469c      	mov	ip, r3
30000ecc:	4610      	mov	r0, r2
30000ece:	f002 ffc1 	bl	30003e54 <curve__test__ec__make_public_key_string.6088>
30000ed2:	f107 0324 	add.w	r3, r7, #36	; 0x24
30000ed6:	f8d3 3084 	ldr.w	r3, [r3, #132]	; 0x84
30000eda:	ea23 73e3 	bic.w	r3, r3, r3, asr #31
30000ede:	3307      	adds	r3, #7
30000ee0:	08db      	lsrs	r3, r3, #3
30000ee2:	00db      	lsls	r3, r3, #3
30000ee4:	ebad 0d03 	sub.w	sp, sp, r3
30000ee8:	466b      	mov	r3, sp
30000eea:	3300      	adds	r3, #0
30000eec:	f8c7 30f0 	str.w	r3, [r7, #240]	; 0xf0
30000ef0:	f8d7 20f0 	ldr.w	r2, [r7, #240]	; 0xf0
30000ef4:	f107 0324 	add.w	r3, r7, #36	; 0x24
30000ef8:	469c      	mov	ip, r3
30000efa:	2100      	movs	r1, #0
30000efc:	4610      	mov	r0, r2
30000efe:	f002 fe1b 	bl	30003b38 <curve__test__ec__make_random_group_string.5633>
30000f02:	f107 0324 	add.w	r3, r7, #36	; 0x24
30000f06:	f8d3 3084 	ldr.w	r3, [r3, #132]	; 0x84
30000f0a:	ea23 73e3 	bic.w	r3, r3, r3, asr #31
30000f0e:	005b      	lsls	r3, r3, #1
30000f10:	3307      	adds	r3, #7
30000f12:	08db      	lsrs	r3, r3, #3
30000f14:	00db      	lsls	r3, r3, #3
30000f16:	ebad 0d03 	sub.w	sp, sp, r3
30000f1a:	466b      	mov	r3, sp
30000f1c:	3300      	adds	r3, #0
30000f1e:	f8c7 30ec 	str.w	r3, [r7, #236]	; 0xec
30000f22:	f107 0324 	add.w	r3, r7, #36	; 0x24
30000f26:	469c      	mov	ip, r3
30000f28:	f000 fa0c 	bl	30001344 <curve__test__ec__enable_pka.5596>
30000f2c:	f8d7 00f8 	ldr.w	r0, [r7, #248]	; 0xf8
30000f30:	f8d7 20f0 	ldr.w	r2, [r7, #240]	; 0xf0
30000f34:	f8d7 60ec 	ldr.w	r6, [r7, #236]	; 0xec
30000f38:	f107 0108 	add.w	r1, r7, #8
30000f3c:	f107 0324 	add.w	r3, r7, #36	; 0x24
30000f40:	469c      	mov	ip, r3
30000f42:	4633      	mov	r3, r6
30000f44:	6809      	ldr	r1, [r1, #0]
30000f46:	f002 f817 	bl	30002f78 <curve__test__ec__ecdsa_sign__3.6075>
30000f4a:	4603      	mov	r3, r0
30000f4c:	f887 30eb 	strb.w	r3, [r7, #235]	; 0xeb
30000f50:	f8d7 00f4 	ldr.w	r0, [r7, #244]	; 0xf4
30000f54:	f8d7 10ec 	ldr.w	r1, [r7, #236]	; 0xec
30000f58:	f107 0308 	add.w	r3, r7, #8
30000f5c:	f107 0224 	add.w	r2, r7, #36	; 0x24
30000f60:	4694      	mov	ip, r2
30000f62:	460a      	mov	r2, r1
30000f64:	6819      	ldr	r1, [r3, #0]
30000f66:	f002 f8dd 	bl	30003124 <curve__test__ec__ecdsa_valid__2.6085>
30000f6a:	4603      	mov	r3, r0
30000f6c:	f887 30eb 	strb.w	r3, [r7, #235]	; 0xeb
30000f70:	f897 30eb 	ldrb.w	r3, [r7, #235]	; 0xeb
30000f74:	f083 0301 	eor.w	r3, r3, #1
30000f78:	b2db      	uxtb	r3, r3
30000f7a:	2b00      	cmp	r3, #0
30000f7c:	f000 80fc 	beq.w	30001178 <curve__test+0x914>
30000f80:	4c28      	ldr	r4, [pc, #160]	; (30001024 <curve__test+0x7c0>)
30000f82:	4d29      	ldr	r5, [pc, #164]	; (30001028 <curve__test+0x7c4>)
30000f84:	f107 0318 	add.w	r3, r7, #24
30000f88:	e9c3 4500 	strd	r4, r5, [r3]
30000f8c:	f107 0318 	add.w	r3, r7, #24
30000f90:	685b      	ldr	r3, [r3, #4]
30000f92:	681b      	ldr	r3, [r3, #0]
30000f94:	f107 0218 	add.w	r2, r7, #24
30000f98:	6852      	ldr	r2, [r2, #4]
30000f9a:	6852      	ldr	r2, [r2, #4]
30000f9c:	4293      	cmp	r3, r2
30000f9e:	dd04      	ble.n	30000faa <curve__test+0x746>
30000fa0:	4b22      	ldr	r3, [pc, #136]	; (3000102c <curve__test+0x7c8>)
30000fa2:	2100      	movs	r1, #0
30000fa4:	4618      	mov	r0, r3
30000fa6:	f008 f9f3 	bl	30009390 <__gnat_last_chance_handler>
30000faa:	f8c7 30e4 	str.w	r3, [r7, #228]	; 0xe4
30000fae:	f06f 4100 	mvn.w	r1, #2147483648	; 0x80000000
30000fb2:	428a      	cmp	r2, r1
30000fb4:	d103      	bne.n	30000fbe <curve__test+0x75a>
30000fb6:	2140      	movs	r1, #64	; 0x40
30000fb8:	481d      	ldr	r0, [pc, #116]	; (30001030 <curve__test+0x7cc>)
30000fba:	f008 f9e9 	bl	30009390 <__gnat_last_chance_handler>
30000fbe:	1c51      	adds	r1, r2, #1
30000fc0:	f8c7 10e0 	str.w	r1, [r7, #224]	; 0xe0
30000fc4:	f8d7 10e4 	ldr.w	r1, [r7, #228]	; 0xe4
30000fc8:	f8c7 10dc 	str.w	r1, [r7, #220]	; 0xdc
30000fcc:	f8d7 00e4 	ldr.w	r0, [r7, #228]	; 0xe4
30000fd0:	f8d7 10e0 	ldr.w	r1, [r7, #224]	; 0xe0
30000fd4:	4288      	cmp	r0, r1
30000fd6:	dd05      	ble.n	30000fe4 <curve__test+0x780>
30000fd8:	f8d7 10e4 	ldr.w	r1, [r7, #228]	; 0xe4
30000fdc:	3901      	subs	r1, #1
30000fde:	f8c7 10d8 	str.w	r1, [r7, #216]	; 0xd8
30000fe2:	e003      	b.n	30000fec <curve__test+0x788>
30000fe4:	f8d7 10e0 	ldr.w	r1, [r7, #224]	; 0xe0
30000fe8:	f8c7 10d8 	str.w	r1, [r7, #216]	; 0xd8
30000fec:	3201      	adds	r2, #1
30000fee:	4293      	cmp	r3, r2
30000ff0:	dc05      	bgt.n	30000ffe <curve__test+0x79a>
30000ff2:	2b00      	cmp	r3, #0
30000ff4:	dc03      	bgt.n	30000ffe <curve__test+0x79a>
30000ff6:	2140      	movs	r1, #64	; 0x40
30000ff8:	480d      	ldr	r0, [pc, #52]	; (30001030 <curve__test+0x7cc>)
30000ffa:	f008 f9c9 	bl	30009390 <__gnat_last_chance_handler>
30000ffe:	f107 0318 	add.w	r3, r7, #24
30001002:	681b      	ldr	r3, [r3, #0]
30001004:	f8c7 30d4 	str.w	r3, [r7, #212]	; 0xd4
30001008:	f8d7 20e4 	ldr.w	r2, [r7, #228]	; 0xe4
3000100c:	f8d7 30e0 	ldr.w	r3, [r7, #224]	; 0xe0
30001010:	429a      	cmp	r2, r3
30001012:	dd0f      	ble.n	30001034 <curve__test+0x7d0>
30001014:	2143      	movs	r1, #67	; 0x43
30001016:	4806      	ldr	r0, [pc, #24]	; (30001030 <curve__test+0x7cc>)
30001018:	f008 f9ba 	bl	30009390 <__gnat_last_chance_handler>
3000101c:	420c2000 	.word	0x420c2000
30001020:	30009d24 	.word	0x30009d24
30001024:	30009d34 	.word	0x30009d34
30001028:	30009d50 	.word	0x30009d50
3000102c:	3000bc8c 	.word	0x3000bc8c
30001030:	30009d40 	.word	0x30009d40
30001034:	f8d7 10e0 	ldr.w	r1, [r7, #224]	; 0xe0
30001038:	f8d7 20d4 	ldr.w	r2, [r7, #212]	; 0xd4
3000103c:	f8d7 30dc 	ldr.w	r3, [r7, #220]	; 0xdc
30001040:	1acb      	subs	r3, r1, r3
30001042:	5cd3      	ldrb	r3, [r2, r3]
30001044:	2b00      	cmp	r3, #0
30001046:	d106      	bne.n	30001056 <curve__test+0x7f2>
30001048:	f107 0318 	add.w	r3, r7, #24
3000104c:	681b      	ldr	r3, [r3, #0]
3000104e:	2100      	movs	r1, #0
30001050:	4618      	mov	r0, r3
30001052:	f008 f99d 	bl	30009390 <__gnat_last_chance_handler>
30001056:	f8d7 30e4 	ldr.w	r3, [r7, #228]	; 0xe4
3000105a:	f8c7 30d0 	str.w	r3, [r7, #208]	; 0xd0
3000105e:	f8d7 30e0 	ldr.w	r3, [r7, #224]	; 0xe0
30001062:	f8c7 30cc 	str.w	r3, [r7, #204]	; 0xcc
30001066:	f8d7 30d0 	ldr.w	r3, [r7, #208]	; 0xd0
3000106a:	f8c7 30c8 	str.w	r3, [r7, #200]	; 0xc8
3000106e:	f8d7 30cc 	ldr.w	r3, [r7, #204]	; 0xcc
30001072:	f8c7 30c4 	str.w	r3, [r7, #196]	; 0xc4
30001076:	f8d7 30c8 	ldr.w	r3, [r7, #200]	; 0xc8
3000107a:	f8c7 30c0 	str.w	r3, [r7, #192]	; 0xc0
3000107e:	f8d7 20c8 	ldr.w	r2, [r7, #200]	; 0xc8
30001082:	f8d7 30c4 	ldr.w	r3, [r7, #196]	; 0xc4
30001086:	429a      	cmp	r2, r3
30001088:	dd05      	ble.n	30001096 <curve__test+0x832>
3000108a:	f8d7 30c8 	ldr.w	r3, [r7, #200]	; 0xc8
3000108e:	3b01      	subs	r3, #1
30001090:	f8c7 30bc 	str.w	r3, [r7, #188]	; 0xbc
30001094:	e003      	b.n	3000109e <curve__test+0x83a>
30001096:	f8d7 30c4 	ldr.w	r3, [r7, #196]	; 0xc4
3000109a:	f8c7 30bc 	str.w	r3, [r7, #188]	; 0xbc
3000109e:	f8d7 20c8 	ldr.w	r2, [r7, #200]	; 0xc8
300010a2:	f8d7 30c4 	ldr.w	r3, [r7, #196]	; 0xc4
300010a6:	429a      	cmp	r2, r3
300010a8:	dc06      	bgt.n	300010b8 <curve__test+0x854>
300010aa:	f8d7 20c4 	ldr.w	r2, [r7, #196]	; 0xc4
300010ae:	f8d7 30c8 	ldr.w	r3, [r7, #200]	; 0xc8
300010b2:	1ad3      	subs	r3, r2, r3
300010b4:	1c59      	adds	r1, r3, #1
300010b6:	e000      	b.n	300010ba <curve__test+0x856>
300010b8:	2100      	movs	r1, #0
300010ba:	f8d7 20d0 	ldr.w	r2, [r7, #208]	; 0xd0
300010be:	f8d7 30cc 	ldr.w	r3, [r7, #204]	; 0xcc
300010c2:	429a      	cmp	r2, r3
300010c4:	dc07      	bgt.n	300010d6 <curve__test+0x872>
300010c6:	f8d7 30d0 	ldr.w	r3, [r7, #208]	; 0xd0
300010ca:	2b00      	cmp	r3, #0
300010cc:	dc03      	bgt.n	300010d6 <curve__test+0x872>
300010ce:	214b      	movs	r1, #75	; 0x4b
300010d0:	482d      	ldr	r0, [pc, #180]	; (30001188 <curve__test+0x924>)
300010d2:	f008 f95d 	bl	30009390 <__gnat_last_chance_handler>
300010d6:	f8d7 20c8 	ldr.w	r2, [r7, #200]	; 0xc8
300010da:	f8d7 30c4 	ldr.w	r3, [r7, #196]	; 0xc4
300010de:	429a      	cmp	r2, r3
300010e0:	dc08      	bgt.n	300010f4 <curve__test+0x890>
300010e2:	f8d7 20c4 	ldr.w	r2, [r7, #196]	; 0xc4
300010e6:	f8d7 30c8 	ldr.w	r3, [r7, #200]	; 0xc8
300010ea:	1ad3      	subs	r3, r2, r3
300010ec:	330c      	adds	r3, #12
300010ee:	f023 0303 	bic.w	r3, r3, #3
300010f2:	e000      	b.n	300010f6 <curve__test+0x892>
300010f4:	2308      	movs	r3, #8
300010f6:	3303      	adds	r3, #3
300010f8:	3307      	adds	r3, #7
300010fa:	08db      	lsrs	r3, r3, #3
300010fc:	00db      	lsls	r3, r3, #3
300010fe:	ebad 0d03 	sub.w	sp, sp, r3
30001102:	466b      	mov	r3, sp
30001104:	3303      	adds	r3, #3
30001106:	089b      	lsrs	r3, r3, #2
30001108:	009b      	lsls	r3, r3, #2
3000110a:	f8c7 30b8 	str.w	r3, [r7, #184]	; 0xb8
3000110e:	f8d7 30b8 	ldr.w	r3, [r7, #184]	; 0xb8
30001112:	f8d7 20c8 	ldr.w	r2, [r7, #200]	; 0xc8
30001116:	601a      	str	r2, [r3, #0]
30001118:	f8d7 30b8 	ldr.w	r3, [r7, #184]	; 0xb8
3000111c:	f8d7 20c4 	ldr.w	r2, [r7, #196]	; 0xc4
30001120:	605a      	str	r2, [r3, #4]
30001122:	f8d7 30b8 	ldr.w	r3, [r7, #184]	; 0xb8
30001126:	f103 0208 	add.w	r2, r3, #8
3000112a:	f8d7 30d4 	ldr.w	r3, [r7, #212]	; 0xd4
3000112e:	4610      	mov	r0, r2
30001130:	460a      	mov	r2, r1
30001132:	4619      	mov	r1, r3
30001134:	f008 fbaa 	bl	3000988c <memcpy>
30001138:	f8d7 30b8 	ldr.w	r3, [r7, #184]	; 0xb8
3000113c:	3308      	adds	r3, #8
3000113e:	f8c7 30b4 	str.w	r3, [r7, #180]	; 0xb4
30001142:	f8d7 20d0 	ldr.w	r2, [r7, #208]	; 0xd0
30001146:	f8d7 30c4 	ldr.w	r3, [r7, #196]	; 0xc4
3000114a:	429a      	cmp	r2, r3
3000114c:	dd03      	ble.n	30001156 <curve__test+0x8f2>
3000114e:	214d      	movs	r1, #77	; 0x4d
30001150:	480d      	ldr	r0, [pc, #52]	; (30001188 <curve__test+0x924>)
30001152:	f008 f91d 	bl	30009390 <__gnat_last_chance_handler>
30001156:	f8d7 10c4 	ldr.w	r1, [r7, #196]	; 0xc4
3000115a:	f8d7 20b8 	ldr.w	r2, [r7, #184]	; 0xb8
3000115e:	f8d7 30c0 	ldr.w	r3, [r7, #192]	; 0xc0
30001162:	1acb      	subs	r3, r1, r3
30001164:	4413      	add	r3, r2
30001166:	2200      	movs	r2, #0
30001168:	721a      	strb	r2, [r3, #8]
3000116a:	f8d7 30b8 	ldr.w	r3, [r7, #184]	; 0xb8
3000116e:	3308      	adds	r3, #8
30001170:	2100      	movs	r1, #0
30001172:	4618      	mov	r0, r3
30001174:	f008 f90c 	bl	30009390 <__gnat_last_chance_handler>
30001178:	f8d7 d004 	ldr.w	sp, [r7, #4]
3000117c:	f507 77a6 	add.w	r7, r7, #332	; 0x14c
30001180:	46bd      	mov	sp, r7
30001182:	e8bd 8ff0 	ldmia.w	sp!, {r4, r5, r6, r7, r8, r9, sl, fp, pc}
30001186:	bf00      	nop
30001188:	30009d40 	.word	0x30009d40

3000118c <curve__test__ec__copy_u8_to_s.5590>:
3000118c:	b590      	push	{r4, r7, lr}
3000118e:	b087      	sub	sp, #28
30001190:	af00      	add	r7, sp, #0
30001192:	4603      	mov	r3, r0
30001194:	60b9      	str	r1, [r7, #8]
30001196:	607a      	str	r2, [r7, #4]
30001198:	73fb      	strb	r3, [r7, #15]
3000119a:	4660      	mov	r0, ip
3000119c:	f8c7 c000 	str.w	ip, [r7]
300011a0:	2301      	movs	r3, #1
300011a2:	613b      	str	r3, [r7, #16]
300011a4:	693b      	ldr	r3, [r7, #16]
300011a6:	2b02      	cmp	r3, #2
300011a8:	dc56      	bgt.n	30001258 <curve__test__ec__copy_u8_to_s.5590+0xcc>
300011aa:	693b      	ldr	r3, [r7, #16]
300011ac:	2b01      	cmp	r3, #1
300011ae:	d10a      	bne.n	300011c6 <curve__test__ec__copy_u8_to_s.5590+0x3a>
300011b0:	7bfb      	ldrb	r3, [r7, #15]
300011b2:	091b      	lsrs	r3, r3, #4
300011b4:	b2db      	uxtb	r3, r3
300011b6:	2b0f      	cmp	r3, #15
300011b8:	d903      	bls.n	300011c2 <curve__test__ec__copy_u8_to_s.5590+0x36>
300011ba:	2168      	movs	r1, #104	; 0x68
300011bc:	4828      	ldr	r0, [pc, #160]	; (30001260 <curve__test__ec__copy_u8_to_s.5590+0xd4>)
300011be:	f008 f8e7 	bl	30009390 <__gnat_last_chance_handler>
300011c2:	75bb      	strb	r3, [r7, #22]
300011c4:	e00a      	b.n	300011dc <curve__test__ec__copy_u8_to_s.5590+0x50>
300011c6:	7bfb      	ldrb	r3, [r7, #15]
300011c8:	f003 030f 	and.w	r3, r3, #15
300011cc:	b2db      	uxtb	r3, r3
300011ce:	2b0f      	cmp	r3, #15
300011d0:	d903      	bls.n	300011da <curve__test__ec__copy_u8_to_s.5590+0x4e>
300011d2:	216a      	movs	r1, #106	; 0x6a
300011d4:	4822      	ldr	r0, [pc, #136]	; (30001260 <curve__test__ec__copy_u8_to_s.5590+0xd4>)
300011d6:	f008 f8db 	bl	30009390 <__gnat_last_chance_handler>
300011da:	75bb      	strb	r3, [r7, #22]
300011dc:	7dbb      	ldrb	r3, [r7, #22]
300011de:	2b09      	cmp	r3, #9
300011e0:	d908      	bls.n	300011f4 <curve__test__ec__copy_u8_to_s.5590+0x68>
300011e2:	7dbb      	ldrb	r3, [r7, #22]
300011e4:	3b0a      	subs	r3, #10
300011e6:	b2db      	uxtb	r3, r3
300011e8:	f003 030f 	and.w	r3, r3, #15
300011ec:	b2db      	uxtb	r3, r3
300011ee:	3341      	adds	r3, #65	; 0x41
300011f0:	75fb      	strb	r3, [r7, #23]
300011f2:	e002      	b.n	300011fa <curve__test__ec__copy_u8_to_s.5590+0x6e>
300011f4:	7dbb      	ldrb	r3, [r7, #22]
300011f6:	3330      	adds	r3, #48	; 0x30
300011f8:	75fb      	strb	r3, [r7, #23]
300011fa:	687b      	ldr	r3, [r7, #4]
300011fc:	0059      	lsls	r1, r3, #1
300011fe:	460b      	mov	r3, r1
30001200:	2b00      	cmp	r3, #0
30001202:	da03      	bge.n	3000120c <curve__test__ec__copy_u8_to_s.5590+0x80>
30001204:	2171      	movs	r1, #113	; 0x71
30001206:	4816      	ldr	r0, [pc, #88]	; (30001260 <curve__test__ec__copy_u8_to_s.5590+0xd4>)
30001208:	f008 f8c2 	bl	30009390 <__gnat_last_chance_handler>
3000120c:	460a      	mov	r2, r1
3000120e:	2400      	movs	r4, #0
30001210:	693b      	ldr	r3, [r7, #16]
30001212:	189b      	adds	r3, r3, r2
30001214:	d700      	bvc.n	30001218 <curve__test__ec__copy_u8_to_s.5590+0x8c>
30001216:	2401      	movs	r4, #1
30001218:	461a      	mov	r2, r3
3000121a:	4623      	mov	r3, r4
3000121c:	2b00      	cmp	r3, #0
3000121e:	d003      	beq.n	30001228 <curve__test__ec__copy_u8_to_s.5590+0x9c>
30001220:	2171      	movs	r1, #113	; 0x71
30001222:	480f      	ldr	r0, [pc, #60]	; (30001260 <curve__test__ec__copy_u8_to_s.5590+0xd4>)
30001224:	f008 f8b4 	bl	30009390 <__gnat_last_chance_handler>
30001228:	4613      	mov	r3, r2
3000122a:	2b00      	cmp	r3, #0
3000122c:	dd03      	ble.n	30001236 <curve__test__ec__copy_u8_to_s.5590+0xaa>
3000122e:	f8d0 2084 	ldr.w	r2, [r0, #132]	; 0x84
30001232:	4293      	cmp	r3, r2
30001234:	dd03      	ble.n	3000123e <curve__test__ec__copy_u8_to_s.5590+0xb2>
30001236:	2171      	movs	r1, #113	; 0x71
30001238:	4809      	ldr	r0, [pc, #36]	; (30001260 <curve__test__ec__copy_u8_to_s.5590+0xd4>)
3000123a:	f008 f8a9 	bl	30009390 <__gnat_last_chance_handler>
3000123e:	460a      	mov	r2, r1
30001240:	693b      	ldr	r3, [r7, #16]
30001242:	4413      	add	r3, r2
30001244:	461a      	mov	r2, r3
30001246:	68bb      	ldr	r3, [r7, #8]
30001248:	4413      	add	r3, r2
3000124a:	7dfa      	ldrb	r2, [r7, #23]
3000124c:	f803 2c01 	strb.w	r2, [r3, #-1]
30001250:	693b      	ldr	r3, [r7, #16]
30001252:	3301      	adds	r3, #1
30001254:	613b      	str	r3, [r7, #16]
30001256:	e7a5      	b.n	300011a4 <curve__test__ec__copy_u8_to_s.5590+0x18>
30001258:	371c      	adds	r7, #28
3000125a:	46bd      	mov	sp, r7
3000125c:	bd90      	pop	{r4, r7, pc}
3000125e:	bf00      	nop
30001260:	30009d08 	.word	0x30009d08

30001264 <curve__test__ec__copy_u32_to_s.5594>:
30001264:	e92d 41f0 	stmdb	sp!, {r4, r5, r6, r7, r8, lr}
30001268:	b08e      	sub	sp, #56	; 0x38
3000126a:	af00      	add	r7, sp, #0
3000126c:	e9c7 0102 	strd	r0, r1, [r7, #8]
30001270:	607a      	str	r2, [r7, #4]
30001272:	4664      	mov	r4, ip
30001274:	f8c7 c000 	str.w	ip, [r7]
30001278:	68fb      	ldr	r3, [r7, #12]
3000127a:	681d      	ldr	r5, [r3, #0]
3000127c:	68fb      	ldr	r3, [r7, #12]
3000127e:	685e      	ldr	r6, [r3, #4]
30001280:	46a8      	mov	r8, r5
30001282:	2300      	movs	r3, #0
30001284:	633b      	str	r3, [r7, #48]	; 0x30
30001286:	f8d4 3080 	ldr.w	r3, [r4, #128]	; 0x80
3000128a:	62fb      	str	r3, [r7, #44]	; 0x2c
3000128c:	f107 0314 	add.w	r3, r7, #20
30001290:	623b      	str	r3, [r7, #32]
30001292:	6fe3      	ldr	r3, [r4, #124]	; 0x7c
30001294:	095b      	lsrs	r3, r3, #5
30001296:	637b      	str	r3, [r7, #52]	; 0x34
30001298:	6fe3      	ldr	r3, [r4, #124]	; 0x7c
3000129a:	f003 031f 	and.w	r3, r3, #31
3000129e:	2b00      	cmp	r3, #0
300012a0:	d002      	beq.n	300012a8 <curve__test__ec__copy_u32_to_s.5594+0x44>
300012a2:	6b7b      	ldr	r3, [r7, #52]	; 0x34
300012a4:	3301      	adds	r3, #1
300012a6:	637b      	str	r3, [r7, #52]	; 0x34
300012a8:	6b7b      	ldr	r3, [r7, #52]	; 0x34
300012aa:	3b01      	subs	r3, #1
300012ac:	61fb      	str	r3, [r7, #28]
300012ae:	69fb      	ldr	r3, [r7, #28]
300012b0:	61bb      	str	r3, [r7, #24]
300012b2:	2300      	movs	r3, #0
300012b4:	62bb      	str	r3, [r7, #40]	; 0x28
300012b6:	6abb      	ldr	r3, [r7, #40]	; 0x28
300012b8:	2b00      	cmp	r3, #0
300012ba:	da03      	bge.n	300012c4 <curve__test__ec__copy_u32_to_s.5594+0x60>
300012bc:	2184      	movs	r1, #132	; 0x84
300012be:	4820      	ldr	r0, [pc, #128]	; (30001340 <curve__test__ec__copy_u32_to_s.5594+0xdc>)
300012c0:	f008 f866 	bl	30009390 <__gnat_last_chance_handler>
300012c4:	6abb      	ldr	r3, [r7, #40]	; 0x28
300012c6:	429d      	cmp	r5, r3
300012c8:	dc02      	bgt.n	300012d0 <curve__test__ec__copy_u32_to_s.5594+0x6c>
300012ca:	6abb      	ldr	r3, [r7, #40]	; 0x28
300012cc:	429e      	cmp	r6, r3
300012ce:	da03      	bge.n	300012d8 <curve__test__ec__copy_u32_to_s.5594+0x74>
300012d0:	2184      	movs	r1, #132	; 0x84
300012d2:	481b      	ldr	r0, [pc, #108]	; (30001340 <curve__test__ec__copy_u32_to_s.5594+0xdc>)
300012d4:	f008 f85c 	bl	30009390 <__gnat_last_chance_handler>
300012d8:	68bb      	ldr	r3, [r7, #8]
300012da:	6aba      	ldr	r2, [r7, #40]	; 0x28
300012dc:	eba2 0208 	sub.w	r2, r2, r8
300012e0:	f853 2022 	ldr.w	r2, [r3, r2, lsl #2]
300012e4:	6a3b      	ldr	r3, [r7, #32]
300012e6:	601a      	str	r2, [r3, #0]
300012e8:	2300      	movs	r3, #0
300012ea:	627b      	str	r3, [r7, #36]	; 0x24
300012ec:	6a7b      	ldr	r3, [r7, #36]	; 0x24
300012ee:	2b03      	cmp	r3, #3
300012f0:	dc15      	bgt.n	3000131e <curve__test__ec__copy_u32_to_s.5594+0xba>
300012f2:	6afb      	ldr	r3, [r7, #44]	; 0x2c
300012f4:	3b01      	subs	r3, #1
300012f6:	62fb      	str	r3, [r7, #44]	; 0x2c
300012f8:	6a7b      	ldr	r3, [r7, #36]	; 0x24
300012fa:	f107 0238 	add.w	r2, r7, #56	; 0x38
300012fe:	4413      	add	r3, r2
30001300:	f813 3c24 	ldrb.w	r3, [r3, #-36]
30001304:	46a4      	mov	ip, r4
30001306:	6afa      	ldr	r2, [r7, #44]	; 0x2c
30001308:	6879      	ldr	r1, [r7, #4]
3000130a:	4618      	mov	r0, r3
3000130c:	f7ff ff3e 	bl	3000118c <curve__test__ec__copy_u8_to_s.5590>
30001310:	6afb      	ldr	r3, [r7, #44]	; 0x2c
30001312:	2b00      	cmp	r3, #0
30001314:	d00e      	beq.n	30001334 <curve__test__ec__copy_u32_to_s.5594+0xd0>
30001316:	6a7b      	ldr	r3, [r7, #36]	; 0x24
30001318:	3301      	adds	r3, #1
3000131a:	627b      	str	r3, [r7, #36]	; 0x24
3000131c:	e7e6      	b.n	300012ec <curve__test__ec__copy_u32_to_s.5594+0x88>
3000131e:	6b3b      	ldr	r3, [r7, #48]	; 0x30
30001320:	3304      	adds	r3, #4
30001322:	633b      	str	r3, [r7, #48]	; 0x30
30001324:	6aba      	ldr	r2, [r7, #40]	; 0x28
30001326:	69bb      	ldr	r3, [r7, #24]
30001328:	429a      	cmp	r2, r3
3000132a:	d004      	beq.n	30001336 <curve__test__ec__copy_u32_to_s.5594+0xd2>
3000132c:	6abb      	ldr	r3, [r7, #40]	; 0x28
3000132e:	3301      	adds	r3, #1
30001330:	62bb      	str	r3, [r7, #40]	; 0x28
30001332:	e7c0      	b.n	300012b6 <curve__test__ec__copy_u32_to_s.5594+0x52>
30001334:	bf00      	nop
30001336:	3738      	adds	r7, #56	; 0x38
30001338:	46bd      	mov	sp, r7
3000133a:	e8bd 81f0 	ldmia.w	sp!, {r4, r5, r6, r7, r8, pc}
3000133e:	bf00      	nop
30001340:	30009d08 	.word	0x30009d08

30001344 <curve__test__ec__enable_pka.5596>:
30001344:	b590      	push	{r4, r7, lr}
30001346:	b085      	sub	sp, #20
30001348:	af00      	add	r7, sp, #0
3000134a:	4664      	mov	r4, ip
3000134c:	f8c7 c004 	str.w	ip, [r7, #4]
30001350:	4816      	ldr	r0, [pc, #88]	; (300013ac <curve__test__ec__enable_pka.5596+0x68>)
30001352:	f003 f809 	bl	30004368 <stm32__device__s_ns_periph>
30001356:	4603      	mov	r3, r0
30001358:	60bb      	str	r3, [r7, #8]
3000135a:	f107 0308 	add.w	r3, r7, #8
3000135e:	681a      	ldr	r2, [r3, #0]
30001360:	60fa      	str	r2, [r7, #12]
30001362:	681b      	ldr	r3, [r3, #0]
30001364:	f003 0303 	and.w	r3, r3, #3
30001368:	2b00      	cmp	r3, #0
3000136a:	d003      	beq.n	30001374 <curve__test__ec__enable_pka.5596+0x30>
3000136c:	2193      	movs	r1, #147	; 0x93
3000136e:	4810      	ldr	r0, [pc, #64]	; (300013b0 <curve__test__ec__enable_pka.5596+0x6c>)
30001370:	f008 f80e 	bl	30009390 <__gnat_last_chance_handler>
30001374:	68fb      	ldr	r3, [r7, #12]
30001376:	334c      	adds	r3, #76	; 0x4c
30001378:	681b      	ldr	r3, [r3, #0]
3000137a:	461a      	mov	r2, r3
3000137c:	4613      	mov	r3, r2
3000137e:	f443 2200 	orr.w	r2, r3, #524288	; 0x80000
30001382:	68fb      	ldr	r3, [r7, #12]
30001384:	334c      	adds	r3, #76	; 0x4c
30001386:	601a      	str	r2, [r3, #0]
30001388:	6fa3      	ldr	r3, [r4, #120]	; 0x78
3000138a:	681b      	ldr	r3, [r3, #0]
3000138c:	f043 0301 	orr.w	r3, r3, #1
30001390:	6fa2      	ldr	r2, [r4, #120]	; 0x78
30001392:	6013      	str	r3, [r2, #0]
30001394:	6fa3      	ldr	r3, [r4, #120]	; 0x78
30001396:	681b      	ldr	r3, [r3, #0]
30001398:	b2db      	uxtb	r3, r3
3000139a:	f003 0301 	and.w	r3, r3, #1
3000139e:	b2db      	uxtb	r3, r3
300013a0:	2b00      	cmp	r3, #0
300013a2:	d100      	bne.n	300013a6 <curve__test__ec__enable_pka.5596+0x62>
300013a4:	e7f0      	b.n	30001388 <curve__test__ec__enable_pka.5596+0x44>
300013a6:	3714      	adds	r7, #20
300013a8:	46bd      	mov	sp, r7
300013aa:	bd90      	pop	{r4, r7, pc}
300013ac:	40021000 	.word	0x40021000
300013b0:	30009d08 	.word	0x30009d08

300013b4 <curve__test__ec__disable_pka.5598>:
300013b4:	b590      	push	{r4, r7, lr}
300013b6:	b085      	sub	sp, #20
300013b8:	af00      	add	r7, sp, #0
300013ba:	4664      	mov	r4, ip
300013bc:	f8c7 c004 	str.w	ip, [r7, #4]
300013c0:	4811      	ldr	r0, [pc, #68]	; (30001408 <curve__test__ec__disable_pka.5598+0x54>)
300013c2:	f002 ffd1 	bl	30004368 <stm32__device__s_ns_periph>
300013c6:	4603      	mov	r3, r0
300013c8:	60bb      	str	r3, [r7, #8]
300013ca:	f107 0308 	add.w	r3, r7, #8
300013ce:	681a      	ldr	r2, [r3, #0]
300013d0:	60fa      	str	r2, [r7, #12]
300013d2:	681b      	ldr	r3, [r3, #0]
300013d4:	f003 0303 	and.w	r3, r3, #3
300013d8:	2b00      	cmp	r3, #0
300013da:	d003      	beq.n	300013e4 <curve__test__ec__disable_pka.5598+0x30>
300013dc:	219f      	movs	r1, #159	; 0x9f
300013de:	480b      	ldr	r0, [pc, #44]	; (3000140c <curve__test__ec__disable_pka.5598+0x58>)
300013e0:	f007 ffd6 	bl	30009390 <__gnat_last_chance_handler>
300013e4:	6fa3      	ldr	r3, [r4, #120]	; 0x78
300013e6:	681b      	ldr	r3, [r3, #0]
300013e8:	f36f 0300 	bfc	r3, #0, #1
300013ec:	6fa2      	ldr	r2, [r4, #120]	; 0x78
300013ee:	6013      	str	r3, [r2, #0]
300013f0:	6fa3      	ldr	r3, [r4, #120]	; 0x78
300013f2:	681b      	ldr	r3, [r3, #0]
300013f4:	b2db      	uxtb	r3, r3
300013f6:	f003 0301 	and.w	r3, r3, #1
300013fa:	b2db      	uxtb	r3, r3
300013fc:	2b00      	cmp	r3, #0
300013fe:	d000      	beq.n	30001402 <curve__test__ec__disable_pka.5598+0x4e>
30001400:	e7f0      	b.n	300013e4 <curve__test__ec__disable_pka.5598+0x30>
30001402:	3714      	adds	r7, #20
30001404:	46bd      	mov	sp, r7
30001406:	bd90      	pop	{r4, r7, pc}
30001408:	40021000 	.word	0x40021000
3000140c:	30009d08 	.word	0x30009d08

30001410 <curve__test__ec__check_errors.5600>:
30001410:	b480      	push	{r7}
30001412:	b083      	sub	sp, #12
30001414:	af00      	add	r7, sp, #0
30001416:	4663      	mov	r3, ip
30001418:	f8c7 c004 	str.w	ip, [r7, #4]
3000141c:	6f9a      	ldr	r2, [r3, #120]	; 0x78
3000141e:	3204      	adds	r2, #4
30001420:	6812      	ldr	r2, [r2, #0]
30001422:	f3c2 4207 	ubfx	r2, r2, #16, #8
30001426:	b2d2      	uxtb	r2, r2
30001428:	f002 0208 	and.w	r2, r2, #8
3000142c:	b2d2      	uxtb	r2, r2
3000142e:	2a00      	cmp	r2, #0
30001430:	bf14      	ite	ne
30001432:	2201      	movne	r2, #1
30001434:	2200      	moveq	r2, #0
30001436:	b2d2      	uxtb	r2, r2
30001438:	6f9b      	ldr	r3, [r3, #120]	; 0x78
3000143a:	3304      	adds	r3, #4
3000143c:	681b      	ldr	r3, [r3, #0]
3000143e:	f3c3 4307 	ubfx	r3, r3, #16, #8
30001442:	b2db      	uxtb	r3, r3
30001444:	f003 0310 	and.w	r3, r3, #16
30001448:	b2db      	uxtb	r3, r3
3000144a:	2b00      	cmp	r3, #0
3000144c:	bf14      	ite	ne
3000144e:	2301      	movne	r3, #1
30001450:	2300      	moveq	r3, #0
30001452:	b2db      	uxtb	r3, r3
30001454:	4313      	orrs	r3, r2
30001456:	b2db      	uxtb	r3, r3
30001458:	bf00      	nop
3000145a:	4618      	mov	r0, r3
3000145c:	370c      	adds	r7, #12
3000145e:	46bd      	mov	sp, r7
30001460:	f85d 7b04 	ldr.w	r7, [sp], #4
30001464:	4770      	bx	lr
30001466:	bf00      	nop

30001468 <curve__test__ec__clear_flags.5602>:
30001468:	b480      	push	{r7}
3000146a:	b083      	sub	sp, #12
3000146c:	af00      	add	r7, sp, #0
3000146e:	4663      	mov	r3, ip
30001470:	f8c7 c004 	str.w	ip, [r7, #4]
30001474:	6f9a      	ldr	r2, [r3, #120]	; 0x78
30001476:	3208      	adds	r2, #8
30001478:	6812      	ldr	r2, [r2, #0]
3000147a:	4611      	mov	r1, r2
3000147c:	460a      	mov	r2, r1
3000147e:	f442 3100 	orr.w	r1, r2, #131072	; 0x20000
30001482:	6f9a      	ldr	r2, [r3, #120]	; 0x78
30001484:	3208      	adds	r2, #8
30001486:	6011      	str	r1, [r2, #0]
30001488:	6f9a      	ldr	r2, [r3, #120]	; 0x78
3000148a:	3208      	adds	r2, #8
3000148c:	6812      	ldr	r2, [r2, #0]
3000148e:	4611      	mov	r1, r2
30001490:	460a      	mov	r2, r1
30001492:	f442 2100 	orr.w	r1, r2, #524288	; 0x80000
30001496:	6f9a      	ldr	r2, [r3, #120]	; 0x78
30001498:	3208      	adds	r2, #8
3000149a:	6011      	str	r1, [r2, #0]
3000149c:	6f9a      	ldr	r2, [r3, #120]	; 0x78
3000149e:	3208      	adds	r2, #8
300014a0:	6812      	ldr	r2, [r2, #0]
300014a2:	f442 1280 	orr.w	r2, r2, #1048576	; 0x100000
300014a6:	6f9b      	ldr	r3, [r3, #120]	; 0x78
300014a8:	3308      	adds	r3, #8
300014aa:	601a      	str	r2, [r3, #0]
300014ac:	370c      	adds	r7, #12
300014ae:	46bd      	mov	sp, r7
300014b0:	f85d 7b04 	ldr.w	r7, [sp], #4
300014b4:	4770      	bx	lr
300014b6:	bf00      	nop

300014b8 <curve__test__ec__clear_ram.5604>:
300014b8:	b580      	push	{r7, lr}
300014ba:	b084      	sub	sp, #16
300014bc:	af00      	add	r7, sp, #0
300014be:	f8c7 c004 	str.w	ip, [r7, #4]
300014c2:	4813      	ldr	r0, [pc, #76]	; (30001510 <curve__test__ec__clear_ram.5604+0x58>)
300014c4:	f002 ff50 	bl	30004368 <stm32__device__s_ns_periph>
300014c8:	4603      	mov	r3, r0
300014ca:	60bb      	str	r3, [r7, #8]
300014cc:	f107 0308 	add.w	r3, r7, #8
300014d0:	681a      	ldr	r2, [r3, #0]
300014d2:	60fa      	str	r2, [r7, #12]
300014d4:	681b      	ldr	r3, [r3, #0]
300014d6:	f003 0303 	and.w	r3, r3, #3
300014da:	2b00      	cmp	r3, #0
300014dc:	d003      	beq.n	300014e6 <curve__test__ec__clear_ram.5604+0x2e>
300014de:	21b7      	movs	r1, #183	; 0xb7
300014e0:	480c      	ldr	r0, [pc, #48]	; (30001514 <curve__test__ec__clear_ram.5604+0x5c>)
300014e2:	f007 ff55 	bl	30009390 <__gnat_last_chance_handler>
300014e6:	68fb      	ldr	r3, [r7, #12]
300014e8:	2200      	movs	r2, #0
300014ea:	f8c3 2400 	str.w	r2, [r3, #1024]	; 0x400
300014ee:	2301      	movs	r3, #1
300014f0:	f240 327d 	movw	r2, #893	; 0x37d
300014f4:	4293      	cmp	r3, r2
300014f6:	dc08      	bgt.n	3000150a <curve__test__ec__clear_ram.5604+0x52>
300014f8:	4619      	mov	r1, r3
300014fa:	68fa      	ldr	r2, [r7, #12]
300014fc:	f501 7180 	add.w	r1, r1, #256	; 0x100
30001500:	2000      	movs	r0, #0
30001502:	f842 0021 	str.w	r0, [r2, r1, lsl #2]
30001506:	3301      	adds	r3, #1
30001508:	e7f2      	b.n	300014f0 <curve__test__ec__clear_ram.5604+0x38>
3000150a:	3710      	adds	r7, #16
3000150c:	46bd      	mov	sp, r7
3000150e:	bd80      	pop	{r7, pc}
30001510:	420c2000 	.word	0x420c2000
30001514:	30009d08 	.word	0x30009d08

30001518 <curve__test__ec__common_init.6063>:
30001518:	e92d 4ff0 	stmdb	sp!, {r4, r5, r6, r7, r8, r9, sl, fp, lr}
3000151c:	b0dd      	sub	sp, #372	; 0x174
3000151e:	af00      	add	r7, sp, #0
30001520:	f8c7 00b4 	str.w	r0, [r7, #180]	; 0xb4
30001524:	460b      	mov	r3, r1
30001526:	f887 30b3 	strb.w	r3, [r7, #179]	; 0xb3
3000152a:	4666      	mov	r6, ip
3000152c:	f8c7 c0ac 	str.w	ip, [r7, #172]	; 0xac
30001530:	466b      	mov	r3, sp
30001532:	469b      	mov	fp, r3
30001534:	2301      	movs	r3, #1
30001536:	f887 316f 	strb.w	r3, [r7, #367]	; 0x16f
3000153a:	6f73      	ldr	r3, [r6, #116]	; 0x74
3000153c:	ea23 73e3 	bic.w	r3, r3, r3, asr #31
30001540:	461a      	mov	r2, r3
30001542:	6f33      	ldr	r3, [r6, #112]	; 0x70
30001544:	ea23 73e3 	bic.w	r3, r3, r3, asr #31
30001548:	441a      	add	r2, r3
3000154a:	6ef3      	ldr	r3, [r6, #108]	; 0x6c
3000154c:	ea23 73e3 	bic.w	r3, r3, r3, asr #31
30001550:	441a      	add	r2, r3
30001552:	6eb3      	ldr	r3, [r6, #104]	; 0x68
30001554:	ea23 73e3 	bic.w	r3, r3, r3, asr #31
30001558:	441a      	add	r2, r3
3000155a:	6e73      	ldr	r3, [r6, #100]	; 0x64
3000155c:	ea23 73e3 	bic.w	r3, r3, r3, asr #31
30001560:	4413      	add	r3, r2
30001562:	3307      	adds	r3, #7
30001564:	08db      	lsrs	r3, r3, #3
30001566:	00db      	lsls	r3, r3, #3
30001568:	ebad 0d03 	sub.w	sp, sp, r3
3000156c:	466b      	mov	r3, sp
3000156e:	3300      	adds	r3, #0
30001570:	f8c7 3168 	str.w	r3, [r7, #360]	; 0x168
30001574:	6e32      	ldr	r2, [r6, #96]	; 0x60
30001576:	6df3      	ldr	r3, [r6, #92]	; 0x5c
30001578:	1ad3      	subs	r3, r2, r3
3000157a:	2b08      	cmp	r3, #8
3000157c:	d15a      	bne.n	30001634 <curve__test__ec__common_init.6063+0x11c>
3000157e:	6db3      	ldr	r3, [r6, #88]	; 0x58
30001580:	2209      	movs	r2, #9
30001582:	49c6      	ldr	r1, [pc, #792]	; (3000189c <curve__test__ec__common_init.6063+0x384>)
30001584:	4618      	mov	r0, r3
30001586:	f008 f94f 	bl	30009828 <memcmp>
3000158a:	4603      	mov	r3, r0
3000158c:	2b00      	cmp	r3, #0
3000158e:	d151      	bne.n	30001634 <curve__test__ec__common_init.6063+0x11c>
30001590:	6f73      	ldr	r3, [r6, #116]	; 0x74
30001592:	2b84      	cmp	r3, #132	; 0x84
30001594:	d003      	beq.n	3000159e <curve__test__ec__common_init.6063+0x86>
30001596:	21c6      	movs	r1, #198	; 0xc6
30001598:	48c1      	ldr	r0, [pc, #772]	; (300018a0 <curve__test__ec__common_init.6063+0x388>)
3000159a:	f007 fef9 	bl	30009390 <__gnat_last_chance_handler>
3000159e:	f8d7 3168 	ldr.w	r3, [r7, #360]	; 0x168
300015a2:	4ac0      	ldr	r2, [pc, #768]	; (300018a4 <curve__test__ec__common_init.6063+0x38c>)
300015a4:	4618      	mov	r0, r3
300015a6:	4611      	mov	r1, r2
300015a8:	2384      	movs	r3, #132	; 0x84
300015aa:	461a      	mov	r2, r3
300015ac:	f008 f96e 	bl	3000988c <memcpy>
300015b0:	6eb3      	ldr	r3, [r6, #104]	; 0x68
300015b2:	2b84      	cmp	r3, #132	; 0x84
300015b4:	d003      	beq.n	300015be <curve__test__ec__common_init.6063+0xa6>
300015b6:	21cb      	movs	r1, #203	; 0xcb
300015b8:	48b9      	ldr	r0, [pc, #740]	; (300018a0 <curve__test__ec__common_init.6063+0x388>)
300015ba:	f007 fee9 	bl	30009390 <__gnat_last_chance_handler>
300015be:	6d72      	ldr	r2, [r6, #84]	; 0x54
300015c0:	f8d7 3168 	ldr.w	r3, [r7, #360]	; 0x168
300015c4:	49b8      	ldr	r1, [pc, #736]	; (300018a8 <curve__test__ec__common_init.6063+0x390>)
300015c6:	1898      	adds	r0, r3, r2
300015c8:	2384      	movs	r3, #132	; 0x84
300015ca:	461a      	mov	r2, r3
300015cc:	f008 f95e 	bl	3000988c <memcpy>
300015d0:	6f33      	ldr	r3, [r6, #112]	; 0x70
300015d2:	2b84      	cmp	r3, #132	; 0x84
300015d4:	d003      	beq.n	300015de <curve__test__ec__common_init.6063+0xc6>
300015d6:	21d0      	movs	r1, #208	; 0xd0
300015d8:	48b1      	ldr	r0, [pc, #708]	; (300018a0 <curve__test__ec__common_init.6063+0x388>)
300015da:	f007 fed9 	bl	30009390 <__gnat_last_chance_handler>
300015de:	6d32      	ldr	r2, [r6, #80]	; 0x50
300015e0:	f8d7 3168 	ldr.w	r3, [r7, #360]	; 0x168
300015e4:	49b1      	ldr	r1, [pc, #708]	; (300018ac <curve__test__ec__common_init.6063+0x394>)
300015e6:	1898      	adds	r0, r3, r2
300015e8:	2384      	movs	r3, #132	; 0x84
300015ea:	461a      	mov	r2, r3
300015ec:	f008 f94e 	bl	3000988c <memcpy>
300015f0:	6ef3      	ldr	r3, [r6, #108]	; 0x6c
300015f2:	2b84      	cmp	r3, #132	; 0x84
300015f4:	d003      	beq.n	300015fe <curve__test__ec__common_init.6063+0xe6>
300015f6:	21d5      	movs	r1, #213	; 0xd5
300015f8:	48a9      	ldr	r0, [pc, #676]	; (300018a0 <curve__test__ec__common_init.6063+0x388>)
300015fa:	f007 fec9 	bl	30009390 <__gnat_last_chance_handler>
300015fe:	6cf2      	ldr	r2, [r6, #76]	; 0x4c
30001600:	f8d7 3168 	ldr.w	r3, [r7, #360]	; 0x168
30001604:	49aa      	ldr	r1, [pc, #680]	; (300018b0 <curve__test__ec__common_init.6063+0x398>)
30001606:	1898      	adds	r0, r3, r2
30001608:	2384      	movs	r3, #132	; 0x84
3000160a:	461a      	mov	r2, r3
3000160c:	f008 f93e 	bl	3000988c <memcpy>
30001610:	6e73      	ldr	r3, [r6, #100]	; 0x64
30001612:	2b84      	cmp	r3, #132	; 0x84
30001614:	d003      	beq.n	3000161e <curve__test__ec__common_init.6063+0x106>
30001616:	21da      	movs	r1, #218	; 0xda
30001618:	48a1      	ldr	r0, [pc, #644]	; (300018a0 <curve__test__ec__common_init.6063+0x388>)
3000161a:	f007 feb9 	bl	30009390 <__gnat_last_chance_handler>
3000161e:	6cb2      	ldr	r2, [r6, #72]	; 0x48
30001620:	f8d7 3168 	ldr.w	r3, [r7, #360]	; 0x168
30001624:	49a3      	ldr	r1, [pc, #652]	; (300018b4 <curve__test__ec__common_init.6063+0x39c>)
30001626:	1898      	adds	r0, r3, r2
30001628:	2384      	movs	r3, #132	; 0x84
3000162a:	461a      	mov	r2, r3
3000162c:	f008 f92e 	bl	3000988c <memcpy>
30001630:	f001 b9dc 	b.w	300029ec <curve__test__ec__common_init.6063+0x14d4>
30001634:	6e32      	ldr	r2, [r6, #96]	; 0x60
30001636:	6df3      	ldr	r3, [r6, #92]	; 0x5c
30001638:	1ad3      	subs	r3, r2, r3
3000163a:	2b08      	cmp	r3, #8
3000163c:	d15a      	bne.n	300016f4 <curve__test__ec__common_init.6063+0x1dc>
3000163e:	6db3      	ldr	r3, [r6, #88]	; 0x58
30001640:	2209      	movs	r2, #9
30001642:	499d      	ldr	r1, [pc, #628]	; (300018b8 <curve__test__ec__common_init.6063+0x3a0>)
30001644:	4618      	mov	r0, r3
30001646:	f008 f8ef 	bl	30009828 <memcmp>
3000164a:	4603      	mov	r3, r0
3000164c:	2b00      	cmp	r3, #0
3000164e:	d151      	bne.n	300016f4 <curve__test__ec__common_init.6063+0x1dc>
30001650:	6f73      	ldr	r3, [r6, #116]	; 0x74
30001652:	2b60      	cmp	r3, #96	; 0x60
30001654:	d003      	beq.n	3000165e <curve__test__ec__common_init.6063+0x146>
30001656:	21df      	movs	r1, #223	; 0xdf
30001658:	4891      	ldr	r0, [pc, #580]	; (300018a0 <curve__test__ec__common_init.6063+0x388>)
3000165a:	f007 fe99 	bl	30009390 <__gnat_last_chance_handler>
3000165e:	f8d7 3168 	ldr.w	r3, [r7, #360]	; 0x168
30001662:	4a96      	ldr	r2, [pc, #600]	; (300018bc <curve__test__ec__common_init.6063+0x3a4>)
30001664:	4618      	mov	r0, r3
30001666:	4611      	mov	r1, r2
30001668:	2360      	movs	r3, #96	; 0x60
3000166a:	461a      	mov	r2, r3
3000166c:	f008 f90e 	bl	3000988c <memcpy>
30001670:	6f33      	ldr	r3, [r6, #112]	; 0x70
30001672:	2b60      	cmp	r3, #96	; 0x60
30001674:	d003      	beq.n	3000167e <curve__test__ec__common_init.6063+0x166>
30001676:	21e3      	movs	r1, #227	; 0xe3
30001678:	4889      	ldr	r0, [pc, #548]	; (300018a0 <curve__test__ec__common_init.6063+0x388>)
3000167a:	f007 fe89 	bl	30009390 <__gnat_last_chance_handler>
3000167e:	6d32      	ldr	r2, [r6, #80]	; 0x50
30001680:	f8d7 3168 	ldr.w	r3, [r7, #360]	; 0x168
30001684:	498e      	ldr	r1, [pc, #568]	; (300018c0 <curve__test__ec__common_init.6063+0x3a8>)
30001686:	1898      	adds	r0, r3, r2
30001688:	2360      	movs	r3, #96	; 0x60
3000168a:	461a      	mov	r2, r3
3000168c:	f008 f8fe 	bl	3000988c <memcpy>
30001690:	6ef3      	ldr	r3, [r6, #108]	; 0x6c
30001692:	2b60      	cmp	r3, #96	; 0x60
30001694:	d003      	beq.n	3000169e <curve__test__ec__common_init.6063+0x186>
30001696:	21e6      	movs	r1, #230	; 0xe6
30001698:	4881      	ldr	r0, [pc, #516]	; (300018a0 <curve__test__ec__common_init.6063+0x388>)
3000169a:	f007 fe79 	bl	30009390 <__gnat_last_chance_handler>
3000169e:	6cf2      	ldr	r2, [r6, #76]	; 0x4c
300016a0:	f8d7 3168 	ldr.w	r3, [r7, #360]	; 0x168
300016a4:	4987      	ldr	r1, [pc, #540]	; (300018c4 <curve__test__ec__common_init.6063+0x3ac>)
300016a6:	1898      	adds	r0, r3, r2
300016a8:	2360      	movs	r3, #96	; 0x60
300016aa:	461a      	mov	r2, r3
300016ac:	f008 f8ee 	bl	3000988c <memcpy>
300016b0:	6eb3      	ldr	r3, [r6, #104]	; 0x68
300016b2:	2b60      	cmp	r3, #96	; 0x60
300016b4:	d003      	beq.n	300016be <curve__test__ec__common_init.6063+0x1a6>
300016b6:	21e9      	movs	r1, #233	; 0xe9
300016b8:	4879      	ldr	r0, [pc, #484]	; (300018a0 <curve__test__ec__common_init.6063+0x388>)
300016ba:	f007 fe69 	bl	30009390 <__gnat_last_chance_handler>
300016be:	6d72      	ldr	r2, [r6, #84]	; 0x54
300016c0:	f8d7 3168 	ldr.w	r3, [r7, #360]	; 0x168
300016c4:	4980      	ldr	r1, [pc, #512]	; (300018c8 <curve__test__ec__common_init.6063+0x3b0>)
300016c6:	1898      	adds	r0, r3, r2
300016c8:	2360      	movs	r3, #96	; 0x60
300016ca:	461a      	mov	r2, r3
300016cc:	f008 f8de 	bl	3000988c <memcpy>
300016d0:	6e73      	ldr	r3, [r6, #100]	; 0x64
300016d2:	2b60      	cmp	r3, #96	; 0x60
300016d4:	d003      	beq.n	300016de <curve__test__ec__common_init.6063+0x1c6>
300016d6:	21ec      	movs	r1, #236	; 0xec
300016d8:	4871      	ldr	r0, [pc, #452]	; (300018a0 <curve__test__ec__common_init.6063+0x388>)
300016da:	f007 fe59 	bl	30009390 <__gnat_last_chance_handler>
300016de:	6cb2      	ldr	r2, [r6, #72]	; 0x48
300016e0:	f8d7 3168 	ldr.w	r3, [r7, #360]	; 0x168
300016e4:	4979      	ldr	r1, [pc, #484]	; (300018cc <curve__test__ec__common_init.6063+0x3b4>)
300016e6:	1898      	adds	r0, r3, r2
300016e8:	2360      	movs	r3, #96	; 0x60
300016ea:	461a      	mov	r2, r3
300016ec:	f008 f8ce 	bl	3000988c <memcpy>
300016f0:	f001 b97c 	b.w	300029ec <curve__test__ec__common_init.6063+0x14d4>
300016f4:	6e32      	ldr	r2, [r6, #96]	; 0x60
300016f6:	6df3      	ldr	r3, [r6, #92]	; 0x5c
300016f8:	1ad3      	subs	r3, r2, r3
300016fa:	2b08      	cmp	r3, #8
300016fc:	f040 809b 	bne.w	30001836 <curve__test__ec__common_init.6063+0x31e>
30001700:	6db3      	ldr	r3, [r6, #88]	; 0x58
30001702:	2209      	movs	r2, #9
30001704:	4972      	ldr	r1, [pc, #456]	; (300018d0 <curve__test__ec__common_init.6063+0x3b8>)
30001706:	4618      	mov	r0, r3
30001708:	f008 f88e 	bl	30009828 <memcmp>
3000170c:	4603      	mov	r3, r0
3000170e:	2b00      	cmp	r3, #0
30001710:	f040 8091 	bne.w	30001836 <curve__test__ec__common_init.6063+0x31e>
30001714:	6f73      	ldr	r3, [r6, #116]	; 0x74
30001716:	2b40      	cmp	r3, #64	; 0x40
30001718:	d003      	beq.n	30001722 <curve__test__ec__common_init.6063+0x20a>
3000171a:	21ef      	movs	r1, #239	; 0xef
3000171c:	4860      	ldr	r0, [pc, #384]	; (300018a0 <curve__test__ec__common_init.6063+0x388>)
3000171e:	f007 fe37 	bl	30009390 <__gnat_last_chance_handler>
30001722:	f8d7 2168 	ldr.w	r2, [r7, #360]	; 0x168
30001726:	4b6b      	ldr	r3, [pc, #428]	; (300018d4 <curve__test__ec__common_init.6063+0x3bc>)
30001728:	469c      	mov	ip, r3
3000172a:	4696      	mov	lr, r2
3000172c:	f10c 0840 	add.w	r8, ip, #64	; 0x40
30001730:	4675      	mov	r5, lr
30001732:	4664      	mov	r4, ip
30001734:	cc0f      	ldmia	r4!, {r0, r1, r2, r3}
30001736:	6028      	str	r0, [r5, #0]
30001738:	6069      	str	r1, [r5, #4]
3000173a:	60aa      	str	r2, [r5, #8]
3000173c:	60eb      	str	r3, [r5, #12]
3000173e:	f10c 0c10 	add.w	ip, ip, #16
30001742:	f10e 0e10 	add.w	lr, lr, #16
30001746:	45c4      	cmp	ip, r8
30001748:	d1f2      	bne.n	30001730 <curve__test__ec__common_init.6063+0x218>
3000174a:	6f33      	ldr	r3, [r6, #112]	; 0x70
3000174c:	2b40      	cmp	r3, #64	; 0x40
3000174e:	d003      	beq.n	30001758 <curve__test__ec__common_init.6063+0x240>
30001750:	21f1      	movs	r1, #241	; 0xf1
30001752:	4853      	ldr	r0, [pc, #332]	; (300018a0 <curve__test__ec__common_init.6063+0x388>)
30001754:	f007 fe1c 	bl	30009390 <__gnat_last_chance_handler>
30001758:	6d31      	ldr	r1, [r6, #80]	; 0x50
3000175a:	f8d7 3168 	ldr.w	r3, [r7, #360]	; 0x168
3000175e:	4a5e      	ldr	r2, [pc, #376]	; (300018d8 <curve__test__ec__common_init.6063+0x3c0>)
30001760:	4694      	mov	ip, r2
30001762:	eb03 0e01 	add.w	lr, r3, r1
30001766:	f10c 0840 	add.w	r8, ip, #64	; 0x40
3000176a:	4675      	mov	r5, lr
3000176c:	4664      	mov	r4, ip
3000176e:	cc0f      	ldmia	r4!, {r0, r1, r2, r3}
30001770:	6028      	str	r0, [r5, #0]
30001772:	6069      	str	r1, [r5, #4]
30001774:	60aa      	str	r2, [r5, #8]
30001776:	60eb      	str	r3, [r5, #12]
30001778:	f10c 0c10 	add.w	ip, ip, #16
3000177c:	f10e 0e10 	add.w	lr, lr, #16
30001780:	45c4      	cmp	ip, r8
30001782:	d1f2      	bne.n	3000176a <curve__test__ec__common_init.6063+0x252>
30001784:	6ef3      	ldr	r3, [r6, #108]	; 0x6c
30001786:	2b40      	cmp	r3, #64	; 0x40
30001788:	d003      	beq.n	30001792 <curve__test__ec__common_init.6063+0x27a>
3000178a:	21f3      	movs	r1, #243	; 0xf3
3000178c:	4844      	ldr	r0, [pc, #272]	; (300018a0 <curve__test__ec__common_init.6063+0x388>)
3000178e:	f007 fdff 	bl	30009390 <__gnat_last_chance_handler>
30001792:	6cf1      	ldr	r1, [r6, #76]	; 0x4c
30001794:	f8d7 3168 	ldr.w	r3, [r7, #360]	; 0x168
30001798:	4a50      	ldr	r2, [pc, #320]	; (300018dc <curve__test__ec__common_init.6063+0x3c4>)
3000179a:	4694      	mov	ip, r2
3000179c:	eb03 0e01 	add.w	lr, r3, r1
300017a0:	f10c 0840 	add.w	r8, ip, #64	; 0x40
300017a4:	4675      	mov	r5, lr
300017a6:	4664      	mov	r4, ip
300017a8:	cc0f      	ldmia	r4!, {r0, r1, r2, r3}
300017aa:	6028      	str	r0, [r5, #0]
300017ac:	6069      	str	r1, [r5, #4]
300017ae:	60aa      	str	r2, [r5, #8]
300017b0:	60eb      	str	r3, [r5, #12]
300017b2:	f10c 0c10 	add.w	ip, ip, #16
300017b6:	f10e 0e10 	add.w	lr, lr, #16
300017ba:	45c4      	cmp	ip, r8
300017bc:	d1f2      	bne.n	300017a4 <curve__test__ec__common_init.6063+0x28c>
300017be:	6eb3      	ldr	r3, [r6, #104]	; 0x68
300017c0:	2b40      	cmp	r3, #64	; 0x40
300017c2:	d003      	beq.n	300017cc <curve__test__ec__common_init.6063+0x2b4>
300017c4:	21f5      	movs	r1, #245	; 0xf5
300017c6:	4836      	ldr	r0, [pc, #216]	; (300018a0 <curve__test__ec__common_init.6063+0x388>)
300017c8:	f007 fde2 	bl	30009390 <__gnat_last_chance_handler>
300017cc:	6d71      	ldr	r1, [r6, #84]	; 0x54
300017ce:	f8d7 3168 	ldr.w	r3, [r7, #360]	; 0x168
300017d2:	4a43      	ldr	r2, [pc, #268]	; (300018e0 <curve__test__ec__common_init.6063+0x3c8>)
300017d4:	4694      	mov	ip, r2
300017d6:	eb03 0e01 	add.w	lr, r3, r1
300017da:	f10c 0840 	add.w	r8, ip, #64	; 0x40
300017de:	4675      	mov	r5, lr
300017e0:	4664      	mov	r4, ip
300017e2:	cc0f      	ldmia	r4!, {r0, r1, r2, r3}
300017e4:	6028      	str	r0, [r5, #0]
300017e6:	6069      	str	r1, [r5, #4]
300017e8:	60aa      	str	r2, [r5, #8]
300017ea:	60eb      	str	r3, [r5, #12]
300017ec:	f10c 0c10 	add.w	ip, ip, #16
300017f0:	f10e 0e10 	add.w	lr, lr, #16
300017f4:	45c4      	cmp	ip, r8
300017f6:	d1f2      	bne.n	300017de <curve__test__ec__common_init.6063+0x2c6>
300017f8:	6e73      	ldr	r3, [r6, #100]	; 0x64
300017fa:	2b40      	cmp	r3, #64	; 0x40
300017fc:	d003      	beq.n	30001806 <curve__test__ec__common_init.6063+0x2ee>
300017fe:	21f7      	movs	r1, #247	; 0xf7
30001800:	4827      	ldr	r0, [pc, #156]	; (300018a0 <curve__test__ec__common_init.6063+0x388>)
30001802:	f007 fdc5 	bl	30009390 <__gnat_last_chance_handler>
30001806:	6cb1      	ldr	r1, [r6, #72]	; 0x48
30001808:	f8d7 3168 	ldr.w	r3, [r7, #360]	; 0x168
3000180c:	4a35      	ldr	r2, [pc, #212]	; (300018e4 <curve__test__ec__common_init.6063+0x3cc>)
3000180e:	4694      	mov	ip, r2
30001810:	eb03 0e01 	add.w	lr, r3, r1
30001814:	f10c 0840 	add.w	r8, ip, #64	; 0x40
30001818:	4675      	mov	r5, lr
3000181a:	4664      	mov	r4, ip
3000181c:	cc0f      	ldmia	r4!, {r0, r1, r2, r3}
3000181e:	6028      	str	r0, [r5, #0]
30001820:	6069      	str	r1, [r5, #4]
30001822:	60aa      	str	r2, [r5, #8]
30001824:	60eb      	str	r3, [r5, #12]
30001826:	f10c 0c10 	add.w	ip, ip, #16
3000182a:	f10e 0e10 	add.w	lr, lr, #16
3000182e:	45c4      	cmp	ip, r8
30001830:	d1f2      	bne.n	30001818 <curve__test__ec__common_init.6063+0x300>
30001832:	f001 b8db 	b.w	300029ec <curve__test__ec__common_init.6063+0x14d4>
30001836:	6e32      	ldr	r2, [r6, #96]	; 0x60
30001838:	6df3      	ldr	r3, [r6, #92]	; 0x5c
3000183a:	1ad3      	subs	r3, r2, r3
3000183c:	2b08      	cmp	r3, #8
3000183e:	f040 80cb 	bne.w	300019d8 <curve__test__ec__common_init.6063+0x4c0>
30001842:	6db3      	ldr	r3, [r6, #88]	; 0x58
30001844:	2209      	movs	r2, #9
30001846:	4928      	ldr	r1, [pc, #160]	; (300018e8 <curve__test__ec__common_init.6063+0x3d0>)
30001848:	4618      	mov	r0, r3
3000184a:	f007 ffed 	bl	30009828 <memcmp>
3000184e:	4603      	mov	r3, r0
30001850:	2b00      	cmp	r3, #0
30001852:	f040 80c1 	bne.w	300019d8 <curve__test__ec__common_init.6063+0x4c0>
30001856:	6f73      	ldr	r3, [r6, #116]	; 0x74
30001858:	2b40      	cmp	r3, #64	; 0x40
3000185a:	d003      	beq.n	30001864 <curve__test__ec__common_init.6063+0x34c>
3000185c:	21fa      	movs	r1, #250	; 0xfa
3000185e:	4810      	ldr	r0, [pc, #64]	; (300018a0 <curve__test__ec__common_init.6063+0x388>)
30001860:	f007 fd96 	bl	30009390 <__gnat_last_chance_handler>
30001864:	f8d7 2168 	ldr.w	r2, [r7, #360]	; 0x168
30001868:	4b20      	ldr	r3, [pc, #128]	; (300018ec <curve__test__ec__common_init.6063+0x3d4>)
3000186a:	469c      	mov	ip, r3
3000186c:	4696      	mov	lr, r2
3000186e:	f10c 0840 	add.w	r8, ip, #64	; 0x40
30001872:	4675      	mov	r5, lr
30001874:	4664      	mov	r4, ip
30001876:	cc0f      	ldmia	r4!, {r0, r1, r2, r3}
30001878:	6028      	str	r0, [r5, #0]
3000187a:	6069      	str	r1, [r5, #4]
3000187c:	60aa      	str	r2, [r5, #8]
3000187e:	60eb      	str	r3, [r5, #12]
30001880:	f10c 0c10 	add.w	ip, ip, #16
30001884:	f10e 0e10 	add.w	lr, lr, #16
30001888:	45c4      	cmp	ip, r8
3000188a:	d1f2      	bne.n	30001872 <curve__test__ec__common_init.6063+0x35a>
3000188c:	6f33      	ldr	r3, [r6, #112]	; 0x70
3000188e:	2b40      	cmp	r3, #64	; 0x40
30001890:	d02e      	beq.n	300018f0 <curve__test__ec__common_init.6063+0x3d8>
30001892:	21fc      	movs	r1, #252	; 0xfc
30001894:	4802      	ldr	r0, [pc, #8]	; (300018a0 <curve__test__ec__common_init.6063+0x388>)
30001896:	f007 fd7b 	bl	30009390 <__gnat_last_chance_handler>
3000189a:	bf00      	nop
3000189c:	30009d58 	.word	0x30009d58
300018a0:	30009d08 	.word	0x30009d08
300018a4:	30009e3c 	.word	0x30009e3c
300018a8:	30009ec4 	.word	0x30009ec4
300018ac:	30009f4c 	.word	0x30009f4c
300018b0:	30009fd4 	.word	0x30009fd4
300018b4:	3000a05c 	.word	0x3000a05c
300018b8:	30009d64 	.word	0x30009d64
300018bc:	3000a0e4 	.word	0x3000a0e4
300018c0:	3000a148 	.word	0x3000a148
300018c4:	3000a1ac 	.word	0x3000a1ac
300018c8:	3000a210 	.word	0x3000a210
300018cc:	3000a274 	.word	0x3000a274
300018d0:	30009d70 	.word	0x30009d70
300018d4:	3000a2d8 	.word	0x3000a2d8
300018d8:	3000a31c 	.word	0x3000a31c
300018dc:	3000a360 	.word	0x3000a360
300018e0:	3000a3a4 	.word	0x3000a3a4
300018e4:	3000a3e8 	.word	0x3000a3e8
300018e8:	30009d7c 	.word	0x30009d7c
300018ec:	3000a42c 	.word	0x3000a42c
300018f0:	6d31      	ldr	r1, [r6, #80]	; 0x50
300018f2:	f8d7 3168 	ldr.w	r3, [r7, #360]	; 0x168
300018f6:	4abe      	ldr	r2, [pc, #760]	; (30001bf0 <curve__test__ec__common_init.6063+0x6d8>)
300018f8:	4694      	mov	ip, r2
300018fa:	eb03 0e01 	add.w	lr, r3, r1
300018fe:	f10c 0840 	add.w	r8, ip, #64	; 0x40
30001902:	4675      	mov	r5, lr
30001904:	4664      	mov	r4, ip
30001906:	cc0f      	ldmia	r4!, {r0, r1, r2, r3}
30001908:	6028      	str	r0, [r5, #0]
3000190a:	6069      	str	r1, [r5, #4]
3000190c:	60aa      	str	r2, [r5, #8]
3000190e:	60eb      	str	r3, [r5, #12]
30001910:	f10c 0c10 	add.w	ip, ip, #16
30001914:	f10e 0e10 	add.w	lr, lr, #16
30001918:	45c4      	cmp	ip, r8
3000191a:	d1f2      	bne.n	30001902 <curve__test__ec__common_init.6063+0x3ea>
3000191c:	6ef3      	ldr	r3, [r6, #108]	; 0x6c
3000191e:	2b40      	cmp	r3, #64	; 0x40
30001920:	d003      	beq.n	3000192a <curve__test__ec__common_init.6063+0x412>
30001922:	21fe      	movs	r1, #254	; 0xfe
30001924:	48b3      	ldr	r0, [pc, #716]	; (30001bf4 <curve__test__ec__common_init.6063+0x6dc>)
30001926:	f007 fd33 	bl	30009390 <__gnat_last_chance_handler>
3000192a:	6cf1      	ldr	r1, [r6, #76]	; 0x4c
3000192c:	f8d7 3168 	ldr.w	r3, [r7, #360]	; 0x168
30001930:	4ab1      	ldr	r2, [pc, #708]	; (30001bf8 <curve__test__ec__common_init.6063+0x6e0>)
30001932:	4694      	mov	ip, r2
30001934:	eb03 0e01 	add.w	lr, r3, r1
30001938:	f10c 0840 	add.w	r8, ip, #64	; 0x40
3000193c:	4675      	mov	r5, lr
3000193e:	4664      	mov	r4, ip
30001940:	cc0f      	ldmia	r4!, {r0, r1, r2, r3}
30001942:	6028      	str	r0, [r5, #0]
30001944:	6069      	str	r1, [r5, #4]
30001946:	60aa      	str	r2, [r5, #8]
30001948:	60eb      	str	r3, [r5, #12]
3000194a:	f10c 0c10 	add.w	ip, ip, #16
3000194e:	f10e 0e10 	add.w	lr, lr, #16
30001952:	45c4      	cmp	ip, r8
30001954:	d1f2      	bne.n	3000193c <curve__test__ec__common_init.6063+0x424>
30001956:	6eb3      	ldr	r3, [r6, #104]	; 0x68
30001958:	2b40      	cmp	r3, #64	; 0x40
3000195a:	d004      	beq.n	30001966 <curve__test__ec__common_init.6063+0x44e>
3000195c:	f44f 7180 	mov.w	r1, #256	; 0x100
30001960:	48a4      	ldr	r0, [pc, #656]	; (30001bf4 <curve__test__ec__common_init.6063+0x6dc>)
30001962:	f007 fd15 	bl	30009390 <__gnat_last_chance_handler>
30001966:	6d71      	ldr	r1, [r6, #84]	; 0x54
30001968:	f8d7 3168 	ldr.w	r3, [r7, #360]	; 0x168
3000196c:	4aa3      	ldr	r2, [pc, #652]	; (30001bfc <curve__test__ec__common_init.6063+0x6e4>)
3000196e:	4694      	mov	ip, r2
30001970:	eb03 0e01 	add.w	lr, r3, r1
30001974:	f10c 0840 	add.w	r8, ip, #64	; 0x40
30001978:	4675      	mov	r5, lr
3000197a:	4664      	mov	r4, ip
3000197c:	cc0f      	ldmia	r4!, {r0, r1, r2, r3}
3000197e:	6028      	str	r0, [r5, #0]
30001980:	6069      	str	r1, [r5, #4]
30001982:	60aa      	str	r2, [r5, #8]
30001984:	60eb      	str	r3, [r5, #12]
30001986:	f10c 0c10 	add.w	ip, ip, #16
3000198a:	f10e 0e10 	add.w	lr, lr, #16
3000198e:	45c4      	cmp	ip, r8
30001990:	d1f2      	bne.n	30001978 <curve__test__ec__common_init.6063+0x460>
30001992:	6e73      	ldr	r3, [r6, #100]	; 0x64
30001994:	2b40      	cmp	r3, #64	; 0x40
30001996:	d004      	beq.n	300019a2 <curve__test__ec__common_init.6063+0x48a>
30001998:	f44f 7181 	mov.w	r1, #258	; 0x102
3000199c:	4895      	ldr	r0, [pc, #596]	; (30001bf4 <curve__test__ec__common_init.6063+0x6dc>)
3000199e:	f007 fcf7 	bl	30009390 <__gnat_last_chance_handler>
300019a2:	6cb1      	ldr	r1, [r6, #72]	; 0x48
300019a4:	f8d7 3168 	ldr.w	r3, [r7, #360]	; 0x168
300019a8:	4a95      	ldr	r2, [pc, #596]	; (30001c00 <curve__test__ec__common_init.6063+0x6e8>)
300019aa:	4694      	mov	ip, r2
300019ac:	eb03 0e01 	add.w	lr, r3, r1
300019b0:	f10c 0840 	add.w	r8, ip, #64	; 0x40
300019b4:	4675      	mov	r5, lr
300019b6:	4664      	mov	r4, ip
300019b8:	cc0f      	ldmia	r4!, {r0, r1, r2, r3}
300019ba:	6028      	str	r0, [r5, #0]
300019bc:	6069      	str	r1, [r5, #4]
300019be:	60aa      	str	r2, [r5, #8]
300019c0:	60eb      	str	r3, [r5, #12]
300019c2:	f10c 0c10 	add.w	ip, ip, #16
300019c6:	f10e 0e10 	add.w	lr, lr, #16
300019ca:	45c4      	cmp	ip, r8
300019cc:	d1f2      	bne.n	300019b4 <curve__test__ec__common_init.6063+0x49c>
300019ce:	2300      	movs	r3, #0
300019d0:	f887 316f 	strb.w	r3, [r7, #367]	; 0x16f
300019d4:	f001 b80a 	b.w	300029ec <curve__test__ec__common_init.6063+0x14d4>
300019d8:	6e32      	ldr	r2, [r6, #96]	; 0x60
300019da:	6df3      	ldr	r3, [r6, #92]	; 0x5c
300019dc:	1ad3      	subs	r3, r2, r3
300019de:	2b08      	cmp	r3, #8
300019e0:	f040 8082 	bne.w	30001ae8 <curve__test__ec__common_init.6063+0x5d0>
300019e4:	6db3      	ldr	r3, [r6, #88]	; 0x58
300019e6:	2209      	movs	r2, #9
300019e8:	4986      	ldr	r1, [pc, #536]	; (30001c04 <curve__test__ec__common_init.6063+0x6ec>)
300019ea:	4618      	mov	r0, r3
300019ec:	f007 ff1c 	bl	30009828 <memcmp>
300019f0:	4603      	mov	r3, r0
300019f2:	2b00      	cmp	r3, #0
300019f4:	d178      	bne.n	30001ae8 <curve__test__ec__common_init.6063+0x5d0>
300019f6:	6f73      	ldr	r3, [r6, #116]	; 0x74
300019f8:	2b20      	cmp	r3, #32
300019fa:	d004      	beq.n	30001a06 <curve__test__ec__common_init.6063+0x4ee>
300019fc:	f240 1105 	movw	r1, #261	; 0x105
30001a00:	487c      	ldr	r0, [pc, #496]	; (30001bf4 <curve__test__ec__common_init.6063+0x6dc>)
30001a02:	f007 fcc5 	bl	30009390 <__gnat_last_chance_handler>
30001a06:	f8d7 3168 	ldr.w	r3, [r7, #360]	; 0x168
30001a0a:	4a7f      	ldr	r2, [pc, #508]	; (30001c08 <curve__test__ec__common_init.6063+0x6f0>)
30001a0c:	461c      	mov	r4, r3
30001a0e:	4615      	mov	r5, r2
30001a10:	cd0f      	ldmia	r5!, {r0, r1, r2, r3}
30001a12:	6020      	str	r0, [r4, #0]
30001a14:	6061      	str	r1, [r4, #4]
30001a16:	60a2      	str	r2, [r4, #8]
30001a18:	60e3      	str	r3, [r4, #12]
30001a1a:	cd0f      	ldmia	r5!, {r0, r1, r2, r3}
30001a1c:	6120      	str	r0, [r4, #16]
30001a1e:	6161      	str	r1, [r4, #20]
30001a20:	61a2      	str	r2, [r4, #24]
30001a22:	61e3      	str	r3, [r4, #28]
30001a24:	6f33      	ldr	r3, [r6, #112]	; 0x70
30001a26:	2b20      	cmp	r3, #32
30001a28:	d004      	beq.n	30001a34 <curve__test__ec__common_init.6063+0x51c>
30001a2a:	f44f 7183 	mov.w	r1, #262	; 0x106
30001a2e:	4871      	ldr	r0, [pc, #452]	; (30001bf4 <curve__test__ec__common_init.6063+0x6dc>)
30001a30:	f007 fcae 	bl	30009390 <__gnat_last_chance_handler>
30001a34:	6d32      	ldr	r2, [r6, #80]	; 0x50
30001a36:	f8d7 3168 	ldr.w	r3, [r7, #360]	; 0x168
30001a3a:	4974      	ldr	r1, [pc, #464]	; (30001c0c <curve__test__ec__common_init.6063+0x6f4>)
30001a3c:	189c      	adds	r4, r3, r2
30001a3e:	460d      	mov	r5, r1
30001a40:	cd0f      	ldmia	r5!, {r0, r1, r2, r3}
30001a42:	6020      	str	r0, [r4, #0]
30001a44:	6061      	str	r1, [r4, #4]
30001a46:	60a2      	str	r2, [r4, #8]
30001a48:	60e3      	str	r3, [r4, #12]
30001a4a:	cd0f      	ldmia	r5!, {r0, r1, r2, r3}
30001a4c:	6120      	str	r0, [r4, #16]
30001a4e:	6161      	str	r1, [r4, #20]
30001a50:	61a2      	str	r2, [r4, #24]
30001a52:	61e3      	str	r3, [r4, #28]
30001a54:	6ef3      	ldr	r3, [r6, #108]	; 0x6c
30001a56:	2b20      	cmp	r3, #32
30001a58:	d004      	beq.n	30001a64 <curve__test__ec__common_init.6063+0x54c>
30001a5a:	f240 1107 	movw	r1, #263	; 0x107
30001a5e:	4865      	ldr	r0, [pc, #404]	; (30001bf4 <curve__test__ec__common_init.6063+0x6dc>)
30001a60:	f007 fc96 	bl	30009390 <__gnat_last_chance_handler>
30001a64:	6cf2      	ldr	r2, [r6, #76]	; 0x4c
30001a66:	f8d7 3168 	ldr.w	r3, [r7, #360]	; 0x168
30001a6a:	4969      	ldr	r1, [pc, #420]	; (30001c10 <curve__test__ec__common_init.6063+0x6f8>)
30001a6c:	189c      	adds	r4, r3, r2
30001a6e:	460d      	mov	r5, r1
30001a70:	cd0f      	ldmia	r5!, {r0, r1, r2, r3}
30001a72:	6020      	str	r0, [r4, #0]
30001a74:	6061      	str	r1, [r4, #4]
30001a76:	60a2      	str	r2, [r4, #8]
30001a78:	60e3      	str	r3, [r4, #12]
30001a7a:	cd0f      	ldmia	r5!, {r0, r1, r2, r3}
30001a7c:	6120      	str	r0, [r4, #16]
30001a7e:	6161      	str	r1, [r4, #20]
30001a80:	61a2      	str	r2, [r4, #24]
30001a82:	61e3      	str	r3, [r4, #28]
30001a84:	6eb3      	ldr	r3, [r6, #104]	; 0x68
30001a86:	2b20      	cmp	r3, #32
30001a88:	d004      	beq.n	30001a94 <curve__test__ec__common_init.6063+0x57c>
30001a8a:	f44f 7184 	mov.w	r1, #264	; 0x108
30001a8e:	4859      	ldr	r0, [pc, #356]	; (30001bf4 <curve__test__ec__common_init.6063+0x6dc>)
30001a90:	f007 fc7e 	bl	30009390 <__gnat_last_chance_handler>
30001a94:	6d72      	ldr	r2, [r6, #84]	; 0x54
30001a96:	f8d7 3168 	ldr.w	r3, [r7, #360]	; 0x168
30001a9a:	495e      	ldr	r1, [pc, #376]	; (30001c14 <curve__test__ec__common_init.6063+0x6fc>)
30001a9c:	189c      	adds	r4, r3, r2
30001a9e:	460d      	mov	r5, r1
30001aa0:	cd0f      	ldmia	r5!, {r0, r1, r2, r3}
30001aa2:	6020      	str	r0, [r4, #0]
30001aa4:	6061      	str	r1, [r4, #4]
30001aa6:	60a2      	str	r2, [r4, #8]
30001aa8:	60e3      	str	r3, [r4, #12]
30001aaa:	cd0f      	ldmia	r5!, {r0, r1, r2, r3}
30001aac:	6120      	str	r0, [r4, #16]
30001aae:	6161      	str	r1, [r4, #20]
30001ab0:	61a2      	str	r2, [r4, #24]
30001ab2:	61e3      	str	r3, [r4, #28]
30001ab4:	6e73      	ldr	r3, [r6, #100]	; 0x64
30001ab6:	2b20      	cmp	r3, #32
30001ab8:	d004      	beq.n	30001ac4 <curve__test__ec__common_init.6063+0x5ac>
30001aba:	f240 1109 	movw	r1, #265	; 0x109
30001abe:	484d      	ldr	r0, [pc, #308]	; (30001bf4 <curve__test__ec__common_init.6063+0x6dc>)
30001ac0:	f007 fc66 	bl	30009390 <__gnat_last_chance_handler>
30001ac4:	6cb2      	ldr	r2, [r6, #72]	; 0x48
30001ac6:	f8d7 3168 	ldr.w	r3, [r7, #360]	; 0x168
30001aca:	4953      	ldr	r1, [pc, #332]	; (30001c18 <curve__test__ec__common_init.6063+0x700>)
30001acc:	189c      	adds	r4, r3, r2
30001ace:	460d      	mov	r5, r1
30001ad0:	cd0f      	ldmia	r5!, {r0, r1, r2, r3}
30001ad2:	6020      	str	r0, [r4, #0]
30001ad4:	6061      	str	r1, [r4, #4]
30001ad6:	60a2      	str	r2, [r4, #8]
30001ad8:	60e3      	str	r3, [r4, #12]
30001ada:	cd0f      	ldmia	r5!, {r0, r1, r2, r3}
30001adc:	6120      	str	r0, [r4, #16]
30001ade:	6161      	str	r1, [r4, #20]
30001ae0:	61a2      	str	r2, [r4, #24]
30001ae2:	61e3      	str	r3, [r4, #28]
30001ae4:	f000 bf82 	b.w	300029ec <curve__test__ec__common_init.6063+0x14d4>
30001ae8:	6e32      	ldr	r2, [r6, #96]	; 0x60
30001aea:	6df3      	ldr	r3, [r6, #92]	; 0x5c
30001aec:	1ad3      	subs	r3, r2, r3
30001aee:	2b08      	cmp	r3, #8
30001af0:	f040 80a0 	bne.w	30001c34 <curve__test__ec__common_init.6063+0x71c>
30001af4:	6db3      	ldr	r3, [r6, #88]	; 0x58
30001af6:	2209      	movs	r2, #9
30001af8:	4948      	ldr	r1, [pc, #288]	; (30001c1c <curve__test__ec__common_init.6063+0x704>)
30001afa:	4618      	mov	r0, r3
30001afc:	f007 fe94 	bl	30009828 <memcmp>
30001b00:	4603      	mov	r3, r0
30001b02:	2b00      	cmp	r3, #0
30001b04:	f040 8096 	bne.w	30001c34 <curve__test__ec__common_init.6063+0x71c>
30001b08:	6f73      	ldr	r3, [r6, #116]	; 0x74
30001b0a:	2b1c      	cmp	r3, #28
30001b0c:	d004      	beq.n	30001b18 <curve__test__ec__common_init.6063+0x600>
30001b0e:	f240 110b 	movw	r1, #267	; 0x10b
30001b12:	4838      	ldr	r0, [pc, #224]	; (30001bf4 <curve__test__ec__common_init.6063+0x6dc>)
30001b14:	f007 fc3c 	bl	30009390 <__gnat_last_chance_handler>
30001b18:	f8d7 3168 	ldr.w	r3, [r7, #360]	; 0x168
30001b1c:	4a40      	ldr	r2, [pc, #256]	; (30001c20 <curve__test__ec__common_init.6063+0x708>)
30001b1e:	461c      	mov	r4, r3
30001b20:	4615      	mov	r5, r2
30001b22:	cd0f      	ldmia	r5!, {r0, r1, r2, r3}
30001b24:	6020      	str	r0, [r4, #0]
30001b26:	6061      	str	r1, [r4, #4]
30001b28:	60a2      	str	r2, [r4, #8]
30001b2a:	60e3      	str	r3, [r4, #12]
30001b2c:	cd07      	ldmia	r5!, {r0, r1, r2}
30001b2e:	6120      	str	r0, [r4, #16]
30001b30:	6161      	str	r1, [r4, #20]
30001b32:	61a2      	str	r2, [r4, #24]
30001b34:	6f33      	ldr	r3, [r6, #112]	; 0x70
30001b36:	2b1c      	cmp	r3, #28
30001b38:	d004      	beq.n	30001b44 <curve__test__ec__common_init.6063+0x62c>
30001b3a:	f44f 7186 	mov.w	r1, #268	; 0x10c
30001b3e:	482d      	ldr	r0, [pc, #180]	; (30001bf4 <curve__test__ec__common_init.6063+0x6dc>)
30001b40:	f007 fc26 	bl	30009390 <__gnat_last_chance_handler>
30001b44:	6d32      	ldr	r2, [r6, #80]	; 0x50
30001b46:	f8d7 3168 	ldr.w	r3, [r7, #360]	; 0x168
30001b4a:	4936      	ldr	r1, [pc, #216]	; (30001c24 <curve__test__ec__common_init.6063+0x70c>)
30001b4c:	189c      	adds	r4, r3, r2
30001b4e:	460d      	mov	r5, r1
30001b50:	cd0f      	ldmia	r5!, {r0, r1, r2, r3}
30001b52:	6020      	str	r0, [r4, #0]
30001b54:	6061      	str	r1, [r4, #4]
30001b56:	60a2      	str	r2, [r4, #8]
30001b58:	60e3      	str	r3, [r4, #12]
30001b5a:	cd07      	ldmia	r5!, {r0, r1, r2}
30001b5c:	6120      	str	r0, [r4, #16]
30001b5e:	6161      	str	r1, [r4, #20]
30001b60:	61a2      	str	r2, [r4, #24]
30001b62:	6ef3      	ldr	r3, [r6, #108]	; 0x6c
30001b64:	2b1c      	cmp	r3, #28
30001b66:	d004      	beq.n	30001b72 <curve__test__ec__common_init.6063+0x65a>
30001b68:	f240 110d 	movw	r1, #269	; 0x10d
30001b6c:	4821      	ldr	r0, [pc, #132]	; (30001bf4 <curve__test__ec__common_init.6063+0x6dc>)
30001b6e:	f007 fc0f 	bl	30009390 <__gnat_last_chance_handler>
30001b72:	6cf2      	ldr	r2, [r6, #76]	; 0x4c
30001b74:	f8d7 3168 	ldr.w	r3, [r7, #360]	; 0x168
30001b78:	492b      	ldr	r1, [pc, #172]	; (30001c28 <curve__test__ec__common_init.6063+0x710>)
30001b7a:	189c      	adds	r4, r3, r2
30001b7c:	460d      	mov	r5, r1
30001b7e:	cd0f      	ldmia	r5!, {r0, r1, r2, r3}
30001b80:	6020      	str	r0, [r4, #0]
30001b82:	6061      	str	r1, [r4, #4]
30001b84:	60a2      	str	r2, [r4, #8]
30001b86:	60e3      	str	r3, [r4, #12]
30001b88:	cd07      	ldmia	r5!, {r0, r1, r2}
30001b8a:	6120      	str	r0, [r4, #16]
30001b8c:	6161      	str	r1, [r4, #20]
30001b8e:	61a2      	str	r2, [r4, #24]
30001b90:	6eb3      	ldr	r3, [r6, #104]	; 0x68
30001b92:	2b1c      	cmp	r3, #28
30001b94:	d004      	beq.n	30001ba0 <curve__test__ec__common_init.6063+0x688>
30001b96:	f44f 7187 	mov.w	r1, #270	; 0x10e
30001b9a:	4816      	ldr	r0, [pc, #88]	; (30001bf4 <curve__test__ec__common_init.6063+0x6dc>)
30001b9c:	f007 fbf8 	bl	30009390 <__gnat_last_chance_handler>
30001ba0:	6d72      	ldr	r2, [r6, #84]	; 0x54
30001ba2:	f8d7 3168 	ldr.w	r3, [r7, #360]	; 0x168
30001ba6:	4921      	ldr	r1, [pc, #132]	; (30001c2c <curve__test__ec__common_init.6063+0x714>)
30001ba8:	189c      	adds	r4, r3, r2
30001baa:	460d      	mov	r5, r1
30001bac:	cd0f      	ldmia	r5!, {r0, r1, r2, r3}
30001bae:	6020      	str	r0, [r4, #0]
30001bb0:	6061      	str	r1, [r4, #4]
30001bb2:	60a2      	str	r2, [r4, #8]
30001bb4:	60e3      	str	r3, [r4, #12]
30001bb6:	cd07      	ldmia	r5!, {r0, r1, r2}
30001bb8:	6120      	str	r0, [r4, #16]
30001bba:	6161      	str	r1, [r4, #20]
30001bbc:	61a2      	str	r2, [r4, #24]
30001bbe:	6e73      	ldr	r3, [r6, #100]	; 0x64
30001bc0:	2b1c      	cmp	r3, #28
30001bc2:	d004      	beq.n	30001bce <curve__test__ec__common_init.6063+0x6b6>
30001bc4:	f240 110f 	movw	r1, #271	; 0x10f
30001bc8:	480a      	ldr	r0, [pc, #40]	; (30001bf4 <curve__test__ec__common_init.6063+0x6dc>)
30001bca:	f007 fbe1 	bl	30009390 <__gnat_last_chance_handler>
30001bce:	6cb2      	ldr	r2, [r6, #72]	; 0x48
30001bd0:	f8d7 3168 	ldr.w	r3, [r7, #360]	; 0x168
30001bd4:	4916      	ldr	r1, [pc, #88]	; (30001c30 <curve__test__ec__common_init.6063+0x718>)
30001bd6:	189c      	adds	r4, r3, r2
30001bd8:	460d      	mov	r5, r1
30001bda:	cd0f      	ldmia	r5!, {r0, r1, r2, r3}
30001bdc:	6020      	str	r0, [r4, #0]
30001bde:	6061      	str	r1, [r4, #4]
30001be0:	60a2      	str	r2, [r4, #8]
30001be2:	60e3      	str	r3, [r4, #12]
30001be4:	cd07      	ldmia	r5!, {r0, r1, r2}
30001be6:	6120      	str	r0, [r4, #16]
30001be8:	6161      	str	r1, [r4, #20]
30001bea:	61a2      	str	r2, [r4, #24]
30001bec:	f000 befe 	b.w	300029ec <curve__test__ec__common_init.6063+0x14d4>
30001bf0:	3000a470 	.word	0x3000a470
30001bf4:	30009d08 	.word	0x30009d08
30001bf8:	3000a4b4 	.word	0x3000a4b4
30001bfc:	3000a4f8 	.word	0x3000a4f8
30001c00:	3000a53c 	.word	0x3000a53c
30001c04:	30009d88 	.word	0x30009d88
30001c08:	3000a580 	.word	0x3000a580
30001c0c:	3000a5a4 	.word	0x3000a5a4
30001c10:	3000a5c8 	.word	0x3000a5c8
30001c14:	3000a5ec 	.word	0x3000a5ec
30001c18:	3000a610 	.word	0x3000a610
30001c1c:	30009d94 	.word	0x30009d94
30001c20:	3000a634 	.word	0x3000a634
30001c24:	3000a654 	.word	0x3000a654
30001c28:	3000a674 	.word	0x3000a674
30001c2c:	3000a694 	.word	0x3000a694
30001c30:	3000a6b4 	.word	0x3000a6b4
30001c34:	6e32      	ldr	r2, [r6, #96]	; 0x60
30001c36:	6df3      	ldr	r3, [r6, #92]	; 0x5c
30001c38:	1ad3      	subs	r3, r2, r3
30001c3a:	2b08      	cmp	r3, #8
30001c3c:	d17f      	bne.n	30001d3e <curve__test__ec__common_init.6063+0x826>
30001c3e:	6db3      	ldr	r3, [r6, #88]	; 0x58
30001c40:	2209      	movs	r2, #9
30001c42:	49be      	ldr	r1, [pc, #760]	; (30001f3c <curve__test__ec__common_init.6063+0xa24>)
30001c44:	4618      	mov	r0, r3
30001c46:	f007 fdef 	bl	30009828 <memcmp>
30001c4a:	4603      	mov	r3, r0
30001c4c:	2b00      	cmp	r3, #0
30001c4e:	d176      	bne.n	30001d3e <curve__test__ec__common_init.6063+0x826>
30001c50:	6f73      	ldr	r3, [r6, #116]	; 0x74
30001c52:	2b1c      	cmp	r3, #28
30001c54:	d004      	beq.n	30001c60 <curve__test__ec__common_init.6063+0x748>
30001c56:	f240 1111 	movw	r1, #273	; 0x111
30001c5a:	48b9      	ldr	r0, [pc, #740]	; (30001f40 <curve__test__ec__common_init.6063+0xa28>)
30001c5c:	f007 fb98 	bl	30009390 <__gnat_last_chance_handler>
30001c60:	f8d7 3168 	ldr.w	r3, [r7, #360]	; 0x168
30001c64:	4ab7      	ldr	r2, [pc, #732]	; (30001f44 <curve__test__ec__common_init.6063+0xa2c>)
30001c66:	461c      	mov	r4, r3
30001c68:	4615      	mov	r5, r2
30001c6a:	cd0f      	ldmia	r5!, {r0, r1, r2, r3}
30001c6c:	6020      	str	r0, [r4, #0]
30001c6e:	6061      	str	r1, [r4, #4]
30001c70:	60a2      	str	r2, [r4, #8]
30001c72:	60e3      	str	r3, [r4, #12]
30001c74:	cd07      	ldmia	r5!, {r0, r1, r2}
30001c76:	6120      	str	r0, [r4, #16]
30001c78:	6161      	str	r1, [r4, #20]
30001c7a:	61a2      	str	r2, [r4, #24]
30001c7c:	6f33      	ldr	r3, [r6, #112]	; 0x70
30001c7e:	2b1c      	cmp	r3, #28
30001c80:	d004      	beq.n	30001c8c <curve__test__ec__common_init.6063+0x774>
30001c82:	f44f 7189 	mov.w	r1, #274	; 0x112
30001c86:	48ae      	ldr	r0, [pc, #696]	; (30001f40 <curve__test__ec__common_init.6063+0xa28>)
30001c88:	f007 fb82 	bl	30009390 <__gnat_last_chance_handler>
30001c8c:	6d32      	ldr	r2, [r6, #80]	; 0x50
30001c8e:	f8d7 3168 	ldr.w	r3, [r7, #360]	; 0x168
30001c92:	49ad      	ldr	r1, [pc, #692]	; (30001f48 <curve__test__ec__common_init.6063+0xa30>)
30001c94:	189c      	adds	r4, r3, r2
30001c96:	460d      	mov	r5, r1
30001c98:	cd0f      	ldmia	r5!, {r0, r1, r2, r3}
30001c9a:	6020      	str	r0, [r4, #0]
30001c9c:	6061      	str	r1, [r4, #4]
30001c9e:	60a2      	str	r2, [r4, #8]
30001ca0:	60e3      	str	r3, [r4, #12]
30001ca2:	cd07      	ldmia	r5!, {r0, r1, r2}
30001ca4:	6120      	str	r0, [r4, #16]
30001ca6:	6161      	str	r1, [r4, #20]
30001ca8:	61a2      	str	r2, [r4, #24]
30001caa:	6ef3      	ldr	r3, [r6, #108]	; 0x6c
30001cac:	2b1c      	cmp	r3, #28
30001cae:	d004      	beq.n	30001cba <curve__test__ec__common_init.6063+0x7a2>
30001cb0:	f240 1113 	movw	r1, #275	; 0x113
30001cb4:	48a2      	ldr	r0, [pc, #648]	; (30001f40 <curve__test__ec__common_init.6063+0xa28>)
30001cb6:	f007 fb6b 	bl	30009390 <__gnat_last_chance_handler>
30001cba:	6cf2      	ldr	r2, [r6, #76]	; 0x4c
30001cbc:	f8d7 3168 	ldr.w	r3, [r7, #360]	; 0x168
30001cc0:	49a2      	ldr	r1, [pc, #648]	; (30001f4c <curve__test__ec__common_init.6063+0xa34>)
30001cc2:	189c      	adds	r4, r3, r2
30001cc4:	460d      	mov	r5, r1
30001cc6:	cd0f      	ldmia	r5!, {r0, r1, r2, r3}
30001cc8:	6020      	str	r0, [r4, #0]
30001cca:	6061      	str	r1, [r4, #4]
30001ccc:	60a2      	str	r2, [r4, #8]
30001cce:	60e3      	str	r3, [r4, #12]
30001cd0:	cd07      	ldmia	r5!, {r0, r1, r2}
30001cd2:	6120      	str	r0, [r4, #16]
30001cd4:	6161      	str	r1, [r4, #20]
30001cd6:	61a2      	str	r2, [r4, #24]
30001cd8:	6eb3      	ldr	r3, [r6, #104]	; 0x68
30001cda:	2b1c      	cmp	r3, #28
30001cdc:	d004      	beq.n	30001ce8 <curve__test__ec__common_init.6063+0x7d0>
30001cde:	f44f 718a 	mov.w	r1, #276	; 0x114
30001ce2:	4897      	ldr	r0, [pc, #604]	; (30001f40 <curve__test__ec__common_init.6063+0xa28>)
30001ce4:	f007 fb54 	bl	30009390 <__gnat_last_chance_handler>
30001ce8:	6d72      	ldr	r2, [r6, #84]	; 0x54
30001cea:	f8d7 3168 	ldr.w	r3, [r7, #360]	; 0x168
30001cee:	4998      	ldr	r1, [pc, #608]	; (30001f50 <curve__test__ec__common_init.6063+0xa38>)
30001cf0:	189c      	adds	r4, r3, r2
30001cf2:	460d      	mov	r5, r1
30001cf4:	cd0f      	ldmia	r5!, {r0, r1, r2, r3}
30001cf6:	6020      	str	r0, [r4, #0]
30001cf8:	6061      	str	r1, [r4, #4]
30001cfa:	60a2      	str	r2, [r4, #8]
30001cfc:	60e3      	str	r3, [r4, #12]
30001cfe:	cd07      	ldmia	r5!, {r0, r1, r2}
30001d00:	6120      	str	r0, [r4, #16]
30001d02:	6161      	str	r1, [r4, #20]
30001d04:	61a2      	str	r2, [r4, #24]
30001d06:	6e73      	ldr	r3, [r6, #100]	; 0x64
30001d08:	2b1c      	cmp	r3, #28
30001d0a:	d004      	beq.n	30001d16 <curve__test__ec__common_init.6063+0x7fe>
30001d0c:	f240 1115 	movw	r1, #277	; 0x115
30001d10:	488b      	ldr	r0, [pc, #556]	; (30001f40 <curve__test__ec__common_init.6063+0xa28>)
30001d12:	f007 fb3d 	bl	30009390 <__gnat_last_chance_handler>
30001d16:	6cb2      	ldr	r2, [r6, #72]	; 0x48
30001d18:	f8d7 3168 	ldr.w	r3, [r7, #360]	; 0x168
30001d1c:	498d      	ldr	r1, [pc, #564]	; (30001f54 <curve__test__ec__common_init.6063+0xa3c>)
30001d1e:	189c      	adds	r4, r3, r2
30001d20:	460d      	mov	r5, r1
30001d22:	cd0f      	ldmia	r5!, {r0, r1, r2, r3}
30001d24:	6020      	str	r0, [r4, #0]
30001d26:	6061      	str	r1, [r4, #4]
30001d28:	60a2      	str	r2, [r4, #8]
30001d2a:	60e3      	str	r3, [r4, #12]
30001d2c:	cd07      	ldmia	r5!, {r0, r1, r2}
30001d2e:	6120      	str	r0, [r4, #16]
30001d30:	6161      	str	r1, [r4, #20]
30001d32:	61a2      	str	r2, [r4, #24]
30001d34:	2300      	movs	r3, #0
30001d36:	f887 316f 	strb.w	r3, [r7, #367]	; 0x16f
30001d3a:	f000 be57 	b.w	300029ec <curve__test__ec__common_init.6063+0x14d4>
30001d3e:	6e32      	ldr	r2, [r6, #96]	; 0x60
30001d40:	6df3      	ldr	r3, [r6, #92]	; 0x5c
30001d42:	1ad3      	subs	r3, r2, r3
30001d44:	2b07      	cmp	r3, #7
30001d46:	d15f      	bne.n	30001e08 <curve__test__ec__common_init.6063+0x8f0>
30001d48:	6db3      	ldr	r3, [r6, #88]	; 0x58
30001d4a:	2208      	movs	r2, #8
30001d4c:	4982      	ldr	r1, [pc, #520]	; (30001f58 <curve__test__ec__common_init.6063+0xa40>)
30001d4e:	4618      	mov	r0, r3
30001d50:	f007 fd6a 	bl	30009828 <memcmp>
30001d54:	4603      	mov	r3, r0
30001d56:	2b00      	cmp	r3, #0
30001d58:	d156      	bne.n	30001e08 <curve__test__ec__common_init.6063+0x8f0>
30001d5a:	6f73      	ldr	r3, [r6, #116]	; 0x74
30001d5c:	2b84      	cmp	r3, #132	; 0x84
30001d5e:	d004      	beq.n	30001d6a <curve__test__ec__common_init.6063+0x852>
30001d60:	f44f 718e 	mov.w	r1, #284	; 0x11c
30001d64:	4876      	ldr	r0, [pc, #472]	; (30001f40 <curve__test__ec__common_init.6063+0xa28>)
30001d66:	f007 fb13 	bl	30009390 <__gnat_last_chance_handler>
30001d6a:	f8d7 3168 	ldr.w	r3, [r7, #360]	; 0x168
30001d6e:	4a7b      	ldr	r2, [pc, #492]	; (30001f5c <curve__test__ec__common_init.6063+0xa44>)
30001d70:	4618      	mov	r0, r3
30001d72:	4611      	mov	r1, r2
30001d74:	2384      	movs	r3, #132	; 0x84
30001d76:	461a      	mov	r2, r3
30001d78:	f007 fd88 	bl	3000988c <memcpy>
30001d7c:	6f33      	ldr	r3, [r6, #112]	; 0x70
30001d7e:	2b84      	cmp	r3, #132	; 0x84
30001d80:	d004      	beq.n	30001d8c <curve__test__ec__common_init.6063+0x874>
30001d82:	f240 1121 	movw	r1, #289	; 0x121
30001d86:	486e      	ldr	r0, [pc, #440]	; (30001f40 <curve__test__ec__common_init.6063+0xa28>)
30001d88:	f007 fb02 	bl	30009390 <__gnat_last_chance_handler>
30001d8c:	6d32      	ldr	r2, [r6, #80]	; 0x50
30001d8e:	f8d7 3168 	ldr.w	r3, [r7, #360]	; 0x168
30001d92:	4973      	ldr	r1, [pc, #460]	; (30001f60 <curve__test__ec__common_init.6063+0xa48>)
30001d94:	1898      	adds	r0, r3, r2
30001d96:	2384      	movs	r3, #132	; 0x84
30001d98:	461a      	mov	r2, r3
30001d9a:	f007 fd77 	bl	3000988c <memcpy>
30001d9e:	6ef3      	ldr	r3, [r6, #108]	; 0x6c
30001da0:	2b84      	cmp	r3, #132	; 0x84
30001da2:	d004      	beq.n	30001dae <curve__test__ec__common_init.6063+0x896>
30001da4:	f44f 7193 	mov.w	r1, #294	; 0x126
30001da8:	4865      	ldr	r0, [pc, #404]	; (30001f40 <curve__test__ec__common_init.6063+0xa28>)
30001daa:	f007 faf1 	bl	30009390 <__gnat_last_chance_handler>
30001dae:	6cf2      	ldr	r2, [r6, #76]	; 0x4c
30001db0:	f8d7 3168 	ldr.w	r3, [r7, #360]	; 0x168
30001db4:	496b      	ldr	r1, [pc, #428]	; (30001f64 <curve__test__ec__common_init.6063+0xa4c>)
30001db6:	1898      	adds	r0, r3, r2
30001db8:	2384      	movs	r3, #132	; 0x84
30001dba:	461a      	mov	r2, r3
30001dbc:	f007 fd66 	bl	3000988c <memcpy>
30001dc0:	6eb3      	ldr	r3, [r6, #104]	; 0x68
30001dc2:	2b84      	cmp	r3, #132	; 0x84
30001dc4:	d004      	beq.n	30001dd0 <curve__test__ec__common_init.6063+0x8b8>
30001dc6:	f240 112b 	movw	r1, #299	; 0x12b
30001dca:	485d      	ldr	r0, [pc, #372]	; (30001f40 <curve__test__ec__common_init.6063+0xa28>)
30001dcc:	f007 fae0 	bl	30009390 <__gnat_last_chance_handler>
30001dd0:	6d72      	ldr	r2, [r6, #84]	; 0x54
30001dd2:	f8d7 3168 	ldr.w	r3, [r7, #360]	; 0x168
30001dd6:	4964      	ldr	r1, [pc, #400]	; (30001f68 <curve__test__ec__common_init.6063+0xa50>)
30001dd8:	1898      	adds	r0, r3, r2
30001dda:	2384      	movs	r3, #132	; 0x84
30001ddc:	461a      	mov	r2, r3
30001dde:	f007 fd55 	bl	3000988c <memcpy>
30001de2:	6e73      	ldr	r3, [r6, #100]	; 0x64
30001de4:	2b84      	cmp	r3, #132	; 0x84
30001de6:	d004      	beq.n	30001df2 <curve__test__ec__common_init.6063+0x8da>
30001de8:	f44f 7198 	mov.w	r1, #304	; 0x130
30001dec:	4854      	ldr	r0, [pc, #336]	; (30001f40 <curve__test__ec__common_init.6063+0xa28>)
30001dee:	f007 facf 	bl	30009390 <__gnat_last_chance_handler>
30001df2:	6cb2      	ldr	r2, [r6, #72]	; 0x48
30001df4:	f8d7 3168 	ldr.w	r3, [r7, #360]	; 0x168
30001df8:	495c      	ldr	r1, [pc, #368]	; (30001f6c <curve__test__ec__common_init.6063+0xa54>)
30001dfa:	1898      	adds	r0, r3, r2
30001dfc:	2384      	movs	r3, #132	; 0x84
30001dfe:	461a      	mov	r2, r3
30001e00:	f007 fd44 	bl	3000988c <memcpy>
30001e04:	f000 bdf2 	b.w	300029ec <curve__test__ec__common_init.6063+0x14d4>
30001e08:	6e32      	ldr	r2, [r6, #96]	; 0x60
30001e0a:	6df3      	ldr	r3, [r6, #92]	; 0x5c
30001e0c:	1ad3      	subs	r3, r2, r3
30001e0e:	2b07      	cmp	r3, #7
30001e10:	d15f      	bne.n	30001ed2 <curve__test__ec__common_init.6063+0x9ba>
30001e12:	6db3      	ldr	r3, [r6, #88]	; 0x58
30001e14:	2208      	movs	r2, #8
30001e16:	4956      	ldr	r1, [pc, #344]	; (30001f70 <curve__test__ec__common_init.6063+0xa58>)
30001e18:	4618      	mov	r0, r3
30001e1a:	f007 fd05 	bl	30009828 <memcmp>
30001e1e:	4603      	mov	r3, r0
30001e20:	2b00      	cmp	r3, #0
30001e22:	d156      	bne.n	30001ed2 <curve__test__ec__common_init.6063+0x9ba>
30001e24:	6f73      	ldr	r3, [r6, #116]	; 0x74
30001e26:	2b60      	cmp	r3, #96	; 0x60
30001e28:	d004      	beq.n	30001e34 <curve__test__ec__common_init.6063+0x91c>
30001e2a:	f240 1135 	movw	r1, #309	; 0x135
30001e2e:	4844      	ldr	r0, [pc, #272]	; (30001f40 <curve__test__ec__common_init.6063+0xa28>)
30001e30:	f007 faae 	bl	30009390 <__gnat_last_chance_handler>
30001e34:	f8d7 3168 	ldr.w	r3, [r7, #360]	; 0x168
30001e38:	4a4e      	ldr	r2, [pc, #312]	; (30001f74 <curve__test__ec__common_init.6063+0xa5c>)
30001e3a:	4618      	mov	r0, r3
30001e3c:	4611      	mov	r1, r2
30001e3e:	2360      	movs	r3, #96	; 0x60
30001e40:	461a      	mov	r2, r3
30001e42:	f007 fd23 	bl	3000988c <memcpy>
30001e46:	6f33      	ldr	r3, [r6, #112]	; 0x70
30001e48:	2b60      	cmp	r3, #96	; 0x60
30001e4a:	d004      	beq.n	30001e56 <curve__test__ec__common_init.6063+0x93e>
30001e4c:	f240 1139 	movw	r1, #313	; 0x139
30001e50:	483b      	ldr	r0, [pc, #236]	; (30001f40 <curve__test__ec__common_init.6063+0xa28>)
30001e52:	f007 fa9d 	bl	30009390 <__gnat_last_chance_handler>
30001e56:	6d32      	ldr	r2, [r6, #80]	; 0x50
30001e58:	f8d7 3168 	ldr.w	r3, [r7, #360]	; 0x168
30001e5c:	4946      	ldr	r1, [pc, #280]	; (30001f78 <curve__test__ec__common_init.6063+0xa60>)
30001e5e:	1898      	adds	r0, r3, r2
30001e60:	2360      	movs	r3, #96	; 0x60
30001e62:	461a      	mov	r2, r3
30001e64:	f007 fd12 	bl	3000988c <memcpy>
30001e68:	6ef3      	ldr	r3, [r6, #108]	; 0x6c
30001e6a:	2b60      	cmp	r3, #96	; 0x60
30001e6c:	d004      	beq.n	30001e78 <curve__test__ec__common_init.6063+0x960>
30001e6e:	f240 113d 	movw	r1, #317	; 0x13d
30001e72:	4833      	ldr	r0, [pc, #204]	; (30001f40 <curve__test__ec__common_init.6063+0xa28>)
30001e74:	f007 fa8c 	bl	30009390 <__gnat_last_chance_handler>
30001e78:	6cf2      	ldr	r2, [r6, #76]	; 0x4c
30001e7a:	f8d7 3168 	ldr.w	r3, [r7, #360]	; 0x168
30001e7e:	493f      	ldr	r1, [pc, #252]	; (30001f7c <curve__test__ec__common_init.6063+0xa64>)
30001e80:	1898      	adds	r0, r3, r2
30001e82:	2360      	movs	r3, #96	; 0x60
30001e84:	461a      	mov	r2, r3
30001e86:	f007 fd01 	bl	3000988c <memcpy>
30001e8a:	6eb3      	ldr	r3, [r6, #104]	; 0x68
30001e8c:	2b60      	cmp	r3, #96	; 0x60
30001e8e:	d004      	beq.n	30001e9a <curve__test__ec__common_init.6063+0x982>
30001e90:	f240 1141 	movw	r1, #321	; 0x141
30001e94:	482a      	ldr	r0, [pc, #168]	; (30001f40 <curve__test__ec__common_init.6063+0xa28>)
30001e96:	f007 fa7b 	bl	30009390 <__gnat_last_chance_handler>
30001e9a:	6d72      	ldr	r2, [r6, #84]	; 0x54
30001e9c:	f8d7 3168 	ldr.w	r3, [r7, #360]	; 0x168
30001ea0:	4937      	ldr	r1, [pc, #220]	; (30001f80 <curve__test__ec__common_init.6063+0xa68>)
30001ea2:	1898      	adds	r0, r3, r2
30001ea4:	2360      	movs	r3, #96	; 0x60
30001ea6:	461a      	mov	r2, r3
30001ea8:	f007 fcf0 	bl	3000988c <memcpy>
30001eac:	6e73      	ldr	r3, [r6, #100]	; 0x64
30001eae:	2b60      	cmp	r3, #96	; 0x60
30001eb0:	d004      	beq.n	30001ebc <curve__test__ec__common_init.6063+0x9a4>
30001eb2:	f240 1145 	movw	r1, #325	; 0x145
30001eb6:	4822      	ldr	r0, [pc, #136]	; (30001f40 <curve__test__ec__common_init.6063+0xa28>)
30001eb8:	f007 fa6a 	bl	30009390 <__gnat_last_chance_handler>
30001ebc:	6cb2      	ldr	r2, [r6, #72]	; 0x48
30001ebe:	f8d7 3168 	ldr.w	r3, [r7, #360]	; 0x168
30001ec2:	4930      	ldr	r1, [pc, #192]	; (30001f84 <curve__test__ec__common_init.6063+0xa6c>)
30001ec4:	1898      	adds	r0, r3, r2
30001ec6:	2360      	movs	r3, #96	; 0x60
30001ec8:	461a      	mov	r2, r3
30001eca:	f007 fcdf 	bl	3000988c <memcpy>
30001ece:	f000 bd8d 	b.w	300029ec <curve__test__ec__common_init.6063+0x14d4>
30001ed2:	6e32      	ldr	r2, [r6, #96]	; 0x60
30001ed4:	6df3      	ldr	r3, [r6, #92]	; 0x5c
30001ed6:	1ad3      	subs	r3, r2, r3
30001ed8:	2b07      	cmp	r3, #7
30001eda:	f040 80cb 	bne.w	30002074 <curve__test__ec__common_init.6063+0xb5c>
30001ede:	6db3      	ldr	r3, [r6, #88]	; 0x58
30001ee0:	2208      	movs	r2, #8
30001ee2:	4929      	ldr	r1, [pc, #164]	; (30001f88 <curve__test__ec__common_init.6063+0xa70>)
30001ee4:	4618      	mov	r0, r3
30001ee6:	f007 fc9f 	bl	30009828 <memcmp>
30001eea:	4603      	mov	r3, r0
30001eec:	2b00      	cmp	r3, #0
30001eee:	f040 80c1 	bne.w	30002074 <curve__test__ec__common_init.6063+0xb5c>
30001ef2:	6f73      	ldr	r3, [r6, #116]	; 0x74
30001ef4:	2b40      	cmp	r3, #64	; 0x40
30001ef6:	d004      	beq.n	30001f02 <curve__test__ec__common_init.6063+0x9ea>
30001ef8:	f240 1147 	movw	r1, #327	; 0x147
30001efc:	4810      	ldr	r0, [pc, #64]	; (30001f40 <curve__test__ec__common_init.6063+0xa28>)
30001efe:	f007 fa47 	bl	30009390 <__gnat_last_chance_handler>
30001f02:	f8d7 2168 	ldr.w	r2, [r7, #360]	; 0x168
30001f06:	4b21      	ldr	r3, [pc, #132]	; (30001f8c <curve__test__ec__common_init.6063+0xa74>)
30001f08:	469c      	mov	ip, r3
30001f0a:	4696      	mov	lr, r2
30001f0c:	f10c 0840 	add.w	r8, ip, #64	; 0x40
30001f10:	4675      	mov	r5, lr
30001f12:	4664      	mov	r4, ip
30001f14:	cc0f      	ldmia	r4!, {r0, r1, r2, r3}
30001f16:	6028      	str	r0, [r5, #0]
30001f18:	6069      	str	r1, [r5, #4]
30001f1a:	60aa      	str	r2, [r5, #8]
30001f1c:	60eb      	str	r3, [r5, #12]
30001f1e:	f10c 0c10 	add.w	ip, ip, #16
30001f22:	f10e 0e10 	add.w	lr, lr, #16
30001f26:	45c4      	cmp	ip, r8
30001f28:	d1f2      	bne.n	30001f10 <curve__test__ec__common_init.6063+0x9f8>
30001f2a:	6f33      	ldr	r3, [r6, #112]	; 0x70
30001f2c:	2b40      	cmp	r3, #64	; 0x40
30001f2e:	d02f      	beq.n	30001f90 <curve__test__ec__common_init.6063+0xa78>
30001f30:	f44f 71a4 	mov.w	r1, #328	; 0x148
30001f34:	4802      	ldr	r0, [pc, #8]	; (30001f40 <curve__test__ec__common_init.6063+0xa28>)
30001f36:	f007 fa2b 	bl	30009390 <__gnat_last_chance_handler>
30001f3a:	bf00      	nop
30001f3c:	30009da0 	.word	0x30009da0
30001f40:	30009d08 	.word	0x30009d08
30001f44:	3000a634 	.word	0x3000a634
30001f48:	3000a6d4 	.word	0x3000a6d4
30001f4c:	3000a6f4 	.word	0x3000a6f4
30001f50:	3000a714 	.word	0x3000a714
30001f54:	3000a734 	.word	0x3000a734
30001f58:	30009dac 	.word	0x30009dac
30001f5c:	3000a754 	.word	0x3000a754
30001f60:	3000a7dc 	.word	0x3000a7dc
30001f64:	3000a864 	.word	0x3000a864
30001f68:	3000a8ec 	.word	0x3000a8ec
30001f6c:	3000a974 	.word	0x3000a974
30001f70:	30009db8 	.word	0x30009db8
30001f74:	3000a9fc 	.word	0x3000a9fc
30001f78:	3000aa60 	.word	0x3000aa60
30001f7c:	3000aac4 	.word	0x3000aac4
30001f80:	3000ab28 	.word	0x3000ab28
30001f84:	3000ab8c 	.word	0x3000ab8c
30001f88:	30009dc4 	.word	0x30009dc4
30001f8c:	3000abf0 	.word	0x3000abf0
30001f90:	6d31      	ldr	r1, [r6, #80]	; 0x50
30001f92:	f8d7 3168 	ldr.w	r3, [r7, #360]	; 0x168
30001f96:	4ace      	ldr	r2, [pc, #824]	; (300022d0 <curve__test__ec__common_init.6063+0xdb8>)
30001f98:	4694      	mov	ip, r2
30001f9a:	eb03 0e01 	add.w	lr, r3, r1
30001f9e:	f10c 0840 	add.w	r8, ip, #64	; 0x40
30001fa2:	4675      	mov	r5, lr
30001fa4:	4664      	mov	r4, ip
30001fa6:	cc0f      	ldmia	r4!, {r0, r1, r2, r3}
30001fa8:	6028      	str	r0, [r5, #0]
30001faa:	6069      	str	r1, [r5, #4]
30001fac:	60aa      	str	r2, [r5, #8]
30001fae:	60eb      	str	r3, [r5, #12]
30001fb0:	f10c 0c10 	add.w	ip, ip, #16
30001fb4:	f10e 0e10 	add.w	lr, lr, #16
30001fb8:	45c4      	cmp	ip, r8
30001fba:	d1f2      	bne.n	30001fa2 <curve__test__ec__common_init.6063+0xa8a>
30001fbc:	6ef3      	ldr	r3, [r6, #108]	; 0x6c
30001fbe:	2b40      	cmp	r3, #64	; 0x40
30001fc0:	d004      	beq.n	30001fcc <curve__test__ec__common_init.6063+0xab4>
30001fc2:	f240 1149 	movw	r1, #329	; 0x149
30001fc6:	48c3      	ldr	r0, [pc, #780]	; (300022d4 <curve__test__ec__common_init.6063+0xdbc>)
30001fc8:	f007 f9e2 	bl	30009390 <__gnat_last_chance_handler>
30001fcc:	6cf1      	ldr	r1, [r6, #76]	; 0x4c
30001fce:	f8d7 3168 	ldr.w	r3, [r7, #360]	; 0x168
30001fd2:	4ac1      	ldr	r2, [pc, #772]	; (300022d8 <curve__test__ec__common_init.6063+0xdc0>)
30001fd4:	4694      	mov	ip, r2
30001fd6:	eb03 0e01 	add.w	lr, r3, r1
30001fda:	f10c 0840 	add.w	r8, ip, #64	; 0x40
30001fde:	4675      	mov	r5, lr
30001fe0:	4664      	mov	r4, ip
30001fe2:	cc0f      	ldmia	r4!, {r0, r1, r2, r3}
30001fe4:	6028      	str	r0, [r5, #0]
30001fe6:	6069      	str	r1, [r5, #4]
30001fe8:	60aa      	str	r2, [r5, #8]
30001fea:	60eb      	str	r3, [r5, #12]
30001fec:	f10c 0c10 	add.w	ip, ip, #16
30001ff0:	f10e 0e10 	add.w	lr, lr, #16
30001ff4:	45c4      	cmp	ip, r8
30001ff6:	d1f2      	bne.n	30001fde <curve__test__ec__common_init.6063+0xac6>
30001ff8:	6eb3      	ldr	r3, [r6, #104]	; 0x68
30001ffa:	2b40      	cmp	r3, #64	; 0x40
30001ffc:	d004      	beq.n	30002008 <curve__test__ec__common_init.6063+0xaf0>
30001ffe:	f44f 71a5 	mov.w	r1, #330	; 0x14a
30002002:	48b4      	ldr	r0, [pc, #720]	; (300022d4 <curve__test__ec__common_init.6063+0xdbc>)
30002004:	f007 f9c4 	bl	30009390 <__gnat_last_chance_handler>
30002008:	6d71      	ldr	r1, [r6, #84]	; 0x54
3000200a:	f8d7 3168 	ldr.w	r3, [r7, #360]	; 0x168
3000200e:	4ab3      	ldr	r2, [pc, #716]	; (300022dc <curve__test__ec__common_init.6063+0xdc4>)
30002010:	4694      	mov	ip, r2
30002012:	eb03 0e01 	add.w	lr, r3, r1
30002016:	f10c 0840 	add.w	r8, ip, #64	; 0x40
3000201a:	4675      	mov	r5, lr
3000201c:	4664      	mov	r4, ip
3000201e:	cc0f      	ldmia	r4!, {r0, r1, r2, r3}
30002020:	6028      	str	r0, [r5, #0]
30002022:	6069      	str	r1, [r5, #4]
30002024:	60aa      	str	r2, [r5, #8]
30002026:	60eb      	str	r3, [r5, #12]
30002028:	f10c 0c10 	add.w	ip, ip, #16
3000202c:	f10e 0e10 	add.w	lr, lr, #16
30002030:	45c4      	cmp	ip, r8
30002032:	d1f2      	bne.n	3000201a <curve__test__ec__common_init.6063+0xb02>
30002034:	6e73      	ldr	r3, [r6, #100]	; 0x64
30002036:	2b40      	cmp	r3, #64	; 0x40
30002038:	d004      	beq.n	30002044 <curve__test__ec__common_init.6063+0xb2c>
3000203a:	f240 114b 	movw	r1, #331	; 0x14b
3000203e:	48a5      	ldr	r0, [pc, #660]	; (300022d4 <curve__test__ec__common_init.6063+0xdbc>)
30002040:	f007 f9a6 	bl	30009390 <__gnat_last_chance_handler>
30002044:	6cb1      	ldr	r1, [r6, #72]	; 0x48
30002046:	f8d7 3168 	ldr.w	r3, [r7, #360]	; 0x168
3000204a:	4aa5      	ldr	r2, [pc, #660]	; (300022e0 <curve__test__ec__common_init.6063+0xdc8>)
3000204c:	4694      	mov	ip, r2
3000204e:	eb03 0e01 	add.w	lr, r3, r1
30002052:	f10c 0840 	add.w	r8, ip, #64	; 0x40
30002056:	4675      	mov	r5, lr
30002058:	4664      	mov	r4, ip
3000205a:	cc0f      	ldmia	r4!, {r0, r1, r2, r3}
3000205c:	6028      	str	r0, [r5, #0]
3000205e:	6069      	str	r1, [r5, #4]
30002060:	60aa      	str	r2, [r5, #8]
30002062:	60eb      	str	r3, [r5, #12]
30002064:	f10c 0c10 	add.w	ip, ip, #16
30002068:	f10e 0e10 	add.w	lr, lr, #16
3000206c:	45c4      	cmp	ip, r8
3000206e:	d1f2      	bne.n	30002056 <curve__test__ec__common_init.6063+0xb3e>
30002070:	f000 bcbc 	b.w	300029ec <curve__test__ec__common_init.6063+0x14d4>
30002074:	6e32      	ldr	r2, [r6, #96]	; 0x60
30002076:	6df3      	ldr	r3, [r6, #92]	; 0x5c
30002078:	1ad3      	subs	r3, r2, r3
3000207a:	2b07      	cmp	r3, #7
3000207c:	f040 80b8 	bne.w	300021f0 <curve__test__ec__common_init.6063+0xcd8>
30002080:	6db3      	ldr	r3, [r6, #88]	; 0x58
30002082:	2208      	movs	r2, #8
30002084:	4997      	ldr	r1, [pc, #604]	; (300022e4 <curve__test__ec__common_init.6063+0xdcc>)
30002086:	4618      	mov	r0, r3
30002088:	f007 fbce 	bl	30009828 <memcmp>
3000208c:	4603      	mov	r3, r0
3000208e:	2b00      	cmp	r3, #0
30002090:	f040 80ae 	bne.w	300021f0 <curve__test__ec__common_init.6063+0xcd8>
30002094:	6f73      	ldr	r3, [r6, #116]	; 0x74
30002096:	2b38      	cmp	r3, #56	; 0x38
30002098:	d004      	beq.n	300020a4 <curve__test__ec__common_init.6063+0xb8c>
3000209a:	f240 114d 	movw	r1, #333	; 0x14d
3000209e:	488d      	ldr	r0, [pc, #564]	; (300022d4 <curve__test__ec__common_init.6063+0xdbc>)
300020a0:	f007 f976 	bl	30009390 <__gnat_last_chance_handler>
300020a4:	f8d7 2168 	ldr.w	r2, [r7, #360]	; 0x168
300020a8:	4b8f      	ldr	r3, [pc, #572]	; (300022e8 <curve__test__ec__common_init.6063+0xdd0>)
300020aa:	469c      	mov	ip, r3
300020ac:	4696      	mov	lr, r2
300020ae:	f10c 0830 	add.w	r8, ip, #48	; 0x30
300020b2:	4675      	mov	r5, lr
300020b4:	4664      	mov	r4, ip
300020b6:	cc0f      	ldmia	r4!, {r0, r1, r2, r3}
300020b8:	6028      	str	r0, [r5, #0]
300020ba:	6069      	str	r1, [r5, #4]
300020bc:	60aa      	str	r2, [r5, #8]
300020be:	60eb      	str	r3, [r5, #12]
300020c0:	f10c 0c10 	add.w	ip, ip, #16
300020c4:	f10e 0e10 	add.w	lr, lr, #16
300020c8:	45c4      	cmp	ip, r8
300020ca:	d1f2      	bne.n	300020b2 <curve__test__ec__common_init.6063+0xb9a>
300020cc:	4672      	mov	r2, lr
300020ce:	4663      	mov	r3, ip
300020d0:	cb03      	ldmia	r3!, {r0, r1}
300020d2:	6010      	str	r0, [r2, #0]
300020d4:	6051      	str	r1, [r2, #4]
300020d6:	6f33      	ldr	r3, [r6, #112]	; 0x70
300020d8:	2b38      	cmp	r3, #56	; 0x38
300020da:	d004      	beq.n	300020e6 <curve__test__ec__common_init.6063+0xbce>
300020dc:	f44f 71a7 	mov.w	r1, #334	; 0x14e
300020e0:	487c      	ldr	r0, [pc, #496]	; (300022d4 <curve__test__ec__common_init.6063+0xdbc>)
300020e2:	f007 f955 	bl	30009390 <__gnat_last_chance_handler>
300020e6:	6d31      	ldr	r1, [r6, #80]	; 0x50
300020e8:	f8d7 3168 	ldr.w	r3, [r7, #360]	; 0x168
300020ec:	4a7f      	ldr	r2, [pc, #508]	; (300022ec <curve__test__ec__common_init.6063+0xdd4>)
300020ee:	4694      	mov	ip, r2
300020f0:	eb03 0e01 	add.w	lr, r3, r1
300020f4:	f10c 0830 	add.w	r8, ip, #48	; 0x30
300020f8:	4675      	mov	r5, lr
300020fa:	4664      	mov	r4, ip
300020fc:	cc0f      	ldmia	r4!, {r0, r1, r2, r3}
300020fe:	6028      	str	r0, [r5, #0]
30002100:	6069      	str	r1, [r5, #4]
30002102:	60aa      	str	r2, [r5, #8]
30002104:	60eb      	str	r3, [r5, #12]
30002106:	f10c 0c10 	add.w	ip, ip, #16
3000210a:	f10e 0e10 	add.w	lr, lr, #16
3000210e:	45c4      	cmp	ip, r8
30002110:	d1f2      	bne.n	300020f8 <curve__test__ec__common_init.6063+0xbe0>
30002112:	4672      	mov	r2, lr
30002114:	4663      	mov	r3, ip
30002116:	cb03      	ldmia	r3!, {r0, r1}
30002118:	6010      	str	r0, [r2, #0]
3000211a:	6051      	str	r1, [r2, #4]
3000211c:	6ef3      	ldr	r3, [r6, #108]	; 0x6c
3000211e:	2b38      	cmp	r3, #56	; 0x38
30002120:	d004      	beq.n	3000212c <curve__test__ec__common_init.6063+0xc14>
30002122:	f240 114f 	movw	r1, #335	; 0x14f
30002126:	486b      	ldr	r0, [pc, #428]	; (300022d4 <curve__test__ec__common_init.6063+0xdbc>)
30002128:	f007 f932 	bl	30009390 <__gnat_last_chance_handler>
3000212c:	6cf1      	ldr	r1, [r6, #76]	; 0x4c
3000212e:	f8d7 3168 	ldr.w	r3, [r7, #360]	; 0x168
30002132:	4a6f      	ldr	r2, [pc, #444]	; (300022f0 <curve__test__ec__common_init.6063+0xdd8>)
30002134:	4694      	mov	ip, r2
30002136:	eb03 0e01 	add.w	lr, r3, r1
3000213a:	f10c 0830 	add.w	r8, ip, #48	; 0x30
3000213e:	4675      	mov	r5, lr
30002140:	4664      	mov	r4, ip
30002142:	cc0f      	ldmia	r4!, {r0, r1, r2, r3}
30002144:	6028      	str	r0, [r5, #0]
30002146:	6069      	str	r1, [r5, #4]
30002148:	60aa      	str	r2, [r5, #8]
3000214a:	60eb      	str	r3, [r5, #12]
3000214c:	f10c 0c10 	add.w	ip, ip, #16
30002150:	f10e 0e10 	add.w	lr, lr, #16
30002154:	45c4      	cmp	ip, r8
30002156:	d1f2      	bne.n	3000213e <curve__test__ec__common_init.6063+0xc26>
30002158:	4672      	mov	r2, lr
3000215a:	4663      	mov	r3, ip
3000215c:	cb03      	ldmia	r3!, {r0, r1}
3000215e:	6010      	str	r0, [r2, #0]
30002160:	6051      	str	r1, [r2, #4]
30002162:	6eb3      	ldr	r3, [r6, #104]	; 0x68
30002164:	2b38      	cmp	r3, #56	; 0x38
30002166:	d004      	beq.n	30002172 <curve__test__ec__common_init.6063+0xc5a>
30002168:	f44f 71a8 	mov.w	r1, #336	; 0x150
3000216c:	4859      	ldr	r0, [pc, #356]	; (300022d4 <curve__test__ec__common_init.6063+0xdbc>)
3000216e:	f007 f90f 	bl	30009390 <__gnat_last_chance_handler>
30002172:	6d71      	ldr	r1, [r6, #84]	; 0x54
30002174:	f8d7 3168 	ldr.w	r3, [r7, #360]	; 0x168
30002178:	4a5e      	ldr	r2, [pc, #376]	; (300022f4 <curve__test__ec__common_init.6063+0xddc>)
3000217a:	4694      	mov	ip, r2
3000217c:	eb03 0e01 	add.w	lr, r3, r1
30002180:	f10c 0830 	add.w	r8, ip, #48	; 0x30
30002184:	4675      	mov	r5, lr
30002186:	4664      	mov	r4, ip
30002188:	cc0f      	ldmia	r4!, {r0, r1, r2, r3}
3000218a:	6028      	str	r0, [r5, #0]
3000218c:	6069      	str	r1, [r5, #4]
3000218e:	60aa      	str	r2, [r5, #8]
30002190:	60eb      	str	r3, [r5, #12]
30002192:	f10c 0c10 	add.w	ip, ip, #16
30002196:	f10e 0e10 	add.w	lr, lr, #16
3000219a:	45c4      	cmp	ip, r8
3000219c:	d1f2      	bne.n	30002184 <curve__test__ec__common_init.6063+0xc6c>
3000219e:	4672      	mov	r2, lr
300021a0:	4663      	mov	r3, ip
300021a2:	cb03      	ldmia	r3!, {r0, r1}
300021a4:	6010      	str	r0, [r2, #0]
300021a6:	6051      	str	r1, [r2, #4]
300021a8:	6e73      	ldr	r3, [r6, #100]	; 0x64
300021aa:	2b38      	cmp	r3, #56	; 0x38
300021ac:	d004      	beq.n	300021b8 <curve__test__ec__common_init.6063+0xca0>
300021ae:	f240 1151 	movw	r1, #337	; 0x151
300021b2:	4848      	ldr	r0, [pc, #288]	; (300022d4 <curve__test__ec__common_init.6063+0xdbc>)
300021b4:	f007 f8ec 	bl	30009390 <__gnat_last_chance_handler>
300021b8:	6cb1      	ldr	r1, [r6, #72]	; 0x48
300021ba:	f8d7 3168 	ldr.w	r3, [r7, #360]	; 0x168
300021be:	4a4e      	ldr	r2, [pc, #312]	; (300022f8 <curve__test__ec__common_init.6063+0xde0>)
300021c0:	4694      	mov	ip, r2
300021c2:	eb03 0e01 	add.w	lr, r3, r1
300021c6:	f10c 0830 	add.w	r8, ip, #48	; 0x30
300021ca:	4675      	mov	r5, lr
300021cc:	4664      	mov	r4, ip
300021ce:	cc0f      	ldmia	r4!, {r0, r1, r2, r3}
300021d0:	6028      	str	r0, [r5, #0]
300021d2:	6069      	str	r1, [r5, #4]
300021d4:	60aa      	str	r2, [r5, #8]
300021d6:	60eb      	str	r3, [r5, #12]
300021d8:	f10c 0c10 	add.w	ip, ip, #16
300021dc:	f10e 0e10 	add.w	lr, lr, #16
300021e0:	45c4      	cmp	ip, r8
300021e2:	d1f2      	bne.n	300021ca <curve__test__ec__common_init.6063+0xcb2>
300021e4:	4672      	mov	r2, lr
300021e6:	4663      	mov	r3, ip
300021e8:	cb03      	ldmia	r3!, {r0, r1}
300021ea:	6010      	str	r0, [r2, #0]
300021ec:	6051      	str	r1, [r2, #4]
300021ee:	e3fd      	b.n	300029ec <curve__test__ec__common_init.6063+0x14d4>
300021f0:	6e32      	ldr	r2, [r6, #96]	; 0x60
300021f2:	6df3      	ldr	r3, [r6, #92]	; 0x5c
300021f4:	1ad3      	subs	r3, r2, r3
300021f6:	2b07      	cmp	r3, #7
300021f8:	f040 80bd 	bne.w	30002376 <curve__test__ec__common_init.6063+0xe5e>
300021fc:	6db3      	ldr	r3, [r6, #88]	; 0x58
300021fe:	2208      	movs	r2, #8
30002200:	493e      	ldr	r1, [pc, #248]	; (300022fc <curve__test__ec__common_init.6063+0xde4>)
30002202:	4618      	mov	r0, r3
30002204:	f007 fb10 	bl	30009828 <memcmp>
30002208:	4603      	mov	r3, r0
3000220a:	2b00      	cmp	r3, #0
3000220c:	f040 80b3 	bne.w	30002376 <curve__test__ec__common_init.6063+0xe5e>
30002210:	6f73      	ldr	r3, [r6, #116]	; 0x74
30002212:	2b30      	cmp	r3, #48	; 0x30
30002214:	d004      	beq.n	30002220 <curve__test__ec__common_init.6063+0xd08>
30002216:	f240 1153 	movw	r1, #339	; 0x153
3000221a:	482e      	ldr	r0, [pc, #184]	; (300022d4 <curve__test__ec__common_init.6063+0xdbc>)
3000221c:	f007 f8b8 	bl	30009390 <__gnat_last_chance_handler>
30002220:	f8d7 2168 	ldr.w	r2, [r7, #360]	; 0x168
30002224:	4b36      	ldr	r3, [pc, #216]	; (30002300 <curve__test__ec__common_init.6063+0xde8>)
30002226:	469c      	mov	ip, r3
30002228:	4696      	mov	lr, r2
3000222a:	f10c 0830 	add.w	r8, ip, #48	; 0x30
3000222e:	4675      	mov	r5, lr
30002230:	4664      	mov	r4, ip
30002232:	cc0f      	ldmia	r4!, {r0, r1, r2, r3}
30002234:	6028      	str	r0, [r5, #0]
30002236:	6069      	str	r1, [r5, #4]
30002238:	60aa      	str	r2, [r5, #8]
3000223a:	60eb      	str	r3, [r5, #12]
3000223c:	f10c 0c10 	add.w	ip, ip, #16
30002240:	f10e 0e10 	add.w	lr, lr, #16
30002244:	45c4      	cmp	ip, r8
30002246:	d1f2      	bne.n	3000222e <curve__test__ec__common_init.6063+0xd16>
30002248:	6f33      	ldr	r3, [r6, #112]	; 0x70
3000224a:	2b30      	cmp	r3, #48	; 0x30
3000224c:	d004      	beq.n	30002258 <curve__test__ec__common_init.6063+0xd40>
3000224e:	f44f 71aa 	mov.w	r1, #340	; 0x154
30002252:	4820      	ldr	r0, [pc, #128]	; (300022d4 <curve__test__ec__common_init.6063+0xdbc>)
30002254:	f007 f89c 	bl	30009390 <__gnat_last_chance_handler>
30002258:	6d31      	ldr	r1, [r6, #80]	; 0x50
3000225a:	f8d7 3168 	ldr.w	r3, [r7, #360]	; 0x168
3000225e:	4a29      	ldr	r2, [pc, #164]	; (30002304 <curve__test__ec__common_init.6063+0xdec>)
30002260:	4694      	mov	ip, r2
30002262:	eb03 0e01 	add.w	lr, r3, r1
30002266:	f10c 0830 	add.w	r8, ip, #48	; 0x30
3000226a:	4675      	mov	r5, lr
3000226c:	4664      	mov	r4, ip
3000226e:	cc0f      	ldmia	r4!, {r0, r1, r2, r3}
30002270:	6028      	str	r0, [r5, #0]
30002272:	6069      	str	r1, [r5, #4]
30002274:	60aa      	str	r2, [r5, #8]
30002276:	60eb      	str	r3, [r5, #12]
30002278:	f10c 0c10 	add.w	ip, ip, #16
3000227c:	f10e 0e10 	add.w	lr, lr, #16
30002280:	45c4      	cmp	ip, r8
30002282:	d1f2      	bne.n	3000226a <curve__test__ec__common_init.6063+0xd52>
30002284:	6ef3      	ldr	r3, [r6, #108]	; 0x6c
30002286:	2b30      	cmp	r3, #48	; 0x30
30002288:	d004      	beq.n	30002294 <curve__test__ec__common_init.6063+0xd7c>
3000228a:	f240 1155 	movw	r1, #341	; 0x155
3000228e:	4811      	ldr	r0, [pc, #68]	; (300022d4 <curve__test__ec__common_init.6063+0xdbc>)
30002290:	f007 f87e 	bl	30009390 <__gnat_last_chance_handler>
30002294:	6cf1      	ldr	r1, [r6, #76]	; 0x4c
30002296:	f8d7 3168 	ldr.w	r3, [r7, #360]	; 0x168
3000229a:	4a1b      	ldr	r2, [pc, #108]	; (30002308 <curve__test__ec__common_init.6063+0xdf0>)
3000229c:	4694      	mov	ip, r2
3000229e:	eb03 0e01 	add.w	lr, r3, r1
300022a2:	f10c 0830 	add.w	r8, ip, #48	; 0x30
300022a6:	4675      	mov	r5, lr
300022a8:	4664      	mov	r4, ip
300022aa:	cc0f      	ldmia	r4!, {r0, r1, r2, r3}
300022ac:	6028      	str	r0, [r5, #0]
300022ae:	6069      	str	r1, [r5, #4]
300022b0:	60aa      	str	r2, [r5, #8]
300022b2:	60eb      	str	r3, [r5, #12]
300022b4:	f10c 0c10 	add.w	ip, ip, #16
300022b8:	f10e 0e10 	add.w	lr, lr, #16
300022bc:	45c4      	cmp	ip, r8
300022be:	d1f2      	bne.n	300022a6 <curve__test__ec__common_init.6063+0xd8e>
300022c0:	6eb3      	ldr	r3, [r6, #104]	; 0x68
300022c2:	2b30      	cmp	r3, #48	; 0x30
300022c4:	d022      	beq.n	3000230c <curve__test__ec__common_init.6063+0xdf4>
300022c6:	f44f 71ab 	mov.w	r1, #342	; 0x156
300022ca:	4802      	ldr	r0, [pc, #8]	; (300022d4 <curve__test__ec__common_init.6063+0xdbc>)
300022cc:	f007 f860 	bl	30009390 <__gnat_last_chance_handler>
300022d0:	3000ac34 	.word	0x3000ac34
300022d4:	30009d08 	.word	0x30009d08
300022d8:	3000ac78 	.word	0x3000ac78
300022dc:	3000acbc 	.word	0x3000acbc
300022e0:	3000ad00 	.word	0x3000ad00
300022e4:	30009dd0 	.word	0x30009dd0
300022e8:	3000ad44 	.word	0x3000ad44
300022ec:	3000ad80 	.word	0x3000ad80
300022f0:	3000adbc 	.word	0x3000adbc
300022f4:	3000adf8 	.word	0x3000adf8
300022f8:	3000ae34 	.word	0x3000ae34
300022fc:	30009ddc 	.word	0x30009ddc
30002300:	3000ae70 	.word	0x3000ae70
30002304:	3000aea4 	.word	0x3000aea4
30002308:	3000aed8 	.word	0x3000aed8
3000230c:	6d71      	ldr	r1, [r6, #84]	; 0x54
3000230e:	f8d7 3168 	ldr.w	r3, [r7, #360]	; 0x168
30002312:	4aca      	ldr	r2, [pc, #808]	; (3000263c <curve__test__ec__common_init.6063+0x1124>)
30002314:	4694      	mov	ip, r2
30002316:	eb03 0e01 	add.w	lr, r3, r1
3000231a:	f10c 0830 	add.w	r8, ip, #48	; 0x30
3000231e:	4675      	mov	r5, lr
30002320:	4664      	mov	r4, ip
30002322:	cc0f      	ldmia	r4!, {r0, r1, r2, r3}
30002324:	6028      	str	r0, [r5, #0]
30002326:	6069      	str	r1, [r5, #4]
30002328:	60aa      	str	r2, [r5, #8]
3000232a:	60eb      	str	r3, [r5, #12]
3000232c:	f10c 0c10 	add.w	ip, ip, #16
30002330:	f10e 0e10 	add.w	lr, lr, #16
30002334:	45c4      	cmp	ip, r8
30002336:	d1f2      	bne.n	3000231e <curve__test__ec__common_init.6063+0xe06>
30002338:	6e73      	ldr	r3, [r6, #100]	; 0x64
3000233a:	2b30      	cmp	r3, #48	; 0x30
3000233c:	d004      	beq.n	30002348 <curve__test__ec__common_init.6063+0xe30>
3000233e:	f240 1157 	movw	r1, #343	; 0x157
30002342:	48bf      	ldr	r0, [pc, #764]	; (30002640 <curve__test__ec__common_init.6063+0x1128>)
30002344:	f007 f824 	bl	30009390 <__gnat_last_chance_handler>
30002348:	6cb1      	ldr	r1, [r6, #72]	; 0x48
3000234a:	f8d7 3168 	ldr.w	r3, [r7, #360]	; 0x168
3000234e:	4abd      	ldr	r2, [pc, #756]	; (30002644 <curve__test__ec__common_init.6063+0x112c>)
30002350:	4694      	mov	ip, r2
30002352:	eb03 0e01 	add.w	lr, r3, r1
30002356:	f10c 0830 	add.w	r8, ip, #48	; 0x30
3000235a:	4675      	mov	r5, lr
3000235c:	4664      	mov	r4, ip
3000235e:	cc0f      	ldmia	r4!, {r0, r1, r2, r3}
30002360:	6028      	str	r0, [r5, #0]
30002362:	6069      	str	r1, [r5, #4]
30002364:	60aa      	str	r2, [r5, #8]
30002366:	60eb      	str	r3, [r5, #12]
30002368:	f10c 0c10 	add.w	ip, ip, #16
3000236c:	f10e 0e10 	add.w	lr, lr, #16
30002370:	45c4      	cmp	ip, r8
30002372:	d1f2      	bne.n	3000235a <curve__test__ec__common_init.6063+0xe42>
30002374:	e33a      	b.n	300029ec <curve__test__ec__common_init.6063+0x14d4>
30002376:	6e32      	ldr	r2, [r6, #96]	; 0x60
30002378:	6df3      	ldr	r3, [r6, #92]	; 0x5c
3000237a:	1ad3      	subs	r3, r2, r3
3000237c:	2b0d      	cmp	r3, #13
3000237e:	f040 80a2 	bne.w	300024c6 <curve__test__ec__common_init.6063+0xfae>
30002382:	6db3      	ldr	r3, [r6, #88]	; 0x58
30002384:	220e      	movs	r2, #14
30002386:	49b0      	ldr	r1, [pc, #704]	; (30002648 <curve__test__ec__common_init.6063+0x1130>)
30002388:	4618      	mov	r0, r3
3000238a:	f007 fa4d 	bl	30009828 <memcmp>
3000238e:	4603      	mov	r3, r0
30002390:	2b00      	cmp	r3, #0
30002392:	f040 8098 	bne.w	300024c6 <curve__test__ec__common_init.6063+0xfae>
30002396:	6f73      	ldr	r3, [r6, #116]	; 0x74
30002398:	2b40      	cmp	r3, #64	; 0x40
3000239a:	d004      	beq.n	300023a6 <curve__test__ec__common_init.6063+0xe8e>
3000239c:	f240 1159 	movw	r1, #345	; 0x159
300023a0:	48a7      	ldr	r0, [pc, #668]	; (30002640 <curve__test__ec__common_init.6063+0x1128>)
300023a2:	f006 fff5 	bl	30009390 <__gnat_last_chance_handler>
300023a6:	f8d7 2168 	ldr.w	r2, [r7, #360]	; 0x168
300023aa:	4ba8      	ldr	r3, [pc, #672]	; (3000264c <curve__test__ec__common_init.6063+0x1134>)
300023ac:	469c      	mov	ip, r3
300023ae:	4696      	mov	lr, r2
300023b0:	f10c 0840 	add.w	r8, ip, #64	; 0x40
300023b4:	4675      	mov	r5, lr
300023b6:	4664      	mov	r4, ip
300023b8:	cc0f      	ldmia	r4!, {r0, r1, r2, r3}
300023ba:	6028      	str	r0, [r5, #0]
300023bc:	6069      	str	r1, [r5, #4]
300023be:	60aa      	str	r2, [r5, #8]
300023c0:	60eb      	str	r3, [r5, #12]
300023c2:	f10c 0c10 	add.w	ip, ip, #16
300023c6:	f10e 0e10 	add.w	lr, lr, #16
300023ca:	45c4      	cmp	ip, r8
300023cc:	d1f2      	bne.n	300023b4 <curve__test__ec__common_init.6063+0xe9c>
300023ce:	6f33      	ldr	r3, [r6, #112]	; 0x70
300023d0:	2b40      	cmp	r3, #64	; 0x40
300023d2:	d004      	beq.n	300023de <curve__test__ec__common_init.6063+0xec6>
300023d4:	f44f 71ad 	mov.w	r1, #346	; 0x15a
300023d8:	4899      	ldr	r0, [pc, #612]	; (30002640 <curve__test__ec__common_init.6063+0x1128>)
300023da:	f006 ffd9 	bl	30009390 <__gnat_last_chance_handler>
300023de:	6d31      	ldr	r1, [r6, #80]	; 0x50
300023e0:	f8d7 3168 	ldr.w	r3, [r7, #360]	; 0x168
300023e4:	4a9a      	ldr	r2, [pc, #616]	; (30002650 <curve__test__ec__common_init.6063+0x1138>)
300023e6:	4694      	mov	ip, r2
300023e8:	eb03 0e01 	add.w	lr, r3, r1
300023ec:	f10c 0840 	add.w	r8, ip, #64	; 0x40
300023f0:	4675      	mov	r5, lr
300023f2:	4664      	mov	r4, ip
300023f4:	cc0f      	ldmia	r4!, {r0, r1, r2, r3}
300023f6:	6028      	str	r0, [r5, #0]
300023f8:	6069      	str	r1, [r5, #4]
300023fa:	60aa      	str	r2, [r5, #8]
300023fc:	60eb      	str	r3, [r5, #12]
300023fe:	f10c 0c10 	add.w	ip, ip, #16
30002402:	f10e 0e10 	add.w	lr, lr, #16
30002406:	45c4      	cmp	ip, r8
30002408:	d1f2      	bne.n	300023f0 <curve__test__ec__common_init.6063+0xed8>
3000240a:	6ef3      	ldr	r3, [r6, #108]	; 0x6c
3000240c:	2b40      	cmp	r3, #64	; 0x40
3000240e:	d004      	beq.n	3000241a <curve__test__ec__common_init.6063+0xf02>
30002410:	f240 115b 	movw	r1, #347	; 0x15b
30002414:	488a      	ldr	r0, [pc, #552]	; (30002640 <curve__test__ec__common_init.6063+0x1128>)
30002416:	f006 ffbb 	bl	30009390 <__gnat_last_chance_handler>
3000241a:	6cf1      	ldr	r1, [r6, #76]	; 0x4c
3000241c:	f8d7 3168 	ldr.w	r3, [r7, #360]	; 0x168
30002420:	4a8c      	ldr	r2, [pc, #560]	; (30002654 <curve__test__ec__common_init.6063+0x113c>)
30002422:	4694      	mov	ip, r2
30002424:	eb03 0e01 	add.w	lr, r3, r1
30002428:	f10c 0840 	add.w	r8, ip, #64	; 0x40
3000242c:	4675      	mov	r5, lr
3000242e:	4664      	mov	r4, ip
30002430:	cc0f      	ldmia	r4!, {r0, r1, r2, r3}
30002432:	6028      	str	r0, [r5, #0]
30002434:	6069      	str	r1, [r5, #4]
30002436:	60aa      	str	r2, [r5, #8]
30002438:	60eb      	str	r3, [r5, #12]
3000243a:	f10c 0c10 	add.w	ip, ip, #16
3000243e:	f10e 0e10 	add.w	lr, lr, #16
30002442:	45c4      	cmp	ip, r8
30002444:	d1f2      	bne.n	3000242c <curve__test__ec__common_init.6063+0xf14>
30002446:	6eb3      	ldr	r3, [r6, #104]	; 0x68
30002448:	2b40      	cmp	r3, #64	; 0x40
3000244a:	d004      	beq.n	30002456 <curve__test__ec__common_init.6063+0xf3e>
3000244c:	f44f 71ae 	mov.w	r1, #348	; 0x15c
30002450:	487b      	ldr	r0, [pc, #492]	; (30002640 <curve__test__ec__common_init.6063+0x1128>)
30002452:	f006 ff9d 	bl	30009390 <__gnat_last_chance_handler>
30002456:	6d71      	ldr	r1, [r6, #84]	; 0x54
30002458:	f8d7 3168 	ldr.w	r3, [r7, #360]	; 0x168
3000245c:	4a7e      	ldr	r2, [pc, #504]	; (30002658 <curve__test__ec__common_init.6063+0x1140>)
3000245e:	4694      	mov	ip, r2
30002460:	eb03 0e01 	add.w	lr, r3, r1
30002464:	f10c 0840 	add.w	r8, ip, #64	; 0x40
30002468:	4675      	mov	r5, lr
3000246a:	4664      	mov	r4, ip
3000246c:	cc0f      	ldmia	r4!, {r0, r1, r2, r3}
3000246e:	6028      	str	r0, [r5, #0]
30002470:	6069      	str	r1, [r5, #4]
30002472:	60aa      	str	r2, [r5, #8]
30002474:	60eb      	str	r3, [r5, #12]
30002476:	f10c 0c10 	add.w	ip, ip, #16
3000247a:	f10e 0e10 	add.w	lr, lr, #16
3000247e:	45c4      	cmp	ip, r8
30002480:	d1f2      	bne.n	30002468 <curve__test__ec__common_init.6063+0xf50>
30002482:	6e73      	ldr	r3, [r6, #100]	; 0x64
30002484:	2b40      	cmp	r3, #64	; 0x40
30002486:	d004      	beq.n	30002492 <curve__test__ec__common_init.6063+0xf7a>
30002488:	f240 115d 	movw	r1, #349	; 0x15d
3000248c:	486c      	ldr	r0, [pc, #432]	; (30002640 <curve__test__ec__common_init.6063+0x1128>)
3000248e:	f006 ff7f 	bl	30009390 <__gnat_last_chance_handler>
30002492:	6cb1      	ldr	r1, [r6, #72]	; 0x48
30002494:	f8d7 3168 	ldr.w	r3, [r7, #360]	; 0x168
30002498:	4a70      	ldr	r2, [pc, #448]	; (3000265c <curve__test__ec__common_init.6063+0x1144>)
3000249a:	4694      	mov	ip, r2
3000249c:	eb03 0e01 	add.w	lr, r3, r1
300024a0:	f10c 0840 	add.w	r8, ip, #64	; 0x40
300024a4:	4675      	mov	r5, lr
300024a6:	4664      	mov	r4, ip
300024a8:	cc0f      	ldmia	r4!, {r0, r1, r2, r3}
300024aa:	6028      	str	r0, [r5, #0]
300024ac:	6069      	str	r1, [r5, #4]
300024ae:	60aa      	str	r2, [r5, #8]
300024b0:	60eb      	str	r3, [r5, #12]
300024b2:	f10c 0c10 	add.w	ip, ip, #16
300024b6:	f10e 0e10 	add.w	lr, lr, #16
300024ba:	45c4      	cmp	ip, r8
300024bc:	d1f2      	bne.n	300024a4 <curve__test__ec__common_init.6063+0xf8c>
300024be:	2300      	movs	r3, #0
300024c0:	f887 316f 	strb.w	r3, [r7, #367]	; 0x16f
300024c4:	e292      	b.n	300029ec <curve__test__ec__common_init.6063+0x14d4>
300024c6:	6e32      	ldr	r2, [r6, #96]	; 0x60
300024c8:	6df3      	ldr	r3, [r6, #92]	; 0x5c
300024ca:	1ad3      	subs	r3, r2, r3
300024cc:	2b0d      	cmp	r3, #13
300024ce:	f040 809f 	bne.w	30002610 <curve__test__ec__common_init.6063+0x10f8>
300024d2:	6db3      	ldr	r3, [r6, #88]	; 0x58
300024d4:	220e      	movs	r2, #14
300024d6:	4962      	ldr	r1, [pc, #392]	; (30002660 <curve__test__ec__common_init.6063+0x1148>)
300024d8:	4618      	mov	r0, r3
300024da:	f007 f9a5 	bl	30009828 <memcmp>
300024de:	4603      	mov	r3, r0
300024e0:	2b00      	cmp	r3, #0
300024e2:	f040 8095 	bne.w	30002610 <curve__test__ec__common_init.6063+0x10f8>
300024e6:	6f73      	ldr	r3, [r6, #116]	; 0x74
300024e8:	2b40      	cmp	r3, #64	; 0x40
300024ea:	d004      	beq.n	300024f6 <curve__test__ec__common_init.6063+0xfde>
300024ec:	f44f 71b0 	mov.w	r1, #352	; 0x160
300024f0:	4853      	ldr	r0, [pc, #332]	; (30002640 <curve__test__ec__common_init.6063+0x1128>)
300024f2:	f006 ff4d 	bl	30009390 <__gnat_last_chance_handler>
300024f6:	f8d7 2168 	ldr.w	r2, [r7, #360]	; 0x168
300024fa:	4b54      	ldr	r3, [pc, #336]	; (3000264c <curve__test__ec__common_init.6063+0x1134>)
300024fc:	469c      	mov	ip, r3
300024fe:	4696      	mov	lr, r2
30002500:	f10c 0840 	add.w	r8, ip, #64	; 0x40
30002504:	4675      	mov	r5, lr
30002506:	4664      	mov	r4, ip
30002508:	cc0f      	ldmia	r4!, {r0, r1, r2, r3}
3000250a:	6028      	str	r0, [r5, #0]
3000250c:	6069      	str	r1, [r5, #4]
3000250e:	60aa      	str	r2, [r5, #8]
30002510:	60eb      	str	r3, [r5, #12]
30002512:	f10c 0c10 	add.w	ip, ip, #16
30002516:	f10e 0e10 	add.w	lr, lr, #16
3000251a:	45c4      	cmp	ip, r8
3000251c:	d1f2      	bne.n	30002504 <curve__test__ec__common_init.6063+0xfec>
3000251e:	6f33      	ldr	r3, [r6, #112]	; 0x70
30002520:	2b40      	cmp	r3, #64	; 0x40
30002522:	d004      	beq.n	3000252e <curve__test__ec__common_init.6063+0x1016>
30002524:	f240 1161 	movw	r1, #353	; 0x161
30002528:	4845      	ldr	r0, [pc, #276]	; (30002640 <curve__test__ec__common_init.6063+0x1128>)
3000252a:	f006 ff31 	bl	30009390 <__gnat_last_chance_handler>
3000252e:	6d31      	ldr	r1, [r6, #80]	; 0x50
30002530:	f8d7 3168 	ldr.w	r3, [r7, #360]	; 0x168
30002534:	4a4b      	ldr	r2, [pc, #300]	; (30002664 <curve__test__ec__common_init.6063+0x114c>)
30002536:	4694      	mov	ip, r2
30002538:	eb03 0e01 	add.w	lr, r3, r1
3000253c:	f10c 0840 	add.w	r8, ip, #64	; 0x40
30002540:	4675      	mov	r5, lr
30002542:	4664      	mov	r4, ip
30002544:	cc0f      	ldmia	r4!, {r0, r1, r2, r3}
30002546:	6028      	str	r0, [r5, #0]
30002548:	6069      	str	r1, [r5, #4]
3000254a:	60aa      	str	r2, [r5, #8]
3000254c:	60eb      	str	r3, [r5, #12]
3000254e:	f10c 0c10 	add.w	ip, ip, #16
30002552:	f10e 0e10 	add.w	lr, lr, #16
30002556:	45c4      	cmp	ip, r8
30002558:	d1f2      	bne.n	30002540 <curve__test__ec__common_init.6063+0x1028>
3000255a:	6ef3      	ldr	r3, [r6, #108]	; 0x6c
3000255c:	2b40      	cmp	r3, #64	; 0x40
3000255e:	d004      	beq.n	3000256a <curve__test__ec__common_init.6063+0x1052>
30002560:	f44f 71b1 	mov.w	r1, #354	; 0x162
30002564:	4836      	ldr	r0, [pc, #216]	; (30002640 <curve__test__ec__common_init.6063+0x1128>)
30002566:	f006 ff13 	bl	30009390 <__gnat_last_chance_handler>
3000256a:	6cf1      	ldr	r1, [r6, #76]	; 0x4c
3000256c:	f8d7 3168 	ldr.w	r3, [r7, #360]	; 0x168
30002570:	4a3d      	ldr	r2, [pc, #244]	; (30002668 <curve__test__ec__common_init.6063+0x1150>)
30002572:	4694      	mov	ip, r2
30002574:	eb03 0e01 	add.w	lr, r3, r1
30002578:	f10c 0840 	add.w	r8, ip, #64	; 0x40
3000257c:	4675      	mov	r5, lr
3000257e:	4664      	mov	r4, ip
30002580:	cc0f      	ldmia	r4!, {r0, r1, r2, r3}
30002582:	6028      	str	r0, [r5, #0]
30002584:	6069      	str	r1, [r5, #4]
30002586:	60aa      	str	r2, [r5, #8]
30002588:	60eb      	str	r3, [r5, #12]
3000258a:	f10c 0c10 	add.w	ip, ip, #16
3000258e:	f10e 0e10 	add.w	lr, lr, #16
30002592:	45c4      	cmp	ip, r8
30002594:	d1f2      	bne.n	3000257c <curve__test__ec__common_init.6063+0x1064>
30002596:	6eb3      	ldr	r3, [r6, #104]	; 0x68
30002598:	2b40      	cmp	r3, #64	; 0x40
3000259a:	d004      	beq.n	300025a6 <curve__test__ec__common_init.6063+0x108e>
3000259c:	f240 1163 	movw	r1, #355	; 0x163
300025a0:	4827      	ldr	r0, [pc, #156]	; (30002640 <curve__test__ec__common_init.6063+0x1128>)
300025a2:	f006 fef5 	bl	30009390 <__gnat_last_chance_handler>
300025a6:	6d71      	ldr	r1, [r6, #84]	; 0x54
300025a8:	f8d7 3168 	ldr.w	r3, [r7, #360]	; 0x168
300025ac:	4a2f      	ldr	r2, [pc, #188]	; (3000266c <curve__test__ec__common_init.6063+0x1154>)
300025ae:	4694      	mov	ip, r2
300025b0:	eb03 0e01 	add.w	lr, r3, r1
300025b4:	f10c 0840 	add.w	r8, ip, #64	; 0x40
300025b8:	4675      	mov	r5, lr
300025ba:	4664      	mov	r4, ip
300025bc:	cc0f      	ldmia	r4!, {r0, r1, r2, r3}
300025be:	6028      	str	r0, [r5, #0]
300025c0:	6069      	str	r1, [r5, #4]
300025c2:	60aa      	str	r2, [r5, #8]
300025c4:	60eb      	str	r3, [r5, #12]
300025c6:	f10c 0c10 	add.w	ip, ip, #16
300025ca:	f10e 0e10 	add.w	lr, lr, #16
300025ce:	45c4      	cmp	ip, r8
300025d0:	d1f2      	bne.n	300025b8 <curve__test__ec__common_init.6063+0x10a0>
300025d2:	6e73      	ldr	r3, [r6, #100]	; 0x64
300025d4:	2b40      	cmp	r3, #64	; 0x40
300025d6:	d004      	beq.n	300025e2 <curve__test__ec__common_init.6063+0x10ca>
300025d8:	f44f 71b2 	mov.w	r1, #356	; 0x164
300025dc:	4818      	ldr	r0, [pc, #96]	; (30002640 <curve__test__ec__common_init.6063+0x1128>)
300025de:	f006 fed7 	bl	30009390 <__gnat_last_chance_handler>
300025e2:	6cb1      	ldr	r1, [r6, #72]	; 0x48
300025e4:	f8d7 3168 	ldr.w	r3, [r7, #360]	; 0x168
300025e8:	4a1c      	ldr	r2, [pc, #112]	; (3000265c <curve__test__ec__common_init.6063+0x1144>)
300025ea:	4694      	mov	ip, r2
300025ec:	eb03 0e01 	add.w	lr, r3, r1
300025f0:	f10c 0840 	add.w	r8, ip, #64	; 0x40
300025f4:	4675      	mov	r5, lr
300025f6:	4664      	mov	r4, ip
300025f8:	cc0f      	ldmia	r4!, {r0, r1, r2, r3}
300025fa:	6028      	str	r0, [r5, #0]
300025fc:	6069      	str	r1, [r5, #4]
300025fe:	60aa      	str	r2, [r5, #8]
30002600:	60eb      	str	r3, [r5, #12]
30002602:	f10c 0c10 	add.w	ip, ip, #16
30002606:	f10e 0e10 	add.w	lr, lr, #16
3000260a:	45c4      	cmp	ip, r8
3000260c:	d1f2      	bne.n	300025f4 <curve__test__ec__common_init.6063+0x10dc>
3000260e:	e1ed      	b.n	300029ec <curve__test__ec__common_init.6063+0x14d4>
30002610:	6e32      	ldr	r2, [r6, #96]	; 0x60
30002612:	6df3      	ldr	r3, [r6, #92]	; 0x5c
30002614:	1ad3      	subs	r3, r2, r3
30002616:	2b0d      	cmp	r3, #13
30002618:	d17d      	bne.n	30002716 <curve__test__ec__common_init.6063+0x11fe>
3000261a:	6db3      	ldr	r3, [r6, #88]	; 0x58
3000261c:	220e      	movs	r2, #14
3000261e:	4914      	ldr	r1, [pc, #80]	; (30002670 <curve__test__ec__common_init.6063+0x1158>)
30002620:	4618      	mov	r0, r3
30002622:	f007 f901 	bl	30009828 <memcmp>
30002626:	4603      	mov	r3, r0
30002628:	2b00      	cmp	r3, #0
3000262a:	d174      	bne.n	30002716 <curve__test__ec__common_init.6063+0x11fe>
3000262c:	6f73      	ldr	r3, [r6, #116]	; 0x74
3000262e:	2b60      	cmp	r3, #96	; 0x60
30002630:	d020      	beq.n	30002674 <curve__test__ec__common_init.6063+0x115c>
30002632:	f44f 71b3 	mov.w	r1, #358	; 0x166
30002636:	4802      	ldr	r0, [pc, #8]	; (30002640 <curve__test__ec__common_init.6063+0x1128>)
30002638:	f006 feaa 	bl	30009390 <__gnat_last_chance_handler>
3000263c:	3000af0c 	.word	0x3000af0c
30002640:	30009d08 	.word	0x30009d08
30002644:	3000af40 	.word	0x3000af40
30002648:	30009de8 	.word	0x30009de8
3000264c:	3000af74 	.word	0x3000af74
30002650:	3000afb8 	.word	0x3000afb8
30002654:	3000affc 	.word	0x3000affc
30002658:	3000b040 	.word	0x3000b040
3000265c:	3000b084 	.word	0x3000b084
30002660:	30009df8 	.word	0x30009df8
30002664:	3000b0c8 	.word	0x3000b0c8
30002668:	3000b10c 	.word	0x3000b10c
3000266c:	3000b150 	.word	0x3000b150
30002670:	30009e08 	.word	0x30009e08
30002674:	f8d7 3168 	ldr.w	r3, [r7, #360]	; 0x168
30002678:	4ace      	ldr	r2, [pc, #824]	; (300029b4 <curve__test__ec__common_init.6063+0x149c>)
3000267a:	4618      	mov	r0, r3
3000267c:	4611      	mov	r1, r2
3000267e:	2360      	movs	r3, #96	; 0x60
30002680:	461a      	mov	r2, r3
30002682:	f007 f903 	bl	3000988c <memcpy>
30002686:	6f33      	ldr	r3, [r6, #112]	; 0x70
30002688:	2b60      	cmp	r3, #96	; 0x60
3000268a:	d004      	beq.n	30002696 <curve__test__ec__common_init.6063+0x117e>
3000268c:	f240 1167 	movw	r1, #359	; 0x167
30002690:	48c9      	ldr	r0, [pc, #804]	; (300029b8 <curve__test__ec__common_init.6063+0x14a0>)
30002692:	f006 fe7d 	bl	30009390 <__gnat_last_chance_handler>
30002696:	6d32      	ldr	r2, [r6, #80]	; 0x50
30002698:	f8d7 3168 	ldr.w	r3, [r7, #360]	; 0x168
3000269c:	49c7      	ldr	r1, [pc, #796]	; (300029bc <curve__test__ec__common_init.6063+0x14a4>)
3000269e:	1898      	adds	r0, r3, r2
300026a0:	2360      	movs	r3, #96	; 0x60
300026a2:	461a      	mov	r2, r3
300026a4:	f007 f8f2 	bl	3000988c <memcpy>
300026a8:	6ef3      	ldr	r3, [r6, #108]	; 0x6c
300026aa:	2b60      	cmp	r3, #96	; 0x60
300026ac:	d004      	beq.n	300026b8 <curve__test__ec__common_init.6063+0x11a0>
300026ae:	f44f 71b4 	mov.w	r1, #360	; 0x168
300026b2:	48c1      	ldr	r0, [pc, #772]	; (300029b8 <curve__test__ec__common_init.6063+0x14a0>)
300026b4:	f006 fe6c 	bl	30009390 <__gnat_last_chance_handler>
300026b8:	6cf2      	ldr	r2, [r6, #76]	; 0x4c
300026ba:	f8d7 3168 	ldr.w	r3, [r7, #360]	; 0x168
300026be:	49c0      	ldr	r1, [pc, #768]	; (300029c0 <curve__test__ec__common_init.6063+0x14a8>)
300026c0:	1898      	adds	r0, r3, r2
300026c2:	2360      	movs	r3, #96	; 0x60
300026c4:	461a      	mov	r2, r3
300026c6:	f007 f8e1 	bl	3000988c <memcpy>
300026ca:	6eb3      	ldr	r3, [r6, #104]	; 0x68
300026cc:	2b60      	cmp	r3, #96	; 0x60
300026ce:	d004      	beq.n	300026da <curve__test__ec__common_init.6063+0x11c2>
300026d0:	f240 1169 	movw	r1, #361	; 0x169
300026d4:	48b8      	ldr	r0, [pc, #736]	; (300029b8 <curve__test__ec__common_init.6063+0x14a0>)
300026d6:	f006 fe5b 	bl	30009390 <__gnat_last_chance_handler>
300026da:	6d72      	ldr	r2, [r6, #84]	; 0x54
300026dc:	f8d7 3168 	ldr.w	r3, [r7, #360]	; 0x168
300026e0:	49b8      	ldr	r1, [pc, #736]	; (300029c4 <curve__test__ec__common_init.6063+0x14ac>)
300026e2:	1898      	adds	r0, r3, r2
300026e4:	2360      	movs	r3, #96	; 0x60
300026e6:	461a      	mov	r2, r3
300026e8:	f007 f8d0 	bl	3000988c <memcpy>
300026ec:	6e73      	ldr	r3, [r6, #100]	; 0x64
300026ee:	2b60      	cmp	r3, #96	; 0x60
300026f0:	d004      	beq.n	300026fc <curve__test__ec__common_init.6063+0x11e4>
300026f2:	f44f 71b5 	mov.w	r1, #362	; 0x16a
300026f6:	48b0      	ldr	r0, [pc, #704]	; (300029b8 <curve__test__ec__common_init.6063+0x14a0>)
300026f8:	f006 fe4a 	bl	30009390 <__gnat_last_chance_handler>
300026fc:	6cb2      	ldr	r2, [r6, #72]	; 0x48
300026fe:	f8d7 3168 	ldr.w	r3, [r7, #360]	; 0x168
30002702:	49b1      	ldr	r1, [pc, #708]	; (300029c8 <curve__test__ec__common_init.6063+0x14b0>)
30002704:	1898      	adds	r0, r3, r2
30002706:	2360      	movs	r3, #96	; 0x60
30002708:	461a      	mov	r2, r3
3000270a:	f007 f8bf 	bl	3000988c <memcpy>
3000270e:	2300      	movs	r3, #0
30002710:	f887 316f 	strb.w	r3, [r7, #367]	; 0x16f
30002714:	e16a      	b.n	300029ec <curve__test__ec__common_init.6063+0x14d4>
30002716:	6e32      	ldr	r2, [r6, #96]	; 0x60
30002718:	6df3      	ldr	r3, [r6, #92]	; 0x5c
3000271a:	1ad3      	subs	r3, r2, r3
3000271c:	2b0d      	cmp	r3, #13
3000271e:	d15e      	bne.n	300027de <curve__test__ec__common_init.6063+0x12c6>
30002720:	6db3      	ldr	r3, [r6, #88]	; 0x58
30002722:	220e      	movs	r2, #14
30002724:	49a9      	ldr	r1, [pc, #676]	; (300029cc <curve__test__ec__common_init.6063+0x14b4>)
30002726:	4618      	mov	r0, r3
30002728:	f007 f87e 	bl	30009828 <memcmp>
3000272c:	4603      	mov	r3, r0
3000272e:	2b00      	cmp	r3, #0
30002730:	d155      	bne.n	300027de <curve__test__ec__common_init.6063+0x12c6>
30002732:	6f73      	ldr	r3, [r6, #116]	; 0x74
30002734:	2b60      	cmp	r3, #96	; 0x60
30002736:	d004      	beq.n	30002742 <curve__test__ec__common_init.6063+0x122a>
30002738:	f240 116d 	movw	r1, #365	; 0x16d
3000273c:	489e      	ldr	r0, [pc, #632]	; (300029b8 <curve__test__ec__common_init.6063+0x14a0>)
3000273e:	f006 fe27 	bl	30009390 <__gnat_last_chance_handler>
30002742:	f8d7 3168 	ldr.w	r3, [r7, #360]	; 0x168
30002746:	4a9b      	ldr	r2, [pc, #620]	; (300029b4 <curve__test__ec__common_init.6063+0x149c>)
30002748:	4618      	mov	r0, r3
3000274a:	4611      	mov	r1, r2
3000274c:	2360      	movs	r3, #96	; 0x60
3000274e:	461a      	mov	r2, r3
30002750:	f007 f89c 	bl	3000988c <memcpy>
30002754:	6f33      	ldr	r3, [r6, #112]	; 0x70
30002756:	2b60      	cmp	r3, #96	; 0x60
30002758:	d004      	beq.n	30002764 <curve__test__ec__common_init.6063+0x124c>
3000275a:	f44f 71b7 	mov.w	r1, #366	; 0x16e
3000275e:	4896      	ldr	r0, [pc, #600]	; (300029b8 <curve__test__ec__common_init.6063+0x14a0>)
30002760:	f006 fe16 	bl	30009390 <__gnat_last_chance_handler>
30002764:	6d32      	ldr	r2, [r6, #80]	; 0x50
30002766:	f8d7 3168 	ldr.w	r3, [r7, #360]	; 0x168
3000276a:	4999      	ldr	r1, [pc, #612]	; (300029d0 <curve__test__ec__common_init.6063+0x14b8>)
3000276c:	1898      	adds	r0, r3, r2
3000276e:	2360      	movs	r3, #96	; 0x60
30002770:	461a      	mov	r2, r3
30002772:	f007 f88b 	bl	3000988c <memcpy>
30002776:	6ef3      	ldr	r3, [r6, #108]	; 0x6c
30002778:	2b60      	cmp	r3, #96	; 0x60
3000277a:	d004      	beq.n	30002786 <curve__test__ec__common_init.6063+0x126e>
3000277c:	f240 116f 	movw	r1, #367	; 0x16f
30002780:	488d      	ldr	r0, [pc, #564]	; (300029b8 <curve__test__ec__common_init.6063+0x14a0>)
30002782:	f006 fe05 	bl	30009390 <__gnat_last_chance_handler>
30002786:	6cf2      	ldr	r2, [r6, #76]	; 0x4c
30002788:	f8d7 3168 	ldr.w	r3, [r7, #360]	; 0x168
3000278c:	4991      	ldr	r1, [pc, #580]	; (300029d4 <curve__test__ec__common_init.6063+0x14bc>)
3000278e:	1898      	adds	r0, r3, r2
30002790:	2360      	movs	r3, #96	; 0x60
30002792:	461a      	mov	r2, r3
30002794:	f007 f87a 	bl	3000988c <memcpy>
30002798:	6eb3      	ldr	r3, [r6, #104]	; 0x68
3000279a:	2b60      	cmp	r3, #96	; 0x60
3000279c:	d004      	beq.n	300027a8 <curve__test__ec__common_init.6063+0x1290>
3000279e:	f44f 71b8 	mov.w	r1, #368	; 0x170
300027a2:	4885      	ldr	r0, [pc, #532]	; (300029b8 <curve__test__ec__common_init.6063+0x14a0>)
300027a4:	f006 fdf4 	bl	30009390 <__gnat_last_chance_handler>
300027a8:	6d72      	ldr	r2, [r6, #84]	; 0x54
300027aa:	f8d7 3168 	ldr.w	r3, [r7, #360]	; 0x168
300027ae:	498a      	ldr	r1, [pc, #552]	; (300029d8 <curve__test__ec__common_init.6063+0x14c0>)
300027b0:	1898      	adds	r0, r3, r2
300027b2:	2360      	movs	r3, #96	; 0x60
300027b4:	461a      	mov	r2, r3
300027b6:	f007 f869 	bl	3000988c <memcpy>
300027ba:	6e73      	ldr	r3, [r6, #100]	; 0x64
300027bc:	2b60      	cmp	r3, #96	; 0x60
300027be:	d004      	beq.n	300027ca <curve__test__ec__common_init.6063+0x12b2>
300027c0:	f240 1171 	movw	r1, #369	; 0x171
300027c4:	487c      	ldr	r0, [pc, #496]	; (300029b8 <curve__test__ec__common_init.6063+0x14a0>)
300027c6:	f006 fde3 	bl	30009390 <__gnat_last_chance_handler>
300027ca:	6cb2      	ldr	r2, [r6, #72]	; 0x48
300027cc:	f8d7 3168 	ldr.w	r3, [r7, #360]	; 0x168
300027d0:	497d      	ldr	r1, [pc, #500]	; (300029c8 <curve__test__ec__common_init.6063+0x14b0>)
300027d2:	1898      	adds	r0, r3, r2
300027d4:	2360      	movs	r3, #96	; 0x60
300027d6:	461a      	mov	r2, r3
300027d8:	f007 f858 	bl	3000988c <memcpy>
300027dc:	e106      	b.n	300029ec <curve__test__ec__common_init.6063+0x14d4>
300027de:	4c7f      	ldr	r4, [pc, #508]	; (300029dc <curve__test__ec__common_init.6063+0x14c4>)
300027e0:	4d7f      	ldr	r5, [pc, #508]	; (300029e0 <curve__test__ec__common_init.6063+0x14c8>)
300027e2:	e9c7 452e 	strd	r4, r5, [r7, #184]	; 0xb8
300027e6:	f8d7 30bc 	ldr.w	r3, [r7, #188]	; 0xbc
300027ea:	681b      	ldr	r3, [r3, #0]
300027ec:	f8d7 20bc 	ldr.w	r2, [r7, #188]	; 0xbc
300027f0:	6852      	ldr	r2, [r2, #4]
300027f2:	4293      	cmp	r3, r2
300027f4:	dd04      	ble.n	30002800 <curve__test__ec__common_init.6063+0x12e8>
300027f6:	4b7b      	ldr	r3, [pc, #492]	; (300029e4 <curve__test__ec__common_init.6063+0x14cc>)
300027f8:	2100      	movs	r1, #0
300027fa:	4618      	mov	r0, r3
300027fc:	f006 fdc8 	bl	30009390 <__gnat_last_chance_handler>
30002800:	f8c7 3158 	str.w	r3, [r7, #344]	; 0x158
30002804:	f06f 4100 	mvn.w	r1, #2147483648	; 0x80000000
30002808:	428a      	cmp	r2, r1
3000280a:	d103      	bne.n	30002814 <curve__test__ec__common_init.6063+0x12fc>
3000280c:	2140      	movs	r1, #64	; 0x40
3000280e:	4876      	ldr	r0, [pc, #472]	; (300029e8 <curve__test__ec__common_init.6063+0x14d0>)
30002810:	f006 fdbe 	bl	30009390 <__gnat_last_chance_handler>
30002814:	1c51      	adds	r1, r2, #1
30002816:	f8c7 1154 	str.w	r1, [r7, #340]	; 0x154
3000281a:	f8d7 1158 	ldr.w	r1, [r7, #344]	; 0x158
3000281e:	f8c7 1150 	str.w	r1, [r7, #336]	; 0x150
30002822:	f8d7 0158 	ldr.w	r0, [r7, #344]	; 0x158
30002826:	f8d7 1154 	ldr.w	r1, [r7, #340]	; 0x154
3000282a:	4288      	cmp	r0, r1
3000282c:	dd05      	ble.n	3000283a <curve__test__ec__common_init.6063+0x1322>
3000282e:	f8d7 1158 	ldr.w	r1, [r7, #344]	; 0x158
30002832:	3901      	subs	r1, #1
30002834:	f8c7 114c 	str.w	r1, [r7, #332]	; 0x14c
30002838:	e003      	b.n	30002842 <curve__test__ec__common_init.6063+0x132a>
3000283a:	f8d7 1154 	ldr.w	r1, [r7, #340]	; 0x154
3000283e:	f8c7 114c 	str.w	r1, [r7, #332]	; 0x14c
30002842:	3201      	adds	r2, #1
30002844:	4293      	cmp	r3, r2
30002846:	dc05      	bgt.n	30002854 <curve__test__ec__common_init.6063+0x133c>
30002848:	2b00      	cmp	r3, #0
3000284a:	dc03      	bgt.n	30002854 <curve__test__ec__common_init.6063+0x133c>
3000284c:	2140      	movs	r1, #64	; 0x40
3000284e:	4866      	ldr	r0, [pc, #408]	; (300029e8 <curve__test__ec__common_init.6063+0x14d0>)
30002850:	f006 fd9e 	bl	30009390 <__gnat_last_chance_handler>
30002854:	f8d7 30b8 	ldr.w	r3, [r7, #184]	; 0xb8
30002858:	f8c7 3148 	str.w	r3, [r7, #328]	; 0x148
3000285c:	f8d7 2158 	ldr.w	r2, [r7, #344]	; 0x158
30002860:	f8d7 3154 	ldr.w	r3, [r7, #340]	; 0x154
30002864:	429a      	cmp	r2, r3
30002866:	dd03      	ble.n	30002870 <curve__test__ec__common_init.6063+0x1358>
30002868:	2143      	movs	r1, #67	; 0x43
3000286a:	485f      	ldr	r0, [pc, #380]	; (300029e8 <curve__test__ec__common_init.6063+0x14d0>)
3000286c:	f006 fd90 	bl	30009390 <__gnat_last_chance_handler>
30002870:	f8d7 1154 	ldr.w	r1, [r7, #340]	; 0x154
30002874:	f8d7 2148 	ldr.w	r2, [r7, #328]	; 0x148
30002878:	f8d7 3150 	ldr.w	r3, [r7, #336]	; 0x150
3000287c:	1acb      	subs	r3, r1, r3
3000287e:	5cd3      	ldrb	r3, [r2, r3]
30002880:	2b00      	cmp	r3, #0
30002882:	d105      	bne.n	30002890 <curve__test__ec__common_init.6063+0x1378>
30002884:	f8d7 30b8 	ldr.w	r3, [r7, #184]	; 0xb8
30002888:	2100      	movs	r1, #0
3000288a:	4618      	mov	r0, r3
3000288c:	f006 fd80 	bl	30009390 <__gnat_last_chance_handler>
30002890:	f8d7 3158 	ldr.w	r3, [r7, #344]	; 0x158
30002894:	f8c7 3144 	str.w	r3, [r7, #324]	; 0x144
30002898:	f8d7 3154 	ldr.w	r3, [r7, #340]	; 0x154
3000289c:	f8c7 3140 	str.w	r3, [r7, #320]	; 0x140
300028a0:	f8d7 3144 	ldr.w	r3, [r7, #324]	; 0x144
300028a4:	f8c7 313c 	str.w	r3, [r7, #316]	; 0x13c
300028a8:	f8d7 3140 	ldr.w	r3, [r7, #320]	; 0x140
300028ac:	f8c7 3138 	str.w	r3, [r7, #312]	; 0x138
300028b0:	f8d7 313c 	ldr.w	r3, [r7, #316]	; 0x13c
300028b4:	f8c7 3134 	str.w	r3, [r7, #308]	; 0x134
300028b8:	f8d7 213c 	ldr.w	r2, [r7, #316]	; 0x13c
300028bc:	f8d7 3138 	ldr.w	r3, [r7, #312]	; 0x138
300028c0:	429a      	cmp	r2, r3
300028c2:	dd05      	ble.n	300028d0 <curve__test__ec__common_init.6063+0x13b8>
300028c4:	f8d7 313c 	ldr.w	r3, [r7, #316]	; 0x13c
300028c8:	3b01      	subs	r3, #1
300028ca:	f8c7 3130 	str.w	r3, [r7, #304]	; 0x130
300028ce:	e003      	b.n	300028d8 <curve__test__ec__common_init.6063+0x13c0>
300028d0:	f8d7 3138 	ldr.w	r3, [r7, #312]	; 0x138
300028d4:	f8c7 3130 	str.w	r3, [r7, #304]	; 0x130
300028d8:	f8d7 213c 	ldr.w	r2, [r7, #316]	; 0x13c
300028dc:	f8d7 3138 	ldr.w	r3, [r7, #312]	; 0x138
300028e0:	429a      	cmp	r2, r3
300028e2:	dc06      	bgt.n	300028f2 <curve__test__ec__common_init.6063+0x13da>
300028e4:	f8d7 2138 	ldr.w	r2, [r7, #312]	; 0x138
300028e8:	f8d7 313c 	ldr.w	r3, [r7, #316]	; 0x13c
300028ec:	1ad3      	subs	r3, r2, r3
300028ee:	1c59      	adds	r1, r3, #1
300028f0:	e000      	b.n	300028f4 <curve__test__ec__common_init.6063+0x13dc>
300028f2:	2100      	movs	r1, #0
300028f4:	f8d7 2144 	ldr.w	r2, [r7, #324]	; 0x144
300028f8:	f8d7 3140 	ldr.w	r3, [r7, #320]	; 0x140
300028fc:	429a      	cmp	r2, r3
300028fe:	dc07      	bgt.n	30002910 <curve__test__ec__common_init.6063+0x13f8>
30002900:	f8d7 3144 	ldr.w	r3, [r7, #324]	; 0x144
30002904:	2b00      	cmp	r3, #0
30002906:	dc03      	bgt.n	30002910 <curve__test__ec__common_init.6063+0x13f8>
30002908:	214b      	movs	r1, #75	; 0x4b
3000290a:	4837      	ldr	r0, [pc, #220]	; (300029e8 <curve__test__ec__common_init.6063+0x14d0>)
3000290c:	f006 fd40 	bl	30009390 <__gnat_last_chance_handler>
30002910:	f8d7 213c 	ldr.w	r2, [r7, #316]	; 0x13c
30002914:	f8d7 3138 	ldr.w	r3, [r7, #312]	; 0x138
30002918:	429a      	cmp	r2, r3
3000291a:	dc08      	bgt.n	3000292e <curve__test__ec__common_init.6063+0x1416>
3000291c:	f8d7 2138 	ldr.w	r2, [r7, #312]	; 0x138
30002920:	f8d7 313c 	ldr.w	r3, [r7, #316]	; 0x13c
30002924:	1ad3      	subs	r3, r2, r3
30002926:	330c      	adds	r3, #12
30002928:	f023 0303 	bic.w	r3, r3, #3
3000292c:	e000      	b.n	30002930 <curve__test__ec__common_init.6063+0x1418>
3000292e:	2308      	movs	r3, #8
30002930:	3303      	adds	r3, #3
30002932:	3307      	adds	r3, #7
30002934:	08db      	lsrs	r3, r3, #3
30002936:	00db      	lsls	r3, r3, #3
30002938:	ebad 0d03 	sub.w	sp, sp, r3
3000293c:	466b      	mov	r3, sp
3000293e:	3303      	adds	r3, #3
30002940:	089b      	lsrs	r3, r3, #2
30002942:	009b      	lsls	r3, r3, #2
30002944:	f8c7 312c 	str.w	r3, [r7, #300]	; 0x12c
30002948:	f8d7 312c 	ldr.w	r3, [r7, #300]	; 0x12c
3000294c:	f8d7 213c 	ldr.w	r2, [r7, #316]	; 0x13c
30002950:	601a      	str	r2, [r3, #0]
30002952:	f8d7 312c 	ldr.w	r3, [r7, #300]	; 0x12c
30002956:	f8d7 2138 	ldr.w	r2, [r7, #312]	; 0x138
3000295a:	605a      	str	r2, [r3, #4]
3000295c:	f8d7 312c 	ldr.w	r3, [r7, #300]	; 0x12c
30002960:	f103 0208 	add.w	r2, r3, #8
30002964:	f8d7 3148 	ldr.w	r3, [r7, #328]	; 0x148
30002968:	4610      	mov	r0, r2
3000296a:	460a      	mov	r2, r1
3000296c:	4619      	mov	r1, r3
3000296e:	f006 ff8d 	bl	3000988c <memcpy>
30002972:	f8d7 312c 	ldr.w	r3, [r7, #300]	; 0x12c
30002976:	3308      	adds	r3, #8
30002978:	f8c7 3128 	str.w	r3, [r7, #296]	; 0x128
3000297c:	f8d7 2144 	ldr.w	r2, [r7, #324]	; 0x144
30002980:	f8d7 3138 	ldr.w	r3, [r7, #312]	; 0x138
30002984:	429a      	cmp	r2, r3
30002986:	dd03      	ble.n	30002990 <curve__test__ec__common_init.6063+0x1478>
30002988:	214d      	movs	r1, #77	; 0x4d
3000298a:	4817      	ldr	r0, [pc, #92]	; (300029e8 <curve__test__ec__common_init.6063+0x14d0>)
3000298c:	f006 fd00 	bl	30009390 <__gnat_last_chance_handler>
30002990:	f8d7 1138 	ldr.w	r1, [r7, #312]	; 0x138
30002994:	f8d7 212c 	ldr.w	r2, [r7, #300]	; 0x12c
30002998:	f8d7 3134 	ldr.w	r3, [r7, #308]	; 0x134
3000299c:	1acb      	subs	r3, r1, r3
3000299e:	4413      	add	r3, r2
300029a0:	2200      	movs	r2, #0
300029a2:	721a      	strb	r2, [r3, #8]
300029a4:	f8d7 312c 	ldr.w	r3, [r7, #300]	; 0x12c
300029a8:	3308      	adds	r3, #8
300029aa:	2100      	movs	r1, #0
300029ac:	4618      	mov	r0, r3
300029ae:	f006 fcef 	bl	30009390 <__gnat_last_chance_handler>
300029b2:	bf00      	nop
300029b4:	3000b194 	.word	0x3000b194
300029b8:	30009d08 	.word	0x30009d08
300029bc:	3000b1f8 	.word	0x3000b1f8
300029c0:	3000b25c 	.word	0x3000b25c
300029c4:	3000b2c0 	.word	0x3000b2c0
300029c8:	3000b324 	.word	0x3000b324
300029cc:	30009e18 	.word	0x30009e18
300029d0:	3000b388 	.word	0x3000b388
300029d4:	3000b3ec 	.word	0x3000b3ec
300029d8:	3000b450 	.word	0x3000b450
300029dc:	30009e28 	.word	0x30009e28
300029e0:	3000b4b4 	.word	0x3000b4b4
300029e4:	3000bc8c 	.word	0x3000bc8c
300029e8:	30009d40 	.word	0x30009d40
300029ec:	f897 30b3 	ldrb.w	r3, [r7, #179]	; 0xb3
300029f0:	2b00      	cmp	r3, #0
300029f2:	f040 809d 	bne.w	30002b30 <curve__test__ec__common_init.6063+0x1618>
300029f6:	48b6      	ldr	r0, [pc, #728]	; (30002cd0 <curve__test__ec__common_init.6063+0x17b8>)
300029f8:	f001 fcb6 	bl	30004368 <stm32__device__s_ns_periph>
300029fc:	4603      	mov	r3, r0
300029fe:	f8c7 30c4 	str.w	r3, [r7, #196]	; 0xc4
30002a02:	f107 02c4 	add.w	r2, r7, #196	; 0xc4
30002a06:	6813      	ldr	r3, [r2, #0]
30002a08:	f8c7 315c 	str.w	r3, [r7, #348]	; 0x15c
30002a0c:	6813      	ldr	r3, [r2, #0]
30002a0e:	f003 0303 	and.w	r3, r3, #3
30002a12:	2b00      	cmp	r3, #0
30002a14:	d004      	beq.n	30002a20 <curve__test__ec__common_init.6063+0x1508>
30002a16:	f240 1177 	movw	r1, #375	; 0x177
30002a1a:	48ae      	ldr	r0, [pc, #696]	; (30002cd4 <curve__test__ec__common_init.6063+0x17bc>)
30002a1c:	f006 fcb8 	bl	30009390 <__gnat_last_chance_handler>
30002a20:	f8d7 3168 	ldr.w	r3, [r7, #360]	; 0x168
30002a24:	603b      	str	r3, [r7, #0]
30002a26:	2301      	movs	r3, #1
30002a28:	f8c7 30c8 	str.w	r3, [r7, #200]	; 0xc8
30002a2c:	6f73      	ldr	r3, [r6, #116]	; 0x74
30002a2e:	f8c7 30cc 	str.w	r3, [r7, #204]	; 0xcc
30002a32:	f107 03c8 	add.w	r3, r7, #200	; 0xc8
30002a36:	607b      	str	r3, [r7, #4]
30002a38:	f8d7 315c 	ldr.w	r3, [r7, #348]	; 0x15c
30002a3c:	f503 638c 	add.w	r3, r3, #1120	; 0x460
30002a40:	60bb      	str	r3, [r7, #8]
30002a42:	4ba5      	ldr	r3, [pc, #660]	; (30002cd8 <curve__test__ec__common_init.6063+0x17c0>)
30002a44:	60fb      	str	r3, [r7, #12]
30002a46:	46b4      	mov	ip, r6
30002a48:	e9d7 2302 	ldrd	r2, r3, [r7, #8]
30002a4c:	e9d7 0100 	ldrd	r0, r1, [r7]
30002a50:	f7fd fdbc 	bl	300005cc <curve__test__ec__copy_s_to_u32.5577>
30002a54:	6d32      	ldr	r2, [r6, #80]	; 0x50
30002a56:	f8d7 3168 	ldr.w	r3, [r7, #360]	; 0x168
30002a5a:	4413      	add	r3, r2
30002a5c:	613b      	str	r3, [r7, #16]
30002a5e:	2301      	movs	r3, #1
30002a60:	f8c7 30d0 	str.w	r3, [r7, #208]	; 0xd0
30002a64:	6f33      	ldr	r3, [r6, #112]	; 0x70
30002a66:	f8c7 30d4 	str.w	r3, [r7, #212]	; 0xd4
30002a6a:	f107 03d0 	add.w	r3, r7, #208	; 0xd0
30002a6e:	617b      	str	r3, [r7, #20]
30002a70:	f8d7 315c 	ldr.w	r3, [r7, #348]	; 0x15c
30002a74:	f203 535c 	addw	r3, r3, #1372	; 0x55c
30002a78:	61bb      	str	r3, [r7, #24]
30002a7a:	4c98      	ldr	r4, [pc, #608]	; (30002cdc <curve__test__ec__common_init.6063+0x17c4>)
30002a7c:	61fc      	str	r4, [r7, #28]
30002a7e:	46b4      	mov	ip, r6
30002a80:	e9d7 2306 	ldrd	r2, r3, [r7, #24]
30002a84:	e9d7 0104 	ldrd	r0, r1, [r7, #16]
30002a88:	f7fd fda0 	bl	300005cc <curve__test__ec__copy_s_to_u32.5577>
30002a8c:	6cf2      	ldr	r2, [r6, #76]	; 0x4c
30002a8e:	f8d7 3168 	ldr.w	r3, [r7, #360]	; 0x168
30002a92:	4413      	add	r3, r2
30002a94:	623b      	str	r3, [r7, #32]
30002a96:	2301      	movs	r3, #1
30002a98:	f8c7 30d8 	str.w	r3, [r7, #216]	; 0xd8
30002a9c:	6ef3      	ldr	r3, [r6, #108]	; 0x6c
30002a9e:	f8c7 30dc 	str.w	r3, [r7, #220]	; 0xdc
30002aa2:	f107 03d8 	add.w	r3, r7, #216	; 0xd8
30002aa6:	627b      	str	r3, [r7, #36]	; 0x24
30002aa8:	f8d7 315c 	ldr.w	r3, [r7, #348]	; 0x15c
30002aac:	f503 63b6 	add.w	r3, r3, #1456	; 0x5b0
30002ab0:	62bb      	str	r3, [r7, #40]	; 0x28
30002ab2:	62fc      	str	r4, [r7, #44]	; 0x2c
30002ab4:	46b4      	mov	ip, r6
30002ab6:	e9d7 230a 	ldrd	r2, r3, [r7, #40]	; 0x28
30002aba:	e9d7 0108 	ldrd	r0, r1, [r7, #32]
30002abe:	f7fd fd85 	bl	300005cc <curve__test__ec__copy_s_to_u32.5577>
30002ac2:	6d73      	ldr	r3, [r6, #84]	; 0x54
30002ac4:	f8d7 2168 	ldr.w	r2, [r7, #360]	; 0x168
30002ac8:	4413      	add	r3, r2
30002aca:	633b      	str	r3, [r7, #48]	; 0x30
30002acc:	2301      	movs	r3, #1
30002ace:	f8c7 30e0 	str.w	r3, [r7, #224]	; 0xe0
30002ad2:	6eb3      	ldr	r3, [r6, #104]	; 0x68
30002ad4:	f8c7 30e4 	str.w	r3, [r7, #228]	; 0xe4
30002ad8:	f107 03e0 	add.w	r3, r7, #224	; 0xe0
30002adc:	637b      	str	r3, [r7, #52]	; 0x34
30002ade:	f8d7 315c 	ldr.w	r3, [r7, #348]	; 0x15c
30002ae2:	f203 430c 	addw	r3, r3, #1036	; 0x40c
30002ae6:	63bb      	str	r3, [r7, #56]	; 0x38
30002ae8:	63fc      	str	r4, [r7, #60]	; 0x3c
30002aea:	46b4      	mov	ip, r6
30002aec:	e9d7 230e 	ldrd	r2, r3, [r7, #56]	; 0x38
30002af0:	e9d7 010c 	ldrd	r0, r1, [r7, #48]	; 0x30
30002af4:	f7fd fd6a 	bl	300005cc <curve__test__ec__copy_s_to_u32.5577>
30002af8:	6cb3      	ldr	r3, [r6, #72]	; 0x48
30002afa:	f8d7 2168 	ldr.w	r2, [r7, #360]	; 0x168
30002afe:	4413      	add	r3, r2
30002b00:	643b      	str	r3, [r7, #64]	; 0x40
30002b02:	2301      	movs	r3, #1
30002b04:	f8c7 30e8 	str.w	r3, [r7, #232]	; 0xe8
30002b08:	6e73      	ldr	r3, [r6, #100]	; 0x64
30002b0a:	f8c7 30ec 	str.w	r3, [r7, #236]	; 0xec
30002b0e:	f107 03e8 	add.w	r3, r7, #232	; 0xe8
30002b12:	647b      	str	r3, [r7, #68]	; 0x44
30002b14:	f8d7 315c 	ldr.w	r3, [r7, #348]	; 0x15c
30002b18:	f603 6394 	addw	r3, r3, #3732	; 0xe94
30002b1c:	64bb      	str	r3, [r7, #72]	; 0x48
30002b1e:	64fc      	str	r4, [r7, #76]	; 0x4c
30002b20:	46b4      	mov	ip, r6
30002b22:	e9d7 2312 	ldrd	r2, r3, [r7, #72]	; 0x48
30002b26:	e9d7 0110 	ldrd	r0, r1, [r7, #64]	; 0x40
30002b2a:	f7fd fd4f 	bl	300005cc <curve__test__ec__copy_s_to_u32.5577>
30002b2e:	e0f5      	b.n	30002d1c <curve__test__ec__common_init.6063+0x1804>
30002b30:	f897 30b3 	ldrb.w	r3, [r7, #179]	; 0xb3
30002b34:	2b01      	cmp	r3, #1
30002b36:	f040 80b5 	bne.w	30002ca4 <curve__test__ec__common_init.6063+0x178c>
30002b3a:	4865      	ldr	r0, [pc, #404]	; (30002cd0 <curve__test__ec__common_init.6063+0x17b8>)
30002b3c:	f001 fc14 	bl	30004368 <stm32__device__s_ns_periph>
30002b40:	4603      	mov	r3, r0
30002b42:	f8c7 30f0 	str.w	r3, [r7, #240]	; 0xf0
30002b46:	f107 02f0 	add.w	r2, r7, #240	; 0xf0
30002b4a:	6813      	ldr	r3, [r2, #0]
30002b4c:	f8c7 3160 	str.w	r3, [r7, #352]	; 0x160
30002b50:	6813      	ldr	r3, [r2, #0]
30002b52:	f003 0303 	and.w	r3, r3, #3
30002b56:	2b00      	cmp	r3, #0
30002b58:	d004      	beq.n	30002b64 <curve__test__ec__common_init.6063+0x164c>
30002b5a:	f240 1181 	movw	r1, #385	; 0x181
30002b5e:	485d      	ldr	r0, [pc, #372]	; (30002cd4 <curve__test__ec__common_init.6063+0x17bc>)
30002b60:	f006 fc16 	bl	30009390 <__gnat_last_chance_handler>
30002b64:	f8d7 3168 	ldr.w	r3, [r7, #360]	; 0x168
30002b68:	653b      	str	r3, [r7, #80]	; 0x50
30002b6a:	2301      	movs	r3, #1
30002b6c:	f8c7 30f4 	str.w	r3, [r7, #244]	; 0xf4
30002b70:	6f73      	ldr	r3, [r6, #116]	; 0x74
30002b72:	f8c7 30f8 	str.w	r3, [r7, #248]	; 0xf8
30002b76:	f107 03f4 	add.w	r3, r7, #244	; 0xf4
30002b7a:	657b      	str	r3, [r7, #84]	; 0x54
30002b7c:	f8d7 3160 	ldr.w	r3, [r7, #352]	; 0x160
30002b80:	f503 6397 	add.w	r3, r3, #1208	; 0x4b8
30002b84:	65bb      	str	r3, [r7, #88]	; 0x58
30002b86:	4b56      	ldr	r3, [pc, #344]	; (30002ce0 <curve__test__ec__common_init.6063+0x17c8>)
30002b88:	65fb      	str	r3, [r7, #92]	; 0x5c
30002b8a:	46b4      	mov	ip, r6
30002b8c:	e9d7 2316 	ldrd	r2, r3, [r7, #88]	; 0x58
30002b90:	e9d7 0114 	ldrd	r0, r1, [r7, #80]	; 0x50
30002b94:	f7fd fd1a 	bl	300005cc <curve__test__ec__copy_s_to_u32.5577>
30002b98:	6d32      	ldr	r2, [r6, #80]	; 0x50
30002b9a:	f8d7 3168 	ldr.w	r3, [r7, #360]	; 0x168
30002b9e:	4413      	add	r3, r2
30002ba0:	663b      	str	r3, [r7, #96]	; 0x60
30002ba2:	2301      	movs	r3, #1
30002ba4:	f8c7 30fc 	str.w	r3, [r7, #252]	; 0xfc
30002ba8:	6f33      	ldr	r3, [r6, #112]	; 0x70
30002baa:	f8c7 3100 	str.w	r3, [r7, #256]	; 0x100
30002bae:	f107 03fc 	add.w	r3, r7, #252	; 0xfc
30002bb2:	667b      	str	r3, [r7, #100]	; 0x64
30002bb4:	f8d7 3160 	ldr.w	r3, [r7, #352]	; 0x160
30002bb8:	f503 63bd 	add.w	r3, r3, #1512	; 0x5e8
30002bbc:	66bb      	str	r3, [r7, #104]	; 0x68
30002bbe:	4c47      	ldr	r4, [pc, #284]	; (30002cdc <curve__test__ec__common_init.6063+0x17c4>)
30002bc0:	66fc      	str	r4, [r7, #108]	; 0x6c
30002bc2:	46b4      	mov	ip, r6
30002bc4:	e9d7 231a 	ldrd	r2, r3, [r7, #104]	; 0x68
30002bc8:	e9d7 0118 	ldrd	r0, r1, [r7, #96]	; 0x60
30002bcc:	f7fd fcfe 	bl	300005cc <curve__test__ec__copy_s_to_u32.5577>
30002bd0:	6cf2      	ldr	r2, [r6, #76]	; 0x4c
30002bd2:	f8d7 3168 	ldr.w	r3, [r7, #360]	; 0x168
30002bd6:	4413      	add	r3, r2
30002bd8:	673b      	str	r3, [r7, #112]	; 0x70
30002bda:	2301      	movs	r3, #1
30002bdc:	f8c7 3104 	str.w	r3, [r7, #260]	; 0x104
30002be0:	6ef3      	ldr	r3, [r6, #108]	; 0x6c
30002be2:	f8c7 3108 	str.w	r3, [r7, #264]	; 0x108
30002be6:	f507 7382 	add.w	r3, r7, #260	; 0x104
30002bea:	677b      	str	r3, [r7, #116]	; 0x74
30002bec:	f8d7 3160 	ldr.w	r3, [r7, #352]	; 0x160
30002bf0:	f203 633c 	addw	r3, r3, #1596	; 0x63c
30002bf4:	67bb      	str	r3, [r7, #120]	; 0x78
30002bf6:	67fc      	str	r4, [r7, #124]	; 0x7c
30002bf8:	46b4      	mov	ip, r6
30002bfa:	e9d7 231e 	ldrd	r2, r3, [r7, #120]	; 0x78
30002bfe:	e9d7 011c 	ldrd	r0, r1, [r7, #112]	; 0x70
30002c02:	f7fd fce3 	bl	300005cc <curve__test__ec__copy_s_to_u32.5577>
30002c06:	6cb3      	ldr	r3, [r6, #72]	; 0x48
30002c08:	f8d7 2168 	ldr.w	r2, [r7, #360]	; 0x168
30002c0c:	4413      	add	r3, r2
30002c0e:	f8c7 3080 	str.w	r3, [r7, #128]	; 0x80
30002c12:	2301      	movs	r3, #1
30002c14:	f8c7 310c 	str.w	r3, [r7, #268]	; 0x10c
30002c18:	6e73      	ldr	r3, [r6, #100]	; 0x64
30002c1a:	f8c7 3110 	str.w	r3, [r7, #272]	; 0x110
30002c1e:	f507 7386 	add.w	r3, r7, #268	; 0x10c
30002c22:	f8c7 3084 	str.w	r3, [r7, #132]	; 0x84
30002c26:	f8d7 3160 	ldr.w	r3, [r7, #352]	; 0x160
30002c2a:	f603 535c 	addw	r3, r3, #3420	; 0xd5c
30002c2e:	f8c7 3088 	str.w	r3, [r7, #136]	; 0x88
30002c32:	f8c7 408c 	str.w	r4, [r7, #140]	; 0x8c
30002c36:	46b4      	mov	ip, r6
30002c38:	e9d7 2322 	ldrd	r2, r3, [r7, #136]	; 0x88
30002c3c:	e9d7 0120 	ldrd	r0, r1, [r7, #128]	; 0x80
30002c40:	f7fd fcc4 	bl	300005cc <curve__test__ec__copy_s_to_u32.5577>
30002c44:	f897 316f 	ldrb.w	r3, [r7, #367]	; 0x16f
30002c48:	2b00      	cmp	r3, #0
30002c4a:	d00a      	beq.n	30002c62 <curve__test__ec__common_init.6063+0x174a>
30002c4c:	f8d7 3160 	ldr.w	r3, [r7, #352]	; 0x160
30002c50:	2201      	movs	r2, #1
30002c52:	f8c3 245c 	str.w	r2, [r3, #1116]	; 0x45c
30002c56:	f8d7 3160 	ldr.w	r3, [r7, #352]	; 0x160
30002c5a:	2203      	movs	r2, #3
30002c5c:	f8c3 2460 	str.w	r2, [r3, #1120]	; 0x460
30002c60:	e05c      	b.n	30002d1c <curve__test__ec__common_init.6063+0x1804>
30002c62:	6d73      	ldr	r3, [r6, #84]	; 0x54
30002c64:	f8d7 2168 	ldr.w	r2, [r7, #360]	; 0x168
30002c68:	4413      	add	r3, r2
30002c6a:	f8c7 3090 	str.w	r3, [r7, #144]	; 0x90
30002c6e:	2301      	movs	r3, #1
30002c70:	f8c7 3114 	str.w	r3, [r7, #276]	; 0x114
30002c74:	6eb3      	ldr	r3, [r6, #104]	; 0x68
30002c76:	f8c7 3118 	str.w	r3, [r7, #280]	; 0x118
30002c7a:	f507 738a 	add.w	r3, r7, #276	; 0x114
30002c7e:	f8c7 3094 	str.w	r3, [r7, #148]	; 0x94
30002c82:	f8d7 3160 	ldr.w	r3, [r7, #352]	; 0x160
30002c86:	f503 638c 	add.w	r3, r3, #1120	; 0x460
30002c8a:	f8c7 3098 	str.w	r3, [r7, #152]	; 0x98
30002c8e:	4b13      	ldr	r3, [pc, #76]	; (30002cdc <curve__test__ec__common_init.6063+0x17c4>)
30002c90:	f8c7 309c 	str.w	r3, [r7, #156]	; 0x9c
30002c94:	46b4      	mov	ip, r6
30002c96:	e9d7 2326 	ldrd	r2, r3, [r7, #152]	; 0x98
30002c9a:	e9d7 0124 	ldrd	r0, r1, [r7, #144]	; 0x90
30002c9e:	f7fd fc95 	bl	300005cc <curve__test__ec__copy_s_to_u32.5577>
30002ca2:	e03b      	b.n	30002d1c <curve__test__ec__common_init.6063+0x1804>
30002ca4:	480a      	ldr	r0, [pc, #40]	; (30002cd0 <curve__test__ec__common_init.6063+0x17b8>)
30002ca6:	f001 fb5f 	bl	30004368 <stm32__device__s_ns_periph>
30002caa:	4603      	mov	r3, r0
30002cac:	f8c7 311c 	str.w	r3, [r7, #284]	; 0x11c
30002cb0:	f507 738e 	add.w	r3, r7, #284	; 0x11c
30002cb4:	681a      	ldr	r2, [r3, #0]
30002cb6:	f8c7 2164 	str.w	r2, [r7, #356]	; 0x164
30002cba:	681b      	ldr	r3, [r3, #0]
30002cbc:	f003 0303 	and.w	r3, r3, #3
30002cc0:	2b00      	cmp	r3, #0
30002cc2:	d00f      	beq.n	30002ce4 <curve__test__ec__common_init.6063+0x17cc>
30002cc4:	f44f 71c8 	mov.w	r1, #400	; 0x190
30002cc8:	4802      	ldr	r0, [pc, #8]	; (30002cd4 <curve__test__ec__common_init.6063+0x17bc>)
30002cca:	f006 fb61 	bl	30009390 <__gnat_last_chance_handler>
30002cce:	bf00      	nop
30002cd0:	420c2000 	.word	0x420c2000
30002cd4:	30009d08 	.word	0x30009d08
30002cd8:	3000b4bc 	.word	0x3000b4bc
30002cdc:	3000b4c4 	.word	0x3000b4c4
30002ce0:	3000b4cc 	.word	0x3000b4cc
30002ce4:	f8d7 3168 	ldr.w	r3, [r7, #360]	; 0x168
30002ce8:	4699      	mov	r9, r3
30002cea:	2301      	movs	r3, #1
30002cec:	f8c7 3120 	str.w	r3, [r7, #288]	; 0x120
30002cf0:	6f73      	ldr	r3, [r6, #116]	; 0x74
30002cf2:	f8c7 3124 	str.w	r3, [r7, #292]	; 0x124
30002cf6:	f507 7390 	add.w	r3, r7, #288	; 0x120
30002cfa:	469a      	mov	sl, r3
30002cfc:	f8d7 3164 	ldr.w	r3, [r7, #356]	; 0x164
30002d00:	f603 535c 	addw	r3, r3, #3420	; 0xd5c
30002d04:	f8c7 30a0 	str.w	r3, [r7, #160]	; 0xa0
30002d08:	4b0e      	ldr	r3, [pc, #56]	; (30002d44 <curve__test__ec__common_init.6063+0x182c>)
30002d0a:	f8c7 30a4 	str.w	r3, [r7, #164]	; 0xa4
30002d0e:	46b4      	mov	ip, r6
30002d10:	e9d7 2328 	ldrd	r2, r3, [r7, #160]	; 0xa0
30002d14:	4648      	mov	r0, r9
30002d16:	4651      	mov	r1, sl
30002d18:	f7fd fc58 	bl	300005cc <curve__test__ec__copy_s_to_u32.5577>
30002d1c:	6c73      	ldr	r3, [r6, #68]	; 0x44
30002d1e:	f8d7 10b4 	ldr.w	r1, [r7, #180]	; 0xb4
30002d22:	f8d7 2168 	ldr.w	r2, [r7, #360]	; 0x168
30002d26:	4608      	mov	r0, r1
30002d28:	4611      	mov	r1, r2
30002d2a:	461a      	mov	r2, r3
30002d2c:	f006 fdae 	bl	3000988c <memcpy>
30002d30:	46dd      	mov	sp, fp
30002d32:	bf00      	nop
30002d34:	f8d7 00b4 	ldr.w	r0, [r7, #180]	; 0xb4
30002d38:	f507 77ba 	add.w	r7, r7, #372	; 0x174
30002d3c:	46bd      	mov	sp, r7
30002d3e:	e8bd 8ff0 	ldmia.w	sp!, {r4, r5, r6, r7, r8, r9, sl, fp, pc}
30002d42:	bf00      	nop
30002d44:	3000b4c4 	.word	0x3000b4c4

30002d48 <curve__test__ec__normalize__2.5610>:
30002d48:	b5b0      	push	{r4, r5, r7, lr}
30002d4a:	b08c      	sub	sp, #48	; 0x30
30002d4c:	af00      	add	r7, sp, #0
30002d4e:	60f8      	str	r0, [r7, #12]
30002d50:	60b9      	str	r1, [r7, #8]
30002d52:	4664      	mov	r4, ip
30002d54:	f8c7 c004 	str.w	ip, [r7, #4]
30002d58:	466b      	mov	r3, sp
30002d5a:	461d      	mov	r5, r3
30002d5c:	6fe3      	ldr	r3, [r4, #124]	; 0x7c
30002d5e:	f5a3 7380 	sub.w	r3, r3, #256	; 0x100
30002d62:	08db      	lsrs	r3, r3, #3
30002d64:	623b      	str	r3, [r7, #32]
30002d66:	6b63      	ldr	r3, [r4, #52]	; 0x34
30002d68:	ea23 73e3 	bic.w	r3, r3, r3, asr #31
30002d6c:	3307      	adds	r3, #7
30002d6e:	08db      	lsrs	r3, r3, #3
30002d70:	00db      	lsls	r3, r3, #3
30002d72:	ebad 0d03 	sub.w	sp, sp, r3
30002d76:	466b      	mov	r3, sp
30002d78:	3300      	adds	r3, #0
30002d7a:	61fb      	str	r3, [r7, #28]
30002d7c:	2300      	movs	r3, #0
30002d7e:	627b      	str	r3, [r7, #36]	; 0x24
30002d80:	6fe3      	ldr	r3, [r4, #124]	; 0x7c
30002d82:	f003 0307 	and.w	r3, r3, #7
30002d86:	2b00      	cmp	r3, #0
30002d88:	d001      	beq.n	30002d8e <curve__test__ec__normalize__2.5610+0x46>
30002d8a:	2302      	movs	r3, #2
30002d8c:	627b      	str	r3, [r7, #36]	; 0x24
30002d8e:	6fe3      	ldr	r3, [r4, #124]	; 0x7c
30002d90:	f5b3 7f80 	cmp.w	r3, #256	; 0x100
30002d94:	d97b      	bls.n	30002e8e <curve__test__ec__normalize__2.5610+0x146>
30002d96:	6b23      	ldr	r3, [r4, #48]	; 0x30
30002d98:	2b00      	cmp	r3, #0
30002d9a:	dc04      	bgt.n	30002da6 <curve__test__ec__normalize__2.5610+0x5e>
30002d9c:	f44f 71d9 	mov.w	r1, #434	; 0x1b2
30002da0:	485f      	ldr	r0, [pc, #380]	; (30002f20 <curve__test__ec__normalize__2.5610+0x1d8>)
30002da2:	f006 faf5 	bl	30009390 <__gnat_last_chance_handler>
30002da6:	6b23      	ldr	r3, [r4, #48]	; 0x30
30002da8:	ea23 73e3 	bic.w	r3, r3, r3, asr #31
30002dac:	3307      	adds	r3, #7
30002dae:	08db      	lsrs	r3, r3, #3
30002db0:	00db      	lsls	r3, r3, #3
30002db2:	ebad 0d03 	sub.w	sp, sp, r3
30002db6:	466b      	mov	r3, sp
30002db8:	3300      	adds	r3, #0
30002dba:	617b      	str	r3, [r7, #20]
30002dbc:	697b      	ldr	r3, [r7, #20]
30002dbe:	2230      	movs	r2, #48	; 0x30
30002dc0:	701a      	strb	r2, [r3, #0]
30002dc2:	2301      	movs	r3, #1
30002dc4:	6b22      	ldr	r2, [r4, #48]	; 0x30
30002dc6:	4293      	cmp	r3, r2
30002dc8:	da07      	bge.n	30002dda <curve__test__ec__normalize__2.5610+0x92>
30002dca:	3301      	adds	r3, #1
30002dcc:	4619      	mov	r1, r3
30002dce:	697a      	ldr	r2, [r7, #20]
30002dd0:	440a      	add	r2, r1
30002dd2:	2130      	movs	r1, #48	; 0x30
30002dd4:	f802 1c01 	strb.w	r1, [r2, #-1]
30002dd8:	e7f4      	b.n	30002dc4 <curve__test__ec__normalize__2.5610+0x7c>
30002dda:	6b63      	ldr	r3, [r4, #52]	; 0x34
30002ddc:	ea23 72e3 	bic.w	r2, r3, r3, asr #31
30002de0:	6b23      	ldr	r3, [r4, #48]	; 0x30
30002de2:	ea23 73e3 	bic.w	r3, r3, r3, asr #31
30002de6:	429a      	cmp	r2, r3
30002de8:	d004      	beq.n	30002df4 <curve__test__ec__normalize__2.5610+0xac>
30002dea:	f44f 71d9 	mov.w	r1, #434	; 0x1b2
30002dee:	484c      	ldr	r0, [pc, #304]	; (30002f20 <curve__test__ec__normalize__2.5610+0x1d8>)
30002df0:	f006 face 	bl	30009390 <__gnat_last_chance_handler>
30002df4:	6ae3      	ldr	r3, [r4, #44]	; 0x2c
30002df6:	69f9      	ldr	r1, [r7, #28]
30002df8:	697a      	ldr	r2, [r7, #20]
30002dfa:	4608      	mov	r0, r1
30002dfc:	4611      	mov	r1, r2
30002dfe:	461a      	mov	r2, r3
30002e00:	f006 fd44 	bl	3000988c <memcpy>
30002e04:	2301      	movs	r3, #1
30002e06:	62bb      	str	r3, [r7, #40]	; 0x28
30002e08:	6abb      	ldr	r3, [r7, #40]	; 0x28
30002e0a:	2b40      	cmp	r3, #64	; 0x40
30002e0c:	dc7a      	bgt.n	30002f04 <curve__test__ec__normalize__2.5610+0x1bc>
30002e0e:	6a3b      	ldr	r3, [r7, #32]
30002e10:	005b      	lsls	r3, r3, #1
30002e12:	461a      	mov	r2, r3
30002e14:	2a00      	cmp	r2, #0
30002e16:	da04      	bge.n	30002e22 <curve__test__ec__normalize__2.5610+0xda>
30002e18:	f44f 71da 	mov.w	r1, #436	; 0x1b4
30002e1c:	4840      	ldr	r0, [pc, #256]	; (30002f20 <curve__test__ec__normalize__2.5610+0x1d8>)
30002e1e:	f006 fab7 	bl	30009390 <__gnat_last_chance_handler>
30002e22:	461a      	mov	r2, r3
30002e24:	2100      	movs	r1, #0
30002e26:	6abb      	ldr	r3, [r7, #40]	; 0x28
30002e28:	189b      	adds	r3, r3, r2
30002e2a:	d700      	bvc.n	30002e2e <curve__test__ec__normalize__2.5610+0xe6>
30002e2c:	2101      	movs	r1, #1
30002e2e:	461a      	mov	r2, r3
30002e30:	460b      	mov	r3, r1
30002e32:	2b00      	cmp	r3, #0
30002e34:	d004      	beq.n	30002e40 <curve__test__ec__normalize__2.5610+0xf8>
30002e36:	f44f 71da 	mov.w	r1, #436	; 0x1b4
30002e3a:	4839      	ldr	r0, [pc, #228]	; (30002f20 <curve__test__ec__normalize__2.5610+0x1d8>)
30002e3c:	f006 faa8 	bl	30009390 <__gnat_last_chance_handler>
30002e40:	2100      	movs	r1, #0
30002e42:	6a7b      	ldr	r3, [r7, #36]	; 0x24
30002e44:	18d3      	adds	r3, r2, r3
30002e46:	d700      	bvc.n	30002e4a <curve__test__ec__normalize__2.5610+0x102>
30002e48:	2101      	movs	r1, #1
30002e4a:	461a      	mov	r2, r3
30002e4c:	460b      	mov	r3, r1
30002e4e:	2b00      	cmp	r3, #0
30002e50:	d004      	beq.n	30002e5c <curve__test__ec__normalize__2.5610+0x114>
30002e52:	f44f 71da 	mov.w	r1, #436	; 0x1b4
30002e56:	4832      	ldr	r0, [pc, #200]	; (30002f20 <curve__test__ec__normalize__2.5610+0x1d8>)
30002e58:	f006 fa9a 	bl	30009390 <__gnat_last_chance_handler>
30002e5c:	4613      	mov	r3, r2
30002e5e:	2b00      	cmp	r3, #0
30002e60:	dd02      	ble.n	30002e68 <curve__test__ec__normalize__2.5610+0x120>
30002e62:	6b62      	ldr	r2, [r4, #52]	; 0x34
30002e64:	4293      	cmp	r3, r2
30002e66:	dd04      	ble.n	30002e72 <curve__test__ec__normalize__2.5610+0x12a>
30002e68:	f44f 71da 	mov.w	r1, #436	; 0x1b4
30002e6c:	482c      	ldr	r0, [pc, #176]	; (30002f20 <curve__test__ec__normalize__2.5610+0x1d8>)
30002e6e:	f006 fa8f 	bl	30009390 <__gnat_last_chance_handler>
30002e72:	6aba      	ldr	r2, [r7, #40]	; 0x28
30002e74:	4619      	mov	r1, r3
30002e76:	68bb      	ldr	r3, [r7, #8]
30002e78:	4413      	add	r3, r2
30002e7a:	f813 2c01 	ldrb.w	r2, [r3, #-1]
30002e7e:	69fb      	ldr	r3, [r7, #28]
30002e80:	440b      	add	r3, r1
30002e82:	f803 2c01 	strb.w	r2, [r3, #-1]
30002e86:	6abb      	ldr	r3, [r7, #40]	; 0x28
30002e88:	3301      	adds	r3, #1
30002e8a:	62bb      	str	r3, [r7, #40]	; 0x28
30002e8c:	e7bc      	b.n	30002e08 <curve__test__ec__normalize__2.5610+0xc0>
30002e8e:	6b63      	ldr	r3, [r4, #52]	; 0x34
30002e90:	61bb      	str	r3, [r7, #24]
30002e92:	69bb      	ldr	r3, [r7, #24]
30002e94:	2b00      	cmp	r3, #0
30002e96:	dd35      	ble.n	30002f04 <curve__test__ec__normalize__2.5610+0x1bc>
30002e98:	2301      	movs	r3, #1
30002e9a:	62fb      	str	r3, [r7, #44]	; 0x2c
30002e9c:	2100      	movs	r1, #0
30002e9e:	6afa      	ldr	r2, [r7, #44]	; 0x2c
30002ea0:	6a7b      	ldr	r3, [r7, #36]	; 0x24
30002ea2:	18d3      	adds	r3, r2, r3
30002ea4:	d700      	bvc.n	30002ea8 <curve__test__ec__normalize__2.5610+0x160>
30002ea6:	2101      	movs	r1, #1
30002ea8:	461a      	mov	r2, r3
30002eaa:	460b      	mov	r3, r1
30002eac:	2b00      	cmp	r3, #0
30002eae:	d004      	beq.n	30002eba <curve__test__ec__normalize__2.5610+0x172>
30002eb0:	f44f 71dc 	mov.w	r1, #440	; 0x1b8
30002eb4:	481a      	ldr	r0, [pc, #104]	; (30002f20 <curve__test__ec__normalize__2.5610+0x1d8>)
30002eb6:	f006 fa6b 	bl	30009390 <__gnat_last_chance_handler>
30002eba:	4613      	mov	r3, r2
30002ebc:	2b00      	cmp	r3, #0
30002ebe:	dd02      	ble.n	30002ec6 <curve__test__ec__normalize__2.5610+0x17e>
30002ec0:	6b62      	ldr	r2, [r4, #52]	; 0x34
30002ec2:	4293      	cmp	r3, r2
30002ec4:	dd04      	ble.n	30002ed0 <curve__test__ec__normalize__2.5610+0x188>
30002ec6:	f44f 71dc 	mov.w	r1, #440	; 0x1b8
30002eca:	4815      	ldr	r0, [pc, #84]	; (30002f20 <curve__test__ec__normalize__2.5610+0x1d8>)
30002ecc:	f006 fa60 	bl	30009390 <__gnat_last_chance_handler>
30002ed0:	6afa      	ldr	r2, [r7, #44]	; 0x2c
30002ed2:	2a40      	cmp	r2, #64	; 0x40
30002ed4:	dd04      	ble.n	30002ee0 <curve__test__ec__normalize__2.5610+0x198>
30002ed6:	f44f 71dc 	mov.w	r1, #440	; 0x1b8
30002eda:	4811      	ldr	r0, [pc, #68]	; (30002f20 <curve__test__ec__normalize__2.5610+0x1d8>)
30002edc:	f006 fa58 	bl	30009390 <__gnat_last_chance_handler>
30002ee0:	6afa      	ldr	r2, [r7, #44]	; 0x2c
30002ee2:	4619      	mov	r1, r3
30002ee4:	68bb      	ldr	r3, [r7, #8]
30002ee6:	4413      	add	r3, r2
30002ee8:	f813 2c01 	ldrb.w	r2, [r3, #-1]
30002eec:	69fb      	ldr	r3, [r7, #28]
30002eee:	440b      	add	r3, r1
30002ef0:	f803 2c01 	strb.w	r2, [r3, #-1]
30002ef4:	6afa      	ldr	r2, [r7, #44]	; 0x2c
30002ef6:	69bb      	ldr	r3, [r7, #24]
30002ef8:	429a      	cmp	r2, r3
30002efa:	d003      	beq.n	30002f04 <curve__test__ec__normalize__2.5610+0x1bc>
30002efc:	6afb      	ldr	r3, [r7, #44]	; 0x2c
30002efe:	3301      	adds	r3, #1
30002f00:	62fb      	str	r3, [r7, #44]	; 0x2c
30002f02:	e7cb      	b.n	30002e9c <curve__test__ec__normalize__2.5610+0x154>
30002f04:	6ae3      	ldr	r3, [r4, #44]	; 0x2c
30002f06:	68f9      	ldr	r1, [r7, #12]
30002f08:	69fa      	ldr	r2, [r7, #28]
30002f0a:	4608      	mov	r0, r1
30002f0c:	4611      	mov	r1, r2
30002f0e:	461a      	mov	r2, r3
30002f10:	f006 fcbc 	bl	3000988c <memcpy>
30002f14:	46ad      	mov	sp, r5
30002f16:	bf00      	nop
30002f18:	68f8      	ldr	r0, [r7, #12]
30002f1a:	3730      	adds	r7, #48	; 0x30
30002f1c:	46bd      	mov	sp, r7
30002f1e:	bdb0      	pop	{r4, r5, r7, pc}
30002f20:	30009d08 	.word	0x30009d08

30002f24 <curve__test__ec__startpka.6060>:
30002f24:	b590      	push	{r4, r7, lr}
30002f26:	b083      	sub	sp, #12
30002f28:	af00      	add	r7, sp, #0
30002f2a:	4603      	mov	r3, r0
30002f2c:	71fb      	strb	r3, [r7, #7]
30002f2e:	4664      	mov	r4, ip
30002f30:	f8c7 c000 	str.w	ip, [r7]
30002f34:	46a4      	mov	ip, r4
30002f36:	f7fe fa05 	bl	30001344 <curve__test__ec__enable_pka.5596>
30002f3a:	6fa3      	ldr	r3, [r4, #120]	; 0x78
30002f3c:	681b      	ldr	r3, [r3, #0]
30002f3e:	79fa      	ldrb	r2, [r7, #7]
30002f40:	f002 023f 	and.w	r2, r2, #63	; 0x3f
30002f44:	b2d2      	uxtb	r2, r2
30002f46:	f362 230d 	bfi	r3, r2, #8, #6
30002f4a:	6fa2      	ldr	r2, [r4, #120]	; 0x78
30002f4c:	6013      	str	r3, [r2, #0]
30002f4e:	6fa3      	ldr	r3, [r4, #120]	; 0x78
30002f50:	681b      	ldr	r3, [r3, #0]
30002f52:	f043 0302 	orr.w	r3, r3, #2
30002f56:	6fa2      	ldr	r2, [r4, #120]	; 0x78
30002f58:	6013      	str	r3, [r2, #0]
30002f5a:	6fa3      	ldr	r3, [r4, #120]	; 0x78
30002f5c:	3304      	adds	r3, #4
30002f5e:	681b      	ldr	r3, [r3, #0]
30002f60:	f3c3 4307 	ubfx	r3, r3, #16, #8
30002f64:	b2db      	uxtb	r3, r3
30002f66:	f003 0302 	and.w	r3, r3, #2
30002f6a:	b2db      	uxtb	r3, r3
30002f6c:	2b00      	cmp	r3, #0
30002f6e:	d100      	bne.n	30002f72 <curve__test__ec__startpka.6060+0x4e>
30002f70:	e7f3      	b.n	30002f5a <curve__test__ec__startpka.6060+0x36>
30002f72:	370c      	adds	r7, #12
30002f74:	46bd      	mov	sp, r7
30002f76:	bd90      	pop	{r4, r7, pc}

30002f78 <curve__test__ec__ecdsa_sign__3.6075>:
30002f78:	b5f0      	push	{r4, r5, r6, r7, lr}
30002f7a:	b0a1      	sub	sp, #132	; 0x84
30002f7c:	af00      	add	r7, sp, #0
30002f7e:	64f8      	str	r0, [r7, #76]	; 0x4c
30002f80:	64b9      	str	r1, [r7, #72]	; 0x48
30002f82:	647a      	str	r2, [r7, #68]	; 0x44
30002f84:	643b      	str	r3, [r7, #64]	; 0x40
30002f86:	4664      	mov	r4, ip
30002f88:	f8c7 c03c 	str.w	ip, [r7, #60]	; 0x3c
30002f8c:	2301      	movs	r3, #1
30002f8e:	f887 307f 	strb.w	r3, [r7, #127]	; 0x7f
30002f92:	4860      	ldr	r0, [pc, #384]	; (30003114 <curve__test__ec__ecdsa_sign__3.6075+0x19c>)
30002f94:	f001 f9e8 	bl	30004368 <stm32__device__s_ns_periph>
30002f98:	4603      	mov	r3, r0
30002f9a:	657b      	str	r3, [r7, #84]	; 0x54
30002f9c:	f107 0254 	add.w	r2, r7, #84	; 0x54
30002fa0:	6813      	ldr	r3, [r2, #0]
30002fa2:	67bb      	str	r3, [r7, #120]	; 0x78
30002fa4:	6813      	ldr	r3, [r2, #0]
30002fa6:	f003 0303 	and.w	r3, r3, #3
30002faa:	2b00      	cmp	r3, #0
30002fac:	d004      	beq.n	30002fb8 <curve__test__ec__ecdsa_sign__3.6075+0x40>
30002fae:	f240 11fb 	movw	r1, #507	; 0x1fb
30002fb2:	4859      	ldr	r0, [pc, #356]	; (30003118 <curve__test__ec__ecdsa_sign__3.6075+0x1a0>)
30002fb4:	f006 f9ec 	bl	30009390 <__gnat_last_chance_handler>
30002fb8:	46a4      	mov	ip, r4
30002fba:	f7fe f9fb 	bl	300013b4 <curve__test__ec__disable_pka.5598>
30002fbe:	46a4      	mov	ip, r4
30002fc0:	f7fe fa7a 	bl	300014b8 <curve__test__ec__clear_ram.5604>
30002fc4:	6aa3      	ldr	r3, [r4, #40]	; 0x28
30002fc6:	46a4      	mov	ip, r4
30002fc8:	2100      	movs	r1, #0
30002fca:	4618      	mov	r0, r3
30002fcc:	f7fe faa4 	bl	30001518 <curve__test__ec__common_init.6063>
30002fd0:	6c7d      	ldr	r5, [r7, #68]	; 0x44
30002fd2:	2301      	movs	r3, #1
30002fd4:	65bb      	str	r3, [r7, #88]	; 0x58
30002fd6:	f8d4 3084 	ldr.w	r3, [r4, #132]	; 0x84
30002fda:	65fb      	str	r3, [r7, #92]	; 0x5c
30002fdc:	f107 0358 	add.w	r3, r7, #88	; 0x58
30002fe0:	461e      	mov	r6, r3
30002fe2:	6fbb      	ldr	r3, [r7, #120]	; 0x78
30002fe4:	f503 63a1 	add.w	r3, r3, #1288	; 0x508
30002fe8:	603b      	str	r3, [r7, #0]
30002fea:	4b4c      	ldr	r3, [pc, #304]	; (3000311c <curve__test__ec__ecdsa_sign__3.6075+0x1a4>)
30002fec:	607b      	str	r3, [r7, #4]
30002fee:	46a4      	mov	ip, r4
30002ff0:	e9d7 2300 	ldrd	r2, r3, [r7]
30002ff4:	4628      	mov	r0, r5
30002ff6:	4631      	mov	r1, r6
30002ff8:	f7fd fae8 	bl	300005cc <curve__test__ec__copy_s_to_u32.5577>
30002ffc:	466b      	mov	r3, sp
30002ffe:	461d      	mov	r5, r3
30003000:	6b63      	ldr	r3, [r4, #52]	; 0x34
30003002:	ea23 73e3 	bic.w	r3, r3, r3, asr #31
30003006:	3307      	adds	r3, #7
30003008:	08db      	lsrs	r3, r3, #3
3000300a:	00db      	lsls	r3, r3, #3
3000300c:	ebad 0d03 	sub.w	sp, sp, r3
30003010:	466b      	mov	r3, sp
30003012:	3300      	adds	r3, #0
30003014:	677b      	str	r3, [r7, #116]	; 0x74
30003016:	6f7b      	ldr	r3, [r7, #116]	; 0x74
30003018:	46a4      	mov	ip, r4
3000301a:	6cb9      	ldr	r1, [r7, #72]	; 0x48
3000301c:	4618      	mov	r0, r3
3000301e:	f7ff fe93 	bl	30002d48 <curve__test__ec__normalize__2.5610>
30003022:	6f7a      	ldr	r2, [r7, #116]	; 0x74
30003024:	60ba      	str	r2, [r7, #8]
30003026:	2301      	movs	r3, #1
30003028:	663b      	str	r3, [r7, #96]	; 0x60
3000302a:	6b63      	ldr	r3, [r4, #52]	; 0x34
3000302c:	667b      	str	r3, [r7, #100]	; 0x64
3000302e:	f107 0360 	add.w	r3, r7, #96	; 0x60
30003032:	60fb      	str	r3, [r7, #12]
30003034:	6fbb      	ldr	r3, [r7, #120]	; 0x78
30003036:	f603 53e8 	addw	r3, r3, #3560	; 0xde8
3000303a:	613b      	str	r3, [r7, #16]
3000303c:	4b37      	ldr	r3, [pc, #220]	; (3000311c <curve__test__ec__ecdsa_sign__3.6075+0x1a4>)
3000303e:	617b      	str	r3, [r7, #20]
30003040:	46a4      	mov	ip, r4
30003042:	e9d7 2304 	ldrd	r2, r3, [r7, #16]
30003046:	e9d7 0102 	ldrd	r0, r1, [r7, #8]
3000304a:	f7fd fabf 	bl	300005cc <curve__test__ec__copy_s_to_u32.5577>
3000304e:	46ad      	mov	sp, r5
30003050:	6cfb      	ldr	r3, [r7, #76]	; 0x4c
30003052:	61bb      	str	r3, [r7, #24]
30003054:	2301      	movs	r3, #1
30003056:	66bb      	str	r3, [r7, #104]	; 0x68
30003058:	f8d4 3084 	ldr.w	r3, [r4, #132]	; 0x84
3000305c:	66fb      	str	r3, [r7, #108]	; 0x6c
3000305e:	f107 0368 	add.w	r3, r7, #104	; 0x68
30003062:	61fb      	str	r3, [r7, #28]
30003064:	6fbb      	ldr	r3, [r7, #120]	; 0x78
30003066:	f603 633c 	addw	r3, r3, #3644	; 0xe3c
3000306a:	623b      	str	r3, [r7, #32]
3000306c:	4b2c      	ldr	r3, [pc, #176]	; (30003120 <curve__test__ec__ecdsa_sign__3.6075+0x1a8>)
3000306e:	627b      	str	r3, [r7, #36]	; 0x24
30003070:	46a4      	mov	ip, r4
30003072:	e9d7 2308 	ldrd	r2, r3, [r7, #32]
30003076:	e9d7 0106 	ldrd	r0, r1, [r7, #24]
3000307a:	f7fd faa7 	bl	300005cc <curve__test__ec__copy_s_to_u32.5577>
3000307e:	6fe2      	ldr	r2, [r4, #124]	; 0x7c
30003080:	6fbb      	ldr	r3, [r7, #120]	; 0x78
30003082:	f8c3 2400 	str.w	r2, [r3, #1024]	; 0x400
30003086:	6fe2      	ldr	r2, [r4, #124]	; 0x7c
30003088:	6fbb      	ldr	r3, [r7, #120]	; 0x78
3000308a:	f8c3 2404 	str.w	r2, [r3, #1028]	; 0x404
3000308e:	46a4      	mov	ip, r4
30003090:	f7fe f9ea 	bl	30001468 <curve__test__ec__clear_flags.5602>
30003094:	46a4      	mov	ip, r4
30003096:	2024      	movs	r0, #36	; 0x24
30003098:	f7ff ff44 	bl	30002f24 <curve__test__ec__startpka.6060>
3000309c:	46a4      	mov	ip, r4
3000309e:	f7fe f9b7 	bl	30001410 <curve__test__ec__check_errors.5600>
300030a2:	4603      	mov	r3, r0
300030a4:	2b00      	cmp	r3, #0
300030a6:	d002      	beq.n	300030ae <curve__test__ec__ecdsa_sign__3.6075+0x136>
300030a8:	2300      	movs	r3, #0
300030aa:	f887 307f 	strb.w	r3, [r7, #127]	; 0x7f
300030ae:	46a4      	mov	ip, r4
300030b0:	f7fe f9da 	bl	30001468 <curve__test__ec__clear_flags.5602>
300030b4:	6fbb      	ldr	r3, [r7, #120]	; 0x78
300030b6:	f503 63e0 	add.w	r3, r3, #1792	; 0x700
300030ba:	62bb      	str	r3, [r7, #40]	; 0x28
300030bc:	4d17      	ldr	r5, [pc, #92]	; (3000311c <curve__test__ec__ecdsa_sign__3.6075+0x1a4>)
300030be:	62fd      	str	r5, [r7, #44]	; 0x2c
300030c0:	6c3b      	ldr	r3, [r7, #64]	; 0x40
300030c2:	46a4      	mov	ip, r4
300030c4:	461a      	mov	r2, r3
300030c6:	e9d7 010a 	ldrd	r0, r1, [r7, #40]	; 0x28
300030ca:	f7fe f8cb 	bl	30001264 <curve__test__ec__copy_u32_to_s.5594>
300030ce:	6fbb      	ldr	r3, [r7, #120]	; 0x78
300030d0:	f203 7354 	addw	r3, r3, #1876	; 0x754
300030d4:	633b      	str	r3, [r7, #48]	; 0x30
300030d6:	637d      	str	r5, [r7, #52]	; 0x34
300030d8:	69e3      	ldr	r3, [r4, #28]
300030da:	6c3a      	ldr	r2, [r7, #64]	; 0x40
300030dc:	4413      	add	r3, r2
300030de:	46a4      	mov	ip, r4
300030e0:	461a      	mov	r2, r3
300030e2:	e9d7 010c 	ldrd	r0, r1, [r7, #48]	; 0x30
300030e6:	f7fe f8bd 	bl	30001264 <curve__test__ec__copy_u32_to_s.5594>
300030ea:	46a4      	mov	ip, r4
300030ec:	f7fe f962 	bl	300013b4 <curve__test__ec__disable_pka.5598>
300030f0:	6fbb      	ldr	r3, [r7, #120]	; 0x78
300030f2:	f8d3 3ee8 	ldr.w	r3, [r3, #3816]	; 0xee8
300030f6:	673b      	str	r3, [r7, #112]	; 0x70
300030f8:	6f3b      	ldr	r3, [r7, #112]	; 0x70
300030fa:	2b00      	cmp	r3, #0
300030fc:	d002      	beq.n	30003104 <curve__test__ec__ecdsa_sign__3.6075+0x18c>
300030fe:	2300      	movs	r3, #0
30003100:	f887 307f 	strb.w	r3, [r7, #127]	; 0x7f
30003104:	f897 307f 	ldrb.w	r3, [r7, #127]	; 0x7f
30003108:	bf00      	nop
3000310a:	4618      	mov	r0, r3
3000310c:	3784      	adds	r7, #132	; 0x84
3000310e:	46bd      	mov	sp, r7
30003110:	bdf0      	pop	{r4, r5, r6, r7, pc}
30003112:	bf00      	nop
30003114:	420c2000 	.word	0x420c2000
30003118:	30009d08 	.word	0x30009d08
3000311c:	3000b4c4 	.word	0x3000b4c4
30003120:	3000b4d4 	.word	0x3000b4d4

30003124 <curve__test__ec__ecdsa_valid__2.6085>:
30003124:	e92d 4ff0 	stmdb	sp!, {r4, r5, r6, r7, r8, r9, sl, fp, lr}
30003128:	b0a1      	sub	sp, #132	; 0x84
3000312a:	af00      	add	r7, sp, #0
3000312c:	6478      	str	r0, [r7, #68]	; 0x44
3000312e:	6439      	str	r1, [r7, #64]	; 0x40
30003130:	63fa      	str	r2, [r7, #60]	; 0x3c
30003132:	4664      	mov	r4, ip
30003134:	f8c7 c038 	str.w	ip, [r7, #56]	; 0x38
30003138:	2301      	movs	r3, #1
3000313a:	f887 307f 	strb.w	r3, [r7, #127]	; 0x7f
3000313e:	486b      	ldr	r0, [pc, #428]	; (300032ec <curve__test__ec__ecdsa_valid__2.6085+0x1c8>)
30003140:	f001 f912 	bl	30004368 <stm32__device__s_ns_periph>
30003144:	4603      	mov	r3, r0
30003146:	64bb      	str	r3, [r7, #72]	; 0x48
30003148:	f107 0248 	add.w	r2, r7, #72	; 0x48
3000314c:	6813      	ldr	r3, [r2, #0]
3000314e:	67bb      	str	r3, [r7, #120]	; 0x78
30003150:	6813      	ldr	r3, [r2, #0]
30003152:	f003 0303 	and.w	r3, r3, #3
30003156:	2b00      	cmp	r3, #0
30003158:	d004      	beq.n	30003164 <curve__test__ec__ecdsa_valid__2.6085+0x40>
3000315a:	f44f 7112 	mov.w	r1, #584	; 0x248
3000315e:	4864      	ldr	r0, [pc, #400]	; (300032f0 <curve__test__ec__ecdsa_valid__2.6085+0x1cc>)
30003160:	f006 f916 	bl	30009390 <__gnat_last_chance_handler>
30003164:	46a4      	mov	ip, r4
30003166:	f7fe f925 	bl	300013b4 <curve__test__ec__disable_pka.5598>
3000316a:	46a4      	mov	ip, r4
3000316c:	f7fe f9a4 	bl	300014b8 <curve__test__ec__clear_ram.5604>
30003170:	6aa3      	ldr	r3, [r4, #40]	; 0x28
30003172:	46a4      	mov	ip, r4
30003174:	2101      	movs	r1, #1
30003176:	4618      	mov	r0, r3
30003178:	f7fe f9ce 	bl	30001518 <curve__test__ec__common_init.6063>
3000317c:	6c7b      	ldr	r3, [r7, #68]	; 0x44
3000317e:	4698      	mov	r8, r3
30003180:	2301      	movs	r3, #1
30003182:	64fb      	str	r3, [r7, #76]	; 0x4c
30003184:	f8d4 3084 	ldr.w	r3, [r4, #132]	; 0x84
30003188:	653b      	str	r3, [r7, #80]	; 0x50
3000318a:	f107 034c 	add.w	r3, r7, #76	; 0x4c
3000318e:	4699      	mov	r9, r3
30003190:	6fbb      	ldr	r3, [r7, #120]	; 0x78
30003192:	f503 6374 	add.w	r3, r3, #3904	; 0xf40
30003196:	461d      	mov	r5, r3
30003198:	4e56      	ldr	r6, [pc, #344]	; (300032f4 <curve__test__ec__ecdsa_valid__2.6085+0x1d0>)
3000319a:	46a4      	mov	ip, r4
3000319c:	462a      	mov	r2, r5
3000319e:	4633      	mov	r3, r6
300031a0:	4640      	mov	r0, r8
300031a2:	4649      	mov	r1, r9
300031a4:	f7fd fa12 	bl	300005cc <curve__test__ec__copy_s_to_u32.5577>
300031a8:	6962      	ldr	r2, [r4, #20]
300031aa:	6c7b      	ldr	r3, [r7, #68]	; 0x44
300031ac:	4413      	add	r3, r2
300031ae:	469a      	mov	sl, r3
300031b0:	2301      	movs	r3, #1
300031b2:	657b      	str	r3, [r7, #84]	; 0x54
300031b4:	f8d4 3084 	ldr.w	r3, [r4, #132]	; 0x84
300031b8:	65bb      	str	r3, [r7, #88]	; 0x58
300031ba:	f107 0354 	add.w	r3, r7, #84	; 0x54
300031be:	469b      	mov	fp, r3
300031c0:	6fbb      	ldr	r3, [r7, #120]	; 0x78
300031c2:	f603 7394 	addw	r3, r3, #3988	; 0xf94
300031c6:	603b      	str	r3, [r7, #0]
300031c8:	4e4a      	ldr	r6, [pc, #296]	; (300032f4 <curve__test__ec__ecdsa_valid__2.6085+0x1d0>)
300031ca:	607e      	str	r6, [r7, #4]
300031cc:	46a4      	mov	ip, r4
300031ce:	e9d7 2300 	ldrd	r2, r3, [r7]
300031d2:	4650      	mov	r0, sl
300031d4:	4659      	mov	r1, fp
300031d6:	f7fd f9f9 	bl	300005cc <curve__test__ec__copy_s_to_u32.5577>
300031da:	6bfb      	ldr	r3, [r7, #60]	; 0x3c
300031dc:	60bb      	str	r3, [r7, #8]
300031de:	2301      	movs	r3, #1
300031e0:	65fb      	str	r3, [r7, #92]	; 0x5c
300031e2:	f8d4 3084 	ldr.w	r3, [r4, #132]	; 0x84
300031e6:	663b      	str	r3, [r7, #96]	; 0x60
300031e8:	f107 035c 	add.w	r3, r7, #92	; 0x5c
300031ec:	60fb      	str	r3, [r7, #12]
300031ee:	6fbb      	ldr	r3, [r7, #120]	; 0x78
300031f0:	f503 5384 	add.w	r3, r3, #4224	; 0x1080
300031f4:	3318      	adds	r3, #24
300031f6:	613b      	str	r3, [r7, #16]
300031f8:	617e      	str	r6, [r7, #20]
300031fa:	46a4      	mov	ip, r4
300031fc:	e9d7 2304 	ldrd	r2, r3, [r7, #16]
30003200:	e9d7 0102 	ldrd	r0, r1, [r7, #8]
30003204:	f7fd f9e2 	bl	300005cc <curve__test__ec__copy_s_to_u32.5577>
30003208:	69e3      	ldr	r3, [r4, #28]
3000320a:	6bfa      	ldr	r2, [r7, #60]	; 0x3c
3000320c:	4413      	add	r3, r2
3000320e:	61bb      	str	r3, [r7, #24]
30003210:	2301      	movs	r3, #1
30003212:	667b      	str	r3, [r7, #100]	; 0x64
30003214:	f8d4 3084 	ldr.w	r3, [r4, #132]	; 0x84
30003218:	66bb      	str	r3, [r7, #104]	; 0x68
3000321a:	f107 0364 	add.w	r3, r7, #100	; 0x64
3000321e:	61fb      	str	r3, [r7, #28]
30003220:	6fbb      	ldr	r3, [r7, #120]	; 0x78
30003222:	f603 2344 	addw	r3, r3, #2628	; 0xa44
30003226:	623b      	str	r3, [r7, #32]
30003228:	627e      	str	r6, [r7, #36]	; 0x24
3000322a:	46a4      	mov	ip, r4
3000322c:	e9d7 2308 	ldrd	r2, r3, [r7, #32]
30003230:	e9d7 0106 	ldrd	r0, r1, [r7, #24]
30003234:	f7fd f9ca 	bl	300005cc <curve__test__ec__copy_s_to_u32.5577>
30003238:	466b      	mov	r3, sp
3000323a:	461d      	mov	r5, r3
3000323c:	6b63      	ldr	r3, [r4, #52]	; 0x34
3000323e:	ea23 73e3 	bic.w	r3, r3, r3, asr #31
30003242:	3307      	adds	r3, #7
30003244:	08db      	lsrs	r3, r3, #3
30003246:	00db      	lsls	r3, r3, #3
30003248:	ebad 0d03 	sub.w	sp, sp, r3
3000324c:	466b      	mov	r3, sp
3000324e:	3300      	adds	r3, #0
30003250:	677b      	str	r3, [r7, #116]	; 0x74
30003252:	6f7b      	ldr	r3, [r7, #116]	; 0x74
30003254:	46a4      	mov	ip, r4
30003256:	6c39      	ldr	r1, [r7, #64]	; 0x40
30003258:	4618      	mov	r0, r3
3000325a:	f7ff fd75 	bl	30002d48 <curve__test__ec__normalize__2.5610>
3000325e:	6f7b      	ldr	r3, [r7, #116]	; 0x74
30003260:	62bb      	str	r3, [r7, #40]	; 0x28
30003262:	2301      	movs	r3, #1
30003264:	66fb      	str	r3, [r7, #108]	; 0x6c
30003266:	6b63      	ldr	r3, [r4, #52]	; 0x34
30003268:	673b      	str	r3, [r7, #112]	; 0x70
3000326a:	f107 036c 	add.w	r3, r7, #108	; 0x6c
3000326e:	62fb      	str	r3, [r7, #44]	; 0x2c
30003270:	6fbb      	ldr	r3, [r7, #120]	; 0x78
30003272:	f603 73e8 	addw	r3, r3, #4072	; 0xfe8
30003276:	633b      	str	r3, [r7, #48]	; 0x30
30003278:	637e      	str	r6, [r7, #52]	; 0x34
3000327a:	46a4      	mov	ip, r4
3000327c:	e9d7 230c 	ldrd	r2, r3, [r7, #48]	; 0x30
30003280:	e9d7 010a 	ldrd	r0, r1, [r7, #40]	; 0x28
30003284:	f7fd f9a2 	bl	300005cc <curve__test__ec__copy_s_to_u32.5577>
30003288:	46ad      	mov	sp, r5
3000328a:	6fe2      	ldr	r2, [r4, #124]	; 0x7c
3000328c:	6fbb      	ldr	r3, [r7, #120]	; 0x78
3000328e:	f8c3 2404 	str.w	r2, [r3, #1028]	; 0x404
30003292:	6fe2      	ldr	r2, [r4, #124]	; 0x7c
30003294:	6fbb      	ldr	r3, [r7, #120]	; 0x78
30003296:	f8c3 24b4 	str.w	r2, [r3, #1204]	; 0x4b4
3000329a:	46a4      	mov	ip, r4
3000329c:	f7fe f8e4 	bl	30001468 <curve__test__ec__clear_flags.5602>
300032a0:	46a4      	mov	ip, r4
300032a2:	2026      	movs	r0, #38	; 0x26
300032a4:	f7ff fe3e 	bl	30002f24 <curve__test__ec__startpka.6060>
300032a8:	46a4      	mov	ip, r4
300032aa:	f7fe f8b1 	bl	30001410 <curve__test__ec__check_errors.5600>
300032ae:	4603      	mov	r3, r0
300032b0:	2b00      	cmp	r3, #0
300032b2:	d002      	beq.n	300032ba <curve__test__ec__ecdsa_valid__2.6085+0x196>
300032b4:	2300      	movs	r3, #0
300032b6:	f887 307f 	strb.w	r3, [r7, #127]	; 0x7f
300032ba:	46a4      	mov	ip, r4
300032bc:	f7fe f8d4 	bl	30001468 <curve__test__ec__clear_flags.5602>
300032c0:	46a4      	mov	ip, r4
300032c2:	f7fe f877 	bl	300013b4 <curve__test__ec__disable_pka.5598>
300032c6:	f897 207f 	ldrb.w	r2, [r7, #127]	; 0x7f
300032ca:	6fbb      	ldr	r3, [r7, #120]	; 0x78
300032cc:	f8d3 35b0 	ldr.w	r3, [r3, #1456]	; 0x5b0
300032d0:	2b00      	cmp	r3, #0
300032d2:	bf0c      	ite	eq
300032d4:	2301      	moveq	r3, #1
300032d6:	2300      	movne	r3, #0
300032d8:	b2db      	uxtb	r3, r3
300032da:	4013      	ands	r3, r2
300032dc:	b2db      	uxtb	r3, r3
300032de:	bf00      	nop
300032e0:	4618      	mov	r0, r3
300032e2:	3784      	adds	r7, #132	; 0x84
300032e4:	46bd      	mov	sp, r7
300032e6:	e8bd 8ff0 	ldmia.w	sp!, {r4, r5, r6, r7, r8, r9, sl, fp, pc}
300032ea:	bf00      	nop
300032ec:	420c2000 	.word	0x420c2000
300032f0:	30009d08 	.word	0x30009d08
300032f4:	3000b4c4 	.word	0x3000b4c4

300032f8 <curve__test__ec__ecdsa_math.5618>:
300032f8:	e92d 47f0 	stmdb	sp!, {r4, r5, r6, r7, r8, r9, sl, lr}
300032fc:	b0ca      	sub	sp, #296	; 0x128
300032fe:	af00      	add	r7, sp, #0
30003300:	e9c7 012e 	strd	r0, r1, [r7, #184]	; 0xb8
30003304:	f8c7 20b4 	str.w	r2, [r7, #180]	; 0xb4
30003308:	f8c7 30b0 	str.w	r3, [r7, #176]	; 0xb0
3000330c:	4664      	mov	r4, ip
3000330e:	f8c7 c0ac 	str.w	ip, [r7, #172]	; 0xac
30003312:	f8d7 30bc 	ldr.w	r3, [r7, #188]	; 0xbc
30003316:	681d      	ldr	r5, [r3, #0]
30003318:	f8d7 30bc 	ldr.w	r3, [r7, #188]	; 0xbc
3000331c:	685e      	ldr	r6, [r3, #4]
3000331e:	46a8      	mov	r8, r5
30003320:	48d9      	ldr	r0, [pc, #868]	; (30003688 <curve__test__ec__ecdsa_math.5618+0x390>)
30003322:	f001 f821 	bl	30004368 <stm32__device__s_ns_periph>
30003326:	4603      	mov	r3, r0
30003328:	f8c7 30c4 	str.w	r3, [r7, #196]	; 0xc4
3000332c:	f107 02c4 	add.w	r2, r7, #196	; 0xc4
30003330:	6813      	ldr	r3, [r2, #0]
30003332:	f8c7 3120 	str.w	r3, [r7, #288]	; 0x120
30003336:	6813      	ldr	r3, [r2, #0]
30003338:	f003 0303 	and.w	r3, r3, #3
3000333c:	2b00      	cmp	r3, #0
3000333e:	d004      	beq.n	3000334a <curve__test__ec__ecdsa_math.5618+0x52>
30003340:	f240 216e 	movw	r1, #622	; 0x26e
30003344:	48d1      	ldr	r0, [pc, #836]	; (3000368c <curve__test__ec__ecdsa_math.5618+0x394>)
30003346:	f006 f823 	bl	30009390 <__gnat_last_chance_handler>
3000334a:	46a4      	mov	ip, r4
3000334c:	f7fe f8b4 	bl	300014b8 <curve__test__ec__clear_ram.5604>
30003350:	6aa3      	ldr	r3, [r4, #40]	; 0x28
30003352:	46a4      	mov	ip, r4
30003354:	2103      	movs	r1, #3
30003356:	4618      	mov	r0, r3
30003358:	f7fe f8de 	bl	30001518 <curve__test__ec__common_init.6063>
3000335c:	6fe2      	ldr	r2, [r4, #124]	; 0x7c
3000335e:	f8d7 3120 	ldr.w	r3, [r7, #288]	; 0x120
30003362:	f8c3 2404 	str.w	r2, [r3, #1028]	; 0x404
30003366:	f8c7 511c 	str.w	r5, [r7, #284]	; 0x11c
3000336a:	f8c7 6118 	str.w	r6, [r7, #280]	; 0x118
3000336e:	f8d7 211c 	ldr.w	r2, [r7, #284]	; 0x11c
30003372:	f8d7 3118 	ldr.w	r3, [r7, #280]	; 0x118
30003376:	429a      	cmp	r2, r3
30003378:	f300 82fc 	bgt.w	30003974 <curve__test__ec__ecdsa_math.5618+0x67c>
3000337c:	f8d7 311c 	ldr.w	r3, [r7, #284]	; 0x11c
30003380:	f8c7 3124 	str.w	r3, [r7, #292]	; 0x124
30003384:	46a4      	mov	ip, r4
30003386:	f7fe f815 	bl	300013b4 <curve__test__ec__disable_pka.5598>
3000338a:	46a4      	mov	ip, r4
3000338c:	f7fe f86c 	bl	30001468 <curve__test__ec__clear_flags.5602>
30003390:	f8d7 20b8 	ldr.w	r2, [r7, #184]	; 0xb8
30003394:	f8d7 3124 	ldr.w	r3, [r7, #292]	; 0x124
30003398:	eba3 0308 	sub.w	r3, r3, r8
3000339c:	5cd3      	ldrb	r3, [r2, r3]
3000339e:	3b21      	subs	r3, #33	; 0x21
300033a0:	2b5b      	cmp	r3, #91	; 0x5b
300033a2:	f200 82d9 	bhi.w	30003958 <curve__test__ec__ecdsa_math.5618+0x660>
300033a6:	a201      	add	r2, pc, #4	; (adr r2, 300033ac <curve__test__ec__ecdsa_math.5618+0xb4>)
300033a8:	f852 f023 	ldr.w	pc, [r2, r3, lsl #2]
300033ac:	30003821 	.word	0x30003821
300033b0:	30003959 	.word	0x30003959
300033b4:	30003959 	.word	0x30003959
300033b8:	30003959 	.word	0x30003959
300033bc:	300036ab 	.word	0x300036ab
300033c0:	300036bf 	.word	0x300036bf
300033c4:	30003959 	.word	0x30003959
300033c8:	30003959 	.word	0x30003959
300033cc:	30003959 	.word	0x30003959
300033d0:	3000367d 	.word	0x3000367d
300033d4:	30003669 	.word	0x30003669
300033d8:	30003959 	.word	0x30003959
300033dc:	30003673 	.word	0x30003673
300033e0:	30003959 	.word	0x30003959
300033e4:	30003959 	.word	0x30003959
300033e8:	30003959 	.word	0x30003959
300033ec:	3000386f 	.word	0x3000386f
300033f0:	30003889 	.word	0x30003889
300033f4:	300038a3 	.word	0x300038a3
300033f8:	300038bd 	.word	0x300038bd
300033fc:	300038d7 	.word	0x300038d7
30003400:	300038f1 	.word	0x300038f1
30003404:	3000390b 	.word	0x3000390b
30003408:	30003925 	.word	0x30003925
3000340c:	3000393f 	.word	0x3000393f
30003410:	30003959 	.word	0x30003959
30003414:	30003959 	.word	0x30003959
30003418:	30003959 	.word	0x30003959
3000341c:	3000382b 	.word	0x3000382b
30003420:	30003959 	.word	0x30003959
30003424:	30003959 	.word	0x30003959
30003428:	30003959 	.word	0x30003959
3000342c:	3000351d 	.word	0x3000351d
30003430:	30003555 	.word	0x30003555
30003434:	3000358d 	.word	0x3000358d
30003438:	30003959 	.word	0x30003959
3000343c:	30003959 	.word	0x30003959
30003440:	30003959 	.word	0x30003959
30003444:	30003959 	.word	0x30003959
30003448:	30003959 	.word	0x30003959
3000344c:	30003959 	.word	0x30003959
30003450:	30003959 	.word	0x30003959
30003454:	30003959 	.word	0x30003959
30003458:	30003959 	.word	0x30003959
3000345c:	30003959 	.word	0x30003959
30003460:	30003709 	.word	0x30003709
30003464:	30003635 	.word	0x30003635
30003468:	30003779 	.word	0x30003779
3000346c:	30003959 	.word	0x30003959
30003470:	300037ed 	.word	0x300037ed
30003474:	30003959 	.word	0x30003959
30003478:	30003959 	.word	0x30003959
3000347c:	30003959 	.word	0x30003959
30003480:	30003959 	.word	0x30003959
30003484:	30003959 	.word	0x30003959
30003488:	30003959 	.word	0x30003959
3000348c:	30003959 	.word	0x30003959
30003490:	30003959 	.word	0x30003959
30003494:	30003959 	.word	0x30003959
30003498:	30003959 	.word	0x30003959
3000349c:	30003959 	.word	0x30003959
300034a0:	3000384d 	.word	0x3000384d
300034a4:	30003959 	.word	0x30003959
300034a8:	30003959 	.word	0x30003959
300034ac:	30003959 	.word	0x30003959
300034b0:	300035c5 	.word	0x300035c5
300034b4:	300035fd 	.word	0x300035fd
300034b8:	30003959 	.word	0x30003959
300034bc:	30003959 	.word	0x30003959
300034c0:	30003959 	.word	0x30003959
300034c4:	30003959 	.word	0x30003959
300034c8:	30003959 	.word	0x30003959
300034cc:	30003959 	.word	0x30003959
300034d0:	30003959 	.word	0x30003959
300034d4:	30003959 	.word	0x30003959
300034d8:	30003959 	.word	0x30003959
300034dc:	300036ff 	.word	0x300036ff
300034e0:	30003741 	.word	0x30003741
300034e4:	3000364f 	.word	0x3000364f
300034e8:	300037b5 	.word	0x300037b5
300034ec:	30003959 	.word	0x30003959
300034f0:	30003807 	.word	0x30003807
300034f4:	30003959 	.word	0x30003959
300034f8:	30003959 	.word	0x30003959
300034fc:	30003959 	.word	0x30003959
30003500:	30003959 	.word	0x30003959
30003504:	30003959 	.word	0x30003959
30003508:	30003959 	.word	0x30003959
3000350c:	30003959 	.word	0x30003959
30003510:	30003959 	.word	0x30003959
30003514:	30003959 	.word	0x30003959
30003518:	30003695 	.word	0x30003695
3000351c:	f8d7 30b4 	ldr.w	r3, [r7, #180]	; 0xb4
30003520:	603b      	str	r3, [r7, #0]
30003522:	2301      	movs	r3, #1
30003524:	f8c7 30c8 	str.w	r3, [r7, #200]	; 0xc8
30003528:	f8d4 3084 	ldr.w	r3, [r4, #132]	; 0x84
3000352c:	f8c7 30cc 	str.w	r3, [r7, #204]	; 0xcc
30003530:	f107 03c8 	add.w	r3, r7, #200	; 0xc8
30003534:	607b      	str	r3, [r7, #4]
30003536:	f8d7 3120 	ldr.w	r3, [r7, #288]	; 0x120
3000353a:	f603 03b4 	addw	r3, r3, #2228	; 0x8b4
3000353e:	60bb      	str	r3, [r7, #8]
30003540:	4b53      	ldr	r3, [pc, #332]	; (30003690 <curve__test__ec__ecdsa_math.5618+0x398>)
30003542:	60fb      	str	r3, [r7, #12]
30003544:	46a4      	mov	ip, r4
30003546:	e9d7 2302 	ldrd	r2, r3, [r7, #8]
3000354a:	e9d7 0100 	ldrd	r0, r1, [r7]
3000354e:	f7fd f83d 	bl	300005cc <curve__test__ec__copy_s_to_u32.5577>
30003552:	e203      	b.n	3000395c <curve__test__ec__ecdsa_math.5618+0x664>
30003554:	f8d7 30b0 	ldr.w	r3, [r7, #176]	; 0xb0
30003558:	613b      	str	r3, [r7, #16]
3000355a:	2301      	movs	r3, #1
3000355c:	f8c7 30d0 	str.w	r3, [r7, #208]	; 0xd0
30003560:	f8d4 3084 	ldr.w	r3, [r4, #132]	; 0x84
30003564:	f8c7 30d4 	str.w	r3, [r7, #212]	; 0xd4
30003568:	f107 03d0 	add.w	r3, r7, #208	; 0xd0
3000356c:	617b      	str	r3, [r7, #20]
3000356e:	f8d7 3120 	ldr.w	r3, [r7, #288]	; 0x120
30003572:	f603 2344 	addw	r3, r3, #2628	; 0xa44
30003576:	61bb      	str	r3, [r7, #24]
30003578:	4b45      	ldr	r3, [pc, #276]	; (30003690 <curve__test__ec__ecdsa_math.5618+0x398>)
3000357a:	61fb      	str	r3, [r7, #28]
3000357c:	46a4      	mov	ip, r4
3000357e:	e9d7 2306 	ldrd	r2, r3, [r7, #24]
30003582:	e9d7 0104 	ldrd	r0, r1, [r7, #16]
30003586:	f7fd f821 	bl	300005cc <curve__test__ec__copy_s_to_u32.5577>
3000358a:	e1e7      	b.n	3000395c <curve__test__ec__ecdsa_math.5618+0x664>
3000358c:	f8d7 3148 	ldr.w	r3, [r7, #328]	; 0x148
30003590:	623b      	str	r3, [r7, #32]
30003592:	2301      	movs	r3, #1
30003594:	f8c7 30d8 	str.w	r3, [r7, #216]	; 0xd8
30003598:	f8d4 3084 	ldr.w	r3, [r4, #132]	; 0x84
3000359c:	f8c7 30dc 	str.w	r3, [r7, #220]	; 0xdc
300035a0:	f107 03d8 	add.w	r3, r7, #216	; 0xd8
300035a4:	627b      	str	r3, [r7, #36]	; 0x24
300035a6:	f8d7 3120 	ldr.w	r3, [r7, #288]	; 0x120
300035aa:	f603 03b4 	addw	r3, r3, #2228	; 0x8b4
300035ae:	62bb      	str	r3, [r7, #40]	; 0x28
300035b0:	4b37      	ldr	r3, [pc, #220]	; (30003690 <curve__test__ec__ecdsa_math.5618+0x398>)
300035b2:	62fb      	str	r3, [r7, #44]	; 0x2c
300035b4:	46a4      	mov	ip, r4
300035b6:	e9d7 230a 	ldrd	r2, r3, [r7, #40]	; 0x28
300035ba:	e9d7 0108 	ldrd	r0, r1, [r7, #32]
300035be:	f7fd f805 	bl	300005cc <curve__test__ec__copy_s_to_u32.5577>
300035c2:	e1cb      	b.n	3000395c <curve__test__ec__ecdsa_math.5618+0x664>
300035c4:	f8d7 30b0 	ldr.w	r3, [r7, #176]	; 0xb0
300035c8:	633b      	str	r3, [r7, #48]	; 0x30
300035ca:	2301      	movs	r3, #1
300035cc:	f8c7 30e0 	str.w	r3, [r7, #224]	; 0xe0
300035d0:	f8d4 3084 	ldr.w	r3, [r4, #132]	; 0x84
300035d4:	f8c7 30e4 	str.w	r3, [r7, #228]	; 0xe4
300035d8:	f107 03e0 	add.w	r3, r7, #224	; 0xe0
300035dc:	637b      	str	r3, [r7, #52]	; 0x34
300035de:	f8d7 3120 	ldr.w	r3, [r7, #288]	; 0x120
300035e2:	f603 03b4 	addw	r3, r3, #2228	; 0x8b4
300035e6:	63bb      	str	r3, [r7, #56]	; 0x38
300035e8:	4b29      	ldr	r3, [pc, #164]	; (30003690 <curve__test__ec__ecdsa_math.5618+0x398>)
300035ea:	63fb      	str	r3, [r7, #60]	; 0x3c
300035ec:	46a4      	mov	ip, r4
300035ee:	e9d7 230e 	ldrd	r2, r3, [r7, #56]	; 0x38
300035f2:	e9d7 010c 	ldrd	r0, r1, [r7, #48]	; 0x30
300035f6:	f7fc ffe9 	bl	300005cc <curve__test__ec__copy_s_to_u32.5577>
300035fa:	e1af      	b.n	3000395c <curve__test__ec__ecdsa_math.5618+0x664>
300035fc:	f8d7 3148 	ldr.w	r3, [r7, #328]	; 0x148
30003600:	643b      	str	r3, [r7, #64]	; 0x40
30003602:	2301      	movs	r3, #1
30003604:	f8c7 30e8 	str.w	r3, [r7, #232]	; 0xe8
30003608:	f8d4 3084 	ldr.w	r3, [r4, #132]	; 0x84
3000360c:	f8c7 30ec 	str.w	r3, [r7, #236]	; 0xec
30003610:	f107 03e8 	add.w	r3, r7, #232	; 0xe8
30003614:	647b      	str	r3, [r7, #68]	; 0x44
30003616:	f8d7 3120 	ldr.w	r3, [r7, #288]	; 0x120
3000361a:	f603 2344 	addw	r3, r3, #2628	; 0xa44
3000361e:	64bb      	str	r3, [r7, #72]	; 0x48
30003620:	4b1b      	ldr	r3, [pc, #108]	; (30003690 <curve__test__ec__ecdsa_math.5618+0x398>)
30003622:	64fb      	str	r3, [r7, #76]	; 0x4c
30003624:	46a4      	mov	ip, r4
30003626:	e9d7 2312 	ldrd	r2, r3, [r7, #72]	; 0x48
3000362a:	e9d7 0110 	ldrd	r0, r1, [r7, #64]	; 0x40
3000362e:	f7fc ffcd 	bl	300005cc <curve__test__ec__copy_s_to_u32.5577>
30003632:	e193      	b.n	3000395c <curve__test__ec__ecdsa_math.5618+0x664>
30003634:	f8d7 2120 	ldr.w	r2, [r7, #288]	; 0x120
30003638:	f8d7 3120 	ldr.w	r3, [r7, #288]	; 0x120
3000363c:	f602 00b4 	addw	r0, r2, #2228	; 0x8b4
30003640:	f503 613d 	add.w	r1, r3, #3024	; 0xbd0
30003644:	2354      	movs	r3, #84	; 0x54
30003646:	461a      	mov	r2, r3
30003648:	f006 f920 	bl	3000988c <memcpy>
3000364c:	e186      	b.n	3000395c <curve__test__ec__ecdsa_math.5618+0x664>
3000364e:	f8d7 2120 	ldr.w	r2, [r7, #288]	; 0x120
30003652:	f8d7 3120 	ldr.w	r3, [r7, #288]	; 0x120
30003656:	f602 2044 	addw	r0, r2, #2628	; 0xa44
3000365a:	f503 613d 	add.w	r1, r3, #3024	; 0xbd0
3000365e:	2354      	movs	r3, #84	; 0x54
30003660:	461a      	mov	r2, r3
30003662:	f006 f913 	bl	3000988c <memcpy>
30003666:	e179      	b.n	3000395c <curve__test__ec__ecdsa_math.5618+0x664>
30003668:	46a4      	mov	ip, r4
3000366a:	2009      	movs	r0, #9
3000366c:	f7ff fc5a 	bl	30002f24 <curve__test__ec__startpka.6060>
30003670:	e174      	b.n	3000395c <curve__test__ec__ecdsa_math.5618+0x664>
30003672:	46a4      	mov	ip, r4
30003674:	200a      	movs	r0, #10
30003676:	f7ff fc55 	bl	30002f24 <curve__test__ec__startpka.6060>
3000367a:	e16f      	b.n	3000395c <curve__test__ec__ecdsa_math.5618+0x664>
3000367c:	46a4      	mov	ip, r4
3000367e:	200b      	movs	r0, #11
30003680:	f7ff fc50 	bl	30002f24 <curve__test__ec__startpka.6060>
30003684:	e16a      	b.n	3000395c <curve__test__ec__ecdsa_math.5618+0x664>
30003686:	bf00      	nop
30003688:	420c2000 	.word	0x420c2000
3000368c:	30009d08 	.word	0x30009d08
30003690:	3000b4c4 	.word	0x3000b4c4
30003694:	6fe3      	ldr	r3, [r4, #124]	; 0x7c
30003696:	005a      	lsls	r2, r3, #1
30003698:	f8d7 3120 	ldr.w	r3, [r7, #288]	; 0x120
3000369c:	f8c3 2400 	str.w	r2, [r3, #1024]	; 0x400
300036a0:	46a4      	mov	ip, r4
300036a2:	200d      	movs	r0, #13
300036a4:	f7ff fc3e 	bl	30002f24 <curve__test__ec__startpka.6060>
300036a8:	e158      	b.n	3000395c <curve__test__ec__ecdsa_math.5618+0x664>
300036aa:	6fe2      	ldr	r2, [r4, #124]	; 0x7c
300036ac:	f8d7 3120 	ldr.w	r3, [r7, #288]	; 0x120
300036b0:	f8c3 2400 	str.w	r2, [r3, #1024]	; 0x400
300036b4:	46a4      	mov	ip, r4
300036b6:	200d      	movs	r0, #13
300036b8:	f7ff fc34 	bl	30002f24 <curve__test__ec__startpka.6060>
300036bc:	e14e      	b.n	3000395c <curve__test__ec__ecdsa_math.5618+0x664>
300036be:	6ca2      	ldr	r2, [r4, #72]	; 0x48
300036c0:	6aa3      	ldr	r3, [r4, #40]	; 0x28
300036c2:	4413      	add	r3, r2
300036c4:	653b      	str	r3, [r7, #80]	; 0x50
300036c6:	2301      	movs	r3, #1
300036c8:	f8c7 30f0 	str.w	r3, [r7, #240]	; 0xf0
300036cc:	6e63      	ldr	r3, [r4, #100]	; 0x64
300036ce:	f8c7 30f4 	str.w	r3, [r7, #244]	; 0xf4
300036d2:	f107 03f0 	add.w	r3, r7, #240	; 0xf0
300036d6:	657b      	str	r3, [r7, #84]	; 0x54
300036d8:	f8d7 3120 	ldr.w	r3, [r7, #288]	; 0x120
300036dc:	f603 535c 	addw	r3, r3, #3420	; 0xd5c
300036e0:	65bb      	str	r3, [r7, #88]	; 0x58
300036e2:	4ba7      	ldr	r3, [pc, #668]	; (30003980 <curve__test__ec__ecdsa_math.5618+0x688>)
300036e4:	65fb      	str	r3, [r7, #92]	; 0x5c
300036e6:	46a4      	mov	ip, r4
300036e8:	e9d7 2316 	ldrd	r2, r3, [r7, #88]	; 0x58
300036ec:	e9d7 0114 	ldrd	r0, r1, [r7, #80]	; 0x50
300036f0:	f7fc ff6c 	bl	300005cc <curve__test__ec__copy_s_to_u32.5577>
300036f4:	46a4      	mov	ip, r4
300036f6:	200f      	movs	r0, #15
300036f8:	f7ff fc14 	bl	30002f24 <curve__test__ec__startpka.6060>
300036fc:	e12e      	b.n	3000395c <curve__test__ec__ecdsa_math.5618+0x664>
300036fe:	46a4      	mov	ip, r4
30003700:	2010      	movs	r0, #16
30003702:	f7ff fc0f 	bl	30002f24 <curve__test__ec__startpka.6060>
30003706:	e129      	b.n	3000395c <curve__test__ec__ecdsa_math.5618+0x664>
30003708:	6ca2      	ldr	r2, [r4, #72]	; 0x48
3000370a:	6aa3      	ldr	r3, [r4, #40]	; 0x28
3000370c:	4413      	add	r3, r2
3000370e:	663b      	str	r3, [r7, #96]	; 0x60
30003710:	2301      	movs	r3, #1
30003712:	f8c7 30f8 	str.w	r3, [r7, #248]	; 0xf8
30003716:	6e63      	ldr	r3, [r4, #100]	; 0x64
30003718:	f8c7 30fc 	str.w	r3, [r7, #252]	; 0xfc
3000371c:	f107 03f8 	add.w	r3, r7, #248	; 0xf8
30003720:	667b      	str	r3, [r7, #100]	; 0x64
30003722:	f8d7 3120 	ldr.w	r3, [r7, #288]	; 0x120
30003726:	f603 03b4 	addw	r3, r3, #2228	; 0x8b4
3000372a:	66bb      	str	r3, [r7, #104]	; 0x68
3000372c:	4b94      	ldr	r3, [pc, #592]	; (30003980 <curve__test__ec__ecdsa_math.5618+0x688>)
3000372e:	66fb      	str	r3, [r7, #108]	; 0x6c
30003730:	46a4      	mov	ip, r4
30003732:	e9d7 231a 	ldrd	r2, r3, [r7, #104]	; 0x68
30003736:	e9d7 0118 	ldrd	r0, r1, [r7, #96]	; 0x60
3000373a:	f7fc ff47 	bl	300005cc <curve__test__ec__copy_s_to_u32.5577>
3000373e:	e10d      	b.n	3000395c <curve__test__ec__ecdsa_math.5618+0x664>
30003740:	6ca2      	ldr	r2, [r4, #72]	; 0x48
30003742:	6aa3      	ldr	r3, [r4, #40]	; 0x28
30003744:	4413      	add	r3, r2
30003746:	673b      	str	r3, [r7, #112]	; 0x70
30003748:	2301      	movs	r3, #1
3000374a:	f8c7 3100 	str.w	r3, [r7, #256]	; 0x100
3000374e:	6e63      	ldr	r3, [r4, #100]	; 0x64
30003750:	f8c7 3104 	str.w	r3, [r7, #260]	; 0x104
30003754:	f507 7380 	add.w	r3, r7, #256	; 0x100
30003758:	677b      	str	r3, [r7, #116]	; 0x74
3000375a:	f8d7 3120 	ldr.w	r3, [r7, #288]	; 0x120
3000375e:	f603 2344 	addw	r3, r3, #2628	; 0xa44
30003762:	67bb      	str	r3, [r7, #120]	; 0x78
30003764:	4b86      	ldr	r3, [pc, #536]	; (30003980 <curve__test__ec__ecdsa_math.5618+0x688>)
30003766:	67fb      	str	r3, [r7, #124]	; 0x7c
30003768:	46a4      	mov	ip, r4
3000376a:	e9d7 231e 	ldrd	r2, r3, [r7, #120]	; 0x78
3000376e:	e9d7 011c 	ldrd	r0, r1, [r7, #112]	; 0x70
30003772:	f7fc ff2b 	bl	300005cc <curve__test__ec__copy_s_to_u32.5577>
30003776:	e0f1      	b.n	3000395c <curve__test__ec__ecdsa_math.5618+0x664>
30003778:	6aa3      	ldr	r3, [r4, #40]	; 0x28
3000377a:	f8c7 3080 	str.w	r3, [r7, #128]	; 0x80
3000377e:	2301      	movs	r3, #1
30003780:	f8c7 3108 	str.w	r3, [r7, #264]	; 0x108
30003784:	6f63      	ldr	r3, [r4, #116]	; 0x74
30003786:	f8c7 310c 	str.w	r3, [r7, #268]	; 0x10c
3000378a:	f507 7384 	add.w	r3, r7, #264	; 0x108
3000378e:	f8c7 3084 	str.w	r3, [r7, #132]	; 0x84
30003792:	f8d7 3120 	ldr.w	r3, [r7, #288]	; 0x120
30003796:	f603 03b4 	addw	r3, r3, #2228	; 0x8b4
3000379a:	f8c7 3088 	str.w	r3, [r7, #136]	; 0x88
3000379e:	4b78      	ldr	r3, [pc, #480]	; (30003980 <curve__test__ec__ecdsa_math.5618+0x688>)
300037a0:	f8c7 308c 	str.w	r3, [r7, #140]	; 0x8c
300037a4:	46a4      	mov	ip, r4
300037a6:	e9d7 2322 	ldrd	r2, r3, [r7, #136]	; 0x88
300037aa:	e9d7 0120 	ldrd	r0, r1, [r7, #128]	; 0x80
300037ae:	f7fc ff0d 	bl	300005cc <curve__test__ec__copy_s_to_u32.5577>
300037b2:	e0d3      	b.n	3000395c <curve__test__ec__ecdsa_math.5618+0x664>
300037b4:	6aa3      	ldr	r3, [r4, #40]	; 0x28
300037b6:	4699      	mov	r9, r3
300037b8:	2301      	movs	r3, #1
300037ba:	f8c7 3110 	str.w	r3, [r7, #272]	; 0x110
300037be:	6f63      	ldr	r3, [r4, #116]	; 0x74
300037c0:	f8c7 3114 	str.w	r3, [r7, #276]	; 0x114
300037c4:	f507 7388 	add.w	r3, r7, #272	; 0x110
300037c8:	469a      	mov	sl, r3
300037ca:	f8d7 3120 	ldr.w	r3, [r7, #288]	; 0x120
300037ce:	f603 2344 	addw	r3, r3, #2628	; 0xa44
300037d2:	f8c7 3090 	str.w	r3, [r7, #144]	; 0x90
300037d6:	4b6a      	ldr	r3, [pc, #424]	; (30003980 <curve__test__ec__ecdsa_math.5618+0x688>)
300037d8:	f8c7 3094 	str.w	r3, [r7, #148]	; 0x94
300037dc:	46a4      	mov	ip, r4
300037de:	e9d7 2324 	ldrd	r2, r3, [r7, #144]	; 0x90
300037e2:	4648      	mov	r0, r9
300037e4:	4651      	mov	r1, sl
300037e6:	f7fc fef1 	bl	300005cc <curve__test__ec__copy_s_to_u32.5577>
300037ea:	e0b7      	b.n	3000395c <curve__test__ec__ecdsa_math.5618+0x664>
300037ec:	f8d7 2120 	ldr.w	r2, [r7, #288]	; 0x120
300037f0:	f8d7 3120 	ldr.w	r3, [r7, #288]	; 0x120
300037f4:	f602 00b4 	addw	r0, r2, #2228	; 0x8b4
300037f8:	f203 5194 	addw	r1, r3, #1428	; 0x594
300037fc:	2354      	movs	r3, #84	; 0x54
300037fe:	461a      	mov	r2, r3
30003800:	f006 f844 	bl	3000988c <memcpy>
30003804:	e0aa      	b.n	3000395c <curve__test__ec__ecdsa_math.5618+0x664>
30003806:	f8d7 2120 	ldr.w	r2, [r7, #288]	; 0x120
3000380a:	f8d7 3120 	ldr.w	r3, [r7, #288]	; 0x120
3000380e:	f602 2044 	addw	r0, r2, #2628	; 0xa44
30003812:	f203 5194 	addw	r1, r3, #1428	; 0x594
30003816:	2354      	movs	r3, #84	; 0x54
30003818:	461a      	mov	r2, r3
3000381a:	f006 f837 	bl	3000988c <memcpy>
3000381e:	e09d      	b.n	3000395c <curve__test__ec__ecdsa_math.5618+0x664>
30003820:	46a4      	mov	ip, r4
30003822:	2008      	movs	r0, #8
30003824:	f7ff fb7e 	bl	30002f24 <curve__test__ec__startpka.6060>
30003828:	e098      	b.n	3000395c <curve__test__ec__ecdsa_math.5618+0x664>
3000382a:	f8d7 3120 	ldr.w	r3, [r7, #288]	; 0x120
3000382e:	f603 1308 	addw	r3, r3, #2312	; 0x908
30003832:	f8c7 3098 	str.w	r3, [r7, #152]	; 0x98
30003836:	4b52      	ldr	r3, [pc, #328]	; (30003980 <curve__test__ec__ecdsa_math.5618+0x688>)
30003838:	f8c7 309c 	str.w	r3, [r7, #156]	; 0x9c
3000383c:	46a4      	mov	ip, r4
3000383e:	f8d7 214c 	ldr.w	r2, [r7, #332]	; 0x14c
30003842:	e9d7 0126 	ldrd	r0, r1, [r7, #152]	; 0x98
30003846:	f7fd fd0d 	bl	30001264 <curve__test__ec__copy_u32_to_s.5594>
3000384a:	e087      	b.n	3000395c <curve__test__ec__ecdsa_math.5618+0x664>
3000384c:	f8d7 3120 	ldr.w	r3, [r7, #288]	; 0x120
30003850:	f603 135c 	addw	r3, r3, #2396	; 0x95c
30003854:	f8c7 30a0 	str.w	r3, [r7, #160]	; 0xa0
30003858:	4b49      	ldr	r3, [pc, #292]	; (30003980 <curve__test__ec__ecdsa_math.5618+0x688>)
3000385a:	f8c7 30a4 	str.w	r3, [r7, #164]	; 0xa4
3000385e:	46a4      	mov	ip, r4
30003860:	f8d7 2150 	ldr.w	r2, [r7, #336]	; 0x150
30003864:	e9d7 0128 	ldrd	r0, r1, [r7, #160]	; 0xa0
30003868:	f7fd fcfc 	bl	30001264 <curve__test__ec__copy_u32_to_s.5594>
3000386c:	e076      	b.n	3000395c <curve__test__ec__ecdsa_math.5618+0x664>
3000386e:	f8d7 2120 	ldr.w	r2, [r7, #288]	; 0x120
30003872:	f8d7 3120 	ldr.w	r3, [r7, #288]	; 0x120
30003876:	f602 1008 	addw	r0, r2, #2312	; 0x908
3000387a:	f503 613d 	add.w	r1, r3, #3024	; 0xbd0
3000387e:	2354      	movs	r3, #84	; 0x54
30003880:	461a      	mov	r2, r3
30003882:	f006 f803 	bl	3000988c <memcpy>
30003886:	e069      	b.n	3000395c <curve__test__ec__ecdsa_math.5618+0x664>
30003888:	f8d7 2120 	ldr.w	r2, [r7, #288]	; 0x120
3000388c:	f8d7 3120 	ldr.w	r3, [r7, #288]	; 0x120
30003890:	f602 105c 	addw	r0, r2, #2396	; 0x95c
30003894:	f503 613d 	add.w	r1, r3, #3024	; 0xbd0
30003898:	2354      	movs	r3, #84	; 0x54
3000389a:	461a      	mov	r2, r3
3000389c:	f005 fff6 	bl	3000988c <memcpy>
300038a0:	e05c      	b.n	3000395c <curve__test__ec__ecdsa_math.5618+0x664>
300038a2:	f8d7 2120 	ldr.w	r2, [r7, #288]	; 0x120
300038a6:	f8d7 3120 	ldr.w	r3, [r7, #288]	; 0x120
300038aa:	f502 601b 	add.w	r0, r2, #2480	; 0x9b0
300038ae:	f503 613d 	add.w	r1, r3, #3024	; 0xbd0
300038b2:	2354      	movs	r3, #84	; 0x54
300038b4:	461a      	mov	r2, r3
300038b6:	f005 ffe9 	bl	3000988c <memcpy>
300038ba:	e04f      	b.n	3000395c <curve__test__ec__ecdsa_math.5618+0x664>
300038bc:	f8d7 2120 	ldr.w	r2, [r7, #288]	; 0x120
300038c0:	f8d7 3120 	ldr.w	r3, [r7, #288]	; 0x120
300038c4:	f602 00b4 	addw	r0, r2, #2228	; 0x8b4
300038c8:	f603 1108 	addw	r1, r3, #2312	; 0x908
300038cc:	2354      	movs	r3, #84	; 0x54
300038ce:	461a      	mov	r2, r3
300038d0:	f005 ffdc 	bl	3000988c <memcpy>
300038d4:	e042      	b.n	3000395c <curve__test__ec__ecdsa_math.5618+0x664>
300038d6:	f8d7 2120 	ldr.w	r2, [r7, #288]	; 0x120
300038da:	f8d7 3120 	ldr.w	r3, [r7, #288]	; 0x120
300038de:	f602 00b4 	addw	r0, r2, #2228	; 0x8b4
300038e2:	f603 115c 	addw	r1, r3, #2396	; 0x95c
300038e6:	2354      	movs	r3, #84	; 0x54
300038e8:	461a      	mov	r2, r3
300038ea:	f005 ffcf 	bl	3000988c <memcpy>
300038ee:	e035      	b.n	3000395c <curve__test__ec__ecdsa_math.5618+0x664>
300038f0:	f8d7 2120 	ldr.w	r2, [r7, #288]	; 0x120
300038f4:	f8d7 3120 	ldr.w	r3, [r7, #288]	; 0x120
300038f8:	f602 2044 	addw	r0, r2, #2628	; 0xa44
300038fc:	f503 611b 	add.w	r1, r3, #2480	; 0x9b0
30003900:	2354      	movs	r3, #84	; 0x54
30003902:	461a      	mov	r2, r3
30003904:	f005 ffc2 	bl	3000988c <memcpy>
30003908:	e028      	b.n	3000395c <curve__test__ec__ecdsa_math.5618+0x664>
3000390a:	f8d7 2120 	ldr.w	r2, [r7, #288]	; 0x120
3000390e:	f8d7 3120 	ldr.w	r3, [r7, #288]	; 0x120
30003912:	f602 2044 	addw	r0, r2, #2628	; 0xa44
30003916:	f603 1108 	addw	r1, r3, #2312	; 0x908
3000391a:	2354      	movs	r3, #84	; 0x54
3000391c:	461a      	mov	r2, r3
3000391e:	f005 ffb5 	bl	3000988c <memcpy>
30003922:	e01b      	b.n	3000395c <curve__test__ec__ecdsa_math.5618+0x664>
30003924:	f8d7 2120 	ldr.w	r2, [r7, #288]	; 0x120
30003928:	f8d7 3120 	ldr.w	r3, [r7, #288]	; 0x120
3000392c:	f602 2044 	addw	r0, r2, #2628	; 0xa44
30003930:	f603 115c 	addw	r1, r3, #2396	; 0x95c
30003934:	2354      	movs	r3, #84	; 0x54
30003936:	461a      	mov	r2, r3
30003938:	f005 ffa8 	bl	3000988c <memcpy>
3000393c:	e00e      	b.n	3000395c <curve__test__ec__ecdsa_math.5618+0x664>
3000393e:	f8d7 2120 	ldr.w	r2, [r7, #288]	; 0x120
30003942:	f8d7 3120 	ldr.w	r3, [r7, #288]	; 0x120
30003946:	f602 2044 	addw	r0, r2, #2628	; 0xa44
3000394a:	f503 611b 	add.w	r1, r3, #2480	; 0x9b0
3000394e:	2354      	movs	r3, #84	; 0x54
30003950:	461a      	mov	r2, r3
30003952:	f005 ff9b 	bl	3000988c <memcpy>
30003956:	e001      	b.n	3000395c <curve__test__ec__ecdsa_math.5618+0x664>
30003958:	bf00      	nop
3000395a:	e7fd      	b.n	30003958 <curve__test__ec__ecdsa_math.5618+0x660>
3000395c:	f8d7 2124 	ldr.w	r2, [r7, #292]	; 0x124
30003960:	f8d7 3118 	ldr.w	r3, [r7, #280]	; 0x118
30003964:	429a      	cmp	r2, r3
30003966:	d005      	beq.n	30003974 <curve__test__ec__ecdsa_math.5618+0x67c>
30003968:	f8d7 3124 	ldr.w	r3, [r7, #292]	; 0x124
3000396c:	3301      	adds	r3, #1
3000396e:	f8c7 3124 	str.w	r3, [r7, #292]	; 0x124
30003972:	e507      	b.n	30003384 <curve__test__ec__ecdsa_math.5618+0x8c>
30003974:	f507 7794 	add.w	r7, r7, #296	; 0x128
30003978:	46bd      	mov	sp, r7
3000397a:	e8bd 87f0 	ldmia.w	sp!, {r4, r5, r6, r7, r8, r9, sl, pc}
3000397e:	bf00      	nop
30003980:	3000b4c4 	.word	0x3000b4c4

30003984 <curve__test__ec__ecdsa_point_mult__2.5630>:
30003984:	e92d 4ff0 	stmdb	sp!, {r4, r5, r6, r7, r8, r9, sl, fp, lr}
30003988:	b0a3      	sub	sp, #140	; 0x8c
3000398a:	af00      	add	r7, sp, #0
3000398c:	6578      	str	r0, [r7, #84]	; 0x54
3000398e:	6539      	str	r1, [r7, #80]	; 0x50
30003990:	64fa      	str	r2, [r7, #76]	; 0x4c
30003992:	4664      	mov	r4, ip
30003994:	f8c7 c048 	str.w	ip, [r7, #72]	; 0x48
30003998:	4864      	ldr	r0, [pc, #400]	; (30003b2c <curve__test__ec__ecdsa_point_mult__2.5630+0x1a8>)
3000399a:	f000 fce5 	bl	30004368 <stm32__device__s_ns_periph>
3000399e:	4603      	mov	r3, r0
300039a0:	65bb      	str	r3, [r7, #88]	; 0x58
300039a2:	f107 0258 	add.w	r2, r7, #88	; 0x58
300039a6:	6813      	ldr	r3, [r2, #0]
300039a8:	f8c7 3084 	str.w	r3, [r7, #132]	; 0x84
300039ac:	6813      	ldr	r3, [r2, #0]
300039ae:	f003 0303 	and.w	r3, r3, #3
300039b2:	2b00      	cmp	r3, #0
300039b4:	d004      	beq.n	300039c0 <curve__test__ec__ecdsa_point_mult__2.5630+0x3c>
300039b6:	f240 21df 	movw	r1, #735	; 0x2df
300039ba:	485d      	ldr	r0, [pc, #372]	; (30003b30 <curve__test__ec__ecdsa_point_mult__2.5630+0x1ac>)
300039bc:	f005 fce8 	bl	30009390 <__gnat_last_chance_handler>
300039c0:	46a4      	mov	ip, r4
300039c2:	f7fd fcbf 	bl	30001344 <curve__test__ec__enable_pka.5596>
300039c6:	6aa3      	ldr	r3, [r4, #40]	; 0x28
300039c8:	46a4      	mov	ip, r4
300039ca:	2103      	movs	r1, #3
300039cc:	4618      	mov	r0, r3
300039ce:	f7fd fda3 	bl	30001518 <curve__test__ec__common_init.6063>
300039d2:	46a4      	mov	ip, r4
300039d4:	f7fd fd70 	bl	300014b8 <curve__test__ec__clear_ram.5604>
300039d8:	6fe2      	ldr	r2, [r4, #124]	; 0x7c
300039da:	f8d7 3084 	ldr.w	r3, [r7, #132]	; 0x84
300039de:	f8c3 2404 	str.w	r2, [r3, #1028]	; 0x404
300039e2:	46a4      	mov	ip, r4
300039e4:	f7fd fce6 	bl	300013b4 <curve__test__ec__disable_pka.5598>
300039e8:	6fe2      	ldr	r2, [r4, #124]	; 0x7c
300039ea:	f8d7 3084 	ldr.w	r3, [r7, #132]	; 0x84
300039ee:	f8c3 2400 	str.w	r2, [r3, #1024]	; 0x400
300039f2:	f8d7 2084 	ldr.w	r2, [r7, #132]	; 0x84
300039f6:	2300      	movs	r3, #0
300039f8:	f8c2 3408 	str.w	r3, [r2, #1032]	; 0x408
300039fc:	6d62      	ldr	r2, [r4, #84]	; 0x54
300039fe:	6aa3      	ldr	r3, [r4, #40]	; 0x28
30003a00:	4413      	add	r3, r2
30003a02:	4698      	mov	r8, r3
30003a04:	2301      	movs	r3, #1
30003a06:	65fb      	str	r3, [r7, #92]	; 0x5c
30003a08:	6ea3      	ldr	r3, [r4, #104]	; 0x68
30003a0a:	663b      	str	r3, [r7, #96]	; 0x60
30003a0c:	f107 035c 	add.w	r3, r7, #92	; 0x5c
30003a10:	4699      	mov	r9, r3
30003a12:	f8d7 3084 	ldr.w	r3, [r7, #132]	; 0x84
30003a16:	f203 430c 	addw	r3, r3, #1036	; 0x40c
30003a1a:	461d      	mov	r5, r3
30003a1c:	4e45      	ldr	r6, [pc, #276]	; (30003b34 <curve__test__ec__ecdsa_point_mult__2.5630+0x1b0>)
30003a1e:	46a4      	mov	ip, r4
30003a20:	462a      	mov	r2, r5
30003a22:	4633      	mov	r3, r6
30003a24:	4640      	mov	r0, r8
30003a26:	4649      	mov	r1, r9
30003a28:	f7fc fdd0 	bl	300005cc <curve__test__ec__copy_s_to_u32.5577>
30003a2c:	6aa3      	ldr	r3, [r4, #40]	; 0x28
30003a2e:	469a      	mov	sl, r3
30003a30:	2301      	movs	r3, #1
30003a32:	667b      	str	r3, [r7, #100]	; 0x64
30003a34:	6f63      	ldr	r3, [r4, #116]	; 0x74
30003a36:	66bb      	str	r3, [r7, #104]	; 0x68
30003a38:	f107 0364 	add.w	r3, r7, #100	; 0x64
30003a3c:	469b      	mov	fp, r3
30003a3e:	f8d7 3084 	ldr.w	r3, [r7, #132]	; 0x84
30003a42:	f503 638c 	add.w	r3, r3, #1120	; 0x460
30003a46:	603b      	str	r3, [r7, #0]
30003a48:	4d3a      	ldr	r5, [pc, #232]	; (30003b34 <curve__test__ec__ecdsa_point_mult__2.5630+0x1b0>)
30003a4a:	607d      	str	r5, [r7, #4]
30003a4c:	46a4      	mov	ip, r4
30003a4e:	e9d7 2300 	ldrd	r2, r3, [r7]
30003a52:	4650      	mov	r0, sl
30003a54:	4659      	mov	r1, fp
30003a56:	f7fc fdb9 	bl	300005cc <curve__test__ec__copy_s_to_u32.5577>
30003a5a:	6d7b      	ldr	r3, [r7, #84]	; 0x54
30003a5c:	60bb      	str	r3, [r7, #8]
30003a5e:	2301      	movs	r3, #1
30003a60:	66fb      	str	r3, [r7, #108]	; 0x6c
30003a62:	f8d4 3084 	ldr.w	r3, [r4, #132]	; 0x84
30003a66:	673b      	str	r3, [r7, #112]	; 0x70
30003a68:	f107 036c 	add.w	r3, r7, #108	; 0x6c
30003a6c:	60fb      	str	r3, [r7, #12]
30003a6e:	f8d7 3084 	ldr.w	r3, [r7, #132]	; 0x84
30003a72:	f503 63a1 	add.w	r3, r3, #1288	; 0x508
30003a76:	613b      	str	r3, [r7, #16]
30003a78:	617d      	str	r5, [r7, #20]
30003a7a:	46a4      	mov	ip, r4
30003a7c:	e9d7 2304 	ldrd	r2, r3, [r7, #16]
30003a80:	e9d7 0102 	ldrd	r0, r1, [r7, #8]
30003a84:	f7fc fda2 	bl	300005cc <curve__test__ec__copy_s_to_u32.5577>
30003a88:	6d22      	ldr	r2, [r4, #80]	; 0x50
30003a8a:	6aa3      	ldr	r3, [r4, #40]	; 0x28
30003a8c:	4413      	add	r3, r2
30003a8e:	61bb      	str	r3, [r7, #24]
30003a90:	2301      	movs	r3, #1
30003a92:	677b      	str	r3, [r7, #116]	; 0x74
30003a94:	6f23      	ldr	r3, [r4, #112]	; 0x70
30003a96:	67bb      	str	r3, [r7, #120]	; 0x78
30003a98:	f107 0374 	add.w	r3, r7, #116	; 0x74
30003a9c:	61fb      	str	r3, [r7, #28]
30003a9e:	f8d7 3084 	ldr.w	r3, [r7, #132]	; 0x84
30003aa2:	f203 535c 	addw	r3, r3, #1372	; 0x55c
30003aa6:	623b      	str	r3, [r7, #32]
30003aa8:	627d      	str	r5, [r7, #36]	; 0x24
30003aaa:	46a4      	mov	ip, r4
30003aac:	e9d7 2308 	ldrd	r2, r3, [r7, #32]
30003ab0:	e9d7 0106 	ldrd	r0, r1, [r7, #24]
30003ab4:	f7fc fd8a 	bl	300005cc <curve__test__ec__copy_s_to_u32.5577>
30003ab8:	6ce3      	ldr	r3, [r4, #76]	; 0x4c
30003aba:	6aa2      	ldr	r2, [r4, #40]	; 0x28
30003abc:	4413      	add	r3, r2
30003abe:	62bb      	str	r3, [r7, #40]	; 0x28
30003ac0:	2301      	movs	r3, #1
30003ac2:	67fb      	str	r3, [r7, #124]	; 0x7c
30003ac4:	6ee3      	ldr	r3, [r4, #108]	; 0x6c
30003ac6:	f8c7 3080 	str.w	r3, [r7, #128]	; 0x80
30003aca:	f107 037c 	add.w	r3, r7, #124	; 0x7c
30003ace:	62fb      	str	r3, [r7, #44]	; 0x2c
30003ad0:	f8d7 3084 	ldr.w	r3, [r7, #132]	; 0x84
30003ad4:	f503 63b6 	add.w	r3, r3, #1456	; 0x5b0
30003ad8:	633b      	str	r3, [r7, #48]	; 0x30
30003ada:	637d      	str	r5, [r7, #52]	; 0x34
30003adc:	46a4      	mov	ip, r4
30003ade:	e9d7 230c 	ldrd	r2, r3, [r7, #48]	; 0x30
30003ae2:	e9d7 010a 	ldrd	r0, r1, [r7, #40]	; 0x28
30003ae6:	f7fc fd71 	bl	300005cc <curve__test__ec__copy_s_to_u32.5577>
30003aea:	46a4      	mov	ip, r4
30003aec:	2020      	movs	r0, #32
30003aee:	f7ff fa19 	bl	30002f24 <curve__test__ec__startpka.6060>
30003af2:	f8d7 3084 	ldr.w	r3, [r7, #132]	; 0x84
30003af6:	f203 535c 	addw	r3, r3, #1372	; 0x55c
30003afa:	63bb      	str	r3, [r7, #56]	; 0x38
30003afc:	63fd      	str	r5, [r7, #60]	; 0x3c
30003afe:	46a4      	mov	ip, r4
30003b00:	6d3a      	ldr	r2, [r7, #80]	; 0x50
30003b02:	e9d7 010e 	ldrd	r0, r1, [r7, #56]	; 0x38
30003b06:	f7fd fbad 	bl	30001264 <curve__test__ec__copy_u32_to_s.5594>
30003b0a:	f8d7 3084 	ldr.w	r3, [r7, #132]	; 0x84
30003b0e:	f503 63b6 	add.w	r3, r3, #1456	; 0x5b0
30003b12:	643b      	str	r3, [r7, #64]	; 0x40
30003b14:	647d      	str	r5, [r7, #68]	; 0x44
30003b16:	46a4      	mov	ip, r4
30003b18:	6cfa      	ldr	r2, [r7, #76]	; 0x4c
30003b1a:	e9d7 0110 	ldrd	r0, r1, [r7, #64]	; 0x40
30003b1e:	f7fd fba1 	bl	30001264 <curve__test__ec__copy_u32_to_s.5594>
30003b22:	378c      	adds	r7, #140	; 0x8c
30003b24:	46bd      	mov	sp, r7
30003b26:	e8bd 8ff0 	ldmia.w	sp!, {r4, r5, r6, r7, r8, r9, sl, fp, pc}
30003b2a:	bf00      	nop
30003b2c:	420c2000 	.word	0x420c2000
30003b30:	30009d08 	.word	0x30009d08
30003b34:	3000b4c4 	.word	0x3000b4c4

30003b38 <curve__test__ec__make_random_group_string.5633>:
30003b38:	e92d 41f0 	stmdb	sp!, {r4, r5, r6, r7, r8, lr}
30003b3c:	b098      	sub	sp, #96	; 0x60
30003b3e:	af04      	add	r7, sp, #16
30003b40:	6178      	str	r0, [r7, #20]
30003b42:	460b      	mov	r3, r1
30003b44:	74fb      	strb	r3, [r7, #19]
30003b46:	4664      	mov	r4, ip
30003b48:	f8c7 c00c 	str.w	ip, [r7, #12]
30003b4c:	466b      	mov	r3, sp
30003b4e:	4698      	mov	r8, r3
30003b50:	f8d4 3084 	ldr.w	r3, [r4, #132]	; 0x84
30003b54:	ea23 73e3 	bic.w	r3, r3, r3, asr #31
30003b58:	3307      	adds	r3, #7
30003b5a:	08db      	lsrs	r3, r3, #3
30003b5c:	00db      	lsls	r3, r3, #3
30003b5e:	ebad 0d03 	sub.w	sp, sp, r3
30003b62:	ab04      	add	r3, sp, #16
30003b64:	3300      	adds	r3, #0
30003b66:	64fb      	str	r3, [r7, #76]	; 0x4c
30003b68:	f8d4 3084 	ldr.w	r3, [r4, #132]	; 0x84
30003b6c:	ea23 73e3 	bic.w	r3, r3, r3, asr #31
30003b70:	3307      	adds	r3, #7
30003b72:	08db      	lsrs	r3, r3, #3
30003b74:	00db      	lsls	r3, r3, #3
30003b76:	ebad 0d03 	sub.w	sp, sp, r3
30003b7a:	ab04      	add	r3, sp, #16
30003b7c:	3300      	adds	r3, #0
30003b7e:	647b      	str	r3, [r7, #68]	; 0x44
30003b80:	f8d4 3084 	ldr.w	r3, [r4, #132]	; 0x84
30003b84:	ea23 73e3 	bic.w	r3, r3, r3, asr #31
30003b88:	3307      	adds	r3, #7
30003b8a:	08db      	lsrs	r3, r3, #3
30003b8c:	00db      	lsls	r3, r3, #3
30003b8e:	ebad 0d03 	sub.w	sp, sp, r3
30003b92:	ab04      	add	r3, sp, #16
30003b94:	3300      	adds	r3, #0
30003b96:	643b      	str	r3, [r7, #64]	; 0x40
30003b98:	6923      	ldr	r3, [r4, #16]
30003b9a:	3b01      	subs	r3, #1
30003b9c:	461a      	mov	r2, r3
30003b9e:	2a00      	cmp	r2, #0
30003ba0:	da04      	bge.n	30003bac <curve__test__ec__make_random_group_string.5633+0x74>
30003ba2:	f240 21f7 	movw	r1, #759	; 0x2f7
30003ba6:	48a8      	ldr	r0, [pc, #672]	; (30003e48 <curve__test__ec__make_random_group_string.5633+0x310>)
30003ba8:	f005 fbf2 	bl	30009390 <__gnat_last_chance_handler>
30003bac:	63fb      	str	r3, [r7, #60]	; 0x3c
30003bae:	6bfb      	ldr	r3, [r7, #60]	; 0x3c
30003bb0:	2b00      	cmp	r3, #0
30003bb2:	db02      	blt.n	30003bba <curve__test__ec__make_random_group_string.5633+0x82>
30003bb4:	6bfb      	ldr	r3, [r7, #60]	; 0x3c
30003bb6:	63bb      	str	r3, [r7, #56]	; 0x38
30003bb8:	e002      	b.n	30003bc0 <curve__test__ec__make_random_group_string.5633+0x88>
30003bba:	f04f 33ff 	mov.w	r3, #4294967295	; 0xffffffff
30003bbe:	63bb      	str	r3, [r7, #56]	; 0x38
30003bc0:	6bfb      	ldr	r3, [r7, #60]	; 0x3c
30003bc2:	2b00      	cmp	r3, #0
30003bc4:	db03      	blt.n	30003bce <curve__test__ec__make_random_group_string.5633+0x96>
30003bc6:	6bfb      	ldr	r3, [r7, #60]	; 0x3c
30003bc8:	3301      	adds	r3, #1
30003bca:	009b      	lsls	r3, r3, #2
30003bcc:	e000      	b.n	30003bd0 <curve__test__ec__make_random_group_string.5633+0x98>
30003bce:	2300      	movs	r3, #0
30003bd0:	3303      	adds	r3, #3
30003bd2:	3307      	adds	r3, #7
30003bd4:	08db      	lsrs	r3, r3, #3
30003bd6:	00db      	lsls	r3, r3, #3
30003bd8:	ebad 0d03 	sub.w	sp, sp, r3
30003bdc:	ab04      	add	r3, sp, #16
30003bde:	3303      	adds	r3, #3
30003be0:	089b      	lsrs	r3, r3, #2
30003be2:	009b      	lsls	r3, r3, #2
30003be4:	637b      	str	r3, [r7, #52]	; 0x34
30003be6:	f002 fbf3 	bl	300063d0 <stm32__rng__enable_rng>
30003bea:	46a4      	mov	ip, r4
30003bec:	f7fd fbaa 	bl	30001344 <curve__test__ec__enable_pka.5596>
30003bf0:	6aa3      	ldr	r3, [r4, #40]	; 0x28
30003bf2:	46a4      	mov	ip, r4
30003bf4:	2103      	movs	r1, #3
30003bf6:	4618      	mov	r0, r3
30003bf8:	f7fd fc8e 	bl	30001518 <curve__test__ec__common_init.6063>
30003bfc:	6bfb      	ldr	r3, [r7, #60]	; 0x3c
30003bfe:	633b      	str	r3, [r7, #48]	; 0x30
30003c00:	6b3b      	ldr	r3, [r7, #48]	; 0x30
30003c02:	2b00      	cmp	r3, #0
30003c04:	db1b      	blt.n	30003c3e <curve__test__ec__make_random_group_string.5633+0x106>
30003c06:	2300      	movs	r3, #0
30003c08:	64bb      	str	r3, [r7, #72]	; 0x48
30003c0a:	6cba      	ldr	r2, [r7, #72]	; 0x48
30003c0c:	6bfb      	ldr	r3, [r7, #60]	; 0x3c
30003c0e:	429a      	cmp	r2, r3
30003c10:	dd04      	ble.n	30003c1c <curve__test__ec__make_random_group_string.5633+0xe4>
30003c12:	f240 21fd 	movw	r1, #765	; 0x2fd
30003c16:	488c      	ldr	r0, [pc, #560]	; (30003e48 <curve__test__ec__make_random_group_string.5633+0x310>)
30003c18:	f005 fbba 	bl	30009390 <__gnat_last_chance_handler>
30003c1c:	6cbb      	ldr	r3, [r7, #72]	; 0x48
30003c1e:	60bb      	str	r3, [r7, #8]
30003c20:	f002 fc3c 	bl	3000649c <stm32__rng__random>
30003c24:	4602      	mov	r2, r0
30003c26:	6b7b      	ldr	r3, [r7, #52]	; 0x34
30003c28:	68b9      	ldr	r1, [r7, #8]
30003c2a:	f843 2021 	str.w	r2, [r3, r1, lsl #2]
30003c2e:	6cba      	ldr	r2, [r7, #72]	; 0x48
30003c30:	6b3b      	ldr	r3, [r7, #48]	; 0x30
30003c32:	429a      	cmp	r2, r3
30003c34:	d003      	beq.n	30003c3e <curve__test__ec__make_random_group_string.5633+0x106>
30003c36:	6cbb      	ldr	r3, [r7, #72]	; 0x48
30003c38:	3301      	adds	r3, #1
30003c3a:	64bb      	str	r3, [r7, #72]	; 0x48
30003c3c:	e7e5      	b.n	30003c0a <curve__test__ec__make_random_group_string.5633+0xd2>
30003c3e:	68e3      	ldr	r3, [r4, #12]
30003c40:	2b00      	cmp	r3, #0
30003c42:	d040      	beq.n	30003cc6 <curve__test__ec__make_random_group_string.5633+0x18e>
30003c44:	68e3      	ldr	r3, [r4, #12]
30003c46:	f1c3 0320 	rsb	r3, r3, #32
30003c4a:	461a      	mov	r2, r3
30003c4c:	2a00      	cmp	r2, #0
30003c4e:	da04      	bge.n	30003c5a <curve__test__ec__make_random_group_string.5633+0x122>
30003c50:	f240 3102 	movw	r1, #770	; 0x302
30003c54:	487c      	ldr	r0, [pc, #496]	; (30003e48 <curve__test__ec__make_random_group_string.5633+0x310>)
30003c56:	f005 fb9b 	bl	30009390 <__gnat_last_chance_handler>
30003c5a:	2b1f      	cmp	r3, #31
30003c5c:	d804      	bhi.n	30003c68 <curve__test__ec__make_random_group_string.5633+0x130>
30003c5e:	f04f 32ff 	mov.w	r2, #4294967295	; 0xffffffff
30003c62:	fa22 f303 	lsr.w	r3, r2, r3
30003c66:	e000      	b.n	30003c6a <curve__test__ec__make_random_group_string.5633+0x132>
30003c68:	2300      	movs	r3, #0
30003c6a:	62fb      	str	r3, [r7, #44]	; 0x2c
30003c6c:	6923      	ldr	r3, [r4, #16]
30003c6e:	3b01      	subs	r3, #1
30003c70:	461a      	mov	r2, r3
30003c72:	2a00      	cmp	r2, #0
30003c74:	da04      	bge.n	30003c80 <curve__test__ec__make_random_group_string.5633+0x148>
30003c76:	f240 3103 	movw	r1, #771	; 0x303
30003c7a:	4873      	ldr	r0, [pc, #460]	; (30003e48 <curve__test__ec__make_random_group_string.5633+0x310>)
30003c7c:	f005 fb88 	bl	30009390 <__gnat_last_chance_handler>
30003c80:	62bb      	str	r3, [r7, #40]	; 0x28
30003c82:	6abb      	ldr	r3, [r7, #40]	; 0x28
30003c84:	2b00      	cmp	r3, #0
30003c86:	db03      	blt.n	30003c90 <curve__test__ec__make_random_group_string.5633+0x158>
30003c88:	6aba      	ldr	r2, [r7, #40]	; 0x28
30003c8a:	6bfb      	ldr	r3, [r7, #60]	; 0x3c
30003c8c:	429a      	cmp	r2, r3
30003c8e:	dd04      	ble.n	30003c9a <curve__test__ec__make_random_group_string.5633+0x162>
30003c90:	f240 3105 	movw	r1, #773	; 0x305
30003c94:	486c      	ldr	r0, [pc, #432]	; (30003e48 <curve__test__ec__make_random_group_string.5633+0x310>)
30003c96:	f005 fb7b 	bl	30009390 <__gnat_last_chance_handler>
30003c9a:	6abb      	ldr	r3, [r7, #40]	; 0x28
30003c9c:	2b00      	cmp	r3, #0
30003c9e:	db03      	blt.n	30003ca8 <curve__test__ec__make_random_group_string.5633+0x170>
30003ca0:	6aba      	ldr	r2, [r7, #40]	; 0x28
30003ca2:	6bfb      	ldr	r3, [r7, #60]	; 0x3c
30003ca4:	429a      	cmp	r2, r3
30003ca6:	dd04      	ble.n	30003cb2 <curve__test__ec__make_random_group_string.5633+0x17a>
30003ca8:	f240 3105 	movw	r1, #773	; 0x305
30003cac:	4866      	ldr	r0, [pc, #408]	; (30003e48 <curve__test__ec__make_random_group_string.5633+0x310>)
30003cae:	f005 fb6f 	bl	30009390 <__gnat_last_chance_handler>
30003cb2:	6aba      	ldr	r2, [r7, #40]	; 0x28
30003cb4:	6b7b      	ldr	r3, [r7, #52]	; 0x34
30003cb6:	f853 1022 	ldr.w	r1, [r3, r2, lsl #2]
30003cba:	6aba      	ldr	r2, [r7, #40]	; 0x28
30003cbc:	6afb      	ldr	r3, [r7, #44]	; 0x2c
30003cbe:	4019      	ands	r1, r3
30003cc0:	6b7b      	ldr	r3, [r7, #52]	; 0x34
30003cc2:	f843 1022 	str.w	r1, [r3, r2, lsl #2]
30003cc6:	6b7d      	ldr	r5, [r7, #52]	; 0x34
30003cc8:	2300      	movs	r3, #0
30003cca:	61bb      	str	r3, [r7, #24]
30003ccc:	6bfb      	ldr	r3, [r7, #60]	; 0x3c
30003cce:	61fb      	str	r3, [r7, #28]
30003cd0:	f107 0318 	add.w	r3, r7, #24
30003cd4:	461e      	mov	r6, r3
30003cd6:	6c7b      	ldr	r3, [r7, #68]	; 0x44
30003cd8:	46a4      	mov	ip, r4
30003cda:	461a      	mov	r2, r3
30003cdc:	4628      	mov	r0, r5
30003cde:	4631      	mov	r1, r6
30003ce0:	f7fd fac0 	bl	30001264 <curve__test__ec__copy_u32_to_s.5594>
30003ce4:	7cfb      	ldrb	r3, [r7, #19]
30003ce6:	2b00      	cmp	r3, #0
30003ce8:	f000 8097 	beq.w	30003e1a <curve__test__ec__make_random_group_string.5633+0x2e2>
30003cec:	68a3      	ldr	r3, [r4, #8]
30003cee:	2b00      	cmp	r3, #0
30003cf0:	dc04      	bgt.n	30003cfc <curve__test__ec__make_random_group_string.5633+0x1c4>
30003cf2:	f240 310b 	movw	r1, #779	; 0x30b
30003cf6:	4854      	ldr	r0, [pc, #336]	; (30003e48 <curve__test__ec__make_random_group_string.5633+0x310>)
30003cf8:	f005 fb4a 	bl	30009390 <__gnat_last_chance_handler>
30003cfc:	68a3      	ldr	r3, [r4, #8]
30003cfe:	ea23 73e3 	bic.w	r3, r3, r3, asr #31
30003d02:	3307      	adds	r3, #7
30003d04:	08db      	lsrs	r3, r3, #3
30003d06:	00db      	lsls	r3, r3, #3
30003d08:	ebad 0d03 	sub.w	sp, sp, r3
30003d0c:	ab04      	add	r3, sp, #16
30003d0e:	3300      	adds	r3, #0
30003d10:	627b      	str	r3, [r7, #36]	; 0x24
30003d12:	6a7b      	ldr	r3, [r7, #36]	; 0x24
30003d14:	2230      	movs	r2, #48	; 0x30
30003d16:	701a      	strb	r2, [r3, #0]
30003d18:	2301      	movs	r3, #1
30003d1a:	68a2      	ldr	r2, [r4, #8]
30003d1c:	4293      	cmp	r3, r2
30003d1e:	da07      	bge.n	30003d30 <curve__test__ec__make_random_group_string.5633+0x1f8>
30003d20:	3301      	adds	r3, #1
30003d22:	4619      	mov	r1, r3
30003d24:	6a7a      	ldr	r2, [r7, #36]	; 0x24
30003d26:	440a      	add	r2, r1
30003d28:	2130      	movs	r1, #48	; 0x30
30003d2a:	f802 1c01 	strb.w	r1, [r2, #-1]
30003d2e:	e7f4      	b.n	30003d1a <curve__test__ec__make_random_group_string.5633+0x1e2>
30003d30:	f8d4 3084 	ldr.w	r3, [r4, #132]	; 0x84
30003d34:	ea23 72e3 	bic.w	r2, r3, r3, asr #31
30003d38:	68a3      	ldr	r3, [r4, #8]
30003d3a:	ea23 73e3 	bic.w	r3, r3, r3, asr #31
30003d3e:	429a      	cmp	r2, r3
30003d40:	d004      	beq.n	30003d4c <curve__test__ec__make_random_group_string.5633+0x214>
30003d42:	f240 310b 	movw	r1, #779	; 0x30b
30003d46:	4840      	ldr	r0, [pc, #256]	; (30003e48 <curve__test__ec__make_random_group_string.5633+0x310>)
30003d48:	f005 fb22 	bl	30009390 <__gnat_last_chance_handler>
30003d4c:	6863      	ldr	r3, [r4, #4]
30003d4e:	6c39      	ldr	r1, [r7, #64]	; 0x40
30003d50:	6a7a      	ldr	r2, [r7, #36]	; 0x24
30003d52:	4608      	mov	r0, r1
30003d54:	4611      	mov	r1, r2
30003d56:	461a      	mov	r2, r3
30003d58:	f005 fd98 	bl	3000988c <memcpy>
30003d5c:	f8d4 3084 	ldr.w	r3, [r4, #132]	; 0x84
30003d60:	2b00      	cmp	r3, #0
30003d62:	dd07      	ble.n	30003d74 <curve__test__ec__make_random_group_string.5633+0x23c>
30003d64:	f8d4 3084 	ldr.w	r3, [r4, #132]	; 0x84
30003d68:	ea23 73e3 	bic.w	r3, r3, r3, asr #31
30003d6c:	f8d4 2084 	ldr.w	r2, [r4, #132]	; 0x84
30003d70:	429a      	cmp	r2, r3
30003d72:	da04      	bge.n	30003d7e <curve__test__ec__make_random_group_string.5633+0x246>
30003d74:	f44f 7143 	mov.w	r1, #780	; 0x30c
30003d78:	4833      	ldr	r0, [pc, #204]	; (30003e48 <curve__test__ec__make_random_group_string.5633+0x310>)
30003d7a:	f005 fb09 	bl	30009390 <__gnat_last_chance_handler>
30003d7e:	f8d4 3084 	ldr.w	r3, [r4, #132]	; 0x84
30003d82:	ea23 73e3 	bic.w	r3, r3, r3, asr #31
30003d86:	461a      	mov	r2, r3
30003d88:	6c3b      	ldr	r3, [r7, #64]	; 0x40
30003d8a:	4413      	add	r3, r2
30003d8c:	2231      	movs	r2, #49	; 0x31
30003d8e:	f803 2c01 	strb.w	r2, [r3, #-1]
30003d92:	68a3      	ldr	r3, [r4, #8]
30003d94:	2b00      	cmp	r3, #0
30003d96:	dc04      	bgt.n	30003da2 <curve__test__ec__make_random_group_string.5633+0x26a>
30003d98:	f240 310e 	movw	r1, #782	; 0x30e
30003d9c:	482a      	ldr	r0, [pc, #168]	; (30003e48 <curve__test__ec__make_random_group_string.5633+0x310>)
30003d9e:	f005 faf7 	bl	30009390 <__gnat_last_chance_handler>
30003da2:	68a3      	ldr	r3, [r4, #8]
30003da4:	ea23 73e3 	bic.w	r3, r3, r3, asr #31
30003da8:	3307      	adds	r3, #7
30003daa:	08db      	lsrs	r3, r3, #3
30003dac:	00db      	lsls	r3, r3, #3
30003dae:	ebad 0d03 	sub.w	sp, sp, r3
30003db2:	ab04      	add	r3, sp, #16
30003db4:	3300      	adds	r3, #0
30003db6:	623b      	str	r3, [r7, #32]
30003db8:	6a3b      	ldr	r3, [r7, #32]
30003dba:	2230      	movs	r2, #48	; 0x30
30003dbc:	701a      	strb	r2, [r3, #0]
30003dbe:	2301      	movs	r3, #1
30003dc0:	68a2      	ldr	r2, [r4, #8]
30003dc2:	4293      	cmp	r3, r2
30003dc4:	da07      	bge.n	30003dd6 <curve__test__ec__make_random_group_string.5633+0x29e>
30003dc6:	3301      	adds	r3, #1
30003dc8:	4619      	mov	r1, r3
30003dca:	6a3a      	ldr	r2, [r7, #32]
30003dcc:	440a      	add	r2, r1
30003dce:	2130      	movs	r1, #48	; 0x30
30003dd0:	f802 1c01 	strb.w	r1, [r2, #-1]
30003dd4:	e7f4      	b.n	30003dc0 <curve__test__ec__make_random_group_string.5633+0x288>
30003dd6:	f8d4 3084 	ldr.w	r3, [r4, #132]	; 0x84
30003dda:	ea23 72e3 	bic.w	r2, r3, r3, asr #31
30003dde:	68a3      	ldr	r3, [r4, #8]
30003de0:	ea23 73e3 	bic.w	r3, r3, r3, asr #31
30003de4:	429a      	cmp	r2, r3
30003de6:	d004      	beq.n	30003df2 <curve__test__ec__make_random_group_string.5633+0x2ba>
30003de8:	f240 310e 	movw	r1, #782	; 0x30e
30003dec:	4816      	ldr	r0, [pc, #88]	; (30003e48 <curve__test__ec__make_random_group_string.5633+0x310>)
30003dee:	f005 facf 	bl	30009390 <__gnat_last_chance_handler>
30003df2:	4b16      	ldr	r3, [pc, #88]	; (30003e4c <curve__test__ec__make_random_group_string.5633+0x314>)
30003df4:	603b      	str	r3, [r7, #0]
30003df6:	4b16      	ldr	r3, [pc, #88]	; (30003e50 <curve__test__ec__make_random_group_string.5633+0x318>)
30003df8:	607b      	str	r3, [r7, #4]
30003dfa:	6c78      	ldr	r0, [r7, #68]	; 0x44
30003dfc:	6c3d      	ldr	r5, [r7, #64]	; 0x40
30003dfe:	6a3b      	ldr	r3, [r7, #32]
30003e00:	6cfa      	ldr	r2, [r7, #76]	; 0x4c
30003e02:	6cf9      	ldr	r1, [r7, #76]	; 0x4c
30003e04:	9102      	str	r1, [sp, #8]
30003e06:	9201      	str	r2, [sp, #4]
30003e08:	9300      	str	r3, [sp, #0]
30003e0a:	46a4      	mov	ip, r4
30003e0c:	462b      	mov	r3, r5
30003e0e:	4602      	mov	r2, r0
30003e10:	e9d7 0100 	ldrd	r0, r1, [r7]
30003e14:	f7ff fa70 	bl	300032f8 <curve__test__ec__ecdsa_math.5618>
30003e18:	e007      	b.n	30003e2a <curve__test__ec__make_random_group_string.5633+0x2f2>
30003e1a:	6863      	ldr	r3, [r4, #4]
30003e1c:	6cf9      	ldr	r1, [r7, #76]	; 0x4c
30003e1e:	6c7a      	ldr	r2, [r7, #68]	; 0x44
30003e20:	4608      	mov	r0, r1
30003e22:	4611      	mov	r1, r2
30003e24:	461a      	mov	r2, r3
30003e26:	f005 fd31 	bl	3000988c <memcpy>
30003e2a:	6863      	ldr	r3, [r4, #4]
30003e2c:	6979      	ldr	r1, [r7, #20]
30003e2e:	6cfa      	ldr	r2, [r7, #76]	; 0x4c
30003e30:	4608      	mov	r0, r1
30003e32:	4611      	mov	r1, r2
30003e34:	461a      	mov	r2, r3
30003e36:	f005 fd29 	bl	3000988c <memcpy>
30003e3a:	46c5      	mov	sp, r8
30003e3c:	bf00      	nop
30003e3e:	6978      	ldr	r0, [r7, #20]
30003e40:	3750      	adds	r7, #80	; 0x50
30003e42:	46bd      	mov	sp, r7
30003e44:	e8bd 81f0 	ldmia.w	sp!, {r4, r5, r6, r7, r8, pc}
30003e48:	30009d08 	.word	0x30009d08
30003e4c:	3000b4dc 	.word	0x3000b4dc
30003e50:	3000b4e8 	.word	0x3000b4e8

30003e54 <curve__test__ec__make_public_key_string.6088>:
30003e54:	b5b0      	push	{r4, r5, r7, lr}
30003e56:	b086      	sub	sp, #24
30003e58:	af00      	add	r7, sp, #0
30003e5a:	60f8      	str	r0, [r7, #12]
30003e5c:	60b9      	str	r1, [r7, #8]
30003e5e:	4664      	mov	r4, ip
30003e60:	f8c7 c004 	str.w	ip, [r7, #4]
30003e64:	466b      	mov	r3, sp
30003e66:	461d      	mov	r5, r3
30003e68:	f8d4 3084 	ldr.w	r3, [r4, #132]	; 0x84
30003e6c:	ea23 73e3 	bic.w	r3, r3, r3, asr #31
30003e70:	005b      	lsls	r3, r3, #1
30003e72:	3307      	adds	r3, #7
30003e74:	08db      	lsrs	r3, r3, #3
30003e76:	00db      	lsls	r3, r3, #3
30003e78:	ebad 0d03 	sub.w	sp, sp, r3
30003e7c:	466b      	mov	r3, sp
30003e7e:	3300      	adds	r3, #0
30003e80:	617b      	str	r3, [r7, #20]
30003e82:	6979      	ldr	r1, [r7, #20]
30003e84:	6963      	ldr	r3, [r4, #20]
30003e86:	697a      	ldr	r2, [r7, #20]
30003e88:	4413      	add	r3, r2
30003e8a:	46a4      	mov	ip, r4
30003e8c:	461a      	mov	r2, r3
30003e8e:	68b8      	ldr	r0, [r7, #8]
30003e90:	f7ff fd78 	bl	30003984 <curve__test__ec__ecdsa_point_mult__2.5630>
30003e94:	6823      	ldr	r3, [r4, #0]
30003e96:	68f9      	ldr	r1, [r7, #12]
30003e98:	697a      	ldr	r2, [r7, #20]
30003e9a:	4608      	mov	r0, r1
30003e9c:	4611      	mov	r1, r2
30003e9e:	461a      	mov	r2, r3
30003ea0:	f005 fcf4 	bl	3000988c <memcpy>
30003ea4:	46ad      	mov	sp, r5
30003ea6:	bf00      	nop
30003ea8:	68f8      	ldr	r0, [r7, #12]
30003eaa:	3718      	adds	r7, #24
30003eac:	46bd      	mov	sp, r7
30003eae:	bdb0      	pop	{r4, r5, r7, pc}

30003eb0 <stm32__board__initialize_leds>:
30003eb0:	b5b0      	push	{r4, r5, r7, lr}
30003eb2:	b082      	sub	sp, #8
30003eb4:	af00      	add	r7, sp, #0
30003eb6:	4a12      	ldr	r2, [pc, #72]	; (30003f00 <stm32__board__initialize_leds+0x50>)
30003eb8:	4b12      	ldr	r3, [pc, #72]	; (30003f04 <stm32__board__initialize_leds+0x54>)
30003eba:	4610      	mov	r0, r2
30003ebc:	4619      	mov	r1, r3
30003ebe:	f000 fa17 	bl	300042f0 <stm32__device__enable_clock__3>
30003ec2:	4b11      	ldr	r3, [pc, #68]	; (30003f08 <stm32__board__initialize_leds+0x58>)
30003ec4:	3304      	adds	r3, #4
30003ec6:	681b      	ldr	r3, [r3, #0]
30003ec8:	461a      	mov	r2, r3
30003eca:	4613      	mov	r3, r2
30003ecc:	f443 7200 	orr.w	r2, r3, #512	; 0x200
30003ed0:	4b0d      	ldr	r3, [pc, #52]	; (30003f08 <stm32__board__initialize_leds+0x58>)
30003ed2:	3304      	adds	r3, #4
30003ed4:	601a      	str	r2, [r3, #0]
30003ed6:	2301      	movs	r3, #1
30003ed8:	703b      	strb	r3, [r7, #0]
30003eda:	2300      	movs	r3, #0
30003edc:	707b      	strb	r3, [r7, #1]
30003ede:	2300      	movs	r3, #0
30003ee0:	70bb      	strb	r3, [r7, #2]
30003ee2:	2300      	movs	r3, #0
30003ee4:	70fb      	strb	r3, [r7, #3]
30003ee6:	2300      	movs	r3, #0
30003ee8:	713b      	strb	r3, [r7, #4]
30003eea:	4c05      	ldr	r4, [pc, #20]	; (30003f00 <stm32__board__initialize_leds+0x50>)
30003eec:	4d05      	ldr	r5, [pc, #20]	; (30003f04 <stm32__board__initialize_leds+0x54>)
30003eee:	463b      	mov	r3, r7
30003ef0:	461a      	mov	r2, r3
30003ef2:	4620      	mov	r0, r4
30003ef4:	4629      	mov	r1, r5
30003ef6:	f002 f8cf 	bl	30006098 <stm32__gpio__configure_io__2>
30003efa:	3708      	adds	r7, #8
30003efc:	46bd      	mov	sp, r7
30003efe:	bdb0      	pop	{r4, r5, r7, pc}
30003f00:	3000bf40 	.word	0x3000bf40
30003f04:	3000b4f0 	.word	0x3000b4f0
30003f08:	50007000 	.word	0x50007000

30003f0c <stm32__board__initialize_button>:
30003f0c:	b580      	push	{r7, lr}
30003f0e:	b084      	sub	sp, #16
30003f10:	af00      	add	r7, sp, #0
30003f12:	481f      	ldr	r0, [pc, #124]	; (30003f90 <stm32__board__initialize_button+0x84>)
30003f14:	f000 f9d6 	bl	300042c4 <stm32__device__enable_clock__2>
30003f18:	2300      	movs	r3, #0
30003f1a:	713b      	strb	r3, [r7, #4]
30003f1c:	2300      	movs	r3, #0
30003f1e:	717b      	strb	r3, [r7, #5]
30003f20:	2300      	movs	r3, #0
30003f22:	71fb      	strb	r3, [r7, #7]
30003f24:	2300      	movs	r3, #0
30003f26:	71bb      	strb	r3, [r7, #6]
30003f28:	2300      	movs	r3, #0
30003f2a:	723b      	strb	r3, [r7, #8]
30003f2c:	1d3b      	adds	r3, r7, #4
30003f2e:	4619      	mov	r1, r3
30003f30:	4817      	ldr	r0, [pc, #92]	; (30003f90 <stm32__board__initialize_button+0x84>)
30003f32:	f001 ffc3 	bl	30005ebc <stm32__gpio__configure_io>
30003f36:	4b16      	ldr	r3, [pc, #88]	; (30003f90 <stm32__board__initialize_button+0x84>)
30003f38:	891b      	ldrh	r3, [r3, #8]
30003f3a:	2101      	movs	r1, #1
30003f3c:	4618      	mov	r0, r3
30003f3e:	f001 fc0d 	bl	3000575c <stm32__gpio__gpio_pinRP>
30003f42:	60f8      	str	r0, [r7, #12]
30003f44:	68fb      	ldr	r3, [r7, #12]
30003f46:	2b00      	cmp	r3, #0
30003f48:	db02      	blt.n	30003f50 <stm32__board__initialize_button+0x44>
30003f4a:	68fb      	ldr	r3, [r7, #12]
30003f4c:	2b16      	cmp	r3, #22
30003f4e:	dd03      	ble.n	30003f58 <stm32__board__initialize_button+0x4c>
30003f50:	2134      	movs	r1, #52	; 0x34
30003f52:	4810      	ldr	r0, [pc, #64]	; (30003f94 <stm32__board__initialize_button+0x88>)
30003f54:	f005 fa1c 	bl	30009390 <__gnat_last_chance_handler>
30003f58:	68fb      	ldr	r3, [r7, #12]
30003f5a:	b2db      	uxtb	r3, r3
30003f5c:	2200      	movs	r2, #0
30003f5e:	2100      	movs	r1, #0
30003f60:	4618      	mov	r0, r3
30003f62:	f001 fa39 	bl	300053d8 <stm32__exti__enable_external_interrupt>
30003f66:	4b0c      	ldr	r3, [pc, #48]	; (30003f98 <stm32__board__initialize_button+0x8c>)
30003f68:	f8d3 3280 	ldr.w	r3, [r3, #640]	; 0x280
30003f6c:	4a0a      	ldr	r2, [pc, #40]	; (30003f98 <stm32__board__initialize_button+0x8c>)
30003f6e:	f043 7380 	orr.w	r3, r3, #16777216	; 0x1000000
30003f72:	f8c2 3280 	str.w	r3, [r2, #640]	; 0x280
30003f76:	4b09      	ldr	r3, [pc, #36]	; (30003f9c <stm32__board__initialize_button+0x90>)
30003f78:	336c      	adds	r3, #108	; 0x6c
30003f7a:	681b      	ldr	r3, [r3, #0]
30003f7c:	2202      	movs	r2, #2
30003f7e:	f362 230f 	bfi	r3, r2, #8, #8
30003f82:	4a06      	ldr	r2, [pc, #24]	; (30003f9c <stm32__board__initialize_button+0x90>)
30003f84:	326c      	adds	r2, #108	; 0x6c
30003f86:	6013      	str	r3, [r2, #0]
30003f88:	3710      	adds	r7, #16
30003f8a:	46bd      	mov	sp, r7
30003f8c:	bd80      	pop	{r7, pc}
30003f8e:	bf00      	nop
30003f90:	3000c18c 	.word	0x3000c18c
30003f94:	3000b4f8 	.word	0x3000b4f8
30003f98:	e000e100 	.word	0xe000e100
30003f9c:	4002f400 	.word	0x4002f400

30003fa0 <stm32__board__initialize_board>:
30003fa0:	b580      	push	{r7, lr}
30003fa2:	af00      	add	r7, sp, #0
30003fa4:	f7ff ff84 	bl	30003eb0 <stm32__board__initialize_leds>
30003fa8:	f7ff ffb0 	bl	30003f0c <stm32__board__initialize_button>
30003fac:	bd80      	pop	{r7, pc}
30003fae:	bf00      	nop

30003fb0 <stm32__board___elabs>:
30003fb0:	b598      	push	{r3, r4, r7, lr}
30003fb2:	af00      	add	r7, sp, #0
30003fb4:	4b07      	ldr	r3, [pc, #28]	; (30003fd4 <stm32__board___elabs+0x24>)
30003fb6:	4c08      	ldr	r4, [pc, #32]	; (30003fd8 <stm32__board___elabs+0x28>)
30003fb8:	4618      	mov	r0, r3
30003fba:	4621      	mov	r1, r4
30003fbc:	f001 fc86 	bl	300058cc <stm32__gpio__gpio_pointsIP>
30003fc0:	4906      	ldr	r1, [pc, #24]	; (30003fdc <stm32__board___elabs+0x2c>)
30003fc2:	4804      	ldr	r0, [pc, #16]	; (30003fd4 <stm32__board___elabs+0x24>)
30003fc4:	f001 fc70 	bl	300058a8 <stm32__gpio___assign>
30003fc8:	4905      	ldr	r1, [pc, #20]	; (30003fe0 <stm32__board___elabs+0x30>)
30003fca:	4806      	ldr	r0, [pc, #24]	; (30003fe4 <stm32__board___elabs+0x34>)
30003fcc:	f001 fc6c 	bl	300058a8 <stm32__gpio___assign>
30003fd0:	bd98      	pop	{r3, r4, r7, pc}
30003fd2:	bf00      	nop
30003fd4:	3000bf40 	.word	0x3000bf40
30003fd8:	3000b4f0 	.word	0x3000b4f0
30003fdc:	3000c1dc 	.word	0x3000c1dc
30003fe0:	3000c4a0 	.word	0x3000c4a0
30003fe4:	3000bf4c 	.word	0x3000bf4c

30003fe8 <stm32__device__enable_clock>:
30003fe8:	b5b0      	push	{r4, r5, r7, lr}
30003fea:	b092      	sub	sp, #72	; 0x48
30003fec:	af00      	add	r7, sp, #0
30003fee:	6078      	str	r0, [r7, #4]
30003ff0:	48a5      	ldr	r0, [pc, #660]	; (30004288 <stm32__device__enable_clock+0x2a0>)
30003ff2:	f000 f9b9 	bl	30004368 <stm32__device__s_ns_periph>
30003ff6:	4602      	mov	r2, r0
30003ff8:	687b      	ldr	r3, [r7, #4]
30003ffa:	429a      	cmp	r2, r3
30003ffc:	d10c      	bne.n	30004018 <stm32__device__enable_clock+0x30>
30003ffe:	4ba3      	ldr	r3, [pc, #652]	; (3000428c <stm32__device__enable_clock+0x2a4>)
30004000:	681b      	ldr	r3, [r3, #0]
30004002:	334c      	adds	r3, #76	; 0x4c
30004004:	681b      	ldr	r3, [r3, #0]
30004006:	461a      	mov	r2, r3
30004008:	4613      	mov	r3, r2
3000400a:	f043 0201 	orr.w	r2, r3, #1
3000400e:	4b9f      	ldr	r3, [pc, #636]	; (3000428c <stm32__device__enable_clock+0x2a4>)
30004010:	681b      	ldr	r3, [r3, #0]
30004012:	334c      	adds	r3, #76	; 0x4c
30004014:	601a      	str	r2, [r3, #0]
30004016:	e151      	b.n	300042bc <stm32__device__enable_clock+0x2d4>
30004018:	489d      	ldr	r0, [pc, #628]	; (30004290 <stm32__device__enable_clock+0x2a8>)
3000401a:	f000 f9a5 	bl	30004368 <stm32__device__s_ns_periph>
3000401e:	4602      	mov	r2, r0
30004020:	687b      	ldr	r3, [r7, #4]
30004022:	429a      	cmp	r2, r3
30004024:	d10c      	bne.n	30004040 <stm32__device__enable_clock+0x58>
30004026:	4b99      	ldr	r3, [pc, #612]	; (3000428c <stm32__device__enable_clock+0x2a4>)
30004028:	681b      	ldr	r3, [r3, #0]
3000402a:	334c      	adds	r3, #76	; 0x4c
3000402c:	681b      	ldr	r3, [r3, #0]
3000402e:	461a      	mov	r2, r3
30004030:	4613      	mov	r3, r2
30004032:	f043 0202 	orr.w	r2, r3, #2
30004036:	4b95      	ldr	r3, [pc, #596]	; (3000428c <stm32__device__enable_clock+0x2a4>)
30004038:	681b      	ldr	r3, [r3, #0]
3000403a:	334c      	adds	r3, #76	; 0x4c
3000403c:	601a      	str	r2, [r3, #0]
3000403e:	e13d      	b.n	300042bc <stm32__device__enable_clock+0x2d4>
30004040:	4894      	ldr	r0, [pc, #592]	; (30004294 <stm32__device__enable_clock+0x2ac>)
30004042:	f000 f991 	bl	30004368 <stm32__device__s_ns_periph>
30004046:	4602      	mov	r2, r0
30004048:	687b      	ldr	r3, [r7, #4]
3000404a:	429a      	cmp	r2, r3
3000404c:	d10c      	bne.n	30004068 <stm32__device__enable_clock+0x80>
3000404e:	4b8f      	ldr	r3, [pc, #572]	; (3000428c <stm32__device__enable_clock+0x2a4>)
30004050:	681b      	ldr	r3, [r3, #0]
30004052:	334c      	adds	r3, #76	; 0x4c
30004054:	681b      	ldr	r3, [r3, #0]
30004056:	461a      	mov	r2, r3
30004058:	4613      	mov	r3, r2
3000405a:	f043 0204 	orr.w	r2, r3, #4
3000405e:	4b8b      	ldr	r3, [pc, #556]	; (3000428c <stm32__device__enable_clock+0x2a4>)
30004060:	681b      	ldr	r3, [r3, #0]
30004062:	334c      	adds	r3, #76	; 0x4c
30004064:	601a      	str	r2, [r3, #0]
30004066:	e129      	b.n	300042bc <stm32__device__enable_clock+0x2d4>
30004068:	488b      	ldr	r0, [pc, #556]	; (30004298 <stm32__device__enable_clock+0x2b0>)
3000406a:	f000 f97d 	bl	30004368 <stm32__device__s_ns_periph>
3000406e:	4602      	mov	r2, r0
30004070:	687b      	ldr	r3, [r7, #4]
30004072:	429a      	cmp	r2, r3
30004074:	d10c      	bne.n	30004090 <stm32__device__enable_clock+0xa8>
30004076:	4b85      	ldr	r3, [pc, #532]	; (3000428c <stm32__device__enable_clock+0x2a4>)
30004078:	681b      	ldr	r3, [r3, #0]
3000407a:	334c      	adds	r3, #76	; 0x4c
3000407c:	681b      	ldr	r3, [r3, #0]
3000407e:	461a      	mov	r2, r3
30004080:	4613      	mov	r3, r2
30004082:	f043 0208 	orr.w	r2, r3, #8
30004086:	4b81      	ldr	r3, [pc, #516]	; (3000428c <stm32__device__enable_clock+0x2a4>)
30004088:	681b      	ldr	r3, [r3, #0]
3000408a:	334c      	adds	r3, #76	; 0x4c
3000408c:	601a      	str	r2, [r3, #0]
3000408e:	e115      	b.n	300042bc <stm32__device__enable_clock+0x2d4>
30004090:	4882      	ldr	r0, [pc, #520]	; (3000429c <stm32__device__enable_clock+0x2b4>)
30004092:	f000 f969 	bl	30004368 <stm32__device__s_ns_periph>
30004096:	4602      	mov	r2, r0
30004098:	687b      	ldr	r3, [r7, #4]
3000409a:	429a      	cmp	r2, r3
3000409c:	d10c      	bne.n	300040b8 <stm32__device__enable_clock+0xd0>
3000409e:	4b7b      	ldr	r3, [pc, #492]	; (3000428c <stm32__device__enable_clock+0x2a4>)
300040a0:	681b      	ldr	r3, [r3, #0]
300040a2:	334c      	adds	r3, #76	; 0x4c
300040a4:	681b      	ldr	r3, [r3, #0]
300040a6:	461a      	mov	r2, r3
300040a8:	4613      	mov	r3, r2
300040aa:	f043 0210 	orr.w	r2, r3, #16
300040ae:	4b77      	ldr	r3, [pc, #476]	; (3000428c <stm32__device__enable_clock+0x2a4>)
300040b0:	681b      	ldr	r3, [r3, #0]
300040b2:	334c      	adds	r3, #76	; 0x4c
300040b4:	601a      	str	r2, [r3, #0]
300040b6:	e101      	b.n	300042bc <stm32__device__enable_clock+0x2d4>
300040b8:	4879      	ldr	r0, [pc, #484]	; (300042a0 <stm32__device__enable_clock+0x2b8>)
300040ba:	f000 f955 	bl	30004368 <stm32__device__s_ns_periph>
300040be:	4602      	mov	r2, r0
300040c0:	687b      	ldr	r3, [r7, #4]
300040c2:	429a      	cmp	r2, r3
300040c4:	d10c      	bne.n	300040e0 <stm32__device__enable_clock+0xf8>
300040c6:	4b71      	ldr	r3, [pc, #452]	; (3000428c <stm32__device__enable_clock+0x2a4>)
300040c8:	681b      	ldr	r3, [r3, #0]
300040ca:	334c      	adds	r3, #76	; 0x4c
300040cc:	681b      	ldr	r3, [r3, #0]
300040ce:	461a      	mov	r2, r3
300040d0:	4613      	mov	r3, r2
300040d2:	f043 0220 	orr.w	r2, r3, #32
300040d6:	4b6d      	ldr	r3, [pc, #436]	; (3000428c <stm32__device__enable_clock+0x2a4>)
300040d8:	681b      	ldr	r3, [r3, #0]
300040da:	334c      	adds	r3, #76	; 0x4c
300040dc:	601a      	str	r2, [r3, #0]
300040de:	e0ed      	b.n	300042bc <stm32__device__enable_clock+0x2d4>
300040e0:	4870      	ldr	r0, [pc, #448]	; (300042a4 <stm32__device__enable_clock+0x2bc>)
300040e2:	f000 f941 	bl	30004368 <stm32__device__s_ns_periph>
300040e6:	4602      	mov	r2, r0
300040e8:	687b      	ldr	r3, [r7, #4]
300040ea:	429a      	cmp	r2, r3
300040ec:	d10c      	bne.n	30004108 <stm32__device__enable_clock+0x120>
300040ee:	4b67      	ldr	r3, [pc, #412]	; (3000428c <stm32__device__enable_clock+0x2a4>)
300040f0:	681b      	ldr	r3, [r3, #0]
300040f2:	334c      	adds	r3, #76	; 0x4c
300040f4:	681b      	ldr	r3, [r3, #0]
300040f6:	461a      	mov	r2, r3
300040f8:	4613      	mov	r3, r2
300040fa:	f043 0240 	orr.w	r2, r3, #64	; 0x40
300040fe:	4b63      	ldr	r3, [pc, #396]	; (3000428c <stm32__device__enable_clock+0x2a4>)
30004100:	681b      	ldr	r3, [r3, #0]
30004102:	334c      	adds	r3, #76	; 0x4c
30004104:	601a      	str	r2, [r3, #0]
30004106:	e0d9      	b.n	300042bc <stm32__device__enable_clock+0x2d4>
30004108:	4867      	ldr	r0, [pc, #412]	; (300042a8 <stm32__device__enable_clock+0x2c0>)
3000410a:	f000 f92d 	bl	30004368 <stm32__device__s_ns_periph>
3000410e:	4602      	mov	r2, r0
30004110:	687b      	ldr	r3, [r7, #4]
30004112:	429a      	cmp	r2, r3
30004114:	d10c      	bne.n	30004130 <stm32__device__enable_clock+0x148>
30004116:	4b5d      	ldr	r3, [pc, #372]	; (3000428c <stm32__device__enable_clock+0x2a4>)
30004118:	681b      	ldr	r3, [r3, #0]
3000411a:	334c      	adds	r3, #76	; 0x4c
3000411c:	681b      	ldr	r3, [r3, #0]
3000411e:	461a      	mov	r2, r3
30004120:	4613      	mov	r3, r2
30004122:	f043 0280 	orr.w	r2, r3, #128	; 0x80
30004126:	4b59      	ldr	r3, [pc, #356]	; (3000428c <stm32__device__enable_clock+0x2a4>)
30004128:	681b      	ldr	r3, [r3, #0]
3000412a:	334c      	adds	r3, #76	; 0x4c
3000412c:	601a      	str	r2, [r3, #0]
3000412e:	e0c5      	b.n	300042bc <stm32__device__enable_clock+0x2d4>
30004130:	4c5e      	ldr	r4, [pc, #376]	; (300042ac <stm32__device__enable_clock+0x2c4>)
30004132:	4d5f      	ldr	r5, [pc, #380]	; (300042b0 <stm32__device__enable_clock+0x2c8>)
30004134:	e9c7 4502 	strd	r4, r5, [r7, #8]
30004138:	68fb      	ldr	r3, [r7, #12]
3000413a:	681b      	ldr	r3, [r3, #0]
3000413c:	68fa      	ldr	r2, [r7, #12]
3000413e:	6852      	ldr	r2, [r2, #4]
30004140:	4293      	cmp	r3, r2
30004142:	dd04      	ble.n	3000414e <stm32__device__enable_clock+0x166>
30004144:	4b5b      	ldr	r3, [pc, #364]	; (300042b4 <stm32__device__enable_clock+0x2cc>)
30004146:	2100      	movs	r1, #0
30004148:	4618      	mov	r0, r3
3000414a:	f005 f921 	bl	30009390 <__gnat_last_chance_handler>
3000414e:	647b      	str	r3, [r7, #68]	; 0x44
30004150:	f06f 4100 	mvn.w	r1, #2147483648	; 0x80000000
30004154:	428a      	cmp	r2, r1
30004156:	d103      	bne.n	30004160 <stm32__device__enable_clock+0x178>
30004158:	2140      	movs	r1, #64	; 0x40
3000415a:	4857      	ldr	r0, [pc, #348]	; (300042b8 <stm32__device__enable_clock+0x2d0>)
3000415c:	f005 f918 	bl	30009390 <__gnat_last_chance_handler>
30004160:	1c51      	adds	r1, r2, #1
30004162:	6439      	str	r1, [r7, #64]	; 0x40
30004164:	6c79      	ldr	r1, [r7, #68]	; 0x44
30004166:	63f9      	str	r1, [r7, #60]	; 0x3c
30004168:	6c78      	ldr	r0, [r7, #68]	; 0x44
3000416a:	6c39      	ldr	r1, [r7, #64]	; 0x40
3000416c:	4288      	cmp	r0, r1
3000416e:	dd03      	ble.n	30004178 <stm32__device__enable_clock+0x190>
30004170:	6c79      	ldr	r1, [r7, #68]	; 0x44
30004172:	3901      	subs	r1, #1
30004174:	63b9      	str	r1, [r7, #56]	; 0x38
30004176:	e001      	b.n	3000417c <stm32__device__enable_clock+0x194>
30004178:	6c39      	ldr	r1, [r7, #64]	; 0x40
3000417a:	63b9      	str	r1, [r7, #56]	; 0x38
3000417c:	3201      	adds	r2, #1
3000417e:	4293      	cmp	r3, r2
30004180:	dc05      	bgt.n	3000418e <stm32__device__enable_clock+0x1a6>
30004182:	2b00      	cmp	r3, #0
30004184:	dc03      	bgt.n	3000418e <stm32__device__enable_clock+0x1a6>
30004186:	2140      	movs	r1, #64	; 0x40
30004188:	484b      	ldr	r0, [pc, #300]	; (300042b8 <stm32__device__enable_clock+0x2d0>)
3000418a:	f005 f901 	bl	30009390 <__gnat_last_chance_handler>
3000418e:	68bb      	ldr	r3, [r7, #8]
30004190:	637b      	str	r3, [r7, #52]	; 0x34
30004192:	6c7a      	ldr	r2, [r7, #68]	; 0x44
30004194:	6c3b      	ldr	r3, [r7, #64]	; 0x40
30004196:	429a      	cmp	r2, r3
30004198:	dd03      	ble.n	300041a2 <stm32__device__enable_clock+0x1ba>
3000419a:	2143      	movs	r1, #67	; 0x43
3000419c:	4846      	ldr	r0, [pc, #280]	; (300042b8 <stm32__device__enable_clock+0x2d0>)
3000419e:	f005 f8f7 	bl	30009390 <__gnat_last_chance_handler>
300041a2:	6c39      	ldr	r1, [r7, #64]	; 0x40
300041a4:	6b7a      	ldr	r2, [r7, #52]	; 0x34
300041a6:	6bfb      	ldr	r3, [r7, #60]	; 0x3c
300041a8:	1acb      	subs	r3, r1, r3
300041aa:	5cd3      	ldrb	r3, [r2, r3]
300041ac:	2b00      	cmp	r3, #0
300041ae:	d104      	bne.n	300041ba <stm32__device__enable_clock+0x1d2>
300041b0:	68bb      	ldr	r3, [r7, #8]
300041b2:	2100      	movs	r1, #0
300041b4:	4618      	mov	r0, r3
300041b6:	f005 f8eb 	bl	30009390 <__gnat_last_chance_handler>
300041ba:	6c7b      	ldr	r3, [r7, #68]	; 0x44
300041bc:	633b      	str	r3, [r7, #48]	; 0x30
300041be:	6c3b      	ldr	r3, [r7, #64]	; 0x40
300041c0:	62fb      	str	r3, [r7, #44]	; 0x2c
300041c2:	6b3b      	ldr	r3, [r7, #48]	; 0x30
300041c4:	62bb      	str	r3, [r7, #40]	; 0x28
300041c6:	6afb      	ldr	r3, [r7, #44]	; 0x2c
300041c8:	627b      	str	r3, [r7, #36]	; 0x24
300041ca:	6abb      	ldr	r3, [r7, #40]	; 0x28
300041cc:	623b      	str	r3, [r7, #32]
300041ce:	6aba      	ldr	r2, [r7, #40]	; 0x28
300041d0:	6a7b      	ldr	r3, [r7, #36]	; 0x24
300041d2:	429a      	cmp	r2, r3
300041d4:	dd03      	ble.n	300041de <stm32__device__enable_clock+0x1f6>
300041d6:	6abb      	ldr	r3, [r7, #40]	; 0x28
300041d8:	3b01      	subs	r3, #1
300041da:	61fb      	str	r3, [r7, #28]
300041dc:	e001      	b.n	300041e2 <stm32__device__enable_clock+0x1fa>
300041de:	6a7b      	ldr	r3, [r7, #36]	; 0x24
300041e0:	61fb      	str	r3, [r7, #28]
300041e2:	6aba      	ldr	r2, [r7, #40]	; 0x28
300041e4:	6a7b      	ldr	r3, [r7, #36]	; 0x24
300041e6:	429a      	cmp	r2, r3
300041e8:	dc04      	bgt.n	300041f4 <stm32__device__enable_clock+0x20c>
300041ea:	6a7a      	ldr	r2, [r7, #36]	; 0x24
300041ec:	6abb      	ldr	r3, [r7, #40]	; 0x28
300041ee:	1ad3      	subs	r3, r2, r3
300041f0:	1c59      	adds	r1, r3, #1
300041f2:	e000      	b.n	300041f6 <stm32__device__enable_clock+0x20e>
300041f4:	2100      	movs	r1, #0
300041f6:	6b3a      	ldr	r2, [r7, #48]	; 0x30
300041f8:	6afb      	ldr	r3, [r7, #44]	; 0x2c
300041fa:	429a      	cmp	r2, r3
300041fc:	dc06      	bgt.n	3000420c <stm32__device__enable_clock+0x224>
300041fe:	6b3b      	ldr	r3, [r7, #48]	; 0x30
30004200:	2b00      	cmp	r3, #0
30004202:	dc03      	bgt.n	3000420c <stm32__device__enable_clock+0x224>
30004204:	214b      	movs	r1, #75	; 0x4b
30004206:	482c      	ldr	r0, [pc, #176]	; (300042b8 <stm32__device__enable_clock+0x2d0>)
30004208:	f005 f8c2 	bl	30009390 <__gnat_last_chance_handler>
3000420c:	6aba      	ldr	r2, [r7, #40]	; 0x28
3000420e:	6a7b      	ldr	r3, [r7, #36]	; 0x24
30004210:	429a      	cmp	r2, r3
30004212:	dc06      	bgt.n	30004222 <stm32__device__enable_clock+0x23a>
30004214:	6a7a      	ldr	r2, [r7, #36]	; 0x24
30004216:	6abb      	ldr	r3, [r7, #40]	; 0x28
30004218:	1ad3      	subs	r3, r2, r3
3000421a:	330c      	adds	r3, #12
3000421c:	f023 0303 	bic.w	r3, r3, #3
30004220:	e000      	b.n	30004224 <stm32__device__enable_clock+0x23c>
30004222:	2308      	movs	r3, #8
30004224:	3303      	adds	r3, #3
30004226:	3307      	adds	r3, #7
30004228:	08db      	lsrs	r3, r3, #3
3000422a:	00db      	lsls	r3, r3, #3
3000422c:	ebad 0d03 	sub.w	sp, sp, r3
30004230:	466b      	mov	r3, sp
30004232:	3303      	adds	r3, #3
30004234:	089b      	lsrs	r3, r3, #2
30004236:	009b      	lsls	r3, r3, #2
30004238:	61bb      	str	r3, [r7, #24]
3000423a:	69bb      	ldr	r3, [r7, #24]
3000423c:	6aba      	ldr	r2, [r7, #40]	; 0x28
3000423e:	601a      	str	r2, [r3, #0]
30004240:	69bb      	ldr	r3, [r7, #24]
30004242:	6a7a      	ldr	r2, [r7, #36]	; 0x24
30004244:	605a      	str	r2, [r3, #4]
30004246:	69bb      	ldr	r3, [r7, #24]
30004248:	f103 0208 	add.w	r2, r3, #8
3000424c:	6b7b      	ldr	r3, [r7, #52]	; 0x34
3000424e:	4610      	mov	r0, r2
30004250:	460a      	mov	r2, r1
30004252:	4619      	mov	r1, r3
30004254:	f005 fb1a 	bl	3000988c <memcpy>
30004258:	69bb      	ldr	r3, [r7, #24]
3000425a:	3308      	adds	r3, #8
3000425c:	617b      	str	r3, [r7, #20]
3000425e:	6b3a      	ldr	r2, [r7, #48]	; 0x30
30004260:	6a7b      	ldr	r3, [r7, #36]	; 0x24
30004262:	429a      	cmp	r2, r3
30004264:	dd03      	ble.n	3000426e <stm32__device__enable_clock+0x286>
30004266:	214d      	movs	r1, #77	; 0x4d
30004268:	4813      	ldr	r0, [pc, #76]	; (300042b8 <stm32__device__enable_clock+0x2d0>)
3000426a:	f005 f891 	bl	30009390 <__gnat_last_chance_handler>
3000426e:	6a79      	ldr	r1, [r7, #36]	; 0x24
30004270:	69ba      	ldr	r2, [r7, #24]
30004272:	6a3b      	ldr	r3, [r7, #32]
30004274:	1acb      	subs	r3, r1, r3
30004276:	4413      	add	r3, r2
30004278:	2200      	movs	r2, #0
3000427a:	721a      	strb	r2, [r3, #8]
3000427c:	69bb      	ldr	r3, [r7, #24]
3000427e:	3308      	adds	r3, #8
30004280:	2100      	movs	r1, #0
30004282:	4618      	mov	r0, r3
30004284:	f005 f884 	bl	30009390 <__gnat_last_chance_handler>
30004288:	42020000 	.word	0x42020000
3000428c:	3000c5cc 	.word	0x3000c5cc
30004290:	42020400 	.word	0x42020400
30004294:	42020800 	.word	0x42020800
30004298:	42020c00 	.word	0x42020c00
3000429c:	42021000 	.word	0x42021000
300042a0:	42021400 	.word	0x42021400
300042a4:	42021800 	.word	0x42021800
300042a8:	42021c00 	.word	0x42021c00
300042ac:	3000b508 	.word	0x3000b508
300042b0:	3000b52c 	.word	0x3000b52c
300042b4:	3000bc8c 	.word	0x3000bc8c
300042b8:	3000b51c 	.word	0x3000b51c
300042bc:	3748      	adds	r7, #72	; 0x48
300042be:	46bd      	mov	sp, r7
300042c0:	bdb0      	pop	{r4, r5, r7, pc}
300042c2:	bf00      	nop

300042c4 <stm32__device__enable_clock__2>:
300042c4:	b580      	push	{r7, lr}
300042c6:	b082      	sub	sp, #8
300042c8:	af00      	add	r7, sp, #0
300042ca:	6078      	str	r0, [r7, #4]
300042cc:	687b      	ldr	r3, [r7, #4]
300042ce:	685b      	ldr	r3, [r3, #4]
300042d0:	2b00      	cmp	r3, #0
300042d2:	d103      	bne.n	300042dc <stm32__device__enable_clock__2+0x18>
300042d4:	2168      	movs	r1, #104	; 0x68
300042d6:	4805      	ldr	r0, [pc, #20]	; (300042ec <stm32__device__enable_clock__2+0x28>)
300042d8:	f005 f85a 	bl	30009390 <__gnat_last_chance_handler>
300042dc:	687b      	ldr	r3, [r7, #4]
300042de:	685b      	ldr	r3, [r3, #4]
300042e0:	4618      	mov	r0, r3
300042e2:	f7ff fe81 	bl	30003fe8 <stm32__device__enable_clock>
300042e6:	3708      	adds	r7, #8
300042e8:	46bd      	mov	sp, r7
300042ea:	bd80      	pop	{r7, pc}
300042ec:	3000b548 	.word	0x3000b548

300042f0 <stm32__device__enable_clock__3>:
300042f0:	b5f0      	push	{r4, r5, r6, r7, lr}
300042f2:	b085      	sub	sp, #20
300042f4:	af00      	add	r7, sp, #0
300042f6:	e9c7 0100 	strd	r0, r1, [r7]
300042fa:	687b      	ldr	r3, [r7, #4]
300042fc:	681a      	ldr	r2, [r3, #0]
300042fe:	687b      	ldr	r3, [r7, #4]
30004300:	685b      	ldr	r3, [r3, #4]
30004302:	4615      	mov	r5, r2
30004304:	4614      	mov	r4, r2
30004306:	461e      	mov	r6, r3
30004308:	42b4      	cmp	r4, r6
3000430a:	dc27      	bgt.n	3000435c <stm32__device__enable_clock__3+0x6c>
3000430c:	6838      	ldr	r0, [r7, #0]
3000430e:	4622      	mov	r2, r4
30004310:	1b51      	subs	r1, r2, r5
30004312:	460b      	mov	r3, r1
30004314:	005b      	lsls	r3, r3, #1
30004316:	440b      	add	r3, r1
30004318:	009b      	lsls	r3, r3, #2
3000431a:	4403      	add	r3, r0
3000431c:	60fb      	str	r3, [r7, #12]
3000431e:	6838      	ldr	r0, [r7, #0]
30004320:	1b51      	subs	r1, r2, r5
30004322:	460b      	mov	r3, r1
30004324:	005b      	lsls	r3, r3, #1
30004326:	440b      	add	r3, r1
30004328:	009b      	lsls	r3, r3, #2
3000432a:	4403      	add	r3, r0
3000432c:	3304      	adds	r3, #4
3000432e:	681b      	ldr	r3, [r3, #0]
30004330:	2b00      	cmp	r3, #0
30004332:	d103      	bne.n	3000433c <stm32__device__enable_clock__3+0x4c>
30004334:	217a      	movs	r1, #122	; 0x7a
30004336:	480b      	ldr	r0, [pc, #44]	; (30004364 <stm32__device__enable_clock__3+0x74>)
30004338:	f005 f82a 	bl	30009390 <__gnat_last_chance_handler>
3000433c:	6839      	ldr	r1, [r7, #0]
3000433e:	1b52      	subs	r2, r2, r5
30004340:	4613      	mov	r3, r2
30004342:	005b      	lsls	r3, r3, #1
30004344:	4413      	add	r3, r2
30004346:	009b      	lsls	r3, r3, #2
30004348:	440b      	add	r3, r1
3000434a:	3304      	adds	r3, #4
3000434c:	681b      	ldr	r3, [r3, #0]
3000434e:	4618      	mov	r0, r3
30004350:	f7ff fe4a 	bl	30003fe8 <stm32__device__enable_clock>
30004354:	42b4      	cmp	r4, r6
30004356:	d001      	beq.n	3000435c <stm32__device__enable_clock__3+0x6c>
30004358:	3401      	adds	r4, #1
3000435a:	e7d7      	b.n	3000430c <stm32__device__enable_clock__3+0x1c>
3000435c:	3714      	adds	r7, #20
3000435e:	46bd      	mov	sp, r7
30004360:	bdf0      	pop	{r4, r5, r6, r7, pc}
30004362:	bf00      	nop
30004364:	3000b548 	.word	0x3000b548

30004368 <stm32__device__s_ns_periph>:
30004368:	b480      	push	{r7}
3000436a:	b085      	sub	sp, #20
3000436c:	af00      	add	r7, sp, #0
3000436e:	6078      	str	r0, [r7, #4]
30004370:	f107 0308 	add.w	r3, r7, #8
30004374:	60fb      	str	r3, [r7, #12]
30004376:	687b      	ldr	r3, [r7, #4]
30004378:	60bb      	str	r3, [r7, #8]
3000437a:	4b09      	ldr	r3, [pc, #36]	; (300043a0 <stm32__device__s_ns_periph+0x38>)
3000437c:	681b      	ldr	r3, [r3, #0]
3000437e:	2b00      	cmp	r3, #0
30004380:	d005      	beq.n	3000438e <stm32__device__s_ns_periph+0x26>
30004382:	68fb      	ldr	r3, [r7, #12]
30004384:	681b      	ldr	r3, [r3, #0]
30004386:	f103 5280 	add.w	r2, r3, #268435456	; 0x10000000
3000438a:	68fb      	ldr	r3, [r7, #12]
3000438c:	601a      	str	r2, [r3, #0]
3000438e:	68bb      	ldr	r3, [r7, #8]
30004390:	bf00      	nop
30004392:	4618      	mov	r0, r3
30004394:	3714      	adds	r7, #20
30004396:	46bd      	mov	sp, r7
30004398:	f85d 7b04 	ldr.w	r7, [sp], #4
3000439c:	4770      	bx	lr
3000439e:	bf00      	nop
300043a0:	300099f8 	.word	0x300099f8

300043a4 <stm32__device___elabb>:
300043a4:	b580      	push	{r7, lr}
300043a6:	b082      	sub	sp, #8
300043a8:	af00      	add	r7, sp, #0
300043aa:	480e      	ldr	r0, [pc, #56]	; (300043e4 <stm32__device___elabb+0x40>)
300043ac:	f7ff ffdc 	bl	30004368 <stm32__device__s_ns_periph>
300043b0:	4603      	mov	r3, r0
300043b2:	607b      	str	r3, [r7, #4]
300043b4:	4a0c      	ldr	r2, [pc, #48]	; (300043e8 <stm32__device___elabb+0x44>)
300043b6:	1d3b      	adds	r3, r7, #4
300043b8:	6013      	str	r3, [r2, #0]
300043ba:	4b0b      	ldr	r3, [pc, #44]	; (300043e8 <stm32__device___elabb+0x44>)
300043bc:	681b      	ldr	r3, [r3, #0]
300043be:	681b      	ldr	r3, [r3, #0]
300043c0:	461a      	mov	r2, r3
300043c2:	4b0a      	ldr	r3, [pc, #40]	; (300043ec <stm32__device___elabb+0x48>)
300043c4:	601a      	str	r2, [r3, #0]
300043c6:	4b08      	ldr	r3, [pc, #32]	; (300043e8 <stm32__device___elabb+0x44>)
300043c8:	681b      	ldr	r3, [r3, #0]
300043ca:	681b      	ldr	r3, [r3, #0]
300043cc:	f003 0303 	and.w	r3, r3, #3
300043d0:	2b00      	cmp	r3, #0
300043d2:	d003      	beq.n	300043dc <stm32__device___elabb+0x38>
300043d4:	2131      	movs	r1, #49	; 0x31
300043d6:	4806      	ldr	r0, [pc, #24]	; (300043f0 <stm32__device___elabb+0x4c>)
300043d8:	f004 ffda 	bl	30009390 <__gnat_last_chance_handler>
300043dc:	3708      	adds	r7, #8
300043de:	46bd      	mov	sp, r7
300043e0:	bd80      	pop	{r7, pc}
300043e2:	bf00      	nop
300043e4:	40021000 	.word	0x40021000
300043e8:	3000c5c8 	.word	0x3000c5c8
300043ec:	3000c5cc 	.word	0x3000c5cc
300043f0:	3000b548 	.word	0x3000b548

300043f4 <stm32__device___elabs>:
300043f4:	b580      	push	{r7, lr}
300043f6:	b08c      	sub	sp, #48	; 0x30
300043f8:	af00      	add	r7, sp, #0
300043fa:	486d      	ldr	r0, [pc, #436]	; (300045b0 <stm32__device___elabs+0x1bc>)
300043fc:	f7ff ffb4 	bl	30004368 <stm32__device__s_ns_periph>
30004400:	4603      	mov	r3, r0
30004402:	607b      	str	r3, [r7, #4]
30004404:	4a6b      	ldr	r2, [pc, #428]	; (300045b4 <stm32__device___elabs+0x1c0>)
30004406:	1d3b      	adds	r3, r7, #4
30004408:	6013      	str	r3, [r2, #0]
3000440a:	4b6a      	ldr	r3, [pc, #424]	; (300045b4 <stm32__device___elabs+0x1c0>)
3000440c:	681b      	ldr	r3, [r3, #0]
3000440e:	681b      	ldr	r3, [r3, #0]
30004410:	461a      	mov	r2, r3
30004412:	4b69      	ldr	r3, [pc, #420]	; (300045b8 <stm32__device___elabs+0x1c4>)
30004414:	601a      	str	r2, [r3, #0]
30004416:	4b67      	ldr	r3, [pc, #412]	; (300045b4 <stm32__device___elabs+0x1c0>)
30004418:	681b      	ldr	r3, [r3, #0]
3000441a:	681b      	ldr	r3, [r3, #0]
3000441c:	f003 0303 	and.w	r3, r3, #3
30004420:	2b00      	cmp	r3, #0
30004422:	d003      	beq.n	3000442c <stm32__device___elabs+0x38>
30004424:	214f      	movs	r1, #79	; 0x4f
30004426:	4865      	ldr	r0, [pc, #404]	; (300045bc <stm32__device___elabs+0x1c8>)
30004428:	f004 ffb2 	bl	30009390 <__gnat_last_chance_handler>
3000442c:	4b62      	ldr	r3, [pc, #392]	; (300045b8 <stm32__device___elabs+0x1c4>)
3000442e:	681b      	ldr	r3, [r3, #0]
30004430:	4a63      	ldr	r2, [pc, #396]	; (300045c0 <stm32__device___elabs+0x1cc>)
30004432:	6053      	str	r3, [r2, #4]
30004434:	4b62      	ldr	r3, [pc, #392]	; (300045c0 <stm32__device___elabs+0x1cc>)
30004436:	2201      	movs	r2, #1
30004438:	811a      	strh	r2, [r3, #8]
3000443a:	4a62      	ldr	r2, [pc, #392]	; (300045c4 <stm32__device___elabs+0x1d0>)
3000443c:	4b60      	ldr	r3, [pc, #384]	; (300045c0 <stm32__device___elabs+0x1cc>)
3000443e:	601a      	str	r2, [r3, #0]
30004440:	4b5d      	ldr	r3, [pc, #372]	; (300045b8 <stm32__device___elabs+0x1c4>)
30004442:	681b      	ldr	r3, [r3, #0]
30004444:	4a60      	ldr	r2, [pc, #384]	; (300045c8 <stm32__device___elabs+0x1d4>)
30004446:	6053      	str	r3, [r2, #4]
30004448:	4b5f      	ldr	r3, [pc, #380]	; (300045c8 <stm32__device___elabs+0x1d4>)
3000444a:	2202      	movs	r2, #2
3000444c:	811a      	strh	r2, [r3, #8]
3000444e:	4a5d      	ldr	r2, [pc, #372]	; (300045c4 <stm32__device___elabs+0x1d0>)
30004450:	4b5d      	ldr	r3, [pc, #372]	; (300045c8 <stm32__device___elabs+0x1d4>)
30004452:	601a      	str	r2, [r3, #0]
30004454:	4b58      	ldr	r3, [pc, #352]	; (300045b8 <stm32__device___elabs+0x1c4>)
30004456:	681b      	ldr	r3, [r3, #0]
30004458:	4a5c      	ldr	r2, [pc, #368]	; (300045cc <stm32__device___elabs+0x1d8>)
3000445a:	6053      	str	r3, [r2, #4]
3000445c:	4b5b      	ldr	r3, [pc, #364]	; (300045cc <stm32__device___elabs+0x1d8>)
3000445e:	2204      	movs	r2, #4
30004460:	811a      	strh	r2, [r3, #8]
30004462:	4a58      	ldr	r2, [pc, #352]	; (300045c4 <stm32__device___elabs+0x1d0>)
30004464:	4b59      	ldr	r3, [pc, #356]	; (300045cc <stm32__device___elabs+0x1d8>)
30004466:	601a      	str	r2, [r3, #0]
30004468:	4b53      	ldr	r3, [pc, #332]	; (300045b8 <stm32__device___elabs+0x1c4>)
3000446a:	681b      	ldr	r3, [r3, #0]
3000446c:	4a58      	ldr	r2, [pc, #352]	; (300045d0 <stm32__device___elabs+0x1dc>)
3000446e:	6053      	str	r3, [r2, #4]
30004470:	4b57      	ldr	r3, [pc, #348]	; (300045d0 <stm32__device___elabs+0x1dc>)
30004472:	2208      	movs	r2, #8
30004474:	811a      	strh	r2, [r3, #8]
30004476:	4a53      	ldr	r2, [pc, #332]	; (300045c4 <stm32__device___elabs+0x1d0>)
30004478:	4b55      	ldr	r3, [pc, #340]	; (300045d0 <stm32__device___elabs+0x1dc>)
3000447a:	601a      	str	r2, [r3, #0]
3000447c:	4b4e      	ldr	r3, [pc, #312]	; (300045b8 <stm32__device___elabs+0x1c4>)
3000447e:	681b      	ldr	r3, [r3, #0]
30004480:	4a54      	ldr	r2, [pc, #336]	; (300045d4 <stm32__device___elabs+0x1e0>)
30004482:	6053      	str	r3, [r2, #4]
30004484:	4b53      	ldr	r3, [pc, #332]	; (300045d4 <stm32__device___elabs+0x1e0>)
30004486:	2210      	movs	r2, #16
30004488:	811a      	strh	r2, [r3, #8]
3000448a:	4a4e      	ldr	r2, [pc, #312]	; (300045c4 <stm32__device___elabs+0x1d0>)
3000448c:	4b51      	ldr	r3, [pc, #324]	; (300045d4 <stm32__device___elabs+0x1e0>)
3000448e:	601a      	str	r2, [r3, #0]
30004490:	4b49      	ldr	r3, [pc, #292]	; (300045b8 <stm32__device___elabs+0x1c4>)
30004492:	681b      	ldr	r3, [r3, #0]
30004494:	4a50      	ldr	r2, [pc, #320]	; (300045d8 <stm32__device___elabs+0x1e4>)
30004496:	6053      	str	r3, [r2, #4]
30004498:	4b4f      	ldr	r3, [pc, #316]	; (300045d8 <stm32__device___elabs+0x1e4>)
3000449a:	2220      	movs	r2, #32
3000449c:	811a      	strh	r2, [r3, #8]
3000449e:	4a49      	ldr	r2, [pc, #292]	; (300045c4 <stm32__device___elabs+0x1d0>)
300044a0:	4b4d      	ldr	r3, [pc, #308]	; (300045d8 <stm32__device___elabs+0x1e4>)
300044a2:	601a      	str	r2, [r3, #0]
300044a4:	4b44      	ldr	r3, [pc, #272]	; (300045b8 <stm32__device___elabs+0x1c4>)
300044a6:	681b      	ldr	r3, [r3, #0]
300044a8:	4a4c      	ldr	r2, [pc, #304]	; (300045dc <stm32__device___elabs+0x1e8>)
300044aa:	6053      	str	r3, [r2, #4]
300044ac:	4b4b      	ldr	r3, [pc, #300]	; (300045dc <stm32__device___elabs+0x1e8>)
300044ae:	2240      	movs	r2, #64	; 0x40
300044b0:	811a      	strh	r2, [r3, #8]
300044b2:	4a44      	ldr	r2, [pc, #272]	; (300045c4 <stm32__device___elabs+0x1d0>)
300044b4:	4b49      	ldr	r3, [pc, #292]	; (300045dc <stm32__device___elabs+0x1e8>)
300044b6:	601a      	str	r2, [r3, #0]
300044b8:	4b3f      	ldr	r3, [pc, #252]	; (300045b8 <stm32__device___elabs+0x1c4>)
300044ba:	681b      	ldr	r3, [r3, #0]
300044bc:	4a48      	ldr	r2, [pc, #288]	; (300045e0 <stm32__device___elabs+0x1ec>)
300044be:	6053      	str	r3, [r2, #4]
300044c0:	4b47      	ldr	r3, [pc, #284]	; (300045e0 <stm32__device___elabs+0x1ec>)
300044c2:	2280      	movs	r2, #128	; 0x80
300044c4:	811a      	strh	r2, [r3, #8]
300044c6:	4a3f      	ldr	r2, [pc, #252]	; (300045c4 <stm32__device___elabs+0x1d0>)
300044c8:	4b45      	ldr	r3, [pc, #276]	; (300045e0 <stm32__device___elabs+0x1ec>)
300044ca:	601a      	str	r2, [r3, #0]
300044cc:	4b3a      	ldr	r3, [pc, #232]	; (300045b8 <stm32__device___elabs+0x1c4>)
300044ce:	681b      	ldr	r3, [r3, #0]
300044d0:	4a44      	ldr	r2, [pc, #272]	; (300045e4 <stm32__device___elabs+0x1f0>)
300044d2:	6053      	str	r3, [r2, #4]
300044d4:	4b43      	ldr	r3, [pc, #268]	; (300045e4 <stm32__device___elabs+0x1f0>)
300044d6:	f44f 7280 	mov.w	r2, #256	; 0x100
300044da:	811a      	strh	r2, [r3, #8]
300044dc:	4a39      	ldr	r2, [pc, #228]	; (300045c4 <stm32__device___elabs+0x1d0>)
300044de:	4b41      	ldr	r3, [pc, #260]	; (300045e4 <stm32__device___elabs+0x1f0>)
300044e0:	601a      	str	r2, [r3, #0]
300044e2:	4b35      	ldr	r3, [pc, #212]	; (300045b8 <stm32__device___elabs+0x1c4>)
300044e4:	681b      	ldr	r3, [r3, #0]
300044e6:	4a40      	ldr	r2, [pc, #256]	; (300045e8 <stm32__device___elabs+0x1f4>)
300044e8:	6053      	str	r3, [r2, #4]
300044ea:	4b3f      	ldr	r3, [pc, #252]	; (300045e8 <stm32__device___elabs+0x1f4>)
300044ec:	f44f 7200 	mov.w	r2, #512	; 0x200
300044f0:	811a      	strh	r2, [r3, #8]
300044f2:	4a34      	ldr	r2, [pc, #208]	; (300045c4 <stm32__device___elabs+0x1d0>)
300044f4:	4b3c      	ldr	r3, [pc, #240]	; (300045e8 <stm32__device___elabs+0x1f4>)
300044f6:	601a      	str	r2, [r3, #0]
300044f8:	4b2f      	ldr	r3, [pc, #188]	; (300045b8 <stm32__device___elabs+0x1c4>)
300044fa:	681b      	ldr	r3, [r3, #0]
300044fc:	4a3b      	ldr	r2, [pc, #236]	; (300045ec <stm32__device___elabs+0x1f8>)
300044fe:	6053      	str	r3, [r2, #4]
30004500:	4b3a      	ldr	r3, [pc, #232]	; (300045ec <stm32__device___elabs+0x1f8>)
30004502:	f44f 6280 	mov.w	r2, #1024	; 0x400
30004506:	811a      	strh	r2, [r3, #8]
30004508:	4a2e      	ldr	r2, [pc, #184]	; (300045c4 <stm32__device___elabs+0x1d0>)
3000450a:	4b38      	ldr	r3, [pc, #224]	; (300045ec <stm32__device___elabs+0x1f8>)
3000450c:	601a      	str	r2, [r3, #0]
3000450e:	4b2a      	ldr	r3, [pc, #168]	; (300045b8 <stm32__device___elabs+0x1c4>)
30004510:	681b      	ldr	r3, [r3, #0]
30004512:	4a37      	ldr	r2, [pc, #220]	; (300045f0 <stm32__device___elabs+0x1fc>)
30004514:	6053      	str	r3, [r2, #4]
30004516:	4b36      	ldr	r3, [pc, #216]	; (300045f0 <stm32__device___elabs+0x1fc>)
30004518:	f44f 6200 	mov.w	r2, #2048	; 0x800
3000451c:	811a      	strh	r2, [r3, #8]
3000451e:	4a29      	ldr	r2, [pc, #164]	; (300045c4 <stm32__device___elabs+0x1d0>)
30004520:	4b33      	ldr	r3, [pc, #204]	; (300045f0 <stm32__device___elabs+0x1fc>)
30004522:	601a      	str	r2, [r3, #0]
30004524:	4b24      	ldr	r3, [pc, #144]	; (300045b8 <stm32__device___elabs+0x1c4>)
30004526:	681b      	ldr	r3, [r3, #0]
30004528:	4a32      	ldr	r2, [pc, #200]	; (300045f4 <stm32__device___elabs+0x200>)
3000452a:	6053      	str	r3, [r2, #4]
3000452c:	4b31      	ldr	r3, [pc, #196]	; (300045f4 <stm32__device___elabs+0x200>)
3000452e:	f44f 5280 	mov.w	r2, #4096	; 0x1000
30004532:	811a      	strh	r2, [r3, #8]
30004534:	4a23      	ldr	r2, [pc, #140]	; (300045c4 <stm32__device___elabs+0x1d0>)
30004536:	4b2f      	ldr	r3, [pc, #188]	; (300045f4 <stm32__device___elabs+0x200>)
30004538:	601a      	str	r2, [r3, #0]
3000453a:	4b1f      	ldr	r3, [pc, #124]	; (300045b8 <stm32__device___elabs+0x1c4>)
3000453c:	681b      	ldr	r3, [r3, #0]
3000453e:	4a2e      	ldr	r2, [pc, #184]	; (300045f8 <stm32__device___elabs+0x204>)
30004540:	6053      	str	r3, [r2, #4]
30004542:	4b2d      	ldr	r3, [pc, #180]	; (300045f8 <stm32__device___elabs+0x204>)
30004544:	f44f 5200 	mov.w	r2, #8192	; 0x2000
30004548:	811a      	strh	r2, [r3, #8]
3000454a:	4a1e      	ldr	r2, [pc, #120]	; (300045c4 <stm32__device___elabs+0x1d0>)
3000454c:	4b2a      	ldr	r3, [pc, #168]	; (300045f8 <stm32__device___elabs+0x204>)
3000454e:	601a      	str	r2, [r3, #0]
30004550:	4b19      	ldr	r3, [pc, #100]	; (300045b8 <stm32__device___elabs+0x1c4>)
30004552:	681b      	ldr	r3, [r3, #0]
30004554:	4a29      	ldr	r2, [pc, #164]	; (300045fc <stm32__device___elabs+0x208>)
30004556:	6053      	str	r3, [r2, #4]
30004558:	4b28      	ldr	r3, [pc, #160]	; (300045fc <stm32__device___elabs+0x208>)
3000455a:	f44f 4280 	mov.w	r2, #16384	; 0x4000
3000455e:	811a      	strh	r2, [r3, #8]
30004560:	4a18      	ldr	r2, [pc, #96]	; (300045c4 <stm32__device___elabs+0x1d0>)
30004562:	4b26      	ldr	r3, [pc, #152]	; (300045fc <stm32__device___elabs+0x208>)
30004564:	601a      	str	r2, [r3, #0]
30004566:	4b14      	ldr	r3, [pc, #80]	; (300045b8 <stm32__device___elabs+0x1c4>)
30004568:	681b      	ldr	r3, [r3, #0]
3000456a:	4a25      	ldr	r2, [pc, #148]	; (30004600 <stm32__device___elabs+0x20c>)
3000456c:	6053      	str	r3, [r2, #4]
3000456e:	4b24      	ldr	r3, [pc, #144]	; (30004600 <stm32__device___elabs+0x20c>)
30004570:	f44f 4200 	mov.w	r2, #32768	; 0x8000
30004574:	811a      	strh	r2, [r3, #8]
30004576:	4a13      	ldr	r2, [pc, #76]	; (300045c4 <stm32__device___elabs+0x1d0>)
30004578:	4b21      	ldr	r3, [pc, #132]	; (30004600 <stm32__device___elabs+0x20c>)
3000457a:	601a      	str	r2, [r3, #0]
3000457c:	4821      	ldr	r0, [pc, #132]	; (30004604 <stm32__device___elabs+0x210>)
3000457e:	f7ff fef3 	bl	30004368 <stm32__device__s_ns_periph>
30004582:	4603      	mov	r3, r0
30004584:	60bb      	str	r3, [r7, #8]
30004586:	4a20      	ldr	r2, [pc, #128]	; (30004608 <stm32__device___elabs+0x214>)
30004588:	f107 0308 	add.w	r3, r7, #8
3000458c:	6013      	str	r3, [r2, #0]
3000458e:	4b1e      	ldr	r3, [pc, #120]	; (30004608 <stm32__device___elabs+0x214>)
30004590:	681b      	ldr	r3, [r3, #0]
30004592:	681b      	ldr	r3, [r3, #0]
30004594:	461a      	mov	r2, r3
30004596:	4b1d      	ldr	r3, [pc, #116]	; (3000460c <stm32__device___elabs+0x218>)
30004598:	601a      	str	r2, [r3, #0]
3000459a:	4b1b      	ldr	r3, [pc, #108]	; (30004608 <stm32__device___elabs+0x214>)
3000459c:	681b      	ldr	r3, [r3, #0]
3000459e:	681b      	ldr	r3, [r3, #0]
300045a0:	f003 0303 	and.w	r3, r3, #3
300045a4:	2b00      	cmp	r3, #0
300045a6:	d033      	beq.n	30004610 <stm32__device___elabs+0x21c>
300045a8:	2150      	movs	r1, #80	; 0x50
300045aa:	4804      	ldr	r0, [pc, #16]	; (300045bc <stm32__device___elabs+0x1c8>)
300045ac:	f004 fef0 	bl	30009390 <__gnat_last_chance_handler>
300045b0:	42020000 	.word	0x42020000
300045b4:	3000bf58 	.word	0x3000bf58
300045b8:	3000bf5c 	.word	0x3000bf5c
300045bc:	3000b5ac 	.word	0x3000b5ac
300045c0:	3000bf60 	.word	0x3000bf60
300045c4:	3000b76c 	.word	0x3000b76c
300045c8:	3000bf6c 	.word	0x3000bf6c
300045cc:	3000bf78 	.word	0x3000bf78
300045d0:	3000bf84 	.word	0x3000bf84
300045d4:	3000bf90 	.word	0x3000bf90
300045d8:	3000bf9c 	.word	0x3000bf9c
300045dc:	3000bfa8 	.word	0x3000bfa8
300045e0:	3000bfb4 	.word	0x3000bfb4
300045e4:	3000bfc0 	.word	0x3000bfc0
300045e8:	3000bfcc 	.word	0x3000bfcc
300045ec:	3000bfd8 	.word	0x3000bfd8
300045f0:	3000bfe4 	.word	0x3000bfe4
300045f4:	3000bff0 	.word	0x3000bff0
300045f8:	3000bffc 	.word	0x3000bffc
300045fc:	3000c008 	.word	0x3000c008
30004600:	3000c014 	.word	0x3000c014
30004604:	42020400 	.word	0x42020400
30004608:	3000c020 	.word	0x3000c020
3000460c:	3000c024 	.word	0x3000c024
30004610:	4b60      	ldr	r3, [pc, #384]	; (30004794 <stm32__device___elabs+0x3a0>)
30004612:	681b      	ldr	r3, [r3, #0]
30004614:	4a60      	ldr	r2, [pc, #384]	; (30004798 <stm32__device___elabs+0x3a4>)
30004616:	6053      	str	r3, [r2, #4]
30004618:	4b5f      	ldr	r3, [pc, #380]	; (30004798 <stm32__device___elabs+0x3a4>)
3000461a:	2201      	movs	r2, #1
3000461c:	811a      	strh	r2, [r3, #8]
3000461e:	4a5f      	ldr	r2, [pc, #380]	; (3000479c <stm32__device___elabs+0x3a8>)
30004620:	4b5d      	ldr	r3, [pc, #372]	; (30004798 <stm32__device___elabs+0x3a4>)
30004622:	601a      	str	r2, [r3, #0]
30004624:	4b5b      	ldr	r3, [pc, #364]	; (30004794 <stm32__device___elabs+0x3a0>)
30004626:	681b      	ldr	r3, [r3, #0]
30004628:	4a5d      	ldr	r2, [pc, #372]	; (300047a0 <stm32__device___elabs+0x3ac>)
3000462a:	6053      	str	r3, [r2, #4]
3000462c:	4b5c      	ldr	r3, [pc, #368]	; (300047a0 <stm32__device___elabs+0x3ac>)
3000462e:	2202      	movs	r2, #2
30004630:	811a      	strh	r2, [r3, #8]
30004632:	4a5a      	ldr	r2, [pc, #360]	; (3000479c <stm32__device___elabs+0x3a8>)
30004634:	4b5a      	ldr	r3, [pc, #360]	; (300047a0 <stm32__device___elabs+0x3ac>)
30004636:	601a      	str	r2, [r3, #0]
30004638:	4b56      	ldr	r3, [pc, #344]	; (30004794 <stm32__device___elabs+0x3a0>)
3000463a:	681b      	ldr	r3, [r3, #0]
3000463c:	4a59      	ldr	r2, [pc, #356]	; (300047a4 <stm32__device___elabs+0x3b0>)
3000463e:	6053      	str	r3, [r2, #4]
30004640:	4b58      	ldr	r3, [pc, #352]	; (300047a4 <stm32__device___elabs+0x3b0>)
30004642:	2204      	movs	r2, #4
30004644:	811a      	strh	r2, [r3, #8]
30004646:	4a55      	ldr	r2, [pc, #340]	; (3000479c <stm32__device___elabs+0x3a8>)
30004648:	4b56      	ldr	r3, [pc, #344]	; (300047a4 <stm32__device___elabs+0x3b0>)
3000464a:	601a      	str	r2, [r3, #0]
3000464c:	4b51      	ldr	r3, [pc, #324]	; (30004794 <stm32__device___elabs+0x3a0>)
3000464e:	681b      	ldr	r3, [r3, #0]
30004650:	4a55      	ldr	r2, [pc, #340]	; (300047a8 <stm32__device___elabs+0x3b4>)
30004652:	6053      	str	r3, [r2, #4]
30004654:	4b54      	ldr	r3, [pc, #336]	; (300047a8 <stm32__device___elabs+0x3b4>)
30004656:	2208      	movs	r2, #8
30004658:	811a      	strh	r2, [r3, #8]
3000465a:	4a50      	ldr	r2, [pc, #320]	; (3000479c <stm32__device___elabs+0x3a8>)
3000465c:	4b52      	ldr	r3, [pc, #328]	; (300047a8 <stm32__device___elabs+0x3b4>)
3000465e:	601a      	str	r2, [r3, #0]
30004660:	4b4c      	ldr	r3, [pc, #304]	; (30004794 <stm32__device___elabs+0x3a0>)
30004662:	681b      	ldr	r3, [r3, #0]
30004664:	4a51      	ldr	r2, [pc, #324]	; (300047ac <stm32__device___elabs+0x3b8>)
30004666:	6053      	str	r3, [r2, #4]
30004668:	4b50      	ldr	r3, [pc, #320]	; (300047ac <stm32__device___elabs+0x3b8>)
3000466a:	2210      	movs	r2, #16
3000466c:	811a      	strh	r2, [r3, #8]
3000466e:	4a4b      	ldr	r2, [pc, #300]	; (3000479c <stm32__device___elabs+0x3a8>)
30004670:	4b4e      	ldr	r3, [pc, #312]	; (300047ac <stm32__device___elabs+0x3b8>)
30004672:	601a      	str	r2, [r3, #0]
30004674:	4b47      	ldr	r3, [pc, #284]	; (30004794 <stm32__device___elabs+0x3a0>)
30004676:	681b      	ldr	r3, [r3, #0]
30004678:	4a4d      	ldr	r2, [pc, #308]	; (300047b0 <stm32__device___elabs+0x3bc>)
3000467a:	6053      	str	r3, [r2, #4]
3000467c:	4b4c      	ldr	r3, [pc, #304]	; (300047b0 <stm32__device___elabs+0x3bc>)
3000467e:	2220      	movs	r2, #32
30004680:	811a      	strh	r2, [r3, #8]
30004682:	4a46      	ldr	r2, [pc, #280]	; (3000479c <stm32__device___elabs+0x3a8>)
30004684:	4b4a      	ldr	r3, [pc, #296]	; (300047b0 <stm32__device___elabs+0x3bc>)
30004686:	601a      	str	r2, [r3, #0]
30004688:	4b42      	ldr	r3, [pc, #264]	; (30004794 <stm32__device___elabs+0x3a0>)
3000468a:	681b      	ldr	r3, [r3, #0]
3000468c:	4a49      	ldr	r2, [pc, #292]	; (300047b4 <stm32__device___elabs+0x3c0>)
3000468e:	6053      	str	r3, [r2, #4]
30004690:	4b48      	ldr	r3, [pc, #288]	; (300047b4 <stm32__device___elabs+0x3c0>)
30004692:	2240      	movs	r2, #64	; 0x40
30004694:	811a      	strh	r2, [r3, #8]
30004696:	4a41      	ldr	r2, [pc, #260]	; (3000479c <stm32__device___elabs+0x3a8>)
30004698:	4b46      	ldr	r3, [pc, #280]	; (300047b4 <stm32__device___elabs+0x3c0>)
3000469a:	601a      	str	r2, [r3, #0]
3000469c:	4b3d      	ldr	r3, [pc, #244]	; (30004794 <stm32__device___elabs+0x3a0>)
3000469e:	681b      	ldr	r3, [r3, #0]
300046a0:	4a45      	ldr	r2, [pc, #276]	; (300047b8 <stm32__device___elabs+0x3c4>)
300046a2:	6053      	str	r3, [r2, #4]
300046a4:	4b44      	ldr	r3, [pc, #272]	; (300047b8 <stm32__device___elabs+0x3c4>)
300046a6:	2280      	movs	r2, #128	; 0x80
300046a8:	811a      	strh	r2, [r3, #8]
300046aa:	4a3c      	ldr	r2, [pc, #240]	; (3000479c <stm32__device___elabs+0x3a8>)
300046ac:	4b42      	ldr	r3, [pc, #264]	; (300047b8 <stm32__device___elabs+0x3c4>)
300046ae:	601a      	str	r2, [r3, #0]
300046b0:	4b38      	ldr	r3, [pc, #224]	; (30004794 <stm32__device___elabs+0x3a0>)
300046b2:	681b      	ldr	r3, [r3, #0]
300046b4:	4a41      	ldr	r2, [pc, #260]	; (300047bc <stm32__device___elabs+0x3c8>)
300046b6:	6053      	str	r3, [r2, #4]
300046b8:	4b40      	ldr	r3, [pc, #256]	; (300047bc <stm32__device___elabs+0x3c8>)
300046ba:	f44f 7280 	mov.w	r2, #256	; 0x100
300046be:	811a      	strh	r2, [r3, #8]
300046c0:	4a36      	ldr	r2, [pc, #216]	; (3000479c <stm32__device___elabs+0x3a8>)
300046c2:	4b3e      	ldr	r3, [pc, #248]	; (300047bc <stm32__device___elabs+0x3c8>)
300046c4:	601a      	str	r2, [r3, #0]
300046c6:	4b33      	ldr	r3, [pc, #204]	; (30004794 <stm32__device___elabs+0x3a0>)
300046c8:	681b      	ldr	r3, [r3, #0]
300046ca:	4a3d      	ldr	r2, [pc, #244]	; (300047c0 <stm32__device___elabs+0x3cc>)
300046cc:	6053      	str	r3, [r2, #4]
300046ce:	4b3c      	ldr	r3, [pc, #240]	; (300047c0 <stm32__device___elabs+0x3cc>)
300046d0:	f44f 7200 	mov.w	r2, #512	; 0x200
300046d4:	811a      	strh	r2, [r3, #8]
300046d6:	4a31      	ldr	r2, [pc, #196]	; (3000479c <stm32__device___elabs+0x3a8>)
300046d8:	4b39      	ldr	r3, [pc, #228]	; (300047c0 <stm32__device___elabs+0x3cc>)
300046da:	601a      	str	r2, [r3, #0]
300046dc:	4b2d      	ldr	r3, [pc, #180]	; (30004794 <stm32__device___elabs+0x3a0>)
300046de:	681b      	ldr	r3, [r3, #0]
300046e0:	4a38      	ldr	r2, [pc, #224]	; (300047c4 <stm32__device___elabs+0x3d0>)
300046e2:	6053      	str	r3, [r2, #4]
300046e4:	4b37      	ldr	r3, [pc, #220]	; (300047c4 <stm32__device___elabs+0x3d0>)
300046e6:	f44f 6280 	mov.w	r2, #1024	; 0x400
300046ea:	811a      	strh	r2, [r3, #8]
300046ec:	4a2b      	ldr	r2, [pc, #172]	; (3000479c <stm32__device___elabs+0x3a8>)
300046ee:	4b35      	ldr	r3, [pc, #212]	; (300047c4 <stm32__device___elabs+0x3d0>)
300046f0:	601a      	str	r2, [r3, #0]
300046f2:	4b28      	ldr	r3, [pc, #160]	; (30004794 <stm32__device___elabs+0x3a0>)
300046f4:	681b      	ldr	r3, [r3, #0]
300046f6:	4a34      	ldr	r2, [pc, #208]	; (300047c8 <stm32__device___elabs+0x3d4>)
300046f8:	6053      	str	r3, [r2, #4]
300046fa:	4b33      	ldr	r3, [pc, #204]	; (300047c8 <stm32__device___elabs+0x3d4>)
300046fc:	f44f 6200 	mov.w	r2, #2048	; 0x800
30004700:	811a      	strh	r2, [r3, #8]
30004702:	4a26      	ldr	r2, [pc, #152]	; (3000479c <stm32__device___elabs+0x3a8>)
30004704:	4b30      	ldr	r3, [pc, #192]	; (300047c8 <stm32__device___elabs+0x3d4>)
30004706:	601a      	str	r2, [r3, #0]
30004708:	4b22      	ldr	r3, [pc, #136]	; (30004794 <stm32__device___elabs+0x3a0>)
3000470a:	681b      	ldr	r3, [r3, #0]
3000470c:	4a2f      	ldr	r2, [pc, #188]	; (300047cc <stm32__device___elabs+0x3d8>)
3000470e:	6053      	str	r3, [r2, #4]
30004710:	4b2e      	ldr	r3, [pc, #184]	; (300047cc <stm32__device___elabs+0x3d8>)
30004712:	f44f 5280 	mov.w	r2, #4096	; 0x1000
30004716:	811a      	strh	r2, [r3, #8]
30004718:	4a20      	ldr	r2, [pc, #128]	; (3000479c <stm32__device___elabs+0x3a8>)
3000471a:	4b2c      	ldr	r3, [pc, #176]	; (300047cc <stm32__device___elabs+0x3d8>)
3000471c:	601a      	str	r2, [r3, #0]
3000471e:	4b1d      	ldr	r3, [pc, #116]	; (30004794 <stm32__device___elabs+0x3a0>)
30004720:	681b      	ldr	r3, [r3, #0]
30004722:	4a2b      	ldr	r2, [pc, #172]	; (300047d0 <stm32__device___elabs+0x3dc>)
30004724:	6053      	str	r3, [r2, #4]
30004726:	4b2a      	ldr	r3, [pc, #168]	; (300047d0 <stm32__device___elabs+0x3dc>)
30004728:	f44f 5200 	mov.w	r2, #8192	; 0x2000
3000472c:	811a      	strh	r2, [r3, #8]
3000472e:	4a1b      	ldr	r2, [pc, #108]	; (3000479c <stm32__device___elabs+0x3a8>)
30004730:	4b27      	ldr	r3, [pc, #156]	; (300047d0 <stm32__device___elabs+0x3dc>)
30004732:	601a      	str	r2, [r3, #0]
30004734:	4b17      	ldr	r3, [pc, #92]	; (30004794 <stm32__device___elabs+0x3a0>)
30004736:	681b      	ldr	r3, [r3, #0]
30004738:	4a26      	ldr	r2, [pc, #152]	; (300047d4 <stm32__device___elabs+0x3e0>)
3000473a:	6053      	str	r3, [r2, #4]
3000473c:	4b25      	ldr	r3, [pc, #148]	; (300047d4 <stm32__device___elabs+0x3e0>)
3000473e:	f44f 4280 	mov.w	r2, #16384	; 0x4000
30004742:	811a      	strh	r2, [r3, #8]
30004744:	4a15      	ldr	r2, [pc, #84]	; (3000479c <stm32__device___elabs+0x3a8>)
30004746:	4b23      	ldr	r3, [pc, #140]	; (300047d4 <stm32__device___elabs+0x3e0>)
30004748:	601a      	str	r2, [r3, #0]
3000474a:	4b12      	ldr	r3, [pc, #72]	; (30004794 <stm32__device___elabs+0x3a0>)
3000474c:	681b      	ldr	r3, [r3, #0]
3000474e:	4a22      	ldr	r2, [pc, #136]	; (300047d8 <stm32__device___elabs+0x3e4>)
30004750:	6053      	str	r3, [r2, #4]
30004752:	4b21      	ldr	r3, [pc, #132]	; (300047d8 <stm32__device___elabs+0x3e4>)
30004754:	f44f 4200 	mov.w	r2, #32768	; 0x8000
30004758:	811a      	strh	r2, [r3, #8]
3000475a:	4a10      	ldr	r2, [pc, #64]	; (3000479c <stm32__device___elabs+0x3a8>)
3000475c:	4b1e      	ldr	r3, [pc, #120]	; (300047d8 <stm32__device___elabs+0x3e4>)
3000475e:	601a      	str	r2, [r3, #0]
30004760:	481e      	ldr	r0, [pc, #120]	; (300047dc <stm32__device___elabs+0x3e8>)
30004762:	f7ff fe01 	bl	30004368 <stm32__device__s_ns_periph>
30004766:	4603      	mov	r3, r0
30004768:	60fb      	str	r3, [r7, #12]
3000476a:	4a1d      	ldr	r2, [pc, #116]	; (300047e0 <stm32__device___elabs+0x3ec>)
3000476c:	f107 030c 	add.w	r3, r7, #12
30004770:	6013      	str	r3, [r2, #0]
30004772:	4b1b      	ldr	r3, [pc, #108]	; (300047e0 <stm32__device___elabs+0x3ec>)
30004774:	681b      	ldr	r3, [r3, #0]
30004776:	681b      	ldr	r3, [r3, #0]
30004778:	461a      	mov	r2, r3
3000477a:	4b1a      	ldr	r3, [pc, #104]	; (300047e4 <stm32__device___elabs+0x3f0>)
3000477c:	601a      	str	r2, [r3, #0]
3000477e:	4b18      	ldr	r3, [pc, #96]	; (300047e0 <stm32__device___elabs+0x3ec>)
30004780:	681b      	ldr	r3, [r3, #0]
30004782:	681b      	ldr	r3, [r3, #0]
30004784:	f003 0303 	and.w	r3, r3, #3
30004788:	2b00      	cmp	r3, #0
3000478a:	d02f      	beq.n	300047ec <stm32__device___elabs+0x3f8>
3000478c:	2151      	movs	r1, #81	; 0x51
3000478e:	4816      	ldr	r0, [pc, #88]	; (300047e8 <stm32__device___elabs+0x3f4>)
30004790:	f004 fdfe 	bl	30009390 <__gnat_last_chance_handler>
30004794:	3000c024 	.word	0x3000c024
30004798:	3000c028 	.word	0x3000c028
3000479c:	3000b76c 	.word	0x3000b76c
300047a0:	3000c034 	.word	0x3000c034
300047a4:	3000c040 	.word	0x3000c040
300047a8:	3000c04c 	.word	0x3000c04c
300047ac:	3000c058 	.word	0x3000c058
300047b0:	3000c064 	.word	0x3000c064
300047b4:	3000c070 	.word	0x3000c070
300047b8:	3000c07c 	.word	0x3000c07c
300047bc:	3000c088 	.word	0x3000c088
300047c0:	3000c094 	.word	0x3000c094
300047c4:	3000c0a0 	.word	0x3000c0a0
300047c8:	3000c0ac 	.word	0x3000c0ac
300047cc:	3000c0b8 	.word	0x3000c0b8
300047d0:	3000c0c4 	.word	0x3000c0c4
300047d4:	3000c0d0 	.word	0x3000c0d0
300047d8:	3000c0dc 	.word	0x3000c0dc
300047dc:	42020800 	.word	0x42020800
300047e0:	3000c0e8 	.word	0x3000c0e8
300047e4:	3000c0ec 	.word	0x3000c0ec
300047e8:	3000b5ac 	.word	0x3000b5ac
300047ec:	4b60      	ldr	r3, [pc, #384]	; (30004970 <stm32__device___elabs+0x57c>)
300047ee:	681b      	ldr	r3, [r3, #0]
300047f0:	4a60      	ldr	r2, [pc, #384]	; (30004974 <stm32__device___elabs+0x580>)
300047f2:	6053      	str	r3, [r2, #4]
300047f4:	4b5f      	ldr	r3, [pc, #380]	; (30004974 <stm32__device___elabs+0x580>)
300047f6:	2201      	movs	r2, #1
300047f8:	811a      	strh	r2, [r3, #8]
300047fa:	4a5f      	ldr	r2, [pc, #380]	; (30004978 <stm32__device___elabs+0x584>)
300047fc:	4b5d      	ldr	r3, [pc, #372]	; (30004974 <stm32__device___elabs+0x580>)
300047fe:	601a      	str	r2, [r3, #0]
30004800:	4b5b      	ldr	r3, [pc, #364]	; (30004970 <stm32__device___elabs+0x57c>)
30004802:	681b      	ldr	r3, [r3, #0]
30004804:	4a5d      	ldr	r2, [pc, #372]	; (3000497c <stm32__device___elabs+0x588>)
30004806:	6053      	str	r3, [r2, #4]
30004808:	4b5c      	ldr	r3, [pc, #368]	; (3000497c <stm32__device___elabs+0x588>)
3000480a:	2202      	movs	r2, #2
3000480c:	811a      	strh	r2, [r3, #8]
3000480e:	4a5a      	ldr	r2, [pc, #360]	; (30004978 <stm32__device___elabs+0x584>)
30004810:	4b5a      	ldr	r3, [pc, #360]	; (3000497c <stm32__device___elabs+0x588>)
30004812:	601a      	str	r2, [r3, #0]
30004814:	4b56      	ldr	r3, [pc, #344]	; (30004970 <stm32__device___elabs+0x57c>)
30004816:	681b      	ldr	r3, [r3, #0]
30004818:	4a59      	ldr	r2, [pc, #356]	; (30004980 <stm32__device___elabs+0x58c>)
3000481a:	6053      	str	r3, [r2, #4]
3000481c:	4b58      	ldr	r3, [pc, #352]	; (30004980 <stm32__device___elabs+0x58c>)
3000481e:	2204      	movs	r2, #4
30004820:	811a      	strh	r2, [r3, #8]
30004822:	4a55      	ldr	r2, [pc, #340]	; (30004978 <stm32__device___elabs+0x584>)
30004824:	4b56      	ldr	r3, [pc, #344]	; (30004980 <stm32__device___elabs+0x58c>)
30004826:	601a      	str	r2, [r3, #0]
30004828:	4b51      	ldr	r3, [pc, #324]	; (30004970 <stm32__device___elabs+0x57c>)
3000482a:	681b      	ldr	r3, [r3, #0]
3000482c:	4a55      	ldr	r2, [pc, #340]	; (30004984 <stm32__device___elabs+0x590>)
3000482e:	6053      	str	r3, [r2, #4]
30004830:	4b54      	ldr	r3, [pc, #336]	; (30004984 <stm32__device___elabs+0x590>)
30004832:	2208      	movs	r2, #8
30004834:	811a      	strh	r2, [r3, #8]
30004836:	4a50      	ldr	r2, [pc, #320]	; (30004978 <stm32__device___elabs+0x584>)
30004838:	4b52      	ldr	r3, [pc, #328]	; (30004984 <stm32__device___elabs+0x590>)
3000483a:	601a      	str	r2, [r3, #0]
3000483c:	4b4c      	ldr	r3, [pc, #304]	; (30004970 <stm32__device___elabs+0x57c>)
3000483e:	681b      	ldr	r3, [r3, #0]
30004840:	4a51      	ldr	r2, [pc, #324]	; (30004988 <stm32__device___elabs+0x594>)
30004842:	6053      	str	r3, [r2, #4]
30004844:	4b50      	ldr	r3, [pc, #320]	; (30004988 <stm32__device___elabs+0x594>)
30004846:	2210      	movs	r2, #16
30004848:	811a      	strh	r2, [r3, #8]
3000484a:	4a4b      	ldr	r2, [pc, #300]	; (30004978 <stm32__device___elabs+0x584>)
3000484c:	4b4e      	ldr	r3, [pc, #312]	; (30004988 <stm32__device___elabs+0x594>)
3000484e:	601a      	str	r2, [r3, #0]
30004850:	4b47      	ldr	r3, [pc, #284]	; (30004970 <stm32__device___elabs+0x57c>)
30004852:	681b      	ldr	r3, [r3, #0]
30004854:	4a4d      	ldr	r2, [pc, #308]	; (3000498c <stm32__device___elabs+0x598>)
30004856:	6053      	str	r3, [r2, #4]
30004858:	4b4c      	ldr	r3, [pc, #304]	; (3000498c <stm32__device___elabs+0x598>)
3000485a:	2220      	movs	r2, #32
3000485c:	811a      	strh	r2, [r3, #8]
3000485e:	4a46      	ldr	r2, [pc, #280]	; (30004978 <stm32__device___elabs+0x584>)
30004860:	4b4a      	ldr	r3, [pc, #296]	; (3000498c <stm32__device___elabs+0x598>)
30004862:	601a      	str	r2, [r3, #0]
30004864:	4b42      	ldr	r3, [pc, #264]	; (30004970 <stm32__device___elabs+0x57c>)
30004866:	681b      	ldr	r3, [r3, #0]
30004868:	4a49      	ldr	r2, [pc, #292]	; (30004990 <stm32__device___elabs+0x59c>)
3000486a:	6053      	str	r3, [r2, #4]
3000486c:	4b48      	ldr	r3, [pc, #288]	; (30004990 <stm32__device___elabs+0x59c>)
3000486e:	2240      	movs	r2, #64	; 0x40
30004870:	811a      	strh	r2, [r3, #8]
30004872:	4a41      	ldr	r2, [pc, #260]	; (30004978 <stm32__device___elabs+0x584>)
30004874:	4b46      	ldr	r3, [pc, #280]	; (30004990 <stm32__device___elabs+0x59c>)
30004876:	601a      	str	r2, [r3, #0]
30004878:	4b3d      	ldr	r3, [pc, #244]	; (30004970 <stm32__device___elabs+0x57c>)
3000487a:	681b      	ldr	r3, [r3, #0]
3000487c:	4a45      	ldr	r2, [pc, #276]	; (30004994 <stm32__device___elabs+0x5a0>)
3000487e:	6053      	str	r3, [r2, #4]
30004880:	4b44      	ldr	r3, [pc, #272]	; (30004994 <stm32__device___elabs+0x5a0>)
30004882:	2280      	movs	r2, #128	; 0x80
30004884:	811a      	strh	r2, [r3, #8]
30004886:	4a3c      	ldr	r2, [pc, #240]	; (30004978 <stm32__device___elabs+0x584>)
30004888:	4b42      	ldr	r3, [pc, #264]	; (30004994 <stm32__device___elabs+0x5a0>)
3000488a:	601a      	str	r2, [r3, #0]
3000488c:	4b38      	ldr	r3, [pc, #224]	; (30004970 <stm32__device___elabs+0x57c>)
3000488e:	681b      	ldr	r3, [r3, #0]
30004890:	4a41      	ldr	r2, [pc, #260]	; (30004998 <stm32__device___elabs+0x5a4>)
30004892:	6053      	str	r3, [r2, #4]
30004894:	4b40      	ldr	r3, [pc, #256]	; (30004998 <stm32__device___elabs+0x5a4>)
30004896:	f44f 7280 	mov.w	r2, #256	; 0x100
3000489a:	811a      	strh	r2, [r3, #8]
3000489c:	4a36      	ldr	r2, [pc, #216]	; (30004978 <stm32__device___elabs+0x584>)
3000489e:	4b3e      	ldr	r3, [pc, #248]	; (30004998 <stm32__device___elabs+0x5a4>)
300048a0:	601a      	str	r2, [r3, #0]
300048a2:	4b33      	ldr	r3, [pc, #204]	; (30004970 <stm32__device___elabs+0x57c>)
300048a4:	681b      	ldr	r3, [r3, #0]
300048a6:	4a3d      	ldr	r2, [pc, #244]	; (3000499c <stm32__device___elabs+0x5a8>)
300048a8:	6053      	str	r3, [r2, #4]
300048aa:	4b3c      	ldr	r3, [pc, #240]	; (3000499c <stm32__device___elabs+0x5a8>)
300048ac:	f44f 7200 	mov.w	r2, #512	; 0x200
300048b0:	811a      	strh	r2, [r3, #8]
300048b2:	4a31      	ldr	r2, [pc, #196]	; (30004978 <stm32__device___elabs+0x584>)
300048b4:	4b39      	ldr	r3, [pc, #228]	; (3000499c <stm32__device___elabs+0x5a8>)
300048b6:	601a      	str	r2, [r3, #0]
300048b8:	4b2d      	ldr	r3, [pc, #180]	; (30004970 <stm32__device___elabs+0x57c>)
300048ba:	681b      	ldr	r3, [r3, #0]
300048bc:	4a38      	ldr	r2, [pc, #224]	; (300049a0 <stm32__device___elabs+0x5ac>)
300048be:	6053      	str	r3, [r2, #4]
300048c0:	4b37      	ldr	r3, [pc, #220]	; (300049a0 <stm32__device___elabs+0x5ac>)
300048c2:	f44f 6280 	mov.w	r2, #1024	; 0x400
300048c6:	811a      	strh	r2, [r3, #8]
300048c8:	4a2b      	ldr	r2, [pc, #172]	; (30004978 <stm32__device___elabs+0x584>)
300048ca:	4b35      	ldr	r3, [pc, #212]	; (300049a0 <stm32__device___elabs+0x5ac>)
300048cc:	601a      	str	r2, [r3, #0]
300048ce:	4b28      	ldr	r3, [pc, #160]	; (30004970 <stm32__device___elabs+0x57c>)
300048d0:	681b      	ldr	r3, [r3, #0]
300048d2:	4a34      	ldr	r2, [pc, #208]	; (300049a4 <stm32__device___elabs+0x5b0>)
300048d4:	6053      	str	r3, [r2, #4]
300048d6:	4b33      	ldr	r3, [pc, #204]	; (300049a4 <stm32__device___elabs+0x5b0>)
300048d8:	f44f 6200 	mov.w	r2, #2048	; 0x800
300048dc:	811a      	strh	r2, [r3, #8]
300048de:	4a26      	ldr	r2, [pc, #152]	; (30004978 <stm32__device___elabs+0x584>)
300048e0:	4b30      	ldr	r3, [pc, #192]	; (300049a4 <stm32__device___elabs+0x5b0>)
300048e2:	601a      	str	r2, [r3, #0]
300048e4:	4b22      	ldr	r3, [pc, #136]	; (30004970 <stm32__device___elabs+0x57c>)
300048e6:	681b      	ldr	r3, [r3, #0]
300048e8:	4a2f      	ldr	r2, [pc, #188]	; (300049a8 <stm32__device___elabs+0x5b4>)
300048ea:	6053      	str	r3, [r2, #4]
300048ec:	4b2e      	ldr	r3, [pc, #184]	; (300049a8 <stm32__device___elabs+0x5b4>)
300048ee:	f44f 5280 	mov.w	r2, #4096	; 0x1000
300048f2:	811a      	strh	r2, [r3, #8]
300048f4:	4a20      	ldr	r2, [pc, #128]	; (30004978 <stm32__device___elabs+0x584>)
300048f6:	4b2c      	ldr	r3, [pc, #176]	; (300049a8 <stm32__device___elabs+0x5b4>)
300048f8:	601a      	str	r2, [r3, #0]
300048fa:	4b1d      	ldr	r3, [pc, #116]	; (30004970 <stm32__device___elabs+0x57c>)
300048fc:	681b      	ldr	r3, [r3, #0]
300048fe:	4a2b      	ldr	r2, [pc, #172]	; (300049ac <stm32__device___elabs+0x5b8>)
30004900:	6053      	str	r3, [r2, #4]
30004902:	4b2a      	ldr	r3, [pc, #168]	; (300049ac <stm32__device___elabs+0x5b8>)
30004904:	f44f 5200 	mov.w	r2, #8192	; 0x2000
30004908:	811a      	strh	r2, [r3, #8]
3000490a:	4a1b      	ldr	r2, [pc, #108]	; (30004978 <stm32__device___elabs+0x584>)
3000490c:	4b27      	ldr	r3, [pc, #156]	; (300049ac <stm32__device___elabs+0x5b8>)
3000490e:	601a      	str	r2, [r3, #0]
30004910:	4b17      	ldr	r3, [pc, #92]	; (30004970 <stm32__device___elabs+0x57c>)
30004912:	681b      	ldr	r3, [r3, #0]
30004914:	4a26      	ldr	r2, [pc, #152]	; (300049b0 <stm32__device___elabs+0x5bc>)
30004916:	6053      	str	r3, [r2, #4]
30004918:	4b25      	ldr	r3, [pc, #148]	; (300049b0 <stm32__device___elabs+0x5bc>)
3000491a:	f44f 4280 	mov.w	r2, #16384	; 0x4000
3000491e:	811a      	strh	r2, [r3, #8]
30004920:	4a15      	ldr	r2, [pc, #84]	; (30004978 <stm32__device___elabs+0x584>)
30004922:	4b23      	ldr	r3, [pc, #140]	; (300049b0 <stm32__device___elabs+0x5bc>)
30004924:	601a      	str	r2, [r3, #0]
30004926:	4b12      	ldr	r3, [pc, #72]	; (30004970 <stm32__device___elabs+0x57c>)
30004928:	681b      	ldr	r3, [r3, #0]
3000492a:	4a22      	ldr	r2, [pc, #136]	; (300049b4 <stm32__device___elabs+0x5c0>)
3000492c:	6053      	str	r3, [r2, #4]
3000492e:	4b21      	ldr	r3, [pc, #132]	; (300049b4 <stm32__device___elabs+0x5c0>)
30004930:	f44f 4200 	mov.w	r2, #32768	; 0x8000
30004934:	811a      	strh	r2, [r3, #8]
30004936:	4a10      	ldr	r2, [pc, #64]	; (30004978 <stm32__device___elabs+0x584>)
30004938:	4b1e      	ldr	r3, [pc, #120]	; (300049b4 <stm32__device___elabs+0x5c0>)
3000493a:	601a      	str	r2, [r3, #0]
3000493c:	481e      	ldr	r0, [pc, #120]	; (300049b8 <stm32__device___elabs+0x5c4>)
3000493e:	f7ff fd13 	bl	30004368 <stm32__device__s_ns_periph>
30004942:	4603      	mov	r3, r0
30004944:	613b      	str	r3, [r7, #16]
30004946:	4a1d      	ldr	r2, [pc, #116]	; (300049bc <stm32__device___elabs+0x5c8>)
30004948:	f107 0310 	add.w	r3, r7, #16
3000494c:	6013      	str	r3, [r2, #0]
3000494e:	4b1b      	ldr	r3, [pc, #108]	; (300049bc <stm32__device___elabs+0x5c8>)
30004950:	681b      	ldr	r3, [r3, #0]
30004952:	681b      	ldr	r3, [r3, #0]
30004954:	461a      	mov	r2, r3
30004956:	4b1a      	ldr	r3, [pc, #104]	; (300049c0 <stm32__device___elabs+0x5cc>)
30004958:	601a      	str	r2, [r3, #0]
3000495a:	4b18      	ldr	r3, [pc, #96]	; (300049bc <stm32__device___elabs+0x5c8>)
3000495c:	681b      	ldr	r3, [r3, #0]
3000495e:	681b      	ldr	r3, [r3, #0]
30004960:	f003 0303 	and.w	r3, r3, #3
30004964:	2b00      	cmp	r3, #0
30004966:	d02f      	beq.n	300049c8 <stm32__device___elabs+0x5d4>
30004968:	2152      	movs	r1, #82	; 0x52
3000496a:	4816      	ldr	r0, [pc, #88]	; (300049c4 <stm32__device___elabs+0x5d0>)
3000496c:	f004 fd10 	bl	30009390 <__gnat_last_chance_handler>
30004970:	3000c0ec 	.word	0x3000c0ec
30004974:	3000c0f0 	.word	0x3000c0f0
30004978:	3000b76c 	.word	0x3000b76c
3000497c:	3000c0fc 	.word	0x3000c0fc
30004980:	3000c108 	.word	0x3000c108
30004984:	3000c114 	.word	0x3000c114
30004988:	3000c120 	.word	0x3000c120
3000498c:	3000c12c 	.word	0x3000c12c
30004990:	3000c138 	.word	0x3000c138
30004994:	3000c144 	.word	0x3000c144
30004998:	3000c150 	.word	0x3000c150
3000499c:	3000c15c 	.word	0x3000c15c
300049a0:	3000c168 	.word	0x3000c168
300049a4:	3000c174 	.word	0x3000c174
300049a8:	3000c180 	.word	0x3000c180
300049ac:	3000c18c 	.word	0x3000c18c
300049b0:	3000c198 	.word	0x3000c198
300049b4:	3000c1a4 	.word	0x3000c1a4
300049b8:	42020c00 	.word	0x42020c00
300049bc:	3000c1b0 	.word	0x3000c1b0
300049c0:	3000c1b4 	.word	0x3000c1b4
300049c4:	3000b5ac 	.word	0x3000b5ac
300049c8:	4b60      	ldr	r3, [pc, #384]	; (30004b4c <stm32__device___elabs+0x758>)
300049ca:	681b      	ldr	r3, [r3, #0]
300049cc:	4a60      	ldr	r2, [pc, #384]	; (30004b50 <stm32__device___elabs+0x75c>)
300049ce:	6053      	str	r3, [r2, #4]
300049d0:	4b5f      	ldr	r3, [pc, #380]	; (30004b50 <stm32__device___elabs+0x75c>)
300049d2:	2201      	movs	r2, #1
300049d4:	811a      	strh	r2, [r3, #8]
300049d6:	4a5f      	ldr	r2, [pc, #380]	; (30004b54 <stm32__device___elabs+0x760>)
300049d8:	4b5d      	ldr	r3, [pc, #372]	; (30004b50 <stm32__device___elabs+0x75c>)
300049da:	601a      	str	r2, [r3, #0]
300049dc:	4b5b      	ldr	r3, [pc, #364]	; (30004b4c <stm32__device___elabs+0x758>)
300049de:	681b      	ldr	r3, [r3, #0]
300049e0:	4a5d      	ldr	r2, [pc, #372]	; (30004b58 <stm32__device___elabs+0x764>)
300049e2:	6053      	str	r3, [r2, #4]
300049e4:	4b5c      	ldr	r3, [pc, #368]	; (30004b58 <stm32__device___elabs+0x764>)
300049e6:	2202      	movs	r2, #2
300049e8:	811a      	strh	r2, [r3, #8]
300049ea:	4a5a      	ldr	r2, [pc, #360]	; (30004b54 <stm32__device___elabs+0x760>)
300049ec:	4b5a      	ldr	r3, [pc, #360]	; (30004b58 <stm32__device___elabs+0x764>)
300049ee:	601a      	str	r2, [r3, #0]
300049f0:	4b56      	ldr	r3, [pc, #344]	; (30004b4c <stm32__device___elabs+0x758>)
300049f2:	681b      	ldr	r3, [r3, #0]
300049f4:	4a59      	ldr	r2, [pc, #356]	; (30004b5c <stm32__device___elabs+0x768>)
300049f6:	6053      	str	r3, [r2, #4]
300049f8:	4b58      	ldr	r3, [pc, #352]	; (30004b5c <stm32__device___elabs+0x768>)
300049fa:	2204      	movs	r2, #4
300049fc:	811a      	strh	r2, [r3, #8]
300049fe:	4a55      	ldr	r2, [pc, #340]	; (30004b54 <stm32__device___elabs+0x760>)
30004a00:	4b56      	ldr	r3, [pc, #344]	; (30004b5c <stm32__device___elabs+0x768>)
30004a02:	601a      	str	r2, [r3, #0]
30004a04:	4b51      	ldr	r3, [pc, #324]	; (30004b4c <stm32__device___elabs+0x758>)
30004a06:	681b      	ldr	r3, [r3, #0]
30004a08:	4a55      	ldr	r2, [pc, #340]	; (30004b60 <stm32__device___elabs+0x76c>)
30004a0a:	6053      	str	r3, [r2, #4]
30004a0c:	4b54      	ldr	r3, [pc, #336]	; (30004b60 <stm32__device___elabs+0x76c>)
30004a0e:	2208      	movs	r2, #8
30004a10:	811a      	strh	r2, [r3, #8]
30004a12:	4a50      	ldr	r2, [pc, #320]	; (30004b54 <stm32__device___elabs+0x760>)
30004a14:	4b52      	ldr	r3, [pc, #328]	; (30004b60 <stm32__device___elabs+0x76c>)
30004a16:	601a      	str	r2, [r3, #0]
30004a18:	4b4c      	ldr	r3, [pc, #304]	; (30004b4c <stm32__device___elabs+0x758>)
30004a1a:	681b      	ldr	r3, [r3, #0]
30004a1c:	4a51      	ldr	r2, [pc, #324]	; (30004b64 <stm32__device___elabs+0x770>)
30004a1e:	6053      	str	r3, [r2, #4]
30004a20:	4b50      	ldr	r3, [pc, #320]	; (30004b64 <stm32__device___elabs+0x770>)
30004a22:	2210      	movs	r2, #16
30004a24:	811a      	strh	r2, [r3, #8]
30004a26:	4a4b      	ldr	r2, [pc, #300]	; (30004b54 <stm32__device___elabs+0x760>)
30004a28:	4b4e      	ldr	r3, [pc, #312]	; (30004b64 <stm32__device___elabs+0x770>)
30004a2a:	601a      	str	r2, [r3, #0]
30004a2c:	4b47      	ldr	r3, [pc, #284]	; (30004b4c <stm32__device___elabs+0x758>)
30004a2e:	681b      	ldr	r3, [r3, #0]
30004a30:	4a4d      	ldr	r2, [pc, #308]	; (30004b68 <stm32__device___elabs+0x774>)
30004a32:	6053      	str	r3, [r2, #4]
30004a34:	4b4c      	ldr	r3, [pc, #304]	; (30004b68 <stm32__device___elabs+0x774>)
30004a36:	2220      	movs	r2, #32
30004a38:	811a      	strh	r2, [r3, #8]
30004a3a:	4a46      	ldr	r2, [pc, #280]	; (30004b54 <stm32__device___elabs+0x760>)
30004a3c:	4b4a      	ldr	r3, [pc, #296]	; (30004b68 <stm32__device___elabs+0x774>)
30004a3e:	601a      	str	r2, [r3, #0]
30004a40:	4b42      	ldr	r3, [pc, #264]	; (30004b4c <stm32__device___elabs+0x758>)
30004a42:	681b      	ldr	r3, [r3, #0]
30004a44:	4a49      	ldr	r2, [pc, #292]	; (30004b6c <stm32__device___elabs+0x778>)
30004a46:	6053      	str	r3, [r2, #4]
30004a48:	4b48      	ldr	r3, [pc, #288]	; (30004b6c <stm32__device___elabs+0x778>)
30004a4a:	2240      	movs	r2, #64	; 0x40
30004a4c:	811a      	strh	r2, [r3, #8]
30004a4e:	4a41      	ldr	r2, [pc, #260]	; (30004b54 <stm32__device___elabs+0x760>)
30004a50:	4b46      	ldr	r3, [pc, #280]	; (30004b6c <stm32__device___elabs+0x778>)
30004a52:	601a      	str	r2, [r3, #0]
30004a54:	4b3d      	ldr	r3, [pc, #244]	; (30004b4c <stm32__device___elabs+0x758>)
30004a56:	681b      	ldr	r3, [r3, #0]
30004a58:	4a45      	ldr	r2, [pc, #276]	; (30004b70 <stm32__device___elabs+0x77c>)
30004a5a:	6053      	str	r3, [r2, #4]
30004a5c:	4b44      	ldr	r3, [pc, #272]	; (30004b70 <stm32__device___elabs+0x77c>)
30004a5e:	2280      	movs	r2, #128	; 0x80
30004a60:	811a      	strh	r2, [r3, #8]
30004a62:	4a3c      	ldr	r2, [pc, #240]	; (30004b54 <stm32__device___elabs+0x760>)
30004a64:	4b42      	ldr	r3, [pc, #264]	; (30004b70 <stm32__device___elabs+0x77c>)
30004a66:	601a      	str	r2, [r3, #0]
30004a68:	4b38      	ldr	r3, [pc, #224]	; (30004b4c <stm32__device___elabs+0x758>)
30004a6a:	681b      	ldr	r3, [r3, #0]
30004a6c:	4a41      	ldr	r2, [pc, #260]	; (30004b74 <stm32__device___elabs+0x780>)
30004a6e:	6053      	str	r3, [r2, #4]
30004a70:	4b40      	ldr	r3, [pc, #256]	; (30004b74 <stm32__device___elabs+0x780>)
30004a72:	f44f 7280 	mov.w	r2, #256	; 0x100
30004a76:	811a      	strh	r2, [r3, #8]
30004a78:	4a36      	ldr	r2, [pc, #216]	; (30004b54 <stm32__device___elabs+0x760>)
30004a7a:	4b3e      	ldr	r3, [pc, #248]	; (30004b74 <stm32__device___elabs+0x780>)
30004a7c:	601a      	str	r2, [r3, #0]
30004a7e:	4b33      	ldr	r3, [pc, #204]	; (30004b4c <stm32__device___elabs+0x758>)
30004a80:	681b      	ldr	r3, [r3, #0]
30004a82:	4a3d      	ldr	r2, [pc, #244]	; (30004b78 <stm32__device___elabs+0x784>)
30004a84:	6053      	str	r3, [r2, #4]
30004a86:	4b3c      	ldr	r3, [pc, #240]	; (30004b78 <stm32__device___elabs+0x784>)
30004a88:	f44f 7200 	mov.w	r2, #512	; 0x200
30004a8c:	811a      	strh	r2, [r3, #8]
30004a8e:	4a31      	ldr	r2, [pc, #196]	; (30004b54 <stm32__device___elabs+0x760>)
30004a90:	4b39      	ldr	r3, [pc, #228]	; (30004b78 <stm32__device___elabs+0x784>)
30004a92:	601a      	str	r2, [r3, #0]
30004a94:	4b2d      	ldr	r3, [pc, #180]	; (30004b4c <stm32__device___elabs+0x758>)
30004a96:	681b      	ldr	r3, [r3, #0]
30004a98:	4a38      	ldr	r2, [pc, #224]	; (30004b7c <stm32__device___elabs+0x788>)
30004a9a:	6053      	str	r3, [r2, #4]
30004a9c:	4b37      	ldr	r3, [pc, #220]	; (30004b7c <stm32__device___elabs+0x788>)
30004a9e:	f44f 6280 	mov.w	r2, #1024	; 0x400
30004aa2:	811a      	strh	r2, [r3, #8]
30004aa4:	4a2b      	ldr	r2, [pc, #172]	; (30004b54 <stm32__device___elabs+0x760>)
30004aa6:	4b35      	ldr	r3, [pc, #212]	; (30004b7c <stm32__device___elabs+0x788>)
30004aa8:	601a      	str	r2, [r3, #0]
30004aaa:	4b28      	ldr	r3, [pc, #160]	; (30004b4c <stm32__device___elabs+0x758>)
30004aac:	681b      	ldr	r3, [r3, #0]
30004aae:	4a34      	ldr	r2, [pc, #208]	; (30004b80 <stm32__device___elabs+0x78c>)
30004ab0:	6053      	str	r3, [r2, #4]
30004ab2:	4b33      	ldr	r3, [pc, #204]	; (30004b80 <stm32__device___elabs+0x78c>)
30004ab4:	f44f 6200 	mov.w	r2, #2048	; 0x800
30004ab8:	811a      	strh	r2, [r3, #8]
30004aba:	4a26      	ldr	r2, [pc, #152]	; (30004b54 <stm32__device___elabs+0x760>)
30004abc:	4b30      	ldr	r3, [pc, #192]	; (30004b80 <stm32__device___elabs+0x78c>)
30004abe:	601a      	str	r2, [r3, #0]
30004ac0:	4b22      	ldr	r3, [pc, #136]	; (30004b4c <stm32__device___elabs+0x758>)
30004ac2:	681b      	ldr	r3, [r3, #0]
30004ac4:	4a2f      	ldr	r2, [pc, #188]	; (30004b84 <stm32__device___elabs+0x790>)
30004ac6:	6053      	str	r3, [r2, #4]
30004ac8:	4b2e      	ldr	r3, [pc, #184]	; (30004b84 <stm32__device___elabs+0x790>)
30004aca:	f44f 5280 	mov.w	r2, #4096	; 0x1000
30004ace:	811a      	strh	r2, [r3, #8]
30004ad0:	4a20      	ldr	r2, [pc, #128]	; (30004b54 <stm32__device___elabs+0x760>)
30004ad2:	4b2c      	ldr	r3, [pc, #176]	; (30004b84 <stm32__device___elabs+0x790>)
30004ad4:	601a      	str	r2, [r3, #0]
30004ad6:	4b1d      	ldr	r3, [pc, #116]	; (30004b4c <stm32__device___elabs+0x758>)
30004ad8:	681b      	ldr	r3, [r3, #0]
30004ada:	4a2b      	ldr	r2, [pc, #172]	; (30004b88 <stm32__device___elabs+0x794>)
30004adc:	6053      	str	r3, [r2, #4]
30004ade:	4b2a      	ldr	r3, [pc, #168]	; (30004b88 <stm32__device___elabs+0x794>)
30004ae0:	f44f 5200 	mov.w	r2, #8192	; 0x2000
30004ae4:	811a      	strh	r2, [r3, #8]
30004ae6:	4a1b      	ldr	r2, [pc, #108]	; (30004b54 <stm32__device___elabs+0x760>)
30004ae8:	4b27      	ldr	r3, [pc, #156]	; (30004b88 <stm32__device___elabs+0x794>)
30004aea:	601a      	str	r2, [r3, #0]
30004aec:	4b17      	ldr	r3, [pc, #92]	; (30004b4c <stm32__device___elabs+0x758>)
30004aee:	681b      	ldr	r3, [r3, #0]
30004af0:	4a26      	ldr	r2, [pc, #152]	; (30004b8c <stm32__device___elabs+0x798>)
30004af2:	6053      	str	r3, [r2, #4]
30004af4:	4b25      	ldr	r3, [pc, #148]	; (30004b8c <stm32__device___elabs+0x798>)
30004af6:	f44f 4280 	mov.w	r2, #16384	; 0x4000
30004afa:	811a      	strh	r2, [r3, #8]
30004afc:	4a15      	ldr	r2, [pc, #84]	; (30004b54 <stm32__device___elabs+0x760>)
30004afe:	4b23      	ldr	r3, [pc, #140]	; (30004b8c <stm32__device___elabs+0x798>)
30004b00:	601a      	str	r2, [r3, #0]
30004b02:	4b12      	ldr	r3, [pc, #72]	; (30004b4c <stm32__device___elabs+0x758>)
30004b04:	681b      	ldr	r3, [r3, #0]
30004b06:	4a22      	ldr	r2, [pc, #136]	; (30004b90 <stm32__device___elabs+0x79c>)
30004b08:	6053      	str	r3, [r2, #4]
30004b0a:	4b21      	ldr	r3, [pc, #132]	; (30004b90 <stm32__device___elabs+0x79c>)
30004b0c:	f44f 4200 	mov.w	r2, #32768	; 0x8000
30004b10:	811a      	strh	r2, [r3, #8]
30004b12:	4a10      	ldr	r2, [pc, #64]	; (30004b54 <stm32__device___elabs+0x760>)
30004b14:	4b1e      	ldr	r3, [pc, #120]	; (30004b90 <stm32__device___elabs+0x79c>)
30004b16:	601a      	str	r2, [r3, #0]
30004b18:	481e      	ldr	r0, [pc, #120]	; (30004b94 <stm32__device___elabs+0x7a0>)
30004b1a:	f7ff fc25 	bl	30004368 <stm32__device__s_ns_periph>
30004b1e:	4603      	mov	r3, r0
30004b20:	617b      	str	r3, [r7, #20]
30004b22:	4a1d      	ldr	r2, [pc, #116]	; (30004b98 <stm32__device___elabs+0x7a4>)
30004b24:	f107 0314 	add.w	r3, r7, #20
30004b28:	6013      	str	r3, [r2, #0]
30004b2a:	4b1b      	ldr	r3, [pc, #108]	; (30004b98 <stm32__device___elabs+0x7a4>)
30004b2c:	681b      	ldr	r3, [r3, #0]
30004b2e:	681b      	ldr	r3, [r3, #0]
30004b30:	461a      	mov	r2, r3
30004b32:	4b1a      	ldr	r3, [pc, #104]	; (30004b9c <stm32__device___elabs+0x7a8>)
30004b34:	601a      	str	r2, [r3, #0]
30004b36:	4b18      	ldr	r3, [pc, #96]	; (30004b98 <stm32__device___elabs+0x7a4>)
30004b38:	681b      	ldr	r3, [r3, #0]
30004b3a:	681b      	ldr	r3, [r3, #0]
30004b3c:	f003 0303 	and.w	r3, r3, #3
30004b40:	2b00      	cmp	r3, #0
30004b42:	d02f      	beq.n	30004ba4 <stm32__device___elabs+0x7b0>
30004b44:	2153      	movs	r1, #83	; 0x53
30004b46:	4816      	ldr	r0, [pc, #88]	; (30004ba0 <stm32__device___elabs+0x7ac>)
30004b48:	f004 fc22 	bl	30009390 <__gnat_last_chance_handler>
30004b4c:	3000c1b4 	.word	0x3000c1b4
30004b50:	3000c1b8 	.word	0x3000c1b8
30004b54:	3000b76c 	.word	0x3000b76c
30004b58:	3000c1c4 	.word	0x3000c1c4
30004b5c:	3000c1d0 	.word	0x3000c1d0
30004b60:	3000c1dc 	.word	0x3000c1dc
30004b64:	3000c1e8 	.word	0x3000c1e8
30004b68:	3000c1f4 	.word	0x3000c1f4
30004b6c:	3000c200 	.word	0x3000c200
30004b70:	3000c20c 	.word	0x3000c20c
30004b74:	3000c218 	.word	0x3000c218
30004b78:	3000c224 	.word	0x3000c224
30004b7c:	3000c230 	.word	0x3000c230
30004b80:	3000c23c 	.word	0x3000c23c
30004b84:	3000c248 	.word	0x3000c248
30004b88:	3000c254 	.word	0x3000c254
30004b8c:	3000c260 	.word	0x3000c260
30004b90:	3000c26c 	.word	0x3000c26c
30004b94:	42021000 	.word	0x42021000
30004b98:	3000c278 	.word	0x3000c278
30004b9c:	3000c27c 	.word	0x3000c27c
30004ba0:	3000b5ac 	.word	0x3000b5ac
30004ba4:	4b60      	ldr	r3, [pc, #384]	; (30004d28 <stm32__device___elabs+0x934>)
30004ba6:	681b      	ldr	r3, [r3, #0]
30004ba8:	4a60      	ldr	r2, [pc, #384]	; (30004d2c <stm32__device___elabs+0x938>)
30004baa:	6053      	str	r3, [r2, #4]
30004bac:	4b5f      	ldr	r3, [pc, #380]	; (30004d2c <stm32__device___elabs+0x938>)
30004bae:	2201      	movs	r2, #1
30004bb0:	811a      	strh	r2, [r3, #8]
30004bb2:	4a5f      	ldr	r2, [pc, #380]	; (30004d30 <stm32__device___elabs+0x93c>)
30004bb4:	4b5d      	ldr	r3, [pc, #372]	; (30004d2c <stm32__device___elabs+0x938>)
30004bb6:	601a      	str	r2, [r3, #0]
30004bb8:	4b5b      	ldr	r3, [pc, #364]	; (30004d28 <stm32__device___elabs+0x934>)
30004bba:	681b      	ldr	r3, [r3, #0]
30004bbc:	4a5d      	ldr	r2, [pc, #372]	; (30004d34 <stm32__device___elabs+0x940>)
30004bbe:	6053      	str	r3, [r2, #4]
30004bc0:	4b5c      	ldr	r3, [pc, #368]	; (30004d34 <stm32__device___elabs+0x940>)
30004bc2:	2202      	movs	r2, #2
30004bc4:	811a      	strh	r2, [r3, #8]
30004bc6:	4a5a      	ldr	r2, [pc, #360]	; (30004d30 <stm32__device___elabs+0x93c>)
30004bc8:	4b5a      	ldr	r3, [pc, #360]	; (30004d34 <stm32__device___elabs+0x940>)
30004bca:	601a      	str	r2, [r3, #0]
30004bcc:	4b56      	ldr	r3, [pc, #344]	; (30004d28 <stm32__device___elabs+0x934>)
30004bce:	681b      	ldr	r3, [r3, #0]
30004bd0:	4a59      	ldr	r2, [pc, #356]	; (30004d38 <stm32__device___elabs+0x944>)
30004bd2:	6053      	str	r3, [r2, #4]
30004bd4:	4b58      	ldr	r3, [pc, #352]	; (30004d38 <stm32__device___elabs+0x944>)
30004bd6:	2204      	movs	r2, #4
30004bd8:	811a      	strh	r2, [r3, #8]
30004bda:	4a55      	ldr	r2, [pc, #340]	; (30004d30 <stm32__device___elabs+0x93c>)
30004bdc:	4b56      	ldr	r3, [pc, #344]	; (30004d38 <stm32__device___elabs+0x944>)
30004bde:	601a      	str	r2, [r3, #0]
30004be0:	4b51      	ldr	r3, [pc, #324]	; (30004d28 <stm32__device___elabs+0x934>)
30004be2:	681b      	ldr	r3, [r3, #0]
30004be4:	4a55      	ldr	r2, [pc, #340]	; (30004d3c <stm32__device___elabs+0x948>)
30004be6:	6053      	str	r3, [r2, #4]
30004be8:	4b54      	ldr	r3, [pc, #336]	; (30004d3c <stm32__device___elabs+0x948>)
30004bea:	2208      	movs	r2, #8
30004bec:	811a      	strh	r2, [r3, #8]
30004bee:	4a50      	ldr	r2, [pc, #320]	; (30004d30 <stm32__device___elabs+0x93c>)
30004bf0:	4b52      	ldr	r3, [pc, #328]	; (30004d3c <stm32__device___elabs+0x948>)
30004bf2:	601a      	str	r2, [r3, #0]
30004bf4:	4b4c      	ldr	r3, [pc, #304]	; (30004d28 <stm32__device___elabs+0x934>)
30004bf6:	681b      	ldr	r3, [r3, #0]
30004bf8:	4a51      	ldr	r2, [pc, #324]	; (30004d40 <stm32__device___elabs+0x94c>)
30004bfa:	6053      	str	r3, [r2, #4]
30004bfc:	4b50      	ldr	r3, [pc, #320]	; (30004d40 <stm32__device___elabs+0x94c>)
30004bfe:	2210      	movs	r2, #16
30004c00:	811a      	strh	r2, [r3, #8]
30004c02:	4a4b      	ldr	r2, [pc, #300]	; (30004d30 <stm32__device___elabs+0x93c>)
30004c04:	4b4e      	ldr	r3, [pc, #312]	; (30004d40 <stm32__device___elabs+0x94c>)
30004c06:	601a      	str	r2, [r3, #0]
30004c08:	4b47      	ldr	r3, [pc, #284]	; (30004d28 <stm32__device___elabs+0x934>)
30004c0a:	681b      	ldr	r3, [r3, #0]
30004c0c:	4a4d      	ldr	r2, [pc, #308]	; (30004d44 <stm32__device___elabs+0x950>)
30004c0e:	6053      	str	r3, [r2, #4]
30004c10:	4b4c      	ldr	r3, [pc, #304]	; (30004d44 <stm32__device___elabs+0x950>)
30004c12:	2220      	movs	r2, #32
30004c14:	811a      	strh	r2, [r3, #8]
30004c16:	4a46      	ldr	r2, [pc, #280]	; (30004d30 <stm32__device___elabs+0x93c>)
30004c18:	4b4a      	ldr	r3, [pc, #296]	; (30004d44 <stm32__device___elabs+0x950>)
30004c1a:	601a      	str	r2, [r3, #0]
30004c1c:	4b42      	ldr	r3, [pc, #264]	; (30004d28 <stm32__device___elabs+0x934>)
30004c1e:	681b      	ldr	r3, [r3, #0]
30004c20:	4a49      	ldr	r2, [pc, #292]	; (30004d48 <stm32__device___elabs+0x954>)
30004c22:	6053      	str	r3, [r2, #4]
30004c24:	4b48      	ldr	r3, [pc, #288]	; (30004d48 <stm32__device___elabs+0x954>)
30004c26:	2240      	movs	r2, #64	; 0x40
30004c28:	811a      	strh	r2, [r3, #8]
30004c2a:	4a41      	ldr	r2, [pc, #260]	; (30004d30 <stm32__device___elabs+0x93c>)
30004c2c:	4b46      	ldr	r3, [pc, #280]	; (30004d48 <stm32__device___elabs+0x954>)
30004c2e:	601a      	str	r2, [r3, #0]
30004c30:	4b3d      	ldr	r3, [pc, #244]	; (30004d28 <stm32__device___elabs+0x934>)
30004c32:	681b      	ldr	r3, [r3, #0]
30004c34:	4a45      	ldr	r2, [pc, #276]	; (30004d4c <stm32__device___elabs+0x958>)
30004c36:	6053      	str	r3, [r2, #4]
30004c38:	4b44      	ldr	r3, [pc, #272]	; (30004d4c <stm32__device___elabs+0x958>)
30004c3a:	2280      	movs	r2, #128	; 0x80
30004c3c:	811a      	strh	r2, [r3, #8]
30004c3e:	4a3c      	ldr	r2, [pc, #240]	; (30004d30 <stm32__device___elabs+0x93c>)
30004c40:	4b42      	ldr	r3, [pc, #264]	; (30004d4c <stm32__device___elabs+0x958>)
30004c42:	601a      	str	r2, [r3, #0]
30004c44:	4b38      	ldr	r3, [pc, #224]	; (30004d28 <stm32__device___elabs+0x934>)
30004c46:	681b      	ldr	r3, [r3, #0]
30004c48:	4a41      	ldr	r2, [pc, #260]	; (30004d50 <stm32__device___elabs+0x95c>)
30004c4a:	6053      	str	r3, [r2, #4]
30004c4c:	4b40      	ldr	r3, [pc, #256]	; (30004d50 <stm32__device___elabs+0x95c>)
30004c4e:	f44f 7280 	mov.w	r2, #256	; 0x100
30004c52:	811a      	strh	r2, [r3, #8]
30004c54:	4a36      	ldr	r2, [pc, #216]	; (30004d30 <stm32__device___elabs+0x93c>)
30004c56:	4b3e      	ldr	r3, [pc, #248]	; (30004d50 <stm32__device___elabs+0x95c>)
30004c58:	601a      	str	r2, [r3, #0]
30004c5a:	4b33      	ldr	r3, [pc, #204]	; (30004d28 <stm32__device___elabs+0x934>)
30004c5c:	681b      	ldr	r3, [r3, #0]
30004c5e:	4a3d      	ldr	r2, [pc, #244]	; (30004d54 <stm32__device___elabs+0x960>)
30004c60:	6053      	str	r3, [r2, #4]
30004c62:	4b3c      	ldr	r3, [pc, #240]	; (30004d54 <stm32__device___elabs+0x960>)
30004c64:	f44f 7200 	mov.w	r2, #512	; 0x200
30004c68:	811a      	strh	r2, [r3, #8]
30004c6a:	4a31      	ldr	r2, [pc, #196]	; (30004d30 <stm32__device___elabs+0x93c>)
30004c6c:	4b39      	ldr	r3, [pc, #228]	; (30004d54 <stm32__device___elabs+0x960>)
30004c6e:	601a      	str	r2, [r3, #0]
30004c70:	4b2d      	ldr	r3, [pc, #180]	; (30004d28 <stm32__device___elabs+0x934>)
30004c72:	681b      	ldr	r3, [r3, #0]
30004c74:	4a38      	ldr	r2, [pc, #224]	; (30004d58 <stm32__device___elabs+0x964>)
30004c76:	6053      	str	r3, [r2, #4]
30004c78:	4b37      	ldr	r3, [pc, #220]	; (30004d58 <stm32__device___elabs+0x964>)
30004c7a:	f44f 6280 	mov.w	r2, #1024	; 0x400
30004c7e:	811a      	strh	r2, [r3, #8]
30004c80:	4a2b      	ldr	r2, [pc, #172]	; (30004d30 <stm32__device___elabs+0x93c>)
30004c82:	4b35      	ldr	r3, [pc, #212]	; (30004d58 <stm32__device___elabs+0x964>)
30004c84:	601a      	str	r2, [r3, #0]
30004c86:	4b28      	ldr	r3, [pc, #160]	; (30004d28 <stm32__device___elabs+0x934>)
30004c88:	681b      	ldr	r3, [r3, #0]
30004c8a:	4a34      	ldr	r2, [pc, #208]	; (30004d5c <stm32__device___elabs+0x968>)
30004c8c:	6053      	str	r3, [r2, #4]
30004c8e:	4b33      	ldr	r3, [pc, #204]	; (30004d5c <stm32__device___elabs+0x968>)
30004c90:	f44f 6200 	mov.w	r2, #2048	; 0x800
30004c94:	811a      	strh	r2, [r3, #8]
30004c96:	4a26      	ldr	r2, [pc, #152]	; (30004d30 <stm32__device___elabs+0x93c>)
30004c98:	4b30      	ldr	r3, [pc, #192]	; (30004d5c <stm32__device___elabs+0x968>)
30004c9a:	601a      	str	r2, [r3, #0]
30004c9c:	4b22      	ldr	r3, [pc, #136]	; (30004d28 <stm32__device___elabs+0x934>)
30004c9e:	681b      	ldr	r3, [r3, #0]
30004ca0:	4a2f      	ldr	r2, [pc, #188]	; (30004d60 <stm32__device___elabs+0x96c>)
30004ca2:	6053      	str	r3, [r2, #4]
30004ca4:	4b2e      	ldr	r3, [pc, #184]	; (30004d60 <stm32__device___elabs+0x96c>)
30004ca6:	f44f 5280 	mov.w	r2, #4096	; 0x1000
30004caa:	811a      	strh	r2, [r3, #8]
30004cac:	4a20      	ldr	r2, [pc, #128]	; (30004d30 <stm32__device___elabs+0x93c>)
30004cae:	4b2c      	ldr	r3, [pc, #176]	; (30004d60 <stm32__device___elabs+0x96c>)
30004cb0:	601a      	str	r2, [r3, #0]
30004cb2:	4b1d      	ldr	r3, [pc, #116]	; (30004d28 <stm32__device___elabs+0x934>)
30004cb4:	681b      	ldr	r3, [r3, #0]
30004cb6:	4a2b      	ldr	r2, [pc, #172]	; (30004d64 <stm32__device___elabs+0x970>)
30004cb8:	6053      	str	r3, [r2, #4]
30004cba:	4b2a      	ldr	r3, [pc, #168]	; (30004d64 <stm32__device___elabs+0x970>)
30004cbc:	f44f 5200 	mov.w	r2, #8192	; 0x2000
30004cc0:	811a      	strh	r2, [r3, #8]
30004cc2:	4a1b      	ldr	r2, [pc, #108]	; (30004d30 <stm32__device___elabs+0x93c>)
30004cc4:	4b27      	ldr	r3, [pc, #156]	; (30004d64 <stm32__device___elabs+0x970>)
30004cc6:	601a      	str	r2, [r3, #0]
30004cc8:	4b17      	ldr	r3, [pc, #92]	; (30004d28 <stm32__device___elabs+0x934>)
30004cca:	681b      	ldr	r3, [r3, #0]
30004ccc:	4a26      	ldr	r2, [pc, #152]	; (30004d68 <stm32__device___elabs+0x974>)
30004cce:	6053      	str	r3, [r2, #4]
30004cd0:	4b25      	ldr	r3, [pc, #148]	; (30004d68 <stm32__device___elabs+0x974>)
30004cd2:	f44f 4280 	mov.w	r2, #16384	; 0x4000
30004cd6:	811a      	strh	r2, [r3, #8]
30004cd8:	4a15      	ldr	r2, [pc, #84]	; (30004d30 <stm32__device___elabs+0x93c>)
30004cda:	4b23      	ldr	r3, [pc, #140]	; (30004d68 <stm32__device___elabs+0x974>)
30004cdc:	601a      	str	r2, [r3, #0]
30004cde:	4b12      	ldr	r3, [pc, #72]	; (30004d28 <stm32__device___elabs+0x934>)
30004ce0:	681b      	ldr	r3, [r3, #0]
30004ce2:	4a22      	ldr	r2, [pc, #136]	; (30004d6c <stm32__device___elabs+0x978>)
30004ce4:	6053      	str	r3, [r2, #4]
30004ce6:	4b21      	ldr	r3, [pc, #132]	; (30004d6c <stm32__device___elabs+0x978>)
30004ce8:	f44f 4200 	mov.w	r2, #32768	; 0x8000
30004cec:	811a      	strh	r2, [r3, #8]
30004cee:	4a10      	ldr	r2, [pc, #64]	; (30004d30 <stm32__device___elabs+0x93c>)
30004cf0:	4b1e      	ldr	r3, [pc, #120]	; (30004d6c <stm32__device___elabs+0x978>)
30004cf2:	601a      	str	r2, [r3, #0]
30004cf4:	481e      	ldr	r0, [pc, #120]	; (30004d70 <stm32__device___elabs+0x97c>)
30004cf6:	f7ff fb37 	bl	30004368 <stm32__device__s_ns_periph>
30004cfa:	4603      	mov	r3, r0
30004cfc:	61bb      	str	r3, [r7, #24]
30004cfe:	4a1d      	ldr	r2, [pc, #116]	; (30004d74 <stm32__device___elabs+0x980>)
30004d00:	f107 0318 	add.w	r3, r7, #24
30004d04:	6013      	str	r3, [r2, #0]
30004d06:	4b1b      	ldr	r3, [pc, #108]	; (30004d74 <stm32__device___elabs+0x980>)
30004d08:	681b      	ldr	r3, [r3, #0]
30004d0a:	681b      	ldr	r3, [r3, #0]
30004d0c:	461a      	mov	r2, r3
30004d0e:	4b1a      	ldr	r3, [pc, #104]	; (30004d78 <stm32__device___elabs+0x984>)
30004d10:	601a      	str	r2, [r3, #0]
30004d12:	4b18      	ldr	r3, [pc, #96]	; (30004d74 <stm32__device___elabs+0x980>)
30004d14:	681b      	ldr	r3, [r3, #0]
30004d16:	681b      	ldr	r3, [r3, #0]
30004d18:	f003 0303 	and.w	r3, r3, #3
30004d1c:	2b00      	cmp	r3, #0
30004d1e:	d02f      	beq.n	30004d80 <stm32__device___elabs+0x98c>
30004d20:	2154      	movs	r1, #84	; 0x54
30004d22:	4816      	ldr	r0, [pc, #88]	; (30004d7c <stm32__device___elabs+0x988>)
30004d24:	f004 fb34 	bl	30009390 <__gnat_last_chance_handler>
30004d28:	3000c27c 	.word	0x3000c27c
30004d2c:	3000c280 	.word	0x3000c280
30004d30:	3000b76c 	.word	0x3000b76c
30004d34:	3000c28c 	.word	0x3000c28c
30004d38:	3000c298 	.word	0x3000c298
30004d3c:	3000c2a4 	.word	0x3000c2a4
30004d40:	3000c2b0 	.word	0x3000c2b0
30004d44:	3000c2bc 	.word	0x3000c2bc
30004d48:	3000c2c8 	.word	0x3000c2c8
30004d4c:	3000c2d4 	.word	0x3000c2d4
30004d50:	3000c2e0 	.word	0x3000c2e0
30004d54:	3000c2ec 	.word	0x3000c2ec
30004d58:	3000c2f8 	.word	0x3000c2f8
30004d5c:	3000c304 	.word	0x3000c304
30004d60:	3000c310 	.word	0x3000c310
30004d64:	3000c31c 	.word	0x3000c31c
30004d68:	3000c328 	.word	0x3000c328
30004d6c:	3000c334 	.word	0x3000c334
30004d70:	42021400 	.word	0x42021400
30004d74:	3000c340 	.word	0x3000c340
30004d78:	3000c344 	.word	0x3000c344
30004d7c:	3000b5ac 	.word	0x3000b5ac
30004d80:	4b60      	ldr	r3, [pc, #384]	; (30004f04 <stm32__device___elabs+0xb10>)
30004d82:	681b      	ldr	r3, [r3, #0]
30004d84:	4a60      	ldr	r2, [pc, #384]	; (30004f08 <stm32__device___elabs+0xb14>)
30004d86:	6053      	str	r3, [r2, #4]
30004d88:	4b5f      	ldr	r3, [pc, #380]	; (30004f08 <stm32__device___elabs+0xb14>)
30004d8a:	2201      	movs	r2, #1
30004d8c:	811a      	strh	r2, [r3, #8]
30004d8e:	4a5f      	ldr	r2, [pc, #380]	; (30004f0c <stm32__device___elabs+0xb18>)
30004d90:	4b5d      	ldr	r3, [pc, #372]	; (30004f08 <stm32__device___elabs+0xb14>)
30004d92:	601a      	str	r2, [r3, #0]
30004d94:	4b5b      	ldr	r3, [pc, #364]	; (30004f04 <stm32__device___elabs+0xb10>)
30004d96:	681b      	ldr	r3, [r3, #0]
30004d98:	4a5d      	ldr	r2, [pc, #372]	; (30004f10 <stm32__device___elabs+0xb1c>)
30004d9a:	6053      	str	r3, [r2, #4]
30004d9c:	4b5c      	ldr	r3, [pc, #368]	; (30004f10 <stm32__device___elabs+0xb1c>)
30004d9e:	2202      	movs	r2, #2
30004da0:	811a      	strh	r2, [r3, #8]
30004da2:	4a5a      	ldr	r2, [pc, #360]	; (30004f0c <stm32__device___elabs+0xb18>)
30004da4:	4b5a      	ldr	r3, [pc, #360]	; (30004f10 <stm32__device___elabs+0xb1c>)
30004da6:	601a      	str	r2, [r3, #0]
30004da8:	4b56      	ldr	r3, [pc, #344]	; (30004f04 <stm32__device___elabs+0xb10>)
30004daa:	681b      	ldr	r3, [r3, #0]
30004dac:	4a59      	ldr	r2, [pc, #356]	; (30004f14 <stm32__device___elabs+0xb20>)
30004dae:	6053      	str	r3, [r2, #4]
30004db0:	4b58      	ldr	r3, [pc, #352]	; (30004f14 <stm32__device___elabs+0xb20>)
30004db2:	2204      	movs	r2, #4
30004db4:	811a      	strh	r2, [r3, #8]
30004db6:	4a55      	ldr	r2, [pc, #340]	; (30004f0c <stm32__device___elabs+0xb18>)
30004db8:	4b56      	ldr	r3, [pc, #344]	; (30004f14 <stm32__device___elabs+0xb20>)
30004dba:	601a      	str	r2, [r3, #0]
30004dbc:	4b51      	ldr	r3, [pc, #324]	; (30004f04 <stm32__device___elabs+0xb10>)
30004dbe:	681b      	ldr	r3, [r3, #0]
30004dc0:	4a55      	ldr	r2, [pc, #340]	; (30004f18 <stm32__device___elabs+0xb24>)
30004dc2:	6053      	str	r3, [r2, #4]
30004dc4:	4b54      	ldr	r3, [pc, #336]	; (30004f18 <stm32__device___elabs+0xb24>)
30004dc6:	2208      	movs	r2, #8
30004dc8:	811a      	strh	r2, [r3, #8]
30004dca:	4a50      	ldr	r2, [pc, #320]	; (30004f0c <stm32__device___elabs+0xb18>)
30004dcc:	4b52      	ldr	r3, [pc, #328]	; (30004f18 <stm32__device___elabs+0xb24>)
30004dce:	601a      	str	r2, [r3, #0]
30004dd0:	4b4c      	ldr	r3, [pc, #304]	; (30004f04 <stm32__device___elabs+0xb10>)
30004dd2:	681b      	ldr	r3, [r3, #0]
30004dd4:	4a51      	ldr	r2, [pc, #324]	; (30004f1c <stm32__device___elabs+0xb28>)
30004dd6:	6053      	str	r3, [r2, #4]
30004dd8:	4b50      	ldr	r3, [pc, #320]	; (30004f1c <stm32__device___elabs+0xb28>)
30004dda:	2210      	movs	r2, #16
30004ddc:	811a      	strh	r2, [r3, #8]
30004dde:	4a4b      	ldr	r2, [pc, #300]	; (30004f0c <stm32__device___elabs+0xb18>)
30004de0:	4b4e      	ldr	r3, [pc, #312]	; (30004f1c <stm32__device___elabs+0xb28>)
30004de2:	601a      	str	r2, [r3, #0]
30004de4:	4b47      	ldr	r3, [pc, #284]	; (30004f04 <stm32__device___elabs+0xb10>)
30004de6:	681b      	ldr	r3, [r3, #0]
30004de8:	4a4d      	ldr	r2, [pc, #308]	; (30004f20 <stm32__device___elabs+0xb2c>)
30004dea:	6053      	str	r3, [r2, #4]
30004dec:	4b4c      	ldr	r3, [pc, #304]	; (30004f20 <stm32__device___elabs+0xb2c>)
30004dee:	2220      	movs	r2, #32
30004df0:	811a      	strh	r2, [r3, #8]
30004df2:	4a46      	ldr	r2, [pc, #280]	; (30004f0c <stm32__device___elabs+0xb18>)
30004df4:	4b4a      	ldr	r3, [pc, #296]	; (30004f20 <stm32__device___elabs+0xb2c>)
30004df6:	601a      	str	r2, [r3, #0]
30004df8:	4b42      	ldr	r3, [pc, #264]	; (30004f04 <stm32__device___elabs+0xb10>)
30004dfa:	681b      	ldr	r3, [r3, #0]
30004dfc:	4a49      	ldr	r2, [pc, #292]	; (30004f24 <stm32__device___elabs+0xb30>)
30004dfe:	6053      	str	r3, [r2, #4]
30004e00:	4b48      	ldr	r3, [pc, #288]	; (30004f24 <stm32__device___elabs+0xb30>)
30004e02:	2240      	movs	r2, #64	; 0x40
30004e04:	811a      	strh	r2, [r3, #8]
30004e06:	4a41      	ldr	r2, [pc, #260]	; (30004f0c <stm32__device___elabs+0xb18>)
30004e08:	4b46      	ldr	r3, [pc, #280]	; (30004f24 <stm32__device___elabs+0xb30>)
30004e0a:	601a      	str	r2, [r3, #0]
30004e0c:	4b3d      	ldr	r3, [pc, #244]	; (30004f04 <stm32__device___elabs+0xb10>)
30004e0e:	681b      	ldr	r3, [r3, #0]
30004e10:	4a45      	ldr	r2, [pc, #276]	; (30004f28 <stm32__device___elabs+0xb34>)
30004e12:	6053      	str	r3, [r2, #4]
30004e14:	4b44      	ldr	r3, [pc, #272]	; (30004f28 <stm32__device___elabs+0xb34>)
30004e16:	2280      	movs	r2, #128	; 0x80
30004e18:	811a      	strh	r2, [r3, #8]
30004e1a:	4a3c      	ldr	r2, [pc, #240]	; (30004f0c <stm32__device___elabs+0xb18>)
30004e1c:	4b42      	ldr	r3, [pc, #264]	; (30004f28 <stm32__device___elabs+0xb34>)
30004e1e:	601a      	str	r2, [r3, #0]
30004e20:	4b38      	ldr	r3, [pc, #224]	; (30004f04 <stm32__device___elabs+0xb10>)
30004e22:	681b      	ldr	r3, [r3, #0]
30004e24:	4a41      	ldr	r2, [pc, #260]	; (30004f2c <stm32__device___elabs+0xb38>)
30004e26:	6053      	str	r3, [r2, #4]
30004e28:	4b40      	ldr	r3, [pc, #256]	; (30004f2c <stm32__device___elabs+0xb38>)
30004e2a:	f44f 7280 	mov.w	r2, #256	; 0x100
30004e2e:	811a      	strh	r2, [r3, #8]
30004e30:	4a36      	ldr	r2, [pc, #216]	; (30004f0c <stm32__device___elabs+0xb18>)
30004e32:	4b3e      	ldr	r3, [pc, #248]	; (30004f2c <stm32__device___elabs+0xb38>)
30004e34:	601a      	str	r2, [r3, #0]
30004e36:	4b33      	ldr	r3, [pc, #204]	; (30004f04 <stm32__device___elabs+0xb10>)
30004e38:	681b      	ldr	r3, [r3, #0]
30004e3a:	4a3d      	ldr	r2, [pc, #244]	; (30004f30 <stm32__device___elabs+0xb3c>)
30004e3c:	6053      	str	r3, [r2, #4]
30004e3e:	4b3c      	ldr	r3, [pc, #240]	; (30004f30 <stm32__device___elabs+0xb3c>)
30004e40:	f44f 7200 	mov.w	r2, #512	; 0x200
30004e44:	811a      	strh	r2, [r3, #8]
30004e46:	4a31      	ldr	r2, [pc, #196]	; (30004f0c <stm32__device___elabs+0xb18>)
30004e48:	4b39      	ldr	r3, [pc, #228]	; (30004f30 <stm32__device___elabs+0xb3c>)
30004e4a:	601a      	str	r2, [r3, #0]
30004e4c:	4b2d      	ldr	r3, [pc, #180]	; (30004f04 <stm32__device___elabs+0xb10>)
30004e4e:	681b      	ldr	r3, [r3, #0]
30004e50:	4a38      	ldr	r2, [pc, #224]	; (30004f34 <stm32__device___elabs+0xb40>)
30004e52:	6053      	str	r3, [r2, #4]
30004e54:	4b37      	ldr	r3, [pc, #220]	; (30004f34 <stm32__device___elabs+0xb40>)
30004e56:	f44f 6280 	mov.w	r2, #1024	; 0x400
30004e5a:	811a      	strh	r2, [r3, #8]
30004e5c:	4a2b      	ldr	r2, [pc, #172]	; (30004f0c <stm32__device___elabs+0xb18>)
30004e5e:	4b35      	ldr	r3, [pc, #212]	; (30004f34 <stm32__device___elabs+0xb40>)
30004e60:	601a      	str	r2, [r3, #0]
30004e62:	4b28      	ldr	r3, [pc, #160]	; (30004f04 <stm32__device___elabs+0xb10>)
30004e64:	681b      	ldr	r3, [r3, #0]
30004e66:	4a34      	ldr	r2, [pc, #208]	; (30004f38 <stm32__device___elabs+0xb44>)
30004e68:	6053      	str	r3, [r2, #4]
30004e6a:	4b33      	ldr	r3, [pc, #204]	; (30004f38 <stm32__device___elabs+0xb44>)
30004e6c:	f44f 6200 	mov.w	r2, #2048	; 0x800
30004e70:	811a      	strh	r2, [r3, #8]
30004e72:	4a26      	ldr	r2, [pc, #152]	; (30004f0c <stm32__device___elabs+0xb18>)
30004e74:	4b30      	ldr	r3, [pc, #192]	; (30004f38 <stm32__device___elabs+0xb44>)
30004e76:	601a      	str	r2, [r3, #0]
30004e78:	4b22      	ldr	r3, [pc, #136]	; (30004f04 <stm32__device___elabs+0xb10>)
30004e7a:	681b      	ldr	r3, [r3, #0]
30004e7c:	4a2f      	ldr	r2, [pc, #188]	; (30004f3c <stm32__device___elabs+0xb48>)
30004e7e:	6053      	str	r3, [r2, #4]
30004e80:	4b2e      	ldr	r3, [pc, #184]	; (30004f3c <stm32__device___elabs+0xb48>)
30004e82:	f44f 5280 	mov.w	r2, #4096	; 0x1000
30004e86:	811a      	strh	r2, [r3, #8]
30004e88:	4a20      	ldr	r2, [pc, #128]	; (30004f0c <stm32__device___elabs+0xb18>)
30004e8a:	4b2c      	ldr	r3, [pc, #176]	; (30004f3c <stm32__device___elabs+0xb48>)
30004e8c:	601a      	str	r2, [r3, #0]
30004e8e:	4b1d      	ldr	r3, [pc, #116]	; (30004f04 <stm32__device___elabs+0xb10>)
30004e90:	681b      	ldr	r3, [r3, #0]
30004e92:	4a2b      	ldr	r2, [pc, #172]	; (30004f40 <stm32__device___elabs+0xb4c>)
30004e94:	6053      	str	r3, [r2, #4]
30004e96:	4b2a      	ldr	r3, [pc, #168]	; (30004f40 <stm32__device___elabs+0xb4c>)
30004e98:	f44f 5200 	mov.w	r2, #8192	; 0x2000
30004e9c:	811a      	strh	r2, [r3, #8]
30004e9e:	4a1b      	ldr	r2, [pc, #108]	; (30004f0c <stm32__device___elabs+0xb18>)
30004ea0:	4b27      	ldr	r3, [pc, #156]	; (30004f40 <stm32__device___elabs+0xb4c>)
30004ea2:	601a      	str	r2, [r3, #0]
30004ea4:	4b17      	ldr	r3, [pc, #92]	; (30004f04 <stm32__device___elabs+0xb10>)
30004ea6:	681b      	ldr	r3, [r3, #0]
30004ea8:	4a26      	ldr	r2, [pc, #152]	; (30004f44 <stm32__device___elabs+0xb50>)
30004eaa:	6053      	str	r3, [r2, #4]
30004eac:	4b25      	ldr	r3, [pc, #148]	; (30004f44 <stm32__device___elabs+0xb50>)
30004eae:	f44f 4280 	mov.w	r2, #16384	; 0x4000
30004eb2:	811a      	strh	r2, [r3, #8]
30004eb4:	4a15      	ldr	r2, [pc, #84]	; (30004f0c <stm32__device___elabs+0xb18>)
30004eb6:	4b23      	ldr	r3, [pc, #140]	; (30004f44 <stm32__device___elabs+0xb50>)
30004eb8:	601a      	str	r2, [r3, #0]
30004eba:	4b12      	ldr	r3, [pc, #72]	; (30004f04 <stm32__device___elabs+0xb10>)
30004ebc:	681b      	ldr	r3, [r3, #0]
30004ebe:	4a22      	ldr	r2, [pc, #136]	; (30004f48 <stm32__device___elabs+0xb54>)
30004ec0:	6053      	str	r3, [r2, #4]
30004ec2:	4b21      	ldr	r3, [pc, #132]	; (30004f48 <stm32__device___elabs+0xb54>)
30004ec4:	f44f 4200 	mov.w	r2, #32768	; 0x8000
30004ec8:	811a      	strh	r2, [r3, #8]
30004eca:	4a10      	ldr	r2, [pc, #64]	; (30004f0c <stm32__device___elabs+0xb18>)
30004ecc:	4b1e      	ldr	r3, [pc, #120]	; (30004f48 <stm32__device___elabs+0xb54>)
30004ece:	601a      	str	r2, [r3, #0]
30004ed0:	481e      	ldr	r0, [pc, #120]	; (30004f4c <stm32__device___elabs+0xb58>)
30004ed2:	f7ff fa49 	bl	30004368 <stm32__device__s_ns_periph>
30004ed6:	4603      	mov	r3, r0
30004ed8:	61fb      	str	r3, [r7, #28]
30004eda:	4a1d      	ldr	r2, [pc, #116]	; (30004f50 <stm32__device___elabs+0xb5c>)
30004edc:	f107 031c 	add.w	r3, r7, #28
30004ee0:	6013      	str	r3, [r2, #0]
30004ee2:	4b1b      	ldr	r3, [pc, #108]	; (30004f50 <stm32__device___elabs+0xb5c>)
30004ee4:	681b      	ldr	r3, [r3, #0]
30004ee6:	681b      	ldr	r3, [r3, #0]
30004ee8:	461a      	mov	r2, r3
30004eea:	4b1a      	ldr	r3, [pc, #104]	; (30004f54 <stm32__device___elabs+0xb60>)
30004eec:	601a      	str	r2, [r3, #0]
30004eee:	4b18      	ldr	r3, [pc, #96]	; (30004f50 <stm32__device___elabs+0xb5c>)
30004ef0:	681b      	ldr	r3, [r3, #0]
30004ef2:	681b      	ldr	r3, [r3, #0]
30004ef4:	f003 0303 	and.w	r3, r3, #3
30004ef8:	2b00      	cmp	r3, #0
30004efa:	d02f      	beq.n	30004f5c <stm32__device___elabs+0xb68>
30004efc:	2155      	movs	r1, #85	; 0x55
30004efe:	4816      	ldr	r0, [pc, #88]	; (30004f58 <stm32__device___elabs+0xb64>)
30004f00:	f004 fa46 	bl	30009390 <__gnat_last_chance_handler>
30004f04:	3000c344 	.word	0x3000c344
30004f08:	3000c348 	.word	0x3000c348
30004f0c:	3000b76c 	.word	0x3000b76c
30004f10:	3000c354 	.word	0x3000c354
30004f14:	3000c360 	.word	0x3000c360
30004f18:	3000c36c 	.word	0x3000c36c
30004f1c:	3000c378 	.word	0x3000c378
30004f20:	3000c384 	.word	0x3000c384
30004f24:	3000c390 	.word	0x3000c390
30004f28:	3000c39c 	.word	0x3000c39c
30004f2c:	3000c3a8 	.word	0x3000c3a8
30004f30:	3000c3b4 	.word	0x3000c3b4
30004f34:	3000c3c0 	.word	0x3000c3c0
30004f38:	3000c3cc 	.word	0x3000c3cc
30004f3c:	3000c3d8 	.word	0x3000c3d8
30004f40:	3000c3e4 	.word	0x3000c3e4
30004f44:	3000c3f0 	.word	0x3000c3f0
30004f48:	3000c3fc 	.word	0x3000c3fc
30004f4c:	42021800 	.word	0x42021800
30004f50:	3000c408 	.word	0x3000c408
30004f54:	3000c40c 	.word	0x3000c40c
30004f58:	3000b5ac 	.word	0x3000b5ac
30004f5c:	4b60      	ldr	r3, [pc, #384]	; (300050e0 <stm32__device___elabs+0xcec>)
30004f5e:	681b      	ldr	r3, [r3, #0]
30004f60:	4a60      	ldr	r2, [pc, #384]	; (300050e4 <stm32__device___elabs+0xcf0>)
30004f62:	6053      	str	r3, [r2, #4]
30004f64:	4b5f      	ldr	r3, [pc, #380]	; (300050e4 <stm32__device___elabs+0xcf0>)
30004f66:	2201      	movs	r2, #1
30004f68:	811a      	strh	r2, [r3, #8]
30004f6a:	4a5f      	ldr	r2, [pc, #380]	; (300050e8 <stm32__device___elabs+0xcf4>)
30004f6c:	4b5d      	ldr	r3, [pc, #372]	; (300050e4 <stm32__device___elabs+0xcf0>)
30004f6e:	601a      	str	r2, [r3, #0]
30004f70:	4b5b      	ldr	r3, [pc, #364]	; (300050e0 <stm32__device___elabs+0xcec>)
30004f72:	681b      	ldr	r3, [r3, #0]
30004f74:	4a5d      	ldr	r2, [pc, #372]	; (300050ec <stm32__device___elabs+0xcf8>)
30004f76:	6053      	str	r3, [r2, #4]
30004f78:	4b5c      	ldr	r3, [pc, #368]	; (300050ec <stm32__device___elabs+0xcf8>)
30004f7a:	2202      	movs	r2, #2
30004f7c:	811a      	strh	r2, [r3, #8]
30004f7e:	4a5a      	ldr	r2, [pc, #360]	; (300050e8 <stm32__device___elabs+0xcf4>)
30004f80:	4b5a      	ldr	r3, [pc, #360]	; (300050ec <stm32__device___elabs+0xcf8>)
30004f82:	601a      	str	r2, [r3, #0]
30004f84:	4b56      	ldr	r3, [pc, #344]	; (300050e0 <stm32__device___elabs+0xcec>)
30004f86:	681b      	ldr	r3, [r3, #0]
30004f88:	4a59      	ldr	r2, [pc, #356]	; (300050f0 <stm32__device___elabs+0xcfc>)
30004f8a:	6053      	str	r3, [r2, #4]
30004f8c:	4b58      	ldr	r3, [pc, #352]	; (300050f0 <stm32__device___elabs+0xcfc>)
30004f8e:	2204      	movs	r2, #4
30004f90:	811a      	strh	r2, [r3, #8]
30004f92:	4a55      	ldr	r2, [pc, #340]	; (300050e8 <stm32__device___elabs+0xcf4>)
30004f94:	4b56      	ldr	r3, [pc, #344]	; (300050f0 <stm32__device___elabs+0xcfc>)
30004f96:	601a      	str	r2, [r3, #0]
30004f98:	4b51      	ldr	r3, [pc, #324]	; (300050e0 <stm32__device___elabs+0xcec>)
30004f9a:	681b      	ldr	r3, [r3, #0]
30004f9c:	4a55      	ldr	r2, [pc, #340]	; (300050f4 <stm32__device___elabs+0xd00>)
30004f9e:	6053      	str	r3, [r2, #4]
30004fa0:	4b54      	ldr	r3, [pc, #336]	; (300050f4 <stm32__device___elabs+0xd00>)
30004fa2:	2208      	movs	r2, #8
30004fa4:	811a      	strh	r2, [r3, #8]
30004fa6:	4a50      	ldr	r2, [pc, #320]	; (300050e8 <stm32__device___elabs+0xcf4>)
30004fa8:	4b52      	ldr	r3, [pc, #328]	; (300050f4 <stm32__device___elabs+0xd00>)
30004faa:	601a      	str	r2, [r3, #0]
30004fac:	4b4c      	ldr	r3, [pc, #304]	; (300050e0 <stm32__device___elabs+0xcec>)
30004fae:	681b      	ldr	r3, [r3, #0]
30004fb0:	4a51      	ldr	r2, [pc, #324]	; (300050f8 <stm32__device___elabs+0xd04>)
30004fb2:	6053      	str	r3, [r2, #4]
30004fb4:	4b50      	ldr	r3, [pc, #320]	; (300050f8 <stm32__device___elabs+0xd04>)
30004fb6:	2210      	movs	r2, #16
30004fb8:	811a      	strh	r2, [r3, #8]
30004fba:	4a4b      	ldr	r2, [pc, #300]	; (300050e8 <stm32__device___elabs+0xcf4>)
30004fbc:	4b4e      	ldr	r3, [pc, #312]	; (300050f8 <stm32__device___elabs+0xd04>)
30004fbe:	601a      	str	r2, [r3, #0]
30004fc0:	4b47      	ldr	r3, [pc, #284]	; (300050e0 <stm32__device___elabs+0xcec>)
30004fc2:	681b      	ldr	r3, [r3, #0]
30004fc4:	4a4d      	ldr	r2, [pc, #308]	; (300050fc <stm32__device___elabs+0xd08>)
30004fc6:	6053      	str	r3, [r2, #4]
30004fc8:	4b4c      	ldr	r3, [pc, #304]	; (300050fc <stm32__device___elabs+0xd08>)
30004fca:	2220      	movs	r2, #32
30004fcc:	811a      	strh	r2, [r3, #8]
30004fce:	4a46      	ldr	r2, [pc, #280]	; (300050e8 <stm32__device___elabs+0xcf4>)
30004fd0:	4b4a      	ldr	r3, [pc, #296]	; (300050fc <stm32__device___elabs+0xd08>)
30004fd2:	601a      	str	r2, [r3, #0]
30004fd4:	4b42      	ldr	r3, [pc, #264]	; (300050e0 <stm32__device___elabs+0xcec>)
30004fd6:	681b      	ldr	r3, [r3, #0]
30004fd8:	4a49      	ldr	r2, [pc, #292]	; (30005100 <stm32__device___elabs+0xd0c>)
30004fda:	6053      	str	r3, [r2, #4]
30004fdc:	4b48      	ldr	r3, [pc, #288]	; (30005100 <stm32__device___elabs+0xd0c>)
30004fde:	2240      	movs	r2, #64	; 0x40
30004fe0:	811a      	strh	r2, [r3, #8]
30004fe2:	4a41      	ldr	r2, [pc, #260]	; (300050e8 <stm32__device___elabs+0xcf4>)
30004fe4:	4b46      	ldr	r3, [pc, #280]	; (30005100 <stm32__device___elabs+0xd0c>)
30004fe6:	601a      	str	r2, [r3, #0]
30004fe8:	4b3d      	ldr	r3, [pc, #244]	; (300050e0 <stm32__device___elabs+0xcec>)
30004fea:	681b      	ldr	r3, [r3, #0]
30004fec:	4a45      	ldr	r2, [pc, #276]	; (30005104 <stm32__device___elabs+0xd10>)
30004fee:	6053      	str	r3, [r2, #4]
30004ff0:	4b44      	ldr	r3, [pc, #272]	; (30005104 <stm32__device___elabs+0xd10>)
30004ff2:	2280      	movs	r2, #128	; 0x80
30004ff4:	811a      	strh	r2, [r3, #8]
30004ff6:	4a3c      	ldr	r2, [pc, #240]	; (300050e8 <stm32__device___elabs+0xcf4>)
30004ff8:	4b42      	ldr	r3, [pc, #264]	; (30005104 <stm32__device___elabs+0xd10>)
30004ffa:	601a      	str	r2, [r3, #0]
30004ffc:	4b38      	ldr	r3, [pc, #224]	; (300050e0 <stm32__device___elabs+0xcec>)
30004ffe:	681b      	ldr	r3, [r3, #0]
30005000:	4a41      	ldr	r2, [pc, #260]	; (30005108 <stm32__device___elabs+0xd14>)
30005002:	6053      	str	r3, [r2, #4]
30005004:	4b40      	ldr	r3, [pc, #256]	; (30005108 <stm32__device___elabs+0xd14>)
30005006:	f44f 7280 	mov.w	r2, #256	; 0x100
3000500a:	811a      	strh	r2, [r3, #8]
3000500c:	4a36      	ldr	r2, [pc, #216]	; (300050e8 <stm32__device___elabs+0xcf4>)
3000500e:	4b3e      	ldr	r3, [pc, #248]	; (30005108 <stm32__device___elabs+0xd14>)
30005010:	601a      	str	r2, [r3, #0]
30005012:	4b33      	ldr	r3, [pc, #204]	; (300050e0 <stm32__device___elabs+0xcec>)
30005014:	681b      	ldr	r3, [r3, #0]
30005016:	4a3d      	ldr	r2, [pc, #244]	; (3000510c <stm32__device___elabs+0xd18>)
30005018:	6053      	str	r3, [r2, #4]
3000501a:	4b3c      	ldr	r3, [pc, #240]	; (3000510c <stm32__device___elabs+0xd18>)
3000501c:	f44f 7200 	mov.w	r2, #512	; 0x200
30005020:	811a      	strh	r2, [r3, #8]
30005022:	4a31      	ldr	r2, [pc, #196]	; (300050e8 <stm32__device___elabs+0xcf4>)
30005024:	4b39      	ldr	r3, [pc, #228]	; (3000510c <stm32__device___elabs+0xd18>)
30005026:	601a      	str	r2, [r3, #0]
30005028:	4b2d      	ldr	r3, [pc, #180]	; (300050e0 <stm32__device___elabs+0xcec>)
3000502a:	681b      	ldr	r3, [r3, #0]
3000502c:	4a38      	ldr	r2, [pc, #224]	; (30005110 <stm32__device___elabs+0xd1c>)
3000502e:	6053      	str	r3, [r2, #4]
30005030:	4b37      	ldr	r3, [pc, #220]	; (30005110 <stm32__device___elabs+0xd1c>)
30005032:	f44f 6280 	mov.w	r2, #1024	; 0x400
30005036:	811a      	strh	r2, [r3, #8]
30005038:	4a2b      	ldr	r2, [pc, #172]	; (300050e8 <stm32__device___elabs+0xcf4>)
3000503a:	4b35      	ldr	r3, [pc, #212]	; (30005110 <stm32__device___elabs+0xd1c>)
3000503c:	601a      	str	r2, [r3, #0]
3000503e:	4b28      	ldr	r3, [pc, #160]	; (300050e0 <stm32__device___elabs+0xcec>)
30005040:	681b      	ldr	r3, [r3, #0]
30005042:	4a34      	ldr	r2, [pc, #208]	; (30005114 <stm32__device___elabs+0xd20>)
30005044:	6053      	str	r3, [r2, #4]
30005046:	4b33      	ldr	r3, [pc, #204]	; (30005114 <stm32__device___elabs+0xd20>)
30005048:	f44f 6200 	mov.w	r2, #2048	; 0x800
3000504c:	811a      	strh	r2, [r3, #8]
3000504e:	4a26      	ldr	r2, [pc, #152]	; (300050e8 <stm32__device___elabs+0xcf4>)
30005050:	4b30      	ldr	r3, [pc, #192]	; (30005114 <stm32__device___elabs+0xd20>)
30005052:	601a      	str	r2, [r3, #0]
30005054:	4b22      	ldr	r3, [pc, #136]	; (300050e0 <stm32__device___elabs+0xcec>)
30005056:	681b      	ldr	r3, [r3, #0]
30005058:	4a2f      	ldr	r2, [pc, #188]	; (30005118 <stm32__device___elabs+0xd24>)
3000505a:	6053      	str	r3, [r2, #4]
3000505c:	4b2e      	ldr	r3, [pc, #184]	; (30005118 <stm32__device___elabs+0xd24>)
3000505e:	f44f 5280 	mov.w	r2, #4096	; 0x1000
30005062:	811a      	strh	r2, [r3, #8]
30005064:	4a20      	ldr	r2, [pc, #128]	; (300050e8 <stm32__device___elabs+0xcf4>)
30005066:	4b2c      	ldr	r3, [pc, #176]	; (30005118 <stm32__device___elabs+0xd24>)
30005068:	601a      	str	r2, [r3, #0]
3000506a:	4b1d      	ldr	r3, [pc, #116]	; (300050e0 <stm32__device___elabs+0xcec>)
3000506c:	681b      	ldr	r3, [r3, #0]
3000506e:	4a2b      	ldr	r2, [pc, #172]	; (3000511c <stm32__device___elabs+0xd28>)
30005070:	6053      	str	r3, [r2, #4]
30005072:	4b2a      	ldr	r3, [pc, #168]	; (3000511c <stm32__device___elabs+0xd28>)
30005074:	f44f 5200 	mov.w	r2, #8192	; 0x2000
30005078:	811a      	strh	r2, [r3, #8]
3000507a:	4a1b      	ldr	r2, [pc, #108]	; (300050e8 <stm32__device___elabs+0xcf4>)
3000507c:	4b27      	ldr	r3, [pc, #156]	; (3000511c <stm32__device___elabs+0xd28>)
3000507e:	601a      	str	r2, [r3, #0]
30005080:	4b17      	ldr	r3, [pc, #92]	; (300050e0 <stm32__device___elabs+0xcec>)
30005082:	681b      	ldr	r3, [r3, #0]
30005084:	4a26      	ldr	r2, [pc, #152]	; (30005120 <stm32__device___elabs+0xd2c>)
30005086:	6053      	str	r3, [r2, #4]
30005088:	4b25      	ldr	r3, [pc, #148]	; (30005120 <stm32__device___elabs+0xd2c>)
3000508a:	f44f 4280 	mov.w	r2, #16384	; 0x4000
3000508e:	811a      	strh	r2, [r3, #8]
30005090:	4a15      	ldr	r2, [pc, #84]	; (300050e8 <stm32__device___elabs+0xcf4>)
30005092:	4b23      	ldr	r3, [pc, #140]	; (30005120 <stm32__device___elabs+0xd2c>)
30005094:	601a      	str	r2, [r3, #0]
30005096:	4b12      	ldr	r3, [pc, #72]	; (300050e0 <stm32__device___elabs+0xcec>)
30005098:	681b      	ldr	r3, [r3, #0]
3000509a:	4a22      	ldr	r2, [pc, #136]	; (30005124 <stm32__device___elabs+0xd30>)
3000509c:	6053      	str	r3, [r2, #4]
3000509e:	4b21      	ldr	r3, [pc, #132]	; (30005124 <stm32__device___elabs+0xd30>)
300050a0:	f44f 4200 	mov.w	r2, #32768	; 0x8000
300050a4:	811a      	strh	r2, [r3, #8]
300050a6:	4a10      	ldr	r2, [pc, #64]	; (300050e8 <stm32__device___elabs+0xcf4>)
300050a8:	4b1e      	ldr	r3, [pc, #120]	; (30005124 <stm32__device___elabs+0xd30>)
300050aa:	601a      	str	r2, [r3, #0]
300050ac:	481e      	ldr	r0, [pc, #120]	; (30005128 <stm32__device___elabs+0xd34>)
300050ae:	f7ff f95b 	bl	30004368 <stm32__device__s_ns_periph>
300050b2:	4603      	mov	r3, r0
300050b4:	623b      	str	r3, [r7, #32]
300050b6:	4a1d      	ldr	r2, [pc, #116]	; (3000512c <stm32__device___elabs+0xd38>)
300050b8:	f107 0320 	add.w	r3, r7, #32
300050bc:	6013      	str	r3, [r2, #0]
300050be:	4b1b      	ldr	r3, [pc, #108]	; (3000512c <stm32__device___elabs+0xd38>)
300050c0:	681b      	ldr	r3, [r3, #0]
300050c2:	681b      	ldr	r3, [r3, #0]
300050c4:	461a      	mov	r2, r3
300050c6:	4b1a      	ldr	r3, [pc, #104]	; (30005130 <stm32__device___elabs+0xd3c>)
300050c8:	601a      	str	r2, [r3, #0]
300050ca:	4b18      	ldr	r3, [pc, #96]	; (3000512c <stm32__device___elabs+0xd38>)
300050cc:	681b      	ldr	r3, [r3, #0]
300050ce:	681b      	ldr	r3, [r3, #0]
300050d0:	f003 0303 	and.w	r3, r3, #3
300050d4:	2b00      	cmp	r3, #0
300050d6:	d02f      	beq.n	30005138 <stm32__device___elabs+0xd44>
300050d8:	2156      	movs	r1, #86	; 0x56
300050da:	4816      	ldr	r0, [pc, #88]	; (30005134 <stm32__device___elabs+0xd40>)
300050dc:	f004 f958 	bl	30009390 <__gnat_last_chance_handler>
300050e0:	3000c40c 	.word	0x3000c40c
300050e4:	3000c410 	.word	0x3000c410
300050e8:	3000b76c 	.word	0x3000b76c
300050ec:	3000c41c 	.word	0x3000c41c
300050f0:	3000c428 	.word	0x3000c428
300050f4:	3000c434 	.word	0x3000c434
300050f8:	3000c440 	.word	0x3000c440
300050fc:	3000c44c 	.word	0x3000c44c
30005100:	3000c458 	.word	0x3000c458
30005104:	3000c464 	.word	0x3000c464
30005108:	3000c470 	.word	0x3000c470
3000510c:	3000c47c 	.word	0x3000c47c
30005110:	3000c488 	.word	0x3000c488
30005114:	3000c494 	.word	0x3000c494
30005118:	3000c4a0 	.word	0x3000c4a0
3000511c:	3000c4ac 	.word	0x3000c4ac
30005120:	3000c4b8 	.word	0x3000c4b8
30005124:	3000c4c4 	.word	0x3000c4c4
30005128:	42021c00 	.word	0x42021c00
3000512c:	3000c4d0 	.word	0x3000c4d0
30005130:	3000c4d4 	.word	0x3000c4d4
30005134:	3000b5ac 	.word	0x3000b5ac
30005138:	4b88      	ldr	r3, [pc, #544]	; (3000535c <stm32__device___elabs+0xf68>)
3000513a:	681b      	ldr	r3, [r3, #0]
3000513c:	4a88      	ldr	r2, [pc, #544]	; (30005360 <stm32__device___elabs+0xf6c>)
3000513e:	6053      	str	r3, [r2, #4]
30005140:	4b87      	ldr	r3, [pc, #540]	; (30005360 <stm32__device___elabs+0xf6c>)
30005142:	2201      	movs	r2, #1
30005144:	811a      	strh	r2, [r3, #8]
30005146:	4a87      	ldr	r2, [pc, #540]	; (30005364 <stm32__device___elabs+0xf70>)
30005148:	4b85      	ldr	r3, [pc, #532]	; (30005360 <stm32__device___elabs+0xf6c>)
3000514a:	601a      	str	r2, [r3, #0]
3000514c:	4b83      	ldr	r3, [pc, #524]	; (3000535c <stm32__device___elabs+0xf68>)
3000514e:	681b      	ldr	r3, [r3, #0]
30005150:	4a85      	ldr	r2, [pc, #532]	; (30005368 <stm32__device___elabs+0xf74>)
30005152:	6053      	str	r3, [r2, #4]
30005154:	4b84      	ldr	r3, [pc, #528]	; (30005368 <stm32__device___elabs+0xf74>)
30005156:	2202      	movs	r2, #2
30005158:	811a      	strh	r2, [r3, #8]
3000515a:	4a82      	ldr	r2, [pc, #520]	; (30005364 <stm32__device___elabs+0xf70>)
3000515c:	4b82      	ldr	r3, [pc, #520]	; (30005368 <stm32__device___elabs+0xf74>)
3000515e:	601a      	str	r2, [r3, #0]
30005160:	4b7e      	ldr	r3, [pc, #504]	; (3000535c <stm32__device___elabs+0xf68>)
30005162:	681b      	ldr	r3, [r3, #0]
30005164:	4a81      	ldr	r2, [pc, #516]	; (3000536c <stm32__device___elabs+0xf78>)
30005166:	6053      	str	r3, [r2, #4]
30005168:	4b80      	ldr	r3, [pc, #512]	; (3000536c <stm32__device___elabs+0xf78>)
3000516a:	2204      	movs	r2, #4
3000516c:	811a      	strh	r2, [r3, #8]
3000516e:	4a7d      	ldr	r2, [pc, #500]	; (30005364 <stm32__device___elabs+0xf70>)
30005170:	4b7e      	ldr	r3, [pc, #504]	; (3000536c <stm32__device___elabs+0xf78>)
30005172:	601a      	str	r2, [r3, #0]
30005174:	4b79      	ldr	r3, [pc, #484]	; (3000535c <stm32__device___elabs+0xf68>)
30005176:	681b      	ldr	r3, [r3, #0]
30005178:	4a7d      	ldr	r2, [pc, #500]	; (30005370 <stm32__device___elabs+0xf7c>)
3000517a:	6053      	str	r3, [r2, #4]
3000517c:	4b7c      	ldr	r3, [pc, #496]	; (30005370 <stm32__device___elabs+0xf7c>)
3000517e:	2208      	movs	r2, #8
30005180:	811a      	strh	r2, [r3, #8]
30005182:	4a78      	ldr	r2, [pc, #480]	; (30005364 <stm32__device___elabs+0xf70>)
30005184:	4b7a      	ldr	r3, [pc, #488]	; (30005370 <stm32__device___elabs+0xf7c>)
30005186:	601a      	str	r2, [r3, #0]
30005188:	4b74      	ldr	r3, [pc, #464]	; (3000535c <stm32__device___elabs+0xf68>)
3000518a:	681b      	ldr	r3, [r3, #0]
3000518c:	4a79      	ldr	r2, [pc, #484]	; (30005374 <stm32__device___elabs+0xf80>)
3000518e:	6053      	str	r3, [r2, #4]
30005190:	4b78      	ldr	r3, [pc, #480]	; (30005374 <stm32__device___elabs+0xf80>)
30005192:	2210      	movs	r2, #16
30005194:	811a      	strh	r2, [r3, #8]
30005196:	4a73      	ldr	r2, [pc, #460]	; (30005364 <stm32__device___elabs+0xf70>)
30005198:	4b76      	ldr	r3, [pc, #472]	; (30005374 <stm32__device___elabs+0xf80>)
3000519a:	601a      	str	r2, [r3, #0]
3000519c:	4b6f      	ldr	r3, [pc, #444]	; (3000535c <stm32__device___elabs+0xf68>)
3000519e:	681b      	ldr	r3, [r3, #0]
300051a0:	4a75      	ldr	r2, [pc, #468]	; (30005378 <stm32__device___elabs+0xf84>)
300051a2:	6053      	str	r3, [r2, #4]
300051a4:	4b74      	ldr	r3, [pc, #464]	; (30005378 <stm32__device___elabs+0xf84>)
300051a6:	2220      	movs	r2, #32
300051a8:	811a      	strh	r2, [r3, #8]
300051aa:	4a6e      	ldr	r2, [pc, #440]	; (30005364 <stm32__device___elabs+0xf70>)
300051ac:	4b72      	ldr	r3, [pc, #456]	; (30005378 <stm32__device___elabs+0xf84>)
300051ae:	601a      	str	r2, [r3, #0]
300051b0:	4b6a      	ldr	r3, [pc, #424]	; (3000535c <stm32__device___elabs+0xf68>)
300051b2:	681b      	ldr	r3, [r3, #0]
300051b4:	4a71      	ldr	r2, [pc, #452]	; (3000537c <stm32__device___elabs+0xf88>)
300051b6:	6053      	str	r3, [r2, #4]
300051b8:	4b70      	ldr	r3, [pc, #448]	; (3000537c <stm32__device___elabs+0xf88>)
300051ba:	2240      	movs	r2, #64	; 0x40
300051bc:	811a      	strh	r2, [r3, #8]
300051be:	4a69      	ldr	r2, [pc, #420]	; (30005364 <stm32__device___elabs+0xf70>)
300051c0:	4b6e      	ldr	r3, [pc, #440]	; (3000537c <stm32__device___elabs+0xf88>)
300051c2:	601a      	str	r2, [r3, #0]
300051c4:	4b65      	ldr	r3, [pc, #404]	; (3000535c <stm32__device___elabs+0xf68>)
300051c6:	681b      	ldr	r3, [r3, #0]
300051c8:	4a6d      	ldr	r2, [pc, #436]	; (30005380 <stm32__device___elabs+0xf8c>)
300051ca:	6053      	str	r3, [r2, #4]
300051cc:	4b6c      	ldr	r3, [pc, #432]	; (30005380 <stm32__device___elabs+0xf8c>)
300051ce:	2280      	movs	r2, #128	; 0x80
300051d0:	811a      	strh	r2, [r3, #8]
300051d2:	4a64      	ldr	r2, [pc, #400]	; (30005364 <stm32__device___elabs+0xf70>)
300051d4:	4b6a      	ldr	r3, [pc, #424]	; (30005380 <stm32__device___elabs+0xf8c>)
300051d6:	601a      	str	r2, [r3, #0]
300051d8:	4b60      	ldr	r3, [pc, #384]	; (3000535c <stm32__device___elabs+0xf68>)
300051da:	681b      	ldr	r3, [r3, #0]
300051dc:	4a69      	ldr	r2, [pc, #420]	; (30005384 <stm32__device___elabs+0xf90>)
300051de:	6053      	str	r3, [r2, #4]
300051e0:	4b68      	ldr	r3, [pc, #416]	; (30005384 <stm32__device___elabs+0xf90>)
300051e2:	f44f 7280 	mov.w	r2, #256	; 0x100
300051e6:	811a      	strh	r2, [r3, #8]
300051e8:	4a5e      	ldr	r2, [pc, #376]	; (30005364 <stm32__device___elabs+0xf70>)
300051ea:	4b66      	ldr	r3, [pc, #408]	; (30005384 <stm32__device___elabs+0xf90>)
300051ec:	601a      	str	r2, [r3, #0]
300051ee:	4b5b      	ldr	r3, [pc, #364]	; (3000535c <stm32__device___elabs+0xf68>)
300051f0:	681b      	ldr	r3, [r3, #0]
300051f2:	4a65      	ldr	r2, [pc, #404]	; (30005388 <stm32__device___elabs+0xf94>)
300051f4:	6053      	str	r3, [r2, #4]
300051f6:	4b64      	ldr	r3, [pc, #400]	; (30005388 <stm32__device___elabs+0xf94>)
300051f8:	f44f 7200 	mov.w	r2, #512	; 0x200
300051fc:	811a      	strh	r2, [r3, #8]
300051fe:	4a59      	ldr	r2, [pc, #356]	; (30005364 <stm32__device___elabs+0xf70>)
30005200:	4b61      	ldr	r3, [pc, #388]	; (30005388 <stm32__device___elabs+0xf94>)
30005202:	601a      	str	r2, [r3, #0]
30005204:	4b55      	ldr	r3, [pc, #340]	; (3000535c <stm32__device___elabs+0xf68>)
30005206:	681b      	ldr	r3, [r3, #0]
30005208:	4a60      	ldr	r2, [pc, #384]	; (3000538c <stm32__device___elabs+0xf98>)
3000520a:	6053      	str	r3, [r2, #4]
3000520c:	4b5f      	ldr	r3, [pc, #380]	; (3000538c <stm32__device___elabs+0xf98>)
3000520e:	f44f 6280 	mov.w	r2, #1024	; 0x400
30005212:	811a      	strh	r2, [r3, #8]
30005214:	4a53      	ldr	r2, [pc, #332]	; (30005364 <stm32__device___elabs+0xf70>)
30005216:	4b5d      	ldr	r3, [pc, #372]	; (3000538c <stm32__device___elabs+0xf98>)
30005218:	601a      	str	r2, [r3, #0]
3000521a:	4b50      	ldr	r3, [pc, #320]	; (3000535c <stm32__device___elabs+0xf68>)
3000521c:	681b      	ldr	r3, [r3, #0]
3000521e:	4a5c      	ldr	r2, [pc, #368]	; (30005390 <stm32__device___elabs+0xf9c>)
30005220:	6053      	str	r3, [r2, #4]
30005222:	4b5b      	ldr	r3, [pc, #364]	; (30005390 <stm32__device___elabs+0xf9c>)
30005224:	f44f 6200 	mov.w	r2, #2048	; 0x800
30005228:	811a      	strh	r2, [r3, #8]
3000522a:	4a4e      	ldr	r2, [pc, #312]	; (30005364 <stm32__device___elabs+0xf70>)
3000522c:	4b58      	ldr	r3, [pc, #352]	; (30005390 <stm32__device___elabs+0xf9c>)
3000522e:	601a      	str	r2, [r3, #0]
30005230:	4b4a      	ldr	r3, [pc, #296]	; (3000535c <stm32__device___elabs+0xf68>)
30005232:	681b      	ldr	r3, [r3, #0]
30005234:	4a57      	ldr	r2, [pc, #348]	; (30005394 <stm32__device___elabs+0xfa0>)
30005236:	6053      	str	r3, [r2, #4]
30005238:	4b56      	ldr	r3, [pc, #344]	; (30005394 <stm32__device___elabs+0xfa0>)
3000523a:	f44f 5280 	mov.w	r2, #4096	; 0x1000
3000523e:	811a      	strh	r2, [r3, #8]
30005240:	4a48      	ldr	r2, [pc, #288]	; (30005364 <stm32__device___elabs+0xf70>)
30005242:	4b54      	ldr	r3, [pc, #336]	; (30005394 <stm32__device___elabs+0xfa0>)
30005244:	601a      	str	r2, [r3, #0]
30005246:	4b45      	ldr	r3, [pc, #276]	; (3000535c <stm32__device___elabs+0xf68>)
30005248:	681b      	ldr	r3, [r3, #0]
3000524a:	4a53      	ldr	r2, [pc, #332]	; (30005398 <stm32__device___elabs+0xfa4>)
3000524c:	6053      	str	r3, [r2, #4]
3000524e:	4b52      	ldr	r3, [pc, #328]	; (30005398 <stm32__device___elabs+0xfa4>)
30005250:	f44f 5200 	mov.w	r2, #8192	; 0x2000
30005254:	811a      	strh	r2, [r3, #8]
30005256:	4a43      	ldr	r2, [pc, #268]	; (30005364 <stm32__device___elabs+0xf70>)
30005258:	4b4f      	ldr	r3, [pc, #316]	; (30005398 <stm32__device___elabs+0xfa4>)
3000525a:	601a      	str	r2, [r3, #0]
3000525c:	4b3f      	ldr	r3, [pc, #252]	; (3000535c <stm32__device___elabs+0xf68>)
3000525e:	681b      	ldr	r3, [r3, #0]
30005260:	4a4e      	ldr	r2, [pc, #312]	; (3000539c <stm32__device___elabs+0xfa8>)
30005262:	6053      	str	r3, [r2, #4]
30005264:	4b4d      	ldr	r3, [pc, #308]	; (3000539c <stm32__device___elabs+0xfa8>)
30005266:	f44f 4280 	mov.w	r2, #16384	; 0x4000
3000526a:	811a      	strh	r2, [r3, #8]
3000526c:	4a3d      	ldr	r2, [pc, #244]	; (30005364 <stm32__device___elabs+0xf70>)
3000526e:	4b4b      	ldr	r3, [pc, #300]	; (3000539c <stm32__device___elabs+0xfa8>)
30005270:	601a      	str	r2, [r3, #0]
30005272:	4b3a      	ldr	r3, [pc, #232]	; (3000535c <stm32__device___elabs+0xf68>)
30005274:	681b      	ldr	r3, [r3, #0]
30005276:	4a4a      	ldr	r2, [pc, #296]	; (300053a0 <stm32__device___elabs+0xfac>)
30005278:	6053      	str	r3, [r2, #4]
3000527a:	4b49      	ldr	r3, [pc, #292]	; (300053a0 <stm32__device___elabs+0xfac>)
3000527c:	f44f 4200 	mov.w	r2, #32768	; 0x8000
30005280:	811a      	strh	r2, [r3, #8]
30005282:	4a38      	ldr	r2, [pc, #224]	; (30005364 <stm32__device___elabs+0xf70>)
30005284:	4b46      	ldr	r3, [pc, #280]	; (300053a0 <stm32__device___elabs+0xfac>)
30005286:	601a      	str	r2, [r3, #0]
30005288:	4846      	ldr	r0, [pc, #280]	; (300053a4 <stm32__device___elabs+0xfb0>)
3000528a:	f7ff f86d 	bl	30004368 <stm32__device__s_ns_periph>
3000528e:	4603      	mov	r3, r0
30005290:	627b      	str	r3, [r7, #36]	; 0x24
30005292:	4a45      	ldr	r2, [pc, #276]	; (300053a8 <stm32__device___elabs+0xfb4>)
30005294:	f107 0324 	add.w	r3, r7, #36	; 0x24
30005298:	6013      	str	r3, [r2, #0]
3000529a:	4b43      	ldr	r3, [pc, #268]	; (300053a8 <stm32__device___elabs+0xfb4>)
3000529c:	681b      	ldr	r3, [r3, #0]
3000529e:	681b      	ldr	r3, [r3, #0]
300052a0:	461a      	mov	r2, r3
300052a2:	4b42      	ldr	r3, [pc, #264]	; (300053ac <stm32__device___elabs+0xfb8>)
300052a4:	601a      	str	r2, [r3, #0]
300052a6:	4b40      	ldr	r3, [pc, #256]	; (300053a8 <stm32__device___elabs+0xfb4>)
300052a8:	681b      	ldr	r3, [r3, #0]
300052aa:	681b      	ldr	r3, [r3, #0]
300052ac:	f003 0303 	and.w	r3, r3, #3
300052b0:	2b00      	cmp	r3, #0
300052b2:	d004      	beq.n	300052be <stm32__device___elabs+0xeca>
300052b4:	f44f 7183 	mov.w	r1, #262	; 0x106
300052b8:	483d      	ldr	r0, [pc, #244]	; (300053b0 <stm32__device___elabs+0xfbc>)
300052ba:	f004 f869 	bl	30009390 <__gnat_last_chance_handler>
300052be:	4b3b      	ldr	r3, [pc, #236]	; (300053ac <stm32__device___elabs+0xfb8>)
300052c0:	681b      	ldr	r3, [r3, #0]
300052c2:	2201      	movs	r2, #1
300052c4:	4619      	mov	r1, r3
300052c6:	483b      	ldr	r0, [pc, #236]	; (300053b4 <stm32__device___elabs+0xfc0>)
300052c8:	f001 f93c 	bl	30006544 <stm32__spi__spi_portIP>
300052cc:	483a      	ldr	r0, [pc, #232]	; (300053b8 <stm32__device___elabs+0xfc4>)
300052ce:	f7ff f84b 	bl	30004368 <stm32__device__s_ns_periph>
300052d2:	4603      	mov	r3, r0
300052d4:	62bb      	str	r3, [r7, #40]	; 0x28
300052d6:	4a39      	ldr	r2, [pc, #228]	; (300053bc <stm32__device___elabs+0xfc8>)
300052d8:	f107 0328 	add.w	r3, r7, #40	; 0x28
300052dc:	6013      	str	r3, [r2, #0]
300052de:	4b37      	ldr	r3, [pc, #220]	; (300053bc <stm32__device___elabs+0xfc8>)
300052e0:	681b      	ldr	r3, [r3, #0]
300052e2:	681b      	ldr	r3, [r3, #0]
300052e4:	461a      	mov	r2, r3
300052e6:	4b36      	ldr	r3, [pc, #216]	; (300053c0 <stm32__device___elabs+0xfcc>)
300052e8:	601a      	str	r2, [r3, #0]
300052ea:	4b34      	ldr	r3, [pc, #208]	; (300053bc <stm32__device___elabs+0xfc8>)
300052ec:	681b      	ldr	r3, [r3, #0]
300052ee:	681b      	ldr	r3, [r3, #0]
300052f0:	f003 0303 	and.w	r3, r3, #3
300052f4:	2b00      	cmp	r3, #0
300052f6:	d004      	beq.n	30005302 <stm32__device___elabs+0xf0e>
300052f8:	f44f 7184 	mov.w	r1, #264	; 0x108
300052fc:	482c      	ldr	r0, [pc, #176]	; (300053b0 <stm32__device___elabs+0xfbc>)
300052fe:	f004 f847 	bl	30009390 <__gnat_last_chance_handler>
30005302:	4b2f      	ldr	r3, [pc, #188]	; (300053c0 <stm32__device___elabs+0xfcc>)
30005304:	681b      	ldr	r3, [r3, #0]
30005306:	2201      	movs	r2, #1
30005308:	4619      	mov	r1, r3
3000530a:	482e      	ldr	r0, [pc, #184]	; (300053c4 <stm32__device___elabs+0xfd0>)
3000530c:	f001 f91a 	bl	30006544 <stm32__spi__spi_portIP>
30005310:	482d      	ldr	r0, [pc, #180]	; (300053c8 <stm32__device___elabs+0xfd4>)
30005312:	f7ff f829 	bl	30004368 <stm32__device__s_ns_periph>
30005316:	4603      	mov	r3, r0
30005318:	62fb      	str	r3, [r7, #44]	; 0x2c
3000531a:	4a2c      	ldr	r2, [pc, #176]	; (300053cc <stm32__device___elabs+0xfd8>)
3000531c:	f107 032c 	add.w	r3, r7, #44	; 0x2c
30005320:	6013      	str	r3, [r2, #0]
30005322:	4b2a      	ldr	r3, [pc, #168]	; (300053cc <stm32__device___elabs+0xfd8>)
30005324:	681b      	ldr	r3, [r3, #0]
30005326:	681b      	ldr	r3, [r3, #0]
30005328:	461a      	mov	r2, r3
3000532a:	4b29      	ldr	r3, [pc, #164]	; (300053d0 <stm32__device___elabs+0xfdc>)
3000532c:	601a      	str	r2, [r3, #0]
3000532e:	4b27      	ldr	r3, [pc, #156]	; (300053cc <stm32__device___elabs+0xfd8>)
30005330:	681b      	ldr	r3, [r3, #0]
30005332:	681b      	ldr	r3, [r3, #0]
30005334:	f003 0303 	and.w	r3, r3, #3
30005338:	2b00      	cmp	r3, #0
3000533a:	d004      	beq.n	30005346 <stm32__device___elabs+0xf52>
3000533c:	f44f 7185 	mov.w	r1, #266	; 0x10a
30005340:	481b      	ldr	r0, [pc, #108]	; (300053b0 <stm32__device___elabs+0xfbc>)
30005342:	f004 f825 	bl	30009390 <__gnat_last_chance_handler>
30005346:	4b22      	ldr	r3, [pc, #136]	; (300053d0 <stm32__device___elabs+0xfdc>)
30005348:	681b      	ldr	r3, [r3, #0]
3000534a:	2201      	movs	r2, #1
3000534c:	4619      	mov	r1, r3
3000534e:	4821      	ldr	r0, [pc, #132]	; (300053d4 <stm32__device___elabs+0xfe0>)
30005350:	f001 f8f8 	bl	30006544 <stm32__spi__spi_portIP>
30005354:	3730      	adds	r7, #48	; 0x30
30005356:	46bd      	mov	sp, r7
30005358:	bd80      	pop	{r7, pc}
3000535a:	bf00      	nop
3000535c:	3000c4d4 	.word	0x3000c4d4
30005360:	3000c4d8 	.word	0x3000c4d8
30005364:	3000b76c 	.word	0x3000b76c
30005368:	3000c4e4 	.word	0x3000c4e4
3000536c:	3000c4f0 	.word	0x3000c4f0
30005370:	3000c4fc 	.word	0x3000c4fc
30005374:	3000c508 	.word	0x3000c508
30005378:	3000c514 	.word	0x3000c514
3000537c:	3000c520 	.word	0x3000c520
30005380:	3000c52c 	.word	0x3000c52c
30005384:	3000c538 	.word	0x3000c538
30005388:	3000c544 	.word	0x3000c544
3000538c:	3000c550 	.word	0x3000c550
30005390:	3000c55c 	.word	0x3000c55c
30005394:	3000c568 	.word	0x3000c568
30005398:	3000c574 	.word	0x3000c574
3000539c:	3000c580 	.word	0x3000c580
300053a0:	3000c58c 	.word	0x3000c58c
300053a4:	40013000 	.word	0x40013000
300053a8:	3000c598 	.word	0x3000c598
300053ac:	3000c59c 	.word	0x3000c59c
300053b0:	3000b5ac 	.word	0x3000b5ac
300053b4:	3000c5a0 	.word	0x3000c5a0
300053b8:	40003800 	.word	0x40003800
300053bc:	3000c5a8 	.word	0x3000c5a8
300053c0:	3000c5ac 	.word	0x3000c5ac
300053c4:	3000c5b0 	.word	0x3000c5b0
300053c8:	40003c00 	.word	0x40003c00
300053cc:	3000c5b8 	.word	0x3000c5b8
300053d0:	3000c5bc 	.word	0x3000c5bc
300053d4:	3000c5c0 	.word	0x3000c5c0

300053d8 <stm32__exti__enable_external_interrupt>:
300053d8:	b580      	push	{r7, lr}
300053da:	b08a      	sub	sp, #40	; 0x28
300053dc:	af00      	add	r7, sp, #0
300053de:	4603      	mov	r3, r0
300053e0:	71fb      	strb	r3, [r7, #7]
300053e2:	460b      	mov	r3, r1
300053e4:	71bb      	strb	r3, [r7, #6]
300053e6:	4613      	mov	r3, r2
300053e8:	717b      	strb	r3, [r7, #5]
300053ea:	79fb      	ldrb	r3, [r7, #7]
300053ec:	627b      	str	r3, [r7, #36]	; 0x24
300053ee:	6a7b      	ldr	r3, [r7, #36]	; 0x24
300053f0:	2b1f      	cmp	r3, #31
300053f2:	dd03      	ble.n	300053fc <stm32__exti__enable_external_interrupt+0x24>
300053f4:	213c      	movs	r1, #60	; 0x3c
300053f6:	4890      	ldr	r0, [pc, #576]	; (30005638 <stm32__exti__enable_external_interrupt+0x260>)
300053f8:	f003 ffca 	bl	30009390 <__gnat_last_chance_handler>
300053fc:	4b8f      	ldr	r3, [pc, #572]	; (3000563c <stm32__exti__enable_external_interrupt+0x264>)
300053fe:	3380      	adds	r3, #128	; 0x80
30005400:	681b      	ldr	r3, [r3, #0]
30005402:	623b      	str	r3, [r7, #32]
30005404:	6a3a      	ldr	r2, [r7, #32]
30005406:	6a7b      	ldr	r3, [r7, #36]	; 0x24
30005408:	2101      	movs	r1, #1
3000540a:	fa01 f303 	lsl.w	r3, r1, r3
3000540e:	498b      	ldr	r1, [pc, #556]	; (3000563c <stm32__exti__enable_external_interrupt+0x264>)
30005410:	3180      	adds	r1, #128	; 0x80
30005412:	6809      	ldr	r1, [r1, #0]
30005414:	4313      	orrs	r3, r2
30005416:	4619      	mov	r1, r3
30005418:	4b88      	ldr	r3, [pc, #544]	; (3000563c <stm32__exti__enable_external_interrupt+0x264>)
3000541a:	3380      	adds	r3, #128	; 0x80
3000541c:	460a      	mov	r2, r1
3000541e:	601a      	str	r2, [r3, #0]
30005420:	6a7b      	ldr	r3, [r7, #36]	; 0x24
30005422:	2b1f      	cmp	r3, #31
30005424:	dd03      	ble.n	3000542e <stm32__exti__enable_external_interrupt+0x56>
30005426:	213d      	movs	r1, #61	; 0x3d
30005428:	4883      	ldr	r0, [pc, #524]	; (30005638 <stm32__exti__enable_external_interrupt+0x260>)
3000542a:	f003 ffb1 	bl	30009390 <__gnat_last_chance_handler>
3000542e:	4b83      	ldr	r3, [pc, #524]	; (3000563c <stm32__exti__enable_external_interrupt+0x264>)
30005430:	3314      	adds	r3, #20
30005432:	681b      	ldr	r3, [r3, #0]
30005434:	61fb      	str	r3, [r7, #28]
30005436:	69fa      	ldr	r2, [r7, #28]
30005438:	6a7b      	ldr	r3, [r7, #36]	; 0x24
3000543a:	2101      	movs	r1, #1
3000543c:	fa01 f303 	lsl.w	r3, r1, r3
30005440:	43db      	mvns	r3, r3
30005442:	401a      	ands	r2, r3
30005444:	7979      	ldrb	r1, [r7, #5]
30005446:	6a7b      	ldr	r3, [r7, #36]	; 0x24
30005448:	fa01 f303 	lsl.w	r3, r1, r3
3000544c:	497b      	ldr	r1, [pc, #492]	; (3000563c <stm32__exti__enable_external_interrupt+0x264>)
3000544e:	3114      	adds	r1, #20
30005450:	6809      	ldr	r1, [r1, #0]
30005452:	4313      	orrs	r3, r2
30005454:	4619      	mov	r1, r3
30005456:	4b79      	ldr	r3, [pc, #484]	; (3000563c <stm32__exti__enable_external_interrupt+0x264>)
30005458:	3314      	adds	r3, #20
3000545a:	460a      	mov	r2, r1
3000545c:	601a      	str	r2, [r3, #0]
3000545e:	6a7b      	ldr	r3, [r7, #36]	; 0x24
30005460:	2b11      	cmp	r3, #17
30005462:	f340 8082 	ble.w	3000556a <stm32__exti__enable_external_interrupt+0x192>
30005466:	6a7b      	ldr	r3, [r7, #36]	; 0x24
30005468:	2b14      	cmp	r3, #20
3000546a:	dd02      	ble.n	30005472 <stm32__exti__enable_external_interrupt+0x9a>
3000546c:	6a7b      	ldr	r3, [r7, #36]	; 0x24
3000546e:	2b16      	cmp	r3, #22
30005470:	dd03      	ble.n	3000547a <stm32__exti__enable_external_interrupt+0xa2>
30005472:	213f      	movs	r1, #63	; 0x3f
30005474:	4870      	ldr	r0, [pc, #448]	; (30005638 <stm32__exti__enable_external_interrupt+0x260>)
30005476:	f003 ff8b 	bl	30009390 <__gnat_last_chance_handler>
3000547a:	4b70      	ldr	r3, [pc, #448]	; (3000563c <stm32__exti__enable_external_interrupt+0x264>)
3000547c:	681b      	ldr	r3, [r3, #0]
3000547e:	f3c3 5341 	ubfx	r3, r3, #21, #2
30005482:	b2da      	uxtb	r2, r3
30005484:	7e3b      	ldrb	r3, [r7, #24]
30005486:	f362 0301 	bfi	r3, r2, #0, #2
3000548a:	763b      	strb	r3, [r7, #24]
3000548c:	7e3b      	ldrb	r3, [r7, #24]
3000548e:	f3c3 0301 	ubfx	r3, r3, #0, #2
30005492:	b2db      	uxtb	r3, r3
30005494:	461a      	mov	r2, r3
30005496:	6a7b      	ldr	r3, [r7, #36]	; 0x24
30005498:	3b15      	subs	r3, #21
3000549a:	4619      	mov	r1, r3
3000549c:	2301      	movs	r3, #1
3000549e:	408b      	lsls	r3, r1
300054a0:	b2db      	uxtb	r3, r3
300054a2:	43db      	mvns	r3, r3
300054a4:	b2db      	uxtb	r3, r3
300054a6:	4013      	ands	r3, r2
300054a8:	b2da      	uxtb	r2, r3
300054aa:	79bb      	ldrb	r3, [r7, #6]
300054ac:	2b00      	cmp	r3, #0
300054ae:	d002      	beq.n	300054b6 <stm32__exti__enable_external_interrupt+0xde>
300054b0:	79bb      	ldrb	r3, [r7, #6]
300054b2:	2b02      	cmp	r3, #2
300054b4:	d101      	bne.n	300054ba <stm32__exti__enable_external_interrupt+0xe2>
300054b6:	2301      	movs	r3, #1
300054b8:	e000      	b.n	300054bc <stm32__exti__enable_external_interrupt+0xe4>
300054ba:	2300      	movs	r3, #0
300054bc:	f003 0303 	and.w	r3, r3, #3
300054c0:	b2db      	uxtb	r3, r3
300054c2:	4619      	mov	r1, r3
300054c4:	6a7b      	ldr	r3, [r7, #36]	; 0x24
300054c6:	3b15      	subs	r3, #21
300054c8:	fa01 f303 	lsl.w	r3, r1, r3
300054cc:	b2db      	uxtb	r3, r3
300054ce:	4313      	orrs	r3, r2
300054d0:	b2da      	uxtb	r2, r3
300054d2:	4b5a      	ldr	r3, [pc, #360]	; (3000563c <stm32__exti__enable_external_interrupt+0x264>)
300054d4:	681b      	ldr	r3, [r3, #0]
300054d6:	f002 0203 	and.w	r2, r2, #3
300054da:	b2d2      	uxtb	r2, r2
300054dc:	f362 5356 	bfi	r3, r2, #21, #2
300054e0:	4a56      	ldr	r2, [pc, #344]	; (3000563c <stm32__exti__enable_external_interrupt+0x264>)
300054e2:	6013      	str	r3, [r2, #0]
300054e4:	6a7b      	ldr	r3, [r7, #36]	; 0x24
300054e6:	2b14      	cmp	r3, #20
300054e8:	dd02      	ble.n	300054f0 <stm32__exti__enable_external_interrupt+0x118>
300054ea:	6a7b      	ldr	r3, [r7, #36]	; 0x24
300054ec:	2b16      	cmp	r3, #22
300054ee:	dd03      	ble.n	300054f8 <stm32__exti__enable_external_interrupt+0x120>
300054f0:	2141      	movs	r1, #65	; 0x41
300054f2:	4851      	ldr	r0, [pc, #324]	; (30005638 <stm32__exti__enable_external_interrupt+0x260>)
300054f4:	f003 ff4c 	bl	30009390 <__gnat_last_chance_handler>
300054f8:	4b50      	ldr	r3, [pc, #320]	; (3000563c <stm32__exti__enable_external_interrupt+0x264>)
300054fa:	3304      	adds	r3, #4
300054fc:	681b      	ldr	r3, [r3, #0]
300054fe:	f3c3 5341 	ubfx	r3, r3, #21, #2
30005502:	b2da      	uxtb	r2, r3
30005504:	7d3b      	ldrb	r3, [r7, #20]
30005506:	f362 0301 	bfi	r3, r2, #0, #2
3000550a:	753b      	strb	r3, [r7, #20]
3000550c:	7d3b      	ldrb	r3, [r7, #20]
3000550e:	f3c3 0301 	ubfx	r3, r3, #0, #2
30005512:	b2db      	uxtb	r3, r3
30005514:	461a      	mov	r2, r3
30005516:	6a7b      	ldr	r3, [r7, #36]	; 0x24
30005518:	3b15      	subs	r3, #21
3000551a:	4619      	mov	r1, r3
3000551c:	2301      	movs	r3, #1
3000551e:	408b      	lsls	r3, r1
30005520:	b2db      	uxtb	r3, r3
30005522:	43db      	mvns	r3, r3
30005524:	b2db      	uxtb	r3, r3
30005526:	4013      	ands	r3, r2
30005528:	b2da      	uxtb	r2, r3
3000552a:	79bb      	ldrb	r3, [r7, #6]
3000552c:	2b01      	cmp	r3, #1
3000552e:	d002      	beq.n	30005536 <stm32__exti__enable_external_interrupt+0x15e>
30005530:	79bb      	ldrb	r3, [r7, #6]
30005532:	2b02      	cmp	r3, #2
30005534:	d101      	bne.n	3000553a <stm32__exti__enable_external_interrupt+0x162>
30005536:	2301      	movs	r3, #1
30005538:	e000      	b.n	3000553c <stm32__exti__enable_external_interrupt+0x164>
3000553a:	2300      	movs	r3, #0
3000553c:	f003 0303 	and.w	r3, r3, #3
30005540:	b2db      	uxtb	r3, r3
30005542:	4619      	mov	r1, r3
30005544:	6a7b      	ldr	r3, [r7, #36]	; 0x24
30005546:	3b15      	subs	r3, #21
30005548:	fa01 f303 	lsl.w	r3, r1, r3
3000554c:	b2db      	uxtb	r3, r3
3000554e:	4313      	orrs	r3, r2
30005550:	b2da      	uxtb	r2, r3
30005552:	4b3a      	ldr	r3, [pc, #232]	; (3000563c <stm32__exti__enable_external_interrupt+0x264>)
30005554:	3304      	adds	r3, #4
30005556:	681b      	ldr	r3, [r3, #0]
30005558:	f002 0203 	and.w	r2, r2, #3
3000555c:	b2d2      	uxtb	r2, r2
3000555e:	f362 5356 	bfi	r3, r2, #21, #2
30005562:	4a36      	ldr	r2, [pc, #216]	; (3000563c <stm32__exti__enable_external_interrupt+0x264>)
30005564:	3204      	adds	r2, #4
30005566:	6013      	str	r3, [r2, #0]
30005568:	e062      	b.n	30005630 <stm32__exti__enable_external_interrupt+0x258>
3000556a:	6a7b      	ldr	r3, [r7, #36]	; 0x24
3000556c:	2b10      	cmp	r3, #16
3000556e:	dd03      	ble.n	30005578 <stm32__exti__enable_external_interrupt+0x1a0>
30005570:	2144      	movs	r1, #68	; 0x44
30005572:	4831      	ldr	r0, [pc, #196]	; (30005638 <stm32__exti__enable_external_interrupt+0x260>)
30005574:	f003 ff0c 	bl	30009390 <__gnat_last_chance_handler>
30005578:	4b30      	ldr	r3, [pc, #192]	; (3000563c <stm32__exti__enable_external_interrupt+0x264>)
3000557a:	681b      	ldr	r3, [r3, #0]
3000557c:	f3c3 0210 	ubfx	r2, r3, #0, #17
30005580:	693b      	ldr	r3, [r7, #16]
30005582:	f362 0310 	bfi	r3, r2, #0, #17
30005586:	613b      	str	r3, [r7, #16]
30005588:	693b      	ldr	r3, [r7, #16]
3000558a:	f3c3 0310 	ubfx	r3, r3, #0, #17
3000558e:	4619      	mov	r1, r3
30005590:	6a7b      	ldr	r3, [r7, #36]	; 0x24
30005592:	2201      	movs	r2, #1
30005594:	fa02 f303 	lsl.w	r3, r2, r3
30005598:	43db      	mvns	r3, r3
3000559a:	ea01 0203 	and.w	r2, r1, r3
3000559e:	79bb      	ldrb	r3, [r7, #6]
300055a0:	2b00      	cmp	r3, #0
300055a2:	d002      	beq.n	300055aa <stm32__exti__enable_external_interrupt+0x1d2>
300055a4:	79bb      	ldrb	r3, [r7, #6]
300055a6:	2b02      	cmp	r3, #2
300055a8:	d101      	bne.n	300055ae <stm32__exti__enable_external_interrupt+0x1d6>
300055aa:	2301      	movs	r3, #1
300055ac:	e000      	b.n	300055b0 <stm32__exti__enable_external_interrupt+0x1d8>
300055ae:	2300      	movs	r3, #0
300055b0:	4619      	mov	r1, r3
300055b2:	6a7b      	ldr	r3, [r7, #36]	; 0x24
300055b4:	fa01 f303 	lsl.w	r3, r1, r3
300055b8:	431a      	orrs	r2, r3
300055ba:	4b20      	ldr	r3, [pc, #128]	; (3000563c <stm32__exti__enable_external_interrupt+0x264>)
300055bc:	681b      	ldr	r3, [r3, #0]
300055be:	f3c2 0210 	ubfx	r2, r2, #0, #17
300055c2:	f362 0310 	bfi	r3, r2, #0, #17
300055c6:	4a1d      	ldr	r2, [pc, #116]	; (3000563c <stm32__exti__enable_external_interrupt+0x264>)
300055c8:	6013      	str	r3, [r2, #0]
300055ca:	6a7b      	ldr	r3, [r7, #36]	; 0x24
300055cc:	2b10      	cmp	r3, #16
300055ce:	dd03      	ble.n	300055d8 <stm32__exti__enable_external_interrupt+0x200>
300055d0:	2146      	movs	r1, #70	; 0x46
300055d2:	4819      	ldr	r0, [pc, #100]	; (30005638 <stm32__exti__enable_external_interrupt+0x260>)
300055d4:	f003 fedc 	bl	30009390 <__gnat_last_chance_handler>
300055d8:	4b18      	ldr	r3, [pc, #96]	; (3000563c <stm32__exti__enable_external_interrupt+0x264>)
300055da:	3304      	adds	r3, #4
300055dc:	681b      	ldr	r3, [r3, #0]
300055de:	f3c3 0210 	ubfx	r2, r3, #0, #17
300055e2:	68fb      	ldr	r3, [r7, #12]
300055e4:	f362 0310 	bfi	r3, r2, #0, #17
300055e8:	60fb      	str	r3, [r7, #12]
300055ea:	68fb      	ldr	r3, [r7, #12]
300055ec:	f3c3 0310 	ubfx	r3, r3, #0, #17
300055f0:	4619      	mov	r1, r3
300055f2:	6a7b      	ldr	r3, [r7, #36]	; 0x24
300055f4:	2201      	movs	r2, #1
300055f6:	fa02 f303 	lsl.w	r3, r2, r3
300055fa:	43db      	mvns	r3, r3
300055fc:	ea01 0203 	and.w	r2, r1, r3
30005600:	79bb      	ldrb	r3, [r7, #6]
30005602:	2b01      	cmp	r3, #1
30005604:	d002      	beq.n	3000560c <stm32__exti__enable_external_interrupt+0x234>
30005606:	79bb      	ldrb	r3, [r7, #6]
30005608:	2b02      	cmp	r3, #2
3000560a:	d101      	bne.n	30005610 <stm32__exti__enable_external_interrupt+0x238>
3000560c:	2301      	movs	r3, #1
3000560e:	e000      	b.n	30005612 <stm32__exti__enable_external_interrupt+0x23a>
30005610:	2300      	movs	r3, #0
30005612:	4619      	mov	r1, r3
30005614:	6a7b      	ldr	r3, [r7, #36]	; 0x24
30005616:	fa01 f303 	lsl.w	r3, r1, r3
3000561a:	431a      	orrs	r2, r3
3000561c:	4b07      	ldr	r3, [pc, #28]	; (3000563c <stm32__exti__enable_external_interrupt+0x264>)
3000561e:	3304      	adds	r3, #4
30005620:	681b      	ldr	r3, [r3, #0]
30005622:	f3c2 0210 	ubfx	r2, r2, #0, #17
30005626:	f362 0310 	bfi	r3, r2, #0, #17
3000562a:	4a04      	ldr	r2, [pc, #16]	; (3000563c <stm32__exti__enable_external_interrupt+0x264>)
3000562c:	3204      	adds	r2, #4
3000562e:	6013      	str	r3, [r2, #0]
30005630:	3728      	adds	r7, #40	; 0x28
30005632:	46bd      	mov	sp, r7
30005634:	bd80      	pop	{r7, pc}
30005636:	bf00      	nop
30005638:	3000b5c0 	.word	0x3000b5c0
3000563c:	4002f400 	.word	0x4002f400

30005640 <stm32__exti__enable_external_event>:
30005640:	b580      	push	{r7, lr}
30005642:	b086      	sub	sp, #24
30005644:	af00      	add	r7, sp, #0
30005646:	4603      	mov	r3, r0
30005648:	460a      	mov	r2, r1
3000564a:	71fb      	strb	r3, [r7, #7]
3000564c:	4613      	mov	r3, r2
3000564e:	71bb      	strb	r3, [r7, #6]
30005650:	79fb      	ldrb	r3, [r7, #7]
30005652:	617b      	str	r3, [r7, #20]
30005654:	697b      	ldr	r3, [r7, #20]
30005656:	2b1f      	cmp	r3, #31
30005658:	dd03      	ble.n	30005662 <stm32__exti__enable_external_event+0x22>
3000565a:	2166      	movs	r1, #102	; 0x66
3000565c:	483d      	ldr	r0, [pc, #244]	; (30005754 <stm32__exti__enable_external_event+0x114>)
3000565e:	f003 fe97 	bl	30009390 <__gnat_last_chance_handler>
30005662:	4b3d      	ldr	r3, [pc, #244]	; (30005758 <stm32__exti__enable_external_event+0x118>)
30005664:	3384      	adds	r3, #132	; 0x84
30005666:	681b      	ldr	r3, [r3, #0]
30005668:	613b      	str	r3, [r7, #16]
3000566a:	693a      	ldr	r2, [r7, #16]
3000566c:	697b      	ldr	r3, [r7, #20]
3000566e:	2101      	movs	r1, #1
30005670:	fa01 f303 	lsl.w	r3, r1, r3
30005674:	4938      	ldr	r1, [pc, #224]	; (30005758 <stm32__exti__enable_external_event+0x118>)
30005676:	3184      	adds	r1, #132	; 0x84
30005678:	6809      	ldr	r1, [r1, #0]
3000567a:	4313      	orrs	r3, r2
3000567c:	4619      	mov	r1, r3
3000567e:	4b36      	ldr	r3, [pc, #216]	; (30005758 <stm32__exti__enable_external_event+0x118>)
30005680:	3384      	adds	r3, #132	; 0x84
30005682:	460a      	mov	r2, r1
30005684:	601a      	str	r2, [r3, #0]
30005686:	697b      	ldr	r3, [r7, #20]
30005688:	2b10      	cmp	r3, #16
3000568a:	dd03      	ble.n	30005694 <stm32__exti__enable_external_event+0x54>
3000568c:	2167      	movs	r1, #103	; 0x67
3000568e:	4831      	ldr	r0, [pc, #196]	; (30005754 <stm32__exti__enable_external_event+0x114>)
30005690:	f003 fe7e 	bl	30009390 <__gnat_last_chance_handler>
30005694:	4b30      	ldr	r3, [pc, #192]	; (30005758 <stm32__exti__enable_external_event+0x118>)
30005696:	681b      	ldr	r3, [r3, #0]
30005698:	f3c3 0210 	ubfx	r2, r3, #0, #17
3000569c:	68fb      	ldr	r3, [r7, #12]
3000569e:	f362 0310 	bfi	r3, r2, #0, #17
300056a2:	60fb      	str	r3, [r7, #12]
300056a4:	68fb      	ldr	r3, [r7, #12]
300056a6:	f3c3 0310 	ubfx	r3, r3, #0, #17
300056aa:	4619      	mov	r1, r3
300056ac:	697b      	ldr	r3, [r7, #20]
300056ae:	2201      	movs	r2, #1
300056b0:	fa02 f303 	lsl.w	r3, r2, r3
300056b4:	43db      	mvns	r3, r3
300056b6:	ea01 0203 	and.w	r2, r1, r3
300056ba:	79bb      	ldrb	r3, [r7, #6]
300056bc:	2b00      	cmp	r3, #0
300056be:	d002      	beq.n	300056c6 <stm32__exti__enable_external_event+0x86>
300056c0:	79bb      	ldrb	r3, [r7, #6]
300056c2:	2b02      	cmp	r3, #2
300056c4:	d101      	bne.n	300056ca <stm32__exti__enable_external_event+0x8a>
300056c6:	2301      	movs	r3, #1
300056c8:	e000      	b.n	300056cc <stm32__exti__enable_external_event+0x8c>
300056ca:	2300      	movs	r3, #0
300056cc:	4619      	mov	r1, r3
300056ce:	697b      	ldr	r3, [r7, #20]
300056d0:	fa01 f303 	lsl.w	r3, r1, r3
300056d4:	431a      	orrs	r2, r3
300056d6:	4b20      	ldr	r3, [pc, #128]	; (30005758 <stm32__exti__enable_external_event+0x118>)
300056d8:	681b      	ldr	r3, [r3, #0]
300056da:	f3c2 0210 	ubfx	r2, r2, #0, #17
300056de:	f362 0310 	bfi	r3, r2, #0, #17
300056e2:	4a1d      	ldr	r2, [pc, #116]	; (30005758 <stm32__exti__enable_external_event+0x118>)
300056e4:	6013      	str	r3, [r2, #0]
300056e6:	697b      	ldr	r3, [r7, #20]
300056e8:	2b10      	cmp	r3, #16
300056ea:	dd03      	ble.n	300056f4 <stm32__exti__enable_external_event+0xb4>
300056ec:	2169      	movs	r1, #105	; 0x69
300056ee:	4819      	ldr	r0, [pc, #100]	; (30005754 <stm32__exti__enable_external_event+0x114>)
300056f0:	f003 fe4e 	bl	30009390 <__gnat_last_chance_handler>
300056f4:	4b18      	ldr	r3, [pc, #96]	; (30005758 <stm32__exti__enable_external_event+0x118>)
300056f6:	3304      	adds	r3, #4
300056f8:	681b      	ldr	r3, [r3, #0]
300056fa:	f3c3 0210 	ubfx	r2, r3, #0, #17
300056fe:	68bb      	ldr	r3, [r7, #8]
30005700:	f362 0310 	bfi	r3, r2, #0, #17
30005704:	60bb      	str	r3, [r7, #8]
30005706:	68bb      	ldr	r3, [r7, #8]
30005708:	f3c3 0310 	ubfx	r3, r3, #0, #17
3000570c:	4619      	mov	r1, r3
3000570e:	697b      	ldr	r3, [r7, #20]
30005710:	2201      	movs	r2, #1
30005712:	fa02 f303 	lsl.w	r3, r2, r3
30005716:	43db      	mvns	r3, r3
30005718:	ea01 0203 	and.w	r2, r1, r3
3000571c:	79bb      	ldrb	r3, [r7, #6]
3000571e:	2b01      	cmp	r3, #1
30005720:	d002      	beq.n	30005728 <stm32__exti__enable_external_event+0xe8>
30005722:	79bb      	ldrb	r3, [r7, #6]
30005724:	2b02      	cmp	r3, #2
30005726:	d101      	bne.n	3000572c <stm32__exti__enable_external_event+0xec>
30005728:	2301      	movs	r3, #1
3000572a:	e000      	b.n	3000572e <stm32__exti__enable_external_event+0xee>
3000572c:	2300      	movs	r3, #0
3000572e:	4619      	mov	r1, r3
30005730:	697b      	ldr	r3, [r7, #20]
30005732:	fa01 f303 	lsl.w	r3, r1, r3
30005736:	431a      	orrs	r2, r3
30005738:	4b07      	ldr	r3, [pc, #28]	; (30005758 <stm32__exti__enable_external_event+0x118>)
3000573a:	3304      	adds	r3, #4
3000573c:	681b      	ldr	r3, [r3, #0]
3000573e:	f3c2 0210 	ubfx	r2, r2, #0, #17
30005742:	f362 0310 	bfi	r3, r2, #0, #17
30005746:	4a04      	ldr	r2, [pc, #16]	; (30005758 <stm32__exti__enable_external_event+0x118>)
30005748:	3204      	adds	r2, #4
3000574a:	6013      	str	r3, [r2, #0]
3000574c:	3718      	adds	r7, #24
3000574e:	46bd      	mov	sp, r7
30005750:	bd80      	pop	{r7, pc}
30005752:	bf00      	nop
30005754:	3000b5c0 	.word	0x3000b5c0
30005758:	4002f400 	.word	0x4002f400

3000575c <stm32__gpio__gpio_pinRP>:
3000575c:	b480      	push	{r7}
3000575e:	b083      	sub	sp, #12
30005760:	af00      	add	r7, sp, #0
30005762:	4603      	mov	r3, r0
30005764:	460a      	mov	r2, r1
30005766:	80fb      	strh	r3, [r7, #6]
30005768:	4613      	mov	r3, r2
3000576a:	717b      	strb	r3, [r7, #5]
3000576c:	88fb      	ldrh	r3, [r7, #6]
3000576e:	2b80      	cmp	r3, #128	; 0x80
30005770:	d042      	beq.n	300057f8 <stm32__gpio__gpio_pinRP+0x9c>
30005772:	2b80      	cmp	r3, #128	; 0x80
30005774:	d811      	bhi.n	3000579a <stm32__gpio__gpio_pinRP+0x3e>
30005776:	2b08      	cmp	r3, #8
30005778:	d036      	beq.n	300057e8 <stm32__gpio__gpio_pinRP+0x8c>
3000577a:	2b08      	cmp	r3, #8
3000577c:	d806      	bhi.n	3000578c <stm32__gpio__gpio_pinRP+0x30>
3000577e:	2b02      	cmp	r3, #2
30005780:	d02e      	beq.n	300057e0 <stm32__gpio__gpio_pinRP+0x84>
30005782:	2b04      	cmp	r3, #4
30005784:	d02e      	beq.n	300057e4 <stm32__gpio__gpio_pinRP+0x88>
30005786:	2b01      	cmp	r3, #1
30005788:	d028      	beq.n	300057dc <stm32__gpio__gpio_pinRP+0x80>
3000578a:	e047      	b.n	3000581c <stm32__gpio__gpio_pinRP+0xc0>
3000578c:	2b20      	cmp	r3, #32
3000578e:	d02f      	beq.n	300057f0 <stm32__gpio__gpio_pinRP+0x94>
30005790:	2b40      	cmp	r3, #64	; 0x40
30005792:	d02f      	beq.n	300057f4 <stm32__gpio__gpio_pinRP+0x98>
30005794:	2b10      	cmp	r3, #16
30005796:	d029      	beq.n	300057ec <stm32__gpio__gpio_pinRP+0x90>
30005798:	e040      	b.n	3000581c <stm32__gpio__gpio_pinRP+0xc0>
3000579a:	f5b3 6f00 	cmp.w	r3, #2048	; 0x800
3000579e:	d033      	beq.n	30005808 <stm32__gpio__gpio_pinRP+0xac>
300057a0:	f5b3 6f00 	cmp.w	r3, #2048	; 0x800
300057a4:	d809      	bhi.n	300057ba <stm32__gpio__gpio_pinRP+0x5e>
300057a6:	f5b3 7f00 	cmp.w	r3, #512	; 0x200
300057aa:	d029      	beq.n	30005800 <stm32__gpio__gpio_pinRP+0xa4>
300057ac:	f5b3 6f80 	cmp.w	r3, #1024	; 0x400
300057b0:	d028      	beq.n	30005804 <stm32__gpio__gpio_pinRP+0xa8>
300057b2:	f5b3 7f80 	cmp.w	r3, #256	; 0x100
300057b6:	d021      	beq.n	300057fc <stm32__gpio__gpio_pinRP+0xa0>
300057b8:	e030      	b.n	3000581c <stm32__gpio__gpio_pinRP+0xc0>
300057ba:	f5b3 5f00 	cmp.w	r3, #8192	; 0x2000
300057be:	d027      	beq.n	30005810 <stm32__gpio__gpio_pinRP+0xb4>
300057c0:	f5b3 5f00 	cmp.w	r3, #8192	; 0x2000
300057c4:	d803      	bhi.n	300057ce <stm32__gpio__gpio_pinRP+0x72>
300057c6:	f5b3 5f80 	cmp.w	r3, #4096	; 0x1000
300057ca:	d01f      	beq.n	3000580c <stm32__gpio__gpio_pinRP+0xb0>
300057cc:	e026      	b.n	3000581c <stm32__gpio__gpio_pinRP+0xc0>
300057ce:	f5b3 4f80 	cmp.w	r3, #16384	; 0x4000
300057d2:	d01f      	beq.n	30005814 <stm32__gpio__gpio_pinRP+0xb8>
300057d4:	f5b3 4f00 	cmp.w	r3, #32768	; 0x8000
300057d8:	d01e      	beq.n	30005818 <stm32__gpio__gpio_pinRP+0xbc>
300057da:	e01f      	b.n	3000581c <stm32__gpio__gpio_pinRP+0xc0>
300057dc:	2300      	movs	r3, #0
300057de:	e01f      	b.n	30005820 <stm32__gpio__gpio_pinRP+0xc4>
300057e0:	2301      	movs	r3, #1
300057e2:	e01d      	b.n	30005820 <stm32__gpio__gpio_pinRP+0xc4>
300057e4:	2302      	movs	r3, #2
300057e6:	e01b      	b.n	30005820 <stm32__gpio__gpio_pinRP+0xc4>
300057e8:	2303      	movs	r3, #3
300057ea:	e019      	b.n	30005820 <stm32__gpio__gpio_pinRP+0xc4>
300057ec:	2304      	movs	r3, #4
300057ee:	e017      	b.n	30005820 <stm32__gpio__gpio_pinRP+0xc4>
300057f0:	2305      	movs	r3, #5
300057f2:	e015      	b.n	30005820 <stm32__gpio__gpio_pinRP+0xc4>
300057f4:	2306      	movs	r3, #6
300057f6:	e013      	b.n	30005820 <stm32__gpio__gpio_pinRP+0xc4>
300057f8:	2307      	movs	r3, #7
300057fa:	e011      	b.n	30005820 <stm32__gpio__gpio_pinRP+0xc4>
300057fc:	2308      	movs	r3, #8
300057fe:	e00f      	b.n	30005820 <stm32__gpio__gpio_pinRP+0xc4>
30005800:	2309      	movs	r3, #9
30005802:	e00d      	b.n	30005820 <stm32__gpio__gpio_pinRP+0xc4>
30005804:	230a      	movs	r3, #10
30005806:	e00b      	b.n	30005820 <stm32__gpio__gpio_pinRP+0xc4>
30005808:	230b      	movs	r3, #11
3000580a:	e009      	b.n	30005820 <stm32__gpio__gpio_pinRP+0xc4>
3000580c:	230c      	movs	r3, #12
3000580e:	e007      	b.n	30005820 <stm32__gpio__gpio_pinRP+0xc4>
30005810:	230d      	movs	r3, #13
30005812:	e005      	b.n	30005820 <stm32__gpio__gpio_pinRP+0xc4>
30005814:	230e      	movs	r3, #14
30005816:	e003      	b.n	30005820 <stm32__gpio__gpio_pinRP+0xc4>
30005818:	230f      	movs	r3, #15
3000581a:	e001      	b.n	30005820 <stm32__gpio__gpio_pinRP+0xc4>
3000581c:	f04f 33ff 	mov.w	r3, #4294967295	; 0xffffffff
30005820:	4618      	mov	r0, r3
30005822:	370c      	adds	r7, #12
30005824:	46bd      	mov	sp, r7
30005826:	f85d 7b04 	ldr.w	r7, [sp], #4
3000582a:	4770      	bx	lr

3000582c <stm32__gpio__gpio_pointIP>:
3000582c:	b480      	push	{r7}
3000582e:	b083      	sub	sp, #12
30005830:	af00      	add	r7, sp, #0
30005832:	6078      	str	r0, [r7, #4]
30005834:	460b      	mov	r3, r1
30005836:	70fb      	strb	r3, [r7, #3]
30005838:	78fb      	ldrb	r3, [r7, #3]
3000583a:	2b00      	cmp	r3, #0
3000583c:	d002      	beq.n	30005844 <stm32__gpio__gpio_pointIP+0x18>
3000583e:	4a05      	ldr	r2, [pc, #20]	; (30005854 <stm32__gpio__gpio_pointIP+0x28>)
30005840:	687b      	ldr	r3, [r7, #4]
30005842:	601a      	str	r2, [r3, #0]
30005844:	687b      	ldr	r3, [r7, #4]
30005846:	2200      	movs	r2, #0
30005848:	605a      	str	r2, [r3, #4]
3000584a:	370c      	adds	r7, #12
3000584c:	46bd      	mov	sp, r7
3000584e:	f85d 7b04 	ldr.w	r7, [sp], #4
30005852:	4770      	bx	lr
30005854:	3000b76c 	.word	0x3000b76c

30005858 <stm32__gpio___size__2>:
30005858:	b490      	push	{r4, r7}
3000585a:	b082      	sub	sp, #8
3000585c:	af00      	add	r7, sp, #0
3000585e:	6078      	str	r0, [r7, #4]
30005860:	f04f 0360 	mov.w	r3, #96	; 0x60
30005864:	f04f 0400 	mov.w	r4, #0
30005868:	4618      	mov	r0, r3
3000586a:	4621      	mov	r1, r4
3000586c:	3708      	adds	r7, #8
3000586e:	46bd      	mov	sp, r7
30005870:	bc90      	pop	{r4, r7}
30005872:	4770      	bx	lr

30005874 <stm32__gpio__Oeq>:
30005874:	b480      	push	{r7}
30005876:	b083      	sub	sp, #12
30005878:	af00      	add	r7, sp, #0
3000587a:	6078      	str	r0, [r7, #4]
3000587c:	6039      	str	r1, [r7, #0]
3000587e:	687b      	ldr	r3, [r7, #4]
30005880:	685a      	ldr	r2, [r3, #4]
30005882:	683b      	ldr	r3, [r7, #0]
30005884:	685b      	ldr	r3, [r3, #4]
30005886:	429a      	cmp	r2, r3
30005888:	d107      	bne.n	3000589a <stm32__gpio__Oeq+0x26>
3000588a:	687b      	ldr	r3, [r7, #4]
3000588c:	891a      	ldrh	r2, [r3, #8]
3000588e:	683b      	ldr	r3, [r7, #0]
30005890:	891b      	ldrh	r3, [r3, #8]
30005892:	429a      	cmp	r2, r3
30005894:	d101      	bne.n	3000589a <stm32__gpio__Oeq+0x26>
30005896:	2301      	movs	r3, #1
30005898:	e000      	b.n	3000589c <stm32__gpio__Oeq+0x28>
3000589a:	2300      	movs	r3, #0
3000589c:	4618      	mov	r0, r3
3000589e:	370c      	adds	r7, #12
300058a0:	46bd      	mov	sp, r7
300058a2:	f85d 7b04 	ldr.w	r7, [sp], #4
300058a6:	4770      	bx	lr

300058a8 <stm32__gpio___assign>:
300058a8:	b490      	push	{r4, r7}
300058aa:	b082      	sub	sp, #8
300058ac:	af00      	add	r7, sp, #0
300058ae:	6078      	str	r0, [r7, #4]
300058b0:	6039      	str	r1, [r7, #0]
300058b2:	687b      	ldr	r3, [r7, #4]
300058b4:	681c      	ldr	r4, [r3, #0]
300058b6:	687b      	ldr	r3, [r7, #4]
300058b8:	683a      	ldr	r2, [r7, #0]
300058ba:	ca07      	ldmia	r2, {r0, r1, r2}
300058bc:	e883 0007 	stmia.w	r3, {r0, r1, r2}
300058c0:	687b      	ldr	r3, [r7, #4]
300058c2:	601c      	str	r4, [r3, #0]
300058c4:	3708      	adds	r7, #8
300058c6:	46bd      	mov	sp, r7
300058c8:	bc90      	pop	{r4, r7}
300058ca:	4770      	bx	lr

300058cc <stm32__gpio__gpio_pointsIP>:
300058cc:	b5f0      	push	{r4, r5, r6, r7, lr}
300058ce:	b083      	sub	sp, #12
300058d0:	af00      	add	r7, sp, #0
300058d2:	e9c7 0100 	strd	r0, r1, [r7]
300058d6:	687b      	ldr	r3, [r7, #4]
300058d8:	681b      	ldr	r3, [r3, #0]
300058da:	461e      	mov	r6, r3
300058dc:	687b      	ldr	r3, [r7, #4]
300058de:	681c      	ldr	r4, [r3, #0]
300058e0:	687b      	ldr	r3, [r7, #4]
300058e2:	685d      	ldr	r5, [r3, #4]
300058e4:	42ac      	cmp	r4, r5
300058e6:	dc0f      	bgt.n	30005908 <stm32__gpio__gpio_pointsIP+0x3c>
300058e8:	6839      	ldr	r1, [r7, #0]
300058ea:	4623      	mov	r3, r4
300058ec:	1b9a      	subs	r2, r3, r6
300058ee:	4613      	mov	r3, r2
300058f0:	005b      	lsls	r3, r3, #1
300058f2:	4413      	add	r3, r2
300058f4:	009b      	lsls	r3, r3, #2
300058f6:	440b      	add	r3, r1
300058f8:	2101      	movs	r1, #1
300058fa:	4618      	mov	r0, r3
300058fc:	f7ff ff96 	bl	3000582c <stm32__gpio__gpio_pointIP>
30005900:	42ac      	cmp	r4, r5
30005902:	d001      	beq.n	30005908 <stm32__gpio__gpio_pointsIP+0x3c>
30005904:	3401      	adds	r4, #1
30005906:	e7ef      	b.n	300058e8 <stm32__gpio__gpio_pointsIP+0x1c>
30005908:	370c      	adds	r7, #12
3000590a:	46bd      	mov	sp, r7
3000590c:	bdf0      	pop	{r4, r5, r6, r7, pc}
3000590e:	bf00      	nop

30005910 <stm32__gpio__mode>:
30005910:	b580      	push	{r7, lr}
30005912:	b084      	sub	sp, #16
30005914:	af00      	add	r7, sp, #0
30005916:	6078      	str	r0, [r7, #4]
30005918:	687b      	ldr	r3, [r7, #4]
3000591a:	891b      	ldrh	r3, [r3, #8]
3000591c:	2101      	movs	r1, #1
3000591e:	4618      	mov	r0, r3
30005920:	f7ff ff1c 	bl	3000575c <stm32__gpio__gpio_pinRP>
30005924:	4603      	mov	r3, r0
30005926:	2b00      	cmp	r3, #0
30005928:	db01      	blt.n	3000592e <stm32__gpio__mode+0x1e>
3000592a:	2b0f      	cmp	r3, #15
3000592c:	dd03      	ble.n	30005936 <stm32__gpio__mode+0x26>
3000592e:	2153      	movs	r1, #83	; 0x53
30005930:	4815      	ldr	r0, [pc, #84]	; (30005988 <stm32__gpio__mode+0x78>)
30005932:	f003 fd2d 	bl	30009390 <__gnat_last_chance_handler>
30005936:	60fb      	str	r3, [r7, #12]
30005938:	687b      	ldr	r3, [r7, #4]
3000593a:	685b      	ldr	r3, [r3, #4]
3000593c:	2b00      	cmp	r3, #0
3000593e:	d103      	bne.n	30005948 <stm32__gpio__mode+0x38>
30005940:	2155      	movs	r1, #85	; 0x55
30005942:	4811      	ldr	r0, [pc, #68]	; (30005988 <stm32__gpio__mode+0x78>)
30005944:	f003 fd24 	bl	30009390 <__gnat_last_chance_handler>
30005948:	687b      	ldr	r3, [r7, #4]
3000594a:	685b      	ldr	r3, [r3, #4]
3000594c:	681b      	ldr	r3, [r3, #0]
3000594e:	461a      	mov	r2, r3
30005950:	68fb      	ldr	r3, [r7, #12]
30005952:	005b      	lsls	r3, r3, #1
30005954:	fa22 f303 	lsr.w	r3, r2, r3
30005958:	b2db      	uxtb	r3, r3
3000595a:	f003 0303 	and.w	r3, r3, #3
3000595e:	b2db      	uxtb	r3, r3
30005960:	2b03      	cmp	r3, #3
30005962:	d903      	bls.n	3000596c <stm32__gpio__mode+0x5c>
30005964:	2155      	movs	r1, #85	; 0x55
30005966:	4808      	ldr	r0, [pc, #32]	; (30005988 <stm32__gpio__mode+0x78>)
30005968:	f003 fd12 	bl	30009390 <__gnat_last_chance_handler>
3000596c:	2b00      	cmp	r3, #0
3000596e:	d003      	beq.n	30005978 <stm32__gpio__mode+0x68>
30005970:	2b01      	cmp	r3, #1
30005972:	d103      	bne.n	3000597c <stm32__gpio__mode+0x6c>
30005974:	2302      	movs	r3, #2
30005976:	e002      	b.n	3000597e <stm32__gpio__mode+0x6e>
30005978:	2301      	movs	r3, #1
3000597a:	e000      	b.n	3000597e <stm32__gpio__mode+0x6e>
3000597c:	2300      	movs	r3, #0
3000597e:	bf00      	nop
30005980:	4618      	mov	r0, r3
30005982:	3710      	adds	r7, #16
30005984:	46bd      	mov	sp, r7
30005986:	bd80      	pop	{r7, pc}
30005988:	3000b5e0 	.word	0x3000b5e0

3000598c <stm32__gpio__set_mode>:
3000598c:	b580      	push	{r7, lr}
3000598e:	b086      	sub	sp, #24
30005990:	af00      	add	r7, sp, #0
30005992:	6078      	str	r0, [r7, #4]
30005994:	460b      	mov	r3, r1
30005996:	70fb      	strb	r3, [r7, #3]
30005998:	687b      	ldr	r3, [r7, #4]
3000599a:	891b      	ldrh	r3, [r3, #8]
3000599c:	2101      	movs	r1, #1
3000599e:	4618      	mov	r0, r3
300059a0:	f7ff fedc 	bl	3000575c <stm32__gpio__gpio_pinRP>
300059a4:	4603      	mov	r3, r0
300059a6:	2b00      	cmp	r3, #0
300059a8:	db01      	blt.n	300059ae <stm32__gpio__set_mode+0x22>
300059aa:	2b0f      	cmp	r3, #15
300059ac:	dd03      	ble.n	300059b6 <stm32__gpio__set_mode+0x2a>
300059ae:	2166      	movs	r1, #102	; 0x66
300059b0:	4829      	ldr	r0, [pc, #164]	; (30005a58 <stm32__gpio__set_mode+0xcc>)
300059b2:	f003 fced 	bl	30009390 <__gnat_last_chance_handler>
300059b6:	617b      	str	r3, [r7, #20]
300059b8:	78fb      	ldrb	r3, [r7, #3]
300059ba:	2b00      	cmp	r3, #0
300059bc:	d002      	beq.n	300059c4 <stm32__gpio__set_mode+0x38>
300059be:	78fb      	ldrb	r3, [r7, #3]
300059c0:	2b02      	cmp	r3, #2
300059c2:	d903      	bls.n	300059cc <stm32__gpio__set_mode+0x40>
300059c4:	2168      	movs	r1, #104	; 0x68
300059c6:	4824      	ldr	r0, [pc, #144]	; (30005a58 <stm32__gpio__set_mode+0xcc>)
300059c8:	f003 fce2 	bl	30009390 <__gnat_last_chance_handler>
300059cc:	78fb      	ldrb	r3, [r7, #3]
300059ce:	2b02      	cmp	r3, #2
300059d0:	d121      	bne.n	30005a16 <stm32__gpio__set_mode+0x8a>
300059d2:	687b      	ldr	r3, [r7, #4]
300059d4:	685b      	ldr	r3, [r3, #4]
300059d6:	2b00      	cmp	r3, #0
300059d8:	d103      	bne.n	300059e2 <stm32__gpio__set_mode+0x56>
300059da:	216a      	movs	r1, #106	; 0x6a
300059dc:	481e      	ldr	r0, [pc, #120]	; (30005a58 <stm32__gpio__set_mode+0xcc>)
300059de:	f003 fcd7 	bl	30009390 <__gnat_last_chance_handler>
300059e2:	687b      	ldr	r3, [r7, #4]
300059e4:	6859      	ldr	r1, [r3, #4]
300059e6:	460b      	mov	r3, r1
300059e8:	681b      	ldr	r3, [r3, #0]
300059ea:	613b      	str	r3, [r7, #16]
300059ec:	693a      	ldr	r2, [r7, #16]
300059ee:	697b      	ldr	r3, [r7, #20]
300059f0:	005b      	lsls	r3, r3, #1
300059f2:	4618      	mov	r0, r3
300059f4:	2303      	movs	r3, #3
300059f6:	4083      	lsls	r3, r0
300059f8:	43db      	mvns	r3, r3
300059fa:	401a      	ands	r2, r3
300059fc:	697b      	ldr	r3, [r7, #20]
300059fe:	005b      	lsls	r3, r3, #1
30005a00:	4618      	mov	r0, r3
30005a02:	2301      	movs	r3, #1
30005a04:	4083      	lsls	r3, r0
30005a06:	4608      	mov	r0, r1
30005a08:	6800      	ldr	r0, [r0, #0]
30005a0a:	4313      	orrs	r3, r2
30005a0c:	4618      	mov	r0, r3
30005a0e:	460b      	mov	r3, r1
30005a10:	4602      	mov	r2, r0
30005a12:	601a      	str	r2, [r3, #0]
30005a14:	e01a      	b.n	30005a4c <stm32__gpio__set_mode+0xc0>
30005a16:	687b      	ldr	r3, [r7, #4]
30005a18:	685b      	ldr	r3, [r3, #4]
30005a1a:	2b00      	cmp	r3, #0
30005a1c:	d103      	bne.n	30005a26 <stm32__gpio__set_mode+0x9a>
30005a1e:	216c      	movs	r1, #108	; 0x6c
30005a20:	480d      	ldr	r0, [pc, #52]	; (30005a58 <stm32__gpio__set_mode+0xcc>)
30005a22:	f003 fcb5 	bl	30009390 <__gnat_last_chance_handler>
30005a26:	687b      	ldr	r3, [r7, #4]
30005a28:	6859      	ldr	r1, [r3, #4]
30005a2a:	460b      	mov	r3, r1
30005a2c:	681b      	ldr	r3, [r3, #0]
30005a2e:	60fb      	str	r3, [r7, #12]
30005a30:	68fa      	ldr	r2, [r7, #12]
30005a32:	697b      	ldr	r3, [r7, #20]
30005a34:	005b      	lsls	r3, r3, #1
30005a36:	4618      	mov	r0, r3
30005a38:	2303      	movs	r3, #3
30005a3a:	4083      	lsls	r3, r0
30005a3c:	43db      	mvns	r3, r3
30005a3e:	4608      	mov	r0, r1
30005a40:	6800      	ldr	r0, [r0, #0]
30005a42:	4013      	ands	r3, r2
30005a44:	4618      	mov	r0, r3
30005a46:	460b      	mov	r3, r1
30005a48:	4602      	mov	r2, r0
30005a4a:	601a      	str	r2, [r3, #0]
30005a4c:	2301      	movs	r3, #1
30005a4e:	bf00      	nop
30005a50:	4618      	mov	r0, r3
30005a52:	3718      	adds	r7, #24
30005a54:	46bd      	mov	sp, r7
30005a56:	bd80      	pop	{r7, pc}
30005a58:	3000b5e0 	.word	0x3000b5e0

30005a5c <stm32__gpio__pull_resistor>:
30005a5c:	b580      	push	{r7, lr}
30005a5e:	b084      	sub	sp, #16
30005a60:	af00      	add	r7, sp, #0
30005a62:	6078      	str	r0, [r7, #4]
30005a64:	687b      	ldr	r3, [r7, #4]
30005a66:	891b      	ldrh	r3, [r3, #8]
30005a68:	2101      	movs	r1, #1
30005a6a:	4618      	mov	r0, r3
30005a6c:	f7ff fe76 	bl	3000575c <stm32__gpio__gpio_pinRP>
30005a70:	4603      	mov	r3, r0
30005a72:	2b00      	cmp	r3, #0
30005a74:	db01      	blt.n	30005a7a <stm32__gpio__pull_resistor+0x1e>
30005a76:	2b0f      	cmp	r3, #15
30005a78:	dd03      	ble.n	30005a82 <stm32__gpio__pull_resistor+0x26>
30005a7a:	217a      	movs	r1, #122	; 0x7a
30005a7c:	481d      	ldr	r0, [pc, #116]	; (30005af4 <stm32__gpio__pull_resistor+0x98>)
30005a7e:	f003 fc87 	bl	30009390 <__gnat_last_chance_handler>
30005a82:	60fb      	str	r3, [r7, #12]
30005a84:	687b      	ldr	r3, [r7, #4]
30005a86:	685b      	ldr	r3, [r3, #4]
30005a88:	2b00      	cmp	r3, #0
30005a8a:	d103      	bne.n	30005a94 <stm32__gpio__pull_resistor+0x38>
30005a8c:	217c      	movs	r1, #124	; 0x7c
30005a8e:	4819      	ldr	r0, [pc, #100]	; (30005af4 <stm32__gpio__pull_resistor+0x98>)
30005a90:	f003 fc7e 	bl	30009390 <__gnat_last_chance_handler>
30005a94:	687b      	ldr	r3, [r7, #4]
30005a96:	685b      	ldr	r3, [r3, #4]
30005a98:	330c      	adds	r3, #12
30005a9a:	681b      	ldr	r3, [r3, #0]
30005a9c:	461a      	mov	r2, r3
30005a9e:	68fb      	ldr	r3, [r7, #12]
30005aa0:	005b      	lsls	r3, r3, #1
30005aa2:	fa22 f303 	lsr.w	r3, r2, r3
30005aa6:	b2db      	uxtb	r3, r3
30005aa8:	f003 0303 	and.w	r3, r3, #3
30005aac:	b2db      	uxtb	r3, r3
30005aae:	2b00      	cmp	r3, #0
30005ab0:	d101      	bne.n	30005ab6 <stm32__gpio__pull_resistor+0x5a>
30005ab2:	2300      	movs	r3, #0
30005ab4:	e019      	b.n	30005aea <stm32__gpio__pull_resistor+0x8e>
30005ab6:	687b      	ldr	r3, [r7, #4]
30005ab8:	685b      	ldr	r3, [r3, #4]
30005aba:	2b00      	cmp	r3, #0
30005abc:	d103      	bne.n	30005ac6 <stm32__gpio__pull_resistor+0x6a>
30005abe:	217e      	movs	r1, #126	; 0x7e
30005ac0:	480c      	ldr	r0, [pc, #48]	; (30005af4 <stm32__gpio__pull_resistor+0x98>)
30005ac2:	f003 fc65 	bl	30009390 <__gnat_last_chance_handler>
30005ac6:	687b      	ldr	r3, [r7, #4]
30005ac8:	685b      	ldr	r3, [r3, #4]
30005aca:	330c      	adds	r3, #12
30005acc:	681b      	ldr	r3, [r3, #0]
30005ace:	461a      	mov	r2, r3
30005ad0:	68fb      	ldr	r3, [r7, #12]
30005ad2:	005b      	lsls	r3, r3, #1
30005ad4:	fa22 f303 	lsr.w	r3, r2, r3
30005ad8:	b2db      	uxtb	r3, r3
30005ada:	f003 0303 	and.w	r3, r3, #3
30005ade:	b2db      	uxtb	r3, r3
30005ae0:	2b01      	cmp	r3, #1
30005ae2:	d101      	bne.n	30005ae8 <stm32__gpio__pull_resistor+0x8c>
30005ae4:	2301      	movs	r3, #1
30005ae6:	e000      	b.n	30005aea <stm32__gpio__pull_resistor+0x8e>
30005ae8:	2302      	movs	r3, #2
30005aea:	bf00      	nop
30005aec:	4618      	mov	r0, r3
30005aee:	3710      	adds	r7, #16
30005af0:	46bd      	mov	sp, r7
30005af2:	bd80      	pop	{r7, pc}
30005af4:	3000b5e0 	.word	0x3000b5e0

30005af8 <stm32__gpio__set_pull_resistor>:
30005af8:	b580      	push	{r7, lr}
30005afa:	b086      	sub	sp, #24
30005afc:	af00      	add	r7, sp, #0
30005afe:	6078      	str	r0, [r7, #4]
30005b00:	460b      	mov	r3, r1
30005b02:	70fb      	strb	r3, [r7, #3]
30005b04:	687b      	ldr	r3, [r7, #4]
30005b06:	891b      	ldrh	r3, [r3, #8]
30005b08:	2101      	movs	r1, #1
30005b0a:	4618      	mov	r0, r3
30005b0c:	f7ff fe26 	bl	3000575c <stm32__gpio__gpio_pinRP>
30005b10:	4603      	mov	r3, r0
30005b12:	2b00      	cmp	r3, #0
30005b14:	db01      	blt.n	30005b1a <stm32__gpio__set_pull_resistor+0x22>
30005b16:	2b0f      	cmp	r3, #15
30005b18:	dd03      	ble.n	30005b22 <stm32__gpio__set_pull_resistor+0x2a>
30005b1a:	218f      	movs	r1, #143	; 0x8f
30005b1c:	483e      	ldr	r0, [pc, #248]	; (30005c18 <stm32__gpio__set_pull_resistor+0x120>)
30005b1e:	f003 fc37 	bl	30009390 <__gnat_last_chance_handler>
30005b22:	617b      	str	r3, [r7, #20]
30005b24:	78fb      	ldrb	r3, [r7, #3]
30005b26:	2b02      	cmp	r3, #2
30005b28:	d903      	bls.n	30005b32 <stm32__gpio__set_pull_resistor+0x3a>
30005b2a:	2191      	movs	r1, #145	; 0x91
30005b2c:	483a      	ldr	r0, [pc, #232]	; (30005c18 <stm32__gpio__set_pull_resistor+0x120>)
30005b2e:	f003 fc2f 	bl	30009390 <__gnat_last_chance_handler>
30005b32:	78fb      	ldrb	r3, [r7, #3]
30005b34:	2b00      	cmp	r3, #0
30005b36:	d002      	beq.n	30005b3e <stm32__gpio__set_pull_resistor+0x46>
30005b38:	2b01      	cmp	r3, #1
30005b3a:	d01e      	beq.n	30005b7a <stm32__gpio__set_pull_resistor+0x82>
30005b3c:	e041      	b.n	30005bc2 <stm32__gpio__set_pull_resistor+0xca>
30005b3e:	687b      	ldr	r3, [r7, #4]
30005b40:	685b      	ldr	r3, [r3, #4]
30005b42:	2b00      	cmp	r3, #0
30005b44:	d103      	bne.n	30005b4e <stm32__gpio__set_pull_resistor+0x56>
30005b46:	2193      	movs	r1, #147	; 0x93
30005b48:	4833      	ldr	r0, [pc, #204]	; (30005c18 <stm32__gpio__set_pull_resistor+0x120>)
30005b4a:	f003 fc21 	bl	30009390 <__gnat_last_chance_handler>
30005b4e:	687b      	ldr	r3, [r7, #4]
30005b50:	685b      	ldr	r3, [r3, #4]
30005b52:	f103 020c 	add.w	r2, r3, #12
30005b56:	6812      	ldr	r2, [r2, #0]
30005b58:	613a      	str	r2, [r7, #16]
30005b5a:	6939      	ldr	r1, [r7, #16]
30005b5c:	697a      	ldr	r2, [r7, #20]
30005b5e:	0052      	lsls	r2, r2, #1
30005b60:	4610      	mov	r0, r2
30005b62:	2203      	movs	r2, #3
30005b64:	4082      	lsls	r2, r0
30005b66:	43d2      	mvns	r2, r2
30005b68:	f103 000c 	add.w	r0, r3, #12
30005b6c:	6800      	ldr	r0, [r0, #0]
30005b6e:	400a      	ands	r2, r1
30005b70:	4610      	mov	r0, r2
30005b72:	330c      	adds	r3, #12
30005b74:	4602      	mov	r2, r0
30005b76:	601a      	str	r2, [r3, #0]
30005b78:	e046      	b.n	30005c08 <stm32__gpio__set_pull_resistor+0x110>
30005b7a:	687b      	ldr	r3, [r7, #4]
30005b7c:	685b      	ldr	r3, [r3, #4]
30005b7e:	2b00      	cmp	r3, #0
30005b80:	d103      	bne.n	30005b8a <stm32__gpio__set_pull_resistor+0x92>
30005b82:	2195      	movs	r1, #149	; 0x95
30005b84:	4824      	ldr	r0, [pc, #144]	; (30005c18 <stm32__gpio__set_pull_resistor+0x120>)
30005b86:	f003 fc03 	bl	30009390 <__gnat_last_chance_handler>
30005b8a:	687b      	ldr	r3, [r7, #4]
30005b8c:	685b      	ldr	r3, [r3, #4]
30005b8e:	f103 020c 	add.w	r2, r3, #12
30005b92:	6812      	ldr	r2, [r2, #0]
30005b94:	60fa      	str	r2, [r7, #12]
30005b96:	68f9      	ldr	r1, [r7, #12]
30005b98:	697a      	ldr	r2, [r7, #20]
30005b9a:	0052      	lsls	r2, r2, #1
30005b9c:	4610      	mov	r0, r2
30005b9e:	2203      	movs	r2, #3
30005ba0:	4082      	lsls	r2, r0
30005ba2:	43d2      	mvns	r2, r2
30005ba4:	4011      	ands	r1, r2
30005ba6:	697a      	ldr	r2, [r7, #20]
30005ba8:	0052      	lsls	r2, r2, #1
30005baa:	4610      	mov	r0, r2
30005bac:	2201      	movs	r2, #1
30005bae:	4082      	lsls	r2, r0
30005bb0:	f103 000c 	add.w	r0, r3, #12
30005bb4:	6800      	ldr	r0, [r0, #0]
30005bb6:	430a      	orrs	r2, r1
30005bb8:	4610      	mov	r0, r2
30005bba:	330c      	adds	r3, #12
30005bbc:	4602      	mov	r2, r0
30005bbe:	601a      	str	r2, [r3, #0]
30005bc0:	e022      	b.n	30005c08 <stm32__gpio__set_pull_resistor+0x110>
30005bc2:	687b      	ldr	r3, [r7, #4]
30005bc4:	685b      	ldr	r3, [r3, #4]
30005bc6:	2b00      	cmp	r3, #0
30005bc8:	d103      	bne.n	30005bd2 <stm32__gpio__set_pull_resistor+0xda>
30005bca:	2197      	movs	r1, #151	; 0x97
30005bcc:	4812      	ldr	r0, [pc, #72]	; (30005c18 <stm32__gpio__set_pull_resistor+0x120>)
30005bce:	f003 fbdf 	bl	30009390 <__gnat_last_chance_handler>
30005bd2:	687b      	ldr	r3, [r7, #4]
30005bd4:	685b      	ldr	r3, [r3, #4]
30005bd6:	f103 020c 	add.w	r2, r3, #12
30005bda:	6812      	ldr	r2, [r2, #0]
30005bdc:	60ba      	str	r2, [r7, #8]
30005bde:	68b9      	ldr	r1, [r7, #8]
30005be0:	697a      	ldr	r2, [r7, #20]
30005be2:	0052      	lsls	r2, r2, #1
30005be4:	4610      	mov	r0, r2
30005be6:	2203      	movs	r2, #3
30005be8:	4082      	lsls	r2, r0
30005bea:	43d2      	mvns	r2, r2
30005bec:	4011      	ands	r1, r2
30005bee:	697a      	ldr	r2, [r7, #20]
30005bf0:	0052      	lsls	r2, r2, #1
30005bf2:	4610      	mov	r0, r2
30005bf4:	2202      	movs	r2, #2
30005bf6:	4082      	lsls	r2, r0
30005bf8:	f103 000c 	add.w	r0, r3, #12
30005bfc:	6800      	ldr	r0, [r0, #0]
30005bfe:	430a      	orrs	r2, r1
30005c00:	4610      	mov	r0, r2
30005c02:	330c      	adds	r3, #12
30005c04:	4602      	mov	r2, r0
30005c06:	601a      	str	r2, [r3, #0]
30005c08:	bf00      	nop
30005c0a:	2301      	movs	r3, #1
30005c0c:	bf00      	nop
30005c0e:	4618      	mov	r0, r3
30005c10:	3718      	adds	r7, #24
30005c12:	46bd      	mov	sp, r7
30005c14:	bd80      	pop	{r7, pc}
30005c16:	bf00      	nop
30005c18:	3000b5e0 	.word	0x3000b5e0

30005c1c <stm32__gpio__set>:
30005c1c:	b580      	push	{r7, lr}
30005c1e:	b084      	sub	sp, #16
30005c20:	af00      	add	r7, sp, #0
30005c22:	6078      	str	r0, [r7, #4]
30005c24:	687b      	ldr	r3, [r7, #4]
30005c26:	891b      	ldrh	r3, [r3, #8]
30005c28:	81fb      	strh	r3, [r7, #14]
30005c2a:	687b      	ldr	r3, [r7, #4]
30005c2c:	685b      	ldr	r3, [r3, #4]
30005c2e:	2b00      	cmp	r3, #0
30005c30:	d103      	bne.n	30005c3a <stm32__gpio__set+0x1e>
30005c32:	21a4      	movs	r1, #164	; 0xa4
30005c34:	480a      	ldr	r0, [pc, #40]	; (30005c60 <stm32__gpio__set+0x44>)
30005c36:	f003 fbab 	bl	30009390 <__gnat_last_chance_handler>
30005c3a:	687b      	ldr	r3, [r7, #4]
30005c3c:	685b      	ldr	r3, [r3, #4]
30005c3e:	3310      	adds	r3, #16
30005c40:	681b      	ldr	r3, [r3, #0]
30005c42:	b29a      	uxth	r2, r3
30005c44:	89fb      	ldrh	r3, [r7, #14]
30005c46:	4013      	ands	r3, r2
30005c48:	b29b      	uxth	r3, r3
30005c4a:	89fa      	ldrh	r2, [r7, #14]
30005c4c:	429a      	cmp	r2, r3
30005c4e:	bf0c      	ite	eq
30005c50:	2301      	moveq	r3, #1
30005c52:	2300      	movne	r3, #0
30005c54:	b2db      	uxtb	r3, r3
30005c56:	bf00      	nop
30005c58:	4618      	mov	r0, r3
30005c5a:	3710      	adds	r7, #16
30005c5c:	46bd      	mov	sp, r7
30005c5e:	bd80      	pop	{r7, pc}
30005c60:	3000b5e0 	.word	0x3000b5e0

30005c64 <stm32__gpio__set__2>:
30005c64:	b5b0      	push	{r4, r5, r7, lr}
30005c66:	b082      	sub	sp, #8
30005c68:	af00      	add	r7, sp, #0
30005c6a:	6078      	str	r0, [r7, #4]
30005c6c:	6878      	ldr	r0, [r7, #4]
30005c6e:	f7ff fe4f 	bl	30005910 <stm32__gpio__mode>
30005c72:	4603      	mov	r3, r0
30005c74:	2b02      	cmp	r3, #2
30005c76:	d005      	beq.n	30005c84 <stm32__gpio__set__2+0x20>
30005c78:	4c0e      	ldr	r4, [pc, #56]	; (30005cb4 <stm32__gpio__set__2+0x50>)
30005c7a:	4d0f      	ldr	r5, [pc, #60]	; (30005cb8 <stm32__gpio__set__2+0x54>)
30005c7c:	4620      	mov	r0, r4
30005c7e:	4629      	mov	r1, r5
30005c80:	f003 fd8e 	bl	300097a0 <system__assertions__raise_assert_failure>
30005c84:	687b      	ldr	r3, [r7, #4]
30005c86:	685b      	ldr	r3, [r3, #4]
30005c88:	2b00      	cmp	r3, #0
30005c8a:	d103      	bne.n	30005c94 <stm32__gpio__set__2+0x30>
30005c8c:	21bd      	movs	r1, #189	; 0xbd
30005c8e:	480b      	ldr	r0, [pc, #44]	; (30005cbc <stm32__gpio__set__2+0x58>)
30005c90:	f003 fb7e 	bl	30009390 <__gnat_last_chance_handler>
30005c94:	687b      	ldr	r3, [r7, #4]
30005c96:	685b      	ldr	r3, [r3, #4]
30005c98:	3318      	adds	r3, #24
30005c9a:	681b      	ldr	r3, [r3, #0]
30005c9c:	687a      	ldr	r2, [r7, #4]
30005c9e:	8912      	ldrh	r2, [r2, #8]
30005ca0:	f362 030f 	bfi	r3, r2, #0, #16
30005ca4:	687a      	ldr	r2, [r7, #4]
30005ca6:	6852      	ldr	r2, [r2, #4]
30005ca8:	3218      	adds	r2, #24
30005caa:	6013      	str	r3, [r2, #0]
30005cac:	3708      	adds	r7, #8
30005cae:	46bd      	mov	sp, r7
30005cb0:	bdb0      	pop	{r4, r5, r7, pc}
30005cb2:	bf00      	nop
30005cb4:	3000b5f0 	.word	0x3000b5f0
30005cb8:	3000b624 	.word	0x3000b624
30005cbc:	3000b5e0 	.word	0x3000b5e0

30005cc0 <stm32__gpio__clear>:
30005cc0:	b5b0      	push	{r4, r5, r7, lr}
30005cc2:	b082      	sub	sp, #8
30005cc4:	af00      	add	r7, sp, #0
30005cc6:	6078      	str	r0, [r7, #4]
30005cc8:	6878      	ldr	r0, [r7, #4]
30005cca:	f7ff fe21 	bl	30005910 <stm32__gpio__mode>
30005cce:	4603      	mov	r3, r0
30005cd0:	2b02      	cmp	r3, #2
30005cd2:	d005      	beq.n	30005ce0 <stm32__gpio__clear+0x20>
30005cd4:	4c0e      	ldr	r4, [pc, #56]	; (30005d10 <stm32__gpio__clear+0x50>)
30005cd6:	4d0f      	ldr	r5, [pc, #60]	; (30005d14 <stm32__gpio__clear+0x54>)
30005cd8:	4620      	mov	r0, r4
30005cda:	4629      	mov	r1, r5
30005cdc:	f003 fd60 	bl	300097a0 <system__assertions__raise_assert_failure>
30005ce0:	687b      	ldr	r3, [r7, #4]
30005ce2:	685b      	ldr	r3, [r3, #4]
30005ce4:	2b00      	cmp	r3, #0
30005ce6:	d103      	bne.n	30005cf0 <stm32__gpio__clear+0x30>
30005ce8:	21d4      	movs	r1, #212	; 0xd4
30005cea:	480b      	ldr	r0, [pc, #44]	; (30005d18 <stm32__gpio__clear+0x58>)
30005cec:	f003 fb50 	bl	30009390 <__gnat_last_chance_handler>
30005cf0:	687b      	ldr	r3, [r7, #4]
30005cf2:	685b      	ldr	r3, [r3, #4]
30005cf4:	3318      	adds	r3, #24
30005cf6:	681b      	ldr	r3, [r3, #0]
30005cf8:	687a      	ldr	r2, [r7, #4]
30005cfa:	8912      	ldrh	r2, [r2, #8]
30005cfc:	f362 431f 	bfi	r3, r2, #16, #16
30005d00:	687a      	ldr	r2, [r7, #4]
30005d02:	6852      	ldr	r2, [r2, #4]
30005d04:	3218      	adds	r2, #24
30005d06:	6013      	str	r3, [r2, #0]
30005d08:	3708      	adds	r7, #8
30005d0a:	46bd      	mov	sp, r7
30005d0c:	bdb0      	pop	{r4, r5, r7, pc}
30005d0e:	bf00      	nop
30005d10:	3000b62c 	.word	0x3000b62c
30005d14:	3000b624 	.word	0x3000b624
30005d18:	3000b5e0 	.word	0x3000b5e0

30005d1c <stm32__gpio__toggle>:
30005d1c:	b5b0      	push	{r4, r5, r7, lr}
30005d1e:	b082      	sub	sp, #8
30005d20:	af00      	add	r7, sp, #0
30005d22:	6078      	str	r0, [r7, #4]
30005d24:	6878      	ldr	r0, [r7, #4]
30005d26:	f7ff fdf3 	bl	30005910 <stm32__gpio__mode>
30005d2a:	4603      	mov	r3, r0
30005d2c:	2b02      	cmp	r3, #2
30005d2e:	d005      	beq.n	30005d3c <stm32__gpio__toggle+0x20>
30005d30:	4c15      	ldr	r4, [pc, #84]	; (30005d88 <stm32__gpio__toggle+0x6c>)
30005d32:	4d16      	ldr	r5, [pc, #88]	; (30005d8c <stm32__gpio__toggle+0x70>)
30005d34:	4620      	mov	r0, r4
30005d36:	4629      	mov	r1, r5
30005d38:	f003 fd32 	bl	300097a0 <system__assertions__raise_assert_failure>
30005d3c:	687b      	ldr	r3, [r7, #4]
30005d3e:	685b      	ldr	r3, [r3, #4]
30005d40:	2b00      	cmp	r3, #0
30005d42:	d103      	bne.n	30005d4c <stm32__gpio__toggle+0x30>
30005d44:	21eb      	movs	r1, #235	; 0xeb
30005d46:	4812      	ldr	r0, [pc, #72]	; (30005d90 <stm32__gpio__toggle+0x74>)
30005d48:	f003 fb22 	bl	30009390 <__gnat_last_chance_handler>
30005d4c:	687b      	ldr	r3, [r7, #4]
30005d4e:	685b      	ldr	r3, [r3, #4]
30005d50:	2b00      	cmp	r3, #0
30005d52:	d103      	bne.n	30005d5c <stm32__gpio__toggle+0x40>
30005d54:	21eb      	movs	r1, #235	; 0xeb
30005d56:	480e      	ldr	r0, [pc, #56]	; (30005d90 <stm32__gpio__toggle+0x74>)
30005d58:	f003 fb1a 	bl	30009390 <__gnat_last_chance_handler>
30005d5c:	687b      	ldr	r3, [r7, #4]
30005d5e:	685b      	ldr	r3, [r3, #4]
30005d60:	3314      	adds	r3, #20
30005d62:	681b      	ldr	r3, [r3, #0]
30005d64:	b299      	uxth	r1, r3
30005d66:	687b      	ldr	r3, [r7, #4]
30005d68:	891a      	ldrh	r2, [r3, #8]
30005d6a:	687b      	ldr	r3, [r7, #4]
30005d6c:	685b      	ldr	r3, [r3, #4]
30005d6e:	3314      	adds	r3, #20
30005d70:	681b      	ldr	r3, [r3, #0]
30005d72:	404a      	eors	r2, r1
30005d74:	b292      	uxth	r2, r2
30005d76:	f362 030f 	bfi	r3, r2, #0, #16
30005d7a:	687a      	ldr	r2, [r7, #4]
30005d7c:	6852      	ldr	r2, [r2, #4]
30005d7e:	3214      	adds	r2, #20
30005d80:	6013      	str	r3, [r2, #0]
30005d82:	3708      	adds	r7, #8
30005d84:	46bd      	mov	sp, r7
30005d86:	bdb0      	pop	{r4, r5, r7, pc}
30005d88:	3000b660 	.word	0x3000b660
30005d8c:	3000b624 	.word	0x3000b624
30005d90:	3000b5e0 	.word	0x3000b5e0

30005d94 <stm32__gpio__locked>:
30005d94:	b580      	push	{r7, lr}
30005d96:	b084      	sub	sp, #16
30005d98:	af00      	add	r7, sp, #0
30005d9a:	6078      	str	r0, [r7, #4]
30005d9c:	687b      	ldr	r3, [r7, #4]
30005d9e:	891b      	ldrh	r3, [r3, #8]
30005da0:	81fb      	strh	r3, [r7, #14]
30005da2:	687b      	ldr	r3, [r7, #4]
30005da4:	685b      	ldr	r3, [r3, #4]
30005da6:	2b00      	cmp	r3, #0
30005da8:	d104      	bne.n	30005db4 <stm32__gpio__locked+0x20>
30005daa:	f44f 7180 	mov.w	r1, #256	; 0x100
30005dae:	480b      	ldr	r0, [pc, #44]	; (30005ddc <stm32__gpio__locked+0x48>)
30005db0:	f003 faee 	bl	30009390 <__gnat_last_chance_handler>
30005db4:	687b      	ldr	r3, [r7, #4]
30005db6:	685b      	ldr	r3, [r3, #4]
30005db8:	331c      	adds	r3, #28
30005dba:	681b      	ldr	r3, [r3, #0]
30005dbc:	b29a      	uxth	r2, r3
30005dbe:	89fb      	ldrh	r3, [r7, #14]
30005dc0:	4013      	ands	r3, r2
30005dc2:	b29b      	uxth	r3, r3
30005dc4:	89fa      	ldrh	r2, [r7, #14]
30005dc6:	429a      	cmp	r2, r3
30005dc8:	bf0c      	ite	eq
30005dca:	2301      	moveq	r3, #1
30005dcc:	2300      	movne	r3, #0
30005dce:	b2db      	uxtb	r3, r3
30005dd0:	bf00      	nop
30005dd2:	4618      	mov	r0, r3
30005dd4:	3710      	adds	r7, #16
30005dd6:	46bd      	mov	sp, r7
30005dd8:	bd80      	pop	{r7, pc}
30005dda:	bf00      	nop
30005ddc:	3000b5e0 	.word	0x3000b5e0

30005de0 <stm32__gpio__lock_the_pin>:
30005de0:	b480      	push	{r7}
30005de2:	b085      	sub	sp, #20
30005de4:	af00      	add	r7, sp, #0
30005de6:	6078      	str	r0, [r7, #4]
30005de8:	460b      	mov	r3, r1
30005dea:	807b      	strh	r3, [r7, #2]
30005dec:	6879      	ldr	r1, [r7, #4]
30005dee:	8878      	ldrh	r0, [r7, #2]
30005df0:	f440 3380 	orr.w	r3, r0, #65536	; 0x10000
30005df4:	60fb      	str	r3, [r7, #12]
30005df6:	68fb      	ldr	r3, [r7, #12]
30005df8:	61cb      	str	r3, [r1, #28]
30005dfa:	61c8      	str	r0, [r1, #28]
30005dfc:	68fb      	ldr	r3, [r7, #12]
30005dfe:	61cb      	str	r3, [r1, #28]
30005e00:	69cb      	ldr	r3, [r1, #28]
30005e02:	60fb      	str	r3, [r7, #12]
30005e04:	69cb      	ldr	r3, [r1, #28]
30005e06:	60fb      	str	r3, [r7, #12]
30005e08:	3714      	adds	r7, #20
30005e0a:	46bd      	mov	sp, r7
30005e0c:	f85d 7b04 	ldr.w	r7, [sp], #4
30005e10:	4770      	bx	lr
30005e12:	bf00      	nop

30005e14 <stm32__gpio__lock___postconditions.6823>:
30005e14:	b5b0      	push	{r4, r5, r7, lr}
30005e16:	b082      	sub	sp, #8
30005e18:	af00      	add	r7, sp, #0
30005e1a:	4663      	mov	r3, ip
30005e1c:	f8c7 c004 	str.w	ip, [r7, #4]
30005e20:	681b      	ldr	r3, [r3, #0]
30005e22:	4618      	mov	r0, r3
30005e24:	f7ff ffb6 	bl	30005d94 <stm32__gpio__locked>
30005e28:	4603      	mov	r3, r0
30005e2a:	f083 0301 	eor.w	r3, r3, #1
30005e2e:	b2db      	uxtb	r3, r3
30005e30:	2b00      	cmp	r3, #0
30005e32:	d005      	beq.n	30005e40 <stm32__gpio__lock___postconditions.6823+0x2c>
30005e34:	4c04      	ldr	r4, [pc, #16]	; (30005e48 <stm32__gpio__lock___postconditions.6823+0x34>)
30005e36:	4d05      	ldr	r5, [pc, #20]	; (30005e4c <stm32__gpio__lock___postconditions.6823+0x38>)
30005e38:	4620      	mov	r0, r4
30005e3a:	4629      	mov	r1, r5
30005e3c:	f003 fcb0 	bl	300097a0 <system__assertions__raise_assert_failure>
30005e40:	3708      	adds	r7, #8
30005e42:	46bd      	mov	sp, r7
30005e44:	bdb0      	pop	{r4, r5, r7, pc}
30005e46:	bf00      	nop
30005e48:	3000b694 	.word	0x3000b694
30005e4c:	3000b6c4 	.word	0x3000b6c4

30005e50 <stm32__gpio__lock>:
30005e50:	b5b0      	push	{r4, r5, r7, lr}
30005e52:	b084      	sub	sp, #16
30005e54:	af00      	add	r7, sp, #0
30005e56:	6078      	str	r0, [r7, #4]
30005e58:	f107 0320 	add.w	r3, r7, #32
30005e5c:	60fb      	str	r3, [r7, #12]
30005e5e:	687b      	ldr	r3, [r7, #4]
30005e60:	60bb      	str	r3, [r7, #8]
30005e62:	68bb      	ldr	r3, [r7, #8]
30005e64:	4618      	mov	r0, r3
30005e66:	f7ff ff95 	bl	30005d94 <stm32__gpio__locked>
30005e6a:	4603      	mov	r3, r0
30005e6c:	2b00      	cmp	r3, #0
30005e6e:	d005      	beq.n	30005e7c <stm32__gpio__lock+0x2c>
30005e70:	4c0f      	ldr	r4, [pc, #60]	; (30005eb0 <stm32__gpio__lock+0x60>)
30005e72:	4d10      	ldr	r5, [pc, #64]	; (30005eb4 <stm32__gpio__lock+0x64>)
30005e74:	4620      	mov	r0, r4
30005e76:	4629      	mov	r1, r5
30005e78:	f003 fc92 	bl	300097a0 <system__assertions__raise_assert_failure>
30005e7c:	68bb      	ldr	r3, [r7, #8]
30005e7e:	685b      	ldr	r3, [r3, #4]
30005e80:	2b00      	cmp	r3, #0
30005e82:	d104      	bne.n	30005e8e <stm32__gpio__lock+0x3e>
30005e84:	f44f 71a2 	mov.w	r1, #324	; 0x144
30005e88:	480b      	ldr	r0, [pc, #44]	; (30005eb8 <stm32__gpio__lock+0x68>)
30005e8a:	f003 fa81 	bl	30009390 <__gnat_last_chance_handler>
30005e8e:	68bb      	ldr	r3, [r7, #8]
30005e90:	685a      	ldr	r2, [r3, #4]
30005e92:	68bb      	ldr	r3, [r7, #8]
30005e94:	891b      	ldrh	r3, [r3, #8]
30005e96:	4619      	mov	r1, r3
30005e98:	4610      	mov	r0, r2
30005e9a:	f7ff ffa1 	bl	30005de0 <stm32__gpio__lock_the_pin>
30005e9e:	f107 0308 	add.w	r3, r7, #8
30005ea2:	469c      	mov	ip, r3
30005ea4:	f7ff ffb6 	bl	30005e14 <stm32__gpio__lock___postconditions.6823>
30005ea8:	3710      	adds	r7, #16
30005eaa:	46bd      	mov	sp, r7
30005eac:	bdb0      	pop	{r4, r5, r7, pc}
30005eae:	bf00      	nop
30005eb0:	3000b6cc 	.word	0x3000b6cc
30005eb4:	3000b6f8 	.word	0x3000b6f8
30005eb8:	3000b5e0 	.word	0x3000b5e0

30005ebc <stm32__gpio__configure_io>:
30005ebc:	b580      	push	{r7, lr}
30005ebe:	b088      	sub	sp, #32
30005ec0:	af00      	add	r7, sp, #0
30005ec2:	6078      	str	r0, [r7, #4]
30005ec4:	6039      	str	r1, [r7, #0]
30005ec6:	687b      	ldr	r3, [r7, #4]
30005ec8:	891b      	ldrh	r3, [r3, #8]
30005eca:	2101      	movs	r1, #1
30005ecc:	4618      	mov	r0, r3
30005ece:	f7ff fc45 	bl	3000575c <stm32__gpio__gpio_pinRP>
30005ed2:	4603      	mov	r3, r0
30005ed4:	2b00      	cmp	r3, #0
30005ed6:	db01      	blt.n	30005edc <stm32__gpio__configure_io+0x20>
30005ed8:	2b0f      	cmp	r3, #15
30005eda:	dd04      	ble.n	30005ee6 <stm32__gpio__configure_io+0x2a>
30005edc:	f44f 71ae 	mov.w	r1, #348	; 0x15c
30005ee0:	486c      	ldr	r0, [pc, #432]	; (30006094 <stm32__gpio__configure_io+0x1d8>)
30005ee2:	f003 fa55 	bl	30009390 <__gnat_last_chance_handler>
30005ee6:	61fb      	str	r3, [r7, #28]
30005ee8:	687b      	ldr	r3, [r7, #4]
30005eea:	685b      	ldr	r3, [r3, #4]
30005eec:	2b00      	cmp	r3, #0
30005eee:	d104      	bne.n	30005efa <stm32__gpio__configure_io+0x3e>
30005ef0:	f44f 71af 	mov.w	r1, #350	; 0x15e
30005ef4:	4867      	ldr	r0, [pc, #412]	; (30006094 <stm32__gpio__configure_io+0x1d8>)
30005ef6:	f003 fa4b 	bl	30009390 <__gnat_last_chance_handler>
30005efa:	687b      	ldr	r3, [r7, #4]
30005efc:	685b      	ldr	r3, [r3, #4]
30005efe:	3330      	adds	r3, #48	; 0x30
30005f00:	681b      	ldr	r3, [r3, #0]
30005f02:	b29b      	uxth	r3, r3
30005f04:	833b      	strh	r3, [r7, #24]
30005f06:	8b3a      	ldrh	r2, [r7, #24]
30005f08:	69fb      	ldr	r3, [r7, #28]
30005f0a:	2101      	movs	r1, #1
30005f0c:	fa01 f303 	lsl.w	r3, r1, r3
30005f10:	b29b      	uxth	r3, r3
30005f12:	43db      	mvns	r3, r3
30005f14:	b29b      	uxth	r3, r3
30005f16:	4013      	ands	r3, r2
30005f18:	b299      	uxth	r1, r3
30005f1a:	683b      	ldr	r3, [r7, #0]
30005f1c:	791b      	ldrb	r3, [r3, #4]
30005f1e:	b29a      	uxth	r2, r3
30005f20:	69fb      	ldr	r3, [r7, #28]
30005f22:	fa02 f303 	lsl.w	r3, r2, r3
30005f26:	b29a      	uxth	r2, r3
30005f28:	687b      	ldr	r3, [r7, #4]
30005f2a:	685b      	ldr	r3, [r3, #4]
30005f2c:	3330      	adds	r3, #48	; 0x30
30005f2e:	681b      	ldr	r3, [r3, #0]
30005f30:	430a      	orrs	r2, r1
30005f32:	b292      	uxth	r2, r2
30005f34:	f362 030f 	bfi	r3, r2, #0, #16
30005f38:	687a      	ldr	r2, [r7, #4]
30005f3a:	6852      	ldr	r2, [r2, #4]
30005f3c:	3230      	adds	r2, #48	; 0x30
30005f3e:	6013      	str	r3, [r2, #0]
30005f40:	687b      	ldr	r3, [r7, #4]
30005f42:	685b      	ldr	r3, [r3, #4]
30005f44:	2b00      	cmp	r3, #0
30005f46:	d104      	bne.n	30005f52 <stm32__gpio__configure_io+0x96>
30005f48:	f240 115f 	movw	r1, #351	; 0x15f
30005f4c:	4851      	ldr	r0, [pc, #324]	; (30006094 <stm32__gpio__configure_io+0x1d8>)
30005f4e:	f003 fa1f 	bl	30009390 <__gnat_last_chance_handler>
30005f52:	687b      	ldr	r3, [r7, #4]
30005f54:	685b      	ldr	r3, [r3, #4]
30005f56:	681b      	ldr	r3, [r3, #0]
30005f58:	617b      	str	r3, [r7, #20]
30005f5a:	697a      	ldr	r2, [r7, #20]
30005f5c:	69fb      	ldr	r3, [r7, #28]
30005f5e:	005b      	lsls	r3, r3, #1
30005f60:	4619      	mov	r1, r3
30005f62:	2303      	movs	r3, #3
30005f64:	408b      	lsls	r3, r1
30005f66:	43db      	mvns	r3, r3
30005f68:	401a      	ands	r2, r3
30005f6a:	683b      	ldr	r3, [r7, #0]
30005f6c:	781b      	ldrb	r3, [r3, #0]
30005f6e:	4619      	mov	r1, r3
30005f70:	69fb      	ldr	r3, [r7, #28]
30005f72:	005b      	lsls	r3, r3, #1
30005f74:	fa01 f303 	lsl.w	r3, r1, r3
30005f78:	6879      	ldr	r1, [r7, #4]
30005f7a:	6849      	ldr	r1, [r1, #4]
30005f7c:	6809      	ldr	r1, [r1, #0]
30005f7e:	4313      	orrs	r3, r2
30005f80:	4619      	mov	r1, r3
30005f82:	687b      	ldr	r3, [r7, #4]
30005f84:	685b      	ldr	r3, [r3, #4]
30005f86:	460a      	mov	r2, r1
30005f88:	601a      	str	r2, [r3, #0]
30005f8a:	687b      	ldr	r3, [r7, #4]
30005f8c:	685b      	ldr	r3, [r3, #4]
30005f8e:	2b00      	cmp	r3, #0
30005f90:	d104      	bne.n	30005f9c <stm32__gpio__configure_io+0xe0>
30005f92:	f44f 71b0 	mov.w	r1, #352	; 0x160
30005f96:	483f      	ldr	r0, [pc, #252]	; (30006094 <stm32__gpio__configure_io+0x1d8>)
30005f98:	f003 f9fa 	bl	30009390 <__gnat_last_chance_handler>
30005f9c:	687b      	ldr	r3, [r7, #4]
30005f9e:	685b      	ldr	r3, [r3, #4]
30005fa0:	3304      	adds	r3, #4
30005fa2:	681b      	ldr	r3, [r3, #0]
30005fa4:	b29b      	uxth	r3, r3
30005fa6:	823b      	strh	r3, [r7, #16]
30005fa8:	8a3a      	ldrh	r2, [r7, #16]
30005faa:	69fb      	ldr	r3, [r7, #28]
30005fac:	2101      	movs	r1, #1
30005fae:	fa01 f303 	lsl.w	r3, r1, r3
30005fb2:	b29b      	uxth	r3, r3
30005fb4:	43db      	mvns	r3, r3
30005fb6:	b29b      	uxth	r3, r3
30005fb8:	4013      	ands	r3, r2
30005fba:	b299      	uxth	r1, r3
30005fbc:	683b      	ldr	r3, [r7, #0]
30005fbe:	785b      	ldrb	r3, [r3, #1]
30005fc0:	2b01      	cmp	r3, #1
30005fc2:	bf0c      	ite	eq
30005fc4:	2301      	moveq	r3, #1
30005fc6:	2300      	movne	r3, #0
30005fc8:	b2db      	uxtb	r3, r3
30005fca:	b29a      	uxth	r2, r3
30005fcc:	69fb      	ldr	r3, [r7, #28]
30005fce:	fa02 f303 	lsl.w	r3, r2, r3
30005fd2:	b29a      	uxth	r2, r3
30005fd4:	687b      	ldr	r3, [r7, #4]
30005fd6:	685b      	ldr	r3, [r3, #4]
30005fd8:	3304      	adds	r3, #4
30005fda:	681b      	ldr	r3, [r3, #0]
30005fdc:	430a      	orrs	r2, r1
30005fde:	b292      	uxth	r2, r2
30005fe0:	f362 030f 	bfi	r3, r2, #0, #16
30005fe4:	687a      	ldr	r2, [r7, #4]
30005fe6:	6852      	ldr	r2, [r2, #4]
30005fe8:	3204      	adds	r2, #4
30005fea:	6013      	str	r3, [r2, #0]
30005fec:	687b      	ldr	r3, [r7, #4]
30005fee:	685b      	ldr	r3, [r3, #4]
30005ff0:	2b00      	cmp	r3, #0
30005ff2:	d104      	bne.n	30005ffe <stm32__gpio__configure_io+0x142>
30005ff4:	f240 1161 	movw	r1, #353	; 0x161
30005ff8:	4826      	ldr	r0, [pc, #152]	; (30006094 <stm32__gpio__configure_io+0x1d8>)
30005ffa:	f003 f9c9 	bl	30009390 <__gnat_last_chance_handler>
30005ffe:	687b      	ldr	r3, [r7, #4]
30006000:	685b      	ldr	r3, [r3, #4]
30006002:	3308      	adds	r3, #8
30006004:	681b      	ldr	r3, [r3, #0]
30006006:	60fb      	str	r3, [r7, #12]
30006008:	68fa      	ldr	r2, [r7, #12]
3000600a:	69fb      	ldr	r3, [r7, #28]
3000600c:	005b      	lsls	r3, r3, #1
3000600e:	4619      	mov	r1, r3
30006010:	2303      	movs	r3, #3
30006012:	408b      	lsls	r3, r1
30006014:	43db      	mvns	r3, r3
30006016:	401a      	ands	r2, r3
30006018:	683b      	ldr	r3, [r7, #0]
3000601a:	789b      	ldrb	r3, [r3, #2]
3000601c:	4619      	mov	r1, r3
3000601e:	69fb      	ldr	r3, [r7, #28]
30006020:	005b      	lsls	r3, r3, #1
30006022:	fa01 f303 	lsl.w	r3, r1, r3
30006026:	6879      	ldr	r1, [r7, #4]
30006028:	6849      	ldr	r1, [r1, #4]
3000602a:	3108      	adds	r1, #8
3000602c:	6809      	ldr	r1, [r1, #0]
3000602e:	4313      	orrs	r3, r2
30006030:	4619      	mov	r1, r3
30006032:	687b      	ldr	r3, [r7, #4]
30006034:	685b      	ldr	r3, [r3, #4]
30006036:	3308      	adds	r3, #8
30006038:	460a      	mov	r2, r1
3000603a:	601a      	str	r2, [r3, #0]
3000603c:	687b      	ldr	r3, [r7, #4]
3000603e:	685b      	ldr	r3, [r3, #4]
30006040:	2b00      	cmp	r3, #0
30006042:	d104      	bne.n	3000604e <stm32__gpio__configure_io+0x192>
30006044:	f44f 71b1 	mov.w	r1, #354	; 0x162
30006048:	4812      	ldr	r0, [pc, #72]	; (30006094 <stm32__gpio__configure_io+0x1d8>)
3000604a:	f003 f9a1 	bl	30009390 <__gnat_last_chance_handler>
3000604e:	687b      	ldr	r3, [r7, #4]
30006050:	685b      	ldr	r3, [r3, #4]
30006052:	330c      	adds	r3, #12
30006054:	681b      	ldr	r3, [r3, #0]
30006056:	60bb      	str	r3, [r7, #8]
30006058:	68ba      	ldr	r2, [r7, #8]
3000605a:	69fb      	ldr	r3, [r7, #28]
3000605c:	005b      	lsls	r3, r3, #1
3000605e:	4619      	mov	r1, r3
30006060:	2303      	movs	r3, #3
30006062:	408b      	lsls	r3, r1
30006064:	43db      	mvns	r3, r3
30006066:	401a      	ands	r2, r3
30006068:	683b      	ldr	r3, [r7, #0]
3000606a:	78db      	ldrb	r3, [r3, #3]
3000606c:	4619      	mov	r1, r3
3000606e:	69fb      	ldr	r3, [r7, #28]
30006070:	005b      	lsls	r3, r3, #1
30006072:	fa01 f303 	lsl.w	r3, r1, r3
30006076:	6879      	ldr	r1, [r7, #4]
30006078:	6849      	ldr	r1, [r1, #4]
3000607a:	310c      	adds	r1, #12
3000607c:	6809      	ldr	r1, [r1, #0]
3000607e:	4313      	orrs	r3, r2
30006080:	4619      	mov	r1, r3
30006082:	687b      	ldr	r3, [r7, #4]
30006084:	685b      	ldr	r3, [r3, #4]
30006086:	330c      	adds	r3, #12
30006088:	460a      	mov	r2, r1
3000608a:	601a      	str	r2, [r3, #0]
3000608c:	3720      	adds	r7, #32
3000608e:	46bd      	mov	sp, r7
30006090:	bd80      	pop	{r7, pc}
30006092:	bf00      	nop
30006094:	3000b5e0 	.word	0x3000b5e0

30006098 <stm32__gpio__configure_io__2>:
30006098:	b5f0      	push	{r4, r5, r6, r7, lr}
3000609a:	b087      	sub	sp, #28
3000609c:	af00      	add	r7, sp, #0
3000609e:	e9c7 0102 	strd	r0, r1, [r7, #8]
300060a2:	607a      	str	r2, [r7, #4]
300060a4:	68fb      	ldr	r3, [r7, #12]
300060a6:	681a      	ldr	r2, [r3, #0]
300060a8:	68fb      	ldr	r3, [r7, #12]
300060aa:	685b      	ldr	r3, [r3, #4]
300060ac:	4615      	mov	r5, r2
300060ae:	4614      	mov	r4, r2
300060b0:	461e      	mov	r6, r3
300060b2:	42b4      	cmp	r4, r6
300060b4:	dc17      	bgt.n	300060e6 <stm32__gpio__configure_io__2+0x4e>
300060b6:	68b8      	ldr	r0, [r7, #8]
300060b8:	4622      	mov	r2, r4
300060ba:	1b51      	subs	r1, r2, r5
300060bc:	460b      	mov	r3, r1
300060be:	005b      	lsls	r3, r3, #1
300060c0:	440b      	add	r3, r1
300060c2:	009b      	lsls	r3, r3, #2
300060c4:	4403      	add	r3, r0
300060c6:	617b      	str	r3, [r7, #20]
300060c8:	68b9      	ldr	r1, [r7, #8]
300060ca:	1b52      	subs	r2, r2, r5
300060cc:	4613      	mov	r3, r2
300060ce:	005b      	lsls	r3, r3, #1
300060d0:	4413      	add	r3, r2
300060d2:	009b      	lsls	r3, r3, #2
300060d4:	440b      	add	r3, r1
300060d6:	6879      	ldr	r1, [r7, #4]
300060d8:	4618      	mov	r0, r3
300060da:	f7ff feef 	bl	30005ebc <stm32__gpio__configure_io>
300060de:	42b4      	cmp	r4, r6
300060e0:	d001      	beq.n	300060e6 <stm32__gpio__configure_io__2+0x4e>
300060e2:	3401      	adds	r4, #1
300060e4:	e7e7      	b.n	300060b6 <stm32__gpio__configure_io__2+0x1e>
300060e6:	371c      	adds	r7, #28
300060e8:	46bd      	mov	sp, r7
300060ea:	bdf0      	pop	{r4, r5, r6, r7, pc}

300060ec <stm32__gpio__configure_alternate_function>:
300060ec:	b580      	push	{r7, lr}
300060ee:	b086      	sub	sp, #24
300060f0:	af00      	add	r7, sp, #0
300060f2:	6078      	str	r0, [r7, #4]
300060f4:	460b      	mov	r3, r1
300060f6:	70fb      	strb	r3, [r7, #3]
300060f8:	687b      	ldr	r3, [r7, #4]
300060fa:	891b      	ldrh	r3, [r3, #8]
300060fc:	2101      	movs	r1, #1
300060fe:	4618      	mov	r0, r3
30006100:	f7ff fb2c 	bl	3000575c <stm32__gpio__gpio_pinRP>
30006104:	4603      	mov	r3, r0
30006106:	2b00      	cmp	r3, #0
30006108:	db01      	blt.n	3000610e <stm32__gpio__configure_alternate_function+0x22>
3000610a:	2b0f      	cmp	r3, #15
3000610c:	dd04      	ble.n	30006118 <stm32__gpio__configure_alternate_function+0x2c>
3000610e:	f240 117b 	movw	r1, #379	; 0x17b
30006112:	4833      	ldr	r0, [pc, #204]	; (300061e0 <stm32__gpio__configure_alternate_function+0xf4>)
30006114:	f003 f93c 	bl	30009390 <__gnat_last_chance_handler>
30006118:	617b      	str	r3, [r7, #20]
3000611a:	697b      	ldr	r3, [r7, #20]
3000611c:	2b07      	cmp	r3, #7
3000611e:	dc2d      	bgt.n	3000617c <stm32__gpio__configure_alternate_function+0x90>
30006120:	687b      	ldr	r3, [r7, #4]
30006122:	685b      	ldr	r3, [r3, #4]
30006124:	2b00      	cmp	r3, #0
30006126:	d104      	bne.n	30006132 <stm32__gpio__configure_alternate_function+0x46>
30006128:	f44f 71bf 	mov.w	r1, #382	; 0x17e
3000612c:	482c      	ldr	r0, [pc, #176]	; (300061e0 <stm32__gpio__configure_alternate_function+0xf4>)
3000612e:	f003 f92f 	bl	30009390 <__gnat_last_chance_handler>
30006132:	697b      	ldr	r3, [r7, #20]
30006134:	2b07      	cmp	r3, #7
30006136:	dd04      	ble.n	30006142 <stm32__gpio__configure_alternate_function+0x56>
30006138:	f44f 71bf 	mov.w	r1, #382	; 0x17e
3000613c:	4828      	ldr	r0, [pc, #160]	; (300061e0 <stm32__gpio__configure_alternate_function+0xf4>)
3000613e:	f003 f927 	bl	30009390 <__gnat_last_chance_handler>
30006142:	687b      	ldr	r3, [r7, #4]
30006144:	685b      	ldr	r3, [r3, #4]
30006146:	3320      	adds	r3, #32
30006148:	681b      	ldr	r3, [r3, #0]
3000614a:	613b      	str	r3, [r7, #16]
3000614c:	693a      	ldr	r2, [r7, #16]
3000614e:	697b      	ldr	r3, [r7, #20]
30006150:	009b      	lsls	r3, r3, #2
30006152:	4619      	mov	r1, r3
30006154:	230f      	movs	r3, #15
30006156:	408b      	lsls	r3, r1
30006158:	43db      	mvns	r3, r3
3000615a:	401a      	ands	r2, r3
3000615c:	78fb      	ldrb	r3, [r7, #3]
3000615e:	6979      	ldr	r1, [r7, #20]
30006160:	0089      	lsls	r1, r1, #2
30006162:	408b      	lsls	r3, r1
30006164:	6879      	ldr	r1, [r7, #4]
30006166:	6849      	ldr	r1, [r1, #4]
30006168:	3120      	adds	r1, #32
3000616a:	6809      	ldr	r1, [r1, #0]
3000616c:	4313      	orrs	r3, r2
3000616e:	4619      	mov	r1, r3
30006170:	687b      	ldr	r3, [r7, #4]
30006172:	685b      	ldr	r3, [r3, #4]
30006174:	3320      	adds	r3, #32
30006176:	460a      	mov	r2, r1
30006178:	601a      	str	r2, [r3, #0]
3000617a:	e02e      	b.n	300061da <stm32__gpio__configure_alternate_function+0xee>
3000617c:	687b      	ldr	r3, [r7, #4]
3000617e:	685b      	ldr	r3, [r3, #4]
30006180:	2b00      	cmp	r3, #0
30006182:	d104      	bne.n	3000618e <stm32__gpio__configure_alternate_function+0xa2>
30006184:	f44f 71c0 	mov.w	r1, #384	; 0x180
30006188:	4815      	ldr	r0, [pc, #84]	; (300061e0 <stm32__gpio__configure_alternate_function+0xf4>)
3000618a:	f003 f901 	bl	30009390 <__gnat_last_chance_handler>
3000618e:	697b      	ldr	r3, [r7, #20]
30006190:	2b07      	cmp	r3, #7
30006192:	dc04      	bgt.n	3000619e <stm32__gpio__configure_alternate_function+0xb2>
30006194:	f44f 71c0 	mov.w	r1, #384	; 0x180
30006198:	4811      	ldr	r0, [pc, #68]	; (300061e0 <stm32__gpio__configure_alternate_function+0xf4>)
3000619a:	f003 f8f9 	bl	30009390 <__gnat_last_chance_handler>
3000619e:	687b      	ldr	r3, [r7, #4]
300061a0:	685b      	ldr	r3, [r3, #4]
300061a2:	3324      	adds	r3, #36	; 0x24
300061a4:	681b      	ldr	r3, [r3, #0]
300061a6:	60fb      	str	r3, [r7, #12]
300061a8:	68fa      	ldr	r2, [r7, #12]
300061aa:	697b      	ldr	r3, [r7, #20]
300061ac:	3b08      	subs	r3, #8
300061ae:	009b      	lsls	r3, r3, #2
300061b0:	4619      	mov	r1, r3
300061b2:	230f      	movs	r3, #15
300061b4:	408b      	lsls	r3, r1
300061b6:	43db      	mvns	r3, r3
300061b8:	401a      	ands	r2, r3
300061ba:	78fb      	ldrb	r3, [r7, #3]
300061bc:	6979      	ldr	r1, [r7, #20]
300061be:	3908      	subs	r1, #8
300061c0:	0089      	lsls	r1, r1, #2
300061c2:	408b      	lsls	r3, r1
300061c4:	6879      	ldr	r1, [r7, #4]
300061c6:	6849      	ldr	r1, [r1, #4]
300061c8:	3124      	adds	r1, #36	; 0x24
300061ca:	6809      	ldr	r1, [r1, #0]
300061cc:	4313      	orrs	r3, r2
300061ce:	4619      	mov	r1, r3
300061d0:	687b      	ldr	r3, [r7, #4]
300061d2:	685b      	ldr	r3, [r3, #4]
300061d4:	3324      	adds	r3, #36	; 0x24
300061d6:	460a      	mov	r2, r1
300061d8:	601a      	str	r2, [r3, #0]
300061da:	3718      	adds	r7, #24
300061dc:	46bd      	mov	sp, r7
300061de:	bd80      	pop	{r7, pc}
300061e0:	3000b5e0 	.word	0x3000b5e0

300061e4 <stm32__gpio__interrupt_line_number>:
300061e4:	b590      	push	{r4, r7, lr}
300061e6:	b083      	sub	sp, #12
300061e8:	af00      	add	r7, sp, #0
300061ea:	6078      	str	r0, [r7, #4]
300061ec:	687b      	ldr	r3, [r7, #4]
300061ee:	891b      	ldrh	r3, [r3, #8]
300061f0:	2101      	movs	r1, #1
300061f2:	4618      	mov	r0, r3
300061f4:	f7ff fab2 	bl	3000575c <stm32__gpio__gpio_pinRP>
300061f8:	4603      	mov	r3, r0
300061fa:	ea4f 74e3 	mov.w	r4, r3, asr #31
300061fe:	2b00      	cmp	r3, #0
30006200:	f174 0200 	sbcs.w	r2, r4, #0
30006204:	db03      	blt.n	3000620e <stm32__gpio__interrupt_line_number+0x2a>
30006206:	2b17      	cmp	r3, #23
30006208:	f174 0200 	sbcs.w	r2, r4, #0
3000620c:	db04      	blt.n	30006218 <stm32__gpio__interrupt_line_number+0x34>
3000620e:	f44f 71cd 	mov.w	r1, #410	; 0x19a
30006212:	4804      	ldr	r0, [pc, #16]	; (30006224 <stm32__gpio__interrupt_line_number+0x40>)
30006214:	f003 f8bc 	bl	30009390 <__gnat_last_chance_handler>
30006218:	b2db      	uxtb	r3, r3
3000621a:	bf00      	nop
3000621c:	4618      	mov	r0, r3
3000621e:	370c      	adds	r7, #12
30006220:	46bd      	mov	sp, r7
30006222:	bd90      	pop	{r4, r7, pc}
30006224:	3000b5e0 	.word	0x3000b5e0

30006228 <stm32__gpio__configure_trigger>:
30006228:	b590      	push	{r4, r7, lr}
3000622a:	b085      	sub	sp, #20
3000622c:	af00      	add	r7, sp, #0
3000622e:	6078      	str	r0, [r7, #4]
30006230:	460b      	mov	r3, r1
30006232:	70fb      	strb	r3, [r7, #3]
30006234:	4613      	mov	r3, r2
30006236:	70bb      	strb	r3, [r7, #2]
30006238:	687b      	ldr	r3, [r7, #4]
3000623a:	891b      	ldrh	r3, [r3, #8]
3000623c:	2101      	movs	r1, #1
3000623e:	4618      	mov	r0, r3
30006240:	f7ff fa8c 	bl	3000575c <stm32__gpio__gpio_pinRP>
30006244:	4603      	mov	r3, r0
30006246:	ea4f 74e3 	mov.w	r4, r3, asr #31
3000624a:	2b00      	cmp	r3, #0
3000624c:	f174 0200 	sbcs.w	r2, r4, #0
30006250:	db03      	blt.n	3000625a <stm32__gpio__configure_trigger+0x32>
30006252:	2b17      	cmp	r3, #23
30006254:	f174 0200 	sbcs.w	r2, r4, #0
30006258:	db04      	blt.n	30006264 <stm32__gpio__configure_trigger+0x3c>
3000625a:	f240 11a7 	movw	r1, #423	; 0x1a7
3000625e:	480f      	ldr	r0, [pc, #60]	; (3000629c <stm32__gpio__configure_trigger+0x74>)
30006260:	f003 f896 	bl	30009390 <__gnat_last_chance_handler>
30006264:	73fb      	strb	r3, [r7, #15]
30006266:	78fb      	ldrb	r3, [r7, #3]
30006268:	2b02      	cmp	r3, #2
3000626a:	d806      	bhi.n	3000627a <stm32__gpio__configure_trigger+0x52>
3000626c:	78ba      	ldrb	r2, [r7, #2]
3000626e:	78f9      	ldrb	r1, [r7, #3]
30006270:	7bfb      	ldrb	r3, [r7, #15]
30006272:	4618      	mov	r0, r3
30006274:	f7ff f8b0 	bl	300053d8 <stm32__exti__enable_external_interrupt>
30006278:	e00d      	b.n	30006296 <stm32__gpio__configure_trigger+0x6e>
3000627a:	78fb      	ldrb	r3, [r7, #3]
3000627c:	2b02      	cmp	r3, #2
3000627e:	d804      	bhi.n	3000628a <stm32__gpio__configure_trigger+0x62>
30006280:	f44f 71d8 	mov.w	r1, #432	; 0x1b0
30006284:	4805      	ldr	r0, [pc, #20]	; (3000629c <stm32__gpio__configure_trigger+0x74>)
30006286:	f003 f883 	bl	30009390 <__gnat_last_chance_handler>
3000628a:	78fa      	ldrb	r2, [r7, #3]
3000628c:	7bfb      	ldrb	r3, [r7, #15]
3000628e:	4611      	mov	r1, r2
30006290:	4618      	mov	r0, r3
30006292:	f7ff f9d5 	bl	30005640 <stm32__exti__enable_external_event>
30006296:	3714      	adds	r7, #20
30006298:	46bd      	mov	sp, r7
3000629a:	bd90      	pop	{r4, r7, pc}
3000629c:	3000b5e0 	.word	0x3000b5e0

300062a0 <stm32__mpu__add_region>:
300062a0:	b480      	push	{r7}
300062a2:	b089      	sub	sp, #36	; 0x24
300062a4:	af00      	add	r7, sp, #0
300062a6:	60b9      	str	r1, [r7, #8]
300062a8:	607a      	str	r2, [r7, #4]
300062aa:	461a      	mov	r2, r3
300062ac:	4603      	mov	r3, r0
300062ae:	73fb      	strb	r3, [r7, #15]
300062b0:	4613      	mov	r3, r2
300062b2:	73bb      	strb	r3, [r7, #14]
300062b4:	f107 0318 	add.w	r3, r7, #24
300062b8:	61fb      	str	r3, [r7, #28]
300062ba:	68bb      	ldr	r3, [r7, #8]
300062bc:	61bb      	str	r3, [r7, #24]
300062be:	4b18      	ldr	r3, [pc, #96]	; (30006320 <stm32__mpu__add_region+0x80>)
300062c0:	3308      	adds	r3, #8
300062c2:	681b      	ldr	r3, [r3, #0]
300062c4:	7bfa      	ldrb	r2, [r7, #15]
300062c6:	f362 0307 	bfi	r3, r2, #0, #8
300062ca:	4a15      	ldr	r2, [pc, #84]	; (30006320 <stm32__mpu__add_region+0x80>)
300062cc:	3208      	adds	r2, #8
300062ce:	6013      	str	r3, [r2, #0]
300062d0:	69fb      	ldr	r3, [r7, #28]
300062d2:	681a      	ldr	r2, [r3, #0]
300062d4:	4b12      	ldr	r3, [pc, #72]	; (30006320 <stm32__mpu__add_region+0x80>)
300062d6:	330c      	adds	r3, #12
300062d8:	681b      	ldr	r3, [r3, #0]
300062da:	f3c2 125a 	ubfx	r2, r2, #5, #27
300062de:	f362 135f 	bfi	r3, r2, #5, #27
300062e2:	4a0f      	ldr	r2, [pc, #60]	; (30006320 <stm32__mpu__add_region+0x80>)
300062e4:	320c      	adds	r2, #12
300062e6:	6013      	str	r3, [r2, #0]
300062e8:	68bb      	ldr	r3, [r7, #8]
300062ea:	617b      	str	r3, [r7, #20]
300062ec:	697a      	ldr	r2, [r7, #20]
300062ee:	687b      	ldr	r3, [r7, #4]
300062f0:	4413      	add	r3, r2
300062f2:	617b      	str	r3, [r7, #20]
300062f4:	697b      	ldr	r3, [r7, #20]
300062f6:	7bba      	ldrb	r2, [r7, #14]
300062f8:	f002 0207 	and.w	r2, r2, #7
300062fc:	b2d2      	uxtb	r2, r2
300062fe:	f362 0343 	bfi	r3, r2, #1, #3
30006302:	617b      	str	r3, [r7, #20]
30006304:	697b      	ldr	r3, [r7, #20]
30006306:	f043 0301 	orr.w	r3, r3, #1
3000630a:	617b      	str	r3, [r7, #20]
3000630c:	4b04      	ldr	r3, [pc, #16]	; (30006320 <stm32__mpu__add_region+0x80>)
3000630e:	3310      	adds	r3, #16
30006310:	697a      	ldr	r2, [r7, #20]
30006312:	601a      	str	r2, [r3, #0]
30006314:	3724      	adds	r7, #36	; 0x24
30006316:	46bd      	mov	sp, r7
30006318:	f85d 7b04 	ldr.w	r7, [sp], #4
3000631c:	4770      	bx	lr
3000631e:	bf00      	nop
30006320:	e000ed90 	.word	0xe000ed90

30006324 <stm32__mpu__add_attrib>:
30006324:	b580      	push	{r7, lr}
30006326:	b086      	sub	sp, #24
30006328:	af00      	add	r7, sp, #0
3000632a:	4603      	mov	r3, r0
3000632c:	7139      	strb	r1, [r7, #4]
3000632e:	71fb      	strb	r3, [r7, #7]
30006330:	793b      	ldrb	r3, [r7, #4]
30006332:	723b      	strb	r3, [r7, #8]
30006334:	f107 0308 	add.w	r3, r7, #8
30006338:	617b      	str	r3, [r7, #20]
3000633a:	79fb      	ldrb	r3, [r7, #7]
3000633c:	2b03      	cmp	r3, #3
3000633e:	d817      	bhi.n	30006370 <stm32__mpu__add_attrib+0x4c>
30006340:	79fb      	ldrb	r3, [r7, #7]
30006342:	2b03      	cmp	r3, #3
30006344:	d903      	bls.n	3000634e <stm32__mpu__add_attrib+0x2a>
30006346:	212c      	movs	r1, #44	; 0x2c
30006348:	4816      	ldr	r0, [pc, #88]	; (300063a4 <stm32__mpu__add_attrib+0x80>)
3000634a:	f003 f821 	bl	30009390 <__gnat_last_chance_handler>
3000634e:	4b16      	ldr	r3, [pc, #88]	; (300063a8 <stm32__mpu__add_attrib+0x84>)
30006350:	3330      	adds	r3, #48	; 0x30
30006352:	681b      	ldr	r3, [r3, #0]
30006354:	60fb      	str	r3, [r7, #12]
30006356:	79fb      	ldrb	r3, [r7, #7]
30006358:	697a      	ldr	r2, [r7, #20]
3000635a:	7812      	ldrb	r2, [r2, #0]
3000635c:	f107 0118 	add.w	r1, r7, #24
30006360:	440b      	add	r3, r1
30006362:	f803 2c0c 	strb.w	r2, [r3, #-12]
30006366:	4b10      	ldr	r3, [pc, #64]	; (300063a8 <stm32__mpu__add_attrib+0x84>)
30006368:	3330      	adds	r3, #48	; 0x30
3000636a:	68fa      	ldr	r2, [r7, #12]
3000636c:	601a      	str	r2, [r3, #0]
3000636e:	e016      	b.n	3000639e <stm32__mpu__add_attrib+0x7a>
30006370:	79fb      	ldrb	r3, [r7, #7]
30006372:	2b03      	cmp	r3, #3
30006374:	d803      	bhi.n	3000637e <stm32__mpu__add_attrib+0x5a>
30006376:	212e      	movs	r1, #46	; 0x2e
30006378:	480a      	ldr	r0, [pc, #40]	; (300063a4 <stm32__mpu__add_attrib+0x80>)
3000637a:	f003 f809 	bl	30009390 <__gnat_last_chance_handler>
3000637e:	4b0a      	ldr	r3, [pc, #40]	; (300063a8 <stm32__mpu__add_attrib+0x84>)
30006380:	3334      	adds	r3, #52	; 0x34
30006382:	681b      	ldr	r3, [r3, #0]
30006384:	613b      	str	r3, [r7, #16]
30006386:	79fb      	ldrb	r3, [r7, #7]
30006388:	697a      	ldr	r2, [r7, #20]
3000638a:	7812      	ldrb	r2, [r2, #0]
3000638c:	f107 0118 	add.w	r1, r7, #24
30006390:	440b      	add	r3, r1
30006392:	f803 2c0c 	strb.w	r2, [r3, #-12]
30006396:	4b04      	ldr	r3, [pc, #16]	; (300063a8 <stm32__mpu__add_attrib+0x84>)
30006398:	3334      	adds	r3, #52	; 0x34
3000639a:	693a      	ldr	r2, [r7, #16]
3000639c:	601a      	str	r2, [r3, #0]
3000639e:	3718      	adds	r7, #24
300063a0:	46bd      	mov	sp, r7
300063a2:	bd80      	pop	{r7, pc}
300063a4:	3000b7a4 	.word	0x3000b7a4
300063a8:	e000ed90 	.word	0xe000ed90

300063ac <stm32__mpu__enable_mpu>:
300063ac:	b480      	push	{r7}
300063ae:	af00      	add	r7, sp, #0
300063b0:	4b06      	ldr	r3, [pc, #24]	; (300063cc <stm32__mpu__enable_mpu+0x20>)
300063b2:	3304      	adds	r3, #4
300063b4:	681b      	ldr	r3, [r3, #0]
300063b6:	461a      	mov	r2, r3
300063b8:	4613      	mov	r3, r2
300063ba:	f043 0201 	orr.w	r2, r3, #1
300063be:	4b03      	ldr	r3, [pc, #12]	; (300063cc <stm32__mpu__enable_mpu+0x20>)
300063c0:	3304      	adds	r3, #4
300063c2:	601a      	str	r2, [r3, #0]
300063c4:	46bd      	mov	sp, r7
300063c6:	f85d 7b04 	ldr.w	r7, [sp], #4
300063ca:	4770      	bx	lr
300063cc:	e000ed90 	.word	0xe000ed90

300063d0 <stm32__rng__enable_rng>:
300063d0:	b580      	push	{r7, lr}
300063d2:	b088      	sub	sp, #32
300063d4:	af00      	add	r7, sp, #0
300063d6:	463b      	mov	r3, r7
300063d8:	4618      	mov	r0, r3
300063da:	f001 fe9f 	bl	3000811c <stm32_svd__rng__rng_cr_registerIP>
300063de:	4b2a      	ldr	r3, [pc, #168]	; (30006488 <stm32__rng__enable_rng+0xb8>)
300063e0:	61fb      	str	r3, [r7, #28]
300063e2:	4b2a      	ldr	r3, [pc, #168]	; (3000648c <stm32__rng__enable_rng+0xbc>)
300063e4:	61bb      	str	r3, [r7, #24]
300063e6:	463b      	mov	r3, r7
300063e8:	617b      	str	r3, [r7, #20]
300063ea:	4b27      	ldr	r3, [pc, #156]	; (30006488 <stm32__rng__enable_rng+0xb8>)
300063ec:	613b      	str	r3, [r7, #16]
300063ee:	4b27      	ldr	r3, [pc, #156]	; (3000648c <stm32__rng__enable_rng+0xbc>)
300063f0:	60fb      	str	r3, [r7, #12]
300063f2:	4827      	ldr	r0, [pc, #156]	; (30006490 <stm32__rng__enable_rng+0xc0>)
300063f4:	f7fd ffb8 	bl	30004368 <stm32__device__s_ns_periph>
300063f8:	4603      	mov	r3, r0
300063fa:	607b      	str	r3, [r7, #4]
300063fc:	1d3b      	adds	r3, r7, #4
300063fe:	681a      	ldr	r2, [r3, #0]
30006400:	60ba      	str	r2, [r7, #8]
30006402:	681b      	ldr	r3, [r3, #0]
30006404:	f003 0303 	and.w	r3, r3, #3
30006408:	2b00      	cmp	r3, #0
3000640a:	d003      	beq.n	30006414 <stm32__rng__enable_rng+0x44>
3000640c:	2124      	movs	r1, #36	; 0x24
3000640e:	4821      	ldr	r0, [pc, #132]	; (30006494 <stm32__rng__enable_rng+0xc4>)
30006410:	f002 ffbe 	bl	30009390 <__gnat_last_chance_handler>
30006414:	68bb      	ldr	r3, [r7, #8]
30006416:	334c      	adds	r3, #76	; 0x4c
30006418:	681b      	ldr	r3, [r3, #0]
3000641a:	461a      	mov	r2, r3
3000641c:	4613      	mov	r3, r2
3000641e:	f443 2280 	orr.w	r2, r3, #262144	; 0x40000
30006422:	68bb      	ldr	r3, [r7, #8]
30006424:	334c      	adds	r3, #76	; 0x4c
30006426:	601a      	str	r2, [r3, #0]
30006428:	683b      	ldr	r3, [r7, #0]
3000642a:	2208      	movs	r2, #8
3000642c:	f362 5319 	bfi	r3, r2, #20, #6
30006430:	603b      	str	r3, [r7, #0]
30006432:	683b      	ldr	r3, [r7, #0]
30006434:	220d      	movs	r2, #13
30006436:	f362 230b 	bfi	r3, r2, #8, #4
3000643a:	603b      	str	r3, [r7, #0]
3000643c:	683b      	ldr	r3, [r7, #0]
3000643e:	f043 4380 	orr.w	r3, r3, #1073741824	; 0x40000000
30006442:	603b      	str	r3, [r7, #0]
30006444:	4a10      	ldr	r2, [pc, #64]	; (30006488 <stm32__rng__enable_rng+0xb8>)
30006446:	697b      	ldr	r3, [r7, #20]
30006448:	681b      	ldr	r3, [r3, #0]
3000644a:	6013      	str	r3, [r2, #0]
3000644c:	4b12      	ldr	r3, [pc, #72]	; (30006498 <stm32__rng__enable_rng+0xc8>)
3000644e:	681b      	ldr	r3, [r3, #0]
30006450:	681b      	ldr	r3, [r3, #0]
30006452:	f36f 739e 	bfc	r3, #30, #1
30006456:	4a10      	ldr	r2, [pc, #64]	; (30006498 <stm32__rng__enable_rng+0xc8>)
30006458:	6812      	ldr	r2, [r2, #0]
3000645a:	6013      	str	r3, [r2, #0]
3000645c:	4b0a      	ldr	r3, [pc, #40]	; (30006488 <stm32__rng__enable_rng+0xb8>)
3000645e:	681b      	ldr	r3, [r3, #0]
30006460:	f3c3 6307 	ubfx	r3, r3, #24, #8
30006464:	b2db      	uxtb	r3, r3
30006466:	f003 0340 	and.w	r3, r3, #64	; 0x40
3000646a:	b2db      	uxtb	r3, r3
3000646c:	2b00      	cmp	r3, #0
3000646e:	d000      	beq.n	30006472 <stm32__rng__enable_rng+0xa2>
30006470:	e7f4      	b.n	3000645c <stm32__rng__enable_rng+0x8c>
30006472:	4b09      	ldr	r3, [pc, #36]	; (30006498 <stm32__rng__enable_rng+0xc8>)
30006474:	681b      	ldr	r3, [r3, #0]
30006476:	681b      	ldr	r3, [r3, #0]
30006478:	f043 0304 	orr.w	r3, r3, #4
3000647c:	4a06      	ldr	r2, [pc, #24]	; (30006498 <stm32__rng__enable_rng+0xc8>)
3000647e:	6812      	ldr	r2, [r2, #0]
30006480:	6013      	str	r3, [r2, #0]
30006482:	3720      	adds	r7, #32
30006484:	46bd      	mov	sp, r7
30006486:	bd80      	pop	{r7, pc}
30006488:	520c0800 	.word	0x520c0800
3000648c:	520c0808 	.word	0x520c0808
30006490:	40021000 	.word	0x40021000
30006494:	3000b7b4 	.word	0x3000b7b4
30006498:	3000c5d4 	.word	0x3000c5d4

3000649c <stm32__rng__random>:
3000649c:	b480      	push	{r7}
3000649e:	af00      	add	r7, sp, #0
300064a0:	4b09      	ldr	r3, [pc, #36]	; (300064c8 <stm32__rng__random+0x2c>)
300064a2:	681b      	ldr	r3, [r3, #0]
300064a4:	3304      	adds	r3, #4
300064a6:	681b      	ldr	r3, [r3, #0]
300064a8:	b2db      	uxtb	r3, r3
300064aa:	f003 0301 	and.w	r3, r3, #1
300064ae:	b2db      	uxtb	r3, r3
300064b0:	2b00      	cmp	r3, #0
300064b2:	d100      	bne.n	300064b6 <stm32__rng__random+0x1a>
300064b4:	e7f4      	b.n	300064a0 <stm32__rng__random+0x4>
300064b6:	4b04      	ldr	r3, [pc, #16]	; (300064c8 <stm32__rng__random+0x2c>)
300064b8:	681b      	ldr	r3, [r3, #0]
300064ba:	689b      	ldr	r3, [r3, #8]
300064bc:	bf00      	nop
300064be:	4618      	mov	r0, r3
300064c0:	46bd      	mov	sp, r7
300064c2:	f85d 7b04 	ldr.w	r7, [sp], #4
300064c6:	4770      	bx	lr
300064c8:	3000c5d4 	.word	0x3000c5d4

300064cc <stm32__rng___elabs>:
300064cc:	b580      	push	{r7, lr}
300064ce:	b082      	sub	sp, #8
300064d0:	af00      	add	r7, sp, #0
300064d2:	480e      	ldr	r0, [pc, #56]	; (3000650c <stm32__rng___elabs+0x40>)
300064d4:	f7fd ff48 	bl	30004368 <stm32__device__s_ns_periph>
300064d8:	4603      	mov	r3, r0
300064da:	607b      	str	r3, [r7, #4]
300064dc:	4a0c      	ldr	r2, [pc, #48]	; (30006510 <stm32__rng___elabs+0x44>)
300064de:	1d3b      	adds	r3, r7, #4
300064e0:	6013      	str	r3, [r2, #0]
300064e2:	4b0b      	ldr	r3, [pc, #44]	; (30006510 <stm32__rng___elabs+0x44>)
300064e4:	681b      	ldr	r3, [r3, #0]
300064e6:	681b      	ldr	r3, [r3, #0]
300064e8:	461a      	mov	r2, r3
300064ea:	4b0a      	ldr	r3, [pc, #40]	; (30006514 <stm32__rng___elabs+0x48>)
300064ec:	601a      	str	r2, [r3, #0]
300064ee:	4b08      	ldr	r3, [pc, #32]	; (30006510 <stm32__rng___elabs+0x44>)
300064f0:	681b      	ldr	r3, [r3, #0]
300064f2:	681b      	ldr	r3, [r3, #0]
300064f4:	f003 0303 	and.w	r3, r3, #3
300064f8:	2b00      	cmp	r3, #0
300064fa:	d003      	beq.n	30006504 <stm32__rng___elabs+0x38>
300064fc:	2109      	movs	r1, #9
300064fe:	4806      	ldr	r0, [pc, #24]	; (30006518 <stm32__rng___elabs+0x4c>)
30006500:	f002 ff46 	bl	30009390 <__gnat_last_chance_handler>
30006504:	3708      	adds	r7, #8
30006506:	46bd      	mov	sp, r7
30006508:	bd80      	pop	{r7, pc}
3000650a:	bf00      	nop
3000650c:	420c0800 	.word	0x420c0800
30006510:	3000c5d0 	.word	0x3000c5d0
30006514:	3000c5d4 	.word	0x3000c5d4
30006518:	3000b7c4 	.word	0x3000b7c4

3000651c <stm32__sau__all_ns>:
3000651c:	b480      	push	{r7}
3000651e:	af00      	add	r7, sp, #0
30006520:	4b07      	ldr	r3, [pc, #28]	; (30006540 <stm32__sau__all_ns+0x24>)
30006522:	681b      	ldr	r3, [r3, #0]
30006524:	f36f 0300 	bfc	r3, #0, #1
30006528:	4a05      	ldr	r2, [pc, #20]	; (30006540 <stm32__sau__all_ns+0x24>)
3000652a:	6013      	str	r3, [r2, #0]
3000652c:	4b04      	ldr	r3, [pc, #16]	; (30006540 <stm32__sau__all_ns+0x24>)
3000652e:	681b      	ldr	r3, [r3, #0]
30006530:	f043 0302 	orr.w	r3, r3, #2
30006534:	4a02      	ldr	r2, [pc, #8]	; (30006540 <stm32__sau__all_ns+0x24>)
30006536:	6013      	str	r3, [r2, #0]
30006538:	46bd      	mov	sp, r7
3000653a:	f85d 7b04 	ldr.w	r7, [sp], #4
3000653e:	4770      	bx	lr
30006540:	e000edd0 	.word	0xe000edd0

30006544 <stm32__spi__spi_portIP>:
30006544:	b480      	push	{r7}
30006546:	b085      	sub	sp, #20
30006548:	af00      	add	r7, sp, #0
3000654a:	60f8      	str	r0, [r7, #12]
3000654c:	60b9      	str	r1, [r7, #8]
3000654e:	4613      	mov	r3, r2
30006550:	71fb      	strb	r3, [r7, #7]
30006552:	79fb      	ldrb	r3, [r7, #7]
30006554:	2b00      	cmp	r3, #0
30006556:	d002      	beq.n	3000655e <stm32__spi__spi_portIP+0x1a>
30006558:	4a05      	ldr	r2, [pc, #20]	; (30006570 <stm32__spi__spi_portIP+0x2c>)
3000655a:	68fb      	ldr	r3, [r7, #12]
3000655c:	601a      	str	r2, [r3, #0]
3000655e:	68fb      	ldr	r3, [r7, #12]
30006560:	68ba      	ldr	r2, [r7, #8]
30006562:	605a      	str	r2, [r3, #4]
30006564:	3714      	adds	r7, #20
30006566:	46bd      	mov	sp, r7
30006568:	f85d 7b04 	ldr.w	r7, [sp], #4
3000656c:	4770      	bx	lr
3000656e:	bf00      	nop
30006570:	3000b940 	.word	0x3000b940

30006574 <stm32__spi___size__2>:
30006574:	b490      	push	{r4, r7}
30006576:	b082      	sub	sp, #8
30006578:	af00      	add	r7, sp, #0
3000657a:	6078      	str	r0, [r7, #4]
3000657c:	f04f 0340 	mov.w	r3, #64	; 0x40
30006580:	f04f 0400 	mov.w	r4, #0
30006584:	4618      	mov	r0, r3
30006586:	4621      	mov	r1, r4
30006588:	3708      	adds	r7, #8
3000658a:	46bd      	mov	sp, r7
3000658c:	bc90      	pop	{r4, r7}
3000658e:	4770      	bx	lr

30006590 <stm32__spi__configure>:
30006590:	b580      	push	{r7, lr}
30006592:	b082      	sub	sp, #8
30006594:	af00      	add	r7, sp, #0
30006596:	6078      	str	r0, [r7, #4]
30006598:	6039      	str	r1, [r7, #0]
3000659a:	683b      	ldr	r3, [r7, #0]
3000659c:	785b      	ldrb	r3, [r3, #1]
3000659e:	2b01      	cmp	r3, #1
300065a0:	d903      	bls.n	300065aa <stm32__spi__configure+0x1a>
300065a2:	214a      	movs	r1, #74	; 0x4a
300065a4:	4845      	ldr	r0, [pc, #276]	; (300066bc <stm32__spi__configure+0x12c>)
300065a6:	f002 fef3 	bl	30009390 <__gnat_last_chance_handler>
300065aa:	683b      	ldr	r3, [r7, #0]
300065ac:	785b      	ldrb	r3, [r3, #1]
300065ae:	2b00      	cmp	r3, #0
300065b0:	d114      	bne.n	300065dc <stm32__spi__configure+0x4c>
300065b2:	687b      	ldr	r3, [r7, #4]
300065b4:	685b      	ldr	r3, [r3, #4]
300065b6:	681b      	ldr	r3, [r3, #0]
300065b8:	461a      	mov	r2, r3
300065ba:	4613      	mov	r3, r2
300065bc:	f043 0204 	orr.w	r2, r3, #4
300065c0:	687b      	ldr	r3, [r7, #4]
300065c2:	685b      	ldr	r3, [r3, #4]
300065c4:	601a      	str	r2, [r3, #0]
300065c6:	687b      	ldr	r3, [r7, #4]
300065c8:	685b      	ldr	r3, [r3, #4]
300065ca:	681b      	ldr	r3, [r3, #0]
300065cc:	461a      	mov	r2, r3
300065ce:	4613      	mov	r3, r2
300065d0:	f443 7280 	orr.w	r2, r3, #256	; 0x100
300065d4:	687b      	ldr	r3, [r7, #4]
300065d6:	685b      	ldr	r3, [r3, #4]
300065d8:	601a      	str	r2, [r3, #0]
300065da:	e00f      	b.n	300065fc <stm32__spi__configure+0x6c>
300065dc:	687b      	ldr	r3, [r7, #4]
300065de:	685b      	ldr	r3, [r3, #4]
300065e0:	681b      	ldr	r3, [r3, #0]
300065e2:	f36f 0382 	bfc	r3, #2, #1
300065e6:	687a      	ldr	r2, [r7, #4]
300065e8:	6852      	ldr	r2, [r2, #4]
300065ea:	6013      	str	r3, [r2, #0]
300065ec:	687b      	ldr	r3, [r7, #4]
300065ee:	685b      	ldr	r3, [r3, #4]
300065f0:	681b      	ldr	r3, [r3, #0]
300065f2:	f36f 2308 	bfc	r3, #8, #1
300065f6:	687a      	ldr	r2, [r7, #4]
300065f8:	6852      	ldr	r2, [r2, #4]
300065fa:	6013      	str	r3, [r2, #0]
300065fc:	683b      	ldr	r3, [r7, #0]
300065fe:	781b      	ldrb	r3, [r3, #0]
30006600:	2b03      	cmp	r3, #3
30006602:	d903      	bls.n	3000660c <stm32__spi__configure+0x7c>
30006604:	2153      	movs	r1, #83	; 0x53
30006606:	482d      	ldr	r0, [pc, #180]	; (300066bc <stm32__spi__configure+0x12c>)
30006608:	f002 fec2 	bl	30009390 <__gnat_last_chance_handler>
3000660c:	683b      	ldr	r3, [r7, #0]
3000660e:	781b      	ldrb	r3, [r3, #0]
30006610:	2b01      	cmp	r3, #1
30006612:	d01d      	beq.n	30006650 <stm32__spi__configure+0xc0>
30006614:	2b01      	cmp	r3, #1
30006616:	d302      	bcc.n	3000661e <stm32__spi__configure+0x8e>
30006618:	2b02      	cmp	r3, #2
3000661a:	d034      	beq.n	30006686 <stm32__spi__configure+0xf6>
3000661c:	e050      	b.n	300066c0 <stm32__spi__configure+0x130>
3000661e:	687b      	ldr	r3, [r7, #4]
30006620:	685b      	ldr	r3, [r3, #4]
30006622:	681b      	ldr	r3, [r3, #0]
30006624:	f36f 33cf 	bfc	r3, #15, #1
30006628:	687a      	ldr	r2, [r7, #4]
3000662a:	6852      	ldr	r2, [r2, #4]
3000662c:	6013      	str	r3, [r2, #0]
3000662e:	687b      	ldr	r3, [r7, #4]
30006630:	685b      	ldr	r3, [r3, #4]
30006632:	681b      	ldr	r3, [r3, #0]
30006634:	f36f 338e 	bfc	r3, #14, #1
30006638:	687a      	ldr	r2, [r7, #4]
3000663a:	6852      	ldr	r2, [r2, #4]
3000663c:	6013      	str	r3, [r2, #0]
3000663e:	687b      	ldr	r3, [r7, #4]
30006640:	685b      	ldr	r3, [r3, #4]
30006642:	681b      	ldr	r3, [r3, #0]
30006644:	f36f 238a 	bfc	r3, #10, #1
30006648:	687a      	ldr	r2, [r7, #4]
3000664a:	6852      	ldr	r2, [r2, #4]
3000664c:	6013      	str	r3, [r2, #0]
3000664e:	e053      	b.n	300066f8 <stm32__spi__configure+0x168>
30006650:	687b      	ldr	r3, [r7, #4]
30006652:	685b      	ldr	r3, [r3, #4]
30006654:	681b      	ldr	r3, [r3, #0]
30006656:	f36f 33cf 	bfc	r3, #15, #1
3000665a:	687a      	ldr	r2, [r7, #4]
3000665c:	6852      	ldr	r2, [r2, #4]
3000665e:	6013      	str	r3, [r2, #0]
30006660:	687b      	ldr	r3, [r7, #4]
30006662:	685b      	ldr	r3, [r3, #4]
30006664:	681b      	ldr	r3, [r3, #0]
30006666:	f36f 338e 	bfc	r3, #14, #1
3000666a:	687a      	ldr	r2, [r7, #4]
3000666c:	6852      	ldr	r2, [r2, #4]
3000666e:	6013      	str	r3, [r2, #0]
30006670:	687b      	ldr	r3, [r7, #4]
30006672:	685b      	ldr	r3, [r3, #4]
30006674:	681b      	ldr	r3, [r3, #0]
30006676:	461a      	mov	r2, r3
30006678:	4613      	mov	r3, r2
3000667a:	f443 6280 	orr.w	r2, r3, #1024	; 0x400
3000667e:	687b      	ldr	r3, [r7, #4]
30006680:	685b      	ldr	r3, [r3, #4]
30006682:	601a      	str	r2, [r3, #0]
30006684:	e038      	b.n	300066f8 <stm32__spi__configure+0x168>
30006686:	687b      	ldr	r3, [r7, #4]
30006688:	685b      	ldr	r3, [r3, #4]
3000668a:	681b      	ldr	r3, [r3, #0]
3000668c:	461a      	mov	r2, r3
3000668e:	4613      	mov	r3, r2
30006690:	f443 4200 	orr.w	r2, r3, #32768	; 0x8000
30006694:	687b      	ldr	r3, [r7, #4]
30006696:	685b      	ldr	r3, [r3, #4]
30006698:	601a      	str	r2, [r3, #0]
3000669a:	687b      	ldr	r3, [r7, #4]
3000669c:	685b      	ldr	r3, [r3, #4]
3000669e:	681b      	ldr	r3, [r3, #0]
300066a0:	f36f 338e 	bfc	r3, #14, #1
300066a4:	687a      	ldr	r2, [r7, #4]
300066a6:	6852      	ldr	r2, [r2, #4]
300066a8:	6013      	str	r3, [r2, #0]
300066aa:	687b      	ldr	r3, [r7, #4]
300066ac:	685b      	ldr	r3, [r3, #4]
300066ae:	681b      	ldr	r3, [r3, #0]
300066b0:	f36f 238a 	bfc	r3, #10, #1
300066b4:	687a      	ldr	r2, [r7, #4]
300066b6:	6852      	ldr	r2, [r2, #4]
300066b8:	6013      	str	r3, [r2, #0]
300066ba:	e01d      	b.n	300066f8 <stm32__spi__configure+0x168>
300066bc:	3000b7d4 	.word	0x3000b7d4
300066c0:	687b      	ldr	r3, [r7, #4]
300066c2:	685b      	ldr	r3, [r3, #4]
300066c4:	681b      	ldr	r3, [r3, #0]
300066c6:	461a      	mov	r2, r3
300066c8:	4613      	mov	r3, r2
300066ca:	f443 4200 	orr.w	r2, r3, #32768	; 0x8000
300066ce:	687b      	ldr	r3, [r7, #4]
300066d0:	685b      	ldr	r3, [r3, #4]
300066d2:	601a      	str	r2, [r3, #0]
300066d4:	687b      	ldr	r3, [r7, #4]
300066d6:	685b      	ldr	r3, [r3, #4]
300066d8:	681b      	ldr	r3, [r3, #0]
300066da:	461a      	mov	r2, r3
300066dc:	4613      	mov	r3, r2
300066de:	f443 4280 	orr.w	r2, r3, #16384	; 0x4000
300066e2:	687b      	ldr	r3, [r7, #4]
300066e4:	685b      	ldr	r3, [r3, #4]
300066e6:	601a      	str	r2, [r3, #0]
300066e8:	687b      	ldr	r3, [r7, #4]
300066ea:	685b      	ldr	r3, [r3, #4]
300066ec:	681b      	ldr	r3, [r3, #0]
300066ee:	f36f 238a 	bfc	r3, #10, #1
300066f2:	687a      	ldr	r2, [r7, #4]
300066f4:	6852      	ldr	r2, [r2, #4]
300066f6:	6013      	str	r3, [r2, #0]
300066f8:	bf00      	nop
300066fa:	683b      	ldr	r3, [r7, #0]
300066fc:	789b      	ldrb	r3, [r3, #2]
300066fe:	2b01      	cmp	r3, #1
30006700:	bf0c      	ite	eq
30006702:	2301      	moveq	r3, #1
30006704:	2300      	movne	r3, #0
30006706:	b2da      	uxtb	r2, r3
30006708:	687b      	ldr	r3, [r7, #4]
3000670a:	685b      	ldr	r3, [r3, #4]
3000670c:	681b      	ldr	r3, [r3, #0]
3000670e:	f002 0201 	and.w	r2, r2, #1
30006712:	b2d2      	uxtb	r2, r2
30006714:	f362 23cb 	bfi	r3, r2, #11, #1
30006718:	687a      	ldr	r2, [r7, #4]
3000671a:	6852      	ldr	r2, [r2, #4]
3000671c:	6013      	str	r3, [r2, #0]
3000671e:	683b      	ldr	r3, [r7, #0]
30006720:	78db      	ldrb	r3, [r3, #3]
30006722:	2b00      	cmp	r3, #0
30006724:	bf0c      	ite	eq
30006726:	2301      	moveq	r3, #1
30006728:	2300      	movne	r3, #0
3000672a:	b2da      	uxtb	r2, r3
3000672c:	687b      	ldr	r3, [r7, #4]
3000672e:	685b      	ldr	r3, [r3, #4]
30006730:	681b      	ldr	r3, [r3, #0]
30006732:	f002 0201 	and.w	r2, r2, #1
30006736:	b2d2      	uxtb	r2, r2
30006738:	f362 0341 	bfi	r3, r2, #1, #1
3000673c:	687a      	ldr	r2, [r7, #4]
3000673e:	6852      	ldr	r2, [r2, #4]
30006740:	6013      	str	r3, [r2, #0]
30006742:	683b      	ldr	r3, [r7, #0]
30006744:	791b      	ldrb	r3, [r3, #4]
30006746:	2b01      	cmp	r3, #1
30006748:	bf0c      	ite	eq
3000674a:	2301      	moveq	r3, #1
3000674c:	2300      	movne	r3, #0
3000674e:	b2da      	uxtb	r2, r3
30006750:	687b      	ldr	r3, [r7, #4]
30006752:	685b      	ldr	r3, [r3, #4]
30006754:	681b      	ldr	r3, [r3, #0]
30006756:	f002 0201 	and.w	r2, r2, #1
3000675a:	b2d2      	uxtb	r2, r2
3000675c:	f362 0300 	bfi	r3, r2, #0, #1
30006760:	687a      	ldr	r2, [r7, #4]
30006762:	6852      	ldr	r2, [r2, #4]
30006764:	6013      	str	r3, [r2, #0]
30006766:	683b      	ldr	r3, [r7, #0]
30006768:	795b      	ldrb	r3, [r3, #5]
3000676a:	2b00      	cmp	r3, #0
3000676c:	bf0c      	ite	eq
3000676e:	2301      	moveq	r3, #1
30006770:	2300      	movne	r3, #0
30006772:	b2da      	uxtb	r2, r3
30006774:	687b      	ldr	r3, [r7, #4]
30006776:	685b      	ldr	r3, [r3, #4]
30006778:	681b      	ldr	r3, [r3, #0]
3000677a:	f002 0201 	and.w	r2, r2, #1
3000677e:	b2d2      	uxtb	r2, r2
30006780:	f362 2349 	bfi	r3, r2, #9, #1
30006784:	687a      	ldr	r2, [r7, #4]
30006786:	6852      	ldr	r2, [r2, #4]
30006788:	6013      	str	r3, [r2, #0]
3000678a:	683b      	ldr	r3, [r7, #0]
3000678c:	799b      	ldrb	r3, [r3, #6]
3000678e:	461a      	mov	r2, r3
30006790:	4b3c      	ldr	r3, [pc, #240]	; (30006884 <stm32__spi__configure+0x2f4>)
30006792:	5c9a      	ldrb	r2, [r3, r2]
30006794:	687b      	ldr	r3, [r7, #4]
30006796:	685b      	ldr	r3, [r3, #4]
30006798:	681b      	ldr	r3, [r3, #0]
3000679a:	f002 0207 	and.w	r2, r2, #7
3000679e:	b2d2      	uxtb	r2, r2
300067a0:	f362 03c5 	bfi	r3, r2, #3, #3
300067a4:	687a      	ldr	r2, [r7, #4]
300067a6:	6852      	ldr	r2, [r2, #4]
300067a8:	6013      	str	r3, [r2, #0]
300067aa:	683b      	ldr	r3, [r7, #0]
300067ac:	79db      	ldrb	r3, [r3, #7]
300067ae:	2b01      	cmp	r3, #1
300067b0:	bf0c      	ite	eq
300067b2:	2301      	moveq	r3, #1
300067b4:	2300      	movne	r3, #0
300067b6:	b2da      	uxtb	r2, r3
300067b8:	687b      	ldr	r3, [r7, #4]
300067ba:	685b      	ldr	r3, [r3, #4]
300067bc:	681b      	ldr	r3, [r3, #0]
300067be:	f002 0201 	and.w	r2, r2, #1
300067c2:	b2d2      	uxtb	r2, r2
300067c4:	f362 13c7 	bfi	r3, r2, #7, #1
300067c8:	687a      	ldr	r2, [r7, #4]
300067ca:	6852      	ldr	r2, [r2, #4]
300067cc:	6013      	str	r3, [r2, #0]
300067ce:	683b      	ldr	r3, [r7, #0]
300067d0:	7a9a      	ldrb	r2, [r3, #10]
300067d2:	687b      	ldr	r3, [r7, #4]
300067d4:	685b      	ldr	r3, [r3, #4]
300067d6:	3304      	adds	r3, #4
300067d8:	681b      	ldr	r3, [r3, #0]
300067da:	f002 0201 	and.w	r2, r2, #1
300067de:	b2d2      	uxtb	r2, r2
300067e0:	f362 0341 	bfi	r3, r2, #1, #1
300067e4:	687a      	ldr	r2, [r7, #4]
300067e6:	6852      	ldr	r2, [r2, #4]
300067e8:	3204      	adds	r2, #4
300067ea:	6013      	str	r3, [r2, #0]
300067ec:	683b      	ldr	r3, [r7, #0]
300067ee:	7a9a      	ldrb	r2, [r3, #10]
300067f0:	687b      	ldr	r3, [r7, #4]
300067f2:	685b      	ldr	r3, [r3, #4]
300067f4:	3304      	adds	r3, #4
300067f6:	681b      	ldr	r3, [r3, #0]
300067f8:	f002 0201 	and.w	r2, r2, #1
300067fc:	b2d2      	uxtb	r2, r2
300067fe:	f362 13c7 	bfi	r3, r2, #7, #1
30006802:	687a      	ldr	r2, [r7, #4]
30006804:	6852      	ldr	r2, [r2, #4]
30006806:	3204      	adds	r2, #4
30006808:	6013      	str	r3, [r2, #0]
3000680a:	683b      	ldr	r3, [r7, #0]
3000680c:	7ada      	ldrb	r2, [r3, #11]
3000680e:	687b      	ldr	r3, [r7, #4]
30006810:	685b      	ldr	r3, [r3, #4]
30006812:	3304      	adds	r3, #4
30006814:	681b      	ldr	r3, [r3, #0]
30006816:	f002 0201 	and.w	r2, r2, #1
3000681a:	b2d2      	uxtb	r2, r2
3000681c:	f362 0300 	bfi	r3, r2, #0, #1
30006820:	687a      	ldr	r2, [r7, #4]
30006822:	6852      	ldr	r2, [r2, #4]
30006824:	3204      	adds	r2, #4
30006826:	6013      	str	r3, [r2, #0]
30006828:	683b      	ldr	r3, [r7, #0]
3000682a:	7ada      	ldrb	r2, [r3, #11]
3000682c:	687b      	ldr	r3, [r7, #4]
3000682e:	685b      	ldr	r3, [r3, #4]
30006830:	3304      	adds	r3, #4
30006832:	681b      	ldr	r3, [r3, #0]
30006834:	f002 0201 	and.w	r2, r2, #1
30006838:	b2d2      	uxtb	r2, r2
3000683a:	f362 1386 	bfi	r3, r2, #6, #1
3000683e:	687a      	ldr	r2, [r7, #4]
30006840:	6852      	ldr	r2, [r2, #4]
30006842:	3204      	adds	r2, #4
30006844:	6013      	str	r3, [r2, #0]
30006846:	683b      	ldr	r3, [r7, #0]
30006848:	7b1a      	ldrb	r2, [r3, #12]
3000684a:	687b      	ldr	r3, [r7, #4]
3000684c:	685b      	ldr	r3, [r3, #4]
3000684e:	3304      	adds	r3, #4
30006850:	681b      	ldr	r3, [r3, #0]
30006852:	f002 0201 	and.w	r2, r2, #1
30006856:	b2d2      	uxtb	r2, r2
30006858:	f362 330c 	bfi	r3, r2, #12, #1
3000685c:	687a      	ldr	r2, [r7, #4]
3000685e:	6852      	ldr	r2, [r2, #4]
30006860:	3204      	adds	r2, #4
30006862:	6013      	str	r3, [r2, #0]
30006864:	687b      	ldr	r3, [r7, #4]
30006866:	685b      	ldr	r3, [r3, #4]
30006868:	3310      	adds	r3, #16
3000686a:	681b      	ldr	r3, [r3, #0]
3000686c:	683a      	ldr	r2, [r7, #0]
3000686e:	8912      	ldrh	r2, [r2, #8]
30006870:	f362 030f 	bfi	r3, r2, #0, #16
30006874:	687a      	ldr	r2, [r7, #4]
30006876:	6852      	ldr	r2, [r2, #4]
30006878:	3210      	adds	r2, #16
3000687a:	6013      	str	r3, [r2, #0]
3000687c:	3708      	adds	r7, #8
3000687e:	46bd      	mov	sp, r7
30006880:	bd80      	pop	{r7, pc}
30006882:	bf00      	nop
30006884:	3000b9d8 	.word	0x3000b9d8

30006888 <stm32__spi__enable>:
30006888:	b480      	push	{r7}
3000688a:	b083      	sub	sp, #12
3000688c:	af00      	add	r7, sp, #0
3000688e:	6078      	str	r0, [r7, #4]
30006890:	687b      	ldr	r3, [r7, #4]
30006892:	685b      	ldr	r3, [r3, #4]
30006894:	681b      	ldr	r3, [r3, #0]
30006896:	461a      	mov	r2, r3
30006898:	4613      	mov	r3, r2
3000689a:	f043 0240 	orr.w	r2, r3, #64	; 0x40
3000689e:	687b      	ldr	r3, [r7, #4]
300068a0:	685b      	ldr	r3, [r3, #4]
300068a2:	601a      	str	r2, [r3, #0]
300068a4:	370c      	adds	r7, #12
300068a6:	46bd      	mov	sp, r7
300068a8:	f85d 7b04 	ldr.w	r7, [sp], #4
300068ac:	4770      	bx	lr
300068ae:	bf00      	nop

300068b0 <stm32__spi__disable>:
300068b0:	b480      	push	{r7}
300068b2:	b083      	sub	sp, #12
300068b4:	af00      	add	r7, sp, #0
300068b6:	6078      	str	r0, [r7, #4]
300068b8:	687b      	ldr	r3, [r7, #4]
300068ba:	685b      	ldr	r3, [r3, #4]
300068bc:	681b      	ldr	r3, [r3, #0]
300068be:	f36f 1386 	bfc	r3, #6, #1
300068c2:	687a      	ldr	r2, [r7, #4]
300068c4:	6852      	ldr	r2, [r2, #4]
300068c6:	6013      	str	r3, [r2, #0]
300068c8:	370c      	adds	r7, #12
300068ca:	46bd      	mov	sp, r7
300068cc:	f85d 7b04 	ldr.w	r7, [sp], #4
300068d0:	4770      	bx	lr
300068d2:	bf00      	nop

300068d4 <stm32__spi__enabled>:
300068d4:	b480      	push	{r7}
300068d6:	b083      	sub	sp, #12
300068d8:	af00      	add	r7, sp, #0
300068da:	6078      	str	r0, [r7, #4]
300068dc:	687b      	ldr	r3, [r7, #4]
300068de:	685b      	ldr	r3, [r3, #4]
300068e0:	681b      	ldr	r3, [r3, #0]
300068e2:	f3c3 1380 	ubfx	r3, r3, #6, #1
300068e6:	b2db      	uxtb	r3, r3
300068e8:	bf00      	nop
300068ea:	4618      	mov	r0, r3
300068ec:	370c      	adds	r7, #12
300068ee:	46bd      	mov	sp, r7
300068f0:	f85d 7b04 	ldr.w	r7, [sp], #4
300068f4:	4770      	bx	lr
300068f6:	bf00      	nop

300068f8 <stm32__spi__send>:
300068f8:	b480      	push	{r7}
300068fa:	b083      	sub	sp, #12
300068fc:	af00      	add	r7, sp, #0
300068fe:	6078      	str	r0, [r7, #4]
30006900:	460b      	mov	r3, r1
30006902:	807b      	strh	r3, [r7, #2]
30006904:	687b      	ldr	r3, [r7, #4]
30006906:	685b      	ldr	r3, [r3, #4]
30006908:	330c      	adds	r3, #12
3000690a:	681b      	ldr	r3, [r3, #0]
3000690c:	887a      	ldrh	r2, [r7, #2]
3000690e:	f362 030f 	bfi	r3, r2, #0, #16
30006912:	687a      	ldr	r2, [r7, #4]
30006914:	6852      	ldr	r2, [r2, #4]
30006916:	320c      	adds	r2, #12
30006918:	6013      	str	r3, [r2, #0]
3000691a:	370c      	adds	r7, #12
3000691c:	46bd      	mov	sp, r7
3000691e:	f85d 7b04 	ldr.w	r7, [sp], #4
30006922:	4770      	bx	lr

30006924 <stm32__spi__data>:
30006924:	b480      	push	{r7}
30006926:	b083      	sub	sp, #12
30006928:	af00      	add	r7, sp, #0
3000692a:	6078      	str	r0, [r7, #4]
3000692c:	687b      	ldr	r3, [r7, #4]
3000692e:	685b      	ldr	r3, [r3, #4]
30006930:	330c      	adds	r3, #12
30006932:	681b      	ldr	r3, [r3, #0]
30006934:	b29b      	uxth	r3, r3
30006936:	bf00      	nop
30006938:	4618      	mov	r0, r3
3000693a:	370c      	adds	r7, #12
3000693c:	46bd      	mov	sp, r7
3000693e:	f85d 7b04 	ldr.w	r7, [sp], #4
30006942:	4770      	bx	lr

30006944 <stm32__spi__send__2>:
30006944:	b480      	push	{r7}
30006946:	b085      	sub	sp, #20
30006948:	af00      	add	r7, sp, #0
3000694a:	6078      	str	r0, [r7, #4]
3000694c:	460b      	mov	r3, r1
3000694e:	70fb      	strb	r3, [r7, #3]
30006950:	687b      	ldr	r3, [r7, #4]
30006952:	685b      	ldr	r3, [r3, #4]
30006954:	330c      	adds	r3, #12
30006956:	60fb      	str	r3, [r7, #12]
30006958:	68fb      	ldr	r3, [r7, #12]
3000695a:	78fa      	ldrb	r2, [r7, #3]
3000695c:	701a      	strb	r2, [r3, #0]
3000695e:	3714      	adds	r7, #20
30006960:	46bd      	mov	sp, r7
30006962:	f85d 7b04 	ldr.w	r7, [sp], #4
30006966:	4770      	bx	lr

30006968 <stm32__spi__data__2>:
30006968:	b580      	push	{r7, lr}
3000696a:	b082      	sub	sp, #8
3000696c:	af00      	add	r7, sp, #0
3000696e:	6078      	str	r0, [r7, #4]
30006970:	6878      	ldr	r0, [r7, #4]
30006972:	f7ff ffd7 	bl	30006924 <stm32__spi__data>
30006976:	4603      	mov	r3, r0
30006978:	2bff      	cmp	r3, #255	; 0xff
3000697a:	d903      	bls.n	30006984 <stm32__spi__data__2+0x1c>
3000697c:	21b9      	movs	r1, #185	; 0xb9
3000697e:	4804      	ldr	r0, [pc, #16]	; (30006990 <stm32__spi__data__2+0x28>)
30006980:	f002 fd06 	bl	30009390 <__gnat_last_chance_handler>
30006984:	b2db      	uxtb	r3, r3
30006986:	bf00      	nop
30006988:	4618      	mov	r0, r3
3000698a:	3708      	adds	r7, #8
3000698c:	46bd      	mov	sp, r7
3000698e:	bd80      	pop	{r7, pc}
30006990:	3000b7d4 	.word	0x3000b7d4

30006994 <stm32__spi__is_busy>:
30006994:	b580      	push	{r7, lr}
30006996:	b082      	sub	sp, #8
30006998:	af00      	add	r7, sp, #0
3000699a:	6078      	str	r0, [r7, #4]
3000699c:	6878      	ldr	r0, [r7, #4]
3000699e:	f000 f82d 	bl	300069fc <stm32__spi__rx_is_empty>
300069a2:	4603      	mov	r3, r0
300069a4:	2b00      	cmp	r3, #0
300069a6:	d008      	beq.n	300069ba <stm32__spi__is_busy+0x26>
300069a8:	6878      	ldr	r0, [r7, #4]
300069aa:	f000 f815 	bl	300069d8 <stm32__spi__tx_is_empty>
300069ae:	4603      	mov	r3, r0
300069b0:	f083 0301 	eor.w	r3, r3, #1
300069b4:	b2db      	uxtb	r3, r3
300069b6:	2b00      	cmp	r3, #0
300069b8:	d105      	bne.n	300069c6 <stm32__spi__is_busy+0x32>
300069ba:	6878      	ldr	r0, [r7, #4]
300069bc:	f000 f836 	bl	30006a2c <stm32__spi__busy>
300069c0:	4603      	mov	r3, r0
300069c2:	2b00      	cmp	r3, #0
300069c4:	d001      	beq.n	300069ca <stm32__spi__is_busy+0x36>
300069c6:	2301      	movs	r3, #1
300069c8:	e000      	b.n	300069cc <stm32__spi__is_busy+0x38>
300069ca:	2300      	movs	r3, #0
300069cc:	bf00      	nop
300069ce:	4618      	mov	r0, r3
300069d0:	3708      	adds	r7, #8
300069d2:	46bd      	mov	sp, r7
300069d4:	bd80      	pop	{r7, pc}
300069d6:	bf00      	nop

300069d8 <stm32__spi__tx_is_empty>:
300069d8:	b480      	push	{r7}
300069da:	b083      	sub	sp, #12
300069dc:	af00      	add	r7, sp, #0
300069de:	6078      	str	r0, [r7, #4]
300069e0:	687b      	ldr	r3, [r7, #4]
300069e2:	685b      	ldr	r3, [r3, #4]
300069e4:	3308      	adds	r3, #8
300069e6:	681b      	ldr	r3, [r3, #0]
300069e8:	f3c3 0340 	ubfx	r3, r3, #1, #1
300069ec:	b2db      	uxtb	r3, r3
300069ee:	bf00      	nop
300069f0:	4618      	mov	r0, r3
300069f2:	370c      	adds	r7, #12
300069f4:	46bd      	mov	sp, r7
300069f6:	f85d 7b04 	ldr.w	r7, [sp], #4
300069fa:	4770      	bx	lr

300069fc <stm32__spi__rx_is_empty>:
300069fc:	b480      	push	{r7}
300069fe:	b083      	sub	sp, #12
30006a00:	af00      	add	r7, sp, #0
30006a02:	6078      	str	r0, [r7, #4]
30006a04:	687b      	ldr	r3, [r7, #4]
30006a06:	685b      	ldr	r3, [r3, #4]
30006a08:	3308      	adds	r3, #8
30006a0a:	681b      	ldr	r3, [r3, #0]
30006a0c:	b2db      	uxtb	r3, r3
30006a0e:	f003 0301 	and.w	r3, r3, #1
30006a12:	b2db      	uxtb	r3, r3
30006a14:	2b00      	cmp	r3, #0
30006a16:	bf0c      	ite	eq
30006a18:	2301      	moveq	r3, #1
30006a1a:	2300      	movne	r3, #0
30006a1c:	b2db      	uxtb	r3, r3
30006a1e:	bf00      	nop
30006a20:	4618      	mov	r0, r3
30006a22:	370c      	adds	r7, #12
30006a24:	46bd      	mov	sp, r7
30006a26:	f85d 7b04 	ldr.w	r7, [sp], #4
30006a2a:	4770      	bx	lr

30006a2c <stm32__spi__busy>:
30006a2c:	b480      	push	{r7}
30006a2e:	b083      	sub	sp, #12
30006a30:	af00      	add	r7, sp, #0
30006a32:	6078      	str	r0, [r7, #4]
30006a34:	687b      	ldr	r3, [r7, #4]
30006a36:	685b      	ldr	r3, [r3, #4]
30006a38:	3308      	adds	r3, #8
30006a3a:	681b      	ldr	r3, [r3, #0]
30006a3c:	f3c3 13c0 	ubfx	r3, r3, #7, #1
30006a40:	b2db      	uxtb	r3, r3
30006a42:	bf00      	nop
30006a44:	4618      	mov	r0, r3
30006a46:	370c      	adds	r7, #12
30006a48:	46bd      	mov	sp, r7
30006a4a:	f85d 7b04 	ldr.w	r7, [sp], #4
30006a4e:	4770      	bx	lr

30006a50 <stm32__spi__current_mode>:
30006a50:	b480      	push	{r7}
30006a52:	b083      	sub	sp, #12
30006a54:	af00      	add	r7, sp, #0
30006a56:	6078      	str	r0, [r7, #4]
30006a58:	687b      	ldr	r3, [r7, #4]
30006a5a:	685b      	ldr	r3, [r3, #4]
30006a5c:	681b      	ldr	r3, [r3, #0]
30006a5e:	b2db      	uxtb	r3, r3
30006a60:	f003 0304 	and.w	r3, r3, #4
30006a64:	b2db      	uxtb	r3, r3
30006a66:	2b00      	cmp	r3, #0
30006a68:	bf14      	ite	ne
30006a6a:	2301      	movne	r3, #1
30006a6c:	2300      	moveq	r3, #0
30006a6e:	b2da      	uxtb	r2, r3
30006a70:	687b      	ldr	r3, [r7, #4]
30006a72:	685b      	ldr	r3, [r3, #4]
30006a74:	681b      	ldr	r3, [r3, #0]
30006a76:	f3c3 2307 	ubfx	r3, r3, #8, #8
30006a7a:	b2db      	uxtb	r3, r3
30006a7c:	f003 0301 	and.w	r3, r3, #1
30006a80:	b2db      	uxtb	r3, r3
30006a82:	2b00      	cmp	r3, #0
30006a84:	bf14      	ite	ne
30006a86:	2301      	movne	r3, #1
30006a88:	2300      	moveq	r3, #0
30006a8a:	b2db      	uxtb	r3, r3
30006a8c:	4013      	ands	r3, r2
30006a8e:	b2db      	uxtb	r3, r3
30006a90:	2b00      	cmp	r3, #0
30006a92:	d001      	beq.n	30006a98 <stm32__spi__current_mode+0x48>
30006a94:	2300      	movs	r3, #0
30006a96:	e000      	b.n	30006a9a <stm32__spi__current_mode+0x4a>
30006a98:	2301      	movs	r3, #1
30006a9a:	bf00      	nop
30006a9c:	4618      	mov	r0, r3
30006a9e:	370c      	adds	r7, #12
30006aa0:	46bd      	mov	sp, r7
30006aa2:	f85d 7b04 	ldr.w	r7, [sp], #4
30006aa6:	4770      	bx	lr

30006aa8 <stm32__spi__current_data_direction>:
30006aa8:	b480      	push	{r7}
30006aaa:	b083      	sub	sp, #12
30006aac:	af00      	add	r7, sp, #0
30006aae:	6078      	str	r0, [r7, #4]
30006ab0:	687b      	ldr	r3, [r7, #4]
30006ab2:	685b      	ldr	r3, [r3, #4]
30006ab4:	681b      	ldr	r3, [r3, #0]
30006ab6:	f3c3 2307 	ubfx	r3, r3, #8, #8
30006aba:	b2db      	uxtb	r3, r3
30006abc:	b25b      	sxtb	r3, r3
30006abe:	2b00      	cmp	r3, #0
30006ac0:	db0e      	blt.n	30006ae0 <stm32__spi__current_data_direction+0x38>
30006ac2:	687b      	ldr	r3, [r7, #4]
30006ac4:	685b      	ldr	r3, [r3, #4]
30006ac6:	681b      	ldr	r3, [r3, #0]
30006ac8:	f3c3 2307 	ubfx	r3, r3, #8, #8
30006acc:	b2db      	uxtb	r3, r3
30006ace:	f003 0304 	and.w	r3, r3, #4
30006ad2:	b2db      	uxtb	r3, r3
30006ad4:	2b00      	cmp	r3, #0
30006ad6:	d101      	bne.n	30006adc <stm32__spi__current_data_direction+0x34>
30006ad8:	2300      	movs	r3, #0
30006ada:	e00f      	b.n	30006afc <stm32__spi__current_data_direction+0x54>
30006adc:	2301      	movs	r3, #1
30006ade:	e00d      	b.n	30006afc <stm32__spi__current_data_direction+0x54>
30006ae0:	687b      	ldr	r3, [r7, #4]
30006ae2:	685b      	ldr	r3, [r3, #4]
30006ae4:	681b      	ldr	r3, [r3, #0]
30006ae6:	f3c3 2307 	ubfx	r3, r3, #8, #8
30006aea:	b2db      	uxtb	r3, r3
30006aec:	f003 0340 	and.w	r3, r3, #64	; 0x40
30006af0:	b2db      	uxtb	r3, r3
30006af2:	2b00      	cmp	r3, #0
30006af4:	d101      	bne.n	30006afa <stm32__spi__current_data_direction+0x52>
30006af6:	2302      	movs	r3, #2
30006af8:	e000      	b.n	30006afc <stm32__spi__current_data_direction+0x54>
30006afa:	2303      	movs	r3, #3
30006afc:	bf00      	nop
30006afe:	4618      	mov	r0, r3
30006b00:	370c      	adds	r7, #12
30006b02:	46bd      	mov	sp, r7
30006b04:	f85d 7b04 	ldr.w	r7, [sp], #4
30006b08:	4770      	bx	lr
30006b0a:	bf00      	nop

30006b0c <stm32__spi__crc_enabled>:
30006b0c:	b480      	push	{r7}
30006b0e:	b083      	sub	sp, #12
30006b10:	af00      	add	r7, sp, #0
30006b12:	6078      	str	r0, [r7, #4]
30006b14:	687b      	ldr	r3, [r7, #4]
30006b16:	685b      	ldr	r3, [r3, #4]
30006b18:	681b      	ldr	r3, [r3, #0]
30006b1a:	f3c3 3340 	ubfx	r3, r3, #13, #1
30006b1e:	b2db      	uxtb	r3, r3
30006b20:	bf00      	nop
30006b22:	4618      	mov	r0, r3
30006b24:	370c      	adds	r7, #12
30006b26:	46bd      	mov	sp, r7
30006b28:	f85d 7b04 	ldr.w	r7, [sp], #4
30006b2c:	4770      	bx	lr
30006b2e:	bf00      	nop

30006b30 <stm32__spi__crc_error_indicated>:
30006b30:	b480      	push	{r7}
30006b32:	b083      	sub	sp, #12
30006b34:	af00      	add	r7, sp, #0
30006b36:	6078      	str	r0, [r7, #4]
30006b38:	687b      	ldr	r3, [r7, #4]
30006b3a:	685b      	ldr	r3, [r3, #4]
30006b3c:	3308      	adds	r3, #8
30006b3e:	681b      	ldr	r3, [r3, #0]
30006b40:	f3c3 1300 	ubfx	r3, r3, #4, #1
30006b44:	b2db      	uxtb	r3, r3
30006b46:	bf00      	nop
30006b48:	4618      	mov	r0, r3
30006b4a:	370c      	adds	r7, #12
30006b4c:	46bd      	mov	sp, r7
30006b4e:	f85d 7b04 	ldr.w	r7, [sp], #4
30006b52:	4770      	bx	lr

30006b54 <stm32__spi__mode_fault_indicated>:
30006b54:	b480      	push	{r7}
30006b56:	b083      	sub	sp, #12
30006b58:	af00      	add	r7, sp, #0
30006b5a:	6078      	str	r0, [r7, #4]
30006b5c:	687b      	ldr	r3, [r7, #4]
30006b5e:	685b      	ldr	r3, [r3, #4]
30006b60:	3308      	adds	r3, #8
30006b62:	681b      	ldr	r3, [r3, #0]
30006b64:	f3c3 1340 	ubfx	r3, r3, #5, #1
30006b68:	b2db      	uxtb	r3, r3
30006b6a:	bf00      	nop
30006b6c:	4618      	mov	r0, r3
30006b6e:	370c      	adds	r7, #12
30006b70:	46bd      	mov	sp, r7
30006b72:	f85d 7b04 	ldr.w	r7, [sp], #4
30006b76:	4770      	bx	lr

30006b78 <stm32__spi__overrun_indicated>:
30006b78:	b480      	push	{r7}
30006b7a:	b083      	sub	sp, #12
30006b7c:	af00      	add	r7, sp, #0
30006b7e:	6078      	str	r0, [r7, #4]
30006b80:	687b      	ldr	r3, [r7, #4]
30006b82:	685b      	ldr	r3, [r3, #4]
30006b84:	3308      	adds	r3, #8
30006b86:	681b      	ldr	r3, [r3, #0]
30006b88:	f3c3 1380 	ubfx	r3, r3, #6, #1
30006b8c:	b2db      	uxtb	r3, r3
30006b8e:	bf00      	nop
30006b90:	4618      	mov	r0, r3
30006b92:	370c      	adds	r7, #12
30006b94:	46bd      	mov	sp, r7
30006b96:	f85d 7b04 	ldr.w	r7, [sp], #4
30006b9a:	4770      	bx	lr

30006b9c <stm32__spi__frame_fmt_error_indicated>:
30006b9c:	b480      	push	{r7}
30006b9e:	b083      	sub	sp, #12
30006ba0:	af00      	add	r7, sp, #0
30006ba2:	6078      	str	r0, [r7, #4]
30006ba4:	687b      	ldr	r3, [r7, #4]
30006ba6:	685b      	ldr	r3, [r3, #4]
30006ba8:	3308      	adds	r3, #8
30006baa:	681b      	ldr	r3, [r3, #0]
30006bac:	f3c3 2300 	ubfx	r3, r3, #8, #1
30006bb0:	b2db      	uxtb	r3, r3
30006bb2:	bf00      	nop
30006bb4:	4618      	mov	r0, r3
30006bb6:	370c      	adds	r7, #12
30006bb8:	46bd      	mov	sp, r7
30006bba:	f85d 7b04 	ldr.w	r7, [sp], #4
30006bbe:	4770      	bx	lr

30006bc0 <stm32__spi__clear_overrun>:
30006bc0:	b580      	push	{r7, lr}
30006bc2:	b084      	sub	sp, #16
30006bc4:	af00      	add	r7, sp, #0
30006bc6:	6078      	str	r0, [r7, #4]
30006bc8:	f107 0308 	add.w	r3, r7, #8
30006bcc:	4618      	mov	r0, r3
30006bce:	f001 fb11 	bl	300081f4 <stm32_svd__spi__sr_registerIP>
30006bd2:	687b      	ldr	r3, [r7, #4]
30006bd4:	685b      	ldr	r3, [r3, #4]
30006bd6:	330c      	adds	r3, #12
30006bd8:	681b      	ldr	r3, [r3, #0]
30006bda:	81fb      	strh	r3, [r7, #14]
30006bdc:	687b      	ldr	r3, [r7, #4]
30006bde:	685b      	ldr	r3, [r3, #4]
30006be0:	3308      	adds	r3, #8
30006be2:	681b      	ldr	r3, [r3, #0]
30006be4:	60bb      	str	r3, [r7, #8]
30006be6:	3710      	adds	r7, #16
30006be8:	46bd      	mov	sp, r7
30006bea:	bd80      	pop	{r7, pc}

30006bec <stm32__spi__reset_crc>:
30006bec:	b480      	push	{r7}
30006bee:	b083      	sub	sp, #12
30006bf0:	af00      	add	r7, sp, #0
30006bf2:	6078      	str	r0, [r7, #4]
30006bf4:	687b      	ldr	r3, [r7, #4]
30006bf6:	685b      	ldr	r3, [r3, #4]
30006bf8:	681b      	ldr	r3, [r3, #0]
30006bfa:	f36f 334d 	bfc	r3, #13, #1
30006bfe:	687a      	ldr	r2, [r7, #4]
30006c00:	6852      	ldr	r2, [r2, #4]
30006c02:	6013      	str	r3, [r2, #0]
30006c04:	687b      	ldr	r3, [r7, #4]
30006c06:	685b      	ldr	r3, [r3, #4]
30006c08:	681b      	ldr	r3, [r3, #0]
30006c0a:	461a      	mov	r2, r3
30006c0c:	4613      	mov	r3, r2
30006c0e:	f443 5200 	orr.w	r2, r3, #8192	; 0x2000
30006c12:	687b      	ldr	r3, [r7, #4]
30006c14:	685b      	ldr	r3, [r3, #4]
30006c16:	601a      	str	r2, [r3, #0]
30006c18:	370c      	adds	r7, #12
30006c1a:	46bd      	mov	sp, r7
30006c1c:	f85d 7b04 	ldr.w	r7, [sp], #4
30006c20:	4770      	bx	lr
30006c22:	bf00      	nop

30006c24 <stm32__spi__is_data_frame_16bit>:
30006c24:	b480      	push	{r7}
30006c26:	b083      	sub	sp, #12
30006c28:	af00      	add	r7, sp, #0
30006c2a:	6078      	str	r0, [r7, #4]
30006c2c:	687b      	ldr	r3, [r7, #4]
30006c2e:	685b      	ldr	r3, [r3, #4]
30006c30:	681b      	ldr	r3, [r3, #0]
30006c32:	f3c3 23c0 	ubfx	r3, r3, #11, #1
30006c36:	b2db      	uxtb	r3, r3
30006c38:	bf00      	nop
30006c3a:	4618      	mov	r0, r3
30006c3c:	370c      	adds	r7, #12
30006c3e:	46bd      	mov	sp, r7
30006c40:	f85d 7b04 	ldr.w	r7, [sp], #4
30006c44:	4770      	bx	lr
30006c46:	bf00      	nop

30006c48 <stm32__spi__data_size>:
30006c48:	b480      	push	{r7}
30006c4a:	b083      	sub	sp, #12
30006c4c:	af00      	add	r7, sp, #0
30006c4e:	6078      	str	r0, [r7, #4]
30006c50:	687b      	ldr	r3, [r7, #4]
30006c52:	685b      	ldr	r3, [r3, #4]
30006c54:	681b      	ldr	r3, [r3, #0]
30006c56:	f3c3 2307 	ubfx	r3, r3, #8, #8
30006c5a:	b2db      	uxtb	r3, r3
30006c5c:	f003 0308 	and.w	r3, r3, #8
30006c60:	b2db      	uxtb	r3, r3
30006c62:	2b00      	cmp	r3, #0
30006c64:	d001      	beq.n	30006c6a <stm32__spi__data_size+0x22>
30006c66:	2301      	movs	r3, #1
30006c68:	e000      	b.n	30006c6c <stm32__spi__data_size+0x24>
30006c6a:	2300      	movs	r3, #0
30006c6c:	bf00      	nop
30006c6e:	4618      	mov	r0, r3
30006c70:	370c      	adds	r7, #12
30006c72:	46bd      	mov	sp, r7
30006c74:	f85d 7b04 	ldr.w	r7, [sp], #4
30006c78:	4770      	bx	lr
30006c7a:	bf00      	nop

30006c7c <stm32__spi__transmit>:
30006c7c:	b5b0      	push	{r4, r5, r7, lr}
30006c7e:	b086      	sub	sp, #24
30006c80:	af00      	add	r7, sp, #0
30006c82:	60f8      	str	r0, [r7, #12]
30006c84:	e9c7 1200 	strd	r1, r2, [r7]
30006c88:	60bb      	str	r3, [r7, #8]
30006c8a:	68f8      	ldr	r0, [r7, #12]
30006c8c:	f7ff ffdc 	bl	30006c48 <stm32__spi__data_size>
30006c90:	4603      	mov	r3, r0
30006c92:	2b00      	cmp	r3, #0
30006c94:	d005      	beq.n	30006ca2 <stm32__spi__transmit+0x26>
30006c96:	4c2c      	ldr	r4, [pc, #176]	; (30006d48 <stm32__spi__transmit+0xcc>)
30006c98:	4d2c      	ldr	r5, [pc, #176]	; (30006d4c <stm32__spi__transmit+0xd0>)
30006c9a:	4620      	mov	r0, r4
30006c9c:	4629      	mov	r1, r5
30006c9e:	f002 fd7f 	bl	300097a0 <system__assertions__raise_assert_failure>
30006ca2:	68f8      	ldr	r0, [r7, #12]
30006ca4:	f7ff ff32 	bl	30006b0c <stm32__spi__crc_enabled>
30006ca8:	4603      	mov	r3, r0
30006caa:	2b00      	cmp	r3, #0
30006cac:	d002      	beq.n	30006cb4 <stm32__spi__transmit+0x38>
30006cae:	68f8      	ldr	r0, [r7, #12]
30006cb0:	f7ff ff9c 	bl	30006bec <stm32__spi__reset_crc>
30006cb4:	68f8      	ldr	r0, [r7, #12]
30006cb6:	f7ff fef7 	bl	30006aa8 <stm32__spi__current_data_direction>
30006cba:	4603      	mov	r3, r0
30006cbc:	2b03      	cmp	r3, #3
30006cbe:	d109      	bne.n	30006cd4 <stm32__spi__transmit+0x58>
30006cc0:	68fb      	ldr	r3, [r7, #12]
30006cc2:	685b      	ldr	r3, [r3, #4]
30006cc4:	681b      	ldr	r3, [r3, #0]
30006cc6:	461a      	mov	r2, r3
30006cc8:	4613      	mov	r3, r2
30006cca:	f443 4280 	orr.w	r2, r3, #16384	; 0x4000
30006cce:	68fb      	ldr	r3, [r7, #12]
30006cd0:	685b      	ldr	r3, [r3, #4]
30006cd2:	601a      	str	r2, [r3, #0]
30006cd4:	68f8      	ldr	r0, [r7, #12]
30006cd6:	f7ff ff73 	bl	30006bc0 <stm32__spi__clear_overrun>
30006cda:	68f8      	ldr	r0, [r7, #12]
30006cdc:	f7ff fdfa 	bl	300068d4 <stm32__spi__enabled>
30006ce0:	4603      	mov	r3, r0
30006ce2:	f083 0301 	eor.w	r3, r3, #1
30006ce6:	b2db      	uxtb	r3, r3
30006ce8:	2b00      	cmp	r3, #0
30006cea:	d002      	beq.n	30006cf2 <stm32__spi__transmit+0x76>
30006cec:	68f8      	ldr	r0, [r7, #12]
30006cee:	f7ff fdcb 	bl	30006888 <stm32__spi__enable>
30006cf2:	e9d7 1200 	ldrd	r1, r2, [r7]
30006cf6:	68f8      	ldr	r0, [r7, #12]
30006cf8:	f000 ffa2 	bl	30007c40 <stm32__spi__send_8bit_mode>
30006cfc:	68f8      	ldr	r0, [r7, #12]
30006cfe:	f7ff fe6b 	bl	300069d8 <stm32__spi__tx_is_empty>
30006d02:	4603      	mov	r3, r0
30006d04:	2b00      	cmp	r3, #0
30006d06:	d101      	bne.n	30006d0c <stm32__spi__transmit+0x90>
30006d08:	bf00      	nop
30006d0a:	e7f7      	b.n	30006cfc <stm32__spi__transmit+0x80>
30006d0c:	68f8      	ldr	r0, [r7, #12]
30006d0e:	f7ff fe8d 	bl	30006a2c <stm32__spi__busy>
30006d12:	4603      	mov	r3, r0
30006d14:	f083 0301 	eor.w	r3, r3, #1
30006d18:	b2db      	uxtb	r3, r3
30006d1a:	2b00      	cmp	r3, #0
30006d1c:	d101      	bne.n	30006d22 <stm32__spi__transmit+0xa6>
30006d1e:	bf00      	nop
30006d20:	e7f4      	b.n	30006d0c <stm32__spi__transmit+0x90>
30006d22:	68f8      	ldr	r0, [r7, #12]
30006d24:	f7ff fec0 	bl	30006aa8 <stm32__spi__current_data_direction>
30006d28:	4603      	mov	r3, r0
30006d2a:	2b01      	cmp	r3, #1
30006d2c:	d001      	beq.n	30006d32 <stm32__spi__transmit+0xb6>
30006d2e:	2b00      	cmp	r3, #0
30006d30:	d102      	bne.n	30006d38 <stm32__spi__transmit+0xbc>
30006d32:	68f8      	ldr	r0, [r7, #12]
30006d34:	f7ff ff44 	bl	30006bc0 <stm32__spi__clear_overrun>
30006d38:	2300      	movs	r3, #0
30006d3a:	75fb      	strb	r3, [r7, #23]
30006d3c:	7dfb      	ldrb	r3, [r7, #23]
30006d3e:	bf00      	nop
30006d40:	4618      	mov	r0, r3
30006d42:	3718      	adds	r7, #24
30006d44:	46bd      	mov	sp, r7
30006d46:	bdb0      	pop	{r4, r5, r7, pc}
30006d48:	3000b7e4 	.word	0x3000b7e4
30006d4c:	3000b818 	.word	0x3000b818

30006d50 <stm32__spi__transmit__2>:
30006d50:	b5b0      	push	{r4, r5, r7, lr}
30006d52:	b086      	sub	sp, #24
30006d54:	af00      	add	r7, sp, #0
30006d56:	60f8      	str	r0, [r7, #12]
30006d58:	e9c7 1200 	strd	r1, r2, [r7]
30006d5c:	60bb      	str	r3, [r7, #8]
30006d5e:	68f8      	ldr	r0, [r7, #12]
30006d60:	f7ff ff72 	bl	30006c48 <stm32__spi__data_size>
30006d64:	4603      	mov	r3, r0
30006d66:	2b01      	cmp	r3, #1
30006d68:	d005      	beq.n	30006d76 <stm32__spi__transmit__2+0x26>
30006d6a:	4c2d      	ldr	r4, [pc, #180]	; (30006e20 <stm32__spi__transmit__2+0xd0>)
30006d6c:	4d2d      	ldr	r5, [pc, #180]	; (30006e24 <stm32__spi__transmit__2+0xd4>)
30006d6e:	4620      	mov	r0, r4
30006d70:	4629      	mov	r1, r5
30006d72:	f002 fd15 	bl	300097a0 <system__assertions__raise_assert_failure>
30006d76:	68f8      	ldr	r0, [r7, #12]
30006d78:	f7ff fec8 	bl	30006b0c <stm32__spi__crc_enabled>
30006d7c:	4603      	mov	r3, r0
30006d7e:	2b00      	cmp	r3, #0
30006d80:	d002      	beq.n	30006d88 <stm32__spi__transmit__2+0x38>
30006d82:	68f8      	ldr	r0, [r7, #12]
30006d84:	f7ff ff32 	bl	30006bec <stm32__spi__reset_crc>
30006d88:	68f8      	ldr	r0, [r7, #12]
30006d8a:	f7ff fe8d 	bl	30006aa8 <stm32__spi__current_data_direction>
30006d8e:	4603      	mov	r3, r0
30006d90:	2b03      	cmp	r3, #3
30006d92:	d109      	bne.n	30006da8 <stm32__spi__transmit__2+0x58>
30006d94:	68fb      	ldr	r3, [r7, #12]
30006d96:	685b      	ldr	r3, [r3, #4]
30006d98:	681b      	ldr	r3, [r3, #0]
30006d9a:	461a      	mov	r2, r3
30006d9c:	4613      	mov	r3, r2
30006d9e:	f443 4280 	orr.w	r2, r3, #16384	; 0x4000
30006da2:	68fb      	ldr	r3, [r7, #12]
30006da4:	685b      	ldr	r3, [r3, #4]
30006da6:	601a      	str	r2, [r3, #0]
30006da8:	68f8      	ldr	r0, [r7, #12]
30006daa:	f7ff ff09 	bl	30006bc0 <stm32__spi__clear_overrun>
30006dae:	68f8      	ldr	r0, [r7, #12]
30006db0:	f7ff fd90 	bl	300068d4 <stm32__spi__enabled>
30006db4:	4603      	mov	r3, r0
30006db6:	f083 0301 	eor.w	r3, r3, #1
30006dba:	b2db      	uxtb	r3, r3
30006dbc:	2b00      	cmp	r3, #0
30006dbe:	d002      	beq.n	30006dc6 <stm32__spi__transmit__2+0x76>
30006dc0:	68f8      	ldr	r0, [r7, #12]
30006dc2:	f7ff fd61 	bl	30006888 <stm32__spi__enable>
30006dc6:	e9d7 1200 	ldrd	r1, r2, [r7]
30006dca:	68f8      	ldr	r0, [r7, #12]
30006dcc:	f000 fe44 	bl	30007a58 <stm32__spi__send_16bit_mode>
30006dd0:	68f8      	ldr	r0, [r7, #12]
30006dd2:	f7ff fe01 	bl	300069d8 <stm32__spi__tx_is_empty>
30006dd6:	4603      	mov	r3, r0
30006dd8:	2b00      	cmp	r3, #0
30006dda:	d101      	bne.n	30006de0 <stm32__spi__transmit__2+0x90>
30006ddc:	bf00      	nop
30006dde:	e7f7      	b.n	30006dd0 <stm32__spi__transmit__2+0x80>
30006de0:	68f8      	ldr	r0, [r7, #12]
30006de2:	f7ff fe23 	bl	30006a2c <stm32__spi__busy>
30006de6:	4603      	mov	r3, r0
30006de8:	f083 0301 	eor.w	r3, r3, #1
30006dec:	b2db      	uxtb	r3, r3
30006dee:	2b00      	cmp	r3, #0
30006df0:	d101      	bne.n	30006df6 <stm32__spi__transmit__2+0xa6>
30006df2:	bf00      	nop
30006df4:	e7f4      	b.n	30006de0 <stm32__spi__transmit__2+0x90>
30006df6:	68f8      	ldr	r0, [r7, #12]
30006df8:	f7ff fe56 	bl	30006aa8 <stm32__spi__current_data_direction>
30006dfc:	4603      	mov	r3, r0
30006dfe:	2b01      	cmp	r3, #1
30006e00:	d001      	beq.n	30006e06 <stm32__spi__transmit__2+0xb6>
30006e02:	2b00      	cmp	r3, #0
30006e04:	d104      	bne.n	30006e10 <stm32__spi__transmit__2+0xc0>
30006e06:	68f8      	ldr	r0, [r7, #12]
30006e08:	f7ff feda 	bl	30006bc0 <stm32__spi__clear_overrun>
30006e0c:	2301      	movs	r3, #1
30006e0e:	75fb      	strb	r3, [r7, #23]
30006e10:	2300      	movs	r3, #0
30006e12:	75fb      	strb	r3, [r7, #23]
30006e14:	7dfb      	ldrb	r3, [r7, #23]
30006e16:	bf00      	nop
30006e18:	4618      	mov	r0, r3
30006e1a:	3718      	adds	r7, #24
30006e1c:	46bd      	mov	sp, r7
30006e1e:	bdb0      	pop	{r4, r5, r7, pc}
30006e20:	3000b820 	.word	0x3000b820
30006e24:	3000b818 	.word	0x3000b818

30006e28 <stm32__spi__transmit__3>:
30006e28:	b580      	push	{r7, lr}
30006e2a:	b084      	sub	sp, #16
30006e2c:	af00      	add	r7, sp, #0
30006e2e:	6078      	str	r0, [r7, #4]
30006e30:	460b      	mov	r3, r1
30006e32:	70fb      	strb	r3, [r7, #3]
30006e34:	687b      	ldr	r3, [r7, #4]
30006e36:	685b      	ldr	r3, [r3, #4]
30006e38:	330c      	adds	r3, #12
30006e3a:	60fb      	str	r3, [r7, #12]
30006e3c:	6878      	ldr	r0, [r7, #4]
30006e3e:	f7ff fe65 	bl	30006b0c <stm32__spi__crc_enabled>
30006e42:	4603      	mov	r3, r0
30006e44:	2b00      	cmp	r3, #0
30006e46:	d002      	beq.n	30006e4e <stm32__spi__transmit__3+0x26>
30006e48:	6878      	ldr	r0, [r7, #4]
30006e4a:	f7ff fecf 	bl	30006bec <stm32__spi__reset_crc>
30006e4e:	6878      	ldr	r0, [r7, #4]
30006e50:	f7ff fe2a 	bl	30006aa8 <stm32__spi__current_data_direction>
30006e54:	4603      	mov	r3, r0
30006e56:	2b03      	cmp	r3, #3
30006e58:	d109      	bne.n	30006e6e <stm32__spi__transmit__3+0x46>
30006e5a:	687b      	ldr	r3, [r7, #4]
30006e5c:	685b      	ldr	r3, [r3, #4]
30006e5e:	681b      	ldr	r3, [r3, #0]
30006e60:	461a      	mov	r2, r3
30006e62:	4613      	mov	r3, r2
30006e64:	f443 4280 	orr.w	r2, r3, #16384	; 0x4000
30006e68:	687b      	ldr	r3, [r7, #4]
30006e6a:	685b      	ldr	r3, [r3, #4]
30006e6c:	601a      	str	r2, [r3, #0]
30006e6e:	6878      	ldr	r0, [r7, #4]
30006e70:	f7ff fd30 	bl	300068d4 <stm32__spi__enabled>
30006e74:	4603      	mov	r3, r0
30006e76:	f083 0301 	eor.w	r3, r3, #1
30006e7a:	b2db      	uxtb	r3, r3
30006e7c:	2b00      	cmp	r3, #0
30006e7e:	d002      	beq.n	30006e86 <stm32__spi__transmit__3+0x5e>
30006e80:	6878      	ldr	r0, [r7, #4]
30006e82:	f7ff fd01 	bl	30006888 <stm32__spi__enable>
30006e86:	687b      	ldr	r3, [r7, #4]
30006e88:	685b      	ldr	r3, [r3, #4]
30006e8a:	681b      	ldr	r3, [r3, #0]
30006e8c:	f3c3 2307 	ubfx	r3, r3, #8, #8
30006e90:	b2db      	uxtb	r3, r3
30006e92:	f023 037f 	bic.w	r3, r3, #127	; 0x7f
30006e96:	b2db      	uxtb	r3, r3
30006e98:	2b00      	cmp	r3, #0
30006e9a:	d009      	beq.n	30006eb0 <stm32__spi__transmit__3+0x88>
30006e9c:	687b      	ldr	r3, [r7, #4]
30006e9e:	685b      	ldr	r3, [r3, #4]
30006ea0:	681b      	ldr	r3, [r3, #0]
30006ea2:	461a      	mov	r2, r3
30006ea4:	4613      	mov	r3, r2
30006ea6:	f443 4280 	orr.w	r2, r3, #16384	; 0x4000
30006eaa:	687b      	ldr	r3, [r7, #4]
30006eac:	685b      	ldr	r3, [r3, #4]
30006eae:	601a      	str	r2, [r3, #0]
30006eb0:	68fb      	ldr	r3, [r7, #12]
30006eb2:	78fa      	ldrb	r2, [r7, #3]
30006eb4:	701a      	strb	r2, [r3, #0]
30006eb6:	6878      	ldr	r0, [r7, #4]
30006eb8:	f7ff fd8e 	bl	300069d8 <stm32__spi__tx_is_empty>
30006ebc:	4603      	mov	r3, r0
30006ebe:	2b00      	cmp	r3, #0
30006ec0:	d101      	bne.n	30006ec6 <stm32__spi__transmit__3+0x9e>
30006ec2:	bf00      	nop
30006ec4:	e7f7      	b.n	30006eb6 <stm32__spi__transmit__3+0x8e>
30006ec6:	6878      	ldr	r0, [r7, #4]
30006ec8:	f7ff fdb0 	bl	30006a2c <stm32__spi__busy>
30006ecc:	4603      	mov	r3, r0
30006ece:	f083 0301 	eor.w	r3, r3, #1
30006ed2:	b2db      	uxtb	r3, r3
30006ed4:	2b00      	cmp	r3, #0
30006ed6:	d101      	bne.n	30006edc <stm32__spi__transmit__3+0xb4>
30006ed8:	bf00      	nop
30006eda:	e7f4      	b.n	30006ec6 <stm32__spi__transmit__3+0x9e>
30006edc:	6878      	ldr	r0, [r7, #4]
30006ede:	f7ff fde3 	bl	30006aa8 <stm32__spi__current_data_direction>
30006ee2:	4603      	mov	r3, r0
30006ee4:	2b01      	cmp	r3, #1
30006ee6:	d001      	beq.n	30006eec <stm32__spi__transmit__3+0xc4>
30006ee8:	2b00      	cmp	r3, #0
30006eea:	d102      	bne.n	30006ef2 <stm32__spi__transmit__3+0xca>
30006eec:	6878      	ldr	r0, [r7, #4]
30006eee:	f7ff fe67 	bl	30006bc0 <stm32__spi__clear_overrun>
30006ef2:	3710      	adds	r7, #16
30006ef4:	46bd      	mov	sp, r7
30006ef6:	bd80      	pop	{r7, pc}

30006ef8 <stm32__spi__receive>:
30006ef8:	b5b0      	push	{r4, r5, r7, lr}
30006efa:	b088      	sub	sp, #32
30006efc:	af00      	add	r7, sp, #0
30006efe:	60f8      	str	r0, [r7, #12]
30006f00:	e9c7 1200 	strd	r1, r2, [r7]
30006f04:	60bb      	str	r3, [r7, #8]
30006f06:	68f8      	ldr	r0, [r7, #12]
30006f08:	f7ff fe9e 	bl	30006c48 <stm32__spi__data_size>
30006f0c:	4603      	mov	r3, r0
30006f0e:	2b00      	cmp	r3, #0
30006f10:	d005      	beq.n	30006f1e <stm32__spi__receive+0x26>
30006f12:	4c4a      	ldr	r4, [pc, #296]	; (3000703c <stm32__spi__receive+0x144>)
30006f14:	4d4a      	ldr	r5, [pc, #296]	; (30007040 <stm32__spi__receive+0x148>)
30006f16:	4620      	mov	r0, r4
30006f18:	4629      	mov	r1, r5
30006f1a:	f002 fc41 	bl	300097a0 <system__assertions__raise_assert_failure>
30006f1e:	68fb      	ldr	r3, [r7, #12]
30006f20:	685b      	ldr	r3, [r3, #4]
30006f22:	330c      	adds	r3, #12
30006f24:	61fb      	str	r3, [r7, #28]
30006f26:	68f8      	ldr	r0, [r7, #12]
30006f28:	f7ff fd68 	bl	300069fc <stm32__spi__rx_is_empty>
30006f2c:	4603      	mov	r3, r0
30006f2e:	2b00      	cmp	r3, #0
30006f30:	d103      	bne.n	30006f3a <stm32__spi__receive+0x42>
30006f32:	69fb      	ldr	r3, [r7, #28]
30006f34:	781b      	ldrb	r3, [r3, #0]
30006f36:	76fb      	strb	r3, [r7, #27]
30006f38:	e7f5      	b.n	30006f26 <stm32__spi__receive+0x2e>
30006f3a:	68f8      	ldr	r0, [r7, #12]
30006f3c:	f7ff fde6 	bl	30006b0c <stm32__spi__crc_enabled>
30006f40:	4603      	mov	r3, r0
30006f42:	2b00      	cmp	r3, #0
30006f44:	d002      	beq.n	30006f4c <stm32__spi__receive+0x54>
30006f46:	68f8      	ldr	r0, [r7, #12]
30006f48:	f7ff fe50 	bl	30006bec <stm32__spi__reset_crc>
30006f4c:	68f8      	ldr	r0, [r7, #12]
30006f4e:	f7ff fcc1 	bl	300068d4 <stm32__spi__enabled>
30006f52:	4603      	mov	r3, r0
30006f54:	f083 0301 	eor.w	r3, r3, #1
30006f58:	b2db      	uxtb	r3, r3
30006f5a:	2b00      	cmp	r3, #0
30006f5c:	d002      	beq.n	30006f64 <stm32__spi__receive+0x6c>
30006f5e:	68f8      	ldr	r0, [r7, #12]
30006f60:	f7ff fc92 	bl	30006888 <stm32__spi__enable>
30006f64:	68fb      	ldr	r3, [r7, #12]
30006f66:	685b      	ldr	r3, [r3, #4]
30006f68:	681b      	ldr	r3, [r3, #0]
30006f6a:	f3c3 2307 	ubfx	r3, r3, #8, #8
30006f6e:	b2db      	uxtb	r3, r3
30006f70:	f023 037f 	bic.w	r3, r3, #127	; 0x7f
30006f74:	b2db      	uxtb	r3, r3
30006f76:	2b00      	cmp	r3, #0
30006f78:	d00d      	beq.n	30006f96 <stm32__spi__receive+0x9e>
30006f7a:	68f8      	ldr	r0, [r7, #12]
30006f7c:	f7ff fc98 	bl	300068b0 <stm32__spi__disable>
30006f80:	68fb      	ldr	r3, [r7, #12]
30006f82:	685b      	ldr	r3, [r3, #4]
30006f84:	681b      	ldr	r3, [r3, #0]
30006f86:	f36f 338e 	bfc	r3, #14, #1
30006f8a:	68fa      	ldr	r2, [r7, #12]
30006f8c:	6852      	ldr	r2, [r2, #4]
30006f8e:	6013      	str	r3, [r2, #0]
30006f90:	68f8      	ldr	r0, [r7, #12]
30006f92:	f7ff fc79 	bl	30006888 <stm32__spi__enable>
30006f96:	e9d7 1200 	ldrd	r1, r2, [r7]
30006f9a:	68f8      	ldr	r0, [r7, #12]
30006f9c:	f000 ff64 	bl	30007e68 <stm32__spi__receive_8bit_mode>
30006fa0:	68fb      	ldr	r3, [r7, #12]
30006fa2:	685b      	ldr	r3, [r3, #4]
30006fa4:	681b      	ldr	r3, [r3, #0]
30006fa6:	f3c3 2307 	ubfx	r3, r3, #8, #8
30006faa:	b2db      	uxtb	r3, r3
30006fac:	f023 037f 	bic.w	r3, r3, #127	; 0x7f
30006fb0:	b2db      	uxtb	r3, r3
30006fb2:	2b00      	cmp	r3, #0
30006fb4:	d01d      	beq.n	30006ff2 <stm32__spi__receive+0xfa>
30006fb6:	68f8      	ldr	r0, [r7, #12]
30006fb8:	f7ff fc7a 	bl	300068b0 <stm32__spi__disable>
30006fbc:	68fb      	ldr	r3, [r7, #12]
30006fbe:	685b      	ldr	r3, [r3, #4]
30006fc0:	681b      	ldr	r3, [r3, #0]
30006fc2:	461a      	mov	r2, r3
30006fc4:	4613      	mov	r3, r2
30006fc6:	f443 4280 	orr.w	r2, r3, #16384	; 0x4000
30006fca:	68fb      	ldr	r3, [r7, #12]
30006fcc:	685b      	ldr	r3, [r3, #4]
30006fce:	601a      	str	r2, [r3, #0]
30006fd0:	68f8      	ldr	r0, [r7, #12]
30006fd2:	f7ff fc59 	bl	30006888 <stm32__spi__enable>
30006fd6:	68fb      	ldr	r3, [r7, #12]
30006fd8:	685b      	ldr	r3, [r3, #4]
30006fda:	330c      	adds	r3, #12
30006fdc:	617b      	str	r3, [r7, #20]
30006fde:	68f8      	ldr	r0, [r7, #12]
30006fe0:	f7ff fd0c 	bl	300069fc <stm32__spi__rx_is_empty>
30006fe4:	4603      	mov	r3, r0
30006fe6:	2b00      	cmp	r3, #0
30006fe8:	d103      	bne.n	30006ff2 <stm32__spi__receive+0xfa>
30006fea:	697b      	ldr	r3, [r7, #20]
30006fec:	781b      	ldrb	r3, [r3, #0]
30006fee:	74fb      	strb	r3, [r7, #19]
30006ff0:	e7f5      	b.n	30006fde <stm32__spi__receive+0xe6>
30006ff2:	68f8      	ldr	r0, [r7, #12]
30006ff4:	f7ff fd1a 	bl	30006a2c <stm32__spi__busy>
30006ff8:	4603      	mov	r3, r0
30006ffa:	f083 0301 	eor.w	r3, r3, #1
30006ffe:	b2db      	uxtb	r3, r3
30007000:	2b00      	cmp	r3, #0
30007002:	d101      	bne.n	30007008 <stm32__spi__receive+0x110>
30007004:	bf00      	nop
30007006:	e7f4      	b.n	30006ff2 <stm32__spi__receive+0xfa>
30007008:	68f8      	ldr	r0, [r7, #12]
3000700a:	f7ff fd7f 	bl	30006b0c <stm32__spi__crc_enabled>
3000700e:	4603      	mov	r3, r0
30007010:	461c      	mov	r4, r3
30007012:	68f8      	ldr	r0, [r7, #12]
30007014:	f7ff fd8c 	bl	30006b30 <stm32__spi__crc_error_indicated>
30007018:	4603      	mov	r3, r0
3000701a:	4023      	ands	r3, r4
3000701c:	b2db      	uxtb	r3, r3
3000701e:	2b00      	cmp	r3, #0
30007020:	d004      	beq.n	3000702c <stm32__spi__receive+0x134>
30007022:	68f8      	ldr	r0, [r7, #12]
30007024:	f7ff fde2 	bl	30006bec <stm32__spi__reset_crc>
30007028:	2301      	movs	r3, #1
3000702a:	74bb      	strb	r3, [r7, #18]
3000702c:	2300      	movs	r3, #0
3000702e:	74bb      	strb	r3, [r7, #18]
30007030:	7cbb      	ldrb	r3, [r7, #18]
30007032:	bf00      	nop
30007034:	4618      	mov	r0, r3
30007036:	3720      	adds	r7, #32
30007038:	46bd      	mov	sp, r7
3000703a:	bdb0      	pop	{r4, r5, r7, pc}
3000703c:	3000b854 	.word	0x3000b854
30007040:	3000b818 	.word	0x3000b818

30007044 <stm32__spi__receive__2>:
30007044:	b5b0      	push	{r4, r5, r7, lr}
30007046:	b086      	sub	sp, #24
30007048:	af00      	add	r7, sp, #0
3000704a:	60f8      	str	r0, [r7, #12]
3000704c:	e9c7 1200 	strd	r1, r2, [r7]
30007050:	60bb      	str	r3, [r7, #8]
30007052:	68f8      	ldr	r0, [r7, #12]
30007054:	f7ff fdf8 	bl	30006c48 <stm32__spi__data_size>
30007058:	4603      	mov	r3, r0
3000705a:	2b01      	cmp	r3, #1
3000705c:	d005      	beq.n	3000706a <stm32__spi__receive__2+0x26>
3000705e:	4c22      	ldr	r4, [pc, #136]	; (300070e8 <stm32__spi__receive__2+0xa4>)
30007060:	4d22      	ldr	r5, [pc, #136]	; (300070ec <stm32__spi__receive__2+0xa8>)
30007062:	4620      	mov	r0, r4
30007064:	4629      	mov	r1, r5
30007066:	f002 fb9b 	bl	300097a0 <system__assertions__raise_assert_failure>
3000706a:	68f8      	ldr	r0, [r7, #12]
3000706c:	f7ff fd4e 	bl	30006b0c <stm32__spi__crc_enabled>
30007070:	4603      	mov	r3, r0
30007072:	2b00      	cmp	r3, #0
30007074:	d002      	beq.n	3000707c <stm32__spi__receive__2+0x38>
30007076:	68f8      	ldr	r0, [r7, #12]
30007078:	f7ff fdb8 	bl	30006bec <stm32__spi__reset_crc>
3000707c:	68f8      	ldr	r0, [r7, #12]
3000707e:	f7ff fc29 	bl	300068d4 <stm32__spi__enabled>
30007082:	4603      	mov	r3, r0
30007084:	f083 0301 	eor.w	r3, r3, #1
30007088:	b2db      	uxtb	r3, r3
3000708a:	2b00      	cmp	r3, #0
3000708c:	d002      	beq.n	30007094 <stm32__spi__receive__2+0x50>
3000708e:	68f8      	ldr	r0, [r7, #12]
30007090:	f7ff fbfa 	bl	30006888 <stm32__spi__enable>
30007094:	e9d7 1200 	ldrd	r1, r2, [r7]
30007098:	68f8      	ldr	r0, [r7, #12]
3000709a:	f000 fe9b 	bl	30007dd4 <stm32__spi__receive_16bit_mode>
3000709e:	68f8      	ldr	r0, [r7, #12]
300070a0:	f7ff fcc4 	bl	30006a2c <stm32__spi__busy>
300070a4:	4603      	mov	r3, r0
300070a6:	f083 0301 	eor.w	r3, r3, #1
300070aa:	b2db      	uxtb	r3, r3
300070ac:	2b00      	cmp	r3, #0
300070ae:	d101      	bne.n	300070b4 <stm32__spi__receive__2+0x70>
300070b0:	bf00      	nop
300070b2:	e7f4      	b.n	3000709e <stm32__spi__receive__2+0x5a>
300070b4:	68f8      	ldr	r0, [r7, #12]
300070b6:	f7ff fd29 	bl	30006b0c <stm32__spi__crc_enabled>
300070ba:	4603      	mov	r3, r0
300070bc:	461c      	mov	r4, r3
300070be:	68f8      	ldr	r0, [r7, #12]
300070c0:	f7ff fd36 	bl	30006b30 <stm32__spi__crc_error_indicated>
300070c4:	4603      	mov	r3, r0
300070c6:	4023      	ands	r3, r4
300070c8:	b2db      	uxtb	r3, r3
300070ca:	2b00      	cmp	r3, #0
300070cc:	d004      	beq.n	300070d8 <stm32__spi__receive__2+0x94>
300070ce:	68f8      	ldr	r0, [r7, #12]
300070d0:	f7ff fd8c 	bl	30006bec <stm32__spi__reset_crc>
300070d4:	2301      	movs	r3, #1
300070d6:	75fb      	strb	r3, [r7, #23]
300070d8:	2300      	movs	r3, #0
300070da:	75fb      	strb	r3, [r7, #23]
300070dc:	7dfb      	ldrb	r3, [r7, #23]
300070de:	bf00      	nop
300070e0:	4618      	mov	r0, r3
300070e2:	3718      	adds	r7, #24
300070e4:	46bd      	mov	sp, r7
300070e6:	bdb0      	pop	{r4, r5, r7, pc}
300070e8:	3000b888 	.word	0x3000b888
300070ec:	3000b818 	.word	0x3000b818

300070f0 <stm32__spi__receive__3>:
300070f0:	b590      	push	{r4, r7, lr}
300070f2:	b085      	sub	sp, #20
300070f4:	af00      	add	r7, sp, #0
300070f6:	6078      	str	r0, [r7, #4]
300070f8:	687b      	ldr	r3, [r7, #4]
300070fa:	685b      	ldr	r3, [r3, #4]
300070fc:	330c      	adds	r3, #12
300070fe:	60fb      	str	r3, [r7, #12]
30007100:	6878      	ldr	r0, [r7, #4]
30007102:	f7ff fd03 	bl	30006b0c <stm32__spi__crc_enabled>
30007106:	4603      	mov	r3, r0
30007108:	2b00      	cmp	r3, #0
3000710a:	d002      	beq.n	30007112 <stm32__spi__receive__3+0x22>
3000710c:	6878      	ldr	r0, [r7, #4]
3000710e:	f7ff fd6d 	bl	30006bec <stm32__spi__reset_crc>
30007112:	6878      	ldr	r0, [r7, #4]
30007114:	f7ff fbde 	bl	300068d4 <stm32__spi__enabled>
30007118:	4603      	mov	r3, r0
3000711a:	f083 0301 	eor.w	r3, r3, #1
3000711e:	b2db      	uxtb	r3, r3
30007120:	2b00      	cmp	r3, #0
30007122:	d002      	beq.n	3000712a <stm32__spi__receive__3+0x3a>
30007124:	6878      	ldr	r0, [r7, #4]
30007126:	f7ff fbaf 	bl	30006888 <stm32__spi__enable>
3000712a:	68fb      	ldr	r3, [r7, #12]
3000712c:	2200      	movs	r2, #0
3000712e:	701a      	strb	r2, [r3, #0]
30007130:	6878      	ldr	r0, [r7, #4]
30007132:	f7ff fc63 	bl	300069fc <stm32__spi__rx_is_empty>
30007136:	4603      	mov	r3, r0
30007138:	f083 0301 	eor.w	r3, r3, #1
3000713c:	b2db      	uxtb	r3, r3
3000713e:	2b00      	cmp	r3, #0
30007140:	d101      	bne.n	30007146 <stm32__spi__receive__3+0x56>
30007142:	bf00      	nop
30007144:	e7f4      	b.n	30007130 <stm32__spi__receive__3+0x40>
30007146:	68fb      	ldr	r3, [r7, #12]
30007148:	781b      	ldrb	r3, [r3, #0]
3000714a:	b2db      	uxtb	r3, r3
3000714c:	727b      	strb	r3, [r7, #9]
3000714e:	6878      	ldr	r0, [r7, #4]
30007150:	f7ff fcdc 	bl	30006b0c <stm32__spi__crc_enabled>
30007154:	4603      	mov	r3, r0
30007156:	2b00      	cmp	r3, #0
30007158:	d00f      	beq.n	3000717a <stm32__spi__receive__3+0x8a>
3000715a:	6878      	ldr	r0, [r7, #4]
3000715c:	f7ff fc4e 	bl	300069fc <stm32__spi__rx_is_empty>
30007160:	4603      	mov	r3, r0
30007162:	f083 0301 	eor.w	r3, r3, #1
30007166:	b2db      	uxtb	r3, r3
30007168:	2b00      	cmp	r3, #0
3000716a:	d101      	bne.n	30007170 <stm32__spi__receive__3+0x80>
3000716c:	bf00      	nop
3000716e:	e7f4      	b.n	3000715a <stm32__spi__receive__3+0x6a>
30007170:	687b      	ldr	r3, [r7, #4]
30007172:	685b      	ldr	r3, [r3, #4]
30007174:	330c      	adds	r3, #12
30007176:	681b      	ldr	r3, [r3, #0]
30007178:	817b      	strh	r3, [r7, #10]
3000717a:	6878      	ldr	r0, [r7, #4]
3000717c:	f7ff fc56 	bl	30006a2c <stm32__spi__busy>
30007180:	4603      	mov	r3, r0
30007182:	f083 0301 	eor.w	r3, r3, #1
30007186:	b2db      	uxtb	r3, r3
30007188:	2b00      	cmp	r3, #0
3000718a:	d101      	bne.n	30007190 <stm32__spi__receive__3+0xa0>
3000718c:	bf00      	nop
3000718e:	e7f4      	b.n	3000717a <stm32__spi__receive__3+0x8a>
30007190:	6878      	ldr	r0, [r7, #4]
30007192:	f7ff fcbb 	bl	30006b0c <stm32__spi__crc_enabled>
30007196:	4603      	mov	r3, r0
30007198:	461c      	mov	r4, r3
3000719a:	6878      	ldr	r0, [r7, #4]
3000719c:	f7ff fcc8 	bl	30006b30 <stm32__spi__crc_error_indicated>
300071a0:	4603      	mov	r3, r0
300071a2:	4023      	ands	r3, r4
300071a4:	b2db      	uxtb	r3, r3
300071a6:	2b00      	cmp	r3, #0
300071a8:	d002      	beq.n	300071b0 <stm32__spi__receive__3+0xc0>
300071aa:	6878      	ldr	r0, [r7, #4]
300071ac:	f7ff fd1e 	bl	30006bec <stm32__spi__reset_crc>
300071b0:	7a7b      	ldrb	r3, [r7, #9]
300071b2:	bf00      	nop
300071b4:	4618      	mov	r0, r3
300071b6:	3714      	adds	r7, #20
300071b8:	46bd      	mov	sp, r7
300071ba:	bd90      	pop	{r4, r7, pc}

300071bc <stm32__spi__transmit_receive__2>:
300071bc:	b082      	sub	sp, #8
300071be:	b590      	push	{r4, r7, lr}
300071c0:	b08f      	sub	sp, #60	; 0x3c
300071c2:	af02      	add	r7, sp, #8
300071c4:	6178      	str	r0, [r7, #20]
300071c6:	e9c7 1202 	strd	r1, r2, [r7, #8]
300071ca:	647b      	str	r3, [r7, #68]	; 0x44
300071cc:	463b      	mov	r3, r7
300071ce:	f107 0244 	add.w	r2, r7, #68	; 0x44
300071d2:	e892 0003 	ldmia.w	r2, {r0, r1}
300071d6:	e883 0003 	stmia.w	r3, {r0, r1}
300071da:	68fb      	ldr	r3, [r7, #12]
300071dc:	681b      	ldr	r3, [r3, #0]
300071de:	68fa      	ldr	r2, [r7, #12]
300071e0:	6852      	ldr	r2, [r2, #4]
300071e2:	6879      	ldr	r1, [r7, #4]
300071e4:	6809      	ldr	r1, [r1, #0]
300071e6:	62f9      	str	r1, [r7, #44]	; 0x2c
300071e8:	6879      	ldr	r1, [r7, #4]
300071ea:	6848      	ldr	r0, [r1, #4]
300071ec:	6879      	ldr	r1, [r7, #4]
300071ee:	6809      	ldr	r1, [r1, #0]
300071f0:	4288      	cmp	r0, r1
300071f2:	db03      	blt.n	300071fc <stm32__spi__transmit_receive__2+0x40>
300071f4:	6879      	ldr	r1, [r7, #4]
300071f6:	6849      	ldr	r1, [r1, #4]
300071f8:	62b9      	str	r1, [r7, #40]	; 0x28
300071fa:	e003      	b.n	30007204 <stm32__spi__transmit_receive__2+0x48>
300071fc:	6879      	ldr	r1, [r7, #4]
300071fe:	6809      	ldr	r1, [r1, #0]
30007200:	3901      	subs	r1, #1
30007202:	62b9      	str	r1, [r7, #40]	; 0x28
30007204:	627b      	str	r3, [r7, #36]	; 0x24
30007206:	429a      	cmp	r2, r3
30007208:	db01      	blt.n	3000720e <stm32__spi__transmit_receive__2+0x52>
3000720a:	623a      	str	r2, [r7, #32]
3000720c:	e001      	b.n	30007212 <stm32__spi__transmit_receive__2+0x56>
3000720e:	3b01      	subs	r3, #1
30007210:	623b      	str	r3, [r7, #32]
30007212:	6978      	ldr	r0, [r7, #20]
30007214:	f7ff fc7a 	bl	30006b0c <stm32__spi__crc_enabled>
30007218:	4603      	mov	r3, r0
3000721a:	2b00      	cmp	r3, #0
3000721c:	d002      	beq.n	30007224 <stm32__spi__transmit_receive__2+0x68>
3000721e:	6978      	ldr	r0, [r7, #20]
30007220:	f7ff fce4 	bl	30006bec <stm32__spi__reset_crc>
30007224:	6978      	ldr	r0, [r7, #20]
30007226:	f7ff fb55 	bl	300068d4 <stm32__spi__enabled>
3000722a:	4603      	mov	r3, r0
3000722c:	f083 0301 	eor.w	r3, r3, #1
30007230:	b2db      	uxtb	r3, r3
30007232:	2b00      	cmp	r3, #0
30007234:	d002      	beq.n	3000723c <stm32__spi__transmit_receive__2+0x80>
30007236:	6978      	ldr	r0, [r7, #20]
30007238:	f7ff fb26 	bl	30006888 <stm32__spi__enable>
3000723c:	6978      	ldr	r0, [r7, #20]
3000723e:	f7ff fcf1 	bl	30006c24 <stm32__spi__is_data_frame_16bit>
30007242:	4603      	mov	r3, r0
30007244:	2b00      	cmp	r3, #0
30007246:	d00a      	beq.n	3000725e <stm32__spi__transmit_receive__2+0xa2>
30007248:	6cfb      	ldr	r3, [r7, #76]	; 0x4c
3000724a:	9301      	str	r3, [sp, #4]
3000724c:	687b      	ldr	r3, [r7, #4]
3000724e:	9300      	str	r3, [sp, #0]
30007250:	683b      	ldr	r3, [r7, #0]
30007252:	e9d7 1202 	ldrd	r1, r2, [r7, #8]
30007256:	6978      	ldr	r0, [r7, #20]
30007258:	f000 f8c8 	bl	300073ec <stm32__spi__send_receive_16bit_mode>
3000725c:	e009      	b.n	30007272 <stm32__spi__transmit_receive__2+0xb6>
3000725e:	6cfb      	ldr	r3, [r7, #76]	; 0x4c
30007260:	9301      	str	r3, [sp, #4]
30007262:	687b      	ldr	r3, [r7, #4]
30007264:	9300      	str	r3, [sp, #0]
30007266:	683b      	ldr	r3, [r7, #0]
30007268:	e9d7 1202 	ldrd	r1, r2, [r7, #8]
3000726c:	6978      	ldr	r0, [r7, #20]
3000726e:	f000 fa79 	bl	30007764 <stm32__spi__send_receive_8bit_mode>
30007272:	6978      	ldr	r0, [r7, #20]
30007274:	f7ff fc4a 	bl	30006b0c <stm32__spi__crc_enabled>
30007278:	4603      	mov	r3, r0
3000727a:	2b00      	cmp	r3, #0
3000727c:	d00f      	beq.n	3000729e <stm32__spi__transmit_receive__2+0xe2>
3000727e:	6978      	ldr	r0, [r7, #20]
30007280:	f7ff fbbc 	bl	300069fc <stm32__spi__rx_is_empty>
30007284:	4603      	mov	r3, r0
30007286:	f083 0301 	eor.w	r3, r3, #1
3000728a:	b2db      	uxtb	r3, r3
3000728c:	2b00      	cmp	r3, #0
3000728e:	d101      	bne.n	30007294 <stm32__spi__transmit_receive__2+0xd8>
30007290:	bf00      	nop
30007292:	e7f4      	b.n	3000727e <stm32__spi__transmit_receive__2+0xc2>
30007294:	697b      	ldr	r3, [r7, #20]
30007296:	685b      	ldr	r3, [r3, #4]
30007298:	330c      	adds	r3, #12
3000729a:	681b      	ldr	r3, [r3, #0]
3000729c:	83fb      	strh	r3, [r7, #30]
3000729e:	6978      	ldr	r0, [r7, #20]
300072a0:	f7ff fbc4 	bl	30006a2c <stm32__spi__busy>
300072a4:	4603      	mov	r3, r0
300072a6:	f083 0301 	eor.w	r3, r3, #1
300072aa:	b2db      	uxtb	r3, r3
300072ac:	2b00      	cmp	r3, #0
300072ae:	d101      	bne.n	300072b4 <stm32__spi__transmit_receive__2+0xf8>
300072b0:	bf00      	nop
300072b2:	e7f4      	b.n	3000729e <stm32__spi__transmit_receive__2+0xe2>
300072b4:	6978      	ldr	r0, [r7, #20]
300072b6:	f7ff fc29 	bl	30006b0c <stm32__spi__crc_enabled>
300072ba:	4603      	mov	r3, r0
300072bc:	461c      	mov	r4, r3
300072be:	6978      	ldr	r0, [r7, #20]
300072c0:	f7ff fc36 	bl	30006b30 <stm32__spi__crc_error_indicated>
300072c4:	4603      	mov	r3, r0
300072c6:	4023      	ands	r3, r4
300072c8:	b2db      	uxtb	r3, r3
300072ca:	2b00      	cmp	r3, #0
300072cc:	d002      	beq.n	300072d4 <stm32__spi__transmit_receive__2+0x118>
300072ce:	6978      	ldr	r0, [r7, #20]
300072d0:	f7ff fc8c 	bl	30006bec <stm32__spi__reset_crc>
300072d4:	3734      	adds	r7, #52	; 0x34
300072d6:	46bd      	mov	sp, r7
300072d8:	e8bd 4090 	ldmia.w	sp!, {r4, r7, lr}
300072dc:	b002      	add	sp, #8
300072de:	4770      	bx	lr

300072e0 <stm32__spi__transmit_receive__3>:
300072e0:	b590      	push	{r4, r7, lr}
300072e2:	b085      	sub	sp, #20
300072e4:	af00      	add	r7, sp, #0
300072e6:	6078      	str	r0, [r7, #4]
300072e8:	460b      	mov	r3, r1
300072ea:	70fb      	strb	r3, [r7, #3]
300072ec:	687b      	ldr	r3, [r7, #4]
300072ee:	685b      	ldr	r3, [r3, #4]
300072f0:	330c      	adds	r3, #12
300072f2:	60fb      	str	r3, [r7, #12]
300072f4:	6878      	ldr	r0, [r7, #4]
300072f6:	f7ff fc09 	bl	30006b0c <stm32__spi__crc_enabled>
300072fa:	4603      	mov	r3, r0
300072fc:	2b00      	cmp	r3, #0
300072fe:	d002      	beq.n	30007306 <stm32__spi__transmit_receive__3+0x26>
30007300:	6878      	ldr	r0, [r7, #4]
30007302:	f7ff fc73 	bl	30006bec <stm32__spi__reset_crc>
30007306:	6878      	ldr	r0, [r7, #4]
30007308:	f7ff fae4 	bl	300068d4 <stm32__spi__enabled>
3000730c:	4603      	mov	r3, r0
3000730e:	f083 0301 	eor.w	r3, r3, #1
30007312:	b2db      	uxtb	r3, r3
30007314:	2b00      	cmp	r3, #0
30007316:	d002      	beq.n	3000731e <stm32__spi__transmit_receive__3+0x3e>
30007318:	6878      	ldr	r0, [r7, #4]
3000731a:	f7ff fab5 	bl	30006888 <stm32__spi__enable>
3000731e:	6878      	ldr	r0, [r7, #4]
30007320:	f7ff fc80 	bl	30006c24 <stm32__spi__is_data_frame_16bit>
30007324:	4603      	mov	r3, r0
30007326:	2b00      	cmp	r3, #0
30007328:	d004      	beq.n	30007334 <stm32__spi__transmit_receive__3+0x54>
3000732a:	f44f 7133 	mov.w	r1, #716	; 0x2cc
3000732e:	482e      	ldr	r0, [pc, #184]	; (300073e8 <stm32__spi__transmit_receive__3+0x108>)
30007330:	f002 f82e 	bl	30009390 <__gnat_last_chance_handler>
30007334:	68fb      	ldr	r3, [r7, #12]
30007336:	78fa      	ldrb	r2, [r7, #3]
30007338:	701a      	strb	r2, [r3, #0]
3000733a:	6878      	ldr	r0, [r7, #4]
3000733c:	f7ff fbe6 	bl	30006b0c <stm32__spi__crc_enabled>
30007340:	4603      	mov	r3, r0
30007342:	2b00      	cmp	r3, #0
30007344:	d009      	beq.n	3000735a <stm32__spi__transmit_receive__3+0x7a>
30007346:	687b      	ldr	r3, [r7, #4]
30007348:	685b      	ldr	r3, [r3, #4]
3000734a:	681b      	ldr	r3, [r3, #0]
3000734c:	461a      	mov	r2, r3
3000734e:	4613      	mov	r3, r2
30007350:	f443 5280 	orr.w	r2, r3, #4096	; 0x1000
30007354:	687b      	ldr	r3, [r7, #4]
30007356:	685b      	ldr	r3, [r3, #4]
30007358:	601a      	str	r2, [r3, #0]
3000735a:	6878      	ldr	r0, [r7, #4]
3000735c:	f7ff fb4e 	bl	300069fc <stm32__spi__rx_is_empty>
30007360:	4603      	mov	r3, r0
30007362:	f083 0301 	eor.w	r3, r3, #1
30007366:	b2db      	uxtb	r3, r3
30007368:	2b00      	cmp	r3, #0
3000736a:	d101      	bne.n	30007370 <stm32__spi__transmit_receive__3+0x90>
3000736c:	bf00      	nop
3000736e:	e7f4      	b.n	3000735a <stm32__spi__transmit_receive__3+0x7a>
30007370:	68fb      	ldr	r3, [r7, #12]
30007372:	781b      	ldrb	r3, [r3, #0]
30007374:	b2db      	uxtb	r3, r3
30007376:	727b      	strb	r3, [r7, #9]
30007378:	6878      	ldr	r0, [r7, #4]
3000737a:	f7ff fbc7 	bl	30006b0c <stm32__spi__crc_enabled>
3000737e:	4603      	mov	r3, r0
30007380:	2b00      	cmp	r3, #0
30007382:	d00f      	beq.n	300073a4 <stm32__spi__transmit_receive__3+0xc4>
30007384:	6878      	ldr	r0, [r7, #4]
30007386:	f7ff fb39 	bl	300069fc <stm32__spi__rx_is_empty>
3000738a:	4603      	mov	r3, r0
3000738c:	f083 0301 	eor.w	r3, r3, #1
30007390:	b2db      	uxtb	r3, r3
30007392:	2b00      	cmp	r3, #0
30007394:	d101      	bne.n	3000739a <stm32__spi__transmit_receive__3+0xba>
30007396:	bf00      	nop
30007398:	e7f4      	b.n	30007384 <stm32__spi__transmit_receive__3+0xa4>
3000739a:	687b      	ldr	r3, [r7, #4]
3000739c:	685b      	ldr	r3, [r3, #4]
3000739e:	330c      	adds	r3, #12
300073a0:	681b      	ldr	r3, [r3, #0]
300073a2:	817b      	strh	r3, [r7, #10]
300073a4:	6878      	ldr	r0, [r7, #4]
300073a6:	f7ff fb41 	bl	30006a2c <stm32__spi__busy>
300073aa:	4603      	mov	r3, r0
300073ac:	f083 0301 	eor.w	r3, r3, #1
300073b0:	b2db      	uxtb	r3, r3
300073b2:	2b00      	cmp	r3, #0
300073b4:	d101      	bne.n	300073ba <stm32__spi__transmit_receive__3+0xda>
300073b6:	bf00      	nop
300073b8:	e7f4      	b.n	300073a4 <stm32__spi__transmit_receive__3+0xc4>
300073ba:	6878      	ldr	r0, [r7, #4]
300073bc:	f7ff fba6 	bl	30006b0c <stm32__spi__crc_enabled>
300073c0:	4603      	mov	r3, r0
300073c2:	461c      	mov	r4, r3
300073c4:	6878      	ldr	r0, [r7, #4]
300073c6:	f7ff fbb3 	bl	30006b30 <stm32__spi__crc_error_indicated>
300073ca:	4603      	mov	r3, r0
300073cc:	4023      	ands	r3, r4
300073ce:	b2db      	uxtb	r3, r3
300073d0:	2b00      	cmp	r3, #0
300073d2:	d002      	beq.n	300073da <stm32__spi__transmit_receive__3+0xfa>
300073d4:	6878      	ldr	r0, [r7, #4]
300073d6:	f7ff fc09 	bl	30006bec <stm32__spi__reset_crc>
300073da:	7a7b      	ldrb	r3, [r7, #9]
300073dc:	bf00      	nop
300073de:	4618      	mov	r0, r3
300073e0:	3714      	adds	r7, #20
300073e2:	46bd      	mov	sp, r7
300073e4:	bd90      	pop	{r4, r7, pc}
300073e6:	bf00      	nop
300073e8:	3000b7d4 	.word	0x3000b7d4

300073ec <stm32__spi__send_receive_16bit_mode>:
300073ec:	b082      	sub	sp, #8
300073ee:	b5f0      	push	{r4, r5, r6, r7, lr}
300073f0:	b08f      	sub	sp, #60	; 0x3c
300073f2:	af00      	add	r7, sp, #0
300073f4:	6178      	str	r0, [r7, #20]
300073f6:	e9c7 1202 	strd	r1, r2, [r7, #8]
300073fa:	657b      	str	r3, [r7, #84]	; 0x54
300073fc:	463b      	mov	r3, r7
300073fe:	f107 0254 	add.w	r2, r7, #84	; 0x54
30007402:	e892 0003 	ldmia.w	r2, {r0, r1}
30007406:	e883 0003 	stmia.w	r3, {r0, r1}
3000740a:	68fb      	ldr	r3, [r7, #12]
3000740c:	681c      	ldr	r4, [r3, #0]
3000740e:	68fb      	ldr	r3, [r7, #12]
30007410:	685d      	ldr	r5, [r3, #4]
30007412:	687b      	ldr	r3, [r7, #4]
30007414:	681b      	ldr	r3, [r3, #0]
30007416:	62bb      	str	r3, [r7, #40]	; 0x28
30007418:	687b      	ldr	r3, [r7, #4]
3000741a:	685a      	ldr	r2, [r3, #4]
3000741c:	687b      	ldr	r3, [r7, #4]
3000741e:	681b      	ldr	r3, [r3, #0]
30007420:	429a      	cmp	r2, r3
30007422:	db03      	blt.n	3000742c <stm32__spi__send_receive_16bit_mode+0x40>
30007424:	687b      	ldr	r3, [r7, #4]
30007426:	685b      	ldr	r3, [r3, #4]
30007428:	627b      	str	r3, [r7, #36]	; 0x24
3000742a:	e003      	b.n	30007434 <stm32__spi__send_receive_16bit_mode+0x48>
3000742c:	687b      	ldr	r3, [r7, #4]
3000742e:	681b      	ldr	r3, [r3, #0]
30007430:	3b01      	subs	r3, #1
30007432:	627b      	str	r3, [r7, #36]	; 0x24
30007434:	623c      	str	r4, [r7, #32]
30007436:	42a5      	cmp	r5, r4
30007438:	db01      	blt.n	3000743e <stm32__spi__send_receive_16bit_mode+0x52>
3000743a:	61fd      	str	r5, [r7, #28]
3000743c:	e002      	b.n	30007444 <stm32__spi__send_receive_16bit_mode+0x58>
3000743e:	4623      	mov	r3, r4
30007440:	3b01      	subs	r3, #1
30007442:	61fb      	str	r3, [r7, #28]
30007444:	6dfb      	ldr	r3, [r7, #92]	; 0x5c
30007446:	633b      	str	r3, [r7, #48]	; 0x30
30007448:	2c00      	cmp	r4, #0
3000744a:	da04      	bge.n	30007456 <stm32__spi__send_receive_16bit_mode+0x6a>
3000744c:	f240 21fe 	movw	r1, #766	; 0x2fe
30007450:	48a1      	ldr	r0, [pc, #644]	; (300076d8 <stm32__spi__send_receive_16bit_mode+0x2ec>)
30007452:	f001 ff9d 	bl	30009390 <__gnat_last_chance_handler>
30007456:	637c      	str	r4, [r7, #52]	; 0x34
30007458:	687b      	ldr	r3, [r7, #4]
3000745a:	681b      	ldr	r3, [r3, #0]
3000745c:	2b00      	cmp	r3, #0
3000745e:	da04      	bge.n	3000746a <stm32__spi__send_receive_16bit_mode+0x7e>
30007460:	f240 21ff 	movw	r1, #767	; 0x2ff
30007464:	489c      	ldr	r0, [pc, #624]	; (300076d8 <stm32__spi__send_receive_16bit_mode+0x2ec>)
30007466:	f001 ff93 	bl	30009390 <__gnat_last_chance_handler>
3000746a:	687b      	ldr	r3, [r7, #4]
3000746c:	681b      	ldr	r3, [r3, #0]
3000746e:	62fb      	str	r3, [r7, #44]	; 0x2c
30007470:	6978      	ldr	r0, [r7, #20]
30007472:	f7ff faed 	bl	30006a50 <stm32__spi__current_mode>
30007476:	4603      	mov	r3, r0
30007478:	2b01      	cmp	r3, #1
3000747a:	bf0c      	ite	eq
3000747c:	2301      	moveq	r3, #1
3000747e:	2300      	movne	r3, #0
30007480:	b2db      	uxtb	r3, r3
30007482:	2b00      	cmp	r3, #0
30007484:	d102      	bne.n	3000748c <stm32__spi__send_receive_16bit_mode+0xa0>
30007486:	6b3b      	ldr	r3, [r7, #48]	; 0x30
30007488:	2b01      	cmp	r3, #1
3000748a:	d13c      	bne.n	30007506 <stm32__spi__send_receive_16bit_mode+0x11a>
3000748c:	6b7b      	ldr	r3, [r7, #52]	; 0x34
3000748e:	429c      	cmp	r4, r3
30007490:	dc02      	bgt.n	30007498 <stm32__spi__send_receive_16bit_mode+0xac>
30007492:	6b7b      	ldr	r3, [r7, #52]	; 0x34
30007494:	429d      	cmp	r5, r3
30007496:	da04      	bge.n	300074a2 <stm32__spi__send_receive_16bit_mode+0xb6>
30007498:	f240 3103 	movw	r1, #771	; 0x303
3000749c:	488e      	ldr	r0, [pc, #568]	; (300076d8 <stm32__spi__send_receive_16bit_mode+0x2ec>)
3000749e:	f001 ff77 	bl	30009390 <__gnat_last_chance_handler>
300074a2:	68ba      	ldr	r2, [r7, #8]
300074a4:	6b7b      	ldr	r3, [r7, #52]	; 0x34
300074a6:	4621      	mov	r1, r4
300074a8:	1a5b      	subs	r3, r3, r1
300074aa:	4413      	add	r3, r2
300074ac:	2b00      	cmp	r3, #0
300074ae:	d104      	bne.n	300074ba <stm32__spi__send_receive_16bit_mode+0xce>
300074b0:	f240 3103 	movw	r1, #771	; 0x303
300074b4:	4888      	ldr	r0, [pc, #544]	; (300076d8 <stm32__spi__send_receive_16bit_mode+0x2ec>)
300074b6:	f001 ff6b 	bl	30009390 <__gnat_last_chance_handler>
300074ba:	68ba      	ldr	r2, [r7, #8]
300074bc:	6b7b      	ldr	r3, [r7, #52]	; 0x34
300074be:	4621      	mov	r1, r4
300074c0:	1a5b      	subs	r3, r3, r1
300074c2:	441a      	add	r2, r3
300074c4:	697b      	ldr	r3, [r7, #20]
300074c6:	685b      	ldr	r3, [r3, #4]
300074c8:	330c      	adds	r3, #12
300074ca:	681b      	ldr	r3, [r3, #0]
300074cc:	8812      	ldrh	r2, [r2, #0]
300074ce:	f362 030f 	bfi	r3, r2, #0, #16
300074d2:	697a      	ldr	r2, [r7, #20]
300074d4:	6852      	ldr	r2, [r2, #4]
300074d6:	320c      	adds	r2, #12
300074d8:	6013      	str	r3, [r2, #0]
300074da:	6b7b      	ldr	r3, [r7, #52]	; 0x34
300074dc:	4a7f      	ldr	r2, [pc, #508]	; (300076dc <stm32__spi__send_receive_16bit_mode+0x2f0>)
300074de:	4293      	cmp	r3, r2
300074e0:	dd04      	ble.n	300074ec <stm32__spi__send_receive_16bit_mode+0x100>
300074e2:	f44f 7141 	mov.w	r1, #772	; 0x304
300074e6:	487c      	ldr	r0, [pc, #496]	; (300076d8 <stm32__spi__send_receive_16bit_mode+0x2ec>)
300074e8:	f001 ff52 	bl	30009390 <__gnat_last_chance_handler>
300074ec:	6b7b      	ldr	r3, [r7, #52]	; 0x34
300074ee:	3302      	adds	r3, #2
300074f0:	637b      	str	r3, [r7, #52]	; 0x34
300074f2:	6b3b      	ldr	r3, [r7, #48]	; 0x30
300074f4:	3b01      	subs	r3, #1
300074f6:	2b00      	cmp	r3, #0
300074f8:	da04      	bge.n	30007504 <stm32__spi__send_receive_16bit_mode+0x118>
300074fa:	f240 3105 	movw	r1, #773	; 0x305
300074fe:	4876      	ldr	r0, [pc, #472]	; (300076d8 <stm32__spi__send_receive_16bit_mode+0x2ec>)
30007500:	f001 ff46 	bl	30009390 <__gnat_last_chance_handler>
30007504:	633b      	str	r3, [r7, #48]	; 0x30
30007506:	6b3b      	ldr	r3, [r7, #48]	; 0x30
30007508:	2b00      	cmp	r3, #0
3000750a:	d143      	bne.n	30007594 <stm32__spi__send_receive_16bit_mode+0x1a8>
3000750c:	6978      	ldr	r0, [r7, #20]
3000750e:	f7ff fafd 	bl	30006b0c <stm32__spi__crc_enabled>
30007512:	4603      	mov	r3, r0
30007514:	2b00      	cmp	r3, #0
30007516:	d009      	beq.n	3000752c <stm32__spi__send_receive_16bit_mode+0x140>
30007518:	697b      	ldr	r3, [r7, #20]
3000751a:	685b      	ldr	r3, [r3, #4]
3000751c:	681b      	ldr	r3, [r3, #0]
3000751e:	461a      	mov	r2, r3
30007520:	4613      	mov	r3, r2
30007522:	f443 5280 	orr.w	r2, r3, #4096	; 0x1000
30007526:	697b      	ldr	r3, [r7, #20]
30007528:	685b      	ldr	r3, [r3, #4]
3000752a:	601a      	str	r2, [r3, #0]
3000752c:	6978      	ldr	r0, [r7, #20]
3000752e:	f7ff fa65 	bl	300069fc <stm32__spi__rx_is_empty>
30007532:	4603      	mov	r3, r0
30007534:	f083 0301 	eor.w	r3, r3, #1
30007538:	b2db      	uxtb	r3, r3
3000753a:	2b00      	cmp	r3, #0
3000753c:	d101      	bne.n	30007542 <stm32__spi__send_receive_16bit_mode+0x156>
3000753e:	bf00      	nop
30007540:	e7f4      	b.n	3000752c <stm32__spi__send_receive_16bit_mode+0x140>
30007542:	687b      	ldr	r3, [r7, #4]
30007544:	681b      	ldr	r3, [r3, #0]
30007546:	6afa      	ldr	r2, [r7, #44]	; 0x2c
30007548:	429a      	cmp	r2, r3
3000754a:	db04      	blt.n	30007556 <stm32__spi__send_receive_16bit_mode+0x16a>
3000754c:	687b      	ldr	r3, [r7, #4]
3000754e:	685b      	ldr	r3, [r3, #4]
30007550:	6afa      	ldr	r2, [r7, #44]	; 0x2c
30007552:	429a      	cmp	r2, r3
30007554:	dd04      	ble.n	30007560 <stm32__spi__send_receive_16bit_mode+0x174>
30007556:	f44f 7145 	mov.w	r1, #788	; 0x314
3000755a:	485f      	ldr	r0, [pc, #380]	; (300076d8 <stm32__spi__send_receive_16bit_mode+0x2ec>)
3000755c:	f001 ff18 	bl	30009390 <__gnat_last_chance_handler>
30007560:	683a      	ldr	r2, [r7, #0]
30007562:	6afb      	ldr	r3, [r7, #44]	; 0x2c
30007564:	6879      	ldr	r1, [r7, #4]
30007566:	6809      	ldr	r1, [r1, #0]
30007568:	1a5b      	subs	r3, r3, r1
3000756a:	4413      	add	r3, r2
3000756c:	2b00      	cmp	r3, #0
3000756e:	d104      	bne.n	3000757a <stm32__spi__send_receive_16bit_mode+0x18e>
30007570:	f44f 7145 	mov.w	r1, #788	; 0x314
30007574:	4858      	ldr	r0, [pc, #352]	; (300076d8 <stm32__spi__send_receive_16bit_mode+0x2ec>)
30007576:	f001 ff0b 	bl	30009390 <__gnat_last_chance_handler>
3000757a:	697b      	ldr	r3, [r7, #20]
3000757c:	685b      	ldr	r3, [r3, #4]
3000757e:	330c      	adds	r3, #12
30007580:	6818      	ldr	r0, [r3, #0]
30007582:	683a      	ldr	r2, [r7, #0]
30007584:	6afb      	ldr	r3, [r7, #44]	; 0x2c
30007586:	6879      	ldr	r1, [r7, #4]
30007588:	6809      	ldr	r1, [r1, #0]
3000758a:	1a5b      	subs	r3, r3, r1
3000758c:	4413      	add	r3, r2
3000758e:	b282      	uxth	r2, r0
30007590:	801a      	strh	r2, [r3, #0]
30007592:	e0de      	b.n	30007752 <stm32__spi__send_receive_16bit_mode+0x366>
30007594:	6b3b      	ldr	r3, [r7, #48]	; 0x30
30007596:	2b00      	cmp	r3, #0
30007598:	f340 80a2 	ble.w	300076e0 <stm32__spi__send_receive_16bit_mode+0x2f4>
3000759c:	6978      	ldr	r0, [r7, #20]
3000759e:	f7ff fa1b 	bl	300069d8 <stm32__spi__tx_is_empty>
300075a2:	4603      	mov	r3, r0
300075a4:	2b00      	cmp	r3, #0
300075a6:	d101      	bne.n	300075ac <stm32__spi__send_receive_16bit_mode+0x1c0>
300075a8:	bf00      	nop
300075aa:	e7f7      	b.n	3000759c <stm32__spi__send_receive_16bit_mode+0x1b0>
300075ac:	6b7b      	ldr	r3, [r7, #52]	; 0x34
300075ae:	429c      	cmp	r4, r3
300075b0:	dc02      	bgt.n	300075b8 <stm32__spi__send_receive_16bit_mode+0x1cc>
300075b2:	6b7b      	ldr	r3, [r7, #52]	; 0x34
300075b4:	429d      	cmp	r5, r3
300075b6:	da04      	bge.n	300075c2 <stm32__spi__send_receive_16bit_mode+0x1d6>
300075b8:	f240 3121 	movw	r1, #801	; 0x321
300075bc:	4846      	ldr	r0, [pc, #280]	; (300076d8 <stm32__spi__send_receive_16bit_mode+0x2ec>)
300075be:	f001 fee7 	bl	30009390 <__gnat_last_chance_handler>
300075c2:	68ba      	ldr	r2, [r7, #8]
300075c4:	6b7b      	ldr	r3, [r7, #52]	; 0x34
300075c6:	4621      	mov	r1, r4
300075c8:	1a5b      	subs	r3, r3, r1
300075ca:	4413      	add	r3, r2
300075cc:	2b00      	cmp	r3, #0
300075ce:	d104      	bne.n	300075da <stm32__spi__send_receive_16bit_mode+0x1ee>
300075d0:	f240 3121 	movw	r1, #801	; 0x321
300075d4:	4840      	ldr	r0, [pc, #256]	; (300076d8 <stm32__spi__send_receive_16bit_mode+0x2ec>)
300075d6:	f001 fedb 	bl	30009390 <__gnat_last_chance_handler>
300075da:	68ba      	ldr	r2, [r7, #8]
300075dc:	6b7b      	ldr	r3, [r7, #52]	; 0x34
300075de:	4621      	mov	r1, r4
300075e0:	1a5b      	subs	r3, r3, r1
300075e2:	441a      	add	r2, r3
300075e4:	697b      	ldr	r3, [r7, #20]
300075e6:	685b      	ldr	r3, [r3, #4]
300075e8:	330c      	adds	r3, #12
300075ea:	681b      	ldr	r3, [r3, #0]
300075ec:	8812      	ldrh	r2, [r2, #0]
300075ee:	f362 030f 	bfi	r3, r2, #0, #16
300075f2:	697a      	ldr	r2, [r7, #20]
300075f4:	6852      	ldr	r2, [r2, #4]
300075f6:	320c      	adds	r2, #12
300075f8:	6013      	str	r3, [r2, #0]
300075fa:	6b7b      	ldr	r3, [r7, #52]	; 0x34
300075fc:	4a37      	ldr	r2, [pc, #220]	; (300076dc <stm32__spi__send_receive_16bit_mode+0x2f0>)
300075fe:	4293      	cmp	r3, r2
30007600:	dd04      	ble.n	3000760c <stm32__spi__send_receive_16bit_mode+0x220>
30007602:	f240 3122 	movw	r1, #802	; 0x322
30007606:	4834      	ldr	r0, [pc, #208]	; (300076d8 <stm32__spi__send_receive_16bit_mode+0x2ec>)
30007608:	f001 fec2 	bl	30009390 <__gnat_last_chance_handler>
3000760c:	6b7b      	ldr	r3, [r7, #52]	; 0x34
3000760e:	3302      	adds	r3, #2
30007610:	637b      	str	r3, [r7, #52]	; 0x34
30007612:	6b3b      	ldr	r3, [r7, #48]	; 0x30
30007614:	3b01      	subs	r3, #1
30007616:	2b00      	cmp	r3, #0
30007618:	da04      	bge.n	30007624 <stm32__spi__send_receive_16bit_mode+0x238>
3000761a:	f240 3123 	movw	r1, #803	; 0x323
3000761e:	482e      	ldr	r0, [pc, #184]	; (300076d8 <stm32__spi__send_receive_16bit_mode+0x2ec>)
30007620:	f001 feb6 	bl	30009390 <__gnat_last_chance_handler>
30007624:	633b      	str	r3, [r7, #48]	; 0x30
30007626:	6b3b      	ldr	r3, [r7, #48]	; 0x30
30007628:	2b00      	cmp	r3, #0
3000762a:	bf0c      	ite	eq
3000762c:	2301      	moveq	r3, #1
3000762e:	2300      	movne	r3, #0
30007630:	b2de      	uxtb	r6, r3
30007632:	6978      	ldr	r0, [r7, #20]
30007634:	f7ff fa6a 	bl	30006b0c <stm32__spi__crc_enabled>
30007638:	4603      	mov	r3, r0
3000763a:	4033      	ands	r3, r6
3000763c:	b2db      	uxtb	r3, r3
3000763e:	2b00      	cmp	r3, #0
30007640:	d009      	beq.n	30007656 <stm32__spi__send_receive_16bit_mode+0x26a>
30007642:	697b      	ldr	r3, [r7, #20]
30007644:	685b      	ldr	r3, [r3, #4]
30007646:	681b      	ldr	r3, [r3, #0]
30007648:	461a      	mov	r2, r3
3000764a:	4613      	mov	r3, r2
3000764c:	f443 5280 	orr.w	r2, r3, #4096	; 0x1000
30007650:	697b      	ldr	r3, [r7, #20]
30007652:	685b      	ldr	r3, [r3, #4]
30007654:	601a      	str	r2, [r3, #0]
30007656:	6978      	ldr	r0, [r7, #20]
30007658:	f7ff f9d0 	bl	300069fc <stm32__spi__rx_is_empty>
3000765c:	4603      	mov	r3, r0
3000765e:	f083 0301 	eor.w	r3, r3, #1
30007662:	b2db      	uxtb	r3, r3
30007664:	2b00      	cmp	r3, #0
30007666:	d101      	bne.n	3000766c <stm32__spi__send_receive_16bit_mode+0x280>
30007668:	bf00      	nop
3000766a:	e7f4      	b.n	30007656 <stm32__spi__send_receive_16bit_mode+0x26a>
3000766c:	687b      	ldr	r3, [r7, #4]
3000766e:	681b      	ldr	r3, [r3, #0]
30007670:	6afa      	ldr	r2, [r7, #44]	; 0x2c
30007672:	429a      	cmp	r2, r3
30007674:	db04      	blt.n	30007680 <stm32__spi__send_receive_16bit_mode+0x294>
30007676:	687b      	ldr	r3, [r7, #4]
30007678:	685b      	ldr	r3, [r3, #4]
3000767a:	6afa      	ldr	r2, [r7, #44]	; 0x2c
3000767c:	429a      	cmp	r2, r3
3000767e:	dd04      	ble.n	3000768a <stm32__spi__send_receive_16bit_mode+0x29e>
30007680:	f240 312f 	movw	r1, #815	; 0x32f
30007684:	4814      	ldr	r0, [pc, #80]	; (300076d8 <stm32__spi__send_receive_16bit_mode+0x2ec>)
30007686:	f001 fe83 	bl	30009390 <__gnat_last_chance_handler>
3000768a:	683a      	ldr	r2, [r7, #0]
3000768c:	6afb      	ldr	r3, [r7, #44]	; 0x2c
3000768e:	6879      	ldr	r1, [r7, #4]
30007690:	6809      	ldr	r1, [r1, #0]
30007692:	1a5b      	subs	r3, r3, r1
30007694:	4413      	add	r3, r2
30007696:	2b00      	cmp	r3, #0
30007698:	d104      	bne.n	300076a4 <stm32__spi__send_receive_16bit_mode+0x2b8>
3000769a:	f240 312f 	movw	r1, #815	; 0x32f
3000769e:	480e      	ldr	r0, [pc, #56]	; (300076d8 <stm32__spi__send_receive_16bit_mode+0x2ec>)
300076a0:	f001 fe76 	bl	30009390 <__gnat_last_chance_handler>
300076a4:	697b      	ldr	r3, [r7, #20]
300076a6:	685b      	ldr	r3, [r3, #4]
300076a8:	330c      	adds	r3, #12
300076aa:	6818      	ldr	r0, [r3, #0]
300076ac:	683a      	ldr	r2, [r7, #0]
300076ae:	6afb      	ldr	r3, [r7, #44]	; 0x2c
300076b0:	6879      	ldr	r1, [r7, #4]
300076b2:	6809      	ldr	r1, [r1, #0]
300076b4:	1a5b      	subs	r3, r3, r1
300076b6:	4413      	add	r3, r2
300076b8:	b282      	uxth	r2, r0
300076ba:	801a      	strh	r2, [r3, #0]
300076bc:	6afb      	ldr	r3, [r7, #44]	; 0x2c
300076be:	4a07      	ldr	r2, [pc, #28]	; (300076dc <stm32__spi__send_receive_16bit_mode+0x2f0>)
300076c0:	4293      	cmp	r3, r2
300076c2:	dd04      	ble.n	300076ce <stm32__spi__send_receive_16bit_mode+0x2e2>
300076c4:	f240 3131 	movw	r1, #817	; 0x331
300076c8:	4803      	ldr	r0, [pc, #12]	; (300076d8 <stm32__spi__send_receive_16bit_mode+0x2ec>)
300076ca:	f001 fe61 	bl	30009390 <__gnat_last_chance_handler>
300076ce:	6afb      	ldr	r3, [r7, #44]	; 0x2c
300076d0:	3302      	adds	r3, #2
300076d2:	62fb      	str	r3, [r7, #44]	; 0x2c
300076d4:	e75e      	b.n	30007594 <stm32__spi__send_receive_16bit_mode+0x1a8>
300076d6:	bf00      	nop
300076d8:	3000b7d4 	.word	0x3000b7d4
300076dc:	7ffffffd 	.word	0x7ffffffd
300076e0:	6978      	ldr	r0, [r7, #20]
300076e2:	f7ff f9b5 	bl	30006a50 <stm32__spi__current_mode>
300076e6:	4603      	mov	r3, r0
300076e8:	2b01      	cmp	r3, #1
300076ea:	d132      	bne.n	30007752 <stm32__spi__send_receive_16bit_mode+0x366>
300076ec:	6978      	ldr	r0, [r7, #20]
300076ee:	f7ff f985 	bl	300069fc <stm32__spi__rx_is_empty>
300076f2:	4603      	mov	r3, r0
300076f4:	f083 0301 	eor.w	r3, r3, #1
300076f8:	b2db      	uxtb	r3, r3
300076fa:	2b00      	cmp	r3, #0
300076fc:	d101      	bne.n	30007702 <stm32__spi__send_receive_16bit_mode+0x316>
300076fe:	bf00      	nop
30007700:	e7f4      	b.n	300076ec <stm32__spi__send_receive_16bit_mode+0x300>
30007702:	687b      	ldr	r3, [r7, #4]
30007704:	681b      	ldr	r3, [r3, #0]
30007706:	6afa      	ldr	r2, [r7, #44]	; 0x2c
30007708:	429a      	cmp	r2, r3
3000770a:	db04      	blt.n	30007716 <stm32__spi__send_receive_16bit_mode+0x32a>
3000770c:	687b      	ldr	r3, [r7, #4]
3000770e:	685b      	ldr	r3, [r3, #4]
30007710:	6afa      	ldr	r2, [r7, #44]	; 0x2c
30007712:	429a      	cmp	r2, r3
30007714:	dd04      	ble.n	30007720 <stm32__spi__send_receive_16bit_mode+0x334>
30007716:	f240 313b 	movw	r1, #827	; 0x33b
3000771a:	4811      	ldr	r0, [pc, #68]	; (30007760 <stm32__spi__send_receive_16bit_mode+0x374>)
3000771c:	f001 fe38 	bl	30009390 <__gnat_last_chance_handler>
30007720:	683a      	ldr	r2, [r7, #0]
30007722:	6afb      	ldr	r3, [r7, #44]	; 0x2c
30007724:	6879      	ldr	r1, [r7, #4]
30007726:	6809      	ldr	r1, [r1, #0]
30007728:	1a5b      	subs	r3, r3, r1
3000772a:	4413      	add	r3, r2
3000772c:	2b00      	cmp	r3, #0
3000772e:	d104      	bne.n	3000773a <stm32__spi__send_receive_16bit_mode+0x34e>
30007730:	f240 313b 	movw	r1, #827	; 0x33b
30007734:	480a      	ldr	r0, [pc, #40]	; (30007760 <stm32__spi__send_receive_16bit_mode+0x374>)
30007736:	f001 fe2b 	bl	30009390 <__gnat_last_chance_handler>
3000773a:	697b      	ldr	r3, [r7, #20]
3000773c:	685b      	ldr	r3, [r3, #4]
3000773e:	330c      	adds	r3, #12
30007740:	6818      	ldr	r0, [r3, #0]
30007742:	683a      	ldr	r2, [r7, #0]
30007744:	6afb      	ldr	r3, [r7, #44]	; 0x2c
30007746:	6879      	ldr	r1, [r7, #4]
30007748:	6809      	ldr	r1, [r1, #0]
3000774a:	1a5b      	subs	r3, r3, r1
3000774c:	4413      	add	r3, r2
3000774e:	b282      	uxth	r2, r0
30007750:	801a      	strh	r2, [r3, #0]
30007752:	373c      	adds	r7, #60	; 0x3c
30007754:	46bd      	mov	sp, r7
30007756:	e8bd 40f0 	ldmia.w	sp!, {r4, r5, r6, r7, lr}
3000775a:	b002      	add	sp, #8
3000775c:	4770      	bx	lr
3000775e:	bf00      	nop
30007760:	3000b7d4 	.word	0x3000b7d4

30007764 <stm32__spi__send_receive_8bit_mode>:
30007764:	b082      	sub	sp, #8
30007766:	b5f0      	push	{r4, r5, r6, r7, lr}
30007768:	b08f      	sub	sp, #60	; 0x3c
3000776a:	af00      	add	r7, sp, #0
3000776c:	6178      	str	r0, [r7, #20]
3000776e:	e9c7 1202 	strd	r1, r2, [r7, #8]
30007772:	657b      	str	r3, [r7, #84]	; 0x54
30007774:	463b      	mov	r3, r7
30007776:	f107 0254 	add.w	r2, r7, #84	; 0x54
3000777a:	e892 0003 	ldmia.w	r2, {r0, r1}
3000777e:	e883 0003 	stmia.w	r3, {r0, r1}
30007782:	68fb      	ldr	r3, [r7, #12]
30007784:	681c      	ldr	r4, [r3, #0]
30007786:	68fb      	ldr	r3, [r7, #12]
30007788:	685d      	ldr	r5, [r3, #4]
3000778a:	687b      	ldr	r3, [r7, #4]
3000778c:	681b      	ldr	r3, [r3, #0]
3000778e:	62bb      	str	r3, [r7, #40]	; 0x28
30007790:	687b      	ldr	r3, [r7, #4]
30007792:	685a      	ldr	r2, [r3, #4]
30007794:	687b      	ldr	r3, [r7, #4]
30007796:	681b      	ldr	r3, [r3, #0]
30007798:	429a      	cmp	r2, r3
3000779a:	db03      	blt.n	300077a4 <stm32__spi__send_receive_8bit_mode+0x40>
3000779c:	687b      	ldr	r3, [r7, #4]
3000779e:	685b      	ldr	r3, [r3, #4]
300077a0:	627b      	str	r3, [r7, #36]	; 0x24
300077a2:	e003      	b.n	300077ac <stm32__spi__send_receive_8bit_mode+0x48>
300077a4:	687b      	ldr	r3, [r7, #4]
300077a6:	681b      	ldr	r3, [r3, #0]
300077a8:	3b01      	subs	r3, #1
300077aa:	627b      	str	r3, [r7, #36]	; 0x24
300077ac:	623c      	str	r4, [r7, #32]
300077ae:	42a5      	cmp	r5, r4
300077b0:	db01      	blt.n	300077b6 <stm32__spi__send_receive_8bit_mode+0x52>
300077b2:	61fd      	str	r5, [r7, #28]
300077b4:	e002      	b.n	300077bc <stm32__spi__send_receive_8bit_mode+0x58>
300077b6:	4623      	mov	r3, r4
300077b8:	3b01      	subs	r3, #1
300077ba:	61fb      	str	r3, [r7, #28]
300077bc:	6dfb      	ldr	r3, [r7, #92]	; 0x5c
300077be:	633b      	str	r3, [r7, #48]	; 0x30
300077c0:	2c00      	cmp	r4, #0
300077c2:	da04      	bge.n	300077ce <stm32__spi__send_receive_8bit_mode+0x6a>
300077c4:	f240 314b 	movw	r1, #843	; 0x34b
300077c8:	48a2      	ldr	r0, [pc, #648]	; (30007a54 <stm32__spi__send_receive_8bit_mode+0x2f0>)
300077ca:	f001 fde1 	bl	30009390 <__gnat_last_chance_handler>
300077ce:	637c      	str	r4, [r7, #52]	; 0x34
300077d0:	687b      	ldr	r3, [r7, #4]
300077d2:	681b      	ldr	r3, [r3, #0]
300077d4:	2b00      	cmp	r3, #0
300077d6:	da04      	bge.n	300077e2 <stm32__spi__send_receive_8bit_mode+0x7e>
300077d8:	f44f 7153 	mov.w	r1, #844	; 0x34c
300077dc:	489d      	ldr	r0, [pc, #628]	; (30007a54 <stm32__spi__send_receive_8bit_mode+0x2f0>)
300077de:	f001 fdd7 	bl	30009390 <__gnat_last_chance_handler>
300077e2:	687b      	ldr	r3, [r7, #4]
300077e4:	681b      	ldr	r3, [r3, #0]
300077e6:	62fb      	str	r3, [r7, #44]	; 0x2c
300077e8:	697b      	ldr	r3, [r7, #20]
300077ea:	685b      	ldr	r3, [r3, #4]
300077ec:	330c      	adds	r3, #12
300077ee:	61bb      	str	r3, [r7, #24]
300077f0:	6978      	ldr	r0, [r7, #20]
300077f2:	f7ff f92d 	bl	30006a50 <stm32__spi__current_mode>
300077f6:	4603      	mov	r3, r0
300077f8:	2b01      	cmp	r3, #1
300077fa:	bf0c      	ite	eq
300077fc:	2301      	moveq	r3, #1
300077fe:	2300      	movne	r3, #0
30007800:	b2db      	uxtb	r3, r3
30007802:	2b00      	cmp	r3, #0
30007804:	d102      	bne.n	3000780c <stm32__spi__send_receive_8bit_mode+0xa8>
30007806:	6b3b      	ldr	r3, [r7, #48]	; 0x30
30007808:	2b01      	cmp	r3, #1
3000780a:	d128      	bne.n	3000785e <stm32__spi__send_receive_8bit_mode+0xfa>
3000780c:	6b7b      	ldr	r3, [r7, #52]	; 0x34
3000780e:	429c      	cmp	r4, r3
30007810:	dc02      	bgt.n	30007818 <stm32__spi__send_receive_8bit_mode+0xb4>
30007812:	6b7b      	ldr	r3, [r7, #52]	; 0x34
30007814:	429d      	cmp	r5, r3
30007816:	da04      	bge.n	30007822 <stm32__spi__send_receive_8bit_mode+0xbe>
30007818:	f44f 7154 	mov.w	r1, #848	; 0x350
3000781c:	488d      	ldr	r0, [pc, #564]	; (30007a54 <stm32__spi__send_receive_8bit_mode+0x2f0>)
3000781e:	f001 fdb7 	bl	30009390 <__gnat_last_chance_handler>
30007822:	68ba      	ldr	r2, [r7, #8]
30007824:	6b79      	ldr	r1, [r7, #52]	; 0x34
30007826:	6a3b      	ldr	r3, [r7, #32]
30007828:	1acb      	subs	r3, r1, r3
3000782a:	5cd2      	ldrb	r2, [r2, r3]
3000782c:	69bb      	ldr	r3, [r7, #24]
3000782e:	701a      	strb	r2, [r3, #0]
30007830:	6b7b      	ldr	r3, [r7, #52]	; 0x34
30007832:	f06f 4200 	mvn.w	r2, #2147483648	; 0x80000000
30007836:	4293      	cmp	r3, r2
30007838:	d104      	bne.n	30007844 <stm32__spi__send_receive_8bit_mode+0xe0>
3000783a:	f240 3151 	movw	r1, #849	; 0x351
3000783e:	4885      	ldr	r0, [pc, #532]	; (30007a54 <stm32__spi__send_receive_8bit_mode+0x2f0>)
30007840:	f001 fda6 	bl	30009390 <__gnat_last_chance_handler>
30007844:	6b7b      	ldr	r3, [r7, #52]	; 0x34
30007846:	3301      	adds	r3, #1
30007848:	637b      	str	r3, [r7, #52]	; 0x34
3000784a:	6b3b      	ldr	r3, [r7, #48]	; 0x30
3000784c:	3b01      	subs	r3, #1
3000784e:	2b00      	cmp	r3, #0
30007850:	da04      	bge.n	3000785c <stm32__spi__send_receive_8bit_mode+0xf8>
30007852:	f240 3152 	movw	r1, #850	; 0x352
30007856:	487f      	ldr	r0, [pc, #508]	; (30007a54 <stm32__spi__send_receive_8bit_mode+0x2f0>)
30007858:	f001 fd9a 	bl	30009390 <__gnat_last_chance_handler>
3000785c:	633b      	str	r3, [r7, #48]	; 0x30
3000785e:	6b3b      	ldr	r3, [r7, #48]	; 0x30
30007860:	2b00      	cmp	r3, #0
30007862:	d13a      	bne.n	300078da <stm32__spi__send_receive_8bit_mode+0x176>
30007864:	6978      	ldr	r0, [r7, #20]
30007866:	f7ff f951 	bl	30006b0c <stm32__spi__crc_enabled>
3000786a:	4603      	mov	r3, r0
3000786c:	2b00      	cmp	r3, #0
3000786e:	d009      	beq.n	30007884 <stm32__spi__send_receive_8bit_mode+0x120>
30007870:	697b      	ldr	r3, [r7, #20]
30007872:	685b      	ldr	r3, [r3, #4]
30007874:	681b      	ldr	r3, [r3, #0]
30007876:	461a      	mov	r2, r3
30007878:	4613      	mov	r3, r2
3000787a:	f443 5280 	orr.w	r2, r3, #4096	; 0x1000
3000787e:	697b      	ldr	r3, [r7, #20]
30007880:	685b      	ldr	r3, [r3, #4]
30007882:	601a      	str	r2, [r3, #0]
30007884:	6978      	ldr	r0, [r7, #20]
30007886:	f7ff f8b9 	bl	300069fc <stm32__spi__rx_is_empty>
3000788a:	4603      	mov	r3, r0
3000788c:	f083 0301 	eor.w	r3, r3, #1
30007890:	b2db      	uxtb	r3, r3
30007892:	2b00      	cmp	r3, #0
30007894:	d101      	bne.n	3000789a <stm32__spi__send_receive_8bit_mode+0x136>
30007896:	bf00      	nop
30007898:	e7f4      	b.n	30007884 <stm32__spi__send_receive_8bit_mode+0x120>
3000789a:	687b      	ldr	r3, [r7, #4]
3000789c:	681b      	ldr	r3, [r3, #0]
3000789e:	6afa      	ldr	r2, [r7, #44]	; 0x2c
300078a0:	429a      	cmp	r2, r3
300078a2:	db04      	blt.n	300078ae <stm32__spi__send_receive_8bit_mode+0x14a>
300078a4:	687b      	ldr	r3, [r7, #4]
300078a6:	685b      	ldr	r3, [r3, #4]
300078a8:	6afa      	ldr	r2, [r7, #44]	; 0x2c
300078aa:	429a      	cmp	r2, r3
300078ac:	dd04      	ble.n	300078b8 <stm32__spi__send_receive_8bit_mode+0x154>
300078ae:	f44f 7158 	mov.w	r1, #864	; 0x360
300078b2:	4868      	ldr	r0, [pc, #416]	; (30007a54 <stm32__spi__send_receive_8bit_mode+0x2f0>)
300078b4:	f001 fd6c 	bl	30009390 <__gnat_last_chance_handler>
300078b8:	6afb      	ldr	r3, [r7, #44]	; 0x2c
300078ba:	2b00      	cmp	r3, #0
300078bc:	da04      	bge.n	300078c8 <stm32__spi__send_receive_8bit_mode+0x164>
300078be:	f44f 7158 	mov.w	r1, #864	; 0x360
300078c2:	4864      	ldr	r0, [pc, #400]	; (30007a54 <stm32__spi__send_receive_8bit_mode+0x2f0>)
300078c4:	f001 fd64 	bl	30009390 <__gnat_last_chance_handler>
300078c8:	683a      	ldr	r2, [r7, #0]
300078ca:	4618      	mov	r0, r3
300078cc:	69bb      	ldr	r3, [r7, #24]
300078ce:	781b      	ldrb	r3, [r3, #0]
300078d0:	b2d9      	uxtb	r1, r3
300078d2:	6abb      	ldr	r3, [r7, #40]	; 0x28
300078d4:	1ac3      	subs	r3, r0, r3
300078d6:	54d1      	strb	r1, [r2, r3]
300078d8:	e0b6      	b.n	30007a48 <stm32__spi__send_receive_8bit_mode+0x2e4>
300078da:	6b3b      	ldr	r3, [r7, #48]	; 0x30
300078dc:	2b00      	cmp	r3, #0
300078de:	f340 8081 	ble.w	300079e4 <stm32__spi__send_receive_8bit_mode+0x280>
300078e2:	6978      	ldr	r0, [r7, #20]
300078e4:	f7ff f878 	bl	300069d8 <stm32__spi__tx_is_empty>
300078e8:	4603      	mov	r3, r0
300078ea:	2b00      	cmp	r3, #0
300078ec:	d101      	bne.n	300078f2 <stm32__spi__send_receive_8bit_mode+0x18e>
300078ee:	bf00      	nop
300078f0:	e7f7      	b.n	300078e2 <stm32__spi__send_receive_8bit_mode+0x17e>
300078f2:	6b7b      	ldr	r3, [r7, #52]	; 0x34
300078f4:	429c      	cmp	r4, r3
300078f6:	dc02      	bgt.n	300078fe <stm32__spi__send_receive_8bit_mode+0x19a>
300078f8:	6b7b      	ldr	r3, [r7, #52]	; 0x34
300078fa:	429d      	cmp	r5, r3
300078fc:	da04      	bge.n	30007908 <stm32__spi__send_receive_8bit_mode+0x1a4>
300078fe:	f240 316a 	movw	r1, #874	; 0x36a
30007902:	4854      	ldr	r0, [pc, #336]	; (30007a54 <stm32__spi__send_receive_8bit_mode+0x2f0>)
30007904:	f001 fd44 	bl	30009390 <__gnat_last_chance_handler>
30007908:	68ba      	ldr	r2, [r7, #8]
3000790a:	6b79      	ldr	r1, [r7, #52]	; 0x34
3000790c:	6a3b      	ldr	r3, [r7, #32]
3000790e:	1acb      	subs	r3, r1, r3
30007910:	5cd2      	ldrb	r2, [r2, r3]
30007912:	69bb      	ldr	r3, [r7, #24]
30007914:	701a      	strb	r2, [r3, #0]
30007916:	6b7b      	ldr	r3, [r7, #52]	; 0x34
30007918:	f06f 4200 	mvn.w	r2, #2147483648	; 0x80000000
3000791c:	4293      	cmp	r3, r2
3000791e:	d104      	bne.n	3000792a <stm32__spi__send_receive_8bit_mode+0x1c6>
30007920:	f240 316b 	movw	r1, #875	; 0x36b
30007924:	484b      	ldr	r0, [pc, #300]	; (30007a54 <stm32__spi__send_receive_8bit_mode+0x2f0>)
30007926:	f001 fd33 	bl	30009390 <__gnat_last_chance_handler>
3000792a:	6b7b      	ldr	r3, [r7, #52]	; 0x34
3000792c:	3301      	adds	r3, #1
3000792e:	637b      	str	r3, [r7, #52]	; 0x34
30007930:	6b3b      	ldr	r3, [r7, #48]	; 0x30
30007932:	3b01      	subs	r3, #1
30007934:	2b00      	cmp	r3, #0
30007936:	da04      	bge.n	30007942 <stm32__spi__send_receive_8bit_mode+0x1de>
30007938:	f44f 715b 	mov.w	r1, #876	; 0x36c
3000793c:	4845      	ldr	r0, [pc, #276]	; (30007a54 <stm32__spi__send_receive_8bit_mode+0x2f0>)
3000793e:	f001 fd27 	bl	30009390 <__gnat_last_chance_handler>
30007942:	633b      	str	r3, [r7, #48]	; 0x30
30007944:	6b3b      	ldr	r3, [r7, #48]	; 0x30
30007946:	2b00      	cmp	r3, #0
30007948:	bf0c      	ite	eq
3000794a:	2301      	moveq	r3, #1
3000794c:	2300      	movne	r3, #0
3000794e:	b2de      	uxtb	r6, r3
30007950:	6978      	ldr	r0, [r7, #20]
30007952:	f7ff f8db 	bl	30006b0c <stm32__spi__crc_enabled>
30007956:	4603      	mov	r3, r0
30007958:	4033      	ands	r3, r6
3000795a:	b2db      	uxtb	r3, r3
3000795c:	2b00      	cmp	r3, #0
3000795e:	d009      	beq.n	30007974 <stm32__spi__send_receive_8bit_mode+0x210>
30007960:	697b      	ldr	r3, [r7, #20]
30007962:	685b      	ldr	r3, [r3, #4]
30007964:	681b      	ldr	r3, [r3, #0]
30007966:	461a      	mov	r2, r3
30007968:	4613      	mov	r3, r2
3000796a:	f443 5280 	orr.w	r2, r3, #4096	; 0x1000
3000796e:	697b      	ldr	r3, [r7, #20]
30007970:	685b      	ldr	r3, [r3, #4]
30007972:	601a      	str	r2, [r3, #0]
30007974:	6978      	ldr	r0, [r7, #20]
30007976:	f7ff f841 	bl	300069fc <stm32__spi__rx_is_empty>
3000797a:	4603      	mov	r3, r0
3000797c:	f083 0301 	eor.w	r3, r3, #1
30007980:	b2db      	uxtb	r3, r3
30007982:	2b00      	cmp	r3, #0
30007984:	d101      	bne.n	3000798a <stm32__spi__send_receive_8bit_mode+0x226>
30007986:	bf00      	nop
30007988:	e7f4      	b.n	30007974 <stm32__spi__send_receive_8bit_mode+0x210>
3000798a:	687b      	ldr	r3, [r7, #4]
3000798c:	681b      	ldr	r3, [r3, #0]
3000798e:	6afa      	ldr	r2, [r7, #44]	; 0x2c
30007990:	429a      	cmp	r2, r3
30007992:	db04      	blt.n	3000799e <stm32__spi__send_receive_8bit_mode+0x23a>
30007994:	687b      	ldr	r3, [r7, #4]
30007996:	685b      	ldr	r3, [r3, #4]
30007998:	6afa      	ldr	r2, [r7, #44]	; 0x2c
3000799a:	429a      	cmp	r2, r3
3000799c:	dd04      	ble.n	300079a8 <stm32__spi__send_receive_8bit_mode+0x244>
3000799e:	f44f 715e 	mov.w	r1, #888	; 0x378
300079a2:	482c      	ldr	r0, [pc, #176]	; (30007a54 <stm32__spi__send_receive_8bit_mode+0x2f0>)
300079a4:	f001 fcf4 	bl	30009390 <__gnat_last_chance_handler>
300079a8:	6afb      	ldr	r3, [r7, #44]	; 0x2c
300079aa:	2b00      	cmp	r3, #0
300079ac:	da04      	bge.n	300079b8 <stm32__spi__send_receive_8bit_mode+0x254>
300079ae:	f44f 715e 	mov.w	r1, #888	; 0x378
300079b2:	4828      	ldr	r0, [pc, #160]	; (30007a54 <stm32__spi__send_receive_8bit_mode+0x2f0>)
300079b4:	f001 fcec 	bl	30009390 <__gnat_last_chance_handler>
300079b8:	683a      	ldr	r2, [r7, #0]
300079ba:	4618      	mov	r0, r3
300079bc:	69bb      	ldr	r3, [r7, #24]
300079be:	781b      	ldrb	r3, [r3, #0]
300079c0:	b2d9      	uxtb	r1, r3
300079c2:	6abb      	ldr	r3, [r7, #40]	; 0x28
300079c4:	1ac3      	subs	r3, r0, r3
300079c6:	54d1      	strb	r1, [r2, r3]
300079c8:	6afb      	ldr	r3, [r7, #44]	; 0x2c
300079ca:	f06f 4200 	mvn.w	r2, #2147483648	; 0x80000000
300079ce:	4293      	cmp	r3, r2
300079d0:	d104      	bne.n	300079dc <stm32__spi__send_receive_8bit_mode+0x278>
300079d2:	f240 3179 	movw	r1, #889	; 0x379
300079d6:	481f      	ldr	r0, [pc, #124]	; (30007a54 <stm32__spi__send_receive_8bit_mode+0x2f0>)
300079d8:	f001 fcda 	bl	30009390 <__gnat_last_chance_handler>
300079dc:	6afb      	ldr	r3, [r7, #44]	; 0x2c
300079de:	3301      	adds	r3, #1
300079e0:	62fb      	str	r3, [r7, #44]	; 0x2c
300079e2:	e77a      	b.n	300078da <stm32__spi__send_receive_8bit_mode+0x176>
300079e4:	6978      	ldr	r0, [r7, #20]
300079e6:	f7ff f833 	bl	30006a50 <stm32__spi__current_mode>
300079ea:	4603      	mov	r3, r0
300079ec:	2b01      	cmp	r3, #1
300079ee:	d12b      	bne.n	30007a48 <stm32__spi__send_receive_8bit_mode+0x2e4>
300079f0:	6978      	ldr	r0, [r7, #20]
300079f2:	f7ff f803 	bl	300069fc <stm32__spi__rx_is_empty>
300079f6:	4603      	mov	r3, r0
300079f8:	f083 0301 	eor.w	r3, r3, #1
300079fc:	b2db      	uxtb	r3, r3
300079fe:	2b00      	cmp	r3, #0
30007a00:	d101      	bne.n	30007a06 <stm32__spi__send_receive_8bit_mode+0x2a2>
30007a02:	bf00      	nop
30007a04:	e7f4      	b.n	300079f0 <stm32__spi__send_receive_8bit_mode+0x28c>
30007a06:	687b      	ldr	r3, [r7, #4]
30007a08:	681b      	ldr	r3, [r3, #0]
30007a0a:	6afa      	ldr	r2, [r7, #44]	; 0x2c
30007a0c:	429a      	cmp	r2, r3
30007a0e:	db04      	blt.n	30007a1a <stm32__spi__send_receive_8bit_mode+0x2b6>
30007a10:	687b      	ldr	r3, [r7, #4]
30007a12:	685b      	ldr	r3, [r3, #4]
30007a14:	6afa      	ldr	r2, [r7, #44]	; 0x2c
30007a16:	429a      	cmp	r2, r3
30007a18:	dd04      	ble.n	30007a24 <stm32__spi__send_receive_8bit_mode+0x2c0>
30007a1a:	f240 3182 	movw	r1, #898	; 0x382
30007a1e:	480d      	ldr	r0, [pc, #52]	; (30007a54 <stm32__spi__send_receive_8bit_mode+0x2f0>)
30007a20:	f001 fcb6 	bl	30009390 <__gnat_last_chance_handler>
30007a24:	6afb      	ldr	r3, [r7, #44]	; 0x2c
30007a26:	2b00      	cmp	r3, #0
30007a28:	da04      	bge.n	30007a34 <stm32__spi__send_receive_8bit_mode+0x2d0>
30007a2a:	f240 3182 	movw	r1, #898	; 0x382
30007a2e:	4809      	ldr	r0, [pc, #36]	; (30007a54 <stm32__spi__send_receive_8bit_mode+0x2f0>)
30007a30:	f001 fcae 	bl	30009390 <__gnat_last_chance_handler>
30007a34:	683c      	ldr	r4, [r7, #0]
30007a36:	461d      	mov	r5, r3
30007a38:	6978      	ldr	r0, [r7, #20]
30007a3a:	f7fe ff95 	bl	30006968 <stm32__spi__data__2>
30007a3e:	4603      	mov	r3, r0
30007a40:	461a      	mov	r2, r3
30007a42:	6abb      	ldr	r3, [r7, #40]	; 0x28
30007a44:	1aeb      	subs	r3, r5, r3
30007a46:	54e2      	strb	r2, [r4, r3]
30007a48:	373c      	adds	r7, #60	; 0x3c
30007a4a:	46bd      	mov	sp, r7
30007a4c:	e8bd 40f0 	ldmia.w	sp!, {r4, r5, r6, r7, lr}
30007a50:	b002      	add	sp, #8
30007a52:	4770      	bx	lr
30007a54:	3000b7d4 	.word	0x3000b7d4

30007a58 <stm32__spi__send_16bit_mode>:
30007a58:	e92d 4bb0 	stmdb	sp!, {r4, r5, r7, r8, r9, fp, lr}
30007a5c:	b087      	sub	sp, #28
30007a5e:	af00      	add	r7, sp, #0
30007a60:	60f8      	str	r0, [r7, #12]
30007a62:	e9c7 1200 	strd	r1, r2, [r7]
30007a66:	687b      	ldr	r3, [r7, #4]
30007a68:	681c      	ldr	r4, [r3, #0]
30007a6a:	687b      	ldr	r3, [r7, #4]
30007a6c:	685d      	ldr	r5, [r3, #4]
30007a6e:	42a5      	cmp	r5, r4
30007a70:	db10      	blt.n	30007a94 <stm32__spi__send_16bit_mode+0x3c>
30007a72:	4628      	mov	r0, r5
30007a74:	ea4f 71e0 	mov.w	r1, r0, asr #31
30007a78:	46a0      	mov	r8, r4
30007a7a:	ea4f 79e8 	mov.w	r9, r8, asr #31
30007a7e:	4602      	mov	r2, r0
30007a80:	460b      	mov	r3, r1
30007a82:	ebb2 0208 	subs.w	r2, r2, r8
30007a86:	eb63 0309 	sbc.w	r3, r3, r9
30007a8a:	f112 0801 	adds.w	r8, r2, #1
30007a8e:	f143 0900 	adc.w	r9, r3, #0
30007a92:	e003      	b.n	30007a9c <stm32__spi__send_16bit_mode+0x44>
30007a94:	f04f 0800 	mov.w	r8, #0
30007a98:	f04f 0900 	mov.w	r9, #0
30007a9c:	4622      	mov	r2, r4
30007a9e:	ea4f 73e2 	mov.w	r3, r2, asr #31
30007aa2:	4864      	ldr	r0, [pc, #400]	; (30007c34 <stm32__spi__send_16bit_mode+0x1dc>)
30007aa4:	f04f 0100 	mov.w	r1, #0
30007aa8:	eb10 0b02 	adds.w	fp, r0, r2
30007aac:	eb41 0c03 	adc.w	ip, r1, r3
30007ab0:	462a      	mov	r2, r5
30007ab2:	ea4f 73e2 	mov.w	r3, r2, asr #31
30007ab6:	4593      	cmp	fp, r2
30007ab8:	eb7c 0303 	sbcs.w	r3, ip, r3
30007abc:	da04      	bge.n	30007ac8 <stm32__spi__send_16bit_mode+0x70>
30007abe:	f240 318e 	movw	r1, #910	; 0x38e
30007ac2:	485d      	ldr	r0, [pc, #372]	; (30007c38 <stm32__spi__send_16bit_mode+0x1e0>)
30007ac4:	f001 fc64 	bl	30009390 <__gnat_last_chance_handler>
30007ac8:	4643      	mov	r3, r8
30007aca:	617b      	str	r3, [r7, #20]
30007acc:	2c00      	cmp	r4, #0
30007ace:	da04      	bge.n	30007ada <stm32__spi__send_16bit_mode+0x82>
30007ad0:	f240 318f 	movw	r1, #911	; 0x38f
30007ad4:	4858      	ldr	r0, [pc, #352]	; (30007c38 <stm32__spi__send_16bit_mode+0x1e0>)
30007ad6:	f001 fc5b 	bl	30009390 <__gnat_last_chance_handler>
30007ada:	613c      	str	r4, [r7, #16]
30007adc:	68f8      	ldr	r0, [r7, #12]
30007ade:	f7fe ffb7 	bl	30006a50 <stm32__spi__current_mode>
30007ae2:	4603      	mov	r3, r0
30007ae4:	2b01      	cmp	r3, #1
30007ae6:	bf0c      	ite	eq
30007ae8:	2301      	moveq	r3, #1
30007aea:	2300      	movne	r3, #0
30007aec:	b2db      	uxtb	r3, r3
30007aee:	2b00      	cmp	r3, #0
30007af0:	d102      	bne.n	30007af8 <stm32__spi__send_16bit_mode+0xa0>
30007af2:	697b      	ldr	r3, [r7, #20]
30007af4:	2b01      	cmp	r3, #1
30007af6:	d13e      	bne.n	30007b76 <stm32__spi__send_16bit_mode+0x11e>
30007af8:	693b      	ldr	r3, [r7, #16]
30007afa:	429c      	cmp	r4, r3
30007afc:	dc02      	bgt.n	30007b04 <stm32__spi__send_16bit_mode+0xac>
30007afe:	693b      	ldr	r3, [r7, #16]
30007b00:	429d      	cmp	r5, r3
30007b02:	da04      	bge.n	30007b0e <stm32__spi__send_16bit_mode+0xb6>
30007b04:	f240 3193 	movw	r1, #915	; 0x393
30007b08:	484b      	ldr	r0, [pc, #300]	; (30007c38 <stm32__spi__send_16bit_mode+0x1e0>)
30007b0a:	f001 fc41 	bl	30009390 <__gnat_last_chance_handler>
30007b0e:	683a      	ldr	r2, [r7, #0]
30007b10:	693b      	ldr	r3, [r7, #16]
30007b12:	4621      	mov	r1, r4
30007b14:	1a5b      	subs	r3, r3, r1
30007b16:	005b      	lsls	r3, r3, #1
30007b18:	4413      	add	r3, r2
30007b1a:	2b00      	cmp	r3, #0
30007b1c:	d104      	bne.n	30007b28 <stm32__spi__send_16bit_mode+0xd0>
30007b1e:	f240 3193 	movw	r1, #915	; 0x393
30007b22:	4845      	ldr	r0, [pc, #276]	; (30007c38 <stm32__spi__send_16bit_mode+0x1e0>)
30007b24:	f001 fc34 	bl	30009390 <__gnat_last_chance_handler>
30007b28:	683a      	ldr	r2, [r7, #0]
30007b2a:	693b      	ldr	r3, [r7, #16]
30007b2c:	4621      	mov	r1, r4
30007b2e:	1a5b      	subs	r3, r3, r1
30007b30:	005b      	lsls	r3, r3, #1
30007b32:	441a      	add	r2, r3
30007b34:	68fb      	ldr	r3, [r7, #12]
30007b36:	685b      	ldr	r3, [r3, #4]
30007b38:	330c      	adds	r3, #12
30007b3a:	681b      	ldr	r3, [r3, #0]
30007b3c:	8812      	ldrh	r2, [r2, #0]
30007b3e:	f362 030f 	bfi	r3, r2, #0, #16
30007b42:	68fa      	ldr	r2, [r7, #12]
30007b44:	6852      	ldr	r2, [r2, #4]
30007b46:	320c      	adds	r2, #12
30007b48:	6013      	str	r3, [r2, #0]
30007b4a:	693b      	ldr	r3, [r7, #16]
30007b4c:	4a3b      	ldr	r2, [pc, #236]	; (30007c3c <stm32__spi__send_16bit_mode+0x1e4>)
30007b4e:	4293      	cmp	r3, r2
30007b50:	dd04      	ble.n	30007b5c <stm32__spi__send_16bit_mode+0x104>
30007b52:	f44f 7165 	mov.w	r1, #916	; 0x394
30007b56:	4838      	ldr	r0, [pc, #224]	; (30007c38 <stm32__spi__send_16bit_mode+0x1e0>)
30007b58:	f001 fc1a 	bl	30009390 <__gnat_last_chance_handler>
30007b5c:	693b      	ldr	r3, [r7, #16]
30007b5e:	3302      	adds	r3, #2
30007b60:	613b      	str	r3, [r7, #16]
30007b62:	697b      	ldr	r3, [r7, #20]
30007b64:	3b01      	subs	r3, #1
30007b66:	2b00      	cmp	r3, #0
30007b68:	da04      	bge.n	30007b74 <stm32__spi__send_16bit_mode+0x11c>
30007b6a:	f240 3195 	movw	r1, #917	; 0x395
30007b6e:	4832      	ldr	r0, [pc, #200]	; (30007c38 <stm32__spi__send_16bit_mode+0x1e0>)
30007b70:	f001 fc0e 	bl	30009390 <__gnat_last_chance_handler>
30007b74:	617b      	str	r3, [r7, #20]
30007b76:	697b      	ldr	r3, [r7, #20]
30007b78:	2b00      	cmp	r3, #0
30007b7a:	dd47      	ble.n	30007c0c <stm32__spi__send_16bit_mode+0x1b4>
30007b7c:	68f8      	ldr	r0, [r7, #12]
30007b7e:	f7fe ff2b 	bl	300069d8 <stm32__spi__tx_is_empty>
30007b82:	4603      	mov	r3, r0
30007b84:	2b00      	cmp	r3, #0
30007b86:	d101      	bne.n	30007b8c <stm32__spi__send_16bit_mode+0x134>
30007b88:	bf00      	nop
30007b8a:	e7f7      	b.n	30007b7c <stm32__spi__send_16bit_mode+0x124>
30007b8c:	693b      	ldr	r3, [r7, #16]
30007b8e:	429c      	cmp	r4, r3
30007b90:	dc02      	bgt.n	30007b98 <stm32__spi__send_16bit_mode+0x140>
30007b92:	693b      	ldr	r3, [r7, #16]
30007b94:	429d      	cmp	r5, r3
30007b96:	da04      	bge.n	30007ba2 <stm32__spi__send_16bit_mode+0x14a>
30007b98:	f240 319f 	movw	r1, #927	; 0x39f
30007b9c:	4826      	ldr	r0, [pc, #152]	; (30007c38 <stm32__spi__send_16bit_mode+0x1e0>)
30007b9e:	f001 fbf7 	bl	30009390 <__gnat_last_chance_handler>
30007ba2:	683a      	ldr	r2, [r7, #0]
30007ba4:	693b      	ldr	r3, [r7, #16]
30007ba6:	4621      	mov	r1, r4
30007ba8:	1a5b      	subs	r3, r3, r1
30007baa:	005b      	lsls	r3, r3, #1
30007bac:	4413      	add	r3, r2
30007bae:	2b00      	cmp	r3, #0
30007bb0:	d104      	bne.n	30007bbc <stm32__spi__send_16bit_mode+0x164>
30007bb2:	f240 319f 	movw	r1, #927	; 0x39f
30007bb6:	4820      	ldr	r0, [pc, #128]	; (30007c38 <stm32__spi__send_16bit_mode+0x1e0>)
30007bb8:	f001 fbea 	bl	30009390 <__gnat_last_chance_handler>
30007bbc:	683a      	ldr	r2, [r7, #0]
30007bbe:	693b      	ldr	r3, [r7, #16]
30007bc0:	4621      	mov	r1, r4
30007bc2:	1a5b      	subs	r3, r3, r1
30007bc4:	005b      	lsls	r3, r3, #1
30007bc6:	441a      	add	r2, r3
30007bc8:	68fb      	ldr	r3, [r7, #12]
30007bca:	685b      	ldr	r3, [r3, #4]
30007bcc:	330c      	adds	r3, #12
30007bce:	681b      	ldr	r3, [r3, #0]
30007bd0:	8812      	ldrh	r2, [r2, #0]
30007bd2:	f362 030f 	bfi	r3, r2, #0, #16
30007bd6:	68fa      	ldr	r2, [r7, #12]
30007bd8:	6852      	ldr	r2, [r2, #4]
30007bda:	320c      	adds	r2, #12
30007bdc:	6013      	str	r3, [r2, #0]
30007bde:	693b      	ldr	r3, [r7, #16]
30007be0:	4a16      	ldr	r2, [pc, #88]	; (30007c3c <stm32__spi__send_16bit_mode+0x1e4>)
30007be2:	4293      	cmp	r3, r2
30007be4:	dd04      	ble.n	30007bf0 <stm32__spi__send_16bit_mode+0x198>
30007be6:	f44f 7168 	mov.w	r1, #928	; 0x3a0
30007bea:	4813      	ldr	r0, [pc, #76]	; (30007c38 <stm32__spi__send_16bit_mode+0x1e0>)
30007bec:	f001 fbd0 	bl	30009390 <__gnat_last_chance_handler>
30007bf0:	693b      	ldr	r3, [r7, #16]
30007bf2:	3302      	adds	r3, #2
30007bf4:	613b      	str	r3, [r7, #16]
30007bf6:	697b      	ldr	r3, [r7, #20]
30007bf8:	3b01      	subs	r3, #1
30007bfa:	2b00      	cmp	r3, #0
30007bfc:	da04      	bge.n	30007c08 <stm32__spi__send_16bit_mode+0x1b0>
30007bfe:	f240 31a1 	movw	r1, #929	; 0x3a1
30007c02:	480d      	ldr	r0, [pc, #52]	; (30007c38 <stm32__spi__send_16bit_mode+0x1e0>)
30007c04:	f001 fbc4 	bl	30009390 <__gnat_last_chance_handler>
30007c08:	617b      	str	r3, [r7, #20]
30007c0a:	e7b4      	b.n	30007b76 <stm32__spi__send_16bit_mode+0x11e>
30007c0c:	68f8      	ldr	r0, [r7, #12]
30007c0e:	f7fe ff7d 	bl	30006b0c <stm32__spi__crc_enabled>
30007c12:	4603      	mov	r3, r0
30007c14:	2b00      	cmp	r3, #0
30007c16:	d009      	beq.n	30007c2c <stm32__spi__send_16bit_mode+0x1d4>
30007c18:	68fb      	ldr	r3, [r7, #12]
30007c1a:	685b      	ldr	r3, [r3, #4]
30007c1c:	681b      	ldr	r3, [r3, #0]
30007c1e:	461a      	mov	r2, r3
30007c20:	4613      	mov	r3, r2
30007c22:	f443 5280 	orr.w	r2, r3, #4096	; 0x1000
30007c26:	68fb      	ldr	r3, [r7, #12]
30007c28:	685b      	ldr	r3, [r3, #4]
30007c2a:	601a      	str	r2, [r3, #0]
30007c2c:	371c      	adds	r7, #28
30007c2e:	46bd      	mov	sp, r7
30007c30:	e8bd 8bb0 	ldmia.w	sp!, {r4, r5, r7, r8, r9, fp, pc}
30007c34:	7ffffffe 	.word	0x7ffffffe
30007c38:	3000b7d4 	.word	0x3000b7d4
30007c3c:	7ffffffd 	.word	0x7ffffffd

30007c40 <stm32__spi__send_8bit_mode>:
30007c40:	e92d 4bf0 	stmdb	sp!, {r4, r5, r6, r7, r8, r9, fp, lr}
30007c44:	b088      	sub	sp, #32
30007c46:	af00      	add	r7, sp, #0
30007c48:	60f8      	str	r0, [r7, #12]
30007c4a:	e9c7 1200 	strd	r1, r2, [r7]
30007c4e:	687b      	ldr	r3, [r7, #4]
30007c50:	681c      	ldr	r4, [r3, #0]
30007c52:	687b      	ldr	r3, [r7, #4]
30007c54:	685d      	ldr	r5, [r3, #4]
30007c56:	42a5      	cmp	r5, r4
30007c58:	db10      	blt.n	30007c7c <stm32__spi__send_8bit_mode+0x3c>
30007c5a:	4628      	mov	r0, r5
30007c5c:	ea4f 71e0 	mov.w	r1, r0, asr #31
30007c60:	46a0      	mov	r8, r4
30007c62:	ea4f 79e8 	mov.w	r9, r8, asr #31
30007c66:	4602      	mov	r2, r0
30007c68:	460b      	mov	r3, r1
30007c6a:	ebb2 0208 	subs.w	r2, r2, r8
30007c6e:	eb63 0309 	sbc.w	r3, r3, r9
30007c72:	f112 0801 	adds.w	r8, r2, #1
30007c76:	f143 0900 	adc.w	r9, r3, #0
30007c7a:	e003      	b.n	30007c84 <stm32__spi__send_8bit_mode+0x44>
30007c7c:	f04f 0800 	mov.w	r8, #0
30007c80:	f04f 0900 	mov.w	r9, #0
30007c84:	4626      	mov	r6, r4
30007c86:	4622      	mov	r2, r4
30007c88:	ea4f 73e2 	mov.w	r3, r2, asr #31
30007c8c:	484f      	ldr	r0, [pc, #316]	; (30007dcc <stm32__spi__send_8bit_mode+0x18c>)
30007c8e:	f04f 0100 	mov.w	r1, #0
30007c92:	eb10 0b02 	adds.w	fp, r0, r2
30007c96:	eb41 0c03 	adc.w	ip, r1, r3
30007c9a:	462a      	mov	r2, r5
30007c9c:	ea4f 73e2 	mov.w	r3, r2, asr #31
30007ca0:	4593      	cmp	fp, r2
30007ca2:	eb7c 0303 	sbcs.w	r3, ip, r3
30007ca6:	da04      	bge.n	30007cb2 <stm32__spi__send_8bit_mode+0x72>
30007ca8:	f240 31b1 	movw	r1, #945	; 0x3b1
30007cac:	4848      	ldr	r0, [pc, #288]	; (30007dd0 <stm32__spi__send_8bit_mode+0x190>)
30007cae:	f001 fb6f 	bl	30009390 <__gnat_last_chance_handler>
30007cb2:	4643      	mov	r3, r8
30007cb4:	61fb      	str	r3, [r7, #28]
30007cb6:	2c00      	cmp	r4, #0
30007cb8:	da04      	bge.n	30007cc4 <stm32__spi__send_8bit_mode+0x84>
30007cba:	f240 31b2 	movw	r1, #946	; 0x3b2
30007cbe:	4844      	ldr	r0, [pc, #272]	; (30007dd0 <stm32__spi__send_8bit_mode+0x190>)
30007cc0:	f001 fb66 	bl	30009390 <__gnat_last_chance_handler>
30007cc4:	61bc      	str	r4, [r7, #24]
30007cc6:	68fb      	ldr	r3, [r7, #12]
30007cc8:	685b      	ldr	r3, [r3, #4]
30007cca:	330c      	adds	r3, #12
30007ccc:	617b      	str	r3, [r7, #20]
30007cce:	68f8      	ldr	r0, [r7, #12]
30007cd0:	f7fe febe 	bl	30006a50 <stm32__spi__current_mode>
30007cd4:	4603      	mov	r3, r0
30007cd6:	2b01      	cmp	r3, #1
30007cd8:	bf0c      	ite	eq
30007cda:	2301      	moveq	r3, #1
30007cdc:	2300      	movne	r3, #0
30007cde:	b2db      	uxtb	r3, r3
30007ce0:	2b00      	cmp	r3, #0
30007ce2:	d102      	bne.n	30007cea <stm32__spi__send_8bit_mode+0xaa>
30007ce4:	69fb      	ldr	r3, [r7, #28]
30007ce6:	2b01      	cmp	r3, #1
30007ce8:	d127      	bne.n	30007d3a <stm32__spi__send_8bit_mode+0xfa>
30007cea:	69bb      	ldr	r3, [r7, #24]
30007cec:	429c      	cmp	r4, r3
30007cee:	dc02      	bgt.n	30007cf6 <stm32__spi__send_8bit_mode+0xb6>
30007cf0:	69bb      	ldr	r3, [r7, #24]
30007cf2:	429d      	cmp	r5, r3
30007cf4:	da04      	bge.n	30007d00 <stm32__spi__send_8bit_mode+0xc0>
30007cf6:	f240 31b6 	movw	r1, #950	; 0x3b6
30007cfa:	4835      	ldr	r0, [pc, #212]	; (30007dd0 <stm32__spi__send_8bit_mode+0x190>)
30007cfc:	f001 fb48 	bl	30009390 <__gnat_last_chance_handler>
30007d00:	683a      	ldr	r2, [r7, #0]
30007d02:	69bb      	ldr	r3, [r7, #24]
30007d04:	1b9b      	subs	r3, r3, r6
30007d06:	5cd2      	ldrb	r2, [r2, r3]
30007d08:	697b      	ldr	r3, [r7, #20]
30007d0a:	701a      	strb	r2, [r3, #0]
30007d0c:	69bb      	ldr	r3, [r7, #24]
30007d0e:	f06f 4200 	mvn.w	r2, #2147483648	; 0x80000000
30007d12:	4293      	cmp	r3, r2
30007d14:	d104      	bne.n	30007d20 <stm32__spi__send_8bit_mode+0xe0>
30007d16:	f240 31b7 	movw	r1, #951	; 0x3b7
30007d1a:	482d      	ldr	r0, [pc, #180]	; (30007dd0 <stm32__spi__send_8bit_mode+0x190>)
30007d1c:	f001 fb38 	bl	30009390 <__gnat_last_chance_handler>
30007d20:	69bb      	ldr	r3, [r7, #24]
30007d22:	3301      	adds	r3, #1
30007d24:	61bb      	str	r3, [r7, #24]
30007d26:	69fb      	ldr	r3, [r7, #28]
30007d28:	3b01      	subs	r3, #1
30007d2a:	2b00      	cmp	r3, #0
30007d2c:	da04      	bge.n	30007d38 <stm32__spi__send_8bit_mode+0xf8>
30007d2e:	f44f 716e 	mov.w	r1, #952	; 0x3b8
30007d32:	4827      	ldr	r0, [pc, #156]	; (30007dd0 <stm32__spi__send_8bit_mode+0x190>)
30007d34:	f001 fb2c 	bl	30009390 <__gnat_last_chance_handler>
30007d38:	61fb      	str	r3, [r7, #28]
30007d3a:	69fb      	ldr	r3, [r7, #28]
30007d3c:	2b00      	cmp	r3, #0
30007d3e:	dd30      	ble.n	30007da2 <stm32__spi__send_8bit_mode+0x162>
30007d40:	68f8      	ldr	r0, [r7, #12]
30007d42:	f7fe fe49 	bl	300069d8 <stm32__spi__tx_is_empty>
30007d46:	4603      	mov	r3, r0
30007d48:	2b00      	cmp	r3, #0
30007d4a:	d101      	bne.n	30007d50 <stm32__spi__send_8bit_mode+0x110>
30007d4c:	bf00      	nop
30007d4e:	e7f7      	b.n	30007d40 <stm32__spi__send_8bit_mode+0x100>
30007d50:	69bb      	ldr	r3, [r7, #24]
30007d52:	429c      	cmp	r4, r3
30007d54:	dc02      	bgt.n	30007d5c <stm32__spi__send_8bit_mode+0x11c>
30007d56:	69bb      	ldr	r3, [r7, #24]
30007d58:	429d      	cmp	r5, r3
30007d5a:	da04      	bge.n	30007d66 <stm32__spi__send_8bit_mode+0x126>
30007d5c:	f240 31c1 	movw	r1, #961	; 0x3c1
30007d60:	481b      	ldr	r0, [pc, #108]	; (30007dd0 <stm32__spi__send_8bit_mode+0x190>)
30007d62:	f001 fb15 	bl	30009390 <__gnat_last_chance_handler>
30007d66:	683a      	ldr	r2, [r7, #0]
30007d68:	69bb      	ldr	r3, [r7, #24]
30007d6a:	1b9b      	subs	r3, r3, r6
30007d6c:	5cd2      	ldrb	r2, [r2, r3]
30007d6e:	697b      	ldr	r3, [r7, #20]
30007d70:	701a      	strb	r2, [r3, #0]
30007d72:	69bb      	ldr	r3, [r7, #24]
30007d74:	f06f 4200 	mvn.w	r2, #2147483648	; 0x80000000
30007d78:	4293      	cmp	r3, r2
30007d7a:	d104      	bne.n	30007d86 <stm32__spi__send_8bit_mode+0x146>
30007d7c:	f240 31c2 	movw	r1, #962	; 0x3c2
30007d80:	4813      	ldr	r0, [pc, #76]	; (30007dd0 <stm32__spi__send_8bit_mode+0x190>)
30007d82:	f001 fb05 	bl	30009390 <__gnat_last_chance_handler>
30007d86:	69bb      	ldr	r3, [r7, #24]
30007d88:	3301      	adds	r3, #1
30007d8a:	61bb      	str	r3, [r7, #24]
30007d8c:	69fb      	ldr	r3, [r7, #28]
30007d8e:	3b01      	subs	r3, #1
30007d90:	2b00      	cmp	r3, #0
30007d92:	da04      	bge.n	30007d9e <stm32__spi__send_8bit_mode+0x15e>
30007d94:	f240 31c3 	movw	r1, #963	; 0x3c3
30007d98:	480d      	ldr	r0, [pc, #52]	; (30007dd0 <stm32__spi__send_8bit_mode+0x190>)
30007d9a:	f001 faf9 	bl	30009390 <__gnat_last_chance_handler>
30007d9e:	61fb      	str	r3, [r7, #28]
30007da0:	e7cb      	b.n	30007d3a <stm32__spi__send_8bit_mode+0xfa>
30007da2:	68f8      	ldr	r0, [r7, #12]
30007da4:	f7fe feb2 	bl	30006b0c <stm32__spi__crc_enabled>
30007da8:	4603      	mov	r3, r0
30007daa:	2b00      	cmp	r3, #0
30007dac:	d009      	beq.n	30007dc2 <stm32__spi__send_8bit_mode+0x182>
30007dae:	68fb      	ldr	r3, [r7, #12]
30007db0:	685b      	ldr	r3, [r3, #4]
30007db2:	681b      	ldr	r3, [r3, #0]
30007db4:	461a      	mov	r2, r3
30007db6:	4613      	mov	r3, r2
30007db8:	f443 5280 	orr.w	r2, r3, #4096	; 0x1000
30007dbc:	68fb      	ldr	r3, [r7, #12]
30007dbe:	685b      	ldr	r3, [r3, #4]
30007dc0:	601a      	str	r2, [r3, #0]
30007dc2:	3720      	adds	r7, #32
30007dc4:	46bd      	mov	sp, r7
30007dc6:	e8bd 8bf0 	ldmia.w	sp!, {r4, r5, r6, r7, r8, r9, fp, pc}
30007dca:	bf00      	nop
30007dcc:	7ffffffe 	.word	0x7ffffffe
30007dd0:	3000b7d4 	.word	0x3000b7d4

30007dd4 <stm32__spi__receive_16bit_mode>:
30007dd4:	e92d 41f0 	stmdb	sp!, {r4, r5, r6, r7, r8, lr}
30007dd8:	b086      	sub	sp, #24
30007dda:	af00      	add	r7, sp, #0
30007ddc:	60f8      	str	r0, [r7, #12]
30007dde:	e9c7 1200 	strd	r1, r2, [r7]
30007de2:	687b      	ldr	r3, [r7, #4]
30007de4:	681b      	ldr	r3, [r3, #0]
30007de6:	461e      	mov	r6, r3
30007de8:	68f8      	ldr	r0, [r7, #12]
30007dea:	f7fe fe31 	bl	30006a50 <stm32__spi__current_mode>
30007dee:	4603      	mov	r3, r0
30007df0:	2b00      	cmp	r3, #0
30007df2:	bf0c      	ite	eq
30007df4:	2301      	moveq	r3, #1
30007df6:	2300      	movne	r3, #0
30007df8:	75fb      	strb	r3, [r7, #23]
30007dfa:	687b      	ldr	r3, [r7, #4]
30007dfc:	681c      	ldr	r4, [r3, #0]
30007dfe:	687b      	ldr	r3, [r7, #4]
30007e00:	685d      	ldr	r5, [r3, #4]
30007e02:	42ac      	cmp	r4, r5
30007e04:	dc2c      	bgt.n	30007e60 <stm32__spi__receive_16bit_mode+0x8c>
30007e06:	683a      	ldr	r2, [r7, #0]
30007e08:	46a0      	mov	r8, r4
30007e0a:	eba8 0306 	sub.w	r3, r8, r6
30007e0e:	005b      	lsls	r3, r3, #1
30007e10:	4413      	add	r3, r2
30007e12:	613b      	str	r3, [r7, #16]
30007e14:	7dfb      	ldrb	r3, [r7, #23]
30007e16:	2b00      	cmp	r3, #0
30007e18:	d009      	beq.n	30007e2e <stm32__spi__receive_16bit_mode+0x5a>
30007e1a:	68fb      	ldr	r3, [r7, #12]
30007e1c:	685b      	ldr	r3, [r3, #4]
30007e1e:	330c      	adds	r3, #12
30007e20:	681b      	ldr	r3, [r3, #0]
30007e22:	f36f 030f 	bfc	r3, #0, #16
30007e26:	68fa      	ldr	r2, [r7, #12]
30007e28:	6852      	ldr	r2, [r2, #4]
30007e2a:	320c      	adds	r2, #12
30007e2c:	6013      	str	r3, [r2, #0]
30007e2e:	68f8      	ldr	r0, [r7, #12]
30007e30:	f7fe fde4 	bl	300069fc <stm32__spi__rx_is_empty>
30007e34:	4603      	mov	r3, r0
30007e36:	f083 0301 	eor.w	r3, r3, #1
30007e3a:	b2db      	uxtb	r3, r3
30007e3c:	2b00      	cmp	r3, #0
30007e3e:	d101      	bne.n	30007e44 <stm32__spi__receive_16bit_mode+0x70>
30007e40:	bf00      	nop
30007e42:	e7f4      	b.n	30007e2e <stm32__spi__receive_16bit_mode+0x5a>
30007e44:	68fb      	ldr	r3, [r7, #12]
30007e46:	685b      	ldr	r3, [r3, #4]
30007e48:	330c      	adds	r3, #12
30007e4a:	681a      	ldr	r2, [r3, #0]
30007e4c:	683b      	ldr	r3, [r7, #0]
30007e4e:	b291      	uxth	r1, r2
30007e50:	eba8 0206 	sub.w	r2, r8, r6
30007e54:	f823 1012 	strh.w	r1, [r3, r2, lsl #1]
30007e58:	42ac      	cmp	r4, r5
30007e5a:	d001      	beq.n	30007e60 <stm32__spi__receive_16bit_mode+0x8c>
30007e5c:	3401      	adds	r4, #1
30007e5e:	e7d2      	b.n	30007e06 <stm32__spi__receive_16bit_mode+0x32>
30007e60:	3718      	adds	r7, #24
30007e62:	46bd      	mov	sp, r7
30007e64:	e8bd 81f0 	ldmia.w	sp!, {r4, r5, r6, r7, r8, pc}

30007e68 <stm32__spi__receive_8bit_mode>:
30007e68:	e92d 41f0 	stmdb	sp!, {r4, r5, r6, r7, r8, lr}
30007e6c:	b088      	sub	sp, #32
30007e6e:	af00      	add	r7, sp, #0
30007e70:	60f8      	str	r0, [r7, #12]
30007e72:	e9c7 1200 	strd	r1, r2, [r7]
30007e76:	687b      	ldr	r3, [r7, #4]
30007e78:	681b      	ldr	r3, [r3, #0]
30007e7a:	461e      	mov	r6, r3
30007e7c:	68f8      	ldr	r0, [r7, #12]
30007e7e:	f7fe fde7 	bl	30006a50 <stm32__spi__current_mode>
30007e82:	4603      	mov	r3, r0
30007e84:	2b00      	cmp	r3, #0
30007e86:	bf0c      	ite	eq
30007e88:	2301      	moveq	r3, #1
30007e8a:	2300      	movne	r3, #0
30007e8c:	b2da      	uxtb	r2, r3
30007e8e:	68fb      	ldr	r3, [r7, #12]
30007e90:	685b      	ldr	r3, [r3, #4]
30007e92:	681b      	ldr	r3, [r3, #0]
30007e94:	f3c3 2307 	ubfx	r3, r3, #8, #8
30007e98:	b2db      	uxtb	r3, r3
30007e9a:	b25b      	sxtb	r3, r3
30007e9c:	43db      	mvns	r3, r3
30007e9e:	b2db      	uxtb	r3, r3
30007ea0:	09db      	lsrs	r3, r3, #7
30007ea2:	b2db      	uxtb	r3, r3
30007ea4:	4013      	ands	r3, r2
30007ea6:	77fb      	strb	r3, [r7, #31]
30007ea8:	68fb      	ldr	r3, [r7, #12]
30007eaa:	685b      	ldr	r3, [r3, #4]
30007eac:	330c      	adds	r3, #12
30007eae:	61bb      	str	r3, [r7, #24]
30007eb0:	687b      	ldr	r3, [r7, #4]
30007eb2:	681c      	ldr	r4, [r3, #0]
30007eb4:	687b      	ldr	r3, [r7, #4]
30007eb6:	685d      	ldr	r5, [r3, #4]
30007eb8:	42ac      	cmp	r4, r5
30007eba:	dc21      	bgt.n	30007f00 <stm32__spi__receive_8bit_mode+0x98>
30007ebc:	683a      	ldr	r2, [r7, #0]
30007ebe:	46a0      	mov	r8, r4
30007ec0:	eba8 0306 	sub.w	r3, r8, r6
30007ec4:	4413      	add	r3, r2
30007ec6:	617b      	str	r3, [r7, #20]
30007ec8:	7ffb      	ldrb	r3, [r7, #31]
30007eca:	2b00      	cmp	r3, #0
30007ecc:	d002      	beq.n	30007ed4 <stm32__spi__receive_8bit_mode+0x6c>
30007ece:	69bb      	ldr	r3, [r7, #24]
30007ed0:	2200      	movs	r2, #0
30007ed2:	701a      	strb	r2, [r3, #0]
30007ed4:	68f8      	ldr	r0, [r7, #12]
30007ed6:	f7fe fd91 	bl	300069fc <stm32__spi__rx_is_empty>
30007eda:	4603      	mov	r3, r0
30007edc:	f083 0301 	eor.w	r3, r3, #1
30007ee0:	b2db      	uxtb	r3, r3
30007ee2:	2b00      	cmp	r3, #0
30007ee4:	d101      	bne.n	30007eea <stm32__spi__receive_8bit_mode+0x82>
30007ee6:	bf00      	nop
30007ee8:	e7f4      	b.n	30007ed4 <stm32__spi__receive_8bit_mode+0x6c>
30007eea:	683a      	ldr	r2, [r7, #0]
30007eec:	69bb      	ldr	r3, [r7, #24]
30007eee:	781b      	ldrb	r3, [r3, #0]
30007ef0:	b2d9      	uxtb	r1, r3
30007ef2:	eba8 0306 	sub.w	r3, r8, r6
30007ef6:	54d1      	strb	r1, [r2, r3]
30007ef8:	42ac      	cmp	r4, r5
30007efa:	d001      	beq.n	30007f00 <stm32__spi__receive_8bit_mode+0x98>
30007efc:	3401      	adds	r4, #1
30007efe:	e7dd      	b.n	30007ebc <stm32__spi__receive_8bit_mode+0x54>
30007f00:	3720      	adds	r7, #32
30007f02:	46bd      	mov	sp, r7
30007f04:	e8bd 81f0 	ldmia.w	sp!, {r4, r5, r6, r7, r8, pc}

30007f08 <stm32__spi__transmit_receive>:
30007f08:	b082      	sub	sp, #8
30007f0a:	e92d 4ff0 	stmdb	sp!, {r4, r5, r6, r7, r8, r9, sl, fp, lr}
30007f0e:	b097      	sub	sp, #92	; 0x5c
30007f10:	af02      	add	r7, sp, #8
30007f12:	6378      	str	r0, [r7, #52]	; 0x34
30007f14:	e9c7 120a 	strd	r1, r2, [r7, #40]	; 0x28
30007f18:	67fb      	str	r3, [r7, #124]	; 0x7c
30007f1a:	f107 0320 	add.w	r3, r7, #32
30007f1e:	f107 027c 	add.w	r2, r7, #124	; 0x7c
30007f22:	e892 0003 	ldmia.w	r2, {r0, r1}
30007f26:	e883 0003 	stmia.w	r3, {r0, r1}
30007f2a:	6afb      	ldr	r3, [r7, #44]	; 0x2c
30007f2c:	681b      	ldr	r3, [r3, #0]
30007f2e:	633b      	str	r3, [r7, #48]	; 0x30
30007f30:	6afb      	ldr	r3, [r7, #44]	; 0x2c
30007f32:	685b      	ldr	r3, [r3, #4]
30007f34:	607b      	str	r3, [r7, #4]
30007f36:	6afb      	ldr	r3, [r7, #44]	; 0x2c
30007f38:	685a      	ldr	r2, [r3, #4]
30007f3a:	6afb      	ldr	r3, [r7, #44]	; 0x2c
30007f3c:	681b      	ldr	r3, [r3, #0]
30007f3e:	429a      	cmp	r2, r3
30007f40:	db12      	blt.n	30007f68 <stm32__spi__transmit_receive+0x60>
30007f42:	6afb      	ldr	r3, [r7, #44]	; 0x2c
30007f44:	685b      	ldr	r3, [r3, #4]
30007f46:	4619      	mov	r1, r3
30007f48:	ea4f 72e1 	mov.w	r2, r1, asr #31
30007f4c:	6afb      	ldr	r3, [r7, #44]	; 0x2c
30007f4e:	681b      	ldr	r3, [r3, #0]
30007f50:	461d      	mov	r5, r3
30007f52:	ea4f 76e5 	mov.w	r6, r5, asr #31
30007f56:	460b      	mov	r3, r1
30007f58:	4614      	mov	r4, r2
30007f5a:	1b5b      	subs	r3, r3, r5
30007f5c:	eb64 0406 	sbc.w	r4, r4, r6
30007f60:	1c5d      	adds	r5, r3, #1
30007f62:	f144 0600 	adc.w	r6, r4, #0
30007f66:	e003      	b.n	30007f70 <stm32__spi__transmit_receive+0x68>
30007f68:	f04f 0500 	mov.w	r5, #0
30007f6c:	f04f 0600 	mov.w	r6, #0
30007f70:	6b78      	ldr	r0, [r7, #52]	; 0x34
30007f72:	f7fe fe69 	bl	30006c48 <stm32__spi__data_size>
30007f76:	4603      	mov	r3, r0
30007f78:	2b00      	cmp	r3, #0
30007f7a:	bf14      	ite	ne
30007f7c:	2301      	movne	r3, #1
30007f7e:	2300      	moveq	r3, #0
30007f80:	b2d8      	uxtb	r0, r3
30007f82:	6a7b      	ldr	r3, [r7, #36]	; 0x24
30007f84:	685a      	ldr	r2, [r3, #4]
30007f86:	6a7b      	ldr	r3, [r7, #36]	; 0x24
30007f88:	681b      	ldr	r3, [r3, #0]
30007f8a:	429a      	cmp	r2, r3
30007f8c:	db18      	blt.n	30007fc0 <stm32__spi__transmit_receive+0xb8>
30007f8e:	6a7b      	ldr	r3, [r7, #36]	; 0x24
30007f90:	685b      	ldr	r3, [r3, #4]
30007f92:	4619      	mov	r1, r3
30007f94:	ea4f 72e1 	mov.w	r2, r1, asr #31
30007f98:	e9c7 1202 	strd	r1, r2, [r7, #8]
30007f9c:	6a7b      	ldr	r3, [r7, #36]	; 0x24
30007f9e:	681b      	ldr	r3, [r3, #0]
30007fa0:	4619      	mov	r1, r3
30007fa2:	ea4f 72e1 	mov.w	r2, r1, asr #31
30007fa6:	460b      	mov	r3, r1
30007fa8:	4614      	mov	r4, r2
30007faa:	e9d7 1202 	ldrd	r1, r2, [r7, #8]
30007fae:	1ac9      	subs	r1, r1, r3
30007fb0:	eb62 0204 	sbc.w	r2, r2, r4
30007fb4:	460b      	mov	r3, r1
30007fb6:	4614      	mov	r4, r2
30007fb8:	1c59      	adds	r1, r3, #1
30007fba:	f144 0200 	adc.w	r2, r4, #0
30007fbe:	e003      	b.n	30007fc8 <stm32__spi__transmit_receive+0xc0>
30007fc0:	f04f 0100 	mov.w	r1, #0
30007fc4:	f04f 0200 	mov.w	r2, #0
30007fc8:	4296      	cmp	r6, r2
30007fca:	bf0a      	itet	eq
30007fcc:	428d      	cmpeq	r5, r1
30007fce:	2301      	movne	r3, #1
30007fd0:	2300      	moveq	r3, #0
30007fd2:	b2db      	uxtb	r3, r3
30007fd4:	4303      	orrs	r3, r0
30007fd6:	b2db      	uxtb	r3, r3
30007fd8:	2b00      	cmp	r3, #0
30007fda:	d007      	beq.n	30007fec <stm32__spi__transmit_receive+0xe4>
30007fdc:	4b4b      	ldr	r3, [pc, #300]	; (3000810c <stm32__spi__transmit_receive+0x204>)
30007fde:	613b      	str	r3, [r7, #16]
30007fe0:	4b4b      	ldr	r3, [pc, #300]	; (30008110 <stm32__spi__transmit_receive+0x208>)
30007fe2:	617b      	str	r3, [r7, #20]
30007fe4:	e9d7 0104 	ldrd	r0, r1, [r7, #16]
30007fe8:	f001 fbda 	bl	300097a0 <system__assertions__raise_assert_failure>
30007fec:	6b3b      	ldr	r3, [r7, #48]	; 0x30
30007fee:	2b00      	cmp	r3, #0
30007ff0:	da04      	bge.n	30007ffc <stm32__spi__transmit_receive+0xf4>
30007ff2:	f44f 6180 	mov.w	r1, #1024	; 0x400
30007ff6:	4847      	ldr	r0, [pc, #284]	; (30008114 <stm32__spi__transmit_receive+0x20c>)
30007ff8:	f001 f9ca 	bl	30009390 <__gnat_last_chance_handler>
30007ffc:	6a7b      	ldr	r3, [r7, #36]	; 0x24
30007ffe:	681b      	ldr	r3, [r3, #0]
30008000:	2b00      	cmp	r3, #0
30008002:	da04      	bge.n	3000800e <stm32__spi__transmit_receive+0x106>
30008004:	f44f 6180 	mov.w	r1, #1024	; 0x400
30008008:	4842      	ldr	r0, [pc, #264]	; (30008114 <stm32__spi__transmit_receive+0x20c>)
3000800a:	f001 f9c1 	bl	30009390 <__gnat_last_chance_handler>
3000800e:	6a7b      	ldr	r3, [r7, #36]	; 0x24
30008010:	685a      	ldr	r2, [r3, #4]
30008012:	6a7b      	ldr	r3, [r7, #36]	; 0x24
30008014:	681b      	ldr	r3, [r3, #0]
30008016:	429a      	cmp	r2, r3
30008018:	db2e      	blt.n	30008078 <stm32__spi__transmit_receive+0x170>
3000801a:	6a7b      	ldr	r3, [r7, #36]	; 0x24
3000801c:	685b      	ldr	r3, [r3, #4]
3000801e:	4619      	mov	r1, r3
30008020:	ea4f 72e1 	mov.w	r2, r1, asr #31
30008024:	6a7b      	ldr	r3, [r7, #36]	; 0x24
30008026:	681b      	ldr	r3, [r3, #0]
30008028:	461d      	mov	r5, r3
3000802a:	ea4f 76e5 	mov.w	r6, r5, asr #31
3000802e:	460b      	mov	r3, r1
30008030:	4614      	mov	r4, r2
30008032:	1b5b      	subs	r3, r3, r5
30008034:	eb64 0406 	sbc.w	r4, r4, r6
30008038:	2b00      	cmp	r3, #0
3000803a:	f174 0300 	sbcs.w	r3, r4, #0
3000803e:	db1b      	blt.n	30008078 <stm32__spi__transmit_receive+0x170>
30008040:	6a7b      	ldr	r3, [r7, #36]	; 0x24
30008042:	685a      	ldr	r2, [r3, #4]
30008044:	6a7b      	ldr	r3, [r7, #36]	; 0x24
30008046:	681b      	ldr	r3, [r3, #0]
30008048:	429a      	cmp	r2, r3
3000804a:	db1a      	blt.n	30008082 <stm32__spi__transmit_receive+0x17a>
3000804c:	6a7b      	ldr	r3, [r7, #36]	; 0x24
3000804e:	685b      	ldr	r3, [r3, #4]
30008050:	4619      	mov	r1, r3
30008052:	ea4f 72e1 	mov.w	r2, r1, asr #31
30008056:	6a7b      	ldr	r3, [r7, #36]	; 0x24
30008058:	681b      	ldr	r3, [r3, #0]
3000805a:	461d      	mov	r5, r3
3000805c:	ea4f 76e5 	mov.w	r6, r5, asr #31
30008060:	460b      	mov	r3, r1
30008062:	4614      	mov	r4, r2
30008064:	1b5b      	subs	r3, r3, r5
30008066:	eb64 0406 	sbc.w	r4, r4, r6
3000806a:	492b      	ldr	r1, [pc, #172]	; (30008118 <stm32__spi__transmit_receive+0x210>)
3000806c:	f04f 0200 	mov.w	r2, #0
30008070:	4299      	cmp	r1, r3
30008072:	eb72 0304 	sbcs.w	r3, r2, r4
30008076:	da04      	bge.n	30008082 <stm32__spi__transmit_receive+0x17a>
30008078:	f44f 6180 	mov.w	r1, #1024	; 0x400
3000807c:	4825      	ldr	r0, [pc, #148]	; (30008114 <stm32__spi__transmit_receive+0x20c>)
3000807e:	f001 f987 	bl	30009390 <__gnat_last_chance_handler>
30008082:	6a7b      	ldr	r3, [r7, #36]	; 0x24
30008084:	681b      	ldr	r3, [r3, #0]
30008086:	2b00      	cmp	r3, #0
30008088:	da04      	bge.n	30008094 <stm32__spi__transmit_receive+0x18c>
3000808a:	f44f 6180 	mov.w	r1, #1024	; 0x400
3000808e:	4821      	ldr	r0, [pc, #132]	; (30008114 <stm32__spi__transmit_receive+0x20c>)
30008090:	f001 f97e 	bl	30009390 <__gnat_last_chance_handler>
30008094:	6abb      	ldr	r3, [r7, #40]	; 0x28
30008096:	469a      	mov	sl, r3
30008098:	6b3b      	ldr	r3, [r7, #48]	; 0x30
3000809a:	643b      	str	r3, [r7, #64]	; 0x40
3000809c:	687b      	ldr	r3, [r7, #4]
3000809e:	647b      	str	r3, [r7, #68]	; 0x44
300080a0:	f107 0340 	add.w	r3, r7, #64	; 0x40
300080a4:	469b      	mov	fp, r3
300080a6:	6a3b      	ldr	r3, [r7, #32]
300080a8:	4698      	mov	r8, r3
300080aa:	6a7b      	ldr	r3, [r7, #36]	; 0x24
300080ac:	681b      	ldr	r3, [r3, #0]
300080ae:	64bb      	str	r3, [r7, #72]	; 0x48
300080b0:	6a7b      	ldr	r3, [r7, #36]	; 0x24
300080b2:	685b      	ldr	r3, [r3, #4]
300080b4:	64fb      	str	r3, [r7, #76]	; 0x4c
300080b6:	f107 0348 	add.w	r3, r7, #72	; 0x48
300080ba:	4699      	mov	r9, r3
300080bc:	6a7b      	ldr	r3, [r7, #36]	; 0x24
300080be:	685a      	ldr	r2, [r3, #4]
300080c0:	6a7b      	ldr	r3, [r7, #36]	; 0x24
300080c2:	681b      	ldr	r3, [r3, #0]
300080c4:	429a      	cmp	r2, r3
300080c6:	db07      	blt.n	300080d8 <stm32__spi__transmit_receive+0x1d0>
300080c8:	6a7b      	ldr	r3, [r7, #36]	; 0x24
300080ca:	685b      	ldr	r3, [r3, #4]
300080cc:	461a      	mov	r2, r3
300080ce:	6a7b      	ldr	r3, [r7, #36]	; 0x24
300080d0:	681b      	ldr	r3, [r3, #0]
300080d2:	1ad3      	subs	r3, r2, r3
300080d4:	3301      	adds	r3, #1
300080d6:	e000      	b.n	300080da <stm32__spi__transmit_receive+0x1d2>
300080d8:	2300      	movs	r3, #0
300080da:	9301      	str	r3, [sp, #4]
300080dc:	e9c7 8906 	strd	r8, r9, [r7, #24]
300080e0:	69fb      	ldr	r3, [r7, #28]
300080e2:	9300      	str	r3, [sp, #0]
300080e4:	4643      	mov	r3, r8
300080e6:	4651      	mov	r1, sl
300080e8:	465a      	mov	r2, fp
300080ea:	6b78      	ldr	r0, [r7, #52]	; 0x34
300080ec:	f7ff fb3a 	bl	30007764 <stm32__spi__send_receive_8bit_mode>
300080f0:	2300      	movs	r3, #0
300080f2:	f887 303f 	strb.w	r3, [r7, #63]	; 0x3f
300080f6:	f897 303f 	ldrb.w	r3, [r7, #63]	; 0x3f
300080fa:	bf00      	nop
300080fc:	4618      	mov	r0, r3
300080fe:	3754      	adds	r7, #84	; 0x54
30008100:	46bd      	mov	sp, r7
30008102:	e8bd 4ff0 	ldmia.w	sp!, {r4, r5, r6, r7, r8, r9, sl, fp, lr}
30008106:	b002      	add	sp, #8
30008108:	4770      	bx	lr
3000810a:	bf00      	nop
3000810c:	3000b8bc 	.word	0x3000b8bc
30008110:	3000b818 	.word	0x3000b818
30008114:	3000b7d4 	.word	0x3000b7d4
30008118:	7ffffffe 	.word	0x7ffffffe

3000811c <stm32_svd__rng__rng_cr_registerIP>:
3000811c:	b480      	push	{r7}
3000811e:	b083      	sub	sp, #12
30008120:	af00      	add	r7, sp, #0
30008122:	6078      	str	r0, [r7, #4]
30008124:	687b      	ldr	r3, [r7, #4]
30008126:	681b      	ldr	r3, [r3, #0]
30008128:	f36f 0301 	bfc	r3, #0, #2
3000812c:	461a      	mov	r2, r3
3000812e:	687b      	ldr	r3, [r7, #4]
30008130:	601a      	str	r2, [r3, #0]
30008132:	687b      	ldr	r3, [r7, #4]
30008134:	681b      	ldr	r3, [r3, #0]
30008136:	f36f 0382 	bfc	r3, #2, #1
3000813a:	461a      	mov	r2, r3
3000813c:	687b      	ldr	r3, [r7, #4]
3000813e:	601a      	str	r2, [r3, #0]
30008140:	687b      	ldr	r3, [r7, #4]
30008142:	681b      	ldr	r3, [r3, #0]
30008144:	f36f 03c3 	bfc	r3, #3, #1
30008148:	461a      	mov	r2, r3
3000814a:	687b      	ldr	r3, [r7, #4]
3000814c:	601a      	str	r2, [r3, #0]
3000814e:	687b      	ldr	r3, [r7, #4]
30008150:	681b      	ldr	r3, [r3, #0]
30008152:	f36f 1304 	bfc	r3, #4, #1
30008156:	461a      	mov	r2, r3
30008158:	687b      	ldr	r3, [r7, #4]
3000815a:	601a      	str	r2, [r3, #0]
3000815c:	687b      	ldr	r3, [r7, #4]
3000815e:	681b      	ldr	r3, [r3, #0]
30008160:	f36f 1345 	bfc	r3, #5, #1
30008164:	461a      	mov	r2, r3
30008166:	687b      	ldr	r3, [r7, #4]
30008168:	601a      	str	r2, [r3, #0]
3000816a:	687b      	ldr	r3, [r7, #4]
3000816c:	681b      	ldr	r3, [r3, #0]
3000816e:	f36f 1387 	bfc	r3, #6, #2
30008172:	461a      	mov	r2, r3
30008174:	687b      	ldr	r3, [r7, #4]
30008176:	601a      	str	r2, [r3, #0]
30008178:	687b      	ldr	r3, [r7, #4]
3000817a:	681b      	ldr	r3, [r3, #0]
3000817c:	f36f 230b 	bfc	r3, #8, #4
30008180:	461a      	mov	r2, r3
30008182:	687b      	ldr	r3, [r7, #4]
30008184:	601a      	str	r2, [r3, #0]
30008186:	687b      	ldr	r3, [r7, #4]
30008188:	681b      	ldr	r3, [r3, #0]
3000818a:	f36f 330c 	bfc	r3, #12, #1
3000818e:	461a      	mov	r2, r3
30008190:	687b      	ldr	r3, [r7, #4]
30008192:	601a      	str	r2, [r3, #0]
30008194:	687b      	ldr	r3, [r7, #4]
30008196:	681b      	ldr	r3, [r3, #0]
30008198:	f36f 334f 	bfc	r3, #13, #3
3000819c:	461a      	mov	r2, r3
3000819e:	687b      	ldr	r3, [r7, #4]
300081a0:	601a      	str	r2, [r3, #0]
300081a2:	687b      	ldr	r3, [r7, #4]
300081a4:	681b      	ldr	r3, [r3, #0]
300081a6:	f36f 4313 	bfc	r3, #16, #4
300081aa:	461a      	mov	r2, r3
300081ac:	687b      	ldr	r3, [r7, #4]
300081ae:	601a      	str	r2, [r3, #0]
300081b0:	687b      	ldr	r3, [r7, #4]
300081b2:	681b      	ldr	r3, [r3, #0]
300081b4:	f36f 5319 	bfc	r3, #20, #6
300081b8:	461a      	mov	r2, r3
300081ba:	687b      	ldr	r3, [r7, #4]
300081bc:	601a      	str	r2, [r3, #0]
300081be:	687b      	ldr	r3, [r7, #4]
300081c0:	681b      	ldr	r3, [r3, #0]
300081c2:	f36f 639d 	bfc	r3, #26, #4
300081c6:	461a      	mov	r2, r3
300081c8:	687b      	ldr	r3, [r7, #4]
300081ca:	601a      	str	r2, [r3, #0]
300081cc:	687b      	ldr	r3, [r7, #4]
300081ce:	681b      	ldr	r3, [r3, #0]
300081d0:	f36f 739e 	bfc	r3, #30, #1
300081d4:	461a      	mov	r2, r3
300081d6:	687b      	ldr	r3, [r7, #4]
300081d8:	601a      	str	r2, [r3, #0]
300081da:	687b      	ldr	r3, [r7, #4]
300081dc:	681b      	ldr	r3, [r3, #0]
300081de:	f36f 73df 	bfc	r3, #31, #1
300081e2:	461a      	mov	r2, r3
300081e4:	687b      	ldr	r3, [r7, #4]
300081e6:	601a      	str	r2, [r3, #0]
300081e8:	370c      	adds	r7, #12
300081ea:	46bd      	mov	sp, r7
300081ec:	f85d 7b04 	ldr.w	r7, [sp], #4
300081f0:	4770      	bx	lr
300081f2:	bf00      	nop

300081f4 <stm32_svd__spi__sr_registerIP>:
300081f4:	b480      	push	{r7}
300081f6:	b083      	sub	sp, #12
300081f8:	af00      	add	r7, sp, #0
300081fa:	6078      	str	r0, [r7, #4]
300081fc:	687b      	ldr	r3, [r7, #4]
300081fe:	681b      	ldr	r3, [r3, #0]
30008200:	f36f 0300 	bfc	r3, #0, #1
30008204:	461a      	mov	r2, r3
30008206:	687b      	ldr	r3, [r7, #4]
30008208:	601a      	str	r2, [r3, #0]
3000820a:	687b      	ldr	r3, [r7, #4]
3000820c:	681b      	ldr	r3, [r3, #0]
3000820e:	f043 0302 	orr.w	r3, r3, #2
30008212:	461a      	mov	r2, r3
30008214:	687b      	ldr	r3, [r7, #4]
30008216:	601a      	str	r2, [r3, #0]
30008218:	687b      	ldr	r3, [r7, #4]
3000821a:	681b      	ldr	r3, [r3, #0]
3000821c:	f36f 0383 	bfc	r3, #2, #2
30008220:	461a      	mov	r2, r3
30008222:	687b      	ldr	r3, [r7, #4]
30008224:	601a      	str	r2, [r3, #0]
30008226:	687b      	ldr	r3, [r7, #4]
30008228:	681b      	ldr	r3, [r3, #0]
3000822a:	f36f 1304 	bfc	r3, #4, #1
3000822e:	461a      	mov	r2, r3
30008230:	687b      	ldr	r3, [r7, #4]
30008232:	601a      	str	r2, [r3, #0]
30008234:	687b      	ldr	r3, [r7, #4]
30008236:	681b      	ldr	r3, [r3, #0]
30008238:	f36f 1345 	bfc	r3, #5, #1
3000823c:	461a      	mov	r2, r3
3000823e:	687b      	ldr	r3, [r7, #4]
30008240:	601a      	str	r2, [r3, #0]
30008242:	687b      	ldr	r3, [r7, #4]
30008244:	681b      	ldr	r3, [r3, #0]
30008246:	f36f 1386 	bfc	r3, #6, #1
3000824a:	461a      	mov	r2, r3
3000824c:	687b      	ldr	r3, [r7, #4]
3000824e:	601a      	str	r2, [r3, #0]
30008250:	687b      	ldr	r3, [r7, #4]
30008252:	681b      	ldr	r3, [r3, #0]
30008254:	f36f 13c7 	bfc	r3, #7, #1
30008258:	461a      	mov	r2, r3
3000825a:	687b      	ldr	r3, [r7, #4]
3000825c:	601a      	str	r2, [r3, #0]
3000825e:	687b      	ldr	r3, [r7, #4]
30008260:	681b      	ldr	r3, [r3, #0]
30008262:	f36f 2308 	bfc	r3, #8, #1
30008266:	461a      	mov	r2, r3
30008268:	687b      	ldr	r3, [r7, #4]
3000826a:	601a      	str	r2, [r3, #0]
3000826c:	687b      	ldr	r3, [r7, #4]
3000826e:	681b      	ldr	r3, [r3, #0]
30008270:	f36f 234a 	bfc	r3, #9, #2
30008274:	461a      	mov	r2, r3
30008276:	687b      	ldr	r3, [r7, #4]
30008278:	601a      	str	r2, [r3, #0]
3000827a:	687b      	ldr	r3, [r7, #4]
3000827c:	681b      	ldr	r3, [r3, #0]
3000827e:	f36f 23cc 	bfc	r3, #11, #2
30008282:	461a      	mov	r2, r3
30008284:	687b      	ldr	r3, [r7, #4]
30008286:	601a      	str	r2, [r3, #0]
30008288:	687b      	ldr	r3, [r7, #4]
3000828a:	681b      	ldr	r3, [r3, #0]
3000828c:	f36f 335f 	bfc	r3, #13, #19
30008290:	461a      	mov	r2, r3
30008292:	687b      	ldr	r3, [r7, #4]
30008294:	601a      	str	r2, [r3, #0]
30008296:	370c      	adds	r7, #12
30008298:	46bd      	mov	sp, r7
3000829a:	f85d 7b04 	ldr.w	r7, [sp], #4
3000829e:	4770      	bx	lr

300082a0 <ada__real_time___elabb>:
300082a0:	f000 bd2c 	b.w	30008cfc <system__tasking__initialize>

300082a4 <system__bb__board_support__timer_interrupt_handler>:
300082a4:	f04f 30ff 	mov.w	r0, #4294967295	; 0xffffffff
300082a8:	f000 ba14 	b.w	300086d4 <system__bb__interrupts__interrupt_wrapper>

300082ac <system__bb__board_support__interrupt_handler>:
300082ac:	f3ef 8005 	mrs	r0, IPSR
300082b0:	b2c0      	uxtb	r0, r0
300082b2:	3810      	subs	r0, #16
300082b4:	f000 ba0e 	b.w	300086d4 <system__bb__interrupts__interrupt_wrapper>

300082b8 <system__bb__board_support__enable_interrupt_request.part.0>:
300082b8:	4b04      	ldr	r3, [pc, #16]	; (300082cc <system__bb__board_support__enable_interrupt_request.part.0+0x14>)
300082ba:	4a05      	ldr	r2, [pc, #20]	; (300082d0 <system__bb__board_support__enable_interrupt_request.part.0+0x18>)
300082bc:	f04f 7100 	mov.w	r1, #33554432	; 0x2000000
300082c0:	6019      	str	r1, [r3, #0]
300082c2:	6813      	ldr	r3, [r2, #0]
300082c4:	f043 0302 	orr.w	r3, r3, #2
300082c8:	6013      	str	r3, [r2, #0]
300082ca:	4770      	bx	lr
300082cc:	e000ed04 	.word	0xe000ed04
300082d0:	e000e010 	.word	0xe000e010

300082d4 <system__bb__board_support__time__read_clock>:
300082d4:	f3ef 8210 	mrs	r2, PRIMASK
300082d8:	2301      	movs	r3, #1
300082da:	f383 8810 	msr	PRIMASK, r3
300082de:	4b0c      	ldr	r3, [pc, #48]	; (30008310 <system__bb__board_support__time__read_clock+0x3c>)
300082e0:	6899      	ldr	r1, [r3, #8]
300082e2:	681b      	ldr	r3, [r3, #0]
300082e4:	03db      	lsls	r3, r3, #15
300082e6:	d406      	bmi.n	300082f6 <system__bb__board_support__time__read_clock+0x22>
300082e8:	4b0a      	ldr	r3, [pc, #40]	; (30008314 <system__bb__board_support__time__read_clock+0x40>)
300082ea:	6818      	ldr	r0, [r3, #0]
300082ec:	1a40      	subs	r0, r0, r1
300082ee:	f382 8810 	msr	PRIMASK, r2
300082f2:	2100      	movs	r1, #0
300082f4:	4770      	bx	lr
300082f6:	4907      	ldr	r1, [pc, #28]	; (30008314 <system__bb__board_support__time__read_clock+0x40>)
300082f8:	6808      	ldr	r0, [r1, #0]
300082fa:	680b      	ldr	r3, [r1, #0]
300082fc:	f503 33d6 	add.w	r3, r3, #109568	; 0x1ac00
30008300:	f503 73d8 	add.w	r3, r3, #432	; 0x1b0
30008304:	600b      	str	r3, [r1, #0]
30008306:	f382 8810 	msr	PRIMASK, r2
3000830a:	2100      	movs	r1, #0
3000830c:	4770      	bx	lr
3000830e:	bf00      	nop
30008310:	e000e010 	.word	0xe000e010
30008314:	3000c5dc 	.word	0x3000c5dc

30008318 <system__bb__board_support__time__set_alarm>:
30008318:	b410      	push	{r4}
3000831a:	f3ef 8110 	mrs	r1, PRIMASK
3000831e:	2301      	movs	r3, #1
30008320:	f383 8810 	msr	PRIMASK, r3
30008324:	4a11      	ldr	r2, [pc, #68]	; (3000836c <system__bb__board_support__time__set_alarm+0x54>)
30008326:	6894      	ldr	r4, [r2, #8]
30008328:	6812      	ldr	r2, [r2, #0]
3000832a:	03d3      	lsls	r3, r2, #15
3000832c:	d519      	bpl.n	30008362 <system__bb__board_support__time__set_alarm+0x4a>
3000832e:	4c10      	ldr	r4, [pc, #64]	; (30008370 <system__bb__board_support__time__set_alarm+0x58>)
30008330:	6823      	ldr	r3, [r4, #0]
30008332:	6822      	ldr	r2, [r4, #0]
30008334:	f502 32d6 	add.w	r2, r2, #109568	; 0x1ac00
30008338:	f502 72d8 	add.w	r2, r2, #432	; 0x1b0
3000833c:	6022      	str	r2, [r4, #0]
3000833e:	f381 8810 	msr	PRIMASK, r1
30008342:	f06f 4100 	mvn.w	r1, #2147483648	; 0x80000000
30008346:	4a0b      	ldr	r2, [pc, #44]	; (30008374 <system__bb__board_support__time__set_alarm+0x5c>)
30008348:	4288      	cmp	r0, r1
3000834a:	bf94      	ite	ls
3000834c:	181b      	addls	r3, r3, r0
3000834e:	185b      	addhi	r3, r3, r1
30008350:	6013      	str	r3, [r2, #0]
30008352:	b918      	cbnz	r0, 3000835c <system__bb__board_support__time__set_alarm+0x44>
30008354:	4b08      	ldr	r3, [pc, #32]	; (30008378 <system__bb__board_support__time__set_alarm+0x60>)
30008356:	f04f 6280 	mov.w	r2, #67108864	; 0x4000000
3000835a:	601a      	str	r2, [r3, #0]
3000835c:	f85d 4b04 	ldr.w	r4, [sp], #4
30008360:	4770      	bx	lr
30008362:	4b03      	ldr	r3, [pc, #12]	; (30008370 <system__bb__board_support__time__set_alarm+0x58>)
30008364:	681b      	ldr	r3, [r3, #0]
30008366:	1b1b      	subs	r3, r3, r4
30008368:	e7e9      	b.n	3000833e <system__bb__board_support__time__set_alarm+0x26>
3000836a:	bf00      	nop
3000836c:	e000e010 	.word	0xe000e010
30008370:	3000c5dc 	.word	0x3000c5dc
30008374:	3000c5d8 	.word	0x3000c5d8
30008378:	e000ed04 	.word	0xe000ed04

3000837c <system__bb__board_support__time__install_alarm_handler>:
3000837c:	4b01      	ldr	r3, [pc, #4]	; (30008384 <system__bb__board_support__time__install_alarm_handler+0x8>)
3000837e:	6018      	str	r0, [r3, #0]
30008380:	f7ff bf9a 	b.w	300082b8 <system__bb__board_support__enable_interrupt_request.part.0>
30008384:	3000c628 	.word	0x3000c628

30008388 <system__bb__board_support__initialize_board>:
30008388:	b538      	push	{r3, r4, r5, lr}
3000838a:	b672      	cpsid	i
3000838c:	4a1d      	ldr	r2, [pc, #116]	; (30008404 <system__bb__board_support__initialize_board+0x7c>)
3000838e:	491e      	ldr	r1, [pc, #120]	; (30008408 <system__bb__board_support__initialize_board+0x80>)
30008390:	4d1e      	ldr	r5, [pc, #120]	; (3000840c <system__bb__board_support__initialize_board+0x84>)
30008392:	4b1f      	ldr	r3, [pc, #124]	; (30008410 <system__bb__board_support__initialize_board+0x88>)
30008394:	2004      	movs	r0, #4
30008396:	6010      	str	r0, [r2, #0]
30008398:	2400      	movs	r4, #0
3000839a:	2005      	movs	r0, #5
3000839c:	6055      	str	r5, [r2, #4]
3000839e:	6094      	str	r4, [r2, #8]
300083a0:	6010      	str	r0, [r2, #0]
300083a2:	600b      	str	r3, [r1, #0]
300083a4:	f3ef 8010 	mrs	r0, PRIMASK
300083a8:	2301      	movs	r3, #1
300083aa:	f383 8810 	msr	PRIMASK, r3
300083ae:	6894      	ldr	r4, [r2, #8]
300083b0:	6812      	ldr	r2, [r2, #0]
300083b2:	680b      	ldr	r3, [r1, #0]
300083b4:	03d2      	lsls	r2, r2, #15
300083b6:	d41e      	bmi.n	300083f6 <system__bb__board_support__initialize_board+0x6e>
300083b8:	1b1b      	subs	r3, r3, r4
300083ba:	f380 8810 	msr	PRIMASK, r0
300083be:	4a15      	ldr	r2, [pc, #84]	; (30008414 <system__bb__board_support__initialize_board+0x8c>)
300083c0:	4915      	ldr	r1, [pc, #84]	; (30008418 <system__bb__board_support__initialize_board+0x90>)
300083c2:	4816      	ldr	r0, [pc, #88]	; (3000841c <system__bb__board_support__initialize_board+0x94>)
300083c4:	f103 4300 	add.w	r3, r3, #2147483648	; 0x80000000
300083c8:	3b01      	subs	r3, #1
300083ca:	f04f 7400 	mov.w	r4, #33554432	; 0x2000000
300083ce:	6013      	str	r3, [r2, #0]
300083d0:	600c      	str	r4, [r1, #0]
300083d2:	2200      	movs	r2, #0
300083d4:	210f      	movs	r1, #15
300083d6:	f000 f977 	bl	300086c8 <system__bb__cpu_primitives__install_trap_handler>
300083da:	2200      	movs	r2, #0
300083dc:	2110      	movs	r1, #16
300083de:	4810      	ldr	r0, [pc, #64]	; (30008420 <system__bb__board_support__initialize_board+0x98>)
300083e0:	f000 f972 	bl	300086c8 <system__bb__cpu_primitives__install_trap_handler>
300083e4:	2300      	movs	r3, #0
300083e6:	f383 8811 	msr	BASEPRI, r3
300083ea:	b662      	cpsie	i
300083ec:	f3bf 8f4f 	dsb	sy
300083f0:	f3bf 8f6f 	isb	sy
300083f4:	bd38      	pop	{r3, r4, r5, pc}
300083f6:	680a      	ldr	r2, [r1, #0]
300083f8:	f502 32d6 	add.w	r2, r2, #109568	; 0x1ac00
300083fc:	f502 72d8 	add.w	r2, r2, #432	; 0x1b0
30008400:	600a      	str	r2, [r1, #0]
30008402:	e7da      	b.n	300083ba <system__bb__board_support__initialize_board+0x32>
30008404:	e000e010 	.word	0xe000e010
30008408:	3000c5dc 	.word	0x3000c5dc
3000840c:	0001adaf 	.word	0x0001adaf
30008410:	0001adb0 	.word	0x0001adb0
30008414:	3000c5d8 	.word	0x3000c5d8
30008418:	e000ed04 	.word	0xe000ed04
3000841c:	300082a5 	.word	0x300082a5
30008420:	300082ad 	.word	0x300082ad

30008424 <system__bb__cpu_primitives__gnat_error_handler>:
30008424:	b580      	push	{r7, lr}
30008426:	3801      	subs	r0, #1
30008428:	af00      	add	r7, sp, #0
3000842a:	2805      	cmp	r0, #5
3000842c:	f200 80a9 	bhi.w	30008582 <system__bb__cpu_primitives__gnat_error_handler+0x15e>
30008430:	e8df f000 	tbb	[pc, r0]
30008434:	a7466825 	.word	0xa7466825
30008438:	0381      	.short	0x0381
3000843a:	4862      	ldr	r0, [pc, #392]	; (300085c4 <system__bb__cpu_primitives__gnat_error_handler+0x1a0>)
3000843c:	f890 1038 	ldrb.w	r1, [r0, #56]	; 0x38
30008440:	2900      	cmp	r1, #0
30008442:	d03b      	beq.n	300084bc <system__bb__cpu_primitives__gnat_error_handler+0x98>
30008444:	4604      	mov	r4, r0
30008446:	cc0f      	ldmia	r4!, {r0, r1, r2, r3}
30008448:	b092      	sub	sp, #72	; 0x48
3000844a:	466e      	mov	r6, sp
3000844c:	f106 0c08 	add.w	ip, r6, #8
30008450:	2501      	movs	r5, #1
30008452:	6035      	str	r5, [r6, #0]
30008454:	f04f 0e39 	mov.w	lr, #57	; 0x39
30008458:	4665      	mov	r5, ip
3000845a:	f8c6 e004 	str.w	lr, [r6, #4]
3000845e:	c50f      	stmia	r5!, {r0, r1, r2, r3}
30008460:	cc0f      	ldmia	r4!, {r0, r1, r2, r3}
30008462:	c50f      	stmia	r5!, {r0, r1, r2, r3}
30008464:	cc0f      	ldmia	r4!, {r0, r1, r2, r3}
30008466:	c50f      	stmia	r5!, {r0, r1, r2, r3}
30008468:	e894 0007 	ldmia.w	r4, {r0, r1, r2}
3000846c:	c503      	stmia	r5!, {r0, r1}
3000846e:	2300      	movs	r3, #0
30008470:	4660      	mov	r0, ip
30008472:	4619      	mov	r1, r3
30008474:	702a      	strb	r2, [r5, #0]
30008476:	f886 3040 	strb.w	r3, [r6, #64]	; 0x40
3000847a:	f000 ff89 	bl	30009390 <__gnat_last_chance_handler>
3000847e:	4852      	ldr	r0, [pc, #328]	; (300085c8 <system__bb__cpu_primitives__gnat_error_handler+0x1a4>)
30008480:	f890 103d 	ldrb.w	r1, [r0, #61]	; 0x3d
30008484:	b1d1      	cbz	r1, 300084bc <system__bb__cpu_primitives__gnat_error_handler+0x98>
30008486:	4604      	mov	r4, r0
30008488:	cc0f      	ldmia	r4!, {r0, r1, r2, r3}
3000848a:	b094      	sub	sp, #80	; 0x50
3000848c:	466e      	mov	r6, sp
3000848e:	f106 0c08 	add.w	ip, r6, #8
30008492:	2501      	movs	r5, #1
30008494:	6035      	str	r5, [r6, #0]
30008496:	f04f 0e3e 	mov.w	lr, #62	; 0x3e
3000849a:	4665      	mov	r5, ip
3000849c:	f8c6 e004 	str.w	lr, [r6, #4]
300084a0:	c50f      	stmia	r5!, {r0, r1, r2, r3}
300084a2:	cc0f      	ldmia	r4!, {r0, r1, r2, r3}
300084a4:	c50f      	stmia	r5!, {r0, r1, r2, r3}
300084a6:	cc0f      	ldmia	r4!, {r0, r1, r2, r3}
300084a8:	c50f      	stmia	r5!, {r0, r1, r2, r3}
300084aa:	e894 000f 	ldmia.w	r4, {r0, r1, r2, r3}
300084ae:	c507      	stmia	r5!, {r0, r1, r2}
300084b0:	2200      	movs	r2, #0
300084b2:	802b      	strh	r3, [r5, #0]
300084b4:	4660      	mov	r0, ip
300084b6:	4611      	mov	r1, r2
300084b8:	f886 2045 	strb.w	r2, [r6, #69]	; 0x45
300084bc:	f000 ff68 	bl	30009390 <__gnat_last_chance_handler>
300084c0:	4842      	ldr	r0, [pc, #264]	; (300085cc <system__bb__cpu_primitives__gnat_error_handler+0x1a8>)
300084c2:	f890 1037 	ldrb.w	r1, [r0, #55]	; 0x37
300084c6:	2900      	cmp	r1, #0
300084c8:	d0f8      	beq.n	300084bc <system__bb__cpu_primitives__gnat_error_handler+0x98>
300084ca:	4604      	mov	r4, r0
300084cc:	cc0f      	ldmia	r4!, {r0, r1, r2, r3}
300084ce:	b092      	sub	sp, #72	; 0x48
300084d0:	466e      	mov	r6, sp
300084d2:	f106 0c08 	add.w	ip, r6, #8
300084d6:	2501      	movs	r5, #1
300084d8:	6035      	str	r5, [r6, #0]
300084da:	f04f 0e38 	mov.w	lr, #56	; 0x38
300084de:	4665      	mov	r5, ip
300084e0:	f8c6 e004 	str.w	lr, [r6, #4]
300084e4:	c50f      	stmia	r5!, {r0, r1, r2, r3}
300084e6:	cc0f      	ldmia	r4!, {r0, r1, r2, r3}
300084e8:	c50f      	stmia	r5!, {r0, r1, r2, r3}
300084ea:	cc0f      	ldmia	r4!, {r0, r1, r2, r3}
300084ec:	c50f      	stmia	r5!, {r0, r1, r2, r3}
300084ee:	e894 0003 	ldmia.w	r4, {r0, r1}
300084f2:	2300      	movs	r3, #0
300084f4:	e885 0003 	stmia.w	r5, {r0, r1}
300084f8:	4660      	mov	r0, ip
300084fa:	4619      	mov	r1, r3
300084fc:	f886 303f 	strb.w	r3, [r6, #63]	; 0x3f
30008500:	f000 ff46 	bl	30009390 <__gnat_last_chance_handler>
30008504:	4832      	ldr	r0, [pc, #200]	; (300085d0 <system__bb__cpu_primitives__gnat_error_handler+0x1ac>)
30008506:	f890 1043 	ldrb.w	r1, [r0, #67]	; 0x43
3000850a:	2900      	cmp	r1, #0
3000850c:	d0d6      	beq.n	300084bc <system__bb__cpu_primitives__gnat_error_handler+0x98>
3000850e:	b094      	sub	sp, #80	; 0x50
30008510:	466c      	mov	r4, sp
30008512:	2344      	movs	r3, #68	; 0x44
30008514:	f104 0508 	add.w	r5, r4, #8
30008518:	2601      	movs	r6, #1
3000851a:	4601      	mov	r1, r0
3000851c:	461a      	mov	r2, r3
3000851e:	e9c4 6300 	strd	r6, r3, [r4]
30008522:	4628      	mov	r0, r5
30008524:	f001 f9b2 	bl	3000988c <memcpy>
30008528:	2300      	movs	r3, #0
3000852a:	4628      	mov	r0, r5
3000852c:	4619      	mov	r1, r3
3000852e:	f884 304b 	strb.w	r3, [r4, #75]	; 0x4b
30008532:	f000 ff2d 	bl	30009390 <__gnat_last_chance_handler>
30008536:	4827      	ldr	r0, [pc, #156]	; (300085d4 <system__bb__cpu_primitives__gnat_error_handler+0x1b0>)
30008538:	f890 1036 	ldrb.w	r1, [r0, #54]	; 0x36
3000853c:	2900      	cmp	r1, #0
3000853e:	d0bd      	beq.n	300084bc <system__bb__cpu_primitives__gnat_error_handler+0x98>
30008540:	4604      	mov	r4, r0
30008542:	cc0f      	ldmia	r4!, {r0, r1, r2, r3}
30008544:	b092      	sub	sp, #72	; 0x48
30008546:	466e      	mov	r6, sp
30008548:	f106 0c08 	add.w	ip, r6, #8
3000854c:	2501      	movs	r5, #1
3000854e:	6035      	str	r5, [r6, #0]
30008550:	f04f 0e37 	mov.w	lr, #55	; 0x37
30008554:	4665      	mov	r5, ip
30008556:	f8c6 e004 	str.w	lr, [r6, #4]
3000855a:	c50f      	stmia	r5!, {r0, r1, r2, r3}
3000855c:	cc0f      	ldmia	r4!, {r0, r1, r2, r3}
3000855e:	c50f      	stmia	r5!, {r0, r1, r2, r3}
30008560:	cc0f      	ldmia	r4!, {r0, r1, r2, r3}
30008562:	c50f      	stmia	r5!, {r0, r1, r2, r3}
30008564:	e894 0003 	ldmia.w	r4, {r0, r1}
30008568:	f845 0b04 	str.w	r0, [r5], #4
3000856c:	f825 1b02 	strh.w	r1, [r5], #2
30008570:	2300      	movs	r3, #0
30008572:	0c0a      	lsrs	r2, r1, #16
30008574:	702a      	strb	r2, [r5, #0]
30008576:	4660      	mov	r0, ip
30008578:	4619      	mov	r1, r3
3000857a:	f886 303e 	strb.w	r3, [r6, #62]	; 0x3e
3000857e:	f000 ff07 	bl	30009390 <__gnat_last_chance_handler>
30008582:	4815      	ldr	r0, [pc, #84]	; (300085d8 <system__bb__cpu_primitives__gnat_error_handler+0x1b4>)
30008584:	f890 103b 	ldrb.w	r1, [r0, #59]	; 0x3b
30008588:	2900      	cmp	r1, #0
3000858a:	d097      	beq.n	300084bc <system__bb__cpu_primitives__gnat_error_handler+0x98>
3000858c:	4604      	mov	r4, r0
3000858e:	cc0f      	ldmia	r4!, {r0, r1, r2, r3}
30008590:	b092      	sub	sp, #72	; 0x48
30008592:	466e      	mov	r6, sp
30008594:	f106 0c08 	add.w	ip, r6, #8
30008598:	2501      	movs	r5, #1
3000859a:	6035      	str	r5, [r6, #0]
3000859c:	f04f 0e3c 	mov.w	lr, #60	; 0x3c
300085a0:	4665      	mov	r5, ip
300085a2:	f8c6 e004 	str.w	lr, [r6, #4]
300085a6:	c50f      	stmia	r5!, {r0, r1, r2, r3}
300085a8:	cc0f      	ldmia	r4!, {r0, r1, r2, r3}
300085aa:	c50f      	stmia	r5!, {r0, r1, r2, r3}
300085ac:	cc0f      	ldmia	r4!, {r0, r1, r2, r3}
300085ae:	c50f      	stmia	r5!, {r0, r1, r2, r3}
300085b0:	e894 0007 	ldmia.w	r4, {r0, r1, r2}
300085b4:	2300      	movs	r3, #0
300085b6:	e885 0007 	stmia.w	r5, {r0, r1, r2}
300085ba:	4660      	mov	r0, ip
300085bc:	4619      	mov	r1, r3
300085be:	f886 3043 	strb.w	r3, [r6, #67]	; 0x43
300085c2:	e77b      	b.n	300084bc <system__bb__cpu_primitives__gnat_error_handler+0x98>
300085c4:	3000bb44 	.word	0x3000bb44
300085c8:	3000ba50 	.word	0x3000ba50
300085cc:	3000bad4 	.word	0x3000bad4
300085d0:	3000ba90 	.word	0x3000ba90
300085d4:	3000bb0c 	.word	0x3000bb0c
300085d8:	3000bb80 	.word	0x3000bb80

300085dc <__gnat_irq_trap>:
300085dc:	b538      	push	{r3, r4, r5, lr}
300085de:	4673      	mov	r3, lr
300085e0:	4d13      	ldr	r5, [pc, #76]	; (30008630 <__gnat_irq_trap+0x54>)
300085e2:	4a14      	ldr	r2, [pc, #80]	; (30008634 <__gnat_irq_trap+0x58>)
300085e4:	4c14      	ldr	r4, [pc, #80]	; (30008638 <__gnat_irq_trap+0x5c>)
300085e6:	6c12      	ldr	r2, [r2, #64]	; 0x40
300085e8:	f083 0340 	eor.w	r3, r3, #64	; 0x40
300085ec:	f3c3 1380 	ubfx	r3, r3, #6, #1
300085f0:	702b      	strb	r3, [r5, #0]
300085f2:	2010      	movs	r0, #16
300085f4:	4790      	blx	r2
300085f6:	4b11      	ldr	r3, [pc, #68]	; (3000863c <__gnat_irq_trap+0x60>)
300085f8:	681a      	ldr	r2, [r3, #0]
300085fa:	6823      	ldr	r3, [r4, #0]
300085fc:	429a      	cmp	r2, r3
300085fe:	d001      	beq.n	30008604 <__gnat_irq_trap+0x28>
30008600:	782b      	ldrb	r3, [r5, #0]
30008602:	b193      	cbz	r3, 3000862a <__gnat_irq_trap+0x4e>
30008604:	6823      	ldr	r3, [r4, #0]
30008606:	6b5b      	ldr	r3, [r3, #52]	; 0x34
30008608:	f1a3 02f1 	sub.w	r2, r3, #241	; 0xf1
3000860c:	2a0e      	cmp	r2, #14
3000860e:	bf9d      	ittte	ls
30008610:	ebc3 1303 	rsbls	r3, r3, r3, lsl #4
30008614:	011b      	lslls	r3, r3, #4
30008616:	b2db      	uxtbls	r3, r3
30008618:	2300      	movhi	r3, #0
3000861a:	f383 8811 	msr	BASEPRI, r3
3000861e:	b662      	cpsie	i
30008620:	f3bf 8f4f 	dsb	sy
30008624:	f3bf 8f6f 	isb	sy
30008628:	bd38      	pop	{r3, r4, r5, pc}
3000862a:	f000 fa7b 	bl	30008b24 <system__bb__cpu_primitives__context_switch_trigger__trigger_context_switch>
3000862e:	e7e9      	b.n	30008604 <__gnat_irq_trap+0x28>
30008630:	3000bcba 	.word	0x3000bcba
30008634:	3000c5e0 	.word	0x3000c5e0
30008638:	3000bcc0 	.word	0x3000bcc0
3000863c:	3000bcc4 	.word	0x3000bcc4

30008640 <__gnat_sv_call_trap>:
30008640:	b508      	push	{r3, lr}
30008642:	200b      	movs	r0, #11
30008644:	f7ff feee 	bl	30008424 <system__bb__cpu_primitives__gnat_error_handler>

30008648 <__gnat_sys_tick_trap>:
30008648:	b538      	push	{r3, r4, r5, lr}
3000864a:	4673      	mov	r3, lr
3000864c:	4c19      	ldr	r4, [pc, #100]	; (300086b4 <__gnat_sys_tick_trap+0x6c>)
3000864e:	f083 0340 	eor.w	r3, r3, #64	; 0x40
30008652:	f3c3 1380 	ubfx	r3, r3, #6, #1
30008656:	7023      	strb	r3, [r4, #0]
30008658:	f7ff fe3c 	bl	300082d4 <system__bb__board_support__time__read_clock>
3000865c:	4a16      	ldr	r2, [pc, #88]	; (300086b8 <__gnat_sys_tick_trap+0x70>)
3000865e:	6813      	ldr	r3, [r2, #0]
30008660:	1a1b      	subs	r3, r3, r0
30008662:	2b00      	cmp	r3, #0
30008664:	da21      	bge.n	300086aa <__gnat_sys_tick_trap+0x62>
30008666:	f100 4000 	add.w	r0, r0, #2147483648	; 0x80000000
3000866a:	3801      	subs	r0, #1
3000866c:	4b13      	ldr	r3, [pc, #76]	; (300086bc <__gnat_sys_tick_trap+0x74>)
3000866e:	6010      	str	r0, [r2, #0]
30008670:	6bdb      	ldr	r3, [r3, #60]	; 0x3c
30008672:	4d13      	ldr	r5, [pc, #76]	; (300086c0 <__gnat_sys_tick_trap+0x78>)
30008674:	200f      	movs	r0, #15
30008676:	4798      	blx	r3
30008678:	4b12      	ldr	r3, [pc, #72]	; (300086c4 <__gnat_sys_tick_trap+0x7c>)
3000867a:	681a      	ldr	r2, [r3, #0]
3000867c:	682b      	ldr	r3, [r5, #0]
3000867e:	429a      	cmp	r2, r3
30008680:	d001      	beq.n	30008686 <__gnat_sys_tick_trap+0x3e>
30008682:	7823      	ldrb	r3, [r4, #0]
30008684:	b193      	cbz	r3, 300086ac <__gnat_sys_tick_trap+0x64>
30008686:	682b      	ldr	r3, [r5, #0]
30008688:	6b5b      	ldr	r3, [r3, #52]	; 0x34
3000868a:	f1a3 02f1 	sub.w	r2, r3, #241	; 0xf1
3000868e:	2a0e      	cmp	r2, #14
30008690:	bf9d      	ittte	ls
30008692:	ebc3 1303 	rsbls	r3, r3, r3, lsl #4
30008696:	011b      	lslls	r3, r3, #4
30008698:	b2db      	uxtbls	r3, r3
3000869a:	2300      	movhi	r3, #0
3000869c:	f383 8811 	msr	BASEPRI, r3
300086a0:	b662      	cpsie	i
300086a2:	f3bf 8f4f 	dsb	sy
300086a6:	f3bf 8f6f 	isb	sy
300086aa:	bd38      	pop	{r3, r4, r5, pc}
300086ac:	f000 fa3a 	bl	30008b24 <system__bb__cpu_primitives__context_switch_trigger__trigger_context_switch>
300086b0:	e7e9      	b.n	30008686 <__gnat_sys_tick_trap+0x3e>
300086b2:	bf00      	nop
300086b4:	3000bcba 	.word	0x3000bcba
300086b8:	3000c5d8 	.word	0x3000c5d8
300086bc:	3000c5e0 	.word	0x3000c5e0
300086c0:	3000bcc0 	.word	0x3000bcc0
300086c4:	3000bcc4 	.word	0x3000bcc4

300086c8 <system__bb__cpu_primitives__install_trap_handler>:
300086c8:	4b01      	ldr	r3, [pc, #4]	; (300086d0 <system__bb__cpu_primitives__install_trap_handler+0x8>)
300086ca:	f843 0021 	str.w	r0, [r3, r1, lsl #2]
300086ce:	4770      	bx	lr
300086d0:	3000c5e0 	.word	0x3000c5e0

300086d4 <system__bb__interrupts__interrupt_wrapper>:
300086d4:	e92d 4ff8 	stmdb	sp!, {r3, r4, r5, r6, r7, r8, r9, sl, fp, lr}
300086d8:	4b36      	ldr	r3, [pc, #216]	; (300087b4 <system__bb__interrupts__interrupt_wrapper+0xe0>)
300086da:	f8df 90e4 	ldr.w	r9, [pc, #228]	; 300087c0 <system__bb__interrupts__interrupt_wrapper+0xec>
300086de:	681e      	ldr	r6, [r3, #0]
300086e0:	f8d9 2000 	ldr.w	r2, [r9]
300086e4:	6b75      	ldr	r5, [r6, #52]	; 0x34
300086e6:	f8df 80dc 	ldr.w	r8, [pc, #220]	; 300087c4 <system__bb__interrupts__interrupt_wrapper+0xf0>
300086ea:	4683      	mov	fp, r0
300086ec:	3001      	adds	r0, #1
300086ee:	d006      	beq.n	300086fe <system__bb__interrupts__interrupt_wrapper+0x2a>
300086f0:	4b31      	ldr	r3, [pc, #196]	; (300087b8 <system__bb__interrupts__interrupt_wrapper+0xe4>)
300086f2:	f813 300b 	ldrb.w	r3, [r3, fp]
300086f6:	f003 04ff 	and.w	r4, r3, #255	; 0xff
300086fa:	2b00      	cmp	r3, #0
300086fc:	d143      	bne.n	30008786 <system__bb__interrupts__interrupt_wrapper+0xb2>
300086fe:	f8d8 a000 	ldr.w	sl, [r8]
30008702:	f896 7055 	ldrb.w	r7, [r6, #85]	; 0x55
30008706:	24ff      	movs	r4, #255	; 0xff
30008708:	b2ff      	uxtb	r7, r7
3000870a:	2a00      	cmp	r2, #0
3000870c:	d046      	beq.n	3000879c <system__bb__interrupts__interrupt_wrapper+0xc8>
3000870e:	4790      	blx	r2
30008710:	2301      	movs	r3, #1
30008712:	4621      	mov	r1, r4
30008714:	f8c8 b000 	str.w	fp, [r8]
30008718:	4630      	mov	r0, r6
3000871a:	f886 3055 	strb.w	r3, [r6, #85]	; 0x55
3000871e:	f000 f85b 	bl	300087d8 <system__bb__threads__queues__change_priority>
30008722:	f5b4 7f80 	cmp.w	r4, #256	; 0x100
30008726:	bf1d      	ittte	ne
30008728:	ebc4 1404 	rsbne	r4, r4, r4, lsl #4
3000872c:	0124      	lslne	r4, r4, #4
3000872e:	b2e4      	uxtbne	r4, r4
30008730:	2400      	moveq	r4, #0
30008732:	f384 8811 	msr	BASEPRI, r4
30008736:	b662      	cpsie	i
30008738:	f3bf 8f4f 	dsb	sy
3000873c:	f3bf 8f6f 	isb	sy
30008740:	4b1e      	ldr	r3, [pc, #120]	; (300087bc <system__bb__interrupts__interrupt_wrapper+0xe8>)
30008742:	f10b 0201 	add.w	r2, fp, #1
30008746:	4658      	mov	r0, fp
30008748:	f853 3022 	ldr.w	r3, [r3, r2, lsl #2]
3000874c:	4798      	blx	r3
3000874e:	b672      	cpsid	i
30008750:	f8d9 3000 	ldr.w	r3, [r9]
30008754:	b103      	cbz	r3, 30008758 <system__bb__interrupts__interrupt_wrapper+0x84>
30008756:	4798      	blx	r3
30008758:	4629      	mov	r1, r5
3000875a:	4630      	mov	r0, r6
3000875c:	f000 f83c 	bl	300087d8 <system__bb__threads__queues__change_priority>
30008760:	f1a5 03f1 	sub.w	r3, r5, #241	; 0xf1
30008764:	2b0e      	cmp	r3, #14
30008766:	bf9c      	itt	ls
30008768:	ebc5 1505 	rsbls	r5, r5, r5, lsl #4
3000876c:	012d      	lslls	r5, r5, #4
3000876e:	f8c8 a000 	str.w	sl, [r8]
30008772:	bf98      	it	ls
30008774:	b2ed      	uxtbls	r5, r5
30008776:	f886 7055 	strb.w	r7, [r6, #85]	; 0x55
3000877a:	bf88      	it	hi
3000877c:	2500      	movhi	r5, #0
3000877e:	f385 8811 	msr	BASEPRI, r5
30008782:	e8bd 8ff8 	ldmia.w	sp!, {r3, r4, r5, r6, r7, r8, r9, sl, fp, pc}
30008786:	f8d8 a000 	ldr.w	sl, [r8]
3000878a:	f896 7055 	ldrb.w	r7, [r6, #85]	; 0x55
3000878e:	0924      	lsrs	r4, r4, #4
30008790:	f5c4 7480 	rsb	r4, r4, #256	; 0x100
30008794:	b2ff      	uxtb	r7, r7
30008796:	2a00      	cmp	r2, #0
30008798:	d1b9      	bne.n	3000870e <system__bb__interrupts__interrupt_wrapper+0x3a>
3000879a:	e7b9      	b.n	30008710 <system__bb__interrupts__interrupt_wrapper+0x3c>
3000879c:	2301      	movs	r3, #1
3000879e:	f8c8 b000 	str.w	fp, [r8]
300087a2:	21ff      	movs	r1, #255	; 0xff
300087a4:	f886 3055 	strb.w	r3, [r6, #85]	; 0x55
300087a8:	4630      	mov	r0, r6
300087aa:	f000 f815 	bl	300087d8 <system__bb__threads__queues__change_priority>
300087ae:	2410      	movs	r4, #16
300087b0:	e7bf      	b.n	30008732 <system__bb__interrupts__interrupt_wrapper+0x5e>
300087b2:	bf00      	nop
300087b4:	3000bcc0 	.word	0x3000bcc0
300087b8:	e000e400 	.word	0xe000e400
300087bc:	3000c628 	.word	0x3000c628
300087c0:	3000bce0 	.word	0x3000bce0
300087c4:	3000bcbc 	.word	0x3000bcbc

300087c8 <system__bb__interrupts__initialize_interrupts>:
300087c8:	4b01      	ldr	r3, [pc, #4]	; (300087d0 <system__bb__interrupts__initialize_interrupts+0x8>)
300087ca:	4a02      	ldr	r2, [pc, #8]	; (300087d4 <system__bb__interrupts__initialize_interrupts+0xc>)
300087cc:	601a      	str	r2, [r3, #0]
300087ce:	4770      	bx	lr
300087d0:	3000c624 	.word	0x3000c624
300087d4:	3000d968 	.word	0x3000d968

300087d8 <system__bb__threads__queues__change_priority>:
300087d8:	6b43      	ldr	r3, [r0, #52]	; 0x34
300087da:	428b      	cmp	r3, r1
300087dc:	d019      	beq.n	30008812 <system__bb__threads__queues__change_priority+0x3a>
300087de:	b470      	push	{r4, r5, r6}
300087e0:	4e18      	ldr	r6, [pc, #96]	; (30008844 <system__bb__threads__queues__change_priority+0x6c>)
300087e2:	6341      	str	r1, [r0, #52]	; 0x34
300087e4:	6834      	ldr	r4, [r6, #0]
300087e6:	42a0      	cmp	r0, r4
300087e8:	d00c      	beq.n	30008804 <system__bb__threads__queues__change_priority+0x2c>
300087ea:	b14c      	cbz	r4, 30008800 <system__bb__threads__queues__change_priority+0x28>
300087ec:	6c23      	ldr	r3, [r4, #64]	; 0x40
300087ee:	4298      	cmp	r0, r3
300087f0:	d010      	beq.n	30008814 <system__bb__threads__queues__change_priority+0x3c>
300087f2:	b12b      	cbz	r3, 30008800 <system__bb__threads__queues__change_priority+0x28>
300087f4:	6c1a      	ldr	r2, [r3, #64]	; 0x40
300087f6:	4282      	cmp	r2, r0
300087f8:	d00d      	beq.n	30008816 <system__bb__threads__queues__change_priority+0x3e>
300087fa:	4613      	mov	r3, r2
300087fc:	2b00      	cmp	r3, #0
300087fe:	d1f9      	bne.n	300087f4 <system__bb__threads__queues__change_priority+0x1c>
30008800:	bc70      	pop	{r4, r5, r6}
30008802:	4770      	bx	lr
30008804:	6c04      	ldr	r4, [r0, #64]	; 0x40
30008806:	2c00      	cmp	r4, #0
30008808:	d0fa      	beq.n	30008800 <system__bb__threads__queues__change_priority+0x28>
3000880a:	6b63      	ldr	r3, [r4, #52]	; 0x34
3000880c:	428b      	cmp	r3, r1
3000880e:	dc04      	bgt.n	3000881a <system__bb__threads__queues__change_priority+0x42>
30008810:	e7f6      	b.n	30008800 <system__bb__threads__queues__change_priority+0x28>
30008812:	4770      	bx	lr
30008814:	4623      	mov	r3, r4
30008816:	6c02      	ldr	r2, [r0, #64]	; 0x40
30008818:	641a      	str	r2, [r3, #64]	; 0x40
3000881a:	6b63      	ldr	r3, [r4, #52]	; 0x34
3000881c:	428b      	cmp	r3, r1
3000881e:	dd0b      	ble.n	30008838 <system__bb__threads__queues__change_priority+0x60>
30008820:	4622      	mov	r2, r4
30008822:	e003      	b.n	3000882c <system__bb__threads__queues__change_priority+0x54>
30008824:	6b5d      	ldr	r5, [r3, #52]	; 0x34
30008826:	428d      	cmp	r5, r1
30008828:	dd03      	ble.n	30008832 <system__bb__threads__queues__change_priority+0x5a>
3000882a:	461a      	mov	r2, r3
3000882c:	6c13      	ldr	r3, [r2, #64]	; 0x40
3000882e:	2b00      	cmp	r3, #0
30008830:	d1f8      	bne.n	30008824 <system__bb__threads__queues__change_priority+0x4c>
30008832:	6403      	str	r3, [r0, #64]	; 0x40
30008834:	6410      	str	r0, [r2, #64]	; 0x40
30008836:	e001      	b.n	3000883c <system__bb__threads__queues__change_priority+0x64>
30008838:	6404      	str	r4, [r0, #64]	; 0x40
3000883a:	4604      	mov	r4, r0
3000883c:	6034      	str	r4, [r6, #0]
3000883e:	bc70      	pop	{r4, r5, r6}
30008840:	4770      	bx	lr
30008842:	bf00      	nop
30008844:	3000bcc4 	.word	0x3000bcc4

30008848 <system__bb__threads__queues__wakeup_expired_alarms>:
30008848:	e92d 4ff0 	stmdb	sp!, {r4, r5, r6, r7, r8, r9, sl, fp, lr}
3000884c:	4b39      	ldr	r3, [pc, #228]	; (30008934 <system__bb__threads__queues__wakeup_expired_alarms+0xec>)
3000884e:	4c3a      	ldr	r4, [pc, #232]	; (30008938 <system__bb__threads__queues__wakeup_expired_alarms+0xf0>)
30008850:	681b      	ldr	r3, [r3, #0]
30008852:	2200      	movs	r2, #0
30008854:	b083      	sub	sp, #12
30008856:	4606      	mov	r6, r0
30008858:	460f      	mov	r7, r1
3000885a:	4615      	mov	r5, r2
3000885c:	f04f 38ff 	mov.w	r8, #4294967295	; 0xffffffff
30008860:	f04f 39ff 	mov.w	r9, #4294967295	; 0xffffffff
30008864:	f06f 4c40 	mvn.w	ip, #3221225472	; 0xc0000000
30008868:	2b00      	cmp	r3, #0
3000886a:	d039      	beq.n	300088e0 <system__bb__threads__queues__wakeup_expired_alarms+0x98>
3000886c:	e9d3 0112 	ldrd	r0, r1, [r3, #72]	; 0x48
30008870:	428f      	cmp	r7, r1
30008872:	bf08      	it	eq
30008874:	4286      	cmpeq	r6, r0
30008876:	d33b      	bcc.n	300088f0 <system__bb__threads__queues__wakeup_expired_alarms+0xa8>
30008878:	f993 202c 	ldrsb.w	r2, [r3, #44]	; 0x2c
3000887c:	f8d3 a050 	ldr.w	sl, [r3, #80]	; 0x50
30008880:	f883 5054 	strb.w	r5, [r3, #84]	; 0x54
30008884:	2a00      	cmp	r2, #0
30008886:	bf08      	it	eq
30008888:	2201      	moveq	r2, #1
3000888a:	eb02 010c 	add.w	r1, r2, ip
3000888e:	e9c3 8912 	strd	r8, r9, [r3, #72]	; 0x48
30008892:	f854 0021 	ldr.w	r0, [r4, r1, lsl #2]
30008896:	651d      	str	r5, [r3, #80]	; 0x50
30008898:	4298      	cmp	r0, r3
3000889a:	f04f 0201 	mov.w	r2, #1
3000889e:	d031      	beq.n	30008904 <system__bb__threads__queues__wakeup_expired_alarms+0xbc>
300088a0:	f854 2021 	ldr.w	r2, [r4, r1, lsl #2]
300088a4:	b342      	cbz	r2, 300088f8 <system__bb__threads__queues__wakeup_expired_alarms+0xb0>
300088a6:	6b58      	ldr	r0, [r3, #52]	; 0x34
300088a8:	f854 2021 	ldr.w	r2, [r4, r1, lsl #2]
300088ac:	6b52      	ldr	r2, [r2, #52]	; 0x34
300088ae:	4290      	cmp	r0, r2
300088b0:	dc22      	bgt.n	300088f8 <system__bb__threads__queues__wakeup_expired_alarms+0xb0>
300088b2:	f854 1021 	ldr.w	r1, [r4, r1, lsl #2]
300088b6:	e9cd 6700 	strd	r6, r7, [sp]
300088ba:	e006      	b.n	300088ca <system__bb__threads__queues__wakeup_expired_alarms+0x82>
300088bc:	429a      	cmp	r2, r3
300088be:	d023      	beq.n	30008908 <system__bb__threads__queues__wakeup_expired_alarms+0xc0>
300088c0:	6b57      	ldr	r7, [r2, #52]	; 0x34
300088c2:	6b58      	ldr	r0, [r3, #52]	; 0x34
300088c4:	4287      	cmp	r7, r0
300088c6:	db03      	blt.n	300088d0 <system__bb__threads__queues__wakeup_expired_alarms+0x88>
300088c8:	4611      	mov	r1, r2
300088ca:	6c0a      	ldr	r2, [r1, #64]	; 0x40
300088cc:	2a00      	cmp	r2, #0
300088ce:	d1f5      	bne.n	300088bc <system__bb__threads__queues__wakeup_expired_alarms+0x74>
300088d0:	e9dd 6700 	ldrd	r6, r7, [sp]
300088d4:	641a      	str	r2, [r3, #64]	; 0x40
300088d6:	640b      	str	r3, [r1, #64]	; 0x40
300088d8:	4653      	mov	r3, sl
300088da:	2201      	movs	r2, #1
300088dc:	2b00      	cmp	r3, #0
300088de:	d1c5      	bne.n	3000886c <system__bb__threads__queues__wakeup_expired_alarms+0x24>
300088e0:	f04f 31ff 	mov.w	r1, #4294967295	; 0xffffffff
300088e4:	f04f 30ff 	mov.w	r0, #4294967295	; 0xffffffff
300088e8:	428f      	cmp	r7, r1
300088ea:	bf08      	it	eq
300088ec:	4286      	cmpeq	r6, r0
300088ee:	d2c3      	bcs.n	30008878 <system__bb__threads__queues__wakeup_expired_alarms+0x30>
300088f0:	b9ea      	cbnz	r2, 3000892e <system__bb__threads__queues__wakeup_expired_alarms+0xe6>
300088f2:	b003      	add	sp, #12
300088f4:	e8bd 8ff0 	ldmia.w	sp!, {r4, r5, r6, r7, r8, r9, sl, fp, pc}
300088f8:	f854 2021 	ldr.w	r2, [r4, r1, lsl #2]
300088fc:	641a      	str	r2, [r3, #64]	; 0x40
300088fe:	f844 3021 	str.w	r3, [r4, r1, lsl #2]
30008902:	e7e9      	b.n	300088d8 <system__bb__threads__queues__wakeup_expired_alarms+0x90>
30008904:	4653      	mov	r3, sl
30008906:	e7af      	b.n	30008868 <system__bb__threads__queues__wakeup_expired_alarms+0x20>
30008908:	6c18      	ldr	r0, [r3, #64]	; 0x40
3000890a:	6408      	str	r0, [r1, #64]	; 0x40
3000890c:	e9dd 6700 	ldrd	r6, r7, [sp]
30008910:	4696      	mov	lr, r2
30008912:	469b      	mov	fp, r3
30008914:	b140      	cbz	r0, 30008928 <system__bb__threads__queues__wakeup_expired_alarms+0xe0>
30008916:	6b43      	ldr	r3, [r0, #52]	; 0x34
30008918:	f8de 2034 	ldr.w	r2, [lr, #52]	; 0x34
3000891c:	4293      	cmp	r3, r2
3000891e:	db03      	blt.n	30008928 <system__bb__threads__queues__wakeup_expired_alarms+0xe0>
30008920:	4601      	mov	r1, r0
30008922:	6c00      	ldr	r0, [r0, #64]	; 0x40
30008924:	2800      	cmp	r0, #0
30008926:	d1f6      	bne.n	30008916 <system__bb__threads__queues__wakeup_expired_alarms+0xce>
30008928:	465b      	mov	r3, fp
3000892a:	4602      	mov	r2, r0
3000892c:	e7d2      	b.n	300088d4 <system__bb__threads__queues__wakeup_expired_alarms+0x8c>
3000892e:	4a01      	ldr	r2, [pc, #4]	; (30008934 <system__bb__threads__queues__wakeup_expired_alarms+0xec>)
30008930:	6013      	str	r3, [r2, #0]
30008932:	e7de      	b.n	300088f2 <system__bb__threads__queues__wakeup_expired_alarms+0xaa>
30008934:	3000bcc8 	.word	0x3000bcc8
30008938:	3000bcc4 	.word	0x3000bcc4

3000893c <system__bb__time__initialize_timers>:
3000893c:	e92d 43f8 	stmdb	sp!, {r3, r4, r5, r6, r7, r8, r9, lr}
30008940:	4a1e      	ldr	r2, [pc, #120]	; (300089bc <system__bb__time__initialize_timers+0x80>)
30008942:	4f1f      	ldr	r7, [pc, #124]	; (300089c0 <system__bb__time__initialize_timers+0x84>)
30008944:	481f      	ldr	r0, [pc, #124]	; (300089c4 <system__bb__time__initialize_timers+0x88>)
30008946:	4d20      	ldr	r5, [pc, #128]	; (300089c8 <system__bb__time__initialize_timers+0x8c>)
30008948:	2300      	movs	r3, #0
3000894a:	e9c7 2300 	strd	r2, r3, [r7]
3000894e:	f7ff fd15 	bl	3000837c <system__bb__board_support__time__install_alarm_handler>
30008952:	f7ff fcbf 	bl	300082d4 <system__bb__board_support__time__read_clock>
30008956:	2400      	movs	r4, #0
30008958:	6068      	str	r0, [r5, #4]
3000895a:	682e      	ldr	r6, [r5, #0]
3000895c:	f8d5 8004 	ldr.w	r8, [r5, #4]
30008960:	f7ff fcb8 	bl	300082d4 <system__bb__board_support__time__read_clock>
30008964:	682b      	ldr	r3, [r5, #0]
30008966:	429e      	cmp	r6, r3
30008968:	eba6 0209 	sub.w	r2, r6, r9
3000896c:	f104 0401 	add.w	r4, r4, #1
30008970:	d019      	beq.n	300089a6 <system__bb__time__initialize_timers+0x6a>
30008972:	2c01      	cmp	r4, #1
30008974:	d015      	beq.n	300089a2 <system__bb__time__initialize_timers+0x66>
30008976:	2a01      	cmp	r2, #1
30008978:	d803      	bhi.n	30008982 <system__bb__time__initialize_timers+0x46>
3000897a:	2c03      	cmp	r4, #3
3000897c:	d001      	beq.n	30008982 <system__bb__time__initialize_timers+0x46>
3000897e:	2402      	movs	r4, #2
30008980:	e7eb      	b.n	3000895a <system__bb__time__initialize_timers+0x1e>
30008982:	f04f 0800 	mov.w	r8, #0
30008986:	46b1      	mov	r9, r6
30008988:	e9d7 0100 	ldrd	r0, r1, [r7]
3000898c:	4c0f      	ldr	r4, [pc, #60]	; (300089cc <system__bb__time__initialize_timers+0x90>)
3000898e:	eb18 0200 	adds.w	r2, r8, r0
30008992:	eb49 0301 	adc.w	r3, r9, r1
30008996:	e9c4 2300 	strd	r2, r3, [r4]
3000899a:	e8bd 43f8 	ldmia.w	sp!, {r3, r4, r5, r6, r7, r8, r9, lr}
3000899e:	f7ff bcbb 	b.w	30008318 <system__bb__board_support__time__set_alarm>
300089a2:	46b1      	mov	r9, r6
300089a4:	e7d9      	b.n	3000895a <system__bb__time__initialize_timers+0x1e>
300089a6:	2200      	movs	r2, #0
300089a8:	4580      	cmp	r8, r0
300089aa:	bf94      	ite	ls
300089ac:	4633      	movls	r3, r6
300089ae:	1c73      	addhi	r3, r6, #1
300089b0:	eb12 0800 	adds.w	r8, r2, r0
300089b4:	f143 0900 	adc.w	r9, r3, #0
300089b8:	e7e6      	b.n	30008988 <system__bb__time__initialize_timers+0x4c>
300089ba:	bf00      	nop
300089bc:	dffffff9 	.word	0xdffffff9
300089c0:	3000bcd0 	.word	0x3000bcd0
300089c4:	30008a69 	.word	0x30008a69
300089c8:	3000bce4 	.word	0x3000bce4
300089cc:	3000bcd8 	.word	0x3000bcd8

300089d0 <system__bb__time__update_alarm>:
300089d0:	e92d 47f0 	stmdb	sp!, {r4, r5, r6, r7, r8, r9, sl, lr}
300089d4:	4e21      	ldr	r6, [pc, #132]	; (30008a5c <system__bb__time__update_alarm+0x8c>)
300089d6:	4680      	mov	r8, r0
300089d8:	4689      	mov	r9, r1
300089da:	2400      	movs	r4, #0
300089dc:	6835      	ldr	r5, [r6, #0]
300089de:	6877      	ldr	r7, [r6, #4]
300089e0:	f7ff fc78 	bl	300082d4 <system__bb__board_support__time__read_clock>
300089e4:	6833      	ldr	r3, [r6, #0]
300089e6:	429d      	cmp	r5, r3
300089e8:	eba5 020a 	sub.w	r2, r5, sl
300089ec:	f104 0401 	add.w	r4, r4, #1
300089f0:	d02b      	beq.n	30008a4a <system__bb__time__update_alarm+0x7a>
300089f2:	2c01      	cmp	r4, #1
300089f4:	d024      	beq.n	30008a40 <system__bb__time__update_alarm+0x70>
300089f6:	2a01      	cmp	r2, #1
300089f8:	d803      	bhi.n	30008a02 <system__bb__time__update_alarm+0x32>
300089fa:	2c03      	cmp	r4, #3
300089fc:	d001      	beq.n	30008a02 <system__bb__time__update_alarm+0x32>
300089fe:	2402      	movs	r4, #2
30008a00:	e7ec      	b.n	300089dc <system__bb__time__update_alarm+0xc>
30008a02:	2600      	movs	r6, #0
30008a04:	462f      	mov	r7, r5
30008a06:	454f      	cmp	r7, r9
30008a08:	bf08      	it	eq
30008a0a:	4546      	cmpeq	r6, r8
30008a0c:	d21a      	bcs.n	30008a44 <system__bb__time__update_alarm+0x74>
30008a0e:	ebb8 0206 	subs.w	r2, r8, r6
30008a12:	eb69 0307 	sbc.w	r3, r9, r7
30008a16:	4c12      	ldr	r4, [pc, #72]	; (30008a60 <system__bb__time__update_alarm+0x90>)
30008a18:	e9d4 0100 	ldrd	r0, r1, [r4]
30008a1c:	4589      	cmp	r9, r1
30008a1e:	bf08      	it	eq
30008a20:	4580      	cmpeq	r8, r0
30008a22:	d20b      	bcs.n	30008a3c <system__bb__time__update_alarm+0x6c>
30008a24:	490f      	ldr	r1, [pc, #60]	; (30008a64 <system__bb__time__update_alarm+0x94>)
30008a26:	e9d1 0100 	ldrd	r0, r1, [r1]
30008a2a:	428b      	cmp	r3, r1
30008a2c:	bf08      	it	eq
30008a2e:	4282      	cmpeq	r2, r0
30008a30:	bf38      	it	cc
30008a32:	4610      	movcc	r0, r2
30008a34:	f7ff fc70 	bl	30008318 <system__bb__board_support__time__set_alarm>
30008a38:	e9c4 8900 	strd	r8, r9, [r4]
30008a3c:	e8bd 87f0 	ldmia.w	sp!, {r4, r5, r6, r7, r8, r9, sl, pc}
30008a40:	46aa      	mov	sl, r5
30008a42:	e7cb      	b.n	300089dc <system__bb__time__update_alarm+0xc>
30008a44:	2201      	movs	r2, #1
30008a46:	2300      	movs	r3, #0
30008a48:	e7e5      	b.n	30008a16 <system__bb__time__update_alarm+0x46>
30008a4a:	2200      	movs	r2, #0
30008a4c:	4287      	cmp	r7, r0
30008a4e:	bf94      	ite	ls
30008a50:	462b      	movls	r3, r5
30008a52:	1c6b      	addhi	r3, r5, #1
30008a54:	1816      	adds	r6, r2, r0
30008a56:	f143 0700 	adc.w	r7, r3, #0
30008a5a:	e7d4      	b.n	30008a06 <system__bb__time__update_alarm+0x36>
30008a5c:	3000bce4 	.word	0x3000bce4
30008a60:	3000bcd8 	.word	0x3000bcd8
30008a64:	3000bcd0 	.word	0x3000bcd0

30008a68 <system__bb__time__alarm_handler>:
30008a68:	e92d 43f8 	stmdb	sp!, {r3, r4, r5, r6, r7, r8, r9, lr}
30008a6c:	4b26      	ldr	r3, [pc, #152]	; (30008b08 <system__bb__time__alarm_handler+0xa0>)
30008a6e:	f04f 7200 	mov.w	r2, #33554432	; 0x2000000
30008a72:	601a      	str	r2, [r3, #0]
30008a74:	b672      	cpsid	i
30008a76:	4b25      	ldr	r3, [pc, #148]	; (30008b0c <system__bb__time__alarm_handler+0xa4>)
30008a78:	4c25      	ldr	r4, [pc, #148]	; (30008b10 <system__bb__time__alarm_handler+0xa8>)
30008a7a:	f04f 30ff 	mov.w	r0, #4294967295	; 0xffffffff
30008a7e:	f04f 31ff 	mov.w	r1, #4294967295	; 0xffffffff
30008a82:	e9c3 0100 	strd	r0, r1, [r3]
30008a86:	6826      	ldr	r6, [r4, #0]
30008a88:	6865      	ldr	r5, [r4, #4]
30008a8a:	f7ff fc23 	bl	300082d4 <system__bb__board_support__time__read_clock>
30008a8e:	4285      	cmp	r5, r0
30008a90:	d833      	bhi.n	30008afa <system__bb__time__alarm_handler+0x92>
30008a92:	6060      	str	r0, [r4, #4]
30008a94:	4b1f      	ldr	r3, [pc, #124]	; (30008b14 <system__bb__time__alarm_handler+0xac>)
30008a96:	4635      	mov	r5, r6
30008a98:	2400      	movs	r4, #0
30008a9a:	e9d3 6700 	ldrd	r6, r7, [r3]
30008a9e:	eb14 0800 	adds.w	r8, r4, r0
30008aa2:	f145 0900 	adc.w	r9, r5, #0
30008aa6:	4640      	mov	r0, r8
30008aa8:	eb16 0408 	adds.w	r4, r6, r8
30008aac:	4649      	mov	r1, r9
30008aae:	eb47 0509 	adc.w	r5, r7, r9
30008ab2:	f000 fbd9 	bl	30009268 <system__bb__timing_events__execute_expired_timing_events>
30008ab6:	4640      	mov	r0, r8
30008ab8:	4649      	mov	r1, r9
30008aba:	f7ff fec5 	bl	30008848 <system__bb__threads__queues__wakeup_expired_alarms>
30008abe:	4b16      	ldr	r3, [pc, #88]	; (30008b18 <system__bb__time__alarm_handler+0xb0>)
30008ac0:	681b      	ldr	r3, [r3, #0]
30008ac2:	b13b      	cbz	r3, 30008ad4 <system__bb__time__alarm_handler+0x6c>
30008ac4:	e9d3 2312 	ldrd	r2, r3, [r3, #72]	; 0x48
30008ac8:	42ab      	cmp	r3, r5
30008aca:	bf08      	it	eq
30008acc:	42a2      	cmpeq	r2, r4
30008ace:	bf3c      	itt	cc
30008ad0:	4614      	movcc	r4, r2
30008ad2:	461d      	movcc	r5, r3
30008ad4:	4b11      	ldr	r3, [pc, #68]	; (30008b1c <system__bb__time__alarm_handler+0xb4>)
30008ad6:	681b      	ldr	r3, [r3, #0]
30008ad8:	b13b      	cbz	r3, 30008aea <system__bb__time__alarm_handler+0x82>
30008ada:	e9d3 2302 	ldrd	r2, r3, [r3, #8]
30008ade:	42ab      	cmp	r3, r5
30008ae0:	bf08      	it	eq
30008ae2:	42a2      	cmpeq	r2, r4
30008ae4:	bf3c      	itt	cc
30008ae6:	4614      	movcc	r4, r2
30008ae8:	461d      	movcc	r5, r3
30008aea:	4620      	mov	r0, r4
30008aec:	4629      	mov	r1, r5
30008aee:	f7ff ff6f 	bl	300089d0 <system__bb__time__update_alarm>
30008af2:	e8bd 43f8 	ldmia.w	sp!, {r3, r4, r5, r6, r7, r8, r9, lr}
30008af6:	f000 b9f7 	b.w	30008ee8 <system__bb__protection__leave_kernel>
30008afa:	3601      	adds	r6, #1
30008afc:	2300      	movs	r3, #0
30008afe:	6023      	str	r3, [r4, #0]
30008b00:	6060      	str	r0, [r4, #4]
30008b02:	6026      	str	r6, [r4, #0]
30008b04:	e7c6      	b.n	30008a94 <system__bb__time__alarm_handler+0x2c>
30008b06:	bf00      	nop
30008b08:	e000ed04 	.word	0xe000ed04
30008b0c:	3000bcd8 	.word	0x3000bcd8
30008b10:	3000bce4 	.word	0x3000bce4
30008b14:	3000bcd0 	.word	0x3000bcd0
30008b18:	3000bcc8 	.word	0x3000bcc8
30008b1c:	3000bd1c 	.word	0x3000bd1c

30008b20 <system__bb__cpu_primitives__context_switch_trigger__initialize_context_switch>:
30008b20:	4770      	bx	lr
30008b22:	bf00      	nop

30008b24 <system__bb__cpu_primitives__context_switch_trigger__trigger_context_switch>:
30008b24:	4b02      	ldr	r3, [pc, #8]	; (30008b30 <system__bb__cpu_primitives__context_switch_trigger__trigger_context_switch+0xc>)
30008b26:	f04f 5280 	mov.w	r2, #268435456	; 0x10000000
30008b2a:	601a      	str	r2, [r3, #0]
30008b2c:	4770      	bx	lr
30008b2e:	bf00      	nop
30008b30:	e000ed04 	.word	0xe000ed04

30008b34 <__gnat_pend_sv_trap>:
30008b34:	4a0f      	ldr	r2, [pc, #60]	; (30008b74 <__gnat_pend_sv_trap+0x40>)
30008b36:	f3ef 8c09 	mrs	ip, PSP
30008b3a:	6813      	ldr	r3, [r2, #0]
30008b3c:	f01e 0f10 	tst.w	lr, #16
30008b40:	bf06      	itte	eq
30008b42:	ed2c 8a10 	vstmdbeq	ip!, {s16-s31}
30008b46:	f10c 0c01 	addeq.w	ip, ip, #1
30008b4a:	f1ae 0e10 	subne.w	lr, lr, #16
30008b4e:	e883 1ff0 	stmia.w	r3, {r4, r5, r6, r7, r8, r9, sl, fp, ip}
30008b52:	4b09      	ldr	r3, [pc, #36]	; (30008b78 <__gnat_pend_sv_trap+0x44>)
30008b54:	681b      	ldr	r3, [r3, #0]
30008b56:	6013      	str	r3, [r2, #0]
30008b58:	e893 1ff0 	ldmia.w	r3, {r4, r5, r6, r7, r8, r9, sl, fp, ip}
30008b5c:	f01c 0f01 	tst.w	ip, #1
30008b60:	bf1a      	itte	ne
30008b62:	f1ac 0c01 	subne.w	ip, ip, #1
30008b66:	ecbc 8a10 	vldmiane	ip!, {s16-s31}
30008b6a:	f10e 0e10 	addeq.w	lr, lr, #16
30008b6e:	f38c 8809 	msr	PSP, ip
30008b72:	4770      	bx	lr
30008b74:	3000bcc0 	.word	0x3000bcc0
30008b78:	3000bcc4 	.word	0x3000bcc4

30008b7c <system__tasking__protected_objects___elabb>:
30008b7c:	f000 b8be 	b.w	30008cfc <system__tasking__initialize>

30008b80 <system__tasking__restricted__stages__task_wrapper>:
30008b80:	b570      	push	{r4, r5, r6, lr}
30008b82:	4b22      	ldr	r3, [pc, #136]	; (30008c0c <system__tasking__restricted__stages__task_wrapper+0x8c>)
30008b84:	681a      	ldr	r2, [r3, #0]
30008b86:	2100      	movs	r1, #0
30008b88:	b082      	sub	sp, #8
30008b8a:	4604      	mov	r4, r0
30008b8c:	f8c0 1084 	str.w	r1, [r0, #132]	; 0x84
30008b90:	2a00      	cmp	r2, #0
30008b92:	d038      	beq.n	30008c06 <system__tasking__restricted__stages__task_wrapper+0x86>
30008b94:	f8c2 009c 	str.w	r0, [r2, #156]	; 0x9c
30008b98:	601c      	str	r4, [r3, #0]
30008b9a:	b672      	cpsid	i
30008b9c:	4d1c      	ldr	r5, [pc, #112]	; (30008c10 <system__tasking__restricted__stages__task_wrapper+0x90>)
30008b9e:	68e1      	ldr	r1, [r4, #12]
30008ba0:	6828      	ldr	r0, [r5, #0]
30008ba2:	f7ff fe19 	bl	300087d8 <system__bb__threads__queues__change_priority>
30008ba6:	f000 f99f 	bl	30008ee8 <system__bb__protection__leave_kernel>
30008baa:	e9d4 0322 	ldrd	r0, r3, [r4, #136]	; 0x88
30008bae:	4798      	blx	r3
30008bb0:	b672      	cpsid	i
30008bb2:	21ff      	movs	r1, #255	; 0xff
30008bb4:	6828      	ldr	r0, [r5, #0]
30008bb6:	f7ff fe0f 	bl	300087d8 <system__bb__threads__queues__change_priority>
30008bba:	f000 f995 	bl	30008ee8 <system__bb__protection__leave_kernel>
30008bbe:	4b15      	ldr	r3, [pc, #84]	; (30008c14 <system__tasking__restricted__stages__task_wrapper+0x94>)
30008bc0:	e893 0003 	ldmia.w	r3, {r0, r1}
30008bc4:	466e      	mov	r6, sp
30008bc6:	e886 0003 	stmia.w	r6, {r0, r1}
30008bca:	b672      	cpsid	i
30008bcc:	68e1      	ldr	r1, [r4, #12]
30008bce:	6828      	ldr	r0, [r5, #0]
30008bd0:	f7ff fe02 	bl	300087d8 <system__bb__threads__queues__change_priority>
30008bd4:	f000 f988 	bl	30008ee8 <system__bb__protection__leave_kernel>
30008bd8:	4b0f      	ldr	r3, [pc, #60]	; (30008c18 <system__tasking__restricted__stages__task_wrapper+0x98>)
30008bda:	9900      	ldr	r1, [sp, #0]
30008bdc:	681a      	ldr	r2, [r3, #0]
30008bde:	4291      	cmp	r1, r2
30008be0:	d008      	beq.n	30008bf4 <system__tasking__restricted__stages__task_wrapper+0x74>
30008be2:	4621      	mov	r1, r4
30008be4:	e9dd 0300 	ldrd	r0, r3, [sp]
30008be8:	4798      	blx	r3
30008bea:	b002      	add	sp, #8
30008bec:	e8bd 4070 	ldmia.w	sp!, {r4, r5, r6, lr}
30008bf0:	f000 ba4c 	b.w	3000908c <system__bb__threads__sleep>
30008bf4:	6872      	ldr	r2, [r6, #4]
30008bf6:	685b      	ldr	r3, [r3, #4]
30008bf8:	429a      	cmp	r2, r3
30008bfa:	d1f2      	bne.n	30008be2 <system__tasking__restricted__stages__task_wrapper+0x62>
30008bfc:	b002      	add	sp, #8
30008bfe:	e8bd 4070 	ldmia.w	sp!, {r4, r5, r6, lr}
30008c02:	f000 ba43 	b.w	3000908c <system__bb__threads__sleep>
30008c06:	4a05      	ldr	r2, [pc, #20]	; (30008c1c <system__tasking__restricted__stages__task_wrapper+0x9c>)
30008c08:	6010      	str	r0, [r2, #0]
30008c0a:	e7c5      	b.n	30008b98 <system__tasking__restricted__stages__task_wrapper+0x18>
30008c0c:	3000bcfc 	.word	0x3000bcfc
30008c10:	3000bcc0 	.word	0x3000bcc0
30008c14:	3000bd08 	.word	0x3000bd08
30008c18:	3000bbbc 	.word	0x3000bbbc
30008c1c:	3000bcf8 	.word	0x3000bcf8

30008c20 <system__tasking__restricted__stages__activate_tasks>:
30008c20:	e92d 47f0 	stmdb	sp!, {r4, r5, r6, r7, r8, r9, sl, lr}
30008c24:	f8df 9084 	ldr.w	r9, [pc, #132]	; 30008cac <system__tasking__restricted__stages__activate_tasks+0x8c>
30008c28:	f8d9 3000 	ldr.w	r3, [r9]
30008c2c:	b084      	sub	sp, #16
30008c2e:	4604      	mov	r4, r0
30008c30:	f8d3 a028 	ldr.w	sl, [r3, #40]	; 0x28
30008c34:	b672      	cpsid	i
30008c36:	21ff      	movs	r1, #255	; 0xff
30008c38:	f8d9 0000 	ldr.w	r0, [r9]
30008c3c:	f7ff fdcc 	bl	300087d8 <system__bb__threads__queues__change_priority>
30008c40:	f000 f952 	bl	30008ee8 <system__bb__protection__leave_kernel>
30008c44:	b314      	cbz	r4, 30008c8c <system__tasking__restricted__stages__activate_tasks+0x6c>
30008c46:	f8df 8068 	ldr.w	r8, [pc, #104]	; 30008cb0 <system__tasking__restricted__stages__activate_tasks+0x90>
30008c4a:	2700      	movs	r7, #0
30008c4c:	2601      	movs	r6, #1
30008c4e:	f104 0118 	add.w	r1, r4, #24
30008c52:	f8d4 509c 	ldr.w	r5, [r4, #156]	; 0x9c
30008c56:	68e3      	ldr	r3, [r4, #12]
30008c58:	f994 2009 	ldrsb.w	r2, [r4, #9]
30008c5c:	f8c4 709c 	str.w	r7, [r4, #156]	; 0x9c
30008c60:	f8c4 1080 	str.w	r1, [r4, #128]	; 0x80
30008c64:	f8d4 0080 	ldr.w	r0, [r4, #128]	; 0x80
30008c68:	f8d4 1094 	ldr.w	r1, [r4, #148]	; 0x94
30008c6c:	9102      	str	r1, [sp, #8]
30008c6e:	f8d4 1090 	ldr.w	r1, [r4, #144]	; 0x90
30008c72:	e9cd 2100 	strd	r2, r1, [sp]
30008c76:	4622      	mov	r2, r4
30008c78:	4641      	mov	r1, r8
30008c7a:	f000 fa2b 	bl	300090d4 <system__bb__threads__thread_create>
30008c7e:	f8d4 3080 	ldr.w	r3, [r4, #128]	; 0x80
30008c82:	629c      	str	r4, [r3, #40]	; 0x28
30008c84:	7226      	strb	r6, [r4, #8]
30008c86:	462c      	mov	r4, r5
30008c88:	2d00      	cmp	r5, #0
30008c8a:	d1e0      	bne.n	30008c4e <system__tasking__restricted__stages__activate_tasks+0x2e>
30008c8c:	2301      	movs	r3, #1
30008c8e:	f88a 3008 	strb.w	r3, [sl, #8]
30008c92:	b672      	cpsid	i
30008c94:	f8d9 0000 	ldr.w	r0, [r9]
30008c98:	f8da 100c 	ldr.w	r1, [sl, #12]
30008c9c:	f7ff fd9c 	bl	300087d8 <system__bb__threads__queues__change_priority>
30008ca0:	b004      	add	sp, #16
30008ca2:	e8bd 47f0 	ldmia.w	sp!, {r4, r5, r6, r7, r8, r9, sl, lr}
30008ca6:	f000 b91f 	b.w	30008ee8 <system__bb__protection__leave_kernel>
30008caa:	bf00      	nop
30008cac:	3000bcc0 	.word	0x3000bcc0
30008cb0:	30008b81 	.word	0x30008b81

30008cb4 <__gnat_activate_all_tasks>:
30008cb4:	b510      	push	{r4, lr}
30008cb6:	4c03      	ldr	r4, [pc, #12]	; (30008cc4 <__gnat_activate_all_tasks+0x10>)
30008cb8:	6820      	ldr	r0, [r4, #0]
30008cba:	f7ff ffb1 	bl	30008c20 <system__tasking__restricted__stages__activate_tasks>
30008cbe:	2300      	movs	r3, #0
30008cc0:	6023      	str	r3, [r4, #0]
30008cc2:	bd10      	pop	{r4, pc}
30008cc4:	3000bcf4 	.word	0x3000bcf4

30008cc8 <system__tasking__restricted__stages___elabb>:
30008cc8:	f000 b818 	b.w	30008cfc <system__tasking__initialize>

30008ccc <system__tasking__initialize_atcb>:
30008ccc:	b5f8      	push	{r3, r4, r5, r6, r7, lr}
30008cce:	9c09      	ldr	r4, [sp, #36]	; 0x24
30008cd0:	f89d 7018 	ldrb.w	r7, [sp, #24]
30008cd4:	9e07      	ldr	r6, [sp, #28]
30008cd6:	2500      	movs	r5, #0
30008cd8:	7225      	strb	r5, [r4, #8]
30008cda:	60e2      	str	r2, [r4, #12]
30008cdc:	7263      	strb	r3, [r4, #9]
30008cde:	6125      	str	r5, [r4, #16]
30008ce0:	e9c4 1022 	strd	r1, r0, [r4, #136]	; 0x88
30008ce4:	f884 70a0 	strb.w	r7, [r4, #160]	; 0xa0
30008ce8:	f8c4 6090 	str.w	r6, [r4, #144]	; 0x90
30008cec:	9808      	ldr	r0, [sp, #32]
30008cee:	f000 fe19 	bl	30009924 <system__parameters__adjust_storage_size>
30008cf2:	f8c4 0094 	str.w	r0, [r4, #148]	; 0x94
30008cf6:	2001      	movs	r0, #1
30008cf8:	bdf8      	pop	{r3, r4, r5, r6, r7, pc}
30008cfa:	bf00      	nop

30008cfc <system__tasking__initialize>:
30008cfc:	4b4e      	ldr	r3, [pc, #312]	; (30008e38 <system__tasking__initialize+0x13c>)
30008cfe:	781a      	ldrb	r2, [r3, #0]
30008d00:	2a00      	cmp	r2, #0
30008d02:	d17a      	bne.n	30008dfa <system__tasking__initialize+0xfe>
30008d04:	e92d 43f0 	stmdb	sp!, {r4, r5, r6, r7, r8, r9, lr}
30008d08:	4a4c      	ldr	r2, [pc, #304]	; (30008e3c <system__tasking__initialize+0x140>)
30008d0a:	4c4d      	ldr	r4, [pc, #308]	; (30008e40 <system__tasking__initialize+0x144>)
30008d0c:	b085      	sub	sp, #20
30008d0e:	6811      	ldr	r1, [r2, #0]
30008d10:	2001      	movs	r0, #1
30008d12:	7018      	strb	r0, [r3, #0]
30008d14:	3101      	adds	r1, #1
30008d16:	f04f 0500 	mov.w	r5, #0
30008d1a:	f04f 0302 	mov.w	r3, #2
30008d1e:	bf18      	it	ne
30008d20:	6812      	ldrne	r2, [r2, #0]
30008d22:	9300      	str	r3, [sp, #0]
30008d24:	bf08      	it	eq
30008d26:	2278      	moveq	r2, #120	; 0x78
30008d28:	af04      	add	r7, sp, #16
30008d2a:	4629      	mov	r1, r5
30008d2c:	2301      	movs	r3, #1
30008d2e:	9403      	str	r4, [sp, #12]
30008d30:	e9cd 5501 	strd	r5, r5, [sp, #4]
30008d34:	4628      	mov	r0, r5
30008d36:	f7ff ffc9 	bl	30008ccc <system__tasking__initialize_atcb>
30008d3a:	f104 0318 	add.w	r3, r4, #24
30008d3e:	f8c4 3080 	str.w	r3, [r4, #128]	; 0x80
30008d42:	68e1      	ldr	r1, [r4, #12]
30008d44:	f8d4 0080 	ldr.w	r0, [r4, #128]	; 0x80
30008d48:	f8c4 509c 	str.w	r5, [r4, #156]	; 0x9c
30008d4c:	f000 f8f8 	bl	30008f40 <system__bb__threads__initialize>
30008d50:	4b3c      	ldr	r3, [pc, #240]	; (30008e44 <system__tasking__initialize+0x148>)
30008d52:	f8d4 1080 	ldr.w	r1, [r4, #128]	; 0x80
30008d56:	681a      	ldr	r2, [r3, #0]
30008d58:	628c      	str	r4, [r1, #40]	; 0x28
30008d5a:	f8c4 5084 	str.w	r5, [r4, #132]	; 0x84
30008d5e:	2a00      	cmp	r2, #0
30008d60:	d04c      	beq.n	30008dfc <system__tasking__initialize+0x100>
30008d62:	f8c2 409c 	str.w	r4, [r2, #156]	; 0x9c
30008d66:	601c      	str	r4, [r3, #0]
30008d68:	b672      	cpsid	i
30008d6a:	4b37      	ldr	r3, [pc, #220]	; (30008e48 <system__tasking__initialize+0x14c>)
30008d6c:	68e1      	ldr	r1, [r4, #12]
30008d6e:	6818      	ldr	r0, [r3, #0]
30008d70:	4e36      	ldr	r6, [pc, #216]	; (30008e4c <system__tasking__initialize+0x150>)
30008d72:	f7ff fd31 	bl	300087d8 <system__bb__threads__queues__change_priority>
30008d76:	f000 f8b7 	bl	30008ee8 <system__bb__protection__leave_kernel>
30008d7a:	4935      	ldr	r1, [pc, #212]	; (30008e50 <system__tasking__initialize+0x154>)
30008d7c:	4b35      	ldr	r3, [pc, #212]	; (30008e54 <system__tasking__initialize+0x158>)
30008d7e:	4a36      	ldr	r2, [pc, #216]	; (30008e58 <system__tasking__initialize+0x15c>)
30008d80:	601a      	str	r2, [r3, #0]
30008d82:	2001      	movs	r0, #1
30008d84:	4635      	mov	r5, r6
30008d86:	600c      	str	r4, [r1, #0]
30008d88:	f000 fad2 	bl	30009330 <system__task_primitives__operations__initialize_idle>
30008d8c:	f1a6 0368 	sub.w	r3, r6, #104	; 0x68
30008d90:	6033      	str	r3, [r6, #0]
30008d92:	f855 0980 	ldr.w	r0, [r5], #-128
30008d96:	4931      	ldr	r1, [pc, #196]	; (30008e5c <system__tasking__initialize+0x160>)
30008d98:	e9d5 3224 	ldrd	r3, r2, [r5, #144]	; 0x90
30008d9c:	f04f 0801 	mov.w	r8, #1
30008da0:	9202      	str	r2, [sp, #8]
30008da2:	9301      	str	r3, [sp, #4]
30008da4:	462a      	mov	r2, r5
30008da6:	f04f 33ff 	mov.w	r3, #4294967295	; 0xffffffff
30008daa:	f8cd 8000 	str.w	r8, [sp]
30008dae:	f000 f991 	bl	300090d4 <system__bb__threads__thread_create>
30008db2:	6833      	ldr	r3, [r6, #0]
30008db4:	2600      	movs	r6, #0
30008db6:	629d      	str	r5, [r3, #40]	; 0x28
30008db8:	f04f 4100 	mov.w	r1, #2147483648	; 0x80000000
30008dbc:	f884 8008 	strb.w	r8, [r4, #8]
30008dc0:	4630      	mov	r0, r6
30008dc2:	f8c4 40a8 	str.w	r4, [r4, #168]	; 0xa8
30008dc6:	f8c4 6098 	str.w	r6, [r4, #152]	; 0x98
30008dca:	f000 fdb3 	bl	30009934 <system__secondary_stack__ss_init>
30008dce:	4a24      	ldr	r2, [pc, #144]	; (30008e60 <system__tasking__initialize+0x164>)
30008dd0:	4b24      	ldr	r3, [pc, #144]	; (30008e64 <system__tasking__initialize+0x168>)
30008dd2:	6811      	ldr	r1, [r2, #0]
30008dd4:	f8c4 0098 	str.w	r0, [r4, #152]	; 0x98
30008dd8:	3101      	adds	r1, #1
30008dda:	e9c3 6600 	strd	r6, r6, [r3]
30008dde:	d008      	beq.n	30008df2 <system__tasking__initialize+0xf6>
30008de0:	6813      	ldr	r3, [r2, #0]
30008de2:	4543      	cmp	r3, r8
30008de4:	d005      	beq.n	30008df2 <system__tasking__initialize+0xf6>
30008de6:	4820      	ldr	r0, [pc, #128]	; (30008e68 <system__tasking__initialize+0x16c>)
30008de8:	f890 1039 	ldrb.w	r1, [r0, #57]	; 0x39
30008dec:	b949      	cbnz	r1, 30008e02 <system__tasking__initialize+0x106>
30008dee:	f000 facf 	bl	30009390 <__gnat_last_chance_handler>
30008df2:	3704      	adds	r7, #4
30008df4:	46bd      	mov	sp, r7
30008df6:	e8bd 83f0 	ldmia.w	sp!, {r4, r5, r6, r7, r8, r9, pc}
30008dfa:	4770      	bx	lr
30008dfc:	4a1b      	ldr	r2, [pc, #108]	; (30008e6c <system__tasking__initialize+0x170>)
30008dfe:	6014      	str	r4, [r2, #0]
30008e00:	e7b1      	b.n	30008d66 <system__tasking__initialize+0x6a>
30008e02:	4604      	mov	r4, r0
30008e04:	cc0f      	ldmia	r4!, {r0, r1, r2, r3}
30008e06:	b092      	sub	sp, #72	; 0x48
30008e08:	f10d 0e18 	add.w	lr, sp, #24
30008e0c:	f04f 093a 	mov.w	r9, #58	; 0x3a
30008e10:	4675      	mov	r5, lr
30008e12:	f8cd 8010 	str.w	r8, [sp, #16]
30008e16:	f8cd 9014 	str.w	r9, [sp, #20]
30008e1a:	c50f      	stmia	r5!, {r0, r1, r2, r3}
30008e1c:	cc0f      	ldmia	r4!, {r0, r1, r2, r3}
30008e1e:	c50f      	stmia	r5!, {r0, r1, r2, r3}
30008e20:	cc0f      	ldmia	r4!, {r0, r1, r2, r3}
30008e22:	c50f      	stmia	r5!, {r0, r1, r2, r3}
30008e24:	e894 0007 	ldmia.w	r4, {r0, r1, r2}
30008e28:	c503      	stmia	r5!, {r0, r1}
30008e2a:	4670      	mov	r0, lr
30008e2c:	4631      	mov	r1, r6
30008e2e:	802a      	strh	r2, [r5, #0]
30008e30:	f88d 6051 	strb.w	r6, [sp, #81]	; 0x51
30008e34:	f000 faac 	bl	30009390 <__gnat_last_chance_handler>
30008e38:	3000bd10 	.word	0x3000bd10
30008e3c:	3000bd04 	.word	0x3000bd04
30008e40:	3000c7e0 	.word	0x3000c7e0
30008e44:	3000bcfc 	.word	0x3000bcfc
30008e48:	3000bcc0 	.word	0x3000bcc0
30008e4c:	3000d128 	.word	0x3000d128
30008e50:	3000bd20 	.word	0x3000bd20
30008e54:	3000c8a0 	.word	0x3000c8a0
30008e58:	3000d0a8 	.word	0x3000d0a8
30008e5c:	3000931d 	.word	0x3000931d
30008e60:	3000bd00 	.word	0x3000bd00
30008e64:	3000bd08 	.word	0x3000bd08
30008e68:	3000bbd4 	.word	0x3000bbd4
30008e6c:	3000bcf8 	.word	0x3000bcf8

30008e70 <system__tasking__protected_objects__multiprocessors__wakeup_served_entry>:
30008e70:	4b14      	ldr	r3, [pc, #80]	; (30008ec4 <system__tasking__protected_objects__multiprocessors__wakeup_served_entry+0x54>)
30008e72:	2201      	movs	r2, #1
30008e74:	b510      	push	{r4, lr}
30008e76:	4611      	mov	r1, r2
30008e78:	711a      	strb	r2, [r3, #4]
30008e7a:	1d58      	adds	r0, r3, #5
30008e7c:	e8d0 2f4f 	ldrexb	r2, [r0]
30008e80:	e8c0 1f44 	strexb	r4, r1, [r0]
30008e84:	2c00      	cmp	r4, #0
30008e86:	d1f9      	bne.n	30008e7c <system__tasking__protected_objects__multiprocessors__wakeup_served_entry+0xc>
30008e88:	f3bf 8f5b 	dmb	ish
30008e8c:	b2d2      	uxtb	r2, r2
30008e8e:	b91a      	cbnz	r2, 30008e98 <system__tasking__protected_objects__multiprocessors__wakeup_served_entry+0x28>
30008e90:	e015      	b.n	30008ebe <system__tasking__protected_objects__multiprocessors__wakeup_served_entry+0x4e>
30008e92:	795a      	ldrb	r2, [r3, #5]
30008e94:	2a00      	cmp	r2, #0
30008e96:	d0f1      	beq.n	30008e7c <system__tasking__protected_objects__multiprocessors__wakeup_served_entry+0xc>
30008e98:	791a      	ldrb	r2, [r3, #4]
30008e9a:	2a00      	cmp	r2, #0
30008e9c:	d1f9      	bne.n	30008e92 <system__tasking__protected_objects__multiprocessors__wakeup_served_entry+0x22>
30008e9e:	681c      	ldr	r4, [r3, #0]
30008ea0:	2200      	movs	r2, #0
30008ea2:	601a      	str	r2, [r3, #0]
30008ea4:	f3bf 8f5b 	dmb	ish
30008ea8:	715a      	strb	r2, [r3, #5]
30008eaa:	b13c      	cbz	r4, 30008ebc <system__tasking__protected_objects__multiprocessors__wakeup_served_entry+0x4c>
30008eac:	6823      	ldr	r3, [r4, #0]
30008eae:	f8d3 0080 	ldr.w	r0, [r3, #128]	; 0x80
30008eb2:	f000 f98f 	bl	300091d4 <system__bb__threads__wakeup>
30008eb6:	68a4      	ldr	r4, [r4, #8]
30008eb8:	2c00      	cmp	r4, #0
30008eba:	d1f7      	bne.n	30008eac <system__tasking__protected_objects__multiprocessors__wakeup_served_entry+0x3c>
30008ebc:	bd10      	pop	{r4, pc}
30008ebe:	711a      	strb	r2, [r3, #4]
30008ec0:	e7ed      	b.n	30008e9e <system__tasking__protected_objects__multiprocessors__wakeup_served_entry+0x2e>
30008ec2:	bf00      	nop
30008ec4:	3000c898 	.word	0x3000c898

30008ec8 <system__tasking__protected_objects__multiprocessors___elabb>:
30008ec8:	4a04      	ldr	r2, [pc, #16]	; (30008edc <system__tasking__protected_objects__multiprocessors___elabb+0x14>)
30008eca:	4b05      	ldr	r3, [pc, #20]	; (30008ee0 <system__tasking__protected_objects__multiprocessors___elabb+0x18>)
30008ecc:	4905      	ldr	r1, [pc, #20]	; (30008ee4 <system__tasking__protected_objects__multiprocessors___elabb+0x1c>)
30008ece:	6011      	str	r1, [r2, #0]
30008ed0:	2200      	movs	r2, #0
30008ed2:	601a      	str	r2, [r3, #0]
30008ed4:	711a      	strb	r2, [r3, #4]
30008ed6:	715a      	strb	r2, [r3, #5]
30008ed8:	4770      	bx	lr
30008eda:	bf00      	nop
30008edc:	3000bd14 	.word	0x3000bd14
30008ee0:	3000c898 	.word	0x3000c898
30008ee4:	30008e71 	.word	0x30008e71

30008ee8 <system__bb__protection__leave_kernel>:
30008ee8:	4b11      	ldr	r3, [pc, #68]	; (30008f30 <system__bb__protection__leave_kernel+0x48>)
30008eea:	b510      	push	{r4, lr}
30008eec:	4c11      	ldr	r4, [pc, #68]	; (30008f34 <system__bb__protection__leave_kernel+0x4c>)
30008eee:	681a      	ldr	r2, [r3, #0]
30008ef0:	6823      	ldr	r3, [r4, #0]
30008ef2:	429a      	cmp	r2, r3
30008ef4:	d006      	beq.n	30008f04 <system__bb__protection__leave_kernel+0x1c>
30008ef6:	4b10      	ldr	r3, [pc, #64]	; (30008f38 <system__bb__protection__leave_kernel+0x50>)
30008ef8:	681b      	ldr	r3, [r3, #0]
30008efa:	b103      	cbz	r3, 30008efe <system__bb__protection__leave_kernel+0x16>
30008efc:	4798      	blx	r3
30008efe:	4b0f      	ldr	r3, [pc, #60]	; (30008f3c <system__bb__protection__leave_kernel+0x54>)
30008f00:	781b      	ldrb	r3, [r3, #0]
30008f02:	b193      	cbz	r3, 30008f2a <system__bb__protection__leave_kernel+0x42>
30008f04:	6823      	ldr	r3, [r4, #0]
30008f06:	6b5b      	ldr	r3, [r3, #52]	; 0x34
30008f08:	f1a3 02f1 	sub.w	r2, r3, #241	; 0xf1
30008f0c:	2a0e      	cmp	r2, #14
30008f0e:	bf9d      	ittte	ls
30008f10:	ebc3 1303 	rsbls	r3, r3, r3, lsl #4
30008f14:	011b      	lslls	r3, r3, #4
30008f16:	b2db      	uxtbls	r3, r3
30008f18:	2300      	movhi	r3, #0
30008f1a:	f383 8811 	msr	BASEPRI, r3
30008f1e:	b662      	cpsie	i
30008f20:	f3bf 8f4f 	dsb	sy
30008f24:	f3bf 8f6f 	isb	sy
30008f28:	bd10      	pop	{r4, pc}
30008f2a:	f7ff fdfb 	bl	30008b24 <system__bb__cpu_primitives__context_switch_trigger__trigger_context_switch>
30008f2e:	e7e9      	b.n	30008f04 <system__bb__protection__leave_kernel+0x1c>
30008f30:	3000bcc4 	.word	0x3000bcc4
30008f34:	3000bcc0 	.word	0x3000bcc0
30008f38:	3000bce0 	.word	0x3000bce0
30008f3c:	3000bcba 	.word	0x3000bcba

30008f40 <system__bb__threads__initialize>:
30008f40:	b5f8      	push	{r3, r4, r5, r6, r7, lr}
30008f42:	4604      	mov	r4, r0
30008f44:	460d      	mov	r5, r1
30008f46:	f7ff fc3f 	bl	300087c8 <system__bb__interrupts__initialize_interrupts>
30008f4a:	f3ef 8008 	mrs	r0, MSP
30008f4e:	f380 8809 	msr	PSP, r0
30008f52:	f3ef 8014 	mrs	r0, CONTROL
30008f56:	2102      	movs	r1, #2
30008f58:	ea40 0001 	orr.w	r0, r0, r1
30008f5c:	f380 8814 	msr	CONTROL, r0
30008f60:	f3ef 8014 	mrs	r0, CONTROL
30008f64:	4b3a      	ldr	r3, [pc, #232]	; (30009050 <system__bb__threads__initialize+0x110>)
30008f66:	681b      	ldr	r3, [r3, #0]
30008f68:	f383 8808 	msr	MSP, r3
30008f6c:	4b39      	ldr	r3, [pc, #228]	; (30009054 <system__bb__threads__initialize+0x114>)
30008f6e:	4a3a      	ldr	r2, [pc, #232]	; (30009058 <system__bb__threads__initialize+0x118>)
30008f70:	493a      	ldr	r1, [pc, #232]	; (3000905c <system__bb__threads__initialize+0x11c>)
30008f72:	6019      	str	r1, [r3, #0]
30008f74:	6813      	ldr	r3, [r2, #0]
30008f76:	493a      	ldr	r1, [pc, #232]	; (30009060 <system__bb__threads__initialize+0x120>)
30008f78:	483a      	ldr	r0, [pc, #232]	; (30009064 <system__bb__threads__initialize+0x124>)
30008f7a:	4e3b      	ldr	r6, [pc, #236]	; (30009068 <system__bb__threads__initialize+0x128>)
30008f7c:	f443 7304 	orr.w	r3, r3, #528	; 0x210
30008f80:	f043 0301 	orr.w	r3, r3, #1
30008f84:	6013      	str	r3, [r2, #0]
30008f86:	2300      	movs	r3, #0
30008f88:	f44f 027f 	mov.w	r2, #16711680	; 0xff0000
30008f8c:	600b      	str	r3, [r1, #0]
30008f8e:	6033      	str	r3, [r6, #0]
30008f90:	6002      	str	r2, [r0, #0]
30008f92:	4b36      	ldr	r3, [pc, #216]	; (3000906c <system__bb__threads__initialize+0x12c>)
30008f94:	4a36      	ldr	r2, [pc, #216]	; (30009070 <system__bb__threads__initialize+0x130>)
30008f96:	f841 3c0c 	str.w	r3, [r1, #-12]
30008f9a:	6813      	ldr	r3, [r2, #0]
30008f9c:	f443 23e0 	orr.w	r3, r3, #458752	; 0x70000
30008fa0:	6013      	str	r3, [r2, #0]
30008fa2:	f7ff fdbd 	bl	30008b20 <system__bb__cpu_primitives__context_switch_trigger__initialize_context_switch>
30008fa6:	b661      	cpsie	f
30008fa8:	f7ff f9ee 	bl	30008388 <system__bb__board_support__initialize_board>
30008fac:	f7ff fcc6 	bl	3000893c <system__bb__time__initialize_timers>
30008fb0:	b672      	cpsid	i
30008fb2:	4b30      	ldr	r3, [pc, #192]	; (30009074 <system__bb__threads__initialize+0x134>)
30008fb4:	6365      	str	r5, [r4, #52]	; 0x34
30008fb6:	4a30      	ldr	r2, [pc, #192]	; (30009078 <system__bb__threads__initialize+0x138>)
30008fb8:	6819      	ldr	r1, [r3, #0]
30008fba:	6810      	ldr	r0, [r2, #0]
30008fbc:	6325      	str	r5, [r4, #48]	; 0x30
30008fbe:	428c      	cmp	r4, r1
30008fc0:	f04f 0501 	mov.w	r5, #1
30008fc4:	f884 502c 	strb.w	r5, [r4, #44]	; 0x2c
30008fc8:	65a0      	str	r0, [r4, #88]	; 0x58
30008fca:	6014      	str	r4, [r2, #0]
30008fcc:	4d2b      	ldr	r5, [pc, #172]	; (3000907c <system__bb__threads__initialize+0x13c>)
30008fce:	4e2c      	ldr	r6, [pc, #176]	; (30009080 <system__bb__threads__initialize+0x140>)
30008fd0:	d014      	beq.n	30008ffc <system__bb__threads__initialize+0xbc>
30008fd2:	681a      	ldr	r2, [r3, #0]
30008fd4:	b36a      	cbz	r2, 30009032 <system__bb__threads__initialize+0xf2>
30008fd6:	6b61      	ldr	r1, [r4, #52]	; 0x34
30008fd8:	681a      	ldr	r2, [r3, #0]
30008fda:	6b52      	ldr	r2, [r2, #52]	; 0x34
30008fdc:	4291      	cmp	r1, r2
30008fde:	dc28      	bgt.n	30009032 <system__bb__threads__initialize+0xf2>
30008fe0:	681a      	ldr	r2, [r3, #0]
30008fe2:	e006      	b.n	30008ff2 <system__bb__threads__initialize+0xb2>
30008fe4:	429c      	cmp	r4, r3
30008fe6:	d028      	beq.n	3000903a <system__bb__threads__initialize+0xfa>
30008fe8:	6b58      	ldr	r0, [r3, #52]	; 0x34
30008fea:	6b61      	ldr	r1, [r4, #52]	; 0x34
30008fec:	4288      	cmp	r0, r1
30008fee:	db03      	blt.n	30008ff8 <system__bb__threads__initialize+0xb8>
30008ff0:	461a      	mov	r2, r3
30008ff2:	6c13      	ldr	r3, [r2, #64]	; 0x40
30008ff4:	2b00      	cmp	r3, #0
30008ff6:	d1f5      	bne.n	30008fe4 <system__bb__threads__initialize+0xa4>
30008ff8:	6423      	str	r3, [r4, #64]	; 0x40
30008ffa:	6414      	str	r4, [r2, #64]	; 0x40
30008ffc:	2300      	movs	r3, #0
30008ffe:	4921      	ldr	r1, [pc, #132]	; (30009084 <system__bb__threads__initialize+0x144>)
30009000:	4a21      	ldr	r2, [pc, #132]	; (30009088 <system__bb__threads__initialize+0x148>)
30009002:	f884 3055 	strb.w	r3, [r4, #85]	; 0x55
30009006:	e9c4 560e 	strd	r5, r6, [r4, #56]	; 0x38
3000900a:	f04f 37ff 	mov.w	r7, #4294967295	; 0xffffffff
3000900e:	f04f 36ff 	mov.w	r6, #4294967295	; 0xffffffff
30009012:	f884 3054 	strb.w	r3, [r4, #84]	; 0x54
30009016:	f884 3056 	strb.w	r3, [r4, #86]	; 0x56
3000901a:	6523      	str	r3, [r4, #80]	; 0x50
3000901c:	e9c4 3317 	strd	r3, r3, [r4, #92]	; 0x5c
30009020:	2301      	movs	r3, #1
30009022:	e9c4 6712 	strd	r6, r7, [r4, #72]	; 0x48
30009026:	600c      	str	r4, [r1, #0]
30009028:	7013      	strb	r3, [r2, #0]
3000902a:	e8bd 40f8 	ldmia.w	sp!, {r3, r4, r5, r6, r7, lr}
3000902e:	f7ff bf5b 	b.w	30008ee8 <system__bb__protection__leave_kernel>
30009032:	681a      	ldr	r2, [r3, #0]
30009034:	6422      	str	r2, [r4, #64]	; 0x40
30009036:	601c      	str	r4, [r3, #0]
30009038:	e7e0      	b.n	30008ffc <system__bb__threads__initialize+0xbc>
3000903a:	6c23      	ldr	r3, [r4, #64]	; 0x40
3000903c:	6413      	str	r3, [r2, #64]	; 0x40
3000903e:	2b00      	cmp	r3, #0
30009040:	d0da      	beq.n	30008ff8 <system__bb__threads__initialize+0xb8>
30009042:	6b58      	ldr	r0, [r3, #52]	; 0x34
30009044:	6b61      	ldr	r1, [r4, #52]	; 0x34
30009046:	4288      	cmp	r0, r1
30009048:	dbd6      	blt.n	30008ff8 <system__bb__threads__initialize+0xb8>
3000904a:	461a      	mov	r2, r3
3000904c:	6c1b      	ldr	r3, [r3, #64]	; 0x40
3000904e:	e7f6      	b.n	3000903e <system__bb__threads__initialize+0xfe>
30009050:	3000c624 	.word	0x3000c624
30009054:	e000ed08 	.word	0xe000ed08
30009058:	e000ed14 	.word	0xe000ed14
3000905c:	30009600 	.word	0x30009600
30009060:	e000ed18 	.word	0xe000ed18
30009064:	e000ed20 	.word	0xe000ed20
30009068:	e000ed1c 	.word	0xe000ed1c
3000906c:	05fa0300 	.word	0x05fa0300
30009070:	e000ed24 	.word	0xe000ed24
30009074:	3000bcc4 	.word	0x3000bcc4
30009078:	3000bccc 	.word	0x3000bccc
3000907c:	30015970 	.word	0x30015970
30009080:	3000d970 	.word	0x3000d970
30009084:	3000bcc0 	.word	0x3000bcc0
30009088:	3000bd18 	.word	0x3000bd18

3000908c <system__bb__threads__sleep>:
3000908c:	4b0f      	ldr	r3, [pc, #60]	; (300090cc <system__bb__threads__sleep+0x40>)
3000908e:	681a      	ldr	r2, [r3, #0]
30009090:	b672      	cpsid	i
30009092:	f892 1056 	ldrb.w	r1, [r2, #86]	; 0x56
30009096:	b9a1      	cbnz	r1, 300090c2 <system__bb__threads__sleep+0x36>
30009098:	f992 302c 	ldrsb.w	r3, [r2, #44]	; 0x2c
3000909c:	480c      	ldr	r0, [pc, #48]	; (300090d0 <system__bb__threads__sleep+0x44>)
3000909e:	2b00      	cmp	r3, #0
300090a0:	bf08      	it	eq
300090a2:	2301      	moveq	r3, #1
300090a4:	f103 4380 	add.w	r3, r3, #1073741824	; 0x40000000
300090a8:	3b01      	subs	r3, #1
300090aa:	b410      	push	{r4}
300090ac:	6c14      	ldr	r4, [r2, #64]	; 0x40
300090ae:	6411      	str	r1, [r2, #64]	; 0x40
300090b0:	2101      	movs	r1, #1
300090b2:	f840 4023 	str.w	r4, [r0, r3, lsl #2]
300090b6:	f882 1054 	strb.w	r1, [r2, #84]	; 0x54
300090ba:	f85d 4b04 	ldr.w	r4, [sp], #4
300090be:	f7ff bf13 	b.w	30008ee8 <system__bb__protection__leave_kernel>
300090c2:	2300      	movs	r3, #0
300090c4:	f882 3056 	strb.w	r3, [r2, #86]	; 0x56
300090c8:	f7ff bf0e 	b.w	30008ee8 <system__bb__protection__leave_kernel>
300090cc:	3000bcc0 	.word	0x3000bcc0
300090d0:	3000bcc4 	.word	0x3000bcc4

300090d4 <system__bb__threads__thread_create>:
300090d4:	e92d 41f0 	stmdb	sp!, {r4, r5, r6, r7, r8, lr}
300090d8:	b088      	sub	sp, #32
300090da:	e9dd c50f 	ldrd	ip, r5, [sp, #60]	; 0x3c
300090de:	f99d 4038 	ldrsb.w	r4, [sp, #56]	; 0x38
300090e2:	b672      	cpsid	i
300090e4:	2c00      	cmp	r4, #0
300090e6:	f880 402c 	strb.w	r4, [r0, #44]	; 0x2c
300090ea:	bf08      	it	eq
300090ec:	2401      	moveq	r4, #1
300090ee:	4f37      	ldr	r7, [pc, #220]	; (300091cc <system__bb__threads__thread_create+0xf8>)
300090f0:	4e37      	ldr	r6, [pc, #220]	; (300091d0 <system__bb__threads__thread_create+0xfc>)
300090f2:	6343      	str	r3, [r0, #52]	; 0x34
300090f4:	f104 4480 	add.w	r4, r4, #1073741824	; 0x40000000
300090f8:	3c01      	subs	r4, #1
300090fa:	6303      	str	r3, [r0, #48]	; 0x30
300090fc:	683b      	ldr	r3, [r7, #0]
300090fe:	6583      	str	r3, [r0, #88]	; 0x58
30009100:	f856 3024 	ldr.w	r3, [r6, r4, lsl #2]
30009104:	6038      	str	r0, [r7, #0]
30009106:	4465      	add	r5, ip
30009108:	4298      	cmp	r0, r3
3000910a:	f025 0507 	bic.w	r5, r5, #7
3000910e:	d018      	beq.n	30009142 <system__bb__threads__thread_create+0x6e>
30009110:	f856 3024 	ldr.w	r3, [r6, r4, lsl #2]
30009114:	2b00      	cmp	r3, #0
30009116:	d047      	beq.n	300091a8 <system__bb__threads__thread_create+0xd4>
30009118:	6b47      	ldr	r7, [r0, #52]	; 0x34
3000911a:	f856 3024 	ldr.w	r3, [r6, r4, lsl #2]
3000911e:	6b5b      	ldr	r3, [r3, #52]	; 0x34
30009120:	429f      	cmp	r7, r3
30009122:	dc41      	bgt.n	300091a8 <system__bb__threads__thread_create+0xd4>
30009124:	f856 4024 	ldr.w	r4, [r6, r4, lsl #2]
30009128:	e006      	b.n	30009138 <system__bb__threads__thread_create+0x64>
3000912a:	4298      	cmp	r0, r3
3000912c:	d042      	beq.n	300091b4 <system__bb__threads__thread_create+0xe0>
3000912e:	6b5f      	ldr	r7, [r3, #52]	; 0x34
30009130:	6b46      	ldr	r6, [r0, #52]	; 0x34
30009132:	42b7      	cmp	r7, r6
30009134:	db03      	blt.n	3000913e <system__bb__threads__thread_create+0x6a>
30009136:	461c      	mov	r4, r3
30009138:	6c23      	ldr	r3, [r4, #64]	; 0x40
3000913a:	2b00      	cmp	r3, #0
3000913c:	d1f5      	bne.n	3000912a <system__bb__threads__thread_create+0x56>
3000913e:	6403      	str	r3, [r0, #64]	; 0x40
30009140:	6420      	str	r0, [r4, #64]	; 0x40
30009142:	2400      	movs	r4, #0
30009144:	f04f 36ff 	mov.w	r6, #4294967295	; 0xffffffff
30009148:	f04f 37ff 	mov.w	r7, #4294967295	; 0xffffffff
3000914c:	e9c0 5c0e 	strd	r5, ip, [r0, #56]	; 0x38
30009150:	f880 4054 	strb.w	r4, [r0, #84]	; 0x54
30009154:	f880 4055 	strb.w	r4, [r0, #85]	; 0x55
30009158:	f880 4056 	strb.w	r4, [r0, #86]	; 0x56
3000915c:	6504      	str	r4, [r0, #80]	; 0x50
3000915e:	e9c0 4417 	strd	r4, r4, [r0, #92]	; 0x5c
30009162:	e9c0 6712 	strd	r6, r7, [r0, #72]	; 0x48
30009166:	b1d1      	cbz	r1, 3000919e <system__bb__threads__thread_create+0xca>
30009168:	f04f 7380 	mov.w	r3, #16777216	; 0x1000000
3000916c:	e9cd 4404 	strd	r4, r4, [sp, #16]
30009170:	e9cd 1306 	strd	r1, r3, [sp, #24]
30009174:	e9cd 2400 	strd	r2, r4, [sp]
30009178:	e9cd 4402 	strd	r4, r4, [sp, #8]
3000917c:	466f      	mov	r7, sp
3000917e:	4680      	mov	r8, r0
30009180:	cf0f      	ldmia	r7!, {r0, r1, r2, r3}
30009182:	3d20      	subs	r5, #32
30009184:	462e      	mov	r6, r5
30009186:	c60f      	stmia	r6!, {r0, r1, r2, r3}
30009188:	e897 000f 	ldmia.w	r7, {r0, r1, r2, r3}
3000918c:	e886 000f 	stmia.w	r6, {r0, r1, r2, r3}
30009190:	4621      	mov	r1, r4
30009192:	2228      	movs	r2, #40	; 0x28
30009194:	4640      	mov	r0, r8
30009196:	f000 fb9d 	bl	300098d4 <memset>
3000919a:	f8c8 5020 	str.w	r5, [r8, #32]
3000919e:	b008      	add	sp, #32
300091a0:	e8bd 41f0 	ldmia.w	sp!, {r4, r5, r6, r7, r8, lr}
300091a4:	f7ff bea0 	b.w	30008ee8 <system__bb__protection__leave_kernel>
300091a8:	f856 3024 	ldr.w	r3, [r6, r4, lsl #2]
300091ac:	6403      	str	r3, [r0, #64]	; 0x40
300091ae:	f846 0024 	str.w	r0, [r6, r4, lsl #2]
300091b2:	e7c6      	b.n	30009142 <system__bb__threads__thread_create+0x6e>
300091b4:	6c03      	ldr	r3, [r0, #64]	; 0x40
300091b6:	6423      	str	r3, [r4, #64]	; 0x40
300091b8:	2b00      	cmp	r3, #0
300091ba:	d0c0      	beq.n	3000913e <system__bb__threads__thread_create+0x6a>
300091bc:	6b5f      	ldr	r7, [r3, #52]	; 0x34
300091be:	6b46      	ldr	r6, [r0, #52]	; 0x34
300091c0:	42b7      	cmp	r7, r6
300091c2:	dbbc      	blt.n	3000913e <system__bb__threads__thread_create+0x6a>
300091c4:	461c      	mov	r4, r3
300091c6:	6c1b      	ldr	r3, [r3, #64]	; 0x40
300091c8:	e7f6      	b.n	300091b8 <system__bb__threads__thread_create+0xe4>
300091ca:	bf00      	nop
300091cc:	3000bccc 	.word	0x3000bccc
300091d0:	3000bcc4 	.word	0x3000bcc4

300091d4 <system__bb__threads__wakeup>:
300091d4:	b672      	cpsid	i
300091d6:	f890 3054 	ldrb.w	r3, [r0, #84]	; 0x54
300091da:	2b01      	cmp	r3, #1
300091dc:	d004      	beq.n	300091e8 <system__bb__threads__wakeup+0x14>
300091de:	2301      	movs	r3, #1
300091e0:	f880 3056 	strb.w	r3, [r0, #86]	; 0x56
300091e4:	f7ff be80 	b.w	30008ee8 <system__bb__protection__leave_kernel>
300091e8:	f990 302c 	ldrsb.w	r3, [r0, #44]	; 0x2c
300091ec:	4a1d      	ldr	r2, [pc, #116]	; (30009264 <system__bb__threads__wakeup+0x90>)
300091ee:	2b00      	cmp	r3, #0
300091f0:	bf08      	it	eq
300091f2:	2301      	moveq	r3, #1
300091f4:	f103 4380 	add.w	r3, r3, #1073741824	; 0x40000000
300091f8:	3b01      	subs	r3, #1
300091fa:	b410      	push	{r4}
300091fc:	f852 1023 	ldr.w	r1, [r2, r3, lsl #2]
30009200:	2400      	movs	r4, #0
30009202:	4288      	cmp	r0, r1
30009204:	f880 4054 	strb.w	r4, [r0, #84]	; 0x54
30009208:	d017      	beq.n	3000923a <system__bb__threads__wakeup+0x66>
3000920a:	f852 1023 	ldr.w	r1, [r2, r3, lsl #2]
3000920e:	b1c1      	cbz	r1, 30009242 <system__bb__threads__wakeup+0x6e>
30009210:	6b44      	ldr	r4, [r0, #52]	; 0x34
30009212:	f852 1023 	ldr.w	r1, [r2, r3, lsl #2]
30009216:	6b49      	ldr	r1, [r1, #52]	; 0x34
30009218:	428c      	cmp	r4, r1
3000921a:	dc12      	bgt.n	30009242 <system__bb__threads__wakeup+0x6e>
3000921c:	f852 2023 	ldr.w	r2, [r2, r3, lsl #2]
30009220:	e006      	b.n	30009230 <system__bb__threads__wakeup+0x5c>
30009222:	4298      	cmp	r0, r3
30009224:	d013      	beq.n	3000924e <system__bb__threads__wakeup+0x7a>
30009226:	6b5c      	ldr	r4, [r3, #52]	; 0x34
30009228:	6b41      	ldr	r1, [r0, #52]	; 0x34
3000922a:	428c      	cmp	r4, r1
3000922c:	db03      	blt.n	30009236 <system__bb__threads__wakeup+0x62>
3000922e:	461a      	mov	r2, r3
30009230:	6c13      	ldr	r3, [r2, #64]	; 0x40
30009232:	2b00      	cmp	r3, #0
30009234:	d1f5      	bne.n	30009222 <system__bb__threads__wakeup+0x4e>
30009236:	6403      	str	r3, [r0, #64]	; 0x40
30009238:	6410      	str	r0, [r2, #64]	; 0x40
3000923a:	f85d 4b04 	ldr.w	r4, [sp], #4
3000923e:	f7ff be53 	b.w	30008ee8 <system__bb__protection__leave_kernel>
30009242:	f852 1023 	ldr.w	r1, [r2, r3, lsl #2]
30009246:	6401      	str	r1, [r0, #64]	; 0x40
30009248:	f842 0023 	str.w	r0, [r2, r3, lsl #2]
3000924c:	e7f5      	b.n	3000923a <system__bb__threads__wakeup+0x66>
3000924e:	6c03      	ldr	r3, [r0, #64]	; 0x40
30009250:	6413      	str	r3, [r2, #64]	; 0x40
30009252:	2b00      	cmp	r3, #0
30009254:	d0ef      	beq.n	30009236 <system__bb__threads__wakeup+0x62>
30009256:	6b5c      	ldr	r4, [r3, #52]	; 0x34
30009258:	6b41      	ldr	r1, [r0, #52]	; 0x34
3000925a:	428c      	cmp	r4, r1
3000925c:	dbeb      	blt.n	30009236 <system__bb__threads__wakeup+0x62>
3000925e:	461a      	mov	r2, r3
30009260:	6c1b      	ldr	r3, [r3, #64]	; 0x40
30009262:	e7f6      	b.n	30009252 <system__bb__threads__wakeup+0x7e>
30009264:	3000bcc4 	.word	0x3000bcc4

30009268 <system__bb__timing_events__execute_expired_timing_events>:
30009268:	e92d 47f0 	stmdb	sp!, {r4, r5, r6, r7, r8, r9, sl, lr}
3000926c:	f8df a06c 	ldr.w	sl, [pc, #108]	; 300092dc <system__bb__timing_events__execute_expired_timing_events+0x74>
30009270:	f8da 4000 	ldr.w	r4, [sl]
30009274:	b374      	cbz	r4, 300092d4 <system__bb__timing_events__execute_expired_timing_events+0x6c>
30009276:	4b18      	ldr	r3, [pc, #96]	; (300092d8 <system__bb__timing_events__execute_expired_timing_events+0x70>)
30009278:	f8d3 8000 	ldr.w	r8, [r3]
3000927c:	4606      	mov	r6, r0
3000927e:	460f      	mov	r7, r1
30009280:	4640      	mov	r0, r8
30009282:	21ff      	movs	r1, #255	; 0xff
30009284:	f8d8 9034 	ldr.w	r9, [r8, #52]	; 0x34
30009288:	f7ff faa6 	bl	300087d8 <system__bb__threads__queues__change_priority>
3000928c:	2500      	movs	r5, #0
3000928e:	e9d4 2302 	ldrd	r2, r3, [r4, #8]
30009292:	429f      	cmp	r7, r3
30009294:	bf08      	it	eq
30009296:	4296      	cmpeq	r6, r2
30009298:	d316      	bcc.n	300092c8 <system__bb__timing_events__execute_expired_timing_events+0x60>
3000929a:	f8da 2000 	ldr.w	r2, [sl]
3000929e:	e9d4 1304 	ldrd	r1, r3, [r4, #16]
300092a2:	42a2      	cmp	r2, r4
300092a4:	bf17      	itett	ne
300092a6:	69a2      	ldrne	r2, [r4, #24]
300092a8:	f8ca 3000 	streq.w	r3, [sl]
300092ac:	6153      	strne	r3, [r2, #20]
300092ae:	6963      	ldrne	r3, [r4, #20]
300092b0:	4620      	mov	r0, r4
300092b2:	b10b      	cbz	r3, 300092b8 <system__bb__timing_events__execute_expired_timing_events+0x50>
300092b4:	69a2      	ldr	r2, [r4, #24]
300092b6:	619a      	str	r2, [r3, #24]
300092b8:	e9c4 5505 	strd	r5, r5, [r4, #20]
300092bc:	6125      	str	r5, [r4, #16]
300092be:	4788      	blx	r1
300092c0:	f8da 4000 	ldr.w	r4, [sl]
300092c4:	2c00      	cmp	r4, #0
300092c6:	d1e2      	bne.n	3000928e <system__bb__timing_events__execute_expired_timing_events+0x26>
300092c8:	4649      	mov	r1, r9
300092ca:	4640      	mov	r0, r8
300092cc:	e8bd 47f0 	ldmia.w	sp!, {r4, r5, r6, r7, r8, r9, sl, lr}
300092d0:	f7ff ba82 	b.w	300087d8 <system__bb__threads__queues__change_priority>
300092d4:	e8bd 87f0 	ldmia.w	sp!, {r4, r5, r6, r7, r8, r9, sl, pc}
300092d8:	3000bcc0 	.word	0x3000bcc0
300092dc:	3000bd1c 	.word	0x3000bd1c

300092e0 <system__task_primitives__operations__enter_task>:
300092e0:	b508      	push	{r3, lr}
300092e2:	4b0b      	ldr	r3, [pc, #44]	; (30009310 <system__task_primitives__operations__enter_task+0x30>)
300092e4:	681a      	ldr	r2, [r3, #0]
300092e6:	2100      	movs	r1, #0
300092e8:	f8c0 1084 	str.w	r1, [r0, #132]	; 0x84
300092ec:	b162      	cbz	r2, 30009308 <system__task_primitives__operations__enter_task+0x28>
300092ee:	f8c2 009c 	str.w	r0, [r2, #156]	; 0x9c
300092f2:	6018      	str	r0, [r3, #0]
300092f4:	b672      	cpsid	i
300092f6:	4b07      	ldr	r3, [pc, #28]	; (30009314 <system__task_primitives__operations__enter_task+0x34>)
300092f8:	68c1      	ldr	r1, [r0, #12]
300092fa:	6818      	ldr	r0, [r3, #0]
300092fc:	f7ff fa6c 	bl	300087d8 <system__bb__threads__queues__change_priority>
30009300:	e8bd 4008 	ldmia.w	sp!, {r3, lr}
30009304:	f7ff bdf0 	b.w	30008ee8 <system__bb__protection__leave_kernel>
30009308:	4a03      	ldr	r2, [pc, #12]	; (30009318 <system__task_primitives__operations__enter_task+0x38>)
3000930a:	6010      	str	r0, [r2, #0]
3000930c:	e7f1      	b.n	300092f2 <system__task_primitives__operations__enter_task+0x12>
3000930e:	bf00      	nop
30009310:	3000bcfc 	.word	0x3000bcfc
30009314:	3000bcc0 	.word	0x3000bcc0
30009318:	3000bcf8 	.word	0x3000bcf8

3000931c <system__task_primitives__operations__idle>:
3000931c:	b508      	push	{r3, lr}
3000931e:	4b03      	ldr	r3, [pc, #12]	; (3000932c <system__task_primitives__operations__idle+0x10>)
30009320:	681b      	ldr	r3, [r3, #0]
30009322:	6a98      	ldr	r0, [r3, #40]	; 0x28
30009324:	f7ff ffdc 	bl	300092e0 <system__task_primitives__operations__enter_task>
30009328:	bf30      	wfi
3000932a:	e7fd      	b.n	30009328 <system__task_primitives__operations__idle+0xc>
3000932c:	3000bcc0 	.word	0x3000bcc0

30009330 <system__task_primitives__operations__initialize_idle>:
30009330:	b5f0      	push	{r4, r5, r6, r7, lr}
30009332:	4603      	mov	r3, r0
30009334:	24b8      	movs	r4, #184	; 0xb8
30009336:	4912      	ldr	r1, [pc, #72]	; (30009380 <system__task_primitives__operations__initialize_idle+0x50>)
30009338:	4d12      	ldr	r5, [pc, #72]	; (30009384 <system__task_primitives__operations__initialize_idle+0x54>)
3000933a:	4a13      	ldr	r2, [pc, #76]	; (30009388 <system__task_primitives__operations__initialize_idle+0x58>)
3000933c:	4813      	ldr	r0, [pc, #76]	; (3000938c <system__task_primitives__operations__initialize_idle+0x5c>)
3000933e:	fb04 f403 	mul.w	r4, r4, r3
30009342:	b085      	sub	sp, #20
30009344:	4419      	add	r1, r3
30009346:	f1a4 06b8 	sub.w	r6, r4, #184	; 0xb8
3000934a:	442e      	add	r6, r5
3000934c:	eb02 22c1 	add.w	r2, r2, r1, lsl #11
30009350:	f44f 6700 	mov.w	r7, #2048	; 0x800
30009354:	2102      	movs	r1, #2
30009356:	e9cd 2701 	strd	r2, r7, [sp, #4]
3000935a:	9100      	str	r1, [sp, #0]
3000935c:	9603      	str	r6, [sp, #12]
3000935e:	f04f 32ff 	mov.w	r2, #4294967295	; 0xffffffff
30009362:	2100      	movs	r1, #0
30009364:	f7ff fcb2 	bl	30008ccc <system__tasking__initialize_atcb>
30009368:	192b      	adds	r3, r5, r4
3000936a:	3ca0      	subs	r4, #160	; 0xa0
3000936c:	442c      	add	r4, r5
3000936e:	2201      	movs	r2, #1
30009370:	f843 4c38 	str.w	r4, [r3, #-56]
30009374:	f843 6c10 	str.w	r6, [r3, #-16]
30009378:	f803 2cb0 	strb.w	r2, [r3, #-176]
3000937c:	b005      	add	sp, #20
3000937e:	bdf0      	pop	{r4, r5, r6, r7, pc}
30009380:	001fffff 	.word	0x001fffff
30009384:	3000d0a8 	.word	0x3000d0a8
30009388:	3000c8a8 	.word	0x3000c8a8
3000938c:	3000931d 	.word	0x3000931d

30009390 <__gnat_last_chance_handler>:
30009390:	460e      	mov	r6, r1
30009392:	b508      	push	{r3, lr}
30009394:	4604      	mov	r4, r0
30009396:	4919      	ldr	r1, [pc, #100]	; (300093fc <__gnat_last_chance_handler+0x6c>)
30009398:	4819      	ldr	r0, [pc, #100]	; (30009400 <__gnat_last_chance_handler+0x70>)
3000939a:	f000 f8af 	bl	300094fc <gnat__io__put_line>
3000939e:	b1de      	cbz	r6, 300093d8 <__gnat_last_chance_handler+0x48>
300093a0:	f104 4500 	add.w	r5, r4, #2147483648	; 0x80000000
300093a4:	4817      	ldr	r0, [pc, #92]	; (30009404 <__gnat_last_chance_handler+0x74>)
300093a6:	4918      	ldr	r1, [pc, #96]	; (30009408 <__gnat_last_chance_handler+0x78>)
300093a8:	f000 f860 	bl	3000946c <gnat__io__put__3>
300093ac:	3d02      	subs	r5, #2
300093ae:	3c01      	subs	r4, #1
300093b0:	e003      	b.n	300093ba <__gnat_last_chance_handler+0x2a>
300093b2:	f000 f82f 	bl	30009414 <gnat__io__put__2>
300093b6:	42ac      	cmp	r4, r5
300093b8:	d003      	beq.n	300093c2 <__gnat_last_chance_handler+0x32>
300093ba:	f814 0f01 	ldrb.w	r0, [r4, #1]!
300093be:	2800      	cmp	r0, #0
300093c0:	d1f7      	bne.n	300093b2 <__gnat_last_chance_handler+0x22>
300093c2:	203a      	movs	r0, #58	; 0x3a
300093c4:	f000 f826 	bl	30009414 <gnat__io__put__2>
300093c8:	4630      	mov	r0, r6
300093ca:	f000 f85f 	bl	3000948c <gnat__io__put>
300093ce:	2001      	movs	r0, #1
300093d0:	f000 f842 	bl	30009458 <gnat__io__new_line>
300093d4:	f000 fa20 	bl	30009818 <system__machine_reset__stop>
300093d8:	f104 4500 	add.w	r5, r4, #2147483648	; 0x80000000
300093dc:	480b      	ldr	r0, [pc, #44]	; (3000940c <__gnat_last_chance_handler+0x7c>)
300093de:	490c      	ldr	r1, [pc, #48]	; (30009410 <__gnat_last_chance_handler+0x80>)
300093e0:	f000 f844 	bl	3000946c <gnat__io__put__3>
300093e4:	3d02      	subs	r5, #2
300093e6:	3c01      	subs	r4, #1
300093e8:	e003      	b.n	300093f2 <__gnat_last_chance_handler+0x62>
300093ea:	f000 f813 	bl	30009414 <gnat__io__put__2>
300093ee:	42ac      	cmp	r4, r5
300093f0:	d0ed      	beq.n	300093ce <__gnat_last_chance_handler+0x3e>
300093f2:	f814 0f01 	ldrb.w	r0, [r4, #1]!
300093f6:	2800      	cmp	r0, #0
300093f8:	d1f7      	bne.n	300093ea <__gnat_last_chance_handler+0x5a>
300093fa:	e7e8      	b.n	300093ce <__gnat_last_chance_handler+0x3e>
300093fc:	3000bc10 	.word	0x3000bc10
30009400:	3000bc28 	.word	0x3000bc28
30009404:	3000bc40 	.word	0x3000bc40
30009408:	3000bc18 	.word	0x3000bc18
3000940c:	3000bc60 	.word	0x3000bc60
30009410:	3000bc20 	.word	0x3000bc20

30009414 <gnat__io__put__2>:
30009414:	4b0f      	ldr	r3, [pc, #60]	; (30009454 <gnat__io__put__2+0x40>)
30009416:	781b      	ldrb	r3, [r3, #0]
30009418:	b510      	push	{r4, lr}
3000941a:	4604      	mov	r4, r0
3000941c:	b153      	cbz	r3, 30009434 <gnat__io__put__2+0x20>
3000941e:	2c0a      	cmp	r4, #10
30009420:	d00c      	beq.n	3000943c <gnat__io__put__2+0x28>
30009422:	f000 fabf 	bl	300099a4 <system__text_io__is_tx_ready>
30009426:	2800      	cmp	r0, #0
30009428:	d0fb      	beq.n	30009422 <gnat__io__put__2+0xe>
3000942a:	4620      	mov	r0, r4
3000942c:	e8bd 4010 	ldmia.w	sp!, {r4, lr}
30009430:	f000 bac0 	b.w	300099b4 <system__text_io__put>
30009434:	f000 fab4 	bl	300099a0 <system__text_io__initialize>
30009438:	2c0a      	cmp	r4, #10
3000943a:	d1f2      	bne.n	30009422 <gnat__io__put__2+0xe>
3000943c:	f000 fac2 	bl	300099c4 <system__text_io__use_cr_lf_for_new_line>
30009440:	2800      	cmp	r0, #0
30009442:	d0ee      	beq.n	30009422 <gnat__io__put__2+0xe>
30009444:	f000 faae 	bl	300099a4 <system__text_io__is_tx_ready>
30009448:	2800      	cmp	r0, #0
3000944a:	d0fb      	beq.n	30009444 <gnat__io__put__2+0x30>
3000944c:	200d      	movs	r0, #13
3000944e:	f000 fab1 	bl	300099b4 <system__text_io__put>
30009452:	e7e6      	b.n	30009422 <gnat__io__put__2+0xe>
30009454:	3000bd28 	.word	0x3000bd28

30009458 <gnat__io__new_line>:
30009458:	b538      	push	{r3, r4, r5, lr}
3000945a:	4605      	mov	r5, r0
3000945c:	2400      	movs	r4, #0
3000945e:	3401      	adds	r4, #1
30009460:	200a      	movs	r0, #10
30009462:	f7ff ffd7 	bl	30009414 <gnat__io__put__2>
30009466:	42a5      	cmp	r5, r4
30009468:	d1f9      	bne.n	3000945e <gnat__io__new_line+0x6>
3000946a:	bd38      	pop	{r3, r4, r5, pc}

3000946c <gnat__io__put__3>:
3000946c:	b538      	push	{r3, r4, r5, lr}
3000946e:	e9d1 3200 	ldrd	r3, r2, [r1]
30009472:	4293      	cmp	r3, r2
30009474:	dc09      	bgt.n	3000948a <gnat__io__put__3+0x1e>
30009476:	1c45      	adds	r5, r0, #1
30009478:	4415      	add	r5, r2
3000947a:	4604      	mov	r4, r0
3000947c:	1aed      	subs	r5, r5, r3
3000947e:	f814 0b01 	ldrb.w	r0, [r4], #1
30009482:	f7ff ffc7 	bl	30009414 <gnat__io__put__2>
30009486:	42ac      	cmp	r4, r5
30009488:	d1f9      	bne.n	3000947e <gnat__io__put__3+0x12>
3000948a:	bd38      	pop	{r3, r4, r5, pc}

3000948c <gnat__io__put>:
3000948c:	b570      	push	{r4, r5, r6, lr}
3000948e:	ea80 72e0 	eor.w	r2, r0, r0, asr #31
30009492:	b086      	sub	sp, #24
30009494:	ebc2 72e0 	rsb	r2, r2, r0, asr #31
30009498:	f10d 0517 	add.w	r5, sp, #23
3000949c:	260c      	movs	r6, #12
3000949e:	4c16      	ldr	r4, [pc, #88]	; (300094f8 <gnat__io__put+0x6c>)
300094a0:	e000      	b.n	300094a4 <gnat__io__put+0x18>
300094a2:	461e      	mov	r6, r3
300094a4:	fb84 3102 	smull	r3, r1, r4, r2
300094a8:	17d3      	asrs	r3, r2, #31
300094aa:	ebc3 03a1 	rsb	r3, r3, r1, asr #2
300094ae:	eb03 0383 	add.w	r3, r3, r3, lsl #2
300094b2:	eba2 0343 	sub.w	r3, r2, r3, lsl #1
300094b6:	1ad2      	subs	r2, r2, r3
300094b8:	fb84 c102 	smull	ip, r1, r4, r2
300094bc:	17d2      	asrs	r2, r2, #31
300094be:	f1c3 0330 	rsb	r3, r3, #48	; 0x30
300094c2:	ebd2 02a1 	rsbs	r2, r2, r1, asr #2
300094c6:	f805 3d01 	strb.w	r3, [r5, #-1]!
300094ca:	f106 33ff 	add.w	r3, r6, #4294967295	; 0xffffffff
300094ce:	d1e8      	bne.n	300094a2 <gnat__io__put+0x16>
300094d0:	2800      	cmp	r0, #0
300094d2:	da05      	bge.n	300094e0 <gnat__io__put+0x54>
300094d4:	1eb3      	subs	r3, r6, #2
300094d6:	aa06      	add	r2, sp, #24
300094d8:	441a      	add	r2, r3
300094da:	212d      	movs	r1, #45	; 0x2d
300094dc:	f802 1c0d 	strb.w	r1, [r2, #-13]
300094e0:	aa06      	add	r2, sp, #24
300094e2:	18d0      	adds	r0, r2, r3
300094e4:	380d      	subs	r0, #13
300094e6:	220b      	movs	r2, #11
300094e8:	a901      	add	r1, sp, #4
300094ea:	e9cd 3201 	strd	r3, r2, [sp, #4]
300094ee:	f7ff ffbd 	bl	3000946c <gnat__io__put__3>
300094f2:	b006      	add	sp, #24
300094f4:	bd70      	pop	{r4, r5, r6, pc}
300094f6:	bf00      	nop
300094f8:	66666667 	.word	0x66666667

300094fc <gnat__io__put_line>:
300094fc:	b508      	push	{r3, lr}
300094fe:	f7ff ffb5 	bl	3000946c <gnat__io__put__3>
30009502:	200a      	movs	r0, #10
30009504:	e8bd 4008 	ldmia.w	sp!, {r3, lr}
30009508:	f7ff bf84 	b.w	30009414 <gnat__io__put__2>
	...

30009600 <__vectors>:
30009600:	00000000 	.word	0x00000000
30009604:	3000979d 	.word	0x3000979d
30009608:	3000979d 	.word	0x3000979d
3000960c:	3000979d 	.word	0x3000979d
30009610:	3000979d 	.word	0x3000979d
30009614:	3000979d 	.word	0x3000979d
30009618:	3000979d 	.word	0x3000979d
3000961c:	3000979d 	.word	0x3000979d
30009620:	3000979d 	.word	0x3000979d
30009624:	3000979d 	.word	0x3000979d
30009628:	3000979d 	.word	0x3000979d
3000962c:	30008641 	.word	0x30008641
30009630:	3000979d 	.word	0x3000979d
30009634:	3000979d 	.word	0x3000979d
30009638:	30008b35 	.word	0x30008b35
3000963c:	30008649 	.word	0x30008649
30009640:	300085dd 	.word	0x300085dd
30009644:	300085dd 	.word	0x300085dd
30009648:	300085dd 	.word	0x300085dd
3000964c:	300085dd 	.word	0x300085dd
30009650:	300085dd 	.word	0x300085dd
30009654:	300085dd 	.word	0x300085dd
30009658:	300085dd 	.word	0x300085dd
3000965c:	300085dd 	.word	0x300085dd
30009660:	300085dd 	.word	0x300085dd
30009664:	300085dd 	.word	0x300085dd
30009668:	300085dd 	.word	0x300085dd
3000966c:	300085dd 	.word	0x300085dd
30009670:	300085dd 	.word	0x300085dd
30009674:	300085dd 	.word	0x300085dd
30009678:	300085dd 	.word	0x300085dd
3000967c:	300085dd 	.word	0x300085dd
30009680:	300085dd 	.word	0x300085dd
30009684:	300085dd 	.word	0x300085dd
30009688:	300085dd 	.word	0x300085dd
3000968c:	300085dd 	.word	0x300085dd
30009690:	300085dd 	.word	0x300085dd
30009694:	300085dd 	.word	0x300085dd
30009698:	300085dd 	.word	0x300085dd
3000969c:	300085dd 	.word	0x300085dd
300096a0:	300085dd 	.word	0x300085dd
300096a4:	300085dd 	.word	0x300085dd
300096a8:	300085dd 	.word	0x300085dd
300096ac:	300085dd 	.word	0x300085dd
300096b0:	300085dd 	.word	0x300085dd
300096b4:	300085dd 	.word	0x300085dd
300096b8:	300085dd 	.word	0x300085dd
300096bc:	300085dd 	.word	0x300085dd
300096c0:	300085dd 	.word	0x300085dd
300096c4:	300085dd 	.word	0x300085dd
300096c8:	300085dd 	.word	0x300085dd
300096cc:	300085dd 	.word	0x300085dd
300096d0:	300085dd 	.word	0x300085dd
300096d4:	300085dd 	.word	0x300085dd
300096d8:	300085dd 	.word	0x300085dd
300096dc:	300085dd 	.word	0x300085dd
300096e0:	300085dd 	.word	0x300085dd
300096e4:	300085dd 	.word	0x300085dd
300096e8:	300085dd 	.word	0x300085dd
300096ec:	300085dd 	.word	0x300085dd
300096f0:	300085dd 	.word	0x300085dd
300096f4:	300085dd 	.word	0x300085dd
300096f8:	300085dd 	.word	0x300085dd
300096fc:	300085dd 	.word	0x300085dd
30009700:	300085dd 	.word	0x300085dd
30009704:	300085dd 	.word	0x300085dd
30009708:	300085dd 	.word	0x300085dd
3000970c:	300085dd 	.word	0x300085dd
30009710:	300085dd 	.word	0x300085dd
30009714:	300085dd 	.word	0x300085dd
30009718:	300085dd 	.word	0x300085dd
3000971c:	300085dd 	.word	0x300085dd
30009720:	300085dd 	.word	0x300085dd
30009724:	300085dd 	.word	0x300085dd
30009728:	300085dd 	.word	0x300085dd
3000972c:	300085dd 	.word	0x300085dd
30009730:	300085dd 	.word	0x300085dd
30009734:	300085dd 	.word	0x300085dd
30009738:	300085dd 	.word	0x300085dd
3000973c:	300085dd 	.word	0x300085dd
30009740:	300085dd 	.word	0x300085dd
30009744:	300085dd 	.word	0x300085dd
30009748:	300085dd 	.word	0x300085dd
3000974c:	300085dd 	.word	0x300085dd
30009750:	300085dd 	.word	0x300085dd
30009754:	300085dd 	.word	0x300085dd
30009758:	300085dd 	.word	0x300085dd
3000975c:	300085dd 	.word	0x300085dd
30009760:	300085dd 	.word	0x300085dd
30009764:	300085dd 	.word	0x300085dd
30009768:	300085dd 	.word	0x300085dd
3000976c:	300085dd 	.word	0x300085dd
30009770:	300085dd 	.word	0x300085dd
30009774:	300085dd 	.word	0x300085dd
30009778:	300085dd 	.word	0x300085dd
3000977c:	300085dd 	.word	0x300085dd
30009780:	300085dd 	.word	0x300085dd
30009784:	300085dd 	.word	0x300085dd
30009788:	300085dd 	.word	0x300085dd
3000978c:	300085dd 	.word	0x300085dd
30009790:	300085dd 	.word	0x300085dd
30009794:	e7fe      	b.n	30009794 <__vectors+0x194>
30009796:	e7fe      	b.n	30009796 <__vectors+0x196>
30009798:	e7fe      	b.n	30009798 <__vectors+0x198>
3000979a:	e7fe      	b.n	3000979a <__vectors+0x19a>

3000979c <fault>:
3000979c:	e7fe      	b.n	3000979c <fault>
3000979e:	bf00      	nop

300097a0 <system__assertions__raise_assert_failure>:
300097a0:	b580      	push	{r7, lr}
300097a2:	e9d1 6500 	ldrd	r6, r5, [r1]
300097a6:	42b5      	cmp	r5, r6
300097a8:	af00      	add	r7, sp, #0
300097aa:	db23      	blt.n	300097f4 <system__assertions__raise_assert_failure+0x54>
300097ac:	3501      	adds	r5, #1
300097ae:	eba5 0806 	sub.w	r8, r5, r6
300097b2:	4684      	mov	ip, r0
300097b4:	f810 1008 	ldrb.w	r1, [r0, r8]
300097b8:	b1d1      	cbz	r1, 300097f0 <system__assertions__raise_assert_failure+0x50>
300097ba:	42ae      	cmp	r6, r5
300097bc:	dc1e      	bgt.n	300097fc <system__assertions__raise_assert_failure+0x5c>
300097be:	f108 030c 	add.w	r3, r8, #12
300097c2:	f023 0303 	bic.w	r3, r3, #3
300097c6:	f108 0201 	add.w	r2, r8, #1
300097ca:	330a      	adds	r3, #10
300097cc:	f023 0307 	bic.w	r3, r3, #7
300097d0:	ebad 0d03 	sub.w	sp, sp, r3
300097d4:	466c      	mov	r4, sp
300097d6:	f104 0908 	add.w	r9, r4, #8
300097da:	4661      	mov	r1, ip
300097dc:	6026      	str	r6, [r4, #0]
300097de:	6065      	str	r5, [r4, #4]
300097e0:	4648      	mov	r0, r9
300097e2:	4444      	add	r4, r8
300097e4:	f000 f852 	bl	3000988c <memcpy>
300097e8:	2300      	movs	r3, #0
300097ea:	4648      	mov	r0, r9
300097ec:	4619      	mov	r1, r3
300097ee:	7223      	strb	r3, [r4, #8]
300097f0:	f7ff fdce 	bl	30009390 <__gnat_last_chance_handler>
300097f4:	2100      	movs	r1, #0
300097f6:	4803      	ldr	r0, [pc, #12]	; (30009804 <system__assertions__raise_assert_failure+0x64>)
300097f8:	f7ff fdca 	bl	30009390 <__gnat_last_chance_handler>
300097fc:	2200      	movs	r2, #0
300097fe:	2308      	movs	r3, #8
30009800:	e7e3      	b.n	300097ca <system__assertions__raise_assert_failure+0x2a>
30009802:	bf00      	nop
30009804:	3000bc8c 	.word	0x3000bc8c

30009808 <_exit>:
30009808:	4b01      	ldr	r3, [pc, #4]	; (30009810 <_exit+0x8>)
3000980a:	4a02      	ldr	r2, [pc, #8]	; (30009814 <_exit+0xc>)
3000980c:	601a      	str	r2, [r3, #0]
3000980e:	e7fe      	b.n	3000980e <_exit+0x6>
30009810:	e000ed0c 	.word	0xe000ed0c
30009814:	05fa0004 	.word	0x05fa0004

30009818 <system__machine_reset__stop>:
30009818:	4b01      	ldr	r3, [pc, #4]	; (30009820 <system__machine_reset__stop+0x8>)
3000981a:	4a02      	ldr	r2, [pc, #8]	; (30009824 <system__machine_reset__stop+0xc>)
3000981c:	601a      	str	r2, [r3, #0]
3000981e:	e7fe      	b.n	3000981e <system__machine_reset__stop+0x6>
30009820:	e000ed0c 	.word	0xe000ed0c
30009824:	05fa0004 	.word	0x05fa0004

30009828 <memcmp>:
30009828:	ea41 0300 	orr.w	r3, r1, r0
3000982c:	079b      	lsls	r3, r3, #30
3000982e:	b430      	push	{r4, r5}
30009830:	d101      	bne.n	30009836 <memcmp+0xe>
30009832:	2a03      	cmp	r2, #3
30009834:	d81d      	bhi.n	30009872 <memcmp+0x4a>
30009836:	b192      	cbz	r2, 3000985e <memcmp+0x36>
30009838:	7804      	ldrb	r4, [r0, #0]
3000983a:	780b      	ldrb	r3, [r1, #0]
3000983c:	429c      	cmp	r4, r3
3000983e:	d31d      	bcc.n	3000987c <memcmp+0x54>
30009840:	d820      	bhi.n	30009884 <memcmp+0x5c>
30009842:	4402      	add	r2, r0
30009844:	4603      	mov	r3, r0
30009846:	e004      	b.n	30009852 <memcmp+0x2a>
30009848:	7824      	ldrb	r4, [r4, #0]
3000984a:	781d      	ldrb	r5, [r3, #0]
3000984c:	42a5      	cmp	r5, r4
3000984e:	d315      	bcc.n	3000987c <memcmp+0x54>
30009850:	d818      	bhi.n	30009884 <memcmp+0x5c>
30009852:	3301      	adds	r3, #1
30009854:	185c      	adds	r4, r3, r1
30009856:	429a      	cmp	r2, r3
30009858:	eba4 0400 	sub.w	r4, r4, r0
3000985c:	d1f4      	bne.n	30009848 <memcmp+0x20>
3000985e:	2000      	movs	r0, #0
30009860:	bc30      	pop	{r4, r5}
30009862:	4770      	bx	lr
30009864:	3a04      	subs	r2, #4
30009866:	2a03      	cmp	r2, #3
30009868:	f100 0004 	add.w	r0, r0, #4
3000986c:	f101 0104 	add.w	r1, r1, #4
30009870:	d9e1      	bls.n	30009836 <memcmp+0xe>
30009872:	6804      	ldr	r4, [r0, #0]
30009874:	680b      	ldr	r3, [r1, #0]
30009876:	429c      	cmp	r4, r3
30009878:	d0f4      	beq.n	30009864 <memcmp+0x3c>
3000987a:	e7dd      	b.n	30009838 <memcmp+0x10>
3000987c:	f04f 30ff 	mov.w	r0, #4294967295	; 0xffffffff
30009880:	bc30      	pop	{r4, r5}
30009882:	4770      	bx	lr
30009884:	2001      	movs	r0, #1
30009886:	bc30      	pop	{r4, r5}
30009888:	4770      	bx	lr
3000988a:	bf00      	nop

3000988c <memcpy>:
3000988c:	ea40 0301 	orr.w	r3, r0, r1
30009890:	079b      	lsls	r3, r3, #30
30009892:	b4f0      	push	{r4, r5, r6, r7}
30009894:	4604      	mov	r4, r0
30009896:	460d      	mov	r5, r1
30009898:	d111      	bne.n	300098be <memcpy+0x32>
3000989a:	2a03      	cmp	r2, #3
3000989c:	d90f      	bls.n	300098be <memcpy+0x32>
3000989e:	1f15      	subs	r5, r2, #4
300098a0:	f025 0603 	bic.w	r6, r5, #3
300098a4:	1987      	adds	r7, r0, r6
300098a6:	3704      	adds	r7, #4
300098a8:	1f0b      	subs	r3, r1, #4
300098aa:	f853 5f04 	ldr.w	r5, [r3, #4]!
300098ae:	f844 5b04 	str.w	r5, [r4], #4
300098b2:	42bc      	cmp	r4, r7
300098b4:	d1f9      	bne.n	300098aa <memcpy+0x1e>
300098b6:	3104      	adds	r1, #4
300098b8:	198d      	adds	r5, r1, r6
300098ba:	f002 0203 	and.w	r2, r2, #3
300098be:	b13a      	cbz	r2, 300098d0 <memcpy+0x44>
300098c0:	462b      	mov	r3, r5
300098c2:	442a      	add	r2, r5
300098c4:	1b64      	subs	r4, r4, r5
300098c6:	7819      	ldrb	r1, [r3, #0]
300098c8:	54e1      	strb	r1, [r4, r3]
300098ca:	3301      	adds	r3, #1
300098cc:	429a      	cmp	r2, r3
300098ce:	d1fa      	bne.n	300098c6 <memcpy+0x3a>
300098d0:	bcf0      	pop	{r4, r5, r6, r7}
300098d2:	4770      	bx	lr

300098d4 <memset>:
300098d4:	f010 0f03 	tst.w	r0, #3
300098d8:	b2c9      	uxtb	r1, r1
300098da:	4603      	mov	r3, r0
300098dc:	d119      	bne.n	30009912 <memset+0x3e>
300098de:	b470      	push	{r4, r5, r6}
300098e0:	2a03      	cmp	r2, #3
300098e2:	ea41 2501 	orr.w	r5, r1, r1, lsl #8
300098e6:	ea45 4505 	orr.w	r5, r5, r5, lsl #16
300098ea:	d90a      	bls.n	30009902 <memset+0x2e>
300098ec:	1f14      	subs	r4, r2, #4
300098ee:	f024 0403 	bic.w	r4, r4, #3
300098f2:	1d06      	adds	r6, r0, #4
300098f4:	4434      	add	r4, r6
300098f6:	f843 5b04 	str.w	r5, [r3], #4
300098fa:	42a3      	cmp	r3, r4
300098fc:	d1fb      	bne.n	300098f6 <memset+0x22>
300098fe:	f002 0203 	and.w	r2, r2, #3
30009902:	b122      	cbz	r2, 3000990e <memset+0x3a>
30009904:	441a      	add	r2, r3
30009906:	f803 1b01 	strb.w	r1, [r3], #1
3000990a:	4293      	cmp	r3, r2
3000990c:	d1fb      	bne.n	30009906 <memset+0x32>
3000990e:	bc70      	pop	{r4, r5, r6}
30009910:	4770      	bx	lr
30009912:	b12a      	cbz	r2, 30009920 <memset+0x4c>
30009914:	4402      	add	r2, r0
30009916:	f803 1b01 	strb.w	r1, [r3], #1
3000991a:	4293      	cmp	r3, r2
3000991c:	d1fb      	bne.n	30009916 <memset+0x42>
3000991e:	4770      	bx	lr
30009920:	4770      	bx	lr
30009922:	bf00      	nop

30009924 <system__parameters__adjust_storage_size>:
30009924:	f1b0 4f00 	cmp.w	r0, #2147483648	; 0x80000000
30009928:	bf08      	it	eq
3000992a:	f44f 5080 	moveq.w	r0, #4096	; 0x1000
3000992e:	4770      	bx	lr

30009930 <system__secondary_stack__ss_stackIP>:
30009930:	6001      	str	r1, [r0, #0]
30009932:	4770      	bx	lr

30009934 <system__secondary_stack__ss_init>:
30009934:	b118      	cbz	r0, 3000993e <system__secondary_stack__ss_init+0xa>
30009936:	2301      	movs	r3, #1
30009938:	e9c0 3301 	strd	r3, r3, [r0, #4]
3000993c:	4770      	bx	lr
3000993e:	f1b1 4f00 	cmp.w	r1, #2147483648	; 0x80000000
30009942:	b510      	push	{r4, lr}
30009944:	4b11      	ldr	r3, [pc, #68]	; (3000998c <system__secondary_stack__ss_init+0x58>)
30009946:	d002      	beq.n	3000994e <system__secondary_stack__ss_init+0x1a>
30009948:	681b      	ldr	r3, [r3, #0]
3000994a:	b9db      	cbnz	r3, 30009984 <system__secondary_stack__ss_init+0x50>
3000994c:	bd10      	pop	{r4, pc}
3000994e:	681a      	ldr	r2, [r3, #0]
30009950:	2a00      	cmp	r2, #0
30009952:	ddf9      	ble.n	30009948 <system__secondary_stack__ss_init+0x14>
30009954:	490e      	ldr	r1, [pc, #56]	; (30009990 <system__secondary_stack__ss_init+0x5c>)
30009956:	681c      	ldr	r4, [r3, #0]
30009958:	680a      	ldr	r2, [r1, #0]
3000995a:	42a2      	cmp	r2, r4
3000995c:	daf4      	bge.n	30009948 <system__secondary_stack__ss_init+0x14>
3000995e:	480d      	ldr	r0, [pc, #52]	; (30009994 <system__secondary_stack__ss_init+0x60>)
30009960:	681b      	ldr	r3, [r3, #0]
30009962:	6800      	ldr	r0, [r0, #0]
30009964:	4b0c      	ldr	r3, [pc, #48]	; (30009998 <system__secondary_stack__ss_init+0x64>)
30009966:	ea20 70e0 	bic.w	r0, r0, r0, asr #31
3000996a:	3007      	adds	r0, #7
3000996c:	681c      	ldr	r4, [r3, #0]
3000996e:	f020 0007 	bic.w	r0, r0, #7
30009972:	1c53      	adds	r3, r2, #1
30009974:	3010      	adds	r0, #16
30009976:	fb02 4000 	mla	r0, r2, r0, r4
3000997a:	600b      	str	r3, [r1, #0]
3000997c:	2301      	movs	r3, #1
3000997e:	e9c0 3301 	strd	r3, r3, [r0, #4]
30009982:	bd10      	pop	{r4, pc}
30009984:	21ea      	movs	r1, #234	; 0xea
30009986:	4805      	ldr	r0, [pc, #20]	; (3000999c <system__secondary_stack__ss_init+0x68>)
30009988:	f7ff fd02 	bl	30009390 <__gnat_last_chance_handler>
3000998c:	3000d160 	.word	0x3000d160
30009990:	3000bd24 	.word	0x3000bd24
30009994:	3000d168 	.word	0x3000d168
30009998:	3000d164 	.word	0x3000d164
3000999c:	3000bc90 	.word	0x3000bc90

300099a0 <system__text_io__initialize>:
300099a0:	4770      	bx	lr
300099a2:	bf00      	nop

300099a4 <system__text_io__is_tx_ready>:
300099a4:	4b02      	ldr	r3, [pc, #8]	; (300099b0 <system__text_io__is_tx_ready+0xc>)
300099a6:	6818      	ldr	r0, [r3, #0]
300099a8:	f3c0 1080 	ubfx	r0, r0, #6, #1
300099ac:	4770      	bx	lr
300099ae:	bf00      	nop
300099b0:	4001381c 	.word	0x4001381c

300099b4 <system__text_io__put>:
300099b4:	4a02      	ldr	r2, [pc, #8]	; (300099c0 <system__text_io__put+0xc>)
300099b6:	6813      	ldr	r3, [r2, #0]
300099b8:	f360 0308 	bfi	r3, r0, #0, #9
300099bc:	6013      	str	r3, [r2, #0]
300099be:	4770      	bx	lr
300099c0:	40013828 	.word	0x40013828

300099c4 <system__text_io__use_cr_lf_for_new_line>:
300099c4:	2001      	movs	r0, #1
300099c6:	4770      	bx	lr

300099c8 <_stm32_start_common>:
300099c8:	f64e 5088 	movw	r0, #60808	; 0xed88
300099cc:	f2ce 0000 	movt	r0, #57344	; 0xe000
300099d0:	6801      	ldr	r1, [r0, #0]
300099d2:	f441 0170 	orr.w	r1, r1, #15728640	; 0xf00000
300099d6:	6001      	str	r1, [r0, #0]
300099d8:	f3bf 8f4f 	dsb	sy
300099dc:	f3bf 8f6f 	isb	sy
300099e0:	4770      	bx	lr

300099e2 <is_secure>:
300099e2:	e840 f000 	tt	r0, r0
300099e6:	0240      	lsls	r0, r0, #9
300099e8:	2800      	cmp	r0, #0
300099ea:	db02      	blt.n	300099f2 <secure_return>
300099ec:	f04f 0040 	mov.w	r0, #64	; 0x40
300099f0:	4770      	bx	lr

300099f2 <secure_return>:
300099f2:	f04f 0000 	mov.w	r0, #0
300099f6:	4770      	bx	lr

300099f8 <secure_code>:
300099f8:	00000001 	.word	0x00000001
300099fc:	00000000 	.word	0x00000000

30009a00 <_start_ram>:
30009a00:	f8df d02c 	ldr.w	sp, [pc, #44]	; 30009a30 <hang+0x2>
30009a04:	f7ff ffe0 	bl	300099c8 <_stm32_start_common>
30009a08:	f64b 5030 	movw	r0, #48432	; 0xbd30
30009a0c:	f2c3 0000 	movt	r0, #12288	; 0x3000
30009a10:	f240 5110 	movw	r1, #1296	; 0x510
30009a14:	f04f 0200 	mov.w	r2, #0
30009a18:	b119      	cbz	r1, 30009a22 <_start_ram+0x22>
30009a1a:	f840 2b04 	str.w	r2, [r0], #4
30009a1e:	3901      	subs	r1, #1
30009a20:	d1fb      	bne.n	30009a1a <_start_ram+0x1a>
30009a22:	f000 f807 	bl	30009a34 <_ada_setup_pll>
30009a26:	f7f6 fdb5 	bl	30000594 <main>
30009a2a:	f7ff feed 	bl	30009808 <_exit>

30009a2e <hang>:
30009a2e:	e7fe      	b.n	30009a2e <hang>
30009a30:	30015970 	.word	0x30015970

30009a34 <_ada_setup_pll>:
30009a34:	b500      	push	{lr}
30009a36:	4952      	ldr	r1, [pc, #328]	; (30009b80 <_ada_setup_pll+0x14c>)
30009a38:	4b52      	ldr	r3, [pc, #328]	; (30009b84 <_ada_setup_pll+0x150>)
30009a3a:	680a      	ldr	r2, [r1, #0]
30009a3c:	f042 5280 	orr.w	r2, r2, #268435456	; 0x10000000
30009a40:	600a      	str	r2, [r1, #0]
30009a42:	681a      	ldr	r2, [r3, #0]
30009a44:	f042 5280 	orr.w	r2, r2, #268435456	; 0x10000000
30009a48:	601a      	str	r2, [r3, #0]
30009a4a:	681a      	ldr	r2, [r3, #0]
30009a4c:	f36f 721c 	bfc	r2, #28, #1
30009a50:	601a      	str	r2, [r3, #0]
30009a52:	b083      	sub	sp, #12
30009a54:	f000 f8a2 	bl	30009b9c <system__bb__mcu_parameters__pwr_initialize>
30009a58:	4b4b      	ldr	r3, [pc, #300]	; (30009b88 <_ada_setup_pll+0x154>)
30009a5a:	681a      	ldr	r2, [r3, #0]
30009a5c:	f442 7280 	orr.w	r2, r2, #256	; 0x100
30009a60:	601a      	str	r2, [r3, #0]
30009a62:	681a      	ldr	r2, [r3, #0]
30009a64:	0552      	lsls	r2, r2, #21
30009a66:	d5fc      	bpl.n	30009a62 <_ada_setup_pll+0x2e>
30009a68:	4948      	ldr	r1, [pc, #288]	; (30009b8c <_ada_setup_pll+0x158>)
30009a6a:	680a      	ldr	r2, [r1, #0]
30009a6c:	f042 0201 	orr.w	r2, r2, #1
30009a70:	600a      	str	r2, [r1, #0]
30009a72:	680a      	ldr	r2, [r1, #0]
30009a74:	0790      	lsls	r0, r2, #30
30009a76:	d5fc      	bpl.n	30009a72 <_ada_setup_pll+0x3e>
30009a78:	681a      	ldr	r2, [r3, #0]
30009a7a:	4945      	ldr	r1, [pc, #276]	; (30009b90 <_ada_setup_pll+0x15c>)
30009a7c:	f36f 6218 	bfc	r2, #24, #1
30009a80:	601a      	str	r2, [r3, #0]
30009a82:	9a01      	ldr	r2, [sp, #4]
30009a84:	2002      	movs	r0, #2
30009a86:	f360 0201 	bfi	r2, r0, #0, #2
30009a8a:	9201      	str	r2, [sp, #4]
30009a8c:	9a01      	ldr	r2, [sp, #4]
30009a8e:	f36f 0283 	bfc	r2, #2, #2
30009a92:	9201      	str	r2, [sp, #4]
30009a94:	9a01      	ldr	r2, [sp, #4]
30009a96:	2003      	movs	r0, #3
30009a98:	f360 1207 	bfi	r2, r0, #4, #4
30009a9c:	9201      	str	r2, [sp, #4]
30009a9e:	9a01      	ldr	r2, [sp, #4]
30009aa0:	2037      	movs	r0, #55	; 0x37
30009aa2:	f360 220e 	bfi	r2, r0, #8, #7
30009aa6:	9201      	str	r2, [sp, #4]
30009aa8:	9a01      	ldr	r2, [sp, #4]
30009aaa:	f36f 32cf 	bfc	r2, #15, #1
30009aae:	9201      	str	r2, [sp, #4]
30009ab0:	9a01      	ldr	r2, [sp, #4]
30009ab2:	f36f 4210 	bfc	r2, #16, #1
30009ab6:	9201      	str	r2, [sp, #4]
30009ab8:	9a01      	ldr	r2, [sp, #4]
30009aba:	f36f 4251 	bfc	r2, #17, #1
30009abe:	9201      	str	r2, [sp, #4]
30009ac0:	9a01      	ldr	r2, [sp, #4]
30009ac2:	f36f 4293 	bfc	r2, #18, #2
30009ac6:	9201      	str	r2, [sp, #4]
30009ac8:	9a01      	ldr	r2, [sp, #4]
30009aca:	f36f 5214 	bfc	r2, #20, #1
30009ace:	9201      	str	r2, [sp, #4]
30009ad0:	9a01      	ldr	r2, [sp, #4]
30009ad2:	2001      	movs	r0, #1
30009ad4:	f360 5256 	bfi	r2, r0, #21, #2
30009ad8:	9201      	str	r2, [sp, #4]
30009ada:	9a01      	ldr	r2, [sp, #4]
30009adc:	f36f 52d7 	bfc	r2, #23, #1
30009ae0:	9201      	str	r2, [sp, #4]
30009ae2:	9a01      	ldr	r2, [sp, #4]
30009ae4:	f042 7280 	orr.w	r2, r2, #16777216	; 0x1000000
30009ae8:	9201      	str	r2, [sp, #4]
30009aea:	9a01      	ldr	r2, [sp, #4]
30009aec:	f36f 625a 	bfc	r2, #25, #2
30009af0:	9201      	str	r2, [sp, #4]
30009af2:	9a01      	ldr	r2, [sp, #4]
30009af4:	2007      	movs	r0, #7
30009af6:	f360 62df 	bfi	r2, r0, #27, #5
30009afa:	9201      	str	r2, [sp, #4]
30009afc:	9a01      	ldr	r2, [sp, #4]
30009afe:	600a      	str	r2, [r1, #0]
30009b00:	681a      	ldr	r2, [r3, #0]
30009b02:	f042 7280 	orr.w	r2, r2, #16777216	; 0x1000000
30009b06:	601a      	str	r2, [r3, #0]
30009b08:	681a      	ldr	r2, [r3, #0]
30009b0a:	0192      	lsls	r2, r2, #6
30009b0c:	d5fc      	bpl.n	30009b08 <_ada_setup_pll+0xd4>
30009b0e:	4921      	ldr	r1, [pc, #132]	; (30009b94 <_ada_setup_pll+0x160>)
30009b10:	4a21      	ldr	r2, [pc, #132]	; (30009b98 <_ada_setup_pll+0x164>)
30009b12:	680b      	ldr	r3, [r1, #0]
30009b14:	2005      	movs	r0, #5
30009b16:	f360 0303 	bfi	r3, r0, #0, #4
30009b1a:	600b      	str	r3, [r1, #0]
30009b1c:	9b00      	ldr	r3, [sp, #0]
30009b1e:	f043 0303 	orr.w	r3, r3, #3
30009b22:	9300      	str	r3, [sp, #0]
30009b24:	9b00      	ldr	r3, [sp, #0]
30009b26:	f36f 0383 	bfc	r3, #2, #2
30009b2a:	9300      	str	r3, [sp, #0]
30009b2c:	9b00      	ldr	r3, [sp, #0]
30009b2e:	f36f 1307 	bfc	r3, #4, #4
30009b32:	9300      	str	r3, [sp, #0]
30009b34:	9b00      	ldr	r3, [sp, #0]
30009b36:	f36f 230d 	bfc	r3, #8, #6
30009b3a:	9300      	str	r3, [sp, #0]
30009b3c:	9b00      	ldr	r3, [sp, #0]
30009b3e:	f36f 338e 	bfc	r3, #14, #1
30009b42:	9300      	str	r3, [sp, #0]
30009b44:	9b00      	ldr	r3, [sp, #0]
30009b46:	f36f 33cf 	bfc	r3, #15, #1
30009b4a:	9300      	str	r3, [sp, #0]
30009b4c:	9b00      	ldr	r3, [sp, #0]
30009b4e:	f36f 4317 	bfc	r3, #16, #8
30009b52:	9300      	str	r3, [sp, #0]
30009b54:	9b00      	ldr	r3, [sp, #0]
30009b56:	f36f 631b 	bfc	r3, #24, #4
30009b5a:	9300      	str	r3, [sp, #0]
30009b5c:	9b00      	ldr	r3, [sp, #0]
30009b5e:	f36f 731e 	bfc	r3, #28, #3
30009b62:	9300      	str	r3, [sp, #0]
30009b64:	9b00      	ldr	r3, [sp, #0]
30009b66:	f36f 73df 	bfc	r3, #31, #1
30009b6a:	9300      	str	r3, [sp, #0]
30009b6c:	9b00      	ldr	r3, [sp, #0]
30009b6e:	6013      	str	r3, [r2, #0]
30009b70:	6813      	ldr	r3, [r2, #0]
30009b72:	f003 030c 	and.w	r3, r3, #12
30009b76:	2b0c      	cmp	r3, #12
30009b78:	d1fa      	bne.n	30009b70 <_ada_setup_pll+0x13c>
30009b7a:	b003      	add	sp, #12
30009b7c:	f85d fb04 	ldr.w	pc, [sp], #4
30009b80:	50021058 	.word	0x50021058
30009b84:	50021038 	.word	0x50021038
30009b88:	50021000 	.word	0x50021000
30009b8c:	50021098 	.word	0x50021098
30009b90:	5002100c 	.word	0x5002100c
30009b94:	50022000 	.word	0x50022000
30009b98:	50021008 	.word	0x50021008

30009b9c <system__bb__mcu_parameters__pwr_initialize>:
30009b9c:	4908      	ldr	r1, [pc, #32]	; (30009bc0 <system__bb__mcu_parameters__pwr_initialize+0x24>)
30009b9e:	4a09      	ldr	r2, [pc, #36]	; (30009bc4 <system__bb__mcu_parameters__pwr_initialize+0x28>)
30009ba0:	680b      	ldr	r3, [r1, #0]
30009ba2:	2001      	movs	r0, #1
30009ba4:	f360 234a 	bfi	r3, r0, #9, #2
30009ba8:	600b      	str	r3, [r1, #0]
30009baa:	6813      	ldr	r3, [r2, #0]
30009bac:	f3c3 2380 	ubfx	r3, r3, #10, #1
30009bb0:	2b00      	cmp	r3, #0
30009bb2:	d1fa      	bne.n	30009baa <system__bb__mcu_parameters__pwr_initialize+0xe>
30009bb4:	680a      	ldr	r2, [r1, #0]
30009bb6:	f363 224a 	bfi	r2, r3, #9, #2
30009bba:	600a      	str	r2, [r1, #0]
30009bbc:	4770      	bx	lr
30009bbe:	bf00      	nop
30009bc0:	50007000 	.word	0x50007000
30009bc4:	50007014 	.word	0x50007014
