
vl53l0x_f103:     file format elf32-littlearm


Disassembly of section .text:

08000000 <__vectors0>:
 8000000:	200021c0 	.word	0x200021c0
 8000004:	0800a395 	.word	0x0800a395
 8000008:	0800a402 	.word	0x0800a402
 800000c:	0800a402 	.word	0x0800a402
 8000010:	0800a402 	.word	0x0800a402

08000014 <vl53l0x_f103__initialize_range_sensor.4821>:
 8000014:	b580      	push	{r7, lr}
 8000016:	b08a      	sub	sp, #40	; 0x28
 8000018:	af00      	add	r7, sp, #0
 800001a:	6178      	str	r0, [r7, #20]
 800001c:	6139      	str	r1, [r7, #16]
 800001e:	60fa      	str	r2, [r7, #12]
 8000020:	60bb      	str	r3, [r7, #8]
 8000022:	f8c7 c004 	str.w	ip, [r7, #4]
 8000026:	6938      	ldr	r0, [r7, #16]
 8000028:	f002 fa5e 	bl	80024e8 <stm32__device__enable_clock__2>
 800002c:	68f8      	ldr	r0, [r7, #12]
 800002e:	f002 fa5b 	bl	80024e8 <stm32__device__enable_clock__2>
 8000032:	68b8      	ldr	r0, [r7, #8]
 8000034:	f002 fa58 	bl	80024e8 <stm32__device__enable_clock__2>
 8000038:	6b38      	ldr	r0, [r7, #48]	; 0x30
 800003a:	f002 fa55 	bl	80024e8 <stm32__device__enable_clock__2>
 800003e:	697b      	ldr	r3, [r7, #20]
 8000040:	2b00      	cmp	r3, #0
 8000042:	d103      	bne.n	800004c <vl53l0x_f103__initialize_range_sensor.4821+0x38>
 8000044:	482f      	ldr	r0, [pc, #188]	; (8000104 <vl53l0x_f103__initialize_range_sensor.4821+0xf0>)
 8000046:	2130      	movs	r1, #48	; 0x30
 8000048:	f000 f980 	bl	800034c <__gnat_last_chance_handler>
 800004c:	6978      	ldr	r0, [r7, #20]
 800004e:	f002 fa8b 	bl	8002568 <stm32__device__enable_clock__7>
 8000052:	697b      	ldr	r3, [r7, #20]
 8000054:	2b00      	cmp	r3, #0
 8000056:	d103      	bne.n	8000060 <vl53l0x_f103__initialize_range_sensor.4821+0x4c>
 8000058:	482a      	ldr	r0, [pc, #168]	; (8000104 <vl53l0x_f103__initialize_range_sensor.4821+0xf0>)
 800005a:	2132      	movs	r1, #50	; 0x32
 800005c:	f000 f976 	bl	800034c <__gnat_last_chance_handler>
 8000060:	6978      	ldr	r0, [r7, #20]
 8000062:	f002 fabb 	bl	80025dc <stm32__device__reset__6>
 8000066:	2302      	movs	r3, #2
 8000068:	f887 3026 	strb.w	r3, [r7, #38]	; 0x26
 800006c:	2302      	movs	r3, #2
 800006e:	f887 3024 	strb.w	r3, [r7, #36]	; 0x24
 8000072:	2301      	movs	r3, #1
 8000074:	f887 3025 	strb.w	r3, [r7, #37]	; 0x25
 8000078:	2301      	movs	r3, #1
 800007a:	f887 3027 	strb.w	r3, [r7, #39]	; 0x27
 800007e:	6938      	ldr	r0, [r7, #16]
 8000080:	6a79      	ldr	r1, [r7, #36]	; 0x24
 8000082:	f006 feb3 	bl	8006dec <stm32__gpio__configure_io>
 8000086:	68f8      	ldr	r0, [r7, #12]
 8000088:	6a79      	ldr	r1, [r7, #36]	; 0x24
 800008a:	f006 feaf 	bl	8006dec <stm32__gpio__configure_io>
 800008e:	697b      	ldr	r3, [r7, #20]
 8000090:	2b00      	cmp	r3, #0
 8000092:	d103      	bne.n	800009c <vl53l0x_f103__initialize_range_sensor.4821+0x88>
 8000094:	481b      	ldr	r0, [pc, #108]	; (8000104 <vl53l0x_f103__initialize_range_sensor.4821+0xf0>)
 8000096:	213c      	movs	r1, #60	; 0x3c
 8000098:	f000 f958 	bl	800034c <__gnat_last_chance_handler>
 800009c:	4b1a      	ldr	r3, [pc, #104]	; (8000108 <vl53l0x_f103__initialize_range_sensor.4821+0xf4>)
 800009e:	61bb      	str	r3, [r7, #24]
 80000a0:	2300      	movs	r3, #0
 80000a2:	773b      	strb	r3, [r7, #28]
 80000a4:	2301      	movs	r3, #1
 80000a6:	777b      	strb	r3, [r7, #29]
 80000a8:	2300      	movs	r3, #0
 80000aa:	77bb      	strb	r3, [r7, #30]
 80000ac:	2300      	movs	r3, #0
 80000ae:	843b      	strh	r3, [r7, #32]
 80000b0:	2300      	movs	r3, #0
 80000b2:	f887 3022 	strb.w	r3, [r7, #34]	; 0x22
 80000b6:	2301      	movs	r3, #1
 80000b8:	f887 3023 	strb.w	r3, [r7, #35]	; 0x23
 80000bc:	f107 0318 	add.w	r3, r7, #24
 80000c0:	6978      	ldr	r0, [r7, #20]
 80000c2:	4619      	mov	r1, r3
 80000c4:	f004 faf4 	bl	80046b0 <stm32__i2c__configure>
 80000c8:	2301      	movs	r3, #1
 80000ca:	f887 3024 	strb.w	r3, [r7, #36]	; 0x24
 80000ce:	2300      	movs	r3, #0
 80000d0:	f887 3025 	strb.w	r3, [r7, #37]	; 0x25
 80000d4:	2300      	movs	r3, #0
 80000d6:	f887 3026 	strb.w	r3, [r7, #38]	; 0x26
 80000da:	2300      	movs	r3, #0
 80000dc:	f887 3027 	strb.w	r3, [r7, #39]	; 0x27
 80000e0:	68b8      	ldr	r0, [r7, #8]
 80000e2:	6a79      	ldr	r1, [r7, #36]	; 0x24
 80000e4:	f006 fe82 	bl	8006dec <stm32__gpio__configure_io>
 80000e8:	2300      	movs	r3, #0
 80000ea:	f887 3024 	strb.w	r3, [r7, #36]	; 0x24
 80000ee:	2300      	movs	r3, #0
 80000f0:	f887 3027 	strb.w	r3, [r7, #39]	; 0x27
 80000f4:	6b38      	ldr	r0, [r7, #48]	; 0x30
 80000f6:	6a79      	ldr	r1, [r7, #36]	; 0x24
 80000f8:	f006 fe78 	bl	8006dec <stm32__gpio__configure_io>
 80000fc:	3728      	adds	r7, #40	; 0x28
 80000fe:	46bd      	mov	sp, r7
 8000100:	bd80      	pop	{r7, pc}
 8000102:	bf00      	nop
 8000104:	0800b000 	.word	0x0800b000
 8000108:	000186a0 	.word	0x000186a0

0800010c <_ada_vl53l0x_f103>:
 800010c:	b580      	push	{r7, lr}
 800010e:	b0a8      	sub	sp, #160	; 0xa0
 8000110:	af02      	add	r7, sp, #8
 8000112:	f107 03a0 	add.w	r3, r7, #160	; 0xa0
 8000116:	603b      	str	r3, [r7, #0]
 8000118:	1d3b      	adds	r3, r7, #4
 800011a:	4618      	mov	r0, r3
 800011c:	493b      	ldr	r1, [pc, #236]	; (800020c <_ada_vl53l0x_f103+0x100>)
 800011e:	f000 f9ab 	bl	8000478 <vl53l0x__vl53l0x_ranging_sensorIP>
 8000122:	2304      	movs	r3, #4
 8000124:	f887 3096 	strb.w	r3, [r7, #150]	; 0x96
 8000128:	f000 f96e 	bl	8000408 <stm32__board__initialize_board>
 800012c:	4838      	ldr	r0, [pc, #224]	; (8000210 <_ada_vl53l0x_f103+0x104>)
 800012e:	f006 fd45 	bl	8006bbc <stm32__gpio__set__2>
 8000132:	463a      	mov	r2, r7
 8000134:	4b37      	ldr	r3, [pc, #220]	; (8000214 <_ada_vl53l0x_f103+0x108>)
 8000136:	9300      	str	r3, [sp, #0]
 8000138:	2300      	movs	r3, #0
 800013a:	9301      	str	r3, [sp, #4]
 800013c:	4694      	mov	ip, r2
 800013e:	4833      	ldr	r0, [pc, #204]	; (800020c <_ada_vl53l0x_f103+0x100>)
 8000140:	4935      	ldr	r1, [pc, #212]	; (8000218 <_ada_vl53l0x_f103+0x10c>)
 8000142:	4a36      	ldr	r2, [pc, #216]	; (800021c <_ada_vl53l0x_f103+0x110>)
 8000144:	4b36      	ldr	r3, [pc, #216]	; (8000220 <_ada_vl53l0x_f103+0x114>)
 8000146:	f7ff ff65 	bl	8000014 <vl53l0x_f103__initialize_range_sensor.4821>
 800014a:	1d3b      	adds	r3, r7, #4
 800014c:	4618      	mov	r0, r3
 800014e:	f000 fc17 	bl	8000980 <vl53l0x__initialize>
 8000152:	1d3b      	adds	r3, r7, #4
 8000154:	4618      	mov	r0, r3
 8000156:	f000 fc3b 	bl	80009d0 <vl53l0x__data_init>
 800015a:	4603      	mov	r3, r0
 800015c:	f887 3097 	strb.w	r3, [r7, #151]	; 0x97
 8000160:	1d3b      	adds	r3, r7, #4
 8000162:	4618      	mov	r0, r3
 8000164:	2104      	movs	r1, #4
 8000166:	f000 fd23 	bl	8000bb0 <vl53l0x__static_init>
 800016a:	4603      	mov	r3, r0
 800016c:	f887 3097 	strb.w	r3, [r7, #151]	; 0x97
 8000170:	f897 3097 	ldrb.w	r3, [r7, #151]	; 0x97
 8000174:	2b00      	cmp	r3, #0
 8000176:	d006      	beq.n	8000186 <_ada_vl53l0x_f103+0x7a>
 8000178:	1d3b      	adds	r3, r7, #4
 800017a:	4618      	mov	r0, r3
 800017c:	f001 f932 	bl	80013e4 <vl53l0x__perform_ref_calibration>
 8000180:	4603      	mov	r3, r0
 8000182:	f887 3097 	strb.w	r3, [r7, #151]	; 0x97
 8000186:	f897 3097 	ldrb.w	r3, [r7, #151]	; 0x97
 800018a:	2b00      	cmp	r3, #0
 800018c:	d01d      	beq.n	80001ca <_ada_vl53l0x_f103+0xbe>
 800018e:	1d3b      	adds	r3, r7, #4
 8000190:	4618      	mov	r0, r3
 8000192:	f641 1199 	movw	r1, #6553	; 0x1999
 8000196:	f001 fe63 	bl	8001e60 <vl53l0x__set_signal_rate_limit>
 800019a:	1d3b      	adds	r3, r7, #4
 800019c:	4618      	mov	r0, r3
 800019e:	4921      	ldr	r1, [pc, #132]	; (8000224 <_ada_vl53l0x_f103+0x118>)
 80001a0:	f001 fc7c 	bl	8001a9c <vl53l0x__set_measurement_timing_budget>
 80001a4:	4603      	mov	r3, r0
 80001a6:	f887 3097 	strb.w	r3, [r7, #151]	; 0x97
 80001aa:	1d3b      	adds	r3, r7, #4
 80001ac:	4618      	mov	r0, r3
 80001ae:	2112      	movs	r1, #18
 80001b0:	f001 fe76 	bl	8001ea0 <vl53l0x__set_vcsel_pulse_period_pre_range>
 80001b4:	4603      	mov	r3, r0
 80001b6:	f887 3097 	strb.w	r3, [r7, #151]	; 0x97
 80001ba:	1d3b      	adds	r3, r7, #4
 80001bc:	4618      	mov	r0, r3
 80001be:	210e      	movs	r1, #14
 80001c0:	f001 fe82 	bl	8001ec8 <vl53l0x__set_vcsel_pulse_period_final_range>
 80001c4:	4603      	mov	r3, r0
 80001c6:	f887 3097 	strb.w	r3, [r7, #151]	; 0x97
 80001ca:	1d3b      	adds	r3, r7, #4
 80001cc:	4618      	mov	r0, r3
 80001ce:	f001 fa03 	bl	80015d8 <vl53l0x__read_range_single_millimeters>
 80001d2:	4603      	mov	r3, r0
 80001d4:	f8a7 3094 	strh.w	r3, [r7, #148]	; 0x94
 80001d8:	f8b7 3094 	ldrh.w	r3, [r7, #148]	; 0x94
 80001dc:	f5b3 6f7a 	cmp.w	r3, #4000	; 0xfa0
 80001e0:	d107      	bne.n	80001f2 <_ada_vl53l0x_f103+0xe6>
 80001e2:	1d3b      	adds	r3, r7, #4
 80001e4:	4618      	mov	r0, r3
 80001e6:	f001 f8fd 	bl	80013e4 <vl53l0x__perform_ref_calibration>
 80001ea:	4603      	mov	r3, r0
 80001ec:	f887 3097 	strb.w	r3, [r7, #151]	; 0x97
 80001f0:	e7eb      	b.n	80001ca <_ada_vl53l0x_f103+0xbe>
 80001f2:	f8b7 3094 	ldrh.w	r3, [r7, #148]	; 0x94
 80001f6:	f5b3 7f7a 	cmp.w	r3, #1000	; 0x3e8
 80001fa:	d903      	bls.n	8000204 <_ada_vl53l0x_f103+0xf8>
 80001fc:	4804      	ldr	r0, [pc, #16]	; (8000210 <_ada_vl53l0x_f103+0x104>)
 80001fe:	f006 fd0b 	bl	8006c18 <stm32__gpio__clear>
 8000202:	e7e2      	b.n	80001ca <_ada_vl53l0x_f103+0xbe>
 8000204:	4802      	ldr	r0, [pc, #8]	; (8000210 <_ada_vl53l0x_f103+0x104>)
 8000206:	f006 fcd9 	bl	8006bbc <stm32__gpio__set__2>
 800020a:	e7de      	b.n	80001ca <_ada_vl53l0x_f103+0xbe>
 800020c:	20000638 	.word	0x20000638
 8000210:	200002ec 	.word	0x200002ec
 8000214:	200001cc 	.word	0x200001cc
 8000218:	200001d8 	.word	0x200001d8
 800021c:	200001e4 	.word	0x200001e4
 8000220:	200001c0 	.word	0x200001c0
 8000224:	000186a0 	.word	0x000186a0

08000228 <adainit>:
 8000228:	b580      	push	{r7, lr}
 800022a:	af00      	add	r7, sp, #0
 800022c:	bf00      	nop
 800022e:	f00a f959 	bl	800a4e4 <ada__text_io___elabb>
 8000232:	4b32      	ldr	r3, [pc, #200]	; (80002fc <adainit+0xd4>)
 8000234:	881b      	ldrh	r3, [r3, #0]
 8000236:	b29b      	uxth	r3, r3
 8000238:	3301      	adds	r3, #1
 800023a:	b29a      	uxth	r2, r3
 800023c:	4b2f      	ldr	r3, [pc, #188]	; (80002fc <adainit+0xd4>)
 800023e:	801a      	strh	r2, [r3, #0]
 8000240:	f009 f888 	bl	8009354 <ada__real_time___elabb>
 8000244:	4b2e      	ldr	r3, [pc, #184]	; (8000300 <adainit+0xd8>)
 8000246:	881b      	ldrh	r3, [r3, #0]
 8000248:	b29b      	uxth	r3, r3
 800024a:	3301      	adds	r3, #1
 800024c:	b29a      	uxth	r2, r3
 800024e:	4b2c      	ldr	r3, [pc, #176]	; (8000300 <adainit+0xd8>)
 8000250:	801a      	strh	r2, [r3, #0]
 8000252:	f008 fecd 	bl	8008ff0 <stm32__adc___elabs>
 8000256:	4b2b      	ldr	r3, [pc, #172]	; (8000304 <adainit+0xdc>)
 8000258:	881b      	ldrh	r3, [r3, #0]
 800025a:	b29b      	uxth	r3, r3
 800025c:	3301      	adds	r3, #1
 800025e:	b29a      	uxth	r2, r3
 8000260:	4b28      	ldr	r3, [pc, #160]	; (8000304 <adainit+0xdc>)
 8000262:	801a      	strh	r2, [r3, #0]
 8000264:	4b28      	ldr	r3, [pc, #160]	; (8000308 <adainit+0xe0>)
 8000266:	881b      	ldrh	r3, [r3, #0]
 8000268:	b29b      	uxth	r3, r3
 800026a:	3301      	adds	r3, #1
 800026c:	b29a      	uxth	r2, r3
 800026e:	4b26      	ldr	r3, [pc, #152]	; (8000308 <adainit+0xe0>)
 8000270:	801a      	strh	r2, [r3, #0]
 8000272:	4b26      	ldr	r3, [pc, #152]	; (800030c <adainit+0xe4>)
 8000274:	881b      	ldrh	r3, [r3, #0]
 8000276:	b29b      	uxth	r3, r3
 8000278:	3301      	adds	r3, #1
 800027a:	b29a      	uxth	r2, r3
 800027c:	4b23      	ldr	r3, [pc, #140]	; (800030c <adainit+0xe4>)
 800027e:	801a      	strh	r2, [r3, #0]
 8000280:	4b23      	ldr	r3, [pc, #140]	; (8000310 <adainit+0xe8>)
 8000282:	881b      	ldrh	r3, [r3, #0]
 8000284:	b29b      	uxth	r3, r3
 8000286:	3301      	adds	r3, #1
 8000288:	b29a      	uxth	r2, r3
 800028a:	4b21      	ldr	r3, [pc, #132]	; (8000310 <adainit+0xe8>)
 800028c:	801a      	strh	r2, [r3, #0]
 800028e:	4b21      	ldr	r3, [pc, #132]	; (8000314 <adainit+0xec>)
 8000290:	881b      	ldrh	r3, [r3, #0]
 8000292:	b29b      	uxth	r3, r3
 8000294:	3301      	adds	r3, #1
 8000296:	b29a      	uxth	r2, r3
 8000298:	4b1e      	ldr	r3, [pc, #120]	; (8000314 <adainit+0xec>)
 800029a:	801a      	strh	r2, [r3, #0]
 800029c:	f002 fadc 	bl	8002858 <stm32__device___elabs>
 80002a0:	4b1d      	ldr	r3, [pc, #116]	; (8000318 <adainit+0xf0>)
 80002a2:	881b      	ldrh	r3, [r3, #0]
 80002a4:	b29b      	uxth	r3, r3
 80002a6:	3301      	adds	r3, #1
 80002a8:	b29a      	uxth	r2, r3
 80002aa:	4b1b      	ldr	r3, [pc, #108]	; (8000318 <adainit+0xf0>)
 80002ac:	801a      	strh	r2, [r3, #0]
 80002ae:	4b1b      	ldr	r3, [pc, #108]	; (800031c <adainit+0xf4>)
 80002b0:	881b      	ldrh	r3, [r3, #0]
 80002b2:	b29b      	uxth	r3, r3
 80002b4:	3301      	adds	r3, #1
 80002b6:	b29a      	uxth	r2, r3
 80002b8:	4b18      	ldr	r3, [pc, #96]	; (800031c <adainit+0xf4>)
 80002ba:	801a      	strh	r2, [r3, #0]
 80002bc:	4b18      	ldr	r3, [pc, #96]	; (8000320 <adainit+0xf8>)
 80002be:	881b      	ldrh	r3, [r3, #0]
 80002c0:	b29b      	uxth	r3, r3
 80002c2:	3301      	adds	r3, #1
 80002c4:	b29a      	uxth	r2, r3
 80002c6:	4b16      	ldr	r3, [pc, #88]	; (8000320 <adainit+0xf8>)
 80002c8:	801a      	strh	r2, [r3, #0]
 80002ca:	4b16      	ldr	r3, [pc, #88]	; (8000324 <adainit+0xfc>)
 80002cc:	881b      	ldrh	r3, [r3, #0]
 80002ce:	b29b      	uxth	r3, r3
 80002d0:	3301      	adds	r3, #1
 80002d2:	b29a      	uxth	r2, r3
 80002d4:	4b13      	ldr	r3, [pc, #76]	; (8000324 <adainit+0xfc>)
 80002d6:	801a      	strh	r2, [r3, #0]
 80002d8:	4b13      	ldr	r3, [pc, #76]	; (8000328 <adainit+0x100>)
 80002da:	881b      	ldrh	r3, [r3, #0]
 80002dc:	b29b      	uxth	r3, r3
 80002de:	3301      	adds	r3, #1
 80002e0:	b29a      	uxth	r2, r3
 80002e2:	4b11      	ldr	r3, [pc, #68]	; (8000328 <adainit+0x100>)
 80002e4:	801a      	strh	r2, [r3, #0]
 80002e6:	4b11      	ldr	r3, [pc, #68]	; (800032c <adainit+0x104>)
 80002e8:	881b      	ldrh	r3, [r3, #0]
 80002ea:	b29b      	uxth	r3, r3
 80002ec:	3301      	adds	r3, #1
 80002ee:	b29a      	uxth	r2, r3
 80002f0:	4b0e      	ldr	r3, [pc, #56]	; (800032c <adainit+0x104>)
 80002f2:	801a      	strh	r2, [r3, #0]
 80002f4:	f009 f830 	bl	8009358 <__gnat_start_slave_cpus>
 80002f8:	bd80      	pop	{r7, pc}
 80002fa:	bf00      	nop
 80002fc:	200000c8 	.word	0x200000c8
 8000300:	20000068 	.word	0x20000068
 8000304:	20000062 	.word	0x20000062
 8000308:	20000066 	.word	0x20000066
 800030c:	20000064 	.word	0x20000064
 8000310:	2000005e 	.word	0x2000005e
 8000314:	2000005c 	.word	0x2000005c
 8000318:	20000004 	.word	0x20000004
 800031c:	20000058 	.word	0x20000058
 8000320:	20000060 	.word	0x20000060
 8000324:	2000005a 	.word	0x2000005a
 8000328:	20000000 	.word	0x20000000
 800032c:	20000002 	.word	0x20000002

08000330 <main>:
 8000330:	b580      	push	{r7, lr}
 8000332:	b082      	sub	sp, #8
 8000334:	af00      	add	r7, sp, #0
 8000336:	4b04      	ldr	r3, [pc, #16]	; (8000348 <main+0x18>)
 8000338:	607b      	str	r3, [r7, #4]
 800033a:	f7ff ff75 	bl	8000228 <adainit>
 800033e:	f7ff fee5 	bl	800010c <_ada_vl53l0x_f103>
 8000342:	3708      	adds	r7, #8
 8000344:	46bd      	mov	sp, r7
 8000346:	bd80      	pop	{r7, pc}
 8000348:	0800b014 	.word	0x0800b014

0800034c <__gnat_last_chance_handler>:
 800034c:	b5f0      	push	{r4, r5, r6, r7, lr}
 800034e:	b083      	sub	sp, #12
 8000350:	af00      	add	r7, sp, #0
 8000352:	6078      	str	r0, [r7, #4]
 8000354:	6039      	str	r1, [r7, #0]
 8000356:	f000 f837 	bl	80003c8 <stm32__board__initialize_leds>
 800035a:	f000 f84d 	bl	80003f8 <stm32__board__all_leds_off>
 800035e:	4819      	ldr	r0, [pc, #100]	; (80003c4 <__gnat_last_chance_handler+0x78>)
 8000360:	f006 fc5a 	bl	8006c18 <stm32__gpio__clear>
 8000364:	f008 ff90 	bl	8009288 <ada__real_time__clock>
 8000368:	4605      	mov	r5, r0
 800036a:	460e      	mov	r6, r1
 800036c:	f44f 70fa 	mov.w	r0, #500	; 0x1f4
 8000370:	f008 ffd2 	bl	8009318 <ada__real_time__milliseconds>
 8000374:	4603      	mov	r3, r0
 8000376:	460c      	mov	r4, r1
 8000378:	4628      	mov	r0, r5
 800037a:	4631      	mov	r1, r6
 800037c:	461a      	mov	r2, r3
 800037e:	4623      	mov	r3, r4
 8000380:	f008 ff28 	bl	80091d4 <ada__real_time__Oadd>
 8000384:	4603      	mov	r3, r0
 8000386:	460c      	mov	r4, r1
 8000388:	4618      	mov	r0, r3
 800038a:	4621      	mov	r1, r4
 800038c:	f009 fb8c 	bl	8009aa8 <ada__real_time__delays__delay_until>
 8000390:	480c      	ldr	r0, [pc, #48]	; (80003c4 <__gnat_last_chance_handler+0x78>)
 8000392:	f006 fc13 	bl	8006bbc <stm32__gpio__set__2>
 8000396:	f008 ff77 	bl	8009288 <ada__real_time__clock>
 800039a:	4605      	mov	r5, r0
 800039c:	460e      	mov	r6, r1
 800039e:	f44f 70fa 	mov.w	r0, #500	; 0x1f4
 80003a2:	f008 ffb9 	bl	8009318 <ada__real_time__milliseconds>
 80003a6:	4603      	mov	r3, r0
 80003a8:	460c      	mov	r4, r1
 80003aa:	4628      	mov	r0, r5
 80003ac:	4631      	mov	r1, r6
 80003ae:	461a      	mov	r2, r3
 80003b0:	4623      	mov	r3, r4
 80003b2:	f008 ff0f 	bl	80091d4 <ada__real_time__Oadd>
 80003b6:	4603      	mov	r3, r0
 80003b8:	460c      	mov	r4, r1
 80003ba:	4618      	mov	r0, r3
 80003bc:	4621      	mov	r1, r4
 80003be:	f009 fb73 	bl	8009aa8 <ada__real_time__delays__delay_until>
 80003c2:	e7cc      	b.n	800035e <__gnat_last_chance_handler+0x12>
 80003c4:	200002ec 	.word	0x200002ec

080003c8 <stm32__board__initialize_leds>:
 80003c8:	b580      	push	{r7, lr}
 80003ca:	b082      	sub	sp, #8
 80003cc:	af00      	add	r7, sp, #0
 80003ce:	4809      	ldr	r0, [pc, #36]	; (80003f4 <stm32__board__initialize_leds+0x2c>)
 80003d0:	f002 f88a 	bl	80024e8 <stm32__device__enable_clock__2>
 80003d4:	2301      	movs	r3, #1
 80003d6:	713b      	strb	r3, [r7, #4]
 80003d8:	2300      	movs	r3, #0
 80003da:	717b      	strb	r3, [r7, #5]
 80003dc:	2300      	movs	r3, #0
 80003de:	71bb      	strb	r3, [r7, #6]
 80003e0:	2300      	movs	r3, #0
 80003e2:	71fb      	strb	r3, [r7, #7]
 80003e4:	4803      	ldr	r0, [pc, #12]	; (80003f4 <stm32__board__initialize_leds+0x2c>)
 80003e6:	6879      	ldr	r1, [r7, #4]
 80003e8:	f006 fd00 	bl	8006dec <stm32__gpio__configure_io>
 80003ec:	3708      	adds	r7, #8
 80003ee:	46bd      	mov	sp, r7
 80003f0:	bd80      	pop	{r7, pc}
 80003f2:	bf00      	nop
 80003f4:	200002ec 	.word	0x200002ec

080003f8 <stm32__board__all_leds_off>:
 80003f8:	b580      	push	{r7, lr}
 80003fa:	af00      	add	r7, sp, #0
 80003fc:	4801      	ldr	r0, [pc, #4]	; (8000404 <stm32__board__all_leds_off+0xc>)
 80003fe:	f006 fbdd 	bl	8006bbc <stm32__gpio__set__2>
 8000402:	bd80      	pop	{r7, pc}
 8000404:	200002ec 	.word	0x200002ec

08000408 <stm32__board__initialize_board>:
 8000408:	b580      	push	{r7, lr}
 800040a:	af00      	add	r7, sp, #0
 800040c:	f006 fe06 	bl	800701c <stm32__gpio__configure_af_swd>
 8000410:	f7ff ffda 	bl	80003c8 <stm32__board__initialize_leds>
 8000414:	bd80      	pop	{r7, pc}
 8000416:	bf00      	nop

08000418 <vl53l0x__vl53l0x_device_specific_parametersIP>:
 8000418:	b480      	push	{r7}
 800041a:	b083      	sub	sp, #12
 800041c:	af00      	add	r7, sp, #0
 800041e:	6078      	str	r0, [r7, #4]
 8000420:	687b      	ldr	r3, [r7, #4]
 8000422:	2200      	movs	r2, #0
 8000424:	601a      	str	r2, [r3, #0]
 8000426:	687b      	ldr	r3, [r7, #4]
 8000428:	2200      	movs	r2, #0
 800042a:	809a      	strh	r2, [r3, #4]
 800042c:	687b      	ldr	r3, [r7, #4]
 800042e:	2200      	movs	r2, #0
 8000430:	719a      	strb	r2, [r3, #6]
 8000432:	687b      	ldr	r3, [r7, #4]
 8000434:	2200      	movs	r2, #0
 8000436:	609a      	str	r2, [r3, #8]
 8000438:	687b      	ldr	r3, [r7, #4]
 800043a:	2200      	movs	r2, #0
 800043c:	731a      	strb	r2, [r3, #12]
 800043e:	687b      	ldr	r3, [r7, #4]
 8000440:	2200      	movs	r2, #0
 8000442:	611a      	str	r2, [r3, #16]
 8000444:	687b      	ldr	r3, [r7, #4]
 8000446:	2200      	movs	r2, #0
 8000448:	751a      	strb	r2, [r3, #20]
 800044a:	687b      	ldr	r3, [r7, #4]
 800044c:	2200      	movs	r2, #0
 800044e:	82da      	strh	r2, [r3, #22]
 8000450:	687b      	ldr	r3, [r7, #4]
 8000452:	2200      	movs	r2, #0
 8000454:	831a      	strh	r2, [r3, #24]
 8000456:	687b      	ldr	r3, [r7, #4]
 8000458:	2200      	movs	r2, #0
 800045a:	835a      	strh	r2, [r3, #26]
 800045c:	687b      	ldr	r3, [r7, #4]
 800045e:	2200      	movs	r2, #0
 8000460:	f883 2038 	strb.w	r2, [r3, #56]	; 0x38
 8000464:	687b      	ldr	r3, [r7, #4]
 8000466:	2200      	movs	r2, #0
 8000468:	f883 203d 	strb.w	r2, [r3, #61]	; 0x3d
 800046c:	370c      	adds	r7, #12
 800046e:	46bd      	mov	sp, r7
 8000470:	f85d 7b04 	ldr.w	r7, [sp], #4
 8000474:	4770      	bx	lr
 8000476:	bf00      	nop

08000478 <vl53l0x__vl53l0x_ranging_sensorIP>:
 8000478:	b580      	push	{r7, lr}
 800047a:	b082      	sub	sp, #8
 800047c:	af00      	add	r7, sp, #0
 800047e:	6078      	str	r0, [r7, #4]
 8000480:	6039      	str	r1, [r7, #0]
 8000482:	687b      	ldr	r3, [r7, #4]
 8000484:	683a      	ldr	r2, [r7, #0]
 8000486:	601a      	str	r2, [r3, #0]
 8000488:	687b      	ldr	r3, [r7, #4]
 800048a:	2252      	movs	r2, #82	; 0x52
 800048c:	809a      	strh	r2, [r3, #4]
 800048e:	687b      	ldr	r3, [r7, #4]
 8000490:	3308      	adds	r3, #8
 8000492:	4618      	mov	r0, r3
 8000494:	f7ff ffc0 	bl	8000418 <vl53l0x__vl53l0x_device_specific_parametersIP>
 8000498:	3708      	adds	r7, #8
 800049a:	46bd      	mov	sp, r7
 800049c:	bd80      	pop	{r7, pc}
 800049e:	bf00      	nop

080004a0 <vl53l0x__i2c_write>:
 80004a0:	b590      	push	{r4, r7, lr}
 80004a2:	b089      	sub	sp, #36	; 0x24
 80004a4:	af02      	add	r7, sp, #8
 80004a6:	60f8      	str	r0, [r7, #12]
 80004a8:	e9c7 2300 	strd	r2, r3, [r7]
 80004ac:	68fb      	ldr	r3, [r7, #12]
 80004ae:	681b      	ldr	r3, [r3, #0]
 80004b0:	681b      	ldr	r3, [r3, #0]
 80004b2:	681c      	ldr	r4, [r3, #0]
 80004b4:	68fb      	ldr	r3, [r7, #12]
 80004b6:	6819      	ldr	r1, [r3, #0]
 80004b8:	68fb      	ldr	r3, [r7, #12]
 80004ba:	889a      	ldrh	r2, [r3, #4]
 80004bc:	f44f 737a 	mov.w	r3, #1000	; 0x3e8
 80004c0:	9300      	str	r3, [sp, #0]
 80004c2:	4608      	mov	r0, r1
 80004c4:	4611      	mov	r1, r2
 80004c6:	e9d7 2300 	ldrd	r2, r3, [r7]
 80004ca:	47a0      	blx	r4
 80004cc:	4603      	mov	r3, r0
 80004ce:	75fb      	strb	r3, [r7, #23]
 80004d0:	7dfb      	ldrb	r3, [r7, #23]
 80004d2:	2b00      	cmp	r3, #0
 80004d4:	bf0c      	ite	eq
 80004d6:	2301      	moveq	r3, #1
 80004d8:	2300      	movne	r3, #0
 80004da:	b2db      	uxtb	r3, r3
 80004dc:	75bb      	strb	r3, [r7, #22]
 80004de:	7dbb      	ldrb	r3, [r7, #22]
 80004e0:	bf00      	nop
 80004e2:	4618      	mov	r0, r3
 80004e4:	371c      	adds	r7, #28
 80004e6:	46bd      	mov	sp, r7
 80004e8:	bd90      	pop	{r4, r7, pc}
 80004ea:	bf00      	nop

080004ec <vl53l0x__i2c_read>:
 80004ec:	b590      	push	{r4, r7, lr}
 80004ee:	b089      	sub	sp, #36	; 0x24
 80004f0:	af02      	add	r7, sp, #8
 80004f2:	60f8      	str	r0, [r7, #12]
 80004f4:	e9c7 2300 	strd	r2, r3, [r7]
 80004f8:	68fb      	ldr	r3, [r7, #12]
 80004fa:	681b      	ldr	r3, [r3, #0]
 80004fc:	681b      	ldr	r3, [r3, #0]
 80004fe:	685c      	ldr	r4, [r3, #4]
 8000500:	68fb      	ldr	r3, [r7, #12]
 8000502:	6819      	ldr	r1, [r3, #0]
 8000504:	68fb      	ldr	r3, [r7, #12]
 8000506:	889a      	ldrh	r2, [r3, #4]
 8000508:	f44f 737a 	mov.w	r3, #1000	; 0x3e8
 800050c:	9300      	str	r3, [sp, #0]
 800050e:	4608      	mov	r0, r1
 8000510:	4611      	mov	r1, r2
 8000512:	e9d7 2300 	ldrd	r2, r3, [r7]
 8000516:	47a0      	blx	r4
 8000518:	4603      	mov	r3, r0
 800051a:	75fb      	strb	r3, [r7, #23]
 800051c:	7dfb      	ldrb	r3, [r7, #23]
 800051e:	2b00      	cmp	r3, #0
 8000520:	bf0c      	ite	eq
 8000522:	2301      	moveq	r3, #1
 8000524:	2300      	movne	r3, #0
 8000526:	b2db      	uxtb	r3, r3
 8000528:	75bb      	strb	r3, [r7, #22]
 800052a:	7dbb      	ldrb	r3, [r7, #22]
 800052c:	bf00      	nop
 800052e:	4618      	mov	r0, r3
 8000530:	371c      	adds	r7, #28
 8000532:	46bd      	mov	sp, r7
 8000534:	bd90      	pop	{r4, r7, pc}
 8000536:	bf00      	nop

08000538 <vl53l0x__write>:
 8000538:	b5f0      	push	{r4, r5, r6, r7, lr}
 800053a:	b08d      	sub	sp, #52	; 0x34
 800053c:	af00      	add	r7, sp, #0
 800053e:	60f8      	str	r0, [r7, #12]
 8000540:	e9c7 2300 	strd	r2, r3, [r7]
 8000544:	460b      	mov	r3, r1
 8000546:	72fb      	strb	r3, [r7, #11]
 8000548:	687b      	ldr	r3, [r7, #4]
 800054a:	681b      	ldr	r3, [r3, #0]
 800054c:	687a      	ldr	r2, [r7, #4]
 800054e:	6852      	ldr	r2, [r2, #4]
 8000550:	429a      	cmp	r2, r3
 8000552:	db02      	blt.n	800055a <vl53l0x__write+0x22>
 8000554:	1ad3      	subs	r3, r2, r3
 8000556:	3301      	adds	r3, #1
 8000558:	e000      	b.n	800055c <vl53l0x__write+0x24>
 800055a:	2300      	movs	r3, #0
 800055c:	466a      	mov	r2, sp
 800055e:	4616      	mov	r6, r2
 8000560:	3301      	adds	r3, #1
 8000562:	62fb      	str	r3, [r7, #44]	; 0x2c
 8000564:	6afa      	ldr	r2, [r7, #44]	; 0x2c
 8000566:	ea22 72e2 	bic.w	r2, r2, r2, asr #31
 800056a:	62ba      	str	r2, [r7, #40]	; 0x28
 800056c:	6afa      	ldr	r2, [r7, #44]	; 0x2c
 800056e:	ea22 72e2 	bic.w	r2, r2, r2, asr #31
 8000572:	3207      	adds	r2, #7
 8000574:	08d2      	lsrs	r2, r2, #3
 8000576:	00d2      	lsls	r2, r2, #3
 8000578:	ebad 0d02 	sub.w	sp, sp, r2
 800057c:	466a      	mov	r2, sp
 800057e:	3200      	adds	r2, #0
 8000580:	627a      	str	r2, [r7, #36]	; 0x24
 8000582:	6a7a      	ldr	r2, [r7, #36]	; 0x24
 8000584:	7af9      	ldrb	r1, [r7, #11]
 8000586:	7011      	strb	r1, [r2, #0]
 8000588:	2b01      	cmp	r3, #1
 800058a:	bfb8      	it	lt
 800058c:	2301      	movlt	r3, #1
 800058e:	1e5a      	subs	r2, r3, #1
 8000590:	6839      	ldr	r1, [r7, #0]
 8000592:	6a7b      	ldr	r3, [r7, #36]	; 0x24
 8000594:	3301      	adds	r3, #1
 8000596:	4618      	mov	r0, r3
 8000598:	4613      	mov	r3, r2
 800059a:	461a      	mov	r2, r3
 800059c:	f009 ffdc 	bl	800a558 <memcpy>
 80005a0:	6afb      	ldr	r3, [r7, #44]	; 0x2c
 80005a2:	ea23 73e3 	bic.w	r3, r3, r3, asr #31
 80005a6:	623b      	str	r3, [r7, #32]
 80005a8:	6a7b      	ldr	r3, [r7, #36]	; 0x24
 80005aa:	61fb      	str	r3, [r7, #28]
 80005ac:	6a7b      	ldr	r3, [r7, #36]	; 0x24
 80005ae:	461c      	mov	r4, r3
 80005b0:	2301      	movs	r3, #1
 80005b2:	617b      	str	r3, [r7, #20]
 80005b4:	6afb      	ldr	r3, [r7, #44]	; 0x2c
 80005b6:	61bb      	str	r3, [r7, #24]
 80005b8:	f107 0314 	add.w	r3, r7, #20
 80005bc:	461d      	mov	r5, r3
 80005be:	68f8      	ldr	r0, [r7, #12]
 80005c0:	4622      	mov	r2, r4
 80005c2:	462b      	mov	r3, r5
 80005c4:	f7ff ff6c 	bl	80004a0 <vl53l0x__i2c_write>
 80005c8:	4603      	mov	r3, r0
 80005ca:	74fb      	strb	r3, [r7, #19]
 80005cc:	46b5      	mov	sp, r6
 80005ce:	7cfb      	ldrb	r3, [r7, #19]
 80005d0:	bf00      	nop
 80005d2:	4618      	mov	r0, r3
 80005d4:	3734      	adds	r7, #52	; 0x34
 80005d6:	46bd      	mov	sp, r7
 80005d8:	bdf0      	pop	{r4, r5, r6, r7, pc}
 80005da:	bf00      	nop

080005dc <vl53l0x__write__2>:
 80005dc:	b5b0      	push	{r4, r5, r7, lr}
 80005de:	b084      	sub	sp, #16
 80005e0:	af00      	add	r7, sp, #0
 80005e2:	6078      	str	r0, [r7, #4]
 80005e4:	460b      	mov	r3, r1
 80005e6:	70fb      	strb	r3, [r7, #3]
 80005e8:	4613      	mov	r3, r2
 80005ea:	70bb      	strb	r3, [r7, #2]
 80005ec:	78fb      	ldrb	r3, [r7, #3]
 80005ee:	733b      	strb	r3, [r7, #12]
 80005f0:	78bb      	ldrb	r3, [r7, #2]
 80005f2:	737b      	strb	r3, [r7, #13]
 80005f4:	f107 030c 	add.w	r3, r7, #12
 80005f8:	461c      	mov	r4, r3
 80005fa:	4d07      	ldr	r5, [pc, #28]	; (8000618 <vl53l0x__write__2+0x3c>)
 80005fc:	6878      	ldr	r0, [r7, #4]
 80005fe:	4622      	mov	r2, r4
 8000600:	462b      	mov	r3, r5
 8000602:	f7ff ff4d 	bl	80004a0 <vl53l0x__i2c_write>
 8000606:	4603      	mov	r3, r0
 8000608:	73fb      	strb	r3, [r7, #15]
 800060a:	7bfb      	ldrb	r3, [r7, #15]
 800060c:	bf00      	nop
 800060e:	4618      	mov	r0, r3
 8000610:	3710      	adds	r7, #16
 8000612:	46bd      	mov	sp, r7
 8000614:	bdb0      	pop	{r4, r5, r7, pc}
 8000616:	bf00      	nop
 8000618:	0800b028 	.word	0x0800b028

0800061c <vl53l0x__write__3>:
 800061c:	b5b0      	push	{r4, r5, r7, lr}
 800061e:	b084      	sub	sp, #16
 8000620:	af00      	add	r7, sp, #0
 8000622:	6078      	str	r0, [r7, #4]
 8000624:	460b      	mov	r3, r1
 8000626:	70fb      	strb	r3, [r7, #3]
 8000628:	4613      	mov	r3, r2
 800062a:	803b      	strh	r3, [r7, #0]
 800062c:	883b      	ldrh	r3, [r7, #0]
 800062e:	0a1b      	lsrs	r3, r3, #8
 8000630:	b29b      	uxth	r3, r3
 8000632:	2bff      	cmp	r3, #255	; 0xff
 8000634:	d903      	bls.n	800063e <vl53l0x__write__3+0x22>
 8000636:	4814      	ldr	r0, [pc, #80]	; (8000688 <vl53l0x__write__3+0x6c>)
 8000638:	2195      	movs	r1, #149	; 0x95
 800063a:	f7ff fe87 	bl	800034c <__gnat_last_chance_handler>
 800063e:	883b      	ldrh	r3, [r7, #0]
 8000640:	b2db      	uxtb	r3, r3
 8000642:	b29b      	uxth	r3, r3
 8000644:	2bff      	cmp	r3, #255	; 0xff
 8000646:	d903      	bls.n	8000650 <vl53l0x__write__3+0x34>
 8000648:	480f      	ldr	r0, [pc, #60]	; (8000688 <vl53l0x__write__3+0x6c>)
 800064a:	2196      	movs	r1, #150	; 0x96
 800064c:	f7ff fe7e 	bl	800034c <__gnat_last_chance_handler>
 8000650:	78fb      	ldrb	r3, [r7, #3]
 8000652:	733b      	strb	r3, [r7, #12]
 8000654:	883b      	ldrh	r3, [r7, #0]
 8000656:	0a1b      	lsrs	r3, r3, #8
 8000658:	b29b      	uxth	r3, r3
 800065a:	b2db      	uxtb	r3, r3
 800065c:	737b      	strb	r3, [r7, #13]
 800065e:	883b      	ldrh	r3, [r7, #0]
 8000660:	b2db      	uxtb	r3, r3
 8000662:	73bb      	strb	r3, [r7, #14]
 8000664:	f107 030c 	add.w	r3, r7, #12
 8000668:	461c      	mov	r4, r3
 800066a:	4d08      	ldr	r5, [pc, #32]	; (800068c <vl53l0x__write__3+0x70>)
 800066c:	6878      	ldr	r0, [r7, #4]
 800066e:	4622      	mov	r2, r4
 8000670:	462b      	mov	r3, r5
 8000672:	f7ff ff15 	bl	80004a0 <vl53l0x__i2c_write>
 8000676:	4603      	mov	r3, r0
 8000678:	73fb      	strb	r3, [r7, #15]
 800067a:	7bfb      	ldrb	r3, [r7, #15]
 800067c:	bf00      	nop
 800067e:	4618      	mov	r0, r3
 8000680:	3710      	adds	r7, #16
 8000682:	46bd      	mov	sp, r7
 8000684:	bdb0      	pop	{r4, r5, r7, pc}
 8000686:	bf00      	nop
 8000688:	0800b030 	.word	0x0800b030
 800068c:	0800b03c 	.word	0x0800b03c

08000690 <vl53l0x__read>:
 8000690:	b5b0      	push	{r4, r5, r7, lr}
 8000692:	b086      	sub	sp, #24
 8000694:	af00      	add	r7, sp, #0
 8000696:	60f8      	str	r0, [r7, #12]
 8000698:	e9c7 2300 	strd	r2, r3, [r7]
 800069c:	460b      	mov	r3, r1
 800069e:	72fb      	strb	r3, [r7, #11]
 80006a0:	7afb      	ldrb	r3, [r7, #11]
 80006a2:	753b      	strb	r3, [r7, #20]
 80006a4:	f107 0314 	add.w	r3, r7, #20
 80006a8:	461c      	mov	r4, r3
 80006aa:	4d0c      	ldr	r5, [pc, #48]	; (80006dc <vl53l0x__read+0x4c>)
 80006ac:	68f8      	ldr	r0, [r7, #12]
 80006ae:	4622      	mov	r2, r4
 80006b0:	462b      	mov	r3, r5
 80006b2:	f7ff fef5 	bl	80004a0 <vl53l0x__i2c_write>
 80006b6:	4603      	mov	r3, r0
 80006b8:	75fb      	strb	r3, [r7, #23]
 80006ba:	7dfb      	ldrb	r3, [r7, #23]
 80006bc:	2b00      	cmp	r3, #0
 80006be:	d006      	beq.n	80006ce <vl53l0x__read+0x3e>
 80006c0:	68f8      	ldr	r0, [r7, #12]
 80006c2:	e9d7 2300 	ldrd	r2, r3, [r7]
 80006c6:	f7ff ff11 	bl	80004ec <vl53l0x__i2c_read>
 80006ca:	4603      	mov	r3, r0
 80006cc:	75fb      	strb	r3, [r7, #23]
 80006ce:	7dfb      	ldrb	r3, [r7, #23]
 80006d0:	bf00      	nop
 80006d2:	4618      	mov	r0, r3
 80006d4:	3718      	adds	r7, #24
 80006d6:	46bd      	mov	sp, r7
 80006d8:	bdb0      	pop	{r4, r5, r7, pc}
 80006da:	bf00      	nop
 80006dc:	0800b04c 	.word	0x0800b04c

080006e0 <vl53l0x__read__2>:
 80006e0:	e92d 43f0 	stmdb	sp!, {r4, r5, r6, r7, r8, r9, lr}
 80006e4:	b085      	sub	sp, #20
 80006e6:	af00      	add	r7, sp, #0
 80006e8:	6078      	str	r0, [r7, #4]
 80006ea:	460b      	mov	r3, r1
 80006ec:	70fb      	strb	r3, [r7, #3]
 80006ee:	78fb      	ldrb	r3, [r7, #3]
 80006f0:	723b      	strb	r3, [r7, #8]
 80006f2:	f107 0308 	add.w	r3, r7, #8
 80006f6:	4698      	mov	r8, r3
 80006f8:	f8df 9048 	ldr.w	r9, [pc, #72]	; 8000744 <vl53l0x__read__2+0x64>
 80006fc:	6878      	ldr	r0, [r7, #4]
 80006fe:	4642      	mov	r2, r8
 8000700:	464b      	mov	r3, r9
 8000702:	f7ff fecd 	bl	80004a0 <vl53l0x__i2c_write>
 8000706:	4603      	mov	r3, r0
 8000708:	73bb      	strb	r3, [r7, #14]
 800070a:	7bbb      	ldrb	r3, [r7, #14]
 800070c:	2b00      	cmp	r3, #0
 800070e:	d00c      	beq.n	800072a <vl53l0x__read__2+0x4a>
 8000710:	f107 030c 	add.w	r3, r7, #12
 8000714:	461d      	mov	r5, r3
 8000716:	4e0b      	ldr	r6, [pc, #44]	; (8000744 <vl53l0x__read__2+0x64>)
 8000718:	6878      	ldr	r0, [r7, #4]
 800071a:	462a      	mov	r2, r5
 800071c:	4633      	mov	r3, r6
 800071e:	f7ff fee5 	bl	80004ec <vl53l0x__i2c_read>
 8000722:	4603      	mov	r3, r0
 8000724:	73bb      	strb	r3, [r7, #14]
 8000726:	7b3b      	ldrb	r3, [r7, #12]
 8000728:	73fb      	strb	r3, [r7, #15]
 800072a:	7bfb      	ldrb	r3, [r7, #15]
 800072c:	f363 0407 	bfi	r4, r3, #0, #8
 8000730:	7bbb      	ldrb	r3, [r7, #14]
 8000732:	f363 240f 	bfi	r4, r3, #8, #8
 8000736:	4623      	mov	r3, r4
 8000738:	4618      	mov	r0, r3
 800073a:	3714      	adds	r7, #20
 800073c:	46bd      	mov	sp, r7
 800073e:	e8bd 83f0 	ldmia.w	sp!, {r4, r5, r6, r7, r8, r9, pc}
 8000742:	bf00      	nop
 8000744:	0800b04c 	.word	0x0800b04c

08000748 <vl53l0x__read__3>:
 8000748:	e92d 43f0 	stmdb	sp!, {r4, r5, r6, r7, r8, r9, lr}
 800074c:	b087      	sub	sp, #28
 800074e:	af00      	add	r7, sp, #0
 8000750:	6078      	str	r0, [r7, #4]
 8000752:	460b      	mov	r3, r1
 8000754:	70fb      	strb	r3, [r7, #3]
 8000756:	78fb      	ldrb	r3, [r7, #3]
 8000758:	733b      	strb	r3, [r7, #12]
 800075a:	f107 030c 	add.w	r3, r7, #12
 800075e:	4698      	mov	r8, r3
 8000760:	f8df 9058 	ldr.w	r9, [pc, #88]	; 80007bc <vl53l0x__read__3+0x74>
 8000764:	6878      	ldr	r0, [r7, #4]
 8000766:	4642      	mov	r2, r8
 8000768:	464b      	mov	r3, r9
 800076a:	f7ff fe99 	bl	80004a0 <vl53l0x__i2c_write>
 800076e:	4603      	mov	r3, r0
 8000770:	757b      	strb	r3, [r7, #21]
 8000772:	7d7b      	ldrb	r3, [r7, #21]
 8000774:	2b00      	cmp	r3, #0
 8000776:	d013      	beq.n	80007a0 <vl53l0x__read__3+0x58>
 8000778:	f107 0310 	add.w	r3, r7, #16
 800077c:	461d      	mov	r5, r3
 800077e:	4e0e      	ldr	r6, [pc, #56]	; (80007b8 <vl53l0x__read__3+0x70>)
 8000780:	6878      	ldr	r0, [r7, #4]
 8000782:	462a      	mov	r2, r5
 8000784:	4633      	mov	r3, r6
 8000786:	f7ff feb1 	bl	80004ec <vl53l0x__i2c_read>
 800078a:	4603      	mov	r3, r0
 800078c:	757b      	strb	r3, [r7, #21]
 800078e:	7c3b      	ldrb	r3, [r7, #16]
 8000790:	b29b      	uxth	r3, r3
 8000792:	021b      	lsls	r3, r3, #8
 8000794:	b29a      	uxth	r2, r3
 8000796:	7c7b      	ldrb	r3, [r7, #17]
 8000798:	b29b      	uxth	r3, r3
 800079a:	4313      	orrs	r3, r2
 800079c:	b29b      	uxth	r3, r3
 800079e:	82fb      	strh	r3, [r7, #22]
 80007a0:	8afb      	ldrh	r3, [r7, #22]
 80007a2:	f363 040f 	bfi	r4, r3, #0, #16
 80007a6:	7d7b      	ldrb	r3, [r7, #21]
 80007a8:	f363 4417 	bfi	r4, r3, #16, #8
 80007ac:	4623      	mov	r3, r4
 80007ae:	4618      	mov	r0, r3
 80007b0:	371c      	adds	r7, #28
 80007b2:	46bd      	mov	sp, r7
 80007b4:	e8bd 83f0 	ldmia.w	sp!, {r4, r5, r6, r7, r8, r9, pc}
 80007b8:	0800b054 	.word	0x0800b054
 80007bc:	0800b04c 	.word	0x0800b04c

080007c0 <vl53l0x__read__4>:
 80007c0:	e92d 43b0 	stmdb	sp!, {r4, r5, r7, r8, r9, lr}
 80007c4:	b088      	sub	sp, #32
 80007c6:	af00      	add	r7, sp, #0
 80007c8:	60f8      	str	r0, [r7, #12]
 80007ca:	60b9      	str	r1, [r7, #8]
 80007cc:	4613      	mov	r3, r2
 80007ce:	71fb      	strb	r3, [r7, #7]
 80007d0:	79fb      	ldrb	r3, [r7, #7]
 80007d2:	743b      	strb	r3, [r7, #16]
 80007d4:	f107 0310 	add.w	r3, r7, #16
 80007d8:	4698      	mov	r8, r3
 80007da:	f8df 905c 	ldr.w	r9, [pc, #92]	; 8000838 <vl53l0x__read__4+0x78>
 80007de:	68b8      	ldr	r0, [r7, #8]
 80007e0:	4642      	mov	r2, r8
 80007e2:	464b      	mov	r3, r9
 80007e4:	f7ff fe5c 	bl	80004a0 <vl53l0x__i2c_write>
 80007e8:	4603      	mov	r3, r0
 80007ea:	76fb      	strb	r3, [r7, #27]
 80007ec:	7efb      	ldrb	r3, [r7, #27]
 80007ee:	2b00      	cmp	r3, #0
 80007f0:	d015      	beq.n	800081e <vl53l0x__read__4+0x5e>
 80007f2:	f107 0314 	add.w	r3, r7, #20
 80007f6:	461c      	mov	r4, r3
 80007f8:	4d0e      	ldr	r5, [pc, #56]	; (8000834 <vl53l0x__read__4+0x74>)
 80007fa:	68b8      	ldr	r0, [r7, #8]
 80007fc:	4622      	mov	r2, r4
 80007fe:	462b      	mov	r3, r5
 8000800:	f7ff fe74 	bl	80004ec <vl53l0x__i2c_read>
 8000804:	4603      	mov	r3, r0
 8000806:	76fb      	strb	r3, [r7, #27]
 8000808:	7d3b      	ldrb	r3, [r7, #20]
 800080a:	061a      	lsls	r2, r3, #24
 800080c:	7d7b      	ldrb	r3, [r7, #21]
 800080e:	041b      	lsls	r3, r3, #16
 8000810:	431a      	orrs	r2, r3
 8000812:	7dbb      	ldrb	r3, [r7, #22]
 8000814:	021b      	lsls	r3, r3, #8
 8000816:	4313      	orrs	r3, r2
 8000818:	7dfa      	ldrb	r2, [r7, #23]
 800081a:	4313      	orrs	r3, r2
 800081c:	61fb      	str	r3, [r7, #28]
 800081e:	69fa      	ldr	r2, [r7, #28]
 8000820:	68fb      	ldr	r3, [r7, #12]
 8000822:	601a      	str	r2, [r3, #0]
 8000824:	7efa      	ldrb	r2, [r7, #27]
 8000826:	68fb      	ldr	r3, [r7, #12]
 8000828:	711a      	strb	r2, [r3, #4]
 800082a:	68f8      	ldr	r0, [r7, #12]
 800082c:	3720      	adds	r7, #32
 800082e:	46bd      	mov	sp, r7
 8000830:	e8bd 83b0 	ldmia.w	sp!, {r4, r5, r7, r8, r9, pc}
 8000834:	0800b05c 	.word	0x0800b05c
 8000838:	0800b04c 	.word	0x0800b04c

0800083c <vl53l0x__decode_timeout>:
 800083c:	b480      	push	{r7}
 800083e:	b085      	sub	sp, #20
 8000840:	af00      	add	r7, sp, #0
 8000842:	4603      	mov	r3, r0
 8000844:	80fb      	strh	r3, [r7, #6]
 8000846:	88fb      	ldrh	r3, [r7, #6]
 8000848:	b2db      	uxtb	r3, r3
 800084a:	60fb      	str	r3, [r7, #12]
 800084c:	88fb      	ldrh	r3, [r7, #6]
 800084e:	0a1b      	lsrs	r3, r3, #8
 8000850:	b29b      	uxth	r3, r3
 8000852:	60bb      	str	r3, [r7, #8]
 8000854:	68bb      	ldr	r3, [r7, #8]
 8000856:	2b1f      	cmp	r3, #31
 8000858:	dc05      	bgt.n	8000866 <vl53l0x__decode_timeout+0x2a>
 800085a:	68fa      	ldr	r2, [r7, #12]
 800085c:	68bb      	ldr	r3, [r7, #8]
 800085e:	fa02 f303 	lsl.w	r3, r2, r3
 8000862:	3301      	adds	r3, #1
 8000864:	e000      	b.n	8000868 <vl53l0x__decode_timeout+0x2c>
 8000866:	2301      	movs	r3, #1
 8000868:	bf00      	nop
 800086a:	4618      	mov	r0, r3
 800086c:	3714      	adds	r7, #20
 800086e:	46bd      	mov	sp, r7
 8000870:	f85d 7b04 	ldr.w	r7, [sp], #4
 8000874:	4770      	bx	lr
 8000876:	bf00      	nop

08000878 <vl53l0x__encode_timeout>:
 8000878:	b580      	push	{r7, lr}
 800087a:	b084      	sub	sp, #16
 800087c:	af00      	add	r7, sp, #0
 800087e:	6078      	str	r0, [r7, #4]
 8000880:	2300      	movs	r3, #0
 8000882:	60bb      	str	r3, [r7, #8]
 8000884:	687b      	ldr	r3, [r7, #4]
 8000886:	3b01      	subs	r3, #1
 8000888:	60fb      	str	r3, [r7, #12]
 800088a:	68fb      	ldr	r3, [r7, #12]
 800088c:	f023 03ff 	bic.w	r3, r3, #255	; 0xff
 8000890:	2b00      	cmp	r3, #0
 8000892:	d006      	beq.n	80008a2 <vl53l0x__encode_timeout+0x2a>
 8000894:	68fb      	ldr	r3, [r7, #12]
 8000896:	085b      	lsrs	r3, r3, #1
 8000898:	60fb      	str	r3, [r7, #12]
 800089a:	68bb      	ldr	r3, [r7, #8]
 800089c:	3301      	adds	r3, #1
 800089e:	60bb      	str	r3, [r7, #8]
 80008a0:	e7f3      	b.n	800088a <vl53l0x__encode_timeout+0x12>
 80008a2:	68bb      	ldr	r3, [r7, #8]
 80008a4:	021a      	lsls	r2, r3, #8
 80008a6:	68fb      	ldr	r3, [r7, #12]
 80008a8:	4313      	orrs	r3, r2
 80008aa:	f5b3 3f80 	cmp.w	r3, #65536	; 0x10000
 80008ae:	d304      	bcc.n	80008ba <vl53l0x__encode_timeout+0x42>
 80008b0:	4805      	ldr	r0, [pc, #20]	; (80008c8 <vl53l0x__encode_timeout+0x50>)
 80008b2:	f44f 718c 	mov.w	r1, #280	; 0x118
 80008b6:	f7ff fd49 	bl	800034c <__gnat_last_chance_handler>
 80008ba:	b29b      	uxth	r3, r3
 80008bc:	bf00      	nop
 80008be:	4618      	mov	r0, r3
 80008c0:	3710      	adds	r7, #16
 80008c2:	46bd      	mov	sp, r7
 80008c4:	bd80      	pop	{r7, pc}
 80008c6:	bf00      	nop
 80008c8:	0800b030 	.word	0x0800b030

080008cc <vl53l0x__to_timeout_mclks>:
 80008cc:	b580      	push	{r7, lr}
 80008ce:	b084      	sub	sp, #16
 80008d0:	af00      	add	r7, sp, #0
 80008d2:	6078      	str	r0, [r7, #4]
 80008d4:	460b      	mov	r3, r1
 80008d6:	70fb      	strb	r3, [r7, #3]
 80008d8:	78fb      	ldrb	r3, [r7, #3]
 80008da:	4a12      	ldr	r2, [pc, #72]	; (8000924 <vl53l0x__to_timeout_mclks+0x58>)
 80008dc:	fb02 f303 	mul.w	r3, r2, r3
 80008e0:	60fb      	str	r3, [r7, #12]
 80008e2:	68fb      	ldr	r3, [r7, #12]
 80008e4:	f503 73fa 	add.w	r3, r3, #500	; 0x1f4
 80008e8:	4a0f      	ldr	r2, [pc, #60]	; (8000928 <vl53l0x__to_timeout_mclks+0x5c>)
 80008ea:	fba2 2303 	umull	r2, r3, r2, r3
 80008ee:	099b      	lsrs	r3, r3, #6
 80008f0:	60bb      	str	r3, [r7, #8]
 80008f2:	68bb      	ldr	r3, [r7, #8]
 80008f4:	2b00      	cmp	r3, #0
 80008f6:	d104      	bne.n	8000902 <vl53l0x__to_timeout_mclks+0x36>
 80008f8:	480c      	ldr	r0, [pc, #48]	; (800092c <vl53l0x__to_timeout_mclks+0x60>)
 80008fa:	f44f 7197 	mov.w	r1, #302	; 0x12e
 80008fe:	f7ff fd25 	bl	800034c <__gnat_last_chance_handler>
 8000902:	687b      	ldr	r3, [r7, #4]
 8000904:	f44f 727a 	mov.w	r2, #1000	; 0x3e8
 8000908:	fb02 f203 	mul.w	r2, r2, r3
 800090c:	68bb      	ldr	r3, [r7, #8]
 800090e:	085b      	lsrs	r3, r3, #1
 8000910:	441a      	add	r2, r3
 8000912:	68bb      	ldr	r3, [r7, #8]
 8000914:	fbb2 f3f3 	udiv	r3, r2, r3
 8000918:	bf00      	nop
 800091a:	4618      	mov	r0, r3
 800091c:	3710      	adds	r7, #16
 800091e:	46bd      	mov	sp, r7
 8000920:	bd80      	pop	{r7, pc}
 8000922:	bf00      	nop
 8000924:	003a2f00 	.word	0x003a2f00
 8000928:	10624dd3 	.word	0x10624dd3
 800092c:	0800b030 	.word	0x0800b030

08000930 <vl53l0x__to_timeout_microseconds>:
 8000930:	b480      	push	{r7}
 8000932:	b085      	sub	sp, #20
 8000934:	af00      	add	r7, sp, #0
 8000936:	6078      	str	r0, [r7, #4]
 8000938:	460b      	mov	r3, r1
 800093a:	70fb      	strb	r3, [r7, #3]
 800093c:	78fb      	ldrb	r3, [r7, #3]
 800093e:	4a0e      	ldr	r2, [pc, #56]	; (8000978 <vl53l0x__to_timeout_microseconds+0x48>)
 8000940:	fb02 f303 	mul.w	r3, r2, r3
 8000944:	60fb      	str	r3, [r7, #12]
 8000946:	68fb      	ldr	r3, [r7, #12]
 8000948:	f503 73fa 	add.w	r3, r3, #500	; 0x1f4
 800094c:	4a0b      	ldr	r2, [pc, #44]	; (800097c <vl53l0x__to_timeout_microseconds+0x4c>)
 800094e:	fba2 2303 	umull	r2, r3, r2, r3
 8000952:	099b      	lsrs	r3, r3, #6
 8000954:	60bb      	str	r3, [r7, #8]
 8000956:	687b      	ldr	r3, [r7, #4]
 8000958:	68ba      	ldr	r2, [r7, #8]
 800095a:	fb02 f303 	mul.w	r3, r2, r3
 800095e:	f503 73fa 	add.w	r3, r3, #500	; 0x1f4
 8000962:	4a06      	ldr	r2, [pc, #24]	; (800097c <vl53l0x__to_timeout_microseconds+0x4c>)
 8000964:	fba2 2303 	umull	r2, r3, r2, r3
 8000968:	099b      	lsrs	r3, r3, #6
 800096a:	bf00      	nop
 800096c:	4618      	mov	r0, r3
 800096e:	3714      	adds	r7, #20
 8000970:	46bd      	mov	sp, r7
 8000972:	f85d 7b04 	ldr.w	r7, [sp], #4
 8000976:	4770      	bx	lr
 8000978:	003a2f00 	.word	0x003a2f00
 800097c:	10624dd3 	.word	0x10624dd3

08000980 <vl53l0x__initialize>:
 8000980:	b480      	push	{r7}
 8000982:	b083      	sub	sp, #12
 8000984:	af00      	add	r7, sp, #0
 8000986:	6078      	str	r0, [r7, #4]
 8000988:	687b      	ldr	r3, [r7, #4]
 800098a:	2252      	movs	r2, #82	; 0x52
 800098c:	809a      	strh	r2, [r3, #4]
 800098e:	370c      	adds	r7, #12
 8000990:	46bd      	mov	sp, r7
 8000992:	f85d 7b04 	ldr.w	r7, [sp], #4
 8000996:	4770      	bx	lr

08000998 <vl53l0x__read_id>:
 8000998:	b580      	push	{r7, lr}
 800099a:	b084      	sub	sp, #16
 800099c:	af00      	add	r7, sp, #0
 800099e:	6078      	str	r0, [r7, #4]
 80009a0:	6878      	ldr	r0, [r7, #4]
 80009a2:	21c0      	movs	r1, #192	; 0xc0
 80009a4:	f7ff fed0 	bl	8000748 <vl53l0x__read__3>
 80009a8:	4603      	mov	r3, r0
 80009aa:	461a      	mov	r2, r3
 80009ac:	81fa      	strh	r2, [r7, #14]
 80009ae:	f3c3 4307 	ubfx	r3, r3, #16, #8
 80009b2:	737b      	strb	r3, [r7, #13]
 80009b4:	7b7b      	ldrb	r3, [r7, #13]
 80009b6:	f083 0301 	eor.w	r3, r3, #1
 80009ba:	b2db      	uxtb	r3, r3
 80009bc:	2b00      	cmp	r3, #0
 80009be:	d001      	beq.n	80009c4 <vl53l0x__read_id+0x2c>
 80009c0:	2300      	movs	r3, #0
 80009c2:	e000      	b.n	80009c6 <vl53l0x__read_id+0x2e>
 80009c4:	89fb      	ldrh	r3, [r7, #14]
 80009c6:	bf00      	nop
 80009c8:	4618      	mov	r0, r3
 80009ca:	3710      	adds	r7, #16
 80009cc:	46bd      	mov	sp, r7
 80009ce:	bd80      	pop	{r7, pc}

080009d0 <vl53l0x__data_init>:
 80009d0:	b580      	push	{r7, lr}
 80009d2:	b084      	sub	sp, #16
 80009d4:	af00      	add	r7, sp, #0
 80009d6:	6078      	str	r0, [r7, #4]
 80009d8:	6878      	ldr	r0, [r7, #4]
 80009da:	2189      	movs	r1, #137	; 0x89
 80009dc:	f7ff fe80 	bl	80006e0 <vl53l0x__read__2>
 80009e0:	4603      	mov	r3, r0
 80009e2:	461a      	mov	r2, r3
 80009e4:	73ba      	strb	r2, [r7, #14]
 80009e6:	f3c3 2307 	ubfx	r3, r3, #8, #8
 80009ea:	b2db      	uxtb	r3, r3
 80009ec:	72fb      	strb	r3, [r7, #11]
 80009ee:	6878      	ldr	r0, [r7, #4]
 80009f0:	2189      	movs	r1, #137	; 0x89
 80009f2:	2201      	movs	r2, #1
 80009f4:	f7ff fdf2 	bl	80005dc <vl53l0x__write__2>
 80009f8:	4603      	mov	r3, r0
 80009fa:	72fb      	strb	r3, [r7, #11]
 80009fc:	6878      	ldr	r0, [r7, #4]
 80009fe:	2188      	movs	r1, #136	; 0x88
 8000a00:	2200      	movs	r2, #0
 8000a02:	f7ff fdeb 	bl	80005dc <vl53l0x__write__2>
 8000a06:	4603      	mov	r3, r0
 8000a08:	72fb      	strb	r3, [r7, #11]
 8000a0a:	7afb      	ldrb	r3, [r7, #11]
 8000a0c:	f083 0301 	eor.w	r3, r3, #1
 8000a10:	b2db      	uxtb	r3, r3
 8000a12:	2b00      	cmp	r3, #0
 8000a14:	f040 80c1 	bne.w	8000b9a <vl53l0x__data_init+0x1ca>
 8000a18:	6878      	ldr	r0, [r7, #4]
 8000a1a:	f7ff ffbd 	bl	8000998 <vl53l0x__read_id>
 8000a1e:	4603      	mov	r3, r0
 8000a20:	81bb      	strh	r3, [r7, #12]
 8000a22:	687b      	ldr	r3, [r7, #4]
 8000a24:	2200      	movs	r2, #0
 8000a26:	f883 2040 	strb.w	r2, [r3, #64]	; 0x40
 8000a2a:	687b      	ldr	r3, [r7, #4]
 8000a2c:	4a5e      	ldr	r2, [pc, #376]	; (8000ba8 <vl53l0x__data_init+0x1d8>)
 8000a2e:	609a      	str	r2, [r3, #8]
 8000a30:	687b      	ldr	r3, [r7, #4]
 8000a32:	2200      	movs	r2, #0
 8000a34:	f883 2052 	strb.w	r2, [r3, #82]	; 0x52
 8000a38:	687b      	ldr	r3, [r7, #4]
 8000a3a:	2200      	movs	r2, #0
 8000a3c:	659a      	str	r2, [r3, #88]	; 0x58
 8000a3e:	687b      	ldr	r3, [r7, #4]
 8000a40:	f44f 727a 	mov.w	r2, #1000	; 0x3e8
 8000a44:	86da      	strh	r2, [r3, #54]	; 0x36
 8000a46:	687b      	ldr	r3, [r7, #4]
 8000a48:	f44f 72c8 	mov.w	r2, #400	; 0x190
 8000a4c:	871a      	strh	r2, [r3, #56]	; 0x38
 8000a4e:	687b      	ldr	r3, [r7, #4]
 8000a50:	4a56      	ldr	r2, [pc, #344]	; (8000bac <vl53l0x__data_init+0x1dc>)
 8000a52:	63da      	str	r2, [r3, #60]	; 0x3c
 8000a54:	6878      	ldr	r0, [r7, #4]
 8000a56:	f001 fca9 	bl	80023ac <vl53l0x__getdeviceparameters>
 8000a5a:	4603      	mov	r3, r0
 8000a5c:	72fb      	strb	r3, [r7, #11]
 8000a5e:	7afb      	ldrb	r3, [r7, #11]
 8000a60:	2b00      	cmp	r3, #0
 8000a62:	d007      	beq.n	8000a74 <vl53l0x__data_init+0xa4>
 8000a64:	687b      	ldr	r3, [r7, #4]
 8000a66:	2200      	movs	r2, #0
 8000a68:	f883 2050 	strb.w	r2, [r3, #80]	; 0x50
 8000a6c:	687b      	ldr	r3, [r7, #4]
 8000a6e:	2200      	movs	r2, #0
 8000a70:	f883 2051 	strb.w	r2, [r3, #81]	; 0x51
 8000a74:	687b      	ldr	r3, [r7, #4]
 8000a76:	2264      	movs	r2, #100	; 0x64
 8000a78:	83da      	strh	r2, [r3, #30]
 8000a7a:	687b      	ldr	r3, [r7, #4]
 8000a7c:	f44f 7261 	mov.w	r2, #900	; 0x384
 8000a80:	841a      	strh	r2, [r3, #32]
 8000a82:	687b      	ldr	r3, [r7, #4]
 8000a84:	f44f 72fa 	mov.w	r2, #500	; 0x1f4
 8000a88:	845a      	strh	r2, [r3, #34]	; 0x22
 8000a8a:	687b      	ldr	r3, [r7, #4]
 8000a8c:	f44f 72fa 	mov.w	r2, #500	; 0x1f4
 8000a90:	845a      	strh	r2, [r3, #34]	; 0x22
 8000a92:	687b      	ldr	r3, [r7, #4]
 8000a94:	f44f 6220 	mov.w	r2, #2560	; 0xa00
 8000a98:	84da      	strh	r2, [r3, #38]	; 0x26
 8000a9a:	687b      	ldr	r3, [r7, #4]
 8000a9c:	2201      	movs	r2, #1
 8000a9e:	f883 2034 	strb.w	r2, [r3, #52]	; 0x34
 8000aa2:	7afb      	ldrb	r3, [r7, #11]
 8000aa4:	2b00      	cmp	r3, #0
 8000aa6:	d006      	beq.n	8000ab6 <vl53l0x__data_init+0xe6>
 8000aa8:	6878      	ldr	r0, [r7, #4]
 8000aaa:	2180      	movs	r1, #128	; 0x80
 8000aac:	2201      	movs	r2, #1
 8000aae:	f7ff fd95 	bl	80005dc <vl53l0x__write__2>
 8000ab2:	4603      	mov	r3, r0
 8000ab4:	72fb      	strb	r3, [r7, #11]
 8000ab6:	7afb      	ldrb	r3, [r7, #11]
 8000ab8:	2b00      	cmp	r3, #0
 8000aba:	d006      	beq.n	8000aca <vl53l0x__data_init+0xfa>
 8000abc:	6878      	ldr	r0, [r7, #4]
 8000abe:	21ff      	movs	r1, #255	; 0xff
 8000ac0:	2201      	movs	r2, #1
 8000ac2:	f7ff fd8b 	bl	80005dc <vl53l0x__write__2>
 8000ac6:	4603      	mov	r3, r0
 8000ac8:	72fb      	strb	r3, [r7, #11]
 8000aca:	7afb      	ldrb	r3, [r7, #11]
 8000acc:	2b00      	cmp	r3, #0
 8000ace:	d006      	beq.n	8000ade <vl53l0x__data_init+0x10e>
 8000ad0:	6878      	ldr	r0, [r7, #4]
 8000ad2:	2100      	movs	r1, #0
 8000ad4:	2200      	movs	r2, #0
 8000ad6:	f7ff fd81 	bl	80005dc <vl53l0x__write__2>
 8000ada:	4603      	mov	r3, r0
 8000adc:	72fb      	strb	r3, [r7, #11]
 8000ade:	7afb      	ldrb	r3, [r7, #11]
 8000ae0:	2b00      	cmp	r3, #0
 8000ae2:	d00b      	beq.n	8000afc <vl53l0x__data_init+0x12c>
 8000ae4:	6878      	ldr	r0, [r7, #4]
 8000ae6:	2191      	movs	r1, #145	; 0x91
 8000ae8:	f7ff fdfa 	bl	80006e0 <vl53l0x__read__2>
 8000aec:	4602      	mov	r2, r0
 8000aee:	b2d1      	uxtb	r1, r2
 8000af0:	687b      	ldr	r3, [r7, #4]
 8000af2:	7199      	strb	r1, [r3, #6]
 8000af4:	f3c2 2307 	ubfx	r3, r2, #8, #8
 8000af8:	b2db      	uxtb	r3, r3
 8000afa:	72fb      	strb	r3, [r7, #11]
 8000afc:	7afb      	ldrb	r3, [r7, #11]
 8000afe:	2b00      	cmp	r3, #0
 8000b00:	d006      	beq.n	8000b10 <vl53l0x__data_init+0x140>
 8000b02:	6878      	ldr	r0, [r7, #4]
 8000b04:	2100      	movs	r1, #0
 8000b06:	2201      	movs	r2, #1
 8000b08:	f7ff fd68 	bl	80005dc <vl53l0x__write__2>
 8000b0c:	4603      	mov	r3, r0
 8000b0e:	72fb      	strb	r3, [r7, #11]
 8000b10:	7afb      	ldrb	r3, [r7, #11]
 8000b12:	2b00      	cmp	r3, #0
 8000b14:	d006      	beq.n	8000b24 <vl53l0x__data_init+0x154>
 8000b16:	6878      	ldr	r0, [r7, #4]
 8000b18:	21ff      	movs	r1, #255	; 0xff
 8000b1a:	2200      	movs	r2, #0
 8000b1c:	f7ff fd5e 	bl	80005dc <vl53l0x__write__2>
 8000b20:	4603      	mov	r3, r0
 8000b22:	72fb      	strb	r3, [r7, #11]
 8000b24:	7afb      	ldrb	r3, [r7, #11]
 8000b26:	2b00      	cmp	r3, #0
 8000b28:	d006      	beq.n	8000b38 <vl53l0x__data_init+0x168>
 8000b2a:	6878      	ldr	r0, [r7, #4]
 8000b2c:	2180      	movs	r1, #128	; 0x80
 8000b2e:	2200      	movs	r2, #0
 8000b30:	f7ff fd54 	bl	80005dc <vl53l0x__write__2>
 8000b34:	4603      	mov	r3, r0
 8000b36:	72fb      	strb	r3, [r7, #11]
 8000b38:	7afb      	ldrb	r3, [r7, #11]
 8000b3a:	2b00      	cmp	r3, #0
 8000b3c:	d00a      	beq.n	8000b54 <vl53l0x__data_init+0x184>
 8000b3e:	6878      	ldr	r0, [r7, #4]
 8000b40:	2160      	movs	r1, #96	; 0x60
 8000b42:	f7ff fdcd 	bl	80006e0 <vl53l0x__read__2>
 8000b46:	4603      	mov	r3, r0
 8000b48:	461a      	mov	r2, r3
 8000b4a:	73fa      	strb	r2, [r7, #15]
 8000b4c:	f3c3 2307 	ubfx	r3, r3, #8, #8
 8000b50:	b2db      	uxtb	r3, r3
 8000b52:	72fb      	strb	r3, [r7, #11]
 8000b54:	7afb      	ldrb	r3, [r7, #11]
 8000b56:	2b00      	cmp	r3, #0
 8000b58:	d00a      	beq.n	8000b70 <vl53l0x__data_init+0x1a0>
 8000b5a:	7bfb      	ldrb	r3, [r7, #15]
 8000b5c:	f043 0312 	orr.w	r3, r3, #18
 8000b60:	b2db      	uxtb	r3, r3
 8000b62:	6878      	ldr	r0, [r7, #4]
 8000b64:	2160      	movs	r1, #96	; 0x60
 8000b66:	461a      	mov	r2, r3
 8000b68:	f7ff fd38 	bl	80005dc <vl53l0x__write__2>
 8000b6c:	4603      	mov	r3, r0
 8000b6e:	72fb      	strb	r3, [r7, #11]
 8000b70:	7afb      	ldrb	r3, [r7, #11]
 8000b72:	2b00      	cmp	r3, #0
 8000b74:	d006      	beq.n	8000b84 <vl53l0x__data_init+0x1b4>
 8000b76:	6878      	ldr	r0, [r7, #4]
 8000b78:	f44f 4180 	mov.w	r1, #16384	; 0x4000
 8000b7c:	f001 f83c 	bl	8001bf8 <vl53l0x__set_signal_rate_limit__2>
 8000b80:	4603      	mov	r3, r0
 8000b82:	72fb      	strb	r3, [r7, #11]
 8000b84:	7afb      	ldrb	r3, [r7, #11]
 8000b86:	2b00      	cmp	r3, #0
 8000b88:	d008      	beq.n	8000b9c <vl53l0x__data_init+0x1cc>
 8000b8a:	6878      	ldr	r0, [r7, #4]
 8000b8c:	2101      	movs	r1, #1
 8000b8e:	22ff      	movs	r2, #255	; 0xff
 8000b90:	f7ff fd24 	bl	80005dc <vl53l0x__write__2>
 8000b94:	4603      	mov	r3, r0
 8000b96:	72fb      	strb	r3, [r7, #11]
 8000b98:	e000      	b.n	8000b9c <vl53l0x__data_init+0x1cc>
 8000b9a:	bf00      	nop
 8000b9c:	7afb      	ldrb	r3, [r7, #11]
 8000b9e:	bf00      	nop
 8000ba0:	4618      	mov	r0, r3
 8000ba2:	3710      	adds	r7, #16
 8000ba4:	46bd      	mov	sp, r7
 8000ba6:	bd80      	pop	{r7, pc}
 8000ba8:	000970a4 	.word	0x000970a4
 8000bac:	00016b85 	.word	0x00016b85

08000bb0 <vl53l0x__static_init>:
 8000bb0:	e92d 4ff0 	stmdb	sp!, {r4, r5, r6, r7, r8, r9, sl, fp, lr}
 8000bb4:	b08f      	sub	sp, #60	; 0x3c
 8000bb6:	af00      	add	r7, sp, #0
 8000bb8:	6178      	str	r0, [r7, #20]
 8000bba:	460b      	mov	r3, r1
 8000bbc:	74fb      	strb	r3, [r7, #19]
 8000bbe:	6978      	ldr	r0, [r7, #20]
 8000bc0:	f001 f83e 	bl	8001c40 <vl53l0x__spad_info>
 8000bc4:	4603      	mov	r3, r0
 8000bc6:	f3c3 2207 	ubfx	r2, r3, #8, #8
 8000bca:	f887 202e 	strb.w	r2, [r7, #46]	; 0x2e
 8000bce:	f3c3 4207 	ubfx	r2, r3, #16, #8
 8000bd2:	f887 202d 	strb.w	r2, [r7, #45]	; 0x2d
 8000bd6:	b2db      	uxtb	r3, r3
 8000bd8:	f887 302c 	strb.w	r3, [r7, #44]	; 0x2c
 8000bdc:	f897 302c 	ldrb.w	r3, [r7, #44]	; 0x2c
 8000be0:	f083 0301 	eor.w	r3, r3, #1
 8000be4:	b2db      	uxtb	r3, r3
 8000be6:	2b00      	cmp	r3, #0
 8000be8:	f040 839c 	bne.w	8001324 <vl53l0x__static_init+0x774>
 8000bec:	f107 0324 	add.w	r3, r7, #36	; 0x24
 8000bf0:	469a      	mov	sl, r3
 8000bf2:	f8df b19c 	ldr.w	fp, [pc, #412]	; 8000d90 <vl53l0x__static_init+0x1e0>
 8000bf6:	6978      	ldr	r0, [r7, #20]
 8000bf8:	21b0      	movs	r1, #176	; 0xb0
 8000bfa:	4652      	mov	r2, sl
 8000bfc:	465b      	mov	r3, fp
 8000bfe:	f7ff fd47 	bl	8000690 <vl53l0x__read>
 8000c02:	4603      	mov	r3, r0
 8000c04:	f887 302c 	strb.w	r3, [r7, #44]	; 0x2c
 8000c08:	f107 0308 	add.w	r3, r7, #8
 8000c0c:	f107 0224 	add.w	r2, r7, #36	; 0x24
 8000c10:	e892 0003 	ldmia.w	r2, {r0, r1}
 8000c14:	e883 0003 	stmia.w	r3, {r0, r1}
 8000c18:	e9d7 2302 	ldrd	r2, r3, [r7, #8]
 8000c1c:	e9c7 2306 	strd	r2, r3, [r7, #24]
 8000c20:	f897 302c 	ldrb.w	r3, [r7, #44]	; 0x2c
 8000c24:	2b00      	cmp	r3, #0
 8000c26:	d007      	beq.n	8000c38 <vl53l0x__static_init+0x88>
 8000c28:	6978      	ldr	r0, [r7, #20]
 8000c2a:	21ff      	movs	r1, #255	; 0xff
 8000c2c:	2201      	movs	r2, #1
 8000c2e:	f7ff fcd5 	bl	80005dc <vl53l0x__write__2>
 8000c32:	4603      	mov	r3, r0
 8000c34:	f887 302c 	strb.w	r3, [r7, #44]	; 0x2c
 8000c38:	f897 302c 	ldrb.w	r3, [r7, #44]	; 0x2c
 8000c3c:	2b00      	cmp	r3, #0
 8000c3e:	d007      	beq.n	8000c50 <vl53l0x__static_init+0xa0>
 8000c40:	6978      	ldr	r0, [r7, #20]
 8000c42:	214f      	movs	r1, #79	; 0x4f
 8000c44:	2200      	movs	r2, #0
 8000c46:	f7ff fcc9 	bl	80005dc <vl53l0x__write__2>
 8000c4a:	4603      	mov	r3, r0
 8000c4c:	f887 302c 	strb.w	r3, [r7, #44]	; 0x2c
 8000c50:	f897 302c 	ldrb.w	r3, [r7, #44]	; 0x2c
 8000c54:	2b00      	cmp	r3, #0
 8000c56:	d007      	beq.n	8000c68 <vl53l0x__static_init+0xb8>
 8000c58:	6978      	ldr	r0, [r7, #20]
 8000c5a:	214e      	movs	r1, #78	; 0x4e
 8000c5c:	222c      	movs	r2, #44	; 0x2c
 8000c5e:	f7ff fcbd 	bl	80005dc <vl53l0x__write__2>
 8000c62:	4603      	mov	r3, r0
 8000c64:	f887 302c 	strb.w	r3, [r7, #44]	; 0x2c
 8000c68:	f897 302c 	ldrb.w	r3, [r7, #44]	; 0x2c
 8000c6c:	2b00      	cmp	r3, #0
 8000c6e:	d007      	beq.n	8000c80 <vl53l0x__static_init+0xd0>
 8000c70:	6978      	ldr	r0, [r7, #20]
 8000c72:	21ff      	movs	r1, #255	; 0xff
 8000c74:	2200      	movs	r2, #0
 8000c76:	f7ff fcb1 	bl	80005dc <vl53l0x__write__2>
 8000c7a:	4603      	mov	r3, r0
 8000c7c:	f887 302c 	strb.w	r3, [r7, #44]	; 0x2c
 8000c80:	f897 302c 	ldrb.w	r3, [r7, #44]	; 0x2c
 8000c84:	2b00      	cmp	r3, #0
 8000c86:	d007      	beq.n	8000c98 <vl53l0x__static_init+0xe8>
 8000c88:	6978      	ldr	r0, [r7, #20]
 8000c8a:	21b6      	movs	r1, #182	; 0xb6
 8000c8c:	22b4      	movs	r2, #180	; 0xb4
 8000c8e:	f7ff fca5 	bl	80005dc <vl53l0x__write__2>
 8000c92:	4603      	mov	r3, r0
 8000c94:	f887 302c 	strb.w	r3, [r7, #44]	; 0x2c
 8000c98:	f897 302c 	ldrb.w	r3, [r7, #44]	; 0x2c
 8000c9c:	2b00      	cmp	r3, #0
 8000c9e:	d079      	beq.n	8000d94 <vl53l0x__static_init+0x1e4>
 8000ca0:	f897 302d 	ldrb.w	r3, [r7, #45]	; 0x2d
 8000ca4:	2b00      	cmp	r3, #0
 8000ca6:	d003      	beq.n	8000cb0 <vl53l0x__static_init+0x100>
 8000ca8:	230d      	movs	r3, #13
 8000caa:	f887 3037 	strb.w	r3, [r7, #55]	; 0x37
 8000cae:	e002      	b.n	8000cb6 <vl53l0x__static_init+0x106>
 8000cb0:	2301      	movs	r3, #1
 8000cb2:	f887 3037 	strb.w	r3, [r7, #55]	; 0x37
 8000cb6:	2300      	movs	r3, #0
 8000cb8:	f887 3036 	strb.w	r3, [r7, #54]	; 0x36
 8000cbc:	2301      	movs	r3, #1
 8000cbe:	f887 302f 	strb.w	r3, [r7, #47]	; 0x2f
 8000cc2:	f897 302f 	ldrb.w	r3, [r7, #47]	; 0x2f
 8000cc6:	2b30      	cmp	r3, #48	; 0x30
 8000cc8:	d864      	bhi.n	8000d94 <vl53l0x__static_init+0x1e4>
 8000cca:	f897 202f 	ldrb.w	r2, [r7, #47]	; 0x2f
 8000cce:	f897 3037 	ldrb.w	r3, [r7, #55]	; 0x37
 8000cd2:	429a      	cmp	r2, r3
 8000cd4:	d305      	bcc.n	8000ce2 <vl53l0x__static_init+0x132>
 8000cd6:	f897 2036 	ldrb.w	r2, [r7, #54]	; 0x36
 8000cda:	f897 302e 	ldrb.w	r3, [r7, #46]	; 0x2e
 8000cde:	429a      	cmp	r2, r3
 8000ce0:	d12d      	bne.n	8000d3e <vl53l0x__static_init+0x18e>
 8000ce2:	69ba      	ldr	r2, [r7, #24]
 8000ce4:	8bb9      	ldrh	r1, [r7, #28]
 8000ce6:	460b      	mov	r3, r1
 8000ce8:	4692      	mov	sl, r2
 8000cea:	469b      	mov	fp, r3
 8000cec:	f897 302f 	ldrb.w	r3, [r7, #47]	; 0x2f
 8000cf0:	1e59      	subs	r1, r3, #1
 8000cf2:	f04f 0201 	mov.w	r2, #1
 8000cf6:	f04f 0300 	mov.w	r3, #0
 8000cfa:	f1a1 0620 	sub.w	r6, r1, #32
 8000cfe:	f1c1 0020 	rsb	r0, r1, #32
 8000d02:	fa03 f501 	lsl.w	r5, r3, r1
 8000d06:	fa02 f606 	lsl.w	r6, r2, r6
 8000d0a:	4335      	orrs	r5, r6
 8000d0c:	fa22 f000 	lsr.w	r0, r2, r0
 8000d10:	4305      	orrs	r5, r0
 8000d12:	fa02 f401 	lsl.w	r4, r2, r1
 8000d16:	ea6f 0204 	mvn.w	r2, r4
 8000d1a:	ea6f 0305 	mvn.w	r3, r5
 8000d1e:	ea02 020a 	and.w	r2, r2, sl
 8000d22:	ea03 030b 	and.w	r3, r3, fp
 8000d26:	f04f 30ff 	mov.w	r0, #4294967295
 8000d2a:	f64f 71ff 	movw	r1, #65535	; 0xffff
 8000d2e:	ea02 0200 	and.w	r2, r2, r0
 8000d32:	ea03 0301 	and.w	r3, r3, r1
 8000d36:	4611      	mov	r1, r2
 8000d38:	61b9      	str	r1, [r7, #24]
 8000d3a:	83bb      	strh	r3, [r7, #28]
 8000d3c:	e021      	b.n	8000d82 <vl53l0x__static_init+0x1d2>
 8000d3e:	69ba      	ldr	r2, [r7, #24]
 8000d40:	8bb9      	ldrh	r1, [r7, #28]
 8000d42:	460b      	mov	r3, r1
 8000d44:	f897 102f 	ldrb.w	r1, [r7, #47]	; 0x2f
 8000d48:	3901      	subs	r1, #1
 8000d4a:	f1c1 0620 	rsb	r6, r1, #32
 8000d4e:	f1a1 0020 	sub.w	r0, r1, #32
 8000d52:	fa22 f801 	lsr.w	r8, r2, r1
 8000d56:	fa03 f606 	lsl.w	r6, r3, r6
 8000d5a:	ea48 0806 	orr.w	r8, r8, r6
 8000d5e:	fa23 f000 	lsr.w	r0, r3, r0
 8000d62:	ea48 0800 	orr.w	r8, r8, r0
 8000d66:	fa23 f901 	lsr.w	r9, r3, r1
 8000d6a:	fa5f f388 	uxtb.w	r3, r8
 8000d6e:	f003 0301 	and.w	r3, r3, #1
 8000d72:	b2db      	uxtb	r3, r3
 8000d74:	2b00      	cmp	r3, #0
 8000d76:	d004      	beq.n	8000d82 <vl53l0x__static_init+0x1d2>
 8000d78:	f897 3036 	ldrb.w	r3, [r7, #54]	; 0x36
 8000d7c:	3301      	adds	r3, #1
 8000d7e:	f887 3036 	strb.w	r3, [r7, #54]	; 0x36
 8000d82:	f897 302f 	ldrb.w	r3, [r7, #47]	; 0x2f
 8000d86:	3301      	adds	r3, #1
 8000d88:	f887 302f 	strb.w	r3, [r7, #47]	; 0x2f
 8000d8c:	e799      	b.n	8000cc2 <vl53l0x__static_init+0x112>
 8000d8e:	bf00      	nop
 8000d90:	0800b064 	.word	0x0800b064
 8000d94:	f897 302c 	ldrb.w	r3, [r7, #44]	; 0x2c
 8000d98:	2b00      	cmp	r3, #0
 8000d9a:	d019      	beq.n	8000dd0 <vl53l0x__static_init+0x220>
 8000d9c:	f107 0324 	add.w	r3, r7, #36	; 0x24
 8000da0:	f107 0218 	add.w	r2, r7, #24
 8000da4:	e892 0003 	ldmia.w	r2, {r0, r1}
 8000da8:	6018      	str	r0, [r3, #0]
 8000daa:	3304      	adds	r3, #4
 8000dac:	8019      	strh	r1, [r3, #0]
 8000dae:	f107 0324 	add.w	r3, r7, #36	; 0x24
 8000db2:	603b      	str	r3, [r7, #0]
 8000db4:	4b05      	ldr	r3, [pc, #20]	; (8000dcc <vl53l0x__static_init+0x21c>)
 8000db6:	607b      	str	r3, [r7, #4]
 8000db8:	6978      	ldr	r0, [r7, #20]
 8000dba:	21b0      	movs	r1, #176	; 0xb0
 8000dbc:	e9d7 2300 	ldrd	r2, r3, [r7]
 8000dc0:	f7ff fbba 	bl	8000538 <vl53l0x__write>
 8000dc4:	4603      	mov	r3, r0
 8000dc6:	f887 302c 	strb.w	r3, [r7, #44]	; 0x2c
 8000dca:	e001      	b.n	8000dd0 <vl53l0x__static_init+0x220>
 8000dcc:	0800b064 	.word	0x0800b064
 8000dd0:	f897 302c 	ldrb.w	r3, [r7, #44]	; 0x2c
 8000dd4:	2b00      	cmp	r3, #0
 8000dd6:	f000 8280 	beq.w	80012da <vl53l0x__static_init+0x72a>
 8000dda:	6978      	ldr	r0, [r7, #20]
 8000ddc:	21ff      	movs	r1, #255	; 0xff
 8000dde:	2201      	movs	r2, #1
 8000de0:	f7ff fbfc 	bl	80005dc <vl53l0x__write__2>
 8000de4:	4603      	mov	r3, r0
 8000de6:	f887 302c 	strb.w	r3, [r7, #44]	; 0x2c
 8000dea:	6978      	ldr	r0, [r7, #20]
 8000dec:	2100      	movs	r1, #0
 8000dee:	2200      	movs	r2, #0
 8000df0:	f7ff fbf4 	bl	80005dc <vl53l0x__write__2>
 8000df4:	4603      	mov	r3, r0
 8000df6:	f887 302c 	strb.w	r3, [r7, #44]	; 0x2c
 8000dfa:	6978      	ldr	r0, [r7, #20]
 8000dfc:	21ff      	movs	r1, #255	; 0xff
 8000dfe:	2200      	movs	r2, #0
 8000e00:	f7ff fbec 	bl	80005dc <vl53l0x__write__2>
 8000e04:	4603      	mov	r3, r0
 8000e06:	f887 302c 	strb.w	r3, [r7, #44]	; 0x2c
 8000e0a:	6978      	ldr	r0, [r7, #20]
 8000e0c:	2109      	movs	r1, #9
 8000e0e:	2200      	movs	r2, #0
 8000e10:	f7ff fbe4 	bl	80005dc <vl53l0x__write__2>
 8000e14:	4603      	mov	r3, r0
 8000e16:	f887 302c 	strb.w	r3, [r7, #44]	; 0x2c
 8000e1a:	6978      	ldr	r0, [r7, #20]
 8000e1c:	2110      	movs	r1, #16
 8000e1e:	2200      	movs	r2, #0
 8000e20:	f7ff fbdc 	bl	80005dc <vl53l0x__write__2>
 8000e24:	4603      	mov	r3, r0
 8000e26:	f887 302c 	strb.w	r3, [r7, #44]	; 0x2c
 8000e2a:	6978      	ldr	r0, [r7, #20]
 8000e2c:	2111      	movs	r1, #17
 8000e2e:	2200      	movs	r2, #0
 8000e30:	f7ff fbd4 	bl	80005dc <vl53l0x__write__2>
 8000e34:	4603      	mov	r3, r0
 8000e36:	f887 302c 	strb.w	r3, [r7, #44]	; 0x2c
 8000e3a:	6978      	ldr	r0, [r7, #20]
 8000e3c:	2124      	movs	r1, #36	; 0x24
 8000e3e:	2201      	movs	r2, #1
 8000e40:	f7ff fbcc 	bl	80005dc <vl53l0x__write__2>
 8000e44:	4603      	mov	r3, r0
 8000e46:	f887 302c 	strb.w	r3, [r7, #44]	; 0x2c
 8000e4a:	6978      	ldr	r0, [r7, #20]
 8000e4c:	2125      	movs	r1, #37	; 0x25
 8000e4e:	22ff      	movs	r2, #255	; 0xff
 8000e50:	f7ff fbc4 	bl	80005dc <vl53l0x__write__2>
 8000e54:	4603      	mov	r3, r0
 8000e56:	f887 302c 	strb.w	r3, [r7, #44]	; 0x2c
 8000e5a:	6978      	ldr	r0, [r7, #20]
 8000e5c:	2175      	movs	r1, #117	; 0x75
 8000e5e:	2200      	movs	r2, #0
 8000e60:	f7ff fbbc 	bl	80005dc <vl53l0x__write__2>
 8000e64:	4603      	mov	r3, r0
 8000e66:	f887 302c 	strb.w	r3, [r7, #44]	; 0x2c
 8000e6a:	6978      	ldr	r0, [r7, #20]
 8000e6c:	21ff      	movs	r1, #255	; 0xff
 8000e6e:	2201      	movs	r2, #1
 8000e70:	f7ff fbb4 	bl	80005dc <vl53l0x__write__2>
 8000e74:	4603      	mov	r3, r0
 8000e76:	f887 302c 	strb.w	r3, [r7, #44]	; 0x2c
 8000e7a:	6978      	ldr	r0, [r7, #20]
 8000e7c:	214e      	movs	r1, #78	; 0x4e
 8000e7e:	222c      	movs	r2, #44	; 0x2c
 8000e80:	f7ff fbac 	bl	80005dc <vl53l0x__write__2>
 8000e84:	4603      	mov	r3, r0
 8000e86:	f887 302c 	strb.w	r3, [r7, #44]	; 0x2c
 8000e8a:	6978      	ldr	r0, [r7, #20]
 8000e8c:	2148      	movs	r1, #72	; 0x48
 8000e8e:	2200      	movs	r2, #0
 8000e90:	f7ff fba4 	bl	80005dc <vl53l0x__write__2>
 8000e94:	4603      	mov	r3, r0
 8000e96:	f887 302c 	strb.w	r3, [r7, #44]	; 0x2c
 8000e9a:	6978      	ldr	r0, [r7, #20]
 8000e9c:	2130      	movs	r1, #48	; 0x30
 8000e9e:	2220      	movs	r2, #32
 8000ea0:	f7ff fb9c 	bl	80005dc <vl53l0x__write__2>
 8000ea4:	4603      	mov	r3, r0
 8000ea6:	f887 302c 	strb.w	r3, [r7, #44]	; 0x2c
 8000eaa:	6978      	ldr	r0, [r7, #20]
 8000eac:	21ff      	movs	r1, #255	; 0xff
 8000eae:	2200      	movs	r2, #0
 8000eb0:	f7ff fb94 	bl	80005dc <vl53l0x__write__2>
 8000eb4:	4603      	mov	r3, r0
 8000eb6:	f887 302c 	strb.w	r3, [r7, #44]	; 0x2c
 8000eba:	6978      	ldr	r0, [r7, #20]
 8000ebc:	2130      	movs	r1, #48	; 0x30
 8000ebe:	2209      	movs	r2, #9
 8000ec0:	f7ff fb8c 	bl	80005dc <vl53l0x__write__2>
 8000ec4:	4603      	mov	r3, r0
 8000ec6:	f887 302c 	strb.w	r3, [r7, #44]	; 0x2c
 8000eca:	6978      	ldr	r0, [r7, #20]
 8000ecc:	2154      	movs	r1, #84	; 0x54
 8000ece:	2200      	movs	r2, #0
 8000ed0:	f7ff fb84 	bl	80005dc <vl53l0x__write__2>
 8000ed4:	4603      	mov	r3, r0
 8000ed6:	f887 302c 	strb.w	r3, [r7, #44]	; 0x2c
 8000eda:	6978      	ldr	r0, [r7, #20]
 8000edc:	2131      	movs	r1, #49	; 0x31
 8000ede:	2204      	movs	r2, #4
 8000ee0:	f7ff fb7c 	bl	80005dc <vl53l0x__write__2>
 8000ee4:	4603      	mov	r3, r0
 8000ee6:	f887 302c 	strb.w	r3, [r7, #44]	; 0x2c
 8000eea:	6978      	ldr	r0, [r7, #20]
 8000eec:	2132      	movs	r1, #50	; 0x32
 8000eee:	2203      	movs	r2, #3
 8000ef0:	f7ff fb74 	bl	80005dc <vl53l0x__write__2>
 8000ef4:	4603      	mov	r3, r0
 8000ef6:	f887 302c 	strb.w	r3, [r7, #44]	; 0x2c
 8000efa:	6978      	ldr	r0, [r7, #20]
 8000efc:	2140      	movs	r1, #64	; 0x40
 8000efe:	2283      	movs	r2, #131	; 0x83
 8000f00:	f7ff fb6c 	bl	80005dc <vl53l0x__write__2>
 8000f04:	4603      	mov	r3, r0
 8000f06:	f887 302c 	strb.w	r3, [r7, #44]	; 0x2c
 8000f0a:	6978      	ldr	r0, [r7, #20]
 8000f0c:	2146      	movs	r1, #70	; 0x46
 8000f0e:	2225      	movs	r2, #37	; 0x25
 8000f10:	f7ff fb64 	bl	80005dc <vl53l0x__write__2>
 8000f14:	4603      	mov	r3, r0
 8000f16:	f887 302c 	strb.w	r3, [r7, #44]	; 0x2c
 8000f1a:	6978      	ldr	r0, [r7, #20]
 8000f1c:	2160      	movs	r1, #96	; 0x60
 8000f1e:	2200      	movs	r2, #0
 8000f20:	f7ff fb5c 	bl	80005dc <vl53l0x__write__2>
 8000f24:	4603      	mov	r3, r0
 8000f26:	f887 302c 	strb.w	r3, [r7, #44]	; 0x2c
 8000f2a:	6978      	ldr	r0, [r7, #20]
 8000f2c:	2127      	movs	r1, #39	; 0x27
 8000f2e:	2200      	movs	r2, #0
 8000f30:	f7ff fb54 	bl	80005dc <vl53l0x__write__2>
 8000f34:	4603      	mov	r3, r0
 8000f36:	f887 302c 	strb.w	r3, [r7, #44]	; 0x2c
 8000f3a:	6978      	ldr	r0, [r7, #20]
 8000f3c:	2150      	movs	r1, #80	; 0x50
 8000f3e:	2206      	movs	r2, #6
 8000f40:	f7ff fb4c 	bl	80005dc <vl53l0x__write__2>
 8000f44:	4603      	mov	r3, r0
 8000f46:	f887 302c 	strb.w	r3, [r7, #44]	; 0x2c
 8000f4a:	6978      	ldr	r0, [r7, #20]
 8000f4c:	2151      	movs	r1, #81	; 0x51
 8000f4e:	2200      	movs	r2, #0
 8000f50:	f7ff fb44 	bl	80005dc <vl53l0x__write__2>
 8000f54:	4603      	mov	r3, r0
 8000f56:	f887 302c 	strb.w	r3, [r7, #44]	; 0x2c
 8000f5a:	6978      	ldr	r0, [r7, #20]
 8000f5c:	2152      	movs	r1, #82	; 0x52
 8000f5e:	2296      	movs	r2, #150	; 0x96
 8000f60:	f7ff fb3c 	bl	80005dc <vl53l0x__write__2>
 8000f64:	4603      	mov	r3, r0
 8000f66:	f887 302c 	strb.w	r3, [r7, #44]	; 0x2c
 8000f6a:	6978      	ldr	r0, [r7, #20]
 8000f6c:	2156      	movs	r1, #86	; 0x56
 8000f6e:	2208      	movs	r2, #8
 8000f70:	f7ff fb34 	bl	80005dc <vl53l0x__write__2>
 8000f74:	4603      	mov	r3, r0
 8000f76:	f887 302c 	strb.w	r3, [r7, #44]	; 0x2c
 8000f7a:	6978      	ldr	r0, [r7, #20]
 8000f7c:	2157      	movs	r1, #87	; 0x57
 8000f7e:	2230      	movs	r2, #48	; 0x30
 8000f80:	f7ff fb2c 	bl	80005dc <vl53l0x__write__2>
 8000f84:	4603      	mov	r3, r0
 8000f86:	f887 302c 	strb.w	r3, [r7, #44]	; 0x2c
 8000f8a:	6978      	ldr	r0, [r7, #20]
 8000f8c:	2161      	movs	r1, #97	; 0x61
 8000f8e:	2200      	movs	r2, #0
 8000f90:	f7ff fb24 	bl	80005dc <vl53l0x__write__2>
 8000f94:	4603      	mov	r3, r0
 8000f96:	f887 302c 	strb.w	r3, [r7, #44]	; 0x2c
 8000f9a:	6978      	ldr	r0, [r7, #20]
 8000f9c:	2162      	movs	r1, #98	; 0x62
 8000f9e:	2200      	movs	r2, #0
 8000fa0:	f7ff fb1c 	bl	80005dc <vl53l0x__write__2>
 8000fa4:	4603      	mov	r3, r0
 8000fa6:	f887 302c 	strb.w	r3, [r7, #44]	; 0x2c
 8000faa:	6978      	ldr	r0, [r7, #20]
 8000fac:	2164      	movs	r1, #100	; 0x64
 8000fae:	2200      	movs	r2, #0
 8000fb0:	f7ff fb14 	bl	80005dc <vl53l0x__write__2>
 8000fb4:	4603      	mov	r3, r0
 8000fb6:	f887 302c 	strb.w	r3, [r7, #44]	; 0x2c
 8000fba:	6978      	ldr	r0, [r7, #20]
 8000fbc:	2165      	movs	r1, #101	; 0x65
 8000fbe:	2200      	movs	r2, #0
 8000fc0:	f7ff fb0c 	bl	80005dc <vl53l0x__write__2>
 8000fc4:	4603      	mov	r3, r0
 8000fc6:	f887 302c 	strb.w	r3, [r7, #44]	; 0x2c
 8000fca:	6978      	ldr	r0, [r7, #20]
 8000fcc:	2166      	movs	r1, #102	; 0x66
 8000fce:	22a0      	movs	r2, #160	; 0xa0
 8000fd0:	f7ff fb04 	bl	80005dc <vl53l0x__write__2>
 8000fd4:	4603      	mov	r3, r0
 8000fd6:	f887 302c 	strb.w	r3, [r7, #44]	; 0x2c
 8000fda:	6978      	ldr	r0, [r7, #20]
 8000fdc:	21ff      	movs	r1, #255	; 0xff
 8000fde:	2201      	movs	r2, #1
 8000fe0:	f7ff fafc 	bl	80005dc <vl53l0x__write__2>
 8000fe4:	4603      	mov	r3, r0
 8000fe6:	f887 302c 	strb.w	r3, [r7, #44]	; 0x2c
 8000fea:	6978      	ldr	r0, [r7, #20]
 8000fec:	2122      	movs	r1, #34	; 0x22
 8000fee:	2232      	movs	r2, #50	; 0x32
 8000ff0:	f7ff faf4 	bl	80005dc <vl53l0x__write__2>
 8000ff4:	4603      	mov	r3, r0
 8000ff6:	f887 302c 	strb.w	r3, [r7, #44]	; 0x2c
 8000ffa:	6978      	ldr	r0, [r7, #20]
 8000ffc:	2147      	movs	r1, #71	; 0x47
 8000ffe:	2214      	movs	r2, #20
 8001000:	f7ff faec 	bl	80005dc <vl53l0x__write__2>
 8001004:	4603      	mov	r3, r0
 8001006:	f887 302c 	strb.w	r3, [r7, #44]	; 0x2c
 800100a:	6978      	ldr	r0, [r7, #20]
 800100c:	2149      	movs	r1, #73	; 0x49
 800100e:	22ff      	movs	r2, #255	; 0xff
 8001010:	f7ff fae4 	bl	80005dc <vl53l0x__write__2>
 8001014:	4603      	mov	r3, r0
 8001016:	f887 302c 	strb.w	r3, [r7, #44]	; 0x2c
 800101a:	6978      	ldr	r0, [r7, #20]
 800101c:	214a      	movs	r1, #74	; 0x4a
 800101e:	2200      	movs	r2, #0
 8001020:	f7ff fadc 	bl	80005dc <vl53l0x__write__2>
 8001024:	4603      	mov	r3, r0
 8001026:	f887 302c 	strb.w	r3, [r7, #44]	; 0x2c
 800102a:	6978      	ldr	r0, [r7, #20]
 800102c:	21ff      	movs	r1, #255	; 0xff
 800102e:	2200      	movs	r2, #0
 8001030:	f7ff fad4 	bl	80005dc <vl53l0x__write__2>
 8001034:	4603      	mov	r3, r0
 8001036:	f887 302c 	strb.w	r3, [r7, #44]	; 0x2c
 800103a:	6978      	ldr	r0, [r7, #20]
 800103c:	217a      	movs	r1, #122	; 0x7a
 800103e:	220a      	movs	r2, #10
 8001040:	f7ff facc 	bl	80005dc <vl53l0x__write__2>
 8001044:	4603      	mov	r3, r0
 8001046:	f887 302c 	strb.w	r3, [r7, #44]	; 0x2c
 800104a:	6978      	ldr	r0, [r7, #20]
 800104c:	217b      	movs	r1, #123	; 0x7b
 800104e:	2200      	movs	r2, #0
 8001050:	f7ff fac4 	bl	80005dc <vl53l0x__write__2>
 8001054:	4603      	mov	r3, r0
 8001056:	f887 302c 	strb.w	r3, [r7, #44]	; 0x2c
 800105a:	6978      	ldr	r0, [r7, #20]
 800105c:	2178      	movs	r1, #120	; 0x78
 800105e:	2221      	movs	r2, #33	; 0x21
 8001060:	f7ff fabc 	bl	80005dc <vl53l0x__write__2>
 8001064:	4603      	mov	r3, r0
 8001066:	f887 302c 	strb.w	r3, [r7, #44]	; 0x2c
 800106a:	6978      	ldr	r0, [r7, #20]
 800106c:	21ff      	movs	r1, #255	; 0xff
 800106e:	2201      	movs	r2, #1
 8001070:	f7ff fab4 	bl	80005dc <vl53l0x__write__2>
 8001074:	4603      	mov	r3, r0
 8001076:	f887 302c 	strb.w	r3, [r7, #44]	; 0x2c
 800107a:	6978      	ldr	r0, [r7, #20]
 800107c:	2123      	movs	r1, #35	; 0x23
 800107e:	2234      	movs	r2, #52	; 0x34
 8001080:	f7ff faac 	bl	80005dc <vl53l0x__write__2>
 8001084:	4603      	mov	r3, r0
 8001086:	f887 302c 	strb.w	r3, [r7, #44]	; 0x2c
 800108a:	6978      	ldr	r0, [r7, #20]
 800108c:	2142      	movs	r1, #66	; 0x42
 800108e:	2200      	movs	r2, #0
 8001090:	f7ff faa4 	bl	80005dc <vl53l0x__write__2>
 8001094:	4603      	mov	r3, r0
 8001096:	f887 302c 	strb.w	r3, [r7, #44]	; 0x2c
 800109a:	6978      	ldr	r0, [r7, #20]
 800109c:	2144      	movs	r1, #68	; 0x44
 800109e:	22ff      	movs	r2, #255	; 0xff
 80010a0:	f7ff fa9c 	bl	80005dc <vl53l0x__write__2>
 80010a4:	4603      	mov	r3, r0
 80010a6:	f887 302c 	strb.w	r3, [r7, #44]	; 0x2c
 80010aa:	6978      	ldr	r0, [r7, #20]
 80010ac:	2145      	movs	r1, #69	; 0x45
 80010ae:	2226      	movs	r2, #38	; 0x26
 80010b0:	f7ff fa94 	bl	80005dc <vl53l0x__write__2>
 80010b4:	4603      	mov	r3, r0
 80010b6:	f887 302c 	strb.w	r3, [r7, #44]	; 0x2c
 80010ba:	6978      	ldr	r0, [r7, #20]
 80010bc:	2146      	movs	r1, #70	; 0x46
 80010be:	2205      	movs	r2, #5
 80010c0:	f7ff fa8c 	bl	80005dc <vl53l0x__write__2>
 80010c4:	4603      	mov	r3, r0
 80010c6:	f887 302c 	strb.w	r3, [r7, #44]	; 0x2c
 80010ca:	6978      	ldr	r0, [r7, #20]
 80010cc:	2140      	movs	r1, #64	; 0x40
 80010ce:	2240      	movs	r2, #64	; 0x40
 80010d0:	f7ff fa84 	bl	80005dc <vl53l0x__write__2>
 80010d4:	4603      	mov	r3, r0
 80010d6:	f887 302c 	strb.w	r3, [r7, #44]	; 0x2c
 80010da:	6978      	ldr	r0, [r7, #20]
 80010dc:	210e      	movs	r1, #14
 80010de:	2206      	movs	r2, #6
 80010e0:	f7ff fa7c 	bl	80005dc <vl53l0x__write__2>
 80010e4:	4603      	mov	r3, r0
 80010e6:	f887 302c 	strb.w	r3, [r7, #44]	; 0x2c
 80010ea:	6978      	ldr	r0, [r7, #20]
 80010ec:	2120      	movs	r1, #32
 80010ee:	221a      	movs	r2, #26
 80010f0:	f7ff fa74 	bl	80005dc <vl53l0x__write__2>
 80010f4:	4603      	mov	r3, r0
 80010f6:	f887 302c 	strb.w	r3, [r7, #44]	; 0x2c
 80010fa:	6978      	ldr	r0, [r7, #20]
 80010fc:	2143      	movs	r1, #67	; 0x43
 80010fe:	2240      	movs	r2, #64	; 0x40
 8001100:	f7ff fa6c 	bl	80005dc <vl53l0x__write__2>
 8001104:	4603      	mov	r3, r0
 8001106:	f887 302c 	strb.w	r3, [r7, #44]	; 0x2c
 800110a:	6978      	ldr	r0, [r7, #20]
 800110c:	21ff      	movs	r1, #255	; 0xff
 800110e:	2200      	movs	r2, #0
 8001110:	f7ff fa64 	bl	80005dc <vl53l0x__write__2>
 8001114:	4603      	mov	r3, r0
 8001116:	f887 302c 	strb.w	r3, [r7, #44]	; 0x2c
 800111a:	6978      	ldr	r0, [r7, #20]
 800111c:	2134      	movs	r1, #52	; 0x34
 800111e:	2203      	movs	r2, #3
 8001120:	f7ff fa5c 	bl	80005dc <vl53l0x__write__2>
 8001124:	4603      	mov	r3, r0
 8001126:	f887 302c 	strb.w	r3, [r7, #44]	; 0x2c
 800112a:	6978      	ldr	r0, [r7, #20]
 800112c:	2135      	movs	r1, #53	; 0x35
 800112e:	2244      	movs	r2, #68	; 0x44
 8001130:	f7ff fa54 	bl	80005dc <vl53l0x__write__2>
 8001134:	4603      	mov	r3, r0
 8001136:	f887 302c 	strb.w	r3, [r7, #44]	; 0x2c
 800113a:	6978      	ldr	r0, [r7, #20]
 800113c:	21ff      	movs	r1, #255	; 0xff
 800113e:	2201      	movs	r2, #1
 8001140:	f7ff fa4c 	bl	80005dc <vl53l0x__write__2>
 8001144:	4603      	mov	r3, r0
 8001146:	f887 302c 	strb.w	r3, [r7, #44]	; 0x2c
 800114a:	6978      	ldr	r0, [r7, #20]
 800114c:	2131      	movs	r1, #49	; 0x31
 800114e:	2204      	movs	r2, #4
 8001150:	f7ff fa44 	bl	80005dc <vl53l0x__write__2>
 8001154:	4603      	mov	r3, r0
 8001156:	f887 302c 	strb.w	r3, [r7, #44]	; 0x2c
 800115a:	6978      	ldr	r0, [r7, #20]
 800115c:	214b      	movs	r1, #75	; 0x4b
 800115e:	2209      	movs	r2, #9
 8001160:	f7ff fa3c 	bl	80005dc <vl53l0x__write__2>
 8001164:	4603      	mov	r3, r0
 8001166:	f887 302c 	strb.w	r3, [r7, #44]	; 0x2c
 800116a:	6978      	ldr	r0, [r7, #20]
 800116c:	214c      	movs	r1, #76	; 0x4c
 800116e:	2205      	movs	r2, #5
 8001170:	f7ff fa34 	bl	80005dc <vl53l0x__write__2>
 8001174:	4603      	mov	r3, r0
 8001176:	f887 302c 	strb.w	r3, [r7, #44]	; 0x2c
 800117a:	6978      	ldr	r0, [r7, #20]
 800117c:	214d      	movs	r1, #77	; 0x4d
 800117e:	2204      	movs	r2, #4
 8001180:	f7ff fa2c 	bl	80005dc <vl53l0x__write__2>
 8001184:	4603      	mov	r3, r0
 8001186:	f887 302c 	strb.w	r3, [r7, #44]	; 0x2c
 800118a:	6978      	ldr	r0, [r7, #20]
 800118c:	21ff      	movs	r1, #255	; 0xff
 800118e:	2200      	movs	r2, #0
 8001190:	f7ff fa24 	bl	80005dc <vl53l0x__write__2>
 8001194:	4603      	mov	r3, r0
 8001196:	f887 302c 	strb.w	r3, [r7, #44]	; 0x2c
 800119a:	6978      	ldr	r0, [r7, #20]
 800119c:	2144      	movs	r1, #68	; 0x44
 800119e:	2200      	movs	r2, #0
 80011a0:	f7ff fa1c 	bl	80005dc <vl53l0x__write__2>
 80011a4:	4603      	mov	r3, r0
 80011a6:	f887 302c 	strb.w	r3, [r7, #44]	; 0x2c
 80011aa:	6978      	ldr	r0, [r7, #20]
 80011ac:	2145      	movs	r1, #69	; 0x45
 80011ae:	2220      	movs	r2, #32
 80011b0:	f7ff fa14 	bl	80005dc <vl53l0x__write__2>
 80011b4:	4603      	mov	r3, r0
 80011b6:	f887 302c 	strb.w	r3, [r7, #44]	; 0x2c
 80011ba:	6978      	ldr	r0, [r7, #20]
 80011bc:	2147      	movs	r1, #71	; 0x47
 80011be:	2208      	movs	r2, #8
 80011c0:	f7ff fa0c 	bl	80005dc <vl53l0x__write__2>
 80011c4:	4603      	mov	r3, r0
 80011c6:	f887 302c 	strb.w	r3, [r7, #44]	; 0x2c
 80011ca:	6978      	ldr	r0, [r7, #20]
 80011cc:	2148      	movs	r1, #72	; 0x48
 80011ce:	2228      	movs	r2, #40	; 0x28
 80011d0:	f7ff fa04 	bl	80005dc <vl53l0x__write__2>
 80011d4:	4603      	mov	r3, r0
 80011d6:	f887 302c 	strb.w	r3, [r7, #44]	; 0x2c
 80011da:	6978      	ldr	r0, [r7, #20]
 80011dc:	2167      	movs	r1, #103	; 0x67
 80011de:	2200      	movs	r2, #0
 80011e0:	f7ff f9fc 	bl	80005dc <vl53l0x__write__2>
 80011e4:	4603      	mov	r3, r0
 80011e6:	f887 302c 	strb.w	r3, [r7, #44]	; 0x2c
 80011ea:	6978      	ldr	r0, [r7, #20]
 80011ec:	2170      	movs	r1, #112	; 0x70
 80011ee:	2204      	movs	r2, #4
 80011f0:	f7ff f9f4 	bl	80005dc <vl53l0x__write__2>
 80011f4:	4603      	mov	r3, r0
 80011f6:	f887 302c 	strb.w	r3, [r7, #44]	; 0x2c
 80011fa:	6978      	ldr	r0, [r7, #20]
 80011fc:	2171      	movs	r1, #113	; 0x71
 80011fe:	2201      	movs	r2, #1
 8001200:	f7ff f9ec 	bl	80005dc <vl53l0x__write__2>
 8001204:	4603      	mov	r3, r0
 8001206:	f887 302c 	strb.w	r3, [r7, #44]	; 0x2c
 800120a:	6978      	ldr	r0, [r7, #20]
 800120c:	2172      	movs	r1, #114	; 0x72
 800120e:	22fe      	movs	r2, #254	; 0xfe
 8001210:	f7ff f9e4 	bl	80005dc <vl53l0x__write__2>
 8001214:	4603      	mov	r3, r0
 8001216:	f887 302c 	strb.w	r3, [r7, #44]	; 0x2c
 800121a:	6978      	ldr	r0, [r7, #20]
 800121c:	2176      	movs	r1, #118	; 0x76
 800121e:	2200      	movs	r2, #0
 8001220:	f7ff f9dc 	bl	80005dc <vl53l0x__write__2>
 8001224:	4603      	mov	r3, r0
 8001226:	f887 302c 	strb.w	r3, [r7, #44]	; 0x2c
 800122a:	6978      	ldr	r0, [r7, #20]
 800122c:	2177      	movs	r1, #119	; 0x77
 800122e:	2200      	movs	r2, #0
 8001230:	f7ff f9d4 	bl	80005dc <vl53l0x__write__2>
 8001234:	4603      	mov	r3, r0
 8001236:	f887 302c 	strb.w	r3, [r7, #44]	; 0x2c
 800123a:	6978      	ldr	r0, [r7, #20]
 800123c:	21ff      	movs	r1, #255	; 0xff
 800123e:	2201      	movs	r2, #1
 8001240:	f7ff f9cc 	bl	80005dc <vl53l0x__write__2>
 8001244:	4603      	mov	r3, r0
 8001246:	f887 302c 	strb.w	r3, [r7, #44]	; 0x2c
 800124a:	6978      	ldr	r0, [r7, #20]
 800124c:	210d      	movs	r1, #13
 800124e:	2201      	movs	r2, #1
 8001250:	f7ff f9c4 	bl	80005dc <vl53l0x__write__2>
 8001254:	4603      	mov	r3, r0
 8001256:	f887 302c 	strb.w	r3, [r7, #44]	; 0x2c
 800125a:	6978      	ldr	r0, [r7, #20]
 800125c:	21ff      	movs	r1, #255	; 0xff
 800125e:	2200      	movs	r2, #0
 8001260:	f7ff f9bc 	bl	80005dc <vl53l0x__write__2>
 8001264:	4603      	mov	r3, r0
 8001266:	f887 302c 	strb.w	r3, [r7, #44]	; 0x2c
 800126a:	6978      	ldr	r0, [r7, #20]
 800126c:	2180      	movs	r1, #128	; 0x80
 800126e:	2201      	movs	r2, #1
 8001270:	f7ff f9b4 	bl	80005dc <vl53l0x__write__2>
 8001274:	4603      	mov	r3, r0
 8001276:	f887 302c 	strb.w	r3, [r7, #44]	; 0x2c
 800127a:	6978      	ldr	r0, [r7, #20]
 800127c:	2101      	movs	r1, #1
 800127e:	22f8      	movs	r2, #248	; 0xf8
 8001280:	f7ff f9ac 	bl	80005dc <vl53l0x__write__2>
 8001284:	4603      	mov	r3, r0
 8001286:	f887 302c 	strb.w	r3, [r7, #44]	; 0x2c
 800128a:	6978      	ldr	r0, [r7, #20]
 800128c:	21ff      	movs	r1, #255	; 0xff
 800128e:	2201      	movs	r2, #1
 8001290:	f7ff f9a4 	bl	80005dc <vl53l0x__write__2>
 8001294:	4603      	mov	r3, r0
 8001296:	f887 302c 	strb.w	r3, [r7, #44]	; 0x2c
 800129a:	6978      	ldr	r0, [r7, #20]
 800129c:	218e      	movs	r1, #142	; 0x8e
 800129e:	2201      	movs	r2, #1
 80012a0:	f7ff f99c 	bl	80005dc <vl53l0x__write__2>
 80012a4:	4603      	mov	r3, r0
 80012a6:	f887 302c 	strb.w	r3, [r7, #44]	; 0x2c
 80012aa:	6978      	ldr	r0, [r7, #20]
 80012ac:	2100      	movs	r1, #0
 80012ae:	2201      	movs	r2, #1
 80012b0:	f7ff f994 	bl	80005dc <vl53l0x__write__2>
 80012b4:	4603      	mov	r3, r0
 80012b6:	f887 302c 	strb.w	r3, [r7, #44]	; 0x2c
 80012ba:	6978      	ldr	r0, [r7, #20]
 80012bc:	21ff      	movs	r1, #255	; 0xff
 80012be:	2200      	movs	r2, #0
 80012c0:	f7ff f98c 	bl	80005dc <vl53l0x__write__2>
 80012c4:	4603      	mov	r3, r0
 80012c6:	f887 302c 	strb.w	r3, [r7, #44]	; 0x2c
 80012ca:	6978      	ldr	r0, [r7, #20]
 80012cc:	2180      	movs	r1, #128	; 0x80
 80012ce:	2200      	movs	r2, #0
 80012d0:	f7ff f984 	bl	80005dc <vl53l0x__write__2>
 80012d4:	4603      	mov	r3, r0
 80012d6:	f887 302c 	strb.w	r3, [r7, #44]	; 0x2c
 80012da:	7cfb      	ldrb	r3, [r7, #19]
 80012dc:	6978      	ldr	r0, [r7, #20]
 80012de:	4619      	mov	r1, r3
 80012e0:	2201      	movs	r2, #1
 80012e2:	f000 f9a1 	bl	8001628 <vl53l0x__set_gpio_config>
 80012e6:	4603      	mov	r3, r0
 80012e8:	f887 302c 	strb.w	r3, [r7, #44]	; 0x2c
 80012ec:	f897 302c 	ldrb.w	r3, [r7, #44]	; 0x2c
 80012f0:	2b00      	cmp	r3, #0
 80012f2:	d00b      	beq.n	800130c <vl53l0x__static_init+0x75c>
 80012f4:	6978      	ldr	r0, [r7, #20]
 80012f6:	f000 fb6d 	bl	80019d4 <vl53l0x__measurement_timing_budget>
 80012fa:	6338      	str	r0, [r7, #48]	; 0x30
 80012fc:	6978      	ldr	r0, [r7, #20]
 80012fe:	2101      	movs	r1, #1
 8001300:	22e8      	movs	r2, #232	; 0xe8
 8001302:	f7ff f96b 	bl	80005dc <vl53l0x__write__2>
 8001306:	4603      	mov	r3, r0
 8001308:	f887 302c 	strb.w	r3, [r7, #44]	; 0x2c
 800130c:	f897 302c 	ldrb.w	r3, [r7, #44]	; 0x2c
 8001310:	2b00      	cmp	r3, #0
 8001312:	d008      	beq.n	8001326 <vl53l0x__static_init+0x776>
 8001314:	6978      	ldr	r0, [r7, #20]
 8001316:	6b39      	ldr	r1, [r7, #48]	; 0x30
 8001318:	f000 fbc0 	bl	8001a9c <vl53l0x__set_measurement_timing_budget>
 800131c:	4603      	mov	r3, r0
 800131e:	f887 302c 	strb.w	r3, [r7, #44]	; 0x2c
 8001322:	e000      	b.n	8001326 <vl53l0x__static_init+0x776>
 8001324:	bf00      	nop
 8001326:	f897 302c 	ldrb.w	r3, [r7, #44]	; 0x2c
 800132a:	bf00      	nop
 800132c:	4618      	mov	r0, r3
 800132e:	373c      	adds	r7, #60	; 0x3c
 8001330:	46bd      	mov	sp, r7
 8001332:	e8bd 8ff0 	ldmia.w	sp!, {r4, r5, r6, r7, r8, r9, sl, fp, pc}
 8001336:	bf00      	nop

08001338 <vl53l0x__perform_single_ref_calibration>:
 8001338:	b580      	push	{r7, lr}
 800133a:	b084      	sub	sp, #16
 800133c:	af00      	add	r7, sp, #0
 800133e:	6078      	str	r0, [r7, #4]
 8001340:	460b      	mov	r3, r1
 8001342:	70fb      	strb	r3, [r7, #3]
 8001344:	78fb      	ldrb	r3, [r7, #3]
 8001346:	f043 0301 	orr.w	r3, r3, #1
 800134a:	b2db      	uxtb	r3, r3
 800134c:	6878      	ldr	r0, [r7, #4]
 800134e:	2100      	movs	r1, #0
 8001350:	461a      	mov	r2, r3
 8001352:	f7ff f943 	bl	80005dc <vl53l0x__write__2>
 8001356:	4603      	mov	r3, r0
 8001358:	73bb      	strb	r3, [r7, #14]
 800135a:	7bbb      	ldrb	r3, [r7, #14]
 800135c:	f083 0301 	eor.w	r3, r3, #1
 8001360:	b2db      	uxtb	r3, r3
 8001362:	2b00      	cmp	r3, #0
 8001364:	d132      	bne.n	80013cc <vl53l0x__perform_single_ref_calibration+0x94>
 8001366:	6878      	ldr	r0, [r7, #4]
 8001368:	2114      	movs	r1, #20
 800136a:	f7ff f9b9 	bl	80006e0 <vl53l0x__read__2>
 800136e:	4603      	mov	r3, r0
 8001370:	461a      	mov	r2, r3
 8001372:	73fa      	strb	r2, [r7, #15]
 8001374:	f3c3 2307 	ubfx	r3, r3, #8, #8
 8001378:	b2db      	uxtb	r3, r3
 800137a:	73bb      	strb	r3, [r7, #14]
 800137c:	7bbb      	ldrb	r3, [r7, #14]
 800137e:	f083 0301 	eor.w	r3, r3, #1
 8001382:	b2db      	uxtb	r3, r3
 8001384:	2b00      	cmp	r3, #0
 8001386:	d106      	bne.n	8001396 <vl53l0x__perform_single_ref_calibration+0x5e>
 8001388:	7bfb      	ldrb	r3, [r7, #15]
 800138a:	f003 0307 	and.w	r3, r3, #7
 800138e:	b2db      	uxtb	r3, r3
 8001390:	2b00      	cmp	r3, #0
 8001392:	d100      	bne.n	8001396 <vl53l0x__perform_single_ref_calibration+0x5e>
 8001394:	e7e7      	b.n	8001366 <vl53l0x__perform_single_ref_calibration+0x2e>
 8001396:	7bbb      	ldrb	r3, [r7, #14]
 8001398:	f083 0301 	eor.w	r3, r3, #1
 800139c:	b2db      	uxtb	r3, r3
 800139e:	2b00      	cmp	r3, #0
 80013a0:	d116      	bne.n	80013d0 <vl53l0x__perform_single_ref_calibration+0x98>
 80013a2:	6878      	ldr	r0, [r7, #4]
 80013a4:	210b      	movs	r1, #11
 80013a6:	2201      	movs	r2, #1
 80013a8:	f7ff f918 	bl	80005dc <vl53l0x__write__2>
 80013ac:	4603      	mov	r3, r0
 80013ae:	73bb      	strb	r3, [r7, #14]
 80013b0:	7bbb      	ldrb	r3, [r7, #14]
 80013b2:	f083 0301 	eor.w	r3, r3, #1
 80013b6:	b2db      	uxtb	r3, r3
 80013b8:	2b00      	cmp	r3, #0
 80013ba:	d10b      	bne.n	80013d4 <vl53l0x__perform_single_ref_calibration+0x9c>
 80013bc:	6878      	ldr	r0, [r7, #4]
 80013be:	2100      	movs	r1, #0
 80013c0:	2200      	movs	r2, #0
 80013c2:	f7ff f90b 	bl	80005dc <vl53l0x__write__2>
 80013c6:	4603      	mov	r3, r0
 80013c8:	73bb      	strb	r3, [r7, #14]
 80013ca:	e004      	b.n	80013d6 <vl53l0x__perform_single_ref_calibration+0x9e>
 80013cc:	bf00      	nop
 80013ce:	e002      	b.n	80013d6 <vl53l0x__perform_single_ref_calibration+0x9e>
 80013d0:	bf00      	nop
 80013d2:	e000      	b.n	80013d6 <vl53l0x__perform_single_ref_calibration+0x9e>
 80013d4:	bf00      	nop
 80013d6:	7bbb      	ldrb	r3, [r7, #14]
 80013d8:	bf00      	nop
 80013da:	4618      	mov	r0, r3
 80013dc:	3710      	adds	r7, #16
 80013de:	46bd      	mov	sp, r7
 80013e0:	bd80      	pop	{r7, pc}
 80013e2:	bf00      	nop

080013e4 <vl53l0x__perform_ref_calibration>:
 80013e4:	b580      	push	{r7, lr}
 80013e6:	b084      	sub	sp, #16
 80013e8:	af00      	add	r7, sp, #0
 80013ea:	6078      	str	r0, [r7, #4]
 80013ec:	6878      	ldr	r0, [r7, #4]
 80013ee:	2101      	movs	r1, #1
 80013f0:	2201      	movs	r2, #1
 80013f2:	f7ff f8f3 	bl	80005dc <vl53l0x__write__2>
 80013f6:	4603      	mov	r3, r0
 80013f8:	73fb      	strb	r3, [r7, #15]
 80013fa:	7bfb      	ldrb	r3, [r7, #15]
 80013fc:	2b00      	cmp	r3, #0
 80013fe:	d005      	beq.n	800140c <vl53l0x__perform_ref_calibration+0x28>
 8001400:	6878      	ldr	r0, [r7, #4]
 8001402:	2140      	movs	r1, #64	; 0x40
 8001404:	f7ff ff98 	bl	8001338 <vl53l0x__perform_single_ref_calibration>
 8001408:	4603      	mov	r3, r0
 800140a:	73fb      	strb	r3, [r7, #15]
 800140c:	7bfb      	ldrb	r3, [r7, #15]
 800140e:	2b00      	cmp	r3, #0
 8001410:	d006      	beq.n	8001420 <vl53l0x__perform_ref_calibration+0x3c>
 8001412:	6878      	ldr	r0, [r7, #4]
 8001414:	2101      	movs	r1, #1
 8001416:	2202      	movs	r2, #2
 8001418:	f7ff f8e0 	bl	80005dc <vl53l0x__write__2>
 800141c:	4603      	mov	r3, r0
 800141e:	73fb      	strb	r3, [r7, #15]
 8001420:	7bfb      	ldrb	r3, [r7, #15]
 8001422:	2b00      	cmp	r3, #0
 8001424:	d005      	beq.n	8001432 <vl53l0x__perform_ref_calibration+0x4e>
 8001426:	6878      	ldr	r0, [r7, #4]
 8001428:	2100      	movs	r1, #0
 800142a:	f7ff ff85 	bl	8001338 <vl53l0x__perform_single_ref_calibration>
 800142e:	4603      	mov	r3, r0
 8001430:	73fb      	strb	r3, [r7, #15]
 8001432:	7bfb      	ldrb	r3, [r7, #15]
 8001434:	2b00      	cmp	r3, #0
 8001436:	d006      	beq.n	8001446 <vl53l0x__perform_ref_calibration+0x62>
 8001438:	6878      	ldr	r0, [r7, #4]
 800143a:	2101      	movs	r1, #1
 800143c:	22e8      	movs	r2, #232	; 0xe8
 800143e:	f7ff f8cd 	bl	80005dc <vl53l0x__write__2>
 8001442:	4603      	mov	r3, r0
 8001444:	73fb      	strb	r3, [r7, #15]
 8001446:	7bfb      	ldrb	r3, [r7, #15]
 8001448:	bf00      	nop
 800144a:	4618      	mov	r0, r3
 800144c:	3710      	adds	r7, #16
 800144e:	46bd      	mov	sp, r7
 8001450:	bd80      	pop	{r7, pc}
 8001452:	bf00      	nop

08001454 <vl53l0x__start_range_single_millimeters>:
 8001454:	b580      	push	{r7, lr}
 8001456:	b084      	sub	sp, #16
 8001458:	af00      	add	r7, sp, #0
 800145a:	6078      	str	r0, [r7, #4]
 800145c:	6878      	ldr	r0, [r7, #4]
 800145e:	2180      	movs	r1, #128	; 0x80
 8001460:	2201      	movs	r2, #1
 8001462:	f7ff f8bb 	bl	80005dc <vl53l0x__write__2>
 8001466:	4603      	mov	r3, r0
 8001468:	73bb      	strb	r3, [r7, #14]
 800146a:	7bbb      	ldrb	r3, [r7, #14]
 800146c:	2b00      	cmp	r3, #0
 800146e:	d006      	beq.n	800147e <vl53l0x__start_range_single_millimeters+0x2a>
 8001470:	6878      	ldr	r0, [r7, #4]
 8001472:	21ff      	movs	r1, #255	; 0xff
 8001474:	2201      	movs	r2, #1
 8001476:	f7ff f8b1 	bl	80005dc <vl53l0x__write__2>
 800147a:	4603      	mov	r3, r0
 800147c:	73bb      	strb	r3, [r7, #14]
 800147e:	7bbb      	ldrb	r3, [r7, #14]
 8001480:	2b00      	cmp	r3, #0
 8001482:	d006      	beq.n	8001492 <vl53l0x__start_range_single_millimeters+0x3e>
 8001484:	6878      	ldr	r0, [r7, #4]
 8001486:	2100      	movs	r1, #0
 8001488:	2200      	movs	r2, #0
 800148a:	f7ff f8a7 	bl	80005dc <vl53l0x__write__2>
 800148e:	4603      	mov	r3, r0
 8001490:	73bb      	strb	r3, [r7, #14]
 8001492:	7bbb      	ldrb	r3, [r7, #14]
 8001494:	2b00      	cmp	r3, #0
 8001496:	d008      	beq.n	80014aa <vl53l0x__start_range_single_millimeters+0x56>
 8001498:	687b      	ldr	r3, [r7, #4]
 800149a:	799b      	ldrb	r3, [r3, #6]
 800149c:	6878      	ldr	r0, [r7, #4]
 800149e:	2191      	movs	r1, #145	; 0x91
 80014a0:	461a      	mov	r2, r3
 80014a2:	f7ff f89b 	bl	80005dc <vl53l0x__write__2>
 80014a6:	4603      	mov	r3, r0
 80014a8:	73bb      	strb	r3, [r7, #14]
 80014aa:	7bbb      	ldrb	r3, [r7, #14]
 80014ac:	2b00      	cmp	r3, #0
 80014ae:	d006      	beq.n	80014be <vl53l0x__start_range_single_millimeters+0x6a>
 80014b0:	6878      	ldr	r0, [r7, #4]
 80014b2:	2100      	movs	r1, #0
 80014b4:	2201      	movs	r2, #1
 80014b6:	f7ff f891 	bl	80005dc <vl53l0x__write__2>
 80014ba:	4603      	mov	r3, r0
 80014bc:	73bb      	strb	r3, [r7, #14]
 80014be:	7bbb      	ldrb	r3, [r7, #14]
 80014c0:	2b00      	cmp	r3, #0
 80014c2:	d006      	beq.n	80014d2 <vl53l0x__start_range_single_millimeters+0x7e>
 80014c4:	6878      	ldr	r0, [r7, #4]
 80014c6:	21ff      	movs	r1, #255	; 0xff
 80014c8:	2200      	movs	r2, #0
 80014ca:	f7ff f887 	bl	80005dc <vl53l0x__write__2>
 80014ce:	4603      	mov	r3, r0
 80014d0:	73bb      	strb	r3, [r7, #14]
 80014d2:	7bbb      	ldrb	r3, [r7, #14]
 80014d4:	2b00      	cmp	r3, #0
 80014d6:	d006      	beq.n	80014e6 <vl53l0x__start_range_single_millimeters+0x92>
 80014d8:	6878      	ldr	r0, [r7, #4]
 80014da:	2180      	movs	r1, #128	; 0x80
 80014dc:	2200      	movs	r2, #0
 80014de:	f7ff f87d 	bl	80005dc <vl53l0x__write__2>
 80014e2:	4603      	mov	r3, r0
 80014e4:	73bb      	strb	r3, [r7, #14]
 80014e6:	7bbb      	ldrb	r3, [r7, #14]
 80014e8:	2b00      	cmp	r3, #0
 80014ea:	d006      	beq.n	80014fa <vl53l0x__start_range_single_millimeters+0xa6>
 80014ec:	6878      	ldr	r0, [r7, #4]
 80014ee:	2100      	movs	r1, #0
 80014f0:	2201      	movs	r2, #1
 80014f2:	f7ff f873 	bl	80005dc <vl53l0x__write__2>
 80014f6:	4603      	mov	r3, r0
 80014f8:	73bb      	strb	r3, [r7, #14]
 80014fa:	7bbb      	ldrb	r3, [r7, #14]
 80014fc:	f083 0301 	eor.w	r3, r3, #1
 8001500:	b2db      	uxtb	r3, r3
 8001502:	2b00      	cmp	r3, #0
 8001504:	d117      	bne.n	8001536 <vl53l0x__start_range_single_millimeters+0xe2>
 8001506:	6878      	ldr	r0, [r7, #4]
 8001508:	2100      	movs	r1, #0
 800150a:	f7ff f8e9 	bl	80006e0 <vl53l0x__read__2>
 800150e:	4603      	mov	r3, r0
 8001510:	461a      	mov	r2, r3
 8001512:	73fa      	strb	r2, [r7, #15]
 8001514:	f3c3 2307 	ubfx	r3, r3, #8, #8
 8001518:	b2db      	uxtb	r3, r3
 800151a:	73bb      	strb	r3, [r7, #14]
 800151c:	7bbb      	ldrb	r3, [r7, #14]
 800151e:	f083 0301 	eor.w	r3, r3, #1
 8001522:	b2db      	uxtb	r3, r3
 8001524:	2b00      	cmp	r3, #0
 8001526:	d107      	bne.n	8001538 <vl53l0x__start_range_single_millimeters+0xe4>
 8001528:	7bfb      	ldrb	r3, [r7, #15]
 800152a:	f003 0301 	and.w	r3, r3, #1
 800152e:	b2db      	uxtb	r3, r3
 8001530:	2b00      	cmp	r3, #0
 8001532:	d001      	beq.n	8001538 <vl53l0x__start_range_single_millimeters+0xe4>
 8001534:	e7e7      	b.n	8001506 <vl53l0x__start_range_single_millimeters+0xb2>
 8001536:	bf00      	nop
 8001538:	7bbb      	ldrb	r3, [r7, #14]
 800153a:	bf00      	nop
 800153c:	4618      	mov	r0, r3
 800153e:	3710      	adds	r7, #16
 8001540:	46bd      	mov	sp, r7
 8001542:	bd80      	pop	{r7, pc}

08001544 <vl53l0x__range_value_available>:
 8001544:	b580      	push	{r7, lr}
 8001546:	b084      	sub	sp, #16
 8001548:	af00      	add	r7, sp, #0
 800154a:	6078      	str	r0, [r7, #4]
 800154c:	6878      	ldr	r0, [r7, #4]
 800154e:	2113      	movs	r1, #19
 8001550:	f7ff f8c6 	bl	80006e0 <vl53l0x__read__2>
 8001554:	4603      	mov	r3, r0
 8001556:	461a      	mov	r2, r3
 8001558:	73fa      	strb	r2, [r7, #15]
 800155a:	f3c3 2307 	ubfx	r3, r3, #8, #8
 800155e:	73bb      	strb	r3, [r7, #14]
 8001560:	7bfb      	ldrb	r3, [r7, #15]
 8001562:	f003 0307 	and.w	r3, r3, #7
 8001566:	b2db      	uxtb	r3, r3
 8001568:	2b00      	cmp	r3, #0
 800156a:	bf14      	ite	ne
 800156c:	2301      	movne	r3, #1
 800156e:	2300      	moveq	r3, #0
 8001570:	b2db      	uxtb	r3, r3
 8001572:	bf00      	nop
 8001574:	4618      	mov	r0, r3
 8001576:	3710      	adds	r7, #16
 8001578:	46bd      	mov	sp, r7
 800157a:	bd80      	pop	{r7, pc}

0800157c <vl53l0x__read_range_millimeters>:
 800157c:	b5b0      	push	{r4, r5, r7, lr}
 800157e:	b084      	sub	sp, #16
 8001580:	af00      	add	r7, sp, #0
 8001582:	6078      	str	r0, [r7, #4]
 8001584:	6878      	ldr	r0, [r7, #4]
 8001586:	f7ff ffdd 	bl	8001544 <vl53l0x__range_value_available>
 800158a:	4603      	mov	r3, r0
 800158c:	f083 0301 	eor.w	r3, r3, #1
 8001590:	b2db      	uxtb	r3, r3
 8001592:	2b00      	cmp	r3, #0
 8001594:	d005      	beq.n	80015a2 <vl53l0x__read_range_millimeters+0x26>
 8001596:	4c0e      	ldr	r4, [pc, #56]	; (80015d0 <vl53l0x__read_range_millimeters+0x54>)
 8001598:	4d0e      	ldr	r5, [pc, #56]	; (80015d4 <vl53l0x__read_range_millimeters+0x58>)
 800159a:	4620      	mov	r0, r4
 800159c:	4629      	mov	r1, r5
 800159e:	f009 f80b 	bl	800a5b8 <system__assertions__raise_assert_failure>
 80015a2:	6878      	ldr	r0, [r7, #4]
 80015a4:	211e      	movs	r1, #30
 80015a6:	f7ff f8cf 	bl	8000748 <vl53l0x__read__3>
 80015aa:	4603      	mov	r3, r0
 80015ac:	461a      	mov	r2, r3
 80015ae:	81fa      	strh	r2, [r7, #14]
 80015b0:	f3c3 4307 	ubfx	r3, r3, #16, #8
 80015b4:	737b      	strb	r3, [r7, #13]
 80015b6:	6878      	ldr	r0, [r7, #4]
 80015b8:	210b      	movs	r1, #11
 80015ba:	2201      	movs	r2, #1
 80015bc:	f7ff f80e 	bl	80005dc <vl53l0x__write__2>
 80015c0:	4603      	mov	r3, r0
 80015c2:	737b      	strb	r3, [r7, #13]
 80015c4:	89fb      	ldrh	r3, [r7, #14]
 80015c6:	bf00      	nop
 80015c8:	4618      	mov	r0, r3
 80015ca:	3710      	adds	r7, #16
 80015cc:	46bd      	mov	sp, r7
 80015ce:	bdb0      	pop	{r4, r5, r7, pc}
 80015d0:	0800b06c 	.word	0x0800b06c
 80015d4:	0800b094 	.word	0x0800b094

080015d8 <vl53l0x__read_range_single_millimeters>:
 80015d8:	b580      	push	{r7, lr}
 80015da:	b084      	sub	sp, #16
 80015dc:	af00      	add	r7, sp, #0
 80015de:	6078      	str	r0, [r7, #4]
 80015e0:	6878      	ldr	r0, [r7, #4]
 80015e2:	f7ff ff37 	bl	8001454 <vl53l0x__start_range_single_millimeters>
 80015e6:	4603      	mov	r3, r0
 80015e8:	73fb      	strb	r3, [r7, #15]
 80015ea:	7bfb      	ldrb	r3, [r7, #15]
 80015ec:	f083 0301 	eor.w	r3, r3, #1
 80015f0:	b2db      	uxtb	r3, r3
 80015f2:	2b00      	cmp	r3, #0
 80015f4:	d002      	beq.n	80015fc <vl53l0x__read_range_single_millimeters+0x24>
 80015f6:	f44f 637a 	mov.w	r3, #4000	; 0xfa0
 80015fa:	e00f      	b.n	800161c <vl53l0x__read_range_single_millimeters+0x44>
 80015fc:	6878      	ldr	r0, [r7, #4]
 80015fe:	f7ff ffa1 	bl	8001544 <vl53l0x__range_value_available>
 8001602:	4603      	mov	r3, r0
 8001604:	f083 0301 	eor.w	r3, r3, #1
 8001608:	b2db      	uxtb	r3, r3
 800160a:	2b00      	cmp	r3, #0
 800160c:	d001      	beq.n	8001612 <vl53l0x__read_range_single_millimeters+0x3a>
 800160e:	bf00      	nop
 8001610:	e7f4      	b.n	80015fc <vl53l0x__read_range_single_millimeters+0x24>
 8001612:	6878      	ldr	r0, [r7, #4]
 8001614:	f7ff ffb2 	bl	800157c <vl53l0x__read_range_millimeters>
 8001618:	4603      	mov	r3, r0
 800161a:	bf00      	nop
 800161c:	bf00      	nop
 800161e:	4618      	mov	r0, r3
 8001620:	3710      	adds	r7, #16
 8001622:	46bd      	mov	sp, r7
 8001624:	bd80      	pop	{r7, pc}
 8001626:	bf00      	nop

08001628 <vl53l0x__set_gpio_config>:
 8001628:	b580      	push	{r7, lr}
 800162a:	b084      	sub	sp, #16
 800162c:	af00      	add	r7, sp, #0
 800162e:	6078      	str	r0, [r7, #4]
 8001630:	460b      	mov	r3, r1
 8001632:	70fb      	strb	r3, [r7, #3]
 8001634:	4613      	mov	r3, r2
 8001636:	70bb      	strb	r3, [r7, #2]
 8001638:	78fb      	ldrb	r3, [r7, #3]
 800163a:	2b04      	cmp	r3, #4
 800163c:	d904      	bls.n	8001648 <vl53l0x__set_gpio_config+0x20>
 800163e:	4831      	ldr	r0, [pc, #196]	; (8001704 <vl53l0x__set_gpio_config+0xdc>)
 8001640:	f240 315a 	movw	r1, #858	; 0x35a
 8001644:	f7fe fe82 	bl	800034c <__gnat_last_chance_handler>
 8001648:	78fb      	ldrb	r3, [r7, #3]
 800164a:	2b03      	cmp	r3, #3
 800164c:	d816      	bhi.n	800167c <vl53l0x__set_gpio_config+0x54>
 800164e:	a201      	add	r2, pc, #4	; (adr r2, 8001654 <vl53l0x__set_gpio_config+0x2c>)
 8001650:	f852 f023 	ldr.w	pc, [r2, r3, lsl #2]
 8001654:	08001665 	.word	0x08001665
 8001658:	0800166b 	.word	0x0800166b
 800165c:	08001671 	.word	0x08001671
 8001660:	08001677 	.word	0x08001677
 8001664:	2300      	movs	r3, #0
 8001666:	73fb      	strb	r3, [r7, #15]
 8001668:	e00a      	b.n	8001680 <vl53l0x__set_gpio_config+0x58>
 800166a:	2301      	movs	r3, #1
 800166c:	73fb      	strb	r3, [r7, #15]
 800166e:	e007      	b.n	8001680 <vl53l0x__set_gpio_config+0x58>
 8001670:	2302      	movs	r3, #2
 8001672:	73fb      	strb	r3, [r7, #15]
 8001674:	e004      	b.n	8001680 <vl53l0x__set_gpio_config+0x58>
 8001676:	2303      	movs	r3, #3
 8001678:	73fb      	strb	r3, [r7, #15]
 800167a:	e001      	b.n	8001680 <vl53l0x__set_gpio_config+0x58>
 800167c:	2304      	movs	r3, #4
 800167e:	73fb      	strb	r3, [r7, #15]
 8001680:	bf00      	nop
 8001682:	7bfb      	ldrb	r3, [r7, #15]
 8001684:	6878      	ldr	r0, [r7, #4]
 8001686:	210a      	movs	r1, #10
 8001688:	461a      	mov	r2, r3
 800168a:	f7fe ffa7 	bl	80005dc <vl53l0x__write__2>
 800168e:	4603      	mov	r3, r0
 8001690:	737b      	strb	r3, [r7, #13]
 8001692:	7b7b      	ldrb	r3, [r7, #13]
 8001694:	2b00      	cmp	r3, #0
 8001696:	d029      	beq.n	80016ec <vl53l0x__set_gpio_config+0xc4>
 8001698:	78bb      	ldrb	r3, [r7, #2]
 800169a:	2b01      	cmp	r3, #1
 800169c:	d904      	bls.n	80016a8 <vl53l0x__set_gpio_config+0x80>
 800169e:	4819      	ldr	r0, [pc, #100]	; (8001704 <vl53l0x__set_gpio_config+0xdc>)
 80016a0:	f44f 715b 	mov.w	r1, #876	; 0x36c
 80016a4:	f7fe fe52 	bl	800034c <__gnat_last_chance_handler>
 80016a8:	78bb      	ldrb	r3, [r7, #2]
 80016aa:	2b00      	cmp	r3, #0
 80016ac:	d102      	bne.n	80016b4 <vl53l0x__set_gpio_config+0x8c>
 80016ae:	2310      	movs	r3, #16
 80016b0:	73fb      	strb	r3, [r7, #15]
 80016b2:	e001      	b.n	80016b8 <vl53l0x__set_gpio_config+0x90>
 80016b4:	2300      	movs	r3, #0
 80016b6:	73fb      	strb	r3, [r7, #15]
 80016b8:	6878      	ldr	r0, [r7, #4]
 80016ba:	2184      	movs	r1, #132	; 0x84
 80016bc:	f7ff f810 	bl	80006e0 <vl53l0x__read__2>
 80016c0:	4603      	mov	r3, r0
 80016c2:	461a      	mov	r2, r3
 80016c4:	73ba      	strb	r2, [r7, #14]
 80016c6:	f3c3 2307 	ubfx	r3, r3, #8, #8
 80016ca:	b2db      	uxtb	r3, r3
 80016cc:	737b      	strb	r3, [r7, #13]
 80016ce:	7bbb      	ldrb	r3, [r7, #14]
 80016d0:	f023 0310 	bic.w	r3, r3, #16
 80016d4:	b2da      	uxtb	r2, r3
 80016d6:	7bfb      	ldrb	r3, [r7, #15]
 80016d8:	4313      	orrs	r3, r2
 80016da:	73bb      	strb	r3, [r7, #14]
 80016dc:	7bbb      	ldrb	r3, [r7, #14]
 80016de:	6878      	ldr	r0, [r7, #4]
 80016e0:	2184      	movs	r1, #132	; 0x84
 80016e2:	461a      	mov	r2, r3
 80016e4:	f7fe ff7a 	bl	80005dc <vl53l0x__write__2>
 80016e8:	4603      	mov	r3, r0
 80016ea:	737b      	strb	r3, [r7, #13]
 80016ec:	7b7b      	ldrb	r3, [r7, #13]
 80016ee:	2b00      	cmp	r3, #0
 80016f0:	d002      	beq.n	80016f8 <vl53l0x__set_gpio_config+0xd0>
 80016f2:	6878      	ldr	r0, [r7, #4]
 80016f4:	f000 f808 	bl	8001708 <vl53l0x__clear_interrupt_mask>
 80016f8:	7b7b      	ldrb	r3, [r7, #13]
 80016fa:	bf00      	nop
 80016fc:	4618      	mov	r0, r3
 80016fe:	3710      	adds	r7, #16
 8001700:	46bd      	mov	sp, r7
 8001702:	bd80      	pop	{r7, pc}
 8001704:	0800b030 	.word	0x0800b030

08001708 <vl53l0x__clear_interrupt_mask>:
 8001708:	b580      	push	{r7, lr}
 800170a:	b084      	sub	sp, #16
 800170c:	af00      	add	r7, sp, #0
 800170e:	6078      	str	r0, [r7, #4]
 8001710:	6878      	ldr	r0, [r7, #4]
 8001712:	210b      	movs	r1, #11
 8001714:	2201      	movs	r2, #1
 8001716:	f7fe ff61 	bl	80005dc <vl53l0x__write__2>
 800171a:	4603      	mov	r3, r0
 800171c:	73fb      	strb	r3, [r7, #15]
 800171e:	3710      	adds	r7, #16
 8001720:	46bd      	mov	sp, r7
 8001722:	bd80      	pop	{r7, pc}

08001724 <vl53l0x__sequence_step_enabled__sequence_step_enabled.5042>:
 8001724:	b580      	push	{r7, lr}
 8001726:	b082      	sub	sp, #8
 8001728:	af00      	add	r7, sp, #0
 800172a:	4603      	mov	r3, r0
 800172c:	460a      	mov	r2, r1
 800172e:	71fb      	strb	r3, [r7, #7]
 8001730:	4613      	mov	r3, r2
 8001732:	71bb      	strb	r3, [r7, #6]
 8001734:	f8c7 c000 	str.w	ip, [r7]
 8001738:	79fb      	ldrb	r3, [r7, #7]
 800173a:	2b04      	cmp	r3, #4
 800173c:	d904      	bls.n	8001748 <vl53l0x__sequence_step_enabled__sequence_step_enabled.5042+0x24>
 800173e:	4821      	ldr	r0, [pc, #132]	; (80017c4 <vl53l0x__sequence_step_enabled__sequence_step_enabled.5042+0xa0>)
 8001740:	f240 31aa 	movw	r1, #938	; 0x3aa
 8001744:	f7fe fe02 	bl	800034c <__gnat_last_chance_handler>
 8001748:	79fb      	ldrb	r3, [r7, #7]
 800174a:	2b03      	cmp	r3, #3
 800174c:	d832      	bhi.n	80017b4 <vl53l0x__sequence_step_enabled__sequence_step_enabled.5042+0x90>
 800174e:	a201      	add	r2, pc, #4	; (adr r2, 8001754 <vl53l0x__sequence_step_enabled__sequence_step_enabled.5042+0x30>)
 8001750:	f852 f023 	ldr.w	pc, [r2, r3, lsl #2]
 8001754:	08001765 	.word	0x08001765
 8001758:	08001779 	.word	0x08001779
 800175c:	0800178d 	.word	0x0800178d
 8001760:	080017a1 	.word	0x080017a1
 8001764:	79bb      	ldrb	r3, [r7, #6]
 8001766:	f003 0310 	and.w	r3, r3, #16
 800176a:	b2db      	uxtb	r3, r3
 800176c:	2b00      	cmp	r3, #0
 800176e:	bf14      	ite	ne
 8001770:	2301      	movne	r3, #1
 8001772:	2300      	moveq	r3, #0
 8001774:	b2db      	uxtb	r3, r3
 8001776:	e020      	b.n	80017ba <vl53l0x__sequence_step_enabled__sequence_step_enabled.5042+0x96>
 8001778:	79bb      	ldrb	r3, [r7, #6]
 800177a:	f003 0308 	and.w	r3, r3, #8
 800177e:	b2db      	uxtb	r3, r3
 8001780:	2b00      	cmp	r3, #0
 8001782:	bf14      	ite	ne
 8001784:	2301      	movne	r3, #1
 8001786:	2300      	moveq	r3, #0
 8001788:	b2db      	uxtb	r3, r3
 800178a:	e016      	b.n	80017ba <vl53l0x__sequence_step_enabled__sequence_step_enabled.5042+0x96>
 800178c:	79bb      	ldrb	r3, [r7, #6]
 800178e:	f003 0304 	and.w	r3, r3, #4
 8001792:	b2db      	uxtb	r3, r3
 8001794:	2b00      	cmp	r3, #0
 8001796:	bf14      	ite	ne
 8001798:	2301      	movne	r3, #1
 800179a:	2300      	moveq	r3, #0
 800179c:	b2db      	uxtb	r3, r3
 800179e:	e00c      	b.n	80017ba <vl53l0x__sequence_step_enabled__sequence_step_enabled.5042+0x96>
 80017a0:	79bb      	ldrb	r3, [r7, #6]
 80017a2:	f003 0340 	and.w	r3, r3, #64	; 0x40
 80017a6:	b2db      	uxtb	r3, r3
 80017a8:	2b00      	cmp	r3, #0
 80017aa:	bf14      	ite	ne
 80017ac:	2301      	movne	r3, #1
 80017ae:	2300      	moveq	r3, #0
 80017b0:	b2db      	uxtb	r3, r3
 80017b2:	e002      	b.n	80017ba <vl53l0x__sequence_step_enabled__sequence_step_enabled.5042+0x96>
 80017b4:	79bb      	ldrb	r3, [r7, #6]
 80017b6:	09db      	lsrs	r3, r3, #7
 80017b8:	b2db      	uxtb	r3, r3
 80017ba:	bf00      	nop
 80017bc:	4618      	mov	r0, r3
 80017be:	3708      	adds	r7, #8
 80017c0:	46bd      	mov	sp, r7
 80017c2:	bd80      	pop	{r7, pc}
 80017c4:	0800b030 	.word	0x0800b030

080017c8 <vl53l0x__sequence_step_enabled>:
 80017c8:	b590      	push	{r4, r7, lr}
 80017ca:	b087      	sub	sp, #28
 80017cc:	af00      	add	r7, sp, #0
 80017ce:	6078      	str	r0, [r7, #4]
 80017d0:	6039      	str	r1, [r7, #0]
 80017d2:	f107 0328 	add.w	r3, r7, #40	; 0x28
 80017d6:	60bb      	str	r3, [r7, #8]
 80017d8:	2300      	movs	r3, #0
 80017da:	75bb      	strb	r3, [r7, #22]
 80017dc:	6838      	ldr	r0, [r7, #0]
 80017de:	2101      	movs	r1, #1
 80017e0:	f7fe ff7e 	bl	80006e0 <vl53l0x__read__2>
 80017e4:	4603      	mov	r3, r0
 80017e6:	461a      	mov	r2, r3
 80017e8:	75ba      	strb	r2, [r7, #22]
 80017ea:	f3c3 2307 	ubfx	r3, r3, #8, #8
 80017ee:	757b      	strb	r3, [r7, #21]
 80017f0:	7d7b      	ldrb	r3, [r7, #21]
 80017f2:	f083 0301 	eor.w	r3, r3, #1
 80017f6:	b2db      	uxtb	r3, r3
 80017f8:	2b00      	cmp	r3, #0
 80017fa:	d00f      	beq.n	800181c <vl53l0x__sequence_step_enabled+0x54>
 80017fc:	687b      	ldr	r3, [r7, #4]
 80017fe:	2200      	movs	r2, #0
 8001800:	701a      	strb	r2, [r3, #0]
 8001802:	687b      	ldr	r3, [r7, #4]
 8001804:	2200      	movs	r2, #0
 8001806:	705a      	strb	r2, [r3, #1]
 8001808:	687b      	ldr	r3, [r7, #4]
 800180a:	2200      	movs	r2, #0
 800180c:	709a      	strb	r2, [r3, #2]
 800180e:	687b      	ldr	r3, [r7, #4]
 8001810:	2200      	movs	r2, #0
 8001812:	70da      	strb	r2, [r3, #3]
 8001814:	687b      	ldr	r3, [r7, #4]
 8001816:	2200      	movs	r2, #0
 8001818:	711a      	strb	r2, [r3, #4]
 800181a:	e021      	b.n	8001860 <vl53l0x__sequence_step_enabled+0x98>
 800181c:	2300      	movs	r3, #0
 800181e:	75fb      	strb	r3, [r7, #23]
 8001820:	7dfc      	ldrb	r4, [r7, #23]
 8001822:	7df9      	ldrb	r1, [r7, #23]
 8001824:	7dba      	ldrb	r2, [r7, #22]
 8001826:	f107 0308 	add.w	r3, r7, #8
 800182a:	469c      	mov	ip, r3
 800182c:	4608      	mov	r0, r1
 800182e:	4611      	mov	r1, r2
 8001830:	f7ff ff78 	bl	8001724 <vl53l0x__sequence_step_enabled__sequence_step_enabled.5042>
 8001834:	4603      	mov	r3, r0
 8001836:	461a      	mov	r2, r3
 8001838:	f107 0318 	add.w	r3, r7, #24
 800183c:	4423      	add	r3, r4
 800183e:	f803 2c0c 	strb.w	r2, [r3, #-12]
 8001842:	7dfb      	ldrb	r3, [r7, #23]
 8001844:	2b04      	cmp	r3, #4
 8001846:	d003      	beq.n	8001850 <vl53l0x__sequence_step_enabled+0x88>
 8001848:	7dfb      	ldrb	r3, [r7, #23]
 800184a:	3301      	adds	r3, #1
 800184c:	75fb      	strb	r3, [r7, #23]
 800184e:	e7e7      	b.n	8001820 <vl53l0x__sequence_step_enabled+0x58>
 8001850:	687b      	ldr	r3, [r7, #4]
 8001852:	461a      	mov	r2, r3
 8001854:	f107 030c 	add.w	r3, r7, #12
 8001858:	6818      	ldr	r0, [r3, #0]
 800185a:	6010      	str	r0, [r2, #0]
 800185c:	791b      	ldrb	r3, [r3, #4]
 800185e:	7113      	strb	r3, [r2, #4]
 8001860:	6878      	ldr	r0, [r7, #4]
 8001862:	371c      	adds	r7, #28
 8001864:	46bd      	mov	sp, r7
 8001866:	bd90      	pop	{r4, r7, pc}

08001868 <vl53l0x__sequence_step_timeout>:
 8001868:	b580      	push	{r7, lr}
 800186a:	b088      	sub	sp, #32
 800186c:	af00      	add	r7, sp, #0
 800186e:	6078      	str	r0, [r7, #4]
 8001870:	460b      	mov	r3, r1
 8001872:	70fb      	strb	r3, [r7, #3]
 8001874:	4613      	mov	r3, r2
 8001876:	70bb      	strb	r3, [r7, #2]
 8001878:	78fb      	ldrb	r3, [r7, #3]
 800187a:	2b04      	cmp	r3, #4
 800187c:	d904      	bls.n	8001888 <vl53l0x__sequence_step_timeout+0x20>
 800187e:	4854      	ldr	r0, [pc, #336]	; (80019d0 <vl53l0x__sequence_step_timeout+0x168>)
 8001880:	f44f 7176 	mov.w	r1, #984	; 0x3d8
 8001884:	f7fe fd62 	bl	800034c <__gnat_last_chance_handler>
 8001888:	78fb      	ldrb	r3, [r7, #3]
 800188a:	2b02      	cmp	r3, #2
 800188c:	d902      	bls.n	8001894 <vl53l0x__sequence_step_timeout+0x2c>
 800188e:	2b03      	cmp	r3, #3
 8001890:	d025      	beq.n	80018de <vl53l0x__sequence_step_timeout+0x76>
 8001892:	e048      	b.n	8001926 <vl53l0x__sequence_step_timeout+0xbe>
 8001894:	6878      	ldr	r0, [r7, #4]
 8001896:	2146      	movs	r1, #70	; 0x46
 8001898:	f7fe ff22 	bl	80006e0 <vl53l0x__read__2>
 800189c:	4603      	mov	r3, r0
 800189e:	461a      	mov	r2, r3
 80018a0:	76fa      	strb	r2, [r7, #27]
 80018a2:	f3c3 2307 	ubfx	r3, r3, #8, #8
 80018a6:	76bb      	strb	r3, [r7, #26]
 80018a8:	7ebb      	ldrb	r3, [r7, #26]
 80018aa:	2b00      	cmp	r3, #0
 80018ac:	d005      	beq.n	80018ba <vl53l0x__sequence_step_timeout+0x52>
 80018ae:	7efb      	ldrb	r3, [r7, #27]
 80018b0:	b29b      	uxth	r3, r3
 80018b2:	4618      	mov	r0, r3
 80018b4:	f7fe ffc2 	bl	800083c <vl53l0x__decode_timeout>
 80018b8:	61f8      	str	r0, [r7, #28]
 80018ba:	78bb      	ldrb	r3, [r7, #2]
 80018bc:	2b00      	cmp	r3, #0
 80018be:	d001      	beq.n	80018c4 <vl53l0x__sequence_step_timeout+0x5c>
 80018c0:	69fb      	ldr	r3, [r7, #28]
 80018c2:	e080      	b.n	80019c6 <vl53l0x__sequence_step_timeout+0x15e>
 80018c4:	6878      	ldr	r0, [r7, #4]
 80018c6:	2103      	movs	r1, #3
 80018c8:	f000 fcf8 	bl	80022bc <vl53l0x__vcsel_pulse_period>
 80018cc:	4603      	mov	r3, r0
 80018ce:	767b      	strb	r3, [r7, #25]
 80018d0:	7e7b      	ldrb	r3, [r7, #25]
 80018d2:	69f8      	ldr	r0, [r7, #28]
 80018d4:	4619      	mov	r1, r3
 80018d6:	f7ff f82b 	bl	8000930 <vl53l0x__to_timeout_microseconds>
 80018da:	4603      	mov	r3, r0
 80018dc:	e073      	b.n	80019c6 <vl53l0x__sequence_step_timeout+0x15e>
 80018de:	6878      	ldr	r0, [r7, #4]
 80018e0:	2151      	movs	r1, #81	; 0x51
 80018e2:	f7fe ff31 	bl	8000748 <vl53l0x__read__3>
 80018e6:	4603      	mov	r3, r0
 80018e8:	461a      	mov	r2, r3
 80018ea:	82fa      	strh	r2, [r7, #22]
 80018ec:	f3c3 4307 	ubfx	r3, r3, #16, #8
 80018f0:	76bb      	strb	r3, [r7, #26]
 80018f2:	7ebb      	ldrb	r3, [r7, #26]
 80018f4:	2b00      	cmp	r3, #0
 80018f6:	d004      	beq.n	8001902 <vl53l0x__sequence_step_timeout+0x9a>
 80018f8:	8afb      	ldrh	r3, [r7, #22]
 80018fa:	4618      	mov	r0, r3
 80018fc:	f7fe ff9e 	bl	800083c <vl53l0x__decode_timeout>
 8001900:	61f8      	str	r0, [r7, #28]
 8001902:	78bb      	ldrb	r3, [r7, #2]
 8001904:	2b00      	cmp	r3, #0
 8001906:	d001      	beq.n	800190c <vl53l0x__sequence_step_timeout+0xa4>
 8001908:	69fb      	ldr	r3, [r7, #28]
 800190a:	e05c      	b.n	80019c6 <vl53l0x__sequence_step_timeout+0x15e>
 800190c:	6878      	ldr	r0, [r7, #4]
 800190e:	2103      	movs	r1, #3
 8001910:	f000 fcd4 	bl	80022bc <vl53l0x__vcsel_pulse_period>
 8001914:	4603      	mov	r3, r0
 8001916:	767b      	strb	r3, [r7, #25]
 8001918:	7e7b      	ldrb	r3, [r7, #25]
 800191a:	69f8      	ldr	r0, [r7, #28]
 800191c:	4619      	mov	r1, r3
 800191e:	f7ff f807 	bl	8000930 <vl53l0x__to_timeout_microseconds>
 8001922:	4603      	mov	r3, r0
 8001924:	e04f      	b.n	80019c6 <vl53l0x__sequence_step_timeout+0x15e>
 8001926:	f107 0310 	add.w	r3, r7, #16
 800192a:	4618      	mov	r0, r3
 800192c:	6879      	ldr	r1, [r7, #4]
 800192e:	f7ff ff4b 	bl	80017c8 <vl53l0x__sequence_step_enabled>
 8001932:	f107 0308 	add.w	r3, r7, #8
 8001936:	f107 0210 	add.w	r2, r7, #16
 800193a:	e892 0003 	ldmia.w	r2, {r0, r1}
 800193e:	6018      	str	r0, [r3, #0]
 8001940:	3304      	adds	r3, #4
 8001942:	7019      	strb	r1, [r3, #0]
 8001944:	7afb      	ldrb	r3, [r7, #11]
 8001946:	2b00      	cmp	r3, #0
 8001948:	d018      	beq.n	800197c <vl53l0x__sequence_step_timeout+0x114>
 800194a:	6878      	ldr	r0, [r7, #4]
 800194c:	2103      	movs	r1, #3
 800194e:	f000 fcb5 	bl	80022bc <vl53l0x__vcsel_pulse_period>
 8001952:	4603      	mov	r3, r0
 8001954:	767b      	strb	r3, [r7, #25]
 8001956:	6878      	ldr	r0, [r7, #4]
 8001958:	2151      	movs	r1, #81	; 0x51
 800195a:	f7fe fef5 	bl	8000748 <vl53l0x__read__3>
 800195e:	4603      	mov	r3, r0
 8001960:	461a      	mov	r2, r3
 8001962:	82fa      	strh	r2, [r7, #22]
 8001964:	f3c3 4307 	ubfx	r3, r3, #16, #8
 8001968:	76bb      	strb	r3, [r7, #26]
 800196a:	7ebb      	ldrb	r3, [r7, #26]
 800196c:	2b00      	cmp	r3, #0
 800196e:	d007      	beq.n	8001980 <vl53l0x__sequence_step_timeout+0x118>
 8001970:	8afb      	ldrh	r3, [r7, #22]
 8001972:	4618      	mov	r0, r3
 8001974:	f7fe ff62 	bl	800083c <vl53l0x__decode_timeout>
 8001978:	61f8      	str	r0, [r7, #28]
 800197a:	e001      	b.n	8001980 <vl53l0x__sequence_step_timeout+0x118>
 800197c:	2300      	movs	r3, #0
 800197e:	61fb      	str	r3, [r7, #28]
 8001980:	6878      	ldr	r0, [r7, #4]
 8001982:	2104      	movs	r1, #4
 8001984:	f000 fc9a 	bl	80022bc <vl53l0x__vcsel_pulse_period>
 8001988:	4603      	mov	r3, r0
 800198a:	767b      	strb	r3, [r7, #25]
 800198c:	6878      	ldr	r0, [r7, #4]
 800198e:	2171      	movs	r1, #113	; 0x71
 8001990:	f7fe feda 	bl	8000748 <vl53l0x__read__3>
 8001994:	4603      	mov	r3, r0
 8001996:	461a      	mov	r2, r3
 8001998:	82fa      	strh	r2, [r7, #22]
 800199a:	f3c3 4307 	ubfx	r3, r3, #16, #8
 800199e:	76bb      	strb	r3, [r7, #26]
 80019a0:	8afb      	ldrh	r3, [r7, #22]
 80019a2:	4618      	mov	r0, r3
 80019a4:	f7fe ff4a 	bl	800083c <vl53l0x__decode_timeout>
 80019a8:	4602      	mov	r2, r0
 80019aa:	69fb      	ldr	r3, [r7, #28]
 80019ac:	1ad3      	subs	r3, r2, r3
 80019ae:	61fb      	str	r3, [r7, #28]
 80019b0:	78bb      	ldrb	r3, [r7, #2]
 80019b2:	2b00      	cmp	r3, #0
 80019b4:	d001      	beq.n	80019ba <vl53l0x__sequence_step_timeout+0x152>
 80019b6:	69fb      	ldr	r3, [r7, #28]
 80019b8:	e005      	b.n	80019c6 <vl53l0x__sequence_step_timeout+0x15e>
 80019ba:	7e7b      	ldrb	r3, [r7, #25]
 80019bc:	69f8      	ldr	r0, [r7, #28]
 80019be:	4619      	mov	r1, r3
 80019c0:	f7fe ffb6 	bl	8000930 <vl53l0x__to_timeout_microseconds>
 80019c4:	4603      	mov	r3, r0
 80019c6:	bf00      	nop
 80019c8:	4618      	mov	r0, r3
 80019ca:	3720      	adds	r7, #32
 80019cc:	46bd      	mov	sp, r7
 80019ce:	bd80      	pop	{r7, pc}
 80019d0:	0800b030 	.word	0x0800b030

080019d4 <vl53l0x__measurement_timing_budget>:
 80019d4:	b580      	push	{r7, lr}
 80019d6:	b08a      	sub	sp, #40	; 0x28
 80019d8:	af00      	add	r7, sp, #0
 80019da:	6078      	str	r0, [r7, #4]
 80019dc:	f640 3336 	movw	r3, #2870	; 0xb36
 80019e0:	627b      	str	r3, [r7, #36]	; 0x24
 80019e2:	f107 0310 	add.w	r3, r7, #16
 80019e6:	4618      	mov	r0, r3
 80019e8:	6879      	ldr	r1, [r7, #4]
 80019ea:	f7ff feed 	bl	80017c8 <vl53l0x__sequence_step_enabled>
 80019ee:	f107 0308 	add.w	r3, r7, #8
 80019f2:	f107 0210 	add.w	r2, r7, #16
 80019f6:	e892 0003 	ldmia.w	r2, {r0, r1}
 80019fa:	6018      	str	r0, [r3, #0]
 80019fc:	3304      	adds	r3, #4
 80019fe:	7019      	strb	r1, [r3, #0]
 8001a00:	7a3b      	ldrb	r3, [r7, #8]
 8001a02:	2b00      	cmp	r3, #0
 8001a04:	d105      	bne.n	8001a12 <vl53l0x__measurement_timing_budget+0x3e>
 8001a06:	7abb      	ldrb	r3, [r7, #10]
 8001a08:	2b00      	cmp	r3, #0
 8001a0a:	d102      	bne.n	8001a12 <vl53l0x__measurement_timing_budget+0x3e>
 8001a0c:	7a7b      	ldrb	r3, [r7, #9]
 8001a0e:	2b00      	cmp	r3, #0
 8001a10:	d020      	beq.n	8001a54 <vl53l0x__measurement_timing_budget+0x80>
 8001a12:	6878      	ldr	r0, [r7, #4]
 8001a14:	2102      	movs	r1, #2
 8001a16:	2200      	movs	r2, #0
 8001a18:	f7ff ff26 	bl	8001868 <vl53l0x__sequence_step_timeout>
 8001a1c:	6238      	str	r0, [r7, #32]
 8001a1e:	7a3b      	ldrb	r3, [r7, #8]
 8001a20:	2b00      	cmp	r3, #0
 8001a22:	d003      	beq.n	8001a2c <vl53l0x__measurement_timing_budget+0x58>
 8001a24:	6a3b      	ldr	r3, [r7, #32]
 8001a26:	f603 5384 	addw	r3, r3, #3460	; 0xd84
 8001a2a:	627b      	str	r3, [r7, #36]	; 0x24
 8001a2c:	7a7b      	ldrb	r3, [r7, #9]
 8001a2e:	2b00      	cmp	r3, #0
 8001a30:	d007      	beq.n	8001a42 <vl53l0x__measurement_timing_budget+0x6e>
 8001a32:	6a3b      	ldr	r3, [r7, #32]
 8001a34:	f203 23b2 	addw	r3, r3, #690	; 0x2b2
 8001a38:	005b      	lsls	r3, r3, #1
 8001a3a:	6a7a      	ldr	r2, [r7, #36]	; 0x24
 8001a3c:	4413      	add	r3, r2
 8001a3e:	627b      	str	r3, [r7, #36]	; 0x24
 8001a40:	e008      	b.n	8001a54 <vl53l0x__measurement_timing_budget+0x80>
 8001a42:	7abb      	ldrb	r3, [r7, #10]
 8001a44:	2b00      	cmp	r3, #0
 8001a46:	d005      	beq.n	8001a54 <vl53l0x__measurement_timing_budget+0x80>
 8001a48:	6a7a      	ldr	r2, [r7, #36]	; 0x24
 8001a4a:	6a3b      	ldr	r3, [r7, #32]
 8001a4c:	4413      	add	r3, r2
 8001a4e:	f503 7325 	add.w	r3, r3, #660	; 0x294
 8001a52:	627b      	str	r3, [r7, #36]	; 0x24
 8001a54:	7afb      	ldrb	r3, [r7, #11]
 8001a56:	2b00      	cmp	r3, #0
 8001a58:	d00b      	beq.n	8001a72 <vl53l0x__measurement_timing_budget+0x9e>
 8001a5a:	6878      	ldr	r0, [r7, #4]
 8001a5c:	2103      	movs	r1, #3
 8001a5e:	2200      	movs	r2, #0
 8001a60:	f7ff ff02 	bl	8001868 <vl53l0x__sequence_step_timeout>
 8001a64:	61f8      	str	r0, [r7, #28]
 8001a66:	6a7a      	ldr	r2, [r7, #36]	; 0x24
 8001a68:	69fb      	ldr	r3, [r7, #28]
 8001a6a:	4413      	add	r3, r2
 8001a6c:	f503 7325 	add.w	r3, r3, #660	; 0x294
 8001a70:	627b      	str	r3, [r7, #36]	; 0x24
 8001a72:	7b3b      	ldrb	r3, [r7, #12]
 8001a74:	2b00      	cmp	r3, #0
 8001a76:	d00b      	beq.n	8001a90 <vl53l0x__measurement_timing_budget+0xbc>
 8001a78:	6878      	ldr	r0, [r7, #4]
 8001a7a:	2104      	movs	r1, #4
 8001a7c:	2200      	movs	r2, #0
 8001a7e:	f7ff fef3 	bl	8001868 <vl53l0x__sequence_step_timeout>
 8001a82:	61b8      	str	r0, [r7, #24]
 8001a84:	6a7a      	ldr	r2, [r7, #36]	; 0x24
 8001a86:	69bb      	ldr	r3, [r7, #24]
 8001a88:	4413      	add	r3, r2
 8001a8a:	f203 2326 	addw	r3, r3, #550	; 0x226
 8001a8e:	627b      	str	r3, [r7, #36]	; 0x24
 8001a90:	6a7b      	ldr	r3, [r7, #36]	; 0x24
 8001a92:	bf00      	nop
 8001a94:	4618      	mov	r0, r3
 8001a96:	3728      	adds	r7, #40	; 0x28
 8001a98:	46bd      	mov	sp, r7
 8001a9a:	bd80      	pop	{r7, pc}

08001a9c <vl53l0x__set_measurement_timing_budget>:
 8001a9c:	b580      	push	{r7, lr}
 8001a9e:	b08e      	sub	sp, #56	; 0x38
 8001aa0:	af00      	add	r7, sp, #0
 8001aa2:	6078      	str	r0, [r7, #4]
 8001aa4:	6039      	str	r1, [r7, #0]
 8001aa6:	2300      	movs	r3, #0
 8001aa8:	62fb      	str	r3, [r7, #44]	; 0x2c
 8001aaa:	2300      	movs	r3, #0
 8001aac:	637b      	str	r3, [r7, #52]	; 0x34
 8001aae:	2301      	movs	r3, #1
 8001ab0:	75fb      	strb	r3, [r7, #23]
 8001ab2:	683b      	ldr	r3, [r7, #0]
 8001ab4:	f6a3 535c 	subw	r3, r3, #3420	; 0xd5c
 8001ab8:	62bb      	str	r3, [r7, #40]	; 0x28
 8001aba:	f107 0318 	add.w	r3, r7, #24
 8001abe:	4618      	mov	r0, r3
 8001ac0:	6879      	ldr	r1, [r7, #4]
 8001ac2:	f7ff fe81 	bl	80017c8 <vl53l0x__sequence_step_enabled>
 8001ac6:	f107 030c 	add.w	r3, r7, #12
 8001aca:	f107 0218 	add.w	r2, r7, #24
 8001ace:	e892 0003 	ldmia.w	r2, {r0, r1}
 8001ad2:	6018      	str	r0, [r3, #0]
 8001ad4:	3304      	adds	r3, #4
 8001ad6:	7019      	strb	r1, [r3, #0]
 8001ad8:	7c3b      	ldrb	r3, [r7, #16]
 8001ada:	f083 0301 	eor.w	r3, r3, #1
 8001ade:	b2db      	uxtb	r3, r3
 8001ae0:	2b00      	cmp	r3, #0
 8001ae2:	f040 8082 	bne.w	8001bea <vl53l0x__set_measurement_timing_budget+0x14e>
 8001ae6:	7b3b      	ldrb	r3, [r7, #12]
 8001ae8:	2b00      	cmp	r3, #0
 8001aea:	d105      	bne.n	8001af8 <vl53l0x__set_measurement_timing_budget+0x5c>
 8001aec:	7bbb      	ldrb	r3, [r7, #14]
 8001aee:	2b00      	cmp	r3, #0
 8001af0:	d102      	bne.n	8001af8 <vl53l0x__set_measurement_timing_budget+0x5c>
 8001af2:	7b7b      	ldrb	r3, [r7, #13]
 8001af4:	2b00      	cmp	r3, #0
 8001af6:	d020      	beq.n	8001b3a <vl53l0x__set_measurement_timing_budget+0x9e>
 8001af8:	6878      	ldr	r0, [r7, #4]
 8001afa:	2102      	movs	r1, #2
 8001afc:	2200      	movs	r2, #0
 8001afe:	f7ff feb3 	bl	8001868 <vl53l0x__sequence_step_timeout>
 8001b02:	6278      	str	r0, [r7, #36]	; 0x24
 8001b04:	7b3b      	ldrb	r3, [r7, #12]
 8001b06:	2b00      	cmp	r3, #0
 8001b08:	d003      	beq.n	8001b12 <vl53l0x__set_measurement_timing_budget+0x76>
 8001b0a:	6a7b      	ldr	r3, [r7, #36]	; 0x24
 8001b0c:	f203 234e 	addw	r3, r3, #590	; 0x24e
 8001b10:	637b      	str	r3, [r7, #52]	; 0x34
 8001b12:	7b7b      	ldrb	r3, [r7, #13]
 8001b14:	2b00      	cmp	r3, #0
 8001b16:	d007      	beq.n	8001b28 <vl53l0x__set_measurement_timing_budget+0x8c>
 8001b18:	6a7b      	ldr	r3, [r7, #36]	; 0x24
 8001b1a:	f203 23b2 	addw	r3, r3, #690	; 0x2b2
 8001b1e:	005b      	lsls	r3, r3, #1
 8001b20:	6b7a      	ldr	r2, [r7, #52]	; 0x34
 8001b22:	4413      	add	r3, r2
 8001b24:	637b      	str	r3, [r7, #52]	; 0x34
 8001b26:	e008      	b.n	8001b3a <vl53l0x__set_measurement_timing_budget+0x9e>
 8001b28:	7bbb      	ldrb	r3, [r7, #14]
 8001b2a:	2b00      	cmp	r3, #0
 8001b2c:	d005      	beq.n	8001b3a <vl53l0x__set_measurement_timing_budget+0x9e>
 8001b2e:	6b7a      	ldr	r2, [r7, #52]	; 0x34
 8001b30:	6a7b      	ldr	r3, [r7, #36]	; 0x24
 8001b32:	4413      	add	r3, r2
 8001b34:	f503 7325 	add.w	r3, r3, #660	; 0x294
 8001b38:	637b      	str	r3, [r7, #52]	; 0x34
 8001b3a:	7bfb      	ldrb	r3, [r7, #15]
 8001b3c:	2b00      	cmp	r3, #0
 8001b3e:	d00b      	beq.n	8001b58 <vl53l0x__set_measurement_timing_budget+0xbc>
 8001b40:	6878      	ldr	r0, [r7, #4]
 8001b42:	2103      	movs	r1, #3
 8001b44:	2200      	movs	r2, #0
 8001b46:	f7ff fe8f 	bl	8001868 <vl53l0x__sequence_step_timeout>
 8001b4a:	62f8      	str	r0, [r7, #44]	; 0x2c
 8001b4c:	6b7a      	ldr	r2, [r7, #52]	; 0x34
 8001b4e:	6afb      	ldr	r3, [r7, #44]	; 0x2c
 8001b50:	4413      	add	r3, r2
 8001b52:	f503 7325 	add.w	r3, r3, #660	; 0x294
 8001b56:	637b      	str	r3, [r7, #52]	; 0x34
 8001b58:	6b7a      	ldr	r2, [r7, #52]	; 0x34
 8001b5a:	6abb      	ldr	r3, [r7, #40]	; 0x28
 8001b5c:	429a      	cmp	r2, r3
 8001b5e:	d207      	bcs.n	8001b70 <vl53l0x__set_measurement_timing_budget+0xd4>
 8001b60:	6aba      	ldr	r2, [r7, #40]	; 0x28
 8001b62:	6b7b      	ldr	r3, [r7, #52]	; 0x34
 8001b64:	1ad3      	subs	r3, r2, r3
 8001b66:	62bb      	str	r3, [r7, #40]	; 0x28
 8001b68:	7bfb      	ldrb	r3, [r7, #15]
 8001b6a:	2b00      	cmp	r3, #0
 8001b6c:	d103      	bne.n	8001b76 <vl53l0x__set_measurement_timing_budget+0xda>
 8001b6e:	e01d      	b.n	8001bac <vl53l0x__set_measurement_timing_budget+0x110>
 8001b70:	2300      	movs	r3, #0
 8001b72:	75fb      	strb	r3, [r7, #23]
 8001b74:	e03a      	b.n	8001bec <vl53l0x__set_measurement_timing_budget+0x150>
 8001b76:	6878      	ldr	r0, [r7, #4]
 8001b78:	2103      	movs	r1, #3
 8001b7a:	f000 fb9f 	bl	80022bc <vl53l0x__vcsel_pulse_period>
 8001b7e:	4603      	mov	r3, r0
 8001b80:	f887 3023 	strb.w	r3, [r7, #35]	; 0x23
 8001b84:	6878      	ldr	r0, [r7, #4]
 8001b86:	2151      	movs	r1, #81	; 0x51
 8001b88:	f7fe fdde 	bl	8000748 <vl53l0x__read__3>
 8001b8c:	4603      	mov	r3, r0
 8001b8e:	461a      	mov	r2, r3
 8001b90:	843a      	strh	r2, [r7, #32]
 8001b92:	f3c3 4307 	ubfx	r3, r3, #16, #8
 8001b96:	b2db      	uxtb	r3, r3
 8001b98:	75fb      	strb	r3, [r7, #23]
 8001b9a:	7dfb      	ldrb	r3, [r7, #23]
 8001b9c:	2b00      	cmp	r3, #0
 8001b9e:	d007      	beq.n	8001bb0 <vl53l0x__set_measurement_timing_budget+0x114>
 8001ba0:	8c3b      	ldrh	r3, [r7, #32]
 8001ba2:	4618      	mov	r0, r3
 8001ba4:	f7fe fe4a 	bl	800083c <vl53l0x__decode_timeout>
 8001ba8:	6338      	str	r0, [r7, #48]	; 0x30
 8001baa:	e001      	b.n	8001bb0 <vl53l0x__set_measurement_timing_budget+0x114>
 8001bac:	2300      	movs	r3, #0
 8001bae:	633b      	str	r3, [r7, #48]	; 0x30
 8001bb0:	6878      	ldr	r0, [r7, #4]
 8001bb2:	2104      	movs	r1, #4
 8001bb4:	f000 fb82 	bl	80022bc <vl53l0x__vcsel_pulse_period>
 8001bb8:	4603      	mov	r3, r0
 8001bba:	f887 3023 	strb.w	r3, [r7, #35]	; 0x23
 8001bbe:	f897 3023 	ldrb.w	r3, [r7, #35]	; 0x23
 8001bc2:	6ab8      	ldr	r0, [r7, #40]	; 0x28
 8001bc4:	4619      	mov	r1, r3
 8001bc6:	f7fe fe81 	bl	80008cc <vl53l0x__to_timeout_mclks>
 8001bca:	4602      	mov	r2, r0
 8001bcc:	6b3b      	ldr	r3, [r7, #48]	; 0x30
 8001bce:	4413      	add	r3, r2
 8001bd0:	633b      	str	r3, [r7, #48]	; 0x30
 8001bd2:	6b38      	ldr	r0, [r7, #48]	; 0x30
 8001bd4:	f7fe fe50 	bl	8000878 <vl53l0x__encode_timeout>
 8001bd8:	4603      	mov	r3, r0
 8001bda:	6878      	ldr	r0, [r7, #4]
 8001bdc:	2171      	movs	r1, #113	; 0x71
 8001bde:	461a      	mov	r2, r3
 8001be0:	f7fe fd1c 	bl	800061c <vl53l0x__write__3>
 8001be4:	4603      	mov	r3, r0
 8001be6:	75fb      	strb	r3, [r7, #23]
 8001be8:	e000      	b.n	8001bec <vl53l0x__set_measurement_timing_budget+0x150>
 8001bea:	bf00      	nop
 8001bec:	7dfb      	ldrb	r3, [r7, #23]
 8001bee:	bf00      	nop
 8001bf0:	4618      	mov	r0, r3
 8001bf2:	3738      	adds	r7, #56	; 0x38
 8001bf4:	46bd      	mov	sp, r7
 8001bf6:	bd80      	pop	{r7, pc}

08001bf8 <vl53l0x__set_signal_rate_limit__2>:
 8001bf8:	b580      	push	{r7, lr}
 8001bfa:	b084      	sub	sp, #16
 8001bfc:	af00      	add	r7, sp, #0
 8001bfe:	6078      	str	r0, [r7, #4]
 8001c00:	6039      	str	r1, [r7, #0]
 8001c02:	683b      	ldr	r3, [r7, #0]
 8001c04:	0a5b      	lsrs	r3, r3, #9
 8001c06:	b29b      	uxth	r3, r3
 8001c08:	f5b3 3f80 	cmp.w	r3, #65536	; 0x10000
 8001c0c:	d304      	bcc.n	8001c18 <vl53l0x__set_signal_rate_limit__2+0x20>
 8001c0e:	480b      	ldr	r0, [pc, #44]	; (8001c3c <vl53l0x__set_signal_rate_limit__2+0x44>)
 8001c10:	f240 41bd 	movw	r1, #1213	; 0x4bd
 8001c14:	f7fe fb9a 	bl	800034c <__gnat_last_chance_handler>
 8001c18:	683b      	ldr	r3, [r7, #0]
 8001c1a:	0a5b      	lsrs	r3, r3, #9
 8001c1c:	81fb      	strh	r3, [r7, #14]
 8001c1e:	89fb      	ldrh	r3, [r7, #14]
 8001c20:	6878      	ldr	r0, [r7, #4]
 8001c22:	2144      	movs	r1, #68	; 0x44
 8001c24:	461a      	mov	r2, r3
 8001c26:	f7fe fcf9 	bl	800061c <vl53l0x__write__3>
 8001c2a:	4603      	mov	r3, r0
 8001c2c:	737b      	strb	r3, [r7, #13]
 8001c2e:	7b7b      	ldrb	r3, [r7, #13]
 8001c30:	bf00      	nop
 8001c32:	4618      	mov	r0, r3
 8001c34:	3710      	adds	r7, #16
 8001c36:	46bd      	mov	sp, r7
 8001c38:	bd80      	pop	{r7, pc}
 8001c3a:	bf00      	nop
 8001c3c:	0800b030 	.word	0x0800b030

08001c40 <vl53l0x__spad_info>:
 8001c40:	b590      	push	{r4, r7, lr}
 8001c42:	b085      	sub	sp, #20
 8001c44:	af00      	add	r7, sp, #0
 8001c46:	6078      	str	r0, [r7, #4]
 8001c48:	6878      	ldr	r0, [r7, #4]
 8001c4a:	2180      	movs	r1, #128	; 0x80
 8001c4c:	2201      	movs	r2, #1
 8001c4e:	f7fe fcc5 	bl	80005dc <vl53l0x__write__2>
 8001c52:	4603      	mov	r3, r0
 8001c54:	73fb      	strb	r3, [r7, #15]
 8001c56:	7bfb      	ldrb	r3, [r7, #15]
 8001c58:	2b00      	cmp	r3, #0
 8001c5a:	d006      	beq.n	8001c6a <vl53l0x__spad_info+0x2a>
 8001c5c:	6878      	ldr	r0, [r7, #4]
 8001c5e:	21ff      	movs	r1, #255	; 0xff
 8001c60:	2201      	movs	r2, #1
 8001c62:	f7fe fcbb 	bl	80005dc <vl53l0x__write__2>
 8001c66:	4603      	mov	r3, r0
 8001c68:	73fb      	strb	r3, [r7, #15]
 8001c6a:	7bfb      	ldrb	r3, [r7, #15]
 8001c6c:	2b00      	cmp	r3, #0
 8001c6e:	d006      	beq.n	8001c7e <vl53l0x__spad_info+0x3e>
 8001c70:	6878      	ldr	r0, [r7, #4]
 8001c72:	2100      	movs	r1, #0
 8001c74:	2200      	movs	r2, #0
 8001c76:	f7fe fcb1 	bl	80005dc <vl53l0x__write__2>
 8001c7a:	4603      	mov	r3, r0
 8001c7c:	73fb      	strb	r3, [r7, #15]
 8001c7e:	7bfb      	ldrb	r3, [r7, #15]
 8001c80:	2b00      	cmp	r3, #0
 8001c82:	d006      	beq.n	8001c92 <vl53l0x__spad_info+0x52>
 8001c84:	6878      	ldr	r0, [r7, #4]
 8001c86:	21ff      	movs	r1, #255	; 0xff
 8001c88:	2206      	movs	r2, #6
 8001c8a:	f7fe fca7 	bl	80005dc <vl53l0x__write__2>
 8001c8e:	4603      	mov	r3, r0
 8001c90:	73fb      	strb	r3, [r7, #15]
 8001c92:	7bfb      	ldrb	r3, [r7, #15]
 8001c94:	2b00      	cmp	r3, #0
 8001c96:	d009      	beq.n	8001cac <vl53l0x__spad_info+0x6c>
 8001c98:	6878      	ldr	r0, [r7, #4]
 8001c9a:	2183      	movs	r1, #131	; 0x83
 8001c9c:	f7fe fd20 	bl	80006e0 <vl53l0x__read__2>
 8001ca0:	4603      	mov	r3, r0
 8001ca2:	461a      	mov	r2, r3
 8001ca4:	73ba      	strb	r2, [r7, #14]
 8001ca6:	f3c3 2307 	ubfx	r3, r3, #8, #8
 8001caa:	73fb      	strb	r3, [r7, #15]
 8001cac:	7bfb      	ldrb	r3, [r7, #15]
 8001cae:	2b00      	cmp	r3, #0
 8001cb0:	d00a      	beq.n	8001cc8 <vl53l0x__spad_info+0x88>
 8001cb2:	7bbb      	ldrb	r3, [r7, #14]
 8001cb4:	f043 0304 	orr.w	r3, r3, #4
 8001cb8:	b2db      	uxtb	r3, r3
 8001cba:	6878      	ldr	r0, [r7, #4]
 8001cbc:	2183      	movs	r1, #131	; 0x83
 8001cbe:	461a      	mov	r2, r3
 8001cc0:	f7fe fc8c 	bl	80005dc <vl53l0x__write__2>
 8001cc4:	4603      	mov	r3, r0
 8001cc6:	73fb      	strb	r3, [r7, #15]
 8001cc8:	7bfb      	ldrb	r3, [r7, #15]
 8001cca:	2b00      	cmp	r3, #0
 8001ccc:	d006      	beq.n	8001cdc <vl53l0x__spad_info+0x9c>
 8001cce:	6878      	ldr	r0, [r7, #4]
 8001cd0:	21ff      	movs	r1, #255	; 0xff
 8001cd2:	2207      	movs	r2, #7
 8001cd4:	f7fe fc82 	bl	80005dc <vl53l0x__write__2>
 8001cd8:	4603      	mov	r3, r0
 8001cda:	73fb      	strb	r3, [r7, #15]
 8001cdc:	7bfb      	ldrb	r3, [r7, #15]
 8001cde:	2b00      	cmp	r3, #0
 8001ce0:	d006      	beq.n	8001cf0 <vl53l0x__spad_info+0xb0>
 8001ce2:	6878      	ldr	r0, [r7, #4]
 8001ce4:	2181      	movs	r1, #129	; 0x81
 8001ce6:	2201      	movs	r2, #1
 8001ce8:	f7fe fc78 	bl	80005dc <vl53l0x__write__2>
 8001cec:	4603      	mov	r3, r0
 8001cee:	73fb      	strb	r3, [r7, #15]
 8001cf0:	7bfb      	ldrb	r3, [r7, #15]
 8001cf2:	2b00      	cmp	r3, #0
 8001cf4:	d006      	beq.n	8001d04 <vl53l0x__spad_info+0xc4>
 8001cf6:	6878      	ldr	r0, [r7, #4]
 8001cf8:	2180      	movs	r1, #128	; 0x80
 8001cfa:	2201      	movs	r2, #1
 8001cfc:	f7fe fc6e 	bl	80005dc <vl53l0x__write__2>
 8001d00:	4603      	mov	r3, r0
 8001d02:	73fb      	strb	r3, [r7, #15]
 8001d04:	7bfb      	ldrb	r3, [r7, #15]
 8001d06:	2b00      	cmp	r3, #0
 8001d08:	d006      	beq.n	8001d18 <vl53l0x__spad_info+0xd8>
 8001d0a:	6878      	ldr	r0, [r7, #4]
 8001d0c:	2194      	movs	r1, #148	; 0x94
 8001d0e:	226b      	movs	r2, #107	; 0x6b
 8001d10:	f7fe fc64 	bl	80005dc <vl53l0x__write__2>
 8001d14:	4603      	mov	r3, r0
 8001d16:	73fb      	strb	r3, [r7, #15]
 8001d18:	7bfb      	ldrb	r3, [r7, #15]
 8001d1a:	2b00      	cmp	r3, #0
 8001d1c:	d006      	beq.n	8001d2c <vl53l0x__spad_info+0xec>
 8001d1e:	6878      	ldr	r0, [r7, #4]
 8001d20:	2183      	movs	r1, #131	; 0x83
 8001d22:	2200      	movs	r2, #0
 8001d24:	f7fe fc5a 	bl	80005dc <vl53l0x__write__2>
 8001d28:	4603      	mov	r3, r0
 8001d2a:	73fb      	strb	r3, [r7, #15]
 8001d2c:	7bfb      	ldrb	r3, [r7, #15]
 8001d2e:	f083 0301 	eor.w	r3, r3, #1
 8001d32:	b2db      	uxtb	r3, r3
 8001d34:	2b00      	cmp	r3, #0
 8001d36:	d10d      	bne.n	8001d54 <vl53l0x__spad_info+0x114>
 8001d38:	6878      	ldr	r0, [r7, #4]
 8001d3a:	2183      	movs	r1, #131	; 0x83
 8001d3c:	f7fe fcd0 	bl	80006e0 <vl53l0x__read__2>
 8001d40:	4603      	mov	r3, r0
 8001d42:	461a      	mov	r2, r3
 8001d44:	73ba      	strb	r2, [r7, #14]
 8001d46:	f3c3 2307 	ubfx	r3, r3, #8, #8
 8001d4a:	73fb      	strb	r3, [r7, #15]
 8001d4c:	7bbb      	ldrb	r3, [r7, #14]
 8001d4e:	2b00      	cmp	r3, #0
 8001d50:	d100      	bne.n	8001d54 <vl53l0x__spad_info+0x114>
 8001d52:	e7eb      	b.n	8001d2c <vl53l0x__spad_info+0xec>
 8001d54:	7bfb      	ldrb	r3, [r7, #15]
 8001d56:	2b00      	cmp	r3, #0
 8001d58:	d006      	beq.n	8001d68 <vl53l0x__spad_info+0x128>
 8001d5a:	6878      	ldr	r0, [r7, #4]
 8001d5c:	2183      	movs	r1, #131	; 0x83
 8001d5e:	2201      	movs	r2, #1
 8001d60:	f7fe fc3c 	bl	80005dc <vl53l0x__write__2>
 8001d64:	4603      	mov	r3, r0
 8001d66:	73fb      	strb	r3, [r7, #15]
 8001d68:	7bfb      	ldrb	r3, [r7, #15]
 8001d6a:	2b00      	cmp	r3, #0
 8001d6c:	d009      	beq.n	8001d82 <vl53l0x__spad_info+0x142>
 8001d6e:	6878      	ldr	r0, [r7, #4]
 8001d70:	2192      	movs	r1, #146	; 0x92
 8001d72:	f7fe fcb5 	bl	80006e0 <vl53l0x__read__2>
 8001d76:	4603      	mov	r3, r0
 8001d78:	461a      	mov	r2, r3
 8001d7a:	73ba      	strb	r2, [r7, #14]
 8001d7c:	f3c3 2307 	ubfx	r3, r3, #8, #8
 8001d80:	73fb      	strb	r3, [r7, #15]
 8001d82:	7bfb      	ldrb	r3, [r7, #15]
 8001d84:	2b00      	cmp	r3, #0
 8001d86:	d00f      	beq.n	8001da8 <vl53l0x__spad_info+0x168>
 8001d88:	7bbb      	ldrb	r3, [r7, #14]
 8001d8a:	f003 037f 	and.w	r3, r3, #127	; 0x7f
 8001d8e:	b2db      	uxtb	r3, r3
 8001d90:	737b      	strb	r3, [r7, #13]
 8001d92:	7bbb      	ldrb	r3, [r7, #14]
 8001d94:	09db      	lsrs	r3, r3, #7
 8001d96:	b2db      	uxtb	r3, r3
 8001d98:	733b      	strb	r3, [r7, #12]
 8001d9a:	6878      	ldr	r0, [r7, #4]
 8001d9c:	2181      	movs	r1, #129	; 0x81
 8001d9e:	2200      	movs	r2, #0
 8001da0:	f7fe fc1c 	bl	80005dc <vl53l0x__write__2>
 8001da4:	4603      	mov	r3, r0
 8001da6:	73fb      	strb	r3, [r7, #15]
 8001da8:	7bfb      	ldrb	r3, [r7, #15]
 8001daa:	2b00      	cmp	r3, #0
 8001dac:	d006      	beq.n	8001dbc <vl53l0x__spad_info+0x17c>
 8001dae:	6878      	ldr	r0, [r7, #4]
 8001db0:	21ff      	movs	r1, #255	; 0xff
 8001db2:	2206      	movs	r2, #6
 8001db4:	f7fe fc12 	bl	80005dc <vl53l0x__write__2>
 8001db8:	4603      	mov	r3, r0
 8001dba:	73fb      	strb	r3, [r7, #15]
 8001dbc:	7bfb      	ldrb	r3, [r7, #15]
 8001dbe:	2b00      	cmp	r3, #0
 8001dc0:	d009      	beq.n	8001dd6 <vl53l0x__spad_info+0x196>
 8001dc2:	6878      	ldr	r0, [r7, #4]
 8001dc4:	2183      	movs	r1, #131	; 0x83
 8001dc6:	f7fe fc8b 	bl	80006e0 <vl53l0x__read__2>
 8001dca:	4603      	mov	r3, r0
 8001dcc:	461a      	mov	r2, r3
 8001dce:	73ba      	strb	r2, [r7, #14]
 8001dd0:	f3c3 2307 	ubfx	r3, r3, #8, #8
 8001dd4:	73fb      	strb	r3, [r7, #15]
 8001dd6:	7bfb      	ldrb	r3, [r7, #15]
 8001dd8:	2b00      	cmp	r3, #0
 8001dda:	d00a      	beq.n	8001df2 <vl53l0x__spad_info+0x1b2>
 8001ddc:	7bbb      	ldrb	r3, [r7, #14]
 8001dde:	f023 0304 	bic.w	r3, r3, #4
 8001de2:	b2db      	uxtb	r3, r3
 8001de4:	6878      	ldr	r0, [r7, #4]
 8001de6:	2183      	movs	r1, #131	; 0x83
 8001de8:	461a      	mov	r2, r3
 8001dea:	f7fe fbf7 	bl	80005dc <vl53l0x__write__2>
 8001dee:	4603      	mov	r3, r0
 8001df0:	73fb      	strb	r3, [r7, #15]
 8001df2:	7bfb      	ldrb	r3, [r7, #15]
 8001df4:	2b00      	cmp	r3, #0
 8001df6:	d006      	beq.n	8001e06 <vl53l0x__spad_info+0x1c6>
 8001df8:	6878      	ldr	r0, [r7, #4]
 8001dfa:	21ff      	movs	r1, #255	; 0xff
 8001dfc:	2201      	movs	r2, #1
 8001dfe:	f7fe fbed 	bl	80005dc <vl53l0x__write__2>
 8001e02:	4603      	mov	r3, r0
 8001e04:	73fb      	strb	r3, [r7, #15]
 8001e06:	7bfb      	ldrb	r3, [r7, #15]
 8001e08:	2b00      	cmp	r3, #0
 8001e0a:	d006      	beq.n	8001e1a <vl53l0x__spad_info+0x1da>
 8001e0c:	6878      	ldr	r0, [r7, #4]
 8001e0e:	2100      	movs	r1, #0
 8001e10:	2201      	movs	r2, #1
 8001e12:	f7fe fbe3 	bl	80005dc <vl53l0x__write__2>
 8001e16:	4603      	mov	r3, r0
 8001e18:	73fb      	strb	r3, [r7, #15]
 8001e1a:	7bfb      	ldrb	r3, [r7, #15]
 8001e1c:	2b00      	cmp	r3, #0
 8001e1e:	d006      	beq.n	8001e2e <vl53l0x__spad_info+0x1ee>
 8001e20:	6878      	ldr	r0, [r7, #4]
 8001e22:	21ff      	movs	r1, #255	; 0xff
 8001e24:	2200      	movs	r2, #0
 8001e26:	f7fe fbd9 	bl	80005dc <vl53l0x__write__2>
 8001e2a:	4603      	mov	r3, r0
 8001e2c:	73fb      	strb	r3, [r7, #15]
 8001e2e:	7bfb      	ldrb	r3, [r7, #15]
 8001e30:	2b00      	cmp	r3, #0
 8001e32:	d006      	beq.n	8001e42 <vl53l0x__spad_info+0x202>
 8001e34:	6878      	ldr	r0, [r7, #4]
 8001e36:	2180      	movs	r1, #128	; 0x80
 8001e38:	2200      	movs	r2, #0
 8001e3a:	f7fe fbcf 	bl	80005dc <vl53l0x__write__2>
 8001e3e:	4603      	mov	r3, r0
 8001e40:	73fb      	strb	r3, [r7, #15]
 8001e42:	7bfb      	ldrb	r3, [r7, #15]
 8001e44:	bf00      	nop
 8001e46:	f363 0407 	bfi	r4, r3, #0, #8
 8001e4a:	7b7b      	ldrb	r3, [r7, #13]
 8001e4c:	f363 240f 	bfi	r4, r3, #8, #8
 8001e50:	7b3b      	ldrb	r3, [r7, #12]
 8001e52:	f363 4417 	bfi	r4, r3, #16, #8
 8001e56:	4623      	mov	r3, r4
 8001e58:	4618      	mov	r0, r3
 8001e5a:	3714      	adds	r7, #20
 8001e5c:	46bd      	mov	sp, r7
 8001e5e:	bd90      	pop	{r4, r7, pc}

08001e60 <vl53l0x__set_signal_rate_limit>:
 8001e60:	b580      	push	{r7, lr}
 8001e62:	b084      	sub	sp, #16
 8001e64:	af00      	add	r7, sp, #0
 8001e66:	6078      	str	r0, [r7, #4]
 8001e68:	6039      	str	r1, [r7, #0]
 8001e6a:	683b      	ldr	r3, [r7, #0]
 8001e6c:	0a5b      	lsrs	r3, r3, #9
 8001e6e:	b29b      	uxth	r3, r3
 8001e70:	f5b3 3f80 	cmp.w	r3, #65536	; 0x10000
 8001e74:	d304      	bcc.n	8001e80 <vl53l0x__set_signal_rate_limit+0x20>
 8001e76:	4809      	ldr	r0, [pc, #36]	; (8001e9c <vl53l0x__set_signal_rate_limit+0x3c>)
 8001e78:	f44f 61a6 	mov.w	r1, #1328	; 0x530
 8001e7c:	f7fe fa66 	bl	800034c <__gnat_last_chance_handler>
 8001e80:	683b      	ldr	r3, [r7, #0]
 8001e82:	0a5b      	lsrs	r3, r3, #9
 8001e84:	81fb      	strh	r3, [r7, #14]
 8001e86:	89fb      	ldrh	r3, [r7, #14]
 8001e88:	6878      	ldr	r0, [r7, #4]
 8001e8a:	2144      	movs	r1, #68	; 0x44
 8001e8c:	461a      	mov	r2, r3
 8001e8e:	f7fe fbc5 	bl	800061c <vl53l0x__write__3>
 8001e92:	4603      	mov	r3, r0
 8001e94:	737b      	strb	r3, [r7, #13]
 8001e96:	3710      	adds	r7, #16
 8001e98:	46bd      	mov	sp, r7
 8001e9a:	bd80      	pop	{r7, pc}
 8001e9c:	0800b030 	.word	0x0800b030

08001ea0 <vl53l0x__set_vcsel_pulse_period_pre_range>:
 8001ea0:	b580      	push	{r7, lr}
 8001ea2:	b084      	sub	sp, #16
 8001ea4:	af00      	add	r7, sp, #0
 8001ea6:	6078      	str	r0, [r7, #4]
 8001ea8:	460b      	mov	r3, r1
 8001eaa:	70fb      	strb	r3, [r7, #3]
 8001eac:	78fb      	ldrb	r3, [r7, #3]
 8001eae:	6878      	ldr	r0, [r7, #4]
 8001eb0:	4619      	mov	r1, r3
 8001eb2:	2203      	movs	r2, #3
 8001eb4:	f000 f81c 	bl	8001ef0 <vl53l0x__set_vcsel_pulse_period>
 8001eb8:	4603      	mov	r3, r0
 8001eba:	73fb      	strb	r3, [r7, #15]
 8001ebc:	7bfb      	ldrb	r3, [r7, #15]
 8001ebe:	bf00      	nop
 8001ec0:	4618      	mov	r0, r3
 8001ec2:	3710      	adds	r7, #16
 8001ec4:	46bd      	mov	sp, r7
 8001ec6:	bd80      	pop	{r7, pc}

08001ec8 <vl53l0x__set_vcsel_pulse_period_final_range>:
 8001ec8:	b580      	push	{r7, lr}
 8001eca:	b084      	sub	sp, #16
 8001ecc:	af00      	add	r7, sp, #0
 8001ece:	6078      	str	r0, [r7, #4]
 8001ed0:	460b      	mov	r3, r1
 8001ed2:	70fb      	strb	r3, [r7, #3]
 8001ed4:	78fb      	ldrb	r3, [r7, #3]
 8001ed6:	6878      	ldr	r0, [r7, #4]
 8001ed8:	4619      	mov	r1, r3
 8001eda:	2204      	movs	r2, #4
 8001edc:	f000 f808 	bl	8001ef0 <vl53l0x__set_vcsel_pulse_period>
 8001ee0:	4603      	mov	r3, r0
 8001ee2:	73fb      	strb	r3, [r7, #15]
 8001ee4:	7bfb      	ldrb	r3, [r7, #15]
 8001ee6:	bf00      	nop
 8001ee8:	4618      	mov	r0, r3
 8001eea:	3710      	adds	r7, #16
 8001eec:	46bd      	mov	sp, r7
 8001eee:	bd80      	pop	{r7, pc}

08001ef0 <vl53l0x__set_vcsel_pulse_period>:
 8001ef0:	b580      	push	{r7, lr}
 8001ef2:	b08e      	sub	sp, #56	; 0x38
 8001ef4:	af00      	add	r7, sp, #0
 8001ef6:	6078      	str	r0, [r7, #4]
 8001ef8:	460b      	mov	r3, r1
 8001efa:	70fb      	strb	r3, [r7, #3]
 8001efc:	4613      	mov	r3, r2
 8001efe:	70bb      	strb	r3, [r7, #2]
 8001f00:	78fb      	ldrb	r3, [r7, #3]
 8001f02:	085b      	lsrs	r3, r3, #1
 8001f04:	b2db      	uxtb	r3, r3
 8001f06:	3b01      	subs	r3, #1
 8001f08:	f887 302b 	strb.w	r3, [r7, #43]	; 0x2b
 8001f0c:	f107 030c 	add.w	r3, r7, #12
 8001f10:	4618      	mov	r0, r3
 8001f12:	6879      	ldr	r1, [r7, #4]
 8001f14:	f7ff fc58 	bl	80017c8 <vl53l0x__sequence_step_enabled>
 8001f18:	6878      	ldr	r0, [r7, #4]
 8001f1a:	f7ff fd5b 	bl	80019d4 <vl53l0x__measurement_timing_budget>
 8001f1e:	6278      	str	r0, [r7, #36]	; 0x24
 8001f20:	78bb      	ldrb	r3, [r7, #2]
 8001f22:	2b04      	cmp	r3, #4
 8001f24:	d904      	bls.n	8001f30 <vl53l0x__set_vcsel_pulse_period+0x40>
 8001f26:	48bf      	ldr	r0, [pc, #764]	; (8002224 <vl53l0x__set_vcsel_pulse_period+0x334>)
 8001f28:	f44f 61ad 	mov.w	r1, #1384	; 0x568
 8001f2c:	f7fe fa0e 	bl	800034c <__gnat_last_chance_handler>
 8001f30:	78bb      	ldrb	r3, [r7, #2]
 8001f32:	2b03      	cmp	r3, #3
 8001f34:	d003      	beq.n	8001f3e <vl53l0x__set_vcsel_pulse_period+0x4e>
 8001f36:	2b04      	cmp	r3, #4
 8001f38:	f000 809d 	beq.w	8002076 <vl53l0x__set_vcsel_pulse_period+0x186>
 8001f3c:	e16f      	b.n	800221e <vl53l0x__set_vcsel_pulse_period+0x32e>
 8001f3e:	6878      	ldr	r0, [r7, #4]
 8001f40:	2103      	movs	r1, #3
 8001f42:	2200      	movs	r2, #0
 8001f44:	f7ff fc90 	bl	8001868 <vl53l0x__sequence_step_timeout>
 8001f48:	6238      	str	r0, [r7, #32]
 8001f4a:	6878      	ldr	r0, [r7, #4]
 8001f4c:	2102      	movs	r1, #2
 8001f4e:	2200      	movs	r2, #0
 8001f50:	f7ff fc8a 	bl	8001868 <vl53l0x__sequence_step_timeout>
 8001f54:	61f8      	str	r0, [r7, #28]
 8001f56:	78fb      	ldrb	r3, [r7, #3]
 8001f58:	3b0c      	subs	r3, #12
 8001f5a:	2b06      	cmp	r3, #6
 8001f5c:	d820      	bhi.n	8001fa0 <vl53l0x__set_vcsel_pulse_period+0xb0>
 8001f5e:	a201      	add	r2, pc, #4	; (adr r2, 8001f64 <vl53l0x__set_vcsel_pulse_period+0x74>)
 8001f60:	f852 f023 	ldr.w	pc, [r2, r3, lsl #2]
 8001f64:	08001f81 	.word	0x08001f81
 8001f68:	08001fa1 	.word	0x08001fa1
 8001f6c:	08001f89 	.word	0x08001f89
 8001f70:	08001fa1 	.word	0x08001fa1
 8001f74:	08001f91 	.word	0x08001f91
 8001f78:	08001fa1 	.word	0x08001fa1
 8001f7c:	08001f99 	.word	0x08001f99
 8001f80:	2318      	movs	r3, #24
 8001f82:	f887 3037 	strb.w	r3, [r7, #55]	; 0x37
 8001f86:	e00e      	b.n	8001fa6 <vl53l0x__set_vcsel_pulse_period+0xb6>
 8001f88:	2330      	movs	r3, #48	; 0x30
 8001f8a:	f887 3037 	strb.w	r3, [r7, #55]	; 0x37
 8001f8e:	e00a      	b.n	8001fa6 <vl53l0x__set_vcsel_pulse_period+0xb6>
 8001f90:	2340      	movs	r3, #64	; 0x40
 8001f92:	f887 3037 	strb.w	r3, [r7, #55]	; 0x37
 8001f96:	e006      	b.n	8001fa6 <vl53l0x__set_vcsel_pulse_period+0xb6>
 8001f98:	2350      	movs	r3, #80	; 0x50
 8001f9a:	f887 3037 	strb.w	r3, [r7, #55]	; 0x37
 8001f9e:	e002      	b.n	8001fa6 <vl53l0x__set_vcsel_pulse_period+0xb6>
 8001fa0:	2300      	movs	r3, #0
 8001fa2:	75bb      	strb	r3, [r7, #22]
 8001fa4:	e184      	b.n	80022b0 <vl53l0x__set_vcsel_pulse_period+0x3c0>
 8001fa6:	f897 3037 	ldrb.w	r3, [r7, #55]	; 0x37
 8001faa:	6878      	ldr	r0, [r7, #4]
 8001fac:	2157      	movs	r1, #87	; 0x57
 8001fae:	461a      	mov	r2, r3
 8001fb0:	f7fe fb14 	bl	80005dc <vl53l0x__write__2>
 8001fb4:	4603      	mov	r3, r0
 8001fb6:	75bb      	strb	r3, [r7, #22]
 8001fb8:	7dbb      	ldrb	r3, [r7, #22]
 8001fba:	f083 0301 	eor.w	r3, r3, #1
 8001fbe:	b2db      	uxtb	r3, r3
 8001fc0:	2b00      	cmp	r3, #0
 8001fc2:	f040 8164 	bne.w	800228e <vl53l0x__set_vcsel_pulse_period+0x39e>
 8001fc6:	6878      	ldr	r0, [r7, #4]
 8001fc8:	2156      	movs	r1, #86	; 0x56
 8001fca:	2208      	movs	r2, #8
 8001fcc:	f7fe fb06 	bl	80005dc <vl53l0x__write__2>
 8001fd0:	4603      	mov	r3, r0
 8001fd2:	75bb      	strb	r3, [r7, #22]
 8001fd4:	7dbb      	ldrb	r3, [r7, #22]
 8001fd6:	f083 0301 	eor.w	r3, r3, #1
 8001fda:	b2db      	uxtb	r3, r3
 8001fdc:	2b00      	cmp	r3, #0
 8001fde:	f040 8158 	bne.w	8002292 <vl53l0x__set_vcsel_pulse_period+0x3a2>
 8001fe2:	f897 302b 	ldrb.w	r3, [r7, #43]	; 0x2b
 8001fe6:	6878      	ldr	r0, [r7, #4]
 8001fe8:	2150      	movs	r1, #80	; 0x50
 8001fea:	461a      	mov	r2, r3
 8001fec:	f7fe faf6 	bl	80005dc <vl53l0x__write__2>
 8001ff0:	4603      	mov	r3, r0
 8001ff2:	75bb      	strb	r3, [r7, #22]
 8001ff4:	7dbb      	ldrb	r3, [r7, #22]
 8001ff6:	f083 0301 	eor.w	r3, r3, #1
 8001ffa:	b2db      	uxtb	r3, r3
 8001ffc:	2b00      	cmp	r3, #0
 8001ffe:	f040 814a 	bne.w	8002296 <vl53l0x__set_vcsel_pulse_period+0x3a6>
 8002002:	78fb      	ldrb	r3, [r7, #3]
 8002004:	6a38      	ldr	r0, [r7, #32]
 8002006:	4619      	mov	r1, r3
 8002008:	f7fe fc60 	bl	80008cc <vl53l0x__to_timeout_mclks>
 800200c:	6338      	str	r0, [r7, #48]	; 0x30
 800200e:	6b3b      	ldr	r3, [r7, #48]	; 0x30
 8002010:	f5b3 3f80 	cmp.w	r3, #65536	; 0x10000
 8002014:	d304      	bcc.n	8002020 <vl53l0x__set_vcsel_pulse_period+0x130>
 8002016:	4883      	ldr	r0, [pc, #524]	; (8002224 <vl53l0x__set_vcsel_pulse_period+0x334>)
 8002018:	f240 5191 	movw	r1, #1425	; 0x591
 800201c:	f7fe f996 	bl	800034c <__gnat_last_chance_handler>
 8002020:	6b3b      	ldr	r3, [r7, #48]	; 0x30
 8002022:	b29b      	uxth	r3, r3
 8002024:	6878      	ldr	r0, [r7, #4]
 8002026:	2151      	movs	r1, #81	; 0x51
 8002028:	461a      	mov	r2, r3
 800202a:	f7fe faf7 	bl	800061c <vl53l0x__write__3>
 800202e:	4603      	mov	r3, r0
 8002030:	75bb      	strb	r3, [r7, #22]
 8002032:	78fb      	ldrb	r3, [r7, #3]
 8002034:	69f8      	ldr	r0, [r7, #28]
 8002036:	4619      	mov	r1, r3
 8002038:	f7fe fc48 	bl	80008cc <vl53l0x__to_timeout_mclks>
 800203c:	6338      	str	r0, [r7, #48]	; 0x30
 800203e:	6b3b      	ldr	r3, [r7, #48]	; 0x30
 8002040:	f5b3 7f80 	cmp.w	r3, #256	; 0x100
 8002044:	d902      	bls.n	800204c <vl53l0x__set_vcsel_pulse_period+0x15c>
 8002046:	23ff      	movs	r3, #255	; 0xff
 8002048:	633b      	str	r3, [r7, #48]	; 0x30
 800204a:	e002      	b.n	8002052 <vl53l0x__set_vcsel_pulse_period+0x162>
 800204c:	6b3b      	ldr	r3, [r7, #48]	; 0x30
 800204e:	3b01      	subs	r3, #1
 8002050:	633b      	str	r3, [r7, #48]	; 0x30
 8002052:	6b3b      	ldr	r3, [r7, #48]	; 0x30
 8002054:	2bff      	cmp	r3, #255	; 0xff
 8002056:	d904      	bls.n	8002062 <vl53l0x__set_vcsel_pulse_period+0x172>
 8002058:	4872      	ldr	r0, [pc, #456]	; (8002224 <vl53l0x__set_vcsel_pulse_period+0x334>)
 800205a:	f240 519b 	movw	r1, #1435	; 0x59b
 800205e:	f7fe f975 	bl	800034c <__gnat_last_chance_handler>
 8002062:	6b3b      	ldr	r3, [r7, #48]	; 0x30
 8002064:	b2db      	uxtb	r3, r3
 8002066:	6878      	ldr	r0, [r7, #4]
 8002068:	2146      	movs	r1, #70	; 0x46
 800206a:	461a      	mov	r2, r3
 800206c:	f7fe fab6 	bl	80005dc <vl53l0x__write__2>
 8002070:	4603      	mov	r3, r0
 8002072:	75bb      	strb	r3, [r7, #22]
 8002074:	e0d8      	b.n	8002228 <vl53l0x__set_vcsel_pulse_period+0x338>
 8002076:	6878      	ldr	r0, [r7, #4]
 8002078:	2103      	movs	r1, #3
 800207a:	2201      	movs	r2, #1
 800207c:	f7ff fbf4 	bl	8001868 <vl53l0x__sequence_step_timeout>
 8002080:	6238      	str	r0, [r7, #32]
 8002082:	6878      	ldr	r0, [r7, #4]
 8002084:	2104      	movs	r1, #4
 8002086:	2200      	movs	r2, #0
 8002088:	f7ff fbee 	bl	8001868 <vl53l0x__sequence_step_timeout>
 800208c:	61b8      	str	r0, [r7, #24]
 800208e:	78fb      	ldrb	r3, [r7, #3]
 8002090:	3b08      	subs	r3, #8
 8002092:	2b06      	cmp	r3, #6
 8002094:	f200 8101 	bhi.w	800229a <vl53l0x__set_vcsel_pulse_period+0x3aa>
 8002098:	a201      	add	r2, pc, #4	; (adr r2, 80020a0 <vl53l0x__set_vcsel_pulse_period+0x1b0>)
 800209a:	f852 f023 	ldr.w	pc, [r2, r3, lsl #2]
 800209e:	bf00      	nop
 80020a0:	080020bd 	.word	0x080020bd
 80020a4:	0800229b 	.word	0x0800229b
 80020a8:	080020d7 	.word	0x080020d7
 80020ac:	0800229b 	.word	0x0800229b
 80020b0:	080020f1 	.word	0x080020f1
 80020b4:	0800229b 	.word	0x0800229b
 80020b8:	0800210b 	.word	0x0800210b
 80020bc:	2310      	movs	r3, #16
 80020be:	f887 302f 	strb.w	r3, [r7, #47]	; 0x2f
 80020c2:	2302      	movs	r3, #2
 80020c4:	f887 302e 	strb.w	r3, [r7, #46]	; 0x2e
 80020c8:	230c      	movs	r3, #12
 80020ca:	f887 302d 	strb.w	r3, [r7, #45]	; 0x2d
 80020ce:	2330      	movs	r3, #48	; 0x30
 80020d0:	f887 302c 	strb.w	r3, [r7, #44]	; 0x2c
 80020d4:	e025      	b.n	8002122 <vl53l0x__set_vcsel_pulse_period+0x232>
 80020d6:	2328      	movs	r3, #40	; 0x28
 80020d8:	f887 302f 	strb.w	r3, [r7, #47]	; 0x2f
 80020dc:	2303      	movs	r3, #3
 80020de:	f887 302e 	strb.w	r3, [r7, #46]	; 0x2e
 80020e2:	2309      	movs	r3, #9
 80020e4:	f887 302d 	strb.w	r3, [r7, #45]	; 0x2d
 80020e8:	2320      	movs	r3, #32
 80020ea:	f887 302c 	strb.w	r3, [r7, #44]	; 0x2c
 80020ee:	e018      	b.n	8002122 <vl53l0x__set_vcsel_pulse_period+0x232>
 80020f0:	2338      	movs	r3, #56	; 0x38
 80020f2:	f887 302f 	strb.w	r3, [r7, #47]	; 0x2f
 80020f6:	2303      	movs	r3, #3
 80020f8:	f887 302e 	strb.w	r3, [r7, #46]	; 0x2e
 80020fc:	2308      	movs	r3, #8
 80020fe:	f887 302d 	strb.w	r3, [r7, #45]	; 0x2d
 8002102:	2320      	movs	r3, #32
 8002104:	f887 302c 	strb.w	r3, [r7, #44]	; 0x2c
 8002108:	e00b      	b.n	8002122 <vl53l0x__set_vcsel_pulse_period+0x232>
 800210a:	2348      	movs	r3, #72	; 0x48
 800210c:	f887 302f 	strb.w	r3, [r7, #47]	; 0x2f
 8002110:	2303      	movs	r3, #3
 8002112:	f887 302e 	strb.w	r3, [r7, #46]	; 0x2e
 8002116:	2307      	movs	r3, #7
 8002118:	f887 302d 	strb.w	r3, [r7, #45]	; 0x2d
 800211c:	2320      	movs	r3, #32
 800211e:	f887 302c 	strb.w	r3, [r7, #44]	; 0x2c
 8002122:	bf00      	nop
 8002124:	f897 302f 	ldrb.w	r3, [r7, #47]	; 0x2f
 8002128:	6878      	ldr	r0, [r7, #4]
 800212a:	2148      	movs	r1, #72	; 0x48
 800212c:	461a      	mov	r2, r3
 800212e:	f7fe fa55 	bl	80005dc <vl53l0x__write__2>
 8002132:	4603      	mov	r3, r0
 8002134:	75bb      	strb	r3, [r7, #22]
 8002136:	7dbb      	ldrb	r3, [r7, #22]
 8002138:	f083 0301 	eor.w	r3, r3, #1
 800213c:	b2db      	uxtb	r3, r3
 800213e:	2b00      	cmp	r3, #0
 8002140:	f040 80ad 	bne.w	800229e <vl53l0x__set_vcsel_pulse_period+0x3ae>
 8002144:	6878      	ldr	r0, [r7, #4]
 8002146:	2147      	movs	r1, #71	; 0x47
 8002148:	2208      	movs	r2, #8
 800214a:	f7fe fa47 	bl	80005dc <vl53l0x__write__2>
 800214e:	4603      	mov	r3, r0
 8002150:	75bb      	strb	r3, [r7, #22]
 8002152:	7dbb      	ldrb	r3, [r7, #22]
 8002154:	f083 0301 	eor.w	r3, r3, #1
 8002158:	b2db      	uxtb	r3, r3
 800215a:	2b00      	cmp	r3, #0
 800215c:	f040 80a1 	bne.w	80022a2 <vl53l0x__set_vcsel_pulse_period+0x3b2>
 8002160:	f897 302e 	ldrb.w	r3, [r7, #46]	; 0x2e
 8002164:	6878      	ldr	r0, [r7, #4]
 8002166:	2132      	movs	r1, #50	; 0x32
 8002168:	461a      	mov	r2, r3
 800216a:	f7fe fa37 	bl	80005dc <vl53l0x__write__2>
 800216e:	4603      	mov	r3, r0
 8002170:	75bb      	strb	r3, [r7, #22]
 8002172:	7dbb      	ldrb	r3, [r7, #22]
 8002174:	f083 0301 	eor.w	r3, r3, #1
 8002178:	b2db      	uxtb	r3, r3
 800217a:	2b00      	cmp	r3, #0
 800217c:	f040 8093 	bne.w	80022a6 <vl53l0x__set_vcsel_pulse_period+0x3b6>
 8002180:	f897 302d 	ldrb.w	r3, [r7, #45]	; 0x2d
 8002184:	6878      	ldr	r0, [r7, #4]
 8002186:	2130      	movs	r1, #48	; 0x30
 8002188:	461a      	mov	r2, r3
 800218a:	f7fe fa27 	bl	80005dc <vl53l0x__write__2>
 800218e:	4603      	mov	r3, r0
 8002190:	75bb      	strb	r3, [r7, #22]
 8002192:	7dbb      	ldrb	r3, [r7, #22]
 8002194:	f083 0301 	eor.w	r3, r3, #1
 8002198:	b2db      	uxtb	r3, r3
 800219a:	2b00      	cmp	r3, #0
 800219c:	f040 8085 	bne.w	80022aa <vl53l0x__set_vcsel_pulse_period+0x3ba>
 80021a0:	6878      	ldr	r0, [r7, #4]
 80021a2:	21ff      	movs	r1, #255	; 0xff
 80021a4:	2201      	movs	r2, #1
 80021a6:	f7fe fa19 	bl	80005dc <vl53l0x__write__2>
 80021aa:	4603      	mov	r3, r0
 80021ac:	75bb      	strb	r3, [r7, #22]
 80021ae:	f897 302c 	ldrb.w	r3, [r7, #44]	; 0x2c
 80021b2:	6878      	ldr	r0, [r7, #4]
 80021b4:	2130      	movs	r1, #48	; 0x30
 80021b6:	461a      	mov	r2, r3
 80021b8:	f7fe fa10 	bl	80005dc <vl53l0x__write__2>
 80021bc:	4603      	mov	r3, r0
 80021be:	75bb      	strb	r3, [r7, #22]
 80021c0:	6878      	ldr	r0, [r7, #4]
 80021c2:	21ff      	movs	r1, #255	; 0xff
 80021c4:	2200      	movs	r2, #0
 80021c6:	f7fe fa09 	bl	80005dc <vl53l0x__write__2>
 80021ca:	4603      	mov	r3, r0
 80021cc:	75bb      	strb	r3, [r7, #22]
 80021ce:	7dbb      	ldrb	r3, [r7, #22]
 80021d0:	f083 0301 	eor.w	r3, r3, #1
 80021d4:	b2db      	uxtb	r3, r3
 80021d6:	2b00      	cmp	r3, #0
 80021d8:	d169      	bne.n	80022ae <vl53l0x__set_vcsel_pulse_period+0x3be>
 80021da:	f897 302b 	ldrb.w	r3, [r7, #43]	; 0x2b
 80021de:	6878      	ldr	r0, [r7, #4]
 80021e0:	2170      	movs	r1, #112	; 0x70
 80021e2:	461a      	mov	r2, r3
 80021e4:	f7fe f9fa 	bl	80005dc <vl53l0x__write__2>
 80021e8:	4603      	mov	r3, r0
 80021ea:	75bb      	strb	r3, [r7, #22]
 80021ec:	78fb      	ldrb	r3, [r7, #3]
 80021ee:	69b8      	ldr	r0, [r7, #24]
 80021f0:	4619      	mov	r1, r3
 80021f2:	f7fe fb6b 	bl	80008cc <vl53l0x__to_timeout_mclks>
 80021f6:	6338      	str	r0, [r7, #48]	; 0x30
 80021f8:	7bfb      	ldrb	r3, [r7, #15]
 80021fa:	2b00      	cmp	r3, #0
 80021fc:	d003      	beq.n	8002206 <vl53l0x__set_vcsel_pulse_period+0x316>
 80021fe:	6b3a      	ldr	r2, [r7, #48]	; 0x30
 8002200:	6a3b      	ldr	r3, [r7, #32]
 8002202:	4413      	add	r3, r2
 8002204:	633b      	str	r3, [r7, #48]	; 0x30
 8002206:	6b38      	ldr	r0, [r7, #48]	; 0x30
 8002208:	f7fe fb36 	bl	8000878 <vl53l0x__encode_timeout>
 800220c:	4603      	mov	r3, r0
 800220e:	6878      	ldr	r0, [r7, #4]
 8002210:	2171      	movs	r1, #113	; 0x71
 8002212:	461a      	mov	r2, r3
 8002214:	f7fe fa02 	bl	800061c <vl53l0x__write__3>
 8002218:	4603      	mov	r3, r0
 800221a:	75bb      	strb	r3, [r7, #22]
 800221c:	e004      	b.n	8002228 <vl53l0x__set_vcsel_pulse_period+0x338>
 800221e:	2300      	movs	r3, #0
 8002220:	75bb      	strb	r3, [r7, #22]
 8002222:	e045      	b.n	80022b0 <vl53l0x__set_vcsel_pulse_period+0x3c0>
 8002224:	0800b030 	.word	0x0800b030
 8002228:	7dbb      	ldrb	r3, [r7, #22]
 800222a:	2b00      	cmp	r3, #0
 800222c:	d005      	beq.n	800223a <vl53l0x__set_vcsel_pulse_period+0x34a>
 800222e:	6878      	ldr	r0, [r7, #4]
 8002230:	6a79      	ldr	r1, [r7, #36]	; 0x24
 8002232:	f7ff fc33 	bl	8001a9c <vl53l0x__set_measurement_timing_budget>
 8002236:	4603      	mov	r3, r0
 8002238:	75bb      	strb	r3, [r7, #22]
 800223a:	6878      	ldr	r0, [r7, #4]
 800223c:	2101      	movs	r1, #1
 800223e:	f7fe fa4f 	bl	80006e0 <vl53l0x__read__2>
 8002242:	4603      	mov	r3, r0
 8002244:	461a      	mov	r2, r3
 8002246:	75fa      	strb	r2, [r7, #23]
 8002248:	f3c3 2307 	ubfx	r3, r3, #8, #8
 800224c:	b2db      	uxtb	r3, r3
 800224e:	75bb      	strb	r3, [r7, #22]
 8002250:	7dbb      	ldrb	r3, [r7, #22]
 8002252:	2b00      	cmp	r3, #0
 8002254:	d006      	beq.n	8002264 <vl53l0x__set_vcsel_pulse_period+0x374>
 8002256:	6878      	ldr	r0, [r7, #4]
 8002258:	2101      	movs	r1, #1
 800225a:	2202      	movs	r2, #2
 800225c:	f7fe f9be 	bl	80005dc <vl53l0x__write__2>
 8002260:	4603      	mov	r3, r0
 8002262:	75bb      	strb	r3, [r7, #22]
 8002264:	7dbb      	ldrb	r3, [r7, #22]
 8002266:	2b00      	cmp	r3, #0
 8002268:	d005      	beq.n	8002276 <vl53l0x__set_vcsel_pulse_period+0x386>
 800226a:	6878      	ldr	r0, [r7, #4]
 800226c:	2100      	movs	r1, #0
 800226e:	f7ff f863 	bl	8001338 <vl53l0x__perform_single_ref_calibration>
 8002272:	4603      	mov	r3, r0
 8002274:	75bb      	strb	r3, [r7, #22]
 8002276:	7dbb      	ldrb	r3, [r7, #22]
 8002278:	2b00      	cmp	r3, #0
 800227a:	d019      	beq.n	80022b0 <vl53l0x__set_vcsel_pulse_period+0x3c0>
 800227c:	7dfb      	ldrb	r3, [r7, #23]
 800227e:	6878      	ldr	r0, [r7, #4]
 8002280:	2101      	movs	r1, #1
 8002282:	461a      	mov	r2, r3
 8002284:	f7fe f9aa 	bl	80005dc <vl53l0x__write__2>
 8002288:	4603      	mov	r3, r0
 800228a:	75bb      	strb	r3, [r7, #22]
 800228c:	e010      	b.n	80022b0 <vl53l0x__set_vcsel_pulse_period+0x3c0>
 800228e:	bf00      	nop
 8002290:	e00e      	b.n	80022b0 <vl53l0x__set_vcsel_pulse_period+0x3c0>
 8002292:	bf00      	nop
 8002294:	e00c      	b.n	80022b0 <vl53l0x__set_vcsel_pulse_period+0x3c0>
 8002296:	bf00      	nop
 8002298:	e00a      	b.n	80022b0 <vl53l0x__set_vcsel_pulse_period+0x3c0>
 800229a:	bf00      	nop
 800229c:	e008      	b.n	80022b0 <vl53l0x__set_vcsel_pulse_period+0x3c0>
 800229e:	bf00      	nop
 80022a0:	e006      	b.n	80022b0 <vl53l0x__set_vcsel_pulse_period+0x3c0>
 80022a2:	bf00      	nop
 80022a4:	e004      	b.n	80022b0 <vl53l0x__set_vcsel_pulse_period+0x3c0>
 80022a6:	bf00      	nop
 80022a8:	e002      	b.n	80022b0 <vl53l0x__set_vcsel_pulse_period+0x3c0>
 80022aa:	bf00      	nop
 80022ac:	e000      	b.n	80022b0 <vl53l0x__set_vcsel_pulse_period+0x3c0>
 80022ae:	bf00      	nop
 80022b0:	7dbb      	ldrb	r3, [r7, #22]
 80022b2:	bf00      	nop
 80022b4:	4618      	mov	r0, r3
 80022b6:	3738      	adds	r7, #56	; 0x38
 80022b8:	46bd      	mov	sp, r7
 80022ba:	bd80      	pop	{r7, pc}

080022bc <vl53l0x__vcsel_pulse_period>:
 80022bc:	b580      	push	{r7, lr}
 80022be:	b084      	sub	sp, #16
 80022c0:	af00      	add	r7, sp, #0
 80022c2:	6078      	str	r0, [r7, #4]
 80022c4:	460b      	mov	r3, r1
 80022c6:	70fb      	strb	r3, [r7, #3]
 80022c8:	78fb      	ldrb	r3, [r7, #3]
 80022ca:	2b04      	cmp	r3, #4
 80022cc:	d904      	bls.n	80022d8 <vl53l0x__vcsel_pulse_period+0x1c>
 80022ce:	4819      	ldr	r0, [pc, #100]	; (8002334 <vl53l0x__vcsel_pulse_period+0x78>)
 80022d0:	f240 6115 	movw	r1, #1557	; 0x615
 80022d4:	f7fe f83a 	bl	800034c <__gnat_last_chance_handler>
 80022d8:	78fb      	ldrb	r3, [r7, #3]
 80022da:	2b03      	cmp	r3, #3
 80022dc:	d002      	beq.n	80022e4 <vl53l0x__vcsel_pulse_period+0x28>
 80022de:	2b04      	cmp	r3, #4
 80022e0:	d00b      	beq.n	80022fa <vl53l0x__vcsel_pulse_period+0x3e>
 80022e2:	e015      	b.n	8002310 <vl53l0x__vcsel_pulse_period+0x54>
 80022e4:	6878      	ldr	r0, [r7, #4]
 80022e6:	2150      	movs	r1, #80	; 0x50
 80022e8:	f7fe f9fa 	bl	80006e0 <vl53l0x__read__2>
 80022ec:	4603      	mov	r3, r0
 80022ee:	461a      	mov	r2, r3
 80022f0:	73fa      	strb	r2, [r7, #15]
 80022f2:	f3c3 2307 	ubfx	r3, r3, #8, #8
 80022f6:	73bb      	strb	r3, [r7, #14]
 80022f8:	e00c      	b.n	8002314 <vl53l0x__vcsel_pulse_period+0x58>
 80022fa:	6878      	ldr	r0, [r7, #4]
 80022fc:	2170      	movs	r1, #112	; 0x70
 80022fe:	f7fe f9ef 	bl	80006e0 <vl53l0x__read__2>
 8002302:	4603      	mov	r3, r0
 8002304:	461a      	mov	r2, r3
 8002306:	73fa      	strb	r2, [r7, #15]
 8002308:	f3c3 2307 	ubfx	r3, r3, #8, #8
 800230c:	73bb      	strb	r3, [r7, #14]
 800230e:	e001      	b.n	8002314 <vl53l0x__vcsel_pulse_period+0x58>
 8002310:	2300      	movs	r3, #0
 8002312:	73bb      	strb	r3, [r7, #14]
 8002314:	bf00      	nop
 8002316:	7bbb      	ldrb	r3, [r7, #14]
 8002318:	2b00      	cmp	r3, #0
 800231a:	d005      	beq.n	8002328 <vl53l0x__vcsel_pulse_period+0x6c>
 800231c:	7bfb      	ldrb	r3, [r7, #15]
 800231e:	3301      	adds	r3, #1
 8002320:	b2db      	uxtb	r3, r3
 8002322:	005b      	lsls	r3, r3, #1
 8002324:	b2db      	uxtb	r3, r3
 8002326:	e000      	b.n	800232a <vl53l0x__vcsel_pulse_period+0x6e>
 8002328:	2300      	movs	r3, #0
 800232a:	bf00      	nop
 800232c:	4618      	mov	r0, r3
 800232e:	3710      	adds	r7, #16
 8002330:	46bd      	mov	sp, r7
 8002332:	bd80      	pop	{r7, pc}
 8002334:	0800b030 	.word	0x0800b030

08002338 <vl53l0x__getintermeasurementperiodmilliseconds>:
 8002338:	b580      	push	{r7, lr}
 800233a:	b088      	sub	sp, #32
 800233c:	af00      	add	r7, sp, #0
 800233e:	6078      	str	r0, [r7, #4]
 8002340:	6878      	ldr	r0, [r7, #4]
 8002342:	21f8      	movs	r1, #248	; 0xf8
 8002344:	f7fe fa00 	bl	8000748 <vl53l0x__read__3>
 8002348:	4603      	mov	r3, r0
 800234a:	461a      	mov	r2, r3
 800234c:	83fa      	strh	r2, [r7, #30]
 800234e:	f3c3 4307 	ubfx	r3, r3, #16, #8
 8002352:	b2db      	uxtb	r3, r3
 8002354:	75fb      	strb	r3, [r7, #23]
 8002356:	7dfb      	ldrb	r3, [r7, #23]
 8002358:	2b00      	cmp	r3, #0
 800235a:	d01e      	beq.n	800239a <vl53l0x__getintermeasurementperiodmilliseconds+0x62>
 800235c:	f107 030c 	add.w	r3, r7, #12
 8002360:	4618      	mov	r0, r3
 8002362:	6879      	ldr	r1, [r7, #4]
 8002364:	2204      	movs	r2, #4
 8002366:	f7fe fa2b 	bl	80007c0 <vl53l0x__read__4>
 800236a:	68fb      	ldr	r3, [r7, #12]
 800236c:	61bb      	str	r3, [r7, #24]
 800236e:	7c3b      	ldrb	r3, [r7, #16]
 8002370:	75fb      	strb	r3, [r7, #23]
 8002372:	7dfb      	ldrb	r3, [r7, #23]
 8002374:	2b00      	cmp	r3, #0
 8002376:	d010      	beq.n	800239a <vl53l0x__getintermeasurementperiodmilliseconds+0x62>
 8002378:	8bfb      	ldrh	r3, [r7, #30]
 800237a:	2b00      	cmp	r3, #0
 800237c:	d00d      	beq.n	800239a <vl53l0x__getintermeasurementperiodmilliseconds+0x62>
 800237e:	8bfb      	ldrh	r3, [r7, #30]
 8002380:	2b00      	cmp	r3, #0
 8002382:	d104      	bne.n	800238e <vl53l0x__getintermeasurementperiodmilliseconds+0x56>
 8002384:	4808      	ldr	r0, [pc, #32]	; (80023a8 <vl53l0x__getintermeasurementperiodmilliseconds+0x70>)
 8002386:	f240 6146 	movw	r1, #1606	; 0x646
 800238a:	f7fd ffdf 	bl	800034c <__gnat_last_chance_handler>
 800238e:	8bfb      	ldrh	r3, [r7, #30]
 8002390:	69ba      	ldr	r2, [r7, #24]
 8002392:	fbb2 f2f3 	udiv	r2, r2, r3
 8002396:	687b      	ldr	r3, [r7, #4]
 8002398:	661a      	str	r2, [r3, #96]	; 0x60
 800239a:	7dfb      	ldrb	r3, [r7, #23]
 800239c:	bf00      	nop
 800239e:	4618      	mov	r0, r3
 80023a0:	3720      	adds	r7, #32
 80023a2:	46bd      	mov	sp, r7
 80023a4:	bd80      	pop	{r7, pc}
 80023a6:	bf00      	nop
 80023a8:	0800b030 	.word	0x0800b030

080023ac <vl53l0x__getdeviceparameters>:
 80023ac:	b580      	push	{r7, lr}
 80023ae:	b084      	sub	sp, #16
 80023b0:	af00      	add	r7, sp, #0
 80023b2:	6078      	str	r0, [r7, #4]
 80023b4:	6878      	ldr	r0, [r7, #4]
 80023b6:	f7ff ffbf 	bl	8002338 <vl53l0x__getintermeasurementperiodmilliseconds>
 80023ba:	4603      	mov	r3, r0
 80023bc:	73fb      	strb	r3, [r7, #15]
 80023be:	7bfb      	ldrb	r3, [r7, #15]
 80023c0:	bf00      	nop
 80023c2:	4618      	mov	r0, r3
 80023c4:	3710      	adds	r7, #16
 80023c6:	46bd      	mov	sp, r7
 80023c8:	bd80      	pop	{r7, pc}
 80023ca:	bf00      	nop

080023cc <stm32__device__enable_clock>:
 80023cc:	b590      	push	{r4, r7, lr}
 80023ce:	b085      	sub	sp, #20
 80023d0:	af00      	add	r7, sp, #0
 80023d2:	6078      	str	r0, [r7, #4]
 80023d4:	687a      	ldr	r2, [r7, #4]
 80023d6:	493a      	ldr	r1, [pc, #232]	; (80024c0 <stm32__device__enable_clock+0xf4>)
 80023d8:	428a      	cmp	r2, r1
 80023da:	d10a      	bne.n	80023f2 <stm32__device__enable_clock+0x26>
 80023dc:	4b39      	ldr	r3, [pc, #228]	; (80024c4 <stm32__device__enable_clock+0xf8>)
 80023de:	3318      	adds	r3, #24
 80023e0:	681b      	ldr	r3, [r3, #0]
 80023e2:	461a      	mov	r2, r3
 80023e4:	4613      	mov	r3, r2
 80023e6:	f043 0204 	orr.w	r2, r3, #4
 80023ea:	4b36      	ldr	r3, [pc, #216]	; (80024c4 <stm32__device__enable_clock+0xf8>)
 80023ec:	3318      	adds	r3, #24
 80023ee:	601a      	str	r2, [r3, #0]
 80023f0:	e062      	b.n	80024b8 <stm32__device__enable_clock+0xec>
 80023f2:	687a      	ldr	r2, [r7, #4]
 80023f4:	4934      	ldr	r1, [pc, #208]	; (80024c8 <stm32__device__enable_clock+0xfc>)
 80023f6:	428a      	cmp	r2, r1
 80023f8:	d10a      	bne.n	8002410 <stm32__device__enable_clock+0x44>
 80023fa:	4b32      	ldr	r3, [pc, #200]	; (80024c4 <stm32__device__enable_clock+0xf8>)
 80023fc:	3318      	adds	r3, #24
 80023fe:	681b      	ldr	r3, [r3, #0]
 8002400:	461a      	mov	r2, r3
 8002402:	4613      	mov	r3, r2
 8002404:	f043 0208 	orr.w	r2, r3, #8
 8002408:	4b2e      	ldr	r3, [pc, #184]	; (80024c4 <stm32__device__enable_clock+0xf8>)
 800240a:	3318      	adds	r3, #24
 800240c:	601a      	str	r2, [r3, #0]
 800240e:	e053      	b.n	80024b8 <stm32__device__enable_clock+0xec>
 8002410:	687a      	ldr	r2, [r7, #4]
 8002412:	492e      	ldr	r1, [pc, #184]	; (80024cc <stm32__device__enable_clock+0x100>)
 8002414:	428a      	cmp	r2, r1
 8002416:	d10a      	bne.n	800242e <stm32__device__enable_clock+0x62>
 8002418:	4b2a      	ldr	r3, [pc, #168]	; (80024c4 <stm32__device__enable_clock+0xf8>)
 800241a:	3318      	adds	r3, #24
 800241c:	681b      	ldr	r3, [r3, #0]
 800241e:	461a      	mov	r2, r3
 8002420:	4613      	mov	r3, r2
 8002422:	f043 0210 	orr.w	r2, r3, #16
 8002426:	4b27      	ldr	r3, [pc, #156]	; (80024c4 <stm32__device__enable_clock+0xf8>)
 8002428:	3318      	adds	r3, #24
 800242a:	601a      	str	r2, [r3, #0]
 800242c:	e044      	b.n	80024b8 <stm32__device__enable_clock+0xec>
 800242e:	687a      	ldr	r2, [r7, #4]
 8002430:	4927      	ldr	r1, [pc, #156]	; (80024d0 <stm32__device__enable_clock+0x104>)
 8002432:	428a      	cmp	r2, r1
 8002434:	d10a      	bne.n	800244c <stm32__device__enable_clock+0x80>
 8002436:	4b23      	ldr	r3, [pc, #140]	; (80024c4 <stm32__device__enable_clock+0xf8>)
 8002438:	3318      	adds	r3, #24
 800243a:	681b      	ldr	r3, [r3, #0]
 800243c:	461a      	mov	r2, r3
 800243e:	4613      	mov	r3, r2
 8002440:	f043 0220 	orr.w	r2, r3, #32
 8002444:	4b1f      	ldr	r3, [pc, #124]	; (80024c4 <stm32__device__enable_clock+0xf8>)
 8002446:	3318      	adds	r3, #24
 8002448:	601a      	str	r2, [r3, #0]
 800244a:	e035      	b.n	80024b8 <stm32__device__enable_clock+0xec>
 800244c:	687a      	ldr	r2, [r7, #4]
 800244e:	4921      	ldr	r1, [pc, #132]	; (80024d4 <stm32__device__enable_clock+0x108>)
 8002450:	428a      	cmp	r2, r1
 8002452:	d10a      	bne.n	800246a <stm32__device__enable_clock+0x9e>
 8002454:	4b1b      	ldr	r3, [pc, #108]	; (80024c4 <stm32__device__enable_clock+0xf8>)
 8002456:	3318      	adds	r3, #24
 8002458:	681b      	ldr	r3, [r3, #0]
 800245a:	461a      	mov	r2, r3
 800245c:	4613      	mov	r3, r2
 800245e:	f043 0240 	orr.w	r2, r3, #64	; 0x40
 8002462:	4b18      	ldr	r3, [pc, #96]	; (80024c4 <stm32__device__enable_clock+0xf8>)
 8002464:	3318      	adds	r3, #24
 8002466:	601a      	str	r2, [r3, #0]
 8002468:	e026      	b.n	80024b8 <stm32__device__enable_clock+0xec>
 800246a:	687a      	ldr	r2, [r7, #4]
 800246c:	491a      	ldr	r1, [pc, #104]	; (80024d8 <stm32__device__enable_clock+0x10c>)
 800246e:	428a      	cmp	r2, r1
 8002470:	d10a      	bne.n	8002488 <stm32__device__enable_clock+0xbc>
 8002472:	4b14      	ldr	r3, [pc, #80]	; (80024c4 <stm32__device__enable_clock+0xf8>)
 8002474:	3318      	adds	r3, #24
 8002476:	681b      	ldr	r3, [r3, #0]
 8002478:	461a      	mov	r2, r3
 800247a:	4613      	mov	r3, r2
 800247c:	f043 0280 	orr.w	r2, r3, #128	; 0x80
 8002480:	4b10      	ldr	r3, [pc, #64]	; (80024c4 <stm32__device__enable_clock+0xf8>)
 8002482:	3318      	adds	r3, #24
 8002484:	601a      	str	r2, [r3, #0]
 8002486:	e017      	b.n	80024b8 <stm32__device__enable_clock+0xec>
 8002488:	687a      	ldr	r2, [r7, #4]
 800248a:	4914      	ldr	r1, [pc, #80]	; (80024dc <stm32__device__enable_clock+0x110>)
 800248c:	428a      	cmp	r2, r1
 800248e:	d10a      	bne.n	80024a6 <stm32__device__enable_clock+0xda>
 8002490:	4b0c      	ldr	r3, [pc, #48]	; (80024c4 <stm32__device__enable_clock+0xf8>)
 8002492:	3318      	adds	r3, #24
 8002494:	681b      	ldr	r3, [r3, #0]
 8002496:	461a      	mov	r2, r3
 8002498:	4613      	mov	r3, r2
 800249a:	f443 7280 	orr.w	r2, r3, #256	; 0x100
 800249e:	4b09      	ldr	r3, [pc, #36]	; (80024c4 <stm32__device__enable_clock+0xf8>)
 80024a0:	3318      	adds	r3, #24
 80024a2:	601a      	str	r2, [r3, #0]
 80024a4:	e008      	b.n	80024b8 <stm32__device__enable_clock+0xec>
 80024a6:	4b0e      	ldr	r3, [pc, #56]	; (80024e0 <stm32__device__enable_clock+0x114>)
 80024a8:	4c0e      	ldr	r4, [pc, #56]	; (80024e4 <stm32__device__enable_clock+0x118>)
 80024aa:	e9c7 3402 	strd	r3, r4, [r7, #8]
 80024ae:	68bb      	ldr	r3, [r7, #8]
 80024b0:	4618      	mov	r0, r3
 80024b2:	2100      	movs	r1, #0
 80024b4:	f7fd ff4a 	bl	800034c <__gnat_last_chance_handler>
 80024b8:	3714      	adds	r7, #20
 80024ba:	46bd      	mov	sp, r7
 80024bc:	bd90      	pop	{r4, r7, pc}
 80024be:	bf00      	nop
 80024c0:	40010800 	.word	0x40010800
 80024c4:	40021000 	.word	0x40021000
 80024c8:	40010c00 	.word	0x40010c00
 80024cc:	40011000 	.word	0x40011000
 80024d0:	40011400 	.word	0x40011400
 80024d4:	40011800 	.word	0x40011800
 80024d8:	40011c00 	.word	0x40011c00
 80024dc:	40012000 	.word	0x40012000
 80024e0:	0800b0fc 	.word	0x0800b0fc
 80024e4:	0800b110 	.word	0x0800b110

080024e8 <stm32__device__enable_clock__2>:
 80024e8:	b580      	push	{r7, lr}
 80024ea:	b082      	sub	sp, #8
 80024ec:	af00      	add	r7, sp, #0
 80024ee:	6078      	str	r0, [r7, #4]
 80024f0:	687b      	ldr	r3, [r7, #4]
 80024f2:	685b      	ldr	r3, [r3, #4]
 80024f4:	2b00      	cmp	r3, #0
 80024f6:	d103      	bne.n	8002500 <stm32__device__enable_clock__2+0x18>
 80024f8:	4805      	ldr	r0, [pc, #20]	; (8002510 <stm32__device__enable_clock__2+0x28>)
 80024fa:	2155      	movs	r1, #85	; 0x55
 80024fc:	f7fd ff26 	bl	800034c <__gnat_last_chance_handler>
 8002500:	687b      	ldr	r3, [r7, #4]
 8002502:	685b      	ldr	r3, [r3, #4]
 8002504:	4618      	mov	r0, r3
 8002506:	f7ff ff61 	bl	80023cc <stm32__device__enable_clock>
 800250a:	3708      	adds	r7, #8
 800250c:	46bd      	mov	sp, r7
 800250e:	bd80      	pop	{r7, pc}
 8002510:	0800b118 	.word	0x0800b118

08002514 <stm32__device__as_port_id>:
 8002514:	b590      	push	{r4, r7, lr}
 8002516:	b085      	sub	sp, #20
 8002518:	af00      	add	r7, sp, #0
 800251a:	6078      	str	r0, [r7, #4]
 800251c:	687a      	ldr	r2, [r7, #4]
 800251e:	6852      	ldr	r2, [r2, #4]
 8002520:	4611      	mov	r1, r2
 8002522:	4a0d      	ldr	r2, [pc, #52]	; (8002558 <stm32__device__as_port_id+0x44>)
 8002524:	4291      	cmp	r1, r2
 8002526:	d101      	bne.n	800252c <stm32__device__as_port_id+0x18>
 8002528:	2300      	movs	r3, #0
 800252a:	e010      	b.n	800254e <stm32__device__as_port_id+0x3a>
 800252c:	687a      	ldr	r2, [r7, #4]
 800252e:	6852      	ldr	r2, [r2, #4]
 8002530:	4611      	mov	r1, r2
 8002532:	4a0a      	ldr	r2, [pc, #40]	; (800255c <stm32__device__as_port_id+0x48>)
 8002534:	4291      	cmp	r1, r2
 8002536:	d101      	bne.n	800253c <stm32__device__as_port_id+0x28>
 8002538:	2301      	movs	r3, #1
 800253a:	e008      	b.n	800254e <stm32__device__as_port_id+0x3a>
 800253c:	4b08      	ldr	r3, [pc, #32]	; (8002560 <stm32__device__as_port_id+0x4c>)
 800253e:	4c09      	ldr	r4, [pc, #36]	; (8002564 <stm32__device__as_port_id+0x50>)
 8002540:	e9c7 3402 	strd	r3, r4, [r7, #8]
 8002544:	68bb      	ldr	r3, [r7, #8]
 8002546:	4618      	mov	r0, r3
 8002548:	2100      	movs	r1, #0
 800254a:	f7fd feff 	bl	800034c <__gnat_last_chance_handler>
 800254e:	bf00      	nop
 8002550:	4618      	mov	r0, r3
 8002552:	3714      	adds	r7, #20
 8002554:	46bd      	mov	sp, r7
 8002556:	bd90      	pop	{r4, r7, pc}
 8002558:	40005400 	.word	0x40005400
 800255c:	40005800 	.word	0x40005800
 8002560:	0800b1ac 	.word	0x0800b1ac
 8002564:	0800b144 	.word	0x0800b144

08002568 <stm32__device__enable_clock__7>:
 8002568:	b580      	push	{r7, lr}
 800256a:	b082      	sub	sp, #8
 800256c:	af00      	add	r7, sp, #0
 800256e:	6078      	str	r0, [r7, #4]
 8002570:	6878      	ldr	r0, [r7, #4]
 8002572:	f7ff ffcf 	bl	8002514 <stm32__device__as_port_id>
 8002576:	4603      	mov	r3, r0
 8002578:	4618      	mov	r0, r3
 800257a:	f000 f803 	bl	8002584 <stm32__device__enable_clock__8>
 800257e:	3708      	adds	r7, #8
 8002580:	46bd      	mov	sp, r7
 8002582:	bd80      	pop	{r7, pc}

08002584 <stm32__device__enable_clock__8>:
 8002584:	b580      	push	{r7, lr}
 8002586:	b082      	sub	sp, #8
 8002588:	af00      	add	r7, sp, #0
 800258a:	4603      	mov	r3, r0
 800258c:	71fb      	strb	r3, [r7, #7]
 800258e:	79fb      	ldrb	r3, [r7, #7]
 8002590:	2b01      	cmp	r3, #1
 8002592:	d904      	bls.n	800259e <stm32__device__enable_clock__8+0x1a>
 8002594:	480f      	ldr	r0, [pc, #60]	; (80025d4 <stm32__device__enable_clock__8+0x50>)
 8002596:	f44f 71ac 	mov.w	r1, #344	; 0x158
 800259a:	f7fd fed7 	bl	800034c <__gnat_last_chance_handler>
 800259e:	79fb      	ldrb	r3, [r7, #7]
 80025a0:	2b00      	cmp	r3, #0
 80025a2:	d10a      	bne.n	80025ba <stm32__device__enable_clock__8+0x36>
 80025a4:	4b0c      	ldr	r3, [pc, #48]	; (80025d8 <stm32__device__enable_clock__8+0x54>)
 80025a6:	331c      	adds	r3, #28
 80025a8:	681b      	ldr	r3, [r3, #0]
 80025aa:	461a      	mov	r2, r3
 80025ac:	4613      	mov	r3, r2
 80025ae:	f443 1200 	orr.w	r2, r3, #2097152	; 0x200000
 80025b2:	4b09      	ldr	r3, [pc, #36]	; (80025d8 <stm32__device__enable_clock__8+0x54>)
 80025b4:	331c      	adds	r3, #28
 80025b6:	601a      	str	r2, [r3, #0]
 80025b8:	e009      	b.n	80025ce <stm32__device__enable_clock__8+0x4a>
 80025ba:	4b07      	ldr	r3, [pc, #28]	; (80025d8 <stm32__device__enable_clock__8+0x54>)
 80025bc:	331c      	adds	r3, #28
 80025be:	681b      	ldr	r3, [r3, #0]
 80025c0:	461a      	mov	r2, r3
 80025c2:	4613      	mov	r3, r2
 80025c4:	f443 0280 	orr.w	r2, r3, #4194304	; 0x400000
 80025c8:	4b03      	ldr	r3, [pc, #12]	; (80025d8 <stm32__device__enable_clock__8+0x54>)
 80025ca:	331c      	adds	r3, #28
 80025cc:	601a      	str	r2, [r3, #0]
 80025ce:	3708      	adds	r7, #8
 80025d0:	46bd      	mov	sp, r7
 80025d2:	bd80      	pop	{r7, pc}
 80025d4:	0800b118 	.word	0x0800b118
 80025d8:	40021000 	.word	0x40021000

080025dc <stm32__device__reset__6>:
 80025dc:	b580      	push	{r7, lr}
 80025de:	b082      	sub	sp, #8
 80025e0:	af00      	add	r7, sp, #0
 80025e2:	6078      	str	r0, [r7, #4]
 80025e4:	6878      	ldr	r0, [r7, #4]
 80025e6:	f7ff ff95 	bl	8002514 <stm32__device__as_port_id>
 80025ea:	4603      	mov	r3, r0
 80025ec:	4618      	mov	r0, r3
 80025ee:	f000 f803 	bl	80025f8 <stm32__device__reset__7>
 80025f2:	3708      	adds	r7, #8
 80025f4:	46bd      	mov	sp, r7
 80025f6:	bd80      	pop	{r7, pc}

080025f8 <stm32__device__reset__7>:
 80025f8:	b580      	push	{r7, lr}
 80025fa:	b082      	sub	sp, #8
 80025fc:	af00      	add	r7, sp, #0
 80025fe:	4603      	mov	r3, r0
 8002600:	71fb      	strb	r3, [r7, #7]
 8002602:	79fb      	ldrb	r3, [r7, #7]
 8002604:	2b01      	cmp	r3, #1
 8002606:	d904      	bls.n	8002612 <stm32__device__reset__7+0x1a>
 8002608:	4817      	ldr	r0, [pc, #92]	; (8002668 <stm32__device__reset__7+0x70>)
 800260a:	f240 116f 	movw	r1, #367	; 0x16f
 800260e:	f7fd fe9d 	bl	800034c <__gnat_last_chance_handler>
 8002612:	79fb      	ldrb	r3, [r7, #7]
 8002614:	2b00      	cmp	r3, #0
 8002616:	d112      	bne.n	800263e <stm32__device__reset__7+0x46>
 8002618:	4b14      	ldr	r3, [pc, #80]	; (800266c <stm32__device__reset__7+0x74>)
 800261a:	3310      	adds	r3, #16
 800261c:	681b      	ldr	r3, [r3, #0]
 800261e:	461a      	mov	r2, r3
 8002620:	4613      	mov	r3, r2
 8002622:	f443 1200 	orr.w	r2, r3, #2097152	; 0x200000
 8002626:	4b11      	ldr	r3, [pc, #68]	; (800266c <stm32__device__reset__7+0x74>)
 8002628:	3310      	adds	r3, #16
 800262a:	601a      	str	r2, [r3, #0]
 800262c:	4b0f      	ldr	r3, [pc, #60]	; (800266c <stm32__device__reset__7+0x74>)
 800262e:	3310      	adds	r3, #16
 8002630:	681b      	ldr	r3, [r3, #0]
 8002632:	f36f 5355 	bfc	r3, #21, #1
 8002636:	4a0d      	ldr	r2, [pc, #52]	; (800266c <stm32__device__reset__7+0x74>)
 8002638:	3210      	adds	r2, #16
 800263a:	6013      	str	r3, [r2, #0]
 800263c:	e011      	b.n	8002662 <stm32__device__reset__7+0x6a>
 800263e:	4b0b      	ldr	r3, [pc, #44]	; (800266c <stm32__device__reset__7+0x74>)
 8002640:	3310      	adds	r3, #16
 8002642:	681b      	ldr	r3, [r3, #0]
 8002644:	461a      	mov	r2, r3
 8002646:	4613      	mov	r3, r2
 8002648:	f443 0280 	orr.w	r2, r3, #4194304	; 0x400000
 800264c:	4b07      	ldr	r3, [pc, #28]	; (800266c <stm32__device__reset__7+0x74>)
 800264e:	3310      	adds	r3, #16
 8002650:	601a      	str	r2, [r3, #0]
 8002652:	4b06      	ldr	r3, [pc, #24]	; (800266c <stm32__device__reset__7+0x74>)
 8002654:	3310      	adds	r3, #16
 8002656:	681b      	ldr	r3, [r3, #0]
 8002658:	f36f 5396 	bfc	r3, #22, #1
 800265c:	4a03      	ldr	r2, [pc, #12]	; (800266c <stm32__device__reset__7+0x74>)
 800265e:	3210      	adds	r2, #16
 8002660:	6013      	str	r3, [r2, #0]
 8002662:	3708      	adds	r7, #8
 8002664:	46bd      	mov	sp, r7
 8002666:	bd80      	pop	{r7, pc}
 8002668:	0800b118 	.word	0x0800b118
 800266c:	40021000 	.word	0x40021000

08002670 <stm32__device__system_clock_frequencies>:
 8002670:	b5b0      	push	{r4, r5, r7, lr}
 8002672:	b08e      	sub	sp, #56	; 0x38
 8002674:	af00      	add	r7, sp, #0
 8002676:	6078      	str	r0, [r7, #4]
 8002678:	4b71      	ldr	r3, [pc, #452]	; (8002840 <stm32__device__system_clock_frequencies+0x1d0>)
 800267a:	3304      	adds	r3, #4
 800267c:	681b      	ldr	r3, [r3, #0]
 800267e:	f3c3 0381 	ubfx	r3, r3, #2, #2
 8002682:	b2db      	uxtb	r3, r3
 8002684:	f887 302f 	strb.w	r3, [r7, #47]	; 0x2f
 8002688:	f897 302f 	ldrb.w	r3, [r7, #47]	; 0x2f
 800268c:	2b03      	cmp	r3, #3
 800268e:	d904      	bls.n	800269a <stm32__device__system_clock_frequencies+0x2a>
 8002690:	486c      	ldr	r0, [pc, #432]	; (8002844 <stm32__device__system_clock_frequencies+0x1d4>)
 8002692:	f44f 710a 	mov.w	r1, #552	; 0x228
 8002696:	f7fd fe59 	bl	800034c <__gnat_last_chance_handler>
 800269a:	f897 302f 	ldrb.w	r3, [r7, #47]	; 0x2f
 800269e:	2b01      	cmp	r3, #1
 80026a0:	d007      	beq.n	80026b2 <stm32__device__system_clock_frequencies+0x42>
 80026a2:	2b01      	cmp	r3, #1
 80026a4:	d302      	bcc.n	80026ac <stm32__device__system_clock_frequencies+0x3c>
 80026a6:	2b02      	cmp	r3, #2
 80026a8:	d006      	beq.n	80026b8 <stm32__device__system_clock_frequencies+0x48>
 80026aa:	e041      	b.n	8002730 <stm32__device__system_clock_frequencies+0xc0>
 80026ac:	4b66      	ldr	r3, [pc, #408]	; (8002848 <stm32__device__system_clock_frequencies+0x1d8>)
 80026ae:	60fb      	str	r3, [r7, #12]
 80026b0:	e040      	b.n	8002734 <stm32__device__system_clock_frequencies+0xc4>
 80026b2:	4b66      	ldr	r3, [pc, #408]	; (800284c <stm32__device__system_clock_frequencies+0x1dc>)
 80026b4:	60fb      	str	r3, [r7, #12]
 80026b6:	e03d      	b.n	8002734 <stm32__device__system_clock_frequencies+0xc4>
 80026b8:	4b61      	ldr	r3, [pc, #388]	; (8002840 <stm32__device__system_clock_frequencies+0x1d0>)
 80026ba:	3304      	adds	r3, #4
 80026bc:	681b      	ldr	r3, [r3, #0]
 80026be:	f3c3 4300 	ubfx	r3, r3, #16, #1
 80026c2:	b2db      	uxtb	r3, r3
 80026c4:	f887 302e 	strb.w	r3, [r7, #46]	; 0x2e
 80026c8:	4b5d      	ldr	r3, [pc, #372]	; (8002840 <stm32__device__system_clock_frequencies+0x1d0>)
 80026ca:	3304      	adds	r3, #4
 80026cc:	681b      	ldr	r3, [r3, #0]
 80026ce:	f3c3 4340 	ubfx	r3, r3, #17, #1
 80026d2:	b2db      	uxtb	r3, r3
 80026d4:	f887 302d 	strb.w	r3, [r7, #45]	; 0x2d
 80026d8:	4b59      	ldr	r3, [pc, #356]	; (8002840 <stm32__device__system_clock_frequencies+0x1d0>)
 80026da:	3304      	adds	r3, #4
 80026dc:	681b      	ldr	r3, [r3, #0]
 80026de:	f3c3 4383 	ubfx	r3, r3, #18, #4
 80026e2:	b2db      	uxtb	r3, r3
 80026e4:	f887 302c 	strb.w	r3, [r7, #44]	; 0x2c
 80026e8:	f897 302e 	ldrb.w	r3, [r7, #46]	; 0x2e
 80026ec:	f083 0301 	eor.w	r3, r3, #1
 80026f0:	b2db      	uxtb	r3, r3
 80026f2:	2b00      	cmp	r3, #0
 80026f4:	d002      	beq.n	80026fc <stm32__device__system_clock_frequencies+0x8c>
 80026f6:	4b55      	ldr	r3, [pc, #340]	; (800284c <stm32__device__system_clock_frequencies+0x1dc>)
 80026f8:	637b      	str	r3, [r7, #52]	; 0x34
 80026fa:	e008      	b.n	800270e <stm32__device__system_clock_frequencies+0x9e>
 80026fc:	4b53      	ldr	r3, [pc, #332]	; (800284c <stm32__device__system_clock_frequencies+0x1dc>)
 80026fe:	637b      	str	r3, [r7, #52]	; 0x34
 8002700:	f897 302d 	ldrb.w	r3, [r7, #45]	; 0x2d
 8002704:	2b00      	cmp	r3, #0
 8002706:	d002      	beq.n	800270e <stm32__device__system_clock_frequencies+0x9e>
 8002708:	6b7b      	ldr	r3, [r7, #52]	; 0x34
 800270a:	085b      	lsrs	r3, r3, #1
 800270c:	637b      	str	r3, [r7, #52]	; 0x34
 800270e:	f897 302c 	ldrb.w	r3, [r7, #44]	; 0x2c
 8002712:	2b0d      	cmp	r3, #13
 8002714:	d804      	bhi.n	8002720 <stm32__device__system_clock_frequencies+0xb0>
 8002716:	f897 302c 	ldrb.w	r3, [r7, #44]	; 0x2c
 800271a:	3302      	adds	r3, #2
 800271c:	633b      	str	r3, [r7, #48]	; 0x30
 800271e:	e001      	b.n	8002724 <stm32__device__system_clock_frequencies+0xb4>
 8002720:	2310      	movs	r3, #16
 8002722:	633b      	str	r3, [r7, #48]	; 0x30
 8002724:	6b7b      	ldr	r3, [r7, #52]	; 0x34
 8002726:	6b3a      	ldr	r2, [r7, #48]	; 0x30
 8002728:	fb02 f303 	mul.w	r3, r2, r3
 800272c:	60fb      	str	r3, [r7, #12]
 800272e:	e001      	b.n	8002734 <stm32__device__system_clock_frequencies+0xc4>
 8002730:	4b45      	ldr	r3, [pc, #276]	; (8002848 <stm32__device__system_clock_frequencies+0x1d8>)
 8002732:	60fb      	str	r3, [r7, #12]
 8002734:	bf00      	nop
 8002736:	4b42      	ldr	r3, [pc, #264]	; (8002840 <stm32__device__system_clock_frequencies+0x1d0>)
 8002738:	3304      	adds	r3, #4
 800273a:	681b      	ldr	r3, [r3, #0]
 800273c:	f3c3 1303 	ubfx	r3, r3, #4, #4
 8002740:	b2db      	uxtb	r3, r3
 8002742:	f887 302b 	strb.w	r3, [r7, #43]	; 0x2b
 8002746:	4b3e      	ldr	r3, [pc, #248]	; (8002840 <stm32__device__system_clock_frequencies+0x1d0>)
 8002748:	3304      	adds	r3, #4
 800274a:	681b      	ldr	r3, [r3, #0]
 800274c:	f3c3 2305 	ubfx	r3, r3, #8, #6
 8002750:	b2db      	uxtb	r3, r3
 8002752:	f003 0307 	and.w	r3, r3, #7
 8002756:	f887 302a 	strb.w	r3, [r7, #42]	; 0x2a
 800275a:	4b39      	ldr	r3, [pc, #228]	; (8002840 <stm32__device__system_clock_frequencies+0x1d0>)
 800275c:	3304      	adds	r3, #4
 800275e:	681b      	ldr	r3, [r3, #0]
 8002760:	f3c3 2305 	ubfx	r3, r3, #8, #6
 8002764:	b2db      	uxtb	r3, r3
 8002766:	08db      	lsrs	r3, r3, #3
 8002768:	b2db      	uxtb	r3, r3
 800276a:	f003 0307 	and.w	r3, r3, #7
 800276e:	f887 3029 	strb.w	r3, [r7, #41]	; 0x29
 8002772:	f897 302b 	ldrb.w	r3, [r7, #43]	; 0x2b
 8002776:	4a36      	ldr	r2, [pc, #216]	; (8002850 <stm32__device__system_clock_frequencies+0x1e0>)
 8002778:	f852 3023 	ldr.w	r3, [r2, r3, lsl #2]
 800277c:	2b00      	cmp	r3, #0
 800277e:	d104      	bne.n	800278a <stm32__device__system_clock_frequencies+0x11a>
 8002780:	4830      	ldr	r0, [pc, #192]	; (8002844 <stm32__device__system_clock_frequencies+0x1d4>)
 8002782:	f240 2152 	movw	r1, #594	; 0x252
 8002786:	f7fd fde1 	bl	800034c <__gnat_last_chance_handler>
 800278a:	68fa      	ldr	r2, [r7, #12]
 800278c:	f897 302b 	ldrb.w	r3, [r7, #43]	; 0x2b
 8002790:	492f      	ldr	r1, [pc, #188]	; (8002850 <stm32__device__system_clock_frequencies+0x1e0>)
 8002792:	f851 3023 	ldr.w	r3, [r1, r3, lsl #2]
 8002796:	fbb2 f3f3 	udiv	r3, r2, r3
 800279a:	613b      	str	r3, [r7, #16]
 800279c:	f897 302a 	ldrb.w	r3, [r7, #42]	; 0x2a
 80027a0:	4a2c      	ldr	r2, [pc, #176]	; (8002854 <stm32__device__system_clock_frequencies+0x1e4>)
 80027a2:	f852 3023 	ldr.w	r3, [r2, r3, lsl #2]
 80027a6:	2b00      	cmp	r3, #0
 80027a8:	d104      	bne.n	80027b4 <stm32__device__system_clock_frequencies+0x144>
 80027aa:	4826      	ldr	r0, [pc, #152]	; (8002844 <stm32__device__system_clock_frequencies+0x1d4>)
 80027ac:	f240 2153 	movw	r1, #595	; 0x253
 80027b0:	f7fd fdcc 	bl	800034c <__gnat_last_chance_handler>
 80027b4:	693a      	ldr	r2, [r7, #16]
 80027b6:	f897 302a 	ldrb.w	r3, [r7, #42]	; 0x2a
 80027ba:	4926      	ldr	r1, [pc, #152]	; (8002854 <stm32__device__system_clock_frequencies+0x1e4>)
 80027bc:	f851 3023 	ldr.w	r3, [r1, r3, lsl #2]
 80027c0:	fbb2 f3f3 	udiv	r3, r2, r3
 80027c4:	617b      	str	r3, [r7, #20]
 80027c6:	f897 3029 	ldrb.w	r3, [r7, #41]	; 0x29
 80027ca:	4a22      	ldr	r2, [pc, #136]	; (8002854 <stm32__device__system_clock_frequencies+0x1e4>)
 80027cc:	f852 3023 	ldr.w	r3, [r2, r3, lsl #2]
 80027d0:	2b00      	cmp	r3, #0
 80027d2:	d104      	bne.n	80027de <stm32__device__system_clock_frequencies+0x16e>
 80027d4:	481b      	ldr	r0, [pc, #108]	; (8002844 <stm32__device__system_clock_frequencies+0x1d4>)
 80027d6:	f44f 7115 	mov.w	r1, #596	; 0x254
 80027da:	f7fd fdb7 	bl	800034c <__gnat_last_chance_handler>
 80027de:	693a      	ldr	r2, [r7, #16]
 80027e0:	f897 3029 	ldrb.w	r3, [r7, #41]	; 0x29
 80027e4:	491b      	ldr	r1, [pc, #108]	; (8002854 <stm32__device__system_clock_frequencies+0x1e4>)
 80027e6:	f851 3023 	ldr.w	r3, [r1, r3, lsl #2]
 80027ea:	fbb2 f3f3 	udiv	r3, r2, r3
 80027ee:	61bb      	str	r3, [r7, #24]
 80027f0:	f897 302a 	ldrb.w	r3, [r7, #42]	; 0x2a
 80027f4:	4a17      	ldr	r2, [pc, #92]	; (8002854 <stm32__device__system_clock_frequencies+0x1e4>)
 80027f6:	f852 3023 	ldr.w	r3, [r2, r3, lsl #2]
 80027fa:	2b01      	cmp	r3, #1
 80027fc:	d102      	bne.n	8002804 <stm32__device__system_clock_frequencies+0x194>
 80027fe:	697b      	ldr	r3, [r7, #20]
 8002800:	61fb      	str	r3, [r7, #28]
 8002802:	e002      	b.n	800280a <stm32__device__system_clock_frequencies+0x19a>
 8002804:	697b      	ldr	r3, [r7, #20]
 8002806:	005b      	lsls	r3, r3, #1
 8002808:	61fb      	str	r3, [r7, #28]
 800280a:	f897 3029 	ldrb.w	r3, [r7, #41]	; 0x29
 800280e:	4a11      	ldr	r2, [pc, #68]	; (8002854 <stm32__device__system_clock_frequencies+0x1e4>)
 8002810:	f852 3023 	ldr.w	r3, [r2, r3, lsl #2]
 8002814:	2b01      	cmp	r3, #1
 8002816:	d102      	bne.n	800281e <stm32__device__system_clock_frequencies+0x1ae>
 8002818:	69bb      	ldr	r3, [r7, #24]
 800281a:	623b      	str	r3, [r7, #32]
 800281c:	e002      	b.n	8002824 <stm32__device__system_clock_frequencies+0x1b4>
 800281e:	69bb      	ldr	r3, [r7, #24]
 8002820:	005b      	lsls	r3, r3, #1
 8002822:	623b      	str	r3, [r7, #32]
 8002824:	687b      	ldr	r3, [r7, #4]
 8002826:	461d      	mov	r5, r3
 8002828:	f107 040c 	add.w	r4, r7, #12
 800282c:	cc0f      	ldmia	r4!, {r0, r1, r2, r3}
 800282e:	c50f      	stmia	r5!, {r0, r1, r2, r3}
 8002830:	e894 0007 	ldmia.w	r4, {r0, r1, r2}
 8002834:	e885 0007 	stmia.w	r5, {r0, r1, r2}
 8002838:	6878      	ldr	r0, [r7, #4]
 800283a:	3738      	adds	r7, #56	; 0x38
 800283c:	46bd      	mov	sp, r7
 800283e:	bdb0      	pop	{r4, r5, r7, pc}
 8002840:	40021000 	.word	0x40021000
 8002844:	0800b118 	.word	0x0800b118
 8002848:	00f42400 	.word	0x00f42400
 800284c:	007a1200 	.word	0x007a1200
 8002850:	0800b09c 	.word	0x0800b09c
 8002854:	0800b0dc 	.word	0x0800b0dc

08002858 <stm32__device___elabs>:
 8002858:	b580      	push	{r7, lr}
 800285a:	af00      	add	r7, sp, #0
 800285c:	4b88      	ldr	r3, [pc, #544]	; (8002a80 <stm32__device___elabs+0x228>)
 800285e:	681b      	ldr	r3, [r3, #0]
 8002860:	4a88      	ldr	r2, [pc, #544]	; (8002a84 <stm32__device___elabs+0x22c>)
 8002862:	6053      	str	r3, [r2, #4]
 8002864:	4b87      	ldr	r3, [pc, #540]	; (8002a84 <stm32__device___elabs+0x22c>)
 8002866:	2201      	movs	r2, #1
 8002868:	811a      	strh	r2, [r3, #8]
 800286a:	4b86      	ldr	r3, [pc, #536]	; (8002a84 <stm32__device___elabs+0x22c>)
 800286c:	4a86      	ldr	r2, [pc, #536]	; (8002a88 <stm32__device___elabs+0x230>)
 800286e:	601a      	str	r2, [r3, #0]
 8002870:	4b83      	ldr	r3, [pc, #524]	; (8002a80 <stm32__device___elabs+0x228>)
 8002872:	681b      	ldr	r3, [r3, #0]
 8002874:	4a85      	ldr	r2, [pc, #532]	; (8002a8c <stm32__device___elabs+0x234>)
 8002876:	6053      	str	r3, [r2, #4]
 8002878:	4b84      	ldr	r3, [pc, #528]	; (8002a8c <stm32__device___elabs+0x234>)
 800287a:	2202      	movs	r2, #2
 800287c:	811a      	strh	r2, [r3, #8]
 800287e:	4b83      	ldr	r3, [pc, #524]	; (8002a8c <stm32__device___elabs+0x234>)
 8002880:	4a81      	ldr	r2, [pc, #516]	; (8002a88 <stm32__device___elabs+0x230>)
 8002882:	601a      	str	r2, [r3, #0]
 8002884:	4b7e      	ldr	r3, [pc, #504]	; (8002a80 <stm32__device___elabs+0x228>)
 8002886:	681b      	ldr	r3, [r3, #0]
 8002888:	4a81      	ldr	r2, [pc, #516]	; (8002a90 <stm32__device___elabs+0x238>)
 800288a:	6053      	str	r3, [r2, #4]
 800288c:	4b80      	ldr	r3, [pc, #512]	; (8002a90 <stm32__device___elabs+0x238>)
 800288e:	2204      	movs	r2, #4
 8002890:	811a      	strh	r2, [r3, #8]
 8002892:	4b7f      	ldr	r3, [pc, #508]	; (8002a90 <stm32__device___elabs+0x238>)
 8002894:	4a7c      	ldr	r2, [pc, #496]	; (8002a88 <stm32__device___elabs+0x230>)
 8002896:	601a      	str	r2, [r3, #0]
 8002898:	4b79      	ldr	r3, [pc, #484]	; (8002a80 <stm32__device___elabs+0x228>)
 800289a:	681b      	ldr	r3, [r3, #0]
 800289c:	4a7d      	ldr	r2, [pc, #500]	; (8002a94 <stm32__device___elabs+0x23c>)
 800289e:	6053      	str	r3, [r2, #4]
 80028a0:	4b7c      	ldr	r3, [pc, #496]	; (8002a94 <stm32__device___elabs+0x23c>)
 80028a2:	2208      	movs	r2, #8
 80028a4:	811a      	strh	r2, [r3, #8]
 80028a6:	4b7b      	ldr	r3, [pc, #492]	; (8002a94 <stm32__device___elabs+0x23c>)
 80028a8:	4a77      	ldr	r2, [pc, #476]	; (8002a88 <stm32__device___elabs+0x230>)
 80028aa:	601a      	str	r2, [r3, #0]
 80028ac:	4b74      	ldr	r3, [pc, #464]	; (8002a80 <stm32__device___elabs+0x228>)
 80028ae:	681b      	ldr	r3, [r3, #0]
 80028b0:	4a79      	ldr	r2, [pc, #484]	; (8002a98 <stm32__device___elabs+0x240>)
 80028b2:	6053      	str	r3, [r2, #4]
 80028b4:	4b78      	ldr	r3, [pc, #480]	; (8002a98 <stm32__device___elabs+0x240>)
 80028b6:	2210      	movs	r2, #16
 80028b8:	811a      	strh	r2, [r3, #8]
 80028ba:	4b77      	ldr	r3, [pc, #476]	; (8002a98 <stm32__device___elabs+0x240>)
 80028bc:	4a72      	ldr	r2, [pc, #456]	; (8002a88 <stm32__device___elabs+0x230>)
 80028be:	601a      	str	r2, [r3, #0]
 80028c0:	4b6f      	ldr	r3, [pc, #444]	; (8002a80 <stm32__device___elabs+0x228>)
 80028c2:	681b      	ldr	r3, [r3, #0]
 80028c4:	4a75      	ldr	r2, [pc, #468]	; (8002a9c <stm32__device___elabs+0x244>)
 80028c6:	6053      	str	r3, [r2, #4]
 80028c8:	4b74      	ldr	r3, [pc, #464]	; (8002a9c <stm32__device___elabs+0x244>)
 80028ca:	2220      	movs	r2, #32
 80028cc:	811a      	strh	r2, [r3, #8]
 80028ce:	4b73      	ldr	r3, [pc, #460]	; (8002a9c <stm32__device___elabs+0x244>)
 80028d0:	4a6d      	ldr	r2, [pc, #436]	; (8002a88 <stm32__device___elabs+0x230>)
 80028d2:	601a      	str	r2, [r3, #0]
 80028d4:	4b6a      	ldr	r3, [pc, #424]	; (8002a80 <stm32__device___elabs+0x228>)
 80028d6:	681b      	ldr	r3, [r3, #0]
 80028d8:	4a71      	ldr	r2, [pc, #452]	; (8002aa0 <stm32__device___elabs+0x248>)
 80028da:	6053      	str	r3, [r2, #4]
 80028dc:	4b70      	ldr	r3, [pc, #448]	; (8002aa0 <stm32__device___elabs+0x248>)
 80028de:	2240      	movs	r2, #64	; 0x40
 80028e0:	811a      	strh	r2, [r3, #8]
 80028e2:	4b6f      	ldr	r3, [pc, #444]	; (8002aa0 <stm32__device___elabs+0x248>)
 80028e4:	4a68      	ldr	r2, [pc, #416]	; (8002a88 <stm32__device___elabs+0x230>)
 80028e6:	601a      	str	r2, [r3, #0]
 80028e8:	4b65      	ldr	r3, [pc, #404]	; (8002a80 <stm32__device___elabs+0x228>)
 80028ea:	681b      	ldr	r3, [r3, #0]
 80028ec:	4a6d      	ldr	r2, [pc, #436]	; (8002aa4 <stm32__device___elabs+0x24c>)
 80028ee:	6053      	str	r3, [r2, #4]
 80028f0:	4b6c      	ldr	r3, [pc, #432]	; (8002aa4 <stm32__device___elabs+0x24c>)
 80028f2:	2280      	movs	r2, #128	; 0x80
 80028f4:	811a      	strh	r2, [r3, #8]
 80028f6:	4b6b      	ldr	r3, [pc, #428]	; (8002aa4 <stm32__device___elabs+0x24c>)
 80028f8:	4a63      	ldr	r2, [pc, #396]	; (8002a88 <stm32__device___elabs+0x230>)
 80028fa:	601a      	str	r2, [r3, #0]
 80028fc:	4b60      	ldr	r3, [pc, #384]	; (8002a80 <stm32__device___elabs+0x228>)
 80028fe:	681b      	ldr	r3, [r3, #0]
 8002900:	4a69      	ldr	r2, [pc, #420]	; (8002aa8 <stm32__device___elabs+0x250>)
 8002902:	6053      	str	r3, [r2, #4]
 8002904:	4b68      	ldr	r3, [pc, #416]	; (8002aa8 <stm32__device___elabs+0x250>)
 8002906:	f44f 7280 	mov.w	r2, #256	; 0x100
 800290a:	811a      	strh	r2, [r3, #8]
 800290c:	4b66      	ldr	r3, [pc, #408]	; (8002aa8 <stm32__device___elabs+0x250>)
 800290e:	4a5e      	ldr	r2, [pc, #376]	; (8002a88 <stm32__device___elabs+0x230>)
 8002910:	601a      	str	r2, [r3, #0]
 8002912:	4b5b      	ldr	r3, [pc, #364]	; (8002a80 <stm32__device___elabs+0x228>)
 8002914:	681b      	ldr	r3, [r3, #0]
 8002916:	4a65      	ldr	r2, [pc, #404]	; (8002aac <stm32__device___elabs+0x254>)
 8002918:	6053      	str	r3, [r2, #4]
 800291a:	4b64      	ldr	r3, [pc, #400]	; (8002aac <stm32__device___elabs+0x254>)
 800291c:	f44f 7200 	mov.w	r2, #512	; 0x200
 8002920:	811a      	strh	r2, [r3, #8]
 8002922:	4b62      	ldr	r3, [pc, #392]	; (8002aac <stm32__device___elabs+0x254>)
 8002924:	4a58      	ldr	r2, [pc, #352]	; (8002a88 <stm32__device___elabs+0x230>)
 8002926:	601a      	str	r2, [r3, #0]
 8002928:	4b55      	ldr	r3, [pc, #340]	; (8002a80 <stm32__device___elabs+0x228>)
 800292a:	681b      	ldr	r3, [r3, #0]
 800292c:	4a60      	ldr	r2, [pc, #384]	; (8002ab0 <stm32__device___elabs+0x258>)
 800292e:	6053      	str	r3, [r2, #4]
 8002930:	4b5f      	ldr	r3, [pc, #380]	; (8002ab0 <stm32__device___elabs+0x258>)
 8002932:	f44f 6280 	mov.w	r2, #1024	; 0x400
 8002936:	811a      	strh	r2, [r3, #8]
 8002938:	4b5d      	ldr	r3, [pc, #372]	; (8002ab0 <stm32__device___elabs+0x258>)
 800293a:	4a53      	ldr	r2, [pc, #332]	; (8002a88 <stm32__device___elabs+0x230>)
 800293c:	601a      	str	r2, [r3, #0]
 800293e:	4b50      	ldr	r3, [pc, #320]	; (8002a80 <stm32__device___elabs+0x228>)
 8002940:	681b      	ldr	r3, [r3, #0]
 8002942:	4a5c      	ldr	r2, [pc, #368]	; (8002ab4 <stm32__device___elabs+0x25c>)
 8002944:	6053      	str	r3, [r2, #4]
 8002946:	4b5b      	ldr	r3, [pc, #364]	; (8002ab4 <stm32__device___elabs+0x25c>)
 8002948:	f44f 6200 	mov.w	r2, #2048	; 0x800
 800294c:	811a      	strh	r2, [r3, #8]
 800294e:	4b59      	ldr	r3, [pc, #356]	; (8002ab4 <stm32__device___elabs+0x25c>)
 8002950:	4a4d      	ldr	r2, [pc, #308]	; (8002a88 <stm32__device___elabs+0x230>)
 8002952:	601a      	str	r2, [r3, #0]
 8002954:	4b4a      	ldr	r3, [pc, #296]	; (8002a80 <stm32__device___elabs+0x228>)
 8002956:	681b      	ldr	r3, [r3, #0]
 8002958:	4a57      	ldr	r2, [pc, #348]	; (8002ab8 <stm32__device___elabs+0x260>)
 800295a:	6053      	str	r3, [r2, #4]
 800295c:	4b56      	ldr	r3, [pc, #344]	; (8002ab8 <stm32__device___elabs+0x260>)
 800295e:	f44f 5280 	mov.w	r2, #4096	; 0x1000
 8002962:	811a      	strh	r2, [r3, #8]
 8002964:	4b54      	ldr	r3, [pc, #336]	; (8002ab8 <stm32__device___elabs+0x260>)
 8002966:	4a48      	ldr	r2, [pc, #288]	; (8002a88 <stm32__device___elabs+0x230>)
 8002968:	601a      	str	r2, [r3, #0]
 800296a:	4b45      	ldr	r3, [pc, #276]	; (8002a80 <stm32__device___elabs+0x228>)
 800296c:	681b      	ldr	r3, [r3, #0]
 800296e:	4a53      	ldr	r2, [pc, #332]	; (8002abc <stm32__device___elabs+0x264>)
 8002970:	6053      	str	r3, [r2, #4]
 8002972:	4b52      	ldr	r3, [pc, #328]	; (8002abc <stm32__device___elabs+0x264>)
 8002974:	f44f 5200 	mov.w	r2, #8192	; 0x2000
 8002978:	811a      	strh	r2, [r3, #8]
 800297a:	4b50      	ldr	r3, [pc, #320]	; (8002abc <stm32__device___elabs+0x264>)
 800297c:	4a42      	ldr	r2, [pc, #264]	; (8002a88 <stm32__device___elabs+0x230>)
 800297e:	601a      	str	r2, [r3, #0]
 8002980:	4b3f      	ldr	r3, [pc, #252]	; (8002a80 <stm32__device___elabs+0x228>)
 8002982:	681b      	ldr	r3, [r3, #0]
 8002984:	4a4e      	ldr	r2, [pc, #312]	; (8002ac0 <stm32__device___elabs+0x268>)
 8002986:	6053      	str	r3, [r2, #4]
 8002988:	4b4d      	ldr	r3, [pc, #308]	; (8002ac0 <stm32__device___elabs+0x268>)
 800298a:	f44f 4280 	mov.w	r2, #16384	; 0x4000
 800298e:	811a      	strh	r2, [r3, #8]
 8002990:	4b4b      	ldr	r3, [pc, #300]	; (8002ac0 <stm32__device___elabs+0x268>)
 8002992:	4a3d      	ldr	r2, [pc, #244]	; (8002a88 <stm32__device___elabs+0x230>)
 8002994:	601a      	str	r2, [r3, #0]
 8002996:	4b3a      	ldr	r3, [pc, #232]	; (8002a80 <stm32__device___elabs+0x228>)
 8002998:	681b      	ldr	r3, [r3, #0]
 800299a:	4a4a      	ldr	r2, [pc, #296]	; (8002ac4 <stm32__device___elabs+0x26c>)
 800299c:	6053      	str	r3, [r2, #4]
 800299e:	4b49      	ldr	r3, [pc, #292]	; (8002ac4 <stm32__device___elabs+0x26c>)
 80029a0:	f44f 4200 	mov.w	r2, #32768	; 0x8000
 80029a4:	811a      	strh	r2, [r3, #8]
 80029a6:	4b47      	ldr	r3, [pc, #284]	; (8002ac4 <stm32__device___elabs+0x26c>)
 80029a8:	4a37      	ldr	r2, [pc, #220]	; (8002a88 <stm32__device___elabs+0x230>)
 80029aa:	601a      	str	r2, [r3, #0]
 80029ac:	4b46      	ldr	r3, [pc, #280]	; (8002ac8 <stm32__device___elabs+0x270>)
 80029ae:	681b      	ldr	r3, [r3, #0]
 80029b0:	4a46      	ldr	r2, [pc, #280]	; (8002acc <stm32__device___elabs+0x274>)
 80029b2:	6053      	str	r3, [r2, #4]
 80029b4:	4b45      	ldr	r3, [pc, #276]	; (8002acc <stm32__device___elabs+0x274>)
 80029b6:	2201      	movs	r2, #1
 80029b8:	811a      	strh	r2, [r3, #8]
 80029ba:	4b44      	ldr	r3, [pc, #272]	; (8002acc <stm32__device___elabs+0x274>)
 80029bc:	4a32      	ldr	r2, [pc, #200]	; (8002a88 <stm32__device___elabs+0x230>)
 80029be:	601a      	str	r2, [r3, #0]
 80029c0:	4b41      	ldr	r3, [pc, #260]	; (8002ac8 <stm32__device___elabs+0x270>)
 80029c2:	681b      	ldr	r3, [r3, #0]
 80029c4:	4a42      	ldr	r2, [pc, #264]	; (8002ad0 <stm32__device___elabs+0x278>)
 80029c6:	6053      	str	r3, [r2, #4]
 80029c8:	4b41      	ldr	r3, [pc, #260]	; (8002ad0 <stm32__device___elabs+0x278>)
 80029ca:	2202      	movs	r2, #2
 80029cc:	811a      	strh	r2, [r3, #8]
 80029ce:	4b40      	ldr	r3, [pc, #256]	; (8002ad0 <stm32__device___elabs+0x278>)
 80029d0:	4a2d      	ldr	r2, [pc, #180]	; (8002a88 <stm32__device___elabs+0x230>)
 80029d2:	601a      	str	r2, [r3, #0]
 80029d4:	4b3c      	ldr	r3, [pc, #240]	; (8002ac8 <stm32__device___elabs+0x270>)
 80029d6:	681b      	ldr	r3, [r3, #0]
 80029d8:	4a3e      	ldr	r2, [pc, #248]	; (8002ad4 <stm32__device___elabs+0x27c>)
 80029da:	6053      	str	r3, [r2, #4]
 80029dc:	4b3d      	ldr	r3, [pc, #244]	; (8002ad4 <stm32__device___elabs+0x27c>)
 80029de:	2204      	movs	r2, #4
 80029e0:	811a      	strh	r2, [r3, #8]
 80029e2:	4b3c      	ldr	r3, [pc, #240]	; (8002ad4 <stm32__device___elabs+0x27c>)
 80029e4:	4a28      	ldr	r2, [pc, #160]	; (8002a88 <stm32__device___elabs+0x230>)
 80029e6:	601a      	str	r2, [r3, #0]
 80029e8:	4b37      	ldr	r3, [pc, #220]	; (8002ac8 <stm32__device___elabs+0x270>)
 80029ea:	681b      	ldr	r3, [r3, #0]
 80029ec:	4a3a      	ldr	r2, [pc, #232]	; (8002ad8 <stm32__device___elabs+0x280>)
 80029ee:	6053      	str	r3, [r2, #4]
 80029f0:	4b39      	ldr	r3, [pc, #228]	; (8002ad8 <stm32__device___elabs+0x280>)
 80029f2:	2208      	movs	r2, #8
 80029f4:	811a      	strh	r2, [r3, #8]
 80029f6:	4b38      	ldr	r3, [pc, #224]	; (8002ad8 <stm32__device___elabs+0x280>)
 80029f8:	4a23      	ldr	r2, [pc, #140]	; (8002a88 <stm32__device___elabs+0x230>)
 80029fa:	601a      	str	r2, [r3, #0]
 80029fc:	4b32      	ldr	r3, [pc, #200]	; (8002ac8 <stm32__device___elabs+0x270>)
 80029fe:	681b      	ldr	r3, [r3, #0]
 8002a00:	4a36      	ldr	r2, [pc, #216]	; (8002adc <stm32__device___elabs+0x284>)
 8002a02:	6053      	str	r3, [r2, #4]
 8002a04:	4b35      	ldr	r3, [pc, #212]	; (8002adc <stm32__device___elabs+0x284>)
 8002a06:	2210      	movs	r2, #16
 8002a08:	811a      	strh	r2, [r3, #8]
 8002a0a:	4b34      	ldr	r3, [pc, #208]	; (8002adc <stm32__device___elabs+0x284>)
 8002a0c:	4a1e      	ldr	r2, [pc, #120]	; (8002a88 <stm32__device___elabs+0x230>)
 8002a0e:	601a      	str	r2, [r3, #0]
 8002a10:	4b2d      	ldr	r3, [pc, #180]	; (8002ac8 <stm32__device___elabs+0x270>)
 8002a12:	681b      	ldr	r3, [r3, #0]
 8002a14:	4a32      	ldr	r2, [pc, #200]	; (8002ae0 <stm32__device___elabs+0x288>)
 8002a16:	6053      	str	r3, [r2, #4]
 8002a18:	4b31      	ldr	r3, [pc, #196]	; (8002ae0 <stm32__device___elabs+0x288>)
 8002a1a:	2220      	movs	r2, #32
 8002a1c:	811a      	strh	r2, [r3, #8]
 8002a1e:	4b30      	ldr	r3, [pc, #192]	; (8002ae0 <stm32__device___elabs+0x288>)
 8002a20:	4a19      	ldr	r2, [pc, #100]	; (8002a88 <stm32__device___elabs+0x230>)
 8002a22:	601a      	str	r2, [r3, #0]
 8002a24:	4b28      	ldr	r3, [pc, #160]	; (8002ac8 <stm32__device___elabs+0x270>)
 8002a26:	681b      	ldr	r3, [r3, #0]
 8002a28:	4a2e      	ldr	r2, [pc, #184]	; (8002ae4 <stm32__device___elabs+0x28c>)
 8002a2a:	6053      	str	r3, [r2, #4]
 8002a2c:	4b2d      	ldr	r3, [pc, #180]	; (8002ae4 <stm32__device___elabs+0x28c>)
 8002a2e:	2240      	movs	r2, #64	; 0x40
 8002a30:	811a      	strh	r2, [r3, #8]
 8002a32:	4b2c      	ldr	r3, [pc, #176]	; (8002ae4 <stm32__device___elabs+0x28c>)
 8002a34:	4a14      	ldr	r2, [pc, #80]	; (8002a88 <stm32__device___elabs+0x230>)
 8002a36:	601a      	str	r2, [r3, #0]
 8002a38:	4b23      	ldr	r3, [pc, #140]	; (8002ac8 <stm32__device___elabs+0x270>)
 8002a3a:	681b      	ldr	r3, [r3, #0]
 8002a3c:	4a2a      	ldr	r2, [pc, #168]	; (8002ae8 <stm32__device___elabs+0x290>)
 8002a3e:	6053      	str	r3, [r2, #4]
 8002a40:	4b29      	ldr	r3, [pc, #164]	; (8002ae8 <stm32__device___elabs+0x290>)
 8002a42:	2280      	movs	r2, #128	; 0x80
 8002a44:	811a      	strh	r2, [r3, #8]
 8002a46:	4b28      	ldr	r3, [pc, #160]	; (8002ae8 <stm32__device___elabs+0x290>)
 8002a48:	4a0f      	ldr	r2, [pc, #60]	; (8002a88 <stm32__device___elabs+0x230>)
 8002a4a:	601a      	str	r2, [r3, #0]
 8002a4c:	4b1e      	ldr	r3, [pc, #120]	; (8002ac8 <stm32__device___elabs+0x270>)
 8002a4e:	681b      	ldr	r3, [r3, #0]
 8002a50:	4a26      	ldr	r2, [pc, #152]	; (8002aec <stm32__device___elabs+0x294>)
 8002a52:	6053      	str	r3, [r2, #4]
 8002a54:	4b25      	ldr	r3, [pc, #148]	; (8002aec <stm32__device___elabs+0x294>)
 8002a56:	f44f 7280 	mov.w	r2, #256	; 0x100
 8002a5a:	811a      	strh	r2, [r3, #8]
 8002a5c:	4b23      	ldr	r3, [pc, #140]	; (8002aec <stm32__device___elabs+0x294>)
 8002a5e:	4a0a      	ldr	r2, [pc, #40]	; (8002a88 <stm32__device___elabs+0x230>)
 8002a60:	601a      	str	r2, [r3, #0]
 8002a62:	4b19      	ldr	r3, [pc, #100]	; (8002ac8 <stm32__device___elabs+0x270>)
 8002a64:	681b      	ldr	r3, [r3, #0]
 8002a66:	4a22      	ldr	r2, [pc, #136]	; (8002af0 <stm32__device___elabs+0x298>)
 8002a68:	6053      	str	r3, [r2, #4]
 8002a6a:	4b21      	ldr	r3, [pc, #132]	; (8002af0 <stm32__device___elabs+0x298>)
 8002a6c:	f44f 7200 	mov.w	r2, #512	; 0x200
 8002a70:	811a      	strh	r2, [r3, #8]
 8002a72:	4b1f      	ldr	r3, [pc, #124]	; (8002af0 <stm32__device___elabs+0x298>)
 8002a74:	4a04      	ldr	r2, [pc, #16]	; (8002a88 <stm32__device___elabs+0x230>)
 8002a76:	601a      	str	r2, [r3, #0]
 8002a78:	4b13      	ldr	r3, [pc, #76]	; (8002ac8 <stm32__device___elabs+0x270>)
 8002a7a:	681b      	ldr	r3, [r3, #0]
 8002a7c:	e03a      	b.n	8002af4 <stm32__device___elabs+0x29c>
 8002a7e:	bf00      	nop
 8002a80:	20000008 	.word	0x20000008
 8002a84:	200000d0 	.word	0x200000d0
 8002a88:	0800b924 	.word	0x0800b924
 8002a8c:	200000dc 	.word	0x200000dc
 8002a90:	200000e8 	.word	0x200000e8
 8002a94:	200000f4 	.word	0x200000f4
 8002a98:	20000100 	.word	0x20000100
 8002a9c:	2000010c 	.word	0x2000010c
 8002aa0:	20000118 	.word	0x20000118
 8002aa4:	20000124 	.word	0x20000124
 8002aa8:	20000130 	.word	0x20000130
 8002aac:	2000013c 	.word	0x2000013c
 8002ab0:	20000148 	.word	0x20000148
 8002ab4:	20000154 	.word	0x20000154
 8002ab8:	20000160 	.word	0x20000160
 8002abc:	2000016c 	.word	0x2000016c
 8002ac0:	20000178 	.word	0x20000178
 8002ac4:	20000184 	.word	0x20000184
 8002ac8:	2000000c 	.word	0x2000000c
 8002acc:	20000190 	.word	0x20000190
 8002ad0:	2000019c 	.word	0x2000019c
 8002ad4:	200001a8 	.word	0x200001a8
 8002ad8:	200001b4 	.word	0x200001b4
 8002adc:	200001c0 	.word	0x200001c0
 8002ae0:	200001cc 	.word	0x200001cc
 8002ae4:	200001d8 	.word	0x200001d8
 8002ae8:	200001e4 	.word	0x200001e4
 8002aec:	200001f0 	.word	0x200001f0
 8002af0:	200001fc 	.word	0x200001fc
 8002af4:	4a89      	ldr	r2, [pc, #548]	; (8002d1c <stm32__device___elabs+0x4c4>)
 8002af6:	6053      	str	r3, [r2, #4]
 8002af8:	4b88      	ldr	r3, [pc, #544]	; (8002d1c <stm32__device___elabs+0x4c4>)
 8002afa:	f44f 6280 	mov.w	r2, #1024	; 0x400
 8002afe:	811a      	strh	r2, [r3, #8]
 8002b00:	4b86      	ldr	r3, [pc, #536]	; (8002d1c <stm32__device___elabs+0x4c4>)
 8002b02:	4a87      	ldr	r2, [pc, #540]	; (8002d20 <stm32__device___elabs+0x4c8>)
 8002b04:	601a      	str	r2, [r3, #0]
 8002b06:	4b87      	ldr	r3, [pc, #540]	; (8002d24 <stm32__device___elabs+0x4cc>)
 8002b08:	681b      	ldr	r3, [r3, #0]
 8002b0a:	4a87      	ldr	r2, [pc, #540]	; (8002d28 <stm32__device___elabs+0x4d0>)
 8002b0c:	6053      	str	r3, [r2, #4]
 8002b0e:	4b86      	ldr	r3, [pc, #536]	; (8002d28 <stm32__device___elabs+0x4d0>)
 8002b10:	f44f 6200 	mov.w	r2, #2048	; 0x800
 8002b14:	811a      	strh	r2, [r3, #8]
 8002b16:	4b84      	ldr	r3, [pc, #528]	; (8002d28 <stm32__device___elabs+0x4d0>)
 8002b18:	4a81      	ldr	r2, [pc, #516]	; (8002d20 <stm32__device___elabs+0x4c8>)
 8002b1a:	601a      	str	r2, [r3, #0]
 8002b1c:	4b81      	ldr	r3, [pc, #516]	; (8002d24 <stm32__device___elabs+0x4cc>)
 8002b1e:	681b      	ldr	r3, [r3, #0]
 8002b20:	4a82      	ldr	r2, [pc, #520]	; (8002d2c <stm32__device___elabs+0x4d4>)
 8002b22:	6053      	str	r3, [r2, #4]
 8002b24:	4b81      	ldr	r3, [pc, #516]	; (8002d2c <stm32__device___elabs+0x4d4>)
 8002b26:	f44f 5280 	mov.w	r2, #4096	; 0x1000
 8002b2a:	811a      	strh	r2, [r3, #8]
 8002b2c:	4b7f      	ldr	r3, [pc, #508]	; (8002d2c <stm32__device___elabs+0x4d4>)
 8002b2e:	4a7c      	ldr	r2, [pc, #496]	; (8002d20 <stm32__device___elabs+0x4c8>)
 8002b30:	601a      	str	r2, [r3, #0]
 8002b32:	4b7c      	ldr	r3, [pc, #496]	; (8002d24 <stm32__device___elabs+0x4cc>)
 8002b34:	681b      	ldr	r3, [r3, #0]
 8002b36:	4a7e      	ldr	r2, [pc, #504]	; (8002d30 <stm32__device___elabs+0x4d8>)
 8002b38:	6053      	str	r3, [r2, #4]
 8002b3a:	4b7d      	ldr	r3, [pc, #500]	; (8002d30 <stm32__device___elabs+0x4d8>)
 8002b3c:	f44f 5200 	mov.w	r2, #8192	; 0x2000
 8002b40:	811a      	strh	r2, [r3, #8]
 8002b42:	4b7b      	ldr	r3, [pc, #492]	; (8002d30 <stm32__device___elabs+0x4d8>)
 8002b44:	4a76      	ldr	r2, [pc, #472]	; (8002d20 <stm32__device___elabs+0x4c8>)
 8002b46:	601a      	str	r2, [r3, #0]
 8002b48:	4b76      	ldr	r3, [pc, #472]	; (8002d24 <stm32__device___elabs+0x4cc>)
 8002b4a:	681b      	ldr	r3, [r3, #0]
 8002b4c:	4a79      	ldr	r2, [pc, #484]	; (8002d34 <stm32__device___elabs+0x4dc>)
 8002b4e:	6053      	str	r3, [r2, #4]
 8002b50:	4b78      	ldr	r3, [pc, #480]	; (8002d34 <stm32__device___elabs+0x4dc>)
 8002b52:	f44f 4280 	mov.w	r2, #16384	; 0x4000
 8002b56:	811a      	strh	r2, [r3, #8]
 8002b58:	4b76      	ldr	r3, [pc, #472]	; (8002d34 <stm32__device___elabs+0x4dc>)
 8002b5a:	4a71      	ldr	r2, [pc, #452]	; (8002d20 <stm32__device___elabs+0x4c8>)
 8002b5c:	601a      	str	r2, [r3, #0]
 8002b5e:	4b71      	ldr	r3, [pc, #452]	; (8002d24 <stm32__device___elabs+0x4cc>)
 8002b60:	681b      	ldr	r3, [r3, #0]
 8002b62:	4a75      	ldr	r2, [pc, #468]	; (8002d38 <stm32__device___elabs+0x4e0>)
 8002b64:	6053      	str	r3, [r2, #4]
 8002b66:	4b74      	ldr	r3, [pc, #464]	; (8002d38 <stm32__device___elabs+0x4e0>)
 8002b68:	f44f 4200 	mov.w	r2, #32768	; 0x8000
 8002b6c:	811a      	strh	r2, [r3, #8]
 8002b6e:	4b72      	ldr	r3, [pc, #456]	; (8002d38 <stm32__device___elabs+0x4e0>)
 8002b70:	4a6b      	ldr	r2, [pc, #428]	; (8002d20 <stm32__device___elabs+0x4c8>)
 8002b72:	601a      	str	r2, [r3, #0]
 8002b74:	4b71      	ldr	r3, [pc, #452]	; (8002d3c <stm32__device___elabs+0x4e4>)
 8002b76:	681b      	ldr	r3, [r3, #0]
 8002b78:	4a71      	ldr	r2, [pc, #452]	; (8002d40 <stm32__device___elabs+0x4e8>)
 8002b7a:	6053      	str	r3, [r2, #4]
 8002b7c:	4b70      	ldr	r3, [pc, #448]	; (8002d40 <stm32__device___elabs+0x4e8>)
 8002b7e:	2201      	movs	r2, #1
 8002b80:	811a      	strh	r2, [r3, #8]
 8002b82:	4b6f      	ldr	r3, [pc, #444]	; (8002d40 <stm32__device___elabs+0x4e8>)
 8002b84:	4a66      	ldr	r2, [pc, #408]	; (8002d20 <stm32__device___elabs+0x4c8>)
 8002b86:	601a      	str	r2, [r3, #0]
 8002b88:	4b6c      	ldr	r3, [pc, #432]	; (8002d3c <stm32__device___elabs+0x4e4>)
 8002b8a:	681b      	ldr	r3, [r3, #0]
 8002b8c:	4a6d      	ldr	r2, [pc, #436]	; (8002d44 <stm32__device___elabs+0x4ec>)
 8002b8e:	6053      	str	r3, [r2, #4]
 8002b90:	4b6c      	ldr	r3, [pc, #432]	; (8002d44 <stm32__device___elabs+0x4ec>)
 8002b92:	2202      	movs	r2, #2
 8002b94:	811a      	strh	r2, [r3, #8]
 8002b96:	4b6b      	ldr	r3, [pc, #428]	; (8002d44 <stm32__device___elabs+0x4ec>)
 8002b98:	4a61      	ldr	r2, [pc, #388]	; (8002d20 <stm32__device___elabs+0x4c8>)
 8002b9a:	601a      	str	r2, [r3, #0]
 8002b9c:	4b67      	ldr	r3, [pc, #412]	; (8002d3c <stm32__device___elabs+0x4e4>)
 8002b9e:	681b      	ldr	r3, [r3, #0]
 8002ba0:	4a69      	ldr	r2, [pc, #420]	; (8002d48 <stm32__device___elabs+0x4f0>)
 8002ba2:	6053      	str	r3, [r2, #4]
 8002ba4:	4b68      	ldr	r3, [pc, #416]	; (8002d48 <stm32__device___elabs+0x4f0>)
 8002ba6:	2204      	movs	r2, #4
 8002ba8:	811a      	strh	r2, [r3, #8]
 8002baa:	4b67      	ldr	r3, [pc, #412]	; (8002d48 <stm32__device___elabs+0x4f0>)
 8002bac:	4a5c      	ldr	r2, [pc, #368]	; (8002d20 <stm32__device___elabs+0x4c8>)
 8002bae:	601a      	str	r2, [r3, #0]
 8002bb0:	4b62      	ldr	r3, [pc, #392]	; (8002d3c <stm32__device___elabs+0x4e4>)
 8002bb2:	681b      	ldr	r3, [r3, #0]
 8002bb4:	4a65      	ldr	r2, [pc, #404]	; (8002d4c <stm32__device___elabs+0x4f4>)
 8002bb6:	6053      	str	r3, [r2, #4]
 8002bb8:	4b64      	ldr	r3, [pc, #400]	; (8002d4c <stm32__device___elabs+0x4f4>)
 8002bba:	2208      	movs	r2, #8
 8002bbc:	811a      	strh	r2, [r3, #8]
 8002bbe:	4b63      	ldr	r3, [pc, #396]	; (8002d4c <stm32__device___elabs+0x4f4>)
 8002bc0:	4a57      	ldr	r2, [pc, #348]	; (8002d20 <stm32__device___elabs+0x4c8>)
 8002bc2:	601a      	str	r2, [r3, #0]
 8002bc4:	4b5d      	ldr	r3, [pc, #372]	; (8002d3c <stm32__device___elabs+0x4e4>)
 8002bc6:	681b      	ldr	r3, [r3, #0]
 8002bc8:	4a61      	ldr	r2, [pc, #388]	; (8002d50 <stm32__device___elabs+0x4f8>)
 8002bca:	6053      	str	r3, [r2, #4]
 8002bcc:	4b60      	ldr	r3, [pc, #384]	; (8002d50 <stm32__device___elabs+0x4f8>)
 8002bce:	2210      	movs	r2, #16
 8002bd0:	811a      	strh	r2, [r3, #8]
 8002bd2:	4b5f      	ldr	r3, [pc, #380]	; (8002d50 <stm32__device___elabs+0x4f8>)
 8002bd4:	4a52      	ldr	r2, [pc, #328]	; (8002d20 <stm32__device___elabs+0x4c8>)
 8002bd6:	601a      	str	r2, [r3, #0]
 8002bd8:	4b58      	ldr	r3, [pc, #352]	; (8002d3c <stm32__device___elabs+0x4e4>)
 8002bda:	681b      	ldr	r3, [r3, #0]
 8002bdc:	4a5d      	ldr	r2, [pc, #372]	; (8002d54 <stm32__device___elabs+0x4fc>)
 8002bde:	6053      	str	r3, [r2, #4]
 8002be0:	4b5c      	ldr	r3, [pc, #368]	; (8002d54 <stm32__device___elabs+0x4fc>)
 8002be2:	2220      	movs	r2, #32
 8002be4:	811a      	strh	r2, [r3, #8]
 8002be6:	4b5b      	ldr	r3, [pc, #364]	; (8002d54 <stm32__device___elabs+0x4fc>)
 8002be8:	4a4d      	ldr	r2, [pc, #308]	; (8002d20 <stm32__device___elabs+0x4c8>)
 8002bea:	601a      	str	r2, [r3, #0]
 8002bec:	4b53      	ldr	r3, [pc, #332]	; (8002d3c <stm32__device___elabs+0x4e4>)
 8002bee:	681b      	ldr	r3, [r3, #0]
 8002bf0:	4a59      	ldr	r2, [pc, #356]	; (8002d58 <stm32__device___elabs+0x500>)
 8002bf2:	6053      	str	r3, [r2, #4]
 8002bf4:	4b58      	ldr	r3, [pc, #352]	; (8002d58 <stm32__device___elabs+0x500>)
 8002bf6:	2240      	movs	r2, #64	; 0x40
 8002bf8:	811a      	strh	r2, [r3, #8]
 8002bfa:	4b57      	ldr	r3, [pc, #348]	; (8002d58 <stm32__device___elabs+0x500>)
 8002bfc:	4a48      	ldr	r2, [pc, #288]	; (8002d20 <stm32__device___elabs+0x4c8>)
 8002bfe:	601a      	str	r2, [r3, #0]
 8002c00:	4b4e      	ldr	r3, [pc, #312]	; (8002d3c <stm32__device___elabs+0x4e4>)
 8002c02:	681b      	ldr	r3, [r3, #0]
 8002c04:	4a55      	ldr	r2, [pc, #340]	; (8002d5c <stm32__device___elabs+0x504>)
 8002c06:	6053      	str	r3, [r2, #4]
 8002c08:	4b54      	ldr	r3, [pc, #336]	; (8002d5c <stm32__device___elabs+0x504>)
 8002c0a:	2280      	movs	r2, #128	; 0x80
 8002c0c:	811a      	strh	r2, [r3, #8]
 8002c0e:	4b53      	ldr	r3, [pc, #332]	; (8002d5c <stm32__device___elabs+0x504>)
 8002c10:	4a43      	ldr	r2, [pc, #268]	; (8002d20 <stm32__device___elabs+0x4c8>)
 8002c12:	601a      	str	r2, [r3, #0]
 8002c14:	4b49      	ldr	r3, [pc, #292]	; (8002d3c <stm32__device___elabs+0x4e4>)
 8002c16:	681b      	ldr	r3, [r3, #0]
 8002c18:	4a51      	ldr	r2, [pc, #324]	; (8002d60 <stm32__device___elabs+0x508>)
 8002c1a:	6053      	str	r3, [r2, #4]
 8002c1c:	4b50      	ldr	r3, [pc, #320]	; (8002d60 <stm32__device___elabs+0x508>)
 8002c1e:	f44f 7280 	mov.w	r2, #256	; 0x100
 8002c22:	811a      	strh	r2, [r3, #8]
 8002c24:	4b4e      	ldr	r3, [pc, #312]	; (8002d60 <stm32__device___elabs+0x508>)
 8002c26:	4a3e      	ldr	r2, [pc, #248]	; (8002d20 <stm32__device___elabs+0x4c8>)
 8002c28:	601a      	str	r2, [r3, #0]
 8002c2a:	4b44      	ldr	r3, [pc, #272]	; (8002d3c <stm32__device___elabs+0x4e4>)
 8002c2c:	681b      	ldr	r3, [r3, #0]
 8002c2e:	4a4d      	ldr	r2, [pc, #308]	; (8002d64 <stm32__device___elabs+0x50c>)
 8002c30:	6053      	str	r3, [r2, #4]
 8002c32:	4b4c      	ldr	r3, [pc, #304]	; (8002d64 <stm32__device___elabs+0x50c>)
 8002c34:	f44f 7200 	mov.w	r2, #512	; 0x200
 8002c38:	811a      	strh	r2, [r3, #8]
 8002c3a:	4b4a      	ldr	r3, [pc, #296]	; (8002d64 <stm32__device___elabs+0x50c>)
 8002c3c:	4a38      	ldr	r2, [pc, #224]	; (8002d20 <stm32__device___elabs+0x4c8>)
 8002c3e:	601a      	str	r2, [r3, #0]
 8002c40:	4b3e      	ldr	r3, [pc, #248]	; (8002d3c <stm32__device___elabs+0x4e4>)
 8002c42:	681b      	ldr	r3, [r3, #0]
 8002c44:	4a48      	ldr	r2, [pc, #288]	; (8002d68 <stm32__device___elabs+0x510>)
 8002c46:	6053      	str	r3, [r2, #4]
 8002c48:	4b47      	ldr	r3, [pc, #284]	; (8002d68 <stm32__device___elabs+0x510>)
 8002c4a:	f44f 6280 	mov.w	r2, #1024	; 0x400
 8002c4e:	811a      	strh	r2, [r3, #8]
 8002c50:	4b45      	ldr	r3, [pc, #276]	; (8002d68 <stm32__device___elabs+0x510>)
 8002c52:	4a33      	ldr	r2, [pc, #204]	; (8002d20 <stm32__device___elabs+0x4c8>)
 8002c54:	601a      	str	r2, [r3, #0]
 8002c56:	4b39      	ldr	r3, [pc, #228]	; (8002d3c <stm32__device___elabs+0x4e4>)
 8002c58:	681b      	ldr	r3, [r3, #0]
 8002c5a:	4a44      	ldr	r2, [pc, #272]	; (8002d6c <stm32__device___elabs+0x514>)
 8002c5c:	6053      	str	r3, [r2, #4]
 8002c5e:	4b43      	ldr	r3, [pc, #268]	; (8002d6c <stm32__device___elabs+0x514>)
 8002c60:	f44f 6200 	mov.w	r2, #2048	; 0x800
 8002c64:	811a      	strh	r2, [r3, #8]
 8002c66:	4b41      	ldr	r3, [pc, #260]	; (8002d6c <stm32__device___elabs+0x514>)
 8002c68:	4a2d      	ldr	r2, [pc, #180]	; (8002d20 <stm32__device___elabs+0x4c8>)
 8002c6a:	601a      	str	r2, [r3, #0]
 8002c6c:	4b33      	ldr	r3, [pc, #204]	; (8002d3c <stm32__device___elabs+0x4e4>)
 8002c6e:	681b      	ldr	r3, [r3, #0]
 8002c70:	4a3f      	ldr	r2, [pc, #252]	; (8002d70 <stm32__device___elabs+0x518>)
 8002c72:	6053      	str	r3, [r2, #4]
 8002c74:	4b3e      	ldr	r3, [pc, #248]	; (8002d70 <stm32__device___elabs+0x518>)
 8002c76:	f44f 5280 	mov.w	r2, #4096	; 0x1000
 8002c7a:	811a      	strh	r2, [r3, #8]
 8002c7c:	4b3c      	ldr	r3, [pc, #240]	; (8002d70 <stm32__device___elabs+0x518>)
 8002c7e:	4a28      	ldr	r2, [pc, #160]	; (8002d20 <stm32__device___elabs+0x4c8>)
 8002c80:	601a      	str	r2, [r3, #0]
 8002c82:	4b2e      	ldr	r3, [pc, #184]	; (8002d3c <stm32__device___elabs+0x4e4>)
 8002c84:	681b      	ldr	r3, [r3, #0]
 8002c86:	4a3b      	ldr	r2, [pc, #236]	; (8002d74 <stm32__device___elabs+0x51c>)
 8002c88:	6053      	str	r3, [r2, #4]
 8002c8a:	4b3a      	ldr	r3, [pc, #232]	; (8002d74 <stm32__device___elabs+0x51c>)
 8002c8c:	f44f 5200 	mov.w	r2, #8192	; 0x2000
 8002c90:	811a      	strh	r2, [r3, #8]
 8002c92:	4b38      	ldr	r3, [pc, #224]	; (8002d74 <stm32__device___elabs+0x51c>)
 8002c94:	4a22      	ldr	r2, [pc, #136]	; (8002d20 <stm32__device___elabs+0x4c8>)
 8002c96:	601a      	str	r2, [r3, #0]
 8002c98:	4b28      	ldr	r3, [pc, #160]	; (8002d3c <stm32__device___elabs+0x4e4>)
 8002c9a:	681b      	ldr	r3, [r3, #0]
 8002c9c:	4a36      	ldr	r2, [pc, #216]	; (8002d78 <stm32__device___elabs+0x520>)
 8002c9e:	6053      	str	r3, [r2, #4]
 8002ca0:	4b35      	ldr	r3, [pc, #212]	; (8002d78 <stm32__device___elabs+0x520>)
 8002ca2:	f44f 4280 	mov.w	r2, #16384	; 0x4000
 8002ca6:	811a      	strh	r2, [r3, #8]
 8002ca8:	4b33      	ldr	r3, [pc, #204]	; (8002d78 <stm32__device___elabs+0x520>)
 8002caa:	4a1d      	ldr	r2, [pc, #116]	; (8002d20 <stm32__device___elabs+0x4c8>)
 8002cac:	601a      	str	r2, [r3, #0]
 8002cae:	4b23      	ldr	r3, [pc, #140]	; (8002d3c <stm32__device___elabs+0x4e4>)
 8002cb0:	681b      	ldr	r3, [r3, #0]
 8002cb2:	4a32      	ldr	r2, [pc, #200]	; (8002d7c <stm32__device___elabs+0x524>)
 8002cb4:	6053      	str	r3, [r2, #4]
 8002cb6:	4b31      	ldr	r3, [pc, #196]	; (8002d7c <stm32__device___elabs+0x524>)
 8002cb8:	f44f 4200 	mov.w	r2, #32768	; 0x8000
 8002cbc:	811a      	strh	r2, [r3, #8]
 8002cbe:	4b2f      	ldr	r3, [pc, #188]	; (8002d7c <stm32__device___elabs+0x524>)
 8002cc0:	4a17      	ldr	r2, [pc, #92]	; (8002d20 <stm32__device___elabs+0x4c8>)
 8002cc2:	601a      	str	r2, [r3, #0]
 8002cc4:	4b2e      	ldr	r3, [pc, #184]	; (8002d80 <stm32__device___elabs+0x528>)
 8002cc6:	681b      	ldr	r3, [r3, #0]
 8002cc8:	4a2e      	ldr	r2, [pc, #184]	; (8002d84 <stm32__device___elabs+0x52c>)
 8002cca:	6053      	str	r3, [r2, #4]
 8002ccc:	4b2d      	ldr	r3, [pc, #180]	; (8002d84 <stm32__device___elabs+0x52c>)
 8002cce:	2201      	movs	r2, #1
 8002cd0:	811a      	strh	r2, [r3, #8]
 8002cd2:	4b2c      	ldr	r3, [pc, #176]	; (8002d84 <stm32__device___elabs+0x52c>)
 8002cd4:	4a12      	ldr	r2, [pc, #72]	; (8002d20 <stm32__device___elabs+0x4c8>)
 8002cd6:	601a      	str	r2, [r3, #0]
 8002cd8:	4b29      	ldr	r3, [pc, #164]	; (8002d80 <stm32__device___elabs+0x528>)
 8002cda:	681b      	ldr	r3, [r3, #0]
 8002cdc:	4a2a      	ldr	r2, [pc, #168]	; (8002d88 <stm32__device___elabs+0x530>)
 8002cde:	6053      	str	r3, [r2, #4]
 8002ce0:	4b29      	ldr	r3, [pc, #164]	; (8002d88 <stm32__device___elabs+0x530>)
 8002ce2:	2202      	movs	r2, #2
 8002ce4:	811a      	strh	r2, [r3, #8]
 8002ce6:	4b28      	ldr	r3, [pc, #160]	; (8002d88 <stm32__device___elabs+0x530>)
 8002ce8:	4a0d      	ldr	r2, [pc, #52]	; (8002d20 <stm32__device___elabs+0x4c8>)
 8002cea:	601a      	str	r2, [r3, #0]
 8002cec:	4b24      	ldr	r3, [pc, #144]	; (8002d80 <stm32__device___elabs+0x528>)
 8002cee:	681b      	ldr	r3, [r3, #0]
 8002cf0:	4a26      	ldr	r2, [pc, #152]	; (8002d8c <stm32__device___elabs+0x534>)
 8002cf2:	6053      	str	r3, [r2, #4]
 8002cf4:	4b25      	ldr	r3, [pc, #148]	; (8002d8c <stm32__device___elabs+0x534>)
 8002cf6:	2204      	movs	r2, #4
 8002cf8:	811a      	strh	r2, [r3, #8]
 8002cfa:	4b24      	ldr	r3, [pc, #144]	; (8002d8c <stm32__device___elabs+0x534>)
 8002cfc:	4a08      	ldr	r2, [pc, #32]	; (8002d20 <stm32__device___elabs+0x4c8>)
 8002cfe:	601a      	str	r2, [r3, #0]
 8002d00:	4b1f      	ldr	r3, [pc, #124]	; (8002d80 <stm32__device___elabs+0x528>)
 8002d02:	681b      	ldr	r3, [r3, #0]
 8002d04:	4a22      	ldr	r2, [pc, #136]	; (8002d90 <stm32__device___elabs+0x538>)
 8002d06:	6053      	str	r3, [r2, #4]
 8002d08:	4b21      	ldr	r3, [pc, #132]	; (8002d90 <stm32__device___elabs+0x538>)
 8002d0a:	2208      	movs	r2, #8
 8002d0c:	811a      	strh	r2, [r3, #8]
 8002d0e:	4b20      	ldr	r3, [pc, #128]	; (8002d90 <stm32__device___elabs+0x538>)
 8002d10:	4a03      	ldr	r2, [pc, #12]	; (8002d20 <stm32__device___elabs+0x4c8>)
 8002d12:	601a      	str	r2, [r3, #0]
 8002d14:	4b1a      	ldr	r3, [pc, #104]	; (8002d80 <stm32__device___elabs+0x528>)
 8002d16:	681b      	ldr	r3, [r3, #0]
 8002d18:	e03c      	b.n	8002d94 <stm32__device___elabs+0x53c>
 8002d1a:	bf00      	nop
 8002d1c:	20000208 	.word	0x20000208
 8002d20:	0800b924 	.word	0x0800b924
 8002d24:	2000000c 	.word	0x2000000c
 8002d28:	20000214 	.word	0x20000214
 8002d2c:	20000220 	.word	0x20000220
 8002d30:	2000022c 	.word	0x2000022c
 8002d34:	20000238 	.word	0x20000238
 8002d38:	20000244 	.word	0x20000244
 8002d3c:	20000010 	.word	0x20000010
 8002d40:	20000250 	.word	0x20000250
 8002d44:	2000025c 	.word	0x2000025c
 8002d48:	20000268 	.word	0x20000268
 8002d4c:	20000274 	.word	0x20000274
 8002d50:	20000280 	.word	0x20000280
 8002d54:	2000028c 	.word	0x2000028c
 8002d58:	20000298 	.word	0x20000298
 8002d5c:	200002a4 	.word	0x200002a4
 8002d60:	200002b0 	.word	0x200002b0
 8002d64:	200002bc 	.word	0x200002bc
 8002d68:	200002c8 	.word	0x200002c8
 8002d6c:	200002d4 	.word	0x200002d4
 8002d70:	200002e0 	.word	0x200002e0
 8002d74:	200002ec 	.word	0x200002ec
 8002d78:	200002f8 	.word	0x200002f8
 8002d7c:	20000304 	.word	0x20000304
 8002d80:	20000014 	.word	0x20000014
 8002d84:	20000310 	.word	0x20000310
 8002d88:	2000031c 	.word	0x2000031c
 8002d8c:	20000328 	.word	0x20000328
 8002d90:	20000334 	.word	0x20000334
 8002d94:	4a89      	ldr	r2, [pc, #548]	; (8002fbc <stm32__device___elabs+0x764>)
 8002d96:	6053      	str	r3, [r2, #4]
 8002d98:	4b88      	ldr	r3, [pc, #544]	; (8002fbc <stm32__device___elabs+0x764>)
 8002d9a:	2210      	movs	r2, #16
 8002d9c:	811a      	strh	r2, [r3, #8]
 8002d9e:	4b87      	ldr	r3, [pc, #540]	; (8002fbc <stm32__device___elabs+0x764>)
 8002da0:	4a87      	ldr	r2, [pc, #540]	; (8002fc0 <stm32__device___elabs+0x768>)
 8002da2:	601a      	str	r2, [r3, #0]
 8002da4:	4b87      	ldr	r3, [pc, #540]	; (8002fc4 <stm32__device___elabs+0x76c>)
 8002da6:	681b      	ldr	r3, [r3, #0]
 8002da8:	4a87      	ldr	r2, [pc, #540]	; (8002fc8 <stm32__device___elabs+0x770>)
 8002daa:	6053      	str	r3, [r2, #4]
 8002dac:	4b86      	ldr	r3, [pc, #536]	; (8002fc8 <stm32__device___elabs+0x770>)
 8002dae:	2220      	movs	r2, #32
 8002db0:	811a      	strh	r2, [r3, #8]
 8002db2:	4b85      	ldr	r3, [pc, #532]	; (8002fc8 <stm32__device___elabs+0x770>)
 8002db4:	4a82      	ldr	r2, [pc, #520]	; (8002fc0 <stm32__device___elabs+0x768>)
 8002db6:	601a      	str	r2, [r3, #0]
 8002db8:	4b82      	ldr	r3, [pc, #520]	; (8002fc4 <stm32__device___elabs+0x76c>)
 8002dba:	681b      	ldr	r3, [r3, #0]
 8002dbc:	4a83      	ldr	r2, [pc, #524]	; (8002fcc <stm32__device___elabs+0x774>)
 8002dbe:	6053      	str	r3, [r2, #4]
 8002dc0:	4b82      	ldr	r3, [pc, #520]	; (8002fcc <stm32__device___elabs+0x774>)
 8002dc2:	2240      	movs	r2, #64	; 0x40
 8002dc4:	811a      	strh	r2, [r3, #8]
 8002dc6:	4b81      	ldr	r3, [pc, #516]	; (8002fcc <stm32__device___elabs+0x774>)
 8002dc8:	4a7d      	ldr	r2, [pc, #500]	; (8002fc0 <stm32__device___elabs+0x768>)
 8002dca:	601a      	str	r2, [r3, #0]
 8002dcc:	4b7d      	ldr	r3, [pc, #500]	; (8002fc4 <stm32__device___elabs+0x76c>)
 8002dce:	681b      	ldr	r3, [r3, #0]
 8002dd0:	4a7f      	ldr	r2, [pc, #508]	; (8002fd0 <stm32__device___elabs+0x778>)
 8002dd2:	6053      	str	r3, [r2, #4]
 8002dd4:	4b7e      	ldr	r3, [pc, #504]	; (8002fd0 <stm32__device___elabs+0x778>)
 8002dd6:	2280      	movs	r2, #128	; 0x80
 8002dd8:	811a      	strh	r2, [r3, #8]
 8002dda:	4b7d      	ldr	r3, [pc, #500]	; (8002fd0 <stm32__device___elabs+0x778>)
 8002ddc:	4a78      	ldr	r2, [pc, #480]	; (8002fc0 <stm32__device___elabs+0x768>)
 8002dde:	601a      	str	r2, [r3, #0]
 8002de0:	4b78      	ldr	r3, [pc, #480]	; (8002fc4 <stm32__device___elabs+0x76c>)
 8002de2:	681b      	ldr	r3, [r3, #0]
 8002de4:	4a7b      	ldr	r2, [pc, #492]	; (8002fd4 <stm32__device___elabs+0x77c>)
 8002de6:	6053      	str	r3, [r2, #4]
 8002de8:	4b7a      	ldr	r3, [pc, #488]	; (8002fd4 <stm32__device___elabs+0x77c>)
 8002dea:	f44f 7280 	mov.w	r2, #256	; 0x100
 8002dee:	811a      	strh	r2, [r3, #8]
 8002df0:	4b78      	ldr	r3, [pc, #480]	; (8002fd4 <stm32__device___elabs+0x77c>)
 8002df2:	4a73      	ldr	r2, [pc, #460]	; (8002fc0 <stm32__device___elabs+0x768>)
 8002df4:	601a      	str	r2, [r3, #0]
 8002df6:	4b73      	ldr	r3, [pc, #460]	; (8002fc4 <stm32__device___elabs+0x76c>)
 8002df8:	681b      	ldr	r3, [r3, #0]
 8002dfa:	4a77      	ldr	r2, [pc, #476]	; (8002fd8 <stm32__device___elabs+0x780>)
 8002dfc:	6053      	str	r3, [r2, #4]
 8002dfe:	4b76      	ldr	r3, [pc, #472]	; (8002fd8 <stm32__device___elabs+0x780>)
 8002e00:	f44f 7200 	mov.w	r2, #512	; 0x200
 8002e04:	811a      	strh	r2, [r3, #8]
 8002e06:	4b74      	ldr	r3, [pc, #464]	; (8002fd8 <stm32__device___elabs+0x780>)
 8002e08:	4a6d      	ldr	r2, [pc, #436]	; (8002fc0 <stm32__device___elabs+0x768>)
 8002e0a:	601a      	str	r2, [r3, #0]
 8002e0c:	4b6d      	ldr	r3, [pc, #436]	; (8002fc4 <stm32__device___elabs+0x76c>)
 8002e0e:	681b      	ldr	r3, [r3, #0]
 8002e10:	4a72      	ldr	r2, [pc, #456]	; (8002fdc <stm32__device___elabs+0x784>)
 8002e12:	6053      	str	r3, [r2, #4]
 8002e14:	4b71      	ldr	r3, [pc, #452]	; (8002fdc <stm32__device___elabs+0x784>)
 8002e16:	f44f 6280 	mov.w	r2, #1024	; 0x400
 8002e1a:	811a      	strh	r2, [r3, #8]
 8002e1c:	4b6f      	ldr	r3, [pc, #444]	; (8002fdc <stm32__device___elabs+0x784>)
 8002e1e:	4a68      	ldr	r2, [pc, #416]	; (8002fc0 <stm32__device___elabs+0x768>)
 8002e20:	601a      	str	r2, [r3, #0]
 8002e22:	4b68      	ldr	r3, [pc, #416]	; (8002fc4 <stm32__device___elabs+0x76c>)
 8002e24:	681b      	ldr	r3, [r3, #0]
 8002e26:	4a6e      	ldr	r2, [pc, #440]	; (8002fe0 <stm32__device___elabs+0x788>)
 8002e28:	6053      	str	r3, [r2, #4]
 8002e2a:	4b6d      	ldr	r3, [pc, #436]	; (8002fe0 <stm32__device___elabs+0x788>)
 8002e2c:	f44f 6200 	mov.w	r2, #2048	; 0x800
 8002e30:	811a      	strh	r2, [r3, #8]
 8002e32:	4b6b      	ldr	r3, [pc, #428]	; (8002fe0 <stm32__device___elabs+0x788>)
 8002e34:	4a62      	ldr	r2, [pc, #392]	; (8002fc0 <stm32__device___elabs+0x768>)
 8002e36:	601a      	str	r2, [r3, #0]
 8002e38:	4b62      	ldr	r3, [pc, #392]	; (8002fc4 <stm32__device___elabs+0x76c>)
 8002e3a:	681b      	ldr	r3, [r3, #0]
 8002e3c:	4a69      	ldr	r2, [pc, #420]	; (8002fe4 <stm32__device___elabs+0x78c>)
 8002e3e:	6053      	str	r3, [r2, #4]
 8002e40:	4b68      	ldr	r3, [pc, #416]	; (8002fe4 <stm32__device___elabs+0x78c>)
 8002e42:	f44f 5280 	mov.w	r2, #4096	; 0x1000
 8002e46:	811a      	strh	r2, [r3, #8]
 8002e48:	4b66      	ldr	r3, [pc, #408]	; (8002fe4 <stm32__device___elabs+0x78c>)
 8002e4a:	4a5d      	ldr	r2, [pc, #372]	; (8002fc0 <stm32__device___elabs+0x768>)
 8002e4c:	601a      	str	r2, [r3, #0]
 8002e4e:	4b5d      	ldr	r3, [pc, #372]	; (8002fc4 <stm32__device___elabs+0x76c>)
 8002e50:	681b      	ldr	r3, [r3, #0]
 8002e52:	4a65      	ldr	r2, [pc, #404]	; (8002fe8 <stm32__device___elabs+0x790>)
 8002e54:	6053      	str	r3, [r2, #4]
 8002e56:	4b64      	ldr	r3, [pc, #400]	; (8002fe8 <stm32__device___elabs+0x790>)
 8002e58:	f44f 5200 	mov.w	r2, #8192	; 0x2000
 8002e5c:	811a      	strh	r2, [r3, #8]
 8002e5e:	4b62      	ldr	r3, [pc, #392]	; (8002fe8 <stm32__device___elabs+0x790>)
 8002e60:	4a57      	ldr	r2, [pc, #348]	; (8002fc0 <stm32__device___elabs+0x768>)
 8002e62:	601a      	str	r2, [r3, #0]
 8002e64:	4b57      	ldr	r3, [pc, #348]	; (8002fc4 <stm32__device___elabs+0x76c>)
 8002e66:	681b      	ldr	r3, [r3, #0]
 8002e68:	4a60      	ldr	r2, [pc, #384]	; (8002fec <stm32__device___elabs+0x794>)
 8002e6a:	6053      	str	r3, [r2, #4]
 8002e6c:	4b5f      	ldr	r3, [pc, #380]	; (8002fec <stm32__device___elabs+0x794>)
 8002e6e:	f44f 4280 	mov.w	r2, #16384	; 0x4000
 8002e72:	811a      	strh	r2, [r3, #8]
 8002e74:	4b5d      	ldr	r3, [pc, #372]	; (8002fec <stm32__device___elabs+0x794>)
 8002e76:	4a52      	ldr	r2, [pc, #328]	; (8002fc0 <stm32__device___elabs+0x768>)
 8002e78:	601a      	str	r2, [r3, #0]
 8002e7a:	4b52      	ldr	r3, [pc, #328]	; (8002fc4 <stm32__device___elabs+0x76c>)
 8002e7c:	681b      	ldr	r3, [r3, #0]
 8002e7e:	4a5c      	ldr	r2, [pc, #368]	; (8002ff0 <stm32__device___elabs+0x798>)
 8002e80:	6053      	str	r3, [r2, #4]
 8002e82:	4b5b      	ldr	r3, [pc, #364]	; (8002ff0 <stm32__device___elabs+0x798>)
 8002e84:	f44f 4200 	mov.w	r2, #32768	; 0x8000
 8002e88:	811a      	strh	r2, [r3, #8]
 8002e8a:	4b59      	ldr	r3, [pc, #356]	; (8002ff0 <stm32__device___elabs+0x798>)
 8002e8c:	4a4c      	ldr	r2, [pc, #304]	; (8002fc0 <stm32__device___elabs+0x768>)
 8002e8e:	601a      	str	r2, [r3, #0]
 8002e90:	4b58      	ldr	r3, [pc, #352]	; (8002ff4 <stm32__device___elabs+0x79c>)
 8002e92:	681b      	ldr	r3, [r3, #0]
 8002e94:	4a58      	ldr	r2, [pc, #352]	; (8002ff8 <stm32__device___elabs+0x7a0>)
 8002e96:	6053      	str	r3, [r2, #4]
 8002e98:	4b57      	ldr	r3, [pc, #348]	; (8002ff8 <stm32__device___elabs+0x7a0>)
 8002e9a:	2201      	movs	r2, #1
 8002e9c:	811a      	strh	r2, [r3, #8]
 8002e9e:	4b56      	ldr	r3, [pc, #344]	; (8002ff8 <stm32__device___elabs+0x7a0>)
 8002ea0:	4a47      	ldr	r2, [pc, #284]	; (8002fc0 <stm32__device___elabs+0x768>)
 8002ea2:	601a      	str	r2, [r3, #0]
 8002ea4:	4b53      	ldr	r3, [pc, #332]	; (8002ff4 <stm32__device___elabs+0x79c>)
 8002ea6:	681b      	ldr	r3, [r3, #0]
 8002ea8:	4a54      	ldr	r2, [pc, #336]	; (8002ffc <stm32__device___elabs+0x7a4>)
 8002eaa:	6053      	str	r3, [r2, #4]
 8002eac:	4b53      	ldr	r3, [pc, #332]	; (8002ffc <stm32__device___elabs+0x7a4>)
 8002eae:	2202      	movs	r2, #2
 8002eb0:	811a      	strh	r2, [r3, #8]
 8002eb2:	4b52      	ldr	r3, [pc, #328]	; (8002ffc <stm32__device___elabs+0x7a4>)
 8002eb4:	4a42      	ldr	r2, [pc, #264]	; (8002fc0 <stm32__device___elabs+0x768>)
 8002eb6:	601a      	str	r2, [r3, #0]
 8002eb8:	4b4e      	ldr	r3, [pc, #312]	; (8002ff4 <stm32__device___elabs+0x79c>)
 8002eba:	681b      	ldr	r3, [r3, #0]
 8002ebc:	4a50      	ldr	r2, [pc, #320]	; (8003000 <stm32__device___elabs+0x7a8>)
 8002ebe:	6053      	str	r3, [r2, #4]
 8002ec0:	4b4f      	ldr	r3, [pc, #316]	; (8003000 <stm32__device___elabs+0x7a8>)
 8002ec2:	2204      	movs	r2, #4
 8002ec4:	811a      	strh	r2, [r3, #8]
 8002ec6:	4b4e      	ldr	r3, [pc, #312]	; (8003000 <stm32__device___elabs+0x7a8>)
 8002ec8:	4a3d      	ldr	r2, [pc, #244]	; (8002fc0 <stm32__device___elabs+0x768>)
 8002eca:	601a      	str	r2, [r3, #0]
 8002ecc:	4b49      	ldr	r3, [pc, #292]	; (8002ff4 <stm32__device___elabs+0x79c>)
 8002ece:	681b      	ldr	r3, [r3, #0]
 8002ed0:	4a4c      	ldr	r2, [pc, #304]	; (8003004 <stm32__device___elabs+0x7ac>)
 8002ed2:	6053      	str	r3, [r2, #4]
 8002ed4:	4b4b      	ldr	r3, [pc, #300]	; (8003004 <stm32__device___elabs+0x7ac>)
 8002ed6:	2208      	movs	r2, #8
 8002ed8:	811a      	strh	r2, [r3, #8]
 8002eda:	4b4a      	ldr	r3, [pc, #296]	; (8003004 <stm32__device___elabs+0x7ac>)
 8002edc:	4a38      	ldr	r2, [pc, #224]	; (8002fc0 <stm32__device___elabs+0x768>)
 8002ede:	601a      	str	r2, [r3, #0]
 8002ee0:	4b44      	ldr	r3, [pc, #272]	; (8002ff4 <stm32__device___elabs+0x79c>)
 8002ee2:	681b      	ldr	r3, [r3, #0]
 8002ee4:	4a48      	ldr	r2, [pc, #288]	; (8003008 <stm32__device___elabs+0x7b0>)
 8002ee6:	6053      	str	r3, [r2, #4]
 8002ee8:	4b47      	ldr	r3, [pc, #284]	; (8003008 <stm32__device___elabs+0x7b0>)
 8002eea:	2210      	movs	r2, #16
 8002eec:	811a      	strh	r2, [r3, #8]
 8002eee:	4b46      	ldr	r3, [pc, #280]	; (8003008 <stm32__device___elabs+0x7b0>)
 8002ef0:	4a33      	ldr	r2, [pc, #204]	; (8002fc0 <stm32__device___elabs+0x768>)
 8002ef2:	601a      	str	r2, [r3, #0]
 8002ef4:	4b3f      	ldr	r3, [pc, #252]	; (8002ff4 <stm32__device___elabs+0x79c>)
 8002ef6:	681b      	ldr	r3, [r3, #0]
 8002ef8:	4a44      	ldr	r2, [pc, #272]	; (800300c <stm32__device___elabs+0x7b4>)
 8002efa:	6053      	str	r3, [r2, #4]
 8002efc:	4b43      	ldr	r3, [pc, #268]	; (800300c <stm32__device___elabs+0x7b4>)
 8002efe:	2220      	movs	r2, #32
 8002f00:	811a      	strh	r2, [r3, #8]
 8002f02:	4b42      	ldr	r3, [pc, #264]	; (800300c <stm32__device___elabs+0x7b4>)
 8002f04:	4a2e      	ldr	r2, [pc, #184]	; (8002fc0 <stm32__device___elabs+0x768>)
 8002f06:	601a      	str	r2, [r3, #0]
 8002f08:	4b3a      	ldr	r3, [pc, #232]	; (8002ff4 <stm32__device___elabs+0x79c>)
 8002f0a:	681b      	ldr	r3, [r3, #0]
 8002f0c:	4a40      	ldr	r2, [pc, #256]	; (8003010 <stm32__device___elabs+0x7b8>)
 8002f0e:	6053      	str	r3, [r2, #4]
 8002f10:	4b3f      	ldr	r3, [pc, #252]	; (8003010 <stm32__device___elabs+0x7b8>)
 8002f12:	2240      	movs	r2, #64	; 0x40
 8002f14:	811a      	strh	r2, [r3, #8]
 8002f16:	4b3e      	ldr	r3, [pc, #248]	; (8003010 <stm32__device___elabs+0x7b8>)
 8002f18:	4a29      	ldr	r2, [pc, #164]	; (8002fc0 <stm32__device___elabs+0x768>)
 8002f1a:	601a      	str	r2, [r3, #0]
 8002f1c:	4b35      	ldr	r3, [pc, #212]	; (8002ff4 <stm32__device___elabs+0x79c>)
 8002f1e:	681b      	ldr	r3, [r3, #0]
 8002f20:	4a3c      	ldr	r2, [pc, #240]	; (8003014 <stm32__device___elabs+0x7bc>)
 8002f22:	6053      	str	r3, [r2, #4]
 8002f24:	4b3b      	ldr	r3, [pc, #236]	; (8003014 <stm32__device___elabs+0x7bc>)
 8002f26:	2280      	movs	r2, #128	; 0x80
 8002f28:	811a      	strh	r2, [r3, #8]
 8002f2a:	4b3a      	ldr	r3, [pc, #232]	; (8003014 <stm32__device___elabs+0x7bc>)
 8002f2c:	4a24      	ldr	r2, [pc, #144]	; (8002fc0 <stm32__device___elabs+0x768>)
 8002f2e:	601a      	str	r2, [r3, #0]
 8002f30:	4b30      	ldr	r3, [pc, #192]	; (8002ff4 <stm32__device___elabs+0x79c>)
 8002f32:	681b      	ldr	r3, [r3, #0]
 8002f34:	4a38      	ldr	r2, [pc, #224]	; (8003018 <stm32__device___elabs+0x7c0>)
 8002f36:	6053      	str	r3, [r2, #4]
 8002f38:	4b37      	ldr	r3, [pc, #220]	; (8003018 <stm32__device___elabs+0x7c0>)
 8002f3a:	f44f 7280 	mov.w	r2, #256	; 0x100
 8002f3e:	811a      	strh	r2, [r3, #8]
 8002f40:	4b35      	ldr	r3, [pc, #212]	; (8003018 <stm32__device___elabs+0x7c0>)
 8002f42:	4a1f      	ldr	r2, [pc, #124]	; (8002fc0 <stm32__device___elabs+0x768>)
 8002f44:	601a      	str	r2, [r3, #0]
 8002f46:	4b2b      	ldr	r3, [pc, #172]	; (8002ff4 <stm32__device___elabs+0x79c>)
 8002f48:	681b      	ldr	r3, [r3, #0]
 8002f4a:	4a34      	ldr	r2, [pc, #208]	; (800301c <stm32__device___elabs+0x7c4>)
 8002f4c:	6053      	str	r3, [r2, #4]
 8002f4e:	4b33      	ldr	r3, [pc, #204]	; (800301c <stm32__device___elabs+0x7c4>)
 8002f50:	f44f 7200 	mov.w	r2, #512	; 0x200
 8002f54:	811a      	strh	r2, [r3, #8]
 8002f56:	4b31      	ldr	r3, [pc, #196]	; (800301c <stm32__device___elabs+0x7c4>)
 8002f58:	4a19      	ldr	r2, [pc, #100]	; (8002fc0 <stm32__device___elabs+0x768>)
 8002f5a:	601a      	str	r2, [r3, #0]
 8002f5c:	4b25      	ldr	r3, [pc, #148]	; (8002ff4 <stm32__device___elabs+0x79c>)
 8002f5e:	681b      	ldr	r3, [r3, #0]
 8002f60:	4a2f      	ldr	r2, [pc, #188]	; (8003020 <stm32__device___elabs+0x7c8>)
 8002f62:	6053      	str	r3, [r2, #4]
 8002f64:	4b2e      	ldr	r3, [pc, #184]	; (8003020 <stm32__device___elabs+0x7c8>)
 8002f66:	f44f 6280 	mov.w	r2, #1024	; 0x400
 8002f6a:	811a      	strh	r2, [r3, #8]
 8002f6c:	4b2c      	ldr	r3, [pc, #176]	; (8003020 <stm32__device___elabs+0x7c8>)
 8002f6e:	4a14      	ldr	r2, [pc, #80]	; (8002fc0 <stm32__device___elabs+0x768>)
 8002f70:	601a      	str	r2, [r3, #0]
 8002f72:	4b20      	ldr	r3, [pc, #128]	; (8002ff4 <stm32__device___elabs+0x79c>)
 8002f74:	681b      	ldr	r3, [r3, #0]
 8002f76:	4a2b      	ldr	r2, [pc, #172]	; (8003024 <stm32__device___elabs+0x7cc>)
 8002f78:	6053      	str	r3, [r2, #4]
 8002f7a:	4b2a      	ldr	r3, [pc, #168]	; (8003024 <stm32__device___elabs+0x7cc>)
 8002f7c:	f44f 6200 	mov.w	r2, #2048	; 0x800
 8002f80:	811a      	strh	r2, [r3, #8]
 8002f82:	4b28      	ldr	r3, [pc, #160]	; (8003024 <stm32__device___elabs+0x7cc>)
 8002f84:	4a0e      	ldr	r2, [pc, #56]	; (8002fc0 <stm32__device___elabs+0x768>)
 8002f86:	601a      	str	r2, [r3, #0]
 8002f88:	4b1a      	ldr	r3, [pc, #104]	; (8002ff4 <stm32__device___elabs+0x79c>)
 8002f8a:	681b      	ldr	r3, [r3, #0]
 8002f8c:	4a26      	ldr	r2, [pc, #152]	; (8003028 <stm32__device___elabs+0x7d0>)
 8002f8e:	6053      	str	r3, [r2, #4]
 8002f90:	4b25      	ldr	r3, [pc, #148]	; (8003028 <stm32__device___elabs+0x7d0>)
 8002f92:	f44f 5280 	mov.w	r2, #4096	; 0x1000
 8002f96:	811a      	strh	r2, [r3, #8]
 8002f98:	4b23      	ldr	r3, [pc, #140]	; (8003028 <stm32__device___elabs+0x7d0>)
 8002f9a:	4a09      	ldr	r2, [pc, #36]	; (8002fc0 <stm32__device___elabs+0x768>)
 8002f9c:	601a      	str	r2, [r3, #0]
 8002f9e:	4b15      	ldr	r3, [pc, #84]	; (8002ff4 <stm32__device___elabs+0x79c>)
 8002fa0:	681b      	ldr	r3, [r3, #0]
 8002fa2:	4a22      	ldr	r2, [pc, #136]	; (800302c <stm32__device___elabs+0x7d4>)
 8002fa4:	6053      	str	r3, [r2, #4]
 8002fa6:	4b21      	ldr	r3, [pc, #132]	; (800302c <stm32__device___elabs+0x7d4>)
 8002fa8:	f44f 5200 	mov.w	r2, #8192	; 0x2000
 8002fac:	811a      	strh	r2, [r3, #8]
 8002fae:	4b1f      	ldr	r3, [pc, #124]	; (800302c <stm32__device___elabs+0x7d4>)
 8002fb0:	4a03      	ldr	r2, [pc, #12]	; (8002fc0 <stm32__device___elabs+0x768>)
 8002fb2:	601a      	str	r2, [r3, #0]
 8002fb4:	4b0f      	ldr	r3, [pc, #60]	; (8002ff4 <stm32__device___elabs+0x79c>)
 8002fb6:	681b      	ldr	r3, [r3, #0]
 8002fb8:	e03a      	b.n	8003030 <stm32__device___elabs+0x7d8>
 8002fba:	bf00      	nop
 8002fbc:	20000340 	.word	0x20000340
 8002fc0:	0800b924 	.word	0x0800b924
 8002fc4:	20000014 	.word	0x20000014
 8002fc8:	2000034c 	.word	0x2000034c
 8002fcc:	20000358 	.word	0x20000358
 8002fd0:	20000364 	.word	0x20000364
 8002fd4:	20000370 	.word	0x20000370
 8002fd8:	2000037c 	.word	0x2000037c
 8002fdc:	20000388 	.word	0x20000388
 8002fe0:	20000394 	.word	0x20000394
 8002fe4:	200003a0 	.word	0x200003a0
 8002fe8:	200003ac 	.word	0x200003ac
 8002fec:	200003b8 	.word	0x200003b8
 8002ff0:	200003c4 	.word	0x200003c4
 8002ff4:	20000018 	.word	0x20000018
 8002ff8:	200003d0 	.word	0x200003d0
 8002ffc:	200003dc 	.word	0x200003dc
 8003000:	200003e8 	.word	0x200003e8
 8003004:	200003f4 	.word	0x200003f4
 8003008:	20000400 	.word	0x20000400
 800300c:	2000040c 	.word	0x2000040c
 8003010:	20000418 	.word	0x20000418
 8003014:	20000424 	.word	0x20000424
 8003018:	20000430 	.word	0x20000430
 800301c:	2000043c 	.word	0x2000043c
 8003020:	20000448 	.word	0x20000448
 8003024:	20000454 	.word	0x20000454
 8003028:	20000460 	.word	0x20000460
 800302c:	2000046c 	.word	0x2000046c
 8003030:	4a88      	ldr	r2, [pc, #544]	; (8003254 <stm32__device___elabs+0x9fc>)
 8003032:	6053      	str	r3, [r2, #4]
 8003034:	4b87      	ldr	r3, [pc, #540]	; (8003254 <stm32__device___elabs+0x9fc>)
 8003036:	f44f 4280 	mov.w	r2, #16384	; 0x4000
 800303a:	811a      	strh	r2, [r3, #8]
 800303c:	4b85      	ldr	r3, [pc, #532]	; (8003254 <stm32__device___elabs+0x9fc>)
 800303e:	4a86      	ldr	r2, [pc, #536]	; (8003258 <stm32__device___elabs+0xa00>)
 8003040:	601a      	str	r2, [r3, #0]
 8003042:	4b86      	ldr	r3, [pc, #536]	; (800325c <stm32__device___elabs+0xa04>)
 8003044:	681b      	ldr	r3, [r3, #0]
 8003046:	4a86      	ldr	r2, [pc, #536]	; (8003260 <stm32__device___elabs+0xa08>)
 8003048:	6053      	str	r3, [r2, #4]
 800304a:	4b85      	ldr	r3, [pc, #532]	; (8003260 <stm32__device___elabs+0xa08>)
 800304c:	f44f 4200 	mov.w	r2, #32768	; 0x8000
 8003050:	811a      	strh	r2, [r3, #8]
 8003052:	4b83      	ldr	r3, [pc, #524]	; (8003260 <stm32__device___elabs+0xa08>)
 8003054:	4a80      	ldr	r2, [pc, #512]	; (8003258 <stm32__device___elabs+0xa00>)
 8003056:	601a      	str	r2, [r3, #0]
 8003058:	4b82      	ldr	r3, [pc, #520]	; (8003264 <stm32__device___elabs+0xa0c>)
 800305a:	681b      	ldr	r3, [r3, #0]
 800305c:	4a82      	ldr	r2, [pc, #520]	; (8003268 <stm32__device___elabs+0xa10>)
 800305e:	6053      	str	r3, [r2, #4]
 8003060:	4b81      	ldr	r3, [pc, #516]	; (8003268 <stm32__device___elabs+0xa10>)
 8003062:	2201      	movs	r2, #1
 8003064:	811a      	strh	r2, [r3, #8]
 8003066:	4b80      	ldr	r3, [pc, #512]	; (8003268 <stm32__device___elabs+0xa10>)
 8003068:	4a7b      	ldr	r2, [pc, #492]	; (8003258 <stm32__device___elabs+0xa00>)
 800306a:	601a      	str	r2, [r3, #0]
 800306c:	4b7d      	ldr	r3, [pc, #500]	; (8003264 <stm32__device___elabs+0xa0c>)
 800306e:	681b      	ldr	r3, [r3, #0]
 8003070:	4a7e      	ldr	r2, [pc, #504]	; (800326c <stm32__device___elabs+0xa14>)
 8003072:	6053      	str	r3, [r2, #4]
 8003074:	4b7d      	ldr	r3, [pc, #500]	; (800326c <stm32__device___elabs+0xa14>)
 8003076:	2202      	movs	r2, #2
 8003078:	811a      	strh	r2, [r3, #8]
 800307a:	4b7c      	ldr	r3, [pc, #496]	; (800326c <stm32__device___elabs+0xa14>)
 800307c:	4a76      	ldr	r2, [pc, #472]	; (8003258 <stm32__device___elabs+0xa00>)
 800307e:	601a      	str	r2, [r3, #0]
 8003080:	4b78      	ldr	r3, [pc, #480]	; (8003264 <stm32__device___elabs+0xa0c>)
 8003082:	681b      	ldr	r3, [r3, #0]
 8003084:	4a7a      	ldr	r2, [pc, #488]	; (8003270 <stm32__device___elabs+0xa18>)
 8003086:	6053      	str	r3, [r2, #4]
 8003088:	4b79      	ldr	r3, [pc, #484]	; (8003270 <stm32__device___elabs+0xa18>)
 800308a:	2204      	movs	r2, #4
 800308c:	811a      	strh	r2, [r3, #8]
 800308e:	4b78      	ldr	r3, [pc, #480]	; (8003270 <stm32__device___elabs+0xa18>)
 8003090:	4a71      	ldr	r2, [pc, #452]	; (8003258 <stm32__device___elabs+0xa00>)
 8003092:	601a      	str	r2, [r3, #0]
 8003094:	4b73      	ldr	r3, [pc, #460]	; (8003264 <stm32__device___elabs+0xa0c>)
 8003096:	681b      	ldr	r3, [r3, #0]
 8003098:	4a76      	ldr	r2, [pc, #472]	; (8003274 <stm32__device___elabs+0xa1c>)
 800309a:	6053      	str	r3, [r2, #4]
 800309c:	4b75      	ldr	r3, [pc, #468]	; (8003274 <stm32__device___elabs+0xa1c>)
 800309e:	2208      	movs	r2, #8
 80030a0:	811a      	strh	r2, [r3, #8]
 80030a2:	4b74      	ldr	r3, [pc, #464]	; (8003274 <stm32__device___elabs+0xa1c>)
 80030a4:	4a6c      	ldr	r2, [pc, #432]	; (8003258 <stm32__device___elabs+0xa00>)
 80030a6:	601a      	str	r2, [r3, #0]
 80030a8:	4b6e      	ldr	r3, [pc, #440]	; (8003264 <stm32__device___elabs+0xa0c>)
 80030aa:	681b      	ldr	r3, [r3, #0]
 80030ac:	4a72      	ldr	r2, [pc, #456]	; (8003278 <stm32__device___elabs+0xa20>)
 80030ae:	6053      	str	r3, [r2, #4]
 80030b0:	4b71      	ldr	r3, [pc, #452]	; (8003278 <stm32__device___elabs+0xa20>)
 80030b2:	2210      	movs	r2, #16
 80030b4:	811a      	strh	r2, [r3, #8]
 80030b6:	4b70      	ldr	r3, [pc, #448]	; (8003278 <stm32__device___elabs+0xa20>)
 80030b8:	4a67      	ldr	r2, [pc, #412]	; (8003258 <stm32__device___elabs+0xa00>)
 80030ba:	601a      	str	r2, [r3, #0]
 80030bc:	4b69      	ldr	r3, [pc, #420]	; (8003264 <stm32__device___elabs+0xa0c>)
 80030be:	681b      	ldr	r3, [r3, #0]
 80030c0:	4a6e      	ldr	r2, [pc, #440]	; (800327c <stm32__device___elabs+0xa24>)
 80030c2:	6053      	str	r3, [r2, #4]
 80030c4:	4b6d      	ldr	r3, [pc, #436]	; (800327c <stm32__device___elabs+0xa24>)
 80030c6:	2220      	movs	r2, #32
 80030c8:	811a      	strh	r2, [r3, #8]
 80030ca:	4b6c      	ldr	r3, [pc, #432]	; (800327c <stm32__device___elabs+0xa24>)
 80030cc:	4a62      	ldr	r2, [pc, #392]	; (8003258 <stm32__device___elabs+0xa00>)
 80030ce:	601a      	str	r2, [r3, #0]
 80030d0:	4b64      	ldr	r3, [pc, #400]	; (8003264 <stm32__device___elabs+0xa0c>)
 80030d2:	681b      	ldr	r3, [r3, #0]
 80030d4:	4a6a      	ldr	r2, [pc, #424]	; (8003280 <stm32__device___elabs+0xa28>)
 80030d6:	6053      	str	r3, [r2, #4]
 80030d8:	4b69      	ldr	r3, [pc, #420]	; (8003280 <stm32__device___elabs+0xa28>)
 80030da:	2240      	movs	r2, #64	; 0x40
 80030dc:	811a      	strh	r2, [r3, #8]
 80030de:	4b68      	ldr	r3, [pc, #416]	; (8003280 <stm32__device___elabs+0xa28>)
 80030e0:	4a5d      	ldr	r2, [pc, #372]	; (8003258 <stm32__device___elabs+0xa00>)
 80030e2:	601a      	str	r2, [r3, #0]
 80030e4:	4b5f      	ldr	r3, [pc, #380]	; (8003264 <stm32__device___elabs+0xa0c>)
 80030e6:	681b      	ldr	r3, [r3, #0]
 80030e8:	4a66      	ldr	r2, [pc, #408]	; (8003284 <stm32__device___elabs+0xa2c>)
 80030ea:	6053      	str	r3, [r2, #4]
 80030ec:	4b65      	ldr	r3, [pc, #404]	; (8003284 <stm32__device___elabs+0xa2c>)
 80030ee:	2280      	movs	r2, #128	; 0x80
 80030f0:	811a      	strh	r2, [r3, #8]
 80030f2:	4b64      	ldr	r3, [pc, #400]	; (8003284 <stm32__device___elabs+0xa2c>)
 80030f4:	4a58      	ldr	r2, [pc, #352]	; (8003258 <stm32__device___elabs+0xa00>)
 80030f6:	601a      	str	r2, [r3, #0]
 80030f8:	4b5a      	ldr	r3, [pc, #360]	; (8003264 <stm32__device___elabs+0xa0c>)
 80030fa:	681b      	ldr	r3, [r3, #0]
 80030fc:	4a62      	ldr	r2, [pc, #392]	; (8003288 <stm32__device___elabs+0xa30>)
 80030fe:	6053      	str	r3, [r2, #4]
 8003100:	4b61      	ldr	r3, [pc, #388]	; (8003288 <stm32__device___elabs+0xa30>)
 8003102:	f44f 7280 	mov.w	r2, #256	; 0x100
 8003106:	811a      	strh	r2, [r3, #8]
 8003108:	4b5f      	ldr	r3, [pc, #380]	; (8003288 <stm32__device___elabs+0xa30>)
 800310a:	4a53      	ldr	r2, [pc, #332]	; (8003258 <stm32__device___elabs+0xa00>)
 800310c:	601a      	str	r2, [r3, #0]
 800310e:	4b55      	ldr	r3, [pc, #340]	; (8003264 <stm32__device___elabs+0xa0c>)
 8003110:	681b      	ldr	r3, [r3, #0]
 8003112:	4a5e      	ldr	r2, [pc, #376]	; (800328c <stm32__device___elabs+0xa34>)
 8003114:	6053      	str	r3, [r2, #4]
 8003116:	4b5d      	ldr	r3, [pc, #372]	; (800328c <stm32__device___elabs+0xa34>)
 8003118:	f44f 7200 	mov.w	r2, #512	; 0x200
 800311c:	811a      	strh	r2, [r3, #8]
 800311e:	4b5b      	ldr	r3, [pc, #364]	; (800328c <stm32__device___elabs+0xa34>)
 8003120:	4a4d      	ldr	r2, [pc, #308]	; (8003258 <stm32__device___elabs+0xa00>)
 8003122:	601a      	str	r2, [r3, #0]
 8003124:	4b4f      	ldr	r3, [pc, #316]	; (8003264 <stm32__device___elabs+0xa0c>)
 8003126:	681b      	ldr	r3, [r3, #0]
 8003128:	4a59      	ldr	r2, [pc, #356]	; (8003290 <stm32__device___elabs+0xa38>)
 800312a:	6053      	str	r3, [r2, #4]
 800312c:	4b58      	ldr	r3, [pc, #352]	; (8003290 <stm32__device___elabs+0xa38>)
 800312e:	f44f 6280 	mov.w	r2, #1024	; 0x400
 8003132:	811a      	strh	r2, [r3, #8]
 8003134:	4b56      	ldr	r3, [pc, #344]	; (8003290 <stm32__device___elabs+0xa38>)
 8003136:	4a48      	ldr	r2, [pc, #288]	; (8003258 <stm32__device___elabs+0xa00>)
 8003138:	601a      	str	r2, [r3, #0]
 800313a:	4b4a      	ldr	r3, [pc, #296]	; (8003264 <stm32__device___elabs+0xa0c>)
 800313c:	681b      	ldr	r3, [r3, #0]
 800313e:	4a55      	ldr	r2, [pc, #340]	; (8003294 <stm32__device___elabs+0xa3c>)
 8003140:	6053      	str	r3, [r2, #4]
 8003142:	4b54      	ldr	r3, [pc, #336]	; (8003294 <stm32__device___elabs+0xa3c>)
 8003144:	f44f 6200 	mov.w	r2, #2048	; 0x800
 8003148:	811a      	strh	r2, [r3, #8]
 800314a:	4b52      	ldr	r3, [pc, #328]	; (8003294 <stm32__device___elabs+0xa3c>)
 800314c:	4a42      	ldr	r2, [pc, #264]	; (8003258 <stm32__device___elabs+0xa00>)
 800314e:	601a      	str	r2, [r3, #0]
 8003150:	4b44      	ldr	r3, [pc, #272]	; (8003264 <stm32__device___elabs+0xa0c>)
 8003152:	681b      	ldr	r3, [r3, #0]
 8003154:	4a50      	ldr	r2, [pc, #320]	; (8003298 <stm32__device___elabs+0xa40>)
 8003156:	6053      	str	r3, [r2, #4]
 8003158:	4b4f      	ldr	r3, [pc, #316]	; (8003298 <stm32__device___elabs+0xa40>)
 800315a:	f44f 5280 	mov.w	r2, #4096	; 0x1000
 800315e:	811a      	strh	r2, [r3, #8]
 8003160:	4b4d      	ldr	r3, [pc, #308]	; (8003298 <stm32__device___elabs+0xa40>)
 8003162:	4a3d      	ldr	r2, [pc, #244]	; (8003258 <stm32__device___elabs+0xa00>)
 8003164:	601a      	str	r2, [r3, #0]
 8003166:	4b3f      	ldr	r3, [pc, #252]	; (8003264 <stm32__device___elabs+0xa0c>)
 8003168:	681b      	ldr	r3, [r3, #0]
 800316a:	4a4c      	ldr	r2, [pc, #304]	; (800329c <stm32__device___elabs+0xa44>)
 800316c:	6053      	str	r3, [r2, #4]
 800316e:	4b4b      	ldr	r3, [pc, #300]	; (800329c <stm32__device___elabs+0xa44>)
 8003170:	f44f 5200 	mov.w	r2, #8192	; 0x2000
 8003174:	811a      	strh	r2, [r3, #8]
 8003176:	4b49      	ldr	r3, [pc, #292]	; (800329c <stm32__device___elabs+0xa44>)
 8003178:	4a37      	ldr	r2, [pc, #220]	; (8003258 <stm32__device___elabs+0xa00>)
 800317a:	601a      	str	r2, [r3, #0]
 800317c:	4b39      	ldr	r3, [pc, #228]	; (8003264 <stm32__device___elabs+0xa0c>)
 800317e:	681b      	ldr	r3, [r3, #0]
 8003180:	4a47      	ldr	r2, [pc, #284]	; (80032a0 <stm32__device___elabs+0xa48>)
 8003182:	6053      	str	r3, [r2, #4]
 8003184:	4b46      	ldr	r3, [pc, #280]	; (80032a0 <stm32__device___elabs+0xa48>)
 8003186:	f44f 4280 	mov.w	r2, #16384	; 0x4000
 800318a:	811a      	strh	r2, [r3, #8]
 800318c:	4b44      	ldr	r3, [pc, #272]	; (80032a0 <stm32__device___elabs+0xa48>)
 800318e:	4a32      	ldr	r2, [pc, #200]	; (8003258 <stm32__device___elabs+0xa00>)
 8003190:	601a      	str	r2, [r3, #0]
 8003192:	4b34      	ldr	r3, [pc, #208]	; (8003264 <stm32__device___elabs+0xa0c>)
 8003194:	681b      	ldr	r3, [r3, #0]
 8003196:	4a43      	ldr	r2, [pc, #268]	; (80032a4 <stm32__device___elabs+0xa4c>)
 8003198:	6053      	str	r3, [r2, #4]
 800319a:	4b42      	ldr	r3, [pc, #264]	; (80032a4 <stm32__device___elabs+0xa4c>)
 800319c:	f44f 4200 	mov.w	r2, #32768	; 0x8000
 80031a0:	811a      	strh	r2, [r3, #8]
 80031a2:	4b40      	ldr	r3, [pc, #256]	; (80032a4 <stm32__device___elabs+0xa4c>)
 80031a4:	4a2c      	ldr	r2, [pc, #176]	; (8003258 <stm32__device___elabs+0xa00>)
 80031a6:	601a      	str	r2, [r3, #0]
 80031a8:	4b3f      	ldr	r3, [pc, #252]	; (80032a8 <stm32__device___elabs+0xa50>)
 80031aa:	681b      	ldr	r3, [r3, #0]
 80031ac:	4a3f      	ldr	r2, [pc, #252]	; (80032ac <stm32__device___elabs+0xa54>)
 80031ae:	6053      	str	r3, [r2, #4]
 80031b0:	4b3e      	ldr	r3, [pc, #248]	; (80032ac <stm32__device___elabs+0xa54>)
 80031b2:	2201      	movs	r2, #1
 80031b4:	811a      	strh	r2, [r3, #8]
 80031b6:	4b3d      	ldr	r3, [pc, #244]	; (80032ac <stm32__device___elabs+0xa54>)
 80031b8:	4a27      	ldr	r2, [pc, #156]	; (8003258 <stm32__device___elabs+0xa00>)
 80031ba:	601a      	str	r2, [r3, #0]
 80031bc:	4b3a      	ldr	r3, [pc, #232]	; (80032a8 <stm32__device___elabs+0xa50>)
 80031be:	681b      	ldr	r3, [r3, #0]
 80031c0:	4a3b      	ldr	r2, [pc, #236]	; (80032b0 <stm32__device___elabs+0xa58>)
 80031c2:	6053      	str	r3, [r2, #4]
 80031c4:	4b3a      	ldr	r3, [pc, #232]	; (80032b0 <stm32__device___elabs+0xa58>)
 80031c6:	2202      	movs	r2, #2
 80031c8:	811a      	strh	r2, [r3, #8]
 80031ca:	4b39      	ldr	r3, [pc, #228]	; (80032b0 <stm32__device___elabs+0xa58>)
 80031cc:	4a22      	ldr	r2, [pc, #136]	; (8003258 <stm32__device___elabs+0xa00>)
 80031ce:	601a      	str	r2, [r3, #0]
 80031d0:	4b35      	ldr	r3, [pc, #212]	; (80032a8 <stm32__device___elabs+0xa50>)
 80031d2:	681b      	ldr	r3, [r3, #0]
 80031d4:	4a37      	ldr	r2, [pc, #220]	; (80032b4 <stm32__device___elabs+0xa5c>)
 80031d6:	6053      	str	r3, [r2, #4]
 80031d8:	4b36      	ldr	r3, [pc, #216]	; (80032b4 <stm32__device___elabs+0xa5c>)
 80031da:	2204      	movs	r2, #4
 80031dc:	811a      	strh	r2, [r3, #8]
 80031de:	4b35      	ldr	r3, [pc, #212]	; (80032b4 <stm32__device___elabs+0xa5c>)
 80031e0:	4a1d      	ldr	r2, [pc, #116]	; (8003258 <stm32__device___elabs+0xa00>)
 80031e2:	601a      	str	r2, [r3, #0]
 80031e4:	4b30      	ldr	r3, [pc, #192]	; (80032a8 <stm32__device___elabs+0xa50>)
 80031e6:	681b      	ldr	r3, [r3, #0]
 80031e8:	4a33      	ldr	r2, [pc, #204]	; (80032b8 <stm32__device___elabs+0xa60>)
 80031ea:	6053      	str	r3, [r2, #4]
 80031ec:	4b32      	ldr	r3, [pc, #200]	; (80032b8 <stm32__device___elabs+0xa60>)
 80031ee:	2208      	movs	r2, #8
 80031f0:	811a      	strh	r2, [r3, #8]
 80031f2:	4b31      	ldr	r3, [pc, #196]	; (80032b8 <stm32__device___elabs+0xa60>)
 80031f4:	4a18      	ldr	r2, [pc, #96]	; (8003258 <stm32__device___elabs+0xa00>)
 80031f6:	601a      	str	r2, [r3, #0]
 80031f8:	4b2b      	ldr	r3, [pc, #172]	; (80032a8 <stm32__device___elabs+0xa50>)
 80031fa:	681b      	ldr	r3, [r3, #0]
 80031fc:	4a2f      	ldr	r2, [pc, #188]	; (80032bc <stm32__device___elabs+0xa64>)
 80031fe:	6053      	str	r3, [r2, #4]
 8003200:	4b2e      	ldr	r3, [pc, #184]	; (80032bc <stm32__device___elabs+0xa64>)
 8003202:	2210      	movs	r2, #16
 8003204:	811a      	strh	r2, [r3, #8]
 8003206:	4b2d      	ldr	r3, [pc, #180]	; (80032bc <stm32__device___elabs+0xa64>)
 8003208:	4a13      	ldr	r2, [pc, #76]	; (8003258 <stm32__device___elabs+0xa00>)
 800320a:	601a      	str	r2, [r3, #0]
 800320c:	4b26      	ldr	r3, [pc, #152]	; (80032a8 <stm32__device___elabs+0xa50>)
 800320e:	681b      	ldr	r3, [r3, #0]
 8003210:	4a2b      	ldr	r2, [pc, #172]	; (80032c0 <stm32__device___elabs+0xa68>)
 8003212:	6053      	str	r3, [r2, #4]
 8003214:	4b2a      	ldr	r3, [pc, #168]	; (80032c0 <stm32__device___elabs+0xa68>)
 8003216:	2220      	movs	r2, #32
 8003218:	811a      	strh	r2, [r3, #8]
 800321a:	4b29      	ldr	r3, [pc, #164]	; (80032c0 <stm32__device___elabs+0xa68>)
 800321c:	4a0e      	ldr	r2, [pc, #56]	; (8003258 <stm32__device___elabs+0xa00>)
 800321e:	601a      	str	r2, [r3, #0]
 8003220:	4b21      	ldr	r3, [pc, #132]	; (80032a8 <stm32__device___elabs+0xa50>)
 8003222:	681b      	ldr	r3, [r3, #0]
 8003224:	4a27      	ldr	r2, [pc, #156]	; (80032c4 <stm32__device___elabs+0xa6c>)
 8003226:	6053      	str	r3, [r2, #4]
 8003228:	4b26      	ldr	r3, [pc, #152]	; (80032c4 <stm32__device___elabs+0xa6c>)
 800322a:	2240      	movs	r2, #64	; 0x40
 800322c:	811a      	strh	r2, [r3, #8]
 800322e:	4b25      	ldr	r3, [pc, #148]	; (80032c4 <stm32__device___elabs+0xa6c>)
 8003230:	4a09      	ldr	r2, [pc, #36]	; (8003258 <stm32__device___elabs+0xa00>)
 8003232:	601a      	str	r2, [r3, #0]
 8003234:	4b1c      	ldr	r3, [pc, #112]	; (80032a8 <stm32__device___elabs+0xa50>)
 8003236:	681b      	ldr	r3, [r3, #0]
 8003238:	4a23      	ldr	r2, [pc, #140]	; (80032c8 <stm32__device___elabs+0xa70>)
 800323a:	6053      	str	r3, [r2, #4]
 800323c:	4b22      	ldr	r3, [pc, #136]	; (80032c8 <stm32__device___elabs+0xa70>)
 800323e:	2280      	movs	r2, #128	; 0x80
 8003240:	811a      	strh	r2, [r3, #8]
 8003242:	4b21      	ldr	r3, [pc, #132]	; (80032c8 <stm32__device___elabs+0xa70>)
 8003244:	4a04      	ldr	r2, [pc, #16]	; (8003258 <stm32__device___elabs+0xa00>)
 8003246:	601a      	str	r2, [r3, #0]
 8003248:	4b17      	ldr	r3, [pc, #92]	; (80032a8 <stm32__device___elabs+0xa50>)
 800324a:	681b      	ldr	r3, [r3, #0]
 800324c:	4a1f      	ldr	r2, [pc, #124]	; (80032cc <stm32__device___elabs+0xa74>)
 800324e:	6053      	str	r3, [r2, #4]
 8003250:	e03e      	b.n	80032d0 <stm32__device___elabs+0xa78>
 8003252:	bf00      	nop
 8003254:	20000478 	.word	0x20000478
 8003258:	0800b924 	.word	0x0800b924
 800325c:	20000018 	.word	0x20000018
 8003260:	20000484 	.word	0x20000484
 8003264:	2000001c 	.word	0x2000001c
 8003268:	20000490 	.word	0x20000490
 800326c:	2000049c 	.word	0x2000049c
 8003270:	200004a8 	.word	0x200004a8
 8003274:	200004b4 	.word	0x200004b4
 8003278:	200004c0 	.word	0x200004c0
 800327c:	200004cc 	.word	0x200004cc
 8003280:	200004d8 	.word	0x200004d8
 8003284:	200004e4 	.word	0x200004e4
 8003288:	200004f0 	.word	0x200004f0
 800328c:	200004fc 	.word	0x200004fc
 8003290:	20000508 	.word	0x20000508
 8003294:	20000514 	.word	0x20000514
 8003298:	20000520 	.word	0x20000520
 800329c:	2000052c 	.word	0x2000052c
 80032a0:	20000538 	.word	0x20000538
 80032a4:	20000544 	.word	0x20000544
 80032a8:	20000020 	.word	0x20000020
 80032ac:	20000550 	.word	0x20000550
 80032b0:	2000055c 	.word	0x2000055c
 80032b4:	20000568 	.word	0x20000568
 80032b8:	20000574 	.word	0x20000574
 80032bc:	20000580 	.word	0x20000580
 80032c0:	2000058c 	.word	0x2000058c
 80032c4:	20000598 	.word	0x20000598
 80032c8:	200005a4 	.word	0x200005a4
 80032cc:	200005b0 	.word	0x200005b0
 80032d0:	4b57      	ldr	r3, [pc, #348]	; (8003430 <stm32__device___elabs+0xbd8>)
 80032d2:	f44f 7280 	mov.w	r2, #256	; 0x100
 80032d6:	811a      	strh	r2, [r3, #8]
 80032d8:	4b55      	ldr	r3, [pc, #340]	; (8003430 <stm32__device___elabs+0xbd8>)
 80032da:	4a56      	ldr	r2, [pc, #344]	; (8003434 <stm32__device___elabs+0xbdc>)
 80032dc:	601a      	str	r2, [r3, #0]
 80032de:	4b56      	ldr	r3, [pc, #344]	; (8003438 <stm32__device___elabs+0xbe0>)
 80032e0:	681b      	ldr	r3, [r3, #0]
 80032e2:	4a56      	ldr	r2, [pc, #344]	; (800343c <stm32__device___elabs+0xbe4>)
 80032e4:	6053      	str	r3, [r2, #4]
 80032e6:	4b55      	ldr	r3, [pc, #340]	; (800343c <stm32__device___elabs+0xbe4>)
 80032e8:	f44f 7200 	mov.w	r2, #512	; 0x200
 80032ec:	811a      	strh	r2, [r3, #8]
 80032ee:	4b53      	ldr	r3, [pc, #332]	; (800343c <stm32__device___elabs+0xbe4>)
 80032f0:	4a50      	ldr	r2, [pc, #320]	; (8003434 <stm32__device___elabs+0xbdc>)
 80032f2:	601a      	str	r2, [r3, #0]
 80032f4:	4b50      	ldr	r3, [pc, #320]	; (8003438 <stm32__device___elabs+0xbe0>)
 80032f6:	681b      	ldr	r3, [r3, #0]
 80032f8:	4a51      	ldr	r2, [pc, #324]	; (8003440 <stm32__device___elabs+0xbe8>)
 80032fa:	6053      	str	r3, [r2, #4]
 80032fc:	4b50      	ldr	r3, [pc, #320]	; (8003440 <stm32__device___elabs+0xbe8>)
 80032fe:	f44f 6280 	mov.w	r2, #1024	; 0x400
 8003302:	811a      	strh	r2, [r3, #8]
 8003304:	4b4e      	ldr	r3, [pc, #312]	; (8003440 <stm32__device___elabs+0xbe8>)
 8003306:	4a4b      	ldr	r2, [pc, #300]	; (8003434 <stm32__device___elabs+0xbdc>)
 8003308:	601a      	str	r2, [r3, #0]
 800330a:	4b4b      	ldr	r3, [pc, #300]	; (8003438 <stm32__device___elabs+0xbe0>)
 800330c:	681b      	ldr	r3, [r3, #0]
 800330e:	4a4d      	ldr	r2, [pc, #308]	; (8003444 <stm32__device___elabs+0xbec>)
 8003310:	6053      	str	r3, [r2, #4]
 8003312:	4b4c      	ldr	r3, [pc, #304]	; (8003444 <stm32__device___elabs+0xbec>)
 8003314:	f44f 6200 	mov.w	r2, #2048	; 0x800
 8003318:	811a      	strh	r2, [r3, #8]
 800331a:	4b4a      	ldr	r3, [pc, #296]	; (8003444 <stm32__device___elabs+0xbec>)
 800331c:	4a45      	ldr	r2, [pc, #276]	; (8003434 <stm32__device___elabs+0xbdc>)
 800331e:	601a      	str	r2, [r3, #0]
 8003320:	4b45      	ldr	r3, [pc, #276]	; (8003438 <stm32__device___elabs+0xbe0>)
 8003322:	681b      	ldr	r3, [r3, #0]
 8003324:	4a48      	ldr	r2, [pc, #288]	; (8003448 <stm32__device___elabs+0xbf0>)
 8003326:	6053      	str	r3, [r2, #4]
 8003328:	4b47      	ldr	r3, [pc, #284]	; (8003448 <stm32__device___elabs+0xbf0>)
 800332a:	f44f 5280 	mov.w	r2, #4096	; 0x1000
 800332e:	811a      	strh	r2, [r3, #8]
 8003330:	4b45      	ldr	r3, [pc, #276]	; (8003448 <stm32__device___elabs+0xbf0>)
 8003332:	4a40      	ldr	r2, [pc, #256]	; (8003434 <stm32__device___elabs+0xbdc>)
 8003334:	601a      	str	r2, [r3, #0]
 8003336:	4b40      	ldr	r3, [pc, #256]	; (8003438 <stm32__device___elabs+0xbe0>)
 8003338:	681b      	ldr	r3, [r3, #0]
 800333a:	4a44      	ldr	r2, [pc, #272]	; (800344c <stm32__device___elabs+0xbf4>)
 800333c:	6053      	str	r3, [r2, #4]
 800333e:	4b43      	ldr	r3, [pc, #268]	; (800344c <stm32__device___elabs+0xbf4>)
 8003340:	f44f 5200 	mov.w	r2, #8192	; 0x2000
 8003344:	811a      	strh	r2, [r3, #8]
 8003346:	4b41      	ldr	r3, [pc, #260]	; (800344c <stm32__device___elabs+0xbf4>)
 8003348:	4a3a      	ldr	r2, [pc, #232]	; (8003434 <stm32__device___elabs+0xbdc>)
 800334a:	601a      	str	r2, [r3, #0]
 800334c:	4b3a      	ldr	r3, [pc, #232]	; (8003438 <stm32__device___elabs+0xbe0>)
 800334e:	681b      	ldr	r3, [r3, #0]
 8003350:	4a3f      	ldr	r2, [pc, #252]	; (8003450 <stm32__device___elabs+0xbf8>)
 8003352:	6053      	str	r3, [r2, #4]
 8003354:	4b3e      	ldr	r3, [pc, #248]	; (8003450 <stm32__device___elabs+0xbf8>)
 8003356:	f44f 4280 	mov.w	r2, #16384	; 0x4000
 800335a:	811a      	strh	r2, [r3, #8]
 800335c:	4b3c      	ldr	r3, [pc, #240]	; (8003450 <stm32__device___elabs+0xbf8>)
 800335e:	4a35      	ldr	r2, [pc, #212]	; (8003434 <stm32__device___elabs+0xbdc>)
 8003360:	601a      	str	r2, [r3, #0]
 8003362:	4b35      	ldr	r3, [pc, #212]	; (8003438 <stm32__device___elabs+0xbe0>)
 8003364:	681b      	ldr	r3, [r3, #0]
 8003366:	4a3b      	ldr	r2, [pc, #236]	; (8003454 <stm32__device___elabs+0xbfc>)
 8003368:	6053      	str	r3, [r2, #4]
 800336a:	4b3a      	ldr	r3, [pc, #232]	; (8003454 <stm32__device___elabs+0xbfc>)
 800336c:	f44f 4200 	mov.w	r2, #32768	; 0x8000
 8003370:	811a      	strh	r2, [r3, #8]
 8003372:	4b38      	ldr	r3, [pc, #224]	; (8003454 <stm32__device___elabs+0xbfc>)
 8003374:	4a2f      	ldr	r2, [pc, #188]	; (8003434 <stm32__device___elabs+0xbdc>)
 8003376:	601a      	str	r2, [r3, #0]
 8003378:	4b37      	ldr	r3, [pc, #220]	; (8003458 <stm32__device___elabs+0xc00>)
 800337a:	681b      	ldr	r3, [r3, #0]
 800337c:	4837      	ldr	r0, [pc, #220]	; (800345c <stm32__device___elabs+0xc04>)
 800337e:	4619      	mov	r1, r3
 8003380:	2201      	movs	r2, #1
 8003382:	f000 f89d 	bl	80034c0 <stm32__usarts__usartIP>
 8003386:	4b36      	ldr	r3, [pc, #216]	; (8003460 <stm32__device___elabs+0xc08>)
 8003388:	681b      	ldr	r3, [r3, #0]
 800338a:	4836      	ldr	r0, [pc, #216]	; (8003464 <stm32__device___elabs+0xc0c>)
 800338c:	4619      	mov	r1, r3
 800338e:	2201      	movs	r2, #1
 8003390:	f000 f896 	bl	80034c0 <stm32__usarts__usartIP>
 8003394:	4b34      	ldr	r3, [pc, #208]	; (8003468 <stm32__device___elabs+0xc10>)
 8003396:	681b      	ldr	r3, [r3, #0]
 8003398:	4834      	ldr	r0, [pc, #208]	; (800346c <stm32__device___elabs+0xc14>)
 800339a:	4619      	mov	r1, r3
 800339c:	2201      	movs	r2, #1
 800339e:	f000 f88f 	bl	80034c0 <stm32__usarts__usartIP>
 80033a2:	4b33      	ldr	r3, [pc, #204]	; (8003470 <stm32__device___elabs+0xc18>)
 80033a4:	681b      	ldr	r3, [r3, #0]
 80033a6:	4833      	ldr	r0, [pc, #204]	; (8003474 <stm32__device___elabs+0xc1c>)
 80033a8:	4619      	mov	r1, r3
 80033aa:	2201      	movs	r2, #1
 80033ac:	f000 f888 	bl	80034c0 <stm32__usarts__usartIP>
 80033b0:	4b31      	ldr	r3, [pc, #196]	; (8003478 <stm32__device___elabs+0xc20>)
 80033b2:	681b      	ldr	r3, [r3, #0]
 80033b4:	4831      	ldr	r0, [pc, #196]	; (800347c <stm32__device___elabs+0xc24>)
 80033b6:	4619      	mov	r1, r3
 80033b8:	2201      	movs	r2, #1
 80033ba:	f000 f881 	bl	80034c0 <stm32__usarts__usartIP>
 80033be:	4b30      	ldr	r3, [pc, #192]	; (8003480 <stm32__device___elabs+0xc28>)
 80033c0:	681b      	ldr	r3, [r3, #0]
 80033c2:	4830      	ldr	r0, [pc, #192]	; (8003484 <stm32__device___elabs+0xc2c>)
 80033c4:	4619      	mov	r1, r3
 80033c6:	2201      	movs	r2, #1
 80033c8:	f001 f928 	bl	800461c <stm32__i2c__i2c_portIP>
 80033cc:	4b2e      	ldr	r3, [pc, #184]	; (8003488 <stm32__device___elabs+0xc30>)
 80033ce:	681b      	ldr	r3, [r3, #0]
 80033d0:	482e      	ldr	r0, [pc, #184]	; (800348c <stm32__device___elabs+0xc34>)
 80033d2:	4619      	mov	r1, r3
 80033d4:	2201      	movs	r2, #1
 80033d6:	f001 f921 	bl	800461c <stm32__i2c__i2c_portIP>
 80033da:	4b2d      	ldr	r3, [pc, #180]	; (8003490 <stm32__device___elabs+0xc38>)
 80033dc:	681b      	ldr	r3, [r3, #0]
 80033de:	482d      	ldr	r0, [pc, #180]	; (8003494 <stm32__device___elabs+0xc3c>)
 80033e0:	4619      	mov	r1, r3
 80033e2:	2201      	movs	r2, #1
 80033e4:	f003 fe74 	bl	80070d0 <stm32__spi__spi_portIP>
 80033e8:	4b2b      	ldr	r3, [pc, #172]	; (8003498 <stm32__device___elabs+0xc40>)
 80033ea:	681b      	ldr	r3, [r3, #0]
 80033ec:	482b      	ldr	r0, [pc, #172]	; (800349c <stm32__device___elabs+0xc44>)
 80033ee:	4619      	mov	r1, r3
 80033f0:	2201      	movs	r2, #1
 80033f2:	f003 fe6d 	bl	80070d0 <stm32__spi__spi_portIP>
 80033f6:	4b2a      	ldr	r3, [pc, #168]	; (80034a0 <stm32__device___elabs+0xc48>)
 80033f8:	681b      	ldr	r3, [r3, #0]
 80033fa:	482a      	ldr	r0, [pc, #168]	; (80034a4 <stm32__device___elabs+0xc4c>)
 80033fc:	4619      	mov	r1, r3
 80033fe:	2201      	movs	r2, #1
 8003400:	f003 fe66 	bl	80070d0 <stm32__spi__spi_portIP>
 8003404:	4b28      	ldr	r3, [pc, #160]	; (80034a8 <stm32__device___elabs+0xc50>)
 8003406:	681b      	ldr	r3, [r3, #0]
 8003408:	4828      	ldr	r0, [pc, #160]	; (80034ac <stm32__device___elabs+0xc54>)
 800340a:	4619      	mov	r1, r3
 800340c:	2201      	movs	r2, #1
 800340e:	f005 fa9b 	bl	8008948 <stm32__i2s__i2s_portIP>
 8003412:	4b27      	ldr	r3, [pc, #156]	; (80034b0 <stm32__device___elabs+0xc58>)
 8003414:	681b      	ldr	r3, [r3, #0]
 8003416:	4827      	ldr	r0, [pc, #156]	; (80034b4 <stm32__device___elabs+0xc5c>)
 8003418:	4619      	mov	r1, r3
 800341a:	2201      	movs	r2, #1
 800341c:	f005 fa94 	bl	8008948 <stm32__i2s__i2s_portIP>
 8003420:	4b25      	ldr	r3, [pc, #148]	; (80034b8 <stm32__device___elabs+0xc60>)
 8003422:	681b      	ldr	r3, [r3, #0]
 8003424:	4825      	ldr	r0, [pc, #148]	; (80034bc <stm32__device___elabs+0xc64>)
 8003426:	4619      	mov	r1, r3
 8003428:	2201      	movs	r2, #1
 800342a:	f005 fa8d 	bl	8008948 <stm32__i2s__i2s_portIP>
 800342e:	bd80      	pop	{r7, pc}
 8003430:	200005b0 	.word	0x200005b0
 8003434:	0800b924 	.word	0x0800b924
 8003438:	20000020 	.word	0x20000020
 800343c:	200005bc 	.word	0x200005bc
 8003440:	200005c8 	.word	0x200005c8
 8003444:	200005d4 	.word	0x200005d4
 8003448:	200005e0 	.word	0x200005e0
 800344c:	200005ec 	.word	0x200005ec
 8003450:	200005f8 	.word	0x200005f8
 8003454:	20000604 	.word	0x20000604
 8003458:	20000024 	.word	0x20000024
 800345c:	20000610 	.word	0x20000610
 8003460:	20000028 	.word	0x20000028
 8003464:	20000618 	.word	0x20000618
 8003468:	2000002c 	.word	0x2000002c
 800346c:	20000620 	.word	0x20000620
 8003470:	20000030 	.word	0x20000030
 8003474:	20000628 	.word	0x20000628
 8003478:	20000034 	.word	0x20000034
 800347c:	20000630 	.word	0x20000630
 8003480:	20000038 	.word	0x20000038
 8003484:	20000638 	.word	0x20000638
 8003488:	2000003c 	.word	0x2000003c
 800348c:	20000650 	.word	0x20000650
 8003490:	20000040 	.word	0x20000040
 8003494:	20000668 	.word	0x20000668
 8003498:	20000044 	.word	0x20000044
 800349c:	20000670 	.word	0x20000670
 80034a0:	20000048 	.word	0x20000048
 80034a4:	20000678 	.word	0x20000678
 80034a8:	2000004c 	.word	0x2000004c
 80034ac:	20000680 	.word	0x20000680
 80034b0:	20000050 	.word	0x20000050
 80034b4:	20000688 	.word	0x20000688
 80034b8:	20000054 	.word	0x20000054
 80034bc:	20000690 	.word	0x20000690

080034c0 <stm32__usarts__usartIP>:
 80034c0:	b480      	push	{r7}
 80034c2:	b085      	sub	sp, #20
 80034c4:	af00      	add	r7, sp, #0
 80034c6:	60f8      	str	r0, [r7, #12]
 80034c8:	60b9      	str	r1, [r7, #8]
 80034ca:	4613      	mov	r3, r2
 80034cc:	71fb      	strb	r3, [r7, #7]
 80034ce:	79fb      	ldrb	r3, [r7, #7]
 80034d0:	2b00      	cmp	r3, #0
 80034d2:	d002      	beq.n	80034da <stm32__usarts__usartIP+0x1a>
 80034d4:	68fb      	ldr	r3, [r7, #12]
 80034d6:	4a05      	ldr	r2, [pc, #20]	; (80034ec <stm32__usarts__usartIP+0x2c>)
 80034d8:	601a      	str	r2, [r3, #0]
 80034da:	68fb      	ldr	r3, [r7, #12]
 80034dc:	68ba      	ldr	r2, [r7, #8]
 80034de:	605a      	str	r2, [r3, #4]
 80034e0:	3714      	adds	r7, #20
 80034e2:	46bd      	mov	sp, r7
 80034e4:	f85d 7b04 	ldr.w	r7, [sp], #4
 80034e8:	4770      	bx	lr
 80034ea:	bf00      	nop
 80034ec:	0800b310 	.word	0x0800b310

080034f0 <stm32__usarts___size__2>:
 80034f0:	b490      	push	{r4, r7}
 80034f2:	b082      	sub	sp, #8
 80034f4:	af00      	add	r7, sp, #0
 80034f6:	6078      	str	r0, [r7, #4]
 80034f8:	f04f 0340 	mov.w	r3, #64	; 0x40
 80034fc:	f04f 0400 	mov.w	r4, #0
 8003500:	4618      	mov	r0, r3
 8003502:	4621      	mov	r1, r4
 8003504:	3708      	adds	r7, #8
 8003506:	46bd      	mov	sp, r7
 8003508:	bc90      	pop	{r4, r7}
 800350a:	4770      	bx	lr

0800350c <stm32__usarts__apb_clock>:
 800350c:	b580      	push	{r7, lr}
 800350e:	b08a      	sub	sp, #40	; 0x28
 8003510:	af00      	add	r7, sp, #0
 8003512:	6078      	str	r0, [r7, #4]
 8003514:	f107 030c 	add.w	r3, r7, #12
 8003518:	4618      	mov	r0, r3
 800351a:	f7ff f8a9 	bl	8002670 <stm32__device__system_clock_frequencies>
 800351e:	687b      	ldr	r3, [r7, #4]
 8003520:	685b      	ldr	r3, [r3, #4]
 8003522:	461a      	mov	r2, r3
 8003524:	4b05      	ldr	r3, [pc, #20]	; (800353c <stm32__usarts__apb_clock+0x30>)
 8003526:	429a      	cmp	r2, r3
 8003528:	d101      	bne.n	800352e <stm32__usarts__apb_clock+0x22>
 800352a:	69bb      	ldr	r3, [r7, #24]
 800352c:	e000      	b.n	8003530 <stm32__usarts__apb_clock+0x24>
 800352e:	697b      	ldr	r3, [r7, #20]
 8003530:	bf00      	nop
 8003532:	4618      	mov	r0, r3
 8003534:	3728      	adds	r7, #40	; 0x28
 8003536:	46bd      	mov	sp, r7
 8003538:	bd80      	pop	{r7, pc}
 800353a:	bf00      	nop
 800353c:	40013800 	.word	0x40013800

08003540 <stm32__usarts__enable___postconditions.4760>:
 8003540:	b5b0      	push	{r4, r5, r7, lr}
 8003542:	b082      	sub	sp, #8
 8003544:	af00      	add	r7, sp, #0
 8003546:	4663      	mov	r3, ip
 8003548:	f8c7 c004 	str.w	ip, [r7, #4]
 800354c:	681b      	ldr	r3, [r3, #0]
 800354e:	4618      	mov	r0, r3
 8003550:	f000 f868 	bl	8003624 <stm32__usarts__enabled>
 8003554:	4603      	mov	r3, r0
 8003556:	f083 0301 	eor.w	r3, r3, #1
 800355a:	b2db      	uxtb	r3, r3
 800355c:	2b00      	cmp	r3, #0
 800355e:	d005      	beq.n	800356c <stm32__usarts__enable___postconditions.4760+0x2c>
 8003560:	4c04      	ldr	r4, [pc, #16]	; (8003574 <stm32__usarts__enable___postconditions.4760+0x34>)
 8003562:	4d05      	ldr	r5, [pc, #20]	; (8003578 <stm32__usarts__enable___postconditions.4760+0x38>)
 8003564:	4620      	mov	r0, r4
 8003566:	4629      	mov	r1, r5
 8003568:	f007 f826 	bl	800a5b8 <system__assertions__raise_assert_failure>
 800356c:	3708      	adds	r7, #8
 800356e:	46bd      	mov	sp, r7
 8003570:	bdb0      	pop	{r4, r5, r7, pc}
 8003572:	bf00      	nop
 8003574:	0800b3a4 	.word	0x0800b3a4
 8003578:	0800b3d4 	.word	0x0800b3d4

0800357c <stm32__usarts__enable>:
 800357c:	b580      	push	{r7, lr}
 800357e:	b084      	sub	sp, #16
 8003580:	af00      	add	r7, sp, #0
 8003582:	6078      	str	r0, [r7, #4]
 8003584:	f107 0318 	add.w	r3, r7, #24
 8003588:	60fb      	str	r3, [r7, #12]
 800358a:	687b      	ldr	r3, [r7, #4]
 800358c:	60bb      	str	r3, [r7, #8]
 800358e:	68bb      	ldr	r3, [r7, #8]
 8003590:	685b      	ldr	r3, [r3, #4]
 8003592:	330c      	adds	r3, #12
 8003594:	681b      	ldr	r3, [r3, #0]
 8003596:	461a      	mov	r2, r3
 8003598:	4613      	mov	r3, r2
 800359a:	f443 5200 	orr.w	r2, r3, #8192	; 0x2000
 800359e:	68bb      	ldr	r3, [r7, #8]
 80035a0:	685b      	ldr	r3, [r3, #4]
 80035a2:	330c      	adds	r3, #12
 80035a4:	601a      	str	r2, [r3, #0]
 80035a6:	f107 0308 	add.w	r3, r7, #8
 80035aa:	469c      	mov	ip, r3
 80035ac:	f7ff ffc8 	bl	8003540 <stm32__usarts__enable___postconditions.4760>
 80035b0:	3710      	adds	r7, #16
 80035b2:	46bd      	mov	sp, r7
 80035b4:	bd80      	pop	{r7, pc}
 80035b6:	bf00      	nop

080035b8 <stm32__usarts__disable___postconditions.4767>:
 80035b8:	b5b0      	push	{r4, r5, r7, lr}
 80035ba:	b082      	sub	sp, #8
 80035bc:	af00      	add	r7, sp, #0
 80035be:	4663      	mov	r3, ip
 80035c0:	f8c7 c004 	str.w	ip, [r7, #4]
 80035c4:	681b      	ldr	r3, [r3, #0]
 80035c6:	4618      	mov	r0, r3
 80035c8:	f000 f82c 	bl	8003624 <stm32__usarts__enabled>
 80035cc:	4603      	mov	r3, r0
 80035ce:	2b00      	cmp	r3, #0
 80035d0:	d005      	beq.n	80035de <stm32__usarts__disable___postconditions.4767+0x26>
 80035d2:	4c04      	ldr	r4, [pc, #16]	; (80035e4 <stm32__usarts__disable___postconditions.4767+0x2c>)
 80035d4:	4d04      	ldr	r5, [pc, #16]	; (80035e8 <stm32__usarts__disable___postconditions.4767+0x30>)
 80035d6:	4620      	mov	r0, r4
 80035d8:	4629      	mov	r1, r5
 80035da:	f006 ffed 	bl	800a5b8 <system__assertions__raise_assert_failure>
 80035de:	3708      	adds	r7, #8
 80035e0:	46bd      	mov	sp, r7
 80035e2:	bdb0      	pop	{r4, r5, r7, pc}
 80035e4:	0800b3dc 	.word	0x0800b3dc
 80035e8:	0800b3d4 	.word	0x0800b3d4

080035ec <stm32__usarts__disable>:
 80035ec:	b580      	push	{r7, lr}
 80035ee:	b084      	sub	sp, #16
 80035f0:	af00      	add	r7, sp, #0
 80035f2:	6078      	str	r0, [r7, #4]
 80035f4:	f107 0318 	add.w	r3, r7, #24
 80035f8:	60fb      	str	r3, [r7, #12]
 80035fa:	687b      	ldr	r3, [r7, #4]
 80035fc:	60bb      	str	r3, [r7, #8]
 80035fe:	68bb      	ldr	r3, [r7, #8]
 8003600:	685b      	ldr	r3, [r3, #4]
 8003602:	330c      	adds	r3, #12
 8003604:	681b      	ldr	r3, [r3, #0]
 8003606:	f36f 334d 	bfc	r3, #13, #1
 800360a:	68ba      	ldr	r2, [r7, #8]
 800360c:	6852      	ldr	r2, [r2, #4]
 800360e:	320c      	adds	r2, #12
 8003610:	6013      	str	r3, [r2, #0]
 8003612:	f107 0308 	add.w	r3, r7, #8
 8003616:	469c      	mov	ip, r3
 8003618:	f7ff ffce 	bl	80035b8 <stm32__usarts__disable___postconditions.4767>
 800361c:	3710      	adds	r7, #16
 800361e:	46bd      	mov	sp, r7
 8003620:	bd80      	pop	{r7, pc}
 8003622:	bf00      	nop

08003624 <stm32__usarts__enabled>:
 8003624:	b480      	push	{r7}
 8003626:	b083      	sub	sp, #12
 8003628:	af00      	add	r7, sp, #0
 800362a:	6078      	str	r0, [r7, #4]
 800362c:	687b      	ldr	r3, [r7, #4]
 800362e:	685b      	ldr	r3, [r3, #4]
 8003630:	330c      	adds	r3, #12
 8003632:	681b      	ldr	r3, [r3, #0]
 8003634:	f3c3 3340 	ubfx	r3, r3, #13, #1
 8003638:	b2db      	uxtb	r3, r3
 800363a:	bf00      	nop
 800363c:	4618      	mov	r0, r3
 800363e:	370c      	adds	r7, #12
 8003640:	46bd      	mov	sp, r7
 8003642:	f85d 7b04 	ldr.w	r7, [sp], #4
 8003646:	4770      	bx	lr

08003648 <stm32__usarts__set_stop_bits>:
 8003648:	b480      	push	{r7}
 800364a:	b083      	sub	sp, #12
 800364c:	af00      	add	r7, sp, #0
 800364e:	6078      	str	r0, [r7, #4]
 8003650:	460b      	mov	r3, r1
 8003652:	70fb      	strb	r3, [r7, #3]
 8003654:	687b      	ldr	r3, [r7, #4]
 8003656:	685b      	ldr	r3, [r3, #4]
 8003658:	3310      	adds	r3, #16
 800365a:	681b      	ldr	r3, [r3, #0]
 800365c:	78fa      	ldrb	r2, [r7, #3]
 800365e:	f002 0203 	and.w	r2, r2, #3
 8003662:	b2d2      	uxtb	r2, r2
 8003664:	f362 330d 	bfi	r3, r2, #12, #2
 8003668:	687a      	ldr	r2, [r7, #4]
 800366a:	6852      	ldr	r2, [r2, #4]
 800366c:	3210      	adds	r2, #16
 800366e:	6013      	str	r3, [r2, #0]
 8003670:	370c      	adds	r7, #12
 8003672:	46bd      	mov	sp, r7
 8003674:	f85d 7b04 	ldr.w	r7, [sp], #4
 8003678:	4770      	bx	lr
 800367a:	bf00      	nop

0800367c <stm32__usarts__set_word_length>:
 800367c:	b480      	push	{r7}
 800367e:	b083      	sub	sp, #12
 8003680:	af00      	add	r7, sp, #0
 8003682:	6078      	str	r0, [r7, #4]
 8003684:	460b      	mov	r3, r1
 8003686:	70fb      	strb	r3, [r7, #3]
 8003688:	687b      	ldr	r3, [r7, #4]
 800368a:	685b      	ldr	r3, [r3, #4]
 800368c:	330c      	adds	r3, #12
 800368e:	681b      	ldr	r3, [r3, #0]
 8003690:	78fa      	ldrb	r2, [r7, #3]
 8003692:	2a01      	cmp	r2, #1
 8003694:	bf0c      	ite	eq
 8003696:	2201      	moveq	r2, #1
 8003698:	2200      	movne	r2, #0
 800369a:	b2d2      	uxtb	r2, r2
 800369c:	f002 0201 	and.w	r2, r2, #1
 80036a0:	b2d2      	uxtb	r2, r2
 80036a2:	f362 330c 	bfi	r3, r2, #12, #1
 80036a6:	687a      	ldr	r2, [r7, #4]
 80036a8:	6852      	ldr	r2, [r2, #4]
 80036aa:	320c      	adds	r2, #12
 80036ac:	6013      	str	r3, [r2, #0]
 80036ae:	370c      	adds	r7, #12
 80036b0:	46bd      	mov	sp, r7
 80036b2:	f85d 7b04 	ldr.w	r7, [sp], #4
 80036b6:	4770      	bx	lr

080036b8 <stm32__usarts__set_parity>:
 80036b8:	b580      	push	{r7, lr}
 80036ba:	b082      	sub	sp, #8
 80036bc:	af00      	add	r7, sp, #0
 80036be:	6078      	str	r0, [r7, #4]
 80036c0:	460b      	mov	r3, r1
 80036c2:	70fb      	strb	r3, [r7, #3]
 80036c4:	78fb      	ldrb	r3, [r7, #3]
 80036c6:	2b02      	cmp	r3, #2
 80036c8:	d903      	bls.n	80036d2 <stm32__usarts__set_parity+0x1a>
 80036ca:	4829      	ldr	r0, [pc, #164]	; (8003770 <stm32__usarts__set_parity+0xb8>)
 80036cc:	2175      	movs	r1, #117	; 0x75
 80036ce:	f7fc fe3d 	bl	800034c <__gnat_last_chance_handler>
 80036d2:	78fb      	ldrb	r3, [r7, #3]
 80036d4:	2b00      	cmp	r3, #0
 80036d6:	d002      	beq.n	80036de <stm32__usarts__set_parity+0x26>
 80036d8:	2b01      	cmp	r3, #1
 80036da:	d015      	beq.n	8003708 <stm32__usarts__set_parity+0x50>
 80036dc:	e02b      	b.n	8003736 <stm32__usarts__set_parity+0x7e>
 80036de:	687b      	ldr	r3, [r7, #4]
 80036e0:	685b      	ldr	r3, [r3, #4]
 80036e2:	330c      	adds	r3, #12
 80036e4:	681b      	ldr	r3, [r3, #0]
 80036e6:	f36f 238a 	bfc	r3, #10, #1
 80036ea:	687a      	ldr	r2, [r7, #4]
 80036ec:	6852      	ldr	r2, [r2, #4]
 80036ee:	320c      	adds	r2, #12
 80036f0:	6013      	str	r3, [r2, #0]
 80036f2:	687b      	ldr	r3, [r7, #4]
 80036f4:	685b      	ldr	r3, [r3, #4]
 80036f6:	330c      	adds	r3, #12
 80036f8:	681b      	ldr	r3, [r3, #0]
 80036fa:	f36f 2349 	bfc	r3, #9, #1
 80036fe:	687a      	ldr	r2, [r7, #4]
 8003700:	6852      	ldr	r2, [r2, #4]
 8003702:	320c      	adds	r2, #12
 8003704:	6013      	str	r3, [r2, #0]
 8003706:	e02e      	b.n	8003766 <stm32__usarts__set_parity+0xae>
 8003708:	687b      	ldr	r3, [r7, #4]
 800370a:	685b      	ldr	r3, [r3, #4]
 800370c:	330c      	adds	r3, #12
 800370e:	681b      	ldr	r3, [r3, #0]
 8003710:	461a      	mov	r2, r3
 8003712:	4613      	mov	r3, r2
 8003714:	f443 6280 	orr.w	r2, r3, #1024	; 0x400
 8003718:	687b      	ldr	r3, [r7, #4]
 800371a:	685b      	ldr	r3, [r3, #4]
 800371c:	330c      	adds	r3, #12
 800371e:	601a      	str	r2, [r3, #0]
 8003720:	687b      	ldr	r3, [r7, #4]
 8003722:	685b      	ldr	r3, [r3, #4]
 8003724:	330c      	adds	r3, #12
 8003726:	681b      	ldr	r3, [r3, #0]
 8003728:	f36f 2349 	bfc	r3, #9, #1
 800372c:	687a      	ldr	r2, [r7, #4]
 800372e:	6852      	ldr	r2, [r2, #4]
 8003730:	320c      	adds	r2, #12
 8003732:	6013      	str	r3, [r2, #0]
 8003734:	e017      	b.n	8003766 <stm32__usarts__set_parity+0xae>
 8003736:	687b      	ldr	r3, [r7, #4]
 8003738:	685b      	ldr	r3, [r3, #4]
 800373a:	330c      	adds	r3, #12
 800373c:	681b      	ldr	r3, [r3, #0]
 800373e:	461a      	mov	r2, r3
 8003740:	4613      	mov	r3, r2
 8003742:	f443 6280 	orr.w	r2, r3, #1024	; 0x400
 8003746:	687b      	ldr	r3, [r7, #4]
 8003748:	685b      	ldr	r3, [r3, #4]
 800374a:	330c      	adds	r3, #12
 800374c:	601a      	str	r2, [r3, #0]
 800374e:	687b      	ldr	r3, [r7, #4]
 8003750:	685b      	ldr	r3, [r3, #4]
 8003752:	330c      	adds	r3, #12
 8003754:	681b      	ldr	r3, [r3, #0]
 8003756:	461a      	mov	r2, r3
 8003758:	4613      	mov	r3, r2
 800375a:	f443 7200 	orr.w	r2, r3, #512	; 0x200
 800375e:	687b      	ldr	r3, [r7, #4]
 8003760:	685b      	ldr	r3, [r3, #4]
 8003762:	330c      	adds	r3, #12
 8003764:	601a      	str	r2, [r3, #0]
 8003766:	bf00      	nop
 8003768:	3708      	adds	r7, #8
 800376a:	46bd      	mov	sp, r7
 800376c:	bd80      	pop	{r7, pc}
 800376e:	bf00      	nop
 8003770:	0800b40c 	.word	0x0800b40c

08003774 <stm32__usarts__set_baud_rate>:
 8003774:	b580      	push	{r7, lr}
 8003776:	b086      	sub	sp, #24
 8003778:	af00      	add	r7, sp, #0
 800377a:	6078      	str	r0, [r7, #4]
 800377c:	6039      	str	r1, [r7, #0]
 800377e:	6878      	ldr	r0, [r7, #4]
 8003780:	f7ff fec4 	bl	800350c <stm32__usarts__apb_clock>
 8003784:	6178      	str	r0, [r7, #20]
 8003786:	2304      	movs	r3, #4
 8003788:	613b      	str	r3, [r7, #16]
 800378a:	683b      	ldr	r3, [r7, #0]
 800378c:	009b      	lsls	r3, r3, #2
 800378e:	2b00      	cmp	r3, #0
 8003790:	d103      	bne.n	800379a <stm32__usarts__set_baud_rate+0x26>
 8003792:	4832      	ldr	r0, [pc, #200]	; (800385c <stm32__usarts__set_baud_rate+0xe8>)
 8003794:	218c      	movs	r1, #140	; 0x8c
 8003796:	f7fc fdd9 	bl	800034c <__gnat_last_chance_handler>
 800379a:	697a      	ldr	r2, [r7, #20]
 800379c:	4613      	mov	r3, r2
 800379e:	009b      	lsls	r3, r3, #2
 80037a0:	4413      	add	r3, r2
 80037a2:	009a      	lsls	r2, r3, #2
 80037a4:	441a      	add	r2, r3
 80037a6:	683b      	ldr	r3, [r7, #0]
 80037a8:	009b      	lsls	r3, r3, #2
 80037aa:	fbb2 f3f3 	udiv	r3, r2, r3
 80037ae:	60fb      	str	r3, [r7, #12]
 80037b0:	68fb      	ldr	r3, [r7, #12]
 80037b2:	4a2b      	ldr	r2, [pc, #172]	; (8003860 <stm32__usarts__set_baud_rate+0xec>)
 80037b4:	fba2 1203 	umull	r1, r2, r2, r3
 80037b8:	0952      	lsrs	r2, r2, #5
 80037ba:	2164      	movs	r1, #100	; 0x64
 80037bc:	fb01 f202 	mul.w	r2, r1, r2
 80037c0:	1a9b      	subs	r3, r3, r2
 80037c2:	60bb      	str	r3, [r7, #8]
 80037c4:	687b      	ldr	r3, [r7, #4]
 80037c6:	685b      	ldr	r3, [r3, #4]
 80037c8:	3308      	adds	r3, #8
 80037ca:	681b      	ldr	r3, [r3, #0]
 80037cc:	68ba      	ldr	r2, [r7, #8]
 80037ce:	0112      	lsls	r2, r2, #4
 80037d0:	3232      	adds	r2, #50	; 0x32
 80037d2:	4923      	ldr	r1, [pc, #140]	; (8003860 <stm32__usarts__set_baud_rate+0xec>)
 80037d4:	fba1 1202 	umull	r1, r2, r1, r2
 80037d8:	0952      	lsrs	r2, r2, #5
 80037da:	f002 020f 	and.w	r2, r2, #15
 80037de:	2aff      	cmp	r2, #255	; 0xff
 80037e0:	d903      	bls.n	80037ea <stm32__usarts__set_baud_rate+0x76>
 80037e2:	481e      	ldr	r0, [pc, #120]	; (800385c <stm32__usarts__set_baud_rate+0xe8>)
 80037e4:	2195      	movs	r1, #149	; 0x95
 80037e6:	f7fc fdb1 	bl	800034c <__gnat_last_chance_handler>
 80037ea:	68ba      	ldr	r2, [r7, #8]
 80037ec:	0112      	lsls	r2, r2, #4
 80037ee:	3232      	adds	r2, #50	; 0x32
 80037f0:	491b      	ldr	r1, [pc, #108]	; (8003860 <stm32__usarts__set_baud_rate+0xec>)
 80037f2:	fba1 1202 	umull	r1, r2, r1, r2
 80037f6:	0952      	lsrs	r2, r2, #5
 80037f8:	b2d2      	uxtb	r2, r2
 80037fa:	f002 020f 	and.w	r2, r2, #15
 80037fe:	b2d2      	uxtb	r2, r2
 8003800:	2a0f      	cmp	r2, #15
 8003802:	d903      	bls.n	800380c <stm32__usarts__set_baud_rate+0x98>
 8003804:	4815      	ldr	r0, [pc, #84]	; (800385c <stm32__usarts__set_baud_rate+0xe8>)
 8003806:	2195      	movs	r1, #149	; 0x95
 8003808:	f7fc fda0 	bl	800034c <__gnat_last_chance_handler>
 800380c:	f002 020f 	and.w	r2, r2, #15
 8003810:	b2d2      	uxtb	r2, r2
 8003812:	f362 0303 	bfi	r3, r2, #0, #4
 8003816:	687a      	ldr	r2, [r7, #4]
 8003818:	6852      	ldr	r2, [r2, #4]
 800381a:	3208      	adds	r2, #8
 800381c:	6013      	str	r3, [r2, #0]
 800381e:	68fb      	ldr	r3, [r7, #12]
 8003820:	f5b3 2fc8 	cmp.w	r3, #409600	; 0x64000
 8003824:	d303      	bcc.n	800382e <stm32__usarts__set_baud_rate+0xba>
 8003826:	480d      	ldr	r0, [pc, #52]	; (800385c <stm32__usarts__set_baud_rate+0xe8>)
 8003828:	2199      	movs	r1, #153	; 0x99
 800382a:	f7fc fd8f 	bl	800034c <__gnat_last_chance_handler>
 800382e:	687b      	ldr	r3, [r7, #4]
 8003830:	685b      	ldr	r3, [r3, #4]
 8003832:	3308      	adds	r3, #8
 8003834:	681b      	ldr	r3, [r3, #0]
 8003836:	68fa      	ldr	r2, [r7, #12]
 8003838:	4909      	ldr	r1, [pc, #36]	; (8003860 <stm32__usarts__set_baud_rate+0xec>)
 800383a:	fba1 1202 	umull	r1, r2, r1, r2
 800383e:	0952      	lsrs	r2, r2, #5
 8003840:	b292      	uxth	r2, r2
 8003842:	f3c2 020b 	ubfx	r2, r2, #0, #12
 8003846:	b292      	uxth	r2, r2
 8003848:	f362 130f 	bfi	r3, r2, #4, #12
 800384c:	687a      	ldr	r2, [r7, #4]
 800384e:	6852      	ldr	r2, [r2, #4]
 8003850:	3208      	adds	r2, #8
 8003852:	6013      	str	r3, [r2, #0]
 8003854:	3718      	adds	r7, #24
 8003856:	46bd      	mov	sp, r7
 8003858:	bd80      	pop	{r7, pc}
 800385a:	bf00      	nop
 800385c:	0800b40c 	.word	0x0800b40c
 8003860:	51eb851f 	.word	0x51eb851f

08003864 <stm32__usarts__set_oversampling_mode>:
 8003864:	b480      	push	{r7}
 8003866:	b083      	sub	sp, #12
 8003868:	af00      	add	r7, sp, #0
 800386a:	6078      	str	r0, [r7, #4]
 800386c:	460b      	mov	r3, r1
 800386e:	70fb      	strb	r3, [r7, #3]
 8003870:	bf00      	nop
 8003872:	370c      	adds	r7, #12
 8003874:	46bd      	mov	sp, r7
 8003876:	f85d 7b04 	ldr.w	r7, [sp], #4
 800387a:	4770      	bx	lr

0800387c <stm32__usarts__set_mode>:
 800387c:	b480      	push	{r7}
 800387e:	b083      	sub	sp, #12
 8003880:	af00      	add	r7, sp, #0
 8003882:	6078      	str	r0, [r7, #4]
 8003884:	460b      	mov	r3, r1
 8003886:	70fb      	strb	r3, [r7, #3]
 8003888:	687b      	ldr	r3, [r7, #4]
 800388a:	685b      	ldr	r3, [r3, #4]
 800388c:	330c      	adds	r3, #12
 800388e:	681b      	ldr	r3, [r3, #0]
 8003890:	78fa      	ldrb	r2, [r7, #3]
 8003892:	2a01      	cmp	r2, #1
 8003894:	bf14      	ite	ne
 8003896:	2201      	movne	r2, #1
 8003898:	2200      	moveq	r2, #0
 800389a:	b2d2      	uxtb	r2, r2
 800389c:	f002 0201 	and.w	r2, r2, #1
 80038a0:	b2d2      	uxtb	r2, r2
 80038a2:	f362 0382 	bfi	r3, r2, #2, #1
 80038a6:	687a      	ldr	r2, [r7, #4]
 80038a8:	6852      	ldr	r2, [r2, #4]
 80038aa:	320c      	adds	r2, #12
 80038ac:	6013      	str	r3, [r2, #0]
 80038ae:	687b      	ldr	r3, [r7, #4]
 80038b0:	685b      	ldr	r3, [r3, #4]
 80038b2:	330c      	adds	r3, #12
 80038b4:	681b      	ldr	r3, [r3, #0]
 80038b6:	78fa      	ldrb	r2, [r7, #3]
 80038b8:	2a00      	cmp	r2, #0
 80038ba:	bf14      	ite	ne
 80038bc:	2201      	movne	r2, #1
 80038be:	2200      	moveq	r2, #0
 80038c0:	b2d2      	uxtb	r2, r2
 80038c2:	f002 0201 	and.w	r2, r2, #1
 80038c6:	b2d2      	uxtb	r2, r2
 80038c8:	f362 03c3 	bfi	r3, r2, #3, #1
 80038cc:	687a      	ldr	r2, [r7, #4]
 80038ce:	6852      	ldr	r2, [r2, #4]
 80038d0:	320c      	adds	r2, #12
 80038d2:	6013      	str	r3, [r2, #0]
 80038d4:	370c      	adds	r7, #12
 80038d6:	46bd      	mov	sp, r7
 80038d8:	f85d 7b04 	ldr.w	r7, [sp], #4
 80038dc:	4770      	bx	lr
 80038de:	bf00      	nop

080038e0 <stm32__usarts__set_flow_control>:
 80038e0:	b580      	push	{r7, lr}
 80038e2:	b082      	sub	sp, #8
 80038e4:	af00      	add	r7, sp, #0
 80038e6:	6078      	str	r0, [r7, #4]
 80038e8:	460b      	mov	r3, r1
 80038ea:	70fb      	strb	r3, [r7, #3]
 80038ec:	78fb      	ldrb	r3, [r7, #3]
 80038ee:	2b03      	cmp	r3, #3
 80038f0:	d903      	bls.n	80038fa <stm32__usarts__set_flow_control+0x1a>
 80038f2:	4835      	ldr	r0, [pc, #212]	; (80039c8 <stm32__usarts__set_flow_control+0xe8>)
 80038f4:	21b9      	movs	r1, #185	; 0xb9
 80038f6:	f7fc fd29 	bl	800034c <__gnat_last_chance_handler>
 80038fa:	78fb      	ldrb	r3, [r7, #3]
 80038fc:	2b01      	cmp	r3, #1
 80038fe:	d019      	beq.n	8003934 <stm32__usarts__set_flow_control+0x54>
 8003900:	2b01      	cmp	r3, #1
 8003902:	d302      	bcc.n	800390a <stm32__usarts__set_flow_control+0x2a>
 8003904:	2b02      	cmp	r3, #2
 8003906:	d02c      	beq.n	8003962 <stm32__usarts__set_flow_control+0x82>
 8003908:	e042      	b.n	8003990 <stm32__usarts__set_flow_control+0xb0>
 800390a:	687b      	ldr	r3, [r7, #4]
 800390c:	685b      	ldr	r3, [r3, #4]
 800390e:	3314      	adds	r3, #20
 8003910:	681b      	ldr	r3, [r3, #0]
 8003912:	f36f 2308 	bfc	r3, #8, #1
 8003916:	687a      	ldr	r2, [r7, #4]
 8003918:	6852      	ldr	r2, [r2, #4]
 800391a:	3214      	adds	r2, #20
 800391c:	6013      	str	r3, [r2, #0]
 800391e:	687b      	ldr	r3, [r7, #4]
 8003920:	685b      	ldr	r3, [r3, #4]
 8003922:	3314      	adds	r3, #20
 8003924:	681b      	ldr	r3, [r3, #0]
 8003926:	f36f 2349 	bfc	r3, #9, #1
 800392a:	687a      	ldr	r2, [r7, #4]
 800392c:	6852      	ldr	r2, [r2, #4]
 800392e:	3214      	adds	r2, #20
 8003930:	6013      	str	r3, [r2, #0]
 8003932:	e045      	b.n	80039c0 <stm32__usarts__set_flow_control+0xe0>
 8003934:	687b      	ldr	r3, [r7, #4]
 8003936:	685b      	ldr	r3, [r3, #4]
 8003938:	3314      	adds	r3, #20
 800393a:	681b      	ldr	r3, [r3, #0]
 800393c:	461a      	mov	r2, r3
 800393e:	4613      	mov	r3, r2
 8003940:	f443 7280 	orr.w	r2, r3, #256	; 0x100
 8003944:	687b      	ldr	r3, [r7, #4]
 8003946:	685b      	ldr	r3, [r3, #4]
 8003948:	3314      	adds	r3, #20
 800394a:	601a      	str	r2, [r3, #0]
 800394c:	687b      	ldr	r3, [r7, #4]
 800394e:	685b      	ldr	r3, [r3, #4]
 8003950:	3314      	adds	r3, #20
 8003952:	681b      	ldr	r3, [r3, #0]
 8003954:	f36f 2349 	bfc	r3, #9, #1
 8003958:	687a      	ldr	r2, [r7, #4]
 800395a:	6852      	ldr	r2, [r2, #4]
 800395c:	3214      	adds	r2, #20
 800395e:	6013      	str	r3, [r2, #0]
 8003960:	e02e      	b.n	80039c0 <stm32__usarts__set_flow_control+0xe0>
 8003962:	687b      	ldr	r3, [r7, #4]
 8003964:	685b      	ldr	r3, [r3, #4]
 8003966:	3314      	adds	r3, #20
 8003968:	681b      	ldr	r3, [r3, #0]
 800396a:	f36f 2308 	bfc	r3, #8, #1
 800396e:	687a      	ldr	r2, [r7, #4]
 8003970:	6852      	ldr	r2, [r2, #4]
 8003972:	3214      	adds	r2, #20
 8003974:	6013      	str	r3, [r2, #0]
 8003976:	687b      	ldr	r3, [r7, #4]
 8003978:	685b      	ldr	r3, [r3, #4]
 800397a:	3314      	adds	r3, #20
 800397c:	681b      	ldr	r3, [r3, #0]
 800397e:	461a      	mov	r2, r3
 8003980:	4613      	mov	r3, r2
 8003982:	f443 7200 	orr.w	r2, r3, #512	; 0x200
 8003986:	687b      	ldr	r3, [r7, #4]
 8003988:	685b      	ldr	r3, [r3, #4]
 800398a:	3314      	adds	r3, #20
 800398c:	601a      	str	r2, [r3, #0]
 800398e:	e017      	b.n	80039c0 <stm32__usarts__set_flow_control+0xe0>
 8003990:	687b      	ldr	r3, [r7, #4]
 8003992:	685b      	ldr	r3, [r3, #4]
 8003994:	3314      	adds	r3, #20
 8003996:	681b      	ldr	r3, [r3, #0]
 8003998:	461a      	mov	r2, r3
 800399a:	4613      	mov	r3, r2
 800399c:	f443 7280 	orr.w	r2, r3, #256	; 0x100
 80039a0:	687b      	ldr	r3, [r7, #4]
 80039a2:	685b      	ldr	r3, [r3, #4]
 80039a4:	3314      	adds	r3, #20
 80039a6:	601a      	str	r2, [r3, #0]
 80039a8:	687b      	ldr	r3, [r7, #4]
 80039aa:	685b      	ldr	r3, [r3, #4]
 80039ac:	3314      	adds	r3, #20
 80039ae:	681b      	ldr	r3, [r3, #0]
 80039b0:	461a      	mov	r2, r3
 80039b2:	4613      	mov	r3, r2
 80039b4:	f443 7200 	orr.w	r2, r3, #512	; 0x200
 80039b8:	687b      	ldr	r3, [r7, #4]
 80039ba:	685b      	ldr	r3, [r3, #4]
 80039bc:	3314      	adds	r3, #20
 80039be:	601a      	str	r2, [r3, #0]
 80039c0:	bf00      	nop
 80039c2:	3708      	adds	r7, #8
 80039c4:	46bd      	mov	sp, r7
 80039c6:	bd80      	pop	{r7, pc}
 80039c8:	0800b40c 	.word	0x0800b40c

080039cc <stm32__usarts__transmit>:
 80039cc:	b480      	push	{r7}
 80039ce:	b083      	sub	sp, #12
 80039d0:	af00      	add	r7, sp, #0
 80039d2:	6078      	str	r0, [r7, #4]
 80039d4:	460b      	mov	r3, r1
 80039d6:	807b      	strh	r3, [r7, #2]
 80039d8:	687b      	ldr	r3, [r7, #4]
 80039da:	685b      	ldr	r3, [r3, #4]
 80039dc:	3304      	adds	r3, #4
 80039de:	681b      	ldr	r3, [r3, #0]
 80039e0:	887a      	ldrh	r2, [r7, #2]
 80039e2:	f3c2 0208 	ubfx	r2, r2, #0, #9
 80039e6:	b292      	uxth	r2, r2
 80039e8:	f362 0308 	bfi	r3, r2, #0, #9
 80039ec:	687a      	ldr	r2, [r7, #4]
 80039ee:	6852      	ldr	r2, [r2, #4]
 80039f0:	3204      	adds	r2, #4
 80039f2:	6013      	str	r3, [r2, #0]
 80039f4:	370c      	adds	r7, #12
 80039f6:	46bd      	mov	sp, r7
 80039f8:	f85d 7b04 	ldr.w	r7, [sp], #4
 80039fc:	4770      	bx	lr
 80039fe:	bf00      	nop

08003a00 <stm32__usarts__receive>:
 8003a00:	b580      	push	{r7, lr}
 8003a02:	b084      	sub	sp, #16
 8003a04:	af00      	add	r7, sp, #0
 8003a06:	6078      	str	r0, [r7, #4]
 8003a08:	6878      	ldr	r0, [r7, #4]
 8003a0a:	f000 f809 	bl	8003a20 <stm32__usarts__current_input>
 8003a0e:	4603      	mov	r3, r0
 8003a10:	81fb      	strh	r3, [r7, #14]
 8003a12:	89fb      	ldrh	r3, [r7, #14]
 8003a14:	bf00      	nop
 8003a16:	4618      	mov	r0, r3
 8003a18:	3710      	adds	r7, #16
 8003a1a:	46bd      	mov	sp, r7
 8003a1c:	bd80      	pop	{r7, pc}
 8003a1e:	bf00      	nop

08003a20 <stm32__usarts__current_input>:
 8003a20:	b480      	push	{r7}
 8003a22:	b083      	sub	sp, #12
 8003a24:	af00      	add	r7, sp, #0
 8003a26:	6078      	str	r0, [r7, #4]
 8003a28:	687b      	ldr	r3, [r7, #4]
 8003a2a:	685b      	ldr	r3, [r3, #4]
 8003a2c:	3304      	adds	r3, #4
 8003a2e:	681b      	ldr	r3, [r3, #0]
 8003a30:	f3c3 0308 	ubfx	r3, r3, #0, #9
 8003a34:	b29b      	uxth	r3, r3
 8003a36:	bf00      	nop
 8003a38:	4618      	mov	r0, r3
 8003a3a:	370c      	adds	r7, #12
 8003a3c:	46bd      	mov	sp, r7
 8003a3e:	f85d 7b04 	ldr.w	r7, [sp], #4
 8003a42:	4770      	bx	lr

08003a44 <stm32__usarts__tx_ready>:
 8003a44:	b480      	push	{r7}
 8003a46:	b083      	sub	sp, #12
 8003a48:	af00      	add	r7, sp, #0
 8003a4a:	6078      	str	r0, [r7, #4]
 8003a4c:	687b      	ldr	r3, [r7, #4]
 8003a4e:	685b      	ldr	r3, [r3, #4]
 8003a50:	681b      	ldr	r3, [r3, #0]
 8003a52:	f3c3 13c0 	ubfx	r3, r3, #7, #1
 8003a56:	b2db      	uxtb	r3, r3
 8003a58:	bf00      	nop
 8003a5a:	4618      	mov	r0, r3
 8003a5c:	370c      	adds	r7, #12
 8003a5e:	46bd      	mov	sp, r7
 8003a60:	f85d 7b04 	ldr.w	r7, [sp], #4
 8003a64:	4770      	bx	lr
 8003a66:	bf00      	nop

08003a68 <stm32__usarts__rx_ready>:
 8003a68:	b480      	push	{r7}
 8003a6a:	b083      	sub	sp, #12
 8003a6c:	af00      	add	r7, sp, #0
 8003a6e:	6078      	str	r0, [r7, #4]
 8003a70:	687b      	ldr	r3, [r7, #4]
 8003a72:	685b      	ldr	r3, [r3, #4]
 8003a74:	681b      	ldr	r3, [r3, #0]
 8003a76:	f3c3 1340 	ubfx	r3, r3, #5, #1
 8003a7a:	b2db      	uxtb	r3, r3
 8003a7c:	bf00      	nop
 8003a7e:	4618      	mov	r0, r3
 8003a80:	370c      	adds	r7, #12
 8003a82:	46bd      	mov	sp, r7
 8003a84:	f85d 7b04 	ldr.w	r7, [sp], #4
 8003a88:	4770      	bx	lr
 8003a8a:	bf00      	nop

08003a8c <stm32__usarts__status>:
 8003a8c:	b580      	push	{r7, lr}
 8003a8e:	b082      	sub	sp, #8
 8003a90:	af00      	add	r7, sp, #0
 8003a92:	6078      	str	r0, [r7, #4]
 8003a94:	460b      	mov	r3, r1
 8003a96:	70fb      	strb	r3, [r7, #3]
 8003a98:	78fb      	ldrb	r3, [r7, #3]
 8003a9a:	2b08      	cmp	r3, #8
 8003a9c:	d903      	bls.n	8003aa6 <stm32__usarts__status+0x1a>
 8003a9e:	482f      	ldr	r0, [pc, #188]	; (8003b5c <stm32__usarts__status+0xd0>)
 8003aa0:	21f9      	movs	r1, #249	; 0xf9
 8003aa2:	f7fc fc53 	bl	800034c <__gnat_last_chance_handler>
 8003aa6:	78fb      	ldrb	r3, [r7, #3]
 8003aa8:	2b07      	cmp	r3, #7
 8003aaa:	d84b      	bhi.n	8003b44 <stm32__usarts__status+0xb8>
 8003aac:	a201      	add	r2, pc, #4	; (adr r2, 8003ab4 <stm32__usarts__status+0x28>)
 8003aae:	f852 f023 	ldr.w	pc, [r2, r3, lsl #2]
 8003ab2:	bf00      	nop
 8003ab4:	08003ad5 	.word	0x08003ad5
 8003ab8:	08003ae3 	.word	0x08003ae3
 8003abc:	08003af1 	.word	0x08003af1
 8003ac0:	08003aff 	.word	0x08003aff
 8003ac4:	08003b0d 	.word	0x08003b0d
 8003ac8:	08003b1b 	.word	0x08003b1b
 8003acc:	08003b29 	.word	0x08003b29
 8003ad0:	08003b37 	.word	0x08003b37
 8003ad4:	687b      	ldr	r3, [r7, #4]
 8003ad6:	685b      	ldr	r3, [r3, #4]
 8003ad8:	681b      	ldr	r3, [r3, #0]
 8003ada:	f3c3 0300 	ubfx	r3, r3, #0, #1
 8003ade:	b2db      	uxtb	r3, r3
 8003ae0:	e037      	b.n	8003b52 <stm32__usarts__status+0xc6>
 8003ae2:	687b      	ldr	r3, [r7, #4]
 8003ae4:	685b      	ldr	r3, [r3, #4]
 8003ae6:	681b      	ldr	r3, [r3, #0]
 8003ae8:	f3c3 0340 	ubfx	r3, r3, #1, #1
 8003aec:	b2db      	uxtb	r3, r3
 8003aee:	e030      	b.n	8003b52 <stm32__usarts__status+0xc6>
 8003af0:	687b      	ldr	r3, [r7, #4]
 8003af2:	685b      	ldr	r3, [r3, #4]
 8003af4:	681b      	ldr	r3, [r3, #0]
 8003af6:	f3c3 03c0 	ubfx	r3, r3, #3, #1
 8003afa:	b2db      	uxtb	r3, r3
 8003afc:	e029      	b.n	8003b52 <stm32__usarts__status+0xc6>
 8003afe:	687b      	ldr	r3, [r7, #4]
 8003b00:	685b      	ldr	r3, [r3, #4]
 8003b02:	681b      	ldr	r3, [r3, #0]
 8003b04:	f3c3 1300 	ubfx	r3, r3, #4, #1
 8003b08:	b2db      	uxtb	r3, r3
 8003b0a:	e022      	b.n	8003b52 <stm32__usarts__status+0xc6>
 8003b0c:	687b      	ldr	r3, [r7, #4]
 8003b0e:	685b      	ldr	r3, [r3, #4]
 8003b10:	681b      	ldr	r3, [r3, #0]
 8003b12:	f3c3 1340 	ubfx	r3, r3, #5, #1
 8003b16:	b2db      	uxtb	r3, r3
 8003b18:	e01b      	b.n	8003b52 <stm32__usarts__status+0xc6>
 8003b1a:	687b      	ldr	r3, [r7, #4]
 8003b1c:	685b      	ldr	r3, [r3, #4]
 8003b1e:	681b      	ldr	r3, [r3, #0]
 8003b20:	f3c3 1380 	ubfx	r3, r3, #6, #1
 8003b24:	b2db      	uxtb	r3, r3
 8003b26:	e014      	b.n	8003b52 <stm32__usarts__status+0xc6>
 8003b28:	687b      	ldr	r3, [r7, #4]
 8003b2a:	685b      	ldr	r3, [r3, #4]
 8003b2c:	681b      	ldr	r3, [r3, #0]
 8003b2e:	f3c3 13c0 	ubfx	r3, r3, #7, #1
 8003b32:	b2db      	uxtb	r3, r3
 8003b34:	e00d      	b.n	8003b52 <stm32__usarts__status+0xc6>
 8003b36:	687b      	ldr	r3, [r7, #4]
 8003b38:	685b      	ldr	r3, [r3, #4]
 8003b3a:	681b      	ldr	r3, [r3, #0]
 8003b3c:	f3c3 2300 	ubfx	r3, r3, #8, #1
 8003b40:	b2db      	uxtb	r3, r3
 8003b42:	e006      	b.n	8003b52 <stm32__usarts__status+0xc6>
 8003b44:	687b      	ldr	r3, [r7, #4]
 8003b46:	685b      	ldr	r3, [r3, #4]
 8003b48:	681b      	ldr	r3, [r3, #0]
 8003b4a:	f3c3 2340 	ubfx	r3, r3, #9, #1
 8003b4e:	b2db      	uxtb	r3, r3
 8003b50:	bf00      	nop
 8003b52:	bf00      	nop
 8003b54:	4618      	mov	r0, r3
 8003b56:	3708      	adds	r7, #8
 8003b58:	46bd      	mov	sp, r7
 8003b5a:	bd80      	pop	{r7, pc}
 8003b5c:	0800b40c 	.word	0x0800b40c

08003b60 <stm32__usarts__clear_status>:
 8003b60:	b580      	push	{r7, lr}
 8003b62:	b082      	sub	sp, #8
 8003b64:	af00      	add	r7, sp, #0
 8003b66:	6078      	str	r0, [r7, #4]
 8003b68:	460b      	mov	r3, r1
 8003b6a:	70fb      	strb	r3, [r7, #3]
 8003b6c:	78fb      	ldrb	r3, [r7, #3]
 8003b6e:	2b08      	cmp	r3, #8
 8003b70:	d904      	bls.n	8003b7c <stm32__usarts__clear_status+0x1c>
 8003b72:	4837      	ldr	r0, [pc, #220]	; (8003c50 <stm32__usarts__clear_status+0xf0>)
 8003b74:	f240 1117 	movw	r1, #279	; 0x117
 8003b78:	f7fc fbe8 	bl	800034c <__gnat_last_chance_handler>
 8003b7c:	78fb      	ldrb	r3, [r7, #3]
 8003b7e:	2b07      	cmp	r3, #7
 8003b80:	d85a      	bhi.n	8003c38 <stm32__usarts__clear_status+0xd8>
 8003b82:	a201      	add	r2, pc, #4	; (adr r2, 8003b88 <stm32__usarts__clear_status+0x28>)
 8003b84:	f852 f023 	ldr.w	pc, [r2, r3, lsl #2]
 8003b88:	08003ba9 	.word	0x08003ba9
 8003b8c:	08003bbb 	.word	0x08003bbb
 8003b90:	08003bcd 	.word	0x08003bcd
 8003b94:	08003bdf 	.word	0x08003bdf
 8003b98:	08003bf1 	.word	0x08003bf1
 8003b9c:	08003c03 	.word	0x08003c03
 8003ba0:	08003c15 	.word	0x08003c15
 8003ba4:	08003c27 	.word	0x08003c27
 8003ba8:	687b      	ldr	r3, [r7, #4]
 8003baa:	685b      	ldr	r3, [r3, #4]
 8003bac:	681b      	ldr	r3, [r3, #0]
 8003bae:	f36f 0300 	bfc	r3, #0, #1
 8003bb2:	687a      	ldr	r2, [r7, #4]
 8003bb4:	6852      	ldr	r2, [r2, #4]
 8003bb6:	6013      	str	r3, [r2, #0]
 8003bb8:	e046      	b.n	8003c48 <stm32__usarts__clear_status+0xe8>
 8003bba:	687b      	ldr	r3, [r7, #4]
 8003bbc:	685b      	ldr	r3, [r3, #4]
 8003bbe:	681b      	ldr	r3, [r3, #0]
 8003bc0:	f36f 0341 	bfc	r3, #1, #1
 8003bc4:	687a      	ldr	r2, [r7, #4]
 8003bc6:	6852      	ldr	r2, [r2, #4]
 8003bc8:	6013      	str	r3, [r2, #0]
 8003bca:	e03d      	b.n	8003c48 <stm32__usarts__clear_status+0xe8>
 8003bcc:	687b      	ldr	r3, [r7, #4]
 8003bce:	685b      	ldr	r3, [r3, #4]
 8003bd0:	681b      	ldr	r3, [r3, #0]
 8003bd2:	f36f 03c3 	bfc	r3, #3, #1
 8003bd6:	687a      	ldr	r2, [r7, #4]
 8003bd8:	6852      	ldr	r2, [r2, #4]
 8003bda:	6013      	str	r3, [r2, #0]
 8003bdc:	e034      	b.n	8003c48 <stm32__usarts__clear_status+0xe8>
 8003bde:	687b      	ldr	r3, [r7, #4]
 8003be0:	685b      	ldr	r3, [r3, #4]
 8003be2:	681b      	ldr	r3, [r3, #0]
 8003be4:	f36f 1304 	bfc	r3, #4, #1
 8003be8:	687a      	ldr	r2, [r7, #4]
 8003bea:	6852      	ldr	r2, [r2, #4]
 8003bec:	6013      	str	r3, [r2, #0]
 8003bee:	e02b      	b.n	8003c48 <stm32__usarts__clear_status+0xe8>
 8003bf0:	687b      	ldr	r3, [r7, #4]
 8003bf2:	685b      	ldr	r3, [r3, #4]
 8003bf4:	681b      	ldr	r3, [r3, #0]
 8003bf6:	f36f 1345 	bfc	r3, #5, #1
 8003bfa:	687a      	ldr	r2, [r7, #4]
 8003bfc:	6852      	ldr	r2, [r2, #4]
 8003bfe:	6013      	str	r3, [r2, #0]
 8003c00:	e022      	b.n	8003c48 <stm32__usarts__clear_status+0xe8>
 8003c02:	687b      	ldr	r3, [r7, #4]
 8003c04:	685b      	ldr	r3, [r3, #4]
 8003c06:	681b      	ldr	r3, [r3, #0]
 8003c08:	f36f 1386 	bfc	r3, #6, #1
 8003c0c:	687a      	ldr	r2, [r7, #4]
 8003c0e:	6852      	ldr	r2, [r2, #4]
 8003c10:	6013      	str	r3, [r2, #0]
 8003c12:	e019      	b.n	8003c48 <stm32__usarts__clear_status+0xe8>
 8003c14:	687b      	ldr	r3, [r7, #4]
 8003c16:	685b      	ldr	r3, [r3, #4]
 8003c18:	681b      	ldr	r3, [r3, #0]
 8003c1a:	f36f 13c7 	bfc	r3, #7, #1
 8003c1e:	687a      	ldr	r2, [r7, #4]
 8003c20:	6852      	ldr	r2, [r2, #4]
 8003c22:	6013      	str	r3, [r2, #0]
 8003c24:	e010      	b.n	8003c48 <stm32__usarts__clear_status+0xe8>
 8003c26:	687b      	ldr	r3, [r7, #4]
 8003c28:	685b      	ldr	r3, [r3, #4]
 8003c2a:	681b      	ldr	r3, [r3, #0]
 8003c2c:	f36f 2308 	bfc	r3, #8, #1
 8003c30:	687a      	ldr	r2, [r7, #4]
 8003c32:	6852      	ldr	r2, [r2, #4]
 8003c34:	6013      	str	r3, [r2, #0]
 8003c36:	e007      	b.n	8003c48 <stm32__usarts__clear_status+0xe8>
 8003c38:	687b      	ldr	r3, [r7, #4]
 8003c3a:	685b      	ldr	r3, [r3, #4]
 8003c3c:	681b      	ldr	r3, [r3, #0]
 8003c3e:	f36f 2349 	bfc	r3, #9, #1
 8003c42:	687a      	ldr	r2, [r7, #4]
 8003c44:	6852      	ldr	r2, [r2, #4]
 8003c46:	6013      	str	r3, [r2, #0]
 8003c48:	bf00      	nop
 8003c4a:	3708      	adds	r7, #8
 8003c4c:	46bd      	mov	sp, r7
 8003c4e:	bd80      	pop	{r7, pc}
 8003c50:	0800b40c 	.word	0x0800b40c

08003c54 <stm32__usarts__enable_interrupts___postconditions.4841>:
 8003c54:	b5b0      	push	{r4, r5, r7, lr}
 8003c56:	b082      	sub	sp, #8
 8003c58:	af00      	add	r7, sp, #0
 8003c5a:	4663      	mov	r3, ip
 8003c5c:	f8c7 c004 	str.w	ip, [r7, #4]
 8003c60:	681a      	ldr	r2, [r3, #0]
 8003c62:	791b      	ldrb	r3, [r3, #4]
 8003c64:	4610      	mov	r0, r2
 8003c66:	4619      	mov	r1, r3
 8003c68:	f000 f958 	bl	8003f1c <stm32__usarts__interrupt_enabled>
 8003c6c:	4603      	mov	r3, r0
 8003c6e:	f083 0301 	eor.w	r3, r3, #1
 8003c72:	b2db      	uxtb	r3, r3
 8003c74:	2b00      	cmp	r3, #0
 8003c76:	d005      	beq.n	8003c84 <stm32__usarts__enable_interrupts___postconditions.4841+0x30>
 8003c78:	4c04      	ldr	r4, [pc, #16]	; (8003c8c <stm32__usarts__enable_interrupts___postconditions.4841+0x38>)
 8003c7a:	4d05      	ldr	r5, [pc, #20]	; (8003c90 <stm32__usarts__enable_interrupts___postconditions.4841+0x3c>)
 8003c7c:	4620      	mov	r0, r4
 8003c7e:	4629      	mov	r1, r5
 8003c80:	f006 fc9a 	bl	800a5b8 <system__assertions__raise_assert_failure>
 8003c84:	3708      	adds	r7, #8
 8003c86:	46bd      	mov	sp, r7
 8003c88:	bdb0      	pop	{r4, r5, r7, pc}
 8003c8a:	bf00      	nop
 8003c8c:	0800b420 	.word	0x0800b420
 8003c90:	0800b450 	.word	0x0800b450

08003c94 <stm32__usarts__enable_interrupts>:
 8003c94:	b580      	push	{r7, lr}
 8003c96:	b086      	sub	sp, #24
 8003c98:	af00      	add	r7, sp, #0
 8003c9a:	6078      	str	r0, [r7, #4]
 8003c9c:	460b      	mov	r3, r1
 8003c9e:	70fb      	strb	r3, [r7, #3]
 8003ca0:	f107 0320 	add.w	r3, r7, #32
 8003ca4:	617b      	str	r3, [r7, #20]
 8003ca6:	687b      	ldr	r3, [r7, #4]
 8003ca8:	60fb      	str	r3, [r7, #12]
 8003caa:	78fb      	ldrb	r3, [r7, #3]
 8003cac:	743b      	strb	r3, [r7, #16]
 8003cae:	7c3b      	ldrb	r3, [r7, #16]
 8003cb0:	2b07      	cmp	r3, #7
 8003cb2:	d904      	bls.n	8003cbe <stm32__usarts__enable_interrupts+0x2a>
 8003cb4:	4844      	ldr	r0, [pc, #272]	; (8003dc8 <stm32__usarts__enable_interrupts+0x134>)
 8003cb6:	f44f 719c 	mov.w	r1, #312	; 0x138
 8003cba:	f7fc fb47 	bl	800034c <__gnat_last_chance_handler>
 8003cbe:	7c3b      	ldrb	r3, [r7, #16]
 8003cc0:	2b06      	cmp	r3, #6
 8003cc2:	d86c      	bhi.n	8003d9e <stm32__usarts__enable_interrupts+0x10a>
 8003cc4:	a201      	add	r2, pc, #4	; (adr r2, 8003ccc <stm32__usarts__enable_interrupts+0x38>)
 8003cc6:	f852 f023 	ldr.w	pc, [r2, r3, lsl #2]
 8003cca:	bf00      	nop
 8003ccc:	08003ce9 	.word	0x08003ce9
 8003cd0:	08003d03 	.word	0x08003d03
 8003cd4:	08003d1d 	.word	0x08003d1d
 8003cd8:	08003d37 	.word	0x08003d37
 8003cdc:	08003d51 	.word	0x08003d51
 8003ce0:	08003d6b 	.word	0x08003d6b
 8003ce4:	08003d85 	.word	0x08003d85
 8003ce8:	68fb      	ldr	r3, [r7, #12]
 8003cea:	685b      	ldr	r3, [r3, #4]
 8003cec:	330c      	adds	r3, #12
 8003cee:	681b      	ldr	r3, [r3, #0]
 8003cf0:	461a      	mov	r2, r3
 8003cf2:	4613      	mov	r3, r2
 8003cf4:	f443 7280 	orr.w	r2, r3, #256	; 0x100
 8003cf8:	68fb      	ldr	r3, [r7, #12]
 8003cfa:	685b      	ldr	r3, [r3, #4]
 8003cfc:	330c      	adds	r3, #12
 8003cfe:	601a      	str	r2, [r3, #0]
 8003d00:	e059      	b.n	8003db6 <stm32__usarts__enable_interrupts+0x122>
 8003d02:	68fb      	ldr	r3, [r7, #12]
 8003d04:	685b      	ldr	r3, [r3, #4]
 8003d06:	330c      	adds	r3, #12
 8003d08:	681b      	ldr	r3, [r3, #0]
 8003d0a:	461a      	mov	r2, r3
 8003d0c:	4613      	mov	r3, r2
 8003d0e:	f043 0280 	orr.w	r2, r3, #128	; 0x80
 8003d12:	68fb      	ldr	r3, [r7, #12]
 8003d14:	685b      	ldr	r3, [r3, #4]
 8003d16:	330c      	adds	r3, #12
 8003d18:	601a      	str	r2, [r3, #0]
 8003d1a:	e04c      	b.n	8003db6 <stm32__usarts__enable_interrupts+0x122>
 8003d1c:	68fb      	ldr	r3, [r7, #12]
 8003d1e:	685b      	ldr	r3, [r3, #4]
 8003d20:	330c      	adds	r3, #12
 8003d22:	681b      	ldr	r3, [r3, #0]
 8003d24:	461a      	mov	r2, r3
 8003d26:	4613      	mov	r3, r2
 8003d28:	f043 0240 	orr.w	r2, r3, #64	; 0x40
 8003d2c:	68fb      	ldr	r3, [r7, #12]
 8003d2e:	685b      	ldr	r3, [r3, #4]
 8003d30:	330c      	adds	r3, #12
 8003d32:	601a      	str	r2, [r3, #0]
 8003d34:	e03f      	b.n	8003db6 <stm32__usarts__enable_interrupts+0x122>
 8003d36:	68fb      	ldr	r3, [r7, #12]
 8003d38:	685b      	ldr	r3, [r3, #4]
 8003d3a:	330c      	adds	r3, #12
 8003d3c:	681b      	ldr	r3, [r3, #0]
 8003d3e:	461a      	mov	r2, r3
 8003d40:	4613      	mov	r3, r2
 8003d42:	f043 0220 	orr.w	r2, r3, #32
 8003d46:	68fb      	ldr	r3, [r7, #12]
 8003d48:	685b      	ldr	r3, [r3, #4]
 8003d4a:	330c      	adds	r3, #12
 8003d4c:	601a      	str	r2, [r3, #0]
 8003d4e:	e032      	b.n	8003db6 <stm32__usarts__enable_interrupts+0x122>
 8003d50:	68fb      	ldr	r3, [r7, #12]
 8003d52:	685b      	ldr	r3, [r3, #4]
 8003d54:	330c      	adds	r3, #12
 8003d56:	681b      	ldr	r3, [r3, #0]
 8003d58:	461a      	mov	r2, r3
 8003d5a:	4613      	mov	r3, r2
 8003d5c:	f043 0210 	orr.w	r2, r3, #16
 8003d60:	68fb      	ldr	r3, [r7, #12]
 8003d62:	685b      	ldr	r3, [r3, #4]
 8003d64:	330c      	adds	r3, #12
 8003d66:	601a      	str	r2, [r3, #0]
 8003d68:	e025      	b.n	8003db6 <stm32__usarts__enable_interrupts+0x122>
 8003d6a:	68fb      	ldr	r3, [r7, #12]
 8003d6c:	685b      	ldr	r3, [r3, #4]
 8003d6e:	3310      	adds	r3, #16
 8003d70:	681b      	ldr	r3, [r3, #0]
 8003d72:	461a      	mov	r2, r3
 8003d74:	4613      	mov	r3, r2
 8003d76:	f043 0240 	orr.w	r2, r3, #64	; 0x40
 8003d7a:	68fb      	ldr	r3, [r7, #12]
 8003d7c:	685b      	ldr	r3, [r3, #4]
 8003d7e:	3310      	adds	r3, #16
 8003d80:	601a      	str	r2, [r3, #0]
 8003d82:	e018      	b.n	8003db6 <stm32__usarts__enable_interrupts+0x122>
 8003d84:	68fb      	ldr	r3, [r7, #12]
 8003d86:	685b      	ldr	r3, [r3, #4]
 8003d88:	3314      	adds	r3, #20
 8003d8a:	681b      	ldr	r3, [r3, #0]
 8003d8c:	461a      	mov	r2, r3
 8003d8e:	4613      	mov	r3, r2
 8003d90:	f443 6280 	orr.w	r2, r3, #1024	; 0x400
 8003d94:	68fb      	ldr	r3, [r7, #12]
 8003d96:	685b      	ldr	r3, [r3, #4]
 8003d98:	3314      	adds	r3, #20
 8003d9a:	601a      	str	r2, [r3, #0]
 8003d9c:	e00b      	b.n	8003db6 <stm32__usarts__enable_interrupts+0x122>
 8003d9e:	68fb      	ldr	r3, [r7, #12]
 8003da0:	685b      	ldr	r3, [r3, #4]
 8003da2:	3314      	adds	r3, #20
 8003da4:	681b      	ldr	r3, [r3, #0]
 8003da6:	461a      	mov	r2, r3
 8003da8:	4613      	mov	r3, r2
 8003daa:	f043 0201 	orr.w	r2, r3, #1
 8003dae:	68fb      	ldr	r3, [r7, #12]
 8003db0:	685b      	ldr	r3, [r3, #4]
 8003db2:	3314      	adds	r3, #20
 8003db4:	601a      	str	r2, [r3, #0]
 8003db6:	bf00      	nop
 8003db8:	f107 030c 	add.w	r3, r7, #12
 8003dbc:	469c      	mov	ip, r3
 8003dbe:	f7ff ff49 	bl	8003c54 <stm32__usarts__enable_interrupts___postconditions.4841>
 8003dc2:	3718      	adds	r7, #24
 8003dc4:	46bd      	mov	sp, r7
 8003dc6:	bd80      	pop	{r7, pc}
 8003dc8:	0800b40c 	.word	0x0800b40c

08003dcc <stm32__usarts__disable_interrupts___postconditions.4854>:
 8003dcc:	b5b0      	push	{r4, r5, r7, lr}
 8003dce:	b082      	sub	sp, #8
 8003dd0:	af00      	add	r7, sp, #0
 8003dd2:	4663      	mov	r3, ip
 8003dd4:	f8c7 c004 	str.w	ip, [r7, #4]
 8003dd8:	681a      	ldr	r2, [r3, #0]
 8003dda:	791b      	ldrb	r3, [r3, #4]
 8003ddc:	4610      	mov	r0, r2
 8003dde:	4619      	mov	r1, r3
 8003de0:	f000 f89c 	bl	8003f1c <stm32__usarts__interrupt_enabled>
 8003de4:	4603      	mov	r3, r0
 8003de6:	2b00      	cmp	r3, #0
 8003de8:	d005      	beq.n	8003df6 <stm32__usarts__disable_interrupts___postconditions.4854+0x2a>
 8003dea:	4c04      	ldr	r4, [pc, #16]	; (8003dfc <stm32__usarts__disable_interrupts___postconditions.4854+0x30>)
 8003dec:	4d04      	ldr	r5, [pc, #16]	; (8003e00 <stm32__usarts__disable_interrupts___postconditions.4854+0x34>)
 8003dee:	4620      	mov	r0, r4
 8003df0:	4629      	mov	r1, r5
 8003df2:	f006 fbe1 	bl	800a5b8 <system__assertions__raise_assert_failure>
 8003df6:	3708      	adds	r7, #8
 8003df8:	46bd      	mov	sp, r7
 8003dfa:	bdb0      	pop	{r4, r5, r7, pc}
 8003dfc:	0800b458 	.word	0x0800b458
 8003e00:	0800b450 	.word	0x0800b450

08003e04 <stm32__usarts__disable_interrupts>:
 8003e04:	b580      	push	{r7, lr}
 8003e06:	b086      	sub	sp, #24
 8003e08:	af00      	add	r7, sp, #0
 8003e0a:	6078      	str	r0, [r7, #4]
 8003e0c:	460b      	mov	r3, r1
 8003e0e:	70fb      	strb	r3, [r7, #3]
 8003e10:	f107 0320 	add.w	r3, r7, #32
 8003e14:	617b      	str	r3, [r7, #20]
 8003e16:	687b      	ldr	r3, [r7, #4]
 8003e18:	60fb      	str	r3, [r7, #12]
 8003e1a:	78fb      	ldrb	r3, [r7, #3]
 8003e1c:	743b      	strb	r3, [r7, #16]
 8003e1e:	7c3b      	ldrb	r3, [r7, #16]
 8003e20:	2b07      	cmp	r3, #7
 8003e22:	d904      	bls.n	8003e2e <stm32__usarts__disable_interrupts+0x2a>
 8003e24:	483c      	ldr	r0, [pc, #240]	; (8003f18 <stm32__usarts__disable_interrupts+0x114>)
 8003e26:	f240 1155 	movw	r1, #341	; 0x155
 8003e2a:	f7fc fa8f 	bl	800034c <__gnat_last_chance_handler>
 8003e2e:	7c3b      	ldrb	r3, [r7, #16]
 8003e30:	2b06      	cmp	r3, #6
 8003e32:	d85e      	bhi.n	8003ef2 <stm32__usarts__disable_interrupts+0xee>
 8003e34:	a201      	add	r2, pc, #4	; (adr r2, 8003e3c <stm32__usarts__disable_interrupts+0x38>)
 8003e36:	f852 f023 	ldr.w	pc, [r2, r3, lsl #2]
 8003e3a:	bf00      	nop
 8003e3c:	08003e59 	.word	0x08003e59
 8003e40:	08003e6f 	.word	0x08003e6f
 8003e44:	08003e85 	.word	0x08003e85
 8003e48:	08003e9b 	.word	0x08003e9b
 8003e4c:	08003eb1 	.word	0x08003eb1
 8003e50:	08003ec7 	.word	0x08003ec7
 8003e54:	08003edd 	.word	0x08003edd
 8003e58:	68fb      	ldr	r3, [r7, #12]
 8003e5a:	685b      	ldr	r3, [r3, #4]
 8003e5c:	330c      	adds	r3, #12
 8003e5e:	681b      	ldr	r3, [r3, #0]
 8003e60:	f36f 2308 	bfc	r3, #8, #1
 8003e64:	68fa      	ldr	r2, [r7, #12]
 8003e66:	6852      	ldr	r2, [r2, #4]
 8003e68:	320c      	adds	r2, #12
 8003e6a:	6013      	str	r3, [r2, #0]
 8003e6c:	e04b      	b.n	8003f06 <stm32__usarts__disable_interrupts+0x102>
 8003e6e:	68fb      	ldr	r3, [r7, #12]
 8003e70:	685b      	ldr	r3, [r3, #4]
 8003e72:	330c      	adds	r3, #12
 8003e74:	681b      	ldr	r3, [r3, #0]
 8003e76:	f36f 13c7 	bfc	r3, #7, #1
 8003e7a:	68fa      	ldr	r2, [r7, #12]
 8003e7c:	6852      	ldr	r2, [r2, #4]
 8003e7e:	320c      	adds	r2, #12
 8003e80:	6013      	str	r3, [r2, #0]
 8003e82:	e040      	b.n	8003f06 <stm32__usarts__disable_interrupts+0x102>
 8003e84:	68fb      	ldr	r3, [r7, #12]
 8003e86:	685b      	ldr	r3, [r3, #4]
 8003e88:	330c      	adds	r3, #12
 8003e8a:	681b      	ldr	r3, [r3, #0]
 8003e8c:	f36f 1386 	bfc	r3, #6, #1
 8003e90:	68fa      	ldr	r2, [r7, #12]
 8003e92:	6852      	ldr	r2, [r2, #4]
 8003e94:	320c      	adds	r2, #12
 8003e96:	6013      	str	r3, [r2, #0]
 8003e98:	e035      	b.n	8003f06 <stm32__usarts__disable_interrupts+0x102>
 8003e9a:	68fb      	ldr	r3, [r7, #12]
 8003e9c:	685b      	ldr	r3, [r3, #4]
 8003e9e:	330c      	adds	r3, #12
 8003ea0:	681b      	ldr	r3, [r3, #0]
 8003ea2:	f36f 1345 	bfc	r3, #5, #1
 8003ea6:	68fa      	ldr	r2, [r7, #12]
 8003ea8:	6852      	ldr	r2, [r2, #4]
 8003eaa:	320c      	adds	r2, #12
 8003eac:	6013      	str	r3, [r2, #0]
 8003eae:	e02a      	b.n	8003f06 <stm32__usarts__disable_interrupts+0x102>
 8003eb0:	68fb      	ldr	r3, [r7, #12]
 8003eb2:	685b      	ldr	r3, [r3, #4]
 8003eb4:	330c      	adds	r3, #12
 8003eb6:	681b      	ldr	r3, [r3, #0]
 8003eb8:	f36f 1304 	bfc	r3, #4, #1
 8003ebc:	68fa      	ldr	r2, [r7, #12]
 8003ebe:	6852      	ldr	r2, [r2, #4]
 8003ec0:	320c      	adds	r2, #12
 8003ec2:	6013      	str	r3, [r2, #0]
 8003ec4:	e01f      	b.n	8003f06 <stm32__usarts__disable_interrupts+0x102>
 8003ec6:	68fb      	ldr	r3, [r7, #12]
 8003ec8:	685b      	ldr	r3, [r3, #4]
 8003eca:	3310      	adds	r3, #16
 8003ecc:	681b      	ldr	r3, [r3, #0]
 8003ece:	f36f 1386 	bfc	r3, #6, #1
 8003ed2:	68fa      	ldr	r2, [r7, #12]
 8003ed4:	6852      	ldr	r2, [r2, #4]
 8003ed6:	3210      	adds	r2, #16
 8003ed8:	6013      	str	r3, [r2, #0]
 8003eda:	e014      	b.n	8003f06 <stm32__usarts__disable_interrupts+0x102>
 8003edc:	68fb      	ldr	r3, [r7, #12]
 8003ede:	685b      	ldr	r3, [r3, #4]
 8003ee0:	3314      	adds	r3, #20
 8003ee2:	681b      	ldr	r3, [r3, #0]
 8003ee4:	f36f 238a 	bfc	r3, #10, #1
 8003ee8:	68fa      	ldr	r2, [r7, #12]
 8003eea:	6852      	ldr	r2, [r2, #4]
 8003eec:	3214      	adds	r2, #20
 8003eee:	6013      	str	r3, [r2, #0]
 8003ef0:	e009      	b.n	8003f06 <stm32__usarts__disable_interrupts+0x102>
 8003ef2:	68fb      	ldr	r3, [r7, #12]
 8003ef4:	685b      	ldr	r3, [r3, #4]
 8003ef6:	3314      	adds	r3, #20
 8003ef8:	681b      	ldr	r3, [r3, #0]
 8003efa:	f36f 0300 	bfc	r3, #0, #1
 8003efe:	68fa      	ldr	r2, [r7, #12]
 8003f00:	6852      	ldr	r2, [r2, #4]
 8003f02:	3214      	adds	r2, #20
 8003f04:	6013      	str	r3, [r2, #0]
 8003f06:	bf00      	nop
 8003f08:	f107 030c 	add.w	r3, r7, #12
 8003f0c:	469c      	mov	ip, r3
 8003f0e:	f7ff ff5d 	bl	8003dcc <stm32__usarts__disable_interrupts___postconditions.4854>
 8003f12:	3718      	adds	r7, #24
 8003f14:	46bd      	mov	sp, r7
 8003f16:	bd80      	pop	{r7, pc}
 8003f18:	0800b40c 	.word	0x0800b40c

08003f1c <stm32__usarts__interrupt_enabled>:
 8003f1c:	b580      	push	{r7, lr}
 8003f1e:	b082      	sub	sp, #8
 8003f20:	af00      	add	r7, sp, #0
 8003f22:	6078      	str	r0, [r7, #4]
 8003f24:	460b      	mov	r3, r1
 8003f26:	70fb      	strb	r3, [r7, #3]
 8003f28:	78fb      	ldrb	r3, [r7, #3]
 8003f2a:	2b07      	cmp	r3, #7
 8003f2c:	d904      	bls.n	8003f38 <stm32__usarts__interrupt_enabled+0x1c>
 8003f2e:	482f      	ldr	r0, [pc, #188]	; (8003fec <stm32__usarts__interrupt_enabled+0xd0>)
 8003f30:	f240 1173 	movw	r1, #371	; 0x173
 8003f34:	f7fc fa0a 	bl	800034c <__gnat_last_chance_handler>
 8003f38:	78fb      	ldrb	r3, [r7, #3]
 8003f3a:	2b06      	cmp	r3, #6
 8003f3c:	d848      	bhi.n	8003fd0 <stm32__usarts__interrupt_enabled+0xb4>
 8003f3e:	a201      	add	r2, pc, #4	; (adr r2, 8003f44 <stm32__usarts__interrupt_enabled+0x28>)
 8003f40:	f852 f023 	ldr.w	pc, [r2, r3, lsl #2]
 8003f44:	08003f61 	.word	0x08003f61
 8003f48:	08003f71 	.word	0x08003f71
 8003f4c:	08003f81 	.word	0x08003f81
 8003f50:	08003f91 	.word	0x08003f91
 8003f54:	08003fa1 	.word	0x08003fa1
 8003f58:	08003fb1 	.word	0x08003fb1
 8003f5c:	08003fc1 	.word	0x08003fc1
 8003f60:	687b      	ldr	r3, [r7, #4]
 8003f62:	685b      	ldr	r3, [r3, #4]
 8003f64:	330c      	adds	r3, #12
 8003f66:	681b      	ldr	r3, [r3, #0]
 8003f68:	f3c3 2300 	ubfx	r3, r3, #8, #1
 8003f6c:	b2db      	uxtb	r3, r3
 8003f6e:	e037      	b.n	8003fe0 <stm32__usarts__interrupt_enabled+0xc4>
 8003f70:	687b      	ldr	r3, [r7, #4]
 8003f72:	685b      	ldr	r3, [r3, #4]
 8003f74:	330c      	adds	r3, #12
 8003f76:	681b      	ldr	r3, [r3, #0]
 8003f78:	f3c3 13c0 	ubfx	r3, r3, #7, #1
 8003f7c:	b2db      	uxtb	r3, r3
 8003f7e:	e02f      	b.n	8003fe0 <stm32__usarts__interrupt_enabled+0xc4>
 8003f80:	687b      	ldr	r3, [r7, #4]
 8003f82:	685b      	ldr	r3, [r3, #4]
 8003f84:	330c      	adds	r3, #12
 8003f86:	681b      	ldr	r3, [r3, #0]
 8003f88:	f3c3 1380 	ubfx	r3, r3, #6, #1
 8003f8c:	b2db      	uxtb	r3, r3
 8003f8e:	e027      	b.n	8003fe0 <stm32__usarts__interrupt_enabled+0xc4>
 8003f90:	687b      	ldr	r3, [r7, #4]
 8003f92:	685b      	ldr	r3, [r3, #4]
 8003f94:	330c      	adds	r3, #12
 8003f96:	681b      	ldr	r3, [r3, #0]
 8003f98:	f3c3 1340 	ubfx	r3, r3, #5, #1
 8003f9c:	b2db      	uxtb	r3, r3
 8003f9e:	e01f      	b.n	8003fe0 <stm32__usarts__interrupt_enabled+0xc4>
 8003fa0:	687b      	ldr	r3, [r7, #4]
 8003fa2:	685b      	ldr	r3, [r3, #4]
 8003fa4:	330c      	adds	r3, #12
 8003fa6:	681b      	ldr	r3, [r3, #0]
 8003fa8:	f3c3 1300 	ubfx	r3, r3, #4, #1
 8003fac:	b2db      	uxtb	r3, r3
 8003fae:	e017      	b.n	8003fe0 <stm32__usarts__interrupt_enabled+0xc4>
 8003fb0:	687b      	ldr	r3, [r7, #4]
 8003fb2:	685b      	ldr	r3, [r3, #4]
 8003fb4:	3310      	adds	r3, #16
 8003fb6:	681b      	ldr	r3, [r3, #0]
 8003fb8:	f3c3 1380 	ubfx	r3, r3, #6, #1
 8003fbc:	b2db      	uxtb	r3, r3
 8003fbe:	e00f      	b.n	8003fe0 <stm32__usarts__interrupt_enabled+0xc4>
 8003fc0:	687b      	ldr	r3, [r7, #4]
 8003fc2:	685b      	ldr	r3, [r3, #4]
 8003fc4:	3314      	adds	r3, #20
 8003fc6:	681b      	ldr	r3, [r3, #0]
 8003fc8:	f3c3 2380 	ubfx	r3, r3, #10, #1
 8003fcc:	b2db      	uxtb	r3, r3
 8003fce:	e007      	b.n	8003fe0 <stm32__usarts__interrupt_enabled+0xc4>
 8003fd0:	687b      	ldr	r3, [r7, #4]
 8003fd2:	685b      	ldr	r3, [r3, #4]
 8003fd4:	3314      	adds	r3, #20
 8003fd6:	681b      	ldr	r3, [r3, #0]
 8003fd8:	f3c3 0300 	ubfx	r3, r3, #0, #1
 8003fdc:	b2db      	uxtb	r3, r3
 8003fde:	bf00      	nop
 8003fe0:	bf00      	nop
 8003fe2:	4618      	mov	r0, r3
 8003fe4:	3708      	adds	r7, #8
 8003fe6:	46bd      	mov	sp, r7
 8003fe8:	bd80      	pop	{r7, pc}
 8003fea:	bf00      	nop
 8003fec:	0800b40c 	.word	0x0800b40c

08003ff0 <stm32__usarts__enable_dma_transmit_requests___postconditions.4889>:
 8003ff0:	b5b0      	push	{r4, r5, r7, lr}
 8003ff2:	b082      	sub	sp, #8
 8003ff4:	af00      	add	r7, sp, #0
 8003ff6:	4663      	mov	r3, ip
 8003ff8:	f8c7 c004 	str.w	ip, [r7, #4]
 8003ffc:	681b      	ldr	r3, [r3, #0]
 8003ffe:	4618      	mov	r0, r3
 8004000:	f000 f8da 	bl	80041b8 <stm32__usarts__dma_transmit_requests_enabled>
 8004004:	4603      	mov	r3, r0
 8004006:	f083 0301 	eor.w	r3, r3, #1
 800400a:	b2db      	uxtb	r3, r3
 800400c:	2b00      	cmp	r3, #0
 800400e:	d005      	beq.n	800401c <stm32__usarts__enable_dma_transmit_requests___postconditions.4889+0x2c>
 8004010:	4c04      	ldr	r4, [pc, #16]	; (8004024 <stm32__usarts__enable_dma_transmit_requests___postconditions.4889+0x34>)
 8004012:	4d05      	ldr	r5, [pc, #20]	; (8004028 <stm32__usarts__enable_dma_transmit_requests___postconditions.4889+0x38>)
 8004014:	4620      	mov	r0, r4
 8004016:	4629      	mov	r1, r5
 8004018:	f006 face 	bl	800a5b8 <system__assertions__raise_assert_failure>
 800401c:	3708      	adds	r7, #8
 800401e:	46bd      	mov	sp, r7
 8004020:	bdb0      	pop	{r4, r5, r7, pc}
 8004022:	bf00      	nop
 8004024:	0800b488 	.word	0x0800b488
 8004028:	0800b450 	.word	0x0800b450

0800402c <stm32__usarts__enable_dma_transmit_requests>:
 800402c:	b580      	push	{r7, lr}
 800402e:	b084      	sub	sp, #16
 8004030:	af00      	add	r7, sp, #0
 8004032:	6078      	str	r0, [r7, #4]
 8004034:	f107 0318 	add.w	r3, r7, #24
 8004038:	60fb      	str	r3, [r7, #12]
 800403a:	687b      	ldr	r3, [r7, #4]
 800403c:	60bb      	str	r3, [r7, #8]
 800403e:	68bb      	ldr	r3, [r7, #8]
 8004040:	685b      	ldr	r3, [r3, #4]
 8004042:	3314      	adds	r3, #20
 8004044:	681b      	ldr	r3, [r3, #0]
 8004046:	461a      	mov	r2, r3
 8004048:	4613      	mov	r3, r2
 800404a:	f043 0280 	orr.w	r2, r3, #128	; 0x80
 800404e:	68bb      	ldr	r3, [r7, #8]
 8004050:	685b      	ldr	r3, [r3, #4]
 8004052:	3314      	adds	r3, #20
 8004054:	601a      	str	r2, [r3, #0]
 8004056:	f107 0308 	add.w	r3, r7, #8
 800405a:	469c      	mov	ip, r3
 800405c:	f7ff ffc8 	bl	8003ff0 <stm32__usarts__enable_dma_transmit_requests___postconditions.4889>
 8004060:	3710      	adds	r7, #16
 8004062:	46bd      	mov	sp, r7
 8004064:	bd80      	pop	{r7, pc}
 8004066:	bf00      	nop

08004068 <stm32__usarts__enable_dma_receive_requests___postconditions.4893>:
 8004068:	b5b0      	push	{r4, r5, r7, lr}
 800406a:	b082      	sub	sp, #8
 800406c:	af00      	add	r7, sp, #0
 800406e:	4663      	mov	r3, ip
 8004070:	f8c7 c004 	str.w	ip, [r7, #4]
 8004074:	681b      	ldr	r3, [r3, #0]
 8004076:	4618      	mov	r0, r3
 8004078:	f000 f8b0 	bl	80041dc <stm32__usarts__dma_receive_requests_enabled>
 800407c:	4603      	mov	r3, r0
 800407e:	f083 0301 	eor.w	r3, r3, #1
 8004082:	b2db      	uxtb	r3, r3
 8004084:	2b00      	cmp	r3, #0
 8004086:	d005      	beq.n	8004094 <stm32__usarts__enable_dma_receive_requests___postconditions.4893+0x2c>
 8004088:	4c04      	ldr	r4, [pc, #16]	; (800409c <stm32__usarts__enable_dma_receive_requests___postconditions.4893+0x34>)
 800408a:	4d05      	ldr	r5, [pc, #20]	; (80040a0 <stm32__usarts__enable_dma_receive_requests___postconditions.4893+0x38>)
 800408c:	4620      	mov	r0, r4
 800408e:	4629      	mov	r1, r5
 8004090:	f006 fa92 	bl	800a5b8 <system__assertions__raise_assert_failure>
 8004094:	3708      	adds	r7, #8
 8004096:	46bd      	mov	sp, r7
 8004098:	bdb0      	pop	{r4, r5, r7, pc}
 800409a:	bf00      	nop
 800409c:	0800b4b8 	.word	0x0800b4b8
 80040a0:	0800b450 	.word	0x0800b450

080040a4 <stm32__usarts__enable_dma_receive_requests>:
 80040a4:	b580      	push	{r7, lr}
 80040a6:	b084      	sub	sp, #16
 80040a8:	af00      	add	r7, sp, #0
 80040aa:	6078      	str	r0, [r7, #4]
 80040ac:	f107 0318 	add.w	r3, r7, #24
 80040b0:	60fb      	str	r3, [r7, #12]
 80040b2:	687b      	ldr	r3, [r7, #4]
 80040b4:	60bb      	str	r3, [r7, #8]
 80040b6:	68bb      	ldr	r3, [r7, #8]
 80040b8:	685b      	ldr	r3, [r3, #4]
 80040ba:	3314      	adds	r3, #20
 80040bc:	681b      	ldr	r3, [r3, #0]
 80040be:	461a      	mov	r2, r3
 80040c0:	4613      	mov	r3, r2
 80040c2:	f043 0240 	orr.w	r2, r3, #64	; 0x40
 80040c6:	68bb      	ldr	r3, [r7, #8]
 80040c8:	685b      	ldr	r3, [r3, #4]
 80040ca:	3314      	adds	r3, #20
 80040cc:	601a      	str	r2, [r3, #0]
 80040ce:	f107 0308 	add.w	r3, r7, #8
 80040d2:	469c      	mov	ip, r3
 80040d4:	f7ff ffc8 	bl	8004068 <stm32__usarts__enable_dma_receive_requests___postconditions.4893>
 80040d8:	3710      	adds	r7, #16
 80040da:	46bd      	mov	sp, r7
 80040dc:	bd80      	pop	{r7, pc}
 80040de:	bf00      	nop

080040e0 <stm32__usarts__disable_dma_transmit_requests___postconditions.4897>:
 80040e0:	b5b0      	push	{r4, r5, r7, lr}
 80040e2:	b082      	sub	sp, #8
 80040e4:	af00      	add	r7, sp, #0
 80040e6:	4663      	mov	r3, ip
 80040e8:	f8c7 c004 	str.w	ip, [r7, #4]
 80040ec:	681b      	ldr	r3, [r3, #0]
 80040ee:	4618      	mov	r0, r3
 80040f0:	f000 f862 	bl	80041b8 <stm32__usarts__dma_transmit_requests_enabled>
 80040f4:	4603      	mov	r3, r0
 80040f6:	2b00      	cmp	r3, #0
 80040f8:	d005      	beq.n	8004106 <stm32__usarts__disable_dma_transmit_requests___postconditions.4897+0x26>
 80040fa:	4c04      	ldr	r4, [pc, #16]	; (800410c <stm32__usarts__disable_dma_transmit_requests___postconditions.4897+0x2c>)
 80040fc:	4d04      	ldr	r5, [pc, #16]	; (8004110 <stm32__usarts__disable_dma_transmit_requests___postconditions.4897+0x30>)
 80040fe:	4620      	mov	r0, r4
 8004100:	4629      	mov	r1, r5
 8004102:	f006 fa59 	bl	800a5b8 <system__assertions__raise_assert_failure>
 8004106:	3708      	adds	r7, #8
 8004108:	46bd      	mov	sp, r7
 800410a:	bdb0      	pop	{r4, r5, r7, pc}
 800410c:	0800b4e8 	.word	0x0800b4e8
 8004110:	0800b450 	.word	0x0800b450

08004114 <stm32__usarts__disable_dma_transmit_requests>:
 8004114:	b580      	push	{r7, lr}
 8004116:	b084      	sub	sp, #16
 8004118:	af00      	add	r7, sp, #0
 800411a:	6078      	str	r0, [r7, #4]
 800411c:	f107 0318 	add.w	r3, r7, #24
 8004120:	60fb      	str	r3, [r7, #12]
 8004122:	687b      	ldr	r3, [r7, #4]
 8004124:	60bb      	str	r3, [r7, #8]
 8004126:	68bb      	ldr	r3, [r7, #8]
 8004128:	685b      	ldr	r3, [r3, #4]
 800412a:	3314      	adds	r3, #20
 800412c:	681b      	ldr	r3, [r3, #0]
 800412e:	f36f 13c7 	bfc	r3, #7, #1
 8004132:	68ba      	ldr	r2, [r7, #8]
 8004134:	6852      	ldr	r2, [r2, #4]
 8004136:	3214      	adds	r2, #20
 8004138:	6013      	str	r3, [r2, #0]
 800413a:	f107 0308 	add.w	r3, r7, #8
 800413e:	469c      	mov	ip, r3
 8004140:	f7ff ffce 	bl	80040e0 <stm32__usarts__disable_dma_transmit_requests___postconditions.4897>
 8004144:	3710      	adds	r7, #16
 8004146:	46bd      	mov	sp, r7
 8004148:	bd80      	pop	{r7, pc}
 800414a:	bf00      	nop

0800414c <stm32__usarts__disable_dma_receive_requests___postconditions.4901>:
 800414c:	b5b0      	push	{r4, r5, r7, lr}
 800414e:	b082      	sub	sp, #8
 8004150:	af00      	add	r7, sp, #0
 8004152:	4663      	mov	r3, ip
 8004154:	f8c7 c004 	str.w	ip, [r7, #4]
 8004158:	681b      	ldr	r3, [r3, #0]
 800415a:	4618      	mov	r0, r3
 800415c:	f000 f83e 	bl	80041dc <stm32__usarts__dma_receive_requests_enabled>
 8004160:	4603      	mov	r3, r0
 8004162:	2b00      	cmp	r3, #0
 8004164:	d005      	beq.n	8004172 <stm32__usarts__disable_dma_receive_requests___postconditions.4901+0x26>
 8004166:	4c04      	ldr	r4, [pc, #16]	; (8004178 <stm32__usarts__disable_dma_receive_requests___postconditions.4901+0x2c>)
 8004168:	4d04      	ldr	r5, [pc, #16]	; (800417c <stm32__usarts__disable_dma_receive_requests___postconditions.4901+0x30>)
 800416a:	4620      	mov	r0, r4
 800416c:	4629      	mov	r1, r5
 800416e:	f006 fa23 	bl	800a5b8 <system__assertions__raise_assert_failure>
 8004172:	3708      	adds	r7, #8
 8004174:	46bd      	mov	sp, r7
 8004176:	bdb0      	pop	{r4, r5, r7, pc}
 8004178:	0800b518 	.word	0x0800b518
 800417c:	0800b450 	.word	0x0800b450

08004180 <stm32__usarts__disable_dma_receive_requests>:
 8004180:	b580      	push	{r7, lr}
 8004182:	b084      	sub	sp, #16
 8004184:	af00      	add	r7, sp, #0
 8004186:	6078      	str	r0, [r7, #4]
 8004188:	f107 0318 	add.w	r3, r7, #24
 800418c:	60fb      	str	r3, [r7, #12]
 800418e:	687b      	ldr	r3, [r7, #4]
 8004190:	60bb      	str	r3, [r7, #8]
 8004192:	68bb      	ldr	r3, [r7, #8]
 8004194:	685b      	ldr	r3, [r3, #4]
 8004196:	3314      	adds	r3, #20
 8004198:	681b      	ldr	r3, [r3, #0]
 800419a:	f36f 1386 	bfc	r3, #6, #1
 800419e:	68ba      	ldr	r2, [r7, #8]
 80041a0:	6852      	ldr	r2, [r2, #4]
 80041a2:	3214      	adds	r2, #20
 80041a4:	6013      	str	r3, [r2, #0]
 80041a6:	f107 0308 	add.w	r3, r7, #8
 80041aa:	469c      	mov	ip, r3
 80041ac:	f7ff ffce 	bl	800414c <stm32__usarts__disable_dma_receive_requests___postconditions.4901>
 80041b0:	3710      	adds	r7, #16
 80041b2:	46bd      	mov	sp, r7
 80041b4:	bd80      	pop	{r7, pc}
 80041b6:	bf00      	nop

080041b8 <stm32__usarts__dma_transmit_requests_enabled>:
 80041b8:	b480      	push	{r7}
 80041ba:	b083      	sub	sp, #12
 80041bc:	af00      	add	r7, sp, #0
 80041be:	6078      	str	r0, [r7, #4]
 80041c0:	687b      	ldr	r3, [r7, #4]
 80041c2:	685b      	ldr	r3, [r3, #4]
 80041c4:	3314      	adds	r3, #20
 80041c6:	681b      	ldr	r3, [r3, #0]
 80041c8:	f3c3 13c0 	ubfx	r3, r3, #7, #1
 80041cc:	b2db      	uxtb	r3, r3
 80041ce:	bf00      	nop
 80041d0:	4618      	mov	r0, r3
 80041d2:	370c      	adds	r7, #12
 80041d4:	46bd      	mov	sp, r7
 80041d6:	f85d 7b04 	ldr.w	r7, [sp], #4
 80041da:	4770      	bx	lr

080041dc <stm32__usarts__dma_receive_requests_enabled>:
 80041dc:	b480      	push	{r7}
 80041de:	b083      	sub	sp, #12
 80041e0:	af00      	add	r7, sp, #0
 80041e2:	6078      	str	r0, [r7, #4]
 80041e4:	687b      	ldr	r3, [r7, #4]
 80041e6:	685b      	ldr	r3, [r3, #4]
 80041e8:	3314      	adds	r3, #20
 80041ea:	681b      	ldr	r3, [r3, #0]
 80041ec:	f3c3 1380 	ubfx	r3, r3, #6, #1
 80041f0:	b2db      	uxtb	r3, r3
 80041f2:	bf00      	nop
 80041f4:	4618      	mov	r0, r3
 80041f6:	370c      	adds	r7, #12
 80041f8:	46bd      	mov	sp, r7
 80041fa:	f85d 7b04 	ldr.w	r7, [sp], #4
 80041fe:	4770      	bx	lr

08004200 <stm32__usarts__resume_dma_transmission___postconditions.4907>:
 8004200:	e92d 41f0 	stmdb	sp!, {r4, r5, r6, r7, r8, lr}
 8004204:	b082      	sub	sp, #8
 8004206:	af00      	add	r7, sp, #0
 8004208:	4664      	mov	r4, ip
 800420a:	f8c7 c004 	str.w	ip, [r7, #4]
 800420e:	6823      	ldr	r3, [r4, #0]
 8004210:	4618      	mov	r0, r3
 8004212:	f7ff ffd1 	bl	80041b8 <stm32__usarts__dma_transmit_requests_enabled>
 8004216:	4603      	mov	r3, r0
 8004218:	f083 0301 	eor.w	r3, r3, #1
 800421c:	fa5f f883 	uxtb.w	r8, r3
 8004220:	6823      	ldr	r3, [r4, #0]
 8004222:	4618      	mov	r0, r3
 8004224:	f7ff f9fe 	bl	8003624 <stm32__usarts__enabled>
 8004228:	4603      	mov	r3, r0
 800422a:	f083 0301 	eor.w	r3, r3, #1
 800422e:	b2db      	uxtb	r3, r3
 8004230:	ea48 0303 	orr.w	r3, r8, r3
 8004234:	b2db      	uxtb	r3, r3
 8004236:	2b00      	cmp	r3, #0
 8004238:	d005      	beq.n	8004246 <stm32__usarts__resume_dma_transmission___postconditions.4907+0x46>
 800423a:	4d05      	ldr	r5, [pc, #20]	; (8004250 <stm32__usarts__resume_dma_transmission___postconditions.4907+0x50>)
 800423c:	4e05      	ldr	r6, [pc, #20]	; (8004254 <stm32__usarts__resume_dma_transmission___postconditions.4907+0x54>)
 800423e:	4628      	mov	r0, r5
 8004240:	4631      	mov	r1, r6
 8004242:	f006 f9b9 	bl	800a5b8 <system__assertions__raise_assert_failure>
 8004246:	3708      	adds	r7, #8
 8004248:	46bd      	mov	sp, r7
 800424a:	e8bd 81f0 	ldmia.w	sp!, {r4, r5, r6, r7, r8, pc}
 800424e:	bf00      	nop
 8004250:	0800b548 	.word	0x0800b548
 8004254:	0800b450 	.word	0x0800b450

08004258 <stm32__usarts__resume_dma_transmission>:
 8004258:	b580      	push	{r7, lr}
 800425a:	b084      	sub	sp, #16
 800425c:	af00      	add	r7, sp, #0
 800425e:	6078      	str	r0, [r7, #4]
 8004260:	f107 0318 	add.w	r3, r7, #24
 8004264:	60fb      	str	r3, [r7, #12]
 8004266:	687b      	ldr	r3, [r7, #4]
 8004268:	60bb      	str	r3, [r7, #8]
 800426a:	68bb      	ldr	r3, [r7, #8]
 800426c:	4618      	mov	r0, r3
 800426e:	f7ff fedd 	bl	800402c <stm32__usarts__enable_dma_transmit_requests>
 8004272:	68bb      	ldr	r3, [r7, #8]
 8004274:	4618      	mov	r0, r3
 8004276:	f7ff f9d5 	bl	8003624 <stm32__usarts__enabled>
 800427a:	4603      	mov	r3, r0
 800427c:	f083 0301 	eor.w	r3, r3, #1
 8004280:	b2db      	uxtb	r3, r3
 8004282:	2b00      	cmp	r3, #0
 8004284:	d003      	beq.n	800428e <stm32__usarts__resume_dma_transmission+0x36>
 8004286:	68bb      	ldr	r3, [r7, #8]
 8004288:	4618      	mov	r0, r3
 800428a:	f7ff f977 	bl	800357c <stm32__usarts__enable>
 800428e:	f107 0308 	add.w	r3, r7, #8
 8004292:	469c      	mov	ip, r3
 8004294:	f7ff ffb4 	bl	8004200 <stm32__usarts__resume_dma_transmission___postconditions.4907>
 8004298:	3710      	adds	r7, #16
 800429a:	46bd      	mov	sp, r7
 800429c:	bd80      	pop	{r7, pc}
 800429e:	bf00      	nop

080042a0 <stm32__usarts__resume_dma_reception___postconditions.4911>:
 80042a0:	e92d 41f0 	stmdb	sp!, {r4, r5, r6, r7, r8, lr}
 80042a4:	b082      	sub	sp, #8
 80042a6:	af00      	add	r7, sp, #0
 80042a8:	4664      	mov	r4, ip
 80042aa:	f8c7 c004 	str.w	ip, [r7, #4]
 80042ae:	6823      	ldr	r3, [r4, #0]
 80042b0:	4618      	mov	r0, r3
 80042b2:	f7ff ff93 	bl	80041dc <stm32__usarts__dma_receive_requests_enabled>
 80042b6:	4603      	mov	r3, r0
 80042b8:	f083 0301 	eor.w	r3, r3, #1
 80042bc:	fa5f f883 	uxtb.w	r8, r3
 80042c0:	6823      	ldr	r3, [r4, #0]
 80042c2:	4618      	mov	r0, r3
 80042c4:	f7ff f9ae 	bl	8003624 <stm32__usarts__enabled>
 80042c8:	4603      	mov	r3, r0
 80042ca:	f083 0301 	eor.w	r3, r3, #1
 80042ce:	b2db      	uxtb	r3, r3
 80042d0:	ea48 0303 	orr.w	r3, r8, r3
 80042d4:	b2db      	uxtb	r3, r3
 80042d6:	2b00      	cmp	r3, #0
 80042d8:	d005      	beq.n	80042e6 <stm32__usarts__resume_dma_reception___postconditions.4911+0x46>
 80042da:	4d05      	ldr	r5, [pc, #20]	; (80042f0 <stm32__usarts__resume_dma_reception___postconditions.4911+0x50>)
 80042dc:	4e05      	ldr	r6, [pc, #20]	; (80042f4 <stm32__usarts__resume_dma_reception___postconditions.4911+0x54>)
 80042de:	4628      	mov	r0, r5
 80042e0:	4631      	mov	r1, r6
 80042e2:	f006 f969 	bl	800a5b8 <system__assertions__raise_assert_failure>
 80042e6:	3708      	adds	r7, #8
 80042e8:	46bd      	mov	sp, r7
 80042ea:	e8bd 81f0 	ldmia.w	sp!, {r4, r5, r6, r7, r8, pc}
 80042ee:	bf00      	nop
 80042f0:	0800b578 	.word	0x0800b578
 80042f4:	0800b450 	.word	0x0800b450

080042f8 <stm32__usarts__resume_dma_reception>:
 80042f8:	b580      	push	{r7, lr}
 80042fa:	b084      	sub	sp, #16
 80042fc:	af00      	add	r7, sp, #0
 80042fe:	6078      	str	r0, [r7, #4]
 8004300:	f107 0318 	add.w	r3, r7, #24
 8004304:	60fb      	str	r3, [r7, #12]
 8004306:	687b      	ldr	r3, [r7, #4]
 8004308:	60bb      	str	r3, [r7, #8]
 800430a:	68bb      	ldr	r3, [r7, #8]
 800430c:	4618      	mov	r0, r3
 800430e:	f7ff fec9 	bl	80040a4 <stm32__usarts__enable_dma_receive_requests>
 8004312:	68bb      	ldr	r3, [r7, #8]
 8004314:	4618      	mov	r0, r3
 8004316:	f7ff f985 	bl	8003624 <stm32__usarts__enabled>
 800431a:	4603      	mov	r3, r0
 800431c:	f083 0301 	eor.w	r3, r3, #1
 8004320:	b2db      	uxtb	r3, r3
 8004322:	2b00      	cmp	r3, #0
 8004324:	d003      	beq.n	800432e <stm32__usarts__resume_dma_reception+0x36>
 8004326:	68bb      	ldr	r3, [r7, #8]
 8004328:	4618      	mov	r0, r3
 800432a:	f7ff f927 	bl	800357c <stm32__usarts__enable>
 800432e:	f107 0308 	add.w	r3, r7, #8
 8004332:	469c      	mov	ip, r3
 8004334:	f7ff ffb4 	bl	80042a0 <stm32__usarts__resume_dma_reception___postconditions.4911>
 8004338:	3710      	adds	r7, #16
 800433a:	46bd      	mov	sp, r7
 800433c:	bd80      	pop	{r7, pc}
 800433e:	bf00      	nop

08004340 <stm32__usarts__data_register_address>:
 8004340:	b480      	push	{r7}
 8004342:	b083      	sub	sp, #12
 8004344:	af00      	add	r7, sp, #0
 8004346:	6078      	str	r0, [r7, #4]
 8004348:	687b      	ldr	r3, [r7, #4]
 800434a:	685b      	ldr	r3, [r3, #4]
 800434c:	3304      	adds	r3, #4
 800434e:	bf00      	nop
 8004350:	4618      	mov	r0, r3
 8004352:	370c      	adds	r7, #12
 8004354:	46bd      	mov	sp, r7
 8004356:	f85d 7b04 	ldr.w	r7, [sp], #4
 800435a:	4770      	bx	lr

0800435c <stm32__usarts__data_size>:
 800435c:	b480      	push	{r7}
 800435e:	b083      	sub	sp, #12
 8004360:	af00      	add	r7, sp, #0
 8004362:	6078      	str	r0, [r7, #4]
 8004364:	687b      	ldr	r3, [r7, #4]
 8004366:	685b      	ldr	r3, [r3, #4]
 8004368:	330c      	adds	r3, #12
 800436a:	681b      	ldr	r3, [r3, #0]
 800436c:	f3c3 3300 	ubfx	r3, r3, #12, #1
 8004370:	b2db      	uxtb	r3, r3
 8004372:	2b00      	cmp	r3, #0
 8004374:	d001      	beq.n	800437a <stm32__usarts__data_size+0x1e>
 8004376:	2301      	movs	r3, #1
 8004378:	e000      	b.n	800437c <stm32__usarts__data_size+0x20>
 800437a:	2300      	movs	r3, #0
 800437c:	bf00      	nop
 800437e:	4618      	mov	r0, r3
 8004380:	370c      	adds	r7, #12
 8004382:	46bd      	mov	sp, r7
 8004384:	f85d 7b04 	ldr.w	r7, [sp], #4
 8004388:	4770      	bx	lr
 800438a:	bf00      	nop

0800438c <stm32__usarts__transmit__2>:
 800438c:	e92d 43f0 	stmdb	sp!, {r4, r5, r6, r7, r8, r9, lr}
 8004390:	b087      	sub	sp, #28
 8004392:	af00      	add	r7, sp, #0
 8004394:	60f8      	str	r0, [r7, #12]
 8004396:	e9c7 2300 	strd	r2, r3, [r7]
 800439a:	687b      	ldr	r3, [r7, #4]
 800439c:	681c      	ldr	r4, [r3, #0]
 800439e:	687b      	ldr	r3, [r7, #4]
 80043a0:	685d      	ldr	r5, [r3, #4]
 80043a2:	68f8      	ldr	r0, [r7, #12]
 80043a4:	f7ff ffda 	bl	800435c <stm32__usarts__data_size>
 80043a8:	4603      	mov	r3, r0
 80043aa:	2b00      	cmp	r3, #0
 80043ac:	d00d      	beq.n	80043ca <stm32__usarts__transmit__2+0x3e>
 80043ae:	68f8      	ldr	r0, [r7, #12]
 80043b0:	f7ff ffd4 	bl	800435c <stm32__usarts__data_size>
 80043b4:	4603      	mov	r3, r0
 80043b6:	2b00      	cmp	r3, #0
 80043b8:	d007      	beq.n	80043ca <stm32__usarts__transmit__2+0x3e>
 80043ba:	f8df 805c 	ldr.w	r8, [pc, #92]	; 8004418 <stm32__usarts__transmit__2+0x8c>
 80043be:	f8df 905c 	ldr.w	r9, [pc, #92]	; 800441c <stm32__usarts__transmit__2+0x90>
 80043c2:	4640      	mov	r0, r8
 80043c4:	4649      	mov	r1, r9
 80043c6:	f006 f8f7 	bl	800a5b8 <system__assertions__raise_assert_failure>
 80043ca:	4626      	mov	r6, r4
 80043cc:	42ac      	cmp	r4, r5
 80043ce:	dc19      	bgt.n	8004404 <stm32__usarts__transmit__2+0x78>
 80043d0:	683a      	ldr	r2, [r7, #0]
 80043d2:	46a0      	mov	r8, r4
 80043d4:	ebc6 0308 	rsb	r3, r6, r8
 80043d8:	4413      	add	r3, r2
 80043da:	617b      	str	r3, [r7, #20]
 80043dc:	68f8      	ldr	r0, [r7, #12]
 80043de:	f7ff fb31 	bl	8003a44 <stm32__usarts__tx_ready>
 80043e2:	4603      	mov	r3, r0
 80043e4:	2b00      	cmp	r3, #0
 80043e6:	d100      	bne.n	80043ea <stm32__usarts__transmit__2+0x5e>
 80043e8:	e7f8      	b.n	80043dc <stm32__usarts__transmit__2+0x50>
 80043ea:	683a      	ldr	r2, [r7, #0]
 80043ec:	ebc6 0308 	rsb	r3, r6, r8
 80043f0:	5cd3      	ldrb	r3, [r2, r3]
 80043f2:	b29b      	uxth	r3, r3
 80043f4:	68f8      	ldr	r0, [r7, #12]
 80043f6:	4619      	mov	r1, r3
 80043f8:	f7ff fae8 	bl	80039cc <stm32__usarts__transmit>
 80043fc:	42ac      	cmp	r4, r5
 80043fe:	d001      	beq.n	8004404 <stm32__usarts__transmit__2+0x78>
 8004400:	3401      	adds	r4, #1
 8004402:	e7e5      	b.n	80043d0 <stm32__usarts__transmit__2+0x44>
 8004404:	2300      	movs	r3, #0
 8004406:	74fb      	strb	r3, [r7, #19]
 8004408:	7cfb      	ldrb	r3, [r7, #19]
 800440a:	bf00      	nop
 800440c:	4618      	mov	r0, r3
 800440e:	371c      	adds	r7, #28
 8004410:	46bd      	mov	sp, r7
 8004412:	e8bd 83f0 	ldmia.w	sp!, {r4, r5, r6, r7, r8, r9, pc}
 8004416:	bf00      	nop
 8004418:	0800b5a8 	.word	0x0800b5a8
 800441c:	0800b610 	.word	0x0800b610

08004420 <stm32__usarts__transmit__3>:
 8004420:	e92d 43f0 	stmdb	sp!, {r4, r5, r6, r7, r8, r9, lr}
 8004424:	b087      	sub	sp, #28
 8004426:	af00      	add	r7, sp, #0
 8004428:	60f8      	str	r0, [r7, #12]
 800442a:	e9c7 2300 	strd	r2, r3, [r7]
 800442e:	687b      	ldr	r3, [r7, #4]
 8004430:	681c      	ldr	r4, [r3, #0]
 8004432:	687b      	ldr	r3, [r7, #4]
 8004434:	685d      	ldr	r5, [r3, #4]
 8004436:	68f8      	ldr	r0, [r7, #12]
 8004438:	f7ff ff90 	bl	800435c <stm32__usarts__data_size>
 800443c:	4603      	mov	r3, r0
 800443e:	2b01      	cmp	r3, #1
 8004440:	d00d      	beq.n	800445e <stm32__usarts__transmit__3+0x3e>
 8004442:	68f8      	ldr	r0, [r7, #12]
 8004444:	f7ff ff8a 	bl	800435c <stm32__usarts__data_size>
 8004448:	4603      	mov	r3, r0
 800444a:	2b01      	cmp	r3, #1
 800444c:	d007      	beq.n	800445e <stm32__usarts__transmit__3+0x3e>
 800444e:	f8df 805c 	ldr.w	r8, [pc, #92]	; 80044ac <stm32__usarts__transmit__3+0x8c>
 8004452:	f8df 905c 	ldr.w	r9, [pc, #92]	; 80044b0 <stm32__usarts__transmit__3+0x90>
 8004456:	4640      	mov	r0, r8
 8004458:	4649      	mov	r1, r9
 800445a:	f006 f8ad 	bl	800a5b8 <system__assertions__raise_assert_failure>
 800445e:	4626      	mov	r6, r4
 8004460:	42ac      	cmp	r4, r5
 8004462:	dc1a      	bgt.n	800449a <stm32__usarts__transmit__3+0x7a>
 8004464:	683a      	ldr	r2, [r7, #0]
 8004466:	46a0      	mov	r8, r4
 8004468:	ebc6 0308 	rsb	r3, r6, r8
 800446c:	005b      	lsls	r3, r3, #1
 800446e:	4413      	add	r3, r2
 8004470:	617b      	str	r3, [r7, #20]
 8004472:	68f8      	ldr	r0, [r7, #12]
 8004474:	f7ff fae6 	bl	8003a44 <stm32__usarts__tx_ready>
 8004478:	4603      	mov	r3, r0
 800447a:	2b00      	cmp	r3, #0
 800447c:	d100      	bne.n	8004480 <stm32__usarts__transmit__3+0x60>
 800447e:	e7f8      	b.n	8004472 <stm32__usarts__transmit__3+0x52>
 8004480:	683b      	ldr	r3, [r7, #0]
 8004482:	ebc6 0208 	rsb	r2, r6, r8
 8004486:	f833 3012 	ldrh.w	r3, [r3, r2, lsl #1]
 800448a:	68f8      	ldr	r0, [r7, #12]
 800448c:	4619      	mov	r1, r3
 800448e:	f7ff fa9d 	bl	80039cc <stm32__usarts__transmit>
 8004492:	42ac      	cmp	r4, r5
 8004494:	d001      	beq.n	800449a <stm32__usarts__transmit__3+0x7a>
 8004496:	3401      	adds	r4, #1
 8004498:	e7e4      	b.n	8004464 <stm32__usarts__transmit__3+0x44>
 800449a:	2300      	movs	r3, #0
 800449c:	74fb      	strb	r3, [r7, #19]
 800449e:	7cfb      	ldrb	r3, [r7, #19]
 80044a0:	bf00      	nop
 80044a2:	4618      	mov	r0, r3
 80044a4:	371c      	adds	r7, #28
 80044a6:	46bd      	mov	sp, r7
 80044a8:	e8bd 83f0 	ldmia.w	sp!, {r4, r5, r6, r7, r8, r9, pc}
 80044ac:	0800b618 	.word	0x0800b618
 80044b0:	0800b610 	.word	0x0800b610

080044b4 <stm32__usarts__receive__2>:
 80044b4:	e92d 41f0 	stmdb	sp!, {r4, r5, r6, r7, r8, lr}
 80044b8:	b086      	sub	sp, #24
 80044ba:	af00      	add	r7, sp, #0
 80044bc:	60f8      	str	r0, [r7, #12]
 80044be:	e9c7 2300 	strd	r2, r3, [r7]
 80044c2:	68f8      	ldr	r0, [r7, #12]
 80044c4:	f7ff ff4a 	bl	800435c <stm32__usarts__data_size>
 80044c8:	4603      	mov	r3, r0
 80044ca:	2b00      	cmp	r3, #0
 80044cc:	d00b      	beq.n	80044e6 <stm32__usarts__receive__2+0x32>
 80044ce:	68f8      	ldr	r0, [r7, #12]
 80044d0:	f7ff ff44 	bl	800435c <stm32__usarts__data_size>
 80044d4:	4603      	mov	r3, r0
 80044d6:	2b00      	cmp	r3, #0
 80044d8:	d005      	beq.n	80044e6 <stm32__usarts__receive__2+0x32>
 80044da:	4c1c      	ldr	r4, [pc, #112]	; (800454c <stm32__usarts__receive__2+0x98>)
 80044dc:	4d1c      	ldr	r5, [pc, #112]	; (8004550 <stm32__usarts__receive__2+0x9c>)
 80044de:	4620      	mov	r0, r4
 80044e0:	4629      	mov	r1, r5
 80044e2:	f006 f869 	bl	800a5b8 <system__assertions__raise_assert_failure>
 80044e6:	687b      	ldr	r3, [r7, #4]
 80044e8:	681b      	ldr	r3, [r3, #0]
 80044ea:	461e      	mov	r6, r3
 80044ec:	687b      	ldr	r3, [r7, #4]
 80044ee:	681c      	ldr	r4, [r3, #0]
 80044f0:	687b      	ldr	r3, [r7, #4]
 80044f2:	685d      	ldr	r5, [r3, #4]
 80044f4:	42ac      	cmp	r4, r5
 80044f6:	dc20      	bgt.n	800453a <stm32__usarts__receive__2+0x86>
 80044f8:	683a      	ldr	r2, [r7, #0]
 80044fa:	46a0      	mov	r8, r4
 80044fc:	ebc6 0308 	rsb	r3, r6, r8
 8004500:	4413      	add	r3, r2
 8004502:	617b      	str	r3, [r7, #20]
 8004504:	68f8      	ldr	r0, [r7, #12]
 8004506:	f7ff faaf 	bl	8003a68 <stm32__usarts__rx_ready>
 800450a:	4603      	mov	r3, r0
 800450c:	2b00      	cmp	r3, #0
 800450e:	d100      	bne.n	8004512 <stm32__usarts__receive__2+0x5e>
 8004510:	e7f8      	b.n	8004504 <stm32__usarts__receive__2+0x50>
 8004512:	68f8      	ldr	r0, [r7, #12]
 8004514:	f7ff fa74 	bl	8003a00 <stm32__usarts__receive>
 8004518:	4603      	mov	r3, r0
 800451a:	2bff      	cmp	r3, #255	; 0xff
 800451c:	d904      	bls.n	8004528 <stm32__usarts__receive__2+0x74>
 800451e:	480d      	ldr	r0, [pc, #52]	; (8004554 <stm32__usarts__receive__2+0xa0>)
 8004520:	f240 2127 	movw	r1, #551	; 0x227
 8004524:	f7fb ff12 	bl	800034c <__gnat_last_chance_handler>
 8004528:	683a      	ldr	r2, [r7, #0]
 800452a:	b2d9      	uxtb	r1, r3
 800452c:	ebc6 0308 	rsb	r3, r6, r8
 8004530:	54d1      	strb	r1, [r2, r3]
 8004532:	42ac      	cmp	r4, r5
 8004534:	d001      	beq.n	800453a <stm32__usarts__receive__2+0x86>
 8004536:	3401      	adds	r4, #1
 8004538:	e7de      	b.n	80044f8 <stm32__usarts__receive__2+0x44>
 800453a:	2300      	movs	r3, #0
 800453c:	74fb      	strb	r3, [r7, #19]
 800453e:	7cfb      	ldrb	r3, [r7, #19]
 8004540:	bf00      	nop
 8004542:	4618      	mov	r0, r3
 8004544:	3718      	adds	r7, #24
 8004546:	46bd      	mov	sp, r7
 8004548:	e8bd 81f0 	ldmia.w	sp!, {r4, r5, r6, r7, r8, pc}
 800454c:	0800b680 	.word	0x0800b680
 8004550:	0800b610 	.word	0x0800b610
 8004554:	0800b40c 	.word	0x0800b40c

08004558 <stm32__usarts__receive__3>:
 8004558:	e92d 43f0 	stmdb	sp!, {r4, r5, r6, r7, r8, r9, lr}
 800455c:	b087      	sub	sp, #28
 800455e:	af00      	add	r7, sp, #0
 8004560:	60f8      	str	r0, [r7, #12]
 8004562:	e9c7 2300 	strd	r2, r3, [r7]
 8004566:	68f8      	ldr	r0, [r7, #12]
 8004568:	f7ff fef8 	bl	800435c <stm32__usarts__data_size>
 800456c:	4603      	mov	r3, r0
 800456e:	2b01      	cmp	r3, #1
 8004570:	d00b      	beq.n	800458a <stm32__usarts__receive__3+0x32>
 8004572:	68f8      	ldr	r0, [r7, #12]
 8004574:	f7ff fef2 	bl	800435c <stm32__usarts__data_size>
 8004578:	4603      	mov	r3, r0
 800457a:	2b01      	cmp	r3, #1
 800457c:	d005      	beq.n	800458a <stm32__usarts__receive__3+0x32>
 800457e:	4c1a      	ldr	r4, [pc, #104]	; (80045e8 <stm32__usarts__receive__3+0x90>)
 8004580:	4d1a      	ldr	r5, [pc, #104]	; (80045ec <stm32__usarts__receive__3+0x94>)
 8004582:	4620      	mov	r0, r4
 8004584:	4629      	mov	r1, r5
 8004586:	f006 f817 	bl	800a5b8 <system__assertions__raise_assert_failure>
 800458a:	687b      	ldr	r3, [r7, #4]
 800458c:	681b      	ldr	r3, [r3, #0]
 800458e:	461e      	mov	r6, r3
 8004590:	687b      	ldr	r3, [r7, #4]
 8004592:	681c      	ldr	r4, [r3, #0]
 8004594:	687b      	ldr	r3, [r7, #4]
 8004596:	685d      	ldr	r5, [r3, #4]
 8004598:	42ac      	cmp	r4, r5
 800459a:	dc1c      	bgt.n	80045d6 <stm32__usarts__receive__3+0x7e>
 800459c:	683a      	ldr	r2, [r7, #0]
 800459e:	46a0      	mov	r8, r4
 80045a0:	ebc6 0308 	rsb	r3, r6, r8
 80045a4:	005b      	lsls	r3, r3, #1
 80045a6:	4413      	add	r3, r2
 80045a8:	617b      	str	r3, [r7, #20]
 80045aa:	68f8      	ldr	r0, [r7, #12]
 80045ac:	f7ff fa5c 	bl	8003a68 <stm32__usarts__rx_ready>
 80045b0:	4603      	mov	r3, r0
 80045b2:	2b00      	cmp	r3, #0
 80045b4:	d100      	bne.n	80045b8 <stm32__usarts__receive__3+0x60>
 80045b6:	e7f8      	b.n	80045aa <stm32__usarts__receive__3+0x52>
 80045b8:	f8d7 9000 	ldr.w	r9, [r7]
 80045bc:	68f8      	ldr	r0, [r7, #12]
 80045be:	f7ff fa1f 	bl	8003a00 <stm32__usarts__receive>
 80045c2:	4603      	mov	r3, r0
 80045c4:	461a      	mov	r2, r3
 80045c6:	ebc6 0308 	rsb	r3, r6, r8
 80045ca:	f829 2013 	strh.w	r2, [r9, r3, lsl #1]
 80045ce:	42ac      	cmp	r4, r5
 80045d0:	d001      	beq.n	80045d6 <stm32__usarts__receive__3+0x7e>
 80045d2:	3401      	adds	r4, #1
 80045d4:	e7e2      	b.n	800459c <stm32__usarts__receive__3+0x44>
 80045d6:	2300      	movs	r3, #0
 80045d8:	74fb      	strb	r3, [r7, #19]
 80045da:	7cfb      	ldrb	r3, [r7, #19]
 80045dc:	bf00      	nop
 80045de:	4618      	mov	r0, r3
 80045e0:	371c      	adds	r7, #28
 80045e2:	46bd      	mov	sp, r7
 80045e4:	e8bd 83f0 	ldmia.w	sp!, {r4, r5, r6, r7, r8, r9, pc}
 80045e8:	0800b6e8 	.word	0x0800b6e8
 80045ec:	0800b610 	.word	0x0800b610

080045f0 <stm32__i2c__i2c_configurationIP>:
 80045f0:	b480      	push	{r7}
 80045f2:	b083      	sub	sp, #12
 80045f4:	af00      	add	r7, sp, #0
 80045f6:	6078      	str	r0, [r7, #4]
 80045f8:	687b      	ldr	r3, [r7, #4]
 80045fa:	2200      	movs	r2, #0
 80045fc:	711a      	strb	r2, [r3, #4]
 80045fe:	687b      	ldr	r3, [r7, #4]
 8004600:	2201      	movs	r2, #1
 8004602:	715a      	strb	r2, [r3, #5]
 8004604:	687b      	ldr	r3, [r7, #4]
 8004606:	2200      	movs	r2, #0
 8004608:	729a      	strb	r2, [r3, #10]
 800460a:	687b      	ldr	r3, [r7, #4]
 800460c:	2201      	movs	r2, #1
 800460e:	72da      	strb	r2, [r3, #11]
 8004610:	370c      	adds	r7, #12
 8004612:	46bd      	mov	sp, r7
 8004614:	f85d 7b04 	ldr.w	r7, [sp], #4
 8004618:	4770      	bx	lr
 800461a:	bf00      	nop

0800461c <stm32__i2c__i2c_portIP>:
 800461c:	b580      	push	{r7, lr}
 800461e:	b084      	sub	sp, #16
 8004620:	af00      	add	r7, sp, #0
 8004622:	60f8      	str	r0, [r7, #12]
 8004624:	60b9      	str	r1, [r7, #8]
 8004626:	4613      	mov	r3, r2
 8004628:	71fb      	strb	r3, [r7, #7]
 800462a:	79fb      	ldrb	r3, [r7, #7]
 800462c:	2b00      	cmp	r3, #0
 800462e:	d002      	beq.n	8004636 <stm32__i2c__i2c_portIP+0x1a>
 8004630:	68fb      	ldr	r3, [r7, #12]
 8004632:	4a08      	ldr	r2, [pc, #32]	; (8004654 <stm32__i2c__i2c_portIP+0x38>)
 8004634:	601a      	str	r2, [r3, #0]
 8004636:	68fb      	ldr	r3, [r7, #12]
 8004638:	68ba      	ldr	r2, [r7, #8]
 800463a:	605a      	str	r2, [r3, #4]
 800463c:	68fb      	ldr	r3, [r7, #12]
 800463e:	3308      	adds	r3, #8
 8004640:	4618      	mov	r0, r3
 8004642:	f7ff ffd5 	bl	80045f0 <stm32__i2c__i2c_configurationIP>
 8004646:	68fb      	ldr	r3, [r7, #12]
 8004648:	2200      	movs	r2, #0
 800464a:	751a      	strb	r2, [r3, #20]
 800464c:	3710      	adds	r7, #16
 800464e:	46bd      	mov	sp, r7
 8004650:	bd80      	pop	{r7, pc}
 8004652:	bf00      	nop
 8004654:	0800b7a4 	.word	0x0800b7a4

08004658 <stm32__i2c___size__2>:
 8004658:	b490      	push	{r4, r7}
 800465a:	b082      	sub	sp, #8
 800465c:	af00      	add	r7, sp, #0
 800465e:	6078      	str	r0, [r7, #4]
 8004660:	f04f 03c0 	mov.w	r3, #192	; 0xc0
 8004664:	f04f 0400 	mov.w	r4, #0
 8004668:	4618      	mov	r0, r3
 800466a:	4621      	mov	r1, r4
 800466c:	3708      	adds	r7, #8
 800466e:	46bd      	mov	sp, r7
 8004670:	bc90      	pop	{r4, r7}
 8004672:	4770      	bx	lr

08004674 <stm32__i2c__configure___postconditions.4692>:
 8004674:	b5b0      	push	{r4, r5, r7, lr}
 8004676:	b082      	sub	sp, #8
 8004678:	af00      	add	r7, sp, #0
 800467a:	4663      	mov	r3, ip
 800467c:	f8c7 c004 	str.w	ip, [r7, #4]
 8004680:	681b      	ldr	r3, [r3, #0]
 8004682:	4618      	mov	r0, r3
 8004684:	f001 ff82 	bl	800658c <stm32__i2c__port_enabled>
 8004688:	4603      	mov	r3, r0
 800468a:	f083 0301 	eor.w	r3, r3, #1
 800468e:	b2db      	uxtb	r3, r3
 8004690:	2b00      	cmp	r3, #0
 8004692:	d005      	beq.n	80046a0 <stm32__i2c__configure___postconditions.4692+0x2c>
 8004694:	4c04      	ldr	r4, [pc, #16]	; (80046a8 <stm32__i2c__configure___postconditions.4692+0x34>)
 8004696:	4d05      	ldr	r5, [pc, #20]	; (80046ac <stm32__i2c__configure___postconditions.4692+0x38>)
 8004698:	4620      	mov	r0, r4
 800469a:	4629      	mov	r1, r5
 800469c:	f005 ff8c 	bl	800a5b8 <system__assertions__raise_assert_failure>
 80046a0:	3708      	adds	r7, #8
 80046a2:	46bd      	mov	sp, r7
 80046a4:	bdb0      	pop	{r4, r5, r7, pc}
 80046a6:	bf00      	nop
 80046a8:	0800b7cc 	.word	0x0800b7cc
 80046ac:	0800b7f8 	.word	0x0800b7f8

080046b0 <stm32__i2c__configure>:
 80046b0:	e92d 47f0 	stmdb	sp!, {r4, r5, r6, r7, r8, r9, sl, lr}
 80046b4:	b09a      	sub	sp, #104	; 0x68
 80046b6:	af00      	add	r7, sp, #0
 80046b8:	6078      	str	r0, [r7, #4]
 80046ba:	6039      	str	r1, [r7, #0]
 80046bc:	f107 0388 	add.w	r3, r7, #136	; 0x88
 80046c0:	617b      	str	r3, [r7, #20]
 80046c2:	687b      	ldr	r3, [r7, #4]
 80046c4:	613b      	str	r3, [r7, #16]
 80046c6:	466b      	mov	r3, sp
 80046c8:	461e      	mov	r6, r3
 80046ca:	f107 0348 	add.w	r3, r7, #72	; 0x48
 80046ce:	4618      	mov	r0, r3
 80046d0:	f004 fcdc 	bl	800908c <stm32_svd__i2c__cr1_registerIP>
 80046d4:	f107 0344 	add.w	r3, r7, #68	; 0x44
 80046d8:	4618      	mov	r0, r3
 80046da:	f004 fd59 	bl	8009190 <stm32_svd__i2c__ccr_registerIP>
 80046de:	f107 0340 	add.w	r3, r7, #64	; 0x40
 80046e2:	4618      	mov	r0, r3
 80046e4:	f004 fd2e 	bl	8009144 <stm32_svd__i2c__oar1_registerIP>
 80046e8:	f107 0324 	add.w	r3, r7, #36	; 0x24
 80046ec:	4618      	mov	r0, r3
 80046ee:	f7fd ffbf 	bl	8002670 <stm32__device__system_clock_frequencies>
 80046f2:	6afb      	ldr	r3, [r7, #44]	; 0x2c
 80046f4:	667b      	str	r3, [r7, #100]	; 0x64
 80046f6:	6e7b      	ldr	r3, [r7, #100]	; 0x64
 80046f8:	4ab0      	ldr	r2, [pc, #704]	; (80049bc <stm32__i2c__configure+0x30c>)
 80046fa:	fba2 2303 	umull	r2, r3, r2, r3
 80046fe:	0c9b      	lsrs	r3, r3, #18
 8004700:	f8a7 3062 	strh.w	r3, [r7, #98]	; 0x62
 8004704:	693b      	ldr	r3, [r7, #16]
 8004706:	7d1b      	ldrb	r3, [r3, #20]
 8004708:	2b00      	cmp	r3, #0
 800470a:	d005      	beq.n	8004718 <stm32__i2c__configure+0x68>
 800470c:	f107 0310 	add.w	r3, r7, #16
 8004710:	469c      	mov	ip, r3
 8004712:	f7ff ffaf 	bl	8004674 <stm32__i2c__configure___postconditions.4692>
 8004716:	e27f      	b.n	8004c18 <stm32__i2c__configure+0x568>
 8004718:	693b      	ldr	r3, [r7, #16]
 800471a:	683a      	ldr	r2, [r7, #0]
 800471c:	3308      	adds	r3, #8
 800471e:	ca07      	ldmia	r2, {r0, r1, r2}
 8004720:	e883 0007 	stmia.w	r3, {r0, r1, r2}
 8004724:	f8b7 3062 	ldrh.w	r3, [r7, #98]	; 0x62
 8004728:	2b01      	cmp	r3, #1
 800472a:	d903      	bls.n	8004734 <stm32__i2c__configure+0x84>
 800472c:	f8b7 3062 	ldrh.w	r3, [r7, #98]	; 0x62
 8004730:	2b2d      	cmp	r3, #45	; 0x2d
 8004732:	d963      	bls.n	80047fc <stm32__i2c__configure+0x14c>
 8004734:	f8b7 3062 	ldrh.w	r3, [r7, #98]	; 0x62
 8004738:	f107 021c 	add.w	r2, r7, #28
 800473c:	4614      	mov	r4, r2
 800473e:	4da0      	ldr	r5, [pc, #640]	; (80049c0 <stm32__i2c__configure+0x310>)
 8004740:	4618      	mov	r0, r3
 8004742:	4622      	mov	r2, r4
 8004744:	462b      	mov	r3, r5
 8004746:	f005 fef9 	bl	800a53c <system__img_uns__image_unsigned>
 800474a:	4603      	mov	r3, r0
 800474c:	ea23 73e3 	bic.w	r3, r3, r3, asr #31
 8004750:	f103 0835 	add.w	r8, r3, #53	; 0x35
 8004754:	f108 0304 	add.w	r3, r8, #4
 8004758:	65fb      	str	r3, [r7, #92]	; 0x5c
 800475a:	6dfb      	ldr	r3, [r7, #92]	; 0x5c
 800475c:	ea23 73e3 	bic.w	r3, r3, r3, asr #31
 8004760:	65bb      	str	r3, [r7, #88]	; 0x58
 8004762:	6dfb      	ldr	r3, [r7, #92]	; 0x5c
 8004764:	ea23 73e3 	bic.w	r3, r3, r3, asr #31
 8004768:	3307      	adds	r3, #7
 800476a:	08db      	lsrs	r3, r3, #3
 800476c:	00db      	lsls	r3, r3, #3
 800476e:	ebad 0d03 	sub.w	sp, sp, r3
 8004772:	466b      	mov	r3, sp
 8004774:	3300      	adds	r3, #0
 8004776:	657b      	str	r3, [r7, #84]	; 0x54
 8004778:	6d7b      	ldr	r3, [r7, #84]	; 0x54
 800477a:	4a92      	ldr	r2, [pc, #584]	; (80049c4 <stm32__i2c__configure+0x314>)
 800477c:	4614      	mov	r4, r2
 800477e:	469e      	mov	lr, r3
 8004780:	f104 0c30 	add.w	ip, r4, #48	; 0x30
 8004784:	4675      	mov	r5, lr
 8004786:	4626      	mov	r6, r4
 8004788:	ce0f      	ldmia	r6!, {r0, r1, r2, r3}
 800478a:	6028      	str	r0, [r5, #0]
 800478c:	6069      	str	r1, [r5, #4]
 800478e:	60aa      	str	r2, [r5, #8]
 8004790:	60eb      	str	r3, [r5, #12]
 8004792:	3410      	adds	r4, #16
 8004794:	f10e 0e10 	add.w	lr, lr, #16
 8004798:	4564      	cmp	r4, ip
 800479a:	d1f3      	bne.n	8004784 <stm32__i2c__configure+0xd4>
 800479c:	4673      	mov	r3, lr
 800479e:	4622      	mov	r2, r4
 80047a0:	6810      	ldr	r0, [r2, #0]
 80047a2:	6018      	str	r0, [r3, #0]
 80047a4:	7912      	ldrb	r2, [r2, #4]
 80047a6:	711a      	strb	r2, [r3, #4]
 80047a8:	4643      	mov	r3, r8
 80047aa:	2b35      	cmp	r3, #53	; 0x35
 80047ac:	bfb8      	it	lt
 80047ae:	2335      	movlt	r3, #53	; 0x35
 80047b0:	f1a3 0235 	sub.w	r2, r3, #53	; 0x35
 80047b4:	6d7b      	ldr	r3, [r7, #84]	; 0x54
 80047b6:	f103 0135 	add.w	r1, r3, #53	; 0x35
 80047ba:	f107 031c 	add.w	r3, r7, #28
 80047be:	4608      	mov	r0, r1
 80047c0:	4619      	mov	r1, r3
 80047c2:	4613      	mov	r3, r2
 80047c4:	461a      	mov	r2, r3
 80047c6:	f005 fec7 	bl	800a558 <memcpy>
 80047ca:	f108 0301 	add.w	r3, r8, #1
 80047ce:	461a      	mov	r2, r3
 80047d0:	6d7b      	ldr	r3, [r7, #84]	; 0x54
 80047d2:	4413      	add	r3, r2
 80047d4:	4a7c      	ldr	r2, [pc, #496]	; (80049c8 <stm32__i2c__configure+0x318>)
 80047d6:	3b01      	subs	r3, #1
 80047d8:	6810      	ldr	r0, [r2, #0]
 80047da:	6018      	str	r0, [r3, #0]
 80047dc:	6d7b      	ldr	r3, [r7, #84]	; 0x54
 80047de:	4699      	mov	r9, r3
 80047e0:	2301      	movs	r3, #1
 80047e2:	64fb      	str	r3, [r7, #76]	; 0x4c
 80047e4:	6dfb      	ldr	r3, [r7, #92]	; 0x5c
 80047e6:	653b      	str	r3, [r7, #80]	; 0x50
 80047e8:	f107 034c 	add.w	r3, r7, #76	; 0x4c
 80047ec:	469a      	mov	sl, r3
 80047ee:	e9c7 9a02 	strd	r9, sl, [r7, #8]
 80047f2:	68bb      	ldr	r3, [r7, #8]
 80047f4:	4618      	mov	r0, r3
 80047f6:	2100      	movs	r1, #0
 80047f8:	f7fb fda8 	bl	800034c <__gnat_last_chance_handler>
 80047fc:	693b      	ldr	r3, [r7, #16]
 80047fe:	4618      	mov	r0, r3
 8004800:	2100      	movs	r1, #0
 8004802:	f001 feab 	bl	800655c <stm32__i2c__set_state>
 8004806:	f8b7 3062 	ldrh.w	r3, [r7, #98]	; 0x62
 800480a:	2b3f      	cmp	r3, #63	; 0x3f
 800480c:	d903      	bls.n	8004816 <stm32__i2c__configure+0x166>
 800480e:	486f      	ldr	r0, [pc, #444]	; (80049cc <stm32__i2c__configure+0x31c>)
 8004810:	21a1      	movs	r1, #161	; 0xa1
 8004812:	f7fb fd9b 	bl	800034c <__gnat_last_chance_handler>
 8004816:	69bb      	ldr	r3, [r7, #24]
 8004818:	f8b7 2062 	ldrh.w	r2, [r7, #98]	; 0x62
 800481c:	b2d2      	uxtb	r2, r2
 800481e:	f002 023f 	and.w	r2, r2, #63	; 0x3f
 8004822:	b2d2      	uxtb	r2, r2
 8004824:	f362 0305 	bfi	r3, r2, #0, #6
 8004828:	61bb      	str	r3, [r7, #24]
 800482a:	69bb      	ldr	r3, [r7, #24]
 800482c:	f36f 1387 	bfc	r3, #6, #2
 8004830:	61bb      	str	r3, [r7, #24]
 8004832:	69bb      	ldr	r3, [r7, #24]
 8004834:	f36f 2308 	bfc	r3, #8, #1
 8004838:	61bb      	str	r3, [r7, #24]
 800483a:	69bb      	ldr	r3, [r7, #24]
 800483c:	f36f 2349 	bfc	r3, #9, #1
 8004840:	61bb      	str	r3, [r7, #24]
 8004842:	69bb      	ldr	r3, [r7, #24]
 8004844:	f36f 238a 	bfc	r3, #10, #1
 8004848:	61bb      	str	r3, [r7, #24]
 800484a:	69bb      	ldr	r3, [r7, #24]
 800484c:	f36f 23cb 	bfc	r3, #11, #1
 8004850:	61bb      	str	r3, [r7, #24]
 8004852:	69bb      	ldr	r3, [r7, #24]
 8004854:	f36f 330c 	bfc	r3, #12, #1
 8004858:	61bb      	str	r3, [r7, #24]
 800485a:	69bb      	ldr	r3, [r7, #24]
 800485c:	f36f 335f 	bfc	r3, #13, #19
 8004860:	61bb      	str	r3, [r7, #24]
 8004862:	693b      	ldr	r3, [r7, #16]
 8004864:	685b      	ldr	r3, [r3, #4]
 8004866:	3304      	adds	r3, #4
 8004868:	69ba      	ldr	r2, [r7, #24]
 800486a:	601a      	str	r2, [r3, #0]
 800486c:	683b      	ldr	r3, [r7, #0]
 800486e:	681b      	ldr	r3, [r3, #0]
 8004870:	4a57      	ldr	r2, [pc, #348]	; (80049d0 <stm32__i2c__configure+0x320>)
 8004872:	4293      	cmp	r3, r2
 8004874:	d84f      	bhi.n	8004916 <stm32__i2c__configure+0x266>
 8004876:	6c7b      	ldr	r3, [r7, #68]	; 0x44
 8004878:	f36f 33cf 	bfc	r3, #15, #1
 800487c:	647b      	str	r3, [r7, #68]	; 0x44
 800487e:	683b      	ldr	r3, [r7, #0]
 8004880:	681b      	ldr	r3, [r3, #0]
 8004882:	005b      	lsls	r3, r3, #1
 8004884:	2b00      	cmp	r3, #0
 8004886:	d103      	bne.n	8004890 <stm32__i2c__configure+0x1e0>
 8004888:	4850      	ldr	r0, [pc, #320]	; (80049cc <stm32__i2c__configure+0x31c>)
 800488a:	21a8      	movs	r1, #168	; 0xa8
 800488c:	f7fb fd5e 	bl	800034c <__gnat_last_chance_handler>
 8004890:	683b      	ldr	r3, [r7, #0]
 8004892:	681b      	ldr	r3, [r3, #0]
 8004894:	005b      	lsls	r3, r3, #1
 8004896:	6e7a      	ldr	r2, [r7, #100]	; 0x64
 8004898:	fbb2 f3f3 	udiv	r3, r2, r3
 800489c:	f5b3 5f80 	cmp.w	r3, #4096	; 0x1000
 80048a0:	d303      	bcc.n	80048aa <stm32__i2c__configure+0x1fa>
 80048a2:	484a      	ldr	r0, [pc, #296]	; (80049cc <stm32__i2c__configure+0x31c>)
 80048a4:	21a8      	movs	r1, #168	; 0xa8
 80048a6:	f7fb fd51 	bl	800034c <__gnat_last_chance_handler>
 80048aa:	6c7b      	ldr	r3, [r7, #68]	; 0x44
 80048ac:	683a      	ldr	r2, [r7, #0]
 80048ae:	6812      	ldr	r2, [r2, #0]
 80048b0:	0052      	lsls	r2, r2, #1
 80048b2:	6e79      	ldr	r1, [r7, #100]	; 0x64
 80048b4:	fbb1 f2f2 	udiv	r2, r1, r2
 80048b8:	b292      	uxth	r2, r2
 80048ba:	f3c2 020b 	ubfx	r2, r2, #0, #12
 80048be:	b292      	uxth	r2, r2
 80048c0:	f362 030b 	bfi	r3, r2, #0, #12
 80048c4:	647b      	str	r3, [r7, #68]	; 0x44
 80048c6:	6c7b      	ldr	r3, [r7, #68]	; 0x44
 80048c8:	f3c3 030b 	ubfx	r3, r3, #0, #12
 80048cc:	b29b      	uxth	r3, r3
 80048ce:	2b03      	cmp	r3, #3
 80048d0:	d804      	bhi.n	80048dc <stm32__i2c__configure+0x22c>
 80048d2:	6c7b      	ldr	r3, [r7, #68]	; 0x44
 80048d4:	2204      	movs	r2, #4
 80048d6:	f362 030b 	bfi	r3, r2, #0, #12
 80048da:	647b      	str	r3, [r7, #68]	; 0x44
 80048dc:	f8b7 3062 	ldrh.w	r3, [r7, #98]	; 0x62
 80048e0:	3301      	adds	r3, #1
 80048e2:	b29b      	uxth	r3, r3
 80048e4:	2b3f      	cmp	r3, #63	; 0x3f
 80048e6:	d903      	bls.n	80048f0 <stm32__i2c__configure+0x240>
 80048e8:	4838      	ldr	r0, [pc, #224]	; (80049cc <stm32__i2c__configure+0x31c>)
 80048ea:	21ae      	movs	r1, #174	; 0xae
 80048ec:	f7fb fd2e 	bl	800034c <__gnat_last_chance_handler>
 80048f0:	693b      	ldr	r3, [r7, #16]
 80048f2:	685b      	ldr	r3, [r3, #4]
 80048f4:	3320      	adds	r3, #32
 80048f6:	681b      	ldr	r3, [r3, #0]
 80048f8:	f8b7 2062 	ldrh.w	r2, [r7, #98]	; 0x62
 80048fc:	b2d2      	uxtb	r2, r2
 80048fe:	3201      	adds	r2, #1
 8004900:	b2d2      	uxtb	r2, r2
 8004902:	f002 023f 	and.w	r2, r2, #63	; 0x3f
 8004906:	b2d2      	uxtb	r2, r2
 8004908:	f362 0305 	bfi	r3, r2, #0, #6
 800490c:	693a      	ldr	r2, [r7, #16]
 800490e:	6852      	ldr	r2, [r2, #4]
 8004910:	3220      	adds	r2, #32
 8004912:	6013      	str	r3, [r2, #0]
 8004914:	e0ad      	b.n	8004a72 <stm32__i2c__configure+0x3c2>
 8004916:	6c7b      	ldr	r3, [r7, #68]	; 0x44
 8004918:	f443 4300 	orr.w	r3, r3, #32768	; 0x8000
 800491c:	647b      	str	r3, [r7, #68]	; 0x44
 800491e:	683b      	ldr	r3, [r7, #0]
 8004920:	795b      	ldrb	r3, [r3, #5]
 8004922:	2b01      	cmp	r3, #1
 8004924:	d12c      	bne.n	8004980 <stm32__i2c__configure+0x2d0>
 8004926:	683b      	ldr	r3, [r7, #0]
 8004928:	681a      	ldr	r2, [r3, #0]
 800492a:	4613      	mov	r3, r2
 800492c:	005b      	lsls	r3, r3, #1
 800492e:	4413      	add	r3, r2
 8004930:	2b00      	cmp	r3, #0
 8004932:	d103      	bne.n	800493c <stm32__i2c__configure+0x28c>
 8004934:	4825      	ldr	r0, [pc, #148]	; (80049cc <stm32__i2c__configure+0x31c>)
 8004936:	21b5      	movs	r1, #181	; 0xb5
 8004938:	f7fb fd08 	bl	800034c <__gnat_last_chance_handler>
 800493c:	683b      	ldr	r3, [r7, #0]
 800493e:	681a      	ldr	r2, [r3, #0]
 8004940:	4613      	mov	r3, r2
 8004942:	005b      	lsls	r3, r3, #1
 8004944:	4413      	add	r3, r2
 8004946:	6e7a      	ldr	r2, [r7, #100]	; 0x64
 8004948:	fbb2 f3f3 	udiv	r3, r2, r3
 800494c:	f5b3 5f80 	cmp.w	r3, #4096	; 0x1000
 8004950:	d303      	bcc.n	800495a <stm32__i2c__configure+0x2aa>
 8004952:	481e      	ldr	r0, [pc, #120]	; (80049cc <stm32__i2c__configure+0x31c>)
 8004954:	21b5      	movs	r1, #181	; 0xb5
 8004956:	f7fb fcf9 	bl	800034c <__gnat_last_chance_handler>
 800495a:	6c7b      	ldr	r3, [r7, #68]	; 0x44
 800495c:	461a      	mov	r2, r3
 800495e:	683b      	ldr	r3, [r7, #0]
 8004960:	6819      	ldr	r1, [r3, #0]
 8004962:	460b      	mov	r3, r1
 8004964:	005b      	lsls	r3, r3, #1
 8004966:	440b      	add	r3, r1
 8004968:	6e79      	ldr	r1, [r7, #100]	; 0x64
 800496a:	fbb1 f3f3 	udiv	r3, r1, r3
 800496e:	b29b      	uxth	r3, r3
 8004970:	f3c3 030b 	ubfx	r3, r3, #0, #12
 8004974:	b29b      	uxth	r3, r3
 8004976:	f363 020b 	bfi	r2, r3, #0, #12
 800497a:	4613      	mov	r3, r2
 800497c:	647b      	str	r3, [r7, #68]	; 0x44
 800497e:	e041      	b.n	8004a04 <stm32__i2c__configure+0x354>
 8004980:	683b      	ldr	r3, [r7, #0]
 8004982:	681a      	ldr	r2, [r3, #0]
 8004984:	4613      	mov	r3, r2
 8004986:	009b      	lsls	r3, r3, #2
 8004988:	4413      	add	r3, r2
 800498a:	009a      	lsls	r2, r3, #2
 800498c:	4413      	add	r3, r2
 800498e:	2b00      	cmp	r3, #0
 8004990:	d103      	bne.n	800499a <stm32__i2c__configure+0x2ea>
 8004992:	480e      	ldr	r0, [pc, #56]	; (80049cc <stm32__i2c__configure+0x31c>)
 8004994:	21b7      	movs	r1, #183	; 0xb7
 8004996:	f7fb fcd9 	bl	800034c <__gnat_last_chance_handler>
 800499a:	683b      	ldr	r3, [r7, #0]
 800499c:	681a      	ldr	r2, [r3, #0]
 800499e:	4613      	mov	r3, r2
 80049a0:	009b      	lsls	r3, r3, #2
 80049a2:	4413      	add	r3, r2
 80049a4:	009a      	lsls	r2, r3, #2
 80049a6:	4413      	add	r3, r2
 80049a8:	6e7a      	ldr	r2, [r7, #100]	; 0x64
 80049aa:	fbb2 f3f3 	udiv	r3, r2, r3
 80049ae:	f5b3 5f80 	cmp.w	r3, #4096	; 0x1000
 80049b2:	d30f      	bcc.n	80049d4 <stm32__i2c__configure+0x324>
 80049b4:	4805      	ldr	r0, [pc, #20]	; (80049cc <stm32__i2c__configure+0x31c>)
 80049b6:	21b7      	movs	r1, #183	; 0xb7
 80049b8:	f7fb fcc8 	bl	800034c <__gnat_last_chance_handler>
 80049bc:	431bde83 	.word	0x431bde83
 80049c0:	0800b810 	.word	0x0800b810
 80049c4:	0800b818 	.word	0x0800b818
 80049c8:	0800b850 	.word	0x0800b850
 80049cc:	0800b800 	.word	0x0800b800
 80049d0:	000186a0 	.word	0x000186a0
 80049d4:	6c7b      	ldr	r3, [r7, #68]	; 0x44
 80049d6:	461a      	mov	r2, r3
 80049d8:	683b      	ldr	r3, [r7, #0]
 80049da:	6819      	ldr	r1, [r3, #0]
 80049dc:	460b      	mov	r3, r1
 80049de:	009b      	lsls	r3, r3, #2
 80049e0:	440b      	add	r3, r1
 80049e2:	0099      	lsls	r1, r3, #2
 80049e4:	440b      	add	r3, r1
 80049e6:	6e79      	ldr	r1, [r7, #100]	; 0x64
 80049e8:	fbb1 f3f3 	udiv	r3, r1, r3
 80049ec:	b29b      	uxth	r3, r3
 80049ee:	f3c3 030b 	ubfx	r3, r3, #0, #12
 80049f2:	b29b      	uxth	r3, r3
 80049f4:	f363 020b 	bfi	r2, r3, #0, #12
 80049f8:	4613      	mov	r3, r2
 80049fa:	647b      	str	r3, [r7, #68]	; 0x44
 80049fc:	6c7b      	ldr	r3, [r7, #68]	; 0x44
 80049fe:	f443 4380 	orr.w	r3, r3, #16384	; 0x4000
 8004a02:	647b      	str	r3, [r7, #68]	; 0x44
 8004a04:	6c7b      	ldr	r3, [r7, #68]	; 0x44
 8004a06:	b29b      	uxth	r3, r3
 8004a08:	f3c3 030b 	ubfx	r3, r3, #0, #12
 8004a0c:	b29b      	uxth	r3, r3
 8004a0e:	2b00      	cmp	r3, #0
 8004a10:	d104      	bne.n	8004a1c <stm32__i2c__configure+0x36c>
 8004a12:	6c7b      	ldr	r3, [r7, #68]	; 0x44
 8004a14:	2201      	movs	r2, #1
 8004a16:	f362 030b 	bfi	r3, r2, #0, #12
 8004a1a:	647b      	str	r3, [r7, #68]	; 0x44
 8004a1c:	f8b7 3062 	ldrh.w	r3, [r7, #98]	; 0x62
 8004a20:	f44f 7296 	mov.w	r2, #300	; 0x12c
 8004a24:	fb02 f303 	mul.w	r3, r2, r3
 8004a28:	4a7e      	ldr	r2, [pc, #504]	; (8004c24 <stm32__i2c__configure+0x574>)
 8004a2a:	fba2 2303 	umull	r2, r3, r2, r3
 8004a2e:	099b      	lsrs	r3, r3, #6
 8004a30:	3301      	adds	r3, #1
 8004a32:	2b3f      	cmp	r3, #63	; 0x3f
 8004a34:	d903      	bls.n	8004a3e <stm32__i2c__configure+0x38e>
 8004a36:	487c      	ldr	r0, [pc, #496]	; (8004c28 <stm32__i2c__configure+0x578>)
 8004a38:	21c0      	movs	r1, #192	; 0xc0
 8004a3a:	f7fb fc87 	bl	800034c <__gnat_last_chance_handler>
 8004a3e:	693b      	ldr	r3, [r7, #16]
 8004a40:	685b      	ldr	r3, [r3, #4]
 8004a42:	3320      	adds	r3, #32
 8004a44:	681b      	ldr	r3, [r3, #0]
 8004a46:	f8b7 2062 	ldrh.w	r2, [r7, #98]	; 0x62
 8004a4a:	f44f 7196 	mov.w	r1, #300	; 0x12c
 8004a4e:	fb01 f202 	mul.w	r2, r1, r2
 8004a52:	4974      	ldr	r1, [pc, #464]	; (8004c24 <stm32__i2c__configure+0x574>)
 8004a54:	fba1 1202 	umull	r1, r2, r1, r2
 8004a58:	0992      	lsrs	r2, r2, #6
 8004a5a:	b2d2      	uxtb	r2, r2
 8004a5c:	3201      	adds	r2, #1
 8004a5e:	b2d2      	uxtb	r2, r2
 8004a60:	f002 023f 	and.w	r2, r2, #63	; 0x3f
 8004a64:	b2d2      	uxtb	r2, r2
 8004a66:	f362 0305 	bfi	r3, r2, #0, #6
 8004a6a:	693a      	ldr	r2, [r7, #16]
 8004a6c:	6852      	ldr	r2, [r2, #4]
 8004a6e:	3220      	adds	r2, #32
 8004a70:	6013      	str	r3, [r2, #0]
 8004a72:	693b      	ldr	r3, [r7, #16]
 8004a74:	685b      	ldr	r3, [r3, #4]
 8004a76:	331c      	adds	r3, #28
 8004a78:	6c7a      	ldr	r2, [r7, #68]	; 0x44
 8004a7a:	601a      	str	r2, [r3, #0]
 8004a7c:	683b      	ldr	r3, [r7, #0]
 8004a7e:	791b      	ldrb	r3, [r3, #4]
 8004a80:	2b02      	cmp	r3, #2
 8004a82:	d903      	bls.n	8004a8c <stm32__i2c__configure+0x3dc>
 8004a84:	4868      	ldr	r0, [pc, #416]	; (8004c28 <stm32__i2c__configure+0x578>)
 8004a86:	21c6      	movs	r1, #198	; 0xc6
 8004a88:	f7fb fc60 	bl	800034c <__gnat_last_chance_handler>
 8004a8c:	683b      	ldr	r3, [r7, #0]
 8004a8e:	791b      	ldrb	r3, [r3, #4]
 8004a90:	2b00      	cmp	r3, #0
 8004a92:	d002      	beq.n	8004a9a <stm32__i2c__configure+0x3ea>
 8004a94:	2b01      	cmp	r3, #1
 8004a96:	d009      	beq.n	8004aac <stm32__i2c__configure+0x3fc>
 8004a98:	e011      	b.n	8004abe <stm32__i2c__configure+0x40e>
 8004a9a:	6cbb      	ldr	r3, [r7, #72]	; 0x48
 8004a9c:	f36f 0341 	bfc	r3, #1, #1
 8004aa0:	64bb      	str	r3, [r7, #72]	; 0x48
 8004aa2:	6cbb      	ldr	r3, [r7, #72]	; 0x48
 8004aa4:	f36f 03c3 	bfc	r3, #3, #1
 8004aa8:	64bb      	str	r3, [r7, #72]	; 0x48
 8004aaa:	e010      	b.n	8004ace <stm32__i2c__configure+0x41e>
 8004aac:	6cbb      	ldr	r3, [r7, #72]	; 0x48
 8004aae:	f043 0302 	orr.w	r3, r3, #2
 8004ab2:	64bb      	str	r3, [r7, #72]	; 0x48
 8004ab4:	6cbb      	ldr	r3, [r7, #72]	; 0x48
 8004ab6:	f36f 03c3 	bfc	r3, #3, #1
 8004aba:	64bb      	str	r3, [r7, #72]	; 0x48
 8004abc:	e007      	b.n	8004ace <stm32__i2c__configure+0x41e>
 8004abe:	6cbb      	ldr	r3, [r7, #72]	; 0x48
 8004ac0:	f043 0302 	orr.w	r3, r3, #2
 8004ac4:	64bb      	str	r3, [r7, #72]	; 0x48
 8004ac6:	6cbb      	ldr	r3, [r7, #72]	; 0x48
 8004ac8:	f043 0308 	orr.w	r3, r3, #8
 8004acc:	64bb      	str	r3, [r7, #72]	; 0x48
 8004ace:	bf00      	nop
 8004ad0:	6cbb      	ldr	r3, [r7, #72]	; 0x48
 8004ad2:	683a      	ldr	r2, [r7, #0]
 8004ad4:	7a92      	ldrb	r2, [r2, #10]
 8004ad6:	f002 0201 	and.w	r2, r2, #1
 8004ada:	b2d2      	uxtb	r2, r2
 8004adc:	f362 1386 	bfi	r3, r2, #6, #1
 8004ae0:	64bb      	str	r3, [r7, #72]	; 0x48
 8004ae2:	6cbb      	ldr	r3, [r7, #72]	; 0x48
 8004ae4:	683a      	ldr	r2, [r7, #0]
 8004ae6:	7ad2      	ldrb	r2, [r2, #11]
 8004ae8:	f082 0201 	eor.w	r2, r2, #1
 8004aec:	b2d2      	uxtb	r2, r2
 8004aee:	f002 0201 	and.w	r2, r2, #1
 8004af2:	b2d2      	uxtb	r2, r2
 8004af4:	f362 13c7 	bfi	r3, r2, #7, #1
 8004af8:	64bb      	str	r3, [r7, #72]	; 0x48
 8004afa:	693b      	ldr	r3, [r7, #16]
 8004afc:	685b      	ldr	r3, [r3, #4]
 8004afe:	461a      	mov	r2, r3
 8004b00:	6cbb      	ldr	r3, [r7, #72]	; 0x48
 8004b02:	6013      	str	r3, [r2, #0]
 8004b04:	6c3b      	ldr	r3, [r7, #64]	; 0x40
 8004b06:	683a      	ldr	r2, [r7, #0]
 8004b08:	7992      	ldrb	r2, [r2, #6]
 8004b0a:	2a01      	cmp	r2, #1
 8004b0c:	bf0c      	ite	eq
 8004b0e:	2201      	moveq	r2, #1
 8004b10:	2200      	movne	r2, #0
 8004b12:	b2d2      	uxtb	r2, r2
 8004b14:	f002 0201 	and.w	r2, r2, #1
 8004b18:	b2d2      	uxtb	r2, r2
 8004b1a:	f362 33cf 	bfi	r3, r2, #15, #1
 8004b1e:	643b      	str	r3, [r7, #64]	; 0x40
 8004b20:	683b      	ldr	r3, [r7, #0]
 8004b22:	799b      	ldrb	r3, [r3, #6]
 8004b24:	2b01      	cmp	r3, #1
 8004b26:	d903      	bls.n	8004b30 <stm32__i2c__configure+0x480>
 8004b28:	483f      	ldr	r0, [pc, #252]	; (8004c28 <stm32__i2c__configure+0x578>)
 8004b2a:	21d7      	movs	r1, #215	; 0xd7
 8004b2c:	f7fb fc0e 	bl	800034c <__gnat_last_chance_handler>
 8004b30:	683b      	ldr	r3, [r7, #0]
 8004b32:	799b      	ldrb	r3, [r3, #6]
 8004b34:	2b00      	cmp	r3, #0
 8004b36:	d11c      	bne.n	8004b72 <stm32__i2c__configure+0x4c2>
 8004b38:	6c3b      	ldr	r3, [r7, #64]	; 0x40
 8004b3a:	f36f 0300 	bfc	r3, #0, #1
 8004b3e:	643b      	str	r3, [r7, #64]	; 0x40
 8004b40:	683b      	ldr	r3, [r7, #0]
 8004b42:	891b      	ldrh	r3, [r3, #8]
 8004b44:	2bff      	cmp	r3, #255	; 0xff
 8004b46:	d903      	bls.n	8004b50 <stm32__i2c__configure+0x4a0>
 8004b48:	4837      	ldr	r0, [pc, #220]	; (8004c28 <stm32__i2c__configure+0x578>)
 8004b4a:	21da      	movs	r1, #218	; 0xda
 8004b4c:	f7fb fbfe 	bl	800034c <__gnat_last_chance_handler>
 8004b50:	6c3b      	ldr	r3, [r7, #64]	; 0x40
 8004b52:	683a      	ldr	r2, [r7, #0]
 8004b54:	8912      	ldrh	r2, [r2, #8]
 8004b56:	0852      	lsrs	r2, r2, #1
 8004b58:	b292      	uxth	r2, r2
 8004b5a:	b2d2      	uxtb	r2, r2
 8004b5c:	f002 027f 	and.w	r2, r2, #127	; 0x7f
 8004b60:	b2d2      	uxtb	r2, r2
 8004b62:	f362 0347 	bfi	r3, r2, #1, #7
 8004b66:	643b      	str	r3, [r7, #64]	; 0x40
 8004b68:	6c3b      	ldr	r3, [r7, #64]	; 0x40
 8004b6a:	f36f 2309 	bfc	r3, #8, #2
 8004b6e:	643b      	str	r3, [r7, #64]	; 0x40
 8004b70:	e040      	b.n	8004bf4 <stm32__i2c__configure+0x544>
 8004b72:	6c3b      	ldr	r3, [r7, #64]	; 0x40
 8004b74:	683a      	ldr	r2, [r7, #0]
 8004b76:	8912      	ldrh	r2, [r2, #8]
 8004b78:	f002 0201 	and.w	r2, r2, #1
 8004b7c:	b292      	uxth	r2, r2
 8004b7e:	2a00      	cmp	r2, #0
 8004b80:	bf14      	ite	ne
 8004b82:	2201      	movne	r2, #1
 8004b84:	2200      	moveq	r2, #0
 8004b86:	b2d2      	uxtb	r2, r2
 8004b88:	f002 0201 	and.w	r2, r2, #1
 8004b8c:	b2d2      	uxtb	r2, r2
 8004b8e:	f362 0300 	bfi	r3, r2, #0, #1
 8004b92:	643b      	str	r3, [r7, #64]	; 0x40
 8004b94:	683b      	ldr	r3, [r7, #0]
 8004b96:	891b      	ldrh	r3, [r3, #8]
 8004b98:	085b      	lsrs	r3, r3, #1
 8004b9a:	b29b      	uxth	r3, r3
 8004b9c:	f003 037f 	and.w	r3, r3, #127	; 0x7f
 8004ba0:	b29b      	uxth	r3, r3
 8004ba2:	2b7f      	cmp	r3, #127	; 0x7f
 8004ba4:	d903      	bls.n	8004bae <stm32__i2c__configure+0x4fe>
 8004ba6:	4820      	ldr	r0, [pc, #128]	; (8004c28 <stm32__i2c__configure+0x578>)
 8004ba8:	21de      	movs	r1, #222	; 0xde
 8004baa:	f7fb fbcf 	bl	800034c <__gnat_last_chance_handler>
 8004bae:	6c3b      	ldr	r3, [r7, #64]	; 0x40
 8004bb0:	683a      	ldr	r2, [r7, #0]
 8004bb2:	8912      	ldrh	r2, [r2, #8]
 8004bb4:	0852      	lsrs	r2, r2, #1
 8004bb6:	b292      	uxth	r2, r2
 8004bb8:	b2d2      	uxtb	r2, r2
 8004bba:	f002 027f 	and.w	r2, r2, #127	; 0x7f
 8004bbe:	b2d2      	uxtb	r2, r2
 8004bc0:	f362 0347 	bfi	r3, r2, #1, #7
 8004bc4:	643b      	str	r3, [r7, #64]	; 0x40
 8004bc6:	6c3b      	ldr	r3, [r7, #64]	; 0x40
 8004bc8:	683a      	ldr	r2, [r7, #0]
 8004bca:	8912      	ldrh	r2, [r2, #8]
 8004bcc:	0a12      	lsrs	r2, r2, #8
 8004bce:	b292      	uxth	r2, r2
 8004bd0:	b2d2      	uxtb	r2, r2
 8004bd2:	2a03      	cmp	r2, #3
 8004bd4:	d903      	bls.n	8004bde <stm32__i2c__configure+0x52e>
 8004bd6:	4814      	ldr	r0, [pc, #80]	; (8004c28 <stm32__i2c__configure+0x578>)
 8004bd8:	21df      	movs	r1, #223	; 0xdf
 8004bda:	f7fb fbb7 	bl	800034c <__gnat_last_chance_handler>
 8004bde:	683a      	ldr	r2, [r7, #0]
 8004be0:	8912      	ldrh	r2, [r2, #8]
 8004be2:	0a12      	lsrs	r2, r2, #8
 8004be4:	b292      	uxth	r2, r2
 8004be6:	b2d2      	uxtb	r2, r2
 8004be8:	f002 0203 	and.w	r2, r2, #3
 8004bec:	b2d2      	uxtb	r2, r2
 8004bee:	f362 2309 	bfi	r3, r2, #8, #2
 8004bf2:	643b      	str	r3, [r7, #64]	; 0x40
 8004bf4:	693b      	ldr	r3, [r7, #16]
 8004bf6:	685b      	ldr	r3, [r3, #4]
 8004bf8:	3308      	adds	r3, #8
 8004bfa:	6c3a      	ldr	r2, [r7, #64]	; 0x40
 8004bfc:	601a      	str	r2, [r3, #0]
 8004bfe:	693b      	ldr	r3, [r7, #16]
 8004c00:	4618      	mov	r0, r3
 8004c02:	2101      	movs	r1, #1
 8004c04:	f001 fcaa 	bl	800655c <stm32__i2c__set_state>
 8004c08:	693b      	ldr	r3, [r7, #16]
 8004c0a:	2201      	movs	r2, #1
 8004c0c:	751a      	strb	r2, [r3, #20]
 8004c0e:	f107 0310 	add.w	r3, r7, #16
 8004c12:	469c      	mov	ip, r3
 8004c14:	f7ff fd2e 	bl	8004674 <stm32__i2c__configure___postconditions.4692>
 8004c18:	46b5      	mov	sp, r6
 8004c1a:	3768      	adds	r7, #104	; 0x68
 8004c1c:	46bd      	mov	sp, r7
 8004c1e:	e8bd 87f0 	ldmia.w	sp!, {r4, r5, r6, r7, r8, r9, sl, pc}
 8004c22:	bf00      	nop
 8004c24:	10624dd3 	.word	0x10624dd3
 8004c28:	0800b800 	.word	0x0800b800

08004c2c <stm32__i2c__flag_status>:
 8004c2c:	b580      	push	{r7, lr}
 8004c2e:	b082      	sub	sp, #8
 8004c30:	af00      	add	r7, sp, #0
 8004c32:	6078      	str	r0, [r7, #4]
 8004c34:	460b      	mov	r3, r1
 8004c36:	70fb      	strb	r3, [r7, #3]
 8004c38:	78fb      	ldrb	r3, [r7, #3]
 8004c3a:	2b14      	cmp	r3, #20
 8004c3c:	d903      	bls.n	8004c46 <stm32__i2c__flag_status+0x1a>
 8004c3e:	4870      	ldr	r0, [pc, #448]	; (8004e00 <stm32__i2c__flag_status+0x1d4>)
 8004c40:	21f0      	movs	r1, #240	; 0xf0
 8004c42:	f7fb fb83 	bl	800034c <__gnat_last_chance_handler>
 8004c46:	78fb      	ldrb	r3, [r7, #3]
 8004c48:	2b13      	cmp	r3, #19
 8004c4a:	f200 80cb 	bhi.w	8004de4 <stm32__i2c__flag_status+0x1b8>
 8004c4e:	a201      	add	r2, pc, #4	; (adr r2, 8004c54 <stm32__i2c__flag_status+0x28>)
 8004c50:	f852 f023 	ldr.w	pc, [r2, r3, lsl #2]
 8004c54:	08004ca5 	.word	0x08004ca5
 8004c58:	08004cb5 	.word	0x08004cb5
 8004c5c:	08004cc5 	.word	0x08004cc5
 8004c60:	08004cd5 	.word	0x08004cd5
 8004c64:	08004ce5 	.word	0x08004ce5
 8004c68:	08004cf5 	.word	0x08004cf5
 8004c6c:	08004d05 	.word	0x08004d05
 8004c70:	08004d15 	.word	0x08004d15
 8004c74:	08004d25 	.word	0x08004d25
 8004c78:	08004d35 	.word	0x08004d35
 8004c7c:	08004d45 	.word	0x08004d45
 8004c80:	08004d55 	.word	0x08004d55
 8004c84:	08004d65 	.word	0x08004d65
 8004c88:	08004d75 	.word	0x08004d75
 8004c8c:	08004d85 	.word	0x08004d85
 8004c90:	08004d95 	.word	0x08004d95
 8004c94:	08004da5 	.word	0x08004da5
 8004c98:	08004db5 	.word	0x08004db5
 8004c9c:	08004dc5 	.word	0x08004dc5
 8004ca0:	08004dd5 	.word	0x08004dd5
 8004ca4:	687b      	ldr	r3, [r7, #4]
 8004ca6:	685b      	ldr	r3, [r3, #4]
 8004ca8:	3314      	adds	r3, #20
 8004caa:	681b      	ldr	r3, [r3, #0]
 8004cac:	f3c3 0300 	ubfx	r3, r3, #0, #1
 8004cb0:	b2db      	uxtb	r3, r3
 8004cb2:	e09f      	b.n	8004df4 <stm32__i2c__flag_status+0x1c8>
 8004cb4:	687b      	ldr	r3, [r7, #4]
 8004cb6:	685b      	ldr	r3, [r3, #4]
 8004cb8:	3314      	adds	r3, #20
 8004cba:	681b      	ldr	r3, [r3, #0]
 8004cbc:	f3c3 0340 	ubfx	r3, r3, #1, #1
 8004cc0:	b2db      	uxtb	r3, r3
 8004cc2:	e097      	b.n	8004df4 <stm32__i2c__flag_status+0x1c8>
 8004cc4:	687b      	ldr	r3, [r7, #4]
 8004cc6:	685b      	ldr	r3, [r3, #4]
 8004cc8:	3314      	adds	r3, #20
 8004cca:	681b      	ldr	r3, [r3, #0]
 8004ccc:	f3c3 0380 	ubfx	r3, r3, #2, #1
 8004cd0:	b2db      	uxtb	r3, r3
 8004cd2:	e08f      	b.n	8004df4 <stm32__i2c__flag_status+0x1c8>
 8004cd4:	687b      	ldr	r3, [r7, #4]
 8004cd6:	685b      	ldr	r3, [r3, #4]
 8004cd8:	3314      	adds	r3, #20
 8004cda:	681b      	ldr	r3, [r3, #0]
 8004cdc:	f3c3 03c0 	ubfx	r3, r3, #3, #1
 8004ce0:	b2db      	uxtb	r3, r3
 8004ce2:	e087      	b.n	8004df4 <stm32__i2c__flag_status+0x1c8>
 8004ce4:	687b      	ldr	r3, [r7, #4]
 8004ce6:	685b      	ldr	r3, [r3, #4]
 8004ce8:	3314      	adds	r3, #20
 8004cea:	681b      	ldr	r3, [r3, #0]
 8004cec:	f3c3 1300 	ubfx	r3, r3, #4, #1
 8004cf0:	b2db      	uxtb	r3, r3
 8004cf2:	e07f      	b.n	8004df4 <stm32__i2c__flag_status+0x1c8>
 8004cf4:	687b      	ldr	r3, [r7, #4]
 8004cf6:	685b      	ldr	r3, [r3, #4]
 8004cf8:	3314      	adds	r3, #20
 8004cfa:	681b      	ldr	r3, [r3, #0]
 8004cfc:	f3c3 1380 	ubfx	r3, r3, #6, #1
 8004d00:	b2db      	uxtb	r3, r3
 8004d02:	e077      	b.n	8004df4 <stm32__i2c__flag_status+0x1c8>
 8004d04:	687b      	ldr	r3, [r7, #4]
 8004d06:	685b      	ldr	r3, [r3, #4]
 8004d08:	3314      	adds	r3, #20
 8004d0a:	681b      	ldr	r3, [r3, #0]
 8004d0c:	f3c3 13c0 	ubfx	r3, r3, #7, #1
 8004d10:	b2db      	uxtb	r3, r3
 8004d12:	e06f      	b.n	8004df4 <stm32__i2c__flag_status+0x1c8>
 8004d14:	687b      	ldr	r3, [r7, #4]
 8004d16:	685b      	ldr	r3, [r3, #4]
 8004d18:	3314      	adds	r3, #20
 8004d1a:	681b      	ldr	r3, [r3, #0]
 8004d1c:	f3c3 2300 	ubfx	r3, r3, #8, #1
 8004d20:	b2db      	uxtb	r3, r3
 8004d22:	e067      	b.n	8004df4 <stm32__i2c__flag_status+0x1c8>
 8004d24:	687b      	ldr	r3, [r7, #4]
 8004d26:	685b      	ldr	r3, [r3, #4]
 8004d28:	3314      	adds	r3, #20
 8004d2a:	681b      	ldr	r3, [r3, #0]
 8004d2c:	f3c3 2340 	ubfx	r3, r3, #9, #1
 8004d30:	b2db      	uxtb	r3, r3
 8004d32:	e05f      	b.n	8004df4 <stm32__i2c__flag_status+0x1c8>
 8004d34:	687b      	ldr	r3, [r7, #4]
 8004d36:	685b      	ldr	r3, [r3, #4]
 8004d38:	3314      	adds	r3, #20
 8004d3a:	681b      	ldr	r3, [r3, #0]
 8004d3c:	f3c3 2380 	ubfx	r3, r3, #10, #1
 8004d40:	b2db      	uxtb	r3, r3
 8004d42:	e057      	b.n	8004df4 <stm32__i2c__flag_status+0x1c8>
 8004d44:	687b      	ldr	r3, [r7, #4]
 8004d46:	685b      	ldr	r3, [r3, #4]
 8004d48:	3314      	adds	r3, #20
 8004d4a:	681b      	ldr	r3, [r3, #0]
 8004d4c:	f3c3 23c0 	ubfx	r3, r3, #11, #1
 8004d50:	b2db      	uxtb	r3, r3
 8004d52:	e04f      	b.n	8004df4 <stm32__i2c__flag_status+0x1c8>
 8004d54:	687b      	ldr	r3, [r7, #4]
 8004d56:	685b      	ldr	r3, [r3, #4]
 8004d58:	3314      	adds	r3, #20
 8004d5a:	681b      	ldr	r3, [r3, #0]
 8004d5c:	f3c3 3300 	ubfx	r3, r3, #12, #1
 8004d60:	b2db      	uxtb	r3, r3
 8004d62:	e047      	b.n	8004df4 <stm32__i2c__flag_status+0x1c8>
 8004d64:	687b      	ldr	r3, [r7, #4]
 8004d66:	685b      	ldr	r3, [r3, #4]
 8004d68:	3314      	adds	r3, #20
 8004d6a:	681b      	ldr	r3, [r3, #0]
 8004d6c:	f3c3 3380 	ubfx	r3, r3, #14, #1
 8004d70:	b2db      	uxtb	r3, r3
 8004d72:	e03f      	b.n	8004df4 <stm32__i2c__flag_status+0x1c8>
 8004d74:	687b      	ldr	r3, [r7, #4]
 8004d76:	685b      	ldr	r3, [r3, #4]
 8004d78:	3314      	adds	r3, #20
 8004d7a:	681b      	ldr	r3, [r3, #0]
 8004d7c:	f3c3 33c0 	ubfx	r3, r3, #15, #1
 8004d80:	b2db      	uxtb	r3, r3
 8004d82:	e037      	b.n	8004df4 <stm32__i2c__flag_status+0x1c8>
 8004d84:	687b      	ldr	r3, [r7, #4]
 8004d86:	685b      	ldr	r3, [r3, #4]
 8004d88:	3318      	adds	r3, #24
 8004d8a:	681b      	ldr	r3, [r3, #0]
 8004d8c:	f3c3 0300 	ubfx	r3, r3, #0, #1
 8004d90:	b2db      	uxtb	r3, r3
 8004d92:	e02f      	b.n	8004df4 <stm32__i2c__flag_status+0x1c8>
 8004d94:	687b      	ldr	r3, [r7, #4]
 8004d96:	685b      	ldr	r3, [r3, #4]
 8004d98:	3318      	adds	r3, #24
 8004d9a:	681b      	ldr	r3, [r3, #0]
 8004d9c:	f3c3 0340 	ubfx	r3, r3, #1, #1
 8004da0:	b2db      	uxtb	r3, r3
 8004da2:	e027      	b.n	8004df4 <stm32__i2c__flag_status+0x1c8>
 8004da4:	687b      	ldr	r3, [r7, #4]
 8004da6:	685b      	ldr	r3, [r3, #4]
 8004da8:	3318      	adds	r3, #24
 8004daa:	681b      	ldr	r3, [r3, #0]
 8004dac:	f3c3 0380 	ubfx	r3, r3, #2, #1
 8004db0:	b2db      	uxtb	r3, r3
 8004db2:	e01f      	b.n	8004df4 <stm32__i2c__flag_status+0x1c8>
 8004db4:	687b      	ldr	r3, [r7, #4]
 8004db6:	685b      	ldr	r3, [r3, #4]
 8004db8:	3318      	adds	r3, #24
 8004dba:	681b      	ldr	r3, [r3, #0]
 8004dbc:	f3c3 1300 	ubfx	r3, r3, #4, #1
 8004dc0:	b2db      	uxtb	r3, r3
 8004dc2:	e017      	b.n	8004df4 <stm32__i2c__flag_status+0x1c8>
 8004dc4:	687b      	ldr	r3, [r7, #4]
 8004dc6:	685b      	ldr	r3, [r3, #4]
 8004dc8:	3318      	adds	r3, #24
 8004dca:	681b      	ldr	r3, [r3, #0]
 8004dcc:	f3c3 1340 	ubfx	r3, r3, #5, #1
 8004dd0:	b2db      	uxtb	r3, r3
 8004dd2:	e00f      	b.n	8004df4 <stm32__i2c__flag_status+0x1c8>
 8004dd4:	687b      	ldr	r3, [r7, #4]
 8004dd6:	685b      	ldr	r3, [r3, #4]
 8004dd8:	3318      	adds	r3, #24
 8004dda:	681b      	ldr	r3, [r3, #0]
 8004ddc:	f3c3 1380 	ubfx	r3, r3, #6, #1
 8004de0:	b2db      	uxtb	r3, r3
 8004de2:	e007      	b.n	8004df4 <stm32__i2c__flag_status+0x1c8>
 8004de4:	687b      	ldr	r3, [r7, #4]
 8004de6:	685b      	ldr	r3, [r3, #4]
 8004de8:	3318      	adds	r3, #24
 8004dea:	681b      	ldr	r3, [r3, #0]
 8004dec:	f3c3 13c0 	ubfx	r3, r3, #7, #1
 8004df0:	b2db      	uxtb	r3, r3
 8004df2:	bf00      	nop
 8004df4:	bf00      	nop
 8004df6:	4618      	mov	r0, r3
 8004df8:	3708      	adds	r7, #8
 8004dfa:	46bd      	mov	sp, r7
 8004dfc:	bd80      	pop	{r7, pc}
 8004dfe:	bf00      	nop
 8004e00:	0800b800 	.word	0x0800b800

08004e04 <stm32__i2c__clear_address_sent_status>:
 8004e04:	b480      	push	{r7}
 8004e06:	b085      	sub	sp, #20
 8004e08:	af00      	add	r7, sp, #0
 8004e0a:	6078      	str	r0, [r7, #4]
 8004e0c:	687b      	ldr	r3, [r7, #4]
 8004e0e:	685b      	ldr	r3, [r3, #4]
 8004e10:	3314      	adds	r3, #20
 8004e12:	681b      	ldr	r3, [r3, #0]
 8004e14:	f3c3 0340 	ubfx	r3, r3, #1, #1
 8004e18:	b2db      	uxtb	r3, r3
 8004e1a:	73fb      	strb	r3, [r7, #15]
 8004e1c:	687b      	ldr	r3, [r7, #4]
 8004e1e:	685b      	ldr	r3, [r3, #4]
 8004e20:	3318      	adds	r3, #24
 8004e22:	681b      	ldr	r3, [r3, #0]
 8004e24:	f3c3 0300 	ubfx	r3, r3, #0, #1
 8004e28:	b2db      	uxtb	r3, r3
 8004e2a:	73fb      	strb	r3, [r7, #15]
 8004e2c:	3714      	adds	r7, #20
 8004e2e:	46bd      	mov	sp, r7
 8004e30:	f85d 7b04 	ldr.w	r7, [sp], #4
 8004e34:	4770      	bx	lr
 8004e36:	bf00      	nop

08004e38 <stm32__i2c__wait_flag>:
 8004e38:	b5b0      	push	{r4, r5, r7, lr}
 8004e3a:	b088      	sub	sp, #32
 8004e3c:	af00      	add	r7, sp, #0
 8004e3e:	60f8      	str	r0, [r7, #12]
 8004e40:	607b      	str	r3, [r7, #4]
 8004e42:	460b      	mov	r3, r1
 8004e44:	72fb      	strb	r3, [r7, #11]
 8004e46:	4613      	mov	r3, r2
 8004e48:	72bb      	strb	r3, [r7, #10]
 8004e4a:	f004 fa1d 	bl	8009288 <ada__real_time__clock>
 8004e4e:	e9c7 0106 	strd	r0, r1, [r7, #24]
 8004e52:	7afb      	ldrb	r3, [r7, #11]
 8004e54:	68f8      	ldr	r0, [r7, #12]
 8004e56:	4619      	mov	r1, r3
 8004e58:	f7ff fee8 	bl	8004c2c <stm32__i2c__flag_status>
 8004e5c:	4603      	mov	r3, r0
 8004e5e:	461a      	mov	r2, r3
 8004e60:	7abb      	ldrb	r3, [r7, #10]
 8004e62:	4293      	cmp	r3, r2
 8004e64:	d11a      	bne.n	8004e9c <stm32__i2c__wait_flag+0x64>
 8004e66:	f004 fa0f 	bl	8009288 <ada__real_time__clock>
 8004e6a:	4603      	mov	r3, r0
 8004e6c:	460c      	mov	r4, r1
 8004e6e:	4618      	mov	r0, r3
 8004e70:	4621      	mov	r1, r4
 8004e72:	e9d7 2306 	ldrd	r2, r3, [r7, #24]
 8004e76:	f004 f9e5 	bl	8009244 <ada__real_time__Osubtract__2>
 8004e7a:	4604      	mov	r4, r0
 8004e7c:	460d      	mov	r5, r1
 8004e7e:	687b      	ldr	r3, [r7, #4]
 8004e80:	4618      	mov	r0, r3
 8004e82:	f004 fa49 	bl	8009318 <ada__real_time__milliseconds>
 8004e86:	4602      	mov	r2, r0
 8004e88:	460b      	mov	r3, r1
 8004e8a:	42a2      	cmp	r2, r4
 8004e8c:	41ab      	sbcs	r3, r5
 8004e8e:	dae0      	bge.n	8004e52 <stm32__i2c__wait_flag+0x1a>
 8004e90:	68fb      	ldr	r3, [r7, #12]
 8004e92:	2201      	movs	r2, #1
 8004e94:	751a      	strb	r2, [r3, #20]
 8004e96:	2302      	movs	r3, #2
 8004e98:	75fb      	strb	r3, [r7, #23]
 8004e9a:	e001      	b.n	8004ea0 <stm32__i2c__wait_flag+0x68>
 8004e9c:	2300      	movs	r3, #0
 8004e9e:	75fb      	strb	r3, [r7, #23]
 8004ea0:	7dfb      	ldrb	r3, [r7, #23]
 8004ea2:	bf00      	nop
 8004ea4:	4618      	mov	r0, r3
 8004ea6:	3720      	adds	r7, #32
 8004ea8:	46bd      	mov	sp, r7
 8004eaa:	bdb0      	pop	{r4, r5, r7, pc}

08004eac <stm32__i2c__wait_master_flag>:
 8004eac:	b5b0      	push	{r4, r5, r7, lr}
 8004eae:	b088      	sub	sp, #32
 8004eb0:	af00      	add	r7, sp, #0
 8004eb2:	60f8      	str	r0, [r7, #12]
 8004eb4:	460b      	mov	r3, r1
 8004eb6:	607a      	str	r2, [r7, #4]
 8004eb8:	72fb      	strb	r3, [r7, #11]
 8004eba:	f004 f9e5 	bl	8009288 <ada__real_time__clock>
 8004ebe:	e9c7 0106 	strd	r0, r1, [r7, #24]
 8004ec2:	7afb      	ldrb	r3, [r7, #11]
 8004ec4:	68f8      	ldr	r0, [r7, #12]
 8004ec6:	4619      	mov	r1, r3
 8004ec8:	f7ff feb0 	bl	8004c2c <stm32__i2c__flag_status>
 8004ecc:	4603      	mov	r3, r0
 8004ece:	f083 0301 	eor.w	r3, r3, #1
 8004ed2:	b2db      	uxtb	r3, r3
 8004ed4:	2b00      	cmp	r3, #0
 8004ed6:	d03d      	beq.n	8004f54 <stm32__i2c__wait_master_flag+0xa8>
 8004ed8:	68fb      	ldr	r3, [r7, #12]
 8004eda:	685b      	ldr	r3, [r3, #4]
 8004edc:	3314      	adds	r3, #20
 8004ede:	681b      	ldr	r3, [r3, #0]
 8004ee0:	f3c3 2380 	ubfx	r3, r3, #10, #1
 8004ee4:	b2db      	uxtb	r3, r3
 8004ee6:	2b00      	cmp	r3, #0
 8004ee8:	d019      	beq.n	8004f1e <stm32__i2c__wait_master_flag+0x72>
 8004eea:	68fb      	ldr	r3, [r7, #12]
 8004eec:	685b      	ldr	r3, [r3, #4]
 8004eee:	681b      	ldr	r3, [r3, #0]
 8004ef0:	461a      	mov	r2, r3
 8004ef2:	4613      	mov	r3, r2
 8004ef4:	f443 7200 	orr.w	r2, r3, #512	; 0x200
 8004ef8:	68fb      	ldr	r3, [r7, #12]
 8004efa:	685b      	ldr	r3, [r3, #4]
 8004efc:	601a      	str	r2, [r3, #0]
 8004efe:	68fb      	ldr	r3, [r7, #12]
 8004f00:	685b      	ldr	r3, [r3, #4]
 8004f02:	3314      	adds	r3, #20
 8004f04:	681b      	ldr	r3, [r3, #0]
 8004f06:	f36f 238a 	bfc	r3, #10, #1
 8004f0a:	68fa      	ldr	r2, [r7, #12]
 8004f0c:	6852      	ldr	r2, [r2, #4]
 8004f0e:	3214      	adds	r2, #20
 8004f10:	6013      	str	r3, [r2, #0]
 8004f12:	68fb      	ldr	r3, [r7, #12]
 8004f14:	2201      	movs	r2, #1
 8004f16:	751a      	strb	r2, [r3, #20]
 8004f18:	2301      	movs	r3, #1
 8004f1a:	75fb      	strb	r3, [r7, #23]
 8004f1c:	e01c      	b.n	8004f58 <stm32__i2c__wait_master_flag+0xac>
 8004f1e:	f004 f9b3 	bl	8009288 <ada__real_time__clock>
 8004f22:	4603      	mov	r3, r0
 8004f24:	460c      	mov	r4, r1
 8004f26:	4618      	mov	r0, r3
 8004f28:	4621      	mov	r1, r4
 8004f2a:	e9d7 2306 	ldrd	r2, r3, [r7, #24]
 8004f2e:	f004 f989 	bl	8009244 <ada__real_time__Osubtract__2>
 8004f32:	4604      	mov	r4, r0
 8004f34:	460d      	mov	r5, r1
 8004f36:	687b      	ldr	r3, [r7, #4]
 8004f38:	4618      	mov	r0, r3
 8004f3a:	f004 f9ed 	bl	8009318 <ada__real_time__milliseconds>
 8004f3e:	4602      	mov	r2, r0
 8004f40:	460b      	mov	r3, r1
 8004f42:	42a2      	cmp	r2, r4
 8004f44:	41ab      	sbcs	r3, r5
 8004f46:	dabc      	bge.n	8004ec2 <stm32__i2c__wait_master_flag+0x16>
 8004f48:	68fb      	ldr	r3, [r7, #12]
 8004f4a:	2201      	movs	r2, #1
 8004f4c:	751a      	strb	r2, [r3, #20]
 8004f4e:	2302      	movs	r3, #2
 8004f50:	75fb      	strb	r3, [r7, #23]
 8004f52:	e001      	b.n	8004f58 <stm32__i2c__wait_master_flag+0xac>
 8004f54:	2300      	movs	r3, #0
 8004f56:	75fb      	strb	r3, [r7, #23]
 8004f58:	7dfb      	ldrb	r3, [r7, #23]
 8004f5a:	bf00      	nop
 8004f5c:	4618      	mov	r0, r3
 8004f5e:	3720      	adds	r7, #32
 8004f60:	46bd      	mov	sp, r7
 8004f62:	bdb0      	pop	{r4, r5, r7, pc}

08004f64 <stm32__i2c__master_request_write>:
 8004f64:	b580      	push	{r7, lr}
 8004f66:	b086      	sub	sp, #24
 8004f68:	af00      	add	r7, sp, #0
 8004f6a:	60f8      	str	r0, [r7, #12]
 8004f6c:	460b      	mov	r3, r1
 8004f6e:	607a      	str	r2, [r7, #4]
 8004f70:	817b      	strh	r3, [r7, #10]
 8004f72:	68fb      	ldr	r3, [r7, #12]
 8004f74:	685b      	ldr	r3, [r3, #4]
 8004f76:	681b      	ldr	r3, [r3, #0]
 8004f78:	461a      	mov	r2, r3
 8004f7a:	4613      	mov	r3, r2
 8004f7c:	f443 7280 	orr.w	r2, r3, #256	; 0x100
 8004f80:	68fb      	ldr	r3, [r7, #12]
 8004f82:	685b      	ldr	r3, [r3, #4]
 8004f84:	601a      	str	r2, [r3, #0]
 8004f86:	68f8      	ldr	r0, [r7, #12]
 8004f88:	2100      	movs	r1, #0
 8004f8a:	2200      	movs	r2, #0
 8004f8c:	687b      	ldr	r3, [r7, #4]
 8004f8e:	f7ff ff53 	bl	8004e38 <stm32__i2c__wait_flag>
 8004f92:	4603      	mov	r3, r0
 8004f94:	757b      	strb	r3, [r7, #21]
 8004f96:	7d7b      	ldrb	r3, [r7, #21]
 8004f98:	2b00      	cmp	r3, #0
 8004f9a:	d166      	bne.n	800506a <stm32__i2c__master_request_write+0x106>
 8004f9c:	68fb      	ldr	r3, [r7, #12]
 8004f9e:	7b9b      	ldrb	r3, [r3, #14]
 8004fa0:	2b00      	cmp	r3, #0
 8004fa2:	d117      	bne.n	8004fd4 <stm32__i2c__master_request_write+0x70>
 8004fa4:	897b      	ldrh	r3, [r7, #10]
 8004fa6:	2bff      	cmp	r3, #255	; 0xff
 8004fa8:	d904      	bls.n	8004fb4 <stm32__i2c__master_request_write+0x50>
 8004faa:	4834      	ldr	r0, [pc, #208]	; (800507c <stm32__i2c__master_request_write+0x118>)
 8004fac:	f240 11a3 	movw	r1, #419	; 0x1a3
 8004fb0:	f7fb f9cc 	bl	800034c <__gnat_last_chance_handler>
 8004fb4:	68fb      	ldr	r3, [r7, #12]
 8004fb6:	685b      	ldr	r3, [r3, #4]
 8004fb8:	3310      	adds	r3, #16
 8004fba:	681b      	ldr	r3, [r3, #0]
 8004fbc:	897a      	ldrh	r2, [r7, #10]
 8004fbe:	b2d2      	uxtb	r2, r2
 8004fc0:	f022 0201 	bic.w	r2, r2, #1
 8004fc4:	b2d2      	uxtb	r2, r2
 8004fc6:	f362 0307 	bfi	r3, r2, #0, #8
 8004fca:	68fa      	ldr	r2, [r7, #12]
 8004fcc:	6852      	ldr	r2, [r2, #4]
 8004fce:	3210      	adds	r2, #16
 8004fd0:	6013      	str	r3, [r2, #0]
 8004fd2:	e042      	b.n	800505a <stm32__i2c__master_request_write+0xf6>
 8004fd4:	897b      	ldrh	r3, [r7, #10]
 8004fd6:	f403 7340 	and.w	r3, r3, #768	; 0x300
 8004fda:	b29b      	uxth	r3, r3
 8004fdc:	09db      	lsrs	r3, r3, #7
 8004fde:	b29b      	uxth	r3, r3
 8004fe0:	2bff      	cmp	r3, #255	; 0xff
 8004fe2:	d904      	bls.n	8004fee <stm32__i2c__master_request_write+0x8a>
 8004fe4:	4825      	ldr	r0, [pc, #148]	; (800507c <stm32__i2c__master_request_write+0x118>)
 8004fe6:	f240 11a7 	movw	r1, #423	; 0x1a7
 8004fea:	f7fb f9af 	bl	800034c <__gnat_last_chance_handler>
 8004fee:	897b      	ldrh	r3, [r7, #10]
 8004ff0:	f403 7340 	and.w	r3, r3, #768	; 0x300
 8004ff4:	b29b      	uxth	r3, r3
 8004ff6:	09db      	lsrs	r3, r3, #7
 8004ff8:	b29b      	uxth	r3, r3
 8004ffa:	75fb      	strb	r3, [r7, #23]
 8004ffc:	897b      	ldrh	r3, [r7, #10]
 8004ffe:	b2db      	uxtb	r3, r3
 8005000:	b29b      	uxth	r3, r3
 8005002:	2bff      	cmp	r3, #255	; 0xff
 8005004:	d904      	bls.n	8005010 <stm32__i2c__master_request_write+0xac>
 8005006:	481d      	ldr	r0, [pc, #116]	; (800507c <stm32__i2c__master_request_write+0x118>)
 8005008:	f240 11a9 	movw	r1, #425	; 0x1a9
 800500c:	f7fb f99e 	bl	800034c <__gnat_last_chance_handler>
 8005010:	897b      	ldrh	r3, [r7, #10]
 8005012:	75bb      	strb	r3, [r7, #22]
 8005014:	68fb      	ldr	r3, [r7, #12]
 8005016:	685b      	ldr	r3, [r3, #4]
 8005018:	3310      	adds	r3, #16
 800501a:	681b      	ldr	r3, [r3, #0]
 800501c:	7dfa      	ldrb	r2, [r7, #23]
 800501e:	f062 020f 	orn	r2, r2, #15
 8005022:	b2d2      	uxtb	r2, r2
 8005024:	f362 0307 	bfi	r3, r2, #0, #8
 8005028:	68fa      	ldr	r2, [r7, #12]
 800502a:	6852      	ldr	r2, [r2, #4]
 800502c:	3210      	adds	r2, #16
 800502e:	6013      	str	r3, [r2, #0]
 8005030:	68f8      	ldr	r0, [r7, #12]
 8005032:	2103      	movs	r1, #3
 8005034:	687a      	ldr	r2, [r7, #4]
 8005036:	f7ff ff39 	bl	8004eac <stm32__i2c__wait_master_flag>
 800503a:	4603      	mov	r3, r0
 800503c:	757b      	strb	r3, [r7, #21]
 800503e:	7d7b      	ldrb	r3, [r7, #21]
 8005040:	2b00      	cmp	r3, #0
 8005042:	d114      	bne.n	800506e <stm32__i2c__master_request_write+0x10a>
 8005044:	68fb      	ldr	r3, [r7, #12]
 8005046:	685b      	ldr	r3, [r3, #4]
 8005048:	3310      	adds	r3, #16
 800504a:	681b      	ldr	r3, [r3, #0]
 800504c:	7dba      	ldrb	r2, [r7, #22]
 800504e:	f362 0307 	bfi	r3, r2, #0, #8
 8005052:	68fa      	ldr	r2, [r7, #12]
 8005054:	6852      	ldr	r2, [r2, #4]
 8005056:	3210      	adds	r2, #16
 8005058:	6013      	str	r3, [r2, #0]
 800505a:	68f8      	ldr	r0, [r7, #12]
 800505c:	2101      	movs	r1, #1
 800505e:	687a      	ldr	r2, [r7, #4]
 8005060:	f7ff ff24 	bl	8004eac <stm32__i2c__wait_master_flag>
 8005064:	4603      	mov	r3, r0
 8005066:	757b      	strb	r3, [r7, #21]
 8005068:	e002      	b.n	8005070 <stm32__i2c__master_request_write+0x10c>
 800506a:	bf00      	nop
 800506c:	e000      	b.n	8005070 <stm32__i2c__master_request_write+0x10c>
 800506e:	bf00      	nop
 8005070:	7d7b      	ldrb	r3, [r7, #21]
 8005072:	bf00      	nop
 8005074:	4618      	mov	r0, r3
 8005076:	3718      	adds	r7, #24
 8005078:	46bd      	mov	sp, r7
 800507a:	bd80      	pop	{r7, pc}
 800507c:	0800b800 	.word	0x0800b800

08005080 <stm32__i2c__master_request_read>:
 8005080:	b580      	push	{r7, lr}
 8005082:	b086      	sub	sp, #24
 8005084:	af00      	add	r7, sp, #0
 8005086:	60f8      	str	r0, [r7, #12]
 8005088:	460b      	mov	r3, r1
 800508a:	607a      	str	r2, [r7, #4]
 800508c:	817b      	strh	r3, [r7, #10]
 800508e:	68fb      	ldr	r3, [r7, #12]
 8005090:	685b      	ldr	r3, [r3, #4]
 8005092:	681b      	ldr	r3, [r3, #0]
 8005094:	461a      	mov	r2, r3
 8005096:	4613      	mov	r3, r2
 8005098:	f443 6280 	orr.w	r2, r3, #1024	; 0x400
 800509c:	68fb      	ldr	r3, [r7, #12]
 800509e:	685b      	ldr	r3, [r3, #4]
 80050a0:	601a      	str	r2, [r3, #0]
 80050a2:	68fb      	ldr	r3, [r7, #12]
 80050a4:	685b      	ldr	r3, [r3, #4]
 80050a6:	681b      	ldr	r3, [r3, #0]
 80050a8:	461a      	mov	r2, r3
 80050aa:	4613      	mov	r3, r2
 80050ac:	f443 7280 	orr.w	r2, r3, #256	; 0x100
 80050b0:	68fb      	ldr	r3, [r7, #12]
 80050b2:	685b      	ldr	r3, [r3, #4]
 80050b4:	601a      	str	r2, [r3, #0]
 80050b6:	68f8      	ldr	r0, [r7, #12]
 80050b8:	2100      	movs	r1, #0
 80050ba:	2200      	movs	r2, #0
 80050bc:	687b      	ldr	r3, [r7, #4]
 80050be:	f7ff febb 	bl	8004e38 <stm32__i2c__wait_flag>
 80050c2:	4603      	mov	r3, r0
 80050c4:	757b      	strb	r3, [r7, #21]
 80050c6:	7d7b      	ldrb	r3, [r7, #21]
 80050c8:	2b00      	cmp	r3, #0
 80050ca:	f040 8097 	bne.w	80051fc <stm32__i2c__master_request_read+0x17c>
 80050ce:	68fb      	ldr	r3, [r7, #12]
 80050d0:	7b9b      	ldrb	r3, [r3, #14]
 80050d2:	2b00      	cmp	r3, #0
 80050d4:	d117      	bne.n	8005106 <stm32__i2c__master_request_read+0x86>
 80050d6:	897b      	ldrh	r3, [r7, #10]
 80050d8:	2bff      	cmp	r3, #255	; 0xff
 80050da:	d904      	bls.n	80050e6 <stm32__i2c__master_request_read+0x66>
 80050dc:	484e      	ldr	r0, [pc, #312]	; (8005218 <stm32__i2c__master_request_read+0x198>)
 80050de:	f240 11d1 	movw	r1, #465	; 0x1d1
 80050e2:	f7fb f933 	bl	800034c <__gnat_last_chance_handler>
 80050e6:	68fb      	ldr	r3, [r7, #12]
 80050e8:	685b      	ldr	r3, [r3, #4]
 80050ea:	3310      	adds	r3, #16
 80050ec:	681b      	ldr	r3, [r3, #0]
 80050ee:	897a      	ldrh	r2, [r7, #10]
 80050f0:	b2d2      	uxtb	r2, r2
 80050f2:	f042 0201 	orr.w	r2, r2, #1
 80050f6:	b2d2      	uxtb	r2, r2
 80050f8:	f362 0307 	bfi	r3, r2, #0, #8
 80050fc:	68fa      	ldr	r2, [r7, #12]
 80050fe:	6852      	ldr	r2, [r2, #4]
 8005100:	3210      	adds	r2, #16
 8005102:	6013      	str	r3, [r2, #0]
 8005104:	e072      	b.n	80051ec <stm32__i2c__master_request_read+0x16c>
 8005106:	897b      	ldrh	r3, [r7, #10]
 8005108:	f403 7340 	and.w	r3, r3, #768	; 0x300
 800510c:	b29b      	uxth	r3, r3
 800510e:	09db      	lsrs	r3, r3, #7
 8005110:	b29b      	uxth	r3, r3
 8005112:	2bff      	cmp	r3, #255	; 0xff
 8005114:	d904      	bls.n	8005120 <stm32__i2c__master_request_read+0xa0>
 8005116:	4840      	ldr	r0, [pc, #256]	; (8005218 <stm32__i2c__master_request_read+0x198>)
 8005118:	f240 11d5 	movw	r1, #469	; 0x1d5
 800511c:	f7fb f916 	bl	800034c <__gnat_last_chance_handler>
 8005120:	897b      	ldrh	r3, [r7, #10]
 8005122:	f403 7340 	and.w	r3, r3, #768	; 0x300
 8005126:	b29b      	uxth	r3, r3
 8005128:	09db      	lsrs	r3, r3, #7
 800512a:	b29b      	uxth	r3, r3
 800512c:	75fb      	strb	r3, [r7, #23]
 800512e:	897b      	ldrh	r3, [r7, #10]
 8005130:	b2db      	uxtb	r3, r3
 8005132:	b29b      	uxth	r3, r3
 8005134:	2bff      	cmp	r3, #255	; 0xff
 8005136:	d904      	bls.n	8005142 <stm32__i2c__master_request_read+0xc2>
 8005138:	4837      	ldr	r0, [pc, #220]	; (8005218 <stm32__i2c__master_request_read+0x198>)
 800513a:	f240 11d7 	movw	r1, #471	; 0x1d7
 800513e:	f7fb f905 	bl	800034c <__gnat_last_chance_handler>
 8005142:	897b      	ldrh	r3, [r7, #10]
 8005144:	75bb      	strb	r3, [r7, #22]
 8005146:	68fb      	ldr	r3, [r7, #12]
 8005148:	685b      	ldr	r3, [r3, #4]
 800514a:	3310      	adds	r3, #16
 800514c:	681b      	ldr	r3, [r3, #0]
 800514e:	7dfa      	ldrb	r2, [r7, #23]
 8005150:	f062 020f 	orn	r2, r2, #15
 8005154:	b2d2      	uxtb	r2, r2
 8005156:	f362 0307 	bfi	r3, r2, #0, #8
 800515a:	68fa      	ldr	r2, [r7, #12]
 800515c:	6852      	ldr	r2, [r2, #4]
 800515e:	3210      	adds	r2, #16
 8005160:	6013      	str	r3, [r2, #0]
 8005162:	68f8      	ldr	r0, [r7, #12]
 8005164:	2103      	movs	r1, #3
 8005166:	687a      	ldr	r2, [r7, #4]
 8005168:	f7ff fea0 	bl	8004eac <stm32__i2c__wait_master_flag>
 800516c:	4603      	mov	r3, r0
 800516e:	757b      	strb	r3, [r7, #21]
 8005170:	7d7b      	ldrb	r3, [r7, #21]
 8005172:	2b00      	cmp	r3, #0
 8005174:	d144      	bne.n	8005200 <stm32__i2c__master_request_read+0x180>
 8005176:	68fb      	ldr	r3, [r7, #12]
 8005178:	685b      	ldr	r3, [r3, #4]
 800517a:	3310      	adds	r3, #16
 800517c:	681b      	ldr	r3, [r3, #0]
 800517e:	7dba      	ldrb	r2, [r7, #22]
 8005180:	f362 0307 	bfi	r3, r2, #0, #8
 8005184:	68fa      	ldr	r2, [r7, #12]
 8005186:	6852      	ldr	r2, [r2, #4]
 8005188:	3210      	adds	r2, #16
 800518a:	6013      	str	r3, [r2, #0]
 800518c:	68f8      	ldr	r0, [r7, #12]
 800518e:	2101      	movs	r1, #1
 8005190:	687a      	ldr	r2, [r7, #4]
 8005192:	f7ff fe8b 	bl	8004eac <stm32__i2c__wait_master_flag>
 8005196:	4603      	mov	r3, r0
 8005198:	757b      	strb	r3, [r7, #21]
 800519a:	7d7b      	ldrb	r3, [r7, #21]
 800519c:	2b00      	cmp	r3, #0
 800519e:	d131      	bne.n	8005204 <stm32__i2c__master_request_read+0x184>
 80051a0:	68f8      	ldr	r0, [r7, #12]
 80051a2:	f7ff fe2f 	bl	8004e04 <stm32__i2c__clear_address_sent_status>
 80051a6:	68fb      	ldr	r3, [r7, #12]
 80051a8:	685b      	ldr	r3, [r3, #4]
 80051aa:	681b      	ldr	r3, [r3, #0]
 80051ac:	461a      	mov	r2, r3
 80051ae:	4613      	mov	r3, r2
 80051b0:	f443 7280 	orr.w	r2, r3, #256	; 0x100
 80051b4:	68fb      	ldr	r3, [r7, #12]
 80051b6:	685b      	ldr	r3, [r3, #4]
 80051b8:	601a      	str	r2, [r3, #0]
 80051ba:	68f8      	ldr	r0, [r7, #12]
 80051bc:	2100      	movs	r1, #0
 80051be:	2200      	movs	r2, #0
 80051c0:	687b      	ldr	r3, [r7, #4]
 80051c2:	f7ff fe39 	bl	8004e38 <stm32__i2c__wait_flag>
 80051c6:	4603      	mov	r3, r0
 80051c8:	757b      	strb	r3, [r7, #21]
 80051ca:	7d7b      	ldrb	r3, [r7, #21]
 80051cc:	2b00      	cmp	r3, #0
 80051ce:	d11b      	bne.n	8005208 <stm32__i2c__master_request_read+0x188>
 80051d0:	68fb      	ldr	r3, [r7, #12]
 80051d2:	685b      	ldr	r3, [r3, #4]
 80051d4:	3310      	adds	r3, #16
 80051d6:	681b      	ldr	r3, [r3, #0]
 80051d8:	7dfa      	ldrb	r2, [r7, #23]
 80051da:	f062 020e 	orn	r2, r2, #14
 80051de:	b2d2      	uxtb	r2, r2
 80051e0:	f362 0307 	bfi	r3, r2, #0, #8
 80051e4:	68fa      	ldr	r2, [r7, #12]
 80051e6:	6852      	ldr	r2, [r2, #4]
 80051e8:	3210      	adds	r2, #16
 80051ea:	6013      	str	r3, [r2, #0]
 80051ec:	68f8      	ldr	r0, [r7, #12]
 80051ee:	2101      	movs	r1, #1
 80051f0:	687a      	ldr	r2, [r7, #4]
 80051f2:	f7ff fe5b 	bl	8004eac <stm32__i2c__wait_master_flag>
 80051f6:	4603      	mov	r3, r0
 80051f8:	757b      	strb	r3, [r7, #21]
 80051fa:	e006      	b.n	800520a <stm32__i2c__master_request_read+0x18a>
 80051fc:	bf00      	nop
 80051fe:	e004      	b.n	800520a <stm32__i2c__master_request_read+0x18a>
 8005200:	bf00      	nop
 8005202:	e002      	b.n	800520a <stm32__i2c__master_request_read+0x18a>
 8005204:	bf00      	nop
 8005206:	e000      	b.n	800520a <stm32__i2c__master_request_read+0x18a>
 8005208:	bf00      	nop
 800520a:	7d7b      	ldrb	r3, [r7, #21]
 800520c:	bf00      	nop
 800520e:	4618      	mov	r0, r3
 8005210:	3718      	adds	r7, #24
 8005212:	46bd      	mov	sp, r7
 8005214:	bd80      	pop	{r7, pc}
 8005216:	bf00      	nop
 8005218:	0800b800 	.word	0x0800b800

0800521c <stm32__i2c__mem_request_write>:
 800521c:	b580      	push	{r7, lr}
 800521e:	b086      	sub	sp, #24
 8005220:	af00      	add	r7, sp, #0
 8005222:	60f8      	str	r0, [r7, #12]
 8005224:	4608      	mov	r0, r1
 8005226:	4611      	mov	r1, r2
 8005228:	461a      	mov	r2, r3
 800522a:	4603      	mov	r3, r0
 800522c:	817b      	strh	r3, [r7, #10]
 800522e:	460b      	mov	r3, r1
 8005230:	813b      	strh	r3, [r7, #8]
 8005232:	4613      	mov	r3, r2
 8005234:	71fb      	strb	r3, [r7, #7]
 8005236:	68fb      	ldr	r3, [r7, #12]
 8005238:	685b      	ldr	r3, [r3, #4]
 800523a:	681b      	ldr	r3, [r3, #0]
 800523c:	461a      	mov	r2, r3
 800523e:	4613      	mov	r3, r2
 8005240:	f443 7280 	orr.w	r2, r3, #256	; 0x100
 8005244:	68fb      	ldr	r3, [r7, #12]
 8005246:	685b      	ldr	r3, [r3, #4]
 8005248:	601a      	str	r2, [r3, #0]
 800524a:	68f8      	ldr	r0, [r7, #12]
 800524c:	2100      	movs	r1, #0
 800524e:	2200      	movs	r2, #0
 8005250:	6a3b      	ldr	r3, [r7, #32]
 8005252:	f7ff fdf1 	bl	8004e38 <stm32__i2c__wait_flag>
 8005256:	4603      	mov	r3, r0
 8005258:	75fb      	strb	r3, [r7, #23]
 800525a:	7dfb      	ldrb	r3, [r7, #23]
 800525c:	2b00      	cmp	r3, #0
 800525e:	f040 8091 	bne.w	8005384 <stm32__i2c__mem_request_write+0x168>
 8005262:	897b      	ldrh	r3, [r7, #10]
 8005264:	2bff      	cmp	r3, #255	; 0xff
 8005266:	d904      	bls.n	8005272 <stm32__i2c__mem_request_write+0x56>
 8005268:	484d      	ldr	r0, [pc, #308]	; (80053a0 <stm32__i2c__mem_request_write+0x184>)
 800526a:	f240 2116 	movw	r1, #534	; 0x216
 800526e:	f7fb f86d 	bl	800034c <__gnat_last_chance_handler>
 8005272:	68fb      	ldr	r3, [r7, #12]
 8005274:	685b      	ldr	r3, [r3, #4]
 8005276:	3310      	adds	r3, #16
 8005278:	681b      	ldr	r3, [r3, #0]
 800527a:	897a      	ldrh	r2, [r7, #10]
 800527c:	b2d2      	uxtb	r2, r2
 800527e:	f022 0201 	bic.w	r2, r2, #1
 8005282:	b2d2      	uxtb	r2, r2
 8005284:	f362 0307 	bfi	r3, r2, #0, #8
 8005288:	68fa      	ldr	r2, [r7, #12]
 800528a:	6852      	ldr	r2, [r2, #4]
 800528c:	3210      	adds	r2, #16
 800528e:	6013      	str	r3, [r2, #0]
 8005290:	68f8      	ldr	r0, [r7, #12]
 8005292:	2101      	movs	r1, #1
 8005294:	6a3a      	ldr	r2, [r7, #32]
 8005296:	f7ff fe09 	bl	8004eac <stm32__i2c__wait_master_flag>
 800529a:	4603      	mov	r3, r0
 800529c:	75fb      	strb	r3, [r7, #23]
 800529e:	7dfb      	ldrb	r3, [r7, #23]
 80052a0:	2b00      	cmp	r3, #0
 80052a2:	d171      	bne.n	8005388 <stm32__i2c__mem_request_write+0x16c>
 80052a4:	68f8      	ldr	r0, [r7, #12]
 80052a6:	f7ff fdad 	bl	8004e04 <stm32__i2c__clear_address_sent_status>
 80052aa:	68f8      	ldr	r0, [r7, #12]
 80052ac:	2106      	movs	r1, #6
 80052ae:	2200      	movs	r2, #0
 80052b0:	6a3b      	ldr	r3, [r7, #32]
 80052b2:	f7ff fdc1 	bl	8004e38 <stm32__i2c__wait_flag>
 80052b6:	4603      	mov	r3, r0
 80052b8:	75fb      	strb	r3, [r7, #23]
 80052ba:	7dfb      	ldrb	r3, [r7, #23]
 80052bc:	2b00      	cmp	r3, #0
 80052be:	d165      	bne.n	800538c <stm32__i2c__mem_request_write+0x170>
 80052c0:	79fb      	ldrb	r3, [r7, #7]
 80052c2:	2b01      	cmp	r3, #1
 80052c4:	d904      	bls.n	80052d0 <stm32__i2c__mem_request_write+0xb4>
 80052c6:	4836      	ldr	r0, [pc, #216]	; (80053a0 <stm32__i2c__mem_request_write+0x184>)
 80052c8:	f240 2126 	movw	r1, #550	; 0x226
 80052cc:	f7fb f83e 	bl	800034c <__gnat_last_chance_handler>
 80052d0:	79fb      	ldrb	r3, [r7, #7]
 80052d2:	2b00      	cmp	r3, #0
 80052d4:	d114      	bne.n	8005300 <stm32__i2c__mem_request_write+0xe4>
 80052d6:	893b      	ldrh	r3, [r7, #8]
 80052d8:	2bff      	cmp	r3, #255	; 0xff
 80052da:	d904      	bls.n	80052e6 <stm32__i2c__mem_request_write+0xca>
 80052dc:	4830      	ldr	r0, [pc, #192]	; (80053a0 <stm32__i2c__mem_request_write+0x184>)
 80052de:	f44f 710a 	mov.w	r1, #552	; 0x228
 80052e2:	f7fb f833 	bl	800034c <__gnat_last_chance_handler>
 80052e6:	68fb      	ldr	r3, [r7, #12]
 80052e8:	685b      	ldr	r3, [r3, #4]
 80052ea:	3310      	adds	r3, #16
 80052ec:	681b      	ldr	r3, [r3, #0]
 80052ee:	893a      	ldrh	r2, [r7, #8]
 80052f0:	b2d2      	uxtb	r2, r2
 80052f2:	f362 0307 	bfi	r3, r2, #0, #8
 80052f6:	68fa      	ldr	r2, [r7, #12]
 80052f8:	6852      	ldr	r2, [r2, #4]
 80052fa:	3210      	adds	r2, #16
 80052fc:	6013      	str	r3, [r2, #0]
 80052fe:	e038      	b.n	8005372 <stm32__i2c__mem_request_write+0x156>
 8005300:	893b      	ldrh	r3, [r7, #8]
 8005302:	0a1b      	lsrs	r3, r3, #8
 8005304:	b29b      	uxth	r3, r3
 8005306:	2bff      	cmp	r3, #255	; 0xff
 8005308:	d904      	bls.n	8005314 <stm32__i2c__mem_request_write+0xf8>
 800530a:	4825      	ldr	r0, [pc, #148]	; (80053a0 <stm32__i2c__mem_request_write+0x184>)
 800530c:	f240 212a 	movw	r1, #554	; 0x22a
 8005310:	f7fb f81c 	bl	800034c <__gnat_last_chance_handler>
 8005314:	68fb      	ldr	r3, [r7, #12]
 8005316:	685b      	ldr	r3, [r3, #4]
 8005318:	3310      	adds	r3, #16
 800531a:	681b      	ldr	r3, [r3, #0]
 800531c:	893a      	ldrh	r2, [r7, #8]
 800531e:	0a12      	lsrs	r2, r2, #8
 8005320:	b292      	uxth	r2, r2
 8005322:	b2d2      	uxtb	r2, r2
 8005324:	f362 0307 	bfi	r3, r2, #0, #8
 8005328:	68fa      	ldr	r2, [r7, #12]
 800532a:	6852      	ldr	r2, [r2, #4]
 800532c:	3210      	adds	r2, #16
 800532e:	6013      	str	r3, [r2, #0]
 8005330:	68f8      	ldr	r0, [r7, #12]
 8005332:	2106      	movs	r1, #6
 8005334:	2200      	movs	r2, #0
 8005336:	6a3b      	ldr	r3, [r7, #32]
 8005338:	f7ff fd7e 	bl	8004e38 <stm32__i2c__wait_flag>
 800533c:	4603      	mov	r3, r0
 800533e:	75fb      	strb	r3, [r7, #23]
 8005340:	7dfb      	ldrb	r3, [r7, #23]
 8005342:	2b00      	cmp	r3, #0
 8005344:	d124      	bne.n	8005390 <stm32__i2c__mem_request_write+0x174>
 8005346:	893b      	ldrh	r3, [r7, #8]
 8005348:	b2db      	uxtb	r3, r3
 800534a:	b29b      	uxth	r3, r3
 800534c:	2bff      	cmp	r3, #255	; 0xff
 800534e:	d904      	bls.n	800535a <stm32__i2c__mem_request_write+0x13e>
 8005350:	4813      	ldr	r0, [pc, #76]	; (80053a0 <stm32__i2c__mem_request_write+0x184>)
 8005352:	f240 2132 	movw	r1, #562	; 0x232
 8005356:	f7fa fff9 	bl	800034c <__gnat_last_chance_handler>
 800535a:	68fb      	ldr	r3, [r7, #12]
 800535c:	685b      	ldr	r3, [r3, #4]
 800535e:	3310      	adds	r3, #16
 8005360:	681b      	ldr	r3, [r3, #0]
 8005362:	893a      	ldrh	r2, [r7, #8]
 8005364:	b2d2      	uxtb	r2, r2
 8005366:	f362 0307 	bfi	r3, r2, #0, #8
 800536a:	68fa      	ldr	r2, [r7, #12]
 800536c:	6852      	ldr	r2, [r2, #4]
 800536e:	3210      	adds	r2, #16
 8005370:	6013      	str	r3, [r2, #0]
 8005372:	68f8      	ldr	r0, [r7, #12]
 8005374:	2106      	movs	r1, #6
 8005376:	2200      	movs	r2, #0
 8005378:	6a3b      	ldr	r3, [r7, #32]
 800537a:	f7ff fd5d 	bl	8004e38 <stm32__i2c__wait_flag>
 800537e:	4603      	mov	r3, r0
 8005380:	75fb      	strb	r3, [r7, #23]
 8005382:	e006      	b.n	8005392 <stm32__i2c__mem_request_write+0x176>
 8005384:	bf00      	nop
 8005386:	e004      	b.n	8005392 <stm32__i2c__mem_request_write+0x176>
 8005388:	bf00      	nop
 800538a:	e002      	b.n	8005392 <stm32__i2c__mem_request_write+0x176>
 800538c:	bf00      	nop
 800538e:	e000      	b.n	8005392 <stm32__i2c__mem_request_write+0x176>
 8005390:	bf00      	nop
 8005392:	7dfb      	ldrb	r3, [r7, #23]
 8005394:	bf00      	nop
 8005396:	4618      	mov	r0, r3
 8005398:	3718      	adds	r7, #24
 800539a:	46bd      	mov	sp, r7
 800539c:	bd80      	pop	{r7, pc}
 800539e:	bf00      	nop
 80053a0:	0800b800 	.word	0x0800b800

080053a4 <stm32__i2c__mem_request_read>:
 80053a4:	b580      	push	{r7, lr}
 80053a6:	b086      	sub	sp, #24
 80053a8:	af00      	add	r7, sp, #0
 80053aa:	60f8      	str	r0, [r7, #12]
 80053ac:	4608      	mov	r0, r1
 80053ae:	4611      	mov	r1, r2
 80053b0:	461a      	mov	r2, r3
 80053b2:	4603      	mov	r3, r0
 80053b4:	817b      	strh	r3, [r7, #10]
 80053b6:	460b      	mov	r3, r1
 80053b8:	813b      	strh	r3, [r7, #8]
 80053ba:	4613      	mov	r3, r2
 80053bc:	71fb      	strb	r3, [r7, #7]
 80053be:	68fb      	ldr	r3, [r7, #12]
 80053c0:	685b      	ldr	r3, [r3, #4]
 80053c2:	681b      	ldr	r3, [r3, #0]
 80053c4:	461a      	mov	r2, r3
 80053c6:	4613      	mov	r3, r2
 80053c8:	f443 6280 	orr.w	r2, r3, #1024	; 0x400
 80053cc:	68fb      	ldr	r3, [r7, #12]
 80053ce:	685b      	ldr	r3, [r3, #4]
 80053d0:	601a      	str	r2, [r3, #0]
 80053d2:	68fb      	ldr	r3, [r7, #12]
 80053d4:	685b      	ldr	r3, [r3, #4]
 80053d6:	681b      	ldr	r3, [r3, #0]
 80053d8:	461a      	mov	r2, r3
 80053da:	4613      	mov	r3, r2
 80053dc:	f443 7280 	orr.w	r2, r3, #256	; 0x100
 80053e0:	68fb      	ldr	r3, [r7, #12]
 80053e2:	685b      	ldr	r3, [r3, #4]
 80053e4:	601a      	str	r2, [r3, #0]
 80053e6:	68f8      	ldr	r0, [r7, #12]
 80053e8:	2100      	movs	r1, #0
 80053ea:	2200      	movs	r2, #0
 80053ec:	6a3b      	ldr	r3, [r7, #32]
 80053ee:	f7ff fd23 	bl	8004e38 <stm32__i2c__wait_flag>
 80053f2:	4603      	mov	r3, r0
 80053f4:	75fb      	strb	r3, [r7, #23]
 80053f6:	7dfb      	ldrb	r3, [r7, #23]
 80053f8:	2b00      	cmp	r3, #0
 80053fa:	f040 80c9 	bne.w	8005590 <stm32__i2c__mem_request_read+0x1ec>
 80053fe:	897b      	ldrh	r3, [r7, #10]
 8005400:	2bff      	cmp	r3, #255	; 0xff
 8005402:	d904      	bls.n	800540e <stm32__i2c__mem_request_read+0x6a>
 8005404:	486b      	ldr	r0, [pc, #428]	; (80055b4 <stm32__i2c__mem_request_read+0x210>)
 8005406:	f240 2151 	movw	r1, #593	; 0x251
 800540a:	f7fa ff9f 	bl	800034c <__gnat_last_chance_handler>
 800540e:	68fb      	ldr	r3, [r7, #12]
 8005410:	685b      	ldr	r3, [r3, #4]
 8005412:	3310      	adds	r3, #16
 8005414:	681b      	ldr	r3, [r3, #0]
 8005416:	897a      	ldrh	r2, [r7, #10]
 8005418:	b2d2      	uxtb	r2, r2
 800541a:	f022 0201 	bic.w	r2, r2, #1
 800541e:	b2d2      	uxtb	r2, r2
 8005420:	f362 0307 	bfi	r3, r2, #0, #8
 8005424:	68fa      	ldr	r2, [r7, #12]
 8005426:	6852      	ldr	r2, [r2, #4]
 8005428:	3210      	adds	r2, #16
 800542a:	6013      	str	r3, [r2, #0]
 800542c:	68f8      	ldr	r0, [r7, #12]
 800542e:	2101      	movs	r1, #1
 8005430:	6a3a      	ldr	r2, [r7, #32]
 8005432:	f7ff fd3b 	bl	8004eac <stm32__i2c__wait_master_flag>
 8005436:	4603      	mov	r3, r0
 8005438:	75fb      	strb	r3, [r7, #23]
 800543a:	7dfb      	ldrb	r3, [r7, #23]
 800543c:	2b00      	cmp	r3, #0
 800543e:	f040 80a9 	bne.w	8005594 <stm32__i2c__mem_request_read+0x1f0>
 8005442:	68f8      	ldr	r0, [r7, #12]
 8005444:	f7ff fcde 	bl	8004e04 <stm32__i2c__clear_address_sent_status>
 8005448:	68f8      	ldr	r0, [r7, #12]
 800544a:	2106      	movs	r1, #6
 800544c:	2200      	movs	r2, #0
 800544e:	6a3b      	ldr	r3, [r7, #32]
 8005450:	f7ff fcf2 	bl	8004e38 <stm32__i2c__wait_flag>
 8005454:	4603      	mov	r3, r0
 8005456:	75fb      	strb	r3, [r7, #23]
 8005458:	7dfb      	ldrb	r3, [r7, #23]
 800545a:	2b00      	cmp	r3, #0
 800545c:	f040 809c 	bne.w	8005598 <stm32__i2c__mem_request_read+0x1f4>
 8005460:	79fb      	ldrb	r3, [r7, #7]
 8005462:	2b01      	cmp	r3, #1
 8005464:	d904      	bls.n	8005470 <stm32__i2c__mem_request_read+0xcc>
 8005466:	4853      	ldr	r0, [pc, #332]	; (80055b4 <stm32__i2c__mem_request_read+0x210>)
 8005468:	f240 2162 	movw	r1, #610	; 0x262
 800546c:	f7fa ff6e 	bl	800034c <__gnat_last_chance_handler>
 8005470:	79fb      	ldrb	r3, [r7, #7]
 8005472:	2b00      	cmp	r3, #0
 8005474:	d114      	bne.n	80054a0 <stm32__i2c__mem_request_read+0xfc>
 8005476:	893b      	ldrh	r3, [r7, #8]
 8005478:	2bff      	cmp	r3, #255	; 0xff
 800547a:	d904      	bls.n	8005486 <stm32__i2c__mem_request_read+0xe2>
 800547c:	484d      	ldr	r0, [pc, #308]	; (80055b4 <stm32__i2c__mem_request_read+0x210>)
 800547e:	f44f 7119 	mov.w	r1, #612	; 0x264
 8005482:	f7fa ff63 	bl	800034c <__gnat_last_chance_handler>
 8005486:	68fb      	ldr	r3, [r7, #12]
 8005488:	685b      	ldr	r3, [r3, #4]
 800548a:	3310      	adds	r3, #16
 800548c:	681b      	ldr	r3, [r3, #0]
 800548e:	893a      	ldrh	r2, [r7, #8]
 8005490:	b2d2      	uxtb	r2, r2
 8005492:	f362 0307 	bfi	r3, r2, #0, #8
 8005496:	68fa      	ldr	r2, [r7, #12]
 8005498:	6852      	ldr	r2, [r2, #4]
 800549a:	3210      	adds	r2, #16
 800549c:	6013      	str	r3, [r2, #0]
 800549e:	e038      	b.n	8005512 <stm32__i2c__mem_request_read+0x16e>
 80054a0:	893b      	ldrh	r3, [r7, #8]
 80054a2:	0a1b      	lsrs	r3, r3, #8
 80054a4:	b29b      	uxth	r3, r3
 80054a6:	2bff      	cmp	r3, #255	; 0xff
 80054a8:	d904      	bls.n	80054b4 <stm32__i2c__mem_request_read+0x110>
 80054aa:	4842      	ldr	r0, [pc, #264]	; (80055b4 <stm32__i2c__mem_request_read+0x210>)
 80054ac:	f240 2166 	movw	r1, #614	; 0x266
 80054b0:	f7fa ff4c 	bl	800034c <__gnat_last_chance_handler>
 80054b4:	68fb      	ldr	r3, [r7, #12]
 80054b6:	685b      	ldr	r3, [r3, #4]
 80054b8:	3310      	adds	r3, #16
 80054ba:	681b      	ldr	r3, [r3, #0]
 80054bc:	893a      	ldrh	r2, [r7, #8]
 80054be:	0a12      	lsrs	r2, r2, #8
 80054c0:	b292      	uxth	r2, r2
 80054c2:	b2d2      	uxtb	r2, r2
 80054c4:	f362 0307 	bfi	r3, r2, #0, #8
 80054c8:	68fa      	ldr	r2, [r7, #12]
 80054ca:	6852      	ldr	r2, [r2, #4]
 80054cc:	3210      	adds	r2, #16
 80054ce:	6013      	str	r3, [r2, #0]
 80054d0:	68f8      	ldr	r0, [r7, #12]
 80054d2:	2106      	movs	r1, #6
 80054d4:	2200      	movs	r2, #0
 80054d6:	6a3b      	ldr	r3, [r7, #32]
 80054d8:	f7ff fcae 	bl	8004e38 <stm32__i2c__wait_flag>
 80054dc:	4603      	mov	r3, r0
 80054de:	75fb      	strb	r3, [r7, #23]
 80054e0:	7dfb      	ldrb	r3, [r7, #23]
 80054e2:	2b00      	cmp	r3, #0
 80054e4:	d15a      	bne.n	800559c <stm32__i2c__mem_request_read+0x1f8>
 80054e6:	893b      	ldrh	r3, [r7, #8]
 80054e8:	b2db      	uxtb	r3, r3
 80054ea:	b29b      	uxth	r3, r3
 80054ec:	2bff      	cmp	r3, #255	; 0xff
 80054ee:	d904      	bls.n	80054fa <stm32__i2c__mem_request_read+0x156>
 80054f0:	4830      	ldr	r0, [pc, #192]	; (80055b4 <stm32__i2c__mem_request_read+0x210>)
 80054f2:	f240 216e 	movw	r1, #622	; 0x26e
 80054f6:	f7fa ff29 	bl	800034c <__gnat_last_chance_handler>
 80054fa:	68fb      	ldr	r3, [r7, #12]
 80054fc:	685b      	ldr	r3, [r3, #4]
 80054fe:	3310      	adds	r3, #16
 8005500:	681b      	ldr	r3, [r3, #0]
 8005502:	893a      	ldrh	r2, [r7, #8]
 8005504:	b2d2      	uxtb	r2, r2
 8005506:	f362 0307 	bfi	r3, r2, #0, #8
 800550a:	68fa      	ldr	r2, [r7, #12]
 800550c:	6852      	ldr	r2, [r2, #4]
 800550e:	3210      	adds	r2, #16
 8005510:	6013      	str	r3, [r2, #0]
 8005512:	68f8      	ldr	r0, [r7, #12]
 8005514:	2106      	movs	r1, #6
 8005516:	2200      	movs	r2, #0
 8005518:	6a3b      	ldr	r3, [r7, #32]
 800551a:	f7ff fc8d 	bl	8004e38 <stm32__i2c__wait_flag>
 800551e:	4603      	mov	r3, r0
 8005520:	75fb      	strb	r3, [r7, #23]
 8005522:	7dfb      	ldrb	r3, [r7, #23]
 8005524:	2b00      	cmp	r3, #0
 8005526:	d13b      	bne.n	80055a0 <stm32__i2c__mem_request_read+0x1fc>
 8005528:	68fb      	ldr	r3, [r7, #12]
 800552a:	685b      	ldr	r3, [r3, #4]
 800552c:	681b      	ldr	r3, [r3, #0]
 800552e:	461a      	mov	r2, r3
 8005530:	4613      	mov	r3, r2
 8005532:	f443 7280 	orr.w	r2, r3, #256	; 0x100
 8005536:	68fb      	ldr	r3, [r7, #12]
 8005538:	685b      	ldr	r3, [r3, #4]
 800553a:	601a      	str	r2, [r3, #0]
 800553c:	68f8      	ldr	r0, [r7, #12]
 800553e:	2100      	movs	r1, #0
 8005540:	2200      	movs	r2, #0
 8005542:	6a3b      	ldr	r3, [r7, #32]
 8005544:	f7ff fc78 	bl	8004e38 <stm32__i2c__wait_flag>
 8005548:	4603      	mov	r3, r0
 800554a:	75fb      	strb	r3, [r7, #23]
 800554c:	7dfb      	ldrb	r3, [r7, #23]
 800554e:	2b00      	cmp	r3, #0
 8005550:	d128      	bne.n	80055a4 <stm32__i2c__mem_request_read+0x200>
 8005552:	897b      	ldrh	r3, [r7, #10]
 8005554:	2bff      	cmp	r3, #255	; 0xff
 8005556:	d904      	bls.n	8005562 <stm32__i2c__mem_request_read+0x1be>
 8005558:	4816      	ldr	r0, [pc, #88]	; (80055b4 <stm32__i2c__mem_request_read+0x210>)
 800555a:	f240 2182 	movw	r1, #642	; 0x282
 800555e:	f7fa fef5 	bl	800034c <__gnat_last_chance_handler>
 8005562:	68fb      	ldr	r3, [r7, #12]
 8005564:	685b      	ldr	r3, [r3, #4]
 8005566:	3310      	adds	r3, #16
 8005568:	681b      	ldr	r3, [r3, #0]
 800556a:	897a      	ldrh	r2, [r7, #10]
 800556c:	b2d2      	uxtb	r2, r2
 800556e:	f042 0201 	orr.w	r2, r2, #1
 8005572:	b2d2      	uxtb	r2, r2
 8005574:	f362 0307 	bfi	r3, r2, #0, #8
 8005578:	68fa      	ldr	r2, [r7, #12]
 800557a:	6852      	ldr	r2, [r2, #4]
 800557c:	3210      	adds	r2, #16
 800557e:	6013      	str	r3, [r2, #0]
 8005580:	68f8      	ldr	r0, [r7, #12]
 8005582:	2101      	movs	r1, #1
 8005584:	6a3a      	ldr	r2, [r7, #32]
 8005586:	f7ff fc91 	bl	8004eac <stm32__i2c__wait_master_flag>
 800558a:	4603      	mov	r3, r0
 800558c:	75fb      	strb	r3, [r7, #23]
 800558e:	e00a      	b.n	80055a6 <stm32__i2c__mem_request_read+0x202>
 8005590:	bf00      	nop
 8005592:	e008      	b.n	80055a6 <stm32__i2c__mem_request_read+0x202>
 8005594:	bf00      	nop
 8005596:	e006      	b.n	80055a6 <stm32__i2c__mem_request_read+0x202>
 8005598:	bf00      	nop
 800559a:	e004      	b.n	80055a6 <stm32__i2c__mem_request_read+0x202>
 800559c:	bf00      	nop
 800559e:	e002      	b.n	80055a6 <stm32__i2c__mem_request_read+0x202>
 80055a0:	bf00      	nop
 80055a2:	e000      	b.n	80055a6 <stm32__i2c__mem_request_read+0x202>
 80055a4:	bf00      	nop
 80055a6:	7dfb      	ldrb	r3, [r7, #23]
 80055a8:	bf00      	nop
 80055aa:	4618      	mov	r0, r3
 80055ac:	3718      	adds	r7, #24
 80055ae:	46bd      	mov	sp, r7
 80055b0:	bd80      	pop	{r7, pc}
 80055b2:	bf00      	nop
 80055b4:	0800b800 	.word	0x0800b800

080055b8 <stm32__i2c__master_transmit>:
 80055b8:	b5f0      	push	{r4, r5, r6, r7, lr}
 80055ba:	b087      	sub	sp, #28
 80055bc:	af00      	add	r7, sp, #0
 80055be:	60f8      	str	r0, [r7, #12]
 80055c0:	e9c7 2300 	strd	r2, r3, [r7]
 80055c4:	460b      	mov	r3, r1
 80055c6:	817b      	strh	r3, [r7, #10]
 80055c8:	687b      	ldr	r3, [r7, #4]
 80055ca:	681c      	ldr	r4, [r3, #0]
 80055cc:	687b      	ldr	r3, [r7, #4]
 80055ce:	685d      	ldr	r5, [r3, #4]
 80055d0:	4626      	mov	r6, r4
 80055d2:	2c00      	cmp	r4, #0
 80055d4:	da04      	bge.n	80055e0 <stm32__i2c__master_transmit+0x28>
 80055d6:	4866      	ldr	r0, [pc, #408]	; (8005770 <stm32__i2c__master_transmit+0x1b8>)
 80055d8:	f240 2193 	movw	r1, #659	; 0x293
 80055dc:	f7fa feb6 	bl	800034c <__gnat_last_chance_handler>
 80055e0:	617c      	str	r4, [r7, #20]
 80055e2:	68fb      	ldr	r3, [r7, #12]
 80055e4:	7d1b      	ldrb	r3, [r3, #20]
 80055e6:	2b00      	cmp	r3, #0
 80055e8:	d102      	bne.n	80055f0 <stm32__i2c__master_transmit+0x38>
 80055ea:	2301      	movs	r3, #1
 80055ec:	74fb      	strb	r3, [r7, #19]
 80055ee:	e0b9      	b.n	8005764 <stm32__i2c__master_transmit+0x1ac>
 80055f0:	42ac      	cmp	r4, r5
 80055f2:	dd02      	ble.n	80055fa <stm32__i2c__master_transmit+0x42>
 80055f4:	2301      	movs	r3, #1
 80055f6:	74fb      	strb	r3, [r7, #19]
 80055f8:	e0b4      	b.n	8005764 <stm32__i2c__master_transmit+0x1ac>
 80055fa:	68f8      	ldr	r0, [r7, #12]
 80055fc:	210f      	movs	r1, #15
 80055fe:	2201      	movs	r2, #1
 8005600:	6b3b      	ldr	r3, [r7, #48]	; 0x30
 8005602:	f7ff fc19 	bl	8004e38 <stm32__i2c__wait_flag>
 8005606:	4603      	mov	r3, r0
 8005608:	74fb      	strb	r3, [r7, #19]
 800560a:	7cfb      	ldrb	r3, [r7, #19]
 800560c:	2b00      	cmp	r3, #0
 800560e:	d002      	beq.n	8005616 <stm32__i2c__master_transmit+0x5e>
 8005610:	2303      	movs	r3, #3
 8005612:	74fb      	strb	r3, [r7, #19]
 8005614:	e0a6      	b.n	8005764 <stm32__i2c__master_transmit+0x1ac>
 8005616:	68fb      	ldr	r3, [r7, #12]
 8005618:	7d1b      	ldrb	r3, [r3, #20]
 800561a:	2b01      	cmp	r3, #1
 800561c:	d002      	beq.n	8005624 <stm32__i2c__master_transmit+0x6c>
 800561e:	2303      	movs	r3, #3
 8005620:	74fb      	strb	r3, [r7, #19]
 8005622:	e09f      	b.n	8005764 <stm32__i2c__master_transmit+0x1ac>
 8005624:	68fb      	ldr	r3, [r7, #12]
 8005626:	2202      	movs	r2, #2
 8005628:	751a      	strb	r2, [r3, #20]
 800562a:	68fb      	ldr	r3, [r7, #12]
 800562c:	685b      	ldr	r3, [r3, #4]
 800562e:	681b      	ldr	r3, [r3, #0]
 8005630:	f36f 23cb 	bfc	r3, #11, #1
 8005634:	68fa      	ldr	r2, [r7, #12]
 8005636:	6852      	ldr	r2, [r2, #4]
 8005638:	6013      	str	r3, [r2, #0]
 800563a:	897b      	ldrh	r3, [r7, #10]
 800563c:	68f8      	ldr	r0, [r7, #12]
 800563e:	4619      	mov	r1, r3
 8005640:	6b3a      	ldr	r2, [r7, #48]	; 0x30
 8005642:	f7ff fc8f 	bl	8004f64 <stm32__i2c__master_request_write>
 8005646:	4603      	mov	r3, r0
 8005648:	74fb      	strb	r3, [r7, #19]
 800564a:	7cfb      	ldrb	r3, [r7, #19]
 800564c:	2b00      	cmp	r3, #0
 800564e:	f040 8084 	bne.w	800575a <stm32__i2c__master_transmit+0x1a2>
 8005652:	68f8      	ldr	r0, [r7, #12]
 8005654:	f7ff fbd6 	bl	8004e04 <stm32__i2c__clear_address_sent_status>
 8005658:	697b      	ldr	r3, [r7, #20]
 800565a:	42ab      	cmp	r3, r5
 800565c:	dc64      	bgt.n	8005728 <stm32__i2c__master_transmit+0x170>
 800565e:	68f8      	ldr	r0, [r7, #12]
 8005660:	2106      	movs	r1, #6
 8005662:	2200      	movs	r2, #0
 8005664:	6b3b      	ldr	r3, [r7, #48]	; 0x30
 8005666:	f7ff fbe7 	bl	8004e38 <stm32__i2c__wait_flag>
 800566a:	4603      	mov	r3, r0
 800566c:	74fb      	strb	r3, [r7, #19]
 800566e:	7cfb      	ldrb	r3, [r7, #19]
 8005670:	2b00      	cmp	r3, #0
 8005672:	d174      	bne.n	800575e <stm32__i2c__master_transmit+0x1a6>
 8005674:	697b      	ldr	r3, [r7, #20]
 8005676:	42a3      	cmp	r3, r4
 8005678:	db02      	blt.n	8005680 <stm32__i2c__master_transmit+0xc8>
 800567a:	697b      	ldr	r3, [r7, #20]
 800567c:	42ab      	cmp	r3, r5
 800567e:	dd04      	ble.n	800568a <stm32__i2c__master_transmit+0xd2>
 8005680:	483b      	ldr	r0, [pc, #236]	; (8005770 <stm32__i2c__master_transmit+0x1b8>)
 8005682:	f240 21be 	movw	r1, #702	; 0x2be
 8005686:	f7fa fe61 	bl	800034c <__gnat_last_chance_handler>
 800568a:	68fb      	ldr	r3, [r7, #12]
 800568c:	685b      	ldr	r3, [r3, #4]
 800568e:	3310      	adds	r3, #16
 8005690:	681b      	ldr	r3, [r3, #0]
 8005692:	6839      	ldr	r1, [r7, #0]
 8005694:	697a      	ldr	r2, [r7, #20]
 8005696:	1b92      	subs	r2, r2, r6
 8005698:	5c8a      	ldrb	r2, [r1, r2]
 800569a:	f362 0307 	bfi	r3, r2, #0, #8
 800569e:	68fa      	ldr	r2, [r7, #12]
 80056a0:	6852      	ldr	r2, [r2, #4]
 80056a2:	3210      	adds	r2, #16
 80056a4:	6013      	str	r3, [r2, #0]
 80056a6:	697b      	ldr	r3, [r7, #20]
 80056a8:	f06f 4200 	mvn.w	r2, #2147483648	; 0x80000000
 80056ac:	4293      	cmp	r3, r2
 80056ae:	d104      	bne.n	80056ba <stm32__i2c__master_transmit+0x102>
 80056b0:	482f      	ldr	r0, [pc, #188]	; (8005770 <stm32__i2c__master_transmit+0x1b8>)
 80056b2:	f240 21bf 	movw	r1, #703	; 0x2bf
 80056b6:	f7fa fe49 	bl	800034c <__gnat_last_chance_handler>
 80056ba:	697b      	ldr	r3, [r7, #20]
 80056bc:	3301      	adds	r3, #1
 80056be:	617b      	str	r3, [r7, #20]
 80056c0:	68f8      	ldr	r0, [r7, #12]
 80056c2:	2102      	movs	r1, #2
 80056c4:	f7ff fab2 	bl	8004c2c <stm32__i2c__flag_status>
 80056c8:	4603      	mov	r3, r0
 80056ca:	2b00      	cmp	r3, #0
 80056cc:	d0c4      	beq.n	8005658 <stm32__i2c__master_transmit+0xa0>
 80056ce:	697b      	ldr	r3, [r7, #20]
 80056d0:	42ab      	cmp	r3, r5
 80056d2:	dcc1      	bgt.n	8005658 <stm32__i2c__master_transmit+0xa0>
 80056d4:	7cfb      	ldrb	r3, [r7, #19]
 80056d6:	2b00      	cmp	r3, #0
 80056d8:	d1be      	bne.n	8005658 <stm32__i2c__master_transmit+0xa0>
 80056da:	697b      	ldr	r3, [r7, #20]
 80056dc:	42a3      	cmp	r3, r4
 80056de:	db02      	blt.n	80056e6 <stm32__i2c__master_transmit+0x12e>
 80056e0:	697b      	ldr	r3, [r7, #20]
 80056e2:	42ab      	cmp	r3, r5
 80056e4:	dd04      	ble.n	80056f0 <stm32__i2c__master_transmit+0x138>
 80056e6:	4822      	ldr	r0, [pc, #136]	; (8005770 <stm32__i2c__master_transmit+0x1b8>)
 80056e8:	f240 21c7 	movw	r1, #711	; 0x2c7
 80056ec:	f7fa fe2e 	bl	800034c <__gnat_last_chance_handler>
 80056f0:	68fb      	ldr	r3, [r7, #12]
 80056f2:	685b      	ldr	r3, [r3, #4]
 80056f4:	3310      	adds	r3, #16
 80056f6:	681b      	ldr	r3, [r3, #0]
 80056f8:	6839      	ldr	r1, [r7, #0]
 80056fa:	697a      	ldr	r2, [r7, #20]
 80056fc:	1b92      	subs	r2, r2, r6
 80056fe:	5c8a      	ldrb	r2, [r1, r2]
 8005700:	f362 0307 	bfi	r3, r2, #0, #8
 8005704:	68fa      	ldr	r2, [r7, #12]
 8005706:	6852      	ldr	r2, [r2, #4]
 8005708:	3210      	adds	r2, #16
 800570a:	6013      	str	r3, [r2, #0]
 800570c:	697b      	ldr	r3, [r7, #20]
 800570e:	f06f 4200 	mvn.w	r2, #2147483648	; 0x80000000
 8005712:	4293      	cmp	r3, r2
 8005714:	d104      	bne.n	8005720 <stm32__i2c__master_transmit+0x168>
 8005716:	4816      	ldr	r0, [pc, #88]	; (8005770 <stm32__i2c__master_transmit+0x1b8>)
 8005718:	f44f 7132 	mov.w	r1, #712	; 0x2c8
 800571c:	f7fa fe16 	bl	800034c <__gnat_last_chance_handler>
 8005720:	697b      	ldr	r3, [r7, #20]
 8005722:	3301      	adds	r3, #1
 8005724:	617b      	str	r3, [r7, #20]
 8005726:	e797      	b.n	8005658 <stm32__i2c__master_transmit+0xa0>
 8005728:	68f8      	ldr	r0, [r7, #12]
 800572a:	2106      	movs	r1, #6
 800572c:	2200      	movs	r2, #0
 800572e:	6b3b      	ldr	r3, [r7, #48]	; 0x30
 8005730:	f7ff fb82 	bl	8004e38 <stm32__i2c__wait_flag>
 8005734:	4603      	mov	r3, r0
 8005736:	74fb      	strb	r3, [r7, #19]
 8005738:	7cfb      	ldrb	r3, [r7, #19]
 800573a:	2b00      	cmp	r3, #0
 800573c:	d111      	bne.n	8005762 <stm32__i2c__master_transmit+0x1aa>
 800573e:	68fb      	ldr	r3, [r7, #12]
 8005740:	685b      	ldr	r3, [r3, #4]
 8005742:	681b      	ldr	r3, [r3, #0]
 8005744:	461a      	mov	r2, r3
 8005746:	4613      	mov	r3, r2
 8005748:	f443 7200 	orr.w	r2, r3, #512	; 0x200
 800574c:	68fb      	ldr	r3, [r7, #12]
 800574e:	685b      	ldr	r3, [r3, #4]
 8005750:	601a      	str	r2, [r3, #0]
 8005752:	68fb      	ldr	r3, [r7, #12]
 8005754:	2201      	movs	r2, #1
 8005756:	751a      	strb	r2, [r3, #20]
 8005758:	e004      	b.n	8005764 <stm32__i2c__master_transmit+0x1ac>
 800575a:	bf00      	nop
 800575c:	e002      	b.n	8005764 <stm32__i2c__master_transmit+0x1ac>
 800575e:	bf00      	nop
 8005760:	e000      	b.n	8005764 <stm32__i2c__master_transmit+0x1ac>
 8005762:	bf00      	nop
 8005764:	7cfb      	ldrb	r3, [r7, #19]
 8005766:	bf00      	nop
 8005768:	4618      	mov	r0, r3
 800576a:	371c      	adds	r7, #28
 800576c:	46bd      	mov	sp, r7
 800576e:	bdf0      	pop	{r4, r5, r6, r7, pc}
 8005770:	0800b800 	.word	0x0800b800

08005774 <stm32__i2c__master_receive>:
 8005774:	b590      	push	{r4, r7, lr}
 8005776:	b087      	sub	sp, #28
 8005778:	af00      	add	r7, sp, #0
 800577a:	60f8      	str	r0, [r7, #12]
 800577c:	e9c7 2300 	strd	r2, r3, [r7]
 8005780:	460b      	mov	r3, r1
 8005782:	817b      	strh	r3, [r7, #10]
 8005784:	687b      	ldr	r3, [r7, #4]
 8005786:	681b      	ldr	r3, [r3, #0]
 8005788:	461c      	mov	r4, r3
 800578a:	687b      	ldr	r3, [r7, #4]
 800578c:	681b      	ldr	r3, [r3, #0]
 800578e:	2b00      	cmp	r3, #0
 8005790:	da04      	bge.n	800579c <stm32__i2c__master_receive+0x28>
 8005792:	48a9      	ldr	r0, [pc, #676]	; (8005a38 <stm32__i2c__master_receive+0x2c4>)
 8005794:	f240 21e3 	movw	r1, #739	; 0x2e3
 8005798:	f7fa fdd8 	bl	800034c <__gnat_last_chance_handler>
 800579c:	687b      	ldr	r3, [r7, #4]
 800579e:	681b      	ldr	r3, [r3, #0]
 80057a0:	617b      	str	r3, [r7, #20]
 80057a2:	68fb      	ldr	r3, [r7, #12]
 80057a4:	7d1b      	ldrb	r3, [r3, #20]
 80057a6:	2b00      	cmp	r3, #0
 80057a8:	d102      	bne.n	80057b0 <stm32__i2c__master_receive+0x3c>
 80057aa:	2301      	movs	r3, #1
 80057ac:	74fb      	strb	r3, [r7, #19]
 80057ae:	e30d      	b.n	8005dcc <stm32__i2c__master_receive+0x658>
 80057b0:	687b      	ldr	r3, [r7, #4]
 80057b2:	681a      	ldr	r2, [r3, #0]
 80057b4:	687b      	ldr	r3, [r7, #4]
 80057b6:	685b      	ldr	r3, [r3, #4]
 80057b8:	429a      	cmp	r2, r3
 80057ba:	dd02      	ble.n	80057c2 <stm32__i2c__master_receive+0x4e>
 80057bc:	2301      	movs	r3, #1
 80057be:	74fb      	strb	r3, [r7, #19]
 80057c0:	e304      	b.n	8005dcc <stm32__i2c__master_receive+0x658>
 80057c2:	68f8      	ldr	r0, [r7, #12]
 80057c4:	210f      	movs	r1, #15
 80057c6:	2201      	movs	r2, #1
 80057c8:	6abb      	ldr	r3, [r7, #40]	; 0x28
 80057ca:	f7ff fb35 	bl	8004e38 <stm32__i2c__wait_flag>
 80057ce:	4603      	mov	r3, r0
 80057d0:	74fb      	strb	r3, [r7, #19]
 80057d2:	7cfb      	ldrb	r3, [r7, #19]
 80057d4:	2b00      	cmp	r3, #0
 80057d6:	d002      	beq.n	80057de <stm32__i2c__master_receive+0x6a>
 80057d8:	2303      	movs	r3, #3
 80057da:	74fb      	strb	r3, [r7, #19]
 80057dc:	e2f6      	b.n	8005dcc <stm32__i2c__master_receive+0x658>
 80057de:	68fb      	ldr	r3, [r7, #12]
 80057e0:	7d1b      	ldrb	r3, [r3, #20]
 80057e2:	2b01      	cmp	r3, #1
 80057e4:	d002      	beq.n	80057ec <stm32__i2c__master_receive+0x78>
 80057e6:	2303      	movs	r3, #3
 80057e8:	74fb      	strb	r3, [r7, #19]
 80057ea:	e2ef      	b.n	8005dcc <stm32__i2c__master_receive+0x658>
 80057ec:	68fb      	ldr	r3, [r7, #12]
 80057ee:	2203      	movs	r2, #3
 80057f0:	751a      	strb	r2, [r3, #20]
 80057f2:	68fb      	ldr	r3, [r7, #12]
 80057f4:	685b      	ldr	r3, [r3, #4]
 80057f6:	681b      	ldr	r3, [r3, #0]
 80057f8:	f36f 23cb 	bfc	r3, #11, #1
 80057fc:	68fa      	ldr	r2, [r7, #12]
 80057fe:	6852      	ldr	r2, [r2, #4]
 8005800:	6013      	str	r3, [r2, #0]
 8005802:	897b      	ldrh	r3, [r7, #10]
 8005804:	68f8      	ldr	r0, [r7, #12]
 8005806:	4619      	mov	r1, r3
 8005808:	6aba      	ldr	r2, [r7, #40]	; 0x28
 800580a:	f7ff fc39 	bl	8005080 <stm32__i2c__master_request_read>
 800580e:	4603      	mov	r3, r0
 8005810:	74fb      	strb	r3, [r7, #19]
 8005812:	7cfb      	ldrb	r3, [r7, #19]
 8005814:	2b00      	cmp	r3, #0
 8005816:	f040 82cc 	bne.w	8005db2 <stm32__i2c__master_receive+0x63e>
 800581a:	687b      	ldr	r3, [r7, #4]
 800581c:	681a      	ldr	r2, [r3, #0]
 800581e:	687b      	ldr	r3, [r7, #4]
 8005820:	685b      	ldr	r3, [r3, #4]
 8005822:	429a      	cmp	r2, r3
 8005824:	d115      	bne.n	8005852 <stm32__i2c__master_receive+0xde>
 8005826:	68fb      	ldr	r3, [r7, #12]
 8005828:	685b      	ldr	r3, [r3, #4]
 800582a:	681b      	ldr	r3, [r3, #0]
 800582c:	f36f 238a 	bfc	r3, #10, #1
 8005830:	68fa      	ldr	r2, [r7, #12]
 8005832:	6852      	ldr	r2, [r2, #4]
 8005834:	6013      	str	r3, [r2, #0]
 8005836:	68f8      	ldr	r0, [r7, #12]
 8005838:	f7ff fae4 	bl	8004e04 <stm32__i2c__clear_address_sent_status>
 800583c:	68fb      	ldr	r3, [r7, #12]
 800583e:	685b      	ldr	r3, [r3, #4]
 8005840:	681b      	ldr	r3, [r3, #0]
 8005842:	461a      	mov	r2, r3
 8005844:	4613      	mov	r3, r2
 8005846:	f443 7200 	orr.w	r2, r3, #512	; 0x200
 800584a:	68fb      	ldr	r3, [r7, #12]
 800584c:	685b      	ldr	r3, [r3, #4]
 800584e:	601a      	str	r2, [r3, #0]
 8005850:	e0a3      	b.n	800599a <stm32__i2c__master_receive+0x226>
 8005852:	687b      	ldr	r3, [r7, #4]
 8005854:	681b      	ldr	r3, [r3, #0]
 8005856:	461a      	mov	r2, r3
 8005858:	ea4f 73e2 	mov.w	r3, r2, asr #31
 800585c:	f04f 30ff 	mov.w	r0, #4294967295
 8005860:	f06f 4100 	mvn.w	r1, #2147483648	; 0x80000000
 8005864:	428b      	cmp	r3, r1
 8005866:	bf08      	it	eq
 8005868:	4282      	cmpeq	r2, r0
 800586a:	d104      	bne.n	8005876 <stm32__i2c__master_receive+0x102>
 800586c:	4872      	ldr	r0, [pc, #456]	; (8005a38 <stm32__i2c__master_receive+0x2c4>)
 800586e:	f240 310b 	movw	r1, #779	; 0x30b
 8005872:	f7fa fd6b 	bl	800034c <__gnat_last_chance_handler>
 8005876:	687b      	ldr	r3, [r7, #4]
 8005878:	681b      	ldr	r3, [r3, #0]
 800587a:	461a      	mov	r2, r3
 800587c:	ea4f 73e2 	mov.w	r3, r2, asr #31
 8005880:	1c50      	adds	r0, r2, #1
 8005882:	f143 0100 	adc.w	r1, r3, #0
 8005886:	687b      	ldr	r3, [r7, #4]
 8005888:	685b      	ldr	r3, [r3, #4]
 800588a:	461a      	mov	r2, r3
 800588c:	ea4f 73e2 	mov.w	r3, r2, asr #31
 8005890:	4299      	cmp	r1, r3
 8005892:	bf08      	it	eq
 8005894:	4290      	cmpeq	r0, r2
 8005896:	d173      	bne.n	8005980 <stm32__i2c__master_receive+0x20c>
 8005898:	68fb      	ldr	r3, [r7, #12]
 800589a:	685b      	ldr	r3, [r3, #4]
 800589c:	681b      	ldr	r3, [r3, #0]
 800589e:	461a      	mov	r2, r3
 80058a0:	4613      	mov	r3, r2
 80058a2:	f443 6200 	orr.w	r2, r3, #2048	; 0x800
 80058a6:	68fb      	ldr	r3, [r7, #12]
 80058a8:	685b      	ldr	r3, [r3, #4]
 80058aa:	601a      	str	r2, [r3, #0]
 80058ac:	68f8      	ldr	r0, [r7, #12]
 80058ae:	f7ff faa9 	bl	8004e04 <stm32__i2c__clear_address_sent_status>
 80058b2:	68fb      	ldr	r3, [r7, #12]
 80058b4:	685b      	ldr	r3, [r3, #4]
 80058b6:	681b      	ldr	r3, [r3, #0]
 80058b8:	f36f 238a 	bfc	r3, #10, #1
 80058bc:	68fa      	ldr	r2, [r7, #12]
 80058be:	6852      	ldr	r2, [r2, #4]
 80058c0:	6013      	str	r3, [r2, #0]
 80058c2:	68f8      	ldr	r0, [r7, #12]
 80058c4:	2102      	movs	r1, #2
 80058c6:	2200      	movs	r2, #0
 80058c8:	6abb      	ldr	r3, [r7, #40]	; 0x28
 80058ca:	f7ff fab5 	bl	8004e38 <stm32__i2c__wait_flag>
 80058ce:	4603      	mov	r3, r0
 80058d0:	74fb      	strb	r3, [r7, #19]
 80058d2:	7cfb      	ldrb	r3, [r7, #19]
 80058d4:	2b00      	cmp	r3, #0
 80058d6:	f040 826e 	bne.w	8005db6 <stm32__i2c__master_receive+0x642>
 80058da:	68fb      	ldr	r3, [r7, #12]
 80058dc:	685b      	ldr	r3, [r3, #4]
 80058de:	681b      	ldr	r3, [r3, #0]
 80058e0:	461a      	mov	r2, r3
 80058e2:	4613      	mov	r3, r2
 80058e4:	f443 7200 	orr.w	r2, r3, #512	; 0x200
 80058e8:	68fb      	ldr	r3, [r7, #12]
 80058ea:	685b      	ldr	r3, [r3, #4]
 80058ec:	601a      	str	r2, [r3, #0]
 80058ee:	697a      	ldr	r2, [r7, #20]
 80058f0:	687b      	ldr	r3, [r7, #4]
 80058f2:	681b      	ldr	r3, [r3, #0]
 80058f4:	429a      	cmp	r2, r3
 80058f6:	db04      	blt.n	8005902 <stm32__i2c__master_receive+0x18e>
 80058f8:	697a      	ldr	r2, [r7, #20]
 80058fa:	687b      	ldr	r3, [r7, #4]
 80058fc:	685b      	ldr	r3, [r3, #4]
 80058fe:	429a      	cmp	r2, r3
 8005900:	dd04      	ble.n	800590c <stm32__i2c__master_receive+0x198>
 8005902:	484d      	ldr	r0, [pc, #308]	; (8005a38 <stm32__i2c__master_receive+0x2c4>)
 8005904:	f240 311a 	movw	r1, #794	; 0x31a
 8005908:	f7fa fd20 	bl	800034c <__gnat_last_chance_handler>
 800590c:	683a      	ldr	r2, [r7, #0]
 800590e:	68fb      	ldr	r3, [r7, #12]
 8005910:	685b      	ldr	r3, [r3, #4]
 8005912:	3310      	adds	r3, #16
 8005914:	681b      	ldr	r3, [r3, #0]
 8005916:	b2d9      	uxtb	r1, r3
 8005918:	697b      	ldr	r3, [r7, #20]
 800591a:	1b1b      	subs	r3, r3, r4
 800591c:	54d1      	strb	r1, [r2, r3]
 800591e:	697b      	ldr	r3, [r7, #20]
 8005920:	f06f 4200 	mvn.w	r2, #2147483648	; 0x80000000
 8005924:	4293      	cmp	r3, r2
 8005926:	d104      	bne.n	8005932 <stm32__i2c__master_receive+0x1be>
 8005928:	4843      	ldr	r0, [pc, #268]	; (8005a38 <stm32__i2c__master_receive+0x2c4>)
 800592a:	f240 311b 	movw	r1, #795	; 0x31b
 800592e:	f7fa fd0d 	bl	800034c <__gnat_last_chance_handler>
 8005932:	697b      	ldr	r3, [r7, #20]
 8005934:	3301      	adds	r3, #1
 8005936:	617b      	str	r3, [r7, #20]
 8005938:	697a      	ldr	r2, [r7, #20]
 800593a:	687b      	ldr	r3, [r7, #4]
 800593c:	681b      	ldr	r3, [r3, #0]
 800593e:	429a      	cmp	r2, r3
 8005940:	db04      	blt.n	800594c <stm32__i2c__master_receive+0x1d8>
 8005942:	697a      	ldr	r2, [r7, #20]
 8005944:	687b      	ldr	r3, [r7, #4]
 8005946:	685b      	ldr	r3, [r3, #4]
 8005948:	429a      	cmp	r2, r3
 800594a:	dd04      	ble.n	8005956 <stm32__i2c__master_receive+0x1e2>
 800594c:	483a      	ldr	r0, [pc, #232]	; (8005a38 <stm32__i2c__master_receive+0x2c4>)
 800594e:	f44f 7147 	mov.w	r1, #796	; 0x31c
 8005952:	f7fa fcfb 	bl	800034c <__gnat_last_chance_handler>
 8005956:	697b      	ldr	r3, [r7, #20]
 8005958:	2b00      	cmp	r3, #0
 800595a:	da04      	bge.n	8005966 <stm32__i2c__master_receive+0x1f2>
 800595c:	4836      	ldr	r0, [pc, #216]	; (8005a38 <stm32__i2c__master_receive+0x2c4>)
 800595e:	f44f 7147 	mov.w	r1, #796	; 0x31c
 8005962:	f7fa fcf3 	bl	800034c <__gnat_last_chance_handler>
 8005966:	683a      	ldr	r2, [r7, #0]
 8005968:	68fb      	ldr	r3, [r7, #12]
 800596a:	685b      	ldr	r3, [r3, #4]
 800596c:	3310      	adds	r3, #16
 800596e:	681b      	ldr	r3, [r3, #0]
 8005970:	b2d9      	uxtb	r1, r3
 8005972:	697b      	ldr	r3, [r7, #20]
 8005974:	1b1b      	subs	r3, r3, r4
 8005976:	54d1      	strb	r1, [r2, r3]
 8005978:	68fb      	ldr	r3, [r7, #12]
 800597a:	2201      	movs	r2, #1
 800597c:	751a      	strb	r2, [r3, #20]
 800597e:	e225      	b.n	8005dcc <stm32__i2c__master_receive+0x658>
 8005980:	68fb      	ldr	r3, [r7, #12]
 8005982:	685b      	ldr	r3, [r3, #4]
 8005984:	681b      	ldr	r3, [r3, #0]
 8005986:	461a      	mov	r2, r3
 8005988:	4613      	mov	r3, r2
 800598a:	f443 6280 	orr.w	r2, r3, #1024	; 0x400
 800598e:	68fb      	ldr	r3, [r7, #12]
 8005990:	685b      	ldr	r3, [r3, #4]
 8005992:	601a      	str	r2, [r3, #0]
 8005994:	68f8      	ldr	r0, [r7, #12]
 8005996:	f7ff fa35 	bl	8004e04 <stm32__i2c__clear_address_sent_status>
 800599a:	697a      	ldr	r2, [r7, #20]
 800599c:	687b      	ldr	r3, [r7, #4]
 800599e:	685b      	ldr	r3, [r3, #4]
 80059a0:	429a      	cmp	r2, r3
 80059a2:	f300 8202 	bgt.w	8005daa <stm32__i2c__master_receive+0x636>
 80059a6:	697a      	ldr	r2, [r7, #20]
 80059a8:	687b      	ldr	r3, [r7, #4]
 80059aa:	685b      	ldr	r3, [r3, #4]
 80059ac:	429a      	cmp	r2, r3
 80059ae:	d139      	bne.n	8005a24 <stm32__i2c__master_receive+0x2b0>
 80059b0:	68f8      	ldr	r0, [r7, #12]
 80059b2:	2105      	movs	r1, #5
 80059b4:	2200      	movs	r2, #0
 80059b6:	6abb      	ldr	r3, [r7, #40]	; 0x28
 80059b8:	f7ff fa3e 	bl	8004e38 <stm32__i2c__wait_flag>
 80059bc:	4603      	mov	r3, r0
 80059be:	74fb      	strb	r3, [r7, #19]
 80059c0:	7cfb      	ldrb	r3, [r7, #19]
 80059c2:	2b00      	cmp	r3, #0
 80059c4:	f040 81f9 	bne.w	8005dba <stm32__i2c__master_receive+0x646>
 80059c8:	697a      	ldr	r2, [r7, #20]
 80059ca:	687b      	ldr	r3, [r7, #4]
 80059cc:	681b      	ldr	r3, [r3, #0]
 80059ce:	429a      	cmp	r2, r3
 80059d0:	db04      	blt.n	80059dc <stm32__i2c__master_receive+0x268>
 80059d2:	697a      	ldr	r2, [r7, #20]
 80059d4:	687b      	ldr	r3, [r7, #4]
 80059d6:	685b      	ldr	r3, [r3, #4]
 80059d8:	429a      	cmp	r2, r3
 80059da:	dd04      	ble.n	80059e6 <stm32__i2c__master_receive+0x272>
 80059dc:	4816      	ldr	r0, [pc, #88]	; (8005a38 <stm32__i2c__master_receive+0x2c4>)
 80059de:	f240 3132 	movw	r1, #818	; 0x332
 80059e2:	f7fa fcb3 	bl	800034c <__gnat_last_chance_handler>
 80059e6:	697b      	ldr	r3, [r7, #20]
 80059e8:	2b00      	cmp	r3, #0
 80059ea:	da04      	bge.n	80059f6 <stm32__i2c__master_receive+0x282>
 80059ec:	4812      	ldr	r0, [pc, #72]	; (8005a38 <stm32__i2c__master_receive+0x2c4>)
 80059ee:	f240 3132 	movw	r1, #818	; 0x332
 80059f2:	f7fa fcab 	bl	800034c <__gnat_last_chance_handler>
 80059f6:	683a      	ldr	r2, [r7, #0]
 80059f8:	68fb      	ldr	r3, [r7, #12]
 80059fa:	685b      	ldr	r3, [r3, #4]
 80059fc:	3310      	adds	r3, #16
 80059fe:	681b      	ldr	r3, [r3, #0]
 8005a00:	b2d9      	uxtb	r1, r3
 8005a02:	697b      	ldr	r3, [r7, #20]
 8005a04:	1b1b      	subs	r3, r3, r4
 8005a06:	54d1      	strb	r1, [r2, r3]
 8005a08:	697b      	ldr	r3, [r7, #20]
 8005a0a:	f06f 4200 	mvn.w	r2, #2147483648	; 0x80000000
 8005a0e:	4293      	cmp	r3, r2
 8005a10:	d104      	bne.n	8005a1c <stm32__i2c__master_receive+0x2a8>
 8005a12:	4809      	ldr	r0, [pc, #36]	; (8005a38 <stm32__i2c__master_receive+0x2c4>)
 8005a14:	f240 3133 	movw	r1, #819	; 0x333
 8005a18:	f7fa fc98 	bl	800034c <__gnat_last_chance_handler>
 8005a1c:	697b      	ldr	r3, [r7, #20]
 8005a1e:	3301      	adds	r3, #1
 8005a20:	617b      	str	r3, [r7, #20]
 8005a22:	e7ba      	b.n	800599a <stm32__i2c__master_receive+0x226>
 8005a24:	697b      	ldr	r3, [r7, #20]
 8005a26:	f06f 4200 	mvn.w	r2, #2147483648	; 0x80000000
 8005a2a:	4293      	cmp	r3, r2
 8005a2c:	d106      	bne.n	8005a3c <stm32__i2c__master_receive+0x2c8>
 8005a2e:	4802      	ldr	r0, [pc, #8]	; (8005a38 <stm32__i2c__master_receive+0x2c4>)
 8005a30:	f240 3135 	movw	r1, #821	; 0x335
 8005a34:	f7fa fc8a 	bl	800034c <__gnat_last_chance_handler>
 8005a38:	0800b800 	.word	0x0800b800
 8005a3c:	697b      	ldr	r3, [r7, #20]
 8005a3e:	1c5a      	adds	r2, r3, #1
 8005a40:	687b      	ldr	r3, [r7, #4]
 8005a42:	685b      	ldr	r3, [r3, #4]
 8005a44:	429a      	cmp	r2, r3
 8005a46:	d178      	bne.n	8005b3a <stm32__i2c__master_receive+0x3c6>
 8005a48:	68fb      	ldr	r3, [r7, #12]
 8005a4a:	685b      	ldr	r3, [r3, #4]
 8005a4c:	681b      	ldr	r3, [r3, #0]
 8005a4e:	f36f 238a 	bfc	r3, #10, #1
 8005a52:	68fa      	ldr	r2, [r7, #12]
 8005a54:	6852      	ldr	r2, [r2, #4]
 8005a56:	6013      	str	r3, [r2, #0]
 8005a58:	68f8      	ldr	r0, [r7, #12]
 8005a5a:	2102      	movs	r1, #2
 8005a5c:	2200      	movs	r2, #0
 8005a5e:	6abb      	ldr	r3, [r7, #40]	; 0x28
 8005a60:	f7ff f9ea 	bl	8004e38 <stm32__i2c__wait_flag>
 8005a64:	4603      	mov	r3, r0
 8005a66:	74fb      	strb	r3, [r7, #19]
 8005a68:	7cfb      	ldrb	r3, [r7, #19]
 8005a6a:	2b00      	cmp	r3, #0
 8005a6c:	f040 81a7 	bne.w	8005dbe <stm32__i2c__master_receive+0x64a>
 8005a70:	68fb      	ldr	r3, [r7, #12]
 8005a72:	685b      	ldr	r3, [r3, #4]
 8005a74:	681b      	ldr	r3, [r3, #0]
 8005a76:	461a      	mov	r2, r3
 8005a78:	4613      	mov	r3, r2
 8005a7a:	f443 7200 	orr.w	r2, r3, #512	; 0x200
 8005a7e:	68fb      	ldr	r3, [r7, #12]
 8005a80:	685b      	ldr	r3, [r3, #4]
 8005a82:	601a      	str	r2, [r3, #0]
 8005a84:	697a      	ldr	r2, [r7, #20]
 8005a86:	687b      	ldr	r3, [r7, #4]
 8005a88:	681b      	ldr	r3, [r3, #0]
 8005a8a:	429a      	cmp	r2, r3
 8005a8c:	db04      	blt.n	8005a98 <stm32__i2c__master_receive+0x324>
 8005a8e:	697a      	ldr	r2, [r7, #20]
 8005a90:	687b      	ldr	r3, [r7, #4]
 8005a92:	685b      	ldr	r3, [r3, #4]
 8005a94:	429a      	cmp	r2, r3
 8005a96:	dd04      	ble.n	8005aa2 <stm32__i2c__master_receive+0x32e>
 8005a98:	48a3      	ldr	r0, [pc, #652]	; (8005d28 <stm32__i2c__master_receive+0x5b4>)
 8005a9a:	f240 3145 	movw	r1, #837	; 0x345
 8005a9e:	f7fa fc55 	bl	800034c <__gnat_last_chance_handler>
 8005aa2:	697b      	ldr	r3, [r7, #20]
 8005aa4:	2b00      	cmp	r3, #0
 8005aa6:	da04      	bge.n	8005ab2 <stm32__i2c__master_receive+0x33e>
 8005aa8:	489f      	ldr	r0, [pc, #636]	; (8005d28 <stm32__i2c__master_receive+0x5b4>)
 8005aaa:	f240 3145 	movw	r1, #837	; 0x345
 8005aae:	f7fa fc4d 	bl	800034c <__gnat_last_chance_handler>
 8005ab2:	683a      	ldr	r2, [r7, #0]
 8005ab4:	68fb      	ldr	r3, [r7, #12]
 8005ab6:	685b      	ldr	r3, [r3, #4]
 8005ab8:	3310      	adds	r3, #16
 8005aba:	681b      	ldr	r3, [r3, #0]
 8005abc:	b2d9      	uxtb	r1, r3
 8005abe:	697b      	ldr	r3, [r7, #20]
 8005ac0:	1b1b      	subs	r3, r3, r4
 8005ac2:	54d1      	strb	r1, [r2, r3]
 8005ac4:	697b      	ldr	r3, [r7, #20]
 8005ac6:	f06f 4200 	mvn.w	r2, #2147483648	; 0x80000000
 8005aca:	4293      	cmp	r3, r2
 8005acc:	d104      	bne.n	8005ad8 <stm32__i2c__master_receive+0x364>
 8005ace:	4896      	ldr	r0, [pc, #600]	; (8005d28 <stm32__i2c__master_receive+0x5b4>)
 8005ad0:	f240 3146 	movw	r1, #838	; 0x346
 8005ad4:	f7fa fc3a 	bl	800034c <__gnat_last_chance_handler>
 8005ad8:	697b      	ldr	r3, [r7, #20]
 8005ada:	3301      	adds	r3, #1
 8005adc:	617b      	str	r3, [r7, #20]
 8005ade:	697a      	ldr	r2, [r7, #20]
 8005ae0:	687b      	ldr	r3, [r7, #4]
 8005ae2:	681b      	ldr	r3, [r3, #0]
 8005ae4:	429a      	cmp	r2, r3
 8005ae6:	db04      	blt.n	8005af2 <stm32__i2c__master_receive+0x37e>
 8005ae8:	697a      	ldr	r2, [r7, #20]
 8005aea:	687b      	ldr	r3, [r7, #4]
 8005aec:	685b      	ldr	r3, [r3, #4]
 8005aee:	429a      	cmp	r2, r3
 8005af0:	dd04      	ble.n	8005afc <stm32__i2c__master_receive+0x388>
 8005af2:	488d      	ldr	r0, [pc, #564]	; (8005d28 <stm32__i2c__master_receive+0x5b4>)
 8005af4:	f240 3147 	movw	r1, #839	; 0x347
 8005af8:	f7fa fc28 	bl	800034c <__gnat_last_chance_handler>
 8005afc:	697b      	ldr	r3, [r7, #20]
 8005afe:	2b00      	cmp	r3, #0
 8005b00:	da04      	bge.n	8005b0c <stm32__i2c__master_receive+0x398>
 8005b02:	4889      	ldr	r0, [pc, #548]	; (8005d28 <stm32__i2c__master_receive+0x5b4>)
 8005b04:	f240 3147 	movw	r1, #839	; 0x347
 8005b08:	f7fa fc20 	bl	800034c <__gnat_last_chance_handler>
 8005b0c:	683a      	ldr	r2, [r7, #0]
 8005b0e:	68fb      	ldr	r3, [r7, #12]
 8005b10:	685b      	ldr	r3, [r3, #4]
 8005b12:	3310      	adds	r3, #16
 8005b14:	681b      	ldr	r3, [r3, #0]
 8005b16:	b2d9      	uxtb	r1, r3
 8005b18:	697b      	ldr	r3, [r7, #20]
 8005b1a:	1b1b      	subs	r3, r3, r4
 8005b1c:	54d1      	strb	r1, [r2, r3]
 8005b1e:	697b      	ldr	r3, [r7, #20]
 8005b20:	f06f 4200 	mvn.w	r2, #2147483648	; 0x80000000
 8005b24:	4293      	cmp	r3, r2
 8005b26:	d104      	bne.n	8005b32 <stm32__i2c__master_receive+0x3be>
 8005b28:	487f      	ldr	r0, [pc, #508]	; (8005d28 <stm32__i2c__master_receive+0x5b4>)
 8005b2a:	f44f 7152 	mov.w	r1, #840	; 0x348
 8005b2e:	f7fa fc0d 	bl	800034c <__gnat_last_chance_handler>
 8005b32:	697b      	ldr	r3, [r7, #20]
 8005b34:	3301      	adds	r3, #1
 8005b36:	617b      	str	r3, [r7, #20]
 8005b38:	e72f      	b.n	800599a <stm32__i2c__master_receive+0x226>
 8005b3a:	697b      	ldr	r3, [r7, #20]
 8005b3c:	4a7b      	ldr	r2, [pc, #492]	; (8005d2c <stm32__i2c__master_receive+0x5b8>)
 8005b3e:	4293      	cmp	r3, r2
 8005b40:	dd04      	ble.n	8005b4c <stm32__i2c__master_receive+0x3d8>
 8005b42:	4879      	ldr	r0, [pc, #484]	; (8005d28 <stm32__i2c__master_receive+0x5b4>)
 8005b44:	f240 314a 	movw	r1, #842	; 0x34a
 8005b48:	f7fa fc00 	bl	800034c <__gnat_last_chance_handler>
 8005b4c:	697b      	ldr	r3, [r7, #20]
 8005b4e:	1c9a      	adds	r2, r3, #2
 8005b50:	687b      	ldr	r3, [r7, #4]
 8005b52:	685b      	ldr	r3, [r3, #4]
 8005b54:	429a      	cmp	r2, r3
 8005b56:	f040 80b2 	bne.w	8005cbe <stm32__i2c__master_receive+0x54a>
 8005b5a:	68f8      	ldr	r0, [r7, #12]
 8005b5c:	2102      	movs	r1, #2
 8005b5e:	2200      	movs	r2, #0
 8005b60:	6abb      	ldr	r3, [r7, #40]	; 0x28
 8005b62:	f7ff f969 	bl	8004e38 <stm32__i2c__wait_flag>
 8005b66:	4603      	mov	r3, r0
 8005b68:	74fb      	strb	r3, [r7, #19]
 8005b6a:	7cfb      	ldrb	r3, [r7, #19]
 8005b6c:	2b00      	cmp	r3, #0
 8005b6e:	f040 8128 	bne.w	8005dc2 <stm32__i2c__master_receive+0x64e>
 8005b72:	68fb      	ldr	r3, [r7, #12]
 8005b74:	685b      	ldr	r3, [r3, #4]
 8005b76:	681b      	ldr	r3, [r3, #0]
 8005b78:	f36f 238a 	bfc	r3, #10, #1
 8005b7c:	68fa      	ldr	r2, [r7, #12]
 8005b7e:	6852      	ldr	r2, [r2, #4]
 8005b80:	6013      	str	r3, [r2, #0]
 8005b82:	697a      	ldr	r2, [r7, #20]
 8005b84:	687b      	ldr	r3, [r7, #4]
 8005b86:	681b      	ldr	r3, [r3, #0]
 8005b88:	429a      	cmp	r2, r3
 8005b8a:	db04      	blt.n	8005b96 <stm32__i2c__master_receive+0x422>
 8005b8c:	697a      	ldr	r2, [r7, #20]
 8005b8e:	687b      	ldr	r3, [r7, #4]
 8005b90:	685b      	ldr	r3, [r3, #4]
 8005b92:	429a      	cmp	r2, r3
 8005b94:	dd04      	ble.n	8005ba0 <stm32__i2c__master_receive+0x42c>
 8005b96:	4864      	ldr	r0, [pc, #400]	; (8005d28 <stm32__i2c__master_receive+0x5b4>)
 8005b98:	f44f 7156 	mov.w	r1, #856	; 0x358
 8005b9c:	f7fa fbd6 	bl	800034c <__gnat_last_chance_handler>
 8005ba0:	697b      	ldr	r3, [r7, #20]
 8005ba2:	2b00      	cmp	r3, #0
 8005ba4:	da04      	bge.n	8005bb0 <stm32__i2c__master_receive+0x43c>
 8005ba6:	4860      	ldr	r0, [pc, #384]	; (8005d28 <stm32__i2c__master_receive+0x5b4>)
 8005ba8:	f44f 7156 	mov.w	r1, #856	; 0x358
 8005bac:	f7fa fbce 	bl	800034c <__gnat_last_chance_handler>
 8005bb0:	683a      	ldr	r2, [r7, #0]
 8005bb2:	68fb      	ldr	r3, [r7, #12]
 8005bb4:	685b      	ldr	r3, [r3, #4]
 8005bb6:	3310      	adds	r3, #16
 8005bb8:	681b      	ldr	r3, [r3, #0]
 8005bba:	b2d9      	uxtb	r1, r3
 8005bbc:	697b      	ldr	r3, [r7, #20]
 8005bbe:	1b1b      	subs	r3, r3, r4
 8005bc0:	54d1      	strb	r1, [r2, r3]
 8005bc2:	697b      	ldr	r3, [r7, #20]
 8005bc4:	f06f 4200 	mvn.w	r2, #2147483648	; 0x80000000
 8005bc8:	4293      	cmp	r3, r2
 8005bca:	d104      	bne.n	8005bd6 <stm32__i2c__master_receive+0x462>
 8005bcc:	4856      	ldr	r0, [pc, #344]	; (8005d28 <stm32__i2c__master_receive+0x5b4>)
 8005bce:	f240 3159 	movw	r1, #857	; 0x359
 8005bd2:	f7fa fbbb 	bl	800034c <__gnat_last_chance_handler>
 8005bd6:	697b      	ldr	r3, [r7, #20]
 8005bd8:	3301      	adds	r3, #1
 8005bda:	617b      	str	r3, [r7, #20]
 8005bdc:	68f8      	ldr	r0, [r7, #12]
 8005bde:	2102      	movs	r1, #2
 8005be0:	2200      	movs	r2, #0
 8005be2:	6abb      	ldr	r3, [r7, #40]	; 0x28
 8005be4:	f7ff f928 	bl	8004e38 <stm32__i2c__wait_flag>
 8005be8:	4603      	mov	r3, r0
 8005bea:	74fb      	strb	r3, [r7, #19]
 8005bec:	7cfb      	ldrb	r3, [r7, #19]
 8005bee:	2b00      	cmp	r3, #0
 8005bf0:	f040 80e9 	bne.w	8005dc6 <stm32__i2c__master_receive+0x652>
 8005bf4:	68fb      	ldr	r3, [r7, #12]
 8005bf6:	685b      	ldr	r3, [r3, #4]
 8005bf8:	681b      	ldr	r3, [r3, #0]
 8005bfa:	461a      	mov	r2, r3
 8005bfc:	4613      	mov	r3, r2
 8005bfe:	f443 7200 	orr.w	r2, r3, #512	; 0x200
 8005c02:	68fb      	ldr	r3, [r7, #12]
 8005c04:	685b      	ldr	r3, [r3, #4]
 8005c06:	601a      	str	r2, [r3, #0]
 8005c08:	697a      	ldr	r2, [r7, #20]
 8005c0a:	687b      	ldr	r3, [r7, #4]
 8005c0c:	681b      	ldr	r3, [r3, #0]
 8005c0e:	429a      	cmp	r2, r3
 8005c10:	db04      	blt.n	8005c1c <stm32__i2c__master_receive+0x4a8>
 8005c12:	697a      	ldr	r2, [r7, #20]
 8005c14:	687b      	ldr	r3, [r7, #4]
 8005c16:	685b      	ldr	r3, [r3, #4]
 8005c18:	429a      	cmp	r2, r3
 8005c1a:	dd04      	ble.n	8005c26 <stm32__i2c__master_receive+0x4b2>
 8005c1c:	4842      	ldr	r0, [pc, #264]	; (8005d28 <stm32__i2c__master_receive+0x5b4>)
 8005c1e:	f240 3167 	movw	r1, #871	; 0x367
 8005c22:	f7fa fb93 	bl	800034c <__gnat_last_chance_handler>
 8005c26:	697b      	ldr	r3, [r7, #20]
 8005c28:	2b00      	cmp	r3, #0
 8005c2a:	da04      	bge.n	8005c36 <stm32__i2c__master_receive+0x4c2>
 8005c2c:	483e      	ldr	r0, [pc, #248]	; (8005d28 <stm32__i2c__master_receive+0x5b4>)
 8005c2e:	f240 3167 	movw	r1, #871	; 0x367
 8005c32:	f7fa fb8b 	bl	800034c <__gnat_last_chance_handler>
 8005c36:	683a      	ldr	r2, [r7, #0]
 8005c38:	68fb      	ldr	r3, [r7, #12]
 8005c3a:	685b      	ldr	r3, [r3, #4]
 8005c3c:	3310      	adds	r3, #16
 8005c3e:	681b      	ldr	r3, [r3, #0]
 8005c40:	b2d9      	uxtb	r1, r3
 8005c42:	697b      	ldr	r3, [r7, #20]
 8005c44:	1b1b      	subs	r3, r3, r4
 8005c46:	54d1      	strb	r1, [r2, r3]
 8005c48:	697b      	ldr	r3, [r7, #20]
 8005c4a:	f06f 4200 	mvn.w	r2, #2147483648	; 0x80000000
 8005c4e:	4293      	cmp	r3, r2
 8005c50:	d104      	bne.n	8005c5c <stm32__i2c__master_receive+0x4e8>
 8005c52:	4835      	ldr	r0, [pc, #212]	; (8005d28 <stm32__i2c__master_receive+0x5b4>)
 8005c54:	f44f 715a 	mov.w	r1, #872	; 0x368
 8005c58:	f7fa fb78 	bl	800034c <__gnat_last_chance_handler>
 8005c5c:	697b      	ldr	r3, [r7, #20]
 8005c5e:	3301      	adds	r3, #1
 8005c60:	617b      	str	r3, [r7, #20]
 8005c62:	697a      	ldr	r2, [r7, #20]
 8005c64:	687b      	ldr	r3, [r7, #4]
 8005c66:	681b      	ldr	r3, [r3, #0]
 8005c68:	429a      	cmp	r2, r3
 8005c6a:	db04      	blt.n	8005c76 <stm32__i2c__master_receive+0x502>
 8005c6c:	697a      	ldr	r2, [r7, #20]
 8005c6e:	687b      	ldr	r3, [r7, #4]
 8005c70:	685b      	ldr	r3, [r3, #4]
 8005c72:	429a      	cmp	r2, r3
 8005c74:	dd04      	ble.n	8005c80 <stm32__i2c__master_receive+0x50c>
 8005c76:	482c      	ldr	r0, [pc, #176]	; (8005d28 <stm32__i2c__master_receive+0x5b4>)
 8005c78:	f240 3169 	movw	r1, #873	; 0x369
 8005c7c:	f7fa fb66 	bl	800034c <__gnat_last_chance_handler>
 8005c80:	697b      	ldr	r3, [r7, #20]
 8005c82:	2b00      	cmp	r3, #0
 8005c84:	da04      	bge.n	8005c90 <stm32__i2c__master_receive+0x51c>
 8005c86:	4828      	ldr	r0, [pc, #160]	; (8005d28 <stm32__i2c__master_receive+0x5b4>)
 8005c88:	f240 3169 	movw	r1, #873	; 0x369
 8005c8c:	f7fa fb5e 	bl	800034c <__gnat_last_chance_handler>
 8005c90:	683a      	ldr	r2, [r7, #0]
 8005c92:	68fb      	ldr	r3, [r7, #12]
 8005c94:	685b      	ldr	r3, [r3, #4]
 8005c96:	3310      	adds	r3, #16
 8005c98:	681b      	ldr	r3, [r3, #0]
 8005c9a:	b2d9      	uxtb	r1, r3
 8005c9c:	697b      	ldr	r3, [r7, #20]
 8005c9e:	1b1b      	subs	r3, r3, r4
 8005ca0:	54d1      	strb	r1, [r2, r3]
 8005ca2:	697b      	ldr	r3, [r7, #20]
 8005ca4:	f06f 4200 	mvn.w	r2, #2147483648	; 0x80000000
 8005ca8:	4293      	cmp	r3, r2
 8005caa:	d104      	bne.n	8005cb6 <stm32__i2c__master_receive+0x542>
 8005cac:	481e      	ldr	r0, [pc, #120]	; (8005d28 <stm32__i2c__master_receive+0x5b4>)
 8005cae:	f240 316a 	movw	r1, #874	; 0x36a
 8005cb2:	f7fa fb4b 	bl	800034c <__gnat_last_chance_handler>
 8005cb6:	697b      	ldr	r3, [r7, #20]
 8005cb8:	3301      	adds	r3, #1
 8005cba:	617b      	str	r3, [r7, #20]
 8005cbc:	e66d      	b.n	800599a <stm32__i2c__master_receive+0x226>
 8005cbe:	68f8      	ldr	r0, [r7, #12]
 8005cc0:	2105      	movs	r1, #5
 8005cc2:	2200      	movs	r2, #0
 8005cc4:	6abb      	ldr	r3, [r7, #40]	; 0x28
 8005cc6:	f7ff f8b7 	bl	8004e38 <stm32__i2c__wait_flag>
 8005cca:	4603      	mov	r3, r0
 8005ccc:	74fb      	strb	r3, [r7, #19]
 8005cce:	7cfb      	ldrb	r3, [r7, #19]
 8005cd0:	2b00      	cmp	r3, #0
 8005cd2:	d17a      	bne.n	8005dca <stm32__i2c__master_receive+0x656>
 8005cd4:	697a      	ldr	r2, [r7, #20]
 8005cd6:	687b      	ldr	r3, [r7, #4]
 8005cd8:	681b      	ldr	r3, [r3, #0]
 8005cda:	429a      	cmp	r2, r3
 8005cdc:	db04      	blt.n	8005ce8 <stm32__i2c__master_receive+0x574>
 8005cde:	697a      	ldr	r2, [r7, #20]
 8005ce0:	687b      	ldr	r3, [r7, #4]
 8005ce2:	685b      	ldr	r3, [r3, #4]
 8005ce4:	429a      	cmp	r2, r3
 8005ce6:	dd04      	ble.n	8005cf2 <stm32__i2c__master_receive+0x57e>
 8005ce8:	480f      	ldr	r0, [pc, #60]	; (8005d28 <stm32__i2c__master_receive+0x5b4>)
 8005cea:	f44f 715e 	mov.w	r1, #888	; 0x378
 8005cee:	f7fa fb2d 	bl	800034c <__gnat_last_chance_handler>
 8005cf2:	697b      	ldr	r3, [r7, #20]
 8005cf4:	2b00      	cmp	r3, #0
 8005cf6:	da04      	bge.n	8005d02 <stm32__i2c__master_receive+0x58e>
 8005cf8:	480b      	ldr	r0, [pc, #44]	; (8005d28 <stm32__i2c__master_receive+0x5b4>)
 8005cfa:	f44f 715e 	mov.w	r1, #888	; 0x378
 8005cfe:	f7fa fb25 	bl	800034c <__gnat_last_chance_handler>
 8005d02:	683a      	ldr	r2, [r7, #0]
 8005d04:	68fb      	ldr	r3, [r7, #12]
 8005d06:	685b      	ldr	r3, [r3, #4]
 8005d08:	3310      	adds	r3, #16
 8005d0a:	681b      	ldr	r3, [r3, #0]
 8005d0c:	b2d9      	uxtb	r1, r3
 8005d0e:	697b      	ldr	r3, [r7, #20]
 8005d10:	1b1b      	subs	r3, r3, r4
 8005d12:	54d1      	strb	r1, [r2, r3]
 8005d14:	697b      	ldr	r3, [r7, #20]
 8005d16:	f06f 4200 	mvn.w	r2, #2147483648	; 0x80000000
 8005d1a:	4293      	cmp	r3, r2
 8005d1c:	d108      	bne.n	8005d30 <stm32__i2c__master_receive+0x5bc>
 8005d1e:	4802      	ldr	r0, [pc, #8]	; (8005d28 <stm32__i2c__master_receive+0x5b4>)
 8005d20:	f240 3179 	movw	r1, #889	; 0x379
 8005d24:	f7fa fb12 	bl	800034c <__gnat_last_chance_handler>
 8005d28:	0800b800 	.word	0x0800b800
 8005d2c:	7ffffffd 	.word	0x7ffffffd
 8005d30:	697b      	ldr	r3, [r7, #20]
 8005d32:	3301      	adds	r3, #1
 8005d34:	617b      	str	r3, [r7, #20]
 8005d36:	68f8      	ldr	r0, [r7, #12]
 8005d38:	2102      	movs	r1, #2
 8005d3a:	2200      	movs	r2, #0
 8005d3c:	6abb      	ldr	r3, [r7, #40]	; 0x28
 8005d3e:	f7ff f87b 	bl	8004e38 <stm32__i2c__wait_flag>
 8005d42:	4603      	mov	r3, r0
 8005d44:	74fb      	strb	r3, [r7, #19]
 8005d46:	7cfb      	ldrb	r3, [r7, #19]
 8005d48:	2b00      	cmp	r3, #0
 8005d4a:	f47f ae26 	bne.w	800599a <stm32__i2c__master_receive+0x226>
 8005d4e:	697a      	ldr	r2, [r7, #20]
 8005d50:	687b      	ldr	r3, [r7, #4]
 8005d52:	681b      	ldr	r3, [r3, #0]
 8005d54:	429a      	cmp	r2, r3
 8005d56:	db04      	blt.n	8005d62 <stm32__i2c__master_receive+0x5ee>
 8005d58:	697a      	ldr	r2, [r7, #20]
 8005d5a:	687b      	ldr	r3, [r7, #4]
 8005d5c:	685b      	ldr	r3, [r3, #4]
 8005d5e:	429a      	cmp	r2, r3
 8005d60:	dd04      	ble.n	8005d6c <stm32__i2c__master_receive+0x5f8>
 8005d62:	481d      	ldr	r0, [pc, #116]	; (8005dd8 <stm32__i2c__master_receive+0x664>)
 8005d64:	f240 3182 	movw	r1, #898	; 0x382
 8005d68:	f7fa faf0 	bl	800034c <__gnat_last_chance_handler>
 8005d6c:	697b      	ldr	r3, [r7, #20]
 8005d6e:	2b00      	cmp	r3, #0
 8005d70:	da04      	bge.n	8005d7c <stm32__i2c__master_receive+0x608>
 8005d72:	4819      	ldr	r0, [pc, #100]	; (8005dd8 <stm32__i2c__master_receive+0x664>)
 8005d74:	f240 3182 	movw	r1, #898	; 0x382
 8005d78:	f7fa fae8 	bl	800034c <__gnat_last_chance_handler>
 8005d7c:	683a      	ldr	r2, [r7, #0]
 8005d7e:	68fb      	ldr	r3, [r7, #12]
 8005d80:	685b      	ldr	r3, [r3, #4]
 8005d82:	3310      	adds	r3, #16
 8005d84:	681b      	ldr	r3, [r3, #0]
 8005d86:	b2d9      	uxtb	r1, r3
 8005d88:	697b      	ldr	r3, [r7, #20]
 8005d8a:	1b1b      	subs	r3, r3, r4
 8005d8c:	54d1      	strb	r1, [r2, r3]
 8005d8e:	697b      	ldr	r3, [r7, #20]
 8005d90:	f06f 4200 	mvn.w	r2, #2147483648	; 0x80000000
 8005d94:	4293      	cmp	r3, r2
 8005d96:	d104      	bne.n	8005da2 <stm32__i2c__master_receive+0x62e>
 8005d98:	480f      	ldr	r0, [pc, #60]	; (8005dd8 <stm32__i2c__master_receive+0x664>)
 8005d9a:	f240 3183 	movw	r1, #899	; 0x383
 8005d9e:	f7fa fad5 	bl	800034c <__gnat_last_chance_handler>
 8005da2:	697b      	ldr	r3, [r7, #20]
 8005da4:	3301      	adds	r3, #1
 8005da6:	617b      	str	r3, [r7, #20]
 8005da8:	e5f7      	b.n	800599a <stm32__i2c__master_receive+0x226>
 8005daa:	68fb      	ldr	r3, [r7, #12]
 8005dac:	2201      	movs	r2, #1
 8005dae:	751a      	strb	r2, [r3, #20]
 8005db0:	e00c      	b.n	8005dcc <stm32__i2c__master_receive+0x658>
 8005db2:	bf00      	nop
 8005db4:	e00a      	b.n	8005dcc <stm32__i2c__master_receive+0x658>
 8005db6:	bf00      	nop
 8005db8:	e008      	b.n	8005dcc <stm32__i2c__master_receive+0x658>
 8005dba:	bf00      	nop
 8005dbc:	e006      	b.n	8005dcc <stm32__i2c__master_receive+0x658>
 8005dbe:	bf00      	nop
 8005dc0:	e004      	b.n	8005dcc <stm32__i2c__master_receive+0x658>
 8005dc2:	bf00      	nop
 8005dc4:	e002      	b.n	8005dcc <stm32__i2c__master_receive+0x658>
 8005dc6:	bf00      	nop
 8005dc8:	e000      	b.n	8005dcc <stm32__i2c__master_receive+0x658>
 8005dca:	bf00      	nop
 8005dcc:	7cfb      	ldrb	r3, [r7, #19]
 8005dce:	bf00      	nop
 8005dd0:	4618      	mov	r0, r3
 8005dd2:	371c      	adds	r7, #28
 8005dd4:	46bd      	mov	sp, r7
 8005dd6:	bd90      	pop	{r4, r7, pc}
 8005dd8:	0800b800 	.word	0x0800b800

08005ddc <stm32__i2c__mem_write>:
 8005ddc:	b5f0      	push	{r4, r5, r6, r7, lr}
 8005dde:	b089      	sub	sp, #36	; 0x24
 8005de0:	af02      	add	r7, sp, #8
 8005de2:	60f8      	str	r0, [r7, #12]
 8005de4:	4608      	mov	r0, r1
 8005de6:	4611      	mov	r1, r2
 8005de8:	461a      	mov	r2, r3
 8005dea:	4603      	mov	r3, r0
 8005dec:	817b      	strh	r3, [r7, #10]
 8005dee:	460b      	mov	r3, r1
 8005df0:	813b      	strh	r3, [r7, #8]
 8005df2:	4613      	mov	r3, r2
 8005df4:	71fb      	strb	r3, [r7, #7]
 8005df6:	6b7b      	ldr	r3, [r7, #52]	; 0x34
 8005df8:	681c      	ldr	r4, [r3, #0]
 8005dfa:	6b7b      	ldr	r3, [r7, #52]	; 0x34
 8005dfc:	685d      	ldr	r5, [r3, #4]
 8005dfe:	4626      	mov	r6, r4
 8005e00:	2c00      	cmp	r4, #0
 8005e02:	da04      	bge.n	8005e0e <stm32__i2c__mem_write+0x32>
 8005e04:	4866      	ldr	r0, [pc, #408]	; (8005fa0 <stm32__i2c__mem_write+0x1c4>)
 8005e06:	f240 319a 	movw	r1, #922	; 0x39a
 8005e0a:	f7fa fa9f 	bl	800034c <__gnat_last_chance_handler>
 8005e0e:	617c      	str	r4, [r7, #20]
 8005e10:	68fb      	ldr	r3, [r7, #12]
 8005e12:	7d1b      	ldrb	r3, [r3, #20]
 8005e14:	2b00      	cmp	r3, #0
 8005e16:	d102      	bne.n	8005e1e <stm32__i2c__mem_write+0x42>
 8005e18:	2301      	movs	r3, #1
 8005e1a:	74fb      	strb	r3, [r7, #19]
 8005e1c:	e0ba      	b.n	8005f94 <stm32__i2c__mem_write+0x1b8>
 8005e1e:	42ac      	cmp	r4, r5
 8005e20:	dd02      	ble.n	8005e28 <stm32__i2c__mem_write+0x4c>
 8005e22:	2301      	movs	r3, #1
 8005e24:	74fb      	strb	r3, [r7, #19]
 8005e26:	e0b5      	b.n	8005f94 <stm32__i2c__mem_write+0x1b8>
 8005e28:	68f8      	ldr	r0, [r7, #12]
 8005e2a:	210f      	movs	r1, #15
 8005e2c:	2201      	movs	r2, #1
 8005e2e:	6bbb      	ldr	r3, [r7, #56]	; 0x38
 8005e30:	f7ff f802 	bl	8004e38 <stm32__i2c__wait_flag>
 8005e34:	4603      	mov	r3, r0
 8005e36:	74fb      	strb	r3, [r7, #19]
 8005e38:	7cfb      	ldrb	r3, [r7, #19]
 8005e3a:	2b00      	cmp	r3, #0
 8005e3c:	d002      	beq.n	8005e44 <stm32__i2c__mem_write+0x68>
 8005e3e:	2303      	movs	r3, #3
 8005e40:	74fb      	strb	r3, [r7, #19]
 8005e42:	e0a7      	b.n	8005f94 <stm32__i2c__mem_write+0x1b8>
 8005e44:	68fb      	ldr	r3, [r7, #12]
 8005e46:	7d1b      	ldrb	r3, [r3, #20]
 8005e48:	2b01      	cmp	r3, #1
 8005e4a:	d002      	beq.n	8005e52 <stm32__i2c__mem_write+0x76>
 8005e4c:	2303      	movs	r3, #3
 8005e4e:	74fb      	strb	r3, [r7, #19]
 8005e50:	e0a0      	b.n	8005f94 <stm32__i2c__mem_write+0x1b8>
 8005e52:	68fb      	ldr	r3, [r7, #12]
 8005e54:	2204      	movs	r2, #4
 8005e56:	751a      	strb	r2, [r3, #20]
 8005e58:	68fb      	ldr	r3, [r7, #12]
 8005e5a:	685b      	ldr	r3, [r3, #4]
 8005e5c:	681b      	ldr	r3, [r3, #0]
 8005e5e:	f36f 23cb 	bfc	r3, #11, #1
 8005e62:	68fa      	ldr	r2, [r7, #12]
 8005e64:	6852      	ldr	r2, [r2, #4]
 8005e66:	6013      	str	r3, [r2, #0]
 8005e68:	8979      	ldrh	r1, [r7, #10]
 8005e6a:	893a      	ldrh	r2, [r7, #8]
 8005e6c:	f897 e007 	ldrb.w	lr, [r7, #7]
 8005e70:	6bbb      	ldr	r3, [r7, #56]	; 0x38
 8005e72:	9300      	str	r3, [sp, #0]
 8005e74:	68f8      	ldr	r0, [r7, #12]
 8005e76:	4673      	mov	r3, lr
 8005e78:	f7ff f9d0 	bl	800521c <stm32__i2c__mem_request_write>
 8005e7c:	4603      	mov	r3, r0
 8005e7e:	74fb      	strb	r3, [r7, #19]
 8005e80:	7cfb      	ldrb	r3, [r7, #19]
 8005e82:	2b00      	cmp	r3, #0
 8005e84:	f040 8081 	bne.w	8005f8a <stm32__i2c__mem_write+0x1ae>
 8005e88:	697b      	ldr	r3, [r7, #20]
 8005e8a:	42ab      	cmp	r3, r5
 8005e8c:	dc64      	bgt.n	8005f58 <stm32__i2c__mem_write+0x17c>
 8005e8e:	68f8      	ldr	r0, [r7, #12]
 8005e90:	2106      	movs	r1, #6
 8005e92:	2200      	movs	r2, #0
 8005e94:	6bbb      	ldr	r3, [r7, #56]	; 0x38
 8005e96:	f7fe ffcf 	bl	8004e38 <stm32__i2c__wait_flag>
 8005e9a:	4603      	mov	r3, r0
 8005e9c:	74fb      	strb	r3, [r7, #19]
 8005e9e:	7cfb      	ldrb	r3, [r7, #19]
 8005ea0:	2b00      	cmp	r3, #0
 8005ea2:	d174      	bne.n	8005f8e <stm32__i2c__mem_write+0x1b2>
 8005ea4:	697b      	ldr	r3, [r7, #20]
 8005ea6:	42a3      	cmp	r3, r4
 8005ea8:	db02      	blt.n	8005eb0 <stm32__i2c__mem_write+0xd4>
 8005eaa:	697b      	ldr	r3, [r7, #20]
 8005eac:	42ab      	cmp	r3, r5
 8005eae:	dd04      	ble.n	8005eba <stm32__i2c__mem_write+0xde>
 8005eb0:	483b      	ldr	r0, [pc, #236]	; (8005fa0 <stm32__i2c__mem_write+0x1c4>)
 8005eb2:	f240 31c7 	movw	r1, #967	; 0x3c7
 8005eb6:	f7fa fa49 	bl	800034c <__gnat_last_chance_handler>
 8005eba:	68fb      	ldr	r3, [r7, #12]
 8005ebc:	685b      	ldr	r3, [r3, #4]
 8005ebe:	3310      	adds	r3, #16
 8005ec0:	681b      	ldr	r3, [r3, #0]
 8005ec2:	6b39      	ldr	r1, [r7, #48]	; 0x30
 8005ec4:	697a      	ldr	r2, [r7, #20]
 8005ec6:	1b92      	subs	r2, r2, r6
 8005ec8:	5c8a      	ldrb	r2, [r1, r2]
 8005eca:	f362 0307 	bfi	r3, r2, #0, #8
 8005ece:	68fa      	ldr	r2, [r7, #12]
 8005ed0:	6852      	ldr	r2, [r2, #4]
 8005ed2:	3210      	adds	r2, #16
 8005ed4:	6013      	str	r3, [r2, #0]
 8005ed6:	697b      	ldr	r3, [r7, #20]
 8005ed8:	f06f 4200 	mvn.w	r2, #2147483648	; 0x80000000
 8005edc:	4293      	cmp	r3, r2
 8005ede:	d104      	bne.n	8005eea <stm32__i2c__mem_write+0x10e>
 8005ee0:	482f      	ldr	r0, [pc, #188]	; (8005fa0 <stm32__i2c__mem_write+0x1c4>)
 8005ee2:	f44f 7172 	mov.w	r1, #968	; 0x3c8
 8005ee6:	f7fa fa31 	bl	800034c <__gnat_last_chance_handler>
 8005eea:	697b      	ldr	r3, [r7, #20]
 8005eec:	3301      	adds	r3, #1
 8005eee:	617b      	str	r3, [r7, #20]
 8005ef0:	68f8      	ldr	r0, [r7, #12]
 8005ef2:	2102      	movs	r1, #2
 8005ef4:	f7fe fe9a 	bl	8004c2c <stm32__i2c__flag_status>
 8005ef8:	4603      	mov	r3, r0
 8005efa:	2b00      	cmp	r3, #0
 8005efc:	d0c4      	beq.n	8005e88 <stm32__i2c__mem_write+0xac>
 8005efe:	697b      	ldr	r3, [r7, #20]
 8005f00:	42ab      	cmp	r3, r5
 8005f02:	dcc1      	bgt.n	8005e88 <stm32__i2c__mem_write+0xac>
 8005f04:	7cfb      	ldrb	r3, [r7, #19]
 8005f06:	2b00      	cmp	r3, #0
 8005f08:	d1be      	bne.n	8005e88 <stm32__i2c__mem_write+0xac>
 8005f0a:	697b      	ldr	r3, [r7, #20]
 8005f0c:	42a3      	cmp	r3, r4
 8005f0e:	db02      	blt.n	8005f16 <stm32__i2c__mem_write+0x13a>
 8005f10:	697b      	ldr	r3, [r7, #20]
 8005f12:	42ab      	cmp	r3, r5
 8005f14:	dd04      	ble.n	8005f20 <stm32__i2c__mem_write+0x144>
 8005f16:	4822      	ldr	r0, [pc, #136]	; (8005fa0 <stm32__i2c__mem_write+0x1c4>)
 8005f18:	f44f 7174 	mov.w	r1, #976	; 0x3d0
 8005f1c:	f7fa fa16 	bl	800034c <__gnat_last_chance_handler>
 8005f20:	68fb      	ldr	r3, [r7, #12]
 8005f22:	685b      	ldr	r3, [r3, #4]
 8005f24:	3310      	adds	r3, #16
 8005f26:	681b      	ldr	r3, [r3, #0]
 8005f28:	6b39      	ldr	r1, [r7, #48]	; 0x30
 8005f2a:	697a      	ldr	r2, [r7, #20]
 8005f2c:	1b92      	subs	r2, r2, r6
 8005f2e:	5c8a      	ldrb	r2, [r1, r2]
 8005f30:	f362 0307 	bfi	r3, r2, #0, #8
 8005f34:	68fa      	ldr	r2, [r7, #12]
 8005f36:	6852      	ldr	r2, [r2, #4]
 8005f38:	3210      	adds	r2, #16
 8005f3a:	6013      	str	r3, [r2, #0]
 8005f3c:	697b      	ldr	r3, [r7, #20]
 8005f3e:	f06f 4200 	mvn.w	r2, #2147483648	; 0x80000000
 8005f42:	4293      	cmp	r3, r2
 8005f44:	d104      	bne.n	8005f50 <stm32__i2c__mem_write+0x174>
 8005f46:	4816      	ldr	r0, [pc, #88]	; (8005fa0 <stm32__i2c__mem_write+0x1c4>)
 8005f48:	f240 31d1 	movw	r1, #977	; 0x3d1
 8005f4c:	f7fa f9fe 	bl	800034c <__gnat_last_chance_handler>
 8005f50:	697b      	ldr	r3, [r7, #20]
 8005f52:	3301      	adds	r3, #1
 8005f54:	617b      	str	r3, [r7, #20]
 8005f56:	e797      	b.n	8005e88 <stm32__i2c__mem_write+0xac>
 8005f58:	68f8      	ldr	r0, [r7, #12]
 8005f5a:	2106      	movs	r1, #6
 8005f5c:	2200      	movs	r2, #0
 8005f5e:	6bbb      	ldr	r3, [r7, #56]	; 0x38
 8005f60:	f7fe ff6a 	bl	8004e38 <stm32__i2c__wait_flag>
 8005f64:	4603      	mov	r3, r0
 8005f66:	74fb      	strb	r3, [r7, #19]
 8005f68:	7cfb      	ldrb	r3, [r7, #19]
 8005f6a:	2b00      	cmp	r3, #0
 8005f6c:	d111      	bne.n	8005f92 <stm32__i2c__mem_write+0x1b6>
 8005f6e:	68fb      	ldr	r3, [r7, #12]
 8005f70:	685b      	ldr	r3, [r3, #4]
 8005f72:	681b      	ldr	r3, [r3, #0]
 8005f74:	461a      	mov	r2, r3
 8005f76:	4613      	mov	r3, r2
 8005f78:	f443 7200 	orr.w	r2, r3, #512	; 0x200
 8005f7c:	68fb      	ldr	r3, [r7, #12]
 8005f7e:	685b      	ldr	r3, [r3, #4]
 8005f80:	601a      	str	r2, [r3, #0]
 8005f82:	68fb      	ldr	r3, [r7, #12]
 8005f84:	2201      	movs	r2, #1
 8005f86:	751a      	strb	r2, [r3, #20]
 8005f88:	e004      	b.n	8005f94 <stm32__i2c__mem_write+0x1b8>
 8005f8a:	bf00      	nop
 8005f8c:	e002      	b.n	8005f94 <stm32__i2c__mem_write+0x1b8>
 8005f8e:	bf00      	nop
 8005f90:	e000      	b.n	8005f94 <stm32__i2c__mem_write+0x1b8>
 8005f92:	bf00      	nop
 8005f94:	7cfb      	ldrb	r3, [r7, #19]
 8005f96:	bf00      	nop
 8005f98:	4618      	mov	r0, r3
 8005f9a:	371c      	adds	r7, #28
 8005f9c:	46bd      	mov	sp, r7
 8005f9e:	bdf0      	pop	{r4, r5, r6, r7, pc}
 8005fa0:	0800b800 	.word	0x0800b800

08005fa4 <stm32__i2c__mem_read>:
 8005fa4:	b5b0      	push	{r4, r5, r7, lr}
 8005fa6:	b088      	sub	sp, #32
 8005fa8:	af02      	add	r7, sp, #8
 8005faa:	60f8      	str	r0, [r7, #12]
 8005fac:	4608      	mov	r0, r1
 8005fae:	4611      	mov	r1, r2
 8005fb0:	461a      	mov	r2, r3
 8005fb2:	4603      	mov	r3, r0
 8005fb4:	817b      	strh	r3, [r7, #10]
 8005fb6:	460b      	mov	r3, r1
 8005fb8:	813b      	strh	r3, [r7, #8]
 8005fba:	4613      	mov	r3, r2
 8005fbc:	71fb      	strb	r3, [r7, #7]
 8005fbe:	6afb      	ldr	r3, [r7, #44]	; 0x2c
 8005fc0:	681b      	ldr	r3, [r3, #0]
 8005fc2:	461c      	mov	r4, r3
 8005fc4:	6afb      	ldr	r3, [r7, #44]	; 0x2c
 8005fc6:	681b      	ldr	r3, [r3, #0]
 8005fc8:	2b00      	cmp	r3, #0
 8005fca:	da04      	bge.n	8005fd6 <stm32__i2c__mem_read+0x32>
 8005fcc:	48a2      	ldr	r0, [pc, #648]	; (8006258 <stm32__i2c__mem_read+0x2b4>)
 8005fce:	f240 31f2 	movw	r1, #1010	; 0x3f2
 8005fd2:	f7fa f9bb 	bl	800034c <__gnat_last_chance_handler>
 8005fd6:	6afb      	ldr	r3, [r7, #44]	; 0x2c
 8005fd8:	681b      	ldr	r3, [r3, #0]
 8005fda:	617b      	str	r3, [r7, #20]
 8005fdc:	68fb      	ldr	r3, [r7, #12]
 8005fde:	7d1b      	ldrb	r3, [r3, #20]
 8005fe0:	2b00      	cmp	r3, #0
 8005fe2:	d102      	bne.n	8005fea <stm32__i2c__mem_read+0x46>
 8005fe4:	2301      	movs	r3, #1
 8005fe6:	74fb      	strb	r3, [r7, #19]
 8005fe8:	e2b1      	b.n	800654e <stm32__i2c__mem_read+0x5aa>
 8005fea:	6afb      	ldr	r3, [r7, #44]	; 0x2c
 8005fec:	681a      	ldr	r2, [r3, #0]
 8005fee:	6afb      	ldr	r3, [r7, #44]	; 0x2c
 8005ff0:	685b      	ldr	r3, [r3, #4]
 8005ff2:	429a      	cmp	r2, r3
 8005ff4:	dd02      	ble.n	8005ffc <stm32__i2c__mem_read+0x58>
 8005ff6:	2301      	movs	r3, #1
 8005ff8:	74fb      	strb	r3, [r7, #19]
 8005ffa:	e2a8      	b.n	800654e <stm32__i2c__mem_read+0x5aa>
 8005ffc:	68f8      	ldr	r0, [r7, #12]
 8005ffe:	210f      	movs	r1, #15
 8006000:	2201      	movs	r2, #1
 8006002:	6b3b      	ldr	r3, [r7, #48]	; 0x30
 8006004:	f7fe ff18 	bl	8004e38 <stm32__i2c__wait_flag>
 8006008:	4603      	mov	r3, r0
 800600a:	74fb      	strb	r3, [r7, #19]
 800600c:	7cfb      	ldrb	r3, [r7, #19]
 800600e:	2b00      	cmp	r3, #0
 8006010:	d002      	beq.n	8006018 <stm32__i2c__mem_read+0x74>
 8006012:	2303      	movs	r3, #3
 8006014:	74fb      	strb	r3, [r7, #19]
 8006016:	e29a      	b.n	800654e <stm32__i2c__mem_read+0x5aa>
 8006018:	68fb      	ldr	r3, [r7, #12]
 800601a:	7d1b      	ldrb	r3, [r3, #20]
 800601c:	2b01      	cmp	r3, #1
 800601e:	d002      	beq.n	8006026 <stm32__i2c__mem_read+0x82>
 8006020:	2303      	movs	r3, #3
 8006022:	74fb      	strb	r3, [r7, #19]
 8006024:	e293      	b.n	800654e <stm32__i2c__mem_read+0x5aa>
 8006026:	68fb      	ldr	r3, [r7, #12]
 8006028:	2205      	movs	r2, #5
 800602a:	751a      	strb	r2, [r3, #20]
 800602c:	68fb      	ldr	r3, [r7, #12]
 800602e:	685b      	ldr	r3, [r3, #4]
 8006030:	681b      	ldr	r3, [r3, #0]
 8006032:	f36f 23cb 	bfc	r3, #11, #1
 8006036:	68fa      	ldr	r2, [r7, #12]
 8006038:	6852      	ldr	r2, [r2, #4]
 800603a:	6013      	str	r3, [r2, #0]
 800603c:	8979      	ldrh	r1, [r7, #10]
 800603e:	893a      	ldrh	r2, [r7, #8]
 8006040:	79fd      	ldrb	r5, [r7, #7]
 8006042:	6b3b      	ldr	r3, [r7, #48]	; 0x30
 8006044:	9300      	str	r3, [sp, #0]
 8006046:	68f8      	ldr	r0, [r7, #12]
 8006048:	462b      	mov	r3, r5
 800604a:	f7ff f9ab 	bl	80053a4 <stm32__i2c__mem_request_read>
 800604e:	4603      	mov	r3, r0
 8006050:	74fb      	strb	r3, [r7, #19]
 8006052:	7cfb      	ldrb	r3, [r7, #19]
 8006054:	2b00      	cmp	r3, #0
 8006056:	f040 826f 	bne.w	8006538 <stm32__i2c__mem_read+0x594>
 800605a:	6afb      	ldr	r3, [r7, #44]	; 0x2c
 800605c:	681a      	ldr	r2, [r3, #0]
 800605e:	6afb      	ldr	r3, [r7, #44]	; 0x2c
 8006060:	685b      	ldr	r3, [r3, #4]
 8006062:	429a      	cmp	r2, r3
 8006064:	d115      	bne.n	8006092 <stm32__i2c__mem_read+0xee>
 8006066:	68fb      	ldr	r3, [r7, #12]
 8006068:	685b      	ldr	r3, [r3, #4]
 800606a:	681b      	ldr	r3, [r3, #0]
 800606c:	f36f 238a 	bfc	r3, #10, #1
 8006070:	68fa      	ldr	r2, [r7, #12]
 8006072:	6852      	ldr	r2, [r2, #4]
 8006074:	6013      	str	r3, [r2, #0]
 8006076:	68f8      	ldr	r0, [r7, #12]
 8006078:	f7fe fec4 	bl	8004e04 <stm32__i2c__clear_address_sent_status>
 800607c:	68fb      	ldr	r3, [r7, #12]
 800607e:	685b      	ldr	r3, [r3, #4]
 8006080:	681b      	ldr	r3, [r3, #0]
 8006082:	461a      	mov	r2, r3
 8006084:	4613      	mov	r3, r2
 8006086:	f443 7200 	orr.w	r2, r3, #512	; 0x200
 800608a:	68fb      	ldr	r3, [r7, #12]
 800608c:	685b      	ldr	r3, [r3, #4]
 800608e:	601a      	str	r2, [r3, #0]
 8006090:	e045      	b.n	800611e <stm32__i2c__mem_read+0x17a>
 8006092:	6afb      	ldr	r3, [r7, #44]	; 0x2c
 8006094:	681b      	ldr	r3, [r3, #0]
 8006096:	461a      	mov	r2, r3
 8006098:	ea4f 73e2 	mov.w	r3, r2, asr #31
 800609c:	f04f 30ff 	mov.w	r0, #4294967295
 80060a0:	f06f 4100 	mvn.w	r1, #2147483648	; 0x80000000
 80060a4:	428b      	cmp	r3, r1
 80060a6:	bf08      	it	eq
 80060a8:	4282      	cmpeq	r2, r0
 80060aa:	d104      	bne.n	80060b6 <stm32__i2c__mem_read+0x112>
 80060ac:	486a      	ldr	r0, [pc, #424]	; (8006258 <stm32__i2c__mem_read+0x2b4>)
 80060ae:	f240 411a 	movw	r1, #1050	; 0x41a
 80060b2:	f7fa f94b 	bl	800034c <__gnat_last_chance_handler>
 80060b6:	6afb      	ldr	r3, [r7, #44]	; 0x2c
 80060b8:	681b      	ldr	r3, [r3, #0]
 80060ba:	461a      	mov	r2, r3
 80060bc:	ea4f 73e2 	mov.w	r3, r2, asr #31
 80060c0:	1c50      	adds	r0, r2, #1
 80060c2:	f143 0100 	adc.w	r1, r3, #0
 80060c6:	6afb      	ldr	r3, [r7, #44]	; 0x2c
 80060c8:	685b      	ldr	r3, [r3, #4]
 80060ca:	461a      	mov	r2, r3
 80060cc:	ea4f 73e2 	mov.w	r3, r2, asr #31
 80060d0:	4299      	cmp	r1, r3
 80060d2:	bf08      	it	eq
 80060d4:	4290      	cmpeq	r0, r2
 80060d6:	d115      	bne.n	8006104 <stm32__i2c__mem_read+0x160>
 80060d8:	68fb      	ldr	r3, [r7, #12]
 80060da:	685b      	ldr	r3, [r3, #4]
 80060dc:	681b      	ldr	r3, [r3, #0]
 80060de:	f36f 238a 	bfc	r3, #10, #1
 80060e2:	68fa      	ldr	r2, [r7, #12]
 80060e4:	6852      	ldr	r2, [r2, #4]
 80060e6:	6013      	str	r3, [r2, #0]
 80060e8:	68fb      	ldr	r3, [r7, #12]
 80060ea:	685b      	ldr	r3, [r3, #4]
 80060ec:	681b      	ldr	r3, [r3, #0]
 80060ee:	461a      	mov	r2, r3
 80060f0:	4613      	mov	r3, r2
 80060f2:	f443 6200 	orr.w	r2, r3, #2048	; 0x800
 80060f6:	68fb      	ldr	r3, [r7, #12]
 80060f8:	685b      	ldr	r3, [r3, #4]
 80060fa:	601a      	str	r2, [r3, #0]
 80060fc:	68f8      	ldr	r0, [r7, #12]
 80060fe:	f7fe fe81 	bl	8004e04 <stm32__i2c__clear_address_sent_status>
 8006102:	e00c      	b.n	800611e <stm32__i2c__mem_read+0x17a>
 8006104:	68fb      	ldr	r3, [r7, #12]
 8006106:	685b      	ldr	r3, [r3, #4]
 8006108:	681b      	ldr	r3, [r3, #0]
 800610a:	461a      	mov	r2, r3
 800610c:	4613      	mov	r3, r2
 800610e:	f443 6280 	orr.w	r2, r3, #1024	; 0x400
 8006112:	68fb      	ldr	r3, [r7, #12]
 8006114:	685b      	ldr	r3, [r3, #4]
 8006116:	601a      	str	r2, [r3, #0]
 8006118:	68f8      	ldr	r0, [r7, #12]
 800611a:	f7fe fe73 	bl	8004e04 <stm32__i2c__clear_address_sent_status>
 800611e:	697a      	ldr	r2, [r7, #20]
 8006120:	6afb      	ldr	r3, [r7, #44]	; 0x2c
 8006122:	685b      	ldr	r3, [r3, #4]
 8006124:	429a      	cmp	r2, r3
 8006126:	f300 8203 	bgt.w	8006530 <stm32__i2c__mem_read+0x58c>
 800612a:	697a      	ldr	r2, [r7, #20]
 800612c:	6afb      	ldr	r3, [r7, #44]	; 0x2c
 800612e:	685b      	ldr	r3, [r3, #4]
 8006130:	429a      	cmp	r2, r3
 8006132:	d139      	bne.n	80061a8 <stm32__i2c__mem_read+0x204>
 8006134:	68f8      	ldr	r0, [r7, #12]
 8006136:	2105      	movs	r1, #5
 8006138:	2200      	movs	r2, #0
 800613a:	6b3b      	ldr	r3, [r7, #48]	; 0x30
 800613c:	f7fe fe7c 	bl	8004e38 <stm32__i2c__wait_flag>
 8006140:	4603      	mov	r3, r0
 8006142:	74fb      	strb	r3, [r7, #19]
 8006144:	7cfb      	ldrb	r3, [r7, #19]
 8006146:	2b00      	cmp	r3, #0
 8006148:	f040 81f8 	bne.w	800653c <stm32__i2c__mem_read+0x598>
 800614c:	697a      	ldr	r2, [r7, #20]
 800614e:	6afb      	ldr	r3, [r7, #44]	; 0x2c
 8006150:	681b      	ldr	r3, [r3, #0]
 8006152:	429a      	cmp	r2, r3
 8006154:	db04      	blt.n	8006160 <stm32__i2c__mem_read+0x1bc>
 8006156:	697a      	ldr	r2, [r7, #20]
 8006158:	6afb      	ldr	r3, [r7, #44]	; 0x2c
 800615a:	685b      	ldr	r3, [r3, #4]
 800615c:	429a      	cmp	r2, r3
 800615e:	dd04      	ble.n	800616a <stm32__i2c__mem_read+0x1c6>
 8006160:	483d      	ldr	r0, [pc, #244]	; (8006258 <stm32__i2c__mem_read+0x2b4>)
 8006162:	f240 412e 	movw	r1, #1070	; 0x42e
 8006166:	f7fa f8f1 	bl	800034c <__gnat_last_chance_handler>
 800616a:	697b      	ldr	r3, [r7, #20]
 800616c:	2b00      	cmp	r3, #0
 800616e:	da04      	bge.n	800617a <stm32__i2c__mem_read+0x1d6>
 8006170:	4839      	ldr	r0, [pc, #228]	; (8006258 <stm32__i2c__mem_read+0x2b4>)
 8006172:	f240 412e 	movw	r1, #1070	; 0x42e
 8006176:	f7fa f8e9 	bl	800034c <__gnat_last_chance_handler>
 800617a:	6aba      	ldr	r2, [r7, #40]	; 0x28
 800617c:	68fb      	ldr	r3, [r7, #12]
 800617e:	685b      	ldr	r3, [r3, #4]
 8006180:	3310      	adds	r3, #16
 8006182:	681b      	ldr	r3, [r3, #0]
 8006184:	b2d9      	uxtb	r1, r3
 8006186:	697b      	ldr	r3, [r7, #20]
 8006188:	1b1b      	subs	r3, r3, r4
 800618a:	54d1      	strb	r1, [r2, r3]
 800618c:	697b      	ldr	r3, [r7, #20]
 800618e:	f06f 4200 	mvn.w	r2, #2147483648	; 0x80000000
 8006192:	4293      	cmp	r3, r2
 8006194:	d104      	bne.n	80061a0 <stm32__i2c__mem_read+0x1fc>
 8006196:	4830      	ldr	r0, [pc, #192]	; (8006258 <stm32__i2c__mem_read+0x2b4>)
 8006198:	f240 412f 	movw	r1, #1071	; 0x42f
 800619c:	f7fa f8d6 	bl	800034c <__gnat_last_chance_handler>
 80061a0:	697b      	ldr	r3, [r7, #20]
 80061a2:	3301      	adds	r3, #1
 80061a4:	617b      	str	r3, [r7, #20]
 80061a6:	e7ba      	b.n	800611e <stm32__i2c__mem_read+0x17a>
 80061a8:	697b      	ldr	r3, [r7, #20]
 80061aa:	f06f 4200 	mvn.w	r2, #2147483648	; 0x80000000
 80061ae:	4293      	cmp	r3, r2
 80061b0:	d104      	bne.n	80061bc <stm32__i2c__mem_read+0x218>
 80061b2:	4829      	ldr	r0, [pc, #164]	; (8006258 <stm32__i2c__mem_read+0x2b4>)
 80061b4:	f240 4131 	movw	r1, #1073	; 0x431
 80061b8:	f7fa f8c8 	bl	800034c <__gnat_last_chance_handler>
 80061bc:	697b      	ldr	r3, [r7, #20]
 80061be:	1c5a      	adds	r2, r3, #1
 80061c0:	6afb      	ldr	r3, [r7, #44]	; 0x2c
 80061c2:	685b      	ldr	r3, [r3, #4]
 80061c4:	429a      	cmp	r2, r3
 80061c6:	d17a      	bne.n	80062be <stm32__i2c__mem_read+0x31a>
 80061c8:	68fb      	ldr	r3, [r7, #12]
 80061ca:	685b      	ldr	r3, [r3, #4]
 80061cc:	681b      	ldr	r3, [r3, #0]
 80061ce:	f36f 238a 	bfc	r3, #10, #1
 80061d2:	68fa      	ldr	r2, [r7, #12]
 80061d4:	6852      	ldr	r2, [r2, #4]
 80061d6:	6013      	str	r3, [r2, #0]
 80061d8:	68f8      	ldr	r0, [r7, #12]
 80061da:	2102      	movs	r1, #2
 80061dc:	2200      	movs	r2, #0
 80061de:	6b3b      	ldr	r3, [r7, #48]	; 0x30
 80061e0:	f7fe fe2a 	bl	8004e38 <stm32__i2c__wait_flag>
 80061e4:	4603      	mov	r3, r0
 80061e6:	74fb      	strb	r3, [r7, #19]
 80061e8:	7cfb      	ldrb	r3, [r7, #19]
 80061ea:	2b00      	cmp	r3, #0
 80061ec:	f040 81a8 	bne.w	8006540 <stm32__i2c__mem_read+0x59c>
 80061f0:	68fb      	ldr	r3, [r7, #12]
 80061f2:	685b      	ldr	r3, [r3, #4]
 80061f4:	681b      	ldr	r3, [r3, #0]
 80061f6:	461a      	mov	r2, r3
 80061f8:	4613      	mov	r3, r2
 80061fa:	f443 7200 	orr.w	r2, r3, #512	; 0x200
 80061fe:	68fb      	ldr	r3, [r7, #12]
 8006200:	685b      	ldr	r3, [r3, #4]
 8006202:	601a      	str	r2, [r3, #0]
 8006204:	697a      	ldr	r2, [r7, #20]
 8006206:	6afb      	ldr	r3, [r7, #44]	; 0x2c
 8006208:	681b      	ldr	r3, [r3, #0]
 800620a:	429a      	cmp	r2, r3
 800620c:	db04      	blt.n	8006218 <stm32__i2c__mem_read+0x274>
 800620e:	697a      	ldr	r2, [r7, #20]
 8006210:	6afb      	ldr	r3, [r7, #44]	; 0x2c
 8006212:	685b      	ldr	r3, [r3, #4]
 8006214:	429a      	cmp	r2, r3
 8006216:	dd04      	ble.n	8006222 <stm32__i2c__mem_read+0x27e>
 8006218:	480f      	ldr	r0, [pc, #60]	; (8006258 <stm32__i2c__mem_read+0x2b4>)
 800621a:	f240 413d 	movw	r1, #1085	; 0x43d
 800621e:	f7fa f895 	bl	800034c <__gnat_last_chance_handler>
 8006222:	697b      	ldr	r3, [r7, #20]
 8006224:	2b00      	cmp	r3, #0
 8006226:	da04      	bge.n	8006232 <stm32__i2c__mem_read+0x28e>
 8006228:	480b      	ldr	r0, [pc, #44]	; (8006258 <stm32__i2c__mem_read+0x2b4>)
 800622a:	f240 413d 	movw	r1, #1085	; 0x43d
 800622e:	f7fa f88d 	bl	800034c <__gnat_last_chance_handler>
 8006232:	6aba      	ldr	r2, [r7, #40]	; 0x28
 8006234:	68fb      	ldr	r3, [r7, #12]
 8006236:	685b      	ldr	r3, [r3, #4]
 8006238:	3310      	adds	r3, #16
 800623a:	681b      	ldr	r3, [r3, #0]
 800623c:	b2d9      	uxtb	r1, r3
 800623e:	697b      	ldr	r3, [r7, #20]
 8006240:	1b1b      	subs	r3, r3, r4
 8006242:	54d1      	strb	r1, [r2, r3]
 8006244:	697b      	ldr	r3, [r7, #20]
 8006246:	f06f 4200 	mvn.w	r2, #2147483648	; 0x80000000
 800624a:	4293      	cmp	r3, r2
 800624c:	d106      	bne.n	800625c <stm32__i2c__mem_read+0x2b8>
 800624e:	4802      	ldr	r0, [pc, #8]	; (8006258 <stm32__i2c__mem_read+0x2b4>)
 8006250:	f240 413e 	movw	r1, #1086	; 0x43e
 8006254:	f7fa f87a 	bl	800034c <__gnat_last_chance_handler>
 8006258:	0800b800 	.word	0x0800b800
 800625c:	697b      	ldr	r3, [r7, #20]
 800625e:	3301      	adds	r3, #1
 8006260:	617b      	str	r3, [r7, #20]
 8006262:	697a      	ldr	r2, [r7, #20]
 8006264:	6afb      	ldr	r3, [r7, #44]	; 0x2c
 8006266:	681b      	ldr	r3, [r3, #0]
 8006268:	429a      	cmp	r2, r3
 800626a:	db04      	blt.n	8006276 <stm32__i2c__mem_read+0x2d2>
 800626c:	697a      	ldr	r2, [r7, #20]
 800626e:	6afb      	ldr	r3, [r7, #44]	; 0x2c
 8006270:	685b      	ldr	r3, [r3, #4]
 8006272:	429a      	cmp	r2, r3
 8006274:	dd04      	ble.n	8006280 <stm32__i2c__mem_read+0x2dc>
 8006276:	48aa      	ldr	r0, [pc, #680]	; (8006520 <stm32__i2c__mem_read+0x57c>)
 8006278:	f240 413f 	movw	r1, #1087	; 0x43f
 800627c:	f7fa f866 	bl	800034c <__gnat_last_chance_handler>
 8006280:	697b      	ldr	r3, [r7, #20]
 8006282:	2b00      	cmp	r3, #0
 8006284:	da04      	bge.n	8006290 <stm32__i2c__mem_read+0x2ec>
 8006286:	48a6      	ldr	r0, [pc, #664]	; (8006520 <stm32__i2c__mem_read+0x57c>)
 8006288:	f240 413f 	movw	r1, #1087	; 0x43f
 800628c:	f7fa f85e 	bl	800034c <__gnat_last_chance_handler>
 8006290:	6aba      	ldr	r2, [r7, #40]	; 0x28
 8006292:	68fb      	ldr	r3, [r7, #12]
 8006294:	685b      	ldr	r3, [r3, #4]
 8006296:	3310      	adds	r3, #16
 8006298:	681b      	ldr	r3, [r3, #0]
 800629a:	b2d9      	uxtb	r1, r3
 800629c:	697b      	ldr	r3, [r7, #20]
 800629e:	1b1b      	subs	r3, r3, r4
 80062a0:	54d1      	strb	r1, [r2, r3]
 80062a2:	697b      	ldr	r3, [r7, #20]
 80062a4:	f06f 4200 	mvn.w	r2, #2147483648	; 0x80000000
 80062a8:	4293      	cmp	r3, r2
 80062aa:	d104      	bne.n	80062b6 <stm32__i2c__mem_read+0x312>
 80062ac:	489c      	ldr	r0, [pc, #624]	; (8006520 <stm32__i2c__mem_read+0x57c>)
 80062ae:	f44f 6188 	mov.w	r1, #1088	; 0x440
 80062b2:	f7fa f84b 	bl	800034c <__gnat_last_chance_handler>
 80062b6:	697b      	ldr	r3, [r7, #20]
 80062b8:	3301      	adds	r3, #1
 80062ba:	617b      	str	r3, [r7, #20]
 80062bc:	e72f      	b.n	800611e <stm32__i2c__mem_read+0x17a>
 80062be:	697b      	ldr	r3, [r7, #20]
 80062c0:	4a98      	ldr	r2, [pc, #608]	; (8006524 <stm32__i2c__mem_read+0x580>)
 80062c2:	4293      	cmp	r3, r2
 80062c4:	dd04      	ble.n	80062d0 <stm32__i2c__mem_read+0x32c>
 80062c6:	4896      	ldr	r0, [pc, #600]	; (8006520 <stm32__i2c__mem_read+0x57c>)
 80062c8:	f240 4142 	movw	r1, #1090	; 0x442
 80062cc:	f7fa f83e 	bl	800034c <__gnat_last_chance_handler>
 80062d0:	697b      	ldr	r3, [r7, #20]
 80062d2:	1c9a      	adds	r2, r3, #2
 80062d4:	6afb      	ldr	r3, [r7, #44]	; 0x2c
 80062d6:	685b      	ldr	r3, [r3, #4]
 80062d8:	429a      	cmp	r2, r3
 80062da:	f040 80b2 	bne.w	8006442 <stm32__i2c__mem_read+0x49e>
 80062de:	68f8      	ldr	r0, [r7, #12]
 80062e0:	2102      	movs	r1, #2
 80062e2:	2200      	movs	r2, #0
 80062e4:	6b3b      	ldr	r3, [r7, #48]	; 0x30
 80062e6:	f7fe fda7 	bl	8004e38 <stm32__i2c__wait_flag>
 80062ea:	4603      	mov	r3, r0
 80062ec:	74fb      	strb	r3, [r7, #19]
 80062ee:	7cfb      	ldrb	r3, [r7, #19]
 80062f0:	2b00      	cmp	r3, #0
 80062f2:	f040 8127 	bne.w	8006544 <stm32__i2c__mem_read+0x5a0>
 80062f6:	68fb      	ldr	r3, [r7, #12]
 80062f8:	685b      	ldr	r3, [r3, #4]
 80062fa:	681b      	ldr	r3, [r3, #0]
 80062fc:	f36f 238a 	bfc	r3, #10, #1
 8006300:	68fa      	ldr	r2, [r7, #12]
 8006302:	6852      	ldr	r2, [r2, #4]
 8006304:	6013      	str	r3, [r2, #0]
 8006306:	697a      	ldr	r2, [r7, #20]
 8006308:	6afb      	ldr	r3, [r7, #44]	; 0x2c
 800630a:	681b      	ldr	r3, [r3, #0]
 800630c:	429a      	cmp	r2, r3
 800630e:	db04      	blt.n	800631a <stm32__i2c__mem_read+0x376>
 8006310:	697a      	ldr	r2, [r7, #20]
 8006312:	6afb      	ldr	r3, [r7, #44]	; 0x2c
 8006314:	685b      	ldr	r3, [r3, #4]
 8006316:	429a      	cmp	r2, r3
 8006318:	dd04      	ble.n	8006324 <stm32__i2c__mem_read+0x380>
 800631a:	4881      	ldr	r0, [pc, #516]	; (8006520 <stm32__i2c__mem_read+0x57c>)
 800631c:	f240 414c 	movw	r1, #1100	; 0x44c
 8006320:	f7fa f814 	bl	800034c <__gnat_last_chance_handler>
 8006324:	697b      	ldr	r3, [r7, #20]
 8006326:	2b00      	cmp	r3, #0
 8006328:	da04      	bge.n	8006334 <stm32__i2c__mem_read+0x390>
 800632a:	487d      	ldr	r0, [pc, #500]	; (8006520 <stm32__i2c__mem_read+0x57c>)
 800632c:	f240 414c 	movw	r1, #1100	; 0x44c
 8006330:	f7fa f80c 	bl	800034c <__gnat_last_chance_handler>
 8006334:	6aba      	ldr	r2, [r7, #40]	; 0x28
 8006336:	68fb      	ldr	r3, [r7, #12]
 8006338:	685b      	ldr	r3, [r3, #4]
 800633a:	3310      	adds	r3, #16
 800633c:	681b      	ldr	r3, [r3, #0]
 800633e:	b2d9      	uxtb	r1, r3
 8006340:	697b      	ldr	r3, [r7, #20]
 8006342:	1b1b      	subs	r3, r3, r4
 8006344:	54d1      	strb	r1, [r2, r3]
 8006346:	697b      	ldr	r3, [r7, #20]
 8006348:	f06f 4200 	mvn.w	r2, #2147483648	; 0x80000000
 800634c:	4293      	cmp	r3, r2
 800634e:	d104      	bne.n	800635a <stm32__i2c__mem_read+0x3b6>
 8006350:	4873      	ldr	r0, [pc, #460]	; (8006520 <stm32__i2c__mem_read+0x57c>)
 8006352:	f240 414d 	movw	r1, #1101	; 0x44d
 8006356:	f7f9 fff9 	bl	800034c <__gnat_last_chance_handler>
 800635a:	697b      	ldr	r3, [r7, #20]
 800635c:	3301      	adds	r3, #1
 800635e:	617b      	str	r3, [r7, #20]
 8006360:	68f8      	ldr	r0, [r7, #12]
 8006362:	2102      	movs	r1, #2
 8006364:	2200      	movs	r2, #0
 8006366:	6b3b      	ldr	r3, [r7, #48]	; 0x30
 8006368:	f7fe fd66 	bl	8004e38 <stm32__i2c__wait_flag>
 800636c:	4603      	mov	r3, r0
 800636e:	74fb      	strb	r3, [r7, #19]
 8006370:	7cfb      	ldrb	r3, [r7, #19]
 8006372:	2b00      	cmp	r3, #0
 8006374:	f040 80e8 	bne.w	8006548 <stm32__i2c__mem_read+0x5a4>
 8006378:	68fb      	ldr	r3, [r7, #12]
 800637a:	685b      	ldr	r3, [r3, #4]
 800637c:	681b      	ldr	r3, [r3, #0]
 800637e:	461a      	mov	r2, r3
 8006380:	4613      	mov	r3, r2
 8006382:	f443 7200 	orr.w	r2, r3, #512	; 0x200
 8006386:	68fb      	ldr	r3, [r7, #12]
 8006388:	685b      	ldr	r3, [r3, #4]
 800638a:	601a      	str	r2, [r3, #0]
 800638c:	697a      	ldr	r2, [r7, #20]
 800638e:	6afb      	ldr	r3, [r7, #44]	; 0x2c
 8006390:	681b      	ldr	r3, [r3, #0]
 8006392:	429a      	cmp	r2, r3
 8006394:	db04      	blt.n	80063a0 <stm32__i2c__mem_read+0x3fc>
 8006396:	697a      	ldr	r2, [r7, #20]
 8006398:	6afb      	ldr	r3, [r7, #44]	; 0x2c
 800639a:	685b      	ldr	r3, [r3, #4]
 800639c:	429a      	cmp	r2, r3
 800639e:	dd04      	ble.n	80063aa <stm32__i2c__mem_read+0x406>
 80063a0:	485f      	ldr	r0, [pc, #380]	; (8006520 <stm32__i2c__mem_read+0x57c>)
 80063a2:	f240 4157 	movw	r1, #1111	; 0x457
 80063a6:	f7f9 ffd1 	bl	800034c <__gnat_last_chance_handler>
 80063aa:	697b      	ldr	r3, [r7, #20]
 80063ac:	2b00      	cmp	r3, #0
 80063ae:	da04      	bge.n	80063ba <stm32__i2c__mem_read+0x416>
 80063b0:	485b      	ldr	r0, [pc, #364]	; (8006520 <stm32__i2c__mem_read+0x57c>)
 80063b2:	f240 4157 	movw	r1, #1111	; 0x457
 80063b6:	f7f9 ffc9 	bl	800034c <__gnat_last_chance_handler>
 80063ba:	6aba      	ldr	r2, [r7, #40]	; 0x28
 80063bc:	68fb      	ldr	r3, [r7, #12]
 80063be:	685b      	ldr	r3, [r3, #4]
 80063c0:	3310      	adds	r3, #16
 80063c2:	681b      	ldr	r3, [r3, #0]
 80063c4:	b2d9      	uxtb	r1, r3
 80063c6:	697b      	ldr	r3, [r7, #20]
 80063c8:	1b1b      	subs	r3, r3, r4
 80063ca:	54d1      	strb	r1, [r2, r3]
 80063cc:	697b      	ldr	r3, [r7, #20]
 80063ce:	f06f 4200 	mvn.w	r2, #2147483648	; 0x80000000
 80063d2:	4293      	cmp	r3, r2
 80063d4:	d104      	bne.n	80063e0 <stm32__i2c__mem_read+0x43c>
 80063d6:	4852      	ldr	r0, [pc, #328]	; (8006520 <stm32__i2c__mem_read+0x57c>)
 80063d8:	f44f 618b 	mov.w	r1, #1112	; 0x458
 80063dc:	f7f9 ffb6 	bl	800034c <__gnat_last_chance_handler>
 80063e0:	697b      	ldr	r3, [r7, #20]
 80063e2:	3301      	adds	r3, #1
 80063e4:	617b      	str	r3, [r7, #20]
 80063e6:	697a      	ldr	r2, [r7, #20]
 80063e8:	6afb      	ldr	r3, [r7, #44]	; 0x2c
 80063ea:	681b      	ldr	r3, [r3, #0]
 80063ec:	429a      	cmp	r2, r3
 80063ee:	db04      	blt.n	80063fa <stm32__i2c__mem_read+0x456>
 80063f0:	697a      	ldr	r2, [r7, #20]
 80063f2:	6afb      	ldr	r3, [r7, #44]	; 0x2c
 80063f4:	685b      	ldr	r3, [r3, #4]
 80063f6:	429a      	cmp	r2, r3
 80063f8:	dd04      	ble.n	8006404 <stm32__i2c__mem_read+0x460>
 80063fa:	4849      	ldr	r0, [pc, #292]	; (8006520 <stm32__i2c__mem_read+0x57c>)
 80063fc:	f240 4159 	movw	r1, #1113	; 0x459
 8006400:	f7f9 ffa4 	bl	800034c <__gnat_last_chance_handler>
 8006404:	697b      	ldr	r3, [r7, #20]
 8006406:	2b00      	cmp	r3, #0
 8006408:	da04      	bge.n	8006414 <stm32__i2c__mem_read+0x470>
 800640a:	4845      	ldr	r0, [pc, #276]	; (8006520 <stm32__i2c__mem_read+0x57c>)
 800640c:	f240 4159 	movw	r1, #1113	; 0x459
 8006410:	f7f9 ff9c 	bl	800034c <__gnat_last_chance_handler>
 8006414:	6aba      	ldr	r2, [r7, #40]	; 0x28
 8006416:	68fb      	ldr	r3, [r7, #12]
 8006418:	685b      	ldr	r3, [r3, #4]
 800641a:	3310      	adds	r3, #16
 800641c:	681b      	ldr	r3, [r3, #0]
 800641e:	b2d9      	uxtb	r1, r3
 8006420:	697b      	ldr	r3, [r7, #20]
 8006422:	1b1b      	subs	r3, r3, r4
 8006424:	54d1      	strb	r1, [r2, r3]
 8006426:	697b      	ldr	r3, [r7, #20]
 8006428:	f06f 4200 	mvn.w	r2, #2147483648	; 0x80000000
 800642c:	4293      	cmp	r3, r2
 800642e:	d104      	bne.n	800643a <stm32__i2c__mem_read+0x496>
 8006430:	483b      	ldr	r0, [pc, #236]	; (8006520 <stm32__i2c__mem_read+0x57c>)
 8006432:	f240 415a 	movw	r1, #1114	; 0x45a
 8006436:	f7f9 ff89 	bl	800034c <__gnat_last_chance_handler>
 800643a:	697b      	ldr	r3, [r7, #20]
 800643c:	3301      	adds	r3, #1
 800643e:	617b      	str	r3, [r7, #20]
 8006440:	e66d      	b.n	800611e <stm32__i2c__mem_read+0x17a>
 8006442:	68f8      	ldr	r0, [r7, #12]
 8006444:	2105      	movs	r1, #5
 8006446:	2200      	movs	r2, #0
 8006448:	6b3b      	ldr	r3, [r7, #48]	; 0x30
 800644a:	f7fe fcf5 	bl	8004e38 <stm32__i2c__wait_flag>
 800644e:	4603      	mov	r3, r0
 8006450:	74fb      	strb	r3, [r7, #19]
 8006452:	7cfb      	ldrb	r3, [r7, #19]
 8006454:	2b00      	cmp	r3, #0
 8006456:	d179      	bne.n	800654c <stm32__i2c__mem_read+0x5a8>
 8006458:	697a      	ldr	r2, [r7, #20]
 800645a:	6afb      	ldr	r3, [r7, #44]	; 0x2c
 800645c:	681b      	ldr	r3, [r3, #0]
 800645e:	429a      	cmp	r2, r3
 8006460:	db04      	blt.n	800646c <stm32__i2c__mem_read+0x4c8>
 8006462:	697a      	ldr	r2, [r7, #20]
 8006464:	6afb      	ldr	r3, [r7, #44]	; 0x2c
 8006466:	685b      	ldr	r3, [r3, #4]
 8006468:	429a      	cmp	r2, r3
 800646a:	dd04      	ble.n	8006476 <stm32__i2c__mem_read+0x4d2>
 800646c:	482c      	ldr	r0, [pc, #176]	; (8006520 <stm32__i2c__mem_read+0x57c>)
 800646e:	f240 4164 	movw	r1, #1124	; 0x464
 8006472:	f7f9 ff6b 	bl	800034c <__gnat_last_chance_handler>
 8006476:	697b      	ldr	r3, [r7, #20]
 8006478:	2b00      	cmp	r3, #0
 800647a:	da04      	bge.n	8006486 <stm32__i2c__mem_read+0x4e2>
 800647c:	4828      	ldr	r0, [pc, #160]	; (8006520 <stm32__i2c__mem_read+0x57c>)
 800647e:	f240 4164 	movw	r1, #1124	; 0x464
 8006482:	f7f9 ff63 	bl	800034c <__gnat_last_chance_handler>
 8006486:	6aba      	ldr	r2, [r7, #40]	; 0x28
 8006488:	68fb      	ldr	r3, [r7, #12]
 800648a:	685b      	ldr	r3, [r3, #4]
 800648c:	3310      	adds	r3, #16
 800648e:	681b      	ldr	r3, [r3, #0]
 8006490:	b2d9      	uxtb	r1, r3
 8006492:	697b      	ldr	r3, [r7, #20]
 8006494:	1b1b      	subs	r3, r3, r4
 8006496:	54d1      	strb	r1, [r2, r3]
 8006498:	697b      	ldr	r3, [r7, #20]
 800649a:	f06f 4200 	mvn.w	r2, #2147483648	; 0x80000000
 800649e:	4293      	cmp	r3, r2
 80064a0:	d104      	bne.n	80064ac <stm32__i2c__mem_read+0x508>
 80064a2:	481f      	ldr	r0, [pc, #124]	; (8006520 <stm32__i2c__mem_read+0x57c>)
 80064a4:	f240 4165 	movw	r1, #1125	; 0x465
 80064a8:	f7f9 ff50 	bl	800034c <__gnat_last_chance_handler>
 80064ac:	697b      	ldr	r3, [r7, #20]
 80064ae:	3301      	adds	r3, #1
 80064b0:	617b      	str	r3, [r7, #20]
 80064b2:	68f8      	ldr	r0, [r7, #12]
 80064b4:	2102      	movs	r1, #2
 80064b6:	2200      	movs	r2, #0
 80064b8:	6b3b      	ldr	r3, [r7, #48]	; 0x30
 80064ba:	f7fe fcbd 	bl	8004e38 <stm32__i2c__wait_flag>
 80064be:	4603      	mov	r3, r0
 80064c0:	74fb      	strb	r3, [r7, #19]
 80064c2:	7cfb      	ldrb	r3, [r7, #19]
 80064c4:	2b00      	cmp	r3, #0
 80064c6:	f47f ae2a 	bne.w	800611e <stm32__i2c__mem_read+0x17a>
 80064ca:	697a      	ldr	r2, [r7, #20]
 80064cc:	6afb      	ldr	r3, [r7, #44]	; 0x2c
 80064ce:	681b      	ldr	r3, [r3, #0]
 80064d0:	429a      	cmp	r2, r3
 80064d2:	db04      	blt.n	80064de <stm32__i2c__mem_read+0x53a>
 80064d4:	697a      	ldr	r2, [r7, #20]
 80064d6:	6afb      	ldr	r3, [r7, #44]	; 0x2c
 80064d8:	685b      	ldr	r3, [r3, #4]
 80064da:	429a      	cmp	r2, r3
 80064dc:	dd04      	ble.n	80064e8 <stm32__i2c__mem_read+0x544>
 80064de:	4810      	ldr	r0, [pc, #64]	; (8006520 <stm32__i2c__mem_read+0x57c>)
 80064e0:	f240 416a 	movw	r1, #1130	; 0x46a
 80064e4:	f7f9 ff32 	bl	800034c <__gnat_last_chance_handler>
 80064e8:	697b      	ldr	r3, [r7, #20]
 80064ea:	2b00      	cmp	r3, #0
 80064ec:	da04      	bge.n	80064f8 <stm32__i2c__mem_read+0x554>
 80064ee:	480c      	ldr	r0, [pc, #48]	; (8006520 <stm32__i2c__mem_read+0x57c>)
 80064f0:	f240 416a 	movw	r1, #1130	; 0x46a
 80064f4:	f7f9 ff2a 	bl	800034c <__gnat_last_chance_handler>
 80064f8:	6aba      	ldr	r2, [r7, #40]	; 0x28
 80064fa:	68fb      	ldr	r3, [r7, #12]
 80064fc:	685b      	ldr	r3, [r3, #4]
 80064fe:	3310      	adds	r3, #16
 8006500:	681b      	ldr	r3, [r3, #0]
 8006502:	b2d9      	uxtb	r1, r3
 8006504:	697b      	ldr	r3, [r7, #20]
 8006506:	1b1b      	subs	r3, r3, r4
 8006508:	54d1      	strb	r1, [r2, r3]
 800650a:	697b      	ldr	r3, [r7, #20]
 800650c:	f06f 4200 	mvn.w	r2, #2147483648	; 0x80000000
 8006510:	4293      	cmp	r3, r2
 8006512:	d109      	bne.n	8006528 <stm32__i2c__mem_read+0x584>
 8006514:	4802      	ldr	r0, [pc, #8]	; (8006520 <stm32__i2c__mem_read+0x57c>)
 8006516:	f240 416b 	movw	r1, #1131	; 0x46b
 800651a:	f7f9 ff17 	bl	800034c <__gnat_last_chance_handler>
 800651e:	bf00      	nop
 8006520:	0800b800 	.word	0x0800b800
 8006524:	7ffffffd 	.word	0x7ffffffd
 8006528:	697b      	ldr	r3, [r7, #20]
 800652a:	3301      	adds	r3, #1
 800652c:	617b      	str	r3, [r7, #20]
 800652e:	e5f6      	b.n	800611e <stm32__i2c__mem_read+0x17a>
 8006530:	68fb      	ldr	r3, [r7, #12]
 8006532:	2201      	movs	r2, #1
 8006534:	751a      	strb	r2, [r3, #20]
 8006536:	e00a      	b.n	800654e <stm32__i2c__mem_read+0x5aa>
 8006538:	bf00      	nop
 800653a:	e008      	b.n	800654e <stm32__i2c__mem_read+0x5aa>
 800653c:	bf00      	nop
 800653e:	e006      	b.n	800654e <stm32__i2c__mem_read+0x5aa>
 8006540:	bf00      	nop
 8006542:	e004      	b.n	800654e <stm32__i2c__mem_read+0x5aa>
 8006544:	bf00      	nop
 8006546:	e002      	b.n	800654e <stm32__i2c__mem_read+0x5aa>
 8006548:	bf00      	nop
 800654a:	e000      	b.n	800654e <stm32__i2c__mem_read+0x5aa>
 800654c:	bf00      	nop
 800654e:	7cfb      	ldrb	r3, [r7, #19]
 8006550:	bf00      	nop
 8006552:	4618      	mov	r0, r3
 8006554:	3718      	adds	r7, #24
 8006556:	46bd      	mov	sp, r7
 8006558:	bdb0      	pop	{r4, r5, r7, pc}
 800655a:	bf00      	nop

0800655c <stm32__i2c__set_state>:
 800655c:	b480      	push	{r7}
 800655e:	b083      	sub	sp, #12
 8006560:	af00      	add	r7, sp, #0
 8006562:	6078      	str	r0, [r7, #4]
 8006564:	460b      	mov	r3, r1
 8006566:	70fb      	strb	r3, [r7, #3]
 8006568:	687b      	ldr	r3, [r7, #4]
 800656a:	685b      	ldr	r3, [r3, #4]
 800656c:	681b      	ldr	r3, [r3, #0]
 800656e:	78fa      	ldrb	r2, [r7, #3]
 8006570:	f002 0201 	and.w	r2, r2, #1
 8006574:	b2d2      	uxtb	r2, r2
 8006576:	f362 0300 	bfi	r3, r2, #0, #1
 800657a:	687a      	ldr	r2, [r7, #4]
 800657c:	6852      	ldr	r2, [r2, #4]
 800657e:	6013      	str	r3, [r2, #0]
 8006580:	370c      	adds	r7, #12
 8006582:	46bd      	mov	sp, r7
 8006584:	f85d 7b04 	ldr.w	r7, [sp], #4
 8006588:	4770      	bx	lr
 800658a:	bf00      	nop

0800658c <stm32__i2c__port_enabled>:
 800658c:	b480      	push	{r7}
 800658e:	b083      	sub	sp, #12
 8006590:	af00      	add	r7, sp, #0
 8006592:	6078      	str	r0, [r7, #4]
 8006594:	687b      	ldr	r3, [r7, #4]
 8006596:	685b      	ldr	r3, [r3, #4]
 8006598:	681b      	ldr	r3, [r3, #0]
 800659a:	f3c3 0300 	ubfx	r3, r3, #0, #1
 800659e:	b2db      	uxtb	r3, r3
 80065a0:	bf00      	nop
 80065a2:	4618      	mov	r0, r3
 80065a4:	370c      	adds	r7, #12
 80065a6:	46bd      	mov	sp, r7
 80065a8:	f85d 7b04 	ldr.w	r7, [sp], #4
 80065ac:	4770      	bx	lr
 80065ae:	bf00      	nop

080065b0 <stm32__i2c__enable_interrupt___postconditions.4916>:
 80065b0:	b5b0      	push	{r4, r5, r7, lr}
 80065b2:	b082      	sub	sp, #8
 80065b4:	af00      	add	r7, sp, #0
 80065b6:	4663      	mov	r3, ip
 80065b8:	f8c7 c004 	str.w	ip, [r7, #4]
 80065bc:	681a      	ldr	r2, [r3, #0]
 80065be:	791b      	ldrb	r3, [r3, #4]
 80065c0:	4610      	mov	r0, r2
 80065c2:	4619      	mov	r1, r3
 80065c4:	f000 f8c2 	bl	800674c <stm32__i2c__enabled>
 80065c8:	4603      	mov	r3, r0
 80065ca:	f083 0301 	eor.w	r3, r3, #1
 80065ce:	b2db      	uxtb	r3, r3
 80065d0:	2b00      	cmp	r3, #0
 80065d2:	d005      	beq.n	80065e0 <stm32__i2c__enable_interrupt___postconditions.4916+0x30>
 80065d4:	4c04      	ldr	r4, [pc, #16]	; (80065e8 <stm32__i2c__enable_interrupt___postconditions.4916+0x38>)
 80065d6:	4d05      	ldr	r5, [pc, #20]	; (80065ec <stm32__i2c__enable_interrupt___postconditions.4916+0x3c>)
 80065d8:	4620      	mov	r0, r4
 80065da:	4629      	mov	r1, r5
 80065dc:	f003 ffec 	bl	800a5b8 <system__assertions__raise_assert_failure>
 80065e0:	3708      	adds	r7, #8
 80065e2:	46bd      	mov	sp, r7
 80065e4:	bdb0      	pop	{r4, r5, r7, pc}
 80065e6:	bf00      	nop
 80065e8:	0800b854 	.word	0x0800b854
 80065ec:	0800b880 	.word	0x0800b880

080065f0 <stm32__i2c__enable_interrupt>:
 80065f0:	b580      	push	{r7, lr}
 80065f2:	b086      	sub	sp, #24
 80065f4:	af00      	add	r7, sp, #0
 80065f6:	6078      	str	r0, [r7, #4]
 80065f8:	460b      	mov	r3, r1
 80065fa:	70fb      	strb	r3, [r7, #3]
 80065fc:	f107 0320 	add.w	r3, r7, #32
 8006600:	617b      	str	r3, [r7, #20]
 8006602:	687b      	ldr	r3, [r7, #4]
 8006604:	60fb      	str	r3, [r7, #12]
 8006606:	78fb      	ldrb	r3, [r7, #3]
 8006608:	743b      	strb	r3, [r7, #16]
 800660a:	7c3b      	ldrb	r3, [r7, #16]
 800660c:	2b02      	cmp	r3, #2
 800660e:	d904      	bls.n	800661a <stm32__i2c__enable_interrupt+0x2a>
 8006610:	481c      	ldr	r0, [pc, #112]	; (8006684 <stm32__i2c__enable_interrupt+0x94>)
 8006612:	f240 4191 	movw	r1, #1169	; 0x491
 8006616:	f7f9 fe99 	bl	800034c <__gnat_last_chance_handler>
 800661a:	7c3b      	ldrb	r3, [r7, #16]
 800661c:	2b00      	cmp	r3, #0
 800661e:	d002      	beq.n	8006626 <stm32__i2c__enable_interrupt+0x36>
 8006620:	2b01      	cmp	r3, #1
 8006622:	d00d      	beq.n	8006640 <stm32__i2c__enable_interrupt+0x50>
 8006624:	e019      	b.n	800665a <stm32__i2c__enable_interrupt+0x6a>
 8006626:	68fb      	ldr	r3, [r7, #12]
 8006628:	685b      	ldr	r3, [r3, #4]
 800662a:	3304      	adds	r3, #4
 800662c:	681b      	ldr	r3, [r3, #0]
 800662e:	461a      	mov	r2, r3
 8006630:	4613      	mov	r3, r2
 8006632:	f443 7280 	orr.w	r2, r3, #256	; 0x100
 8006636:	68fb      	ldr	r3, [r7, #12]
 8006638:	685b      	ldr	r3, [r3, #4]
 800663a:	3304      	adds	r3, #4
 800663c:	601a      	str	r2, [r3, #0]
 800663e:	e018      	b.n	8006672 <stm32__i2c__enable_interrupt+0x82>
 8006640:	68fb      	ldr	r3, [r7, #12]
 8006642:	685b      	ldr	r3, [r3, #4]
 8006644:	3304      	adds	r3, #4
 8006646:	681b      	ldr	r3, [r3, #0]
 8006648:	461a      	mov	r2, r3
 800664a:	4613      	mov	r3, r2
 800664c:	f443 7200 	orr.w	r2, r3, #512	; 0x200
 8006650:	68fb      	ldr	r3, [r7, #12]
 8006652:	685b      	ldr	r3, [r3, #4]
 8006654:	3304      	adds	r3, #4
 8006656:	601a      	str	r2, [r3, #0]
 8006658:	e00b      	b.n	8006672 <stm32__i2c__enable_interrupt+0x82>
 800665a:	68fb      	ldr	r3, [r7, #12]
 800665c:	685b      	ldr	r3, [r3, #4]
 800665e:	3304      	adds	r3, #4
 8006660:	681b      	ldr	r3, [r3, #0]
 8006662:	461a      	mov	r2, r3
 8006664:	4613      	mov	r3, r2
 8006666:	f443 6280 	orr.w	r2, r3, #1024	; 0x400
 800666a:	68fb      	ldr	r3, [r7, #12]
 800666c:	685b      	ldr	r3, [r3, #4]
 800666e:	3304      	adds	r3, #4
 8006670:	601a      	str	r2, [r3, #0]
 8006672:	bf00      	nop
 8006674:	f107 030c 	add.w	r3, r7, #12
 8006678:	469c      	mov	ip, r3
 800667a:	f7ff ff99 	bl	80065b0 <stm32__i2c__enable_interrupt___postconditions.4916>
 800667e:	3718      	adds	r7, #24
 8006680:	46bd      	mov	sp, r7
 8006682:	bd80      	pop	{r7, pc}
 8006684:	0800b800 	.word	0x0800b800

08006688 <stm32__i2c__disable_interrupt___postconditions.4924>:
 8006688:	b5b0      	push	{r4, r5, r7, lr}
 800668a:	b082      	sub	sp, #8
 800668c:	af00      	add	r7, sp, #0
 800668e:	4663      	mov	r3, ip
 8006690:	f8c7 c004 	str.w	ip, [r7, #4]
 8006694:	681a      	ldr	r2, [r3, #0]
 8006696:	791b      	ldrb	r3, [r3, #4]
 8006698:	4610      	mov	r0, r2
 800669a:	4619      	mov	r1, r3
 800669c:	f000 f856 	bl	800674c <stm32__i2c__enabled>
 80066a0:	4603      	mov	r3, r0
 80066a2:	2b00      	cmp	r3, #0
 80066a4:	d005      	beq.n	80066b2 <stm32__i2c__disable_interrupt___postconditions.4924+0x2a>
 80066a6:	4c04      	ldr	r4, [pc, #16]	; (80066b8 <stm32__i2c__disable_interrupt___postconditions.4924+0x30>)
 80066a8:	4d04      	ldr	r5, [pc, #16]	; (80066bc <stm32__i2c__disable_interrupt___postconditions.4924+0x34>)
 80066aa:	4620      	mov	r0, r4
 80066ac:	4629      	mov	r1, r5
 80066ae:	f003 ff83 	bl	800a5b8 <system__assertions__raise_assert_failure>
 80066b2:	3708      	adds	r7, #8
 80066b4:	46bd      	mov	sp, r7
 80066b6:	bdb0      	pop	{r4, r5, r7, pc}
 80066b8:	0800b888 	.word	0x0800b888
 80066bc:	0800b880 	.word	0x0800b880

080066c0 <stm32__i2c__disable_interrupt>:
 80066c0:	b580      	push	{r7, lr}
 80066c2:	b086      	sub	sp, #24
 80066c4:	af00      	add	r7, sp, #0
 80066c6:	6078      	str	r0, [r7, #4]
 80066c8:	460b      	mov	r3, r1
 80066ca:	70fb      	strb	r3, [r7, #3]
 80066cc:	f107 0320 	add.w	r3, r7, #32
 80066d0:	617b      	str	r3, [r7, #20]
 80066d2:	687b      	ldr	r3, [r7, #4]
 80066d4:	60fb      	str	r3, [r7, #12]
 80066d6:	78fb      	ldrb	r3, [r7, #3]
 80066d8:	743b      	strb	r3, [r7, #16]
 80066da:	7c3b      	ldrb	r3, [r7, #16]
 80066dc:	2b02      	cmp	r3, #2
 80066de:	d904      	bls.n	80066ea <stm32__i2c__disable_interrupt+0x2a>
 80066e0:	4819      	ldr	r0, [pc, #100]	; (8006748 <stm32__i2c__disable_interrupt+0x88>)
 80066e2:	f240 41a4 	movw	r1, #1188	; 0x4a4
 80066e6:	f7f9 fe31 	bl	800034c <__gnat_last_chance_handler>
 80066ea:	7c3b      	ldrb	r3, [r7, #16]
 80066ec:	2b00      	cmp	r3, #0
 80066ee:	d002      	beq.n	80066f6 <stm32__i2c__disable_interrupt+0x36>
 80066f0:	2b01      	cmp	r3, #1
 80066f2:	d00b      	beq.n	800670c <stm32__i2c__disable_interrupt+0x4c>
 80066f4:	e015      	b.n	8006722 <stm32__i2c__disable_interrupt+0x62>
 80066f6:	68fb      	ldr	r3, [r7, #12]
 80066f8:	685b      	ldr	r3, [r3, #4]
 80066fa:	3304      	adds	r3, #4
 80066fc:	681b      	ldr	r3, [r3, #0]
 80066fe:	f36f 2308 	bfc	r3, #8, #1
 8006702:	68fa      	ldr	r2, [r7, #12]
 8006704:	6852      	ldr	r2, [r2, #4]
 8006706:	3204      	adds	r2, #4
 8006708:	6013      	str	r3, [r2, #0]
 800670a:	e014      	b.n	8006736 <stm32__i2c__disable_interrupt+0x76>
 800670c:	68fb      	ldr	r3, [r7, #12]
 800670e:	685b      	ldr	r3, [r3, #4]
 8006710:	3304      	adds	r3, #4
 8006712:	681b      	ldr	r3, [r3, #0]
 8006714:	f36f 2349 	bfc	r3, #9, #1
 8006718:	68fa      	ldr	r2, [r7, #12]
 800671a:	6852      	ldr	r2, [r2, #4]
 800671c:	3204      	adds	r2, #4
 800671e:	6013      	str	r3, [r2, #0]
 8006720:	e009      	b.n	8006736 <stm32__i2c__disable_interrupt+0x76>
 8006722:	68fb      	ldr	r3, [r7, #12]
 8006724:	685b      	ldr	r3, [r3, #4]
 8006726:	3304      	adds	r3, #4
 8006728:	681b      	ldr	r3, [r3, #0]
 800672a:	f36f 238a 	bfc	r3, #10, #1
 800672e:	68fa      	ldr	r2, [r7, #12]
 8006730:	6852      	ldr	r2, [r2, #4]
 8006732:	3204      	adds	r2, #4
 8006734:	6013      	str	r3, [r2, #0]
 8006736:	bf00      	nop
 8006738:	f107 030c 	add.w	r3, r7, #12
 800673c:	469c      	mov	ip, r3
 800673e:	f7ff ffa3 	bl	8006688 <stm32__i2c__disable_interrupt___postconditions.4924>
 8006742:	3718      	adds	r7, #24
 8006744:	46bd      	mov	sp, r7
 8006746:	bd80      	pop	{r7, pc}
 8006748:	0800b800 	.word	0x0800b800

0800674c <stm32__i2c__enabled>:
 800674c:	b580      	push	{r7, lr}
 800674e:	b082      	sub	sp, #8
 8006750:	af00      	add	r7, sp, #0
 8006752:	6078      	str	r0, [r7, #4]
 8006754:	460b      	mov	r3, r1
 8006756:	70fb      	strb	r3, [r7, #3]
 8006758:	78fb      	ldrb	r3, [r7, #3]
 800675a:	2b02      	cmp	r3, #2
 800675c:	d904      	bls.n	8006768 <stm32__i2c__enabled+0x1c>
 800675e:	4814      	ldr	r0, [pc, #80]	; (80067b0 <stm32__i2c__enabled+0x64>)
 8006760:	f44f 6197 	mov.w	r1, #1208	; 0x4b8
 8006764:	f7f9 fdf2 	bl	800034c <__gnat_last_chance_handler>
 8006768:	78fb      	ldrb	r3, [r7, #3]
 800676a:	2b00      	cmp	r3, #0
 800676c:	d002      	beq.n	8006774 <stm32__i2c__enabled+0x28>
 800676e:	2b01      	cmp	r3, #1
 8006770:	d008      	beq.n	8006784 <stm32__i2c__enabled+0x38>
 8006772:	e00f      	b.n	8006794 <stm32__i2c__enabled+0x48>
 8006774:	687b      	ldr	r3, [r7, #4]
 8006776:	685b      	ldr	r3, [r3, #4]
 8006778:	3304      	adds	r3, #4
 800677a:	681b      	ldr	r3, [r3, #0]
 800677c:	f3c3 2300 	ubfx	r3, r3, #8, #1
 8006780:	b2db      	uxtb	r3, r3
 8006782:	e00f      	b.n	80067a4 <stm32__i2c__enabled+0x58>
 8006784:	687b      	ldr	r3, [r7, #4]
 8006786:	685b      	ldr	r3, [r3, #4]
 8006788:	3304      	adds	r3, #4
 800678a:	681b      	ldr	r3, [r3, #0]
 800678c:	f3c3 2340 	ubfx	r3, r3, #9, #1
 8006790:	b2db      	uxtb	r3, r3
 8006792:	e007      	b.n	80067a4 <stm32__i2c__enabled+0x58>
 8006794:	687b      	ldr	r3, [r7, #4]
 8006796:	685b      	ldr	r3, [r3, #4]
 8006798:	3304      	adds	r3, #4
 800679a:	681b      	ldr	r3, [r3, #0]
 800679c:	f3c3 2380 	ubfx	r3, r3, #10, #1
 80067a0:	b2db      	uxtb	r3, r3
 80067a2:	bf00      	nop
 80067a4:	bf00      	nop
 80067a6:	4618      	mov	r0, r3
 80067a8:	3708      	adds	r7, #8
 80067aa:	46bd      	mov	sp, r7
 80067ac:	bd80      	pop	{r7, pc}
 80067ae:	bf00      	nop
 80067b0:	0800b800 	.word	0x0800b800

080067b4 <stm32__gpio__gpio_pinRP>:
 80067b4:	b480      	push	{r7}
 80067b6:	b083      	sub	sp, #12
 80067b8:	af00      	add	r7, sp, #0
 80067ba:	4603      	mov	r3, r0
 80067bc:	460a      	mov	r2, r1
 80067be:	80fb      	strh	r3, [r7, #6]
 80067c0:	4613      	mov	r3, r2
 80067c2:	717b      	strb	r3, [r7, #5]
 80067c4:	88fb      	ldrh	r3, [r7, #6]
 80067c6:	2b80      	cmp	r3, #128	; 0x80
 80067c8:	d042      	beq.n	8006850 <stm32__gpio__gpio_pinRP+0x9c>
 80067ca:	2b80      	cmp	r3, #128	; 0x80
 80067cc:	d811      	bhi.n	80067f2 <stm32__gpio__gpio_pinRP+0x3e>
 80067ce:	2b08      	cmp	r3, #8
 80067d0:	d036      	beq.n	8006840 <stm32__gpio__gpio_pinRP+0x8c>
 80067d2:	2b08      	cmp	r3, #8
 80067d4:	d806      	bhi.n	80067e4 <stm32__gpio__gpio_pinRP+0x30>
 80067d6:	2b02      	cmp	r3, #2
 80067d8:	d02e      	beq.n	8006838 <stm32__gpio__gpio_pinRP+0x84>
 80067da:	2b04      	cmp	r3, #4
 80067dc:	d02e      	beq.n	800683c <stm32__gpio__gpio_pinRP+0x88>
 80067de:	2b01      	cmp	r3, #1
 80067e0:	d028      	beq.n	8006834 <stm32__gpio__gpio_pinRP+0x80>
 80067e2:	e047      	b.n	8006874 <stm32__gpio__gpio_pinRP+0xc0>
 80067e4:	2b20      	cmp	r3, #32
 80067e6:	d02f      	beq.n	8006848 <stm32__gpio__gpio_pinRP+0x94>
 80067e8:	2b40      	cmp	r3, #64	; 0x40
 80067ea:	d02f      	beq.n	800684c <stm32__gpio__gpio_pinRP+0x98>
 80067ec:	2b10      	cmp	r3, #16
 80067ee:	d029      	beq.n	8006844 <stm32__gpio__gpio_pinRP+0x90>
 80067f0:	e040      	b.n	8006874 <stm32__gpio__gpio_pinRP+0xc0>
 80067f2:	f5b3 6f00 	cmp.w	r3, #2048	; 0x800
 80067f6:	d033      	beq.n	8006860 <stm32__gpio__gpio_pinRP+0xac>
 80067f8:	f5b3 6f00 	cmp.w	r3, #2048	; 0x800
 80067fc:	d809      	bhi.n	8006812 <stm32__gpio__gpio_pinRP+0x5e>
 80067fe:	f5b3 7f00 	cmp.w	r3, #512	; 0x200
 8006802:	d029      	beq.n	8006858 <stm32__gpio__gpio_pinRP+0xa4>
 8006804:	f5b3 6f80 	cmp.w	r3, #1024	; 0x400
 8006808:	d028      	beq.n	800685c <stm32__gpio__gpio_pinRP+0xa8>
 800680a:	f5b3 7f80 	cmp.w	r3, #256	; 0x100
 800680e:	d021      	beq.n	8006854 <stm32__gpio__gpio_pinRP+0xa0>
 8006810:	e030      	b.n	8006874 <stm32__gpio__gpio_pinRP+0xc0>
 8006812:	f5b3 5f00 	cmp.w	r3, #8192	; 0x2000
 8006816:	d027      	beq.n	8006868 <stm32__gpio__gpio_pinRP+0xb4>
 8006818:	f5b3 5f00 	cmp.w	r3, #8192	; 0x2000
 800681c:	d803      	bhi.n	8006826 <stm32__gpio__gpio_pinRP+0x72>
 800681e:	f5b3 5f80 	cmp.w	r3, #4096	; 0x1000
 8006822:	d01f      	beq.n	8006864 <stm32__gpio__gpio_pinRP+0xb0>
 8006824:	e026      	b.n	8006874 <stm32__gpio__gpio_pinRP+0xc0>
 8006826:	f5b3 4f80 	cmp.w	r3, #16384	; 0x4000
 800682a:	d01f      	beq.n	800686c <stm32__gpio__gpio_pinRP+0xb8>
 800682c:	f5b3 4f00 	cmp.w	r3, #32768	; 0x8000
 8006830:	d01e      	beq.n	8006870 <stm32__gpio__gpio_pinRP+0xbc>
 8006832:	e01f      	b.n	8006874 <stm32__gpio__gpio_pinRP+0xc0>
 8006834:	2300      	movs	r3, #0
 8006836:	e01f      	b.n	8006878 <stm32__gpio__gpio_pinRP+0xc4>
 8006838:	2301      	movs	r3, #1
 800683a:	e01d      	b.n	8006878 <stm32__gpio__gpio_pinRP+0xc4>
 800683c:	2302      	movs	r3, #2
 800683e:	e01b      	b.n	8006878 <stm32__gpio__gpio_pinRP+0xc4>
 8006840:	2303      	movs	r3, #3
 8006842:	e019      	b.n	8006878 <stm32__gpio__gpio_pinRP+0xc4>
 8006844:	2304      	movs	r3, #4
 8006846:	e017      	b.n	8006878 <stm32__gpio__gpio_pinRP+0xc4>
 8006848:	2305      	movs	r3, #5
 800684a:	e015      	b.n	8006878 <stm32__gpio__gpio_pinRP+0xc4>
 800684c:	2306      	movs	r3, #6
 800684e:	e013      	b.n	8006878 <stm32__gpio__gpio_pinRP+0xc4>
 8006850:	2307      	movs	r3, #7
 8006852:	e011      	b.n	8006878 <stm32__gpio__gpio_pinRP+0xc4>
 8006854:	2308      	movs	r3, #8
 8006856:	e00f      	b.n	8006878 <stm32__gpio__gpio_pinRP+0xc4>
 8006858:	2309      	movs	r3, #9
 800685a:	e00d      	b.n	8006878 <stm32__gpio__gpio_pinRP+0xc4>
 800685c:	230a      	movs	r3, #10
 800685e:	e00b      	b.n	8006878 <stm32__gpio__gpio_pinRP+0xc4>
 8006860:	230b      	movs	r3, #11
 8006862:	e009      	b.n	8006878 <stm32__gpio__gpio_pinRP+0xc4>
 8006864:	230c      	movs	r3, #12
 8006866:	e007      	b.n	8006878 <stm32__gpio__gpio_pinRP+0xc4>
 8006868:	230d      	movs	r3, #13
 800686a:	e005      	b.n	8006878 <stm32__gpio__gpio_pinRP+0xc4>
 800686c:	230e      	movs	r3, #14
 800686e:	e003      	b.n	8006878 <stm32__gpio__gpio_pinRP+0xc4>
 8006870:	230f      	movs	r3, #15
 8006872:	e001      	b.n	8006878 <stm32__gpio__gpio_pinRP+0xc4>
 8006874:	f04f 33ff 	mov.w	r3, #4294967295
 8006878:	4618      	mov	r0, r3
 800687a:	370c      	adds	r7, #12
 800687c:	46bd      	mov	sp, r7
 800687e:	f85d 7b04 	ldr.w	r7, [sp], #4
 8006882:	4770      	bx	lr

08006884 <stm32__gpio___size__2>:
 8006884:	b490      	push	{r4, r7}
 8006886:	b082      	sub	sp, #8
 8006888:	af00      	add	r7, sp, #0
 800688a:	6078      	str	r0, [r7, #4]
 800688c:	f04f 0360 	mov.w	r3, #96	; 0x60
 8006890:	f04f 0400 	mov.w	r4, #0
 8006894:	4618      	mov	r0, r3
 8006896:	4621      	mov	r1, r4
 8006898:	3708      	adds	r7, #8
 800689a:	46bd      	mov	sp, r7
 800689c:	bc90      	pop	{r4, r7}
 800689e:	4770      	bx	lr

080068a0 <stm32__gpio__Oeq>:
 80068a0:	b480      	push	{r7}
 80068a2:	b083      	sub	sp, #12
 80068a4:	af00      	add	r7, sp, #0
 80068a6:	6078      	str	r0, [r7, #4]
 80068a8:	6039      	str	r1, [r7, #0]
 80068aa:	687b      	ldr	r3, [r7, #4]
 80068ac:	685a      	ldr	r2, [r3, #4]
 80068ae:	683b      	ldr	r3, [r7, #0]
 80068b0:	685b      	ldr	r3, [r3, #4]
 80068b2:	429a      	cmp	r2, r3
 80068b4:	d107      	bne.n	80068c6 <stm32__gpio__Oeq+0x26>
 80068b6:	687b      	ldr	r3, [r7, #4]
 80068b8:	891a      	ldrh	r2, [r3, #8]
 80068ba:	683b      	ldr	r3, [r7, #0]
 80068bc:	891b      	ldrh	r3, [r3, #8]
 80068be:	429a      	cmp	r2, r3
 80068c0:	d101      	bne.n	80068c6 <stm32__gpio__Oeq+0x26>
 80068c2:	2301      	movs	r3, #1
 80068c4:	e000      	b.n	80068c8 <stm32__gpio__Oeq+0x28>
 80068c6:	2300      	movs	r3, #0
 80068c8:	4618      	mov	r0, r3
 80068ca:	370c      	adds	r7, #12
 80068cc:	46bd      	mov	sp, r7
 80068ce:	f85d 7b04 	ldr.w	r7, [sp], #4
 80068d2:	4770      	bx	lr

080068d4 <stm32__gpio___assign>:
 80068d4:	b490      	push	{r4, r7}
 80068d6:	b082      	sub	sp, #8
 80068d8:	af00      	add	r7, sp, #0
 80068da:	6078      	str	r0, [r7, #4]
 80068dc:	6039      	str	r1, [r7, #0]
 80068de:	687b      	ldr	r3, [r7, #4]
 80068e0:	681c      	ldr	r4, [r3, #0]
 80068e2:	687b      	ldr	r3, [r7, #4]
 80068e4:	683a      	ldr	r2, [r7, #0]
 80068e6:	ca07      	ldmia	r2, {r0, r1, r2}
 80068e8:	e883 0007 	stmia.w	r3, {r0, r1, r2}
 80068ec:	687b      	ldr	r3, [r7, #4]
 80068ee:	601c      	str	r4, [r3, #0]
 80068f0:	3708      	adds	r7, #8
 80068f2:	46bd      	mov	sp, r7
 80068f4:	bc90      	pop	{r4, r7}
 80068f6:	4770      	bx	lr

080068f8 <stm32__gpio__mode>:
 80068f8:	b580      	push	{r7, lr}
 80068fa:	b086      	sub	sp, #24
 80068fc:	af00      	add	r7, sp, #0
 80068fe:	6078      	str	r0, [r7, #4]
 8006900:	687b      	ldr	r3, [r7, #4]
 8006902:	891b      	ldrh	r3, [r3, #8]
 8006904:	4618      	mov	r0, r3
 8006906:	2101      	movs	r1, #1
 8006908:	f7ff ff54 	bl	80067b4 <stm32__gpio__gpio_pinRP>
 800690c:	4603      	mov	r3, r0
 800690e:	2b00      	cmp	r3, #0
 8006910:	db01      	blt.n	8006916 <stm32__gpio__mode+0x1e>
 8006912:	2b0f      	cmp	r3, #15
 8006914:	dd03      	ble.n	800691e <stm32__gpio__mode+0x26>
 8006916:	482d      	ldr	r0, [pc, #180]	; (80069cc <stm32__gpio__mode+0xd4>)
 8006918:	215d      	movs	r1, #93	; 0x5d
 800691a:	f7f9 fd17 	bl	800034c <__gnat_last_chance_handler>
 800691e:	687b      	ldr	r3, [r7, #4]
 8006920:	891b      	ldrh	r3, [r3, #8]
 8006922:	4618      	mov	r0, r3
 8006924:	2101      	movs	r1, #1
 8006926:	f7ff ff45 	bl	80067b4 <stm32__gpio__gpio_pinRP>
 800692a:	4603      	mov	r3, r0
 800692c:	613b      	str	r3, [r7, #16]
 800692e:	230c      	movs	r3, #12
 8006930:	73fb      	strb	r3, [r7, #15]
 8006932:	2303      	movs	r3, #3
 8006934:	73bb      	strb	r3, [r7, #14]
 8006936:	693b      	ldr	r3, [r7, #16]
 8006938:	2b07      	cmp	r3, #7
 800693a:	dc1b      	bgt.n	8006974 <stm32__gpio__mode+0x7c>
 800693c:	687b      	ldr	r3, [r7, #4]
 800693e:	685b      	ldr	r3, [r3, #4]
 8006940:	2b00      	cmp	r3, #0
 8006942:	d103      	bne.n	800694c <stm32__gpio__mode+0x54>
 8006944:	4821      	ldr	r0, [pc, #132]	; (80069cc <stm32__gpio__mode+0xd4>)
 8006946:	2164      	movs	r1, #100	; 0x64
 8006948:	f7f9 fd00 	bl	800034c <__gnat_last_chance_handler>
 800694c:	693b      	ldr	r3, [r7, #16]
 800694e:	2b07      	cmp	r3, #7
 8006950:	dd03      	ble.n	800695a <stm32__gpio__mode+0x62>
 8006952:	481e      	ldr	r0, [pc, #120]	; (80069cc <stm32__gpio__mode+0xd4>)
 8006954:	2164      	movs	r1, #100	; 0x64
 8006956:	f7f9 fcf9 	bl	800034c <__gnat_last_chance_handler>
 800695a:	687b      	ldr	r3, [r7, #4]
 800695c:	685b      	ldr	r3, [r3, #4]
 800695e:	681b      	ldr	r3, [r3, #0]
 8006960:	461a      	mov	r2, r3
 8006962:	693b      	ldr	r3, [r7, #16]
 8006964:	009b      	lsls	r3, r3, #2
 8006966:	fa22 f303 	lsr.w	r3, r2, r3
 800696a:	b2db      	uxtb	r3, r3
 800696c:	f003 030f 	and.w	r3, r3, #15
 8006970:	75fb      	strb	r3, [r7, #23]
 8006972:	e01c      	b.n	80069ae <stm32__gpio__mode+0xb6>
 8006974:	687b      	ldr	r3, [r7, #4]
 8006976:	685b      	ldr	r3, [r3, #4]
 8006978:	2b00      	cmp	r3, #0
 800697a:	d103      	bne.n	8006984 <stm32__gpio__mode+0x8c>
 800697c:	4813      	ldr	r0, [pc, #76]	; (80069cc <stm32__gpio__mode+0xd4>)
 800697e:	2166      	movs	r1, #102	; 0x66
 8006980:	f7f9 fce4 	bl	800034c <__gnat_last_chance_handler>
 8006984:	693b      	ldr	r3, [r7, #16]
 8006986:	2b07      	cmp	r3, #7
 8006988:	dc03      	bgt.n	8006992 <stm32__gpio__mode+0x9a>
 800698a:	4810      	ldr	r0, [pc, #64]	; (80069cc <stm32__gpio__mode+0xd4>)
 800698c:	2166      	movs	r1, #102	; 0x66
 800698e:	f7f9 fcdd 	bl	800034c <__gnat_last_chance_handler>
 8006992:	687b      	ldr	r3, [r7, #4]
 8006994:	685b      	ldr	r3, [r3, #4]
 8006996:	3304      	adds	r3, #4
 8006998:	681b      	ldr	r3, [r3, #0]
 800699a:	461a      	mov	r2, r3
 800699c:	693b      	ldr	r3, [r7, #16]
 800699e:	3b08      	subs	r3, #8
 80069a0:	009b      	lsls	r3, r3, #2
 80069a2:	fa22 f303 	lsr.w	r3, r2, r3
 80069a6:	b2db      	uxtb	r3, r3
 80069a8:	f003 030f 	and.w	r3, r3, #15
 80069ac:	75fb      	strb	r3, [r7, #23]
 80069ae:	7dfb      	ldrb	r3, [r7, #23]
 80069b0:	f003 0303 	and.w	r3, r3, #3
 80069b4:	737b      	strb	r3, [r7, #13]
 80069b6:	7b7b      	ldrb	r3, [r7, #13]
 80069b8:	2b00      	cmp	r3, #0
 80069ba:	d101      	bne.n	80069c0 <stm32__gpio__mode+0xc8>
 80069bc:	2301      	movs	r3, #1
 80069be:	e000      	b.n	80069c2 <stm32__gpio__mode+0xca>
 80069c0:	2302      	movs	r3, #2
 80069c2:	bf00      	nop
 80069c4:	4618      	mov	r0, r3
 80069c6:	3718      	adds	r7, #24
 80069c8:	46bd      	mov	sp, r7
 80069ca:	bd80      	pop	{r7, pc}
 80069cc:	0800b96c 	.word	0x0800b96c

080069d0 <stm32__gpio__set_mode>:
 80069d0:	b580      	push	{r7, lr}
 80069d2:	b086      	sub	sp, #24
 80069d4:	af00      	add	r7, sp, #0
 80069d6:	6078      	str	r0, [r7, #4]
 80069d8:	460b      	mov	r3, r1
 80069da:	70fb      	strb	r3, [r7, #3]
 80069dc:	687b      	ldr	r3, [r7, #4]
 80069de:	891b      	ldrh	r3, [r3, #8]
 80069e0:	4618      	mov	r0, r3
 80069e2:	2101      	movs	r1, #1
 80069e4:	f7ff fee6 	bl	80067b4 <stm32__gpio__gpio_pinRP>
 80069e8:	4603      	mov	r3, r0
 80069ea:	2b00      	cmp	r3, #0
 80069ec:	db01      	blt.n	80069f2 <stm32__gpio__set_mode+0x22>
 80069ee:	2b0f      	cmp	r3, #15
 80069f0:	dd03      	ble.n	80069fa <stm32__gpio__set_mode+0x2a>
 80069f2:	483e      	ldr	r0, [pc, #248]	; (8006aec <stm32__gpio__set_mode+0x11c>)
 80069f4:	217a      	movs	r1, #122	; 0x7a
 80069f6:	f7f9 fca9 	bl	800034c <__gnat_last_chance_handler>
 80069fa:	613b      	str	r3, [r7, #16]
 80069fc:	78fb      	ldrb	r3, [r7, #3]
 80069fe:	2b00      	cmp	r3, #0
 8006a00:	d002      	beq.n	8006a08 <stm32__gpio__set_mode+0x38>
 8006a02:	78fb      	ldrb	r3, [r7, #3]
 8006a04:	2b02      	cmp	r3, #2
 8006a06:	d903      	bls.n	8006a10 <stm32__gpio__set_mode+0x40>
 8006a08:	4838      	ldr	r0, [pc, #224]	; (8006aec <stm32__gpio__set_mode+0x11c>)
 8006a0a:	2180      	movs	r1, #128	; 0x80
 8006a0c:	f7f9 fc9e 	bl	800034c <__gnat_last_chance_handler>
 8006a10:	78fb      	ldrb	r3, [r7, #3]
 8006a12:	2b02      	cmp	r3, #2
 8006a14:	d108      	bne.n	8006a28 <stm32__gpio__set_mode+0x58>
 8006a16:	2300      	movs	r3, #0
 8006a18:	73fb      	strb	r3, [r7, #15]
 8006a1a:	2302      	movs	r3, #2
 8006a1c:	73bb      	strb	r3, [r7, #14]
 8006a1e:	7bfa      	ldrb	r2, [r7, #15]
 8006a20:	7bbb      	ldrb	r3, [r7, #14]
 8006a22:	4313      	orrs	r3, r2
 8006a24:	75fb      	strb	r3, [r7, #23]
 8006a26:	e007      	b.n	8006a38 <stm32__gpio__set_mode+0x68>
 8006a28:	2308      	movs	r3, #8
 8006a2a:	737b      	strb	r3, [r7, #13]
 8006a2c:	2300      	movs	r3, #0
 8006a2e:	73bb      	strb	r3, [r7, #14]
 8006a30:	7b7a      	ldrb	r2, [r7, #13]
 8006a32:	7bbb      	ldrb	r3, [r7, #14]
 8006a34:	4313      	orrs	r3, r2
 8006a36:	75fb      	strb	r3, [r7, #23]
 8006a38:	693b      	ldr	r3, [r7, #16]
 8006a3a:	2b07      	cmp	r3, #7
 8006a3c:	dc28      	bgt.n	8006a90 <stm32__gpio__set_mode+0xc0>
 8006a3e:	687b      	ldr	r3, [r7, #4]
 8006a40:	685b      	ldr	r3, [r3, #4]
 8006a42:	2b00      	cmp	r3, #0
 8006a44:	d103      	bne.n	8006a4e <stm32__gpio__set_mode+0x7e>
 8006a46:	4829      	ldr	r0, [pc, #164]	; (8006aec <stm32__gpio__set_mode+0x11c>)
 8006a48:	218c      	movs	r1, #140	; 0x8c
 8006a4a:	f7f9 fc7f 	bl	800034c <__gnat_last_chance_handler>
 8006a4e:	687b      	ldr	r3, [r7, #4]
 8006a50:	6858      	ldr	r0, [r3, #4]
 8006a52:	693b      	ldr	r3, [r7, #16]
 8006a54:	2b07      	cmp	r3, #7
 8006a56:	dd03      	ble.n	8006a60 <stm32__gpio__set_mode+0x90>
 8006a58:	4824      	ldr	r0, [pc, #144]	; (8006aec <stm32__gpio__set_mode+0x11c>)
 8006a5a:	218c      	movs	r1, #140	; 0x8c
 8006a5c:	f7f9 fc76 	bl	800034c <__gnat_last_chance_handler>
 8006a60:	4603      	mov	r3, r0
 8006a62:	681b      	ldr	r3, [r3, #0]
 8006a64:	461a      	mov	r2, r3
 8006a66:	4603      	mov	r3, r0
 8006a68:	681b      	ldr	r3, [r3, #0]
 8006a6a:	4619      	mov	r1, r3
 8006a6c:	693b      	ldr	r3, [r7, #16]
 8006a6e:	009b      	lsls	r3, r3, #2
 8006a70:	220f      	movs	r2, #15
 8006a72:	fa02 f303 	lsl.w	r3, r2, r3
 8006a76:	43db      	mvns	r3, r3
 8006a78:	ea01 0203 	and.w	r2, r1, r3
 8006a7c:	7df9      	ldrb	r1, [r7, #23]
 8006a7e:	693b      	ldr	r3, [r7, #16]
 8006a80:	009b      	lsls	r3, r3, #2
 8006a82:	fa01 f303 	lsl.w	r3, r1, r3
 8006a86:	4313      	orrs	r3, r2
 8006a88:	461a      	mov	r2, r3
 8006a8a:	4603      	mov	r3, r0
 8006a8c:	601a      	str	r2, [r3, #0]
 8006a8e:	e027      	b.n	8006ae0 <stm32__gpio__set_mode+0x110>
 8006a90:	687b      	ldr	r3, [r7, #4]
 8006a92:	685b      	ldr	r3, [r3, #4]
 8006a94:	2b00      	cmp	r3, #0
 8006a96:	d103      	bne.n	8006aa0 <stm32__gpio__set_mode+0xd0>
 8006a98:	4814      	ldr	r0, [pc, #80]	; (8006aec <stm32__gpio__set_mode+0x11c>)
 8006a9a:	218e      	movs	r1, #142	; 0x8e
 8006a9c:	f7f9 fc56 	bl	800034c <__gnat_last_chance_handler>
 8006aa0:	687b      	ldr	r3, [r7, #4]
 8006aa2:	685b      	ldr	r3, [r3, #4]
 8006aa4:	693a      	ldr	r2, [r7, #16]
 8006aa6:	2a07      	cmp	r2, #7
 8006aa8:	dc03      	bgt.n	8006ab2 <stm32__gpio__set_mode+0xe2>
 8006aaa:	4810      	ldr	r0, [pc, #64]	; (8006aec <stm32__gpio__set_mode+0x11c>)
 8006aac:	218e      	movs	r1, #142	; 0x8e
 8006aae:	f7f9 fc4d 	bl	800034c <__gnat_last_chance_handler>
 8006ab2:	1d1a      	adds	r2, r3, #4
 8006ab4:	6812      	ldr	r2, [r2, #0]
 8006ab6:	1d1a      	adds	r2, r3, #4
 8006ab8:	6812      	ldr	r2, [r2, #0]
 8006aba:	4610      	mov	r0, r2
 8006abc:	693a      	ldr	r2, [r7, #16]
 8006abe:	3a08      	subs	r2, #8
 8006ac0:	0092      	lsls	r2, r2, #2
 8006ac2:	210f      	movs	r1, #15
 8006ac4:	fa01 f202 	lsl.w	r2, r1, r2
 8006ac8:	43d2      	mvns	r2, r2
 8006aca:	ea00 0102 	and.w	r1, r0, r2
 8006ace:	7df8      	ldrb	r0, [r7, #23]
 8006ad0:	693a      	ldr	r2, [r7, #16]
 8006ad2:	3a08      	subs	r2, #8
 8006ad4:	0092      	lsls	r2, r2, #2
 8006ad6:	fa00 f202 	lsl.w	r2, r0, r2
 8006ada:	430a      	orrs	r2, r1
 8006adc:	3304      	adds	r3, #4
 8006ade:	601a      	str	r2, [r3, #0]
 8006ae0:	2301      	movs	r3, #1
 8006ae2:	bf00      	nop
 8006ae4:	4618      	mov	r0, r3
 8006ae6:	3718      	adds	r7, #24
 8006ae8:	46bd      	mov	sp, r7
 8006aea:	bd80      	pop	{r7, pc}
 8006aec:	0800b96c 	.word	0x0800b96c

08006af0 <stm32__gpio__pull_resistor>:
 8006af0:	b580      	push	{r7, lr}
 8006af2:	b084      	sub	sp, #16
 8006af4:	af00      	add	r7, sp, #0
 8006af6:	6078      	str	r0, [r7, #4]
 8006af8:	687b      	ldr	r3, [r7, #4]
 8006afa:	891b      	ldrh	r3, [r3, #8]
 8006afc:	4618      	mov	r0, r3
 8006afe:	2101      	movs	r1, #1
 8006b00:	f7ff fe58 	bl	80067b4 <stm32__gpio__gpio_pinRP>
 8006b04:	4603      	mov	r3, r0
 8006b06:	2b00      	cmp	r3, #0
 8006b08:	db01      	blt.n	8006b0e <stm32__gpio__pull_resistor+0x1e>
 8006b0a:	2b0f      	cmp	r3, #15
 8006b0c:	dd03      	ble.n	8006b16 <stm32__gpio__pull_resistor+0x26>
 8006b0e:	4809      	ldr	r0, [pc, #36]	; (8006b34 <stm32__gpio__pull_resistor+0x44>)
 8006b10:	219c      	movs	r1, #156	; 0x9c
 8006b12:	f7f9 fc1b 	bl	800034c <__gnat_last_chance_handler>
 8006b16:	687b      	ldr	r3, [r7, #4]
 8006b18:	891b      	ldrh	r3, [r3, #8]
 8006b1a:	4618      	mov	r0, r3
 8006b1c:	2101      	movs	r1, #1
 8006b1e:	f7ff fe49 	bl	80067b4 <stm32__gpio__gpio_pinRP>
 8006b22:	4603      	mov	r3, r0
 8006b24:	60fb      	str	r3, [r7, #12]
 8006b26:	2300      	movs	r3, #0
 8006b28:	bf00      	nop
 8006b2a:	4618      	mov	r0, r3
 8006b2c:	3710      	adds	r7, #16
 8006b2e:	46bd      	mov	sp, r7
 8006b30:	bd80      	pop	{r7, pc}
 8006b32:	bf00      	nop
 8006b34:	0800b96c 	.word	0x0800b96c

08006b38 <stm32__gpio__set_pull_resistor>:
 8006b38:	b580      	push	{r7, lr}
 8006b3a:	b084      	sub	sp, #16
 8006b3c:	af00      	add	r7, sp, #0
 8006b3e:	6078      	str	r0, [r7, #4]
 8006b40:	460b      	mov	r3, r1
 8006b42:	70fb      	strb	r3, [r7, #3]
 8006b44:	687b      	ldr	r3, [r7, #4]
 8006b46:	891b      	ldrh	r3, [r3, #8]
 8006b48:	4618      	mov	r0, r3
 8006b4a:	2101      	movs	r1, #1
 8006b4c:	f7ff fe32 	bl	80067b4 <stm32__gpio__gpio_pinRP>
 8006b50:	4603      	mov	r3, r0
 8006b52:	2b00      	cmp	r3, #0
 8006b54:	db01      	blt.n	8006b5a <stm32__gpio__set_pull_resistor+0x22>
 8006b56:	2b0f      	cmp	r3, #15
 8006b58:	dd03      	ble.n	8006b62 <stm32__gpio__set_pull_resistor+0x2a>
 8006b5a:	4805      	ldr	r0, [pc, #20]	; (8006b70 <stm32__gpio__set_pull_resistor+0x38>)
 8006b5c:	21b2      	movs	r1, #178	; 0xb2
 8006b5e:	f7f9 fbf5 	bl	800034c <__gnat_last_chance_handler>
 8006b62:	60fb      	str	r3, [r7, #12]
 8006b64:	2301      	movs	r3, #1
 8006b66:	bf00      	nop
 8006b68:	4618      	mov	r0, r3
 8006b6a:	3710      	adds	r7, #16
 8006b6c:	46bd      	mov	sp, r7
 8006b6e:	bd80      	pop	{r7, pc}
 8006b70:	0800b96c 	.word	0x0800b96c

08006b74 <stm32__gpio__set>:
 8006b74:	b580      	push	{r7, lr}
 8006b76:	b084      	sub	sp, #16
 8006b78:	af00      	add	r7, sp, #0
 8006b7a:	6078      	str	r0, [r7, #4]
 8006b7c:	687b      	ldr	r3, [r7, #4]
 8006b7e:	891b      	ldrh	r3, [r3, #8]
 8006b80:	81fb      	strh	r3, [r7, #14]
 8006b82:	687b      	ldr	r3, [r7, #4]
 8006b84:	685b      	ldr	r3, [r3, #4]
 8006b86:	2b00      	cmp	r3, #0
 8006b88:	d103      	bne.n	8006b92 <stm32__gpio__set+0x1e>
 8006b8a:	480b      	ldr	r0, [pc, #44]	; (8006bb8 <stm32__gpio__set+0x44>)
 8006b8c:	21c7      	movs	r1, #199	; 0xc7
 8006b8e:	f7f9 fbdd 	bl	800034c <__gnat_last_chance_handler>
 8006b92:	687b      	ldr	r3, [r7, #4]
 8006b94:	685b      	ldr	r3, [r3, #4]
 8006b96:	3308      	adds	r3, #8
 8006b98:	681b      	ldr	r3, [r3, #0]
 8006b9a:	b29a      	uxth	r2, r3
 8006b9c:	89fb      	ldrh	r3, [r7, #14]
 8006b9e:	4013      	ands	r3, r2
 8006ba0:	b29b      	uxth	r3, r3
 8006ba2:	89fa      	ldrh	r2, [r7, #14]
 8006ba4:	429a      	cmp	r2, r3
 8006ba6:	bf0c      	ite	eq
 8006ba8:	2301      	moveq	r3, #1
 8006baa:	2300      	movne	r3, #0
 8006bac:	b2db      	uxtb	r3, r3
 8006bae:	bf00      	nop
 8006bb0:	4618      	mov	r0, r3
 8006bb2:	3710      	adds	r7, #16
 8006bb4:	46bd      	mov	sp, r7
 8006bb6:	bd80      	pop	{r7, pc}
 8006bb8:	0800b96c 	.word	0x0800b96c

08006bbc <stm32__gpio__set__2>:
 8006bbc:	b5b0      	push	{r4, r5, r7, lr}
 8006bbe:	b082      	sub	sp, #8
 8006bc0:	af00      	add	r7, sp, #0
 8006bc2:	6078      	str	r0, [r7, #4]
 8006bc4:	6878      	ldr	r0, [r7, #4]
 8006bc6:	f7ff fe97 	bl	80068f8 <stm32__gpio__mode>
 8006bca:	4603      	mov	r3, r0
 8006bcc:	2b02      	cmp	r3, #2
 8006bce:	d005      	beq.n	8006bdc <stm32__gpio__set__2+0x20>
 8006bd0:	4c0e      	ldr	r4, [pc, #56]	; (8006c0c <stm32__gpio__set__2+0x50>)
 8006bd2:	4d0f      	ldr	r5, [pc, #60]	; (8006c10 <stm32__gpio__set__2+0x54>)
 8006bd4:	4620      	mov	r0, r4
 8006bd6:	4629      	mov	r1, r5
 8006bd8:	f003 fcee 	bl	800a5b8 <system__assertions__raise_assert_failure>
 8006bdc:	687b      	ldr	r3, [r7, #4]
 8006bde:	685b      	ldr	r3, [r3, #4]
 8006be0:	2b00      	cmp	r3, #0
 8006be2:	d103      	bne.n	8006bec <stm32__gpio__set__2+0x30>
 8006be4:	480b      	ldr	r0, [pc, #44]	; (8006c14 <stm32__gpio__set__2+0x58>)
 8006be6:	21e0      	movs	r1, #224	; 0xe0
 8006be8:	f7f9 fbb0 	bl	800034c <__gnat_last_chance_handler>
 8006bec:	687b      	ldr	r3, [r7, #4]
 8006bee:	685b      	ldr	r3, [r3, #4]
 8006bf0:	3310      	adds	r3, #16
 8006bf2:	681b      	ldr	r3, [r3, #0]
 8006bf4:	687a      	ldr	r2, [r7, #4]
 8006bf6:	8912      	ldrh	r2, [r2, #8]
 8006bf8:	f362 030f 	bfi	r3, r2, #0, #16
 8006bfc:	687a      	ldr	r2, [r7, #4]
 8006bfe:	6852      	ldr	r2, [r2, #4]
 8006c00:	3210      	adds	r2, #16
 8006c02:	6013      	str	r3, [r2, #0]
 8006c04:	3708      	adds	r7, #8
 8006c06:	46bd      	mov	sp, r7
 8006c08:	bdb0      	pop	{r4, r5, r7, pc}
 8006c0a:	bf00      	nop
 8006c0c:	0800b97c 	.word	0x0800b97c
 8006c10:	0800b9b0 	.word	0x0800b9b0
 8006c14:	0800b96c 	.word	0x0800b96c

08006c18 <stm32__gpio__clear>:
 8006c18:	b5b0      	push	{r4, r5, r7, lr}
 8006c1a:	b082      	sub	sp, #8
 8006c1c:	af00      	add	r7, sp, #0
 8006c1e:	6078      	str	r0, [r7, #4]
 8006c20:	6878      	ldr	r0, [r7, #4]
 8006c22:	f7ff fe69 	bl	80068f8 <stm32__gpio__mode>
 8006c26:	4603      	mov	r3, r0
 8006c28:	2b02      	cmp	r3, #2
 8006c2a:	d005      	beq.n	8006c38 <stm32__gpio__clear+0x20>
 8006c2c:	4c0e      	ldr	r4, [pc, #56]	; (8006c68 <stm32__gpio__clear+0x50>)
 8006c2e:	4d0f      	ldr	r5, [pc, #60]	; (8006c6c <stm32__gpio__clear+0x54>)
 8006c30:	4620      	mov	r0, r4
 8006c32:	4629      	mov	r1, r5
 8006c34:	f003 fcc0 	bl	800a5b8 <system__assertions__raise_assert_failure>
 8006c38:	687b      	ldr	r3, [r7, #4]
 8006c3a:	685b      	ldr	r3, [r3, #4]
 8006c3c:	2b00      	cmp	r3, #0
 8006c3e:	d103      	bne.n	8006c48 <stm32__gpio__clear+0x30>
 8006c40:	480b      	ldr	r0, [pc, #44]	; (8006c70 <stm32__gpio__clear+0x58>)
 8006c42:	21f7      	movs	r1, #247	; 0xf7
 8006c44:	f7f9 fb82 	bl	800034c <__gnat_last_chance_handler>
 8006c48:	687b      	ldr	r3, [r7, #4]
 8006c4a:	685b      	ldr	r3, [r3, #4]
 8006c4c:	3310      	adds	r3, #16
 8006c4e:	681b      	ldr	r3, [r3, #0]
 8006c50:	687a      	ldr	r2, [r7, #4]
 8006c52:	8912      	ldrh	r2, [r2, #8]
 8006c54:	f362 431f 	bfi	r3, r2, #16, #16
 8006c58:	687a      	ldr	r2, [r7, #4]
 8006c5a:	6852      	ldr	r2, [r2, #4]
 8006c5c:	3210      	adds	r2, #16
 8006c5e:	6013      	str	r3, [r2, #0]
 8006c60:	3708      	adds	r7, #8
 8006c62:	46bd      	mov	sp, r7
 8006c64:	bdb0      	pop	{r4, r5, r7, pc}
 8006c66:	bf00      	nop
 8006c68:	0800b9b8 	.word	0x0800b9b8
 8006c6c:	0800b9b0 	.word	0x0800b9b0
 8006c70:	0800b96c 	.word	0x0800b96c

08006c74 <stm32__gpio__toggle>:
 8006c74:	b5b0      	push	{r4, r5, r7, lr}
 8006c76:	b082      	sub	sp, #8
 8006c78:	af00      	add	r7, sp, #0
 8006c7a:	6078      	str	r0, [r7, #4]
 8006c7c:	6878      	ldr	r0, [r7, #4]
 8006c7e:	f7ff fe3b 	bl	80068f8 <stm32__gpio__mode>
 8006c82:	4603      	mov	r3, r0
 8006c84:	2b02      	cmp	r3, #2
 8006c86:	d005      	beq.n	8006c94 <stm32__gpio__toggle+0x20>
 8006c88:	4c16      	ldr	r4, [pc, #88]	; (8006ce4 <stm32__gpio__toggle+0x70>)
 8006c8a:	4d17      	ldr	r5, [pc, #92]	; (8006ce8 <stm32__gpio__toggle+0x74>)
 8006c8c:	4620      	mov	r0, r4
 8006c8e:	4629      	mov	r1, r5
 8006c90:	f003 fc92 	bl	800a5b8 <system__assertions__raise_assert_failure>
 8006c94:	687b      	ldr	r3, [r7, #4]
 8006c96:	685b      	ldr	r3, [r3, #4]
 8006c98:	2b00      	cmp	r3, #0
 8006c9a:	d104      	bne.n	8006ca6 <stm32__gpio__toggle+0x32>
 8006c9c:	4813      	ldr	r0, [pc, #76]	; (8006cec <stm32__gpio__toggle+0x78>)
 8006c9e:	f44f 7187 	mov.w	r1, #270	; 0x10e
 8006ca2:	f7f9 fb53 	bl	800034c <__gnat_last_chance_handler>
 8006ca6:	687b      	ldr	r3, [r7, #4]
 8006ca8:	685b      	ldr	r3, [r3, #4]
 8006caa:	2b00      	cmp	r3, #0
 8006cac:	d104      	bne.n	8006cb8 <stm32__gpio__toggle+0x44>
 8006cae:	480f      	ldr	r0, [pc, #60]	; (8006cec <stm32__gpio__toggle+0x78>)
 8006cb0:	f44f 7187 	mov.w	r1, #270	; 0x10e
 8006cb4:	f7f9 fb4a 	bl	800034c <__gnat_last_chance_handler>
 8006cb8:	687b      	ldr	r3, [r7, #4]
 8006cba:	685b      	ldr	r3, [r3, #4]
 8006cbc:	330c      	adds	r3, #12
 8006cbe:	681b      	ldr	r3, [r3, #0]
 8006cc0:	687a      	ldr	r2, [r7, #4]
 8006cc2:	6852      	ldr	r2, [r2, #4]
 8006cc4:	320c      	adds	r2, #12
 8006cc6:	6812      	ldr	r2, [r2, #0]
 8006cc8:	b291      	uxth	r1, r2
 8006cca:	687a      	ldr	r2, [r7, #4]
 8006ccc:	8912      	ldrh	r2, [r2, #8]
 8006cce:	404a      	eors	r2, r1
 8006cd0:	b292      	uxth	r2, r2
 8006cd2:	f362 030f 	bfi	r3, r2, #0, #16
 8006cd6:	687a      	ldr	r2, [r7, #4]
 8006cd8:	6852      	ldr	r2, [r2, #4]
 8006cda:	320c      	adds	r2, #12
 8006cdc:	6013      	str	r3, [r2, #0]
 8006cde:	3708      	adds	r7, #8
 8006ce0:	46bd      	mov	sp, r7
 8006ce2:	bdb0      	pop	{r4, r5, r7, pc}
 8006ce4:	0800b9ec 	.word	0x0800b9ec
 8006ce8:	0800b9b0 	.word	0x0800b9b0
 8006cec:	0800b96c 	.word	0x0800b96c

08006cf0 <stm32__gpio__locked>:
 8006cf0:	b480      	push	{r7}
 8006cf2:	b085      	sub	sp, #20
 8006cf4:	af00      	add	r7, sp, #0
 8006cf6:	6078      	str	r0, [r7, #4]
 8006cf8:	687b      	ldr	r3, [r7, #4]
 8006cfa:	891b      	ldrh	r3, [r3, #8]
 8006cfc:	81fb      	strh	r3, [r7, #14]
 8006cfe:	2301      	movs	r3, #1
 8006d00:	bf00      	nop
 8006d02:	4618      	mov	r0, r3
 8006d04:	3714      	adds	r7, #20
 8006d06:	46bd      	mov	sp, r7
 8006d08:	f85d 7b04 	ldr.w	r7, [sp], #4
 8006d0c:	4770      	bx	lr
 8006d0e:	bf00      	nop

08006d10 <stm32__gpio__lock_the_pin>:
 8006d10:	b480      	push	{r7}
 8006d12:	b085      	sub	sp, #20
 8006d14:	af00      	add	r7, sp, #0
 8006d16:	6078      	str	r0, [r7, #4]
 8006d18:	460b      	mov	r3, r1
 8006d1a:	807b      	strh	r3, [r7, #2]
 8006d1c:	6879      	ldr	r1, [r7, #4]
 8006d1e:	8878      	ldrh	r0, [r7, #2]
 8006d20:	f440 3380 	orr.w	r3, r0, #65536	; 0x10000
 8006d24:	60fb      	str	r3, [r7, #12]
 8006d26:	68fb      	ldr	r3, [r7, #12]
 8006d28:	61cb      	str	r3, [r1, #28]
 8006d2a:	61c8      	str	r0, [r1, #28]
 8006d2c:	68fb      	ldr	r3, [r7, #12]
 8006d2e:	61cb      	str	r3, [r1, #28]
 8006d30:	69cb      	ldr	r3, [r1, #28]
 8006d32:	60fb      	str	r3, [r7, #12]
 8006d34:	69cb      	ldr	r3, [r1, #28]
 8006d36:	60fb      	str	r3, [r7, #12]
 8006d38:	3714      	adds	r7, #20
 8006d3a:	46bd      	mov	sp, r7
 8006d3c:	f85d 7b04 	ldr.w	r7, [sp], #4
 8006d40:	4770      	bx	lr
 8006d42:	bf00      	nop

08006d44 <stm32__gpio__lock___postconditions.5255>:
 8006d44:	b5b0      	push	{r4, r5, r7, lr}
 8006d46:	b082      	sub	sp, #8
 8006d48:	af00      	add	r7, sp, #0
 8006d4a:	4663      	mov	r3, ip
 8006d4c:	f8c7 c004 	str.w	ip, [r7, #4]
 8006d50:	681b      	ldr	r3, [r3, #0]
 8006d52:	4618      	mov	r0, r3
 8006d54:	f7ff ffcc 	bl	8006cf0 <stm32__gpio__locked>
 8006d58:	4603      	mov	r3, r0
 8006d5a:	f083 0301 	eor.w	r3, r3, #1
 8006d5e:	b2db      	uxtb	r3, r3
 8006d60:	2b00      	cmp	r3, #0
 8006d62:	d005      	beq.n	8006d70 <stm32__gpio__lock___postconditions.5255+0x2c>
 8006d64:	4c04      	ldr	r4, [pc, #16]	; (8006d78 <stm32__gpio__lock___postconditions.5255+0x34>)
 8006d66:	4d05      	ldr	r5, [pc, #20]	; (8006d7c <stm32__gpio__lock___postconditions.5255+0x38>)
 8006d68:	4620      	mov	r0, r4
 8006d6a:	4629      	mov	r1, r5
 8006d6c:	f003 fc24 	bl	800a5b8 <system__assertions__raise_assert_failure>
 8006d70:	3708      	adds	r7, #8
 8006d72:	46bd      	mov	sp, r7
 8006d74:	bdb0      	pop	{r4, r5, r7, pc}
 8006d76:	bf00      	nop
 8006d78:	0800ba20 	.word	0x0800ba20
 8006d7c:	0800ba4c 	.word	0x0800ba4c

08006d80 <stm32__gpio__lock>:
 8006d80:	b5b0      	push	{r4, r5, r7, lr}
 8006d82:	b084      	sub	sp, #16
 8006d84:	af00      	add	r7, sp, #0
 8006d86:	6078      	str	r0, [r7, #4]
 8006d88:	f107 0320 	add.w	r3, r7, #32
 8006d8c:	60fb      	str	r3, [r7, #12]
 8006d8e:	687b      	ldr	r3, [r7, #4]
 8006d90:	60bb      	str	r3, [r7, #8]
 8006d92:	68bb      	ldr	r3, [r7, #8]
 8006d94:	4618      	mov	r0, r3
 8006d96:	f7ff ffab 	bl	8006cf0 <stm32__gpio__locked>
 8006d9a:	4603      	mov	r3, r0
 8006d9c:	2b00      	cmp	r3, #0
 8006d9e:	d005      	beq.n	8006dac <stm32__gpio__lock+0x2c>
 8006da0:	4c0f      	ldr	r4, [pc, #60]	; (8006de0 <stm32__gpio__lock+0x60>)
 8006da2:	4d10      	ldr	r5, [pc, #64]	; (8006de4 <stm32__gpio__lock+0x64>)
 8006da4:	4620      	mov	r0, r4
 8006da6:	4629      	mov	r1, r5
 8006da8:	f003 fc06 	bl	800a5b8 <system__assertions__raise_assert_failure>
 8006dac:	68bb      	ldr	r3, [r7, #8]
 8006dae:	685b      	ldr	r3, [r3, #4]
 8006db0:	2b00      	cmp	r3, #0
 8006db2:	d104      	bne.n	8006dbe <stm32__gpio__lock+0x3e>
 8006db4:	480c      	ldr	r0, [pc, #48]	; (8006de8 <stm32__gpio__lock+0x68>)
 8006db6:	f44f 71b4 	mov.w	r1, #360	; 0x168
 8006dba:	f7f9 fac7 	bl	800034c <__gnat_last_chance_handler>
 8006dbe:	68bb      	ldr	r3, [r7, #8]
 8006dc0:	685a      	ldr	r2, [r3, #4]
 8006dc2:	68bb      	ldr	r3, [r7, #8]
 8006dc4:	891b      	ldrh	r3, [r3, #8]
 8006dc6:	4610      	mov	r0, r2
 8006dc8:	4619      	mov	r1, r3
 8006dca:	f7ff ffa1 	bl	8006d10 <stm32__gpio__lock_the_pin>
 8006dce:	f107 0308 	add.w	r3, r7, #8
 8006dd2:	469c      	mov	ip, r3
 8006dd4:	f7ff ffb6 	bl	8006d44 <stm32__gpio__lock___postconditions.5255>
 8006dd8:	3710      	adds	r7, #16
 8006dda:	46bd      	mov	sp, r7
 8006ddc:	bdb0      	pop	{r4, r5, r7, pc}
 8006dde:	bf00      	nop
 8006de0:	0800ba54 	.word	0x0800ba54
 8006de4:	0800ba80 	.word	0x0800ba80
 8006de8:	0800b96c 	.word	0x0800b96c

08006dec <stm32__gpio__configure_io>:
 8006dec:	b580      	push	{r7, lr}
 8006dee:	b084      	sub	sp, #16
 8006df0:	af00      	add	r7, sp, #0
 8006df2:	6078      	str	r0, [r7, #4]
 8006df4:	6039      	str	r1, [r7, #0]
 8006df6:	687b      	ldr	r3, [r7, #4]
 8006df8:	891b      	ldrh	r3, [r3, #8]
 8006dfa:	4618      	mov	r0, r3
 8006dfc:	2101      	movs	r1, #1
 8006dfe:	f7ff fcd9 	bl	80067b4 <stm32__gpio__gpio_pinRP>
 8006e02:	4603      	mov	r3, r0
 8006e04:	2b00      	cmp	r3, #0
 8006e06:	db01      	blt.n	8006e0c <stm32__gpio__configure_io+0x20>
 8006e08:	2b0f      	cmp	r3, #15
 8006e0a:	dd04      	ble.n	8006e16 <stm32__gpio__configure_io+0x2a>
 8006e0c:	4870      	ldr	r0, [pc, #448]	; (8006fd0 <stm32__gpio__configure_io+0x1e4>)
 8006e0e:	f44f 71c0 	mov.w	r1, #384	; 0x180
 8006e12:	f7f9 fa9b 	bl	800034c <__gnat_last_chance_handler>
 8006e16:	687b      	ldr	r3, [r7, #4]
 8006e18:	891b      	ldrh	r3, [r3, #8]
 8006e1a:	4618      	mov	r0, r3
 8006e1c:	2101      	movs	r1, #1
 8006e1e:	f7ff fcc9 	bl	80067b4 <stm32__gpio__gpio_pinRP>
 8006e22:	4603      	mov	r3, r0
 8006e24:	60bb      	str	r3, [r7, #8]
 8006e26:	783b      	ldrb	r3, [r7, #0]
 8006e28:	2b00      	cmp	r3, #0
 8006e2a:	d02e      	beq.n	8006e8a <stm32__gpio__configure_io+0x9e>
 8006e2c:	787b      	ldrb	r3, [r7, #1]
 8006e2e:	2b01      	cmp	r3, #1
 8006e30:	d904      	bls.n	8006e3c <stm32__gpio__configure_io+0x50>
 8006e32:	4867      	ldr	r0, [pc, #412]	; (8006fd0 <stm32__gpio__configure_io+0x1e4>)
 8006e34:	f240 1187 	movw	r1, #391	; 0x187
 8006e38:	f7f9 fa88 	bl	800034c <__gnat_last_chance_handler>
 8006e3c:	787b      	ldrb	r3, [r7, #1]
 8006e3e:	2b00      	cmp	r3, #0
 8006e40:	d002      	beq.n	8006e48 <stm32__gpio__configure_io+0x5c>
 8006e42:	2b01      	cmp	r3, #1
 8006e44:	d003      	beq.n	8006e4e <stm32__gpio__configure_io+0x62>
 8006e46:	e005      	b.n	8006e54 <stm32__gpio__configure_io+0x68>
 8006e48:	2300      	movs	r3, #0
 8006e4a:	737b      	strb	r3, [r7, #13]
 8006e4c:	e002      	b.n	8006e54 <stm32__gpio__configure_io+0x68>
 8006e4e:	2304      	movs	r3, #4
 8006e50:	737b      	strb	r3, [r7, #13]
 8006e52:	e7ff      	b.n	8006e54 <stm32__gpio__configure_io+0x68>
 8006e54:	bf00      	nop
 8006e56:	78bb      	ldrb	r3, [r7, #2]
 8006e58:	2b02      	cmp	r3, #2
 8006e5a:	d904      	bls.n	8006e66 <stm32__gpio__configure_io+0x7a>
 8006e5c:	485c      	ldr	r0, [pc, #368]	; (8006fd0 <stm32__gpio__configure_io+0x1e4>)
 8006e5e:	f240 118f 	movw	r1, #399	; 0x18f
 8006e62:	f7f9 fa73 	bl	800034c <__gnat_last_chance_handler>
 8006e66:	78bb      	ldrb	r3, [r7, #2]
 8006e68:	2b01      	cmp	r3, #1
 8006e6a:	d007      	beq.n	8006e7c <stm32__gpio__configure_io+0x90>
 8006e6c:	2b01      	cmp	r3, #1
 8006e6e:	d302      	bcc.n	8006e76 <stm32__gpio__configure_io+0x8a>
 8006e70:	2b02      	cmp	r3, #2
 8006e72:	d006      	beq.n	8006e82 <stm32__gpio__configure_io+0x96>
 8006e74:	e008      	b.n	8006e88 <stm32__gpio__configure_io+0x9c>
 8006e76:	2302      	movs	r3, #2
 8006e78:	73fb      	strb	r3, [r7, #15]
 8006e7a:	e005      	b.n	8006e88 <stm32__gpio__configure_io+0x9c>
 8006e7c:	2301      	movs	r3, #1
 8006e7e:	73fb      	strb	r3, [r7, #15]
 8006e80:	e002      	b.n	8006e88 <stm32__gpio__configure_io+0x9c>
 8006e82:	2303      	movs	r3, #3
 8006e84:	73fb      	strb	r3, [r7, #15]
 8006e86:	e7ff      	b.n	8006e88 <stm32__gpio__configure_io+0x9c>
 8006e88:	bf00      	nop
 8006e8a:	78fb      	ldrb	r3, [r7, #3]
 8006e8c:	2b02      	cmp	r3, #2
 8006e8e:	d904      	bls.n	8006e9a <stm32__gpio__configure_io+0xae>
 8006e90:	484f      	ldr	r0, [pc, #316]	; (8006fd0 <stm32__gpio__configure_io+0x1e4>)
 8006e92:	f240 119b 	movw	r1, #411	; 0x19b
 8006e96:	f7f9 fa59 	bl	800034c <__gnat_last_chance_handler>
 8006e9a:	78fb      	ldrb	r3, [r7, #3]
 8006e9c:	2b00      	cmp	r3, #0
 8006e9e:	d002      	beq.n	8006ea6 <stm32__gpio__configure_io+0xba>
 8006ea0:	2b01      	cmp	r3, #1
 8006ea2:	d003      	beq.n	8006eac <stm32__gpio__configure_io+0xc0>
 8006ea4:	e005      	b.n	8006eb2 <stm32__gpio__configure_io+0xc6>
 8006ea6:	2304      	movs	r3, #4
 8006ea8:	73bb      	strb	r3, [r7, #14]
 8006eaa:	e004      	b.n	8006eb6 <stm32__gpio__configure_io+0xca>
 8006eac:	2308      	movs	r3, #8
 8006eae:	73bb      	strb	r3, [r7, #14]
 8006eb0:	e001      	b.n	8006eb6 <stm32__gpio__configure_io+0xca>
 8006eb2:	2308      	movs	r3, #8
 8006eb4:	73bb      	strb	r3, [r7, #14]
 8006eb6:	bf00      	nop
 8006eb8:	783b      	ldrb	r3, [r7, #0]
 8006eba:	2b03      	cmp	r3, #3
 8006ebc:	d904      	bls.n	8006ec8 <stm32__gpio__configure_io+0xdc>
 8006ebe:	4844      	ldr	r0, [pc, #272]	; (8006fd0 <stm32__gpio__configure_io+0x1e4>)
 8006ec0:	f44f 71d2 	mov.w	r1, #420	; 0x1a4
 8006ec4:	f7f9 fa42 	bl	800034c <__gnat_last_chance_handler>
 8006ec8:	783b      	ldrb	r3, [r7, #0]
 8006eca:	2b01      	cmp	r3, #1
 8006ecc:	d004      	beq.n	8006ed8 <stm32__gpio__configure_io+0xec>
 8006ece:	2b01      	cmp	r3, #1
 8006ed0:	d307      	bcc.n	8006ee2 <stm32__gpio__configure_io+0xf6>
 8006ed2:	2b02      	cmp	r3, #2
 8006ed4:	d00c      	beq.n	8006ef0 <stm32__gpio__configure_io+0x104>
 8006ed6:	e018      	b.n	8006f0a <stm32__gpio__configure_io+0x11e>
 8006ed8:	7b7a      	ldrb	r2, [r7, #13]
 8006eda:	7bfb      	ldrb	r3, [r7, #15]
 8006edc:	4313      	orrs	r3, r2
 8006ede:	733b      	strb	r3, [r7, #12]
 8006ee0:	e013      	b.n	8006f0a <stm32__gpio__configure_io+0x11e>
 8006ee2:	2300      	movs	r3, #0
 8006ee4:	73fb      	strb	r3, [r7, #15]
 8006ee6:	7bba      	ldrb	r2, [r7, #14]
 8006ee8:	7bfb      	ldrb	r3, [r7, #15]
 8006eea:	4313      	orrs	r3, r2
 8006eec:	733b      	strb	r3, [r7, #12]
 8006eee:	e00c      	b.n	8006f0a <stm32__gpio__configure_io+0x11e>
 8006ef0:	787b      	ldrb	r3, [r7, #1]
 8006ef2:	2b01      	cmp	r3, #1
 8006ef4:	d102      	bne.n	8006efc <stm32__gpio__configure_io+0x110>
 8006ef6:	230c      	movs	r3, #12
 8006ef8:	737b      	strb	r3, [r7, #13]
 8006efa:	e001      	b.n	8006f00 <stm32__gpio__configure_io+0x114>
 8006efc:	2308      	movs	r3, #8
 8006efe:	737b      	strb	r3, [r7, #13]
 8006f00:	7b7a      	ldrb	r2, [r7, #13]
 8006f02:	7bfb      	ldrb	r3, [r7, #15]
 8006f04:	4313      	orrs	r3, r2
 8006f06:	733b      	strb	r3, [r7, #12]
 8006f08:	e7ff      	b.n	8006f0a <stm32__gpio__configure_io+0x11e>
 8006f0a:	bf00      	nop
 8006f0c:	68bb      	ldr	r3, [r7, #8]
 8006f0e:	2b07      	cmp	r3, #7
 8006f10:	dc2b      	bgt.n	8006f6a <stm32__gpio__configure_io+0x17e>
 8006f12:	687b      	ldr	r3, [r7, #4]
 8006f14:	685b      	ldr	r3, [r3, #4]
 8006f16:	2b00      	cmp	r3, #0
 8006f18:	d104      	bne.n	8006f24 <stm32__gpio__configure_io+0x138>
 8006f1a:	482d      	ldr	r0, [pc, #180]	; (8006fd0 <stm32__gpio__configure_io+0x1e4>)
 8006f1c:	f240 11b5 	movw	r1, #437	; 0x1b5
 8006f20:	f7f9 fa14 	bl	800034c <__gnat_last_chance_handler>
 8006f24:	68bb      	ldr	r3, [r7, #8]
 8006f26:	2b07      	cmp	r3, #7
 8006f28:	dd04      	ble.n	8006f34 <stm32__gpio__configure_io+0x148>
 8006f2a:	4829      	ldr	r0, [pc, #164]	; (8006fd0 <stm32__gpio__configure_io+0x1e4>)
 8006f2c:	f240 11b5 	movw	r1, #437	; 0x1b5
 8006f30:	f7f9 fa0c 	bl	800034c <__gnat_last_chance_handler>
 8006f34:	687b      	ldr	r3, [r7, #4]
 8006f36:	685b      	ldr	r3, [r3, #4]
 8006f38:	681b      	ldr	r3, [r3, #0]
 8006f3a:	461a      	mov	r2, r3
 8006f3c:	687b      	ldr	r3, [r7, #4]
 8006f3e:	685b      	ldr	r3, [r3, #4]
 8006f40:	681b      	ldr	r3, [r3, #0]
 8006f42:	4619      	mov	r1, r3
 8006f44:	68bb      	ldr	r3, [r7, #8]
 8006f46:	009b      	lsls	r3, r3, #2
 8006f48:	220f      	movs	r2, #15
 8006f4a:	fa02 f303 	lsl.w	r3, r2, r3
 8006f4e:	43db      	mvns	r3, r3
 8006f50:	ea01 0203 	and.w	r2, r1, r3
 8006f54:	7b39      	ldrb	r1, [r7, #12]
 8006f56:	68bb      	ldr	r3, [r7, #8]
 8006f58:	009b      	lsls	r3, r3, #2
 8006f5a:	fa01 f303 	lsl.w	r3, r1, r3
 8006f5e:	4313      	orrs	r3, r2
 8006f60:	461a      	mov	r2, r3
 8006f62:	687b      	ldr	r3, [r7, #4]
 8006f64:	685b      	ldr	r3, [r3, #4]
 8006f66:	601a      	str	r2, [r3, #0]
 8006f68:	e02f      	b.n	8006fca <stm32__gpio__configure_io+0x1de>
 8006f6a:	687b      	ldr	r3, [r7, #4]
 8006f6c:	685b      	ldr	r3, [r3, #4]
 8006f6e:	2b00      	cmp	r3, #0
 8006f70:	d104      	bne.n	8006f7c <stm32__gpio__configure_io+0x190>
 8006f72:	4817      	ldr	r0, [pc, #92]	; (8006fd0 <stm32__gpio__configure_io+0x1e4>)
 8006f74:	f240 11b7 	movw	r1, #439	; 0x1b7
 8006f78:	f7f9 f9e8 	bl	800034c <__gnat_last_chance_handler>
 8006f7c:	68bb      	ldr	r3, [r7, #8]
 8006f7e:	2b07      	cmp	r3, #7
 8006f80:	dc04      	bgt.n	8006f8c <stm32__gpio__configure_io+0x1a0>
 8006f82:	4813      	ldr	r0, [pc, #76]	; (8006fd0 <stm32__gpio__configure_io+0x1e4>)
 8006f84:	f240 11b7 	movw	r1, #439	; 0x1b7
 8006f88:	f7f9 f9e0 	bl	800034c <__gnat_last_chance_handler>
 8006f8c:	687b      	ldr	r3, [r7, #4]
 8006f8e:	685b      	ldr	r3, [r3, #4]
 8006f90:	3304      	adds	r3, #4
 8006f92:	681b      	ldr	r3, [r3, #0]
 8006f94:	461a      	mov	r2, r3
 8006f96:	687b      	ldr	r3, [r7, #4]
 8006f98:	685b      	ldr	r3, [r3, #4]
 8006f9a:	3304      	adds	r3, #4
 8006f9c:	681b      	ldr	r3, [r3, #0]
 8006f9e:	4619      	mov	r1, r3
 8006fa0:	68bb      	ldr	r3, [r7, #8]
 8006fa2:	3b08      	subs	r3, #8
 8006fa4:	009b      	lsls	r3, r3, #2
 8006fa6:	220f      	movs	r2, #15
 8006fa8:	fa02 f303 	lsl.w	r3, r2, r3
 8006fac:	43db      	mvns	r3, r3
 8006fae:	ea01 0203 	and.w	r2, r1, r3
 8006fb2:	7b39      	ldrb	r1, [r7, #12]
 8006fb4:	68bb      	ldr	r3, [r7, #8]
 8006fb6:	3b08      	subs	r3, #8
 8006fb8:	009b      	lsls	r3, r3, #2
 8006fba:	fa01 f303 	lsl.w	r3, r1, r3
 8006fbe:	4313      	orrs	r3, r2
 8006fc0:	461a      	mov	r2, r3
 8006fc2:	687b      	ldr	r3, [r7, #4]
 8006fc4:	685b      	ldr	r3, [r3, #4]
 8006fc6:	3304      	adds	r3, #4
 8006fc8:	601a      	str	r2, [r3, #0]
 8006fca:	3710      	adds	r7, #16
 8006fcc:	46bd      	mov	sp, r7
 8006fce:	bd80      	pop	{r7, pc}
 8006fd0:	0800b96c 	.word	0x0800b96c

08006fd4 <stm32__gpio__configure_alternate_function>:
 8006fd4:	b580      	push	{r7, lr}
 8006fd6:	b084      	sub	sp, #16
 8006fd8:	af00      	add	r7, sp, #0
 8006fda:	6078      	str	r0, [r7, #4]
 8006fdc:	460b      	mov	r3, r1
 8006fde:	70fb      	strb	r3, [r7, #3]
 8006fe0:	687b      	ldr	r3, [r7, #4]
 8006fe2:	891b      	ldrh	r3, [r3, #8]
 8006fe4:	4618      	mov	r0, r3
 8006fe6:	2101      	movs	r1, #1
 8006fe8:	f7ff fbe4 	bl	80067b4 <stm32__gpio__gpio_pinRP>
 8006fec:	4603      	mov	r3, r0
 8006fee:	2b00      	cmp	r3, #0
 8006ff0:	db01      	blt.n	8006ff6 <stm32__gpio__configure_alternate_function+0x22>
 8006ff2:	2b0f      	cmp	r3, #15
 8006ff4:	dd04      	ble.n	8007000 <stm32__gpio__configure_alternate_function+0x2c>
 8006ff6:	4808      	ldr	r0, [pc, #32]	; (8007018 <stm32__gpio__configure_alternate_function+0x44>)
 8006ff8:	f240 11d1 	movw	r1, #465	; 0x1d1
 8006ffc:	f7f9 f9a6 	bl	800034c <__gnat_last_chance_handler>
 8007000:	687b      	ldr	r3, [r7, #4]
 8007002:	891b      	ldrh	r3, [r3, #8]
 8007004:	4618      	mov	r0, r3
 8007006:	2101      	movs	r1, #1
 8007008:	f7ff fbd4 	bl	80067b4 <stm32__gpio__gpio_pinRP>
 800700c:	4603      	mov	r3, r0
 800700e:	60fb      	str	r3, [r7, #12]
 8007010:	bf00      	nop
 8007012:	3710      	adds	r7, #16
 8007014:	46bd      	mov	sp, r7
 8007016:	bd80      	pop	{r7, pc}
 8007018:	0800b96c 	.word	0x0800b96c

0800701c <stm32__gpio__configure_af_swd>:
 800701c:	b480      	push	{r7}
 800701e:	af00      	add	r7, sp, #0
 8007020:	4b06      	ldr	r3, [pc, #24]	; (800703c <stm32__gpio__configure_af_swd+0x20>)
 8007022:	3304      	adds	r3, #4
 8007024:	681b      	ldr	r3, [r3, #0]
 8007026:	2202      	movs	r2, #2
 8007028:	f362 631a 	bfi	r3, r2, #24, #3
 800702c:	4a03      	ldr	r2, [pc, #12]	; (800703c <stm32__gpio__configure_af_swd+0x20>)
 800702e:	3204      	adds	r2, #4
 8007030:	6013      	str	r3, [r2, #0]
 8007032:	46bd      	mov	sp, r7
 8007034:	f85d 7b04 	ldr.w	r7, [sp], #4
 8007038:	4770      	bx	lr
 800703a:	bf00      	nop
 800703c:	40010000 	.word	0x40010000

08007040 <stm32__gpio__interrupt_line_number>:
 8007040:	b580      	push	{r7, lr}
 8007042:	b082      	sub	sp, #8
 8007044:	af00      	add	r7, sp, #0
 8007046:	6078      	str	r0, [r7, #4]
 8007048:	687b      	ldr	r3, [r7, #4]
 800704a:	891b      	ldrh	r3, [r3, #8]
 800704c:	4618      	mov	r0, r3
 800704e:	2101      	movs	r1, #1
 8007050:	f7ff fbb0 	bl	80067b4 <stm32__gpio__gpio_pinRP>
 8007054:	4603      	mov	r3, r0
 8007056:	2b00      	cmp	r3, #0
 8007058:	db01      	blt.n	800705e <stm32__gpio__interrupt_line_number+0x1e>
 800705a:	2b16      	cmp	r3, #22
 800705c:	dd04      	ble.n	8007068 <stm32__gpio__interrupt_line_number+0x28>
 800705e:	4809      	ldr	r0, [pc, #36]	; (8007084 <stm32__gpio__interrupt_line_number+0x44>)
 8007060:	f44f 71fb 	mov.w	r1, #502	; 0x1f6
 8007064:	f7f9 f972 	bl	800034c <__gnat_last_chance_handler>
 8007068:	687b      	ldr	r3, [r7, #4]
 800706a:	891b      	ldrh	r3, [r3, #8]
 800706c:	4618      	mov	r0, r3
 800706e:	2101      	movs	r1, #1
 8007070:	f7ff fba0 	bl	80067b4 <stm32__gpio__gpio_pinRP>
 8007074:	4603      	mov	r3, r0
 8007076:	b2db      	uxtb	r3, r3
 8007078:	bf00      	nop
 800707a:	4618      	mov	r0, r3
 800707c:	3708      	adds	r7, #8
 800707e:	46bd      	mov	sp, r7
 8007080:	bd80      	pop	{r7, pc}
 8007082:	bf00      	nop
 8007084:	0800b96c 	.word	0x0800b96c

08007088 <stm32__gpio__configure_trigger>:
 8007088:	b580      	push	{r7, lr}
 800708a:	b084      	sub	sp, #16
 800708c:	af00      	add	r7, sp, #0
 800708e:	6078      	str	r0, [r7, #4]
 8007090:	460b      	mov	r3, r1
 8007092:	70fb      	strb	r3, [r7, #3]
 8007094:	687b      	ldr	r3, [r7, #4]
 8007096:	891b      	ldrh	r3, [r3, #8]
 8007098:	4618      	mov	r0, r3
 800709a:	2101      	movs	r1, #1
 800709c:	f7ff fb8a 	bl	80067b4 <stm32__gpio__gpio_pinRP>
 80070a0:	4603      	mov	r3, r0
 80070a2:	2b00      	cmp	r3, #0
 80070a4:	db01      	blt.n	80070aa <stm32__gpio__configure_trigger+0x22>
 80070a6:	2b16      	cmp	r3, #22
 80070a8:	dd04      	ble.n	80070b4 <stm32__gpio__configure_trigger+0x2c>
 80070aa:	4808      	ldr	r0, [pc, #32]	; (80070cc <stm32__gpio__configure_trigger+0x44>)
 80070ac:	f240 2102 	movw	r1, #514	; 0x202
 80070b0:	f7f9 f94c 	bl	800034c <__gnat_last_chance_handler>
 80070b4:	687b      	ldr	r3, [r7, #4]
 80070b6:	891b      	ldrh	r3, [r3, #8]
 80070b8:	4618      	mov	r0, r3
 80070ba:	2101      	movs	r1, #1
 80070bc:	f7ff fb7a 	bl	80067b4 <stm32__gpio__gpio_pinRP>
 80070c0:	4603      	mov	r3, r0
 80070c2:	73fb      	strb	r3, [r7, #15]
 80070c4:	bf00      	nop
 80070c6:	3710      	adds	r7, #16
 80070c8:	46bd      	mov	sp, r7
 80070ca:	bd80      	pop	{r7, pc}
 80070cc:	0800b96c 	.word	0x0800b96c

080070d0 <stm32__spi__spi_portIP>:
 80070d0:	b480      	push	{r7}
 80070d2:	b085      	sub	sp, #20
 80070d4:	af00      	add	r7, sp, #0
 80070d6:	60f8      	str	r0, [r7, #12]
 80070d8:	60b9      	str	r1, [r7, #8]
 80070da:	4613      	mov	r3, r2
 80070dc:	71fb      	strb	r3, [r7, #7]
 80070de:	79fb      	ldrb	r3, [r7, #7]
 80070e0:	2b00      	cmp	r3, #0
 80070e2:	d002      	beq.n	80070ea <stm32__spi__spi_portIP+0x1a>
 80070e4:	68fb      	ldr	r3, [r7, #12]
 80070e6:	4a05      	ldr	r2, [pc, #20]	; (80070fc <stm32__spi__spi_portIP+0x2c>)
 80070e8:	601a      	str	r2, [r3, #0]
 80070ea:	68fb      	ldr	r3, [r7, #12]
 80070ec:	68ba      	ldr	r2, [r7, #8]
 80070ee:	605a      	str	r2, [r3, #4]
 80070f0:	3714      	adds	r7, #20
 80070f2:	46bd      	mov	sp, r7
 80070f4:	f85d 7b04 	ldr.w	r7, [sp], #4
 80070f8:	4770      	bx	lr
 80070fa:	bf00      	nop
 80070fc:	0800badc 	.word	0x0800badc

08007100 <stm32__spi___size__2>:
 8007100:	b490      	push	{r4, r7}
 8007102:	b082      	sub	sp, #8
 8007104:	af00      	add	r7, sp, #0
 8007106:	6078      	str	r0, [r7, #4]
 8007108:	f04f 0340 	mov.w	r3, #64	; 0x40
 800710c:	f04f 0400 	mov.w	r4, #0
 8007110:	4618      	mov	r0, r3
 8007112:	4621      	mov	r1, r4
 8007114:	3708      	adds	r7, #8
 8007116:	46bd      	mov	sp, r7
 8007118:	bc90      	pop	{r4, r7}
 800711a:	4770      	bx	lr

0800711c <stm32__spi__configure>:
 800711c:	b580      	push	{r7, lr}
 800711e:	b082      	sub	sp, #8
 8007120:	af00      	add	r7, sp, #0
 8007122:	6078      	str	r0, [r7, #4]
 8007124:	6039      	str	r1, [r7, #0]
 8007126:	683b      	ldr	r3, [r7, #0]
 8007128:	785b      	ldrb	r3, [r3, #1]
 800712a:	2b01      	cmp	r3, #1
 800712c:	d903      	bls.n	8007136 <stm32__spi__configure+0x1a>
 800712e:	4896      	ldr	r0, [pc, #600]	; (8007388 <stm32__spi__configure+0x26c>)
 8007130:	214b      	movs	r1, #75	; 0x4b
 8007132:	f7f9 f90b 	bl	800034c <__gnat_last_chance_handler>
 8007136:	683b      	ldr	r3, [r7, #0]
 8007138:	785b      	ldrb	r3, [r3, #1]
 800713a:	2b00      	cmp	r3, #0
 800713c:	d114      	bne.n	8007168 <stm32__spi__configure+0x4c>
 800713e:	687b      	ldr	r3, [r7, #4]
 8007140:	685b      	ldr	r3, [r3, #4]
 8007142:	681b      	ldr	r3, [r3, #0]
 8007144:	461a      	mov	r2, r3
 8007146:	4613      	mov	r3, r2
 8007148:	f043 0204 	orr.w	r2, r3, #4
 800714c:	687b      	ldr	r3, [r7, #4]
 800714e:	685b      	ldr	r3, [r3, #4]
 8007150:	601a      	str	r2, [r3, #0]
 8007152:	687b      	ldr	r3, [r7, #4]
 8007154:	685b      	ldr	r3, [r3, #4]
 8007156:	681b      	ldr	r3, [r3, #0]
 8007158:	461a      	mov	r2, r3
 800715a:	4613      	mov	r3, r2
 800715c:	f443 7280 	orr.w	r2, r3, #256	; 0x100
 8007160:	687b      	ldr	r3, [r7, #4]
 8007162:	685b      	ldr	r3, [r3, #4]
 8007164:	601a      	str	r2, [r3, #0]
 8007166:	e00f      	b.n	8007188 <stm32__spi__configure+0x6c>
 8007168:	687b      	ldr	r3, [r7, #4]
 800716a:	685b      	ldr	r3, [r3, #4]
 800716c:	681b      	ldr	r3, [r3, #0]
 800716e:	f36f 0382 	bfc	r3, #2, #1
 8007172:	687a      	ldr	r2, [r7, #4]
 8007174:	6852      	ldr	r2, [r2, #4]
 8007176:	6013      	str	r3, [r2, #0]
 8007178:	687b      	ldr	r3, [r7, #4]
 800717a:	685b      	ldr	r3, [r3, #4]
 800717c:	681b      	ldr	r3, [r3, #0]
 800717e:	f36f 2308 	bfc	r3, #8, #1
 8007182:	687a      	ldr	r2, [r7, #4]
 8007184:	6852      	ldr	r2, [r2, #4]
 8007186:	6013      	str	r3, [r2, #0]
 8007188:	683b      	ldr	r3, [r7, #0]
 800718a:	781b      	ldrb	r3, [r3, #0]
 800718c:	2b03      	cmp	r3, #3
 800718e:	d903      	bls.n	8007198 <stm32__spi__configure+0x7c>
 8007190:	487d      	ldr	r0, [pc, #500]	; (8007388 <stm32__spi__configure+0x26c>)
 8007192:	2154      	movs	r1, #84	; 0x54
 8007194:	f7f9 f8da 	bl	800034c <__gnat_last_chance_handler>
 8007198:	683b      	ldr	r3, [r7, #0]
 800719a:	781b      	ldrb	r3, [r3, #0]
 800719c:	2b01      	cmp	r3, #1
 800719e:	d01d      	beq.n	80071dc <stm32__spi__configure+0xc0>
 80071a0:	2b01      	cmp	r3, #1
 80071a2:	d302      	bcc.n	80071aa <stm32__spi__configure+0x8e>
 80071a4:	2b02      	cmp	r3, #2
 80071a6:	d034      	beq.n	8007212 <stm32__spi__configure+0xf6>
 80071a8:	e04e      	b.n	8007248 <stm32__spi__configure+0x12c>
 80071aa:	687b      	ldr	r3, [r7, #4]
 80071ac:	685b      	ldr	r3, [r3, #4]
 80071ae:	681b      	ldr	r3, [r3, #0]
 80071b0:	f36f 33cf 	bfc	r3, #15, #1
 80071b4:	687a      	ldr	r2, [r7, #4]
 80071b6:	6852      	ldr	r2, [r2, #4]
 80071b8:	6013      	str	r3, [r2, #0]
 80071ba:	687b      	ldr	r3, [r7, #4]
 80071bc:	685b      	ldr	r3, [r3, #4]
 80071be:	681b      	ldr	r3, [r3, #0]
 80071c0:	f36f 338e 	bfc	r3, #14, #1
 80071c4:	687a      	ldr	r2, [r7, #4]
 80071c6:	6852      	ldr	r2, [r2, #4]
 80071c8:	6013      	str	r3, [r2, #0]
 80071ca:	687b      	ldr	r3, [r7, #4]
 80071cc:	685b      	ldr	r3, [r3, #4]
 80071ce:	681b      	ldr	r3, [r3, #0]
 80071d0:	f36f 238a 	bfc	r3, #10, #1
 80071d4:	687a      	ldr	r2, [r7, #4]
 80071d6:	6852      	ldr	r2, [r2, #4]
 80071d8:	6013      	str	r3, [r2, #0]
 80071da:	e051      	b.n	8007280 <stm32__spi__configure+0x164>
 80071dc:	687b      	ldr	r3, [r7, #4]
 80071de:	685b      	ldr	r3, [r3, #4]
 80071e0:	681b      	ldr	r3, [r3, #0]
 80071e2:	f36f 33cf 	bfc	r3, #15, #1
 80071e6:	687a      	ldr	r2, [r7, #4]
 80071e8:	6852      	ldr	r2, [r2, #4]
 80071ea:	6013      	str	r3, [r2, #0]
 80071ec:	687b      	ldr	r3, [r7, #4]
 80071ee:	685b      	ldr	r3, [r3, #4]
 80071f0:	681b      	ldr	r3, [r3, #0]
 80071f2:	f36f 338e 	bfc	r3, #14, #1
 80071f6:	687a      	ldr	r2, [r7, #4]
 80071f8:	6852      	ldr	r2, [r2, #4]
 80071fa:	6013      	str	r3, [r2, #0]
 80071fc:	687b      	ldr	r3, [r7, #4]
 80071fe:	685b      	ldr	r3, [r3, #4]
 8007200:	681b      	ldr	r3, [r3, #0]
 8007202:	461a      	mov	r2, r3
 8007204:	4613      	mov	r3, r2
 8007206:	f443 6280 	orr.w	r2, r3, #1024	; 0x400
 800720a:	687b      	ldr	r3, [r7, #4]
 800720c:	685b      	ldr	r3, [r3, #4]
 800720e:	601a      	str	r2, [r3, #0]
 8007210:	e036      	b.n	8007280 <stm32__spi__configure+0x164>
 8007212:	687b      	ldr	r3, [r7, #4]
 8007214:	685b      	ldr	r3, [r3, #4]
 8007216:	681b      	ldr	r3, [r3, #0]
 8007218:	461a      	mov	r2, r3
 800721a:	4613      	mov	r3, r2
 800721c:	f443 4200 	orr.w	r2, r3, #32768	; 0x8000
 8007220:	687b      	ldr	r3, [r7, #4]
 8007222:	685b      	ldr	r3, [r3, #4]
 8007224:	601a      	str	r2, [r3, #0]
 8007226:	687b      	ldr	r3, [r7, #4]
 8007228:	685b      	ldr	r3, [r3, #4]
 800722a:	681b      	ldr	r3, [r3, #0]
 800722c:	f36f 338e 	bfc	r3, #14, #1
 8007230:	687a      	ldr	r2, [r7, #4]
 8007232:	6852      	ldr	r2, [r2, #4]
 8007234:	6013      	str	r3, [r2, #0]
 8007236:	687b      	ldr	r3, [r7, #4]
 8007238:	685b      	ldr	r3, [r3, #4]
 800723a:	681b      	ldr	r3, [r3, #0]
 800723c:	f36f 238a 	bfc	r3, #10, #1
 8007240:	687a      	ldr	r2, [r7, #4]
 8007242:	6852      	ldr	r2, [r2, #4]
 8007244:	6013      	str	r3, [r2, #0]
 8007246:	e01b      	b.n	8007280 <stm32__spi__configure+0x164>
 8007248:	687b      	ldr	r3, [r7, #4]
 800724a:	685b      	ldr	r3, [r3, #4]
 800724c:	681b      	ldr	r3, [r3, #0]
 800724e:	461a      	mov	r2, r3
 8007250:	4613      	mov	r3, r2
 8007252:	f443 4200 	orr.w	r2, r3, #32768	; 0x8000
 8007256:	687b      	ldr	r3, [r7, #4]
 8007258:	685b      	ldr	r3, [r3, #4]
 800725a:	601a      	str	r2, [r3, #0]
 800725c:	687b      	ldr	r3, [r7, #4]
 800725e:	685b      	ldr	r3, [r3, #4]
 8007260:	681b      	ldr	r3, [r3, #0]
 8007262:	461a      	mov	r2, r3
 8007264:	4613      	mov	r3, r2
 8007266:	f443 4280 	orr.w	r2, r3, #16384	; 0x4000
 800726a:	687b      	ldr	r3, [r7, #4]
 800726c:	685b      	ldr	r3, [r3, #4]
 800726e:	601a      	str	r2, [r3, #0]
 8007270:	687b      	ldr	r3, [r7, #4]
 8007272:	685b      	ldr	r3, [r3, #4]
 8007274:	681b      	ldr	r3, [r3, #0]
 8007276:	f36f 238a 	bfc	r3, #10, #1
 800727a:	687a      	ldr	r2, [r7, #4]
 800727c:	6852      	ldr	r2, [r2, #4]
 800727e:	6013      	str	r3, [r2, #0]
 8007280:	bf00      	nop
 8007282:	687b      	ldr	r3, [r7, #4]
 8007284:	685b      	ldr	r3, [r3, #4]
 8007286:	681b      	ldr	r3, [r3, #0]
 8007288:	683a      	ldr	r2, [r7, #0]
 800728a:	7892      	ldrb	r2, [r2, #2]
 800728c:	2a01      	cmp	r2, #1
 800728e:	bf0c      	ite	eq
 8007290:	2201      	moveq	r2, #1
 8007292:	2200      	movne	r2, #0
 8007294:	b2d2      	uxtb	r2, r2
 8007296:	f002 0201 	and.w	r2, r2, #1
 800729a:	b2d2      	uxtb	r2, r2
 800729c:	f362 23cb 	bfi	r3, r2, #11, #1
 80072a0:	687a      	ldr	r2, [r7, #4]
 80072a2:	6852      	ldr	r2, [r2, #4]
 80072a4:	6013      	str	r3, [r2, #0]
 80072a6:	687b      	ldr	r3, [r7, #4]
 80072a8:	685b      	ldr	r3, [r3, #4]
 80072aa:	681b      	ldr	r3, [r3, #0]
 80072ac:	683a      	ldr	r2, [r7, #0]
 80072ae:	78d2      	ldrb	r2, [r2, #3]
 80072b0:	2a00      	cmp	r2, #0
 80072b2:	bf0c      	ite	eq
 80072b4:	2201      	moveq	r2, #1
 80072b6:	2200      	movne	r2, #0
 80072b8:	b2d2      	uxtb	r2, r2
 80072ba:	f002 0201 	and.w	r2, r2, #1
 80072be:	b2d2      	uxtb	r2, r2
 80072c0:	f362 0341 	bfi	r3, r2, #1, #1
 80072c4:	687a      	ldr	r2, [r7, #4]
 80072c6:	6852      	ldr	r2, [r2, #4]
 80072c8:	6013      	str	r3, [r2, #0]
 80072ca:	687b      	ldr	r3, [r7, #4]
 80072cc:	685b      	ldr	r3, [r3, #4]
 80072ce:	681b      	ldr	r3, [r3, #0]
 80072d0:	683a      	ldr	r2, [r7, #0]
 80072d2:	7912      	ldrb	r2, [r2, #4]
 80072d4:	2a01      	cmp	r2, #1
 80072d6:	bf0c      	ite	eq
 80072d8:	2201      	moveq	r2, #1
 80072da:	2200      	movne	r2, #0
 80072dc:	b2d2      	uxtb	r2, r2
 80072de:	f002 0201 	and.w	r2, r2, #1
 80072e2:	b2d2      	uxtb	r2, r2
 80072e4:	f362 0300 	bfi	r3, r2, #0, #1
 80072e8:	687a      	ldr	r2, [r7, #4]
 80072ea:	6852      	ldr	r2, [r2, #4]
 80072ec:	6013      	str	r3, [r2, #0]
 80072ee:	687b      	ldr	r3, [r7, #4]
 80072f0:	685b      	ldr	r3, [r3, #4]
 80072f2:	681b      	ldr	r3, [r3, #0]
 80072f4:	683a      	ldr	r2, [r7, #0]
 80072f6:	7952      	ldrb	r2, [r2, #5]
 80072f8:	2a00      	cmp	r2, #0
 80072fa:	bf0c      	ite	eq
 80072fc:	2201      	moveq	r2, #1
 80072fe:	2200      	movne	r2, #0
 8007300:	b2d2      	uxtb	r2, r2
 8007302:	f002 0201 	and.w	r2, r2, #1
 8007306:	b2d2      	uxtb	r2, r2
 8007308:	f362 2349 	bfi	r3, r2, #9, #1
 800730c:	687a      	ldr	r2, [r7, #4]
 800730e:	6852      	ldr	r2, [r2, #4]
 8007310:	6013      	str	r3, [r2, #0]
 8007312:	687b      	ldr	r3, [r7, #4]
 8007314:	685b      	ldr	r3, [r3, #4]
 8007316:	681b      	ldr	r3, [r3, #0]
 8007318:	683a      	ldr	r2, [r7, #0]
 800731a:	7992      	ldrb	r2, [r2, #6]
 800731c:	4611      	mov	r1, r2
 800731e:	4a1b      	ldr	r2, [pc, #108]	; (800738c <stm32__spi__configure+0x270>)
 8007320:	5c52      	ldrb	r2, [r2, r1]
 8007322:	f002 0207 	and.w	r2, r2, #7
 8007326:	b2d2      	uxtb	r2, r2
 8007328:	f362 03c5 	bfi	r3, r2, #3, #3
 800732c:	687a      	ldr	r2, [r7, #4]
 800732e:	6852      	ldr	r2, [r2, #4]
 8007330:	6013      	str	r3, [r2, #0]
 8007332:	687b      	ldr	r3, [r7, #4]
 8007334:	685b      	ldr	r3, [r3, #4]
 8007336:	681b      	ldr	r3, [r3, #0]
 8007338:	683a      	ldr	r2, [r7, #0]
 800733a:	79d2      	ldrb	r2, [r2, #7]
 800733c:	2a01      	cmp	r2, #1
 800733e:	bf0c      	ite	eq
 8007340:	2201      	moveq	r2, #1
 8007342:	2200      	movne	r2, #0
 8007344:	b2d2      	uxtb	r2, r2
 8007346:	f002 0201 	and.w	r2, r2, #1
 800734a:	b2d2      	uxtb	r2, r2
 800734c:	f362 13c7 	bfi	r3, r2, #7, #1
 8007350:	687a      	ldr	r2, [r7, #4]
 8007352:	6852      	ldr	r2, [r2, #4]
 8007354:	6013      	str	r3, [r2, #0]
 8007356:	687b      	ldr	r3, [r7, #4]
 8007358:	685b      	ldr	r3, [r3, #4]
 800735a:	331c      	adds	r3, #28
 800735c:	681b      	ldr	r3, [r3, #0]
 800735e:	f36f 23cb 	bfc	r3, #11, #1
 8007362:	687a      	ldr	r2, [r7, #4]
 8007364:	6852      	ldr	r2, [r2, #4]
 8007366:	321c      	adds	r2, #28
 8007368:	6013      	str	r3, [r2, #0]
 800736a:	687b      	ldr	r3, [r7, #4]
 800736c:	685b      	ldr	r3, [r3, #4]
 800736e:	3310      	adds	r3, #16
 8007370:	681b      	ldr	r3, [r3, #0]
 8007372:	683a      	ldr	r2, [r7, #0]
 8007374:	8912      	ldrh	r2, [r2, #8]
 8007376:	f362 030f 	bfi	r3, r2, #0, #16
 800737a:	687a      	ldr	r2, [r7, #4]
 800737c:	6852      	ldr	r2, [r2, #4]
 800737e:	3210      	adds	r2, #16
 8007380:	6013      	str	r3, [r2, #0]
 8007382:	3708      	adds	r7, #8
 8007384:	46bd      	mov	sp, r7
 8007386:	bd80      	pop	{r7, pc}
 8007388:	0800bb80 	.word	0x0800bb80
 800738c:	0800bb78 	.word	0x0800bb78

08007390 <stm32__spi__enable>:
 8007390:	b480      	push	{r7}
 8007392:	b083      	sub	sp, #12
 8007394:	af00      	add	r7, sp, #0
 8007396:	6078      	str	r0, [r7, #4]
 8007398:	687b      	ldr	r3, [r7, #4]
 800739a:	685b      	ldr	r3, [r3, #4]
 800739c:	681b      	ldr	r3, [r3, #0]
 800739e:	461a      	mov	r2, r3
 80073a0:	4613      	mov	r3, r2
 80073a2:	f043 0240 	orr.w	r2, r3, #64	; 0x40
 80073a6:	687b      	ldr	r3, [r7, #4]
 80073a8:	685b      	ldr	r3, [r3, #4]
 80073aa:	601a      	str	r2, [r3, #0]
 80073ac:	370c      	adds	r7, #12
 80073ae:	46bd      	mov	sp, r7
 80073b0:	f85d 7b04 	ldr.w	r7, [sp], #4
 80073b4:	4770      	bx	lr
 80073b6:	bf00      	nop

080073b8 <stm32__spi__disable>:
 80073b8:	b480      	push	{r7}
 80073ba:	b083      	sub	sp, #12
 80073bc:	af00      	add	r7, sp, #0
 80073be:	6078      	str	r0, [r7, #4]
 80073c0:	687b      	ldr	r3, [r7, #4]
 80073c2:	685b      	ldr	r3, [r3, #4]
 80073c4:	681b      	ldr	r3, [r3, #0]
 80073c6:	f36f 1386 	bfc	r3, #6, #1
 80073ca:	687a      	ldr	r2, [r7, #4]
 80073cc:	6852      	ldr	r2, [r2, #4]
 80073ce:	6013      	str	r3, [r2, #0]
 80073d0:	370c      	adds	r7, #12
 80073d2:	46bd      	mov	sp, r7
 80073d4:	f85d 7b04 	ldr.w	r7, [sp], #4
 80073d8:	4770      	bx	lr
 80073da:	bf00      	nop

080073dc <stm32__spi__enabled>:
 80073dc:	b480      	push	{r7}
 80073de:	b083      	sub	sp, #12
 80073e0:	af00      	add	r7, sp, #0
 80073e2:	6078      	str	r0, [r7, #4]
 80073e4:	687b      	ldr	r3, [r7, #4]
 80073e6:	685b      	ldr	r3, [r3, #4]
 80073e8:	681b      	ldr	r3, [r3, #0]
 80073ea:	f3c3 1380 	ubfx	r3, r3, #6, #1
 80073ee:	b2db      	uxtb	r3, r3
 80073f0:	bf00      	nop
 80073f2:	4618      	mov	r0, r3
 80073f4:	370c      	adds	r7, #12
 80073f6:	46bd      	mov	sp, r7
 80073f8:	f85d 7b04 	ldr.w	r7, [sp], #4
 80073fc:	4770      	bx	lr
 80073fe:	bf00      	nop

08007400 <stm32__spi__send>:
 8007400:	b480      	push	{r7}
 8007402:	b083      	sub	sp, #12
 8007404:	af00      	add	r7, sp, #0
 8007406:	6078      	str	r0, [r7, #4]
 8007408:	460b      	mov	r3, r1
 800740a:	807b      	strh	r3, [r7, #2]
 800740c:	687b      	ldr	r3, [r7, #4]
 800740e:	685b      	ldr	r3, [r3, #4]
 8007410:	330c      	adds	r3, #12
 8007412:	681b      	ldr	r3, [r3, #0]
 8007414:	887a      	ldrh	r2, [r7, #2]
 8007416:	f362 030f 	bfi	r3, r2, #0, #16
 800741a:	687a      	ldr	r2, [r7, #4]
 800741c:	6852      	ldr	r2, [r2, #4]
 800741e:	320c      	adds	r2, #12
 8007420:	6013      	str	r3, [r2, #0]
 8007422:	370c      	adds	r7, #12
 8007424:	46bd      	mov	sp, r7
 8007426:	f85d 7b04 	ldr.w	r7, [sp], #4
 800742a:	4770      	bx	lr

0800742c <stm32__spi__data>:
 800742c:	b480      	push	{r7}
 800742e:	b083      	sub	sp, #12
 8007430:	af00      	add	r7, sp, #0
 8007432:	6078      	str	r0, [r7, #4]
 8007434:	687b      	ldr	r3, [r7, #4]
 8007436:	685b      	ldr	r3, [r3, #4]
 8007438:	330c      	adds	r3, #12
 800743a:	681b      	ldr	r3, [r3, #0]
 800743c:	b29b      	uxth	r3, r3
 800743e:	bf00      	nop
 8007440:	4618      	mov	r0, r3
 8007442:	370c      	adds	r7, #12
 8007444:	46bd      	mov	sp, r7
 8007446:	f85d 7b04 	ldr.w	r7, [sp], #4
 800744a:	4770      	bx	lr

0800744c <stm32__spi__send__2>:
 800744c:	b580      	push	{r7, lr}
 800744e:	b082      	sub	sp, #8
 8007450:	af00      	add	r7, sp, #0
 8007452:	6078      	str	r0, [r7, #4]
 8007454:	460b      	mov	r3, r1
 8007456:	70fb      	strb	r3, [r7, #3]
 8007458:	78fb      	ldrb	r3, [r7, #3]
 800745a:	b29b      	uxth	r3, r3
 800745c:	6878      	ldr	r0, [r7, #4]
 800745e:	4619      	mov	r1, r3
 8007460:	f7ff ffce 	bl	8007400 <stm32__spi__send>
 8007464:	3708      	adds	r7, #8
 8007466:	46bd      	mov	sp, r7
 8007468:	bd80      	pop	{r7, pc}
 800746a:	bf00      	nop

0800746c <stm32__spi__data__2>:
 800746c:	b580      	push	{r7, lr}
 800746e:	b082      	sub	sp, #8
 8007470:	af00      	add	r7, sp, #0
 8007472:	6078      	str	r0, [r7, #4]
 8007474:	6878      	ldr	r0, [r7, #4]
 8007476:	f7ff ffd9 	bl	800742c <stm32__spi__data>
 800747a:	4603      	mov	r3, r0
 800747c:	2bff      	cmp	r3, #255	; 0xff
 800747e:	d903      	bls.n	8007488 <stm32__spi__data__2+0x1c>
 8007480:	4804      	ldr	r0, [pc, #16]	; (8007494 <stm32__spi__data__2+0x28>)
 8007482:	21b0      	movs	r1, #176	; 0xb0
 8007484:	f7f8 ff62 	bl	800034c <__gnat_last_chance_handler>
 8007488:	b2db      	uxtb	r3, r3
 800748a:	bf00      	nop
 800748c:	4618      	mov	r0, r3
 800748e:	3708      	adds	r7, #8
 8007490:	46bd      	mov	sp, r7
 8007492:	bd80      	pop	{r7, pc}
 8007494:	0800bb80 	.word	0x0800bb80

08007498 <stm32__spi__is_busy>:
 8007498:	b580      	push	{r7, lr}
 800749a:	b082      	sub	sp, #8
 800749c:	af00      	add	r7, sp, #0
 800749e:	6078      	str	r0, [r7, #4]
 80074a0:	6878      	ldr	r0, [r7, #4]
 80074a2:	f000 f82d 	bl	8007500 <stm32__spi__rx_is_empty>
 80074a6:	4603      	mov	r3, r0
 80074a8:	2b00      	cmp	r3, #0
 80074aa:	d008      	beq.n	80074be <stm32__spi__is_busy+0x26>
 80074ac:	6878      	ldr	r0, [r7, #4]
 80074ae:	f000 f815 	bl	80074dc <stm32__spi__tx_is_empty>
 80074b2:	4603      	mov	r3, r0
 80074b4:	f083 0301 	eor.w	r3, r3, #1
 80074b8:	b2db      	uxtb	r3, r3
 80074ba:	2b00      	cmp	r3, #0
 80074bc:	d105      	bne.n	80074ca <stm32__spi__is_busy+0x32>
 80074be:	6878      	ldr	r0, [r7, #4]
 80074c0:	f000 f834 	bl	800752c <stm32__spi__busy>
 80074c4:	4603      	mov	r3, r0
 80074c6:	2b00      	cmp	r3, #0
 80074c8:	d001      	beq.n	80074ce <stm32__spi__is_busy+0x36>
 80074ca:	2301      	movs	r3, #1
 80074cc:	e000      	b.n	80074d0 <stm32__spi__is_busy+0x38>
 80074ce:	2300      	movs	r3, #0
 80074d0:	bf00      	nop
 80074d2:	4618      	mov	r0, r3
 80074d4:	3708      	adds	r7, #8
 80074d6:	46bd      	mov	sp, r7
 80074d8:	bd80      	pop	{r7, pc}
 80074da:	bf00      	nop

080074dc <stm32__spi__tx_is_empty>:
 80074dc:	b480      	push	{r7}
 80074de:	b083      	sub	sp, #12
 80074e0:	af00      	add	r7, sp, #0
 80074e2:	6078      	str	r0, [r7, #4]
 80074e4:	687b      	ldr	r3, [r7, #4]
 80074e6:	685b      	ldr	r3, [r3, #4]
 80074e8:	3308      	adds	r3, #8
 80074ea:	681b      	ldr	r3, [r3, #0]
 80074ec:	f3c3 0340 	ubfx	r3, r3, #1, #1
 80074f0:	b2db      	uxtb	r3, r3
 80074f2:	bf00      	nop
 80074f4:	4618      	mov	r0, r3
 80074f6:	370c      	adds	r7, #12
 80074f8:	46bd      	mov	sp, r7
 80074fa:	f85d 7b04 	ldr.w	r7, [sp], #4
 80074fe:	4770      	bx	lr

08007500 <stm32__spi__rx_is_empty>:
 8007500:	b480      	push	{r7}
 8007502:	b083      	sub	sp, #12
 8007504:	af00      	add	r7, sp, #0
 8007506:	6078      	str	r0, [r7, #4]
 8007508:	687b      	ldr	r3, [r7, #4]
 800750a:	685b      	ldr	r3, [r3, #4]
 800750c:	3308      	adds	r3, #8
 800750e:	681b      	ldr	r3, [r3, #0]
 8007510:	f3c3 0300 	ubfx	r3, r3, #0, #1
 8007514:	b2db      	uxtb	r3, r3
 8007516:	f083 0301 	eor.w	r3, r3, #1
 800751a:	b2db      	uxtb	r3, r3
 800751c:	bf00      	nop
 800751e:	4618      	mov	r0, r3
 8007520:	370c      	adds	r7, #12
 8007522:	46bd      	mov	sp, r7
 8007524:	f85d 7b04 	ldr.w	r7, [sp], #4
 8007528:	4770      	bx	lr
 800752a:	bf00      	nop

0800752c <stm32__spi__busy>:
 800752c:	b480      	push	{r7}
 800752e:	b083      	sub	sp, #12
 8007530:	af00      	add	r7, sp, #0
 8007532:	6078      	str	r0, [r7, #4]
 8007534:	687b      	ldr	r3, [r7, #4]
 8007536:	685b      	ldr	r3, [r3, #4]
 8007538:	3308      	adds	r3, #8
 800753a:	681b      	ldr	r3, [r3, #0]
 800753c:	f3c3 13c0 	ubfx	r3, r3, #7, #1
 8007540:	b2db      	uxtb	r3, r3
 8007542:	bf00      	nop
 8007544:	4618      	mov	r0, r3
 8007546:	370c      	adds	r7, #12
 8007548:	46bd      	mov	sp, r7
 800754a:	f85d 7b04 	ldr.w	r7, [sp], #4
 800754e:	4770      	bx	lr

08007550 <stm32__spi__current_mode>:
 8007550:	b480      	push	{r7}
 8007552:	b083      	sub	sp, #12
 8007554:	af00      	add	r7, sp, #0
 8007556:	6078      	str	r0, [r7, #4]
 8007558:	687b      	ldr	r3, [r7, #4]
 800755a:	685b      	ldr	r3, [r3, #4]
 800755c:	681b      	ldr	r3, [r3, #0]
 800755e:	f3c3 0380 	ubfx	r3, r3, #2, #1
 8007562:	b2db      	uxtb	r3, r3
 8007564:	461a      	mov	r2, r3
 8007566:	687b      	ldr	r3, [r7, #4]
 8007568:	685b      	ldr	r3, [r3, #4]
 800756a:	681b      	ldr	r3, [r3, #0]
 800756c:	f3c3 2300 	ubfx	r3, r3, #8, #1
 8007570:	b2db      	uxtb	r3, r3
 8007572:	4013      	ands	r3, r2
 8007574:	b2db      	uxtb	r3, r3
 8007576:	2b00      	cmp	r3, #0
 8007578:	d001      	beq.n	800757e <stm32__spi__current_mode+0x2e>
 800757a:	2300      	movs	r3, #0
 800757c:	e000      	b.n	8007580 <stm32__spi__current_mode+0x30>
 800757e:	2301      	movs	r3, #1
 8007580:	bf00      	nop
 8007582:	4618      	mov	r0, r3
 8007584:	370c      	adds	r7, #12
 8007586:	46bd      	mov	sp, r7
 8007588:	f85d 7b04 	ldr.w	r7, [sp], #4
 800758c:	4770      	bx	lr
 800758e:	bf00      	nop

08007590 <stm32__spi__current_data_direction>:
 8007590:	b480      	push	{r7}
 8007592:	b083      	sub	sp, #12
 8007594:	af00      	add	r7, sp, #0
 8007596:	6078      	str	r0, [r7, #4]
 8007598:	687b      	ldr	r3, [r7, #4]
 800759a:	685b      	ldr	r3, [r3, #4]
 800759c:	681b      	ldr	r3, [r3, #0]
 800759e:	f3c3 33c0 	ubfx	r3, r3, #15, #1
 80075a2:	b2db      	uxtb	r3, r3
 80075a4:	f083 0301 	eor.w	r3, r3, #1
 80075a8:	b2db      	uxtb	r3, r3
 80075aa:	2b00      	cmp	r3, #0
 80075ac:	d00e      	beq.n	80075cc <stm32__spi__current_data_direction+0x3c>
 80075ae:	687b      	ldr	r3, [r7, #4]
 80075b0:	685b      	ldr	r3, [r3, #4]
 80075b2:	681b      	ldr	r3, [r3, #0]
 80075b4:	f3c3 2380 	ubfx	r3, r3, #10, #1
 80075b8:	b2db      	uxtb	r3, r3
 80075ba:	f083 0301 	eor.w	r3, r3, #1
 80075be:	b2db      	uxtb	r3, r3
 80075c0:	2b00      	cmp	r3, #0
 80075c2:	d001      	beq.n	80075c8 <stm32__spi__current_data_direction+0x38>
 80075c4:	2300      	movs	r3, #0
 80075c6:	e00f      	b.n	80075e8 <stm32__spi__current_data_direction+0x58>
 80075c8:	2301      	movs	r3, #1
 80075ca:	e00d      	b.n	80075e8 <stm32__spi__current_data_direction+0x58>
 80075cc:	687b      	ldr	r3, [r7, #4]
 80075ce:	685b      	ldr	r3, [r3, #4]
 80075d0:	681b      	ldr	r3, [r3, #0]
 80075d2:	f3c3 3380 	ubfx	r3, r3, #14, #1
 80075d6:	b2db      	uxtb	r3, r3
 80075d8:	f083 0301 	eor.w	r3, r3, #1
 80075dc:	b2db      	uxtb	r3, r3
 80075de:	2b00      	cmp	r3, #0
 80075e0:	d001      	beq.n	80075e6 <stm32__spi__current_data_direction+0x56>
 80075e2:	2302      	movs	r3, #2
 80075e4:	e000      	b.n	80075e8 <stm32__spi__current_data_direction+0x58>
 80075e6:	2303      	movs	r3, #3
 80075e8:	bf00      	nop
 80075ea:	4618      	mov	r0, r3
 80075ec:	370c      	adds	r7, #12
 80075ee:	46bd      	mov	sp, r7
 80075f0:	f85d 7b04 	ldr.w	r7, [sp], #4
 80075f4:	4770      	bx	lr
 80075f6:	bf00      	nop

080075f8 <stm32__spi__crc_enabled>:
 80075f8:	b480      	push	{r7}
 80075fa:	b083      	sub	sp, #12
 80075fc:	af00      	add	r7, sp, #0
 80075fe:	6078      	str	r0, [r7, #4]
 8007600:	687b      	ldr	r3, [r7, #4]
 8007602:	685b      	ldr	r3, [r3, #4]
 8007604:	681b      	ldr	r3, [r3, #0]
 8007606:	f3c3 3340 	ubfx	r3, r3, #13, #1
 800760a:	b2db      	uxtb	r3, r3
 800760c:	bf00      	nop
 800760e:	4618      	mov	r0, r3
 8007610:	370c      	adds	r7, #12
 8007612:	46bd      	mov	sp, r7
 8007614:	f85d 7b04 	ldr.w	r7, [sp], #4
 8007618:	4770      	bx	lr
 800761a:	bf00      	nop

0800761c <stm32__spi__channel_side_indicated>:
 800761c:	b480      	push	{r7}
 800761e:	b083      	sub	sp, #12
 8007620:	af00      	add	r7, sp, #0
 8007622:	6078      	str	r0, [r7, #4]
 8007624:	687b      	ldr	r3, [r7, #4]
 8007626:	685b      	ldr	r3, [r3, #4]
 8007628:	3308      	adds	r3, #8
 800762a:	681b      	ldr	r3, [r3, #0]
 800762c:	f3c3 0380 	ubfx	r3, r3, #2, #1
 8007630:	b2db      	uxtb	r3, r3
 8007632:	bf00      	nop
 8007634:	4618      	mov	r0, r3
 8007636:	370c      	adds	r7, #12
 8007638:	46bd      	mov	sp, r7
 800763a:	f85d 7b04 	ldr.w	r7, [sp], #4
 800763e:	4770      	bx	lr

08007640 <stm32__spi__underrun_indicated>:
 8007640:	b480      	push	{r7}
 8007642:	b083      	sub	sp, #12
 8007644:	af00      	add	r7, sp, #0
 8007646:	6078      	str	r0, [r7, #4]
 8007648:	687b      	ldr	r3, [r7, #4]
 800764a:	685b      	ldr	r3, [r3, #4]
 800764c:	3308      	adds	r3, #8
 800764e:	681b      	ldr	r3, [r3, #0]
 8007650:	f3c3 03c0 	ubfx	r3, r3, #3, #1
 8007654:	b2db      	uxtb	r3, r3
 8007656:	bf00      	nop
 8007658:	4618      	mov	r0, r3
 800765a:	370c      	adds	r7, #12
 800765c:	46bd      	mov	sp, r7
 800765e:	f85d 7b04 	ldr.w	r7, [sp], #4
 8007662:	4770      	bx	lr

08007664 <stm32__spi__crc_error_indicated>:
 8007664:	b480      	push	{r7}
 8007666:	b083      	sub	sp, #12
 8007668:	af00      	add	r7, sp, #0
 800766a:	6078      	str	r0, [r7, #4]
 800766c:	687b      	ldr	r3, [r7, #4]
 800766e:	685b      	ldr	r3, [r3, #4]
 8007670:	3308      	adds	r3, #8
 8007672:	681b      	ldr	r3, [r3, #0]
 8007674:	f3c3 1300 	ubfx	r3, r3, #4, #1
 8007678:	b2db      	uxtb	r3, r3
 800767a:	bf00      	nop
 800767c:	4618      	mov	r0, r3
 800767e:	370c      	adds	r7, #12
 8007680:	46bd      	mov	sp, r7
 8007682:	f85d 7b04 	ldr.w	r7, [sp], #4
 8007686:	4770      	bx	lr

08007688 <stm32__spi__mode_fault_indicated>:
 8007688:	b480      	push	{r7}
 800768a:	b083      	sub	sp, #12
 800768c:	af00      	add	r7, sp, #0
 800768e:	6078      	str	r0, [r7, #4]
 8007690:	687b      	ldr	r3, [r7, #4]
 8007692:	685b      	ldr	r3, [r3, #4]
 8007694:	3308      	adds	r3, #8
 8007696:	681b      	ldr	r3, [r3, #0]
 8007698:	f3c3 1340 	ubfx	r3, r3, #5, #1
 800769c:	b2db      	uxtb	r3, r3
 800769e:	bf00      	nop
 80076a0:	4618      	mov	r0, r3
 80076a2:	370c      	adds	r7, #12
 80076a4:	46bd      	mov	sp, r7
 80076a6:	f85d 7b04 	ldr.w	r7, [sp], #4
 80076aa:	4770      	bx	lr

080076ac <stm32__spi__overrun_indicated>:
 80076ac:	b480      	push	{r7}
 80076ae:	b083      	sub	sp, #12
 80076b0:	af00      	add	r7, sp, #0
 80076b2:	6078      	str	r0, [r7, #4]
 80076b4:	687b      	ldr	r3, [r7, #4]
 80076b6:	685b      	ldr	r3, [r3, #4]
 80076b8:	3308      	adds	r3, #8
 80076ba:	681b      	ldr	r3, [r3, #0]
 80076bc:	f3c3 1380 	ubfx	r3, r3, #6, #1
 80076c0:	b2db      	uxtb	r3, r3
 80076c2:	bf00      	nop
 80076c4:	4618      	mov	r0, r3
 80076c6:	370c      	adds	r7, #12
 80076c8:	46bd      	mov	sp, r7
 80076ca:	f85d 7b04 	ldr.w	r7, [sp], #4
 80076ce:	4770      	bx	lr

080076d0 <stm32__spi__frame_fmt_error_indicated>:
 80076d0:	b480      	push	{r7}
 80076d2:	b083      	sub	sp, #12
 80076d4:	af00      	add	r7, sp, #0
 80076d6:	6078      	str	r0, [r7, #4]
 80076d8:	2300      	movs	r3, #0
 80076da:	bf00      	nop
 80076dc:	4618      	mov	r0, r3
 80076de:	370c      	adds	r7, #12
 80076e0:	46bd      	mov	sp, r7
 80076e2:	f85d 7b04 	ldr.w	r7, [sp], #4
 80076e6:	4770      	bx	lr

080076e8 <stm32__spi__clear_overrun>:
 80076e8:	b580      	push	{r7, lr}
 80076ea:	b084      	sub	sp, #16
 80076ec:	af00      	add	r7, sp, #0
 80076ee:	6078      	str	r0, [r7, #4]
 80076f0:	f107 0308 	add.w	r3, r7, #8
 80076f4:	4618      	mov	r0, r3
 80076f6:	f001 fc93 	bl	8009020 <stm32_svd__spi__sr_registerIP>
 80076fa:	687b      	ldr	r3, [r7, #4]
 80076fc:	685b      	ldr	r3, [r3, #4]
 80076fe:	330c      	adds	r3, #12
 8007700:	681b      	ldr	r3, [r3, #0]
 8007702:	81fb      	strh	r3, [r7, #14]
 8007704:	687b      	ldr	r3, [r7, #4]
 8007706:	685b      	ldr	r3, [r3, #4]
 8007708:	3308      	adds	r3, #8
 800770a:	681b      	ldr	r3, [r3, #0]
 800770c:	60bb      	str	r3, [r7, #8]
 800770e:	3710      	adds	r7, #16
 8007710:	46bd      	mov	sp, r7
 8007712:	bd80      	pop	{r7, pc}

08007714 <stm32__spi__reset_crc>:
 8007714:	b480      	push	{r7}
 8007716:	b083      	sub	sp, #12
 8007718:	af00      	add	r7, sp, #0
 800771a:	6078      	str	r0, [r7, #4]
 800771c:	687b      	ldr	r3, [r7, #4]
 800771e:	685b      	ldr	r3, [r3, #4]
 8007720:	681b      	ldr	r3, [r3, #0]
 8007722:	f36f 334d 	bfc	r3, #13, #1
 8007726:	687a      	ldr	r2, [r7, #4]
 8007728:	6852      	ldr	r2, [r2, #4]
 800772a:	6013      	str	r3, [r2, #0]
 800772c:	687b      	ldr	r3, [r7, #4]
 800772e:	685b      	ldr	r3, [r3, #4]
 8007730:	681b      	ldr	r3, [r3, #0]
 8007732:	461a      	mov	r2, r3
 8007734:	4613      	mov	r3, r2
 8007736:	f443 5200 	orr.w	r2, r3, #8192	; 0x2000
 800773a:	687b      	ldr	r3, [r7, #4]
 800773c:	685b      	ldr	r3, [r3, #4]
 800773e:	601a      	str	r2, [r3, #0]
 8007740:	370c      	adds	r7, #12
 8007742:	46bd      	mov	sp, r7
 8007744:	f85d 7b04 	ldr.w	r7, [sp], #4
 8007748:	4770      	bx	lr
 800774a:	bf00      	nop

0800774c <stm32__spi__is_data_frame_16bit>:
 800774c:	b480      	push	{r7}
 800774e:	b083      	sub	sp, #12
 8007750:	af00      	add	r7, sp, #0
 8007752:	6078      	str	r0, [r7, #4]
 8007754:	687b      	ldr	r3, [r7, #4]
 8007756:	685b      	ldr	r3, [r3, #4]
 8007758:	681b      	ldr	r3, [r3, #0]
 800775a:	f3c3 23c0 	ubfx	r3, r3, #11, #1
 800775e:	b2db      	uxtb	r3, r3
 8007760:	bf00      	nop
 8007762:	4618      	mov	r0, r3
 8007764:	370c      	adds	r7, #12
 8007766:	46bd      	mov	sp, r7
 8007768:	f85d 7b04 	ldr.w	r7, [sp], #4
 800776c:	4770      	bx	lr
 800776e:	bf00      	nop

08007770 <stm32__spi__data_size>:
 8007770:	b480      	push	{r7}
 8007772:	b083      	sub	sp, #12
 8007774:	af00      	add	r7, sp, #0
 8007776:	6078      	str	r0, [r7, #4]
 8007778:	687b      	ldr	r3, [r7, #4]
 800777a:	685b      	ldr	r3, [r3, #4]
 800777c:	681b      	ldr	r3, [r3, #0]
 800777e:	f3c3 23c0 	ubfx	r3, r3, #11, #1
 8007782:	b2db      	uxtb	r3, r3
 8007784:	2b00      	cmp	r3, #0
 8007786:	d001      	beq.n	800778c <stm32__spi__data_size+0x1c>
 8007788:	2301      	movs	r3, #1
 800778a:	e000      	b.n	800778e <stm32__spi__data_size+0x1e>
 800778c:	2300      	movs	r3, #0
 800778e:	bf00      	nop
 8007790:	4618      	mov	r0, r3
 8007792:	370c      	adds	r7, #12
 8007794:	46bd      	mov	sp, r7
 8007796:	f85d 7b04 	ldr.w	r7, [sp], #4
 800779a:	4770      	bx	lr

0800779c <stm32__spi__transmit>:
 800779c:	b5b0      	push	{r4, r5, r7, lr}
 800779e:	b086      	sub	sp, #24
 80077a0:	af00      	add	r7, sp, #0
 80077a2:	60f8      	str	r0, [r7, #12]
 80077a4:	e9c7 2300 	strd	r2, r3, [r7]
 80077a8:	68f8      	ldr	r0, [r7, #12]
 80077aa:	f7ff ffe1 	bl	8007770 <stm32__spi__data_size>
 80077ae:	4603      	mov	r3, r0
 80077b0:	2b00      	cmp	r3, #0
 80077b2:	d005      	beq.n	80077c0 <stm32__spi__transmit+0x24>
 80077b4:	4c2c      	ldr	r4, [pc, #176]	; (8007868 <stm32__spi__transmit+0xcc>)
 80077b6:	4d2d      	ldr	r5, [pc, #180]	; (800786c <stm32__spi__transmit+0xd0>)
 80077b8:	4620      	mov	r0, r4
 80077ba:	4629      	mov	r1, r5
 80077bc:	f002 fefc 	bl	800a5b8 <system__assertions__raise_assert_failure>
 80077c0:	68f8      	ldr	r0, [r7, #12]
 80077c2:	f7ff ff19 	bl	80075f8 <stm32__spi__crc_enabled>
 80077c6:	4603      	mov	r3, r0
 80077c8:	2b00      	cmp	r3, #0
 80077ca:	d002      	beq.n	80077d2 <stm32__spi__transmit+0x36>
 80077cc:	68f8      	ldr	r0, [r7, #12]
 80077ce:	f7ff ffa1 	bl	8007714 <stm32__spi__reset_crc>
 80077d2:	68f8      	ldr	r0, [r7, #12]
 80077d4:	f7ff fedc 	bl	8007590 <stm32__spi__current_data_direction>
 80077d8:	4603      	mov	r3, r0
 80077da:	2b03      	cmp	r3, #3
 80077dc:	d109      	bne.n	80077f2 <stm32__spi__transmit+0x56>
 80077de:	68fb      	ldr	r3, [r7, #12]
 80077e0:	685b      	ldr	r3, [r3, #4]
 80077e2:	681b      	ldr	r3, [r3, #0]
 80077e4:	461a      	mov	r2, r3
 80077e6:	4613      	mov	r3, r2
 80077e8:	f443 4280 	orr.w	r2, r3, #16384	; 0x4000
 80077ec:	68fb      	ldr	r3, [r7, #12]
 80077ee:	685b      	ldr	r3, [r3, #4]
 80077f0:	601a      	str	r2, [r3, #0]
 80077f2:	68f8      	ldr	r0, [r7, #12]
 80077f4:	f7ff ff78 	bl	80076e8 <stm32__spi__clear_overrun>
 80077f8:	68f8      	ldr	r0, [r7, #12]
 80077fa:	f7ff fdef 	bl	80073dc <stm32__spi__enabled>
 80077fe:	4603      	mov	r3, r0
 8007800:	f083 0301 	eor.w	r3, r3, #1
 8007804:	b2db      	uxtb	r3, r3
 8007806:	2b00      	cmp	r3, #0
 8007808:	d002      	beq.n	8007810 <stm32__spi__transmit+0x74>
 800780a:	68f8      	ldr	r0, [r7, #12]
 800780c:	f7ff fdc0 	bl	8007390 <stm32__spi__enable>
 8007810:	68f8      	ldr	r0, [r7, #12]
 8007812:	e9d7 2300 	ldrd	r2, r3, [r7]
 8007816:	f000 ff2d 	bl	8008674 <stm32__spi__send_8bit_mode>
 800781a:	68f8      	ldr	r0, [r7, #12]
 800781c:	f7ff fe5e 	bl	80074dc <stm32__spi__tx_is_empty>
 8007820:	4603      	mov	r3, r0
 8007822:	f083 0301 	eor.w	r3, r3, #1
 8007826:	b2db      	uxtb	r3, r3
 8007828:	2b00      	cmp	r3, #0
 800782a:	d001      	beq.n	8007830 <stm32__spi__transmit+0x94>
 800782c:	bf00      	nop
 800782e:	e7f4      	b.n	800781a <stm32__spi__transmit+0x7e>
 8007830:	68f8      	ldr	r0, [r7, #12]
 8007832:	f7ff fe7b 	bl	800752c <stm32__spi__busy>
 8007836:	4603      	mov	r3, r0
 8007838:	2b00      	cmp	r3, #0
 800783a:	d001      	beq.n	8007840 <stm32__spi__transmit+0xa4>
 800783c:	bf00      	nop
 800783e:	e7f7      	b.n	8007830 <stm32__spi__transmit+0x94>
 8007840:	68f8      	ldr	r0, [r7, #12]
 8007842:	f7ff fea5 	bl	8007590 <stm32__spi__current_data_direction>
 8007846:	4603      	mov	r3, r0
 8007848:	2b01      	cmp	r3, #1
 800784a:	d001      	beq.n	8007850 <stm32__spi__transmit+0xb4>
 800784c:	2b00      	cmp	r3, #0
 800784e:	d102      	bne.n	8007856 <stm32__spi__transmit+0xba>
 8007850:	68f8      	ldr	r0, [r7, #12]
 8007852:	f7ff ff49 	bl	80076e8 <stm32__spi__clear_overrun>
 8007856:	2300      	movs	r3, #0
 8007858:	75fb      	strb	r3, [r7, #23]
 800785a:	7dfb      	ldrb	r3, [r7, #23]
 800785c:	bf00      	nop
 800785e:	4618      	mov	r0, r3
 8007860:	3718      	adds	r7, #24
 8007862:	46bd      	mov	sp, r7
 8007864:	bdb0      	pop	{r4, r5, r7, pc}
 8007866:	bf00      	nop
 8007868:	0800bb90 	.word	0x0800bb90
 800786c:	0800bbc4 	.word	0x0800bbc4

08007870 <stm32__spi__transmit__2>:
 8007870:	b5b0      	push	{r4, r5, r7, lr}
 8007872:	b086      	sub	sp, #24
 8007874:	af00      	add	r7, sp, #0
 8007876:	60f8      	str	r0, [r7, #12]
 8007878:	e9c7 2300 	strd	r2, r3, [r7]
 800787c:	68f8      	ldr	r0, [r7, #12]
 800787e:	f7ff ff77 	bl	8007770 <stm32__spi__data_size>
 8007882:	4603      	mov	r3, r0
 8007884:	2b01      	cmp	r3, #1
 8007886:	d005      	beq.n	8007894 <stm32__spi__transmit__2+0x24>
 8007888:	4c2d      	ldr	r4, [pc, #180]	; (8007940 <stm32__spi__transmit__2+0xd0>)
 800788a:	4d2e      	ldr	r5, [pc, #184]	; (8007944 <stm32__spi__transmit__2+0xd4>)
 800788c:	4620      	mov	r0, r4
 800788e:	4629      	mov	r1, r5
 8007890:	f002 fe92 	bl	800a5b8 <system__assertions__raise_assert_failure>
 8007894:	68f8      	ldr	r0, [r7, #12]
 8007896:	f7ff feaf 	bl	80075f8 <stm32__spi__crc_enabled>
 800789a:	4603      	mov	r3, r0
 800789c:	2b00      	cmp	r3, #0
 800789e:	d002      	beq.n	80078a6 <stm32__spi__transmit__2+0x36>
 80078a0:	68f8      	ldr	r0, [r7, #12]
 80078a2:	f7ff ff37 	bl	8007714 <stm32__spi__reset_crc>
 80078a6:	68f8      	ldr	r0, [r7, #12]
 80078a8:	f7ff fe72 	bl	8007590 <stm32__spi__current_data_direction>
 80078ac:	4603      	mov	r3, r0
 80078ae:	2b03      	cmp	r3, #3
 80078b0:	d109      	bne.n	80078c6 <stm32__spi__transmit__2+0x56>
 80078b2:	68fb      	ldr	r3, [r7, #12]
 80078b4:	685b      	ldr	r3, [r3, #4]
 80078b6:	681b      	ldr	r3, [r3, #0]
 80078b8:	461a      	mov	r2, r3
 80078ba:	4613      	mov	r3, r2
 80078bc:	f443 4280 	orr.w	r2, r3, #16384	; 0x4000
 80078c0:	68fb      	ldr	r3, [r7, #12]
 80078c2:	685b      	ldr	r3, [r3, #4]
 80078c4:	601a      	str	r2, [r3, #0]
 80078c6:	68f8      	ldr	r0, [r7, #12]
 80078c8:	f7ff ff0e 	bl	80076e8 <stm32__spi__clear_overrun>
 80078cc:	68f8      	ldr	r0, [r7, #12]
 80078ce:	f7ff fd85 	bl	80073dc <stm32__spi__enabled>
 80078d2:	4603      	mov	r3, r0
 80078d4:	f083 0301 	eor.w	r3, r3, #1
 80078d8:	b2db      	uxtb	r3, r3
 80078da:	2b00      	cmp	r3, #0
 80078dc:	d002      	beq.n	80078e4 <stm32__spi__transmit__2+0x74>
 80078de:	68f8      	ldr	r0, [r7, #12]
 80078e0:	f7ff fd56 	bl	8007390 <stm32__spi__enable>
 80078e4:	68f8      	ldr	r0, [r7, #12]
 80078e6:	e9d7 2300 	ldrd	r2, r3, [r7]
 80078ea:	f000 fdd5 	bl	8008498 <stm32__spi__send_16bit_mode>
 80078ee:	68f8      	ldr	r0, [r7, #12]
 80078f0:	f7ff fdf4 	bl	80074dc <stm32__spi__tx_is_empty>
 80078f4:	4603      	mov	r3, r0
 80078f6:	f083 0301 	eor.w	r3, r3, #1
 80078fa:	b2db      	uxtb	r3, r3
 80078fc:	2b00      	cmp	r3, #0
 80078fe:	d001      	beq.n	8007904 <stm32__spi__transmit__2+0x94>
 8007900:	bf00      	nop
 8007902:	e7f4      	b.n	80078ee <stm32__spi__transmit__2+0x7e>
 8007904:	68f8      	ldr	r0, [r7, #12]
 8007906:	f7ff fe11 	bl	800752c <stm32__spi__busy>
 800790a:	4603      	mov	r3, r0
 800790c:	2b00      	cmp	r3, #0
 800790e:	d001      	beq.n	8007914 <stm32__spi__transmit__2+0xa4>
 8007910:	bf00      	nop
 8007912:	e7f7      	b.n	8007904 <stm32__spi__transmit__2+0x94>
 8007914:	68f8      	ldr	r0, [r7, #12]
 8007916:	f7ff fe3b 	bl	8007590 <stm32__spi__current_data_direction>
 800791a:	4603      	mov	r3, r0
 800791c:	2b01      	cmp	r3, #1
 800791e:	d001      	beq.n	8007924 <stm32__spi__transmit__2+0xb4>
 8007920:	2b00      	cmp	r3, #0
 8007922:	d104      	bne.n	800792e <stm32__spi__transmit__2+0xbe>
 8007924:	68f8      	ldr	r0, [r7, #12]
 8007926:	f7ff fedf 	bl	80076e8 <stm32__spi__clear_overrun>
 800792a:	2301      	movs	r3, #1
 800792c:	75fb      	strb	r3, [r7, #23]
 800792e:	2300      	movs	r3, #0
 8007930:	75fb      	strb	r3, [r7, #23]
 8007932:	7dfb      	ldrb	r3, [r7, #23]
 8007934:	bf00      	nop
 8007936:	4618      	mov	r0, r3
 8007938:	3718      	adds	r7, #24
 800793a:	46bd      	mov	sp, r7
 800793c:	bdb0      	pop	{r4, r5, r7, pc}
 800793e:	bf00      	nop
 8007940:	0800bbcc 	.word	0x0800bbcc
 8007944:	0800bbc4 	.word	0x0800bbc4

08007948 <stm32__spi__transmit__3>:
 8007948:	b580      	push	{r7, lr}
 800794a:	b082      	sub	sp, #8
 800794c:	af00      	add	r7, sp, #0
 800794e:	6078      	str	r0, [r7, #4]
 8007950:	460b      	mov	r3, r1
 8007952:	70fb      	strb	r3, [r7, #3]
 8007954:	6878      	ldr	r0, [r7, #4]
 8007956:	f7ff fe4f 	bl	80075f8 <stm32__spi__crc_enabled>
 800795a:	4603      	mov	r3, r0
 800795c:	2b00      	cmp	r3, #0
 800795e:	d002      	beq.n	8007966 <stm32__spi__transmit__3+0x1e>
 8007960:	6878      	ldr	r0, [r7, #4]
 8007962:	f7ff fed7 	bl	8007714 <stm32__spi__reset_crc>
 8007966:	6878      	ldr	r0, [r7, #4]
 8007968:	f7ff fe12 	bl	8007590 <stm32__spi__current_data_direction>
 800796c:	4603      	mov	r3, r0
 800796e:	2b03      	cmp	r3, #3
 8007970:	d109      	bne.n	8007986 <stm32__spi__transmit__3+0x3e>
 8007972:	687b      	ldr	r3, [r7, #4]
 8007974:	685b      	ldr	r3, [r3, #4]
 8007976:	681b      	ldr	r3, [r3, #0]
 8007978:	461a      	mov	r2, r3
 800797a:	4613      	mov	r3, r2
 800797c:	f443 4280 	orr.w	r2, r3, #16384	; 0x4000
 8007980:	687b      	ldr	r3, [r7, #4]
 8007982:	685b      	ldr	r3, [r3, #4]
 8007984:	601a      	str	r2, [r3, #0]
 8007986:	6878      	ldr	r0, [r7, #4]
 8007988:	f7ff fd28 	bl	80073dc <stm32__spi__enabled>
 800798c:	4603      	mov	r3, r0
 800798e:	f083 0301 	eor.w	r3, r3, #1
 8007992:	b2db      	uxtb	r3, r3
 8007994:	2b00      	cmp	r3, #0
 8007996:	d002      	beq.n	800799e <stm32__spi__transmit__3+0x56>
 8007998:	6878      	ldr	r0, [r7, #4]
 800799a:	f7ff fcf9 	bl	8007390 <stm32__spi__enable>
 800799e:	687b      	ldr	r3, [r7, #4]
 80079a0:	685b      	ldr	r3, [r3, #4]
 80079a2:	330c      	adds	r3, #12
 80079a4:	681b      	ldr	r3, [r3, #0]
 80079a6:	78fa      	ldrb	r2, [r7, #3]
 80079a8:	b292      	uxth	r2, r2
 80079aa:	f362 030f 	bfi	r3, r2, #0, #16
 80079ae:	687a      	ldr	r2, [r7, #4]
 80079b0:	6852      	ldr	r2, [r2, #4]
 80079b2:	320c      	adds	r2, #12
 80079b4:	6013      	str	r3, [r2, #0]
 80079b6:	6878      	ldr	r0, [r7, #4]
 80079b8:	f7ff fd90 	bl	80074dc <stm32__spi__tx_is_empty>
 80079bc:	4603      	mov	r3, r0
 80079be:	f083 0301 	eor.w	r3, r3, #1
 80079c2:	b2db      	uxtb	r3, r3
 80079c4:	2b00      	cmp	r3, #0
 80079c6:	d001      	beq.n	80079cc <stm32__spi__transmit__3+0x84>
 80079c8:	bf00      	nop
 80079ca:	e7f4      	b.n	80079b6 <stm32__spi__transmit__3+0x6e>
 80079cc:	6878      	ldr	r0, [r7, #4]
 80079ce:	f7ff fdad 	bl	800752c <stm32__spi__busy>
 80079d2:	4603      	mov	r3, r0
 80079d4:	2b00      	cmp	r3, #0
 80079d6:	d001      	beq.n	80079dc <stm32__spi__transmit__3+0x94>
 80079d8:	bf00      	nop
 80079da:	e7f7      	b.n	80079cc <stm32__spi__transmit__3+0x84>
 80079dc:	6878      	ldr	r0, [r7, #4]
 80079de:	f7ff fdd7 	bl	8007590 <stm32__spi__current_data_direction>
 80079e2:	4603      	mov	r3, r0
 80079e4:	2b01      	cmp	r3, #1
 80079e6:	d001      	beq.n	80079ec <stm32__spi__transmit__3+0xa4>
 80079e8:	2b00      	cmp	r3, #0
 80079ea:	d102      	bne.n	80079f2 <stm32__spi__transmit__3+0xaa>
 80079ec:	6878      	ldr	r0, [r7, #4]
 80079ee:	f7ff fe7b 	bl	80076e8 <stm32__spi__clear_overrun>
 80079f2:	3708      	adds	r7, #8
 80079f4:	46bd      	mov	sp, r7
 80079f6:	bd80      	pop	{r7, pc}

080079f8 <stm32__spi__receive>:
 80079f8:	b5b0      	push	{r4, r5, r7, lr}
 80079fa:	b086      	sub	sp, #24
 80079fc:	af00      	add	r7, sp, #0
 80079fe:	60f8      	str	r0, [r7, #12]
 8007a00:	e9c7 2300 	strd	r2, r3, [r7]
 8007a04:	68f8      	ldr	r0, [r7, #12]
 8007a06:	f7ff feb3 	bl	8007770 <stm32__spi__data_size>
 8007a0a:	4603      	mov	r3, r0
 8007a0c:	2b00      	cmp	r3, #0
 8007a0e:	d005      	beq.n	8007a1c <stm32__spi__receive+0x24>
 8007a10:	4c20      	ldr	r4, [pc, #128]	; (8007a94 <stm32__spi__receive+0x9c>)
 8007a12:	4d21      	ldr	r5, [pc, #132]	; (8007a98 <stm32__spi__receive+0xa0>)
 8007a14:	4620      	mov	r0, r4
 8007a16:	4629      	mov	r1, r5
 8007a18:	f002 fdce 	bl	800a5b8 <system__assertions__raise_assert_failure>
 8007a1c:	68f8      	ldr	r0, [r7, #12]
 8007a1e:	f7ff fdeb 	bl	80075f8 <stm32__spi__crc_enabled>
 8007a22:	4603      	mov	r3, r0
 8007a24:	2b00      	cmp	r3, #0
 8007a26:	d002      	beq.n	8007a2e <stm32__spi__receive+0x36>
 8007a28:	68f8      	ldr	r0, [r7, #12]
 8007a2a:	f7ff fe73 	bl	8007714 <stm32__spi__reset_crc>
 8007a2e:	68f8      	ldr	r0, [r7, #12]
 8007a30:	f7ff fcd4 	bl	80073dc <stm32__spi__enabled>
 8007a34:	4603      	mov	r3, r0
 8007a36:	f083 0301 	eor.w	r3, r3, #1
 8007a3a:	b2db      	uxtb	r3, r3
 8007a3c:	2b00      	cmp	r3, #0
 8007a3e:	d002      	beq.n	8007a46 <stm32__spi__receive+0x4e>
 8007a40:	68f8      	ldr	r0, [r7, #12]
 8007a42:	f7ff fca5 	bl	8007390 <stm32__spi__enable>
 8007a46:	68f8      	ldr	r0, [r7, #12]
 8007a48:	e9d7 2300 	ldrd	r2, r3, [r7]
 8007a4c:	f000 ff2c 	bl	80088a8 <stm32__spi__receive_8bit_mode>
 8007a50:	68f8      	ldr	r0, [r7, #12]
 8007a52:	f7ff fd6b 	bl	800752c <stm32__spi__busy>
 8007a56:	4603      	mov	r3, r0
 8007a58:	2b00      	cmp	r3, #0
 8007a5a:	d001      	beq.n	8007a60 <stm32__spi__receive+0x68>
 8007a5c:	bf00      	nop
 8007a5e:	e7f7      	b.n	8007a50 <stm32__spi__receive+0x58>
 8007a60:	68f8      	ldr	r0, [r7, #12]
 8007a62:	f7ff fdc9 	bl	80075f8 <stm32__spi__crc_enabled>
 8007a66:	4603      	mov	r3, r0
 8007a68:	461c      	mov	r4, r3
 8007a6a:	68f8      	ldr	r0, [r7, #12]
 8007a6c:	f7ff fdfa 	bl	8007664 <stm32__spi__crc_error_indicated>
 8007a70:	4603      	mov	r3, r0
 8007a72:	4023      	ands	r3, r4
 8007a74:	b2db      	uxtb	r3, r3
 8007a76:	2b00      	cmp	r3, #0
 8007a78:	d004      	beq.n	8007a84 <stm32__spi__receive+0x8c>
 8007a7a:	68f8      	ldr	r0, [r7, #12]
 8007a7c:	f7ff fe4a 	bl	8007714 <stm32__spi__reset_crc>
 8007a80:	2301      	movs	r3, #1
 8007a82:	75fb      	strb	r3, [r7, #23]
 8007a84:	2300      	movs	r3, #0
 8007a86:	75fb      	strb	r3, [r7, #23]
 8007a88:	7dfb      	ldrb	r3, [r7, #23]
 8007a8a:	bf00      	nop
 8007a8c:	4618      	mov	r0, r3
 8007a8e:	3718      	adds	r7, #24
 8007a90:	46bd      	mov	sp, r7
 8007a92:	bdb0      	pop	{r4, r5, r7, pc}
 8007a94:	0800bc00 	.word	0x0800bc00
 8007a98:	0800bbc4 	.word	0x0800bbc4

08007a9c <stm32__spi__receive__2>:
 8007a9c:	b5b0      	push	{r4, r5, r7, lr}
 8007a9e:	b086      	sub	sp, #24
 8007aa0:	af00      	add	r7, sp, #0
 8007aa2:	60f8      	str	r0, [r7, #12]
 8007aa4:	e9c7 2300 	strd	r2, r3, [r7]
 8007aa8:	68f8      	ldr	r0, [r7, #12]
 8007aaa:	f7ff fe61 	bl	8007770 <stm32__spi__data_size>
 8007aae:	4603      	mov	r3, r0
 8007ab0:	2b01      	cmp	r3, #1
 8007ab2:	d005      	beq.n	8007ac0 <stm32__spi__receive__2+0x24>
 8007ab4:	4c20      	ldr	r4, [pc, #128]	; (8007b38 <stm32__spi__receive__2+0x9c>)
 8007ab6:	4d21      	ldr	r5, [pc, #132]	; (8007b3c <stm32__spi__receive__2+0xa0>)
 8007ab8:	4620      	mov	r0, r4
 8007aba:	4629      	mov	r1, r5
 8007abc:	f002 fd7c 	bl	800a5b8 <system__assertions__raise_assert_failure>
 8007ac0:	68f8      	ldr	r0, [r7, #12]
 8007ac2:	f7ff fd99 	bl	80075f8 <stm32__spi__crc_enabled>
 8007ac6:	4603      	mov	r3, r0
 8007ac8:	2b00      	cmp	r3, #0
 8007aca:	d002      	beq.n	8007ad2 <stm32__spi__receive__2+0x36>
 8007acc:	68f8      	ldr	r0, [r7, #12]
 8007ace:	f7ff fe21 	bl	8007714 <stm32__spi__reset_crc>
 8007ad2:	68f8      	ldr	r0, [r7, #12]
 8007ad4:	f7ff fc82 	bl	80073dc <stm32__spi__enabled>
 8007ad8:	4603      	mov	r3, r0
 8007ada:	f083 0301 	eor.w	r3, r3, #1
 8007ade:	b2db      	uxtb	r3, r3
 8007ae0:	2b00      	cmp	r3, #0
 8007ae2:	d002      	beq.n	8007aea <stm32__spi__receive__2+0x4e>
 8007ae4:	68f8      	ldr	r0, [r7, #12]
 8007ae6:	f7ff fc53 	bl	8007390 <stm32__spi__enable>
 8007aea:	68f8      	ldr	r0, [r7, #12]
 8007aec:	e9d7 2300 	ldrd	r2, r3, [r7]
 8007af0:	f000 fe92 	bl	8008818 <stm32__spi__receive_16bit_mode>
 8007af4:	68f8      	ldr	r0, [r7, #12]
 8007af6:	f7ff fd19 	bl	800752c <stm32__spi__busy>
 8007afa:	4603      	mov	r3, r0
 8007afc:	2b00      	cmp	r3, #0
 8007afe:	d001      	beq.n	8007b04 <stm32__spi__receive__2+0x68>
 8007b00:	bf00      	nop
 8007b02:	e7f7      	b.n	8007af4 <stm32__spi__receive__2+0x58>
 8007b04:	68f8      	ldr	r0, [r7, #12]
 8007b06:	f7ff fd77 	bl	80075f8 <stm32__spi__crc_enabled>
 8007b0a:	4603      	mov	r3, r0
 8007b0c:	461c      	mov	r4, r3
 8007b0e:	68f8      	ldr	r0, [r7, #12]
 8007b10:	f7ff fda8 	bl	8007664 <stm32__spi__crc_error_indicated>
 8007b14:	4603      	mov	r3, r0
 8007b16:	4023      	ands	r3, r4
 8007b18:	b2db      	uxtb	r3, r3
 8007b1a:	2b00      	cmp	r3, #0
 8007b1c:	d004      	beq.n	8007b28 <stm32__spi__receive__2+0x8c>
 8007b1e:	68f8      	ldr	r0, [r7, #12]
 8007b20:	f7ff fdf8 	bl	8007714 <stm32__spi__reset_crc>
 8007b24:	2301      	movs	r3, #1
 8007b26:	75fb      	strb	r3, [r7, #23]
 8007b28:	2300      	movs	r3, #0
 8007b2a:	75fb      	strb	r3, [r7, #23]
 8007b2c:	7dfb      	ldrb	r3, [r7, #23]
 8007b2e:	bf00      	nop
 8007b30:	4618      	mov	r0, r3
 8007b32:	3718      	adds	r7, #24
 8007b34:	46bd      	mov	sp, r7
 8007b36:	bdb0      	pop	{r4, r5, r7, pc}
 8007b38:	0800bc34 	.word	0x0800bc34
 8007b3c:	0800bbc4 	.word	0x0800bbc4

08007b40 <stm32__spi__receive__3>:
 8007b40:	b590      	push	{r4, r7, lr}
 8007b42:	b085      	sub	sp, #20
 8007b44:	af00      	add	r7, sp, #0
 8007b46:	6078      	str	r0, [r7, #4]
 8007b48:	6878      	ldr	r0, [r7, #4]
 8007b4a:	f7ff fd55 	bl	80075f8 <stm32__spi__crc_enabled>
 8007b4e:	4603      	mov	r3, r0
 8007b50:	2b00      	cmp	r3, #0
 8007b52:	d002      	beq.n	8007b5a <stm32__spi__receive__3+0x1a>
 8007b54:	6878      	ldr	r0, [r7, #4]
 8007b56:	f7ff fddd 	bl	8007714 <stm32__spi__reset_crc>
 8007b5a:	6878      	ldr	r0, [r7, #4]
 8007b5c:	f7ff fc3e 	bl	80073dc <stm32__spi__enabled>
 8007b60:	4603      	mov	r3, r0
 8007b62:	f083 0301 	eor.w	r3, r3, #1
 8007b66:	b2db      	uxtb	r3, r3
 8007b68:	2b00      	cmp	r3, #0
 8007b6a:	d002      	beq.n	8007b72 <stm32__spi__receive__3+0x32>
 8007b6c:	6878      	ldr	r0, [r7, #4]
 8007b6e:	f7ff fc0f 	bl	8007390 <stm32__spi__enable>
 8007b72:	687b      	ldr	r3, [r7, #4]
 8007b74:	685b      	ldr	r3, [r3, #4]
 8007b76:	330c      	adds	r3, #12
 8007b78:	681b      	ldr	r3, [r3, #0]
 8007b7a:	f36f 030f 	bfc	r3, #0, #16
 8007b7e:	687a      	ldr	r2, [r7, #4]
 8007b80:	6852      	ldr	r2, [r2, #4]
 8007b82:	320c      	adds	r2, #12
 8007b84:	6013      	str	r3, [r2, #0]
 8007b86:	6878      	ldr	r0, [r7, #4]
 8007b88:	f7ff fcba 	bl	8007500 <stm32__spi__rx_is_empty>
 8007b8c:	4603      	mov	r3, r0
 8007b8e:	2b00      	cmp	r3, #0
 8007b90:	d001      	beq.n	8007b96 <stm32__spi__receive__3+0x56>
 8007b92:	bf00      	nop
 8007b94:	e7f7      	b.n	8007b86 <stm32__spi__receive__3+0x46>
 8007b96:	687b      	ldr	r3, [r7, #4]
 8007b98:	685b      	ldr	r3, [r3, #4]
 8007b9a:	330c      	adds	r3, #12
 8007b9c:	681b      	ldr	r3, [r3, #0]
 8007b9e:	b29b      	uxth	r3, r3
 8007ba0:	2bff      	cmp	r3, #255	; 0xff
 8007ba2:	d904      	bls.n	8007bae <stm32__spi__receive__3+0x6e>
 8007ba4:	481b      	ldr	r0, [pc, #108]	; (8007c14 <stm32__spi__receive__3+0xd4>)
 8007ba6:	f240 2141 	movw	r1, #577	; 0x241
 8007baa:	f7f8 fbcf 	bl	800034c <__gnat_last_chance_handler>
 8007bae:	b2db      	uxtb	r3, r3
 8007bb0:	737b      	strb	r3, [r7, #13]
 8007bb2:	6878      	ldr	r0, [r7, #4]
 8007bb4:	f7ff fd20 	bl	80075f8 <stm32__spi__crc_enabled>
 8007bb8:	4603      	mov	r3, r0
 8007bba:	2b00      	cmp	r3, #0
 8007bbc:	d00c      	beq.n	8007bd8 <stm32__spi__receive__3+0x98>
 8007bbe:	6878      	ldr	r0, [r7, #4]
 8007bc0:	f7ff fc9e 	bl	8007500 <stm32__spi__rx_is_empty>
 8007bc4:	4603      	mov	r3, r0
 8007bc6:	2b00      	cmp	r3, #0
 8007bc8:	d001      	beq.n	8007bce <stm32__spi__receive__3+0x8e>
 8007bca:	bf00      	nop
 8007bcc:	e7f7      	b.n	8007bbe <stm32__spi__receive__3+0x7e>
 8007bce:	687b      	ldr	r3, [r7, #4]
 8007bd0:	685b      	ldr	r3, [r3, #4]
 8007bd2:	330c      	adds	r3, #12
 8007bd4:	681b      	ldr	r3, [r3, #0]
 8007bd6:	81fb      	strh	r3, [r7, #14]
 8007bd8:	6878      	ldr	r0, [r7, #4]
 8007bda:	f7ff fca7 	bl	800752c <stm32__spi__busy>
 8007bde:	4603      	mov	r3, r0
 8007be0:	2b00      	cmp	r3, #0
 8007be2:	d001      	beq.n	8007be8 <stm32__spi__receive__3+0xa8>
 8007be4:	bf00      	nop
 8007be6:	e7f7      	b.n	8007bd8 <stm32__spi__receive__3+0x98>
 8007be8:	6878      	ldr	r0, [r7, #4]
 8007bea:	f7ff fd05 	bl	80075f8 <stm32__spi__crc_enabled>
 8007bee:	4603      	mov	r3, r0
 8007bf0:	461c      	mov	r4, r3
 8007bf2:	6878      	ldr	r0, [r7, #4]
 8007bf4:	f7ff fd36 	bl	8007664 <stm32__spi__crc_error_indicated>
 8007bf8:	4603      	mov	r3, r0
 8007bfa:	4023      	ands	r3, r4
 8007bfc:	b2db      	uxtb	r3, r3
 8007bfe:	2b00      	cmp	r3, #0
 8007c00:	d002      	beq.n	8007c08 <stm32__spi__receive__3+0xc8>
 8007c02:	6878      	ldr	r0, [r7, #4]
 8007c04:	f7ff fd86 	bl	8007714 <stm32__spi__reset_crc>
 8007c08:	7b7b      	ldrb	r3, [r7, #13]
 8007c0a:	bf00      	nop
 8007c0c:	4618      	mov	r0, r3
 8007c0e:	3714      	adds	r7, #20
 8007c10:	46bd      	mov	sp, r7
 8007c12:	bd90      	pop	{r4, r7, pc}
 8007c14:	0800bb80 	.word	0x0800bb80

08007c18 <stm32__spi__transmit_receive>:
 8007c18:	b590      	push	{r4, r7, lr}
 8007c1a:	b08f      	sub	sp, #60	; 0x3c
 8007c1c:	af04      	add	r7, sp, #16
 8007c1e:	60f8      	str	r0, [r7, #12]
 8007c20:	e9c7 2300 	strd	r2, r3, [r7]
 8007c24:	687b      	ldr	r3, [r7, #4]
 8007c26:	681b      	ldr	r3, [r3, #0]
 8007c28:	687a      	ldr	r2, [r7, #4]
 8007c2a:	6852      	ldr	r2, [r2, #4]
 8007c2c:	6bf9      	ldr	r1, [r7, #60]	; 0x3c
 8007c2e:	6809      	ldr	r1, [r1, #0]
 8007c30:	6279      	str	r1, [r7, #36]	; 0x24
 8007c32:	6bf9      	ldr	r1, [r7, #60]	; 0x3c
 8007c34:	6848      	ldr	r0, [r1, #4]
 8007c36:	6bf9      	ldr	r1, [r7, #60]	; 0x3c
 8007c38:	6809      	ldr	r1, [r1, #0]
 8007c3a:	4288      	cmp	r0, r1
 8007c3c:	db03      	blt.n	8007c46 <stm32__spi__transmit_receive+0x2e>
 8007c3e:	6bf9      	ldr	r1, [r7, #60]	; 0x3c
 8007c40:	6849      	ldr	r1, [r1, #4]
 8007c42:	6239      	str	r1, [r7, #32]
 8007c44:	e003      	b.n	8007c4e <stm32__spi__transmit_receive+0x36>
 8007c46:	6bf9      	ldr	r1, [r7, #60]	; 0x3c
 8007c48:	6809      	ldr	r1, [r1, #0]
 8007c4a:	3901      	subs	r1, #1
 8007c4c:	6239      	str	r1, [r7, #32]
 8007c4e:	61fb      	str	r3, [r7, #28]
 8007c50:	429a      	cmp	r2, r3
 8007c52:	db01      	blt.n	8007c58 <stm32__spi__transmit_receive+0x40>
 8007c54:	61ba      	str	r2, [r7, #24]
 8007c56:	e001      	b.n	8007c5c <stm32__spi__transmit_receive+0x44>
 8007c58:	3b01      	subs	r3, #1
 8007c5a:	61bb      	str	r3, [r7, #24]
 8007c5c:	68f8      	ldr	r0, [r7, #12]
 8007c5e:	f7ff fccb 	bl	80075f8 <stm32__spi__crc_enabled>
 8007c62:	4603      	mov	r3, r0
 8007c64:	2b00      	cmp	r3, #0
 8007c66:	d002      	beq.n	8007c6e <stm32__spi__transmit_receive+0x56>
 8007c68:	68f8      	ldr	r0, [r7, #12]
 8007c6a:	f7ff fd53 	bl	8007714 <stm32__spi__reset_crc>
 8007c6e:	68f8      	ldr	r0, [r7, #12]
 8007c70:	f7ff fbb4 	bl	80073dc <stm32__spi__enabled>
 8007c74:	4603      	mov	r3, r0
 8007c76:	f083 0301 	eor.w	r3, r3, #1
 8007c7a:	b2db      	uxtb	r3, r3
 8007c7c:	2b00      	cmp	r3, #0
 8007c7e:	d002      	beq.n	8007c86 <stm32__spi__transmit_receive+0x6e>
 8007c80:	68f8      	ldr	r0, [r7, #12]
 8007c82:	f7ff fb85 	bl	8007390 <stm32__spi__enable>
 8007c86:	68f8      	ldr	r0, [r7, #12]
 8007c88:	f7ff fd60 	bl	800774c <stm32__spi__is_data_frame_16bit>
 8007c8c:	4603      	mov	r3, r0
 8007c8e:	2b00      	cmp	r3, #0
 8007c90:	d00b      	beq.n	8007caa <stm32__spi__transmit_receive+0x92>
 8007c92:	e9d7 340e 	ldrd	r3, r4, [r7, #56]	; 0x38
 8007c96:	e9cd 3400 	strd	r3, r4, [sp]
 8007c9a:	6c3b      	ldr	r3, [r7, #64]	; 0x40
 8007c9c:	9302      	str	r3, [sp, #8]
 8007c9e:	68f8      	ldr	r0, [r7, #12]
 8007ca0:	e9d7 2300 	ldrd	r2, r3, [r7]
 8007ca4:	f000 f8c6 	bl	8007e34 <stm32__spi__send_receive_16bit_mode>
 8007ca8:	e00a      	b.n	8007cc0 <stm32__spi__transmit_receive+0xa8>
 8007caa:	e9d7 340e 	ldrd	r3, r4, [r7, #56]	; 0x38
 8007cae:	e9cd 3400 	strd	r3, r4, [sp]
 8007cb2:	6c3b      	ldr	r3, [r7, #64]	; 0x40
 8007cb4:	9302      	str	r3, [sp, #8]
 8007cb6:	68f8      	ldr	r0, [r7, #12]
 8007cb8:	e9d7 2300 	ldrd	r2, r3, [r7]
 8007cbc:	f000 fa64 	bl	8008188 <stm32__spi__send_receive_8bit_mode>
 8007cc0:	68f8      	ldr	r0, [r7, #12]
 8007cc2:	f7ff fc99 	bl	80075f8 <stm32__spi__crc_enabled>
 8007cc6:	4603      	mov	r3, r0
 8007cc8:	2b00      	cmp	r3, #0
 8007cca:	d00c      	beq.n	8007ce6 <stm32__spi__transmit_receive+0xce>
 8007ccc:	68f8      	ldr	r0, [r7, #12]
 8007cce:	f7ff fc17 	bl	8007500 <stm32__spi__rx_is_empty>
 8007cd2:	4603      	mov	r3, r0
 8007cd4:	2b00      	cmp	r3, #0
 8007cd6:	d001      	beq.n	8007cdc <stm32__spi__transmit_receive+0xc4>
 8007cd8:	bf00      	nop
 8007cda:	e7f7      	b.n	8007ccc <stm32__spi__transmit_receive+0xb4>
 8007cdc:	68fb      	ldr	r3, [r7, #12]
 8007cde:	685b      	ldr	r3, [r3, #4]
 8007ce0:	330c      	adds	r3, #12
 8007ce2:	681b      	ldr	r3, [r3, #0]
 8007ce4:	82fb      	strh	r3, [r7, #22]
 8007ce6:	68f8      	ldr	r0, [r7, #12]
 8007ce8:	f7ff fc20 	bl	800752c <stm32__spi__busy>
 8007cec:	4603      	mov	r3, r0
 8007cee:	2b00      	cmp	r3, #0
 8007cf0:	d001      	beq.n	8007cf6 <stm32__spi__transmit_receive+0xde>
 8007cf2:	bf00      	nop
 8007cf4:	e7f7      	b.n	8007ce6 <stm32__spi__transmit_receive+0xce>
 8007cf6:	68f8      	ldr	r0, [r7, #12]
 8007cf8:	f7ff fc7e 	bl	80075f8 <stm32__spi__crc_enabled>
 8007cfc:	4603      	mov	r3, r0
 8007cfe:	461c      	mov	r4, r3
 8007d00:	68f8      	ldr	r0, [r7, #12]
 8007d02:	f7ff fcaf 	bl	8007664 <stm32__spi__crc_error_indicated>
 8007d06:	4603      	mov	r3, r0
 8007d08:	4023      	ands	r3, r4
 8007d0a:	b2db      	uxtb	r3, r3
 8007d0c:	2b00      	cmp	r3, #0
 8007d0e:	d002      	beq.n	8007d16 <stm32__spi__transmit_receive+0xfe>
 8007d10:	68f8      	ldr	r0, [r7, #12]
 8007d12:	f7ff fcff 	bl	8007714 <stm32__spi__reset_crc>
 8007d16:	372c      	adds	r7, #44	; 0x2c
 8007d18:	46bd      	mov	sp, r7
 8007d1a:	bd90      	pop	{r4, r7, pc}

08007d1c <stm32__spi__transmit_receive__2>:
 8007d1c:	b590      	push	{r4, r7, lr}
 8007d1e:	b085      	sub	sp, #20
 8007d20:	af00      	add	r7, sp, #0
 8007d22:	6078      	str	r0, [r7, #4]
 8007d24:	460b      	mov	r3, r1
 8007d26:	70fb      	strb	r3, [r7, #3]
 8007d28:	6878      	ldr	r0, [r7, #4]
 8007d2a:	f7ff fc65 	bl	80075f8 <stm32__spi__crc_enabled>
 8007d2e:	4603      	mov	r3, r0
 8007d30:	2b00      	cmp	r3, #0
 8007d32:	d002      	beq.n	8007d3a <stm32__spi__transmit_receive__2+0x1e>
 8007d34:	6878      	ldr	r0, [r7, #4]
 8007d36:	f7ff fced 	bl	8007714 <stm32__spi__reset_crc>
 8007d3a:	6878      	ldr	r0, [r7, #4]
 8007d3c:	f7ff fb4e 	bl	80073dc <stm32__spi__enabled>
 8007d40:	4603      	mov	r3, r0
 8007d42:	f083 0301 	eor.w	r3, r3, #1
 8007d46:	b2db      	uxtb	r3, r3
 8007d48:	2b00      	cmp	r3, #0
 8007d4a:	d002      	beq.n	8007d52 <stm32__spi__transmit_receive__2+0x36>
 8007d4c:	6878      	ldr	r0, [r7, #4]
 8007d4e:	f7ff fb1f 	bl	8007390 <stm32__spi__enable>
 8007d52:	6878      	ldr	r0, [r7, #4]
 8007d54:	f7ff fcfa 	bl	800774c <stm32__spi__is_data_frame_16bit>
 8007d58:	4603      	mov	r3, r0
 8007d5a:	2b00      	cmp	r3, #0
 8007d5c:	d004      	beq.n	8007d68 <stm32__spi__transmit_receive__2+0x4c>
 8007d5e:	4834      	ldr	r0, [pc, #208]	; (8007e30 <stm32__spi__transmit_receive__2+0x114>)
 8007d60:	f240 2199 	movw	r1, #665	; 0x299
 8007d64:	f7f8 faf2 	bl	800034c <__gnat_last_chance_handler>
 8007d68:	687b      	ldr	r3, [r7, #4]
 8007d6a:	685b      	ldr	r3, [r3, #4]
 8007d6c:	330c      	adds	r3, #12
 8007d6e:	681b      	ldr	r3, [r3, #0]
 8007d70:	78fa      	ldrb	r2, [r7, #3]
 8007d72:	b292      	uxth	r2, r2
 8007d74:	f362 030f 	bfi	r3, r2, #0, #16
 8007d78:	687a      	ldr	r2, [r7, #4]
 8007d7a:	6852      	ldr	r2, [r2, #4]
 8007d7c:	320c      	adds	r2, #12
 8007d7e:	6013      	str	r3, [r2, #0]
 8007d80:	6878      	ldr	r0, [r7, #4]
 8007d82:	f7ff fc39 	bl	80075f8 <stm32__spi__crc_enabled>
 8007d86:	4603      	mov	r3, r0
 8007d88:	2b00      	cmp	r3, #0
 8007d8a:	d009      	beq.n	8007da0 <stm32__spi__transmit_receive__2+0x84>
 8007d8c:	687b      	ldr	r3, [r7, #4]
 8007d8e:	685b      	ldr	r3, [r3, #4]
 8007d90:	681b      	ldr	r3, [r3, #0]
 8007d92:	461a      	mov	r2, r3
 8007d94:	4613      	mov	r3, r2
 8007d96:	f443 5280 	orr.w	r2, r3, #4096	; 0x1000
 8007d9a:	687b      	ldr	r3, [r7, #4]
 8007d9c:	685b      	ldr	r3, [r3, #4]
 8007d9e:	601a      	str	r2, [r3, #0]
 8007da0:	6878      	ldr	r0, [r7, #4]
 8007da2:	f7ff fbad 	bl	8007500 <stm32__spi__rx_is_empty>
 8007da6:	4603      	mov	r3, r0
 8007da8:	2b00      	cmp	r3, #0
 8007daa:	d001      	beq.n	8007db0 <stm32__spi__transmit_receive__2+0x94>
 8007dac:	bf00      	nop
 8007dae:	e7f7      	b.n	8007da0 <stm32__spi__transmit_receive__2+0x84>
 8007db0:	687b      	ldr	r3, [r7, #4]
 8007db2:	685b      	ldr	r3, [r3, #4]
 8007db4:	330c      	adds	r3, #12
 8007db6:	681b      	ldr	r3, [r3, #0]
 8007db8:	b29b      	uxth	r3, r3
 8007dba:	2bff      	cmp	r3, #255	; 0xff
 8007dbc:	d904      	bls.n	8007dc8 <stm32__spi__transmit_receive__2+0xac>
 8007dbe:	481c      	ldr	r0, [pc, #112]	; (8007e30 <stm32__spi__transmit_receive__2+0x114>)
 8007dc0:	f44f 712a 	mov.w	r1, #680	; 0x2a8
 8007dc4:	f7f8 fac2 	bl	800034c <__gnat_last_chance_handler>
 8007dc8:	b2db      	uxtb	r3, r3
 8007dca:	737b      	strb	r3, [r7, #13]
 8007dcc:	6878      	ldr	r0, [r7, #4]
 8007dce:	f7ff fc13 	bl	80075f8 <stm32__spi__crc_enabled>
 8007dd2:	4603      	mov	r3, r0
 8007dd4:	2b00      	cmp	r3, #0
 8007dd6:	d00c      	beq.n	8007df2 <stm32__spi__transmit_receive__2+0xd6>
 8007dd8:	6878      	ldr	r0, [r7, #4]
 8007dda:	f7ff fb91 	bl	8007500 <stm32__spi__rx_is_empty>
 8007dde:	4603      	mov	r3, r0
 8007de0:	2b00      	cmp	r3, #0
 8007de2:	d001      	beq.n	8007de8 <stm32__spi__transmit_receive__2+0xcc>
 8007de4:	bf00      	nop
 8007de6:	e7f7      	b.n	8007dd8 <stm32__spi__transmit_receive__2+0xbc>
 8007de8:	687b      	ldr	r3, [r7, #4]
 8007dea:	685b      	ldr	r3, [r3, #4]
 8007dec:	330c      	adds	r3, #12
 8007dee:	681b      	ldr	r3, [r3, #0]
 8007df0:	81fb      	strh	r3, [r7, #14]
 8007df2:	6878      	ldr	r0, [r7, #4]
 8007df4:	f7ff fb9a 	bl	800752c <stm32__spi__busy>
 8007df8:	4603      	mov	r3, r0
 8007dfa:	2b00      	cmp	r3, #0
 8007dfc:	d001      	beq.n	8007e02 <stm32__spi__transmit_receive__2+0xe6>
 8007dfe:	bf00      	nop
 8007e00:	e7f7      	b.n	8007df2 <stm32__spi__transmit_receive__2+0xd6>
 8007e02:	6878      	ldr	r0, [r7, #4]
 8007e04:	f7ff fbf8 	bl	80075f8 <stm32__spi__crc_enabled>
 8007e08:	4603      	mov	r3, r0
 8007e0a:	461c      	mov	r4, r3
 8007e0c:	6878      	ldr	r0, [r7, #4]
 8007e0e:	f7ff fc29 	bl	8007664 <stm32__spi__crc_error_indicated>
 8007e12:	4603      	mov	r3, r0
 8007e14:	4023      	ands	r3, r4
 8007e16:	b2db      	uxtb	r3, r3
 8007e18:	2b00      	cmp	r3, #0
 8007e1a:	d002      	beq.n	8007e22 <stm32__spi__transmit_receive__2+0x106>
 8007e1c:	6878      	ldr	r0, [r7, #4]
 8007e1e:	f7ff fc79 	bl	8007714 <stm32__spi__reset_crc>
 8007e22:	7b7b      	ldrb	r3, [r7, #13]
 8007e24:	bf00      	nop
 8007e26:	4618      	mov	r0, r3
 8007e28:	3714      	adds	r7, #20
 8007e2a:	46bd      	mov	sp, r7
 8007e2c:	bd90      	pop	{r4, r7, pc}
 8007e2e:	bf00      	nop
 8007e30:	0800bb80 	.word	0x0800bb80

08007e34 <stm32__spi__send_receive_16bit_mode>:
 8007e34:	b5f0      	push	{r4, r5, r6, r7, lr}
 8007e36:	b08d      	sub	sp, #52	; 0x34
 8007e38:	af00      	add	r7, sp, #0
 8007e3a:	60f8      	str	r0, [r7, #12]
 8007e3c:	e9c7 2300 	strd	r2, r3, [r7]
 8007e40:	687b      	ldr	r3, [r7, #4]
 8007e42:	681c      	ldr	r4, [r3, #0]
 8007e44:	687b      	ldr	r3, [r7, #4]
 8007e46:	685d      	ldr	r5, [r3, #4]
 8007e48:	6cfb      	ldr	r3, [r7, #76]	; 0x4c
 8007e4a:	681b      	ldr	r3, [r3, #0]
 8007e4c:	623b      	str	r3, [r7, #32]
 8007e4e:	6cfb      	ldr	r3, [r7, #76]	; 0x4c
 8007e50:	685a      	ldr	r2, [r3, #4]
 8007e52:	6cfb      	ldr	r3, [r7, #76]	; 0x4c
 8007e54:	681b      	ldr	r3, [r3, #0]
 8007e56:	429a      	cmp	r2, r3
 8007e58:	db03      	blt.n	8007e62 <stm32__spi__send_receive_16bit_mode+0x2e>
 8007e5a:	6cfb      	ldr	r3, [r7, #76]	; 0x4c
 8007e5c:	685b      	ldr	r3, [r3, #4]
 8007e5e:	61fb      	str	r3, [r7, #28]
 8007e60:	e003      	b.n	8007e6a <stm32__spi__send_receive_16bit_mode+0x36>
 8007e62:	6cfb      	ldr	r3, [r7, #76]	; 0x4c
 8007e64:	681b      	ldr	r3, [r3, #0]
 8007e66:	3b01      	subs	r3, #1
 8007e68:	61fb      	str	r3, [r7, #28]
 8007e6a:	61bc      	str	r4, [r7, #24]
 8007e6c:	42a5      	cmp	r5, r4
 8007e6e:	db01      	blt.n	8007e74 <stm32__spi__send_receive_16bit_mode+0x40>
 8007e70:	617d      	str	r5, [r7, #20]
 8007e72:	e002      	b.n	8007e7a <stm32__spi__send_receive_16bit_mode+0x46>
 8007e74:	4623      	mov	r3, r4
 8007e76:	3b01      	subs	r3, #1
 8007e78:	617b      	str	r3, [r7, #20]
 8007e7a:	6d3b      	ldr	r3, [r7, #80]	; 0x50
 8007e7c:	62fb      	str	r3, [r7, #44]	; 0x2c
 8007e7e:	2c00      	cmp	r4, #0
 8007e80:	da04      	bge.n	8007e8c <stm32__spi__send_receive_16bit_mode+0x58>
 8007e82:	48a7      	ldr	r0, [pc, #668]	; (8008120 <stm32__spi__send_receive_16bit_mode+0x2ec>)
 8007e84:	f240 21cb 	movw	r1, #715	; 0x2cb
 8007e88:	f7f8 fa60 	bl	800034c <__gnat_last_chance_handler>
 8007e8c:	62bc      	str	r4, [r7, #40]	; 0x28
 8007e8e:	6cfb      	ldr	r3, [r7, #76]	; 0x4c
 8007e90:	681b      	ldr	r3, [r3, #0]
 8007e92:	2b00      	cmp	r3, #0
 8007e94:	da04      	bge.n	8007ea0 <stm32__spi__send_receive_16bit_mode+0x6c>
 8007e96:	48a2      	ldr	r0, [pc, #648]	; (8008120 <stm32__spi__send_receive_16bit_mode+0x2ec>)
 8007e98:	f44f 7133 	mov.w	r1, #716	; 0x2cc
 8007e9c:	f7f8 fa56 	bl	800034c <__gnat_last_chance_handler>
 8007ea0:	6cfb      	ldr	r3, [r7, #76]	; 0x4c
 8007ea2:	681b      	ldr	r3, [r3, #0]
 8007ea4:	627b      	str	r3, [r7, #36]	; 0x24
 8007ea6:	68f8      	ldr	r0, [r7, #12]
 8007ea8:	f7ff fb52 	bl	8007550 <stm32__spi__current_mode>
 8007eac:	4603      	mov	r3, r0
 8007eae:	2b01      	cmp	r3, #1
 8007eb0:	d002      	beq.n	8007eb8 <stm32__spi__send_receive_16bit_mode+0x84>
 8007eb2:	6afb      	ldr	r3, [r7, #44]	; 0x2c
 8007eb4:	2b01      	cmp	r3, #1
 8007eb6:	d13c      	bne.n	8007f32 <stm32__spi__send_receive_16bit_mode+0xfe>
 8007eb8:	6abb      	ldr	r3, [r7, #40]	; 0x28
 8007eba:	42a3      	cmp	r3, r4
 8007ebc:	db02      	blt.n	8007ec4 <stm32__spi__send_receive_16bit_mode+0x90>
 8007ebe:	6abb      	ldr	r3, [r7, #40]	; 0x28
 8007ec0:	42ab      	cmp	r3, r5
 8007ec2:	dd04      	ble.n	8007ece <stm32__spi__send_receive_16bit_mode+0x9a>
 8007ec4:	4896      	ldr	r0, [pc, #600]	; (8008120 <stm32__spi__send_receive_16bit_mode+0x2ec>)
 8007ec6:	f44f 7134 	mov.w	r1, #720	; 0x2d0
 8007eca:	f7f8 fa3f 	bl	800034c <__gnat_last_chance_handler>
 8007ece:	683a      	ldr	r2, [r7, #0]
 8007ed0:	4621      	mov	r1, r4
 8007ed2:	6abb      	ldr	r3, [r7, #40]	; 0x28
 8007ed4:	1a5b      	subs	r3, r3, r1
 8007ed6:	4413      	add	r3, r2
 8007ed8:	2b00      	cmp	r3, #0
 8007eda:	d104      	bne.n	8007ee6 <stm32__spi__send_receive_16bit_mode+0xb2>
 8007edc:	4890      	ldr	r0, [pc, #576]	; (8008120 <stm32__spi__send_receive_16bit_mode+0x2ec>)
 8007ede:	f44f 7134 	mov.w	r1, #720	; 0x2d0
 8007ee2:	f7f8 fa33 	bl	800034c <__gnat_last_chance_handler>
 8007ee6:	68fb      	ldr	r3, [r7, #12]
 8007ee8:	685b      	ldr	r3, [r3, #4]
 8007eea:	330c      	adds	r3, #12
 8007eec:	681b      	ldr	r3, [r3, #0]
 8007eee:	6839      	ldr	r1, [r7, #0]
 8007ef0:	4620      	mov	r0, r4
 8007ef2:	6aba      	ldr	r2, [r7, #40]	; 0x28
 8007ef4:	1a12      	subs	r2, r2, r0
 8007ef6:	440a      	add	r2, r1
 8007ef8:	8812      	ldrh	r2, [r2, #0]
 8007efa:	f362 030f 	bfi	r3, r2, #0, #16
 8007efe:	68fa      	ldr	r2, [r7, #12]
 8007f00:	6852      	ldr	r2, [r2, #4]
 8007f02:	320c      	adds	r2, #12
 8007f04:	6013      	str	r3, [r2, #0]
 8007f06:	6abb      	ldr	r3, [r7, #40]	; 0x28
 8007f08:	4a86      	ldr	r2, [pc, #536]	; (8008124 <stm32__spi__send_receive_16bit_mode+0x2f0>)
 8007f0a:	4293      	cmp	r3, r2
 8007f0c:	dd04      	ble.n	8007f18 <stm32__spi__send_receive_16bit_mode+0xe4>
 8007f0e:	4884      	ldr	r0, [pc, #528]	; (8008120 <stm32__spi__send_receive_16bit_mode+0x2ec>)
 8007f10:	f240 21d1 	movw	r1, #721	; 0x2d1
 8007f14:	f7f8 fa1a 	bl	800034c <__gnat_last_chance_handler>
 8007f18:	6abb      	ldr	r3, [r7, #40]	; 0x28
 8007f1a:	3302      	adds	r3, #2
 8007f1c:	62bb      	str	r3, [r7, #40]	; 0x28
 8007f1e:	6afb      	ldr	r3, [r7, #44]	; 0x2c
 8007f20:	3b01      	subs	r3, #1
 8007f22:	2b00      	cmp	r3, #0
 8007f24:	da04      	bge.n	8007f30 <stm32__spi__send_receive_16bit_mode+0xfc>
 8007f26:	487e      	ldr	r0, [pc, #504]	; (8008120 <stm32__spi__send_receive_16bit_mode+0x2ec>)
 8007f28:	f240 21d2 	movw	r1, #722	; 0x2d2
 8007f2c:	f7f8 fa0e 	bl	800034c <__gnat_last_chance_handler>
 8007f30:	62fb      	str	r3, [r7, #44]	; 0x2c
 8007f32:	6afb      	ldr	r3, [r7, #44]	; 0x2c
 8007f34:	2b00      	cmp	r3, #0
 8007f36:	d142      	bne.n	8007fbe <stm32__spi__send_receive_16bit_mode+0x18a>
 8007f38:	68f8      	ldr	r0, [r7, #12]
 8007f3a:	f7ff fb5d 	bl	80075f8 <stm32__spi__crc_enabled>
 8007f3e:	4603      	mov	r3, r0
 8007f40:	2b00      	cmp	r3, #0
 8007f42:	d009      	beq.n	8007f58 <stm32__spi__send_receive_16bit_mode+0x124>
 8007f44:	68fb      	ldr	r3, [r7, #12]
 8007f46:	685b      	ldr	r3, [r3, #4]
 8007f48:	681b      	ldr	r3, [r3, #0]
 8007f4a:	461a      	mov	r2, r3
 8007f4c:	4613      	mov	r3, r2
 8007f4e:	f443 5280 	orr.w	r2, r3, #4096	; 0x1000
 8007f52:	68fb      	ldr	r3, [r7, #12]
 8007f54:	685b      	ldr	r3, [r3, #4]
 8007f56:	601a      	str	r2, [r3, #0]
 8007f58:	68f8      	ldr	r0, [r7, #12]
 8007f5a:	f7ff fad1 	bl	8007500 <stm32__spi__rx_is_empty>
 8007f5e:	4603      	mov	r3, r0
 8007f60:	2b00      	cmp	r3, #0
 8007f62:	d001      	beq.n	8007f68 <stm32__spi__send_receive_16bit_mode+0x134>
 8007f64:	bf00      	nop
 8007f66:	e7f7      	b.n	8007f58 <stm32__spi__send_receive_16bit_mode+0x124>
 8007f68:	6a7a      	ldr	r2, [r7, #36]	; 0x24
 8007f6a:	6cfb      	ldr	r3, [r7, #76]	; 0x4c
 8007f6c:	681b      	ldr	r3, [r3, #0]
 8007f6e:	429a      	cmp	r2, r3
 8007f70:	db04      	blt.n	8007f7c <stm32__spi__send_receive_16bit_mode+0x148>
 8007f72:	6a7a      	ldr	r2, [r7, #36]	; 0x24
 8007f74:	6cfb      	ldr	r3, [r7, #76]	; 0x4c
 8007f76:	685b      	ldr	r3, [r3, #4]
 8007f78:	429a      	cmp	r2, r3
 8007f7a:	dd04      	ble.n	8007f86 <stm32__spi__send_receive_16bit_mode+0x152>
 8007f7c:	4868      	ldr	r0, [pc, #416]	; (8008120 <stm32__spi__send_receive_16bit_mode+0x2ec>)
 8007f7e:	f240 21e1 	movw	r1, #737	; 0x2e1
 8007f82:	f7f8 f9e3 	bl	800034c <__gnat_last_chance_handler>
 8007f86:	6cba      	ldr	r2, [r7, #72]	; 0x48
 8007f88:	6cfb      	ldr	r3, [r7, #76]	; 0x4c
 8007f8a:	681b      	ldr	r3, [r3, #0]
 8007f8c:	4619      	mov	r1, r3
 8007f8e:	6a7b      	ldr	r3, [r7, #36]	; 0x24
 8007f90:	1a5b      	subs	r3, r3, r1
 8007f92:	4413      	add	r3, r2
 8007f94:	2b00      	cmp	r3, #0
 8007f96:	d104      	bne.n	8007fa2 <stm32__spi__send_receive_16bit_mode+0x16e>
 8007f98:	4861      	ldr	r0, [pc, #388]	; (8008120 <stm32__spi__send_receive_16bit_mode+0x2ec>)
 8007f9a:	f240 21e1 	movw	r1, #737	; 0x2e1
 8007f9e:	f7f8 f9d5 	bl	800034c <__gnat_last_chance_handler>
 8007fa2:	6cba      	ldr	r2, [r7, #72]	; 0x48
 8007fa4:	6cfb      	ldr	r3, [r7, #76]	; 0x4c
 8007fa6:	681b      	ldr	r3, [r3, #0]
 8007fa8:	4619      	mov	r1, r3
 8007faa:	6a7b      	ldr	r3, [r7, #36]	; 0x24
 8007fac:	1a5b      	subs	r3, r3, r1
 8007fae:	4413      	add	r3, r2
 8007fb0:	68fa      	ldr	r2, [r7, #12]
 8007fb2:	6852      	ldr	r2, [r2, #4]
 8007fb4:	320c      	adds	r2, #12
 8007fb6:	6812      	ldr	r2, [r2, #0]
 8007fb8:	b292      	uxth	r2, r2
 8007fba:	801a      	strh	r2, [r3, #0]
 8007fbc:	e0de      	b.n	800817c <stm32__spi__send_receive_16bit_mode+0x348>
 8007fbe:	6afb      	ldr	r3, [r7, #44]	; 0x2c
 8007fc0:	2b00      	cmp	r3, #0
 8007fc2:	f340 809f 	ble.w	8008104 <stm32__spi__send_receive_16bit_mode+0x2d0>
 8007fc6:	68f8      	ldr	r0, [r7, #12]
 8007fc8:	f7ff fa88 	bl	80074dc <stm32__spi__tx_is_empty>
 8007fcc:	4603      	mov	r3, r0
 8007fce:	f083 0301 	eor.w	r3, r3, #1
 8007fd2:	b2db      	uxtb	r3, r3
 8007fd4:	2b00      	cmp	r3, #0
 8007fd6:	d001      	beq.n	8007fdc <stm32__spi__send_receive_16bit_mode+0x1a8>
 8007fd8:	bf00      	nop
 8007fda:	e7f4      	b.n	8007fc6 <stm32__spi__send_receive_16bit_mode+0x192>
 8007fdc:	6abb      	ldr	r3, [r7, #40]	; 0x28
 8007fde:	42a3      	cmp	r3, r4
 8007fe0:	db02      	blt.n	8007fe8 <stm32__spi__send_receive_16bit_mode+0x1b4>
 8007fe2:	6abb      	ldr	r3, [r7, #40]	; 0x28
 8007fe4:	42ab      	cmp	r3, r5
 8007fe6:	dd04      	ble.n	8007ff2 <stm32__spi__send_receive_16bit_mode+0x1be>
 8007fe8:	484d      	ldr	r0, [pc, #308]	; (8008120 <stm32__spi__send_receive_16bit_mode+0x2ec>)
 8007fea:	f240 21ee 	movw	r1, #750	; 0x2ee
 8007fee:	f7f8 f9ad 	bl	800034c <__gnat_last_chance_handler>
 8007ff2:	683a      	ldr	r2, [r7, #0]
 8007ff4:	4621      	mov	r1, r4
 8007ff6:	6abb      	ldr	r3, [r7, #40]	; 0x28
 8007ff8:	1a5b      	subs	r3, r3, r1
 8007ffa:	4413      	add	r3, r2
 8007ffc:	2b00      	cmp	r3, #0
 8007ffe:	d104      	bne.n	800800a <stm32__spi__send_receive_16bit_mode+0x1d6>
 8008000:	4847      	ldr	r0, [pc, #284]	; (8008120 <stm32__spi__send_receive_16bit_mode+0x2ec>)
 8008002:	f240 21ee 	movw	r1, #750	; 0x2ee
 8008006:	f7f8 f9a1 	bl	800034c <__gnat_last_chance_handler>
 800800a:	68fb      	ldr	r3, [r7, #12]
 800800c:	685b      	ldr	r3, [r3, #4]
 800800e:	330c      	adds	r3, #12
 8008010:	681b      	ldr	r3, [r3, #0]
 8008012:	6839      	ldr	r1, [r7, #0]
 8008014:	4620      	mov	r0, r4
 8008016:	6aba      	ldr	r2, [r7, #40]	; 0x28
 8008018:	1a12      	subs	r2, r2, r0
 800801a:	440a      	add	r2, r1
 800801c:	8812      	ldrh	r2, [r2, #0]
 800801e:	f362 030f 	bfi	r3, r2, #0, #16
 8008022:	68fa      	ldr	r2, [r7, #12]
 8008024:	6852      	ldr	r2, [r2, #4]
 8008026:	320c      	adds	r2, #12
 8008028:	6013      	str	r3, [r2, #0]
 800802a:	6abb      	ldr	r3, [r7, #40]	; 0x28
 800802c:	4a3d      	ldr	r2, [pc, #244]	; (8008124 <stm32__spi__send_receive_16bit_mode+0x2f0>)
 800802e:	4293      	cmp	r3, r2
 8008030:	dd04      	ble.n	800803c <stm32__spi__send_receive_16bit_mode+0x208>
 8008032:	483b      	ldr	r0, [pc, #236]	; (8008120 <stm32__spi__send_receive_16bit_mode+0x2ec>)
 8008034:	f240 21ef 	movw	r1, #751	; 0x2ef
 8008038:	f7f8 f988 	bl	800034c <__gnat_last_chance_handler>
 800803c:	6abb      	ldr	r3, [r7, #40]	; 0x28
 800803e:	3302      	adds	r3, #2
 8008040:	62bb      	str	r3, [r7, #40]	; 0x28
 8008042:	6afb      	ldr	r3, [r7, #44]	; 0x2c
 8008044:	3b01      	subs	r3, #1
 8008046:	2b00      	cmp	r3, #0
 8008048:	da04      	bge.n	8008054 <stm32__spi__send_receive_16bit_mode+0x220>
 800804a:	4835      	ldr	r0, [pc, #212]	; (8008120 <stm32__spi__send_receive_16bit_mode+0x2ec>)
 800804c:	f44f 713c 	mov.w	r1, #752	; 0x2f0
 8008050:	f7f8 f97c 	bl	800034c <__gnat_last_chance_handler>
 8008054:	62fb      	str	r3, [r7, #44]	; 0x2c
 8008056:	6afb      	ldr	r3, [r7, #44]	; 0x2c
 8008058:	2b00      	cmp	r3, #0
 800805a:	bf0c      	ite	eq
 800805c:	2301      	moveq	r3, #1
 800805e:	2300      	movne	r3, #0
 8008060:	b2de      	uxtb	r6, r3
 8008062:	68f8      	ldr	r0, [r7, #12]
 8008064:	f7ff fac8 	bl	80075f8 <stm32__spi__crc_enabled>
 8008068:	4603      	mov	r3, r0
 800806a:	4033      	ands	r3, r6
 800806c:	b2db      	uxtb	r3, r3
 800806e:	2b00      	cmp	r3, #0
 8008070:	d009      	beq.n	8008086 <stm32__spi__send_receive_16bit_mode+0x252>
 8008072:	68fb      	ldr	r3, [r7, #12]
 8008074:	685b      	ldr	r3, [r3, #4]
 8008076:	681b      	ldr	r3, [r3, #0]
 8008078:	461a      	mov	r2, r3
 800807a:	4613      	mov	r3, r2
 800807c:	f443 5280 	orr.w	r2, r3, #4096	; 0x1000
 8008080:	68fb      	ldr	r3, [r7, #12]
 8008082:	685b      	ldr	r3, [r3, #4]
 8008084:	601a      	str	r2, [r3, #0]
 8008086:	68f8      	ldr	r0, [r7, #12]
 8008088:	f7ff fa3a 	bl	8007500 <stm32__spi__rx_is_empty>
 800808c:	4603      	mov	r3, r0
 800808e:	2b00      	cmp	r3, #0
 8008090:	d001      	beq.n	8008096 <stm32__spi__send_receive_16bit_mode+0x262>
 8008092:	bf00      	nop
 8008094:	e7f7      	b.n	8008086 <stm32__spi__send_receive_16bit_mode+0x252>
 8008096:	6a7a      	ldr	r2, [r7, #36]	; 0x24
 8008098:	6cfb      	ldr	r3, [r7, #76]	; 0x4c
 800809a:	681b      	ldr	r3, [r3, #0]
 800809c:	429a      	cmp	r2, r3
 800809e:	db04      	blt.n	80080aa <stm32__spi__send_receive_16bit_mode+0x276>
 80080a0:	6a7a      	ldr	r2, [r7, #36]	; 0x24
 80080a2:	6cfb      	ldr	r3, [r7, #76]	; 0x4c
 80080a4:	685b      	ldr	r3, [r3, #4]
 80080a6:	429a      	cmp	r2, r3
 80080a8:	dd04      	ble.n	80080b4 <stm32__spi__send_receive_16bit_mode+0x280>
 80080aa:	481d      	ldr	r0, [pc, #116]	; (8008120 <stm32__spi__send_receive_16bit_mode+0x2ec>)
 80080ac:	f44f 713f 	mov.w	r1, #764	; 0x2fc
 80080b0:	f7f8 f94c 	bl	800034c <__gnat_last_chance_handler>
 80080b4:	6cba      	ldr	r2, [r7, #72]	; 0x48
 80080b6:	6cfb      	ldr	r3, [r7, #76]	; 0x4c
 80080b8:	681b      	ldr	r3, [r3, #0]
 80080ba:	4619      	mov	r1, r3
 80080bc:	6a7b      	ldr	r3, [r7, #36]	; 0x24
 80080be:	1a5b      	subs	r3, r3, r1
 80080c0:	4413      	add	r3, r2
 80080c2:	2b00      	cmp	r3, #0
 80080c4:	d104      	bne.n	80080d0 <stm32__spi__send_receive_16bit_mode+0x29c>
 80080c6:	4816      	ldr	r0, [pc, #88]	; (8008120 <stm32__spi__send_receive_16bit_mode+0x2ec>)
 80080c8:	f44f 713f 	mov.w	r1, #764	; 0x2fc
 80080cc:	f7f8 f93e 	bl	800034c <__gnat_last_chance_handler>
 80080d0:	6cba      	ldr	r2, [r7, #72]	; 0x48
 80080d2:	6cfb      	ldr	r3, [r7, #76]	; 0x4c
 80080d4:	681b      	ldr	r3, [r3, #0]
 80080d6:	4619      	mov	r1, r3
 80080d8:	6a7b      	ldr	r3, [r7, #36]	; 0x24
 80080da:	1a5b      	subs	r3, r3, r1
 80080dc:	4413      	add	r3, r2
 80080de:	68fa      	ldr	r2, [r7, #12]
 80080e0:	6852      	ldr	r2, [r2, #4]
 80080e2:	320c      	adds	r2, #12
 80080e4:	6812      	ldr	r2, [r2, #0]
 80080e6:	b292      	uxth	r2, r2
 80080e8:	801a      	strh	r2, [r3, #0]
 80080ea:	6a7b      	ldr	r3, [r7, #36]	; 0x24
 80080ec:	4a0d      	ldr	r2, [pc, #52]	; (8008124 <stm32__spi__send_receive_16bit_mode+0x2f0>)
 80080ee:	4293      	cmp	r3, r2
 80080f0:	dd04      	ble.n	80080fc <stm32__spi__send_receive_16bit_mode+0x2c8>
 80080f2:	480b      	ldr	r0, [pc, #44]	; (8008120 <stm32__spi__send_receive_16bit_mode+0x2ec>)
 80080f4:	f240 21fe 	movw	r1, #766	; 0x2fe
 80080f8:	f7f8 f928 	bl	800034c <__gnat_last_chance_handler>
 80080fc:	6a7b      	ldr	r3, [r7, #36]	; 0x24
 80080fe:	3302      	adds	r3, #2
 8008100:	627b      	str	r3, [r7, #36]	; 0x24
 8008102:	e75c      	b.n	8007fbe <stm32__spi__send_receive_16bit_mode+0x18a>
 8008104:	68f8      	ldr	r0, [r7, #12]
 8008106:	f7ff fa23 	bl	8007550 <stm32__spi__current_mode>
 800810a:	4603      	mov	r3, r0
 800810c:	2b01      	cmp	r3, #1
 800810e:	d135      	bne.n	800817c <stm32__spi__send_receive_16bit_mode+0x348>
 8008110:	68f8      	ldr	r0, [r7, #12]
 8008112:	f7ff f9f5 	bl	8007500 <stm32__spi__rx_is_empty>
 8008116:	4603      	mov	r3, r0
 8008118:	2b00      	cmp	r3, #0
 800811a:	d005      	beq.n	8008128 <stm32__spi__send_receive_16bit_mode+0x2f4>
 800811c:	bf00      	nop
 800811e:	e7f7      	b.n	8008110 <stm32__spi__send_receive_16bit_mode+0x2dc>
 8008120:	0800bb80 	.word	0x0800bb80
 8008124:	7ffffffd 	.word	0x7ffffffd
 8008128:	6a7a      	ldr	r2, [r7, #36]	; 0x24
 800812a:	6cfb      	ldr	r3, [r7, #76]	; 0x4c
 800812c:	681b      	ldr	r3, [r3, #0]
 800812e:	429a      	cmp	r2, r3
 8008130:	db04      	blt.n	800813c <stm32__spi__send_receive_16bit_mode+0x308>
 8008132:	6a7a      	ldr	r2, [r7, #36]	; 0x24
 8008134:	6cfb      	ldr	r3, [r7, #76]	; 0x4c
 8008136:	685b      	ldr	r3, [r3, #4]
 8008138:	429a      	cmp	r2, r3
 800813a:	dd04      	ble.n	8008146 <stm32__spi__send_receive_16bit_mode+0x312>
 800813c:	4811      	ldr	r0, [pc, #68]	; (8008184 <stm32__spi__send_receive_16bit_mode+0x350>)
 800813e:	f44f 7142 	mov.w	r1, #776	; 0x308
 8008142:	f7f8 f903 	bl	800034c <__gnat_last_chance_handler>
 8008146:	6cba      	ldr	r2, [r7, #72]	; 0x48
 8008148:	6cfb      	ldr	r3, [r7, #76]	; 0x4c
 800814a:	681b      	ldr	r3, [r3, #0]
 800814c:	4619      	mov	r1, r3
 800814e:	6a7b      	ldr	r3, [r7, #36]	; 0x24
 8008150:	1a5b      	subs	r3, r3, r1
 8008152:	4413      	add	r3, r2
 8008154:	2b00      	cmp	r3, #0
 8008156:	d104      	bne.n	8008162 <stm32__spi__send_receive_16bit_mode+0x32e>
 8008158:	480a      	ldr	r0, [pc, #40]	; (8008184 <stm32__spi__send_receive_16bit_mode+0x350>)
 800815a:	f44f 7142 	mov.w	r1, #776	; 0x308
 800815e:	f7f8 f8f5 	bl	800034c <__gnat_last_chance_handler>
 8008162:	6cba      	ldr	r2, [r7, #72]	; 0x48
 8008164:	6cfb      	ldr	r3, [r7, #76]	; 0x4c
 8008166:	681b      	ldr	r3, [r3, #0]
 8008168:	4619      	mov	r1, r3
 800816a:	6a7b      	ldr	r3, [r7, #36]	; 0x24
 800816c:	1a5b      	subs	r3, r3, r1
 800816e:	4413      	add	r3, r2
 8008170:	68fa      	ldr	r2, [r7, #12]
 8008172:	6852      	ldr	r2, [r2, #4]
 8008174:	320c      	adds	r2, #12
 8008176:	6812      	ldr	r2, [r2, #0]
 8008178:	b292      	uxth	r2, r2
 800817a:	801a      	strh	r2, [r3, #0]
 800817c:	3734      	adds	r7, #52	; 0x34
 800817e:	46bd      	mov	sp, r7
 8008180:	bdf0      	pop	{r4, r5, r6, r7, pc}
 8008182:	bf00      	nop
 8008184:	0800bb80 	.word	0x0800bb80

08008188 <stm32__spi__send_receive_8bit_mode>:
 8008188:	b5f0      	push	{r4, r5, r6, r7, lr}
 800818a:	b08d      	sub	sp, #52	; 0x34
 800818c:	af00      	add	r7, sp, #0
 800818e:	60f8      	str	r0, [r7, #12]
 8008190:	e9c7 2300 	strd	r2, r3, [r7]
 8008194:	687b      	ldr	r3, [r7, #4]
 8008196:	681c      	ldr	r4, [r3, #0]
 8008198:	687b      	ldr	r3, [r7, #4]
 800819a:	685d      	ldr	r5, [r3, #4]
 800819c:	6cfb      	ldr	r3, [r7, #76]	; 0x4c
 800819e:	681b      	ldr	r3, [r3, #0]
 80081a0:	623b      	str	r3, [r7, #32]
 80081a2:	6cfb      	ldr	r3, [r7, #76]	; 0x4c
 80081a4:	685a      	ldr	r2, [r3, #4]
 80081a6:	6cfb      	ldr	r3, [r7, #76]	; 0x4c
 80081a8:	681b      	ldr	r3, [r3, #0]
 80081aa:	429a      	cmp	r2, r3
 80081ac:	db03      	blt.n	80081b6 <stm32__spi__send_receive_8bit_mode+0x2e>
 80081ae:	6cfb      	ldr	r3, [r7, #76]	; 0x4c
 80081b0:	685b      	ldr	r3, [r3, #4]
 80081b2:	61fb      	str	r3, [r7, #28]
 80081b4:	e003      	b.n	80081be <stm32__spi__send_receive_8bit_mode+0x36>
 80081b6:	6cfb      	ldr	r3, [r7, #76]	; 0x4c
 80081b8:	681b      	ldr	r3, [r3, #0]
 80081ba:	3b01      	subs	r3, #1
 80081bc:	61fb      	str	r3, [r7, #28]
 80081be:	61bc      	str	r4, [r7, #24]
 80081c0:	42a5      	cmp	r5, r4
 80081c2:	db01      	blt.n	80081c8 <stm32__spi__send_receive_8bit_mode+0x40>
 80081c4:	617d      	str	r5, [r7, #20]
 80081c6:	e002      	b.n	80081ce <stm32__spi__send_receive_8bit_mode+0x46>
 80081c8:	4623      	mov	r3, r4
 80081ca:	3b01      	subs	r3, #1
 80081cc:	617b      	str	r3, [r7, #20]
 80081ce:	6d3b      	ldr	r3, [r7, #80]	; 0x50
 80081d0:	62fb      	str	r3, [r7, #44]	; 0x2c
 80081d2:	2c00      	cmp	r4, #0
 80081d4:	da04      	bge.n	80081e0 <stm32__spi__send_receive_8bit_mode+0x58>
 80081d6:	48a8      	ldr	r0, [pc, #672]	; (8008478 <stm32__spi__send_receive_8bit_mode+0x2f0>)
 80081d8:	f44f 7146 	mov.w	r1, #792	; 0x318
 80081dc:	f7f8 f8b6 	bl	800034c <__gnat_last_chance_handler>
 80081e0:	62bc      	str	r4, [r7, #40]	; 0x28
 80081e2:	6cfb      	ldr	r3, [r7, #76]	; 0x4c
 80081e4:	681b      	ldr	r3, [r3, #0]
 80081e6:	2b00      	cmp	r3, #0
 80081e8:	da04      	bge.n	80081f4 <stm32__spi__send_receive_8bit_mode+0x6c>
 80081ea:	48a3      	ldr	r0, [pc, #652]	; (8008478 <stm32__spi__send_receive_8bit_mode+0x2f0>)
 80081ec:	f240 3119 	movw	r1, #793	; 0x319
 80081f0:	f7f8 f8ac 	bl	800034c <__gnat_last_chance_handler>
 80081f4:	6cfb      	ldr	r3, [r7, #76]	; 0x4c
 80081f6:	681b      	ldr	r3, [r3, #0]
 80081f8:	627b      	str	r3, [r7, #36]	; 0x24
 80081fa:	68f8      	ldr	r0, [r7, #12]
 80081fc:	f7ff f9a8 	bl	8007550 <stm32__spi__current_mode>
 8008200:	4603      	mov	r3, r0
 8008202:	2b01      	cmp	r3, #1
 8008204:	d002      	beq.n	800820c <stm32__spi__send_receive_8bit_mode+0x84>
 8008206:	6afb      	ldr	r3, [r7, #44]	; 0x2c
 8008208:	2b01      	cmp	r3, #1
 800820a:	d131      	bne.n	8008270 <stm32__spi__send_receive_8bit_mode+0xe8>
 800820c:	6abb      	ldr	r3, [r7, #40]	; 0x28
 800820e:	42a3      	cmp	r3, r4
 8008210:	db02      	blt.n	8008218 <stm32__spi__send_receive_8bit_mode+0x90>
 8008212:	6abb      	ldr	r3, [r7, #40]	; 0x28
 8008214:	42ab      	cmp	r3, r5
 8008216:	dd04      	ble.n	8008222 <stm32__spi__send_receive_8bit_mode+0x9a>
 8008218:	4897      	ldr	r0, [pc, #604]	; (8008478 <stm32__spi__send_receive_8bit_mode+0x2f0>)
 800821a:	f44f 7147 	mov.w	r1, #796	; 0x31c
 800821e:	f7f8 f895 	bl	800034c <__gnat_last_chance_handler>
 8008222:	68fb      	ldr	r3, [r7, #12]
 8008224:	685b      	ldr	r3, [r3, #4]
 8008226:	330c      	adds	r3, #12
 8008228:	681b      	ldr	r3, [r3, #0]
 800822a:	6839      	ldr	r1, [r7, #0]
 800822c:	6ab8      	ldr	r0, [r7, #40]	; 0x28
 800822e:	69ba      	ldr	r2, [r7, #24]
 8008230:	1a82      	subs	r2, r0, r2
 8008232:	5c8a      	ldrb	r2, [r1, r2]
 8008234:	b292      	uxth	r2, r2
 8008236:	f362 030f 	bfi	r3, r2, #0, #16
 800823a:	68fa      	ldr	r2, [r7, #12]
 800823c:	6852      	ldr	r2, [r2, #4]
 800823e:	320c      	adds	r2, #12
 8008240:	6013      	str	r3, [r2, #0]
 8008242:	6abb      	ldr	r3, [r7, #40]	; 0x28
 8008244:	f06f 4200 	mvn.w	r2, #2147483648	; 0x80000000
 8008248:	4293      	cmp	r3, r2
 800824a:	d104      	bne.n	8008256 <stm32__spi__send_receive_8bit_mode+0xce>
 800824c:	488a      	ldr	r0, [pc, #552]	; (8008478 <stm32__spi__send_receive_8bit_mode+0x2f0>)
 800824e:	f240 311d 	movw	r1, #797	; 0x31d
 8008252:	f7f8 f87b 	bl	800034c <__gnat_last_chance_handler>
 8008256:	6abb      	ldr	r3, [r7, #40]	; 0x28
 8008258:	3301      	adds	r3, #1
 800825a:	62bb      	str	r3, [r7, #40]	; 0x28
 800825c:	6afb      	ldr	r3, [r7, #44]	; 0x2c
 800825e:	3b01      	subs	r3, #1
 8008260:	2b00      	cmp	r3, #0
 8008262:	da04      	bge.n	800826e <stm32__spi__send_receive_8bit_mode+0xe6>
 8008264:	4884      	ldr	r0, [pc, #528]	; (8008478 <stm32__spi__send_receive_8bit_mode+0x2f0>)
 8008266:	f240 311e 	movw	r1, #798	; 0x31e
 800826a:	f7f8 f86f 	bl	800034c <__gnat_last_chance_handler>
 800826e:	62fb      	str	r3, [r7, #44]	; 0x2c
 8008270:	6afb      	ldr	r3, [r7, #44]	; 0x2c
 8008272:	2b00      	cmp	r3, #0
 8008274:	d142      	bne.n	80082fc <stm32__spi__send_receive_8bit_mode+0x174>
 8008276:	68f8      	ldr	r0, [r7, #12]
 8008278:	f7ff f9be 	bl	80075f8 <stm32__spi__crc_enabled>
 800827c:	4603      	mov	r3, r0
 800827e:	2b00      	cmp	r3, #0
 8008280:	d009      	beq.n	8008296 <stm32__spi__send_receive_8bit_mode+0x10e>
 8008282:	68fb      	ldr	r3, [r7, #12]
 8008284:	685b      	ldr	r3, [r3, #4]
 8008286:	681b      	ldr	r3, [r3, #0]
 8008288:	461a      	mov	r2, r3
 800828a:	4613      	mov	r3, r2
 800828c:	f443 5280 	orr.w	r2, r3, #4096	; 0x1000
 8008290:	68fb      	ldr	r3, [r7, #12]
 8008292:	685b      	ldr	r3, [r3, #4]
 8008294:	601a      	str	r2, [r3, #0]
 8008296:	68f8      	ldr	r0, [r7, #12]
 8008298:	f7ff f932 	bl	8007500 <stm32__spi__rx_is_empty>
 800829c:	4603      	mov	r3, r0
 800829e:	2b00      	cmp	r3, #0
 80082a0:	d001      	beq.n	80082a6 <stm32__spi__send_receive_8bit_mode+0x11e>
 80082a2:	bf00      	nop
 80082a4:	e7f7      	b.n	8008296 <stm32__spi__send_receive_8bit_mode+0x10e>
 80082a6:	6a7a      	ldr	r2, [r7, #36]	; 0x24
 80082a8:	6cfb      	ldr	r3, [r7, #76]	; 0x4c
 80082aa:	681b      	ldr	r3, [r3, #0]
 80082ac:	429a      	cmp	r2, r3
 80082ae:	db04      	blt.n	80082ba <stm32__spi__send_receive_8bit_mode+0x132>
 80082b0:	6a7a      	ldr	r2, [r7, #36]	; 0x24
 80082b2:	6cfb      	ldr	r3, [r7, #76]	; 0x4c
 80082b4:	685b      	ldr	r3, [r3, #4]
 80082b6:	429a      	cmp	r2, r3
 80082b8:	dd04      	ble.n	80082c4 <stm32__spi__send_receive_8bit_mode+0x13c>
 80082ba:	486f      	ldr	r0, [pc, #444]	; (8008478 <stm32__spi__send_receive_8bit_mode+0x2f0>)
 80082bc:	f240 312d 	movw	r1, #813	; 0x32d
 80082c0:	f7f8 f844 	bl	800034c <__gnat_last_chance_handler>
 80082c4:	68fb      	ldr	r3, [r7, #12]
 80082c6:	685b      	ldr	r3, [r3, #4]
 80082c8:	330c      	adds	r3, #12
 80082ca:	681b      	ldr	r3, [r3, #0]
 80082cc:	b29b      	uxth	r3, r3
 80082ce:	2bff      	cmp	r3, #255	; 0xff
 80082d0:	d904      	bls.n	80082dc <stm32__spi__send_receive_8bit_mode+0x154>
 80082d2:	4869      	ldr	r0, [pc, #420]	; (8008478 <stm32__spi__send_receive_8bit_mode+0x2f0>)
 80082d4:	f240 312d 	movw	r1, #813	; 0x32d
 80082d8:	f7f8 f838 	bl	800034c <__gnat_last_chance_handler>
 80082dc:	6a7a      	ldr	r2, [r7, #36]	; 0x24
 80082de:	2a00      	cmp	r2, #0
 80082e0:	da04      	bge.n	80082ec <stm32__spi__send_receive_8bit_mode+0x164>
 80082e2:	4865      	ldr	r0, [pc, #404]	; (8008478 <stm32__spi__send_receive_8bit_mode+0x2f0>)
 80082e4:	f240 312d 	movw	r1, #813	; 0x32d
 80082e8:	f7f8 f830 	bl	800034c <__gnat_last_chance_handler>
 80082ec:	6cba      	ldr	r2, [r7, #72]	; 0x48
 80082ee:	b2d8      	uxtb	r0, r3
 80082f0:	6a79      	ldr	r1, [r7, #36]	; 0x24
 80082f2:	6a3b      	ldr	r3, [r7, #32]
 80082f4:	1acb      	subs	r3, r1, r3
 80082f6:	4601      	mov	r1, r0
 80082f8:	54d1      	strb	r1, [r2, r3]
 80082fa:	e0ca      	b.n	8008492 <stm32__spi__send_receive_8bit_mode+0x30a>
 80082fc:	6afb      	ldr	r3, [r7, #44]	; 0x2c
 80082fe:	2b00      	cmp	r3, #0
 8008300:	f340 8095 	ble.w	800842e <stm32__spi__send_receive_8bit_mode+0x2a6>
 8008304:	68f8      	ldr	r0, [r7, #12]
 8008306:	f7ff f8e9 	bl	80074dc <stm32__spi__tx_is_empty>
 800830a:	4603      	mov	r3, r0
 800830c:	f083 0301 	eor.w	r3, r3, #1
 8008310:	b2db      	uxtb	r3, r3
 8008312:	2b00      	cmp	r3, #0
 8008314:	d001      	beq.n	800831a <stm32__spi__send_receive_8bit_mode+0x192>
 8008316:	bf00      	nop
 8008318:	e7f4      	b.n	8008304 <stm32__spi__send_receive_8bit_mode+0x17c>
 800831a:	6abb      	ldr	r3, [r7, #40]	; 0x28
 800831c:	42a3      	cmp	r3, r4
 800831e:	db02      	blt.n	8008326 <stm32__spi__send_receive_8bit_mode+0x19e>
 8008320:	6abb      	ldr	r3, [r7, #40]	; 0x28
 8008322:	42ab      	cmp	r3, r5
 8008324:	dd04      	ble.n	8008330 <stm32__spi__send_receive_8bit_mode+0x1a8>
 8008326:	4854      	ldr	r0, [pc, #336]	; (8008478 <stm32__spi__send_receive_8bit_mode+0x2f0>)
 8008328:	f240 3139 	movw	r1, #825	; 0x339
 800832c:	f7f8 f80e 	bl	800034c <__gnat_last_chance_handler>
 8008330:	68fb      	ldr	r3, [r7, #12]
 8008332:	685b      	ldr	r3, [r3, #4]
 8008334:	330c      	adds	r3, #12
 8008336:	681b      	ldr	r3, [r3, #0]
 8008338:	6839      	ldr	r1, [r7, #0]
 800833a:	6ab8      	ldr	r0, [r7, #40]	; 0x28
 800833c:	69ba      	ldr	r2, [r7, #24]
 800833e:	1a82      	subs	r2, r0, r2
 8008340:	5c8a      	ldrb	r2, [r1, r2]
 8008342:	b292      	uxth	r2, r2
 8008344:	f362 030f 	bfi	r3, r2, #0, #16
 8008348:	68fa      	ldr	r2, [r7, #12]
 800834a:	6852      	ldr	r2, [r2, #4]
 800834c:	320c      	adds	r2, #12
 800834e:	6013      	str	r3, [r2, #0]
 8008350:	6abb      	ldr	r3, [r7, #40]	; 0x28
 8008352:	f06f 4200 	mvn.w	r2, #2147483648	; 0x80000000
 8008356:	4293      	cmp	r3, r2
 8008358:	d104      	bne.n	8008364 <stm32__spi__send_receive_8bit_mode+0x1dc>
 800835a:	4847      	ldr	r0, [pc, #284]	; (8008478 <stm32__spi__send_receive_8bit_mode+0x2f0>)
 800835c:	f240 313a 	movw	r1, #826	; 0x33a
 8008360:	f7f7 fff4 	bl	800034c <__gnat_last_chance_handler>
 8008364:	6abb      	ldr	r3, [r7, #40]	; 0x28
 8008366:	3301      	adds	r3, #1
 8008368:	62bb      	str	r3, [r7, #40]	; 0x28
 800836a:	6afb      	ldr	r3, [r7, #44]	; 0x2c
 800836c:	3b01      	subs	r3, #1
 800836e:	2b00      	cmp	r3, #0
 8008370:	da04      	bge.n	800837c <stm32__spi__send_receive_8bit_mode+0x1f4>
 8008372:	4841      	ldr	r0, [pc, #260]	; (8008478 <stm32__spi__send_receive_8bit_mode+0x2f0>)
 8008374:	f240 313b 	movw	r1, #827	; 0x33b
 8008378:	f7f7 ffe8 	bl	800034c <__gnat_last_chance_handler>
 800837c:	62fb      	str	r3, [r7, #44]	; 0x2c
 800837e:	6afb      	ldr	r3, [r7, #44]	; 0x2c
 8008380:	2b00      	cmp	r3, #0
 8008382:	bf0c      	ite	eq
 8008384:	2301      	moveq	r3, #1
 8008386:	2300      	movne	r3, #0
 8008388:	b2de      	uxtb	r6, r3
 800838a:	68f8      	ldr	r0, [r7, #12]
 800838c:	f7ff f934 	bl	80075f8 <stm32__spi__crc_enabled>
 8008390:	4603      	mov	r3, r0
 8008392:	4033      	ands	r3, r6
 8008394:	b2db      	uxtb	r3, r3
 8008396:	2b00      	cmp	r3, #0
 8008398:	d009      	beq.n	80083ae <stm32__spi__send_receive_8bit_mode+0x226>
 800839a:	68fb      	ldr	r3, [r7, #12]
 800839c:	685b      	ldr	r3, [r3, #4]
 800839e:	681b      	ldr	r3, [r3, #0]
 80083a0:	461a      	mov	r2, r3
 80083a2:	4613      	mov	r3, r2
 80083a4:	f443 5280 	orr.w	r2, r3, #4096	; 0x1000
 80083a8:	68fb      	ldr	r3, [r7, #12]
 80083aa:	685b      	ldr	r3, [r3, #4]
 80083ac:	601a      	str	r2, [r3, #0]
 80083ae:	68f8      	ldr	r0, [r7, #12]
 80083b0:	f7ff f8a6 	bl	8007500 <stm32__spi__rx_is_empty>
 80083b4:	4603      	mov	r3, r0
 80083b6:	2b00      	cmp	r3, #0
 80083b8:	d001      	beq.n	80083be <stm32__spi__send_receive_8bit_mode+0x236>
 80083ba:	bf00      	nop
 80083bc:	e7f7      	b.n	80083ae <stm32__spi__send_receive_8bit_mode+0x226>
 80083be:	6a7a      	ldr	r2, [r7, #36]	; 0x24
 80083c0:	6cfb      	ldr	r3, [r7, #76]	; 0x4c
 80083c2:	681b      	ldr	r3, [r3, #0]
 80083c4:	429a      	cmp	r2, r3
 80083c6:	db04      	blt.n	80083d2 <stm32__spi__send_receive_8bit_mode+0x24a>
 80083c8:	6a7a      	ldr	r2, [r7, #36]	; 0x24
 80083ca:	6cfb      	ldr	r3, [r7, #76]	; 0x4c
 80083cc:	685b      	ldr	r3, [r3, #4]
 80083ce:	429a      	cmp	r2, r3
 80083d0:	dd04      	ble.n	80083dc <stm32__spi__send_receive_8bit_mode+0x254>
 80083d2:	4829      	ldr	r0, [pc, #164]	; (8008478 <stm32__spi__send_receive_8bit_mode+0x2f0>)
 80083d4:	f240 3147 	movw	r1, #839	; 0x347
 80083d8:	f7f7 ffb8 	bl	800034c <__gnat_last_chance_handler>
 80083dc:	68fb      	ldr	r3, [r7, #12]
 80083de:	685b      	ldr	r3, [r3, #4]
 80083e0:	330c      	adds	r3, #12
 80083e2:	681b      	ldr	r3, [r3, #0]
 80083e4:	b29b      	uxth	r3, r3
 80083e6:	2bff      	cmp	r3, #255	; 0xff
 80083e8:	d904      	bls.n	80083f4 <stm32__spi__send_receive_8bit_mode+0x26c>
 80083ea:	4823      	ldr	r0, [pc, #140]	; (8008478 <stm32__spi__send_receive_8bit_mode+0x2f0>)
 80083ec:	f240 3147 	movw	r1, #839	; 0x347
 80083f0:	f7f7 ffac 	bl	800034c <__gnat_last_chance_handler>
 80083f4:	6a7a      	ldr	r2, [r7, #36]	; 0x24
 80083f6:	2a00      	cmp	r2, #0
 80083f8:	da04      	bge.n	8008404 <stm32__spi__send_receive_8bit_mode+0x27c>
 80083fa:	481f      	ldr	r0, [pc, #124]	; (8008478 <stm32__spi__send_receive_8bit_mode+0x2f0>)
 80083fc:	f240 3147 	movw	r1, #839	; 0x347
 8008400:	f7f7 ffa4 	bl	800034c <__gnat_last_chance_handler>
 8008404:	6cba      	ldr	r2, [r7, #72]	; 0x48
 8008406:	b2d8      	uxtb	r0, r3
 8008408:	6a79      	ldr	r1, [r7, #36]	; 0x24
 800840a:	6a3b      	ldr	r3, [r7, #32]
 800840c:	1acb      	subs	r3, r1, r3
 800840e:	4601      	mov	r1, r0
 8008410:	54d1      	strb	r1, [r2, r3]
 8008412:	6a7b      	ldr	r3, [r7, #36]	; 0x24
 8008414:	f06f 4200 	mvn.w	r2, #2147483648	; 0x80000000
 8008418:	4293      	cmp	r3, r2
 800841a:	d104      	bne.n	8008426 <stm32__spi__send_receive_8bit_mode+0x29e>
 800841c:	4816      	ldr	r0, [pc, #88]	; (8008478 <stm32__spi__send_receive_8bit_mode+0x2f0>)
 800841e:	f44f 7152 	mov.w	r1, #840	; 0x348
 8008422:	f7f7 ff93 	bl	800034c <__gnat_last_chance_handler>
 8008426:	6a7b      	ldr	r3, [r7, #36]	; 0x24
 8008428:	3301      	adds	r3, #1
 800842a:	627b      	str	r3, [r7, #36]	; 0x24
 800842c:	e766      	b.n	80082fc <stm32__spi__send_receive_8bit_mode+0x174>
 800842e:	68f8      	ldr	r0, [r7, #12]
 8008430:	f7ff f88e 	bl	8007550 <stm32__spi__current_mode>
 8008434:	4603      	mov	r3, r0
 8008436:	2b01      	cmp	r3, #1
 8008438:	d12b      	bne.n	8008492 <stm32__spi__send_receive_8bit_mode+0x30a>
 800843a:	68f8      	ldr	r0, [r7, #12]
 800843c:	f7ff f860 	bl	8007500 <stm32__spi__rx_is_empty>
 8008440:	4603      	mov	r3, r0
 8008442:	2b00      	cmp	r3, #0
 8008444:	d001      	beq.n	800844a <stm32__spi__send_receive_8bit_mode+0x2c2>
 8008446:	bf00      	nop
 8008448:	e7f7      	b.n	800843a <stm32__spi__send_receive_8bit_mode+0x2b2>
 800844a:	6a7a      	ldr	r2, [r7, #36]	; 0x24
 800844c:	6cfb      	ldr	r3, [r7, #76]	; 0x4c
 800844e:	681b      	ldr	r3, [r3, #0]
 8008450:	429a      	cmp	r2, r3
 8008452:	db04      	blt.n	800845e <stm32__spi__send_receive_8bit_mode+0x2d6>
 8008454:	6a7a      	ldr	r2, [r7, #36]	; 0x24
 8008456:	6cfb      	ldr	r3, [r7, #76]	; 0x4c
 8008458:	685b      	ldr	r3, [r3, #4]
 800845a:	429a      	cmp	r2, r3
 800845c:	dd04      	ble.n	8008468 <stm32__spi__send_receive_8bit_mode+0x2e0>
 800845e:	4806      	ldr	r0, [pc, #24]	; (8008478 <stm32__spi__send_receive_8bit_mode+0x2f0>)
 8008460:	f240 3151 	movw	r1, #849	; 0x351
 8008464:	f7f7 ff72 	bl	800034c <__gnat_last_chance_handler>
 8008468:	6a7b      	ldr	r3, [r7, #36]	; 0x24
 800846a:	2b00      	cmp	r3, #0
 800846c:	da06      	bge.n	800847c <stm32__spi__send_receive_8bit_mode+0x2f4>
 800846e:	4802      	ldr	r0, [pc, #8]	; (8008478 <stm32__spi__send_receive_8bit_mode+0x2f0>)
 8008470:	f240 3151 	movw	r1, #849	; 0x351
 8008474:	f7f7 ff6a 	bl	800034c <__gnat_last_chance_handler>
 8008478:	0800bb80 	.word	0x0800bb80
 800847c:	6cbc      	ldr	r4, [r7, #72]	; 0x48
 800847e:	68f8      	ldr	r0, [r7, #12]
 8008480:	f7fe fff4 	bl	800746c <stm32__spi__data__2>
 8008484:	4603      	mov	r3, r0
 8008486:	4619      	mov	r1, r3
 8008488:	6a7a      	ldr	r2, [r7, #36]	; 0x24
 800848a:	6a3b      	ldr	r3, [r7, #32]
 800848c:	1ad3      	subs	r3, r2, r3
 800848e:	460a      	mov	r2, r1
 8008490:	54e2      	strb	r2, [r4, r3]
 8008492:	3734      	adds	r7, #52	; 0x34
 8008494:	46bd      	mov	sp, r7
 8008496:	bdf0      	pop	{r4, r5, r6, r7, pc}

08008498 <stm32__spi__send_16bit_mode>:
 8008498:	e92d 43b0 	stmdb	sp!, {r4, r5, r7, r8, r9, lr}
 800849c:	b086      	sub	sp, #24
 800849e:	af00      	add	r7, sp, #0
 80084a0:	60f8      	str	r0, [r7, #12]
 80084a2:	e9c7 2300 	strd	r2, r3, [r7]
 80084a6:	687b      	ldr	r3, [r7, #4]
 80084a8:	681c      	ldr	r4, [r3, #0]
 80084aa:	687b      	ldr	r3, [r7, #4]
 80084ac:	685d      	ldr	r5, [r3, #4]
 80084ae:	42a5      	cmp	r5, r4
 80084b0:	db0d      	blt.n	80084ce <stm32__spi__send_16bit_mode+0x36>
 80084b2:	4628      	mov	r0, r5
 80084b4:	ea4f 71e0 	mov.w	r1, r0, asr #31
 80084b8:	4622      	mov	r2, r4
 80084ba:	ea4f 73e2 	mov.w	r3, r2, asr #31
 80084be:	1a82      	subs	r2, r0, r2
 80084c0:	eb61 0303 	sbc.w	r3, r1, r3
 80084c4:	f112 0801 	adds.w	r8, r2, #1
 80084c8:	f143 0900 	adc.w	r9, r3, #0
 80084cc:	e003      	b.n	80084d6 <stm32__spi__send_16bit_mode+0x3e>
 80084ce:	f04f 0800 	mov.w	r8, #0
 80084d2:	f04f 0900 	mov.w	r9, #0
 80084d6:	4622      	mov	r2, r4
 80084d8:	ea4f 73e2 	mov.w	r3, r2, asr #31
 80084dc:	4862      	ldr	r0, [pc, #392]	; (8008668 <stm32__spi__send_16bit_mode+0x1d0>)
 80084de:	f04f 0100 	mov.w	r1, #0
 80084e2:	1880      	adds	r0, r0, r2
 80084e4:	eb41 0103 	adc.w	r1, r1, r3
 80084e8:	462a      	mov	r2, r5
 80084ea:	ea4f 73e2 	mov.w	r3, r2, asr #31
 80084ee:	4290      	cmp	r0, r2
 80084f0:	eb71 0303 	sbcs.w	r3, r1, r3
 80084f4:	da04      	bge.n	8008500 <stm32__spi__send_16bit_mode+0x68>
 80084f6:	485d      	ldr	r0, [pc, #372]	; (800866c <stm32__spi__send_16bit_mode+0x1d4>)
 80084f8:	f240 315d 	movw	r1, #861	; 0x35d
 80084fc:	f7f7 ff26 	bl	800034c <__gnat_last_chance_handler>
 8008500:	4643      	mov	r3, r8
 8008502:	617b      	str	r3, [r7, #20]
 8008504:	2c00      	cmp	r4, #0
 8008506:	da04      	bge.n	8008512 <stm32__spi__send_16bit_mode+0x7a>
 8008508:	4858      	ldr	r0, [pc, #352]	; (800866c <stm32__spi__send_16bit_mode+0x1d4>)
 800850a:	f240 315e 	movw	r1, #862	; 0x35e
 800850e:	f7f7 ff1d 	bl	800034c <__gnat_last_chance_handler>
 8008512:	613c      	str	r4, [r7, #16]
 8008514:	68f8      	ldr	r0, [r7, #12]
 8008516:	f7ff f81b 	bl	8007550 <stm32__spi__current_mode>
 800851a:	4603      	mov	r3, r0
 800851c:	2b01      	cmp	r3, #1
 800851e:	d002      	beq.n	8008526 <stm32__spi__send_16bit_mode+0x8e>
 8008520:	697b      	ldr	r3, [r7, #20]
 8008522:	2b01      	cmp	r3, #1
 8008524:	d13e      	bne.n	80085a4 <stm32__spi__send_16bit_mode+0x10c>
 8008526:	693b      	ldr	r3, [r7, #16]
 8008528:	42a3      	cmp	r3, r4
 800852a:	db02      	blt.n	8008532 <stm32__spi__send_16bit_mode+0x9a>
 800852c:	693b      	ldr	r3, [r7, #16]
 800852e:	42ab      	cmp	r3, r5
 8008530:	dd04      	ble.n	800853c <stm32__spi__send_16bit_mode+0xa4>
 8008532:	484e      	ldr	r0, [pc, #312]	; (800866c <stm32__spi__send_16bit_mode+0x1d4>)
 8008534:	f240 3162 	movw	r1, #866	; 0x362
 8008538:	f7f7 ff08 	bl	800034c <__gnat_last_chance_handler>
 800853c:	683a      	ldr	r2, [r7, #0]
 800853e:	4621      	mov	r1, r4
 8008540:	693b      	ldr	r3, [r7, #16]
 8008542:	1a5b      	subs	r3, r3, r1
 8008544:	005b      	lsls	r3, r3, #1
 8008546:	4413      	add	r3, r2
 8008548:	2b00      	cmp	r3, #0
 800854a:	d104      	bne.n	8008556 <stm32__spi__send_16bit_mode+0xbe>
 800854c:	4847      	ldr	r0, [pc, #284]	; (800866c <stm32__spi__send_16bit_mode+0x1d4>)
 800854e:	f240 3162 	movw	r1, #866	; 0x362
 8008552:	f7f7 fefb 	bl	800034c <__gnat_last_chance_handler>
 8008556:	68fb      	ldr	r3, [r7, #12]
 8008558:	685b      	ldr	r3, [r3, #4]
 800855a:	330c      	adds	r3, #12
 800855c:	681b      	ldr	r3, [r3, #0]
 800855e:	6839      	ldr	r1, [r7, #0]
 8008560:	4620      	mov	r0, r4
 8008562:	693a      	ldr	r2, [r7, #16]
 8008564:	1a12      	subs	r2, r2, r0
 8008566:	0052      	lsls	r2, r2, #1
 8008568:	440a      	add	r2, r1
 800856a:	8812      	ldrh	r2, [r2, #0]
 800856c:	f362 030f 	bfi	r3, r2, #0, #16
 8008570:	68fa      	ldr	r2, [r7, #12]
 8008572:	6852      	ldr	r2, [r2, #4]
 8008574:	320c      	adds	r2, #12
 8008576:	6013      	str	r3, [r2, #0]
 8008578:	693b      	ldr	r3, [r7, #16]
 800857a:	4a3d      	ldr	r2, [pc, #244]	; (8008670 <stm32__spi__send_16bit_mode+0x1d8>)
 800857c:	4293      	cmp	r3, r2
 800857e:	dd04      	ble.n	800858a <stm32__spi__send_16bit_mode+0xf2>
 8008580:	483a      	ldr	r0, [pc, #232]	; (800866c <stm32__spi__send_16bit_mode+0x1d4>)
 8008582:	f240 3163 	movw	r1, #867	; 0x363
 8008586:	f7f7 fee1 	bl	800034c <__gnat_last_chance_handler>
 800858a:	693b      	ldr	r3, [r7, #16]
 800858c:	3302      	adds	r3, #2
 800858e:	613b      	str	r3, [r7, #16]
 8008590:	697b      	ldr	r3, [r7, #20]
 8008592:	3b01      	subs	r3, #1
 8008594:	2b00      	cmp	r3, #0
 8008596:	da04      	bge.n	80085a2 <stm32__spi__send_16bit_mode+0x10a>
 8008598:	4834      	ldr	r0, [pc, #208]	; (800866c <stm32__spi__send_16bit_mode+0x1d4>)
 800859a:	f44f 7159 	mov.w	r1, #868	; 0x364
 800859e:	f7f7 fed5 	bl	800034c <__gnat_last_chance_handler>
 80085a2:	617b      	str	r3, [r7, #20]
 80085a4:	697b      	ldr	r3, [r7, #20]
 80085a6:	2b00      	cmp	r3, #0
 80085a8:	dd4a      	ble.n	8008640 <stm32__spi__send_16bit_mode+0x1a8>
 80085aa:	68f8      	ldr	r0, [r7, #12]
 80085ac:	f7fe ff96 	bl	80074dc <stm32__spi__tx_is_empty>
 80085b0:	4603      	mov	r3, r0
 80085b2:	f083 0301 	eor.w	r3, r3, #1
 80085b6:	b2db      	uxtb	r3, r3
 80085b8:	2b00      	cmp	r3, #0
 80085ba:	d001      	beq.n	80085c0 <stm32__spi__send_16bit_mode+0x128>
 80085bc:	bf00      	nop
 80085be:	e7f4      	b.n	80085aa <stm32__spi__send_16bit_mode+0x112>
 80085c0:	693b      	ldr	r3, [r7, #16]
 80085c2:	42a3      	cmp	r3, r4
 80085c4:	db02      	blt.n	80085cc <stm32__spi__send_16bit_mode+0x134>
 80085c6:	693b      	ldr	r3, [r7, #16]
 80085c8:	42ab      	cmp	r3, r5
 80085ca:	dd04      	ble.n	80085d6 <stm32__spi__send_16bit_mode+0x13e>
 80085cc:	4827      	ldr	r0, [pc, #156]	; (800866c <stm32__spi__send_16bit_mode+0x1d4>)
 80085ce:	f240 316e 	movw	r1, #878	; 0x36e
 80085d2:	f7f7 febb 	bl	800034c <__gnat_last_chance_handler>
 80085d6:	683a      	ldr	r2, [r7, #0]
 80085d8:	4621      	mov	r1, r4
 80085da:	693b      	ldr	r3, [r7, #16]
 80085dc:	1a5b      	subs	r3, r3, r1
 80085de:	005b      	lsls	r3, r3, #1
 80085e0:	4413      	add	r3, r2
 80085e2:	2b00      	cmp	r3, #0
 80085e4:	d104      	bne.n	80085f0 <stm32__spi__send_16bit_mode+0x158>
 80085e6:	4821      	ldr	r0, [pc, #132]	; (800866c <stm32__spi__send_16bit_mode+0x1d4>)
 80085e8:	f240 316e 	movw	r1, #878	; 0x36e
 80085ec:	f7f7 feae 	bl	800034c <__gnat_last_chance_handler>
 80085f0:	68fb      	ldr	r3, [r7, #12]
 80085f2:	685b      	ldr	r3, [r3, #4]
 80085f4:	330c      	adds	r3, #12
 80085f6:	681b      	ldr	r3, [r3, #0]
 80085f8:	6839      	ldr	r1, [r7, #0]
 80085fa:	4620      	mov	r0, r4
 80085fc:	693a      	ldr	r2, [r7, #16]
 80085fe:	1a12      	subs	r2, r2, r0
 8008600:	0052      	lsls	r2, r2, #1
 8008602:	440a      	add	r2, r1
 8008604:	8812      	ldrh	r2, [r2, #0]
 8008606:	f362 030f 	bfi	r3, r2, #0, #16
 800860a:	68fa      	ldr	r2, [r7, #12]
 800860c:	6852      	ldr	r2, [r2, #4]
 800860e:	320c      	adds	r2, #12
 8008610:	6013      	str	r3, [r2, #0]
 8008612:	693b      	ldr	r3, [r7, #16]
 8008614:	4a16      	ldr	r2, [pc, #88]	; (8008670 <stm32__spi__send_16bit_mode+0x1d8>)
 8008616:	4293      	cmp	r3, r2
 8008618:	dd04      	ble.n	8008624 <stm32__spi__send_16bit_mode+0x18c>
 800861a:	4814      	ldr	r0, [pc, #80]	; (800866c <stm32__spi__send_16bit_mode+0x1d4>)
 800861c:	f240 316f 	movw	r1, #879	; 0x36f
 8008620:	f7f7 fe94 	bl	800034c <__gnat_last_chance_handler>
 8008624:	693b      	ldr	r3, [r7, #16]
 8008626:	3302      	adds	r3, #2
 8008628:	613b      	str	r3, [r7, #16]
 800862a:	697b      	ldr	r3, [r7, #20]
 800862c:	3b01      	subs	r3, #1
 800862e:	2b00      	cmp	r3, #0
 8008630:	da04      	bge.n	800863c <stm32__spi__send_16bit_mode+0x1a4>
 8008632:	480e      	ldr	r0, [pc, #56]	; (800866c <stm32__spi__send_16bit_mode+0x1d4>)
 8008634:	f44f 715c 	mov.w	r1, #880	; 0x370
 8008638:	f7f7 fe88 	bl	800034c <__gnat_last_chance_handler>
 800863c:	617b      	str	r3, [r7, #20]
 800863e:	e7b1      	b.n	80085a4 <stm32__spi__send_16bit_mode+0x10c>
 8008640:	68f8      	ldr	r0, [r7, #12]
 8008642:	f7fe ffd9 	bl	80075f8 <stm32__spi__crc_enabled>
 8008646:	4603      	mov	r3, r0
 8008648:	2b00      	cmp	r3, #0
 800864a:	d009      	beq.n	8008660 <stm32__spi__send_16bit_mode+0x1c8>
 800864c:	68fb      	ldr	r3, [r7, #12]
 800864e:	685b      	ldr	r3, [r3, #4]
 8008650:	681b      	ldr	r3, [r3, #0]
 8008652:	461a      	mov	r2, r3
 8008654:	4613      	mov	r3, r2
 8008656:	f443 5280 	orr.w	r2, r3, #4096	; 0x1000
 800865a:	68fb      	ldr	r3, [r7, #12]
 800865c:	685b      	ldr	r3, [r3, #4]
 800865e:	601a      	str	r2, [r3, #0]
 8008660:	3718      	adds	r7, #24
 8008662:	46bd      	mov	sp, r7
 8008664:	e8bd 83b0 	ldmia.w	sp!, {r4, r5, r7, r8, r9, pc}
 8008668:	7ffffffe 	.word	0x7ffffffe
 800866c:	0800bb80 	.word	0x0800bb80
 8008670:	7ffffffd 	.word	0x7ffffffd

08008674 <stm32__spi__send_8bit_mode>:
 8008674:	e92d 43f0 	stmdb	sp!, {r4, r5, r6, r7, r8, r9, lr}
 8008678:	b087      	sub	sp, #28
 800867a:	af00      	add	r7, sp, #0
 800867c:	60f8      	str	r0, [r7, #12]
 800867e:	e9c7 2300 	strd	r2, r3, [r7]
 8008682:	687b      	ldr	r3, [r7, #4]
 8008684:	681c      	ldr	r4, [r3, #0]
 8008686:	687b      	ldr	r3, [r7, #4]
 8008688:	685d      	ldr	r5, [r3, #4]
 800868a:	42a5      	cmp	r5, r4
 800868c:	db0d      	blt.n	80086aa <stm32__spi__send_8bit_mode+0x36>
 800868e:	4628      	mov	r0, r5
 8008690:	ea4f 71e0 	mov.w	r1, r0, asr #31
 8008694:	4622      	mov	r2, r4
 8008696:	ea4f 73e2 	mov.w	r3, r2, asr #31
 800869a:	1a82      	subs	r2, r0, r2
 800869c:	eb61 0303 	sbc.w	r3, r1, r3
 80086a0:	f112 0801 	adds.w	r8, r2, #1
 80086a4:	f143 0900 	adc.w	r9, r3, #0
 80086a8:	e003      	b.n	80086b2 <stm32__spi__send_8bit_mode+0x3e>
 80086aa:	f04f 0800 	mov.w	r8, #0
 80086ae:	f04f 0900 	mov.w	r9, #0
 80086b2:	4626      	mov	r6, r4
 80086b4:	4622      	mov	r2, r4
 80086b6:	ea4f 73e2 	mov.w	r3, r2, asr #31
 80086ba:	4855      	ldr	r0, [pc, #340]	; (8008810 <stm32__spi__send_8bit_mode+0x19c>)
 80086bc:	f04f 0100 	mov.w	r1, #0
 80086c0:	1880      	adds	r0, r0, r2
 80086c2:	eb41 0103 	adc.w	r1, r1, r3
 80086c6:	462a      	mov	r2, r5
 80086c8:	ea4f 73e2 	mov.w	r3, r2, asr #31
 80086cc:	4290      	cmp	r0, r2
 80086ce:	eb71 0303 	sbcs.w	r3, r1, r3
 80086d2:	da04      	bge.n	80086de <stm32__spi__send_8bit_mode+0x6a>
 80086d4:	484f      	ldr	r0, [pc, #316]	; (8008814 <stm32__spi__send_8bit_mode+0x1a0>)
 80086d6:	f44f 7160 	mov.w	r1, #896	; 0x380
 80086da:	f7f7 fe37 	bl	800034c <__gnat_last_chance_handler>
 80086de:	4643      	mov	r3, r8
 80086e0:	617b      	str	r3, [r7, #20]
 80086e2:	2c00      	cmp	r4, #0
 80086e4:	da04      	bge.n	80086f0 <stm32__spi__send_8bit_mode+0x7c>
 80086e6:	484b      	ldr	r0, [pc, #300]	; (8008814 <stm32__spi__send_8bit_mode+0x1a0>)
 80086e8:	f240 3181 	movw	r1, #897	; 0x381
 80086ec:	f7f7 fe2e 	bl	800034c <__gnat_last_chance_handler>
 80086f0:	613c      	str	r4, [r7, #16]
 80086f2:	68f8      	ldr	r0, [r7, #12]
 80086f4:	f7fe ff2c 	bl	8007550 <stm32__spi__current_mode>
 80086f8:	4603      	mov	r3, r0
 80086fa:	2b01      	cmp	r3, #1
 80086fc:	d002      	beq.n	8008704 <stm32__spi__send_8bit_mode+0x90>
 80086fe:	697b      	ldr	r3, [r7, #20]
 8008700:	2b01      	cmp	r3, #1
 8008702:	d130      	bne.n	8008766 <stm32__spi__send_8bit_mode+0xf2>
 8008704:	693b      	ldr	r3, [r7, #16]
 8008706:	42a3      	cmp	r3, r4
 8008708:	db02      	blt.n	8008710 <stm32__spi__send_8bit_mode+0x9c>
 800870a:	693b      	ldr	r3, [r7, #16]
 800870c:	42ab      	cmp	r3, r5
 800870e:	dd04      	ble.n	800871a <stm32__spi__send_8bit_mode+0xa6>
 8008710:	4840      	ldr	r0, [pc, #256]	; (8008814 <stm32__spi__send_8bit_mode+0x1a0>)
 8008712:	f44f 7161 	mov.w	r1, #900	; 0x384
 8008716:	f7f7 fe19 	bl	800034c <__gnat_last_chance_handler>
 800871a:	68fb      	ldr	r3, [r7, #12]
 800871c:	685b      	ldr	r3, [r3, #4]
 800871e:	330c      	adds	r3, #12
 8008720:	681b      	ldr	r3, [r3, #0]
 8008722:	6839      	ldr	r1, [r7, #0]
 8008724:	693a      	ldr	r2, [r7, #16]
 8008726:	1b92      	subs	r2, r2, r6
 8008728:	5c8a      	ldrb	r2, [r1, r2]
 800872a:	b292      	uxth	r2, r2
 800872c:	f362 030f 	bfi	r3, r2, #0, #16
 8008730:	68fa      	ldr	r2, [r7, #12]
 8008732:	6852      	ldr	r2, [r2, #4]
 8008734:	320c      	adds	r2, #12
 8008736:	6013      	str	r3, [r2, #0]
 8008738:	693b      	ldr	r3, [r7, #16]
 800873a:	f06f 4200 	mvn.w	r2, #2147483648	; 0x80000000
 800873e:	4293      	cmp	r3, r2
 8008740:	d104      	bne.n	800874c <stm32__spi__send_8bit_mode+0xd8>
 8008742:	4834      	ldr	r0, [pc, #208]	; (8008814 <stm32__spi__send_8bit_mode+0x1a0>)
 8008744:	f240 3185 	movw	r1, #901	; 0x385
 8008748:	f7f7 fe00 	bl	800034c <__gnat_last_chance_handler>
 800874c:	693b      	ldr	r3, [r7, #16]
 800874e:	3301      	adds	r3, #1
 8008750:	613b      	str	r3, [r7, #16]
 8008752:	697b      	ldr	r3, [r7, #20]
 8008754:	3b01      	subs	r3, #1
 8008756:	2b00      	cmp	r3, #0
 8008758:	da04      	bge.n	8008764 <stm32__spi__send_8bit_mode+0xf0>
 800875a:	482e      	ldr	r0, [pc, #184]	; (8008814 <stm32__spi__send_8bit_mode+0x1a0>)
 800875c:	f240 3186 	movw	r1, #902	; 0x386
 8008760:	f7f7 fdf4 	bl	800034c <__gnat_last_chance_handler>
 8008764:	617b      	str	r3, [r7, #20]
 8008766:	697b      	ldr	r3, [r7, #20]
 8008768:	2b00      	cmp	r3, #0
 800876a:	dd3c      	ble.n	80087e6 <stm32__spi__send_8bit_mode+0x172>
 800876c:	68f8      	ldr	r0, [r7, #12]
 800876e:	f7fe feb5 	bl	80074dc <stm32__spi__tx_is_empty>
 8008772:	4603      	mov	r3, r0
 8008774:	f083 0301 	eor.w	r3, r3, #1
 8008778:	b2db      	uxtb	r3, r3
 800877a:	2b00      	cmp	r3, #0
 800877c:	d001      	beq.n	8008782 <stm32__spi__send_8bit_mode+0x10e>
 800877e:	bf00      	nop
 8008780:	e7f4      	b.n	800876c <stm32__spi__send_8bit_mode+0xf8>
 8008782:	693b      	ldr	r3, [r7, #16]
 8008784:	42a3      	cmp	r3, r4
 8008786:	db02      	blt.n	800878e <stm32__spi__send_8bit_mode+0x11a>
 8008788:	693b      	ldr	r3, [r7, #16]
 800878a:	42ab      	cmp	r3, r5
 800878c:	dd04      	ble.n	8008798 <stm32__spi__send_8bit_mode+0x124>
 800878e:	4821      	ldr	r0, [pc, #132]	; (8008814 <stm32__spi__send_8bit_mode+0x1a0>)
 8008790:	f240 318f 	movw	r1, #911	; 0x38f
 8008794:	f7f7 fdda 	bl	800034c <__gnat_last_chance_handler>
 8008798:	68fb      	ldr	r3, [r7, #12]
 800879a:	685b      	ldr	r3, [r3, #4]
 800879c:	330c      	adds	r3, #12
 800879e:	681b      	ldr	r3, [r3, #0]
 80087a0:	6839      	ldr	r1, [r7, #0]
 80087a2:	693a      	ldr	r2, [r7, #16]
 80087a4:	1b92      	subs	r2, r2, r6
 80087a6:	5c8a      	ldrb	r2, [r1, r2]
 80087a8:	b292      	uxth	r2, r2
 80087aa:	f362 030f 	bfi	r3, r2, #0, #16
 80087ae:	68fa      	ldr	r2, [r7, #12]
 80087b0:	6852      	ldr	r2, [r2, #4]
 80087b2:	320c      	adds	r2, #12
 80087b4:	6013      	str	r3, [r2, #0]
 80087b6:	693b      	ldr	r3, [r7, #16]
 80087b8:	f06f 4200 	mvn.w	r2, #2147483648	; 0x80000000
 80087bc:	4293      	cmp	r3, r2
 80087be:	d104      	bne.n	80087ca <stm32__spi__send_8bit_mode+0x156>
 80087c0:	4814      	ldr	r0, [pc, #80]	; (8008814 <stm32__spi__send_8bit_mode+0x1a0>)
 80087c2:	f44f 7164 	mov.w	r1, #912	; 0x390
 80087c6:	f7f7 fdc1 	bl	800034c <__gnat_last_chance_handler>
 80087ca:	693b      	ldr	r3, [r7, #16]
 80087cc:	3301      	adds	r3, #1
 80087ce:	613b      	str	r3, [r7, #16]
 80087d0:	697b      	ldr	r3, [r7, #20]
 80087d2:	3b01      	subs	r3, #1
 80087d4:	2b00      	cmp	r3, #0
 80087d6:	da04      	bge.n	80087e2 <stm32__spi__send_8bit_mode+0x16e>
 80087d8:	480e      	ldr	r0, [pc, #56]	; (8008814 <stm32__spi__send_8bit_mode+0x1a0>)
 80087da:	f240 3191 	movw	r1, #913	; 0x391
 80087de:	f7f7 fdb5 	bl	800034c <__gnat_last_chance_handler>
 80087e2:	617b      	str	r3, [r7, #20]
 80087e4:	e7bf      	b.n	8008766 <stm32__spi__send_8bit_mode+0xf2>
 80087e6:	68f8      	ldr	r0, [r7, #12]
 80087e8:	f7fe ff06 	bl	80075f8 <stm32__spi__crc_enabled>
 80087ec:	4603      	mov	r3, r0
 80087ee:	2b00      	cmp	r3, #0
 80087f0:	d009      	beq.n	8008806 <stm32__spi__send_8bit_mode+0x192>
 80087f2:	68fb      	ldr	r3, [r7, #12]
 80087f4:	685b      	ldr	r3, [r3, #4]
 80087f6:	681b      	ldr	r3, [r3, #0]
 80087f8:	461a      	mov	r2, r3
 80087fa:	4613      	mov	r3, r2
 80087fc:	f443 5280 	orr.w	r2, r3, #4096	; 0x1000
 8008800:	68fb      	ldr	r3, [r7, #12]
 8008802:	685b      	ldr	r3, [r3, #4]
 8008804:	601a      	str	r2, [r3, #0]
 8008806:	371c      	adds	r7, #28
 8008808:	46bd      	mov	sp, r7
 800880a:	e8bd 83f0 	ldmia.w	sp!, {r4, r5, r6, r7, r8, r9, pc}
 800880e:	bf00      	nop
 8008810:	7ffffffe 	.word	0x7ffffffe
 8008814:	0800bb80 	.word	0x0800bb80

08008818 <stm32__spi__receive_16bit_mode>:
 8008818:	e92d 41f0 	stmdb	sp!, {r4, r5, r6, r7, r8, lr}
 800881c:	b086      	sub	sp, #24
 800881e:	af00      	add	r7, sp, #0
 8008820:	60f8      	str	r0, [r7, #12]
 8008822:	e9c7 2300 	strd	r2, r3, [r7]
 8008826:	687b      	ldr	r3, [r7, #4]
 8008828:	681b      	ldr	r3, [r3, #0]
 800882a:	461e      	mov	r6, r3
 800882c:	68f8      	ldr	r0, [r7, #12]
 800882e:	f7fe fe8f 	bl	8007550 <stm32__spi__current_mode>
 8008832:	4603      	mov	r3, r0
 8008834:	2b00      	cmp	r3, #0
 8008836:	bf0c      	ite	eq
 8008838:	2301      	moveq	r3, #1
 800883a:	2300      	movne	r3, #0
 800883c:	75fb      	strb	r3, [r7, #23]
 800883e:	687b      	ldr	r3, [r7, #4]
 8008840:	681c      	ldr	r4, [r3, #0]
 8008842:	687b      	ldr	r3, [r7, #4]
 8008844:	685d      	ldr	r5, [r3, #4]
 8008846:	42ac      	cmp	r4, r5
 8008848:	dc29      	bgt.n	800889e <stm32__spi__receive_16bit_mode+0x86>
 800884a:	683a      	ldr	r2, [r7, #0]
 800884c:	46a0      	mov	r8, r4
 800884e:	ebc6 0308 	rsb	r3, r6, r8
 8008852:	005b      	lsls	r3, r3, #1
 8008854:	4413      	add	r3, r2
 8008856:	613b      	str	r3, [r7, #16]
 8008858:	7dfb      	ldrb	r3, [r7, #23]
 800885a:	2b00      	cmp	r3, #0
 800885c:	d009      	beq.n	8008872 <stm32__spi__receive_16bit_mode+0x5a>
 800885e:	68fb      	ldr	r3, [r7, #12]
 8008860:	685b      	ldr	r3, [r3, #4]
 8008862:	330c      	adds	r3, #12
 8008864:	681b      	ldr	r3, [r3, #0]
 8008866:	f36f 030f 	bfc	r3, #0, #16
 800886a:	68fa      	ldr	r2, [r7, #12]
 800886c:	6852      	ldr	r2, [r2, #4]
 800886e:	320c      	adds	r2, #12
 8008870:	6013      	str	r3, [r2, #0]
 8008872:	68f8      	ldr	r0, [r7, #12]
 8008874:	f7fe fe44 	bl	8007500 <stm32__spi__rx_is_empty>
 8008878:	4603      	mov	r3, r0
 800887a:	2b00      	cmp	r3, #0
 800887c:	d001      	beq.n	8008882 <stm32__spi__receive_16bit_mode+0x6a>
 800887e:	bf00      	nop
 8008880:	e7f7      	b.n	8008872 <stm32__spi__receive_16bit_mode+0x5a>
 8008882:	683b      	ldr	r3, [r7, #0]
 8008884:	68fa      	ldr	r2, [r7, #12]
 8008886:	6852      	ldr	r2, [r2, #4]
 8008888:	320c      	adds	r2, #12
 800888a:	6812      	ldr	r2, [r2, #0]
 800888c:	b291      	uxth	r1, r2
 800888e:	ebc6 0208 	rsb	r2, r6, r8
 8008892:	f823 1012 	strh.w	r1, [r3, r2, lsl #1]
 8008896:	42ac      	cmp	r4, r5
 8008898:	d001      	beq.n	800889e <stm32__spi__receive_16bit_mode+0x86>
 800889a:	3401      	adds	r4, #1
 800889c:	e7d5      	b.n	800884a <stm32__spi__receive_16bit_mode+0x32>
 800889e:	3718      	adds	r7, #24
 80088a0:	46bd      	mov	sp, r7
 80088a2:	e8bd 81f0 	ldmia.w	sp!, {r4, r5, r6, r7, r8, pc}
 80088a6:	bf00      	nop

080088a8 <stm32__spi__receive_8bit_mode>:
 80088a8:	e92d 41f0 	stmdb	sp!, {r4, r5, r6, r7, r8, lr}
 80088ac:	b086      	sub	sp, #24
 80088ae:	af00      	add	r7, sp, #0
 80088b0:	60f8      	str	r0, [r7, #12]
 80088b2:	e9c7 2300 	strd	r2, r3, [r7]
 80088b6:	687b      	ldr	r3, [r7, #4]
 80088b8:	681b      	ldr	r3, [r3, #0]
 80088ba:	461e      	mov	r6, r3
 80088bc:	68f8      	ldr	r0, [r7, #12]
 80088be:	f7fe fe47 	bl	8007550 <stm32__spi__current_mode>
 80088c2:	4603      	mov	r3, r0
 80088c4:	2b00      	cmp	r3, #0
 80088c6:	bf0c      	ite	eq
 80088c8:	2301      	moveq	r3, #1
 80088ca:	2300      	movne	r3, #0
 80088cc:	75fb      	strb	r3, [r7, #23]
 80088ce:	687b      	ldr	r3, [r7, #4]
 80088d0:	681c      	ldr	r4, [r3, #0]
 80088d2:	687b      	ldr	r3, [r7, #4]
 80088d4:	685d      	ldr	r5, [r3, #4]
 80088d6:	42ac      	cmp	r4, r5
 80088d8:	dc2f      	bgt.n	800893a <stm32__spi__receive_8bit_mode+0x92>
 80088da:	683a      	ldr	r2, [r7, #0]
 80088dc:	46a0      	mov	r8, r4
 80088de:	ebc6 0308 	rsb	r3, r6, r8
 80088e2:	4413      	add	r3, r2
 80088e4:	613b      	str	r3, [r7, #16]
 80088e6:	7dfb      	ldrb	r3, [r7, #23]
 80088e8:	2b00      	cmp	r3, #0
 80088ea:	d009      	beq.n	8008900 <stm32__spi__receive_8bit_mode+0x58>
 80088ec:	68fb      	ldr	r3, [r7, #12]
 80088ee:	685b      	ldr	r3, [r3, #4]
 80088f0:	330c      	adds	r3, #12
 80088f2:	681b      	ldr	r3, [r3, #0]
 80088f4:	f36f 030f 	bfc	r3, #0, #16
 80088f8:	68fa      	ldr	r2, [r7, #12]
 80088fa:	6852      	ldr	r2, [r2, #4]
 80088fc:	320c      	adds	r2, #12
 80088fe:	6013      	str	r3, [r2, #0]
 8008900:	68f8      	ldr	r0, [r7, #12]
 8008902:	f7fe fdfd 	bl	8007500 <stm32__spi__rx_is_empty>
 8008906:	4603      	mov	r3, r0
 8008908:	2b00      	cmp	r3, #0
 800890a:	d001      	beq.n	8008910 <stm32__spi__receive_8bit_mode+0x68>
 800890c:	bf00      	nop
 800890e:	e7f7      	b.n	8008900 <stm32__spi__receive_8bit_mode+0x58>
 8008910:	68fb      	ldr	r3, [r7, #12]
 8008912:	685b      	ldr	r3, [r3, #4]
 8008914:	330c      	adds	r3, #12
 8008916:	681b      	ldr	r3, [r3, #0]
 8008918:	b29b      	uxth	r3, r3
 800891a:	2bff      	cmp	r3, #255	; 0xff
 800891c:	d904      	bls.n	8008928 <stm32__spi__receive_8bit_mode+0x80>
 800891e:	4809      	ldr	r0, [pc, #36]	; (8008944 <stm32__spi__receive_8bit_mode+0x9c>)
 8008920:	f240 31bf 	movw	r1, #959	; 0x3bf
 8008924:	f7f7 fd12 	bl	800034c <__gnat_last_chance_handler>
 8008928:	683a      	ldr	r2, [r7, #0]
 800892a:	b2d9      	uxtb	r1, r3
 800892c:	ebc6 0308 	rsb	r3, r6, r8
 8008930:	54d1      	strb	r1, [r2, r3]
 8008932:	42ac      	cmp	r4, r5
 8008934:	d001      	beq.n	800893a <stm32__spi__receive_8bit_mode+0x92>
 8008936:	3401      	adds	r4, #1
 8008938:	e7cf      	b.n	80088da <stm32__spi__receive_8bit_mode+0x32>
 800893a:	3718      	adds	r7, #24
 800893c:	46bd      	mov	sp, r7
 800893e:	e8bd 81f0 	ldmia.w	sp!, {r4, r5, r6, r7, r8, pc}
 8008942:	bf00      	nop
 8008944:	0800bb80 	.word	0x0800bb80

08008948 <stm32__i2s__i2s_portIP>:
 8008948:	b480      	push	{r7}
 800894a:	b085      	sub	sp, #20
 800894c:	af00      	add	r7, sp, #0
 800894e:	60f8      	str	r0, [r7, #12]
 8008950:	60b9      	str	r1, [r7, #8]
 8008952:	4613      	mov	r3, r2
 8008954:	71fb      	strb	r3, [r7, #7]
 8008956:	79fb      	ldrb	r3, [r7, #7]
 8008958:	2b00      	cmp	r3, #0
 800895a:	d002      	beq.n	8008962 <stm32__i2s__i2s_portIP+0x1a>
 800895c:	68fb      	ldr	r3, [r7, #12]
 800895e:	4a05      	ldr	r2, [pc, #20]	; (8008974 <stm32__i2s__i2s_portIP+0x2c>)
 8008960:	601a      	str	r2, [r3, #0]
 8008962:	68fb      	ldr	r3, [r7, #12]
 8008964:	68ba      	ldr	r2, [r7, #8]
 8008966:	605a      	str	r2, [r3, #4]
 8008968:	3714      	adds	r7, #20
 800896a:	46bd      	mov	sp, r7
 800896c:	f85d 7b04 	ldr.w	r7, [sp], #4
 8008970:	4770      	bx	lr
 8008972:	bf00      	nop
 8008974:	0800bcbc 	.word	0x0800bcbc

08008978 <stm32__i2s___size__2>:
 8008978:	b490      	push	{r4, r7}
 800897a:	b082      	sub	sp, #8
 800897c:	af00      	add	r7, sp, #0
 800897e:	6078      	str	r0, [r7, #4]
 8008980:	f04f 0340 	mov.w	r3, #64	; 0x40
 8008984:	f04f 0400 	mov.w	r4, #0
 8008988:	4618      	mov	r0, r3
 800898a:	4621      	mov	r1, r4
 800898c:	3708      	adds	r7, #8
 800898e:	46bd      	mov	sp, r7
 8008990:	bc90      	pop	{r4, r7}
 8008992:	4770      	bx	lr

08008994 <stm32__i2s__configure___postconditions.4585>:
 8008994:	b5b0      	push	{r4, r5, r7, lr}
 8008996:	b082      	sub	sp, #8
 8008998:	af00      	add	r7, sp, #0
 800899a:	4663      	mov	r3, ip
 800899c:	f8c7 c004 	str.w	ip, [r7, #4]
 80089a0:	681b      	ldr	r3, [r3, #0]
 80089a2:	4618      	mov	r0, r3
 80089a4:	f000 f9ac 	bl	8008d00 <stm32__i2s__enabled>
 80089a8:	4603      	mov	r3, r0
 80089aa:	2b00      	cmp	r3, #0
 80089ac:	d005      	beq.n	80089ba <stm32__i2s__configure___postconditions.4585+0x26>
 80089ae:	4c04      	ldr	r4, [pc, #16]	; (80089c0 <stm32__i2s__configure___postconditions.4585+0x2c>)
 80089b0:	4d04      	ldr	r5, [pc, #16]	; (80089c4 <stm32__i2s__configure___postconditions.4585+0x30>)
 80089b2:	4620      	mov	r0, r4
 80089b4:	4629      	mov	r1, r5
 80089b6:	f001 fdff 	bl	800a5b8 <system__assertions__raise_assert_failure>
 80089ba:	3708      	adds	r7, #8
 80089bc:	46bd      	mov	sp, r7
 80089be:	bdb0      	pop	{r4, r5, r7, pc}
 80089c0:	0800bce0 	.word	0x0800bce0
 80089c4:	0800bd0c 	.word	0x0800bd0c

080089c8 <stm32__i2s__configure>:
 80089c8:	b5b0      	push	{r4, r5, r7, lr}
 80089ca:	b084      	sub	sp, #16
 80089cc:	af00      	add	r7, sp, #0
 80089ce:	6078      	str	r0, [r7, #4]
 80089d0:	6039      	str	r1, [r7, #0]
 80089d2:	f107 0320 	add.w	r3, r7, #32
 80089d6:	60fb      	str	r3, [r7, #12]
 80089d8:	687b      	ldr	r3, [r7, #4]
 80089da:	60bb      	str	r3, [r7, #8]
 80089dc:	68bb      	ldr	r3, [r7, #8]
 80089de:	4618      	mov	r0, r3
 80089e0:	f000 f98e 	bl	8008d00 <stm32__i2s__enabled>
 80089e4:	4603      	mov	r3, r0
 80089e6:	2b00      	cmp	r3, #0
 80089e8:	d005      	beq.n	80089f6 <stm32__i2s__configure+0x2e>
 80089ea:	4c72      	ldr	r4, [pc, #456]	; (8008bb4 <stm32__i2s__configure+0x1ec>)
 80089ec:	4d72      	ldr	r5, [pc, #456]	; (8008bb8 <stm32__i2s__configure+0x1f0>)
 80089ee:	4620      	mov	r0, r4
 80089f0:	4629      	mov	r1, r5
 80089f2:	f001 fde1 	bl	800a5b8 <system__assertions__raise_assert_failure>
 80089f6:	683b      	ldr	r3, [r7, #0]
 80089f8:	781b      	ldrb	r3, [r3, #0]
 80089fa:	2b03      	cmp	r3, #3
 80089fc:	d903      	bls.n	8008a06 <stm32__i2s__configure+0x3e>
 80089fe:	486f      	ldr	r0, [pc, #444]	; (8008bbc <stm32__i2s__configure+0x1f4>)
 8008a00:	2139      	movs	r1, #57	; 0x39
 8008a02:	f7f7 fca3 	bl	800034c <__gnat_last_chance_handler>
 8008a06:	683b      	ldr	r3, [r7, #0]
 8008a08:	781b      	ldrb	r3, [r3, #0]
 8008a0a:	2b01      	cmp	r3, #1
 8008a0c:	d006      	beq.n	8008a1c <stm32__i2s__configure+0x54>
 8008a0e:	2b01      	cmp	r3, #1
 8008a10:	d302      	bcc.n	8008a18 <stm32__i2s__configure+0x50>
 8008a12:	2b02      	cmp	r3, #2
 8008a14:	d004      	beq.n	8008a20 <stm32__i2s__configure+0x58>
 8008a16:	e005      	b.n	8008a24 <stm32__i2s__configure+0x5c>
 8008a18:	2200      	movs	r2, #0
 8008a1a:	e004      	b.n	8008a26 <stm32__i2s__configure+0x5e>
 8008a1c:	2201      	movs	r2, #1
 8008a1e:	e002      	b.n	8008a26 <stm32__i2s__configure+0x5e>
 8008a20:	2202      	movs	r2, #2
 8008a22:	e000      	b.n	8008a26 <stm32__i2s__configure+0x5e>
 8008a24:	2203      	movs	r2, #3
 8008a26:	bf00      	nop
 8008a28:	68bb      	ldr	r3, [r7, #8]
 8008a2a:	685b      	ldr	r3, [r3, #4]
 8008a2c:	331c      	adds	r3, #28
 8008a2e:	681b      	ldr	r3, [r3, #0]
 8008a30:	f002 0203 	and.w	r2, r2, #3
 8008a34:	b2d2      	uxtb	r2, r2
 8008a36:	f362 2309 	bfi	r3, r2, #8, #2
 8008a3a:	68ba      	ldr	r2, [r7, #8]
 8008a3c:	6852      	ldr	r2, [r2, #4]
 8008a3e:	321c      	adds	r2, #28
 8008a40:	6013      	str	r3, [r2, #0]
 8008a42:	68bb      	ldr	r3, [r7, #8]
 8008a44:	685b      	ldr	r3, [r3, #4]
 8008a46:	331c      	adds	r3, #28
 8008a48:	681b      	ldr	r3, [r3, #0]
 8008a4a:	683a      	ldr	r2, [r7, #0]
 8008a4c:	7892      	ldrb	r2, [r2, #2]
 8008a4e:	2a01      	cmp	r2, #1
 8008a50:	bf0c      	ite	eq
 8008a52:	2201      	moveq	r2, #1
 8008a54:	2200      	movne	r2, #0
 8008a56:	b2d2      	uxtb	r2, r2
 8008a58:	f002 0201 	and.w	r2, r2, #1
 8008a5c:	b2d2      	uxtb	r2, r2
 8008a5e:	f362 13c7 	bfi	r3, r2, #7, #1
 8008a62:	68ba      	ldr	r2, [r7, #8]
 8008a64:	6852      	ldr	r2, [r2, #4]
 8008a66:	321c      	adds	r2, #28
 8008a68:	6013      	str	r3, [r2, #0]
 8008a6a:	683b      	ldr	r3, [r7, #0]
 8008a6c:	785b      	ldrb	r3, [r3, #1]
 8008a6e:	2b03      	cmp	r3, #3
 8008a70:	d903      	bls.n	8008a7a <stm32__i2s__configure+0xb2>
 8008a72:	4852      	ldr	r0, [pc, #328]	; (8008bbc <stm32__i2s__configure+0x1f4>)
 8008a74:	2141      	movs	r1, #65	; 0x41
 8008a76:	f7f7 fc69 	bl	800034c <__gnat_last_chance_handler>
 8008a7a:	683b      	ldr	r3, [r7, #0]
 8008a7c:	785b      	ldrb	r3, [r3, #1]
 8008a7e:	2b01      	cmp	r3, #1
 8008a80:	d006      	beq.n	8008a90 <stm32__i2s__configure+0xc8>
 8008a82:	2b01      	cmp	r3, #1
 8008a84:	d302      	bcc.n	8008a8c <stm32__i2s__configure+0xc4>
 8008a86:	2b02      	cmp	r3, #2
 8008a88:	d004      	beq.n	8008a94 <stm32__i2s__configure+0xcc>
 8008a8a:	e005      	b.n	8008a98 <stm32__i2s__configure+0xd0>
 8008a8c:	2200      	movs	r2, #0
 8008a8e:	e004      	b.n	8008a9a <stm32__i2s__configure+0xd2>
 8008a90:	2201      	movs	r2, #1
 8008a92:	e002      	b.n	8008a9a <stm32__i2s__configure+0xd2>
 8008a94:	2202      	movs	r2, #2
 8008a96:	e000      	b.n	8008a9a <stm32__i2s__configure+0xd2>
 8008a98:	2203      	movs	r2, #3
 8008a9a:	bf00      	nop
 8008a9c:	68bb      	ldr	r3, [r7, #8]
 8008a9e:	685b      	ldr	r3, [r3, #4]
 8008aa0:	331c      	adds	r3, #28
 8008aa2:	681b      	ldr	r3, [r3, #0]
 8008aa4:	f002 0203 	and.w	r2, r2, #3
 8008aa8:	b2d2      	uxtb	r2, r2
 8008aaa:	f362 1305 	bfi	r3, r2, #4, #2
 8008aae:	68ba      	ldr	r2, [r7, #8]
 8008ab0:	6852      	ldr	r2, [r2, #4]
 8008ab2:	321c      	adds	r2, #28
 8008ab4:	6013      	str	r3, [r2, #0]
 8008ab6:	68bb      	ldr	r3, [r7, #8]
 8008ab8:	685b      	ldr	r3, [r3, #4]
 8008aba:	331c      	adds	r3, #28
 8008abc:	681b      	ldr	r3, [r3, #0]
 8008abe:	683a      	ldr	r2, [r7, #0]
 8008ac0:	78d2      	ldrb	r2, [r2, #3]
 8008ac2:	2a01      	cmp	r2, #1
 8008ac4:	bf0c      	ite	eq
 8008ac6:	2201      	moveq	r2, #1
 8008ac8:	2200      	movne	r2, #0
 8008aca:	b2d2      	uxtb	r2, r2
 8008acc:	f002 0201 	and.w	r2, r2, #1
 8008ad0:	b2d2      	uxtb	r2, r2
 8008ad2:	f362 03c3 	bfi	r3, r2, #3, #1
 8008ad6:	68ba      	ldr	r2, [r7, #8]
 8008ad8:	6852      	ldr	r2, [r2, #4]
 8008ada:	321c      	adds	r2, #28
 8008adc:	6013      	str	r3, [r2, #0]
 8008ade:	683b      	ldr	r3, [r7, #0]
 8008ae0:	791b      	ldrb	r3, [r3, #4]
 8008ae2:	2b02      	cmp	r3, #2
 8008ae4:	d903      	bls.n	8008aee <stm32__i2s__configure+0x126>
 8008ae6:	4835      	ldr	r0, [pc, #212]	; (8008bbc <stm32__i2s__configure+0x1f4>)
 8008ae8:	2149      	movs	r1, #73	; 0x49
 8008aea:	f7f7 fc2f 	bl	800034c <__gnat_last_chance_handler>
 8008aee:	683b      	ldr	r3, [r7, #0]
 8008af0:	791b      	ldrb	r3, [r3, #4]
 8008af2:	2b00      	cmp	r3, #0
 8008af4:	d002      	beq.n	8008afc <stm32__i2s__configure+0x134>
 8008af6:	2b01      	cmp	r3, #1
 8008af8:	d002      	beq.n	8008b00 <stm32__i2s__configure+0x138>
 8008afa:	e003      	b.n	8008b04 <stm32__i2s__configure+0x13c>
 8008afc:	2200      	movs	r2, #0
 8008afe:	e002      	b.n	8008b06 <stm32__i2s__configure+0x13e>
 8008b00:	2201      	movs	r2, #1
 8008b02:	e000      	b.n	8008b06 <stm32__i2s__configure+0x13e>
 8008b04:	2202      	movs	r2, #2
 8008b06:	bf00      	nop
 8008b08:	68bb      	ldr	r3, [r7, #8]
 8008b0a:	685b      	ldr	r3, [r3, #4]
 8008b0c:	331c      	adds	r3, #28
 8008b0e:	681b      	ldr	r3, [r3, #0]
 8008b10:	f002 0203 	and.w	r2, r2, #3
 8008b14:	b2d2      	uxtb	r2, r2
 8008b16:	f362 0342 	bfi	r3, r2, #1, #2
 8008b1a:	68ba      	ldr	r2, [r7, #8]
 8008b1c:	6852      	ldr	r2, [r2, #4]
 8008b1e:	321c      	adds	r2, #28
 8008b20:	6013      	str	r3, [r2, #0]
 8008b22:	68bb      	ldr	r3, [r7, #8]
 8008b24:	685b      	ldr	r3, [r3, #4]
 8008b26:	331c      	adds	r3, #28
 8008b28:	681b      	ldr	r3, [r3, #0]
 8008b2a:	683a      	ldr	r2, [r7, #0]
 8008b2c:	7952      	ldrb	r2, [r2, #5]
 8008b2e:	2a01      	cmp	r2, #1
 8008b30:	bf0c      	ite	eq
 8008b32:	2201      	moveq	r2, #1
 8008b34:	2200      	movne	r2, #0
 8008b36:	b2d2      	uxtb	r2, r2
 8008b38:	f002 0201 	and.w	r2, r2, #1
 8008b3c:	b2d2      	uxtb	r2, r2
 8008b3e:	f362 0300 	bfi	r3, r2, #0, #1
 8008b42:	68ba      	ldr	r2, [r7, #8]
 8008b44:	6852      	ldr	r2, [r2, #4]
 8008b46:	321c      	adds	r2, #28
 8008b48:	6013      	str	r3, [r2, #0]
 8008b4a:	68bb      	ldr	r3, [r7, #8]
 8008b4c:	685b      	ldr	r3, [r3, #4]
 8008b4e:	3320      	adds	r3, #32
 8008b50:	681b      	ldr	r3, [r3, #0]
 8008b52:	683a      	ldr	r2, [r7, #0]
 8008b54:	7992      	ldrb	r2, [r2, #6]
 8008b56:	f002 0201 	and.w	r2, r2, #1
 8008b5a:	b2d2      	uxtb	r2, r2
 8008b5c:	f362 2349 	bfi	r3, r2, #9, #1
 8008b60:	68ba      	ldr	r2, [r7, #8]
 8008b62:	6852      	ldr	r2, [r2, #4]
 8008b64:	3220      	adds	r2, #32
 8008b66:	6013      	str	r3, [r2, #0]
 8008b68:	68bb      	ldr	r3, [r7, #8]
 8008b6a:	685b      	ldr	r3, [r3, #4]
 8008b6c:	3304      	adds	r3, #4
 8008b6e:	681b      	ldr	r3, [r3, #0]
 8008b70:	683a      	ldr	r2, [r7, #0]
 8008b72:	79d2      	ldrb	r2, [r2, #7]
 8008b74:	f002 0201 	and.w	r2, r2, #1
 8008b78:	b2d2      	uxtb	r2, r2
 8008b7a:	f362 0341 	bfi	r3, r2, #1, #1
 8008b7e:	68ba      	ldr	r2, [r7, #8]
 8008b80:	6852      	ldr	r2, [r2, #4]
 8008b82:	3204      	adds	r2, #4
 8008b84:	6013      	str	r3, [r2, #0]
 8008b86:	68bb      	ldr	r3, [r7, #8]
 8008b88:	685b      	ldr	r3, [r3, #4]
 8008b8a:	3304      	adds	r3, #4
 8008b8c:	681b      	ldr	r3, [r3, #0]
 8008b8e:	683a      	ldr	r2, [r7, #0]
 8008b90:	7a12      	ldrb	r2, [r2, #8]
 8008b92:	f002 0201 	and.w	r2, r2, #1
 8008b96:	b2d2      	uxtb	r2, r2
 8008b98:	f362 0300 	bfi	r3, r2, #0, #1
 8008b9c:	68ba      	ldr	r2, [r7, #8]
 8008b9e:	6852      	ldr	r2, [r2, #4]
 8008ba0:	3204      	adds	r2, #4
 8008ba2:	6013      	str	r3, [r2, #0]
 8008ba4:	f107 0308 	add.w	r3, r7, #8
 8008ba8:	469c      	mov	ip, r3
 8008baa:	f7ff fef3 	bl	8008994 <stm32__i2s__configure___postconditions.4585>
 8008bae:	3710      	adds	r7, #16
 8008bb0:	46bd      	mov	sp, r7
 8008bb2:	bdb0      	pop	{r4, r5, r7, pc}
 8008bb4:	0800bd14 	.word	0x0800bd14
 8008bb8:	0800bd50 	.word	0x0800bd50
 8008bbc:	0800bd40 	.word	0x0800bd40

08008bc0 <stm32__i2s__in_i2s_mode>:
 8008bc0:	b480      	push	{r7}
 8008bc2:	b083      	sub	sp, #12
 8008bc4:	af00      	add	r7, sp, #0
 8008bc6:	6078      	str	r0, [r7, #4]
 8008bc8:	687b      	ldr	r3, [r7, #4]
 8008bca:	685b      	ldr	r3, [r3, #4]
 8008bcc:	331c      	adds	r3, #28
 8008bce:	681b      	ldr	r3, [r3, #0]
 8008bd0:	f3c3 23c0 	ubfx	r3, r3, #11, #1
 8008bd4:	b2db      	uxtb	r3, r3
 8008bd6:	bf00      	nop
 8008bd8:	4618      	mov	r0, r3
 8008bda:	370c      	adds	r7, #12
 8008bdc:	46bd      	mov	sp, r7
 8008bde:	f85d 7b04 	ldr.w	r7, [sp], #4
 8008be2:	4770      	bx	lr

08008be4 <stm32__i2s__enable___postconditions.4608>:
 8008be4:	e92d 41f0 	stmdb	sp!, {r4, r5, r6, r7, r8, lr}
 8008be8:	b082      	sub	sp, #8
 8008bea:	af00      	add	r7, sp, #0
 8008bec:	4664      	mov	r4, ip
 8008bee:	f8c7 c004 	str.w	ip, [r7, #4]
 8008bf2:	6823      	ldr	r3, [r4, #0]
 8008bf4:	4618      	mov	r0, r3
 8008bf6:	f000 f883 	bl	8008d00 <stm32__i2s__enabled>
 8008bfa:	4603      	mov	r3, r0
 8008bfc:	f083 0301 	eor.w	r3, r3, #1
 8008c00:	fa5f f883 	uxtb.w	r8, r3
 8008c04:	6823      	ldr	r3, [r4, #0]
 8008c06:	4618      	mov	r0, r3
 8008c08:	f7ff ffda 	bl	8008bc0 <stm32__i2s__in_i2s_mode>
 8008c0c:	4603      	mov	r3, r0
 8008c0e:	f083 0301 	eor.w	r3, r3, #1
 8008c12:	b2db      	uxtb	r3, r3
 8008c14:	ea48 0303 	orr.w	r3, r8, r3
 8008c18:	b2db      	uxtb	r3, r3
 8008c1a:	2b00      	cmp	r3, #0
 8008c1c:	d005      	beq.n	8008c2a <stm32__i2s__enable___postconditions.4608+0x46>
 8008c1e:	4d05      	ldr	r5, [pc, #20]	; (8008c34 <stm32__i2s__enable___postconditions.4608+0x50>)
 8008c20:	4e05      	ldr	r6, [pc, #20]	; (8008c38 <stm32__i2s__enable___postconditions.4608+0x54>)
 8008c22:	4628      	mov	r0, r5
 8008c24:	4631      	mov	r1, r6
 8008c26:	f001 fcc7 	bl	800a5b8 <system__assertions__raise_assert_failure>
 8008c2a:	3708      	adds	r7, #8
 8008c2c:	46bd      	mov	sp, r7
 8008c2e:	e8bd 81f0 	ldmia.w	sp!, {r4, r5, r6, r7, r8, pc}
 8008c32:	bf00      	nop
 8008c34:	0800bd58 	.word	0x0800bd58
 8008c38:	0800bd0c 	.word	0x0800bd0c

08008c3c <stm32__i2s__enable>:
 8008c3c:	b590      	push	{r4, r7, lr}
 8008c3e:	b087      	sub	sp, #28
 8008c40:	af00      	add	r7, sp, #0
 8008c42:	6078      	str	r0, [r7, #4]
 8008c44:	f107 0228 	add.w	r2, r7, #40	; 0x28
 8008c48:	617a      	str	r2, [r7, #20]
 8008c4a:	687a      	ldr	r2, [r7, #4]
 8008c4c:	613a      	str	r2, [r7, #16]
 8008c4e:	693a      	ldr	r2, [r7, #16]
 8008c50:	6852      	ldr	r2, [r2, #4]
 8008c52:	6812      	ldr	r2, [r2, #0]
 8008c54:	f3c2 1280 	ubfx	r2, r2, #6, #1
 8008c58:	b2d2      	uxtb	r2, r2
 8008c5a:	2a00      	cmp	r2, #0
 8008c5c:	d008      	beq.n	8008c70 <stm32__i2s__enable+0x34>
 8008c5e:	4b14      	ldr	r3, [pc, #80]	; (8008cb0 <stm32__i2s__enable+0x74>)
 8008c60:	4c14      	ldr	r4, [pc, #80]	; (8008cb4 <stm32__i2s__enable+0x78>)
 8008c62:	e9c7 3402 	strd	r3, r4, [r7, #8]
 8008c66:	68bb      	ldr	r3, [r7, #8]
 8008c68:	4618      	mov	r0, r3
 8008c6a:	2100      	movs	r1, #0
 8008c6c:	f7f7 fb6e 	bl	800034c <__gnat_last_chance_handler>
 8008c70:	693b      	ldr	r3, [r7, #16]
 8008c72:	685b      	ldr	r3, [r3, #4]
 8008c74:	331c      	adds	r3, #28
 8008c76:	681b      	ldr	r3, [r3, #0]
 8008c78:	461a      	mov	r2, r3
 8008c7a:	4613      	mov	r3, r2
 8008c7c:	f443 6200 	orr.w	r2, r3, #2048	; 0x800
 8008c80:	693b      	ldr	r3, [r7, #16]
 8008c82:	685b      	ldr	r3, [r3, #4]
 8008c84:	331c      	adds	r3, #28
 8008c86:	601a      	str	r2, [r3, #0]
 8008c88:	693b      	ldr	r3, [r7, #16]
 8008c8a:	685b      	ldr	r3, [r3, #4]
 8008c8c:	331c      	adds	r3, #28
 8008c8e:	681b      	ldr	r3, [r3, #0]
 8008c90:	461a      	mov	r2, r3
 8008c92:	4613      	mov	r3, r2
 8008c94:	f443 6280 	orr.w	r2, r3, #1024	; 0x400
 8008c98:	693b      	ldr	r3, [r7, #16]
 8008c9a:	685b      	ldr	r3, [r3, #4]
 8008c9c:	331c      	adds	r3, #28
 8008c9e:	601a      	str	r2, [r3, #0]
 8008ca0:	f107 0310 	add.w	r3, r7, #16
 8008ca4:	469c      	mov	ip, r3
 8008ca6:	f7ff ff9d 	bl	8008be4 <stm32__i2s__enable___postconditions.4608>
 8008caa:	371c      	adds	r7, #28
 8008cac:	46bd      	mov	sp, r7
 8008cae:	bd90      	pop	{r4, r7, pc}
 8008cb0:	0800bd84 	.word	0x0800bd84
 8008cb4:	0800bda8 	.word	0x0800bda8

08008cb8 <stm32__i2s__disable>:
 8008cb8:	b5b0      	push	{r4, r5, r7, lr}
 8008cba:	b082      	sub	sp, #8
 8008cbc:	af00      	add	r7, sp, #0
 8008cbe:	6078      	str	r0, [r7, #4]
 8008cc0:	6878      	ldr	r0, [r7, #4]
 8008cc2:	f7ff ff7d 	bl	8008bc0 <stm32__i2s__in_i2s_mode>
 8008cc6:	4603      	mov	r3, r0
 8008cc8:	f083 0301 	eor.w	r3, r3, #1
 8008ccc:	b2db      	uxtb	r3, r3
 8008cce:	2b00      	cmp	r3, #0
 8008cd0:	d005      	beq.n	8008cde <stm32__i2s__disable+0x26>
 8008cd2:	4c09      	ldr	r4, [pc, #36]	; (8008cf8 <stm32__i2s__disable+0x40>)
 8008cd4:	4d09      	ldr	r5, [pc, #36]	; (8008cfc <stm32__i2s__disable+0x44>)
 8008cd6:	4620      	mov	r0, r4
 8008cd8:	4629      	mov	r1, r5
 8008cda:	f001 fc6d 	bl	800a5b8 <system__assertions__raise_assert_failure>
 8008cde:	687b      	ldr	r3, [r7, #4]
 8008ce0:	685b      	ldr	r3, [r3, #4]
 8008ce2:	331c      	adds	r3, #28
 8008ce4:	681b      	ldr	r3, [r3, #0]
 8008ce6:	f36f 238a 	bfc	r3, #10, #1
 8008cea:	687a      	ldr	r2, [r7, #4]
 8008cec:	6852      	ldr	r2, [r2, #4]
 8008cee:	321c      	adds	r2, #28
 8008cf0:	6013      	str	r3, [r2, #0]
 8008cf2:	3708      	adds	r7, #8
 8008cf4:	46bd      	mov	sp, r7
 8008cf6:	bdb0      	pop	{r4, r5, r7, pc}
 8008cf8:	0800bdb0 	.word	0x0800bdb0
 8008cfc:	0800bd0c 	.word	0x0800bd0c

08008d00 <stm32__i2s__enabled>:
 8008d00:	b480      	push	{r7}
 8008d02:	b083      	sub	sp, #12
 8008d04:	af00      	add	r7, sp, #0
 8008d06:	6078      	str	r0, [r7, #4]
 8008d08:	687b      	ldr	r3, [r7, #4]
 8008d0a:	685b      	ldr	r3, [r3, #4]
 8008d0c:	331c      	adds	r3, #28
 8008d0e:	681b      	ldr	r3, [r3, #0]
 8008d10:	f3c3 2380 	ubfx	r3, r3, #10, #1
 8008d14:	b2db      	uxtb	r3, r3
 8008d16:	bf00      	nop
 8008d18:	4618      	mov	r0, r3
 8008d1a:	370c      	adds	r7, #12
 8008d1c:	46bd      	mov	sp, r7
 8008d1e:	f85d 7b04 	ldr.w	r7, [sp], #4
 8008d22:	4770      	bx	lr

08008d24 <stm32__i2s__data_register_address>:
 8008d24:	b480      	push	{r7}
 8008d26:	b083      	sub	sp, #12
 8008d28:	af00      	add	r7, sp, #0
 8008d2a:	6078      	str	r0, [r7, #4]
 8008d2c:	687b      	ldr	r3, [r7, #4]
 8008d2e:	685b      	ldr	r3, [r3, #4]
 8008d30:	330c      	adds	r3, #12
 8008d32:	bf00      	nop
 8008d34:	4618      	mov	r0, r3
 8008d36:	370c      	adds	r7, #12
 8008d38:	46bd      	mov	sp, r7
 8008d3a:	f85d 7b04 	ldr.w	r7, [sp], #4
 8008d3e:	4770      	bx	lr

08008d40 <stm32__i2s__set_frequency>:
 8008d40:	b5b0      	push	{r4, r5, r7, lr}
 8008d42:	b08e      	sub	sp, #56	; 0x38
 8008d44:	af00      	add	r7, sp, #0
 8008d46:	6078      	str	r0, [r7, #4]
 8008d48:	6039      	str	r1, [r7, #0]
 8008d4a:	6878      	ldr	r0, [r7, #4]
 8008d4c:	f7ff ffd8 	bl	8008d00 <stm32__i2s__enabled>
 8008d50:	4603      	mov	r3, r0
 8008d52:	2b00      	cmp	r3, #0
 8008d54:	d005      	beq.n	8008d62 <stm32__i2s__set_frequency+0x22>
 8008d56:	4c4a      	ldr	r4, [pc, #296]	; (8008e80 <stm32__i2s__set_frequency+0x140>)
 8008d58:	4d4a      	ldr	r5, [pc, #296]	; (8008e84 <stm32__i2s__set_frequency+0x144>)
 8008d5a:	4620      	mov	r0, r4
 8008d5c:	4629      	mov	r1, r5
 8008d5e:	f001 fc2b 	bl	800a5b8 <system__assertions__raise_assert_failure>
 8008d62:	f107 0308 	add.w	r3, r7, #8
 8008d66:	4618      	mov	r0, r3
 8008d68:	f7f9 fc82 	bl	8002670 <stm32__device__system_clock_frequencies>
 8008d6c:	6a3b      	ldr	r3, [r7, #32]
 8008d6e:	62bb      	str	r3, [r7, #40]	; 0x28
 8008d70:	687b      	ldr	r3, [r7, #4]
 8008d72:	685b      	ldr	r3, [r3, #4]
 8008d74:	331c      	adds	r3, #28
 8008d76:	681b      	ldr	r3, [r3, #0]
 8008d78:	b2db      	uxtb	r3, r3
 8008d7a:	f003 0306 	and.w	r3, r3, #6
 8008d7e:	b2db      	uxtb	r3, r3
 8008d80:	2b00      	cmp	r3, #0
 8008d82:	d101      	bne.n	8008d88 <stm32__i2s__set_frequency+0x48>
 8008d84:	2301      	movs	r3, #1
 8008d86:	e000      	b.n	8008d8a <stm32__i2s__set_frequency+0x4a>
 8008d88:	2302      	movs	r3, #2
 8008d8a:	627b      	str	r3, [r7, #36]	; 0x24
 8008d8c:	687b      	ldr	r3, [r7, #4]
 8008d8e:	685b      	ldr	r3, [r3, #4]
 8008d90:	3320      	adds	r3, #32
 8008d92:	681b      	ldr	r3, [r3, #0]
 8008d94:	f3c3 2340 	ubfx	r3, r3, #9, #1
 8008d98:	b2db      	uxtb	r3, r3
 8008d9a:	2b00      	cmp	r3, #0
 8008d9c:	d007      	beq.n	8008dae <stm32__i2s__set_frequency+0x6e>
 8008d9e:	6abb      	ldr	r3, [r7, #40]	; 0x28
 8008da0:	0a1a      	lsrs	r2, r3, #8
 8008da2:	4613      	mov	r3, r2
 8008da4:	009b      	lsls	r3, r3, #2
 8008da6:	4413      	add	r3, r2
 8008da8:	005b      	lsls	r3, r3, #1
 8008daa:	637b      	str	r3, [r7, #52]	; 0x34
 8008dac:	e011      	b.n	8008dd2 <stm32__i2s__set_frequency+0x92>
 8008dae:	6a7b      	ldr	r3, [r7, #36]	; 0x24
 8008db0:	015b      	lsls	r3, r3, #5
 8008db2:	2b00      	cmp	r3, #0
 8008db4:	d103      	bne.n	8008dbe <stm32__i2s__set_frequency+0x7e>
 8008db6:	4834      	ldr	r0, [pc, #208]	; (8008e88 <stm32__i2s__set_frequency+0x148>)
 8008db8:	2199      	movs	r1, #153	; 0x99
 8008dba:	f7f7 fac7 	bl	800034c <__gnat_last_chance_handler>
 8008dbe:	6a7b      	ldr	r3, [r7, #36]	; 0x24
 8008dc0:	015b      	lsls	r3, r3, #5
 8008dc2:	6aba      	ldr	r2, [r7, #40]	; 0x28
 8008dc4:	fbb2 f2f3 	udiv	r2, r2, r3
 8008dc8:	4613      	mov	r3, r2
 8008dca:	009b      	lsls	r3, r3, #2
 8008dcc:	4413      	add	r3, r2
 8008dce:	005b      	lsls	r3, r3, #1
 8008dd0:	637b      	str	r3, [r7, #52]	; 0x34
 8008dd2:	683b      	ldr	r3, [r7, #0]
 8008dd4:	2b00      	cmp	r3, #0
 8008dd6:	d103      	bne.n	8008de0 <stm32__i2s__set_frequency+0xa0>
 8008dd8:	482b      	ldr	r0, [pc, #172]	; (8008e88 <stm32__i2s__set_frequency+0x148>)
 8008dda:	219c      	movs	r1, #156	; 0x9c
 8008ddc:	f7f7 fab6 	bl	800034c <__gnat_last_chance_handler>
 8008de0:	6b7a      	ldr	r2, [r7, #52]	; 0x34
 8008de2:	683b      	ldr	r3, [r7, #0]
 8008de4:	fbb2 f3f3 	udiv	r3, r2, r3
 8008de8:	3305      	adds	r3, #5
 8008dea:	4a28      	ldr	r2, [pc, #160]	; (8008e8c <stm32__i2s__set_frequency+0x14c>)
 8008dec:	fba2 2303 	umull	r2, r3, r2, r3
 8008df0:	08db      	lsrs	r3, r3, #3
 8008df2:	637b      	str	r3, [r7, #52]	; 0x34
 8008df4:	6b7b      	ldr	r3, [r7, #52]	; 0x34
 8008df6:	f003 0301 	and.w	r3, r3, #1
 8008dfa:	2b00      	cmp	r3, #0
 8008dfc:	bf14      	ite	ne
 8008dfe:	2301      	movne	r3, #1
 8008e00:	2300      	moveq	r3, #0
 8008e02:	f887 3033 	strb.w	r3, [r7, #51]	; 0x33
 8008e06:	f897 3033 	ldrb.w	r3, [r7, #51]	; 0x33
 8008e0a:	2b00      	cmp	r3, #0
 8008e0c:	d004      	beq.n	8008e18 <stm32__i2s__set_frequency+0xd8>
 8008e0e:	6b7b      	ldr	r3, [r7, #52]	; 0x34
 8008e10:	3b01      	subs	r3, #1
 8008e12:	085b      	lsrs	r3, r3, #1
 8008e14:	62fb      	str	r3, [r7, #44]	; 0x2c
 8008e16:	e002      	b.n	8008e1e <stm32__i2s__set_frequency+0xde>
 8008e18:	6b7b      	ldr	r3, [r7, #52]	; 0x34
 8008e1a:	085b      	lsrs	r3, r3, #1
 8008e1c:	62fb      	str	r3, [r7, #44]	; 0x2c
 8008e1e:	6afb      	ldr	r3, [r7, #44]	; 0x2c
 8008e20:	2b01      	cmp	r3, #1
 8008e22:	d902      	bls.n	8008e2a <stm32__i2s__set_frequency+0xea>
 8008e24:	6afb      	ldr	r3, [r7, #44]	; 0x2c
 8008e26:	2bff      	cmp	r3, #255	; 0xff
 8008e28:	d904      	bls.n	8008e34 <stm32__i2s__set_frequency+0xf4>
 8008e2a:	2302      	movs	r3, #2
 8008e2c:	62fb      	str	r3, [r7, #44]	; 0x2c
 8008e2e:	2300      	movs	r3, #0
 8008e30:	f887 3033 	strb.w	r3, [r7, #51]	; 0x33
 8008e34:	687b      	ldr	r3, [r7, #4]
 8008e36:	685b      	ldr	r3, [r3, #4]
 8008e38:	3320      	adds	r3, #32
 8008e3a:	681b      	ldr	r3, [r3, #0]
 8008e3c:	f897 2033 	ldrb.w	r2, [r7, #51]	; 0x33
 8008e40:	f002 0201 	and.w	r2, r2, #1
 8008e44:	b2d2      	uxtb	r2, r2
 8008e46:	f362 2308 	bfi	r3, r2, #8, #1
 8008e4a:	687a      	ldr	r2, [r7, #4]
 8008e4c:	6852      	ldr	r2, [r2, #4]
 8008e4e:	3220      	adds	r2, #32
 8008e50:	6013      	str	r3, [r2, #0]
 8008e52:	6afb      	ldr	r3, [r7, #44]	; 0x2c
 8008e54:	2bff      	cmp	r3, #255	; 0xff
 8008e56:	d903      	bls.n	8008e60 <stm32__i2s__set_frequency+0x120>
 8008e58:	480b      	ldr	r0, [pc, #44]	; (8008e88 <stm32__i2s__set_frequency+0x148>)
 8008e5a:	21ad      	movs	r1, #173	; 0xad
 8008e5c:	f7f7 fa76 	bl	800034c <__gnat_last_chance_handler>
 8008e60:	687b      	ldr	r3, [r7, #4]
 8008e62:	685b      	ldr	r3, [r3, #4]
 8008e64:	3320      	adds	r3, #32
 8008e66:	681b      	ldr	r3, [r3, #0]
 8008e68:	6afa      	ldr	r2, [r7, #44]	; 0x2c
 8008e6a:	b2d2      	uxtb	r2, r2
 8008e6c:	f362 0307 	bfi	r3, r2, #0, #8
 8008e70:	687a      	ldr	r2, [r7, #4]
 8008e72:	6852      	ldr	r2, [r2, #4]
 8008e74:	3220      	adds	r2, #32
 8008e76:	6013      	str	r3, [r2, #0]
 8008e78:	3738      	adds	r7, #56	; 0x38
 8008e7a:	46bd      	mov	sp, r7
 8008e7c:	bdb0      	pop	{r4, r5, r7, pc}
 8008e7e:	bf00      	nop
 8008e80:	0800bddc 	.word	0x0800bddc
 8008e84:	0800bd0c 	.word	0x0800bd0c
 8008e88:	0800bd40 	.word	0x0800bd40
 8008e8c:	cccccccd 	.word	0xcccccccd

08008e90 <stm32__i2s__receive>:
 8008e90:	b5b0      	push	{r4, r5, r7, lr}
 8008e92:	b088      	sub	sp, #32
 8008e94:	af00      	add	r7, sp, #0
 8008e96:	60f8      	str	r0, [r7, #12]
 8008e98:	e9c7 2300 	strd	r2, r3, [r7]
 8008e9c:	68f8      	ldr	r0, [r7, #12]
 8008e9e:	f7ff fe8f 	bl	8008bc0 <stm32__i2s__in_i2s_mode>
 8008ea2:	4603      	mov	r3, r0
 8008ea4:	f083 0301 	eor.w	r3, r3, #1
 8008ea8:	b2db      	uxtb	r3, r3
 8008eaa:	2b00      	cmp	r3, #0
 8008eac:	d005      	beq.n	8008eba <stm32__i2s__receive+0x2a>
 8008eae:	4c22      	ldr	r4, [pc, #136]	; (8008f38 <stm32__i2s__receive+0xa8>)
 8008eb0:	4d22      	ldr	r5, [pc, #136]	; (8008f3c <stm32__i2s__receive+0xac>)
 8008eb2:	4620      	mov	r0, r4
 8008eb4:	4629      	mov	r1, r5
 8008eb6:	f001 fb7f 	bl	800a5b8 <system__assertions__raise_assert_failure>
 8008eba:	687b      	ldr	r3, [r7, #4]
 8008ebc:	681b      	ldr	r3, [r3, #0]
 8008ebe:	61fb      	str	r3, [r7, #28]
 8008ec0:	687b      	ldr	r3, [r7, #4]
 8008ec2:	685a      	ldr	r2, [r3, #4]
 8008ec4:	687b      	ldr	r3, [r7, #4]
 8008ec6:	681b      	ldr	r3, [r3, #0]
 8008ec8:	429a      	cmp	r2, r3
 8008eca:	db03      	blt.n	8008ed4 <stm32__i2s__receive+0x44>
 8008ecc:	687b      	ldr	r3, [r7, #4]
 8008ece:	685b      	ldr	r3, [r3, #4]
 8008ed0:	61bb      	str	r3, [r7, #24]
 8008ed2:	e003      	b.n	8008edc <stm32__i2s__receive+0x4c>
 8008ed4:	687b      	ldr	r3, [r7, #4]
 8008ed6:	681b      	ldr	r3, [r3, #0]
 8008ed8:	3b01      	subs	r3, #1
 8008eda:	61bb      	str	r3, [r7, #24]
 8008edc:	687b      	ldr	r3, [r7, #4]
 8008ede:	681b      	ldr	r3, [r3, #0]
 8008ee0:	687a      	ldr	r2, [r7, #4]
 8008ee2:	6852      	ldr	r2, [r2, #4]
 8008ee4:	4293      	cmp	r3, r2
 8008ee6:	dc24      	bgt.n	8008f32 <stm32__i2s__receive+0xa2>
 8008ee8:	683c      	ldr	r4, [r7, #0]
 8008eea:	4619      	mov	r1, r3
 8008eec:	69f8      	ldr	r0, [r7, #28]
 8008eee:	1a08      	subs	r0, r1, r0
 8008ef0:	0040      	lsls	r0, r0, #1
 8008ef2:	4420      	add	r0, r4
 8008ef4:	6178      	str	r0, [r7, #20]
 8008ef6:	68f8      	ldr	r0, [r7, #12]
 8008ef8:	6840      	ldr	r0, [r0, #4]
 8008efa:	3008      	adds	r0, #8
 8008efc:	6800      	ldr	r0, [r0, #0]
 8008efe:	f3c0 0000 	ubfx	r0, r0, #0, #1
 8008f02:	b2c0      	uxtb	r0, r0
 8008f04:	f080 0001 	eor.w	r0, r0, #1
 8008f08:	b2c0      	uxtb	r0, r0
 8008f0a:	2800      	cmp	r0, #0
 8008f0c:	d001      	beq.n	8008f12 <stm32__i2s__receive+0x82>
 8008f0e:	bf00      	nop
 8008f10:	e7f1      	b.n	8008ef6 <stm32__i2s__receive+0x66>
 8008f12:	6838      	ldr	r0, [r7, #0]
 8008f14:	68fc      	ldr	r4, [r7, #12]
 8008f16:	6864      	ldr	r4, [r4, #4]
 8008f18:	340c      	adds	r4, #12
 8008f1a:	6824      	ldr	r4, [r4, #0]
 8008f1c:	b2a4      	uxth	r4, r4
 8008f1e:	b2a5      	uxth	r5, r4
 8008f20:	69fc      	ldr	r4, [r7, #28]
 8008f22:	1b09      	subs	r1, r1, r4
 8008f24:	462c      	mov	r4, r5
 8008f26:	f820 4011 	strh.w	r4, [r0, r1, lsl #1]
 8008f2a:	4293      	cmp	r3, r2
 8008f2c:	d001      	beq.n	8008f32 <stm32__i2s__receive+0xa2>
 8008f2e:	3301      	adds	r3, #1
 8008f30:	e7da      	b.n	8008ee8 <stm32__i2s__receive+0x58>
 8008f32:	3720      	adds	r7, #32
 8008f34:	46bd      	mov	sp, r7
 8008f36:	bdb0      	pop	{r4, r5, r7, pc}
 8008f38:	0800be08 	.word	0x0800be08
 8008f3c:	0800bd0c 	.word	0x0800bd0c

08008f40 <stm32__i2s__transmit>:
 8008f40:	e92d 43b0 	stmdb	sp!, {r4, r5, r7, r8, r9, lr}
 8008f44:	b088      	sub	sp, #32
 8008f46:	af00      	add	r7, sp, #0
 8008f48:	60f8      	str	r0, [r7, #12]
 8008f4a:	e9c7 2300 	strd	r2, r3, [r7]
 8008f4e:	687b      	ldr	r3, [r7, #4]
 8008f50:	681c      	ldr	r4, [r3, #0]
 8008f52:	687b      	ldr	r3, [r7, #4]
 8008f54:	685d      	ldr	r5, [r3, #4]
 8008f56:	68f8      	ldr	r0, [r7, #12]
 8008f58:	f7ff fe32 	bl	8008bc0 <stm32__i2s__in_i2s_mode>
 8008f5c:	4603      	mov	r3, r0
 8008f5e:	f083 0301 	eor.w	r3, r3, #1
 8008f62:	b2db      	uxtb	r3, r3
 8008f64:	2b00      	cmp	r3, #0
 8008f66:	d007      	beq.n	8008f78 <stm32__i2s__transmit+0x38>
 8008f68:	f8df 807c 	ldr.w	r8, [pc, #124]	; 8008fe8 <stm32__i2s__transmit+0xa8>
 8008f6c:	f8df 907c 	ldr.w	r9, [pc, #124]	; 8008fec <stm32__i2s__transmit+0xac>
 8008f70:	4640      	mov	r0, r8
 8008f72:	4649      	mov	r1, r9
 8008f74:	f001 fb20 	bl	800a5b8 <system__assertions__raise_assert_failure>
 8008f78:	61fc      	str	r4, [r7, #28]
 8008f7a:	42a5      	cmp	r5, r4
 8008f7c:	db01      	blt.n	8008f82 <stm32__i2s__transmit+0x42>
 8008f7e:	61bd      	str	r5, [r7, #24]
 8008f80:	e002      	b.n	8008f88 <stm32__i2s__transmit+0x48>
 8008f82:	4623      	mov	r3, r4
 8008f84:	3b01      	subs	r3, #1
 8008f86:	61bb      	str	r3, [r7, #24]
 8008f88:	42ac      	cmp	r4, r5
 8008f8a:	dc28      	bgt.n	8008fde <stm32__i2s__transmit+0x9e>
 8008f8c:	6839      	ldr	r1, [r7, #0]
 8008f8e:	4622      	mov	r2, r4
 8008f90:	69fb      	ldr	r3, [r7, #28]
 8008f92:	1ad3      	subs	r3, r2, r3
 8008f94:	005b      	lsls	r3, r3, #1
 8008f96:	440b      	add	r3, r1
 8008f98:	617b      	str	r3, [r7, #20]
 8008f9a:	68fb      	ldr	r3, [r7, #12]
 8008f9c:	685b      	ldr	r3, [r3, #4]
 8008f9e:	3308      	adds	r3, #8
 8008fa0:	681b      	ldr	r3, [r3, #0]
 8008fa2:	f3c3 0340 	ubfx	r3, r3, #1, #1
 8008fa6:	b2db      	uxtb	r3, r3
 8008fa8:	f083 0301 	eor.w	r3, r3, #1
 8008fac:	b2db      	uxtb	r3, r3
 8008fae:	2b00      	cmp	r3, #0
 8008fb0:	d001      	beq.n	8008fb6 <stm32__i2s__transmit+0x76>
 8008fb2:	bf00      	nop
 8008fb4:	e7f1      	b.n	8008f9a <stm32__i2s__transmit+0x5a>
 8008fb6:	68fb      	ldr	r3, [r7, #12]
 8008fb8:	685b      	ldr	r3, [r3, #4]
 8008fba:	330c      	adds	r3, #12
 8008fbc:	681b      	ldr	r3, [r3, #0]
 8008fbe:	6839      	ldr	r1, [r7, #0]
 8008fc0:	69f8      	ldr	r0, [r7, #28]
 8008fc2:	1a12      	subs	r2, r2, r0
 8008fc4:	f831 2012 	ldrh.w	r2, [r1, r2, lsl #1]
 8008fc8:	b292      	uxth	r2, r2
 8008fca:	f362 030f 	bfi	r3, r2, #0, #16
 8008fce:	68fa      	ldr	r2, [r7, #12]
 8008fd0:	6852      	ldr	r2, [r2, #4]
 8008fd2:	320c      	adds	r2, #12
 8008fd4:	6013      	str	r3, [r2, #0]
 8008fd6:	42ac      	cmp	r4, r5
 8008fd8:	d001      	beq.n	8008fde <stm32__i2s__transmit+0x9e>
 8008fda:	3401      	adds	r4, #1
 8008fdc:	e7d6      	b.n	8008f8c <stm32__i2s__transmit+0x4c>
 8008fde:	3720      	adds	r7, #32
 8008fe0:	46bd      	mov	sp, r7
 8008fe2:	e8bd 83b0 	ldmia.w	sp!, {r4, r5, r7, r8, r9, pc}
 8008fe6:	bf00      	nop
 8008fe8:	0800be34 	.word	0x0800be34
 8008fec:	0800bd0c 	.word	0x0800bd0c

08008ff0 <stm32__adc___elabs>:
 8008ff0:	b598      	push	{r3, r4, r7, lr}
 8008ff2:	af00      	add	r7, sp, #0
 8008ff4:	2003      	movs	r0, #3
 8008ff6:	f000 f973 	bl	80092e0 <ada__real_time__microseconds>
 8008ffa:	4603      	mov	r3, r0
 8008ffc:	460c      	mov	r4, r1
 8008ffe:	4a06      	ldr	r2, [pc, #24]	; (8009018 <stm32__adc___elabs+0x28>)
 8009000:	e9c2 3400 	strd	r3, r4, [r2]
 8009004:	200a      	movs	r0, #10
 8009006:	f000 f96b 	bl	80092e0 <ada__real_time__microseconds>
 800900a:	4603      	mov	r3, r0
 800900c:	460c      	mov	r4, r1
 800900e:	4a03      	ldr	r2, [pc, #12]	; (800901c <stm32__adc___elabs+0x2c>)
 8009010:	e9c2 3400 	strd	r3, r4, [r2]
 8009014:	bd98      	pop	{r3, r4, r7, pc}
 8009016:	bf00      	nop
 8009018:	20000698 	.word	0x20000698
 800901c:	200006a0 	.word	0x200006a0

08009020 <stm32_svd__spi__sr_registerIP>:
 8009020:	b480      	push	{r7}
 8009022:	b083      	sub	sp, #12
 8009024:	af00      	add	r7, sp, #0
 8009026:	6078      	str	r0, [r7, #4]
 8009028:	687b      	ldr	r3, [r7, #4]
 800902a:	781a      	ldrb	r2, [r3, #0]
 800902c:	f022 0201 	bic.w	r2, r2, #1
 8009030:	701a      	strb	r2, [r3, #0]
 8009032:	687b      	ldr	r3, [r7, #4]
 8009034:	781a      	ldrb	r2, [r3, #0]
 8009036:	f042 0202 	orr.w	r2, r2, #2
 800903a:	701a      	strb	r2, [r3, #0]
 800903c:	687b      	ldr	r3, [r7, #4]
 800903e:	781a      	ldrb	r2, [r3, #0]
 8009040:	f022 0204 	bic.w	r2, r2, #4
 8009044:	701a      	strb	r2, [r3, #0]
 8009046:	687b      	ldr	r3, [r7, #4]
 8009048:	781a      	ldrb	r2, [r3, #0]
 800904a:	f022 0208 	bic.w	r2, r2, #8
 800904e:	701a      	strb	r2, [r3, #0]
 8009050:	687b      	ldr	r3, [r7, #4]
 8009052:	781a      	ldrb	r2, [r3, #0]
 8009054:	f022 0210 	bic.w	r2, r2, #16
 8009058:	701a      	strb	r2, [r3, #0]
 800905a:	687b      	ldr	r3, [r7, #4]
 800905c:	781a      	ldrb	r2, [r3, #0]
 800905e:	f022 0220 	bic.w	r2, r2, #32
 8009062:	701a      	strb	r2, [r3, #0]
 8009064:	687b      	ldr	r3, [r7, #4]
 8009066:	781a      	ldrb	r2, [r3, #0]
 8009068:	f022 0240 	bic.w	r2, r2, #64	; 0x40
 800906c:	701a      	strb	r2, [r3, #0]
 800906e:	687b      	ldr	r3, [r7, #4]
 8009070:	781a      	ldrb	r2, [r3, #0]
 8009072:	f002 027f 	and.w	r2, r2, #127	; 0x7f
 8009076:	701a      	strb	r2, [r3, #0]
 8009078:	687b      	ldr	r3, [r7, #4]
 800907a:	681a      	ldr	r2, [r3, #0]
 800907c:	b2d2      	uxtb	r2, r2
 800907e:	601a      	str	r2, [r3, #0]
 8009080:	370c      	adds	r7, #12
 8009082:	46bd      	mov	sp, r7
 8009084:	f85d 7b04 	ldr.w	r7, [sp], #4
 8009088:	4770      	bx	lr
 800908a:	bf00      	nop

0800908c <stm32_svd__i2c__cr1_registerIP>:
 800908c:	b480      	push	{r7}
 800908e:	b083      	sub	sp, #12
 8009090:	af00      	add	r7, sp, #0
 8009092:	6078      	str	r0, [r7, #4]
 8009094:	687b      	ldr	r3, [r7, #4]
 8009096:	781a      	ldrb	r2, [r3, #0]
 8009098:	f022 0201 	bic.w	r2, r2, #1
 800909c:	701a      	strb	r2, [r3, #0]
 800909e:	687b      	ldr	r3, [r7, #4]
 80090a0:	781a      	ldrb	r2, [r3, #0]
 80090a2:	f022 0202 	bic.w	r2, r2, #2
 80090a6:	701a      	strb	r2, [r3, #0]
 80090a8:	687b      	ldr	r3, [r7, #4]
 80090aa:	781a      	ldrb	r2, [r3, #0]
 80090ac:	f022 0204 	bic.w	r2, r2, #4
 80090b0:	701a      	strb	r2, [r3, #0]
 80090b2:	687b      	ldr	r3, [r7, #4]
 80090b4:	781a      	ldrb	r2, [r3, #0]
 80090b6:	f022 0208 	bic.w	r2, r2, #8
 80090ba:	701a      	strb	r2, [r3, #0]
 80090bc:	687b      	ldr	r3, [r7, #4]
 80090be:	781a      	ldrb	r2, [r3, #0]
 80090c0:	f022 0210 	bic.w	r2, r2, #16
 80090c4:	701a      	strb	r2, [r3, #0]
 80090c6:	687b      	ldr	r3, [r7, #4]
 80090c8:	781a      	ldrb	r2, [r3, #0]
 80090ca:	f022 0220 	bic.w	r2, r2, #32
 80090ce:	701a      	strb	r2, [r3, #0]
 80090d0:	687b      	ldr	r3, [r7, #4]
 80090d2:	781a      	ldrb	r2, [r3, #0]
 80090d4:	f022 0240 	bic.w	r2, r2, #64	; 0x40
 80090d8:	701a      	strb	r2, [r3, #0]
 80090da:	687b      	ldr	r3, [r7, #4]
 80090dc:	781a      	ldrb	r2, [r3, #0]
 80090de:	f002 027f 	and.w	r2, r2, #127	; 0x7f
 80090e2:	701a      	strb	r2, [r3, #0]
 80090e4:	687b      	ldr	r3, [r7, #4]
 80090e6:	785a      	ldrb	r2, [r3, #1]
 80090e8:	f022 0201 	bic.w	r2, r2, #1
 80090ec:	705a      	strb	r2, [r3, #1]
 80090ee:	687b      	ldr	r3, [r7, #4]
 80090f0:	785a      	ldrb	r2, [r3, #1]
 80090f2:	f022 0202 	bic.w	r2, r2, #2
 80090f6:	705a      	strb	r2, [r3, #1]
 80090f8:	687b      	ldr	r3, [r7, #4]
 80090fa:	785a      	ldrb	r2, [r3, #1]
 80090fc:	f022 0204 	bic.w	r2, r2, #4
 8009100:	705a      	strb	r2, [r3, #1]
 8009102:	687b      	ldr	r3, [r7, #4]
 8009104:	785a      	ldrb	r2, [r3, #1]
 8009106:	f022 0208 	bic.w	r2, r2, #8
 800910a:	705a      	strb	r2, [r3, #1]
 800910c:	687b      	ldr	r3, [r7, #4]
 800910e:	785a      	ldrb	r2, [r3, #1]
 8009110:	f022 0210 	bic.w	r2, r2, #16
 8009114:	705a      	strb	r2, [r3, #1]
 8009116:	687b      	ldr	r3, [r7, #4]
 8009118:	785a      	ldrb	r2, [r3, #1]
 800911a:	f022 0220 	bic.w	r2, r2, #32
 800911e:	705a      	strb	r2, [r3, #1]
 8009120:	687b      	ldr	r3, [r7, #4]
 8009122:	785a      	ldrb	r2, [r3, #1]
 8009124:	f022 0240 	bic.w	r2, r2, #64	; 0x40
 8009128:	705a      	strb	r2, [r3, #1]
 800912a:	687b      	ldr	r3, [r7, #4]
 800912c:	785a      	ldrb	r2, [r3, #1]
 800912e:	f002 027f 	and.w	r2, r2, #127	; 0x7f
 8009132:	705a      	strb	r2, [r3, #1]
 8009134:	687b      	ldr	r3, [r7, #4]
 8009136:	2200      	movs	r2, #0
 8009138:	805a      	strh	r2, [r3, #2]
 800913a:	370c      	adds	r7, #12
 800913c:	46bd      	mov	sp, r7
 800913e:	f85d 7b04 	ldr.w	r7, [sp], #4
 8009142:	4770      	bx	lr

08009144 <stm32_svd__i2c__oar1_registerIP>:
 8009144:	b480      	push	{r7}
 8009146:	b083      	sub	sp, #12
 8009148:	af00      	add	r7, sp, #0
 800914a:	6078      	str	r0, [r7, #4]
 800914c:	687b      	ldr	r3, [r7, #4]
 800914e:	781a      	ldrb	r2, [r3, #0]
 8009150:	f022 0201 	bic.w	r2, r2, #1
 8009154:	701a      	strb	r2, [r3, #0]
 8009156:	687b      	ldr	r3, [r7, #4]
 8009158:	781a      	ldrb	r2, [r3, #0]
 800915a:	f002 0201 	and.w	r2, r2, #1
 800915e:	701a      	strb	r2, [r3, #0]
 8009160:	687b      	ldr	r3, [r7, #4]
 8009162:	785a      	ldrb	r2, [r3, #1]
 8009164:	f022 0203 	bic.w	r2, r2, #3
 8009168:	705a      	strb	r2, [r3, #1]
 800916a:	687b      	ldr	r3, [r7, #4]
 800916c:	785a      	ldrb	r2, [r3, #1]
 800916e:	f022 027c 	bic.w	r2, r2, #124	; 0x7c
 8009172:	705a      	strb	r2, [r3, #1]
 8009174:	687b      	ldr	r3, [r7, #4]
 8009176:	785a      	ldrb	r2, [r3, #1]
 8009178:	f002 027f 	and.w	r2, r2, #127	; 0x7f
 800917c:	705a      	strb	r2, [r3, #1]
 800917e:	687b      	ldr	r3, [r7, #4]
 8009180:	2200      	movs	r2, #0
 8009182:	805a      	strh	r2, [r3, #2]
 8009184:	370c      	adds	r7, #12
 8009186:	46bd      	mov	sp, r7
 8009188:	f85d 7b04 	ldr.w	r7, [sp], #4
 800918c:	4770      	bx	lr
 800918e:	bf00      	nop

08009190 <stm32_svd__i2c__ccr_registerIP>:
 8009190:	b480      	push	{r7}
 8009192:	b083      	sub	sp, #12
 8009194:	af00      	add	r7, sp, #0
 8009196:	6078      	str	r0, [r7, #4]
 8009198:	687a      	ldr	r2, [r7, #4]
 800919a:	8813      	ldrh	r3, [r2, #0]
 800919c:	f423 637f 	bic.w	r3, r3, #4080	; 0xff0
 80091a0:	f023 030f 	bic.w	r3, r3, #15
 80091a4:	8013      	strh	r3, [r2, #0]
 80091a6:	687b      	ldr	r3, [r7, #4]
 80091a8:	785a      	ldrb	r2, [r3, #1]
 80091aa:	f022 0230 	bic.w	r2, r2, #48	; 0x30
 80091ae:	705a      	strb	r2, [r3, #1]
 80091b0:	687b      	ldr	r3, [r7, #4]
 80091b2:	785a      	ldrb	r2, [r3, #1]
 80091b4:	f022 0240 	bic.w	r2, r2, #64	; 0x40
 80091b8:	705a      	strb	r2, [r3, #1]
 80091ba:	687b      	ldr	r3, [r7, #4]
 80091bc:	785a      	ldrb	r2, [r3, #1]
 80091be:	f002 027f 	and.w	r2, r2, #127	; 0x7f
 80091c2:	705a      	strb	r2, [r3, #1]
 80091c4:	687b      	ldr	r3, [r7, #4]
 80091c6:	2200      	movs	r2, #0
 80091c8:	805a      	strh	r2, [r3, #2]
 80091ca:	370c      	adds	r7, #12
 80091cc:	46bd      	mov	sp, r7
 80091ce:	f85d 7b04 	ldr.w	r7, [sp], #4
 80091d2:	4770      	bx	lr

080091d4 <ada__real_time__Oadd>:
 80091d4:	2a00      	cmp	r2, #0
 80091d6:	b5f8      	push	{r3, r4, r5, r6, r7, lr}
 80091d8:	f173 0400 	sbcs.w	r4, r3, #0
 80091dc:	db1f      	blt.n	800921e <ada__real_time__Oadd+0x4a>
 80091de:	43cd      	mvns	r5, r1
 80091e0:	43c4      	mvns	r4, r0
 80091e2:	429d      	cmp	r5, r3
 80091e4:	bf08      	it	eq
 80091e6:	4294      	cmpeq	r4, r2
 80091e8:	d216      	bcs.n	8009218 <ada__real_time__Oadd+0x44>
 80091ea:	f112 34ff 	adds.w	r4, r2, #4294967295
 80091ee:	f163 4500 	sbc.w	r5, r3, #2147483648	; 0x80000000
 80091f2:	f06f 4700 	mvn.w	r7, #2147483648	; 0x80000000
 80091f6:	f06f 0601 	mvn.w	r6, #1
 80091fa:	42af      	cmp	r7, r5
 80091fc:	bf08      	it	eq
 80091fe:	42a6      	cmpeq	r6, r4
 8009200:	d316      	bcc.n	8009230 <ada__real_time__Oadd+0x5c>
 8009202:	4252      	negs	r2, r2
 8009204:	eb63 0343 	sbc.w	r3, r3, r3, lsl #1
 8009208:	4299      	cmp	r1, r3
 800920a:	bf08      	it	eq
 800920c:	4290      	cmpeq	r0, r2
 800920e:	d30f      	bcc.n	8009230 <ada__real_time__Oadd+0x5c>
 8009210:	1a80      	subs	r0, r0, r2
 8009212:	eb61 0103 	sbc.w	r1, r1, r3
 8009216:	bdf8      	pop	{r3, r4, r5, r6, r7, pc}
 8009218:	1880      	adds	r0, r0, r2
 800921a:	4159      	adcs	r1, r3
 800921c:	bdf8      	pop	{r3, r4, r5, r6, r7, pc}
 800921e:	f1b3 4f00 	cmp.w	r3, #2147483648	; 0x80000000
 8009222:	bf08      	it	eq
 8009224:	2a00      	cmpeq	r2, #0
 8009226:	d1e0      	bne.n	80091ea <ada__real_time__Oadd+0x16>
 8009228:	2800      	cmp	r0, #0
 800922a:	f171 0300 	sbcs.w	r3, r1, #0
 800922e:	db03      	blt.n	8009238 <ada__real_time__Oadd+0x64>
 8009230:	4803      	ldr	r0, [pc, #12]	; (8009240 <ada__real_time__Oadd+0x6c>)
 8009232:	21cf      	movs	r1, #207	; 0xcf
 8009234:	f7f7 f88a 	bl	800034c <__gnat_last_chance_handler>
 8009238:	3000      	adds	r0, #0
 800923a:	f141 4100 	adc.w	r1, r1, #2147483648	; 0x80000000
 800923e:	bdf8      	pop	{r3, r4, r5, r6, r7, pc}
 8009240:	0800bf90 	.word	0x0800bf90

08009244 <ada__real_time__Osubtract__2>:
 8009244:	4299      	cmp	r1, r3
 8009246:	bf08      	it	eq
 8009248:	4290      	cmpeq	r0, r2
 800924a:	b508      	push	{r3, lr}
 800924c:	d309      	bcc.n	8009262 <ada__real_time__Osubtract__2+0x1e>
 800924e:	1a82      	subs	r2, r0, r2
 8009250:	eb61 0303 	sbc.w	r3, r1, r3
 8009254:	2a00      	cmp	r2, #0
 8009256:	f173 0100 	sbcs.w	r1, r3, #0
 800925a:	db0e      	blt.n	800927a <ada__real_time__Osubtract__2+0x36>
 800925c:	4610      	mov	r0, r2
 800925e:	4619      	mov	r1, r3
 8009260:	bd08      	pop	{r3, pc}
 8009262:	1a12      	subs	r2, r2, r0
 8009264:	eb63 0301 	sbc.w	r3, r3, r1
 8009268:	f1b3 4f00 	cmp.w	r3, #2147483648	; 0x80000000
 800926c:	bf08      	it	eq
 800926e:	2a01      	cmpeq	r2, #1
 8009270:	d203      	bcs.n	800927a <ada__real_time__Osubtract__2+0x36>
 8009272:	4250      	negs	r0, r2
 8009274:	eb63 0143 	sbc.w	r1, r3, r3, lsl #1
 8009278:	bd08      	pop	{r3, pc}
 800927a:	4802      	ldr	r0, [pc, #8]	; (8009284 <ada__real_time__Osubtract__2+0x40>)
 800927c:	f44f 7186 	mov.w	r1, #268	; 0x10c
 8009280:	f7f7 f864 	bl	800034c <__gnat_last_chance_handler>
 8009284:	0800bf90 	.word	0x0800bf90

08009288 <ada__real_time__clock>:
 8009288:	e92d 43f8 	stmdb	sp!, {r3, r4, r5, r6, r7, r8, r9, lr}
 800928c:	4e13      	ldr	r6, [pc, #76]	; (80092dc <ada__real_time__clock+0x54>)
 800928e:	2400      	movs	r4, #0
 8009290:	f106 0804 	add.w	r8, r6, #4
 8009294:	6835      	ldr	r5, [r6, #0]
 8009296:	f8d8 7000 	ldr.w	r7, [r8]
 800929a:	f000 f9f9 	bl	8009690 <system__bb__board_support__read_clock>
 800929e:	6833      	ldr	r3, [r6, #0]
 80092a0:	ebc9 0205 	rsb	r2, r9, r5
 80092a4:	429d      	cmp	r5, r3
 80092a6:	f104 0401 	add.w	r4, r4, #1
 80092aa:	d00d      	beq.n	80092c8 <ada__real_time__clock+0x40>
 80092ac:	2c01      	cmp	r4, #1
 80092ae:	d009      	beq.n	80092c4 <ada__real_time__clock+0x3c>
 80092b0:	2a01      	cmp	r2, #1
 80092b2:	d801      	bhi.n	80092b8 <ada__real_time__clock+0x30>
 80092b4:	2c03      	cmp	r4, #3
 80092b6:	d1ed      	bne.n	8009294 <ada__real_time__clock+0xc>
 80092b8:	462b      	mov	r3, r5
 80092ba:	2200      	movs	r2, #0
 80092bc:	4610      	mov	r0, r2
 80092be:	4619      	mov	r1, r3
 80092c0:	e8bd 83f8 	ldmia.w	sp!, {r3, r4, r5, r6, r7, r8, r9, pc}
 80092c4:	46a9      	mov	r9, r5
 80092c6:	e7e5      	b.n	8009294 <ada__real_time__clock+0xc>
 80092c8:	4287      	cmp	r7, r0
 80092ca:	bf94      	ite	ls
 80092cc:	462b      	movls	r3, r5
 80092ce:	1c6b      	addhi	r3, r5, #1
 80092d0:	2200      	movs	r2, #0
 80092d2:	1812      	adds	r2, r2, r0
 80092d4:	f143 0300 	adc.w	r3, r3, #0
 80092d8:	e7f0      	b.n	80092bc <ada__real_time__clock+0x34>
 80092da:	bf00      	nop
 80092dc:	20000078 	.word	0x20000078

080092e0 <ada__real_time__microseconds>:
 80092e0:	b508      	push	{r3, lr}
 80092e2:	4b09      	ldr	r3, [pc, #36]	; (8009308 <ada__real_time__microseconds+0x28>)
 80092e4:	fb80 0103 	smull	r0, r1, r0, r3
 80092e8:	2800      	cmp	r0, #0
 80092ea:	f171 0300 	sbcs.w	r3, r1, #0
 80092ee:	bfab      	itete	ge
 80092f0:	4a06      	ldrge	r2, [pc, #24]	; (800930c <ada__real_time__microseconds+0x2c>)
 80092f2:	4a07      	ldrlt	r2, [pc, #28]	; (8009310 <ada__real_time__microseconds+0x30>)
 80092f4:	2300      	movge	r3, #0
 80092f6:	f04f 33ff 	movlt.w	r3, #4294967295
 80092fa:	1880      	adds	r0, r0, r2
 80092fc:	4159      	adcs	r1, r3
 80092fe:	4a05      	ldr	r2, [pc, #20]	; (8009314 <ada__real_time__microseconds+0x34>)
 8009300:	2300      	movs	r3, #0
 8009302:	f001 fb9f 	bl	800aa44 <__aeabi_ldivmod>
 8009306:	bd08      	pop	{r3, pc}
 8009308:	044aa200 	.word	0x044aa200
 800930c:	0007a120 	.word	0x0007a120
 8009310:	fff85ee0 	.word	0xfff85ee0
 8009314:	000f4240 	.word	0x000f4240

08009318 <ada__real_time__milliseconds>:
 8009318:	b508      	push	{r3, lr}
 800931a:	4b0d      	ldr	r3, [pc, #52]	; (8009350 <ada__real_time__milliseconds+0x38>)
 800931c:	fb80 0103 	smull	r0, r1, r0, r3
 8009320:	2800      	cmp	r0, #0
 8009322:	f171 0300 	sbcs.w	r3, r1, #0
 8009326:	db09      	blt.n	800933c <ada__real_time__milliseconds+0x24>
 8009328:	f510 70fa 	adds.w	r0, r0, #500	; 0x1f4
 800932c:	f141 0100 	adc.w	r1, r1, #0
 8009330:	f44f 727a 	mov.w	r2, #1000	; 0x3e8
 8009334:	2300      	movs	r3, #0
 8009336:	f001 fb85 	bl	800aa44 <__aeabi_ldivmod>
 800933a:	bd08      	pop	{r3, pc}
 800933c:	f5b0 70fa 	subs.w	r0, r0, #500	; 0x1f4
 8009340:	f141 31ff 	adc.w	r1, r1, #4294967295
 8009344:	f44f 727a 	mov.w	r2, #1000	; 0x3e8
 8009348:	2300      	movs	r3, #0
 800934a:	f001 fb7b 	bl	800aa44 <__aeabi_ldivmod>
 800934e:	bd08      	pop	{r3, pc}
 8009350:	044aa200 	.word	0x044aa200

08009354 <ada__real_time___elabb>:
 8009354:	f000 ba62 	b.w	800981c <system__tasking__initialize>

08009358 <__gnat_start_slave_cpus>:
 8009358:	4770      	bx	lr
 800935a:	bf00      	nop

0800935c <system__bb__time__get_next_timeout>:
 800935c:	b240      	sxtb	r0, r0
 800935e:	f100 4080 	add.w	r0, r0, #1073741824	; 0x40000000
 8009362:	4b12      	ldr	r3, [pc, #72]	; (80093ac <system__bb__time__get_next_timeout+0x50>)
 8009364:	3801      	subs	r0, #1
 8009366:	f853 3020 	ldr.w	r3, [r3, r0, lsl #2]
 800936a:	b430      	push	{r4, r5}
 800936c:	b18b      	cbz	r3, 8009392 <system__bb__time__get_next_timeout+0x36>
 800936e:	e9d3 4512 	ldrd	r4, r5, [r3, #72]	; 0x48
 8009372:	4b0f      	ldr	r3, [pc, #60]	; (80093b0 <system__bb__time__get_next_timeout+0x54>)
 8009374:	f853 3020 	ldr.w	r3, [r3, r0, lsl #2]
 8009378:	b1a3      	cbz	r3, 80093a4 <system__bb__time__get_next_timeout+0x48>
 800937a:	689a      	ldr	r2, [r3, #8]
 800937c:	68db      	ldr	r3, [r3, #12]
 800937e:	429d      	cmp	r5, r3
 8009380:	bf08      	it	eq
 8009382:	4294      	cmpeq	r4, r2
 8009384:	4610      	mov	r0, r2
 8009386:	4619      	mov	r1, r3
 8009388:	bf3c      	itt	cc
 800938a:	4620      	movcc	r0, r4
 800938c:	4629      	movcc	r1, r5
 800938e:	bc30      	pop	{r4, r5}
 8009390:	4770      	bx	lr
 8009392:	4b07      	ldr	r3, [pc, #28]	; (80093b0 <system__bb__time__get_next_timeout+0x54>)
 8009394:	f04f 34ff 	mov.w	r4, #4294967295
 8009398:	f853 3020 	ldr.w	r3, [r3, r0, lsl #2]
 800939c:	f04f 35ff 	mov.w	r5, #4294967295
 80093a0:	2b00      	cmp	r3, #0
 80093a2:	d1ea      	bne.n	800937a <system__bb__time__get_next_timeout+0x1e>
 80093a4:	f04f 32ff 	mov.w	r2, #4294967295
 80093a8:	4613      	mov	r3, r2
 80093aa:	e7e8      	b.n	800937e <system__bb__time__get_next_timeout+0x22>
 80093ac:	200000b8 	.word	0x200000b8
 80093b0:	200000a4 	.word	0x200000a4

080093b4 <system__bb__time__initialize_timers>:
 80093b4:	e92d 4ff8 	stmdb	sp!, {r3, r4, r5, r6, r7, r8, r9, sl, fp, lr}
 80093b8:	4b1e      	ldr	r3, [pc, #120]	; (8009434 <system__bb__time__initialize_timers+0x80>)
 80093ba:	4c1f      	ldr	r4, [pc, #124]	; (8009438 <system__bb__time__initialize_timers+0x84>)
 80093bc:	f8df a08c 	ldr.w	sl, [pc, #140]	; 800944c <system__bb__time__initialize_timers+0x98>
 80093c0:	4f1e      	ldr	r7, [pc, #120]	; (800943c <system__bb__time__initialize_timers+0x88>)
 80093c2:	481f      	ldr	r0, [pc, #124]	; (8009440 <system__bb__time__initialize_timers+0x8c>)
 80093c4:	2101      	movs	r1, #1
 80093c6:	22ff      	movs	r2, #255	; 0xff
 80093c8:	f04f 0b00 	mov.w	fp, #0
 80093cc:	605c      	str	r4, [r3, #4]
 80093ce:	e9c7 ab00 	strd	sl, fp, [r7]
 80093d2:	f000 f9e7 	bl	80097a4 <system__bb__board_support__install_interrupt_handler>
 80093d6:	f000 f95b 	bl	8009690 <system__bb__board_support__read_clock>
 80093da:	4d1a      	ldr	r5, [pc, #104]	; (8009444 <system__bb__time__initialize_timers+0x90>)
 80093dc:	2400      	movs	r4, #0
 80093de:	6068      	str	r0, [r5, #4]
 80093e0:	682e      	ldr	r6, [r5, #0]
 80093e2:	f8d5 8004 	ldr.w	r8, [r5, #4]
 80093e6:	f000 f953 	bl	8009690 <system__bb__board_support__read_clock>
 80093ea:	682b      	ldr	r3, [r5, #0]
 80093ec:	ebc9 0206 	rsb	r2, r9, r6
 80093f0:	429e      	cmp	r6, r3
 80093f2:	f104 0401 	add.w	r4, r4, #1
 80093f6:	d014      	beq.n	8009422 <system__bb__time__initialize_timers+0x6e>
 80093f8:	2c01      	cmp	r4, #1
 80093fa:	d010      	beq.n	800941e <system__bb__time__initialize_timers+0x6a>
 80093fc:	2a01      	cmp	r2, #1
 80093fe:	d801      	bhi.n	8009404 <system__bb__time__initialize_timers+0x50>
 8009400:	2c03      	cmp	r4, #3
 8009402:	d1ed      	bne.n	80093e0 <system__bb__time__initialize_timers+0x2c>
 8009404:	4633      	mov	r3, r6
 8009406:	2200      	movs	r2, #0
 8009408:	e9d7 0100 	ldrd	r0, r1, [r7]
 800940c:	1812      	adds	r2, r2, r0
 800940e:	414b      	adcs	r3, r1
 8009410:	490d      	ldr	r1, [pc, #52]	; (8009448 <system__bb__time__initialize_timers+0x94>)
 8009412:	e9c1 2300 	strd	r2, r3, [r1]
 8009416:	e8bd 4ff8 	ldmia.w	sp!, {r3, r4, r5, r6, r7, r8, r9, sl, fp, lr}
 800941a:	f000 b959 	b.w	80096d0 <system__bb__board_support__set_alarm>
 800941e:	46b1      	mov	r9, r6
 8009420:	e7de      	b.n	80093e0 <system__bb__time__initialize_timers+0x2c>
 8009422:	4580      	cmp	r8, r0
 8009424:	bf94      	ite	ls
 8009426:	4633      	movls	r3, r6
 8009428:	1c73      	addhi	r3, r6, #1
 800942a:	2200      	movs	r2, #0
 800942c:	1812      	adds	r2, r2, r0
 800942e:	f143 0300 	adc.w	r3, r3, #0
 8009432:	e7e9      	b.n	8009408 <system__bb__time__initialize_timers+0x54>
 8009434:	20001468 	.word	0x20001468
 8009438:	080095fd 	.word	0x080095fd
 800943c:	20000080 	.word	0x20000080
 8009440:	08009c65 	.word	0x08009c65
 8009444:	20000078 	.word	0x20000078
 8009448:	20000070 	.word	0x20000070
 800944c:	dffffff9 	.word	0xdffffff9

08009450 <system__bb__time__update_alarm>:
 8009450:	e92d 47f0 	stmdb	sp!, {r4, r5, r6, r7, r8, r9, sl, lr}
 8009454:	4680      	mov	r8, r0
 8009456:	4689      	mov	r9, r1
 8009458:	4e1f      	ldr	r6, [pc, #124]	; (80094d8 <system__bb__time__update_alarm+0x88>)
 800945a:	2400      	movs	r4, #0
 800945c:	6835      	ldr	r5, [r6, #0]
 800945e:	6877      	ldr	r7, [r6, #4]
 8009460:	f000 f916 	bl	8009690 <system__bb__board_support__read_clock>
 8009464:	6833      	ldr	r3, [r6, #0]
 8009466:	ebca 0205 	rsb	r2, sl, r5
 800946a:	429d      	cmp	r5, r3
 800946c:	f104 0401 	add.w	r4, r4, #1
 8009470:	d029      	beq.n	80094c6 <system__bb__time__update_alarm+0x76>
 8009472:	2c01      	cmp	r4, #1
 8009474:	d022      	beq.n	80094bc <system__bb__time__update_alarm+0x6c>
 8009476:	2a01      	cmp	r2, #1
 8009478:	d801      	bhi.n	800947e <system__bb__time__update_alarm+0x2e>
 800947a:	2c03      	cmp	r4, #3
 800947c:	d1ee      	bne.n	800945c <system__bb__time__update_alarm+0xc>
 800947e:	462b      	mov	r3, r5
 8009480:	2200      	movs	r2, #0
 8009482:	454b      	cmp	r3, r9
 8009484:	bf08      	it	eq
 8009486:	4542      	cmpeq	r2, r8
 8009488:	d21a      	bcs.n	80094c0 <system__bb__time__update_alarm+0x70>
 800948a:	ebb8 0002 	subs.w	r0, r8, r2
 800948e:	eb69 0103 	sbc.w	r1, r9, r3
 8009492:	4b12      	ldr	r3, [pc, #72]	; (80094dc <system__bb__time__update_alarm+0x8c>)
 8009494:	4e12      	ldr	r6, [pc, #72]	; (80094e0 <system__bb__time__update_alarm+0x90>)
 8009496:	e9d3 4500 	ldrd	r4, r5, [r3]
 800949a:	e9d6 2300 	ldrd	r2, r3, [r6]
 800949e:	4599      	cmp	r9, r3
 80094a0:	bf08      	it	eq
 80094a2:	4590      	cmpeq	r8, r2
 80094a4:	d208      	bcs.n	80094b8 <system__bb__time__update_alarm+0x68>
 80094a6:	428d      	cmp	r5, r1
 80094a8:	bf08      	it	eq
 80094aa:	4284      	cmpeq	r4, r0
 80094ac:	bf38      	it	cc
 80094ae:	4620      	movcc	r0, r4
 80094b0:	f000 f90e 	bl	80096d0 <system__bb__board_support__set_alarm>
 80094b4:	e9c6 8900 	strd	r8, r9, [r6]
 80094b8:	e8bd 87f0 	ldmia.w	sp!, {r4, r5, r6, r7, r8, r9, sl, pc}
 80094bc:	46aa      	mov	sl, r5
 80094be:	e7cd      	b.n	800945c <system__bb__time__update_alarm+0xc>
 80094c0:	2001      	movs	r0, #1
 80094c2:	2100      	movs	r1, #0
 80094c4:	e7e5      	b.n	8009492 <system__bb__time__update_alarm+0x42>
 80094c6:	4287      	cmp	r7, r0
 80094c8:	bf94      	ite	ls
 80094ca:	462b      	movls	r3, r5
 80094cc:	1c6b      	addhi	r3, r5, #1
 80094ce:	2200      	movs	r2, #0
 80094d0:	1812      	adds	r2, r2, r0
 80094d2:	f143 0300 	adc.w	r3, r3, #0
 80094d6:	e7d4      	b.n	8009482 <system__bb__time__update_alarm+0x32>
 80094d8:	20000078 	.word	0x20000078
 80094dc:	20000080 	.word	0x20000080
 80094e0:	20000070 	.word	0x20000070

080094e4 <system__bb__time__delay_until>:
 80094e4:	e92d 47f0 	stmdb	sp!, {r4, r5, r6, r7, r8, r9, sl, lr}
 80094e8:	4680      	mov	r8, r0
 80094ea:	4689      	mov	r9, r1
 80094ec:	b672      	cpsid	i
 80094ee:	4e32      	ldr	r6, [pc, #200]	; (80095b8 <system__bb__time__delay_until+0xd4>)
 80094f0:	2400      	movs	r4, #0
 80094f2:	6835      	ldr	r5, [r6, #0]
 80094f4:	f8d6 a004 	ldr.w	sl, [r6, #4]
 80094f8:	f000 f8ca 	bl	8009690 <system__bb__board_support__read_clock>
 80094fc:	6833      	ldr	r3, [r6, #0]
 80094fe:	1bea      	subs	r2, r5, r7
 8009500:	429d      	cmp	r5, r3
 8009502:	f104 0401 	add.w	r4, r4, #1
 8009506:	d045      	beq.n	8009594 <system__bb__time__delay_until+0xb0>
 8009508:	2c01      	cmp	r4, #1
 800950a:	d038      	beq.n	800957e <system__bb__time__delay_until+0x9a>
 800950c:	2a01      	cmp	r2, #1
 800950e:	d801      	bhi.n	8009514 <system__bb__time__delay_until+0x30>
 8009510:	2c03      	cmp	r4, #3
 8009512:	d1ee      	bne.n	80094f2 <system__bb__time__delay_until+0xe>
 8009514:	462f      	mov	r7, r5
 8009516:	2600      	movs	r6, #0
 8009518:	4b28      	ldr	r3, [pc, #160]	; (80095bc <system__bb__time__delay_until+0xd8>)
 800951a:	454f      	cmp	r7, r9
 800951c:	bf08      	it	eq
 800951e:	4546      	cmpeq	r6, r8
 8009520:	681a      	ldr	r2, [r3, #0]
 8009522:	d230      	bcs.n	8009586 <system__bb__time__delay_until+0xa2>
 8009524:	f892 302c 	ldrb.w	r3, [r2, #44]	; 0x2c
 8009528:	2102      	movs	r1, #2
 800952a:	f882 1054 	strb.w	r1, [r2, #84]	; 0x54
 800952e:	b343      	cbz	r3, 8009582 <system__bb__time__delay_until+0x9e>
 8009530:	b25b      	sxtb	r3, r3
 8009532:	6c15      	ldr	r5, [r2, #64]	; 0x40
 8009534:	f103 4380 	add.w	r3, r3, #1073741824	; 0x40000000
 8009538:	4c21      	ldr	r4, [pc, #132]	; (80095c0 <system__bb__time__delay_until+0xdc>)
 800953a:	2600      	movs	r6, #0
 800953c:	3b01      	subs	r3, #1
 800953e:	4640      	mov	r0, r8
 8009540:	4649      	mov	r1, r9
 8009542:	6416      	str	r6, [r2, #64]	; 0x40
 8009544:	f844 5023 	str.w	r5, [r4, r3, lsl #2]
 8009548:	f000 fd52 	bl	8009ff0 <system__bb__threads__queues__insert_alarm>
 800954c:	b198      	cbz	r0, 8009576 <system__bb__time__delay_until+0x92>
 800954e:	4b1d      	ldr	r3, [pc, #116]	; (80095c4 <system__bb__time__delay_until+0xe0>)
 8009550:	681b      	ldr	r3, [r3, #0]
 8009552:	b343      	cbz	r3, 80095a6 <system__bb__time__delay_until+0xc2>
 8009554:	e9d3 4512 	ldrd	r4, r5, [r3, #72]	; 0x48
 8009558:	4b1b      	ldr	r3, [pc, #108]	; (80095c8 <system__bb__time__delay_until+0xe4>)
 800955a:	681b      	ldr	r3, [r3, #0]
 800955c:	b343      	cbz	r3, 80095b0 <system__bb__time__delay_until+0xcc>
 800955e:	689a      	ldr	r2, [r3, #8]
 8009560:	68db      	ldr	r3, [r3, #12]
 8009562:	429d      	cmp	r5, r3
 8009564:	bf08      	it	eq
 8009566:	4294      	cmpeq	r4, r2
 8009568:	4610      	mov	r0, r2
 800956a:	4619      	mov	r1, r3
 800956c:	bf3c      	itt	cc
 800956e:	4620      	movcc	r0, r4
 8009570:	4629      	movcc	r1, r5
 8009572:	f7ff ff6d 	bl	8009450 <system__bb__time__update_alarm>
 8009576:	e8bd 47f0 	ldmia.w	sp!, {r4, r5, r6, r7, r8, r9, sl, lr}
 800957a:	f000 bb09 	b.w	8009b90 <system__bb__protection__leave_kernel>
 800957e:	462f      	mov	r7, r5
 8009580:	e7b7      	b.n	80094f2 <system__bb__time__delay_until+0xe>
 8009582:	2301      	movs	r3, #1
 8009584:	e7d5      	b.n	8009532 <system__bb__time__delay_until+0x4e>
 8009586:	4610      	mov	r0, r2
 8009588:	f000 fdd8 	bl	800a13c <system__bb__threads__queues__yield>
 800958c:	e8bd 47f0 	ldmia.w	sp!, {r4, r5, r6, r7, r8, r9, sl, lr}
 8009590:	f000 bafe 	b.w	8009b90 <system__bb__protection__leave_kernel>
 8009594:	4582      	cmp	sl, r0
 8009596:	bf94      	ite	ls
 8009598:	462f      	movls	r7, r5
 800959a:	1c6f      	addhi	r7, r5, #1
 800959c:	2600      	movs	r6, #0
 800959e:	1836      	adds	r6, r6, r0
 80095a0:	f147 0700 	adc.w	r7, r7, #0
 80095a4:	e7b8      	b.n	8009518 <system__bb__time__delay_until+0x34>
 80095a6:	f04f 34ff 	mov.w	r4, #4294967295
 80095aa:	f04f 35ff 	mov.w	r5, #4294967295
 80095ae:	e7d3      	b.n	8009558 <system__bb__time__delay_until+0x74>
 80095b0:	f04f 32ff 	mov.w	r2, #4294967295
 80095b4:	4613      	mov	r3, r2
 80095b6:	e7d4      	b.n	8009562 <system__bb__time__delay_until+0x7e>
 80095b8:	20000078 	.word	0x20000078
 80095bc:	200000bc 	.word	0x200000bc
 80095c0:	200000b0 	.word	0x200000b0
 80095c4:	200000b8 	.word	0x200000b8
 80095c8:	200000a4 	.word	0x200000a4

080095cc <system__bb__time__update_clock>:
 80095cc:	b570      	push	{r4, r5, r6, lr}
 80095ce:	4c0a      	ldr	r4, [pc, #40]	; (80095f8 <system__bb__time__update_clock+0x2c>)
 80095d0:	6825      	ldr	r5, [r4, #0]
 80095d2:	6866      	ldr	r6, [r4, #4]
 80095d4:	f000 f85c 	bl	8009690 <system__bb__board_support__read_clock>
 80095d8:	4286      	cmp	r6, r0
 80095da:	d807      	bhi.n	80095ec <system__bb__time__update_clock+0x20>
 80095dc:	6060      	str	r0, [r4, #4]
 80095de:	2200      	movs	r2, #0
 80095e0:	1814      	adds	r4, r2, r0
 80095e2:	f145 0500 	adc.w	r5, r5, #0
 80095e6:	4620      	mov	r0, r4
 80095e8:	4629      	mov	r1, r5
 80095ea:	bd70      	pop	{r4, r5, r6, pc}
 80095ec:	3501      	adds	r5, #1
 80095ee:	2300      	movs	r3, #0
 80095f0:	6023      	str	r3, [r4, #0]
 80095f2:	6060      	str	r0, [r4, #4]
 80095f4:	6025      	str	r5, [r4, #0]
 80095f6:	e7f2      	b.n	80095de <system__bb__time__update_clock+0x12>
 80095f8:	20000078 	.word	0x20000078

080095fc <system__bb__time__alarm_handler>:
 80095fc:	e92d 43f8 	stmdb	sp!, {r3, r4, r5, r6, r7, r8, r9, lr}
 8009600:	4b1e      	ldr	r3, [pc, #120]	; (800967c <system__bb__time__alarm_handler+0x80>)
 8009602:	f04f 7200 	mov.w	r2, #33554432	; 0x2000000
 8009606:	601a      	str	r2, [r3, #0]
 8009608:	b672      	cpsid	i
 800960a:	4b1d      	ldr	r3, [pc, #116]	; (8009680 <system__bb__time__alarm_handler+0x84>)
 800960c:	f04f 37ff 	mov.w	r7, #4294967295
 8009610:	601f      	str	r7, [r3, #0]
 8009612:	605f      	str	r7, [r3, #4]
 8009614:	f7ff ffda 	bl	80095cc <system__bb__time__update_clock>
 8009618:	4680      	mov	r8, r0
 800961a:	4689      	mov	r9, r1
 800961c:	4b19      	ldr	r3, [pc, #100]	; (8009684 <system__bb__time__alarm_handler+0x88>)
 800961e:	463e      	mov	r6, r7
 8009620:	e9d3 4500 	ldrd	r4, r5, [r3]
 8009624:	1824      	adds	r4, r4, r0
 8009626:	414d      	adcs	r5, r1
 8009628:	f000 fadc 	bl	8009be4 <system__bb__timing_events__execute_expired_timing_events>
 800962c:	4640      	mov	r0, r8
 800962e:	4649      	mov	r1, r9
 8009630:	f000 fd0e 	bl	800a050 <system__bb__threads__queues__wakeup_expired_alarms>
 8009634:	4b14      	ldr	r3, [pc, #80]	; (8009688 <system__bb__time__alarm_handler+0x8c>)
 8009636:	681b      	ldr	r3, [r3, #0]
 8009638:	b10b      	cbz	r3, 800963e <system__bb__time__alarm_handler+0x42>
 800963a:	6c9f      	ldr	r7, [r3, #72]	; 0x48
 800963c:	6cde      	ldr	r6, [r3, #76]	; 0x4c
 800963e:	4b13      	ldr	r3, [pc, #76]	; (800968c <system__bb__time__alarm_handler+0x90>)
 8009640:	681b      	ldr	r3, [r3, #0]
 8009642:	b1b3      	cbz	r3, 8009672 <system__bb__time__alarm_handler+0x76>
 8009644:	e9d3 2302 	ldrd	r2, r3, [r3, #8]
 8009648:	42b5      	cmp	r5, r6
 800964a:	bf08      	it	eq
 800964c:	42bc      	cmpeq	r4, r7
 800964e:	4631      	mov	r1, r6
 8009650:	bf38      	it	cc
 8009652:	4629      	movcc	r1, r5
 8009654:	4638      	mov	r0, r7
 8009656:	bf38      	it	cc
 8009658:	4620      	movcc	r0, r4
 800965a:	428b      	cmp	r3, r1
 800965c:	bf08      	it	eq
 800965e:	4282      	cmpeq	r2, r0
 8009660:	bf3c      	itt	cc
 8009662:	4619      	movcc	r1, r3
 8009664:	4610      	movcc	r0, r2
 8009666:	f7ff fef3 	bl	8009450 <system__bb__time__update_alarm>
 800966a:	e8bd 43f8 	ldmia.w	sp!, {r3, r4, r5, r6, r7, r8, r9, lr}
 800966e:	f000 ba8f 	b.w	8009b90 <system__bb__protection__leave_kernel>
 8009672:	f04f 32ff 	mov.w	r2, #4294967295
 8009676:	f04f 33ff 	mov.w	r3, #4294967295
 800967a:	e7e5      	b.n	8009648 <system__bb__time__alarm_handler+0x4c>
 800967c:	e000ed04 	.word	0xe000ed04
 8009680:	20000070 	.word	0x20000070
 8009684:	20000080 	.word	0x20000080
 8009688:	200000b8 	.word	0x200000b8
 800968c:	200000a4 	.word	0x200000a4

08009690 <system__bb__board_support__read_clock>:
 8009690:	f3ef 8210 	mrs	r2, PRIMASK
 8009694:	2301      	movs	r3, #1
 8009696:	f383 8810 	msr	PRIMASK, r3
 800969a:	4b0b      	ldr	r3, [pc, #44]	; (80096c8 <system__bb__board_support__read_clock+0x38>)
 800969c:	6898      	ldr	r0, [r3, #8]
 800969e:	681b      	ldr	r3, [r3, #0]
 80096a0:	03db      	lsls	r3, r3, #15
 80096a2:	d405      	bmi.n	80096b0 <system__bb__board_support__read_clock+0x20>
 80096a4:	4b09      	ldr	r3, [pc, #36]	; (80096cc <system__bb__board_support__read_clock+0x3c>)
 80096a6:	681b      	ldr	r3, [r3, #0]
 80096a8:	1a18      	subs	r0, r3, r0
 80096aa:	f382 8810 	msr	PRIMASK, r2
 80096ae:	4770      	bx	lr
 80096b0:	4906      	ldr	r1, [pc, #24]	; (80096cc <system__bb__board_support__read_clock+0x3c>)
 80096b2:	6808      	ldr	r0, [r1, #0]
 80096b4:	680b      	ldr	r3, [r1, #0]
 80096b6:	f503 338c 	add.w	r3, r3, #71680	; 0x11800
 80096ba:	f503 73a0 	add.w	r3, r3, #320	; 0x140
 80096be:	600b      	str	r3, [r1, #0]
 80096c0:	f382 8810 	msr	PRIMASK, r2
 80096c4:	4770      	bx	lr
 80096c6:	bf00      	nop
 80096c8:	e000e010 	.word	0xe000e010
 80096cc:	200006ac 	.word	0x200006ac

080096d0 <system__bb__board_support__set_alarm>:
 80096d0:	b510      	push	{r4, lr}
 80096d2:	4604      	mov	r4, r0
 80096d4:	f7ff ffdc 	bl	8009690 <system__bb__board_support__read_clock>
 80096d8:	f06f 4300 	mvn.w	r3, #2147483648	; 0x80000000
 80096dc:	429c      	cmp	r4, r3
 80096de:	bf94      	ite	ls
 80096e0:	1900      	addls	r0, r0, r4
 80096e2:	18c0      	addhi	r0, r0, r3
 80096e4:	4a03      	ldr	r2, [pc, #12]	; (80096f4 <system__bb__board_support__set_alarm+0x24>)
 80096e6:	6010      	str	r0, [r2, #0]
 80096e8:	b91c      	cbnz	r4, 80096f2 <system__bb__board_support__set_alarm+0x22>
 80096ea:	4b03      	ldr	r3, [pc, #12]	; (80096f8 <system__bb__board_support__set_alarm+0x28>)
 80096ec:	f04f 6280 	mov.w	r2, #67108864	; 0x4000000
 80096f0:	601a      	str	r2, [r3, #0]
 80096f2:	bd10      	pop	{r4, pc}
 80096f4:	200006a8 	.word	0x200006a8
 80096f8:	e000ed04 	.word	0xe000ed04

080096fc <system__bb__board_support__initialize_board>:
 80096fc:	b570      	push	{r4, r5, r6, lr}
 80096fe:	b672      	cpsid	i
 8009700:	4b0d      	ldr	r3, [pc, #52]	; (8009738 <system__bb__board_support__initialize_board+0x3c>)
 8009702:	4e0e      	ldr	r6, [pc, #56]	; (800973c <system__bb__board_support__initialize_board+0x40>)
 8009704:	4a0e      	ldr	r2, [pc, #56]	; (8009740 <system__bb__board_support__initialize_board+0x44>)
 8009706:	490f      	ldr	r1, [pc, #60]	; (8009744 <system__bb__board_support__initialize_board+0x48>)
 8009708:	2004      	movs	r0, #4
 800970a:	2400      	movs	r4, #0
 800970c:	2505      	movs	r5, #5
 800970e:	6018      	str	r0, [r3, #0]
 8009710:	605e      	str	r6, [r3, #4]
 8009712:	f04f 30ff 	mov.w	r0, #4294967295
 8009716:	609c      	str	r4, [r3, #8]
 8009718:	601d      	str	r5, [r3, #0]
 800971a:	6011      	str	r1, [r2, #0]
 800971c:	f7ff ffd8 	bl	80096d0 <system__bb__board_support__set_alarm>
 8009720:	4b09      	ldr	r3, [pc, #36]	; (8009748 <system__bb__board_support__initialize_board+0x4c>)
 8009722:	f04f 7200 	mov.w	r2, #33554432	; 0x2000000
 8009726:	601a      	str	r2, [r3, #0]
 8009728:	f384 8811 	msr	BASEPRI, r4
 800972c:	b662      	cpsie	i
 800972e:	f3bf 8f4f 	dsb	sy
 8009732:	f3bf 8f6f 	isb	sy
 8009736:	bd70      	pop	{r4, r5, r6, pc}
 8009738:	e000e010 	.word	0xe000e010
 800973c:	0001193f 	.word	0x0001193f
 8009740:	200006ac 	.word	0x200006ac
 8009744:	00011940 	.word	0x00011940
 8009748:	e000ed04 	.word	0xe000ed04

0800974c <system__bb__board_support__enable_interrupt_request>:
 800974c:	2801      	cmp	r0, #1
 800974e:	d012      	beq.n	8009776 <system__bb__board_support__enable_interrupt_request+0x2a>
 8009750:	4602      	mov	r2, r0
 8009752:	4b10      	ldr	r3, [pc, #64]	; (8009794 <system__bb__board_support__enable_interrupt_request+0x48>)
 8009754:	2800      	cmp	r0, #0
 8009756:	ea03 0300 	and.w	r3, r3, r0
 800975a:	bfb8      	it	lt
 800975c:	f100 021f 	addlt.w	r2, r0, #31
 8009760:	2b00      	cmp	r3, #0
 8009762:	ea4f 1262 	mov.w	r2, r2, asr #5
 8009766:	db10      	blt.n	800978a <system__bb__board_support__enable_interrupt_request+0x3e>
 8009768:	2101      	movs	r1, #1
 800976a:	480b      	ldr	r0, [pc, #44]	; (8009798 <system__bb__board_support__enable_interrupt_request+0x4c>)
 800976c:	fa01 f303 	lsl.w	r3, r1, r3
 8009770:	f840 3022 	str.w	r3, [r0, r2, lsl #2]
 8009774:	4770      	bx	lr
 8009776:	4b09      	ldr	r3, [pc, #36]	; (800979c <system__bb__board_support__enable_interrupt_request+0x50>)
 8009778:	4a09      	ldr	r2, [pc, #36]	; (80097a0 <system__bb__board_support__enable_interrupt_request+0x54>)
 800977a:	f04f 7100 	mov.w	r1, #33554432	; 0x2000000
 800977e:	6019      	str	r1, [r3, #0]
 8009780:	6813      	ldr	r3, [r2, #0]
 8009782:	f043 0302 	orr.w	r3, r3, #2
 8009786:	6013      	str	r3, [r2, #0]
 8009788:	4770      	bx	lr
 800978a:	3b01      	subs	r3, #1
 800978c:	f063 031f 	orn	r3, r3, #31
 8009790:	3301      	adds	r3, #1
 8009792:	e7e9      	b.n	8009768 <system__bb__board_support__enable_interrupt_request+0x1c>
 8009794:	8000001f 	.word	0x8000001f
 8009798:	e000e100 	.word	0xe000e100
 800979c:	e000ed04 	.word	0xe000ed04
 80097a0:	e000e010 	.word	0xe000e010

080097a4 <system__bb__board_support__install_interrupt_handler>:
 80097a4:	2901      	cmp	r1, #1
 80097a6:	b538      	push	{r3, r4, r5, lr}
 80097a8:	460c      	mov	r4, r1
 80097aa:	4615      	mov	r5, r2
 80097ac:	d015      	beq.n	80097da <system__bb__board_support__install_interrupt_handler+0x36>
 80097ae:	f1a5 03f1 	sub.w	r3, r5, #241	; 0xf1
 80097b2:	2b0e      	cmp	r3, #14
 80097b4:	bf9c      	itt	ls
 80097b6:	ebc5 1305 	rsbls	r3, r5, r5, lsl #4
 80097ba:	011b      	lslls	r3, r3, #4
 80097bc:	4909      	ldr	r1, [pc, #36]	; (80097e4 <system__bb__board_support__install_interrupt_handler+0x40>)
 80097be:	bf94      	ite	ls
 80097c0:	b2db      	uxtbls	r3, r3
 80097c2:	2300      	movhi	r3, #0
 80097c4:	550b      	strb	r3, [r1, r4]
 80097c6:	2200      	movs	r2, #0
 80097c8:	2110      	movs	r1, #16
 80097ca:	f000 f965 	bl	8009a98 <system__bb__cpu_primitives__install_trap_handler>
 80097ce:	4620      	mov	r0, r4
 80097d0:	4629      	mov	r1, r5
 80097d2:	e8bd 4038 	ldmia.w	sp!, {r3, r4, r5, lr}
 80097d6:	f7ff bfb9 	b.w	800974c <system__bb__board_support__enable_interrupt_request>
 80097da:	210f      	movs	r1, #15
 80097dc:	2200      	movs	r2, #0
 80097de:	f000 f95b 	bl	8009a98 <system__bb__cpu_primitives__install_trap_handler>
 80097e2:	e7f4      	b.n	80097ce <system__bb__board_support__install_interrupt_handler+0x2a>
 80097e4:	e000e400 	.word	0xe000e400

080097e8 <system__tasking__initialize_atcb>:
 80097e8:	b5f8      	push	{r3, r4, r5, r6, r7, lr}
 80097ea:	9c09      	ldr	r4, [sp, #36]	; 0x24
 80097ec:	f89d 7018 	ldrb.w	r7, [sp, #24]
 80097f0:	9e07      	ldr	r6, [sp, #28]
 80097f2:	2500      	movs	r5, #0
 80097f4:	7225      	strb	r5, [r4, #8]
 80097f6:	60e2      	str	r2, [r4, #12]
 80097f8:	7263      	strb	r3, [r4, #9]
 80097fa:	6125      	str	r5, [r4, #16]
 80097fc:	f8c4 008c 	str.w	r0, [r4, #140]	; 0x8c
 8009800:	f8c4 1088 	str.w	r1, [r4, #136]	; 0x88
 8009804:	f884 70a0 	strb.w	r7, [r4, #160]	; 0xa0
 8009808:	f8c4 6090 	str.w	r6, [r4, #144]	; 0x90
 800980c:	9808      	ldr	r0, [sp, #32]
 800980e:	f000 fec7 	bl	800a5a0 <system__parameters__adjust_storage_size>
 8009812:	f8c4 0094 	str.w	r0, [r4, #148]	; 0x94
 8009816:	2001      	movs	r0, #1
 8009818:	bdf8      	pop	{r3, r4, r5, r6, r7, pc}
 800981a:	bf00      	nop

0800981c <system__tasking__initialize>:
 800981c:	4b3b      	ldr	r3, [pc, #236]	; (800990c <system__tasking__initialize+0xf0>)
 800981e:	781a      	ldrb	r2, [r3, #0]
 8009820:	2a00      	cmp	r2, #0
 8009822:	d16c      	bne.n	80098fe <system__tasking__initialize+0xe2>
 8009824:	b5f0      	push	{r4, r5, r6, r7, lr}
 8009826:	4a3a      	ldr	r2, [pc, #232]	; (8009910 <system__tasking__initialize+0xf4>)
 8009828:	4c3a      	ldr	r4, [pc, #232]	; (8009914 <system__tasking__initialize+0xf8>)
 800982a:	6811      	ldr	r1, [r2, #0]
 800982c:	2001      	movs	r0, #1
 800982e:	7018      	strb	r0, [r3, #0]
 8009830:	2500      	movs	r5, #0
 8009832:	b085      	sub	sp, #20
 8009834:	3101      	adds	r1, #1
 8009836:	f04f 0302 	mov.w	r3, #2
 800983a:	bf14      	ite	ne
 800983c:	6812      	ldrne	r2, [r2, #0]
 800983e:	2278      	moveq	r2, #120	; 0x78
 8009840:	e88d 0028 	stmia.w	sp, {r3, r5}
 8009844:	4629      	mov	r1, r5
 8009846:	2301      	movs	r3, #1
 8009848:	9403      	str	r4, [sp, #12]
 800984a:	9502      	str	r5, [sp, #8]
 800984c:	4628      	mov	r0, r5
 800984e:	f7ff ffcb 	bl	80097e8 <system__tasking__initialize_atcb>
 8009852:	f104 0318 	add.w	r3, r4, #24
 8009856:	f8c4 3080 	str.w	r3, [r4, #128]	; 0x80
 800985a:	68e1      	ldr	r1, [r4, #12]
 800985c:	f8d4 0080 	ldr.w	r0, [r4, #128]	; 0x80
 8009860:	f8c4 509c 	str.w	r5, [r4, #156]	; 0x9c
 8009864:	f000 fb10 	bl	8009e88 <system__bb__threads__initialize>
 8009868:	4b2b      	ldr	r3, [pc, #172]	; (8009918 <system__tasking__initialize+0xfc>)
 800986a:	f8d4 1080 	ldr.w	r1, [r4, #128]	; 0x80
 800986e:	681a      	ldr	r2, [r3, #0]
 8009870:	628c      	str	r4, [r1, #40]	; 0x28
 8009872:	f8c4 5084 	str.w	r5, [r4, #132]	; 0x84
 8009876:	2a00      	cmp	r2, #0
 8009878:	d042      	beq.n	8009900 <system__tasking__initialize+0xe4>
 800987a:	f8c2 409c 	str.w	r4, [r2, #156]	; 0x9c
 800987e:	601c      	str	r4, [r3, #0]
 8009880:	b672      	cpsid	i
 8009882:	4e26      	ldr	r6, [pc, #152]	; (800991c <system__tasking__initialize+0x100>)
 8009884:	4b26      	ldr	r3, [pc, #152]	; (8009920 <system__tasking__initialize+0x104>)
 8009886:	4635      	mov	r5, r6
 8009888:	6818      	ldr	r0, [r3, #0]
 800988a:	68e1      	ldr	r1, [r4, #12]
 800988c:	f000 fb7a 	bl	8009f84 <system__bb__threads__queues__change_priority>
 8009890:	f000 f97e 	bl	8009b90 <system__bb__protection__leave_kernel>
 8009894:	4923      	ldr	r1, [pc, #140]	; (8009924 <system__tasking__initialize+0x108>)
 8009896:	4a24      	ldr	r2, [pc, #144]	; (8009928 <system__tasking__initialize+0x10c>)
 8009898:	4b24      	ldr	r3, [pc, #144]	; (800992c <system__tasking__initialize+0x110>)
 800989a:	2001      	movs	r0, #1
 800989c:	601a      	str	r2, [r3, #0]
 800989e:	600c      	str	r4, [r1, #0]
 80098a0:	f000 f942 	bl	8009b28 <system__task_primitives__operations__initialize_idle>
 80098a4:	f1a6 0368 	sub.w	r3, r6, #104	; 0x68
 80098a8:	6033      	str	r3, [r6, #0]
 80098aa:	f855 0980 	ldr.w	r0, [r5], #-128
 80098ae:	2701      	movs	r7, #1
 80098b0:	f8d5 2090 	ldr.w	r2, [r5, #144]	; 0x90
 80098b4:	f8d5 3094 	ldr.w	r3, [r5, #148]	; 0x94
 80098b8:	491d      	ldr	r1, [pc, #116]	; (8009930 <system__tasking__initialize+0x114>)
 80098ba:	9201      	str	r2, [sp, #4]
 80098bc:	9302      	str	r3, [sp, #8]
 80098be:	462a      	mov	r2, r5
 80098c0:	f04f 33ff 	mov.w	r3, #4294967295
 80098c4:	9700      	str	r7, [sp, #0]
 80098c6:	f000 fb49 	bl	8009f5c <system__bb__threads__thread_create>
 80098ca:	6832      	ldr	r2, [r6, #0]
 80098cc:	4b19      	ldr	r3, [pc, #100]	; (8009934 <system__tasking__initialize+0x118>)
 80098ce:	6295      	str	r5, [r2, #40]	; 0x28
 80098d0:	4618      	mov	r0, r3
 80098d2:	7227      	strb	r7, [r4, #8]
 80098d4:	f44f 6180 	mov.w	r1, #1024	; 0x400
 80098d8:	f8c4 3098 	str.w	r3, [r4, #152]	; 0x98
 80098dc:	f8c4 40a8 	str.w	r4, [r4, #168]	; 0xa8
 80098e0:	f000 fe64 	bl	800a5ac <system__secondary_stack__ss_init>
 80098e4:	4a14      	ldr	r2, [pc, #80]	; (8009938 <system__tasking__initialize+0x11c>)
 80098e6:	4b15      	ldr	r3, [pc, #84]	; (800993c <system__tasking__initialize+0x120>)
 80098e8:	6810      	ldr	r0, [r2, #0]
 80098ea:	2100      	movs	r1, #0
 80098ec:	3001      	adds	r0, #1
 80098ee:	6019      	str	r1, [r3, #0]
 80098f0:	6059      	str	r1, [r3, #4]
 80098f2:	d002      	beq.n	80098fa <system__tasking__initialize+0xde>
 80098f4:	6813      	ldr	r3, [r2, #0]
 80098f6:	42bb      	cmp	r3, r7
 80098f8:	d105      	bne.n	8009906 <system__tasking__initialize+0xea>
 80098fa:	b005      	add	sp, #20
 80098fc:	bdf0      	pop	{r4, r5, r6, r7, pc}
 80098fe:	4770      	bx	lr
 8009900:	4a0f      	ldr	r2, [pc, #60]	; (8009940 <system__tasking__initialize+0x124>)
 8009902:	6014      	str	r4, [r2, #0]
 8009904:	e7bb      	b.n	800987e <system__tasking__initialize+0x62>
 8009906:	480f      	ldr	r0, [pc, #60]	; (8009944 <system__tasking__initialize+0x128>)
 8009908:	f7f6 fd20 	bl	800034c <__gnat_last_chance_handler>
 800990c:	20000090 	.word	0x20000090
 8009910:	2000008c 	.word	0x2000008c
 8009914:	200006b0 	.word	0x200006b0
 8009918:	200000c4 	.word	0x200000c4
 800991c:	20000c30 	.word	0x20000c30
 8009920:	200000bc 	.word	0x200000bc
 8009924:	200000a0 	.word	0x200000a0
 8009928:	20001468 	.word	0x20001468
 800992c:	20000bac 	.word	0x20000bac
 8009930:	08009b15 	.word	0x08009b15
 8009934:	20000768 	.word	0x20000768
 8009938:	2000009c 	.word	0x2000009c
 800993c:	20000094 	.word	0x20000094
 8009940:	200000c0 	.word	0x200000c0
 8009944:	0800bfa0 	.word	0x0800bfa0

08009948 <system__bb__cpu_primitives__gnat_error_handler>:
 8009948:	b240      	sxtb	r0, r0
 800994a:	3801      	subs	r0, #1
 800994c:	b508      	push	{r3, lr}
 800994e:	2805      	cmp	r0, #5
 8009950:	d818      	bhi.n	8009984 <system__bb__cpu_primitives__gnat_error_handler+0x3c>
 8009952:	e8df f000 	tbb	[pc, r0]
 8009956:	0b07      	.short	0x0b07
 8009958:	0313170f 	.word	0x0313170f
 800995c:	480b      	ldr	r0, [pc, #44]	; (800998c <system__bb__cpu_primitives__gnat_error_handler+0x44>)
 800995e:	2100      	movs	r1, #0
 8009960:	f7f6 fcf4 	bl	800034c <__gnat_last_chance_handler>
 8009964:	480a      	ldr	r0, [pc, #40]	; (8009990 <system__bb__cpu_primitives__gnat_error_handler+0x48>)
 8009966:	2100      	movs	r1, #0
 8009968:	f7f6 fcf0 	bl	800034c <__gnat_last_chance_handler>
 800996c:	4809      	ldr	r0, [pc, #36]	; (8009994 <system__bb__cpu_primitives__gnat_error_handler+0x4c>)
 800996e:	2100      	movs	r1, #0
 8009970:	f7f6 fcec 	bl	800034c <__gnat_last_chance_handler>
 8009974:	4808      	ldr	r0, [pc, #32]	; (8009998 <system__bb__cpu_primitives__gnat_error_handler+0x50>)
 8009976:	2100      	movs	r1, #0
 8009978:	f7f6 fce8 	bl	800034c <__gnat_last_chance_handler>
 800997c:	4807      	ldr	r0, [pc, #28]	; (800999c <system__bb__cpu_primitives__gnat_error_handler+0x54>)
 800997e:	2100      	movs	r1, #0
 8009980:	f7f6 fce4 	bl	800034c <__gnat_last_chance_handler>
 8009984:	4806      	ldr	r0, [pc, #24]	; (80099a0 <system__bb__cpu_primitives__gnat_error_handler+0x58>)
 8009986:	2100      	movs	r1, #0
 8009988:	f7f6 fce0 	bl	800034c <__gnat_last_chance_handler>
 800998c:	0800c0d0 	.word	0x0800c0d0
 8009990:	0800bfdc 	.word	0x0800bfdc
 8009994:	0800c01c 	.word	0x0800c01c
 8009998:	0800c060 	.word	0x0800c060
 800999c:	0800c098 	.word	0x0800c098
 80099a0:	0800c108 	.word	0x0800c108

080099a4 <__gnat_irq_trap>:
 80099a4:	b508      	push	{r3, lr}
 80099a6:	4b10      	ldr	r3, [pc, #64]	; (80099e8 <__gnat_irq_trap+0x44>)
 80099a8:	2010      	movs	r0, #16
 80099aa:	6c1b      	ldr	r3, [r3, #64]	; 0x40
 80099ac:	4798      	blx	r3
 80099ae:	4a0f      	ldr	r2, [pc, #60]	; (80099ec <__gnat_irq_trap+0x48>)
 80099b0:	4b0f      	ldr	r3, [pc, #60]	; (80099f0 <__gnat_irq_trap+0x4c>)
 80099b2:	6811      	ldr	r1, [r2, #0]
 80099b4:	681a      	ldr	r2, [r3, #0]
 80099b6:	4291      	cmp	r1, r2
 80099b8:	d003      	beq.n	80099c2 <__gnat_irq_trap+0x1e>
 80099ba:	4a0e      	ldr	r2, [pc, #56]	; (80099f4 <__gnat_irq_trap+0x50>)
 80099bc:	f04f 5180 	mov.w	r1, #268435456	; 0x10000000
 80099c0:	6011      	str	r1, [r2, #0]
 80099c2:	681b      	ldr	r3, [r3, #0]
 80099c4:	6b5b      	ldr	r3, [r3, #52]	; 0x34
 80099c6:	f1a3 02f1 	sub.w	r2, r3, #241	; 0xf1
 80099ca:	2a0e      	cmp	r2, #14
 80099cc:	bf9d      	ittte	ls
 80099ce:	ebc3 1303 	rsbls	r3, r3, r3, lsl #4
 80099d2:	011b      	lslls	r3, r3, #4
 80099d4:	b2db      	uxtbls	r3, r3
 80099d6:	2300      	movhi	r3, #0
 80099d8:	f383 8811 	msr	BASEPRI, r3
 80099dc:	b662      	cpsie	i
 80099de:	f3bf 8f4f 	dsb	sy
 80099e2:	f3bf 8f6f 	isb	sy
 80099e6:	bd08      	pop	{r3, pc}
 80099e8:	20000b68 	.word	0x20000b68
 80099ec:	200000b0 	.word	0x200000b0
 80099f0:	200000bc 	.word	0x200000bc
 80099f4:	e000ed04 	.word	0xe000ed04

080099f8 <__gnat_pend_sv_trap>:
 80099f8:	f240 02bc 	movw	r2, #188	; 0xbc
 80099fc:	f2c2 0200 	movt	r2, #8192	; 0x2000
 8009a00:	f3ef 8c09 	mrs	ip, PSP
 8009a04:	6813      	ldr	r3, [r2, #0]
 8009a06:	e883 1ff0 	stmia.w	r3, {r4, r5, r6, r7, r8, r9, sl, fp, ip}
 8009a0a:	f240 03b0 	movw	r3, #176	; 0xb0
 8009a0e:	f2c2 0300 	movt	r3, #8192	; 0x2000
 8009a12:	681b      	ldr	r3, [r3, #0]
 8009a14:	6013      	str	r3, [r2, #0]
 8009a16:	e893 1ff0 	ldmia.w	r3, {r4, r5, r6, r7, r8, r9, sl, fp, ip}
 8009a1a:	f38c 8809 	msr	PSP, ip
 8009a1e:	4770      	bx	lr

08009a20 <__gnat_sv_call_trap>:
 8009a20:	b508      	push	{r3, lr}
 8009a22:	200b      	movs	r0, #11
 8009a24:	f7ff ff90 	bl	8009948 <system__bb__cpu_primitives__gnat_error_handler>

08009a28 <__gnat_sys_tick_trap>:
 8009a28:	b508      	push	{r3, lr}
 8009a2a:	f7ff fe31 	bl	8009690 <system__bb__board_support__read_clock>
 8009a2e:	4a15      	ldr	r2, [pc, #84]	; (8009a84 <__gnat_sys_tick_trap+0x5c>)
 8009a30:	6813      	ldr	r3, [r2, #0]
 8009a32:	1a1b      	subs	r3, r3, r0
 8009a34:	2b00      	cmp	r3, #0
 8009a36:	db00      	blt.n	8009a3a <__gnat_sys_tick_trap+0x12>
 8009a38:	bd08      	pop	{r3, pc}
 8009a3a:	f100 4000 	add.w	r0, r0, #2147483648	; 0x80000000
 8009a3e:	3801      	subs	r0, #1
 8009a40:	4b11      	ldr	r3, [pc, #68]	; (8009a88 <__gnat_sys_tick_trap+0x60>)
 8009a42:	6010      	str	r0, [r2, #0]
 8009a44:	6bdb      	ldr	r3, [r3, #60]	; 0x3c
 8009a46:	200f      	movs	r0, #15
 8009a48:	4798      	blx	r3
 8009a4a:	4a10      	ldr	r2, [pc, #64]	; (8009a8c <__gnat_sys_tick_trap+0x64>)
 8009a4c:	4b10      	ldr	r3, [pc, #64]	; (8009a90 <__gnat_sys_tick_trap+0x68>)
 8009a4e:	6811      	ldr	r1, [r2, #0]
 8009a50:	681a      	ldr	r2, [r3, #0]
 8009a52:	4291      	cmp	r1, r2
 8009a54:	d003      	beq.n	8009a5e <__gnat_sys_tick_trap+0x36>
 8009a56:	4a0f      	ldr	r2, [pc, #60]	; (8009a94 <__gnat_sys_tick_trap+0x6c>)
 8009a58:	f04f 5180 	mov.w	r1, #268435456	; 0x10000000
 8009a5c:	6011      	str	r1, [r2, #0]
 8009a5e:	681b      	ldr	r3, [r3, #0]
 8009a60:	6b5b      	ldr	r3, [r3, #52]	; 0x34
 8009a62:	f1a3 02f1 	sub.w	r2, r3, #241	; 0xf1
 8009a66:	2a0e      	cmp	r2, #14
 8009a68:	bf9d      	ittte	ls
 8009a6a:	ebc3 1303 	rsbls	r3, r3, r3, lsl #4
 8009a6e:	011b      	lslls	r3, r3, #4
 8009a70:	b2db      	uxtbls	r3, r3
 8009a72:	2300      	movhi	r3, #0
 8009a74:	f383 8811 	msr	BASEPRI, r3
 8009a78:	b662      	cpsie	i
 8009a7a:	f3bf 8f4f 	dsb	sy
 8009a7e:	f3bf 8f6f 	isb	sy
 8009a82:	bd08      	pop	{r3, pc}
 8009a84:	200006a8 	.word	0x200006a8
 8009a88:	20000b68 	.word	0x20000b68
 8009a8c:	200000b0 	.word	0x200000b0
 8009a90:	200000bc 	.word	0x200000bc
 8009a94:	e000ed04 	.word	0xe000ed04

08009a98 <system__bb__cpu_primitives__install_trap_handler>:
 8009a98:	4b02      	ldr	r3, [pc, #8]	; (8009aa4 <system__bb__cpu_primitives__install_trap_handler+0xc>)
 8009a9a:	b249      	sxtb	r1, r1
 8009a9c:	f843 0021 	str.w	r0, [r3, r1, lsl #2]
 8009aa0:	4770      	bx	lr
 8009aa2:	bf00      	nop
 8009aa4:	20000b68 	.word	0x20000b68

08009aa8 <ada__real_time__delays__delay_until>:
 8009aa8:	4b09      	ldr	r3, [pc, #36]	; (8009ad0 <ada__real_time__delays__delay_until+0x28>)
 8009aaa:	b510      	push	{r4, lr}
 8009aac:	681a      	ldr	r2, [r3, #0]
 8009aae:	6a92      	ldr	r2, [r2, #40]	; 0x28
 8009ab0:	6912      	ldr	r2, [r2, #16]
 8009ab2:	2a00      	cmp	r2, #0
 8009ab4:	dc08      	bgt.n	8009ac8 <ada__real_time__delays__delay_until+0x20>
 8009ab6:	681a      	ldr	r2, [r3, #0]
 8009ab8:	2307      	movs	r3, #7
 8009aba:	6a94      	ldr	r4, [r2, #40]	; 0x28
 8009abc:	7223      	strb	r3, [r4, #8]
 8009abe:	f7ff fd11 	bl	80094e4 <system__bb__time__delay_until>
 8009ac2:	2301      	movs	r3, #1
 8009ac4:	7223      	strb	r3, [r4, #8]
 8009ac6:	bd10      	pop	{r4, pc}
 8009ac8:	4802      	ldr	r0, [pc, #8]	; (8009ad4 <ada__real_time__delays__delay_until+0x2c>)
 8009aca:	212e      	movs	r1, #46	; 0x2e
 8009acc:	f7f6 fc3e 	bl	800034c <__gnat_last_chance_handler>
 8009ad0:	200000bc 	.word	0x200000bc
 8009ad4:	0800c144 	.word	0x0800c144

08009ad8 <system__task_primitives__operations__enter_task>:
 8009ad8:	b508      	push	{r3, lr}
 8009ada:	4b0b      	ldr	r3, [pc, #44]	; (8009b08 <system__task_primitives__operations__enter_task+0x30>)
 8009adc:	2100      	movs	r1, #0
 8009ade:	681a      	ldr	r2, [r3, #0]
 8009ae0:	f8c0 1084 	str.w	r1, [r0, #132]	; 0x84
 8009ae4:	b162      	cbz	r2, 8009b00 <system__task_primitives__operations__enter_task+0x28>
 8009ae6:	f8c2 009c 	str.w	r0, [r2, #156]	; 0x9c
 8009aea:	6018      	str	r0, [r3, #0]
 8009aec:	b672      	cpsid	i
 8009aee:	4b07      	ldr	r3, [pc, #28]	; (8009b0c <system__task_primitives__operations__enter_task+0x34>)
 8009af0:	68c1      	ldr	r1, [r0, #12]
 8009af2:	6818      	ldr	r0, [r3, #0]
 8009af4:	f000 fa46 	bl	8009f84 <system__bb__threads__queues__change_priority>
 8009af8:	e8bd 4008 	ldmia.w	sp!, {r3, lr}
 8009afc:	f000 b848 	b.w	8009b90 <system__bb__protection__leave_kernel>
 8009b00:	4a03      	ldr	r2, [pc, #12]	; (8009b10 <system__task_primitives__operations__enter_task+0x38>)
 8009b02:	6010      	str	r0, [r2, #0]
 8009b04:	e7f1      	b.n	8009aea <system__task_primitives__operations__enter_task+0x12>
 8009b06:	bf00      	nop
 8009b08:	200000c4 	.word	0x200000c4
 8009b0c:	200000bc 	.word	0x200000bc
 8009b10:	200000c0 	.word	0x200000c0

08009b14 <system__task_primitives__operations__idle>:
 8009b14:	b508      	push	{r3, lr}
 8009b16:	4b03      	ldr	r3, [pc, #12]	; (8009b24 <system__task_primitives__operations__idle+0x10>)
 8009b18:	681b      	ldr	r3, [r3, #0]
 8009b1a:	6a98      	ldr	r0, [r3, #40]	; 0x28
 8009b1c:	f7ff ffdc 	bl	8009ad8 <system__task_primitives__operations__enter_task>
 8009b20:	bf30      	wfi
 8009b22:	e7fd      	b.n	8009b20 <system__task_primitives__operations__idle+0xc>
 8009b24:	200000bc 	.word	0x200000bc

08009b28 <system__task_primitives__operations__initialize_idle>:
 8009b28:	b570      	push	{r4, r5, r6, lr}
 8009b2a:	4603      	mov	r3, r0
 8009b2c:	24b8      	movs	r4, #184	; 0xb8
 8009b2e:	b240      	sxtb	r0, r0
 8009b30:	fb04 f400 	mul.w	r4, r4, r0
 8009b34:	4912      	ldr	r1, [pc, #72]	; (8009b80 <system__task_primitives__operations__initialize_idle+0x58>)
 8009b36:	4d13      	ldr	r5, [pc, #76]	; (8009b84 <system__task_primitives__operations__initialize_idle+0x5c>)
 8009b38:	4a13      	ldr	r2, [pc, #76]	; (8009b88 <system__task_primitives__operations__initialize_idle+0x60>)
 8009b3a:	4401      	add	r1, r0
 8009b3c:	f1a4 06b8 	sub.w	r6, r4, #184	; 0xb8
 8009b40:	b084      	sub	sp, #16
 8009b42:	eb02 22c1 	add.w	r2, r2, r1, lsl #11
 8009b46:	442e      	add	r6, r5
 8009b48:	2002      	movs	r0, #2
 8009b4a:	f44f 6100 	mov.w	r1, #2048	; 0x800
 8009b4e:	9201      	str	r2, [sp, #4]
 8009b50:	9000      	str	r0, [sp, #0]
 8009b52:	9102      	str	r1, [sp, #8]
 8009b54:	9603      	str	r6, [sp, #12]
 8009b56:	2100      	movs	r1, #0
 8009b58:	f04f 32ff 	mov.w	r2, #4294967295
 8009b5c:	480b      	ldr	r0, [pc, #44]	; (8009b8c <system__task_primitives__operations__initialize_idle+0x64>)
 8009b5e:	f7ff fe43 	bl	80097e8 <system__tasking__initialize_atcb>
 8009b62:	f1a4 03a0 	sub.w	r3, r4, #160	; 0xa0
 8009b66:	f1a4 0038 	sub.w	r0, r4, #56	; 0x38
 8009b6a:	1929      	adds	r1, r5, r4
 8009b6c:	442b      	add	r3, r5
 8009b6e:	3cb0      	subs	r4, #176	; 0xb0
 8009b70:	2201      	movs	r2, #1
 8009b72:	502b      	str	r3, [r5, r0]
 8009b74:	f841 6c10 	str.w	r6, [r1, #-16]
 8009b78:	552a      	strb	r2, [r5, r4]
 8009b7a:	b004      	add	sp, #16
 8009b7c:	bd70      	pop	{r4, r5, r6, pc}
 8009b7e:	bf00      	nop
 8009b80:	001fffff 	.word	0x001fffff
 8009b84:	20000bb0 	.word	0x20000bb0
 8009b88:	20000c68 	.word	0x20000c68
 8009b8c:	08009b15 	.word	0x08009b15

08009b90 <system__bb__protection__leave_kernel>:
 8009b90:	4b10      	ldr	r3, [pc, #64]	; (8009bd4 <system__bb__protection__leave_kernel+0x44>)
 8009b92:	b510      	push	{r4, lr}
 8009b94:	4c10      	ldr	r4, [pc, #64]	; (8009bd8 <system__bb__protection__leave_kernel+0x48>)
 8009b96:	681a      	ldr	r2, [r3, #0]
 8009b98:	6823      	ldr	r3, [r4, #0]
 8009b9a:	429a      	cmp	r2, r3
 8009b9c:	d007      	beq.n	8009bae <system__bb__protection__leave_kernel+0x1e>
 8009b9e:	4b0f      	ldr	r3, [pc, #60]	; (8009bdc <system__bb__protection__leave_kernel+0x4c>)
 8009ba0:	681b      	ldr	r3, [r3, #0]
 8009ba2:	b103      	cbz	r3, 8009ba6 <system__bb__protection__leave_kernel+0x16>
 8009ba4:	4798      	blx	r3
 8009ba6:	4b0e      	ldr	r3, [pc, #56]	; (8009be0 <system__bb__protection__leave_kernel+0x50>)
 8009ba8:	f04f 5280 	mov.w	r2, #268435456	; 0x10000000
 8009bac:	601a      	str	r2, [r3, #0]
 8009bae:	6823      	ldr	r3, [r4, #0]
 8009bb0:	6b5b      	ldr	r3, [r3, #52]	; 0x34
 8009bb2:	f1a3 02f1 	sub.w	r2, r3, #241	; 0xf1
 8009bb6:	2a0e      	cmp	r2, #14
 8009bb8:	bf9d      	ittte	ls
 8009bba:	ebc3 1303 	rsbls	r3, r3, r3, lsl #4
 8009bbe:	011b      	lslls	r3, r3, #4
 8009bc0:	b2db      	uxtbls	r3, r3
 8009bc2:	2300      	movhi	r3, #0
 8009bc4:	f383 8811 	msr	BASEPRI, r3
 8009bc8:	b662      	cpsie	i
 8009bca:	f3bf 8f4f 	dsb	sy
 8009bce:	f3bf 8f6f 	isb	sy
 8009bd2:	bd10      	pop	{r4, pc}
 8009bd4:	200000b0 	.word	0x200000b0
 8009bd8:	200000bc 	.word	0x200000bc
 8009bdc:	20000088 	.word	0x20000088
 8009be0:	e000ed04 	.word	0xe000ed04

08009be4 <system__bb__timing_events__execute_expired_timing_events>:
 8009be4:	e92d 4ff8 	stmdb	sp!, {r3, r4, r5, r6, r7, r8, r9, sl, fp, lr}
 8009be8:	f8df b074 	ldr.w	fp, [pc, #116]	; 8009c60 <system__bb__timing_events__execute_expired_timing_events+0x7c>
 8009bec:	f8db 4000 	ldr.w	r4, [fp]
 8009bf0:	2c00      	cmp	r4, #0
 8009bf2:	d030      	beq.n	8009c56 <system__bb__timing_events__execute_expired_timing_events+0x72>
 8009bf4:	4b19      	ldr	r3, [pc, #100]	; (8009c5c <system__bb__timing_events__execute_expired_timing_events+0x78>)
 8009bf6:	4606      	mov	r6, r0
 8009bf8:	f8d3 a000 	ldr.w	sl, [r3]
 8009bfc:	460f      	mov	r7, r1
 8009bfe:	4650      	mov	r0, sl
 8009c00:	21ff      	movs	r1, #255	; 0xff
 8009c02:	f8da 9034 	ldr.w	r9, [sl, #52]	; 0x34
 8009c06:	46d8      	mov	r8, fp
 8009c08:	f000 f9bc 	bl	8009f84 <system__bb__threads__queues__change_priority>
 8009c0c:	2500      	movs	r5, #0
 8009c0e:	e9d4 2302 	ldrd	r2, r3, [r4, #8]
 8009c12:	429f      	cmp	r7, r3
 8009c14:	bf08      	it	eq
 8009c16:	4296      	cmpeq	r6, r2
 8009c18:	d317      	bcc.n	8009c4a <system__bb__timing_events__execute_expired_timing_events+0x66>
 8009c1a:	f8db 3000 	ldr.w	r3, [fp]
 8009c1e:	6962      	ldr	r2, [r4, #20]
 8009c20:	429c      	cmp	r4, r3
 8009c22:	bf18      	it	ne
 8009c24:	69a3      	ldrne	r3, [r4, #24]
 8009c26:	6921      	ldr	r1, [r4, #16]
 8009c28:	bf1a      	itte	ne
 8009c2a:	615a      	strne	r2, [r3, #20]
 8009c2c:	6962      	ldrne	r2, [r4, #20]
 8009c2e:	f8c8 2000 	streq.w	r2, [r8]
 8009c32:	4620      	mov	r0, r4
 8009c34:	b10a      	cbz	r2, 8009c3a <system__bb__timing_events__execute_expired_timing_events+0x56>
 8009c36:	69a3      	ldr	r3, [r4, #24]
 8009c38:	6193      	str	r3, [r2, #24]
 8009c3a:	6165      	str	r5, [r4, #20]
 8009c3c:	61a5      	str	r5, [r4, #24]
 8009c3e:	6125      	str	r5, [r4, #16]
 8009c40:	4788      	blx	r1
 8009c42:	f8db 4000 	ldr.w	r4, [fp]
 8009c46:	2c00      	cmp	r4, #0
 8009c48:	d1e1      	bne.n	8009c0e <system__bb__timing_events__execute_expired_timing_events+0x2a>
 8009c4a:	4650      	mov	r0, sl
 8009c4c:	4649      	mov	r1, r9
 8009c4e:	e8bd 4ff8 	ldmia.w	sp!, {r3, r4, r5, r6, r7, r8, r9, sl, fp, lr}
 8009c52:	f000 b997 	b.w	8009f84 <system__bb__threads__queues__change_priority>
 8009c56:	e8bd 8ff8 	ldmia.w	sp!, {r3, r4, r5, r6, r7, r8, r9, sl, fp, pc}
 8009c5a:	bf00      	nop
 8009c5c:	200000bc 	.word	0x200000bc
 8009c60:	200000a4 	.word	0x200000a4

08009c64 <system__bb__interrupts__interrupt_wrapper>:
 8009c64:	e92d 4ff0 	stmdb	sp!, {r4, r5, r6, r7, r8, r9, sl, fp, lr}
 8009c68:	4b39      	ldr	r3, [pc, #228]	; (8009d50 <system__bb__interrupts__interrupt_wrapper+0xec>)
 8009c6a:	280f      	cmp	r0, #15
 8009c6c:	681e      	ldr	r6, [r3, #0]
 8009c6e:	b083      	sub	sp, #12
 8009c70:	f8d6 9034 	ldr.w	r9, [r6, #52]	; 0x34
 8009c74:	d04e      	beq.n	8009d14 <system__bb__interrupts__interrupt_wrapper+0xb0>
 8009c76:	f3ef 8405 	mrs	r4, IPSR
 8009c7a:	b2e4      	uxtb	r4, r4
 8009c7c:	3c10      	subs	r4, #16
 8009c7e:	2c01      	cmp	r4, #1
 8009c80:	d048      	beq.n	8009d14 <system__bb__interrupts__interrupt_wrapper+0xb0>
 8009c82:	4b34      	ldr	r3, [pc, #208]	; (8009d54 <system__bb__interrupts__interrupt_wrapper+0xf0>)
 8009c84:	5d1b      	ldrb	r3, [r3, r4]
 8009c86:	f003 05ff 	and.w	r5, r3, #255	; 0xff
 8009c8a:	b95b      	cbnz	r3, 8009ca4 <system__bb__interrupts__interrupt_wrapper+0x40>
 8009c8c:	25ff      	movs	r5, #255	; 0xff
 8009c8e:	f8df 80cc 	ldr.w	r8, [pc, #204]	; 8009d5c <system__bb__interrupts__interrupt_wrapper+0xf8>
 8009c92:	f8d8 b000 	ldr.w	fp, [r8]
 8009c96:	f896 7055 	ldrb.w	r7, [r6, #85]	; 0x55
 8009c9a:	b2ff      	uxtb	r7, r7
 8009c9c:	b934      	cbnz	r4, 8009cac <system__bb__interrupts__interrupt_wrapper+0x48>
 8009c9e:	b003      	add	sp, #12
 8009ca0:	e8bd 8ff0 	ldmia.w	sp!, {r4, r5, r6, r7, r8, r9, sl, fp, pc}
 8009ca4:	092d      	lsrs	r5, r5, #4
 8009ca6:	f5c5 7580 	rsb	r5, r5, #256	; 0x100
 8009caa:	e7f0      	b.n	8009c8e <system__bb__interrupts__interrupt_wrapper+0x2a>
 8009cac:	f8df a0b0 	ldr.w	sl, [pc, #176]	; 8009d60 <system__bb__interrupts__interrupt_wrapper+0xfc>
 8009cb0:	4629      	mov	r1, r5
 8009cb2:	f8da 3000 	ldr.w	r3, [sl]
 8009cb6:	b113      	cbz	r3, 8009cbe <system__bb__interrupts__interrupt_wrapper+0x5a>
 8009cb8:	9101      	str	r1, [sp, #4]
 8009cba:	4798      	blx	r3
 8009cbc:	9901      	ldr	r1, [sp, #4]
 8009cbe:	2301      	movs	r3, #1
 8009cc0:	f8c8 4000 	str.w	r4, [r8]
 8009cc4:	4630      	mov	r0, r6
 8009cc6:	f886 3055 	strb.w	r3, [r6, #85]	; 0x55
 8009cca:	f000 f95b 	bl	8009f84 <system__bb__threads__queues__change_priority>
 8009cce:	f5b5 7f80 	cmp.w	r5, #256	; 0x100
 8009cd2:	d02f      	beq.n	8009d34 <system__bb__interrupts__interrupt_wrapper+0xd0>
 8009cd4:	ebc5 1505 	rsb	r5, r5, r5, lsl #4
 8009cd8:	012d      	lsls	r5, r5, #4
 8009cda:	b2ed      	uxtb	r5, r5
 8009cdc:	f385 8811 	msr	BASEPRI, r5
 8009ce0:	b662      	cpsie	i
 8009ce2:	f3bf 8f4f 	dsb	sy
 8009ce6:	f3bf 8f6f 	isb	sy
 8009cea:	4b1b      	ldr	r3, [pc, #108]	; (8009d58 <system__bb__interrupts__interrupt_wrapper+0xf4>)
 8009cec:	4620      	mov	r0, r4
 8009cee:	f853 3024 	ldr.w	r3, [r3, r4, lsl #2]
 8009cf2:	4798      	blx	r3
 8009cf4:	b672      	cpsid	i
 8009cf6:	f8da 3000 	ldr.w	r3, [sl]
 8009cfa:	b103      	cbz	r3, 8009cfe <system__bb__interrupts__interrupt_wrapper+0x9a>
 8009cfc:	4798      	blx	r3
 8009cfe:	4649      	mov	r1, r9
 8009d00:	4630      	mov	r0, r6
 8009d02:	f000 f93f 	bl	8009f84 <system__bb__threads__queues__change_priority>
 8009d06:	f8c8 b000 	str.w	fp, [r8]
 8009d0a:	f886 7055 	strb.w	r7, [r6, #85]	; 0x55
 8009d0e:	b003      	add	sp, #12
 8009d10:	e8bd 8ff0 	ldmia.w	sp!, {r4, r5, r6, r7, r8, r9, sl, fp, pc}
 8009d14:	f8df 8044 	ldr.w	r8, [pc, #68]	; 8009d5c <system__bb__interrupts__interrupt_wrapper+0xf8>
 8009d18:	f8df a044 	ldr.w	sl, [pc, #68]	; 8009d60 <system__bb__interrupts__interrupt_wrapper+0xfc>
 8009d1c:	f8d8 b000 	ldr.w	fp, [r8]
 8009d20:	f8da 3000 	ldr.w	r3, [sl]
 8009d24:	f896 7055 	ldrb.w	r7, [r6, #85]	; 0x55
 8009d28:	b2ff      	uxtb	r7, r7
 8009d2a:	b12b      	cbz	r3, 8009d38 <system__bb__interrupts__interrupt_wrapper+0xd4>
 8009d2c:	21ff      	movs	r1, #255	; 0xff
 8009d2e:	460d      	mov	r5, r1
 8009d30:	2401      	movs	r4, #1
 8009d32:	e7c1      	b.n	8009cb8 <system__bb__interrupts__interrupt_wrapper+0x54>
 8009d34:	2500      	movs	r5, #0
 8009d36:	e7d1      	b.n	8009cdc <system__bb__interrupts__interrupt_wrapper+0x78>
 8009d38:	2401      	movs	r4, #1
 8009d3a:	f8c8 4000 	str.w	r4, [r8]
 8009d3e:	4630      	mov	r0, r6
 8009d40:	f886 4055 	strb.w	r4, [r6, #85]	; 0x55
 8009d44:	21ff      	movs	r1, #255	; 0xff
 8009d46:	f000 f91d 	bl	8009f84 <system__bb__threads__queues__change_priority>
 8009d4a:	25ff      	movs	r5, #255	; 0xff
 8009d4c:	e7c2      	b.n	8009cd4 <system__bb__interrupts__interrupt_wrapper+0x70>
 8009d4e:	bf00      	nop
 8009d50:	200000bc 	.word	0x200000bc
 8009d54:	e000e400 	.word	0xe000e400
 8009d58:	20001468 	.word	0x20001468
 8009d5c:	200000a8 	.word	0x200000a8
 8009d60:	20000088 	.word	0x20000088

08009d64 <system__bb__interrupts__initialize_interrupts>:
 8009d64:	4a01      	ldr	r2, [pc, #4]	; (8009d6c <system__bb__interrupts__initialize_interrupts+0x8>)
 8009d66:	4b02      	ldr	r3, [pc, #8]	; (8009d70 <system__bb__interrupts__initialize_interrupts+0xc>)
 8009d68:	601a      	str	r2, [r3, #0]
 8009d6a:	4770      	bx	lr
 8009d6c:	20001db8 	.word	0x20001db8
 8009d70:	200015b8 	.word	0x200015b8

08009d74 <system__bb__threads__get_cpu>:
 8009d74:	f890 002c 	ldrb.w	r0, [r0, #44]	; 0x2c
 8009d78:	2800      	cmp	r0, #0
 8009d7a:	bf08      	it	eq
 8009d7c:	2001      	moveq	r0, #1
 8009d7e:	4770      	bx	lr

08009d80 <system__bb__threads__initialize_thread>:
 8009d80:	e92d 43f0 	stmdb	sp!, {r4, r5, r6, r7, r8, r9, lr}
 8009d84:	4604      	mov	r4, r0
 8009d86:	4d3e      	ldr	r5, [pc, #248]	; (8009e80 <system__bb__threads__initialize_thread+0x100>)
 8009d88:	b089      	sub	sp, #36	; 0x24
 8009d8a:	682e      	ldr	r6, [r5, #0]
 8009d8c:	f89d 0040 	ldrb.w	r0, [sp, #64]	; 0x40
 8009d90:	4696      	mov	lr, r2
 8009d92:	65a6      	str	r6, [r4, #88]	; 0x58
 8009d94:	6323      	str	r3, [r4, #48]	; 0x30
 8009d96:	6363      	str	r3, [r4, #52]	; 0x34
 8009d98:	602c      	str	r4, [r5, #0]
 8009d9a:	f884 002c 	strb.w	r0, [r4, #44]	; 0x2c
 8009d9e:	9a11      	ldr	r2, [sp, #68]	; 0x44
 8009da0:	9e12      	ldr	r6, [sp, #72]	; 0x48
 8009da2:	2800      	cmp	r0, #0
 8009da4:	d058      	beq.n	8009e58 <system__bb__threads__initialize_thread+0xd8>
 8009da6:	b243      	sxtb	r3, r0
 8009da8:	f103 4380 	add.w	r3, r3, #1073741824	; 0x40000000
 8009dac:	4835      	ldr	r0, [pc, #212]	; (8009e84 <system__bb__threads__initialize_thread+0x104>)
 8009dae:	3b01      	subs	r3, #1
 8009db0:	f850 5023 	ldr.w	r5, [r0, r3, lsl #2]
 8009db4:	42ac      	cmp	r4, r5
 8009db6:	d018      	beq.n	8009dea <system__bb__threads__initialize_thread+0x6a>
 8009db8:	f850 5023 	ldr.w	r5, [r0, r3, lsl #2]
 8009dbc:	2d00      	cmp	r5, #0
 8009dbe:	d04d      	beq.n	8009e5c <system__bb__threads__initialize_thread+0xdc>
 8009dc0:	6b67      	ldr	r7, [r4, #52]	; 0x34
 8009dc2:	f850 5023 	ldr.w	r5, [r0, r3, lsl #2]
 8009dc6:	6b6d      	ldr	r5, [r5, #52]	; 0x34
 8009dc8:	42af      	cmp	r7, r5
 8009dca:	dc47      	bgt.n	8009e5c <system__bb__threads__initialize_thread+0xdc>
 8009dcc:	f850 0023 	ldr.w	r0, [r0, r3, lsl #2]
 8009dd0:	e006      	b.n	8009de0 <system__bb__threads__initialize_thread+0x60>
 8009dd2:	429c      	cmp	r4, r3
 8009dd4:	d048      	beq.n	8009e68 <system__bb__threads__initialize_thread+0xe8>
 8009dd6:	6b5f      	ldr	r7, [r3, #52]	; 0x34
 8009dd8:	6b65      	ldr	r5, [r4, #52]	; 0x34
 8009dda:	42af      	cmp	r7, r5
 8009ddc:	db03      	blt.n	8009de6 <system__bb__threads__initialize_thread+0x66>
 8009dde:	4618      	mov	r0, r3
 8009de0:	6c03      	ldr	r3, [r0, #64]	; 0x40
 8009de2:	2b00      	cmp	r3, #0
 8009de4:	d1f5      	bne.n	8009dd2 <system__bb__threads__initialize_thread+0x52>
 8009de6:	6423      	str	r3, [r4, #64]	; 0x40
 8009de8:	6404      	str	r4, [r0, #64]	; 0x40
 8009dea:	2500      	movs	r5, #0
 8009dec:	f04f 38ff 	mov.w	r8, #4294967295
 8009df0:	f04f 39ff 	mov.w	r9, #4294967295
 8009df4:	63a2      	str	r2, [r4, #56]	; 0x38
 8009df6:	63e6      	str	r6, [r4, #60]	; 0x3c
 8009df8:	e9c4 8912 	strd	r8, r9, [r4, #72]	; 0x48
 8009dfc:	f884 5054 	strb.w	r5, [r4, #84]	; 0x54
 8009e00:	f884 5055 	strb.w	r5, [r4, #85]	; 0x55
 8009e04:	f884 5056 	strb.w	r5, [r4, #86]	; 0x56
 8009e08:	6525      	str	r5, [r4, #80]	; 0x50
 8009e0a:	65e5      	str	r5, [r4, #92]	; 0x5c
 8009e0c:	6625      	str	r5, [r4, #96]	; 0x60
 8009e0e:	b301      	cbz	r1, 8009e52 <system__bb__threads__initialize_thread+0xd2>
 8009e10:	3a20      	subs	r2, #32
 8009e12:	f022 0c04 	bic.w	ip, r2, #4
 8009e16:	4666      	mov	r6, ip
 8009e18:	466f      	mov	r7, sp
 8009e1a:	f04f 7380 	mov.w	r3, #16777216	; 0x1000000
 8009e1e:	9504      	str	r5, [sp, #16]
 8009e20:	9505      	str	r5, [sp, #20]
 8009e22:	9106      	str	r1, [sp, #24]
 8009e24:	9307      	str	r3, [sp, #28]
 8009e26:	f8cd e000 	str.w	lr, [sp]
 8009e2a:	9501      	str	r5, [sp, #4]
 8009e2c:	9502      	str	r5, [sp, #8]
 8009e2e:	9503      	str	r5, [sp, #12]
 8009e30:	cf0f      	ldmia	r7!, {r0, r1, r2, r3}
 8009e32:	c60f      	stmia	r6!, {r0, r1, r2, r3}
 8009e34:	e897 000f 	ldmia.w	r7, {r0, r1, r2, r3}
 8009e38:	e886 000f 	stmia.w	r6, {r0, r1, r2, r3}
 8009e3c:	f8c4 c020 	str.w	ip, [r4, #32]
 8009e40:	6025      	str	r5, [r4, #0]
 8009e42:	6065      	str	r5, [r4, #4]
 8009e44:	60a5      	str	r5, [r4, #8]
 8009e46:	60e5      	str	r5, [r4, #12]
 8009e48:	6125      	str	r5, [r4, #16]
 8009e4a:	6165      	str	r5, [r4, #20]
 8009e4c:	61a5      	str	r5, [r4, #24]
 8009e4e:	61e5      	str	r5, [r4, #28]
 8009e50:	6265      	str	r5, [r4, #36]	; 0x24
 8009e52:	b009      	add	sp, #36	; 0x24
 8009e54:	e8bd 83f0 	ldmia.w	sp!, {r4, r5, r6, r7, r8, r9, pc}
 8009e58:	2301      	movs	r3, #1
 8009e5a:	e7a5      	b.n	8009da8 <system__bb__threads__initialize_thread+0x28>
 8009e5c:	f850 5023 	ldr.w	r5, [r0, r3, lsl #2]
 8009e60:	f840 4023 	str.w	r4, [r0, r3, lsl #2]
 8009e64:	6425      	str	r5, [r4, #64]	; 0x40
 8009e66:	e7c0      	b.n	8009dea <system__bb__threads__initialize_thread+0x6a>
 8009e68:	6c23      	ldr	r3, [r4, #64]	; 0x40
 8009e6a:	6403      	str	r3, [r0, #64]	; 0x40
 8009e6c:	2b00      	cmp	r3, #0
 8009e6e:	d0ba      	beq.n	8009de6 <system__bb__threads__initialize_thread+0x66>
 8009e70:	6b5f      	ldr	r7, [r3, #52]	; 0x34
 8009e72:	6b65      	ldr	r5, [r4, #52]	; 0x34
 8009e74:	42af      	cmp	r7, r5
 8009e76:	dbb6      	blt.n	8009de6 <system__bb__threads__initialize_thread+0x66>
 8009e78:	4618      	mov	r0, r3
 8009e7a:	6c1b      	ldr	r3, [r3, #64]	; 0x40
 8009e7c:	e7f6      	b.n	8009e6c <system__bb__threads__initialize_thread+0xec>
 8009e7e:	bf00      	nop
 8009e80:	200000b4 	.word	0x200000b4
 8009e84:	200000b0 	.word	0x200000b0

08009e88 <system__bb__threads__initialize>:
 8009e88:	e92d 43f0 	stmdb	sp!, {r4, r5, r6, r7, r8, r9, lr}
 8009e8c:	b085      	sub	sp, #20
 8009e8e:	4606      	mov	r6, r0
 8009e90:	460f      	mov	r7, r1
 8009e92:	f7ff ff67 	bl	8009d64 <system__bb__interrupts__initialize_interrupts>
 8009e96:	f3ef 8008 	mrs	r0, MSP
 8009e9a:	f380 8809 	msr	PSP, r0
 8009e9e:	f3ef 8014 	mrs	r0, CONTROL
 8009ea2:	f040 0002 	orr.w	r0, r0, #2
 8009ea6:	f380 8814 	msr	CONTROL, r0
 8009eaa:	4b1f      	ldr	r3, [pc, #124]	; (8009f28 <system__bb__threads__initialize+0xa0>)
 8009eac:	681b      	ldr	r3, [r3, #0]
 8009eae:	f383 8808 	msr	MSP, r3
 8009eb2:	4b1e      	ldr	r3, [pc, #120]	; (8009f2c <system__bb__threads__initialize+0xa4>)
 8009eb4:	4a1e      	ldr	r2, [pc, #120]	; (8009f30 <system__bb__threads__initialize+0xa8>)
 8009eb6:	4d1f      	ldr	r5, [pc, #124]	; (8009f34 <system__bb__threads__initialize+0xac>)
 8009eb8:	601a      	str	r2, [r3, #0]
 8009eba:	682a      	ldr	r2, [r5, #0]
 8009ebc:	f8df 9090 	ldr.w	r9, [pc, #144]	; 8009f50 <system__bb__threads__initialize+0xc8>
 8009ec0:	f8df 8090 	ldr.w	r8, [pc, #144]	; 8009f54 <system__bb__threads__initialize+0xcc>
 8009ec4:	f8df e090 	ldr.w	lr, [pc, #144]	; 8009f58 <system__bb__threads__initialize+0xd0>
 8009ec8:	491b      	ldr	r1, [pc, #108]	; (8009f38 <system__bb__threads__initialize+0xb0>)
 8009eca:	f442 7204 	orr.w	r2, r2, #528	; 0x210
 8009ece:	2400      	movs	r4, #0
 8009ed0:	481a      	ldr	r0, [pc, #104]	; (8009f3c <system__bb__threads__initialize+0xb4>)
 8009ed2:	f042 0201 	orr.w	r2, r2, #1
 8009ed6:	f44f 0c7f 	mov.w	ip, #16711680	; 0xff0000
 8009eda:	602a      	str	r2, [r5, #0]
 8009edc:	f8c9 4000 	str.w	r4, [r9]
 8009ee0:	f8c8 4000 	str.w	r4, [r8]
 8009ee4:	f8ce c000 	str.w	ip, [lr]
 8009ee8:	6059      	str	r1, [r3, #4]
 8009eea:	6802      	ldr	r2, [r0, #0]
 8009eec:	f442 22e0 	orr.w	r2, r2, #458752	; 0x70000
 8009ef0:	6002      	str	r2, [r0, #0]
 8009ef2:	b661      	cpsie	f
 8009ef4:	f7ff fc02 	bl	80096fc <system__bb__board_support__initialize_board>
 8009ef8:	f7ff fa5c 	bl	80093b4 <system__bb__time__initialize_timers>
 8009efc:	b672      	cpsid	i
 8009efe:	4810      	ldr	r0, [pc, #64]	; (8009f40 <system__bb__threads__initialize+0xb8>)
 8009f00:	4a10      	ldr	r2, [pc, #64]	; (8009f44 <system__bb__threads__initialize+0xbc>)
 8009f02:	2501      	movs	r5, #1
 8009f04:	463b      	mov	r3, r7
 8009f06:	9001      	str	r0, [sp, #4]
 8009f08:	9202      	str	r2, [sp, #8]
 8009f0a:	9500      	str	r5, [sp, #0]
 8009f0c:	4622      	mov	r2, r4
 8009f0e:	4630      	mov	r0, r6
 8009f10:	4621      	mov	r1, r4
 8009f12:	f7ff ff35 	bl	8009d80 <system__bb__threads__initialize_thread>
 8009f16:	4a0c      	ldr	r2, [pc, #48]	; (8009f48 <system__bb__threads__initialize+0xc0>)
 8009f18:	4b0c      	ldr	r3, [pc, #48]	; (8009f4c <system__bb__threads__initialize+0xc4>)
 8009f1a:	6016      	str	r6, [r2, #0]
 8009f1c:	701d      	strb	r5, [r3, #0]
 8009f1e:	b005      	add	sp, #20
 8009f20:	e8bd 43f0 	ldmia.w	sp!, {r4, r5, r6, r7, r8, r9, lr}
 8009f24:	f7ff be34 	b.w	8009b90 <system__bb__protection__leave_kernel>
 8009f28:	200015b8 	.word	0x200015b8
 8009f2c:	e000ed08 	.word	0xe000ed08
 8009f30:	0800a200 	.word	0x0800a200
 8009f34:	e000ed14 	.word	0xe000ed14
 8009f38:	05fa0300 	.word	0x05fa0300
 8009f3c:	e000ed24 	.word	0xe000ed24
 8009f40:	200021c0 	.word	0x200021c0
 8009f44:	20001dc0 	.word	0x20001dc0
 8009f48:	200000bc 	.word	0x200000bc
 8009f4c:	200000ac 	.word	0x200000ac
 8009f50:	e000ed18 	.word	0xe000ed18
 8009f54:	e000ed1c 	.word	0xe000ed1c
 8009f58:	e000ed20 	.word	0xe000ed20

08009f5c <system__bb__threads__thread_create>:
 8009f5c:	b570      	push	{r4, r5, r6, lr}
 8009f5e:	b084      	sub	sp, #16
 8009f60:	f89d 6020 	ldrb.w	r6, [sp, #32]
 8009f64:	9d09      	ldr	r5, [sp, #36]	; 0x24
 8009f66:	9c0a      	ldr	r4, [sp, #40]	; 0x28
 8009f68:	b672      	cpsid	i
 8009f6a:	442c      	add	r4, r5
 8009f6c:	f024 0407 	bic.w	r4, r4, #7
 8009f70:	9401      	str	r4, [sp, #4]
 8009f72:	9600      	str	r6, [sp, #0]
 8009f74:	9502      	str	r5, [sp, #8]
 8009f76:	f7ff ff03 	bl	8009d80 <system__bb__threads__initialize_thread>
 8009f7a:	b004      	add	sp, #16
 8009f7c:	e8bd 4070 	ldmia.w	sp!, {r4, r5, r6, lr}
 8009f80:	f7ff be06 	b.w	8009b90 <system__bb__protection__leave_kernel>

08009f84 <system__bb__threads__queues__change_priority>:
 8009f84:	6b43      	ldr	r3, [r0, #52]	; 0x34
 8009f86:	428b      	cmp	r3, r1
 8009f88:	d011      	beq.n	8009fae <system__bb__threads__queues__change_priority+0x2a>
 8009f8a:	b470      	push	{r4, r5, r6}
 8009f8c:	4e17      	ldr	r6, [pc, #92]	; (8009fec <system__bb__threads__queues__change_priority+0x68>)
 8009f8e:	6341      	str	r1, [r0, #52]	; 0x34
 8009f90:	6834      	ldr	r4, [r6, #0]
 8009f92:	4284      	cmp	r4, r0
 8009f94:	d023      	beq.n	8009fde <system__bb__threads__queues__change_priority+0x5a>
 8009f96:	b14c      	cbz	r4, 8009fac <system__bb__threads__queues__change_priority+0x28>
 8009f98:	6c23      	ldr	r3, [r4, #64]	; 0x40
 8009f9a:	4283      	cmp	r3, r0
 8009f9c:	d008      	beq.n	8009fb0 <system__bb__threads__queues__change_priority+0x2c>
 8009f9e:	b12b      	cbz	r3, 8009fac <system__bb__threads__queues__change_priority+0x28>
 8009fa0:	6c1a      	ldr	r2, [r3, #64]	; 0x40
 8009fa2:	4282      	cmp	r2, r0
 8009fa4:	d005      	beq.n	8009fb2 <system__bb__threads__queues__change_priority+0x2e>
 8009fa6:	4613      	mov	r3, r2
 8009fa8:	2b00      	cmp	r3, #0
 8009faa:	d1f9      	bne.n	8009fa0 <system__bb__threads__queues__change_priority+0x1c>
 8009fac:	bc70      	pop	{r4, r5, r6}
 8009fae:	4770      	bx	lr
 8009fb0:	4623      	mov	r3, r4
 8009fb2:	6c02      	ldr	r2, [r0, #64]	; 0x40
 8009fb4:	641a      	str	r2, [r3, #64]	; 0x40
 8009fb6:	6b63      	ldr	r3, [r4, #52]	; 0x34
 8009fb8:	4299      	cmp	r1, r3
 8009fba:	db03      	blt.n	8009fc4 <system__bb__threads__queues__change_priority+0x40>
 8009fbc:	6404      	str	r4, [r0, #64]	; 0x40
 8009fbe:	4604      	mov	r4, r0
 8009fc0:	6034      	str	r4, [r6, #0]
 8009fc2:	e7f3      	b.n	8009fac <system__bb__threads__queues__change_priority+0x28>
 8009fc4:	4622      	mov	r2, r4
 8009fc6:	e003      	b.n	8009fd0 <system__bb__threads__queues__change_priority+0x4c>
 8009fc8:	6b5d      	ldr	r5, [r3, #52]	; 0x34
 8009fca:	42a9      	cmp	r1, r5
 8009fcc:	da03      	bge.n	8009fd6 <system__bb__threads__queues__change_priority+0x52>
 8009fce:	461a      	mov	r2, r3
 8009fd0:	6c13      	ldr	r3, [r2, #64]	; 0x40
 8009fd2:	2b00      	cmp	r3, #0
 8009fd4:	d1f8      	bne.n	8009fc8 <system__bb__threads__queues__change_priority+0x44>
 8009fd6:	6403      	str	r3, [r0, #64]	; 0x40
 8009fd8:	6034      	str	r4, [r6, #0]
 8009fda:	6410      	str	r0, [r2, #64]	; 0x40
 8009fdc:	e7e6      	b.n	8009fac <system__bb__threads__queues__change_priority+0x28>
 8009fde:	6c24      	ldr	r4, [r4, #64]	; 0x40
 8009fe0:	2c00      	cmp	r4, #0
 8009fe2:	d0e3      	beq.n	8009fac <system__bb__threads__queues__change_priority+0x28>
 8009fe4:	6b63      	ldr	r3, [r4, #52]	; 0x34
 8009fe6:	4299      	cmp	r1, r3
 8009fe8:	dbe5      	blt.n	8009fb6 <system__bb__threads__queues__change_priority+0x32>
 8009fea:	e7df      	b.n	8009fac <system__bb__threads__queues__change_priority+0x28>
 8009fec:	200000b0 	.word	0x200000b0

08009ff0 <system__bb__threads__queues__insert_alarm>:
 8009ff0:	e92d 43d0 	stmdb	sp!, {r4, r6, r7, r8, r9, lr}
 8009ff4:	4606      	mov	r6, r0
 8009ff6:	4610      	mov	r0, r2
 8009ff8:	4614      	mov	r4, r2
 8009ffa:	460f      	mov	r7, r1
 8009ffc:	f7ff feba 	bl	8009d74 <system__bb__threads__get_cpu>
 800a000:	b240      	sxtb	r0, r0
 800a002:	f100 4380 	add.w	r3, r0, #1073741824	; 0x40000000
 800a006:	4a11      	ldr	r2, [pc, #68]	; (800a04c <system__bb__threads__queues__insert_alarm+0x5c>)
 800a008:	3b01      	subs	r3, #1
 800a00a:	f852 1023 	ldr.w	r1, [r2, r3, lsl #2]
 800a00e:	e9c4 6712 	strd	r6, r7, [r4, #72]	; 0x48
 800a012:	b1a9      	cbz	r1, 800a040 <system__bb__threads__queues__insert_alarm+0x50>
 800a014:	e9d1 8912 	ldrd	r8, r9, [r1, #72]	; 0x48
 800a018:	454f      	cmp	r7, r9
 800a01a:	bf08      	it	eq
 800a01c:	4546      	cmpeq	r6, r8
 800a01e:	d207      	bcs.n	800a030 <system__bb__threads__queues__insert_alarm+0x40>
 800a020:	e00e      	b.n	800a040 <system__bb__threads__queues__insert_alarm+0x50>
 800a022:	e9d3 8912 	ldrd	r8, r9, [r3, #72]	; 0x48
 800a026:	45b9      	cmp	r9, r7
 800a028:	bf08      	it	eq
 800a02a:	45b0      	cmpeq	r8, r6
 800a02c:	d203      	bcs.n	800a036 <system__bb__threads__queues__insert_alarm+0x46>
 800a02e:	4619      	mov	r1, r3
 800a030:	6d0b      	ldr	r3, [r1, #80]	; 0x50
 800a032:	2b00      	cmp	r3, #0
 800a034:	d1f5      	bne.n	800a022 <system__bb__threads__queues__insert_alarm+0x32>
 800a036:	6523      	str	r3, [r4, #80]	; 0x50
 800a038:	2000      	movs	r0, #0
 800a03a:	650c      	str	r4, [r1, #80]	; 0x50
 800a03c:	e8bd 83d0 	ldmia.w	sp!, {r4, r6, r7, r8, r9, pc}
 800a040:	6521      	str	r1, [r4, #80]	; 0x50
 800a042:	f842 4023 	str.w	r4, [r2, r3, lsl #2]
 800a046:	2001      	movs	r0, #1
 800a048:	e8bd 83d0 	ldmia.w	sp!, {r4, r6, r7, r8, r9, pc}
 800a04c:	200000b8 	.word	0x200000b8

0800a050 <system__bb__threads__queues__wakeup_expired_alarms>:
 800a050:	e92d 47f0 	stmdb	sp!, {r4, r5, r6, r7, r8, r9, sl, lr}
 800a054:	4604      	mov	r4, r0
 800a056:	460d      	mov	r5, r1
 800a058:	f8df a0dc 	ldr.w	sl, [pc, #220]	; 800a138 <system__bb__threads__queues__wakeup_expired_alarms+0xe8>
 800a05c:	f8df 90d4 	ldr.w	r9, [pc, #212]	; 800a134 <system__bb__threads__queues__wakeup_expired_alarms+0xe4>
 800a060:	f04f 36ff 	mov.w	r6, #4294967295
 800a064:	f04f 37ff 	mov.w	r7, #4294967295
 800a068:	f8da 8000 	ldr.w	r8, [sl]
 800a06c:	f1b8 0f00 	cmp.w	r8, #0
 800a070:	d03d      	beq.n	800a0ee <system__bb__threads__queues__wakeup_expired_alarms+0x9e>
 800a072:	e9d8 2312 	ldrd	r2, r3, [r8, #72]	; 0x48
 800a076:	429d      	cmp	r5, r3
 800a078:	bf08      	it	eq
 800a07a:	4294      	cmpeq	r4, r2
 800a07c:	d33f      	bcc.n	800a0fe <system__bb__threads__queues__wakeup_expired_alarms+0xae>
 800a07e:	f8d8 3050 	ldr.w	r3, [r8, #80]	; 0x50
 800a082:	2200      	movs	r2, #0
 800a084:	f8c8 2050 	str.w	r2, [r8, #80]	; 0x50
 800a088:	f888 2054 	strb.w	r2, [r8, #84]	; 0x54
 800a08c:	e9c8 6712 	strd	r6, r7, [r8, #72]	; 0x48
 800a090:	4640      	mov	r0, r8
 800a092:	f8ca 3000 	str.w	r3, [sl]
 800a096:	f7ff fe6d 	bl	8009d74 <system__bb__threads__get_cpu>
 800a09a:	b240      	sxtb	r0, r0
 800a09c:	f100 4080 	add.w	r0, r0, #1073741824	; 0x40000000
 800a0a0:	3801      	subs	r0, #1
 800a0a2:	f859 2020 	ldr.w	r2, [r9, r0, lsl #2]
 800a0a6:	4b23      	ldr	r3, [pc, #140]	; (800a134 <system__bb__threads__queues__wakeup_expired_alarms+0xe4>)
 800a0a8:	4590      	cmp	r8, r2
 800a0aa:	d0dd      	beq.n	800a068 <system__bb__threads__queues__wakeup_expired_alarms+0x18>
 800a0ac:	f853 2020 	ldr.w	r2, [r3, r0, lsl #2]
 800a0b0:	b362      	cbz	r2, 800a10c <system__bb__threads__queues__wakeup_expired_alarms+0xbc>
 800a0b2:	f8d8 1034 	ldr.w	r1, [r8, #52]	; 0x34
 800a0b6:	f853 2020 	ldr.w	r2, [r3, r0, lsl #2]
 800a0ba:	6b52      	ldr	r2, [r2, #52]	; 0x34
 800a0bc:	4291      	cmp	r1, r2
 800a0be:	dc25      	bgt.n	800a10c <system__bb__threads__queues__wakeup_expired_alarms+0xbc>
 800a0c0:	f853 2020 	ldr.w	r2, [r3, r0, lsl #2]
 800a0c4:	e007      	b.n	800a0d6 <system__bb__threads__queues__wakeup_expired_alarms+0x86>
 800a0c6:	4543      	cmp	r3, r8
 800a0c8:	d027      	beq.n	800a11a <system__bb__threads__queues__wakeup_expired_alarms+0xca>
 800a0ca:	6b58      	ldr	r0, [r3, #52]	; 0x34
 800a0cc:	f8d8 1034 	ldr.w	r1, [r8, #52]	; 0x34
 800a0d0:	4288      	cmp	r0, r1
 800a0d2:	db03      	blt.n	800a0dc <system__bb__threads__queues__wakeup_expired_alarms+0x8c>
 800a0d4:	461a      	mov	r2, r3
 800a0d6:	6c13      	ldr	r3, [r2, #64]	; 0x40
 800a0d8:	2b00      	cmp	r3, #0
 800a0da:	d1f4      	bne.n	800a0c6 <system__bb__threads__queues__wakeup_expired_alarms+0x76>
 800a0dc:	f8c8 3040 	str.w	r3, [r8, #64]	; 0x40
 800a0e0:	f8c2 8040 	str.w	r8, [r2, #64]	; 0x40
 800a0e4:	f8da 8000 	ldr.w	r8, [sl]
 800a0e8:	f1b8 0f00 	cmp.w	r8, #0
 800a0ec:	d1c1      	bne.n	800a072 <system__bb__threads__queues__wakeup_expired_alarms+0x22>
 800a0ee:	f04f 33ff 	mov.w	r3, #4294967295
 800a0f2:	f04f 32ff 	mov.w	r2, #4294967295
 800a0f6:	429d      	cmp	r5, r3
 800a0f8:	bf08      	it	eq
 800a0fa:	4294      	cmpeq	r4, r2
 800a0fc:	d2bf      	bcs.n	800a07e <system__bb__threads__queues__wakeup_expired_alarms+0x2e>
 800a0fe:	2001      	movs	r0, #1
 800a100:	f7ff f92c 	bl	800935c <system__bb__time__get_next_timeout>
 800a104:	e8bd 47f0 	ldmia.w	sp!, {r4, r5, r6, r7, r8, r9, sl, lr}
 800a108:	f7ff b9a2 	b.w	8009450 <system__bb__time__update_alarm>
 800a10c:	f853 2020 	ldr.w	r2, [r3, r0, lsl #2]
 800a110:	f843 8020 	str.w	r8, [r3, r0, lsl #2]
 800a114:	f8c8 2040 	str.w	r2, [r8, #64]	; 0x40
 800a118:	e7a6      	b.n	800a068 <system__bb__threads__queues__wakeup_expired_alarms+0x18>
 800a11a:	f8d8 3040 	ldr.w	r3, [r8, #64]	; 0x40
 800a11e:	6413      	str	r3, [r2, #64]	; 0x40
 800a120:	2b00      	cmp	r3, #0
 800a122:	d0db      	beq.n	800a0dc <system__bb__threads__queues__wakeup_expired_alarms+0x8c>
 800a124:	6b58      	ldr	r0, [r3, #52]	; 0x34
 800a126:	f8d8 1034 	ldr.w	r1, [r8, #52]	; 0x34
 800a12a:	4288      	cmp	r0, r1
 800a12c:	dbd6      	blt.n	800a0dc <system__bb__threads__queues__wakeup_expired_alarms+0x8c>
 800a12e:	461a      	mov	r2, r3
 800a130:	6c1b      	ldr	r3, [r3, #64]	; 0x40
 800a132:	e7f5      	b.n	800a120 <system__bb__threads__queues__wakeup_expired_alarms+0xd0>
 800a134:	200000b0 	.word	0x200000b0
 800a138:	200000b8 	.word	0x200000b8

0800a13c <system__bb__threads__queues__yield>:
 800a13c:	b538      	push	{r3, r4, r5, lr}
 800a13e:	4605      	mov	r5, r0
 800a140:	f7ff fe18 	bl	8009d74 <system__bb__threads__get_cpu>
 800a144:	6c2a      	ldr	r2, [r5, #64]	; 0x40
 800a146:	6b6b      	ldr	r3, [r5, #52]	; 0x34
 800a148:	b112      	cbz	r2, 800a150 <system__bb__threads__queues__yield+0x14>
 800a14a:	6b54      	ldr	r4, [r2, #52]	; 0x34
 800a14c:	429c      	cmp	r4, r3
 800a14e:	d000      	beq.n	800a152 <system__bb__threads__queues__yield+0x16>
 800a150:	bd38      	pop	{r3, r4, r5, pc}
 800a152:	b243      	sxtb	r3, r0
 800a154:	4909      	ldr	r1, [pc, #36]	; (800a17c <system__bb__threads__queues__yield+0x40>)
 800a156:	f103 4380 	add.w	r3, r3, #1073741824	; 0x40000000
 800a15a:	3b01      	subs	r3, #1
 800a15c:	f841 2023 	str.w	r2, [r1, r3, lsl #2]
 800a160:	f851 2023 	ldr.w	r2, [r1, r3, lsl #2]
 800a164:	e003      	b.n	800a16e <system__bb__threads__queues__yield+0x32>
 800a166:	6b59      	ldr	r1, [r3, #52]	; 0x34
 800a168:	428c      	cmp	r4, r1
 800a16a:	d103      	bne.n	800a174 <system__bb__threads__queues__yield+0x38>
 800a16c:	461a      	mov	r2, r3
 800a16e:	6c13      	ldr	r3, [r2, #64]	; 0x40
 800a170:	2b00      	cmp	r3, #0
 800a172:	d1f8      	bne.n	800a166 <system__bb__threads__queues__yield+0x2a>
 800a174:	642b      	str	r3, [r5, #64]	; 0x40
 800a176:	6415      	str	r5, [r2, #64]	; 0x40
 800a178:	bd38      	pop	{r3, r4, r5, pc}
 800a17a:	bf00      	nop
 800a17c:	200000b0 	.word	0x200000b0
	...

0800a200 <__vectors>:
 800a200:	00000000 	.word	0x00000000
 800a204:	0800a391 	.word	0x0800a391
 800a208:	0800a391 	.word	0x0800a391
 800a20c:	0800a391 	.word	0x0800a391
 800a210:	0800a391 	.word	0x0800a391
 800a214:	0800a391 	.word	0x0800a391
 800a218:	0800a391 	.word	0x0800a391
 800a21c:	0800a391 	.word	0x0800a391
 800a220:	0800a391 	.word	0x0800a391
 800a224:	0800a391 	.word	0x0800a391
 800a228:	0800a391 	.word	0x0800a391
 800a22c:	08009a21 	.word	0x08009a21
 800a230:	0800a391 	.word	0x0800a391
 800a234:	0800a391 	.word	0x0800a391
 800a238:	080099f9 	.word	0x080099f9
 800a23c:	08009a29 	.word	0x08009a29
 800a240:	080099a5 	.word	0x080099a5
 800a244:	080099a5 	.word	0x080099a5
 800a248:	080099a5 	.word	0x080099a5
 800a24c:	080099a5 	.word	0x080099a5
 800a250:	080099a5 	.word	0x080099a5
 800a254:	080099a5 	.word	0x080099a5
 800a258:	080099a5 	.word	0x080099a5
 800a25c:	080099a5 	.word	0x080099a5
 800a260:	080099a5 	.word	0x080099a5
 800a264:	080099a5 	.word	0x080099a5
 800a268:	080099a5 	.word	0x080099a5
 800a26c:	080099a5 	.word	0x080099a5
 800a270:	080099a5 	.word	0x080099a5
 800a274:	080099a5 	.word	0x080099a5
 800a278:	080099a5 	.word	0x080099a5
 800a27c:	080099a5 	.word	0x080099a5
 800a280:	080099a5 	.word	0x080099a5
 800a284:	080099a5 	.word	0x080099a5
 800a288:	080099a5 	.word	0x080099a5
 800a28c:	080099a5 	.word	0x080099a5
 800a290:	080099a5 	.word	0x080099a5
 800a294:	080099a5 	.word	0x080099a5
 800a298:	080099a5 	.word	0x080099a5
 800a29c:	080099a5 	.word	0x080099a5
 800a2a0:	080099a5 	.word	0x080099a5
 800a2a4:	080099a5 	.word	0x080099a5
 800a2a8:	080099a5 	.word	0x080099a5
 800a2ac:	080099a5 	.word	0x080099a5
 800a2b0:	080099a5 	.word	0x080099a5
 800a2b4:	080099a5 	.word	0x080099a5
 800a2b8:	080099a5 	.word	0x080099a5
 800a2bc:	080099a5 	.word	0x080099a5
 800a2c0:	080099a5 	.word	0x080099a5
 800a2c4:	080099a5 	.word	0x080099a5
 800a2c8:	080099a5 	.word	0x080099a5
 800a2cc:	080099a5 	.word	0x080099a5
 800a2d0:	080099a5 	.word	0x080099a5
 800a2d4:	080099a5 	.word	0x080099a5
 800a2d8:	080099a5 	.word	0x080099a5
 800a2dc:	080099a5 	.word	0x080099a5
 800a2e0:	080099a5 	.word	0x080099a5
 800a2e4:	080099a5 	.word	0x080099a5
 800a2e8:	080099a5 	.word	0x080099a5
 800a2ec:	080099a5 	.word	0x080099a5
 800a2f0:	080099a5 	.word	0x080099a5
 800a2f4:	080099a5 	.word	0x080099a5
 800a2f8:	080099a5 	.word	0x080099a5
 800a2fc:	080099a5 	.word	0x080099a5
 800a300:	080099a5 	.word	0x080099a5
 800a304:	080099a5 	.word	0x080099a5
 800a308:	080099a5 	.word	0x080099a5
 800a30c:	080099a5 	.word	0x080099a5
 800a310:	080099a5 	.word	0x080099a5
 800a314:	080099a5 	.word	0x080099a5
 800a318:	080099a5 	.word	0x080099a5
 800a31c:	080099a5 	.word	0x080099a5
 800a320:	080099a5 	.word	0x080099a5
 800a324:	080099a5 	.word	0x080099a5
 800a328:	080099a5 	.word	0x080099a5
 800a32c:	080099a5 	.word	0x080099a5
 800a330:	080099a5 	.word	0x080099a5
 800a334:	080099a5 	.word	0x080099a5
 800a338:	080099a5 	.word	0x080099a5
 800a33c:	080099a5 	.word	0x080099a5
 800a340:	080099a5 	.word	0x080099a5
 800a344:	080099a5 	.word	0x080099a5
 800a348:	080099a5 	.word	0x080099a5
 800a34c:	080099a5 	.word	0x080099a5
 800a350:	080099a5 	.word	0x080099a5
 800a354:	080099a5 	.word	0x080099a5
 800a358:	080099a5 	.word	0x080099a5
 800a35c:	080099a5 	.word	0x080099a5
 800a360:	080099a5 	.word	0x080099a5
 800a364:	080099a5 	.word	0x080099a5
 800a368:	080099a5 	.word	0x080099a5
 800a36c:	080099a5 	.word	0x080099a5
 800a370:	080099a5 	.word	0x080099a5
 800a374:	080099a5 	.word	0x080099a5
 800a378:	080099a5 	.word	0x080099a5
 800a37c:	080099a5 	.word	0x080099a5
 800a380:	080099a5 	.word	0x080099a5
 800a384:	080099a5 	.word	0x080099a5
 800a388:	e7fe      	b.n	800a388 <__vectors+0x188>
 800a38a:	e7fe      	b.n	800a38a <__vectors+0x18a>
 800a38c:	e7fe      	b.n	800a38c <__vectors+0x18c>
 800a38e:	e7fe      	b.n	800a38e <__vectors+0x18e>

0800a390 <fault>:
 800a390:	e7fe      	b.n	800a390 <fault>
 800a392:	bf00      	nop

0800a394 <_start_rom>:
 800a394:	f000 f836 	bl	800a404 <_stm32_start_common>
 800a398:	f240 0000 	movw	r0, #0
 800a39c:	f2c2 0000 	movt	r0, #8192	; 0x2000
 800a3a0:	f240 0134 	movw	r1, #52	; 0x34
 800a3a4:	f24c 1254 	movw	r2, #49492	; 0xc154
 800a3a8:	f6c0 0200 	movt	r2, #2048	; 0x800
 800a3ac:	b129      	cbz	r1, 800a3ba <_start_rom+0x26>
 800a3ae:	f852 4b04 	ldr.w	r4, [r2], #4
 800a3b2:	f840 4b04 	str.w	r4, [r0], #4
 800a3b6:	3901      	subs	r1, #1
 800a3b8:	d1f9      	bne.n	800a3ae <_start_rom+0x1a>
 800a3ba:	f240 00d0 	movw	r0, #208	; 0xd0
 800a3be:	f2c2 0000 	movt	r0, #8192	; 0x2000
 800a3c2:	f240 0100 	movw	r1, #0
 800a3c6:	f24c 2224 	movw	r2, #49700	; 0xc224
 800a3ca:	f6c0 0200 	movt	r2, #2048	; 0x800
 800a3ce:	b129      	cbz	r1, 800a3dc <_start_rom+0x48>
 800a3d0:	f852 4b04 	ldr.w	r4, [r2], #4
 800a3d4:	f840 4b04 	str.w	r4, [r0], #4
 800a3d8:	3901      	subs	r1, #1
 800a3da:	d1f9      	bne.n	800a3d0 <_start_rom+0x3c>
 800a3dc:	f240 00d0 	movw	r0, #208	; 0xd0
 800a3e0:	f2c2 0000 	movt	r0, #8192	; 0x2000
 800a3e4:	f240 513c 	movw	r1, #1340	; 0x53c
 800a3e8:	f04f 0200 	mov.w	r2, #0
 800a3ec:	b119      	cbz	r1, 800a3f6 <_start_rom+0x62>
 800a3ee:	f840 2b04 	str.w	r2, [r0], #4
 800a3f2:	3901      	subs	r1, #1
 800a3f4:	d1fb      	bne.n	800a3ee <_start_rom+0x5a>
 800a3f6:	f000 f8eb 	bl	800a5d0 <_ada_setup_pll>
 800a3fa:	f7f5 ff99 	bl	8000330 <main>
 800a3fe:	f000 f8df 	bl	800a5c0 <_exit>

0800a402 <hang>:
 800a402:	e7fe      	b.n	800a402 <hang>

0800a404 <_stm32_start_common>:
 800a404:	f64e 5088 	movw	r0, #60808	; 0xed88
 800a408:	f2ce 0000 	movt	r0, #57344	; 0xe000
 800a40c:	6801      	ldr	r1, [r0, #0]
 800a40e:	f441 0170 	orr.w	r1, r1, #15728640	; 0xf00000
 800a412:	6001      	str	r1, [r0, #0]
 800a414:	f3bf 8f4f 	dsb	sy
 800a418:	f3bf 8f6f 	isb	sy
 800a41c:	4829      	ldr	r0, [pc, #164]	; (800a4c4 <end+0x4>)
 800a41e:	6801      	ldr	r1, [r0, #0]
 800a420:	f640 72ff 	movw	r2, #4095	; 0xfff
 800a424:	ea01 0102 	and.w	r1, r1, r2
 800a428:	f240 4249 	movw	r2, #1097	; 0x449
 800a42c:	4291      	cmp	r1, r2
 800a42e:	d147      	bne.n	800a4c0 <end>

0800a430 <dcache_invalidate>:
 800a430:	f04f 0100 	mov.w	r1, #0
 800a434:	4824      	ldr	r0, [pc, #144]	; (800a4c8 <end+0x8>)
 800a436:	6001      	str	r1, [r0, #0]
 800a438:	f3bf 8f4f 	dsb	sy
 800a43c:	4823      	ldr	r0, [pc, #140]	; (800a4cc <end+0xc>)
 800a43e:	6802      	ldr	r2, [r0, #0]
 800a440:	f002 0107 	and.w	r1, r2, #7
 800a444:	f101 0704 	add.w	r7, r1, #4
 800a448:	f3c2 04c9 	ubfx	r4, r2, #3, #10
 800a44c:	f3c2 324e 	ubfx	r2, r2, #13, #15
 800a450:	fab4 f684 	clz	r6, r4
 800a454:	481e      	ldr	r0, [pc, #120]	; (800a4d0 <end+0x10>)

0800a456 <inv_loop1>:
 800a456:	4621      	mov	r1, r4
 800a458:	fa12 f807 	lsls.w	r8, r2, r7

0800a45c <inv_loop2>:
 800a45c:	fa11 f306 	lsls.w	r3, r1, r6
 800a460:	ea53 0308 	orrs.w	r3, r3, r8
 800a464:	6003      	str	r3, [r0, #0]
 800a466:	3901      	subs	r1, #1
 800a468:	daf8      	bge.n	800a45c <inv_loop2>
 800a46a:	3a01      	subs	r2, #1
 800a46c:	daf3      	bge.n	800a456 <inv_loop1>
 800a46e:	f3bf 8f4f 	dsb	sy
 800a472:	f3bf 8f6f 	isb	sy

0800a476 <icache_invalidate>:
 800a476:	f04f 0100 	mov.w	r1, #0
 800a47a:	4816      	ldr	r0, [pc, #88]	; (800a4d4 <end+0x14>)
 800a47c:	6001      	str	r1, [r0, #0]
 800a47e:	f3bf 8f4f 	dsb	sy
 800a482:	f3bf 8f6f 	isb	sy
 800a486:	4814      	ldr	r0, [pc, #80]	; (800a4d8 <end+0x18>)
 800a488:	6801      	ldr	r1, [r0, #0]
 800a48a:	f441 3180 	orr.w	r1, r1, #65536	; 0x10000
 800a48e:	f441 3100 	orr.w	r1, r1, #131072	; 0x20000
 800a492:	6001      	str	r1, [r0, #0]
 800a494:	f3bf 8f4f 	dsb	sy
 800a498:	f3bf 8f6f 	isb	sy
 800a49c:	f3bf 8f4f 	dsb	sy
 800a4a0:	f3bf 8f6f 	isb	sy
 800a4a4:	480d      	ldr	r0, [pc, #52]	; (800a4dc <end+0x1c>)
 800a4a6:	6801      	ldr	r1, [r0, #0]
 800a4a8:	f041 0101 	orr.w	r1, r1, #1
 800a4ac:	6001      	str	r1, [r0, #0]
 800a4ae:	480c      	ldr	r0, [pc, #48]	; (800a4e0 <end+0x20>)
 800a4b0:	6801      	ldr	r1, [r0, #0]
 800a4b2:	f041 0101 	orr.w	r1, r1, #1
 800a4b6:	6001      	str	r1, [r0, #0]
 800a4b8:	f3bf 8f4f 	dsb	sy
 800a4bc:	f3bf 8f6f 	isb	sy

0800a4c0 <end>:
 800a4c0:	4770      	bx	lr
 800a4c2:	0000      	.short	0x0000
 800a4c4:	e0042000 	.word	0xe0042000
 800a4c8:	e000ed84 	.word	0xe000ed84
 800a4cc:	e000ed80 	.word	0xe000ed80
 800a4d0:	e000ef60 	.word	0xe000ef60
 800a4d4:	e000ef50 	.word	0xe000ef50
 800a4d8:	e000ed14 	.word	0xe000ed14
 800a4dc:	e000ef90 	.word	0xe000ef90
 800a4e0:	e000ef94 	.word	0xe000ef94

0800a4e4 <ada__text_io___elabb>:
 800a4e4:	4b02      	ldr	r3, [pc, #8]	; (800a4f0 <ada__text_io___elabb+0xc>)
 800a4e6:	781b      	ldrb	r3, [r3, #0]
 800a4e8:	b103      	cbz	r3, 800a4ec <ada__text_io___elabb+0x8>
 800a4ea:	4770      	bx	lr
 800a4ec:	f000 b9a8 	b.w	800a840 <system__text_io__initialize>
 800a4f0:	200000ca 	.word	0x200000ca

0800a4f4 <system__img_uns__set_image_unsigned>:
 800a4f4:	b5f0      	push	{r4, r5, r6, r7, lr}
 800a4f6:	2809      	cmp	r0, #9
 800a4f8:	b083      	sub	sp, #12
 800a4fa:	4601      	mov	r1, r0
 800a4fc:	681d      	ldr	r5, [r3, #0]
 800a4fe:	d806      	bhi.n	800a50e <system__img_uns__set_image_unsigned+0x1a>
 800a500:	9b08      	ldr	r3, [sp, #32]
 800a502:	3130      	adds	r1, #48	; 0x30
 800a504:	1c58      	adds	r0, r3, #1
 800a506:	1b45      	subs	r5, r0, r5
 800a508:	5551      	strb	r1, [r2, r5]
 800a50a:	b003      	add	sp, #12
 800a50c:	bdf0      	pop	{r4, r5, r6, r7, pc}
 800a50e:	9908      	ldr	r1, [sp, #32]
 800a510:	4f09      	ldr	r7, [pc, #36]	; (800a538 <system__img_uns__set_image_unsigned+0x44>)
 800a512:	9100      	str	r1, [sp, #0]
 800a514:	fba7 1700 	umull	r1, r7, r7, r0
 800a518:	08ff      	lsrs	r7, r7, #3
 800a51a:	4604      	mov	r4, r0
 800a51c:	4638      	mov	r0, r7
 800a51e:	4616      	mov	r6, r2
 800a520:	f7ff ffe8 	bl	800a4f4 <system__img_uns__set_image_unsigned>
 800a524:	eb07 0187 	add.w	r1, r7, r7, lsl #2
 800a528:	3001      	adds	r0, #1
 800a52a:	eba4 0141 	sub.w	r1, r4, r1, lsl #1
 800a52e:	1b45      	subs	r5, r0, r5
 800a530:	3130      	adds	r1, #48	; 0x30
 800a532:	5571      	strb	r1, [r6, r5]
 800a534:	b003      	add	sp, #12
 800a536:	bdf0      	pop	{r4, r5, r6, r7, pc}
 800a538:	cccccccd 	.word	0xcccccccd

0800a53c <system__img_uns__image_unsigned>:
 800a53c:	b530      	push	{r4, r5, lr}
 800a53e:	6819      	ldr	r1, [r3, #0]
 800a540:	b083      	sub	sp, #12
 800a542:	f1c1 0101 	rsb	r1, r1, #1
 800a546:	2520      	movs	r5, #32
 800a548:	2401      	movs	r4, #1
 800a54a:	5455      	strb	r5, [r2, r1]
 800a54c:	9400      	str	r4, [sp, #0]
 800a54e:	f7ff ffd1 	bl	800a4f4 <system__img_uns__set_image_unsigned>
 800a552:	b003      	add	sp, #12
 800a554:	bd30      	pop	{r4, r5, pc}
 800a556:	bf00      	nop

0800a558 <memcpy>:
 800a558:	ea40 0301 	orr.w	r3, r0, r1
 800a55c:	079b      	lsls	r3, r3, #30
 800a55e:	b4f0      	push	{r4, r5, r6, r7}
 800a560:	d11c      	bne.n	800a59c <memcpy+0x44>
 800a562:	2a03      	cmp	r2, #3
 800a564:	d91a      	bls.n	800a59c <memcpy+0x44>
 800a566:	4605      	mov	r5, r0
 800a568:	1f13      	subs	r3, r2, #4
 800a56a:	460c      	mov	r4, r1
 800a56c:	f023 0703 	bic.w	r7, r3, #3
 800a570:	3104      	adds	r1, #4
 800a572:	4439      	add	r1, r7
 800a574:	f854 6b04 	ldr.w	r6, [r4], #4
 800a578:	428c      	cmp	r4, r1
 800a57a:	f845 6b04 	str.w	r6, [r5], #4
 800a57e:	d1f9      	bne.n	800a574 <memcpy+0x1c>
 800a580:	1d03      	adds	r3, r0, #4
 800a582:	f002 0203 	and.w	r2, r2, #3
 800a586:	443b      	add	r3, r7
 800a588:	b132      	cbz	r2, 800a598 <memcpy+0x40>
 800a58a:	440a      	add	r2, r1
 800a58c:	f811 4b01 	ldrb.w	r4, [r1], #1
 800a590:	4291      	cmp	r1, r2
 800a592:	f803 4b01 	strb.w	r4, [r3], #1
 800a596:	d1f9      	bne.n	800a58c <memcpy+0x34>
 800a598:	bcf0      	pop	{r4, r5, r6, r7}
 800a59a:	4770      	bx	lr
 800a59c:	4603      	mov	r3, r0
 800a59e:	e7f3      	b.n	800a588 <memcpy+0x30>

0800a5a0 <system__parameters__adjust_storage_size>:
 800a5a0:	f1b0 4f00 	cmp.w	r0, #2147483648	; 0x80000000
 800a5a4:	bf08      	it	eq
 800a5a6:	f44f 5080 	moveq.w	r0, #4096	; 0x1000
 800a5aa:	4770      	bx	lr

0800a5ac <system__secondary_stack__ss_init>:
 800a5ac:	3908      	subs	r1, #8
 800a5ae:	2301      	movs	r3, #1
 800a5b0:	6041      	str	r1, [r0, #4]
 800a5b2:	6003      	str	r3, [r0, #0]
 800a5b4:	4770      	bx	lr
 800a5b6:	bf00      	nop

0800a5b8 <system__assertions__raise_assert_failure>:
 800a5b8:	b508      	push	{r3, lr}
 800a5ba:	2100      	movs	r1, #0
 800a5bc:	f7f5 fec6 	bl	800034c <__gnat_last_chance_handler>

0800a5c0 <_exit>:
 800a5c0:	4b01      	ldr	r3, [pc, #4]	; (800a5c8 <_exit+0x8>)
 800a5c2:	4a02      	ldr	r2, [pc, #8]	; (800a5cc <_exit+0xc>)
 800a5c4:	601a      	str	r2, [r3, #0]
 800a5c6:	e7fe      	b.n	800a5c6 <_exit+0x6>
 800a5c8:	e000ed0c 	.word	0xe000ed0c
 800a5cc:	05fa0004 	.word	0x05fa0004

0800a5d0 <_ada_setup_pll>:
 800a5d0:	b530      	push	{r4, r5, lr}
 800a5d2:	4c96      	ldr	r4, [pc, #600]	; (800a82c <_ada_setup_pll+0x25c>)
 800a5d4:	b085      	sub	sp, #20
 800a5d6:	6823      	ldr	r3, [r4, #0]
 800a5d8:	4d95      	ldr	r5, [pc, #596]	; (800a830 <_ada_setup_pll+0x260>)
 800a5da:	f043 0301 	orr.w	r3, r3, #1
 800a5de:	6023      	str	r3, [r4, #0]
 800a5e0:	9a01      	ldr	r2, [sp, #4]
 800a5e2:	4994      	ldr	r1, [pc, #592]	; (800a834 <_ada_setup_pll+0x264>)
 800a5e4:	f36f 0201 	bfc	r2, #0, #2
 800a5e8:	9201      	str	r2, [sp, #4]
 800a5ea:	9a01      	ldr	r2, [sp, #4]
 800a5ec:	4b92      	ldr	r3, [pc, #584]	; (800a838 <_ada_setup_pll+0x268>)
 800a5ee:	f36f 0283 	bfc	r2, #2, #2
 800a5f2:	9201      	str	r2, [sp, #4]
 800a5f4:	9a01      	ldr	r2, [sp, #4]
 800a5f6:	f36f 1207 	bfc	r2, #4, #4
 800a5fa:	9201      	str	r2, [sp, #4]
 800a5fc:	9a01      	ldr	r2, [sp, #4]
 800a5fe:	f36f 220d 	bfc	r2, #8, #6
 800a602:	9201      	str	r2, [sp, #4]
 800a604:	9a01      	ldr	r2, [sp, #4]
 800a606:	f36f 328f 	bfc	r2, #14, #2
 800a60a:	9201      	str	r2, [sp, #4]
 800a60c:	9a01      	ldr	r2, [sp, #4]
 800a60e:	f36f 4210 	bfc	r2, #16, #1
 800a612:	9201      	str	r2, [sp, #4]
 800a614:	9a01      	ldr	r2, [sp, #4]
 800a616:	f36f 4251 	bfc	r2, #17, #1
 800a61a:	9201      	str	r2, [sp, #4]
 800a61c:	9a01      	ldr	r2, [sp, #4]
 800a61e:	f36f 4295 	bfc	r2, #18, #4
 800a622:	9201      	str	r2, [sp, #4]
 800a624:	9a01      	ldr	r2, [sp, #4]
 800a626:	f36f 5296 	bfc	r2, #22, #1
 800a62a:	9201      	str	r2, [sp, #4]
 800a62c:	9a01      	ldr	r2, [sp, #4]
 800a62e:	f36f 52d7 	bfc	r2, #23, #1
 800a632:	9201      	str	r2, [sp, #4]
 800a634:	9a01      	ldr	r2, [sp, #4]
 800a636:	f36f 621a 	bfc	r2, #24, #3
 800a63a:	9201      	str	r2, [sp, #4]
 800a63c:	9a01      	ldr	r2, [sp, #4]
 800a63e:	f36f 62df 	bfc	r2, #27, #5
 800a642:	9201      	str	r2, [sp, #4]
 800a644:	9a01      	ldr	r2, [sp, #4]
 800a646:	602a      	str	r2, [r5, #0]
 800a648:	6822      	ldr	r2, [r4, #0]
 800a64a:	f36f 4210 	bfc	r2, #16, #1
 800a64e:	6022      	str	r2, [r4, #0]
 800a650:	6822      	ldr	r2, [r4, #0]
 800a652:	f36f 42d3 	bfc	r2, #19, #1
 800a656:	6022      	str	r2, [r4, #0]
 800a658:	6822      	ldr	r2, [r4, #0]
 800a65a:	f36f 6218 	bfc	r2, #24, #1
 800a65e:	6022      	str	r2, [r4, #0]
 800a660:	6822      	ldr	r2, [r4, #0]
 800a662:	f36f 4292 	bfc	r2, #18, #1
 800a666:	6022      	str	r2, [r4, #0]
 800a668:	9a00      	ldr	r2, [sp, #0]
 800a66a:	f36f 0200 	bfc	r2, #0, #1
 800a66e:	9200      	str	r2, [sp, #0]
 800a670:	9a00      	ldr	r2, [sp, #0]
 800a672:	f36f 0241 	bfc	r2, #1, #1
 800a676:	9200      	str	r2, [sp, #0]
 800a678:	9a00      	ldr	r2, [sp, #0]
 800a67a:	f36f 0282 	bfc	r2, #2, #1
 800a67e:	9200      	str	r2, [sp, #0]
 800a680:	9a00      	ldr	r2, [sp, #0]
 800a682:	f36f 02c3 	bfc	r2, #3, #1
 800a686:	9200      	str	r2, [sp, #0]
 800a688:	9a00      	ldr	r2, [sp, #0]
 800a68a:	f36f 1204 	bfc	r2, #4, #1
 800a68e:	9200      	str	r2, [sp, #0]
 800a690:	9a00      	ldr	r2, [sp, #0]
 800a692:	f36f 1246 	bfc	r2, #5, #2
 800a696:	9200      	str	r2, [sp, #0]
 800a698:	9a00      	ldr	r2, [sp, #0]
 800a69a:	f36f 12c7 	bfc	r2, #7, #1
 800a69e:	9200      	str	r2, [sp, #0]
 800a6a0:	9a00      	ldr	r2, [sp, #0]
 800a6a2:	f36f 2208 	bfc	r2, #8, #1
 800a6a6:	9200      	str	r2, [sp, #0]
 800a6a8:	9a00      	ldr	r2, [sp, #0]
 800a6aa:	f36f 2249 	bfc	r2, #9, #1
 800a6ae:	9200      	str	r2, [sp, #0]
 800a6b0:	9a00      	ldr	r2, [sp, #0]
 800a6b2:	f36f 228a 	bfc	r2, #10, #1
 800a6b6:	9200      	str	r2, [sp, #0]
 800a6b8:	9a00      	ldr	r2, [sp, #0]
 800a6ba:	f36f 22cb 	bfc	r2, #11, #1
 800a6be:	9200      	str	r2, [sp, #0]
 800a6c0:	9a00      	ldr	r2, [sp, #0]
 800a6c2:	f36f 320c 	bfc	r2, #12, #1
 800a6c6:	9200      	str	r2, [sp, #0]
 800a6c8:	9a00      	ldr	r2, [sp, #0]
 800a6ca:	f36f 324f 	bfc	r2, #13, #3
 800a6ce:	9200      	str	r2, [sp, #0]
 800a6d0:	9a00      	ldr	r2, [sp, #0]
 800a6d2:	f36f 4210 	bfc	r2, #16, #1
 800a6d6:	9200      	str	r2, [sp, #0]
 800a6d8:	9a00      	ldr	r2, [sp, #0]
 800a6da:	f36f 4251 	bfc	r2, #17, #1
 800a6de:	9200      	str	r2, [sp, #0]
 800a6e0:	9a00      	ldr	r2, [sp, #0]
 800a6e2:	f36f 4292 	bfc	r2, #18, #1
 800a6e6:	9200      	str	r2, [sp, #0]
 800a6e8:	9a00      	ldr	r2, [sp, #0]
 800a6ea:	f36f 42d3 	bfc	r2, #19, #1
 800a6ee:	9200      	str	r2, [sp, #0]
 800a6f0:	9a00      	ldr	r2, [sp, #0]
 800a6f2:	f36f 5214 	bfc	r2, #20, #1
 800a6f6:	9200      	str	r2, [sp, #0]
 800a6f8:	9a00      	ldr	r2, [sp, #0]
 800a6fa:	f36f 5256 	bfc	r2, #21, #2
 800a6fe:	9200      	str	r2, [sp, #0]
 800a700:	9a00      	ldr	r2, [sp, #0]
 800a702:	f36f 52d7 	bfc	r2, #23, #1
 800a706:	9200      	str	r2, [sp, #0]
 800a708:	9a00      	ldr	r2, [sp, #0]
 800a70a:	f36f 621f 	bfc	r2, #24, #8
 800a70e:	9200      	str	r2, [sp, #0]
 800a710:	9a00      	ldr	r2, [sp, #0]
 800a712:	600a      	str	r2, [r1, #0]
 800a714:	681a      	ldr	r2, [r3, #0]
 800a716:	f042 0220 	orr.w	r2, r2, #32
 800a71a:	601a      	str	r2, [r3, #0]
 800a71c:	681a      	ldr	r2, [r3, #0]
 800a71e:	f042 0201 	orr.w	r2, r2, #1
 800a722:	601a      	str	r2, [r3, #0]
 800a724:	f000 f978 	bl	800aa18 <system__bb__mcu_parameters__pwr_initialize>
 800a728:	6823      	ldr	r3, [r4, #0]
 800a72a:	f443 3380 	orr.w	r3, r3, #65536	; 0x10000
 800a72e:	6023      	str	r3, [r4, #0]
 800a730:	6823      	ldr	r3, [r4, #0]
 800a732:	f36f 4392 	bfc	r3, #18, #1
 800a736:	6023      	str	r3, [r4, #0]
 800a738:	6823      	ldr	r3, [r4, #0]
 800a73a:	039a      	lsls	r2, r3, #14
 800a73c:	d5fc      	bpl.n	800a738 <_ada_setup_pll+0x168>
 800a73e:	6823      	ldr	r3, [r4, #0]
 800a740:	2207      	movs	r2, #7
 800a742:	f36f 6318 	bfc	r3, #24, #1
 800a746:	6023      	str	r3, [r4, #0]
 800a748:	682b      	ldr	r3, [r5, #0]
 800a74a:	f443 3380 	orr.w	r3, r3, #65536	; 0x10000
 800a74e:	602b      	str	r3, [r5, #0]
 800a750:	682b      	ldr	r3, [r5, #0]
 800a752:	f362 4395 	bfi	r3, r2, #18, #4
 800a756:	602b      	str	r3, [r5, #0]
 800a758:	6823      	ldr	r3, [r4, #0]
 800a75a:	f043 7380 	orr.w	r3, r3, #16777216	; 0x1000000
 800a75e:	6023      	str	r3, [r4, #0]
 800a760:	6823      	ldr	r3, [r4, #0]
 800a762:	019b      	lsls	r3, r3, #6
 800a764:	d5fc      	bpl.n	800a760 <_ada_setup_pll+0x190>
 800a766:	9b03      	ldr	r3, [sp, #12]
 800a768:	2202      	movs	r2, #2
 800a76a:	f362 0302 	bfi	r3, r2, #0, #3
 800a76e:	9303      	str	r3, [sp, #12]
 800a770:	9b03      	ldr	r3, [sp, #12]
 800a772:	4932      	ldr	r1, [pc, #200]	; (800a83c <_ada_setup_pll+0x26c>)
 800a774:	f36f 03c3 	bfc	r3, #3, #1
 800a778:	9303      	str	r3, [sp, #12]
 800a77a:	9b03      	ldr	r3, [sp, #12]
 800a77c:	f043 0310 	orr.w	r3, r3, #16
 800a780:	9303      	str	r3, [sp, #12]
 800a782:	9b03      	ldr	r3, [sp, #12]
 800a784:	f043 0320 	orr.w	r3, r3, #32
 800a788:	9303      	str	r3, [sp, #12]
 800a78a:	9b03      	ldr	r3, [sp, #12]
 800a78c:	f36f 139f 	bfc	r3, #6, #26
 800a790:	9303      	str	r3, [sp, #12]
 800a792:	9b03      	ldr	r3, [sp, #12]
 800a794:	600b      	str	r3, [r1, #0]
 800a796:	9b02      	ldr	r3, [sp, #8]
 800a798:	f362 0301 	bfi	r3, r2, #0, #2
 800a79c:	9302      	str	r3, [sp, #8]
 800a79e:	9b02      	ldr	r3, [sp, #8]
 800a7a0:	f36f 0383 	bfc	r3, #2, #2
 800a7a4:	9302      	str	r3, [sp, #8]
 800a7a6:	9b02      	ldr	r3, [sp, #8]
 800a7a8:	f36f 1307 	bfc	r3, #4, #4
 800a7ac:	9302      	str	r3, [sp, #8]
 800a7ae:	9b02      	ldr	r3, [sp, #8]
 800a7b0:	f36f 230d 	bfc	r3, #8, #6
 800a7b4:	9302      	str	r3, [sp, #8]
 800a7b6:	9a02      	ldr	r2, [sp, #8]
 800a7b8:	9b02      	ldr	r3, [sp, #8]
 800a7ba:	f3c3 2305 	ubfx	r3, r3, #8, #6
 800a7be:	f023 0307 	bic.w	r3, r3, #7
 800a7c2:	f043 0304 	orr.w	r3, r3, #4
 800a7c6:	f363 220d 	bfi	r2, r3, #8, #6
 800a7ca:	9202      	str	r2, [sp, #8]
 800a7cc:	9b02      	ldr	r3, [sp, #8]
 800a7ce:	9a02      	ldr	r2, [sp, #8]
 800a7d0:	f3c2 2202 	ubfx	r2, r2, #8, #3
 800a7d4:	f362 230d 	bfi	r3, r2, #8, #6
 800a7d8:	9302      	str	r3, [sp, #8]
 800a7da:	9b02      	ldr	r3, [sp, #8]
 800a7dc:	f36f 338f 	bfc	r3, #14, #2
 800a7e0:	9302      	str	r3, [sp, #8]
 800a7e2:	9b02      	ldr	r3, [sp, #8]
 800a7e4:	f36f 4310 	bfc	r3, #16, #1
 800a7e8:	9302      	str	r3, [sp, #8]
 800a7ea:	9b02      	ldr	r3, [sp, #8]
 800a7ec:	f36f 4351 	bfc	r3, #17, #1
 800a7f0:	9302      	str	r3, [sp, #8]
 800a7f2:	9b02      	ldr	r3, [sp, #8]
 800a7f4:	f36f 4395 	bfc	r3, #18, #4
 800a7f8:	9302      	str	r3, [sp, #8]
 800a7fa:	9b02      	ldr	r3, [sp, #8]
 800a7fc:	f36f 5396 	bfc	r3, #22, #1
 800a800:	9302      	str	r3, [sp, #8]
 800a802:	9b02      	ldr	r3, [sp, #8]
 800a804:	f36f 53d7 	bfc	r3, #23, #1
 800a808:	9302      	str	r3, [sp, #8]
 800a80a:	9b02      	ldr	r3, [sp, #8]
 800a80c:	f36f 631a 	bfc	r3, #24, #3
 800a810:	9302      	str	r3, [sp, #8]
 800a812:	9b02      	ldr	r3, [sp, #8]
 800a814:	f36f 63df 	bfc	r3, #27, #5
 800a818:	9302      	str	r3, [sp, #8]
 800a81a:	9b02      	ldr	r3, [sp, #8]
 800a81c:	602b      	str	r3, [r5, #0]
 800a81e:	682b      	ldr	r3, [r5, #0]
 800a820:	f003 030c 	and.w	r3, r3, #12
 800a824:	2b08      	cmp	r3, #8
 800a826:	d1fa      	bne.n	800a81e <_ada_setup_pll+0x24e>
 800a828:	b005      	add	sp, #20
 800a82a:	bd30      	pop	{r4, r5, pc}
 800a82c:	40021000 	.word	0x40021000
 800a830:	40021004 	.word	0x40021004
 800a834:	40021008 	.word	0x40021008
 800a838:	40021018 	.word	0x40021018
 800a83c:	40022000 	.word	0x40022000

0800a840 <system__text_io__initialize>:
 800a840:	b510      	push	{r4, lr}
 800a842:	b08a      	sub	sp, #40	; 0x28
 800a844:	a804      	add	r0, sp, #16
 800a846:	f000 f8f1 	bl	800aa2c <system__stm32__system_clocks>
 800a84a:	4b6c      	ldr	r3, [pc, #432]	; (800a9fc <system__text_io__initialize+0x1bc>)
 800a84c:	486c      	ldr	r0, [pc, #432]	; (800aa00 <system__text_io__initialize+0x1c0>)
 800a84e:	2201      	movs	r2, #1
 800a850:	701a      	strb	r2, [r3, #0]
 800a852:	9b07      	ldr	r3, [sp, #28]
 800a854:	6801      	ldr	r1, [r0, #0]
 800a856:	4a6b      	ldr	r2, [pc, #428]	; (800aa04 <system__text_io__initialize+0x1c4>)
 800a858:	f441 4180 	orr.w	r1, r1, #16384	; 0x4000
 800a85c:	6001      	str	r1, [r0, #0]
 800a85e:	6804      	ldr	r4, [r0, #0]
 800a860:	4969      	ldr	r1, [pc, #420]	; (800aa08 <system__text_io__initialize+0x1c8>)
 800a862:	f044 0404 	orr.w	r4, r4, #4
 800a866:	6004      	str	r4, [r0, #0]
 800a868:	6810      	ldr	r0, [r2, #0]
 800a86a:	6810      	ldr	r0, [r2, #0]
 800a86c:	fb81 4103 	smull	r4, r1, r1, r3
 800a870:	f020 00f0 	bic.w	r0, r0, #240	; 0xf0
 800a874:	f040 00b0 	orr.w	r0, r0, #176	; 0xb0
 800a878:	6010      	str	r0, [r2, #0]
 800a87a:	6810      	ldr	r0, [r2, #0]
 800a87c:	6810      	ldr	r0, [r2, #0]
 800a87e:	4419      	add	r1, r3
 800a880:	f420 6070 	bic.w	r0, r0, #3840	; 0xf00
 800a884:	f440 6030 	orr.w	r0, r0, #2816	; 0xb00
 800a888:	6010      	str	r0, [r2, #0]
 800a88a:	9a00      	ldr	r2, [sp, #0]
 800a88c:	17db      	asrs	r3, r3, #31
 800a88e:	f36f 0203 	bfc	r2, #0, #4
 800a892:	9200      	str	r2, [sp, #0]
 800a894:	9a00      	ldr	r2, [sp, #0]
 800a896:	ebc3 5321 	rsb	r3, r3, r1, asr #20
 800a89a:	f363 120f 	bfi	r2, r3, #4, #12
 800a89e:	9200      	str	r2, [sp, #0]
 800a8a0:	9b00      	ldr	r3, [sp, #0]
 800a8a2:	4a5a      	ldr	r2, [pc, #360]	; (800aa0c <system__text_io__initialize+0x1cc>)
 800a8a4:	f36f 431f 	bfc	r3, #16, #16
 800a8a8:	9300      	str	r3, [sp, #0]
 800a8aa:	9b00      	ldr	r3, [sp, #0]
 800a8ac:	4858      	ldr	r0, [pc, #352]	; (800aa10 <system__text_io__initialize+0x1d0>)
 800a8ae:	6013      	str	r3, [r2, #0]
 800a8b0:	9b01      	ldr	r3, [sp, #4]
 800a8b2:	4958      	ldr	r1, [pc, #352]	; (800aa14 <system__text_io__initialize+0x1d4>)
 800a8b4:	f36f 0300 	bfc	r3, #0, #1
 800a8b8:	9301      	str	r3, [sp, #4]
 800a8ba:	9b01      	ldr	r3, [sp, #4]
 800a8bc:	f36f 0341 	bfc	r3, #1, #1
 800a8c0:	9301      	str	r3, [sp, #4]
 800a8c2:	9b01      	ldr	r3, [sp, #4]
 800a8c4:	f043 0304 	orr.w	r3, r3, #4
 800a8c8:	9301      	str	r3, [sp, #4]
 800a8ca:	9b01      	ldr	r3, [sp, #4]
 800a8cc:	f043 0308 	orr.w	r3, r3, #8
 800a8d0:	9301      	str	r3, [sp, #4]
 800a8d2:	9b01      	ldr	r3, [sp, #4]
 800a8d4:	f36f 1304 	bfc	r3, #4, #1
 800a8d8:	9301      	str	r3, [sp, #4]
 800a8da:	9b01      	ldr	r3, [sp, #4]
 800a8dc:	f36f 1345 	bfc	r3, #5, #1
 800a8e0:	9301      	str	r3, [sp, #4]
 800a8e2:	9b01      	ldr	r3, [sp, #4]
 800a8e4:	f36f 1386 	bfc	r3, #6, #1
 800a8e8:	9301      	str	r3, [sp, #4]
 800a8ea:	9b01      	ldr	r3, [sp, #4]
 800a8ec:	f36f 13c7 	bfc	r3, #7, #1
 800a8f0:	9301      	str	r3, [sp, #4]
 800a8f2:	9b01      	ldr	r3, [sp, #4]
 800a8f4:	f36f 2308 	bfc	r3, #8, #1
 800a8f8:	9301      	str	r3, [sp, #4]
 800a8fa:	9b01      	ldr	r3, [sp, #4]
 800a8fc:	f36f 2349 	bfc	r3, #9, #1
 800a900:	9301      	str	r3, [sp, #4]
 800a902:	9b01      	ldr	r3, [sp, #4]
 800a904:	f36f 238a 	bfc	r3, #10, #1
 800a908:	9301      	str	r3, [sp, #4]
 800a90a:	9b01      	ldr	r3, [sp, #4]
 800a90c:	f36f 23cb 	bfc	r3, #11, #1
 800a910:	9301      	str	r3, [sp, #4]
 800a912:	9b01      	ldr	r3, [sp, #4]
 800a914:	f36f 330c 	bfc	r3, #12, #1
 800a918:	9301      	str	r3, [sp, #4]
 800a91a:	9b01      	ldr	r3, [sp, #4]
 800a91c:	f443 5300 	orr.w	r3, r3, #8192	; 0x2000
 800a920:	9301      	str	r3, [sp, #4]
 800a922:	9b01      	ldr	r3, [sp, #4]
 800a924:	f36f 339f 	bfc	r3, #14, #18
 800a928:	9301      	str	r3, [sp, #4]
 800a92a:	9b01      	ldr	r3, [sp, #4]
 800a92c:	6003      	str	r3, [r0, #0]
 800a92e:	9b02      	ldr	r3, [sp, #8]
 800a930:	f36f 0303 	bfc	r3, #0, #4
 800a934:	9302      	str	r3, [sp, #8]
 800a936:	9b02      	ldr	r3, [sp, #8]
 800a938:	f36f 1304 	bfc	r3, #4, #1
 800a93c:	9302      	str	r3, [sp, #8]
 800a93e:	9b02      	ldr	r3, [sp, #8]
 800a940:	f36f 1345 	bfc	r3, #5, #1
 800a944:	9302      	str	r3, [sp, #8]
 800a946:	9b02      	ldr	r3, [sp, #8]
 800a948:	f36f 1386 	bfc	r3, #6, #1
 800a94c:	9302      	str	r3, [sp, #8]
 800a94e:	9b02      	ldr	r3, [sp, #8]
 800a950:	f36f 13c7 	bfc	r3, #7, #1
 800a954:	9302      	str	r3, [sp, #8]
 800a956:	9b02      	ldr	r3, [sp, #8]
 800a958:	f36f 2308 	bfc	r3, #8, #1
 800a95c:	9302      	str	r3, [sp, #8]
 800a95e:	9b02      	ldr	r3, [sp, #8]
 800a960:	f36f 2349 	bfc	r3, #9, #1
 800a964:	9302      	str	r3, [sp, #8]
 800a966:	9b02      	ldr	r3, [sp, #8]
 800a968:	f36f 238a 	bfc	r3, #10, #1
 800a96c:	9302      	str	r3, [sp, #8]
 800a96e:	9b02      	ldr	r3, [sp, #8]
 800a970:	f36f 23cb 	bfc	r3, #11, #1
 800a974:	9302      	str	r3, [sp, #8]
 800a976:	9b02      	ldr	r3, [sp, #8]
 800a978:	f36f 330d 	bfc	r3, #12, #2
 800a97c:	9302      	str	r3, [sp, #8]
 800a97e:	9b02      	ldr	r3, [sp, #8]
 800a980:	f36f 338e 	bfc	r3, #14, #1
 800a984:	9302      	str	r3, [sp, #8]
 800a986:	9b02      	ldr	r3, [sp, #8]
 800a988:	f36f 33df 	bfc	r3, #15, #17
 800a98c:	9302      	str	r3, [sp, #8]
 800a98e:	9b02      	ldr	r3, [sp, #8]
 800a990:	600b      	str	r3, [r1, #0]
 800a992:	9b03      	ldr	r3, [sp, #12]
 800a994:	f36f 0300 	bfc	r3, #0, #1
 800a998:	9303      	str	r3, [sp, #12]
 800a99a:	9b03      	ldr	r3, [sp, #12]
 800a99c:	f36f 0341 	bfc	r3, #1, #1
 800a9a0:	9303      	str	r3, [sp, #12]
 800a9a2:	9b03      	ldr	r3, [sp, #12]
 800a9a4:	f36f 0382 	bfc	r3, #2, #1
 800a9a8:	9303      	str	r3, [sp, #12]
 800a9aa:	9b03      	ldr	r3, [sp, #12]
 800a9ac:	f36f 03c3 	bfc	r3, #3, #1
 800a9b0:	9303      	str	r3, [sp, #12]
 800a9b2:	9b03      	ldr	r3, [sp, #12]
 800a9b4:	f36f 1304 	bfc	r3, #4, #1
 800a9b8:	9303      	str	r3, [sp, #12]
 800a9ba:	9b03      	ldr	r3, [sp, #12]
 800a9bc:	f36f 1345 	bfc	r3, #5, #1
 800a9c0:	9303      	str	r3, [sp, #12]
 800a9c2:	9b03      	ldr	r3, [sp, #12]
 800a9c4:	f36f 1386 	bfc	r3, #6, #1
 800a9c8:	9303      	str	r3, [sp, #12]
 800a9ca:	9b03      	ldr	r3, [sp, #12]
 800a9cc:	f36f 13c7 	bfc	r3, #7, #1
 800a9d0:	9303      	str	r3, [sp, #12]
 800a9d2:	9b03      	ldr	r3, [sp, #12]
 800a9d4:	f36f 2308 	bfc	r3, #8, #1
 800a9d8:	9303      	str	r3, [sp, #12]
 800a9da:	9b03      	ldr	r3, [sp, #12]
 800a9dc:	f36f 2349 	bfc	r3, #9, #1
 800a9e0:	9303      	str	r3, [sp, #12]
 800a9e2:	9b03      	ldr	r3, [sp, #12]
 800a9e4:	f36f 238a 	bfc	r3, #10, #1
 800a9e8:	9303      	str	r3, [sp, #12]
 800a9ea:	9b03      	ldr	r3, [sp, #12]
 800a9ec:	f36f 23df 	bfc	r3, #11, #21
 800a9f0:	9303      	str	r3, [sp, #12]
 800a9f2:	9b03      	ldr	r3, [sp, #12]
 800a9f4:	60d3      	str	r3, [r2, #12]
 800a9f6:	b00a      	add	sp, #40	; 0x28
 800a9f8:	bd10      	pop	{r4, pc}
 800a9fa:	bf00      	nop
 800a9fc:	200000ca 	.word	0x200000ca
 800aa00:	40021018 	.word	0x40021018
 800aa04:	40010804 	.word	0x40010804
 800aa08:	91a2b3c5 	.word	0x91a2b3c5
 800aa0c:	40013808 	.word	0x40013808
 800aa10:	4001380c 	.word	0x4001380c
 800aa14:	40013810 	.word	0x40013810

0800aa18 <system__bb__mcu_parameters__pwr_initialize>:
 800aa18:	4b03      	ldr	r3, [pc, #12]	; (800aa28 <system__bb__mcu_parameters__pwr_initialize+0x10>)
 800aa1a:	681a      	ldr	r2, [r3, #0]
 800aa1c:	6813      	ldr	r3, [r2, #0]
 800aa1e:	f443 4380 	orr.w	r3, r3, #16384	; 0x4000
 800aa22:	6013      	str	r3, [r2, #0]
 800aa24:	4770      	bx	lr
 800aa26:	bf00      	nop
 800aa28:	200000cc 	.word	0x200000cc

0800aa2c <system__stm32__system_clocks>:
 800aa2c:	4a03      	ldr	r2, [pc, #12]	; (800aa3c <system__stm32__system_clocks+0x10>)
 800aa2e:	4904      	ldr	r1, [pc, #16]	; (800aa40 <system__stm32__system_clocks+0x14>)
 800aa30:	6042      	str	r2, [r0, #4]
 800aa32:	6081      	str	r1, [r0, #8]
 800aa34:	60c2      	str	r2, [r0, #12]
 800aa36:	6002      	str	r2, [r0, #0]
 800aa38:	4770      	bx	lr
 800aa3a:	bf00      	nop
 800aa3c:	044aa200 	.word	0x044aa200
 800aa40:	02255100 	.word	0x02255100

0800aa44 <__aeabi_ldivmod>:
 800aa44:	b97b      	cbnz	r3, 800aa66 <__aeabi_ldivmod+0x22>
 800aa46:	b972      	cbnz	r2, 800aa66 <__aeabi_ldivmod+0x22>
 800aa48:	2900      	cmp	r1, #0
 800aa4a:	bfbe      	ittt	lt
 800aa4c:	2000      	movlt	r0, #0
 800aa4e:	f04f 4100 	movlt.w	r1, #2147483648	; 0x80000000
 800aa52:	e006      	blt.n	800aa62 <__aeabi_ldivmod+0x1e>
 800aa54:	bf08      	it	eq
 800aa56:	2800      	cmpeq	r0, #0
 800aa58:	bf1c      	itt	ne
 800aa5a:	f06f 4100 	mvnne.w	r1, #2147483648	; 0x80000000
 800aa5e:	f04f 30ff 	movne.w	r0, #4294967295
 800aa62:	f000 b83b 	b.w	800aadc <__aeabi_idiv0>
 800aa66:	b082      	sub	sp, #8
 800aa68:	46ec      	mov	ip, sp
 800aa6a:	e92d 5000 	stmdb	sp!, {ip, lr}
 800aa6e:	f000 f805 	bl	800aa7c <__gnu_ldivmod_helper>
 800aa72:	f8dd e004 	ldr.w	lr, [sp, #4]
 800aa76:	b002      	add	sp, #8
 800aa78:	bc0c      	pop	{r2, r3}
 800aa7a:	4770      	bx	lr

0800aa7c <__gnu_ldivmod_helper>:
 800aa7c:	e92d 41f0 	stmdb	sp!, {r4, r5, r6, r7, r8, lr}
 800aa80:	9c06      	ldr	r4, [sp, #24]
 800aa82:	4690      	mov	r8, r2
 800aa84:	4606      	mov	r6, r0
 800aa86:	460f      	mov	r7, r1
 800aa88:	461d      	mov	r5, r3
 800aa8a:	f000 f829 	bl	800aae0 <__divdi3>
 800aa8e:	fb08 fc01 	mul.w	ip, r8, r1
 800aa92:	fba8 2300 	umull	r2, r3, r8, r0
 800aa96:	fb00 c505 	mla	r5, r0, r5, ip
 800aa9a:	1ab2      	subs	r2, r6, r2
 800aa9c:	442b      	add	r3, r5
 800aa9e:	eb67 0303 	sbc.w	r3, r7, r3
 800aaa2:	4686      	mov	lr, r0
 800aaa4:	e9c4 2300 	strd	r2, r3, [r4]
 800aaa8:	e8bd 81f0 	ldmia.w	sp!, {r4, r5, r6, r7, r8, pc}

0800aaac <__gnu_uldivmod_helper>:
 800aaac:	e92d 43f8 	stmdb	sp!, {r3, r4, r5, r6, r7, r8, r9, lr}
 800aab0:	9e08      	ldr	r6, [sp, #32]
 800aab2:	4617      	mov	r7, r2
 800aab4:	4680      	mov	r8, r0
 800aab6:	4689      	mov	r9, r1
 800aab8:	461d      	mov	r5, r3
 800aaba:	f000 f967 	bl	800ad8c <__udivdi3>
 800aabe:	fb00 f305 	mul.w	r3, r0, r5
 800aac2:	fba0 4507 	umull	r4, r5, r0, r7
 800aac6:	fb07 3701 	mla	r7, r7, r1, r3
 800aaca:	ebb8 0404 	subs.w	r4, r8, r4
 800aace:	443d      	add	r5, r7
 800aad0:	eb69 0505 	sbc.w	r5, r9, r5
 800aad4:	e9c6 4500 	strd	r4, r5, [r6]
 800aad8:	e8bd 83f8 	ldmia.w	sp!, {r3, r4, r5, r6, r7, r8, r9, pc}

0800aadc <__aeabi_idiv0>:
 800aadc:	4770      	bx	lr
 800aade:	bf00      	nop

0800aae0 <__divdi3>:
 800aae0:	2900      	cmp	r1, #0
 800aae2:	e92d 43f0 	stmdb	sp!, {r4, r5, r6, r7, r8, r9, lr}
 800aae6:	f2c0 80a7 	blt.w	800ac38 <__divdi3+0x158>
 800aaea:	2600      	movs	r6, #0
 800aaec:	2b00      	cmp	r3, #0
 800aaee:	f2c0 809d 	blt.w	800ac2c <__divdi3+0x14c>
 800aaf2:	4681      	mov	r9, r0
 800aaf4:	468e      	mov	lr, r1
 800aaf6:	4690      	mov	r8, r2
 800aaf8:	469c      	mov	ip, r3
 800aafa:	4617      	mov	r7, r2
 800aafc:	4604      	mov	r4, r0
 800aafe:	460d      	mov	r5, r1
 800ab00:	2b00      	cmp	r3, #0
 800ab02:	d13d      	bne.n	800ab80 <__divdi3+0xa0>
 800ab04:	428a      	cmp	r2, r1
 800ab06:	d959      	bls.n	800abbc <__divdi3+0xdc>
 800ab08:	fab2 f382 	clz	r3, r2
 800ab0c:	b13b      	cbz	r3, 800ab1e <__divdi3+0x3e>
 800ab0e:	f1c3 0220 	rsb	r2, r3, #32
 800ab12:	409d      	lsls	r5, r3
 800ab14:	fa20 f202 	lsr.w	r2, r0, r2
 800ab18:	409f      	lsls	r7, r3
 800ab1a:	4315      	orrs	r5, r2
 800ab1c:	409c      	lsls	r4, r3
 800ab1e:	0c39      	lsrs	r1, r7, #16
 800ab20:	fbb5 f0f1 	udiv	r0, r5, r1
 800ab24:	fa1f fe87 	uxth.w	lr, r7
 800ab28:	fb01 5510 	mls	r5, r1, r0, r5
 800ab2c:	fb0e f300 	mul.w	r3, lr, r0
 800ab30:	0c22      	lsrs	r2, r4, #16
 800ab32:	ea42 4505 	orr.w	r5, r2, r5, lsl #16
 800ab36:	42ab      	cmp	r3, r5
 800ab38:	d909      	bls.n	800ab4e <__divdi3+0x6e>
 800ab3a:	19ed      	adds	r5, r5, r7
 800ab3c:	f100 32ff 	add.w	r2, r0, #4294967295
 800ab40:	f080 810b 	bcs.w	800ad5a <__divdi3+0x27a>
 800ab44:	42ab      	cmp	r3, r5
 800ab46:	f240 8108 	bls.w	800ad5a <__divdi3+0x27a>
 800ab4a:	3802      	subs	r0, #2
 800ab4c:	443d      	add	r5, r7
 800ab4e:	1aed      	subs	r5, r5, r3
 800ab50:	fbb5 f3f1 	udiv	r3, r5, r1
 800ab54:	fb01 5513 	mls	r5, r1, r3, r5
 800ab58:	fb0e fe03 	mul.w	lr, lr, r3
 800ab5c:	b2a4      	uxth	r4, r4
 800ab5e:	ea44 4505 	orr.w	r5, r4, r5, lsl #16
 800ab62:	45ae      	cmp	lr, r5
 800ab64:	d908      	bls.n	800ab78 <__divdi3+0x98>
 800ab66:	19ed      	adds	r5, r5, r7
 800ab68:	f103 32ff 	add.w	r2, r3, #4294967295
 800ab6c:	f080 80f7 	bcs.w	800ad5e <__divdi3+0x27e>
 800ab70:	45ae      	cmp	lr, r5
 800ab72:	f240 80f4 	bls.w	800ad5e <__divdi3+0x27e>
 800ab76:	3b02      	subs	r3, #2
 800ab78:	ea43 4300 	orr.w	r3, r3, r0, lsl #16
 800ab7c:	2200      	movs	r2, #0
 800ab7e:	e003      	b.n	800ab88 <__divdi3+0xa8>
 800ab80:	428b      	cmp	r3, r1
 800ab82:	d90f      	bls.n	800aba4 <__divdi3+0xc4>
 800ab84:	2200      	movs	r2, #0
 800ab86:	4613      	mov	r3, r2
 800ab88:	1c34      	adds	r4, r6, #0
 800ab8a:	bf18      	it	ne
 800ab8c:	2401      	movne	r4, #1
 800ab8e:	4260      	negs	r0, r4
 800ab90:	f04f 0500 	mov.w	r5, #0
 800ab94:	eb65 0145 	sbc.w	r1, r5, r5, lsl #1
 800ab98:	4058      	eors	r0, r3
 800ab9a:	4051      	eors	r1, r2
 800ab9c:	1900      	adds	r0, r0, r4
 800ab9e:	4169      	adcs	r1, r5
 800aba0:	e8bd 83f0 	ldmia.w	sp!, {r4, r5, r6, r7, r8, r9, pc}
 800aba4:	fab3 f283 	clz	r2, r3
 800aba8:	2a00      	cmp	r2, #0
 800abaa:	f040 8089 	bne.w	800acc0 <__divdi3+0x1e0>
 800abae:	428b      	cmp	r3, r1
 800abb0:	d302      	bcc.n	800abb8 <__divdi3+0xd8>
 800abb2:	4580      	cmp	r8, r0
 800abb4:	f200 80de 	bhi.w	800ad74 <__divdi3+0x294>
 800abb8:	2301      	movs	r3, #1
 800abba:	e7e5      	b.n	800ab88 <__divdi3+0xa8>
 800abbc:	b912      	cbnz	r2, 800abc4 <__divdi3+0xe4>
 800abbe:	2301      	movs	r3, #1
 800abc0:	fbb3 f7f2 	udiv	r7, r3, r2
 800abc4:	fab7 f887 	clz	r8, r7
 800abc8:	f1b8 0f00 	cmp.w	r8, #0
 800abcc:	d13a      	bne.n	800ac44 <__divdi3+0x164>
 800abce:	1bed      	subs	r5, r5, r7
 800abd0:	b2b8      	uxth	r0, r7
 800abd2:	0c39      	lsrs	r1, r7, #16
 800abd4:	2201      	movs	r2, #1
 800abd6:	fbb5 fcf1 	udiv	ip, r5, r1
 800abda:	fb01 551c 	mls	r5, r1, ip, r5
 800abde:	fb00 f30c 	mul.w	r3, r0, ip
 800abe2:	ea4f 4e14 	mov.w	lr, r4, lsr #16
 800abe6:	ea4e 4505 	orr.w	r5, lr, r5, lsl #16
 800abea:	42ab      	cmp	r3, r5
 800abec:	d907      	bls.n	800abfe <__divdi3+0x11e>
 800abee:	19ed      	adds	r5, r5, r7
 800abf0:	f10c 3eff 	add.w	lr, ip, #4294967295
 800abf4:	d202      	bcs.n	800abfc <__divdi3+0x11c>
 800abf6:	42ab      	cmp	r3, r5
 800abf8:	f200 80c2 	bhi.w	800ad80 <__divdi3+0x2a0>
 800abfc:	46f4      	mov	ip, lr
 800abfe:	1aed      	subs	r5, r5, r3
 800ac00:	fbb5 f3f1 	udiv	r3, r5, r1
 800ac04:	fb01 5513 	mls	r5, r1, r3, r5
 800ac08:	fb00 f003 	mul.w	r0, r0, r3
 800ac0c:	b2a4      	uxth	r4, r4
 800ac0e:	ea44 4505 	orr.w	r5, r4, r5, lsl #16
 800ac12:	42a8      	cmp	r0, r5
 800ac14:	d907      	bls.n	800ac26 <__divdi3+0x146>
 800ac16:	19ed      	adds	r5, r5, r7
 800ac18:	f103 31ff 	add.w	r1, r3, #4294967295
 800ac1c:	d202      	bcs.n	800ac24 <__divdi3+0x144>
 800ac1e:	42a8      	cmp	r0, r5
 800ac20:	f200 80b2 	bhi.w	800ad88 <__divdi3+0x2a8>
 800ac24:	460b      	mov	r3, r1
 800ac26:	ea43 430c 	orr.w	r3, r3, ip, lsl #16
 800ac2a:	e7ad      	b.n	800ab88 <__divdi3+0xa8>
 800ac2c:	4252      	negs	r2, r2
 800ac2e:	ea6f 0606 	mvn.w	r6, r6
 800ac32:	eb63 0343 	sbc.w	r3, r3, r3, lsl #1
 800ac36:	e75c      	b.n	800aaf2 <__divdi3+0x12>
 800ac38:	4240      	negs	r0, r0
 800ac3a:	eb61 0141 	sbc.w	r1, r1, r1, lsl #1
 800ac3e:	f04f 36ff 	mov.w	r6, #4294967295
 800ac42:	e753      	b.n	800aaec <__divdi3+0xc>
 800ac44:	fa07 f708 	lsl.w	r7, r7, r8
 800ac48:	f1c8 0220 	rsb	r2, r8, #32
 800ac4c:	fa25 f302 	lsr.w	r3, r5, r2
 800ac50:	0c39      	lsrs	r1, r7, #16
 800ac52:	fbb3 fef1 	udiv	lr, r3, r1
 800ac56:	b2b8      	uxth	r0, r7
 800ac58:	fb01 331e 	mls	r3, r1, lr, r3
 800ac5c:	fa24 f202 	lsr.w	r2, r4, r2
 800ac60:	fa05 f508 	lsl.w	r5, r5, r8
 800ac64:	fb00 f90e 	mul.w	r9, r0, lr
 800ac68:	432a      	orrs	r2, r5
 800ac6a:	ea4f 4c12 	mov.w	ip, r2, lsr #16
 800ac6e:	ea4c 4303 	orr.w	r3, ip, r3, lsl #16
 800ac72:	4599      	cmp	r9, r3
 800ac74:	fa04 f408 	lsl.w	r4, r4, r8
 800ac78:	d908      	bls.n	800ac8c <__divdi3+0x1ac>
 800ac7a:	19db      	adds	r3, r3, r7
 800ac7c:	f10e 35ff 	add.w	r5, lr, #4294967295
 800ac80:	d27c      	bcs.n	800ad7c <__divdi3+0x29c>
 800ac82:	4599      	cmp	r9, r3
 800ac84:	d97a      	bls.n	800ad7c <__divdi3+0x29c>
 800ac86:	f1ae 0e02 	sub.w	lr, lr, #2
 800ac8a:	443b      	add	r3, r7
 800ac8c:	ebc9 0303 	rsb	r3, r9, r3
 800ac90:	fbb3 fcf1 	udiv	ip, r3, r1
 800ac94:	fb01 331c 	mls	r3, r1, ip, r3
 800ac98:	fb00 f50c 	mul.w	r5, r0, ip
 800ac9c:	b292      	uxth	r2, r2
 800ac9e:	ea42 4303 	orr.w	r3, r2, r3, lsl #16
 800aca2:	429d      	cmp	r5, r3
 800aca4:	d908      	bls.n	800acb8 <__divdi3+0x1d8>
 800aca6:	19db      	adds	r3, r3, r7
 800aca8:	f10c 32ff 	add.w	r2, ip, #4294967295
 800acac:	d25e      	bcs.n	800ad6c <__divdi3+0x28c>
 800acae:	429d      	cmp	r5, r3
 800acb0:	d95c      	bls.n	800ad6c <__divdi3+0x28c>
 800acb2:	f1ac 0c02 	sub.w	ip, ip, #2
 800acb6:	443b      	add	r3, r7
 800acb8:	1b5d      	subs	r5, r3, r5
 800acba:	ea4c 420e 	orr.w	r2, ip, lr, lsl #16
 800acbe:	e78a      	b.n	800abd6 <__divdi3+0xf6>
 800acc0:	f1c2 0320 	rsb	r3, r2, #32
 800acc4:	fa28 f103 	lsr.w	r1, r8, r3
 800acc8:	fa0c fc02 	lsl.w	ip, ip, r2
 800accc:	ea41 0c0c 	orr.w	ip, r1, ip
 800acd0:	ea4f 401c 	mov.w	r0, ip, lsr #16
 800acd4:	fa2e f103 	lsr.w	r1, lr, r3
 800acd8:	fbb1 f5f0 	udiv	r5, r1, r0
 800acdc:	fa1f f78c 	uxth.w	r7, ip
 800ace0:	fb00 1115 	mls	r1, r0, r5, r1
 800ace4:	fa29 f303 	lsr.w	r3, r9, r3
 800ace8:	fa0e fe02 	lsl.w	lr, lr, r2
 800acec:	fb07 f905 	mul.w	r9, r7, r5
 800acf0:	ea43 0e0e 	orr.w	lr, r3, lr
 800acf4:	ea4f 431e 	mov.w	r3, lr, lsr #16
 800acf8:	ea43 4101 	orr.w	r1, r3, r1, lsl #16
 800acfc:	4589      	cmp	r9, r1
 800acfe:	fa08 f802 	lsl.w	r8, r8, r2
 800ad02:	d908      	bls.n	800ad16 <__divdi3+0x236>
 800ad04:	eb11 010c 	adds.w	r1, r1, ip
 800ad08:	f105 33ff 	add.w	r3, r5, #4294967295
 800ad0c:	d234      	bcs.n	800ad78 <__divdi3+0x298>
 800ad0e:	4589      	cmp	r9, r1
 800ad10:	d932      	bls.n	800ad78 <__divdi3+0x298>
 800ad12:	3d02      	subs	r5, #2
 800ad14:	4461      	add	r1, ip
 800ad16:	ebc9 0101 	rsb	r1, r9, r1
 800ad1a:	fbb1 f3f0 	udiv	r3, r1, r0
 800ad1e:	fb00 1113 	mls	r1, r0, r3, r1
 800ad22:	fb07 f703 	mul.w	r7, r7, r3
 800ad26:	fa1f fe8e 	uxth.w	lr, lr
 800ad2a:	ea4e 4e01 	orr.w	lr, lr, r1, lsl #16
 800ad2e:	4577      	cmp	r7, lr
 800ad30:	d908      	bls.n	800ad44 <__divdi3+0x264>
 800ad32:	eb1e 0e0c 	adds.w	lr, lr, ip
 800ad36:	f103 31ff 	add.w	r1, r3, #4294967295
 800ad3a:	d219      	bcs.n	800ad70 <__divdi3+0x290>
 800ad3c:	4577      	cmp	r7, lr
 800ad3e:	d917      	bls.n	800ad70 <__divdi3+0x290>
 800ad40:	3b02      	subs	r3, #2
 800ad42:	44e6      	add	lr, ip
 800ad44:	ea43 4305 	orr.w	r3, r3, r5, lsl #16
 800ad48:	fba3 8908 	umull	r8, r9, r3, r8
 800ad4c:	ebc7 0e0e 	rsb	lr, r7, lr
 800ad50:	45ce      	cmp	lr, r9
 800ad52:	d309      	bcc.n	800ad68 <__divdi3+0x288>
 800ad54:	d005      	beq.n	800ad62 <__divdi3+0x282>
 800ad56:	2200      	movs	r2, #0
 800ad58:	e716      	b.n	800ab88 <__divdi3+0xa8>
 800ad5a:	4610      	mov	r0, r2
 800ad5c:	e6f7      	b.n	800ab4e <__divdi3+0x6e>
 800ad5e:	4613      	mov	r3, r2
 800ad60:	e70a      	b.n	800ab78 <__divdi3+0x98>
 800ad62:	4094      	lsls	r4, r2
 800ad64:	4544      	cmp	r4, r8
 800ad66:	d2f6      	bcs.n	800ad56 <__divdi3+0x276>
 800ad68:	3b01      	subs	r3, #1
 800ad6a:	e7f4      	b.n	800ad56 <__divdi3+0x276>
 800ad6c:	4694      	mov	ip, r2
 800ad6e:	e7a3      	b.n	800acb8 <__divdi3+0x1d8>
 800ad70:	460b      	mov	r3, r1
 800ad72:	e7e7      	b.n	800ad44 <__divdi3+0x264>
 800ad74:	4613      	mov	r3, r2
 800ad76:	e707      	b.n	800ab88 <__divdi3+0xa8>
 800ad78:	461d      	mov	r5, r3
 800ad7a:	e7cc      	b.n	800ad16 <__divdi3+0x236>
 800ad7c:	46ae      	mov	lr, r5
 800ad7e:	e785      	b.n	800ac8c <__divdi3+0x1ac>
 800ad80:	f1ac 0c02 	sub.w	ip, ip, #2
 800ad84:	443d      	add	r5, r7
 800ad86:	e73a      	b.n	800abfe <__divdi3+0x11e>
 800ad88:	3b02      	subs	r3, #2
 800ad8a:	e74c      	b.n	800ac26 <__divdi3+0x146>

0800ad8c <__udivdi3>:
 800ad8c:	e92d 43f0 	stmdb	sp!, {r4, r5, r6, r7, r8, r9, lr}
 800ad90:	2b00      	cmp	r3, #0
 800ad92:	d144      	bne.n	800ae1e <__udivdi3+0x92>
 800ad94:	428a      	cmp	r2, r1
 800ad96:	4615      	mov	r5, r2
 800ad98:	4604      	mov	r4, r0
 800ad9a:	d94f      	bls.n	800ae3c <__udivdi3+0xb0>
 800ad9c:	fab2 f782 	clz	r7, r2
 800ada0:	460e      	mov	r6, r1
 800ada2:	b14f      	cbz	r7, 800adb8 <__udivdi3+0x2c>
 800ada4:	f1c7 0320 	rsb	r3, r7, #32
 800ada8:	40b9      	lsls	r1, r7
 800adaa:	fa20 f603 	lsr.w	r6, r0, r3
 800adae:	fa02 f507 	lsl.w	r5, r2, r7
 800adb2:	430e      	orrs	r6, r1
 800adb4:	fa00 f407 	lsl.w	r4, r0, r7
 800adb8:	0c2f      	lsrs	r7, r5, #16
 800adba:	fbb6 f0f7 	udiv	r0, r6, r7
 800adbe:	fa1f fe85 	uxth.w	lr, r5
 800adc2:	fb07 6210 	mls	r2, r7, r0, r6
 800adc6:	fb0e f100 	mul.w	r1, lr, r0
 800adca:	0c26      	lsrs	r6, r4, #16
 800adcc:	ea46 4302 	orr.w	r3, r6, r2, lsl #16
 800add0:	4299      	cmp	r1, r3
 800add2:	d909      	bls.n	800ade8 <__udivdi3+0x5c>
 800add4:	195b      	adds	r3, r3, r5
 800add6:	f100 32ff 	add.w	r2, r0, #4294967295
 800adda:	f080 80f4 	bcs.w	800afc6 <__udivdi3+0x23a>
 800adde:	4299      	cmp	r1, r3
 800ade0:	f240 80f1 	bls.w	800afc6 <__udivdi3+0x23a>
 800ade4:	3802      	subs	r0, #2
 800ade6:	442b      	add	r3, r5
 800ade8:	1a59      	subs	r1, r3, r1
 800adea:	fbb1 f3f7 	udiv	r3, r1, r7
 800adee:	fb07 1113 	mls	r1, r7, r3, r1
 800adf2:	fb0e fe03 	mul.w	lr, lr, r3
 800adf6:	b2a4      	uxth	r4, r4
 800adf8:	ea44 4101 	orr.w	r1, r4, r1, lsl #16
 800adfc:	458e      	cmp	lr, r1
 800adfe:	d908      	bls.n	800ae12 <__udivdi3+0x86>
 800ae00:	1949      	adds	r1, r1, r5
 800ae02:	f103 32ff 	add.w	r2, r3, #4294967295
 800ae06:	f080 80e8 	bcs.w	800afda <__udivdi3+0x24e>
 800ae0a:	458e      	cmp	lr, r1
 800ae0c:	f240 80e5 	bls.w	800afda <__udivdi3+0x24e>
 800ae10:	3b02      	subs	r3, #2
 800ae12:	ea43 4000 	orr.w	r0, r3, r0, lsl #16
 800ae16:	2600      	movs	r6, #0
 800ae18:	4631      	mov	r1, r6
 800ae1a:	e8bd 83f0 	ldmia.w	sp!, {r4, r5, r6, r7, r8, r9, pc}
 800ae1e:	428b      	cmp	r3, r1
 800ae20:	d847      	bhi.n	800aeb2 <__udivdi3+0x126>
 800ae22:	fab3 f683 	clz	r6, r3
 800ae26:	2e00      	cmp	r6, #0
 800ae28:	d148      	bne.n	800aebc <__udivdi3+0x130>
 800ae2a:	428b      	cmp	r3, r1
 800ae2c:	d302      	bcc.n	800ae34 <__udivdi3+0xa8>
 800ae2e:	4282      	cmp	r2, r0
 800ae30:	f200 80d5 	bhi.w	800afde <__udivdi3+0x252>
 800ae34:	2001      	movs	r0, #1
 800ae36:	4631      	mov	r1, r6
 800ae38:	e8bd 83f0 	ldmia.w	sp!, {r4, r5, r6, r7, r8, r9, pc}
 800ae3c:	b912      	cbnz	r2, 800ae44 <__udivdi3+0xb8>
 800ae3e:	2501      	movs	r5, #1
 800ae40:	fbb5 f5f2 	udiv	r5, r5, r2
 800ae44:	fab5 fc85 	clz	ip, r5
 800ae48:	f1bc 0f00 	cmp.w	ip, #0
 800ae4c:	d17f      	bne.n	800af4e <__udivdi3+0x1c2>
 800ae4e:	1b49      	subs	r1, r1, r5
 800ae50:	fa1f fe85 	uxth.w	lr, r5
 800ae54:	0c2f      	lsrs	r7, r5, #16
 800ae56:	2601      	movs	r6, #1
 800ae58:	fbb1 f0f7 	udiv	r0, r1, r7
 800ae5c:	fb07 1110 	mls	r1, r7, r0, r1
 800ae60:	fb0e f200 	mul.w	r2, lr, r0
 800ae64:	0c23      	lsrs	r3, r4, #16
 800ae66:	ea43 4101 	orr.w	r1, r3, r1, lsl #16
 800ae6a:	428a      	cmp	r2, r1
 800ae6c:	d907      	bls.n	800ae7e <__udivdi3+0xf2>
 800ae6e:	1949      	adds	r1, r1, r5
 800ae70:	f100 33ff 	add.w	r3, r0, #4294967295
 800ae74:	d202      	bcs.n	800ae7c <__udivdi3+0xf0>
 800ae76:	428a      	cmp	r2, r1
 800ae78:	f200 80bb 	bhi.w	800aff2 <__udivdi3+0x266>
 800ae7c:	4618      	mov	r0, r3
 800ae7e:	1a89      	subs	r1, r1, r2
 800ae80:	fbb1 f3f7 	udiv	r3, r1, r7
 800ae84:	fb07 1113 	mls	r1, r7, r3, r1
 800ae88:	fb0e fe03 	mul.w	lr, lr, r3
 800ae8c:	b2a4      	uxth	r4, r4
 800ae8e:	ea44 4201 	orr.w	r2, r4, r1, lsl #16
 800ae92:	4596      	cmp	lr, r2
 800ae94:	d908      	bls.n	800aea8 <__udivdi3+0x11c>
 800ae96:	1952      	adds	r2, r2, r5
 800ae98:	f103 31ff 	add.w	r1, r3, #4294967295
 800ae9c:	f080 809b 	bcs.w	800afd6 <__udivdi3+0x24a>
 800aea0:	4596      	cmp	lr, r2
 800aea2:	f240 8098 	bls.w	800afd6 <__udivdi3+0x24a>
 800aea6:	3b02      	subs	r3, #2
 800aea8:	ea43 4000 	orr.w	r0, r3, r0, lsl #16
 800aeac:	4631      	mov	r1, r6
 800aeae:	e8bd 83f0 	ldmia.w	sp!, {r4, r5, r6, r7, r8, r9, pc}
 800aeb2:	2600      	movs	r6, #0
 800aeb4:	4630      	mov	r0, r6
 800aeb6:	4631      	mov	r1, r6
 800aeb8:	e8bd 83f0 	ldmia.w	sp!, {r4, r5, r6, r7, r8, r9, pc}
 800aebc:	f1c6 0420 	rsb	r4, r6, #32
 800aec0:	fa22 f504 	lsr.w	r5, r2, r4
 800aec4:	40b3      	lsls	r3, r6
 800aec6:	432b      	orrs	r3, r5
 800aec8:	fa21 f704 	lsr.w	r7, r1, r4
 800aecc:	ea4f 4813 	mov.w	r8, r3, lsr #16
 800aed0:	fbb7 fcf8 	udiv	ip, r7, r8
 800aed4:	fa1f f983 	uxth.w	r9, r3
 800aed8:	fb08 771c 	mls	r7, r8, ip, r7
 800aedc:	fa20 fe04 	lsr.w	lr, r0, r4
 800aee0:	fa01 f506 	lsl.w	r5, r1, r6
 800aee4:	fb09 f40c 	mul.w	r4, r9, ip
 800aee8:	ea4e 0505 	orr.w	r5, lr, r5
 800aeec:	ea4f 4e15 	mov.w	lr, r5, lsr #16
 800aef0:	ea4e 4707 	orr.w	r7, lr, r7, lsl #16
 800aef4:	42bc      	cmp	r4, r7
 800aef6:	fa02 f206 	lsl.w	r2, r2, r6
 800aefa:	d908      	bls.n	800af0e <__udivdi3+0x182>
 800aefc:	18ff      	adds	r7, r7, r3
 800aefe:	f10c 31ff 	add.w	r1, ip, #4294967295
 800af02:	d26e      	bcs.n	800afe2 <__udivdi3+0x256>
 800af04:	42bc      	cmp	r4, r7
 800af06:	d96c      	bls.n	800afe2 <__udivdi3+0x256>
 800af08:	f1ac 0c02 	sub.w	ip, ip, #2
 800af0c:	441f      	add	r7, r3
 800af0e:	1b3f      	subs	r7, r7, r4
 800af10:	fbb7 f4f8 	udiv	r4, r7, r8
 800af14:	fb08 7714 	mls	r7, r8, r4, r7
 800af18:	fb09 f904 	mul.w	r9, r9, r4
 800af1c:	b2ad      	uxth	r5, r5
 800af1e:	ea45 4107 	orr.w	r1, r5, r7, lsl #16
 800af22:	4589      	cmp	r9, r1
 800af24:	d907      	bls.n	800af36 <__udivdi3+0x1aa>
 800af26:	18c9      	adds	r1, r1, r3
 800af28:	f104 35ff 	add.w	r5, r4, #4294967295
 800af2c:	d25b      	bcs.n	800afe6 <__udivdi3+0x25a>
 800af2e:	4589      	cmp	r9, r1
 800af30:	d959      	bls.n	800afe6 <__udivdi3+0x25a>
 800af32:	3c02      	subs	r4, #2
 800af34:	4419      	add	r1, r3
 800af36:	ea44 440c 	orr.w	r4, r4, ip, lsl #16
 800af3a:	fba4 2302 	umull	r2, r3, r4, r2
 800af3e:	ebc9 0101 	rsb	r1, r9, r1
 800af42:	4299      	cmp	r1, r3
 800af44:	d344      	bcc.n	800afd0 <__udivdi3+0x244>
 800af46:	d040      	beq.n	800afca <__udivdi3+0x23e>
 800af48:	4620      	mov	r0, r4
 800af4a:	2600      	movs	r6, #0
 800af4c:	e764      	b.n	800ae18 <__udivdi3+0x8c>
 800af4e:	fa05 f50c 	lsl.w	r5, r5, ip
 800af52:	f1cc 0220 	rsb	r2, ip, #32
 800af56:	fa21 f302 	lsr.w	r3, r1, r2
 800af5a:	0c2f      	lsrs	r7, r5, #16
 800af5c:	fbb3 f6f7 	udiv	r6, r3, r7
 800af60:	fa1f fe85 	uxth.w	lr, r5
 800af64:	fb07 3816 	mls	r8, r7, r6, r3
 800af68:	fa20 f202 	lsr.w	r2, r0, r2
 800af6c:	fa01 f10c 	lsl.w	r1, r1, ip
 800af70:	fb0e f906 	mul.w	r9, lr, r6
 800af74:	430a      	orrs	r2, r1
 800af76:	0c14      	lsrs	r4, r2, #16
 800af78:	ea44 4308 	orr.w	r3, r4, r8, lsl #16
 800af7c:	4599      	cmp	r9, r3
 800af7e:	fa00 f40c 	lsl.w	r4, r0, ip
 800af82:	d907      	bls.n	800af94 <__udivdi3+0x208>
 800af84:	195b      	adds	r3, r3, r5
 800af86:	f106 31ff 	add.w	r1, r6, #4294967295
 800af8a:	d230      	bcs.n	800afee <__udivdi3+0x262>
 800af8c:	4599      	cmp	r9, r3
 800af8e:	d92e      	bls.n	800afee <__udivdi3+0x262>
 800af90:	3e02      	subs	r6, #2
 800af92:	442b      	add	r3, r5
 800af94:	ebc9 0303 	rsb	r3, r9, r3
 800af98:	fbb3 f0f7 	udiv	r0, r3, r7
 800af9c:	fb07 3310 	mls	r3, r7, r0, r3
 800afa0:	fb0e f100 	mul.w	r1, lr, r0
 800afa4:	b292      	uxth	r2, r2
 800afa6:	ea42 4303 	orr.w	r3, r2, r3, lsl #16
 800afaa:	4299      	cmp	r1, r3
 800afac:	d907      	bls.n	800afbe <__udivdi3+0x232>
 800afae:	195b      	adds	r3, r3, r5
 800afb0:	f100 32ff 	add.w	r2, r0, #4294967295
 800afb4:	d219      	bcs.n	800afea <__udivdi3+0x25e>
 800afb6:	4299      	cmp	r1, r3
 800afb8:	d917      	bls.n	800afea <__udivdi3+0x25e>
 800afba:	3802      	subs	r0, #2
 800afbc:	442b      	add	r3, r5
 800afbe:	1a59      	subs	r1, r3, r1
 800afc0:	ea40 4606 	orr.w	r6, r0, r6, lsl #16
 800afc4:	e748      	b.n	800ae58 <__udivdi3+0xcc>
 800afc6:	4610      	mov	r0, r2
 800afc8:	e70e      	b.n	800ade8 <__udivdi3+0x5c>
 800afca:	40b0      	lsls	r0, r6
 800afcc:	4290      	cmp	r0, r2
 800afce:	d2bb      	bcs.n	800af48 <__udivdi3+0x1bc>
 800afd0:	1e60      	subs	r0, r4, #1
 800afd2:	2600      	movs	r6, #0
 800afd4:	e720      	b.n	800ae18 <__udivdi3+0x8c>
 800afd6:	460b      	mov	r3, r1
 800afd8:	e766      	b.n	800aea8 <__udivdi3+0x11c>
 800afda:	4613      	mov	r3, r2
 800afdc:	e719      	b.n	800ae12 <__udivdi3+0x86>
 800afde:	4630      	mov	r0, r6
 800afe0:	e71a      	b.n	800ae18 <__udivdi3+0x8c>
 800afe2:	468c      	mov	ip, r1
 800afe4:	e793      	b.n	800af0e <__udivdi3+0x182>
 800afe6:	462c      	mov	r4, r5
 800afe8:	e7a5      	b.n	800af36 <__udivdi3+0x1aa>
 800afea:	4610      	mov	r0, r2
 800afec:	e7e7      	b.n	800afbe <__udivdi3+0x232>
 800afee:	460e      	mov	r6, r1
 800aff0:	e7d0      	b.n	800af94 <__udivdi3+0x208>
 800aff2:	3802      	subs	r0, #2
 800aff4:	4429      	add	r1, r5
 800aff6:	e742      	b.n	800ae7e <__udivdi3+0xf2>
