
seesaw:     file format elf32-littlearm


Disassembly of section .text:

08000000 <__vectors0>:
 8000000:	2000cb50 	.word	0x2000cb50
 8000004:	080079bd 	.word	0x080079bd
 8000008:	08007a08 	.word	0x08007a08
 800000c:	08007a08 	.word	0x08007a08
 8000010:	08007a08 	.word	0x08007a08

08000014 <_ada_seesaw>:
 8000014:	b580      	push	{r7, lr}
 8000016:	b094      	sub	sp, #80	; 0x50
 8000018:	af00      	add	r7, sp, #0
 800001a:	f107 0358 	add.w	r3, r7, #88	; 0x58
 800001e:	60fb      	str	r3, [r7, #12]
 8000020:	4b4b      	ldr	r3, [pc, #300]	; (8000150 <_ada_seesaw+0x13c>)
 8000022:	64bb      	str	r3, [r7, #72]	; 0x48
 8000024:	2304      	movs	r3, #4
 8000026:	f887 3047 	strb.w	r3, [r7, #71]	; 0x47
 800002a:	4b4a      	ldr	r3, [pc, #296]	; (8000154 <_ada_seesaw+0x140>)
 800002c:	643b      	str	r3, [r7, #64]	; 0x40
 800002e:	4b4a      	ldr	r3, [pc, #296]	; (8000158 <_ada_seesaw+0x144>)
 8000030:	63fb      	str	r3, [r7, #60]	; 0x3c
 8000032:	4a4a      	ldr	r2, [pc, #296]	; (800015c <_ada_seesaw+0x148>)
 8000034:	f107 0310 	add.w	r3, r7, #16
 8000038:	ca07      	ldmia	r2, {r0, r1, r2}
 800003a:	e883 0007 	stmia.w	r3, {r0, r1, r2}
 800003e:	463a      	mov	r2, r7
 8000040:	f107 0310 	add.w	r3, r7, #16
 8000044:	4610      	mov	r0, r2
 8000046:	4619      	mov	r1, r3
 8000048:	2201      	movs	r2, #1
 800004a:	f000 fdd7 	bl	8000bfc <vl6180x_i2c__vl6180x_rng_alsIP>
 800004e:	4b44      	ldr	r3, [pc, #272]	; (8000160 <_ada_seesaw+0x14c>)
 8000050:	63bb      	str	r3, [r7, #56]	; 0x38
 8000052:	4b44      	ldr	r3, [pc, #272]	; (8000164 <_ada_seesaw+0x150>)
 8000054:	637b      	str	r3, [r7, #52]	; 0x34
 8000056:	4b44      	ldr	r3, [pc, #272]	; (8000168 <_ada_seesaw+0x154>)
 8000058:	633b      	str	r3, [r7, #48]	; 0x30
 800005a:	4b44      	ldr	r3, [pc, #272]	; (800016c <_ada_seesaw+0x158>)
 800005c:	62fb      	str	r3, [r7, #44]	; 0x2c
 800005e:	4b44      	ldr	r3, [pc, #272]	; (8000170 <_ada_seesaw+0x15c>)
 8000060:	62bb      	str	r3, [r7, #40]	; 0x28
 8000062:	4b44      	ldr	r3, [pc, #272]	; (8000174 <_ada_seesaw+0x160>)
 8000064:	627b      	str	r3, [r7, #36]	; 0x24
 8000066:	2308      	movs	r3, #8
 8000068:	623b      	str	r3, [r7, #32]
 800006a:	463b      	mov	r3, r7
 800006c:	469c      	mov	ip, r3
 800006e:	f000 f977 	bl	8000360 <seesaw__set_up_rng_als.4949>
 8000072:	463b      	mov	r3, r7
 8000074:	469c      	mov	ip, r3
 8000076:	f000 f87f 	bl	8000178 <seesaw__initialize_led.4947>
 800007a:	463b      	mov	r3, r7
 800007c:	469c      	mov	ip, r3
 800007e:	f000 f8b5 	bl	80001ec <seesaw__initialize_easydriver.4959>
 8000082:	2300      	movs	r3, #0
 8000084:	f887 304f 	strb.w	r3, [r7, #79]	; 0x4f
 8000088:	463b      	mov	r3, r7
 800008a:	4618      	mov	r0, r3
 800008c:	2164      	movs	r1, #100	; 0x64
 800008e:	f000 fe19 	bl	8000cc4 <vl6180x_i2c__readrange>
 8000092:	4603      	mov	r3, r0
 8000094:	77fb      	strb	r3, [r7, #31]
 8000096:	7ffb      	ldrb	r3, [r7, #31]
 8000098:	2bff      	cmp	r3, #255	; 0xff
 800009a:	bf0c      	ite	eq
 800009c:	2301      	moveq	r3, #1
 800009e:	2300      	movne	r3, #0
 80000a0:	b2da      	uxtb	r2, r3
 80000a2:	f897 304f 	ldrb.w	r3, [r7, #79]	; 0x4f
 80000a6:	2b00      	cmp	r3, #0
 80000a8:	bf14      	ite	ne
 80000aa:	2301      	movne	r3, #1
 80000ac:	2300      	moveq	r3, #0
 80000ae:	b2db      	uxtb	r3, r3
 80000b0:	4313      	orrs	r3, r2
 80000b2:	b2db      	uxtb	r3, r3
 80000b4:	2b00      	cmp	r3, #0
 80000b6:	d135      	bne.n	8000124 <_ada_seesaw+0x110>
 80000b8:	7ffb      	ldrb	r3, [r7, #31]
 80000ba:	2b13      	cmp	r3, #19
 80000bc:	bf94      	ite	ls
 80000be:	2301      	movls	r3, #1
 80000c0:	2300      	movhi	r3, #0
 80000c2:	b2da      	uxtb	r2, r3
 80000c4:	f897 304f 	ldrb.w	r3, [r7, #79]	; 0x4f
 80000c8:	2b00      	cmp	r3, #0
 80000ca:	bf0c      	ite	eq
 80000cc:	2301      	moveq	r3, #1
 80000ce:	2300      	movne	r3, #0
 80000d0:	b2db      	uxtb	r3, r3
 80000d2:	4013      	ands	r3, r2
 80000d4:	b2db      	uxtb	r3, r3
 80000d6:	2b00      	cmp	r3, #0
 80000d8:	d009      	beq.n	80000ee <_ada_seesaw+0xda>
 80000da:	463b      	mov	r3, r7
 80000dc:	469c      	mov	ip, r3
 80000de:	2000      	movs	r0, #0
 80000e0:	2101      	movs	r1, #1
 80000e2:	f000 f8c1 	bl	8000268 <seesaw__ramp.4954>
 80000e6:	481e      	ldr	r0, [pc, #120]	; (8000160 <_ada_seesaw+0x14c>)
 80000e8:	f002 fb98 	bl	800281c <stm32__gpio__clear>
 80000ec:	e01b      	b.n	8000126 <_ada_seesaw+0x112>
 80000ee:	7ffb      	ldrb	r3, [r7, #31]
 80000f0:	2b28      	cmp	r3, #40	; 0x28
 80000f2:	bf8c      	ite	hi
 80000f4:	2301      	movhi	r3, #1
 80000f6:	2300      	movls	r3, #0
 80000f8:	b2da      	uxtb	r2, r3
 80000fa:	f897 304f 	ldrb.w	r3, [r7, #79]	; 0x4f
 80000fe:	2b00      	cmp	r3, #0
 8000100:	bf0c      	ite	eq
 8000102:	2301      	moveq	r3, #1
 8000104:	2300      	movne	r3, #0
 8000106:	b2db      	uxtb	r3, r3
 8000108:	4013      	ands	r3, r2
 800010a:	b2db      	uxtb	r3, r3
 800010c:	2b00      	cmp	r3, #0
 800010e:	d00a      	beq.n	8000126 <_ada_seesaw+0x112>
 8000110:	463b      	mov	r3, r7
 8000112:	469c      	mov	ip, r3
 8000114:	2001      	movs	r0, #1
 8000116:	2101      	movs	r1, #1
 8000118:	f000 f8a6 	bl	8000268 <seesaw__ramp.4954>
 800011c:	4810      	ldr	r0, [pc, #64]	; (8000160 <_ada_seesaw+0x14c>)
 800011e:	f002 fb4f 	bl	80027c0 <stm32__gpio__set__2>
 8000122:	e000      	b.n	8000126 <_ada_seesaw+0x112>
 8000124:	bf00      	nop
 8000126:	f897 304f 	ldrb.w	r3, [r7, #79]	; 0x4f
 800012a:	3301      	adds	r3, #1
 800012c:	b2db      	uxtb	r3, r3
 800012e:	f003 0307 	and.w	r3, r3, #7
 8000132:	f887 304f 	strb.w	r3, [r7, #79]	; 0x4f
 8000136:	e7a7      	b.n	8000088 <_ada_seesaw+0x74>
 8000138:	4602      	mov	r2, r0
 800013a:	2301      	movs	r3, #1
 800013c:	2b01      	cmp	r3, #1
 800013e:	d103      	bne.n	8000148 <_ada_seesaw+0x134>
 8000140:	4613      	mov	r3, r2
 8000142:	4618      	mov	r0, r3
 8000144:	f00b fa44 	bl	800b5d0 <_Unwind_Resume>
 8000148:	3750      	adds	r7, #80	; 0x50
 800014a:	46bd      	mov	sp, r7
 800014c:	bd80      	pop	{r7, pc}
 800014e:	bf00      	nop
 8000150:	200006b4 	.word	0x200006b4
 8000154:	20000360 	.word	0x20000360
 8000158:	2000036c 	.word	0x2000036c
 800015c:	0800d288 	.word	0x0800d288
 8000160:	200003d8 	.word	0x200003d8
 8000164:	20000318 	.word	0x20000318
 8000168:	20000324 	.word	0x20000324
 800016c:	20000330 	.word	0x20000330
 8000170:	2000033c 	.word	0x2000033c
 8000174:	20000348 	.word	0x20000348

08000178 <seesaw__initialize_led.4947>:
 8000178:	b580      	push	{r7, lr}
 800017a:	b084      	sub	sp, #16
 800017c:	af00      	add	r7, sp, #0
 800017e:	f8c7 c004 	str.w	ip, [r7, #4]
 8000182:	4809      	ldr	r0, [pc, #36]	; (80001a8 <seesaw__initialize_led.4947+0x30>)
 8000184:	f001 f828 	bl	80011d8 <stm32__device__enable_clock__2>
 8000188:	2301      	movs	r3, #1
 800018a:	733b      	strb	r3, [r7, #12]
 800018c:	2300      	movs	r3, #0
 800018e:	737b      	strb	r3, [r7, #13]
 8000190:	2303      	movs	r3, #3
 8000192:	73bb      	strb	r3, [r7, #14]
 8000194:	2300      	movs	r3, #0
 8000196:	73fb      	strb	r3, [r7, #15]
 8000198:	4803      	ldr	r0, [pc, #12]	; (80001a8 <seesaw__initialize_led.4947+0x30>)
 800019a:	68f9      	ldr	r1, [r7, #12]
 800019c:	f002 fc3c 	bl	8002a18 <stm32__gpio__configure_io>
 80001a0:	3710      	adds	r7, #16
 80001a2:	46bd      	mov	sp, r7
 80001a4:	bd80      	pop	{r7, pc}
 80001a6:	bf00      	nop
 80001a8:	200003d8 	.word	0x200003d8

080001ac <seesaw__delay_milliseconds.4957>:
 80001ac:	b5f0      	push	{r4, r5, r6, r7, lr}
 80001ae:	b083      	sub	sp, #12
 80001b0:	af00      	add	r7, sp, #0
 80001b2:	6078      	str	r0, [r7, #4]
 80001b4:	f8c7 c000 	str.w	ip, [r7]
 80001b8:	f007 f888 	bl	80072cc <ada__real_time__clock>
 80001bc:	4605      	mov	r5, r0
 80001be:	460e      	mov	r6, r1
 80001c0:	687b      	ldr	r3, [r7, #4]
 80001c2:	4618      	mov	r0, r3
 80001c4:	f007 f8ca 	bl	800735c <ada__real_time__milliseconds>
 80001c8:	4603      	mov	r3, r0
 80001ca:	460c      	mov	r4, r1
 80001cc:	4628      	mov	r0, r5
 80001ce:	4631      	mov	r1, r6
 80001d0:	461a      	mov	r2, r3
 80001d2:	4623      	mov	r3, r4
 80001d4:	f007 f820 	bl	8007218 <ada__real_time__Oadd>
 80001d8:	4603      	mov	r3, r0
 80001da:	460c      	mov	r4, r1
 80001dc:	4618      	mov	r0, r3
 80001de:	4621      	mov	r1, r4
 80001e0:	f006 ff78 	bl	80070d4 <ada__real_time__delays__delay_until>
 80001e4:	370c      	adds	r7, #12
 80001e6:	46bd      	mov	sp, r7
 80001e8:	bdf0      	pop	{r4, r5, r6, r7, pc}
 80001ea:	bf00      	nop

080001ec <seesaw__initialize_easydriver.4959>:
 80001ec:	b580      	push	{r7, lr}
 80001ee:	b084      	sub	sp, #16
 80001f0:	af00      	add	r7, sp, #0
 80001f2:	f8c7 c004 	str.w	ip, [r7, #4]
 80001f6:	4817      	ldr	r0, [pc, #92]	; (8000254 <seesaw__initialize_easydriver.4959+0x68>)
 80001f8:	f000 ffee 	bl	80011d8 <stm32__device__enable_clock__2>
 80001fc:	2301      	movs	r3, #1
 80001fe:	733b      	strb	r3, [r7, #12]
 8000200:	2300      	movs	r3, #0
 8000202:	737b      	strb	r3, [r7, #13]
 8000204:	2303      	movs	r3, #3
 8000206:	73bb      	strb	r3, [r7, #14]
 8000208:	2300      	movs	r3, #0
 800020a:	73fb      	strb	r3, [r7, #15]
 800020c:	4811      	ldr	r0, [pc, #68]	; (8000254 <seesaw__initialize_easydriver.4959+0x68>)
 800020e:	68f9      	ldr	r1, [r7, #12]
 8000210:	f002 fc02 	bl	8002a18 <stm32__gpio__configure_io>
 8000214:	4810      	ldr	r0, [pc, #64]	; (8000258 <seesaw__initialize_easydriver.4959+0x6c>)
 8000216:	68f9      	ldr	r1, [r7, #12]
 8000218:	f002 fbfe 	bl	8002a18 <stm32__gpio__configure_io>
 800021c:	480f      	ldr	r0, [pc, #60]	; (800025c <seesaw__initialize_easydriver.4959+0x70>)
 800021e:	68f9      	ldr	r1, [r7, #12]
 8000220:	f002 fbfa 	bl	8002a18 <stm32__gpio__configure_io>
 8000224:	480e      	ldr	r0, [pc, #56]	; (8000260 <seesaw__initialize_easydriver.4959+0x74>)
 8000226:	68f9      	ldr	r1, [r7, #12]
 8000228:	f002 fbf6 	bl	8002a18 <stm32__gpio__configure_io>
 800022c:	480d      	ldr	r0, [pc, #52]	; (8000264 <seesaw__initialize_easydriver.4959+0x78>)
 800022e:	68f9      	ldr	r1, [r7, #12]
 8000230:	f002 fbf2 	bl	8002a18 <stm32__gpio__configure_io>
 8000234:	480b      	ldr	r0, [pc, #44]	; (8000264 <seesaw__initialize_easydriver.4959+0x78>)
 8000236:	f002 faf1 	bl	800281c <stm32__gpio__clear>
 800023a:	4809      	ldr	r0, [pc, #36]	; (8000260 <seesaw__initialize_easydriver.4959+0x74>)
 800023c:	f002 faee 	bl	800281c <stm32__gpio__clear>
 8000240:	4804      	ldr	r0, [pc, #16]	; (8000254 <seesaw__initialize_easydriver.4959+0x68>)
 8000242:	f002 fabd 	bl	80027c0 <stm32__gpio__set__2>
 8000246:	4804      	ldr	r0, [pc, #16]	; (8000258 <seesaw__initialize_easydriver.4959+0x6c>)
 8000248:	f002 faba 	bl	80027c0 <stm32__gpio__set__2>
 800024c:	3710      	adds	r7, #16
 800024e:	46bd      	mov	sp, r7
 8000250:	bd80      	pop	{r7, pc}
 8000252:	bf00      	nop
 8000254:	20000318 	.word	0x20000318
 8000258:	20000324 	.word	0x20000324
 800025c:	20000330 	.word	0x20000330
 8000260:	2000033c 	.word	0x2000033c
 8000264:	20000348 	.word	0x20000348

08000268 <seesaw__ramp.4954>:
 8000268:	b590      	push	{r4, r7, lr}
 800026a:	b087      	sub	sp, #28
 800026c:	af00      	add	r7, sp, #0
 800026e:	4603      	mov	r3, r0
 8000270:	60b9      	str	r1, [r7, #8]
 8000272:	73fb      	strb	r3, [r7, #15]
 8000274:	4664      	mov	r4, ip
 8000276:	f8c7 c004 	str.w	ip, [r7, #4]
 800027a:	7bfb      	ldrb	r3, [r7, #15]
 800027c:	2b00      	cmp	r3, #0
 800027e:	d003      	beq.n	8000288 <seesaw__ramp.4954+0x20>
 8000280:	4811      	ldr	r0, [pc, #68]	; (80002c8 <seesaw__ramp.4954+0x60>)
 8000282:	f002 fa9d 	bl	80027c0 <stm32__gpio__set__2>
 8000286:	e002      	b.n	800028e <seesaw__ramp.4954+0x26>
 8000288:	480f      	ldr	r0, [pc, #60]	; (80002c8 <seesaw__ramp.4954+0x60>)
 800028a:	f002 fac7 	bl	800281c <stm32__gpio__clear>
 800028e:	68bb      	ldr	r3, [r7, #8]
 8000290:	613b      	str	r3, [r7, #16]
 8000292:	693b      	ldr	r3, [r7, #16]
 8000294:	2b00      	cmp	r3, #0
 8000296:	db13      	blt.n	80002c0 <seesaw__ramp.4954+0x58>
 8000298:	2300      	movs	r3, #0
 800029a:	617b      	str	r3, [r7, #20]
 800029c:	480b      	ldr	r0, [pc, #44]	; (80002cc <seesaw__ramp.4954+0x64>)
 800029e:	f002 fa8f 	bl	80027c0 <stm32__gpio__set__2>
 80002a2:	46a4      	mov	ip, r4
 80002a4:	2001      	movs	r0, #1
 80002a6:	f7ff ff81 	bl	80001ac <seesaw__delay_milliseconds.4957>
 80002aa:	4808      	ldr	r0, [pc, #32]	; (80002cc <seesaw__ramp.4954+0x64>)
 80002ac:	f002 fab6 	bl	800281c <stm32__gpio__clear>
 80002b0:	697a      	ldr	r2, [r7, #20]
 80002b2:	693b      	ldr	r3, [r7, #16]
 80002b4:	429a      	cmp	r2, r3
 80002b6:	d003      	beq.n	80002c0 <seesaw__ramp.4954+0x58>
 80002b8:	697b      	ldr	r3, [r7, #20]
 80002ba:	3301      	adds	r3, #1
 80002bc:	617b      	str	r3, [r7, #20]
 80002be:	e7ed      	b.n	800029c <seesaw__ramp.4954+0x34>
 80002c0:	371c      	adds	r7, #28
 80002c2:	46bd      	mov	sp, r7
 80002c4:	bd90      	pop	{r4, r7, pc}
 80002c6:	bf00      	nop
 80002c8:	2000033c 	.word	0x2000033c
 80002cc:	20000330 	.word	0x20000330

080002d0 <seesaw__initialize_rng_als_hardware.4945>:
 80002d0:	b580      	push	{r7, lr}
 80002d2:	b088      	sub	sp, #32
 80002d4:	af00      	add	r7, sp, #0
 80002d6:	6178      	str	r0, [r7, #20]
 80002d8:	6139      	str	r1, [r7, #16]
 80002da:	60bb      	str	r3, [r7, #8]
 80002dc:	4613      	mov	r3, r2
 80002de:	73fb      	strb	r3, [r7, #15]
 80002e0:	f8c7 c004 	str.w	ip, [r7, #4]
 80002e4:	6938      	ldr	r0, [r7, #16]
 80002e6:	f000 ff77 	bl	80011d8 <stm32__device__enable_clock__2>
 80002ea:	68b8      	ldr	r0, [r7, #8]
 80002ec:	f000 ff74 	bl	80011d8 <stm32__device__enable_clock__2>
 80002f0:	697b      	ldr	r3, [r7, #20]
 80002f2:	2b00      	cmp	r3, #0
 80002f4:	d103      	bne.n	80002fe <seesaw__initialize_rng_als_hardware.4945+0x2e>
 80002f6:	4818      	ldr	r0, [pc, #96]	; (8000358 <seesaw__initialize_rng_als_hardware.4945+0x88>)
 80002f8:	2189      	movs	r1, #137	; 0x89
 80002fa:	f008 fe55 	bl	8008fa8 <__gnat_rcheck_CE_Access_Check>
 80002fe:	6978      	ldr	r0, [r7, #20]
 8000300:	f000 ffc2 	bl	8001288 <stm32__device__enable_clock__5>
 8000304:	7bfb      	ldrb	r3, [r7, #15]
 8000306:	6938      	ldr	r0, [r7, #16]
 8000308:	4619      	mov	r1, r3
 800030a:	f002 fc49 	bl	8002ba0 <stm32__gpio__configure_alternate_function>
 800030e:	f897 3028 	ldrb.w	r3, [r7, #40]	; 0x28
 8000312:	68b8      	ldr	r0, [r7, #8]
 8000314:	4619      	mov	r1, r3
 8000316:	f002 fc43 	bl	8002ba0 <stm32__gpio__configure_alternate_function>
 800031a:	2303      	movs	r3, #3
 800031c:	77bb      	strb	r3, [r7, #30]
 800031e:	2302      	movs	r3, #2
 8000320:	773b      	strb	r3, [r7, #28]
 8000322:	2301      	movs	r3, #1
 8000324:	777b      	strb	r3, [r7, #29]
 8000326:	2301      	movs	r3, #1
 8000328:	77fb      	strb	r3, [r7, #31]
 800032a:	6938      	ldr	r0, [r7, #16]
 800032c:	69f9      	ldr	r1, [r7, #28]
 800032e:	f002 fb73 	bl	8002a18 <stm32__gpio__configure_io>
 8000332:	68b8      	ldr	r0, [r7, #8]
 8000334:	69f9      	ldr	r1, [r7, #28]
 8000336:	f002 fb6f 	bl	8002a18 <stm32__gpio__configure_io>
 800033a:	697b      	ldr	r3, [r7, #20]
 800033c:	2b00      	cmp	r3, #0
 800033e:	d103      	bne.n	8000348 <seesaw__initialize_rng_als_hardware.4945+0x78>
 8000340:	4805      	ldr	r0, [pc, #20]	; (8000358 <seesaw__initialize_rng_als_hardware.4945+0x88>)
 8000342:	2198      	movs	r1, #152	; 0x98
 8000344:	f008 fe30 	bl	8008fa8 <__gnat_rcheck_CE_Access_Check>
 8000348:	6978      	ldr	r0, [r7, #20]
 800034a:	4904      	ldr	r1, [pc, #16]	; (800035c <seesaw__initialize_rng_als_hardware.4945+0x8c>)
 800034c:	f004 fae2 	bl	8004914 <stm32__i2c__configure>
 8000350:	3720      	adds	r7, #32
 8000352:	46bd      	mov	sp, r7
 8000354:	bd80      	pop	{r7, pc}
 8000356:	bf00      	nop
 8000358:	0800d294 	.word	0x0800d294
 800035c:	0800d2a0 	.word	0x0800d2a0

08000360 <seesaw__set_up_rng_als.4949>:
 8000360:	b590      	push	{r4, r7, lr}
 8000362:	b085      	sub	sp, #20
 8000364:	af02      	add	r7, sp, #8
 8000366:	4664      	mov	r4, ip
 8000368:	f8c7 c004 	str.w	ip, [r7, #4]
 800036c:	2304      	movs	r3, #4
 800036e:	9300      	str	r3, [sp, #0]
 8000370:	2300      	movs	r3, #0
 8000372:	9301      	str	r3, [sp, #4]
 8000374:	46a4      	mov	ip, r4
 8000376:	4806      	ldr	r0, [pc, #24]	; (8000390 <seesaw__set_up_rng_als.4949+0x30>)
 8000378:	4906      	ldr	r1, [pc, #24]	; (8000394 <seesaw__set_up_rng_als.4949+0x34>)
 800037a:	2204      	movs	r2, #4
 800037c:	4b06      	ldr	r3, [pc, #24]	; (8000398 <seesaw__set_up_rng_als.4949+0x38>)
 800037e:	f7ff ffa7 	bl	80002d0 <seesaw__initialize_rng_als_hardware.4945>
 8000382:	4623      	mov	r3, r4
 8000384:	4618      	mov	r0, r3
 8000386:	f000 fd5d 	bl	8000e44 <vl6180x_i2c__staticinit>
 800038a:	370c      	adds	r7, #12
 800038c:	46bd      	mov	sp, r7
 800038e:	bd90      	pop	{r4, r7, pc}
 8000390:	200006b4 	.word	0x200006b4
 8000394:	20000360 	.word	0x20000360
 8000398:	2000036c 	.word	0x2000036c

0800039c <adafinal>:
 800039c:	b580      	push	{r7, lr}
 800039e:	af00      	add	r7, sp, #0
 80003a0:	4b08      	ldr	r3, [pc, #32]	; (80003c4 <adafinal+0x28>)
 80003a2:	781b      	ldrb	r3, [r3, #0]
 80003a4:	f083 0301 	eor.w	r3, r3, #1
 80003a8:	b2db      	uxtb	r3, r3
 80003aa:	2b00      	cmp	r3, #0
 80003ac:	d107      	bne.n	80003be <adafinal+0x22>
 80003ae:	4b05      	ldr	r3, [pc, #20]	; (80003c4 <adafinal+0x28>)
 80003b0:	2200      	movs	r2, #0
 80003b2:	701a      	strb	r2, [r3, #0]
 80003b4:	f009 fbc0 	bl	8009b38 <__gnat_runtime_finalize>
 80003b8:	f007 ff62 	bl	8008280 <system__standard_library__adafinal>
 80003bc:	e000      	b.n	80003c0 <adafinal+0x24>
 80003be:	bf00      	nop
 80003c0:	bd80      	pop	{r7, pc}
 80003c2:	bf00      	nop
 80003c4:	20000000 	.word	0x20000000

080003c8 <adainit>:
 80003c8:	b580      	push	{r7, lr}
 80003ca:	af00      	add	r7, sp, #0
 80003cc:	4b95      	ldr	r3, [pc, #596]	; (8000624 <adainit+0x25c>)
 80003ce:	781b      	ldrb	r3, [r3, #0]
 80003d0:	2b00      	cmp	r3, #0
 80003d2:	f040 8124 	bne.w	800061e <adainit+0x256>
 80003d6:	4b93      	ldr	r3, [pc, #588]	; (8000624 <adainit+0x25c>)
 80003d8:	2201      	movs	r2, #1
 80003da:	701a      	strb	r2, [r3, #0]
 80003dc:	4b92      	ldr	r3, [pc, #584]	; (8000628 <adainit+0x260>)
 80003de:	f04f 32ff 	mov.w	r2, #4294967295
 80003e2:	601a      	str	r2, [r3, #0]
 80003e4:	4b91      	ldr	r3, [pc, #580]	; (800062c <adainit+0x264>)
 80003e6:	2200      	movs	r2, #0
 80003e8:	601a      	str	r2, [r3, #0]
 80003ea:	4b91      	ldr	r3, [pc, #580]	; (8000630 <adainit+0x268>)
 80003ec:	2262      	movs	r2, #98	; 0x62
 80003ee:	701a      	strb	r2, [r3, #0]
 80003f0:	4b90      	ldr	r3, [pc, #576]	; (8000634 <adainit+0x26c>)
 80003f2:	2243      	movs	r2, #67	; 0x43
 80003f4:	701a      	strb	r2, [r3, #0]
 80003f6:	4b90      	ldr	r3, [pc, #576]	; (8000638 <adainit+0x270>)
 80003f8:	2220      	movs	r2, #32
 80003fa:	701a      	strb	r2, [r3, #0]
 80003fc:	4b8f      	ldr	r3, [pc, #572]	; (800063c <adainit+0x274>)
 80003fe:	2246      	movs	r2, #70	; 0x46
 8000400:	701a      	strb	r2, [r3, #0]
 8000402:	4a8f      	ldr	r2, [pc, #572]	; (8000640 <adainit+0x278>)
 8000404:	4b8f      	ldr	r3, [pc, #572]	; (8000644 <adainit+0x27c>)
 8000406:	601a      	str	r2, [r3, #0]
 8000408:	4b8f      	ldr	r3, [pc, #572]	; (8000648 <adainit+0x280>)
 800040a:	2200      	movs	r2, #0
 800040c:	601a      	str	r2, [r3, #0]
 800040e:	4b8f      	ldr	r3, [pc, #572]	; (800064c <adainit+0x284>)
 8000410:	f04f 32ff 	mov.w	r2, #4294967295
 8000414:	601a      	str	r2, [r3, #0]
 8000416:	4a8e      	ldr	r2, [pc, #568]	; (8000650 <adainit+0x288>)
 8000418:	4b8e      	ldr	r3, [pc, #568]	; (8000654 <adainit+0x28c>)
 800041a:	601a      	str	r2, [r3, #0]
 800041c:	4b8e      	ldr	r3, [pc, #568]	; (8000658 <adainit+0x290>)
 800041e:	2200      	movs	r2, #0
 8000420:	601a      	str	r2, [r3, #0]
 8000422:	4b8e      	ldr	r3, [pc, #568]	; (800065c <adainit+0x294>)
 8000424:	2200      	movs	r2, #0
 8000426:	601a      	str	r2, [r3, #0]
 8000428:	4b8d      	ldr	r3, [pc, #564]	; (8000660 <adainit+0x298>)
 800042a:	2201      	movs	r2, #1
 800042c:	601a      	str	r2, [r3, #0]
 800042e:	4b8d      	ldr	r3, [pc, #564]	; (8000664 <adainit+0x29c>)
 8000430:	f04f 32ff 	mov.w	r2, #4294967295
 8000434:	601a      	str	r2, [r3, #0]
 8000436:	4b8c      	ldr	r3, [pc, #560]	; (8000668 <adainit+0x2a0>)
 8000438:	2200      	movs	r2, #0
 800043a:	601a      	str	r2, [r3, #0]
 800043c:	2001      	movs	r0, #1
 800043e:	f009 fb4f 	bl	8009ae0 <__gnat_runtime_initialize>
 8000442:	f009 fc07 	bl	8009c54 <ada__streams___elabs>
 8000446:	4b89      	ldr	r3, [pc, #548]	; (800066c <adainit+0x2a4>)
 8000448:	881b      	ldrh	r3, [r3, #0]
 800044a:	b29b      	uxth	r3, r3
 800044c:	3301      	adds	r3, #1
 800044e:	b29a      	uxth	r2, r3
 8000450:	4b86      	ldr	r3, [pc, #536]	; (800066c <adainit+0x2a4>)
 8000452:	801a      	strh	r2, [r3, #0]
 8000454:	f009 fc72 	bl	8009d3c <system__finalization_root___elabs>
 8000458:	4b85      	ldr	r3, [pc, #532]	; (8000670 <adainit+0x2a8>)
 800045a:	881b      	ldrh	r3, [r3, #0]
 800045c:	b29b      	uxth	r3, r3
 800045e:	3301      	adds	r3, #1
 8000460:	b29a      	uxth	r2, r3
 8000462:	4b83      	ldr	r3, [pc, #524]	; (8000670 <adainit+0x2a8>)
 8000464:	801a      	strh	r2, [r3, #0]
 8000466:	f008 ff4b 	bl	8009300 <ada__finalization___elabs>
 800046a:	4b82      	ldr	r3, [pc, #520]	; (8000674 <adainit+0x2ac>)
 800046c:	881b      	ldrh	r3, [r3, #0]
 800046e:	b29b      	uxth	r3, r3
 8000470:	3301      	adds	r3, #1
 8000472:	b29a      	uxth	r2, r3
 8000474:	4b7f      	ldr	r3, [pc, #508]	; (8000674 <adainit+0x2ac>)
 8000476:	801a      	strh	r2, [r3, #0]
 8000478:	f007 ffec 	bl	8008454 <system__soft_links___elabs>
 800047c:	f007 fefa 	bl	8008274 <system__storage_pools___elabs>
 8000480:	4b7d      	ldr	r3, [pc, #500]	; (8000678 <adainit+0x2b0>)
 8000482:	881b      	ldrh	r3, [r3, #0]
 8000484:	b29b      	uxth	r3, r3
 8000486:	3301      	adds	r3, #1
 8000488:	b29a      	uxth	r2, r3
 800048a:	4b7b      	ldr	r3, [pc, #492]	; (8000678 <adainit+0x2b0>)
 800048c:	801a      	strh	r2, [r3, #0]
 800048e:	f009 facd 	bl	8009a2c <system__finalization_masters___elabs>
 8000492:	f006 fa8f 	bl	80069b4 <system__bb__timing_events___elabs>
 8000496:	4b79      	ldr	r3, [pc, #484]	; (800067c <adainit+0x2b4>)
 8000498:	881b      	ldrh	r3, [r3, #0]
 800049a:	b29b      	uxth	r3, r3
 800049c:	3301      	adds	r3, #1
 800049e:	b29a      	uxth	r2, r3
 80004a0:	4b76      	ldr	r3, [pc, #472]	; (800067c <adainit+0x2b4>)
 80004a2:	801a      	strh	r2, [r3, #0]
 80004a4:	4b76      	ldr	r3, [pc, #472]	; (8000680 <adainit+0x2b8>)
 80004a6:	881b      	ldrh	r3, [r3, #0]
 80004a8:	b29b      	uxth	r3, r3
 80004aa:	3301      	adds	r3, #1
 80004ac:	b29a      	uxth	r2, r3
 80004ae:	4b74      	ldr	r3, [pc, #464]	; (8000680 <adainit+0x2b8>)
 80004b0:	801a      	strh	r2, [r3, #0]
 80004b2:	f009 fbd5 	bl	8009c60 <ada__text_io___elabb>
 80004b6:	4b73      	ldr	r3, [pc, #460]	; (8000684 <adainit+0x2bc>)
 80004b8:	881b      	ldrh	r3, [r3, #0]
 80004ba:	b29b      	uxth	r3, r3
 80004bc:	3301      	adds	r3, #1
 80004be:	b29a      	uxth	r2, r3
 80004c0:	4b70      	ldr	r3, [pc, #448]	; (8000684 <adainit+0x2bc>)
 80004c2:	801a      	strh	r2, [r3, #0]
 80004c4:	f009 fb6a 	bl	8009b9c <system__exception_table___elabb>
 80004c8:	4b6f      	ldr	r3, [pc, #444]	; (8000688 <adainit+0x2c0>)
 80004ca:	881b      	ldrh	r3, [r3, #0]
 80004cc:	b29b      	uxth	r3, r3
 80004ce:	3301      	adds	r3, #1
 80004d0:	b29a      	uxth	r2, r3
 80004d2:	4b6d      	ldr	r3, [pc, #436]	; (8000688 <adainit+0x2c0>)
 80004d4:	801a      	strh	r2, [r3, #0]
 80004d6:	f007 ff11 	bl	80082fc <system__pool_global___elabs>
 80004da:	4b6c      	ldr	r3, [pc, #432]	; (800068c <adainit+0x2c4>)
 80004dc:	881b      	ldrh	r3, [r3, #0]
 80004de:	b29b      	uxth	r3, r3
 80004e0:	3301      	adds	r3, #1
 80004e2:	b29a      	uxth	r2, r3
 80004e4:	4b69      	ldr	r3, [pc, #420]	; (800068c <adainit+0x2c4>)
 80004e6:	801a      	strh	r2, [r3, #0]
 80004e8:	f009 fa94 	bl	8009a14 <system__finalization_masters___elabb>
 80004ec:	4b68      	ldr	r3, [pc, #416]	; (8000690 <adainit+0x2c8>)
 80004ee:	881b      	ldrh	r3, [r3, #0]
 80004f0:	b29b      	uxth	r3, r3
 80004f2:	3301      	adds	r3, #1
 80004f4:	b29a      	uxth	r2, r3
 80004f6:	4b66      	ldr	r3, [pc, #408]	; (8000690 <adainit+0x2c8>)
 80004f8:	801a      	strh	r2, [r3, #0]
 80004fa:	f009 f85b 	bl	80095b4 <ada__tags___elabb>
 80004fe:	4b65      	ldr	r3, [pc, #404]	; (8000694 <adainit+0x2cc>)
 8000500:	881b      	ldrh	r3, [r3, #0]
 8000502:	b29b      	uxth	r3, r3
 8000504:	3301      	adds	r3, #1
 8000506:	b29a      	uxth	r2, r3
 8000508:	4b62      	ldr	r3, [pc, #392]	; (8000694 <adainit+0x2cc>)
 800050a:	801a      	strh	r2, [r3, #0]
 800050c:	f006 ff44 	bl	8007398 <ada__real_time___elabb>
 8000510:	4b61      	ldr	r3, [pc, #388]	; (8000698 <adainit+0x2d0>)
 8000512:	881b      	ldrh	r3, [r3, #0]
 8000514:	b29b      	uxth	r3, r3
 8000516:	3301      	adds	r3, #1
 8000518:	b29a      	uxth	r2, r3
 800051a:	4b5f      	ldr	r3, [pc, #380]	; (8000698 <adainit+0x2d0>)
 800051c:	801a      	strh	r2, [r3, #0]
 800051e:	f006 f8f9 	bl	8006714 <hal__gpio___elabs>
 8000522:	4b5e      	ldr	r3, [pc, #376]	; (800069c <adainit+0x2d4>)
 8000524:	881b      	ldrh	r3, [r3, #0]
 8000526:	b29b      	uxth	r3, r3
 8000528:	3301      	adds	r3, #1
 800052a:	b29a      	uxth	r2, r3
 800052c:	4b5b      	ldr	r3, [pc, #364]	; (800069c <adainit+0x2d4>)
 800052e:	801a      	strh	r2, [r3, #0]
 8000530:	f006 f930 	bl	8006794 <hal__i2c___elabs>
 8000534:	4b5a      	ldr	r3, [pc, #360]	; (80006a0 <adainit+0x2d8>)
 8000536:	881b      	ldrh	r3, [r3, #0]
 8000538:	b29b      	uxth	r3, r3
 800053a:	3301      	adds	r3, #1
 800053c:	b29a      	uxth	r2, r3
 800053e:	4b58      	ldr	r3, [pc, #352]	; (80006a0 <adainit+0x2d8>)
 8000540:	801a      	strh	r2, [r3, #0]
 8000542:	f006 f8a7 	bl	8006694 <hal__spi___elabs>
 8000546:	4b57      	ldr	r3, [pc, #348]	; (80006a4 <adainit+0x2dc>)
 8000548:	881b      	ldrh	r3, [r3, #0]
 800054a:	b29b      	uxth	r3, r3
 800054c:	3301      	adds	r3, #1
 800054e:	b29a      	uxth	r2, r3
 8000550:	4b54      	ldr	r3, [pc, #336]	; (80006a4 <adainit+0x2dc>)
 8000552:	801a      	strh	r2, [r3, #0]
 8000554:	f006 f81a 	bl	800658c <stm32__adc___elabs>
 8000558:	4b53      	ldr	r3, [pc, #332]	; (80006a8 <adainit+0x2e0>)
 800055a:	881b      	ldrh	r3, [r3, #0]
 800055c:	b29b      	uxth	r3, r3
 800055e:	3301      	adds	r3, #1
 8000560:	b29a      	uxth	r2, r3
 8000562:	4b51      	ldr	r3, [pc, #324]	; (80006a8 <adainit+0x2e0>)
 8000564:	801a      	strh	r2, [r3, #0]
 8000566:	4b51      	ldr	r3, [pc, #324]	; (80006ac <adainit+0x2e4>)
 8000568:	881b      	ldrh	r3, [r3, #0]
 800056a:	b29b      	uxth	r3, r3
 800056c:	3301      	adds	r3, #1
 800056e:	b29a      	uxth	r2, r3
 8000570:	4b4e      	ldr	r3, [pc, #312]	; (80006ac <adainit+0x2e4>)
 8000572:	801a      	strh	r2, [r3, #0]
 8000574:	4b4e      	ldr	r3, [pc, #312]	; (80006b0 <adainit+0x2e8>)
 8000576:	881b      	ldrh	r3, [r3, #0]
 8000578:	b29b      	uxth	r3, r3
 800057a:	3301      	adds	r3, #1
 800057c:	b29a      	uxth	r2, r3
 800057e:	4b4c      	ldr	r3, [pc, #304]	; (80006b0 <adainit+0x2e8>)
 8000580:	801a      	strh	r2, [r3, #0]
 8000582:	f002 fbb7 	bl	8002cf4 <stm32__gpio___elabs>
 8000586:	f005 fff3 	bl	8006570 <stm32__i2c___elabs>
 800058a:	4b4a      	ldr	r3, [pc, #296]	; (80006b4 <adainit+0x2ec>)
 800058c:	881b      	ldrh	r3, [r3, #0]
 800058e:	b29b      	uxth	r3, r3
 8000590:	3301      	adds	r3, #1
 8000592:	b29a      	uxth	r2, r3
 8000594:	4b47      	ldr	r3, [pc, #284]	; (80006b4 <adainit+0x2ec>)
 8000596:	801a      	strh	r2, [r3, #0]
 8000598:	4b47      	ldr	r3, [pc, #284]	; (80006b8 <adainit+0x2f0>)
 800059a:	881b      	ldrh	r3, [r3, #0]
 800059c:	b29b      	uxth	r3, r3
 800059e:	3301      	adds	r3, #1
 80005a0:	b29a      	uxth	r2, r3
 80005a2:	4b45      	ldr	r3, [pc, #276]	; (80006b8 <adainit+0x2f0>)
 80005a4:	801a      	strh	r2, [r3, #0]
 80005a6:	f003 ffdb 	bl	8004560 <stm32__spi___elabs>
 80005aa:	4b44      	ldr	r3, [pc, #272]	; (80006bc <adainit+0x2f4>)
 80005ac:	881b      	ldrh	r3, [r3, #0]
 80005ae:	b29b      	uxth	r3, r3
 80005b0:	3301      	adds	r3, #1
 80005b2:	b29a      	uxth	r2, r3
 80005b4:	4b41      	ldr	r3, [pc, #260]	; (80006bc <adainit+0x2f4>)
 80005b6:	801a      	strh	r2, [r3, #0]
 80005b8:	4b41      	ldr	r3, [pc, #260]	; (80006c0 <adainit+0x2f8>)
 80005ba:	881b      	ldrh	r3, [r3, #0]
 80005bc:	b29b      	uxth	r3, r3
 80005be:	3301      	adds	r3, #1
 80005c0:	b29a      	uxth	r2, r3
 80005c2:	4b3f      	ldr	r3, [pc, #252]	; (80006c0 <adainit+0x2f8>)
 80005c4:	801a      	strh	r2, [r3, #0]
 80005c6:	f000 feb9 	bl	800133c <stm32__device___elabs>
 80005ca:	4b3e      	ldr	r3, [pc, #248]	; (80006c4 <adainit+0x2fc>)
 80005cc:	881b      	ldrh	r3, [r3, #0]
 80005ce:	b29b      	uxth	r3, r3
 80005d0:	3301      	adds	r3, #1
 80005d2:	b29a      	uxth	r2, r3
 80005d4:	4b3b      	ldr	r3, [pc, #236]	; (80006c4 <adainit+0x2fc>)
 80005d6:	801a      	strh	r2, [r3, #0]
 80005d8:	4b3b      	ldr	r3, [pc, #236]	; (80006c8 <adainit+0x300>)
 80005da:	881b      	ldrh	r3, [r3, #0]
 80005dc:	b29b      	uxth	r3, r3
 80005de:	3301      	adds	r3, #1
 80005e0:	b29a      	uxth	r2, r3
 80005e2:	4b39      	ldr	r3, [pc, #228]	; (80006c8 <adainit+0x300>)
 80005e4:	801a      	strh	r2, [r3, #0]
 80005e6:	4b39      	ldr	r3, [pc, #228]	; (80006cc <adainit+0x304>)
 80005e8:	881b      	ldrh	r3, [r3, #0]
 80005ea:	b29b      	uxth	r3, r3
 80005ec:	3301      	adds	r3, #1
 80005ee:	b29a      	uxth	r2, r3
 80005f0:	4b36      	ldr	r3, [pc, #216]	; (80006cc <adainit+0x304>)
 80005f2:	801a      	strh	r2, [r3, #0]
 80005f4:	f000 fada 	bl	8000bac <vl6180x_i2c_io___elabs>
 80005f8:	4b35      	ldr	r3, [pc, #212]	; (80006d0 <adainit+0x308>)
 80005fa:	881b      	ldrh	r3, [r3, #0]
 80005fc:	b29b      	uxth	r3, r3
 80005fe:	3301      	adds	r3, #1
 8000600:	b29a      	uxth	r2, r3
 8000602:	4b33      	ldr	r3, [pc, #204]	; (80006d0 <adainit+0x308>)
 8000604:	801a      	strh	r2, [r3, #0]
 8000606:	f000 fd6f 	bl	80010e8 <vl6180x_i2c___elabs>
 800060a:	4b32      	ldr	r3, [pc, #200]	; (80006d4 <adainit+0x30c>)
 800060c:	881b      	ldrh	r3, [r3, #0]
 800060e:	b29b      	uxth	r3, r3
 8000610:	3301      	adds	r3, #1
 8000612:	b29a      	uxth	r2, r3
 8000614:	4b2f      	ldr	r3, [pc, #188]	; (80006d4 <adainit+0x30c>)
 8000616:	801a      	strh	r2, [r3, #0]
 8000618:	f006 ff1e 	bl	8007458 <__gnat_start_slave_cpus>
 800061c:	e000      	b.n	8000620 <adainit+0x258>
 800061e:	bf00      	nop
 8000620:	bd80      	pop	{r7, pc}
 8000622:	bf00      	nop
 8000624:	20000000 	.word	0x20000000
 8000628:	20000114 	.word	0x20000114
 800062c:	20000274 	.word	0x20000274
 8000630:	2000027c 	.word	0x2000027c
 8000634:	20000270 	.word	0x20000270
 8000638:	20000268 	.word	0x20000268
 800063c:	20000284 	.word	0x20000284
 8000640:	0800d2b8 	.word	0x0800d2b8
 8000644:	20000264 	.word	0x20000264
 8000648:	20000278 	.word	0x20000278
 800064c:	20000124 	.word	0x20000124
 8000650:	0800d2bc 	.word	0x0800d2bc
 8000654:	20000298 	.word	0x20000298
 8000658:	20000294 	.word	0x20000294
 800065c:	20000280 	.word	0x20000280
 8000660:	2000028c 	.word	0x2000028c
 8000664:	20000290 	.word	0x20000290
 8000668:	2000026c 	.word	0x2000026c
 800066c:	200002a4 	.word	0x200002a4
 8000670:	200002c0 	.word	0x200002c0
 8000674:	2000021e 	.word	0x2000021e
 8000678:	20000154 	.word	0x20000154
 800067c:	200000ec 	.word	0x200000ec
 8000680:	20000204 	.word	0x20000204
 8000684:	200002a6 	.word	0x200002a6
 8000688:	2000029c 	.word	0x2000029c
 800068c:	200001f8 	.word	0x200001f8
 8000690:	20000244 	.word	0x20000244
 8000694:	20000228 	.word	0x20000228
 8000698:	2000013c 	.word	0x2000013c
 800069c:	200000d0 	.word	0x200000d0
 80006a0:	200000dc 	.word	0x200000dc
 80006a4:	200000c6 	.word	0x200000c6
 80006a8:	200000c4 	.word	0x200000c4
 80006ac:	20000080 	.word	0x20000080
 80006b0:	20000084 	.word	0x20000084
 80006b4:	200000a4 	.word	0x200000a4
 80006b8:	20000060 	.word	0x20000060
 80006bc:	20000086 	.word	0x20000086
 80006c0:	20000062 	.word	0x20000062
 80006c4:	20000016 	.word	0x20000016
 80006c8:	20000082 	.word	0x20000082
 80006cc:	20000002 	.word	0x20000002
 80006d0:	20000004 	.word	0x20000004
 80006d4:	20000014 	.word	0x20000014

080006d8 <main>:
 80006d8:	b580      	push	{r7, lr}
 80006da:	b084      	sub	sp, #16
 80006dc:	af00      	add	r7, sp, #0
 80006de:	4b09      	ldr	r3, [pc, #36]	; (8000704 <main+0x2c>)
 80006e0:	607b      	str	r3, [r7, #4]
 80006e2:	f107 0308 	add.w	r3, r7, #8
 80006e6:	4618      	mov	r0, r3
 80006e8:	f009 f9f8 	bl	8009adc <__gnat_initialize>
 80006ec:	f7ff fe6c 	bl	80003c8 <adainit>
 80006f0:	f7ff fc90 	bl	8000014 <_ada_seesaw>
 80006f4:	f7ff fe52 	bl	800039c <adafinal>
 80006f8:	f009 f9ee 	bl	8009ad8 <__gnat_finalize>
 80006fc:	3710      	adds	r7, #16
 80006fe:	46bd      	mov	sp, r7
 8000700:	bd80      	pop	{r7, pc}
 8000702:	bf00      	nop
 8000704:	0800d2ac 	.word	0x0800d2ac

08000708 <vl6180x_i2c_io__io_portIP>:
 8000708:	b480      	push	{r7}
 800070a:	b083      	sub	sp, #12
 800070c:	af00      	add	r7, sp, #0
 800070e:	6078      	str	r0, [r7, #4]
 8000710:	460b      	mov	r3, r1
 8000712:	70fb      	strb	r3, [r7, #3]
 8000714:	78fb      	ldrb	r3, [r7, #3]
 8000716:	2b00      	cmp	r3, #0
 8000718:	d002      	beq.n	8000720 <vl6180x_i2c_io__io_portIP+0x18>
 800071a:	687b      	ldr	r3, [r7, #4]
 800071c:	4a04      	ldr	r2, [pc, #16]	; (8000730 <vl6180x_i2c_io__io_portIP+0x28>)
 800071e:	601a      	str	r2, [r3, #0]
 8000720:	687b      	ldr	r3, [r7, #4]
 8000722:	2200      	movs	r2, #0
 8000724:	605a      	str	r2, [r3, #4]
 8000726:	370c      	adds	r7, #12
 8000728:	46bd      	mov	sp, r7
 800072a:	f85d 7b04 	ldr.w	r7, [sp], #4
 800072e:	4770      	bx	lr
 8000730:	0800d344 	.word	0x0800d344

08000734 <vl6180x_i2c_io___size>:
 8000734:	b490      	push	{r4, r7}
 8000736:	b082      	sub	sp, #8
 8000738:	af00      	add	r7, sp, #0
 800073a:	6078      	str	r0, [r7, #4]
 800073c:	f04f 0360 	mov.w	r3, #96	; 0x60
 8000740:	f04f 0400 	mov.w	r4, #0
 8000744:	4618      	mov	r0, r3
 8000746:	4621      	mov	r1, r4
 8000748:	3708      	adds	r7, #8
 800074a:	46bd      	mov	sp, r7
 800074c:	bc90      	pop	{r4, r7}
 800074e:	4770      	bx	lr

08000750 <vl6180x_i2c_io__io_portSR>:
 8000750:	b580      	push	{r7, lr}
 8000752:	b084      	sub	sp, #16
 8000754:	af00      	add	r7, sp, #0
 8000756:	60f8      	str	r0, [r7, #12]
 8000758:	60b9      	str	r1, [r7, #8]
 800075a:	607a      	str	r2, [r7, #4]
 800075c:	68f8      	ldr	r0, [r7, #12]
 800075e:	f008 fcbb 	bl	80090d8 <system__stream_attributes__i_as>
 8000762:	4603      	mov	r3, r0
 8000764:	461a      	mov	r2, r3
 8000766:	68bb      	ldr	r3, [r7, #8]
 8000768:	605a      	str	r2, [r3, #4]
 800076a:	68f8      	ldr	r0, [r7, #12]
 800076c:	f008 fd08 	bl	8009180 <system__stream_attributes__i_su>
 8000770:	4603      	mov	r3, r0
 8000772:	461a      	mov	r2, r3
 8000774:	68bb      	ldr	r3, [r7, #8]
 8000776:	811a      	strh	r2, [r3, #8]
 8000778:	3710      	adds	r7, #16
 800077a:	46bd      	mov	sp, r7
 800077c:	bd80      	pop	{r7, pc}
 800077e:	bf00      	nop

08000780 <vl6180x_i2c_io__io_portSW>:
 8000780:	b580      	push	{r7, lr}
 8000782:	b084      	sub	sp, #16
 8000784:	af00      	add	r7, sp, #0
 8000786:	60f8      	str	r0, [r7, #12]
 8000788:	60b9      	str	r1, [r7, #8]
 800078a:	607a      	str	r2, [r7, #4]
 800078c:	68bb      	ldr	r3, [r7, #8]
 800078e:	68f8      	ldr	r0, [r7, #12]
 8000790:	6859      	ldr	r1, [r3, #4]
 8000792:	f008 fd2d 	bl	80091f0 <system__stream_attributes__w_as>
 8000796:	68bb      	ldr	r3, [r7, #8]
 8000798:	891b      	ldrh	r3, [r3, #8]
 800079a:	68f8      	ldr	r0, [r7, #12]
 800079c:	4619      	mov	r1, r3
 800079e:	f008 fd53 	bl	8009248 <system__stream_attributes__w_su>
 80007a2:	3710      	adds	r7, #16
 80007a4:	46bd      	mov	sp, r7
 80007a6:	bd80      	pop	{r7, pc}

080007a8 <vl6180x_i2c_io__io_portSI>:
 80007a8:	b5b0      	push	{r4, r5, r7, lr}
 80007aa:	b086      	sub	sp, #24
 80007ac:	af00      	add	r7, sp, #0
 80007ae:	6078      	str	r0, [r7, #4]
 80007b0:	6039      	str	r1, [r7, #0]
 80007b2:	f107 030c 	add.w	r3, r7, #12
 80007b6:	4618      	mov	r0, r3
 80007b8:	2101      	movs	r1, #1
 80007ba:	f7ff ffa5 	bl	8000708 <vl6180x_i2c_io__io_portIP>
 80007be:	f107 030c 	add.w	r3, r7, #12
 80007c2:	6878      	ldr	r0, [r7, #4]
 80007c4:	4619      	mov	r1, r3
 80007c6:	683a      	ldr	r2, [r7, #0]
 80007c8:	f7ff ffc2 	bl	8000750 <vl6180x_i2c_io__io_portSR>
 80007cc:	200c      	movs	r0, #12
 80007ce:	f009 f959 	bl	8009a84 <system__secondary_stack__ss_allocate>
 80007d2:	4605      	mov	r5, r0
 80007d4:	462b      	mov	r3, r5
 80007d6:	461c      	mov	r4, r3
 80007d8:	f107 030c 	add.w	r3, r7, #12
 80007dc:	e893 0007 	ldmia.w	r3, {r0, r1, r2}
 80007e0:	e884 0007 	stmia.w	r4, {r0, r1, r2}
 80007e4:	462b      	mov	r3, r5
 80007e6:	4618      	mov	r0, r3
 80007e8:	3718      	adds	r7, #24
 80007ea:	46bd      	mov	sp, r7
 80007ec:	bdb0      	pop	{r4, r5, r7, pc}
 80007ee:	bf00      	nop

080007f0 <vl6180x_i2c_io__io_portSO>:
 80007f0:	b580      	push	{r7, lr}
 80007f2:	b084      	sub	sp, #16
 80007f4:	af00      	add	r7, sp, #0
 80007f6:	60f8      	str	r0, [r7, #12]
 80007f8:	60b9      	str	r1, [r7, #8]
 80007fa:	607a      	str	r2, [r7, #4]
 80007fc:	68f8      	ldr	r0, [r7, #12]
 80007fe:	68b9      	ldr	r1, [r7, #8]
 8000800:	687a      	ldr	r2, [r7, #4]
 8000802:	f7ff ffbd 	bl	8000780 <vl6180x_i2c_io__io_portSW>
 8000806:	3710      	adds	r7, #16
 8000808:	46bd      	mov	sp, r7
 800080a:	bd80      	pop	{r7, pc}

0800080c <vl6180x_i2c_io__Oeq>:
 800080c:	b480      	push	{r7}
 800080e:	b083      	sub	sp, #12
 8000810:	af00      	add	r7, sp, #0
 8000812:	6078      	str	r0, [r7, #4]
 8000814:	6039      	str	r1, [r7, #0]
 8000816:	687b      	ldr	r3, [r7, #4]
 8000818:	685a      	ldr	r2, [r3, #4]
 800081a:	683b      	ldr	r3, [r7, #0]
 800081c:	685b      	ldr	r3, [r3, #4]
 800081e:	429a      	cmp	r2, r3
 8000820:	d107      	bne.n	8000832 <vl6180x_i2c_io__Oeq+0x26>
 8000822:	687b      	ldr	r3, [r7, #4]
 8000824:	891a      	ldrh	r2, [r3, #8]
 8000826:	683b      	ldr	r3, [r7, #0]
 8000828:	891b      	ldrh	r3, [r3, #8]
 800082a:	429a      	cmp	r2, r3
 800082c:	d101      	bne.n	8000832 <vl6180x_i2c_io__Oeq+0x26>
 800082e:	2301      	movs	r3, #1
 8000830:	e000      	b.n	8000834 <vl6180x_i2c_io__Oeq+0x28>
 8000832:	2300      	movs	r3, #0
 8000834:	4618      	mov	r0, r3
 8000836:	370c      	adds	r7, #12
 8000838:	46bd      	mov	sp, r7
 800083a:	f85d 7b04 	ldr.w	r7, [sp], #4
 800083e:	4770      	bx	lr

08000840 <vl6180x_i2c_io___assign>:
 8000840:	b490      	push	{r4, r7}
 8000842:	b0ec      	sub	sp, #432	; 0x1b0
 8000844:	af00      	add	r7, sp, #0
 8000846:	1d3b      	adds	r3, r7, #4
 8000848:	6018      	str	r0, [r3, #0]
 800084a:	463b      	mov	r3, r7
 800084c:	6019      	str	r1, [r3, #0]
 800084e:	1d3b      	adds	r3, r7, #4
 8000850:	681a      	ldr	r2, [r3, #0]
 8000852:	463b      	mov	r3, r7
 8000854:	681b      	ldr	r3, [r3, #0]
 8000856:	429a      	cmp	r2, r3
 8000858:	d00d      	beq.n	8000876 <vl6180x_i2c_io___assign+0x36>
 800085a:	1d3b      	adds	r3, r7, #4
 800085c:	681b      	ldr	r3, [r3, #0]
 800085e:	681c      	ldr	r4, [r3, #0]
 8000860:	1d3b      	adds	r3, r7, #4
 8000862:	6819      	ldr	r1, [r3, #0]
 8000864:	463b      	mov	r3, r7
 8000866:	681a      	ldr	r2, [r3, #0]
 8000868:	460b      	mov	r3, r1
 800086a:	ca07      	ldmia	r2, {r0, r1, r2}
 800086c:	e883 0007 	stmia.w	r3, {r0, r1, r2}
 8000870:	1d3b      	adds	r3, r7, #4
 8000872:	681b      	ldr	r3, [r3, #0]
 8000874:	601c      	str	r4, [r3, #0]
 8000876:	f507 77d8 	add.w	r7, r7, #432	; 0x1b0
 800087a:	46bd      	mov	sp, r7
 800087c:	bc90      	pop	{r4, r7}
 800087e:	4770      	bx	lr

08000880 <vl6180x_i2c_io__io_portDA>:
 8000880:	b480      	push	{r7}
 8000882:	b083      	sub	sp, #12
 8000884:	af00      	add	r7, sp, #0
 8000886:	6078      	str	r0, [r7, #4]
 8000888:	460b      	mov	r3, r1
 800088a:	70fb      	strb	r3, [r7, #3]
 800088c:	370c      	adds	r7, #12
 800088e:	46bd      	mov	sp, r7
 8000890:	f85d 7b04 	ldr.w	r7, [sp], #4
 8000894:	4770      	bx	lr
 8000896:	bf00      	nop

08000898 <vl6180x_i2c_io__io_portDF>:
 8000898:	b480      	push	{r7}
 800089a:	b083      	sub	sp, #12
 800089c:	af00      	add	r7, sp, #0
 800089e:	6078      	str	r0, [r7, #4]
 80008a0:	460b      	mov	r3, r1
 80008a2:	70fb      	strb	r3, [r7, #3]
 80008a4:	370c      	adds	r7, #12
 80008a6:	46bd      	mov	sp, r7
 80008a8:	f85d 7b04 	ldr.w	r7, [sp], #4
 80008ac:	4770      	bx	lr
 80008ae:	bf00      	nop

080008b0 <vl6180x_i2c_io__Tio_portCFD>:
 80008b0:	b580      	push	{r7, lr}
 80008b2:	b086      	sub	sp, #24
 80008b4:	af00      	add	r7, sp, #0
 80008b6:	6078      	str	r0, [r7, #4]
 80008b8:	687b      	ldr	r3, [r7, #4]
 80008ba:	681b      	ldr	r3, [r3, #0]
 80008bc:	617b      	str	r3, [r7, #20]
 80008be:	697b      	ldr	r3, [r7, #20]
 80008c0:	613b      	str	r3, [r7, #16]
 80008c2:	693a      	ldr	r2, [r7, #16]
 80008c4:	230c      	movs	r3, #12
 80008c6:	60fb      	str	r3, [r7, #12]
 80008c8:	68fb      	ldr	r3, [r7, #12]
 80008ca:	1ad3      	subs	r3, r2, r3
 80008cc:	681b      	ldr	r3, [r3, #0]
 80008ce:	6a1b      	ldr	r3, [r3, #32]
 80008d0:	687a      	ldr	r2, [r7, #4]
 80008d2:	4610      	mov	r0, r2
 80008d4:	2101      	movs	r1, #1
 80008d6:	4798      	blx	r3
 80008d8:	3718      	adds	r7, #24
 80008da:	46bd      	mov	sp, r7
 80008dc:	bd80      	pop	{r7, pc}
 80008de:	bf00      	nop

080008e0 <vl6180x_i2c_io__read>:
 80008e0:	e92d 4ff0 	stmdb	sp!, {r4, r5, r6, r7, r8, r9, sl, fp, lr}
 80008e4:	b093      	sub	sp, #76	; 0x4c
 80008e6:	af04      	add	r7, sp, #16
 80008e8:	60f8      	str	r0, [r7, #12]
 80008ea:	8179      	strh	r1, [r7, #10]
 80008ec:	4669      	mov	r1, sp
 80008ee:	6079      	str	r1, [r7, #4]
 80008f0:	68f9      	ldr	r1, [r7, #12]
 80008f2:	2900      	cmp	r1, #0
 80008f4:	d103      	bne.n	80008fe <vl6180x_i2c_io__read+0x1e>
 80008f6:	484e      	ldr	r0, [pc, #312]	; (8000a30 <vl6180x_i2c_io__read+0x150>)
 80008f8:	212f      	movs	r1, #47	; 0x2f
 80008fa:	f008 fb55 	bl	8008fa8 <__gnat_rcheck_CE_Access_Check>
 80008fe:	68f9      	ldr	r1, [r7, #12]
 8000900:	6849      	ldr	r1, [r1, #4]
 8000902:	2900      	cmp	r1, #0
 8000904:	d103      	bne.n	800090e <vl6180x_i2c_io__read+0x2e>
 8000906:	484a      	ldr	r0, [pc, #296]	; (8000a30 <vl6180x_i2c_io__read+0x150>)
 8000908:	212f      	movs	r1, #47	; 0x2f
 800090a:	f008 fb4d 	bl	8008fa8 <__gnat_rcheck_CE_Access_Check>
 800090e:	68f9      	ldr	r1, [r7, #12]
 8000910:	2900      	cmp	r1, #0
 8000912:	d103      	bne.n	800091c <vl6180x_i2c_io__read+0x3c>
 8000914:	4846      	ldr	r0, [pc, #280]	; (8000a30 <vl6180x_i2c_io__read+0x150>)
 8000916:	2130      	movs	r1, #48	; 0x30
 8000918:	f008 fb46 	bl	8008fa8 <__gnat_rcheck_CE_Access_Check>
 800091c:	68f9      	ldr	r1, [r7, #12]
 800091e:	6849      	ldr	r1, [r1, #4]
 8000920:	6809      	ldr	r1, [r1, #0]
 8000922:	68ce      	ldr	r6, [r1, #12]
 8000924:	68f9      	ldr	r1, [r7, #12]
 8000926:	6848      	ldr	r0, [r1, #4]
 8000928:	68f9      	ldr	r1, [r7, #12]
 800092a:	8909      	ldrh	r1, [r1, #8]
 800092c:	f107 0e1c 	add.w	lr, r7, #28
 8000930:	4672      	mov	r2, lr
 8000932:	4b40      	ldr	r3, [pc, #256]	; (8000a34 <vl6180x_i2c_io__read+0x154>)
 8000934:	f8b7 e00a 	ldrh.w	lr, [r7, #10]
 8000938:	e9cd 2300 	strd	r2, r3, [sp]
 800093c:	f44f 737a 	mov.w	r3, #1000	; 0x3e8
 8000940:	9302      	str	r3, [sp, #8]
 8000942:	4672      	mov	r2, lr
 8000944:	2301      	movs	r3, #1
 8000946:	47b0      	blx	r6
 8000948:	4603      	mov	r3, r0
 800094a:	f887 3037 	strb.w	r3, [r7, #55]	; 0x37
 800094e:	f897 3037 	ldrb.w	r3, [r7, #55]	; 0x37
 8000952:	2b00      	cmp	r3, #0
 8000954:	d059      	beq.n	8000a0a <vl6180x_i2c_io__read+0x12a>
 8000956:	f897 3037 	ldrb.w	r3, [r7, #55]	; 0x37
 800095a:	2b03      	cmp	r3, #3
 800095c:	d903      	bls.n	8000966 <vl6180x_i2c_io__read+0x86>
 800095e:	4834      	ldr	r0, [pc, #208]	; (8000a30 <vl6180x_i2c_io__read+0x150>)
 8000960:	2136      	movs	r1, #54	; 0x36
 8000962:	f008 fb41 	bl	8008fe8 <__gnat_rcheck_CE_Invalid_Data>
 8000966:	f897 2037 	ldrb.w	r2, [r7, #55]	; 0x37
 800096a:	f107 0310 	add.w	r3, r7, #16
 800096e:	4698      	mov	r8, r3
 8000970:	f8df 90d8 	ldr.w	r9, [pc, #216]	; 8000a4c <vl6180x_i2c_io__read+0x16c>
 8000974:	4c30      	ldr	r4, [pc, #192]	; (8000a38 <vl6180x_i2c_io__read+0x158>)
 8000976:	4d31      	ldr	r5, [pc, #196]	; (8000a3c <vl6180x_i2c_io__read+0x15c>)
 8000978:	4b31      	ldr	r3, [pc, #196]	; (8000a40 <vl6180x_i2c_io__read+0x160>)
 800097a:	e9cd 4500 	strd	r4, r5, [sp]
 800097e:	9302      	str	r3, [sp, #8]
 8000980:	4610      	mov	r0, r2
 8000982:	4642      	mov	r2, r8
 8000984:	464b      	mov	r3, r9
 8000986:	f009 f993 	bl	8009cb0 <system__img_enum_new__image_enumeration_8>
 800098a:	4603      	mov	r3, r0
 800098c:	ea23 73e3 	bic.w	r3, r3, r3, asr #31
 8000990:	f103 050f 	add.w	r5, r3, #15
 8000994:	633d      	str	r5, [r7, #48]	; 0x30
 8000996:	6b3b      	ldr	r3, [r7, #48]	; 0x30
 8000998:	ea23 73e3 	bic.w	r3, r3, r3, asr #31
 800099c:	62fb      	str	r3, [r7, #44]	; 0x2c
 800099e:	6b3b      	ldr	r3, [r7, #48]	; 0x30
 80009a0:	ea23 73e3 	bic.w	r3, r3, r3, asr #31
 80009a4:	3307      	adds	r3, #7
 80009a6:	08db      	lsrs	r3, r3, #3
 80009a8:	00db      	lsls	r3, r3, #3
 80009aa:	ebad 0d03 	sub.w	sp, sp, r3
 80009ae:	ab04      	add	r3, sp, #16
 80009b0:	3300      	adds	r3, #0
 80009b2:	62bb      	str	r3, [r7, #40]	; 0x28
 80009b4:	6abb      	ldr	r3, [r7, #40]	; 0x28
 80009b6:	4a23      	ldr	r2, [pc, #140]	; (8000a44 <vl6180x_i2c_io__read+0x164>)
 80009b8:	461c      	mov	r4, r3
 80009ba:	4613      	mov	r3, r2
 80009bc:	cb07      	ldmia	r3!, {r0, r1, r2}
 80009be:	6020      	str	r0, [r4, #0]
 80009c0:	6061      	str	r1, [r4, #4]
 80009c2:	60a2      	str	r2, [r4, #8]
 80009c4:	881a      	ldrh	r2, [r3, #0]
 80009c6:	789b      	ldrb	r3, [r3, #2]
 80009c8:	81a2      	strh	r2, [r4, #12]
 80009ca:	73a3      	strb	r3, [r4, #14]
 80009cc:	462b      	mov	r3, r5
 80009ce:	2b0f      	cmp	r3, #15
 80009d0:	bfb8      	it	lt
 80009d2:	230f      	movlt	r3, #15
 80009d4:	f1a3 020f 	sub.w	r2, r3, #15
 80009d8:	6abb      	ldr	r3, [r7, #40]	; 0x28
 80009da:	f103 010f 	add.w	r1, r3, #15
 80009de:	f107 0310 	add.w	r3, r7, #16
 80009e2:	4608      	mov	r0, r1
 80009e4:	4619      	mov	r1, r3
 80009e6:	4613      	mov	r3, r2
 80009e8:	461a      	mov	r2, r3
 80009ea:	f007 fc99 	bl	8008320 <memcpy>
 80009ee:	6abb      	ldr	r3, [r7, #40]	; 0x28
 80009f0:	469a      	mov	sl, r3
 80009f2:	2301      	movs	r3, #1
 80009f4:	623b      	str	r3, [r7, #32]
 80009f6:	6b3b      	ldr	r3, [r7, #48]	; 0x30
 80009f8:	627b      	str	r3, [r7, #36]	; 0x24
 80009fa:	f107 0320 	add.w	r3, r7, #32
 80009fe:	469b      	mov	fp, r3
 8000a00:	4811      	ldr	r0, [pc, #68]	; (8000a48 <vl6180x_i2c_io__read+0x168>)
 8000a02:	4652      	mov	r2, sl
 8000a04:	465b      	mov	r3, fp
 8000a06:	f008 fa8d 	bl	8008f24 <__gnat_raise_exception>
 8000a0a:	7f3b      	ldrb	r3, [r7, #28]
 8000a0c:	77fb      	strb	r3, [r7, #31]
 8000a0e:	f8d7 d004 	ldr.w	sp, [r7, #4]
 8000a12:	7ffb      	ldrb	r3, [r7, #31]
 8000a14:	bf00      	nop
 8000a16:	e005      	b.n	8000a24 <vl6180x_i2c_io__read+0x144>
 8000a18:	4603      	mov	r3, r0
 8000a1a:	f8d7 d004 	ldr.w	sp, [r7, #4]
 8000a1e:	4618      	mov	r0, r3
 8000a20:	f00a fdd6 	bl	800b5d0 <_Unwind_Resume>
 8000a24:	4618      	mov	r0, r3
 8000a26:	373c      	adds	r7, #60	; 0x3c
 8000a28:	46bd      	mov	sp, r7
 8000a2a:	e8bd 8ff0 	ldmia.w	sp!, {r4, r5, r6, r7, r8, r9, sl, fp, pc}
 8000a2e:	bf00      	nop
 8000a30:	0800d348 	.word	0x0800d348
 8000a34:	0800d35c 	.word	0x0800d35c
 8000a38:	0800dbb8 	.word	0x0800dbb8
 8000a3c:	0800d364 	.word	0x0800d364
 8000a40:	0800dbd4 	.word	0x0800dbd4
 8000a44:	0800d36c 	.word	0x0800d36c
 8000a48:	200001c0 	.word	0x200001c0
 8000a4c:	0800d37c 	.word	0x0800d37c

08000a50 <vl6180x_i2c_io__write>:
 8000a50:	e92d 4ff0 	stmdb	sp!, {r4, r5, r6, r7, r8, r9, sl, fp, lr}
 8000a54:	b095      	sub	sp, #84	; 0x54
 8000a56:	af04      	add	r7, sp, #16
 8000a58:	6178      	str	r0, [r7, #20]
 8000a5a:	460b      	mov	r3, r1
 8000a5c:	827b      	strh	r3, [r7, #18]
 8000a5e:	4613      	mov	r3, r2
 8000a60:	747b      	strb	r3, [r7, #17]
 8000a62:	466b      	mov	r3, sp
 8000a64:	607b      	str	r3, [r7, #4]
 8000a66:	7c7b      	ldrb	r3, [r7, #17]
 8000a68:	f887 3024 	strb.w	r3, [r7, #36]	; 0x24
 8000a6c:	697b      	ldr	r3, [r7, #20]
 8000a6e:	2b00      	cmp	r3, #0
 8000a70:	d103      	bne.n	8000a7a <vl6180x_i2c_io__write+0x2a>
 8000a72:	4846      	ldr	r0, [pc, #280]	; (8000b8c <vl6180x_i2c_io__write+0x13c>)
 8000a74:	2148      	movs	r1, #72	; 0x48
 8000a76:	f008 fa97 	bl	8008fa8 <__gnat_rcheck_CE_Access_Check>
 8000a7a:	697b      	ldr	r3, [r7, #20]
 8000a7c:	685b      	ldr	r3, [r3, #4]
 8000a7e:	2b00      	cmp	r3, #0
 8000a80:	d103      	bne.n	8000a8a <vl6180x_i2c_io__write+0x3a>
 8000a82:	4842      	ldr	r0, [pc, #264]	; (8000b8c <vl6180x_i2c_io__write+0x13c>)
 8000a84:	2148      	movs	r1, #72	; 0x48
 8000a86:	f008 fa8f 	bl	8008fa8 <__gnat_rcheck_CE_Access_Check>
 8000a8a:	697b      	ldr	r3, [r7, #20]
 8000a8c:	2b00      	cmp	r3, #0
 8000a8e:	d103      	bne.n	8000a98 <vl6180x_i2c_io__write+0x48>
 8000a90:	483e      	ldr	r0, [pc, #248]	; (8000b8c <vl6180x_i2c_io__write+0x13c>)
 8000a92:	2149      	movs	r1, #73	; 0x49
 8000a94:	f008 fa88 	bl	8008fa8 <__gnat_rcheck_CE_Access_Check>
 8000a98:	697b      	ldr	r3, [r7, #20]
 8000a9a:	685b      	ldr	r3, [r3, #4]
 8000a9c:	681b      	ldr	r3, [r3, #0]
 8000a9e:	689e      	ldr	r6, [r3, #8]
 8000aa0:	697b      	ldr	r3, [r7, #20]
 8000aa2:	6858      	ldr	r0, [r3, #4]
 8000aa4:	697b      	ldr	r3, [r7, #20]
 8000aa6:	8919      	ldrh	r1, [r3, #8]
 8000aa8:	f107 0324 	add.w	r3, r7, #36	; 0x24
 8000aac:	4698      	mov	r8, r3
 8000aae:	f8df 90f4 	ldr.w	r9, [pc, #244]	; 8000ba4 <vl6180x_i2c_io__write+0x154>
 8000ab2:	8a7a      	ldrh	r2, [r7, #18]
 8000ab4:	e9cd 8900 	strd	r8, r9, [sp]
 8000ab8:	f44f 737a 	mov.w	r3, #1000	; 0x3e8
 8000abc:	9302      	str	r3, [sp, #8]
 8000abe:	2301      	movs	r3, #1
 8000ac0:	47b0      	blx	r6
 8000ac2:	4603      	mov	r3, r0
 8000ac4:	f887 303f 	strb.w	r3, [r7, #63]	; 0x3f
 8000ac8:	f897 303f 	ldrb.w	r3, [r7, #63]	; 0x3f
 8000acc:	2b00      	cmp	r3, #0
 8000ace:	d056      	beq.n	8000b7e <vl6180x_i2c_io__write+0x12e>
 8000ad0:	f897 303f 	ldrb.w	r3, [r7, #63]	; 0x3f
 8000ad4:	2b03      	cmp	r3, #3
 8000ad6:	d903      	bls.n	8000ae0 <vl6180x_i2c_io__write+0x90>
 8000ad8:	482c      	ldr	r0, [pc, #176]	; (8000b8c <vl6180x_i2c_io__write+0x13c>)
 8000ada:	214f      	movs	r1, #79	; 0x4f
 8000adc:	f008 fa84 	bl	8008fe8 <__gnat_rcheck_CE_Invalid_Data>
 8000ae0:	f897 203f 	ldrb.w	r2, [r7, #63]	; 0x3f
 8000ae4:	f107 0318 	add.w	r3, r7, #24
 8000ae8:	469a      	mov	sl, r3
 8000aea:	f8df b0bc 	ldr.w	fp, [pc, #188]	; 8000ba8 <vl6180x_i2c_io__write+0x158>
 8000aee:	4c28      	ldr	r4, [pc, #160]	; (8000b90 <vl6180x_i2c_io__write+0x140>)
 8000af0:	4d28      	ldr	r5, [pc, #160]	; (8000b94 <vl6180x_i2c_io__write+0x144>)
 8000af2:	4b29      	ldr	r3, [pc, #164]	; (8000b98 <vl6180x_i2c_io__write+0x148>)
 8000af4:	e9cd 4500 	strd	r4, r5, [sp]
 8000af8:	9302      	str	r3, [sp, #8]
 8000afa:	4610      	mov	r0, r2
 8000afc:	4652      	mov	r2, sl
 8000afe:	465b      	mov	r3, fp
 8000b00:	f009 f8d6 	bl	8009cb0 <system__img_enum_new__image_enumeration_8>
 8000b04:	4603      	mov	r3, r0
 8000b06:	ea23 73e3 	bic.w	r3, r3, r3, asr #31
 8000b0a:	f103 0610 	add.w	r6, r3, #16
 8000b0e:	63be      	str	r6, [r7, #56]	; 0x38
 8000b10:	6bbb      	ldr	r3, [r7, #56]	; 0x38
 8000b12:	ea23 73e3 	bic.w	r3, r3, r3, asr #31
 8000b16:	637b      	str	r3, [r7, #52]	; 0x34
 8000b18:	6bbb      	ldr	r3, [r7, #56]	; 0x38
 8000b1a:	ea23 73e3 	bic.w	r3, r3, r3, asr #31
 8000b1e:	3307      	adds	r3, #7
 8000b20:	08db      	lsrs	r3, r3, #3
 8000b22:	00db      	lsls	r3, r3, #3
 8000b24:	ebad 0d03 	sub.w	sp, sp, r3
 8000b28:	ab04      	add	r3, sp, #16
 8000b2a:	3300      	adds	r3, #0
 8000b2c:	633b      	str	r3, [r7, #48]	; 0x30
 8000b2e:	6b3b      	ldr	r3, [r7, #48]	; 0x30
 8000b30:	4a1a      	ldr	r2, [pc, #104]	; (8000b9c <vl6180x_i2c_io__write+0x14c>)
 8000b32:	461c      	mov	r4, r3
 8000b34:	4615      	mov	r5, r2
 8000b36:	cd0f      	ldmia	r5!, {r0, r1, r2, r3}
 8000b38:	6020      	str	r0, [r4, #0]
 8000b3a:	6061      	str	r1, [r4, #4]
 8000b3c:	60a2      	str	r2, [r4, #8]
 8000b3e:	60e3      	str	r3, [r4, #12]
 8000b40:	4633      	mov	r3, r6
 8000b42:	2b10      	cmp	r3, #16
 8000b44:	bfb8      	it	lt
 8000b46:	2310      	movlt	r3, #16
 8000b48:	f1a3 0210 	sub.w	r2, r3, #16
 8000b4c:	6b3b      	ldr	r3, [r7, #48]	; 0x30
 8000b4e:	f103 0110 	add.w	r1, r3, #16
 8000b52:	f107 0318 	add.w	r3, r7, #24
 8000b56:	4608      	mov	r0, r1
 8000b58:	4619      	mov	r1, r3
 8000b5a:	4613      	mov	r3, r2
 8000b5c:	461a      	mov	r2, r3
 8000b5e:	f007 fbdf 	bl	8008320 <memcpy>
 8000b62:	6b3b      	ldr	r3, [r7, #48]	; 0x30
 8000b64:	60bb      	str	r3, [r7, #8]
 8000b66:	2301      	movs	r3, #1
 8000b68:	62bb      	str	r3, [r7, #40]	; 0x28
 8000b6a:	6bbb      	ldr	r3, [r7, #56]	; 0x38
 8000b6c:	62fb      	str	r3, [r7, #44]	; 0x2c
 8000b6e:	f107 0328 	add.w	r3, r7, #40	; 0x28
 8000b72:	60fb      	str	r3, [r7, #12]
 8000b74:	480a      	ldr	r0, [pc, #40]	; (8000ba0 <vl6180x_i2c_io__write+0x150>)
 8000b76:	e9d7 2302 	ldrd	r2, r3, [r7, #8]
 8000b7a:	f008 f9d3 	bl	8008f24 <__gnat_raise_exception>
 8000b7e:	f8d7 d004 	ldr.w	sp, [r7, #4]
 8000b82:	3744      	adds	r7, #68	; 0x44
 8000b84:	46bd      	mov	sp, r7
 8000b86:	e8bd 8ff0 	ldmia.w	sp!, {r4, r5, r6, r7, r8, r9, sl, fp, pc}
 8000b8a:	bf00      	nop
 8000b8c:	0800d348 	.word	0x0800d348
 8000b90:	0800dbb8 	.word	0x0800dbb8
 8000b94:	0800d364 	.word	0x0800d364
 8000b98:	0800dbd4 	.word	0x0800dbd4
 8000b9c:	0800d384 	.word	0x0800d384
 8000ba0:	200001c0 	.word	0x200001c0
 8000ba4:	0800d35c 	.word	0x0800d35c
 8000ba8:	0800d37c 	.word	0x0800d37c

08000bac <vl6180x_i2c_io___elabs>:
 8000bac:	b580      	push	{r7, lr}
 8000bae:	af00      	add	r7, sp, #0
 8000bb0:	480c      	ldr	r0, [pc, #48]	; (8000be4 <vl6180x_i2c_io___elabs+0x38>)
 8000bb2:	2101      	movs	r1, #1
 8000bb4:	f008 fe62 	bl	800987c <system__finalization_masters__finalization_masterIP>
 8000bb8:	480a      	ldr	r0, [pc, #40]	; (8000be4 <vl6180x_i2c_io___elabs+0x38>)
 8000bba:	f008 fd11 	bl	80095e0 <system__finalization_masters__initialize__2>
 8000bbe:	4b0a      	ldr	r3, [pc, #40]	; (8000be8 <vl6180x_i2c_io___elabs+0x3c>)
 8000bc0:	2201      	movs	r2, #1
 8000bc2:	601a      	str	r2, [r3, #0]
 8000bc4:	4807      	ldr	r0, [pc, #28]	; (8000be4 <vl6180x_i2c_io___elabs+0x38>)
 8000bc6:	4909      	ldr	r1, [pc, #36]	; (8000bec <vl6180x_i2c_io___elabs+0x40>)
 8000bc8:	f008 fd14 	bl	80095f4 <system__finalization_masters__set_base_pool>
 8000bcc:	4805      	ldr	r0, [pc, #20]	; (8000be4 <vl6180x_i2c_io___elabs+0x38>)
 8000bce:	4908      	ldr	r1, [pc, #32]	; (8000bf0 <vl6180x_i2c_io___elabs+0x44>)
 8000bd0:	f008 fd12 	bl	80095f8 <system__finalization_masters__set_finalize_address>
 8000bd4:	4807      	ldr	r0, [pc, #28]	; (8000bf4 <vl6180x_i2c_io___elabs+0x48>)
 8000bd6:	f008 fc71 	bl	80094bc <ada__tags__check_tsd>
 8000bda:	4807      	ldr	r0, [pc, #28]	; (8000bf8 <vl6180x_i2c_io___elabs+0x4c>)
 8000bdc:	f008 fce8 	bl	80095b0 <ada__tags__register_tag>
 8000be0:	bd80      	pop	{r7, pc}
 8000be2:	bf00      	nop
 8000be4:	200002d8 	.word	0x200002d8
 8000be8:	20000008 	.word	0x20000008
 8000bec:	20003e0c 	.word	0x20003e0c
 8000bf0:	080008b1 	.word	0x080008b1
 8000bf4:	0800d2d8 	.word	0x0800d2d8
 8000bf8:	0800d344 	.word	0x0800d344

08000bfc <vl6180x_i2c__vl6180x_rng_alsIP>:
 8000bfc:	b480      	push	{r7}
 8000bfe:	b085      	sub	sp, #20
 8000c00:	af00      	add	r7, sp, #0
 8000c02:	60f8      	str	r0, [r7, #12]
 8000c04:	60b9      	str	r1, [r7, #8]
 8000c06:	4613      	mov	r3, r2
 8000c08:	71fb      	strb	r3, [r7, #7]
 8000c0a:	79fb      	ldrb	r3, [r7, #7]
 8000c0c:	2b00      	cmp	r3, #0
 8000c0e:	d002      	beq.n	8000c16 <vl6180x_i2c__vl6180x_rng_alsIP+0x1a>
 8000c10:	68fb      	ldr	r3, [r7, #12]
 8000c12:	4a05      	ldr	r2, [pc, #20]	; (8000c28 <vl6180x_i2c__vl6180x_rng_alsIP+0x2c>)
 8000c14:	601a      	str	r2, [r3, #0]
 8000c16:	68fb      	ldr	r3, [r7, #12]
 8000c18:	68ba      	ldr	r2, [r7, #8]
 8000c1a:	605a      	str	r2, [r3, #4]
 8000c1c:	3714      	adds	r7, #20
 8000c1e:	46bd      	mov	sp, r7
 8000c20:	f85d 7b04 	ldr.w	r7, [sp], #4
 8000c24:	4770      	bx	lr
 8000c26:	bf00      	nop
 8000c28:	0800d430 	.word	0x0800d430

08000c2c <vl6180x_i2c___size>:
 8000c2c:	b490      	push	{r4, r7}
 8000c2e:	b082      	sub	sp, #8
 8000c30:	af00      	add	r7, sp, #0
 8000c32:	6078      	str	r0, [r7, #4]
 8000c34:	f04f 0360 	mov.w	r3, #96	; 0x60
 8000c38:	f04f 0400 	mov.w	r4, #0
 8000c3c:	4618      	mov	r0, r3
 8000c3e:	4621      	mov	r1, r4
 8000c40:	3708      	adds	r7, #8
 8000c42:	46bd      	mov	sp, r7
 8000c44:	bc90      	pop	{r4, r7}
 8000c46:	4770      	bx	lr

08000c48 <vl6180x_i2c__vl6180x_rng_alsDF>:
 8000c48:	b480      	push	{r7}
 8000c4a:	b083      	sub	sp, #12
 8000c4c:	af00      	add	r7, sp, #0
 8000c4e:	6078      	str	r0, [r7, #4]
 8000c50:	460b      	mov	r3, r1
 8000c52:	70fb      	strb	r3, [r7, #3]
 8000c54:	370c      	adds	r7, #12
 8000c56:	46bd      	mov	sp, r7
 8000c58:	f85d 7b04 	ldr.w	r7, [sp], #4
 8000c5c:	4770      	bx	lr
 8000c5e:	bf00      	nop

08000c60 <vl6180x_i2c__status_gpio_registerIP>:
 8000c60:	b480      	push	{r7}
 8000c62:	b083      	sub	sp, #12
 8000c64:	af00      	add	r7, sp, #0
 8000c66:	7138      	strb	r0, [r7, #4]
 8000c68:	460b      	mov	r3, r1
 8000c6a:	71fb      	strb	r3, [r7, #7]
 8000c6c:	793b      	ldrb	r3, [r7, #4]
 8000c6e:	4618      	mov	r0, r3
 8000c70:	370c      	adds	r7, #12
 8000c72:	46bd      	mov	sp, r7
 8000c74:	f85d 7b04 	ldr.w	r7, [sp], #4
 8000c78:	4770      	bx	lr
 8000c7a:	bf00      	nop

08000c7c <vl6180x_i2c__device_id>:
 8000c7c:	b580      	push	{r7, lr}
 8000c7e:	b084      	sub	sp, #16
 8000c80:	af00      	add	r7, sp, #0
 8000c82:	6078      	str	r0, [r7, #4]
 8000c84:	687b      	ldr	r3, [r7, #4]
 8000c86:	685b      	ldr	r3, [r3, #4]
 8000c88:	4618      	mov	r0, r3
 8000c8a:	2100      	movs	r1, #0
 8000c8c:	f7ff fe28 	bl	80008e0 <vl6180x_i2c_io__read>
 8000c90:	4603      	mov	r3, r0
 8000c92:	73fb      	strb	r3, [r7, #15]
 8000c94:	7bfb      	ldrb	r3, [r7, #15]
 8000c96:	bf00      	nop
 8000c98:	4618      	mov	r0, r3
 8000c9a:	3710      	adds	r7, #16
 8000c9c:	46bd      	mov	sp, r7
 8000c9e:	bd80      	pop	{r7, pc}

08000ca0 <vl6180x_i2c__rangestatus>:
 8000ca0:	b580      	push	{r7, lr}
 8000ca2:	b084      	sub	sp, #16
 8000ca4:	af00      	add	r7, sp, #0
 8000ca6:	6078      	str	r0, [r7, #4]
 8000ca8:	687b      	ldr	r3, [r7, #4]
 8000caa:	685b      	ldr	r3, [r3, #4]
 8000cac:	4618      	mov	r0, r3
 8000cae:	214d      	movs	r1, #77	; 0x4d
 8000cb0:	f7ff fe16 	bl	80008e0 <vl6180x_i2c_io__read>
 8000cb4:	4603      	mov	r3, r0
 8000cb6:	73fb      	strb	r3, [r7, #15]
 8000cb8:	7bfb      	ldrb	r3, [r7, #15]
 8000cba:	bf00      	nop
 8000cbc:	4618      	mov	r0, r3
 8000cbe:	3710      	adds	r7, #16
 8000cc0:	46bd      	mov	sp, r7
 8000cc2:	bd80      	pop	{r7, pc}

08000cc4 <vl6180x_i2c__readrange>:
 8000cc4:	b5b0      	push	{r4, r5, r7, lr}
 8000cc6:	b086      	sub	sp, #24
 8000cc8:	af00      	add	r7, sp, #0
 8000cca:	6078      	str	r0, [r7, #4]
 8000ccc:	6039      	str	r1, [r7, #0]
 8000cce:	f006 fafd 	bl	80072cc <ada__real_time__clock>
 8000cd2:	4603      	mov	r3, r0
 8000cd4:	460c      	mov	r4, r1
 8000cd6:	e9c7 3404 	strd	r3, r4, [r7, #16]
 8000cda:	687b      	ldr	r3, [r7, #4]
 8000cdc:	685b      	ldr	r3, [r3, #4]
 8000cde:	4618      	mov	r0, r3
 8000ce0:	2115      	movs	r1, #21
 8000ce2:	2201      	movs	r2, #1
 8000ce4:	f7ff feb4 	bl	8000a50 <vl6180x_i2c_io__write>
 8000ce8:	687b      	ldr	r3, [r7, #4]
 8000cea:	685b      	ldr	r3, [r3, #4]
 8000cec:	4618      	mov	r0, r3
 8000cee:	2118      	movs	r1, #24
 8000cf0:	2201      	movs	r2, #1
 8000cf2:	f7ff fead 	bl	8000a50 <vl6180x_i2c_io__write>
 8000cf6:	687b      	ldr	r3, [r7, #4]
 8000cf8:	685b      	ldr	r3, [r3, #4]
 8000cfa:	4618      	mov	r0, r3
 8000cfc:	214f      	movs	r1, #79	; 0x4f
 8000cfe:	f7ff fdef 	bl	80008e0 <vl6180x_i2c_io__read>
 8000d02:	4603      	mov	r3, r0
 8000d04:	73fb      	strb	r3, [r7, #15]
 8000d06:	f006 fae1 	bl	80072cc <ada__real_time__clock>
 8000d0a:	4603      	mov	r3, r0
 8000d0c:	460c      	mov	r4, r1
 8000d0e:	4618      	mov	r0, r3
 8000d10:	4621      	mov	r1, r4
 8000d12:	e9d7 2304 	ldrd	r2, r3, [r7, #16]
 8000d16:	f006 fab7 	bl	8007288 <ada__real_time__Osubtract__2>
 8000d1a:	4604      	mov	r4, r0
 8000d1c:	460d      	mov	r5, r1
 8000d1e:	683b      	ldr	r3, [r7, #0]
 8000d20:	4618      	mov	r0, r3
 8000d22:	f006 fb1b 	bl	800735c <ada__real_time__milliseconds>
 8000d26:	4602      	mov	r2, r0
 8000d28:	460b      	mov	r3, r1
 8000d2a:	42a2      	cmp	r2, r4
 8000d2c:	41ab      	sbcs	r3, r5
 8000d2e:	da01      	bge.n	8000d34 <vl6180x_i2c__readrange+0x70>
 8000d30:	23ff      	movs	r3, #255	; 0xff
 8000d32:	e016      	b.n	8000d62 <vl6180x_i2c__readrange+0x9e>
 8000d34:	7bfb      	ldrb	r3, [r7, #15]
 8000d36:	f003 0307 	and.w	r3, r3, #7
 8000d3a:	b2db      	uxtb	r3, r3
 8000d3c:	2b04      	cmp	r3, #4
 8000d3e:	d000      	beq.n	8000d42 <vl6180x_i2c__readrange+0x7e>
 8000d40:	e7d9      	b.n	8000cf6 <vl6180x_i2c__readrange+0x32>
 8000d42:	687b      	ldr	r3, [r7, #4]
 8000d44:	685b      	ldr	r3, [r3, #4]
 8000d46:	4618      	mov	r0, r3
 8000d48:	2162      	movs	r1, #98	; 0x62
 8000d4a:	f7ff fdc9 	bl	80008e0 <vl6180x_i2c_io__read>
 8000d4e:	4603      	mov	r3, r0
 8000d50:	73bb      	strb	r3, [r7, #14]
 8000d52:	687b      	ldr	r3, [r7, #4]
 8000d54:	685b      	ldr	r3, [r3, #4]
 8000d56:	4618      	mov	r0, r3
 8000d58:	2115      	movs	r1, #21
 8000d5a:	2201      	movs	r2, #1
 8000d5c:	f7ff fe78 	bl	8000a50 <vl6180x_i2c_io__write>
 8000d60:	7bbb      	ldrb	r3, [r7, #14]
 8000d62:	bf00      	nop
 8000d64:	4618      	mov	r0, r3
 8000d66:	3718      	adds	r7, #24
 8000d68:	46bd      	mov	sp, r7
 8000d6a:	bdb0      	pop	{r4, r5, r7, pc}

08000d6c <vl6180x_i2c__readals>:
 8000d6c:	b5b0      	push	{r4, r5, r7, lr}
 8000d6e:	b086      	sub	sp, #24
 8000d70:	af00      	add	r7, sp, #0
 8000d72:	6078      	str	r0, [r7, #4]
 8000d74:	6039      	str	r1, [r7, #0]
 8000d76:	7a38      	ldrb	r0, [r7, #8]
 8000d78:	2101      	movs	r1, #1
 8000d7a:	f7ff ff71 	bl	8000c60 <vl6180x_i2c__status_gpio_registerIP>
 8000d7e:	4603      	mov	r3, r0
 8000d80:	723b      	strb	r3, [r7, #8]
 8000d82:	f006 faa3 	bl	80072cc <ada__real_time__clock>
 8000d86:	4603      	mov	r3, r0
 8000d88:	460c      	mov	r4, r1
 8000d8a:	e9c7 3404 	strd	r3, r4, [r7, #16]
 8000d8e:	687b      	ldr	r3, [r7, #4]
 8000d90:	685b      	ldr	r3, [r3, #4]
 8000d92:	4618      	mov	r0, r3
 8000d94:	2115      	movs	r1, #21
 8000d96:	2202      	movs	r2, #2
 8000d98:	f7ff fe5a 	bl	8000a50 <vl6180x_i2c_io__write>
 8000d9c:	687b      	ldr	r3, [r7, #4]
 8000d9e:	685b      	ldr	r3, [r3, #4]
 8000da0:	4618      	mov	r0, r3
 8000da2:	2138      	movs	r1, #56	; 0x38
 8000da4:	2201      	movs	r2, #1
 8000da6:	f7ff fe53 	bl	8000a50 <vl6180x_i2c_io__write>
 8000daa:	687b      	ldr	r3, [r7, #4]
 8000dac:	685b      	ldr	r3, [r3, #4]
 8000dae:	4618      	mov	r0, r3
 8000db0:	214f      	movs	r1, #79	; 0x4f
 8000db2:	f7ff fd95 	bl	80008e0 <vl6180x_i2c_io__read>
 8000db6:	4603      	mov	r3, r0
 8000db8:	723b      	strb	r3, [r7, #8]
 8000dba:	f006 fa87 	bl	80072cc <ada__real_time__clock>
 8000dbe:	4603      	mov	r3, r0
 8000dc0:	460c      	mov	r4, r1
 8000dc2:	4618      	mov	r0, r3
 8000dc4:	4621      	mov	r1, r4
 8000dc6:	e9d7 2304 	ldrd	r2, r3, [r7, #16]
 8000dca:	f006 fa5d 	bl	8007288 <ada__real_time__Osubtract__2>
 8000dce:	4604      	mov	r4, r0
 8000dd0:	460d      	mov	r5, r1
 8000dd2:	683b      	ldr	r3, [r7, #0]
 8000dd4:	4618      	mov	r0, r3
 8000dd6:	f006 fac1 	bl	800735c <ada__real_time__milliseconds>
 8000dda:	4602      	mov	r2, r0
 8000ddc:	460b      	mov	r3, r1
 8000dde:	42a2      	cmp	r2, r4
 8000de0:	41ab      	sbcs	r3, r5
 8000de2:	da02      	bge.n	8000dea <vl6180x_i2c__readals+0x7e>
 8000de4:	f242 730f 	movw	r3, #9999	; 0x270f
 8000de8:	e026      	b.n	8000e38 <vl6180x_i2c__readals+0xcc>
 8000dea:	7a3b      	ldrb	r3, [r7, #8]
 8000dec:	f003 0338 	and.w	r3, r3, #56	; 0x38
 8000df0:	b2db      	uxtb	r3, r3
 8000df2:	2b20      	cmp	r3, #32
 8000df4:	d000      	beq.n	8000df8 <vl6180x_i2c__readals+0x8c>
 8000df6:	e7d8      	b.n	8000daa <vl6180x_i2c__readals+0x3e>
 8000df8:	687b      	ldr	r3, [r7, #4]
 8000dfa:	685b      	ldr	r3, [r3, #4]
 8000dfc:	4618      	mov	r0, r3
 8000dfe:	2151      	movs	r1, #81	; 0x51
 8000e00:	f7ff fd6e 	bl	80008e0 <vl6180x_i2c_io__read>
 8000e04:	4603      	mov	r3, r0
 8000e06:	73fb      	strb	r3, [r7, #15]
 8000e08:	687b      	ldr	r3, [r7, #4]
 8000e0a:	685b      	ldr	r3, [r3, #4]
 8000e0c:	4618      	mov	r0, r3
 8000e0e:	2150      	movs	r1, #80	; 0x50
 8000e10:	f7ff fd66 	bl	80008e0 <vl6180x_i2c_io__read>
 8000e14:	4603      	mov	r3, r0
 8000e16:	73bb      	strb	r3, [r7, #14]
 8000e18:	687b      	ldr	r3, [r7, #4]
 8000e1a:	685b      	ldr	r3, [r3, #4]
 8000e1c:	4618      	mov	r0, r3
 8000e1e:	2115      	movs	r1, #21
 8000e20:	2202      	movs	r2, #2
 8000e22:	f7ff fe15 	bl	8000a50 <vl6180x_i2c_io__write>
 8000e26:	7bbb      	ldrb	r3, [r7, #14]
 8000e28:	b29b      	uxth	r3, r3
 8000e2a:	021b      	lsls	r3, r3, #8
 8000e2c:	b29a      	uxth	r2, r3
 8000e2e:	7bfb      	ldrb	r3, [r7, #15]
 8000e30:	b29b      	uxth	r3, r3
 8000e32:	4313      	orrs	r3, r2
 8000e34:	81bb      	strh	r3, [r7, #12]
 8000e36:	89bb      	ldrh	r3, [r7, #12]
 8000e38:	bf00      	nop
 8000e3a:	4618      	mov	r0, r3
 8000e3c:	3718      	adds	r7, #24
 8000e3e:	46bd      	mov	sp, r7
 8000e40:	bdb0      	pop	{r4, r5, r7, pc}
 8000e42:	bf00      	nop

08000e44 <vl6180x_i2c__staticinit>:
 8000e44:	b5b0      	push	{r4, r5, r7, lr}
 8000e46:	b082      	sub	sp, #8
 8000e48:	af00      	add	r7, sp, #0
 8000e4a:	6078      	str	r0, [r7, #4]
 8000e4c:	6878      	ldr	r0, [r7, #4]
 8000e4e:	f7ff ff15 	bl	8000c7c <vl6180x_i2c__device_id>
 8000e52:	4603      	mov	r3, r0
 8000e54:	2bb4      	cmp	r3, #180	; 0xb4
 8000e56:	d006      	beq.n	8000e66 <vl6180x_i2c__staticinit+0x22>
 8000e58:	4ca0      	ldr	r4, [pc, #640]	; (80010dc <vl6180x_i2c__staticinit+0x298>)
 8000e5a:	4da1      	ldr	r5, [pc, #644]	; (80010e0 <vl6180x_i2c__staticinit+0x29c>)
 8000e5c:	48a1      	ldr	r0, [pc, #644]	; (80010e4 <vl6180x_i2c__staticinit+0x2a0>)
 8000e5e:	4622      	mov	r2, r4
 8000e60:	462b      	mov	r3, r5
 8000e62:	f008 f85f 	bl	8008f24 <__gnat_raise_exception>
 8000e66:	687b      	ldr	r3, [r7, #4]
 8000e68:	685b      	ldr	r3, [r3, #4]
 8000e6a:	4618      	mov	r0, r3
 8000e6c:	f240 2107 	movw	r1, #519	; 0x207
 8000e70:	2201      	movs	r2, #1
 8000e72:	f7ff fded 	bl	8000a50 <vl6180x_i2c_io__write>
 8000e76:	687b      	ldr	r3, [r7, #4]
 8000e78:	685b      	ldr	r3, [r3, #4]
 8000e7a:	4618      	mov	r0, r3
 8000e7c:	f44f 7102 	mov.w	r1, #520	; 0x208
 8000e80:	2201      	movs	r2, #1
 8000e82:	f7ff fde5 	bl	8000a50 <vl6180x_i2c_io__write>
 8000e86:	687b      	ldr	r3, [r7, #4]
 8000e88:	685b      	ldr	r3, [r3, #4]
 8000e8a:	4618      	mov	r0, r3
 8000e8c:	2196      	movs	r1, #150	; 0x96
 8000e8e:	2200      	movs	r2, #0
 8000e90:	f7ff fdde 	bl	8000a50 <vl6180x_i2c_io__write>
 8000e94:	687b      	ldr	r3, [r7, #4]
 8000e96:	685b      	ldr	r3, [r3, #4]
 8000e98:	4618      	mov	r0, r3
 8000e9a:	2197      	movs	r1, #151	; 0x97
 8000e9c:	22fd      	movs	r2, #253	; 0xfd
 8000e9e:	f7ff fdd7 	bl	8000a50 <vl6180x_i2c_io__write>
 8000ea2:	687b      	ldr	r3, [r7, #4]
 8000ea4:	685b      	ldr	r3, [r3, #4]
 8000ea6:	4618      	mov	r0, r3
 8000ea8:	21e3      	movs	r1, #227	; 0xe3
 8000eaa:	2200      	movs	r2, #0
 8000eac:	f7ff fdd0 	bl	8000a50 <vl6180x_i2c_io__write>
 8000eb0:	687b      	ldr	r3, [r7, #4]
 8000eb2:	685b      	ldr	r3, [r3, #4]
 8000eb4:	4618      	mov	r0, r3
 8000eb6:	21e4      	movs	r1, #228	; 0xe4
 8000eb8:	2204      	movs	r2, #4
 8000eba:	f7ff fdc9 	bl	8000a50 <vl6180x_i2c_io__write>
 8000ebe:	687b      	ldr	r3, [r7, #4]
 8000ec0:	685b      	ldr	r3, [r3, #4]
 8000ec2:	4618      	mov	r0, r3
 8000ec4:	21e5      	movs	r1, #229	; 0xe5
 8000ec6:	2202      	movs	r2, #2
 8000ec8:	f7ff fdc2 	bl	8000a50 <vl6180x_i2c_io__write>
 8000ecc:	687b      	ldr	r3, [r7, #4]
 8000ece:	685b      	ldr	r3, [r3, #4]
 8000ed0:	4618      	mov	r0, r3
 8000ed2:	21e6      	movs	r1, #230	; 0xe6
 8000ed4:	2201      	movs	r2, #1
 8000ed6:	f7ff fdbb 	bl	8000a50 <vl6180x_i2c_io__write>
 8000eda:	687b      	ldr	r3, [r7, #4]
 8000edc:	685b      	ldr	r3, [r3, #4]
 8000ede:	4618      	mov	r0, r3
 8000ee0:	21e7      	movs	r1, #231	; 0xe7
 8000ee2:	2203      	movs	r2, #3
 8000ee4:	f7ff fdb4 	bl	8000a50 <vl6180x_i2c_io__write>
 8000ee8:	687b      	ldr	r3, [r7, #4]
 8000eea:	685b      	ldr	r3, [r3, #4]
 8000eec:	4618      	mov	r0, r3
 8000eee:	21f5      	movs	r1, #245	; 0xf5
 8000ef0:	2202      	movs	r2, #2
 8000ef2:	f7ff fdad 	bl	8000a50 <vl6180x_i2c_io__write>
 8000ef6:	687b      	ldr	r3, [r7, #4]
 8000ef8:	685b      	ldr	r3, [r3, #4]
 8000efa:	4618      	mov	r0, r3
 8000efc:	21d9      	movs	r1, #217	; 0xd9
 8000efe:	2205      	movs	r2, #5
 8000f00:	f7ff fda6 	bl	8000a50 <vl6180x_i2c_io__write>
 8000f04:	687b      	ldr	r3, [r7, #4]
 8000f06:	685b      	ldr	r3, [r3, #4]
 8000f08:	4618      	mov	r0, r3
 8000f0a:	21db      	movs	r1, #219	; 0xdb
 8000f0c:	22ce      	movs	r2, #206	; 0xce
 8000f0e:	f7ff fd9f 	bl	8000a50 <vl6180x_i2c_io__write>
 8000f12:	687b      	ldr	r3, [r7, #4]
 8000f14:	685b      	ldr	r3, [r3, #4]
 8000f16:	4618      	mov	r0, r3
 8000f18:	21dc      	movs	r1, #220	; 0xdc
 8000f1a:	2203      	movs	r2, #3
 8000f1c:	f7ff fd98 	bl	8000a50 <vl6180x_i2c_io__write>
 8000f20:	687b      	ldr	r3, [r7, #4]
 8000f22:	685b      	ldr	r3, [r3, #4]
 8000f24:	4618      	mov	r0, r3
 8000f26:	21dd      	movs	r1, #221	; 0xdd
 8000f28:	22f8      	movs	r2, #248	; 0xf8
 8000f2a:	f7ff fd91 	bl	8000a50 <vl6180x_i2c_io__write>
 8000f2e:	687b      	ldr	r3, [r7, #4]
 8000f30:	685b      	ldr	r3, [r3, #4]
 8000f32:	4618      	mov	r0, r3
 8000f34:	219f      	movs	r1, #159	; 0x9f
 8000f36:	2200      	movs	r2, #0
 8000f38:	f7ff fd8a 	bl	8000a50 <vl6180x_i2c_io__write>
 8000f3c:	687b      	ldr	r3, [r7, #4]
 8000f3e:	685b      	ldr	r3, [r3, #4]
 8000f40:	4618      	mov	r0, r3
 8000f42:	21a3      	movs	r1, #163	; 0xa3
 8000f44:	223c      	movs	r2, #60	; 0x3c
 8000f46:	f7ff fd83 	bl	8000a50 <vl6180x_i2c_io__write>
 8000f4a:	687b      	ldr	r3, [r7, #4]
 8000f4c:	685b      	ldr	r3, [r3, #4]
 8000f4e:	4618      	mov	r0, r3
 8000f50:	21b7      	movs	r1, #183	; 0xb7
 8000f52:	2200      	movs	r2, #0
 8000f54:	f7ff fd7c 	bl	8000a50 <vl6180x_i2c_io__write>
 8000f58:	687b      	ldr	r3, [r7, #4]
 8000f5a:	685b      	ldr	r3, [r3, #4]
 8000f5c:	4618      	mov	r0, r3
 8000f5e:	21bb      	movs	r1, #187	; 0xbb
 8000f60:	223c      	movs	r2, #60	; 0x3c
 8000f62:	f7ff fd75 	bl	8000a50 <vl6180x_i2c_io__write>
 8000f66:	687b      	ldr	r3, [r7, #4]
 8000f68:	685b      	ldr	r3, [r3, #4]
 8000f6a:	4618      	mov	r0, r3
 8000f6c:	21b2      	movs	r1, #178	; 0xb2
 8000f6e:	2209      	movs	r2, #9
 8000f70:	f7ff fd6e 	bl	8000a50 <vl6180x_i2c_io__write>
 8000f74:	687b      	ldr	r3, [r7, #4]
 8000f76:	685b      	ldr	r3, [r3, #4]
 8000f78:	4618      	mov	r0, r3
 8000f7a:	21ca      	movs	r1, #202	; 0xca
 8000f7c:	2209      	movs	r2, #9
 8000f7e:	f7ff fd67 	bl	8000a50 <vl6180x_i2c_io__write>
 8000f82:	687b      	ldr	r3, [r7, #4]
 8000f84:	685b      	ldr	r3, [r3, #4]
 8000f86:	4618      	mov	r0, r3
 8000f88:	f44f 71cc 	mov.w	r1, #408	; 0x198
 8000f8c:	2201      	movs	r2, #1
 8000f8e:	f7ff fd5f 	bl	8000a50 <vl6180x_i2c_io__write>
 8000f92:	687b      	ldr	r3, [r7, #4]
 8000f94:	685b      	ldr	r3, [r3, #4]
 8000f96:	4618      	mov	r0, r3
 8000f98:	f44f 71d8 	mov.w	r1, #432	; 0x1b0
 8000f9c:	2217      	movs	r2, #23
 8000f9e:	f7ff fd57 	bl	8000a50 <vl6180x_i2c_io__write>
 8000fa2:	687b      	ldr	r3, [r7, #4]
 8000fa4:	685b      	ldr	r3, [r3, #4]
 8000fa6:	4618      	mov	r0, r3
 8000fa8:	f240 11ad 	movw	r1, #429	; 0x1ad
 8000fac:	2200      	movs	r2, #0
 8000fae:	f7ff fd4f 	bl	8000a50 <vl6180x_i2c_io__write>
 8000fb2:	687b      	ldr	r3, [r7, #4]
 8000fb4:	685b      	ldr	r3, [r3, #4]
 8000fb6:	4618      	mov	r0, r3
 8000fb8:	21ff      	movs	r1, #255	; 0xff
 8000fba:	2205      	movs	r2, #5
 8000fbc:	f7ff fd48 	bl	8000a50 <vl6180x_i2c_io__write>
 8000fc0:	687b      	ldr	r3, [r7, #4]
 8000fc2:	685b      	ldr	r3, [r3, #4]
 8000fc4:	4618      	mov	r0, r3
 8000fc6:	f44f 7180 	mov.w	r1, #256	; 0x100
 8000fca:	2205      	movs	r2, #5
 8000fcc:	f7ff fd40 	bl	8000a50 <vl6180x_i2c_io__write>
 8000fd0:	687b      	ldr	r3, [r7, #4]
 8000fd2:	685b      	ldr	r3, [r3, #4]
 8000fd4:	4618      	mov	r0, r3
 8000fd6:	f240 1199 	movw	r1, #409	; 0x199
 8000fda:	2205      	movs	r2, #5
 8000fdc:	f7ff fd38 	bl	8000a50 <vl6180x_i2c_io__write>
 8000fe0:	687b      	ldr	r3, [r7, #4]
 8000fe2:	685b      	ldr	r3, [r3, #4]
 8000fe4:	4618      	mov	r0, r3
 8000fe6:	f44f 71d3 	mov.w	r1, #422	; 0x1a6
 8000fea:	221b      	movs	r2, #27
 8000fec:	f7ff fd30 	bl	8000a50 <vl6180x_i2c_io__write>
 8000ff0:	687b      	ldr	r3, [r7, #4]
 8000ff2:	685b      	ldr	r3, [r3, #4]
 8000ff4:	4618      	mov	r0, r3
 8000ff6:	f44f 71d6 	mov.w	r1, #428	; 0x1ac
 8000ffa:	223e      	movs	r2, #62	; 0x3e
 8000ffc:	f7ff fd28 	bl	8000a50 <vl6180x_i2c_io__write>
 8001000:	687b      	ldr	r3, [r7, #4]
 8001002:	685b      	ldr	r3, [r3, #4]
 8001004:	4618      	mov	r0, r3
 8001006:	f240 11a7 	movw	r1, #423	; 0x1a7
 800100a:	221f      	movs	r2, #31
 800100c:	f7ff fd20 	bl	8000a50 <vl6180x_i2c_io__write>
 8001010:	687b      	ldr	r3, [r7, #4]
 8001012:	685b      	ldr	r3, [r3, #4]
 8001014:	4618      	mov	r0, r3
 8001016:	2130      	movs	r1, #48	; 0x30
 8001018:	2200      	movs	r2, #0
 800101a:	f7ff fd19 	bl	8000a50 <vl6180x_i2c_io__write>
 800101e:	687b      	ldr	r3, [r7, #4]
 8001020:	685b      	ldr	r3, [r3, #4]
 8001022:	4618      	mov	r0, r3
 8001024:	2111      	movs	r1, #17
 8001026:	2210      	movs	r2, #16
 8001028:	f7ff fd12 	bl	8000a50 <vl6180x_i2c_io__write>
 800102c:	687b      	ldr	r3, [r7, #4]
 800102e:	685b      	ldr	r3, [r3, #4]
 8001030:	4618      	mov	r0, r3
 8001032:	f44f 7185 	mov.w	r1, #266	; 0x10a
 8001036:	2230      	movs	r2, #48	; 0x30
 8001038:	f7ff fd0a 	bl	8000a50 <vl6180x_i2c_io__write>
 800103c:	687b      	ldr	r3, [r7, #4]
 800103e:	685b      	ldr	r3, [r3, #4]
 8001040:	4618      	mov	r0, r3
 8001042:	213f      	movs	r1, #63	; 0x3f
 8001044:	2246      	movs	r2, #70	; 0x46
 8001046:	f7ff fd03 	bl	8000a50 <vl6180x_i2c_io__write>
 800104a:	687b      	ldr	r3, [r7, #4]
 800104c:	685b      	ldr	r3, [r3, #4]
 800104e:	4618      	mov	r0, r3
 8001050:	2131      	movs	r1, #49	; 0x31
 8001052:	22ff      	movs	r2, #255	; 0xff
 8001054:	f7ff fcfc 	bl	8000a50 <vl6180x_i2c_io__write>
 8001058:	687b      	ldr	r3, [r7, #4]
 800105a:	685b      	ldr	r3, [r3, #4]
 800105c:	4618      	mov	r0, r3
 800105e:	2140      	movs	r1, #64	; 0x40
 8001060:	2263      	movs	r2, #99	; 0x63
 8001062:	f7ff fcf5 	bl	8000a50 <vl6180x_i2c_io__write>
 8001066:	687b      	ldr	r3, [r7, #4]
 8001068:	685b      	ldr	r3, [r3, #4]
 800106a:	4618      	mov	r0, r3
 800106c:	212e      	movs	r1, #46	; 0x2e
 800106e:	2201      	movs	r2, #1
 8001070:	f7ff fcee 	bl	8000a50 <vl6180x_i2c_io__write>
 8001074:	687b      	ldr	r3, [r7, #4]
 8001076:	685b      	ldr	r3, [r3, #4]
 8001078:	4618      	mov	r0, r3
 800107a:	211b      	movs	r1, #27
 800107c:	2209      	movs	r2, #9
 800107e:	f7ff fce7 	bl	8000a50 <vl6180x_i2c_io__write>
 8001082:	687b      	ldr	r3, [r7, #4]
 8001084:	685b      	ldr	r3, [r3, #4]
 8001086:	4618      	mov	r0, r3
 8001088:	213e      	movs	r1, #62	; 0x3e
 800108a:	220a      	movs	r2, #10
 800108c:	f7ff fce0 	bl	8000a50 <vl6180x_i2c_io__write>
 8001090:	687b      	ldr	r3, [r7, #4]
 8001092:	685b      	ldr	r3, [r3, #4]
 8001094:	4618      	mov	r0, r3
 8001096:	2114      	movs	r1, #20
 8001098:	2224      	movs	r2, #36	; 0x24
 800109a:	f7ff fcd9 	bl	8000a50 <vl6180x_i2c_io__write>
 800109e:	687b      	ldr	r3, [r7, #4]
 80010a0:	685b      	ldr	r3, [r3, #4]
 80010a2:	4618      	mov	r0, r3
 80010a4:	211c      	movs	r1, #28
 80010a6:	2232      	movs	r2, #50	; 0x32
 80010a8:	f7ff fcd2 	bl	8000a50 <vl6180x_i2c_io__write>
 80010ac:	687b      	ldr	r3, [r7, #4]
 80010ae:	685b      	ldr	r3, [r3, #4]
 80010b0:	4618      	mov	r0, r3
 80010b2:	2140      	movs	r1, #64	; 0x40
 80010b4:	2264      	movs	r2, #100	; 0x64
 80010b6:	f7ff fccb 	bl	8000a50 <vl6180x_i2c_io__write>
 80010ba:	687b      	ldr	r3, [r7, #4]
 80010bc:	685b      	ldr	r3, [r3, #4]
 80010be:	4618      	mov	r0, r3
 80010c0:	2141      	movs	r1, #65	; 0x41
 80010c2:	2200      	movs	r2, #0
 80010c4:	f7ff fcc4 	bl	8000a50 <vl6180x_i2c_io__write>
 80010c8:	687b      	ldr	r3, [r7, #4]
 80010ca:	685b      	ldr	r3, [r3, #4]
 80010cc:	4618      	mov	r0, r3
 80010ce:	213f      	movs	r1, #63	; 0x3f
 80010d0:	2240      	movs	r2, #64	; 0x40
 80010d2:	f7ff fcbd 	bl	8000a50 <vl6180x_i2c_io__write>
 80010d6:	3708      	adds	r7, #8
 80010d8:	46bd      	mov	sp, r7
 80010da:	bdb0      	pop	{r4, r5, r7, pc}
 80010dc:	0800d444 	.word	0x0800d444
 80010e0:	0800d450 	.word	0x0800d450
 80010e4:	200001c0 	.word	0x200001c0

080010e8 <vl6180x_i2c___elabs>:
 80010e8:	b580      	push	{r7, lr}
 80010ea:	af00      	add	r7, sp, #0
 80010ec:	4803      	ldr	r0, [pc, #12]	; (80010fc <vl6180x_i2c___elabs+0x14>)
 80010ee:	f008 f9e5 	bl	80094bc <ada__tags__check_tsd>
 80010f2:	4803      	ldr	r0, [pc, #12]	; (8001100 <vl6180x_i2c___elabs+0x18>)
 80010f4:	f008 fa5c 	bl	80095b0 <ada__tags__register_tag>
 80010f8:	bd80      	pop	{r7, pc}
 80010fa:	bf00      	nop
 80010fc:	0800d3c4 	.word	0x0800d3c4
 8001100:	0800d430 	.word	0x0800d430

08001104 <stm32__device__enable_clock>:
 8001104:	b590      	push	{r4, r7, lr}
 8001106:	b083      	sub	sp, #12
 8001108:	af00      	add	r7, sp, #0
 800110a:	6078      	str	r0, [r7, #4]
 800110c:	687a      	ldr	r2, [r7, #4]
 800110e:	f1b2 4f90 	cmp.w	r2, #1207959552	; 0x48000000
 8001112:	d10a      	bne.n	800112a <stm32__device__enable_clock+0x26>
 8001114:	4b28      	ldr	r3, [pc, #160]	; (80011b8 <stm32__device__enable_clock+0xb4>)
 8001116:	334c      	adds	r3, #76	; 0x4c
 8001118:	681b      	ldr	r3, [r3, #0]
 800111a:	461a      	mov	r2, r3
 800111c:	4613      	mov	r3, r2
 800111e:	f043 0201 	orr.w	r2, r3, #1
 8001122:	4b25      	ldr	r3, [pc, #148]	; (80011b8 <stm32__device__enable_clock+0xb4>)
 8001124:	334c      	adds	r3, #76	; 0x4c
 8001126:	601a      	str	r2, [r3, #0]
 8001128:	e042      	b.n	80011b0 <stm32__device__enable_clock+0xac>
 800112a:	687a      	ldr	r2, [r7, #4]
 800112c:	4923      	ldr	r1, [pc, #140]	; (80011bc <stm32__device__enable_clock+0xb8>)
 800112e:	428a      	cmp	r2, r1
 8001130:	d10a      	bne.n	8001148 <stm32__device__enable_clock+0x44>
 8001132:	4b21      	ldr	r3, [pc, #132]	; (80011b8 <stm32__device__enable_clock+0xb4>)
 8001134:	334c      	adds	r3, #76	; 0x4c
 8001136:	681b      	ldr	r3, [r3, #0]
 8001138:	461a      	mov	r2, r3
 800113a:	4613      	mov	r3, r2
 800113c:	f043 0202 	orr.w	r2, r3, #2
 8001140:	4b1d      	ldr	r3, [pc, #116]	; (80011b8 <stm32__device__enable_clock+0xb4>)
 8001142:	334c      	adds	r3, #76	; 0x4c
 8001144:	601a      	str	r2, [r3, #0]
 8001146:	e033      	b.n	80011b0 <stm32__device__enable_clock+0xac>
 8001148:	687a      	ldr	r2, [r7, #4]
 800114a:	491d      	ldr	r1, [pc, #116]	; (80011c0 <stm32__device__enable_clock+0xbc>)
 800114c:	428a      	cmp	r2, r1
 800114e:	d10a      	bne.n	8001166 <stm32__device__enable_clock+0x62>
 8001150:	4b19      	ldr	r3, [pc, #100]	; (80011b8 <stm32__device__enable_clock+0xb4>)
 8001152:	334c      	adds	r3, #76	; 0x4c
 8001154:	681b      	ldr	r3, [r3, #0]
 8001156:	461a      	mov	r2, r3
 8001158:	4613      	mov	r3, r2
 800115a:	f043 0204 	orr.w	r2, r3, #4
 800115e:	4b16      	ldr	r3, [pc, #88]	; (80011b8 <stm32__device__enable_clock+0xb4>)
 8001160:	334c      	adds	r3, #76	; 0x4c
 8001162:	601a      	str	r2, [r3, #0]
 8001164:	e024      	b.n	80011b0 <stm32__device__enable_clock+0xac>
 8001166:	687a      	ldr	r2, [r7, #4]
 8001168:	4916      	ldr	r1, [pc, #88]	; (80011c4 <stm32__device__enable_clock+0xc0>)
 800116a:	428a      	cmp	r2, r1
 800116c:	d10a      	bne.n	8001184 <stm32__device__enable_clock+0x80>
 800116e:	4b12      	ldr	r3, [pc, #72]	; (80011b8 <stm32__device__enable_clock+0xb4>)
 8001170:	334c      	adds	r3, #76	; 0x4c
 8001172:	681b      	ldr	r3, [r3, #0]
 8001174:	461a      	mov	r2, r3
 8001176:	4613      	mov	r3, r2
 8001178:	f043 0208 	orr.w	r2, r3, #8
 800117c:	4b0e      	ldr	r3, [pc, #56]	; (80011b8 <stm32__device__enable_clock+0xb4>)
 800117e:	334c      	adds	r3, #76	; 0x4c
 8001180:	601a      	str	r2, [r3, #0]
 8001182:	e015      	b.n	80011b0 <stm32__device__enable_clock+0xac>
 8001184:	687a      	ldr	r2, [r7, #4]
 8001186:	4910      	ldr	r1, [pc, #64]	; (80011c8 <stm32__device__enable_clock+0xc4>)
 8001188:	428a      	cmp	r2, r1
 800118a:	d10a      	bne.n	80011a2 <stm32__device__enable_clock+0x9e>
 800118c:	4b0a      	ldr	r3, [pc, #40]	; (80011b8 <stm32__device__enable_clock+0xb4>)
 800118e:	334c      	adds	r3, #76	; 0x4c
 8001190:	681b      	ldr	r3, [r3, #0]
 8001192:	461a      	mov	r2, r3
 8001194:	4613      	mov	r3, r2
 8001196:	f043 0210 	orr.w	r2, r3, #16
 800119a:	4b07      	ldr	r3, [pc, #28]	; (80011b8 <stm32__device__enable_clock+0xb4>)
 800119c:	334c      	adds	r3, #76	; 0x4c
 800119e:	601a      	str	r2, [r3, #0]
 80011a0:	e006      	b.n	80011b0 <stm32__device__enable_clock+0xac>
 80011a2:	4b0a      	ldr	r3, [pc, #40]	; (80011cc <stm32__device__enable_clock+0xc8>)
 80011a4:	4c0a      	ldr	r4, [pc, #40]	; (80011d0 <stm32__device__enable_clock+0xcc>)
 80011a6:	480b      	ldr	r0, [pc, #44]	; (80011d4 <stm32__device__enable_clock+0xd0>)
 80011a8:	461a      	mov	r2, r3
 80011aa:	4623      	mov	r3, r4
 80011ac:	f007 feba 	bl	8008f24 <__gnat_raise_exception>
 80011b0:	370c      	adds	r7, #12
 80011b2:	46bd      	mov	sp, r7
 80011b4:	bd90      	pop	{r4, r7, pc}
 80011b6:	bf00      	nop
 80011b8:	40021000 	.word	0x40021000
 80011bc:	48000400 	.word	0x48000400
 80011c0:	48000800 	.word	0x48000800
 80011c4:	48000c00 	.word	0x48000c00
 80011c8:	48001000 	.word	0x48001000
 80011cc:	0800d474 	.word	0x0800d474
 80011d0:	0800d488 	.word	0x0800d488
 80011d4:	20000018 	.word	0x20000018

080011d8 <stm32__device__enable_clock__2>:
 80011d8:	b580      	push	{r7, lr}
 80011da:	b082      	sub	sp, #8
 80011dc:	af00      	add	r7, sp, #0
 80011de:	6078      	str	r0, [r7, #4]
 80011e0:	687b      	ldr	r3, [r7, #4]
 80011e2:	685b      	ldr	r3, [r3, #4]
 80011e4:	2b00      	cmp	r3, #0
 80011e6:	d103      	bne.n	80011f0 <stm32__device__enable_clock__2+0x18>
 80011e8:	4805      	ldr	r0, [pc, #20]	; (8001200 <stm32__device__enable_clock__2+0x28>)
 80011ea:	2151      	movs	r1, #81	; 0x51
 80011ec:	f007 fedc 	bl	8008fa8 <__gnat_rcheck_CE_Access_Check>
 80011f0:	687b      	ldr	r3, [r7, #4]
 80011f2:	685b      	ldr	r3, [r3, #4]
 80011f4:	4618      	mov	r0, r3
 80011f6:	f7ff ff85 	bl	8001104 <stm32__device__enable_clock>
 80011fa:	3708      	adds	r7, #8
 80011fc:	46bd      	mov	sp, r7
 80011fe:	bd80      	pop	{r7, pc}
 8001200:	0800d490 	.word	0x0800d490

08001204 <stm32__device__as_port_id>:
 8001204:	b590      	push	{r4, r7, lr}
 8001206:	b085      	sub	sp, #20
 8001208:	af00      	add	r7, sp, #0
 800120a:	6078      	str	r0, [r7, #4]
 800120c:	f107 0220 	add.w	r2, r7, #32
 8001210:	60fa      	str	r2, [r7, #12]
 8001212:	687a      	ldr	r2, [r7, #4]
 8001214:	6852      	ldr	r2, [r2, #4]
 8001216:	4611      	mov	r1, r2
 8001218:	4a14      	ldr	r2, [pc, #80]	; (800126c <stm32__device__as_port_id+0x68>)
 800121a:	4291      	cmp	r1, r2
 800121c:	d101      	bne.n	8001222 <stm32__device__as_port_id+0x1e>
 800121e:	2300      	movs	r3, #0
 8001220:	e01e      	b.n	8001260 <stm32__device__as_port_id+0x5c>
 8001222:	687a      	ldr	r2, [r7, #4]
 8001224:	6852      	ldr	r2, [r2, #4]
 8001226:	4611      	mov	r1, r2
 8001228:	4a11      	ldr	r2, [pc, #68]	; (8001270 <stm32__device__as_port_id+0x6c>)
 800122a:	4291      	cmp	r1, r2
 800122c:	d101      	bne.n	8001232 <stm32__device__as_port_id+0x2e>
 800122e:	2301      	movs	r3, #1
 8001230:	e016      	b.n	8001260 <stm32__device__as_port_id+0x5c>
 8001232:	687a      	ldr	r2, [r7, #4]
 8001234:	6852      	ldr	r2, [r2, #4]
 8001236:	4611      	mov	r1, r2
 8001238:	4a0e      	ldr	r2, [pc, #56]	; (8001274 <stm32__device__as_port_id+0x70>)
 800123a:	4291      	cmp	r1, r2
 800123c:	d101      	bne.n	8001242 <stm32__device__as_port_id+0x3e>
 800123e:	2302      	movs	r3, #2
 8001240:	e00e      	b.n	8001260 <stm32__device__as_port_id+0x5c>
 8001242:	687a      	ldr	r2, [r7, #4]
 8001244:	6852      	ldr	r2, [r2, #4]
 8001246:	4611      	mov	r1, r2
 8001248:	4a0b      	ldr	r2, [pc, #44]	; (8001278 <stm32__device__as_port_id+0x74>)
 800124a:	4291      	cmp	r1, r2
 800124c:	d101      	bne.n	8001252 <stm32__device__as_port_id+0x4e>
 800124e:	2303      	movs	r3, #3
 8001250:	e006      	b.n	8001260 <stm32__device__as_port_id+0x5c>
 8001252:	4b0a      	ldr	r3, [pc, #40]	; (800127c <stm32__device__as_port_id+0x78>)
 8001254:	4c0a      	ldr	r4, [pc, #40]	; (8001280 <stm32__device__as_port_id+0x7c>)
 8001256:	480b      	ldr	r0, [pc, #44]	; (8001284 <stm32__device__as_port_id+0x80>)
 8001258:	461a      	mov	r2, r3
 800125a:	4623      	mov	r3, r4
 800125c:	f007 fe62 	bl	8008f24 <__gnat_raise_exception>
 8001260:	bf00      	nop
 8001262:	4618      	mov	r0, r3
 8001264:	3714      	adds	r7, #20
 8001266:	46bd      	mov	sp, r7
 8001268:	bd90      	pop	{r4, r7, pc}
 800126a:	bf00      	nop
 800126c:	40005400 	.word	0x40005400
 8001270:	40005800 	.word	0x40005800
 8001274:	40005c00 	.word	0x40005c00
 8001278:	40008400 	.word	0x40008400
 800127c:	0800d4e8 	.word	0x0800d4e8
 8001280:	0800d4b8 	.word	0x0800d4b8
 8001284:	20000018 	.word	0x20000018

08001288 <stm32__device__enable_clock__5>:
 8001288:	b580      	push	{r7, lr}
 800128a:	b084      	sub	sp, #16
 800128c:	af00      	add	r7, sp, #0
 800128e:	6078      	str	r0, [r7, #4]
 8001290:	f107 0318 	add.w	r3, r7, #24
 8001294:	60fb      	str	r3, [r7, #12]
 8001296:	6878      	ldr	r0, [r7, #4]
 8001298:	f7ff ffb4 	bl	8001204 <stm32__device__as_port_id>
 800129c:	4603      	mov	r3, r0
 800129e:	4618      	mov	r0, r3
 80012a0:	f000 f804 	bl	80012ac <stm32__device__enable_clock__6>
 80012a4:	3710      	adds	r7, #16
 80012a6:	46bd      	mov	sp, r7
 80012a8:	bd80      	pop	{r7, pc}
 80012aa:	bf00      	nop

080012ac <stm32__device__enable_clock__6>:
 80012ac:	b580      	push	{r7, lr}
 80012ae:	b082      	sub	sp, #8
 80012b0:	af00      	add	r7, sp, #0
 80012b2:	4603      	mov	r3, r0
 80012b4:	71fb      	strb	r3, [r7, #7]
 80012b6:	79fb      	ldrb	r3, [r7, #7]
 80012b8:	2b03      	cmp	r3, #3
 80012ba:	d903      	bls.n	80012c4 <stm32__device__enable_clock__6+0x18>
 80012bc:	481d      	ldr	r0, [pc, #116]	; (8001334 <stm32__device__enable_clock__6+0x88>)
 80012be:	21f2      	movs	r1, #242	; 0xf2
 80012c0:	f007 fe92 	bl	8008fe8 <__gnat_rcheck_CE_Invalid_Data>
 80012c4:	79fb      	ldrb	r3, [r7, #7]
 80012c6:	2b01      	cmp	r3, #1
 80012c8:	d00f      	beq.n	80012ea <stm32__device__enable_clock__6+0x3e>
 80012ca:	2b01      	cmp	r3, #1
 80012cc:	d302      	bcc.n	80012d4 <stm32__device__enable_clock__6+0x28>
 80012ce:	2b02      	cmp	r3, #2
 80012d0:	d016      	beq.n	8001300 <stm32__device__enable_clock__6+0x54>
 80012d2:	e020      	b.n	8001316 <stm32__device__enable_clock__6+0x6a>
 80012d4:	4b18      	ldr	r3, [pc, #96]	; (8001338 <stm32__device__enable_clock__6+0x8c>)
 80012d6:	3358      	adds	r3, #88	; 0x58
 80012d8:	681b      	ldr	r3, [r3, #0]
 80012da:	461a      	mov	r2, r3
 80012dc:	4613      	mov	r3, r2
 80012de:	f443 1200 	orr.w	r2, r3, #2097152	; 0x200000
 80012e2:	4b15      	ldr	r3, [pc, #84]	; (8001338 <stm32__device__enable_clock__6+0x8c>)
 80012e4:	3358      	adds	r3, #88	; 0x58
 80012e6:	601a      	str	r2, [r3, #0]
 80012e8:	e01f      	b.n	800132a <stm32__device__enable_clock__6+0x7e>
 80012ea:	4b13      	ldr	r3, [pc, #76]	; (8001338 <stm32__device__enable_clock__6+0x8c>)
 80012ec:	3358      	adds	r3, #88	; 0x58
 80012ee:	681b      	ldr	r3, [r3, #0]
 80012f0:	461a      	mov	r2, r3
 80012f2:	4613      	mov	r3, r2
 80012f4:	f443 0280 	orr.w	r2, r3, #4194304	; 0x400000
 80012f8:	4b0f      	ldr	r3, [pc, #60]	; (8001338 <stm32__device__enable_clock__6+0x8c>)
 80012fa:	3358      	adds	r3, #88	; 0x58
 80012fc:	601a      	str	r2, [r3, #0]
 80012fe:	e014      	b.n	800132a <stm32__device__enable_clock__6+0x7e>
 8001300:	4b0d      	ldr	r3, [pc, #52]	; (8001338 <stm32__device__enable_clock__6+0x8c>)
 8001302:	3358      	adds	r3, #88	; 0x58
 8001304:	681b      	ldr	r3, [r3, #0]
 8001306:	461a      	mov	r2, r3
 8001308:	4613      	mov	r3, r2
 800130a:	f443 0200 	orr.w	r2, r3, #8388608	; 0x800000
 800130e:	4b0a      	ldr	r3, [pc, #40]	; (8001338 <stm32__device__enable_clock__6+0x8c>)
 8001310:	3358      	adds	r3, #88	; 0x58
 8001312:	601a      	str	r2, [r3, #0]
 8001314:	e009      	b.n	800132a <stm32__device__enable_clock__6+0x7e>
 8001316:	4b08      	ldr	r3, [pc, #32]	; (8001338 <stm32__device__enable_clock__6+0x8c>)
 8001318:	335c      	adds	r3, #92	; 0x5c
 800131a:	681b      	ldr	r3, [r3, #0]
 800131c:	461a      	mov	r2, r3
 800131e:	4613      	mov	r3, r2
 8001320:	f043 0202 	orr.w	r2, r3, #2
 8001324:	4b04      	ldr	r3, [pc, #16]	; (8001338 <stm32__device__enable_clock__6+0x8c>)
 8001326:	335c      	adds	r3, #92	; 0x5c
 8001328:	601a      	str	r2, [r3, #0]
 800132a:	bf00      	nop
 800132c:	3708      	adds	r7, #8
 800132e:	46bd      	mov	sp, r7
 8001330:	bd80      	pop	{r7, pc}
 8001332:	bf00      	nop
 8001334:	0800d490 	.word	0x0800d490
 8001338:	40021000 	.word	0x40021000

0800133c <stm32__device___elabs>:
 800133c:	b580      	push	{r7, lr}
 800133e:	b082      	sub	sp, #8
 8001340:	af02      	add	r7, sp, #8
 8001342:	4b9d      	ldr	r3, [pc, #628]	; (80015b8 <stm32__device___elabs+0x27c>)
 8001344:	681b      	ldr	r3, [r3, #0]
 8001346:	4a9d      	ldr	r2, [pc, #628]	; (80015bc <stm32__device___elabs+0x280>)
 8001348:	6053      	str	r3, [r2, #4]
 800134a:	4b9c      	ldr	r3, [pc, #624]	; (80015bc <stm32__device___elabs+0x280>)
 800134c:	2201      	movs	r2, #1
 800134e:	811a      	strh	r2, [r3, #8]
 8001350:	4b9a      	ldr	r3, [pc, #616]	; (80015bc <stm32__device___elabs+0x280>)
 8001352:	4a9b      	ldr	r2, [pc, #620]	; (80015c0 <stm32__device___elabs+0x284>)
 8001354:	601a      	str	r2, [r3, #0]
 8001356:	4a99      	ldr	r2, [pc, #612]	; (80015bc <stm32__device___elabs+0x280>)
 8001358:	2300      	movs	r3, #0
 800135a:	9300      	str	r3, [sp, #0]
 800135c:	4610      	mov	r0, r2
 800135e:	4999      	ldr	r1, [pc, #612]	; (80015c4 <stm32__device___elabs+0x288>)
 8001360:	2201      	movs	r2, #1
 8001362:	2300      	movs	r3, #0
 8001364:	f008 f8f4 	bl	8009550 <ada__tags__register_interface_offset>
 8001368:	4b93      	ldr	r3, [pc, #588]	; (80015b8 <stm32__device___elabs+0x27c>)
 800136a:	681b      	ldr	r3, [r3, #0]
 800136c:	4a96      	ldr	r2, [pc, #600]	; (80015c8 <stm32__device___elabs+0x28c>)
 800136e:	6053      	str	r3, [r2, #4]
 8001370:	4b95      	ldr	r3, [pc, #596]	; (80015c8 <stm32__device___elabs+0x28c>)
 8001372:	2202      	movs	r2, #2
 8001374:	811a      	strh	r2, [r3, #8]
 8001376:	4b94      	ldr	r3, [pc, #592]	; (80015c8 <stm32__device___elabs+0x28c>)
 8001378:	4a91      	ldr	r2, [pc, #580]	; (80015c0 <stm32__device___elabs+0x284>)
 800137a:	601a      	str	r2, [r3, #0]
 800137c:	4a92      	ldr	r2, [pc, #584]	; (80015c8 <stm32__device___elabs+0x28c>)
 800137e:	2300      	movs	r3, #0
 8001380:	9300      	str	r3, [sp, #0]
 8001382:	4610      	mov	r0, r2
 8001384:	498f      	ldr	r1, [pc, #572]	; (80015c4 <stm32__device___elabs+0x288>)
 8001386:	2201      	movs	r2, #1
 8001388:	2300      	movs	r3, #0
 800138a:	f008 f8e1 	bl	8009550 <ada__tags__register_interface_offset>
 800138e:	4b8a      	ldr	r3, [pc, #552]	; (80015b8 <stm32__device___elabs+0x27c>)
 8001390:	681b      	ldr	r3, [r3, #0]
 8001392:	4a8e      	ldr	r2, [pc, #568]	; (80015cc <stm32__device___elabs+0x290>)
 8001394:	6053      	str	r3, [r2, #4]
 8001396:	4b8d      	ldr	r3, [pc, #564]	; (80015cc <stm32__device___elabs+0x290>)
 8001398:	2204      	movs	r2, #4
 800139a:	811a      	strh	r2, [r3, #8]
 800139c:	4b8b      	ldr	r3, [pc, #556]	; (80015cc <stm32__device___elabs+0x290>)
 800139e:	4a88      	ldr	r2, [pc, #544]	; (80015c0 <stm32__device___elabs+0x284>)
 80013a0:	601a      	str	r2, [r3, #0]
 80013a2:	4a8a      	ldr	r2, [pc, #552]	; (80015cc <stm32__device___elabs+0x290>)
 80013a4:	2300      	movs	r3, #0
 80013a6:	9300      	str	r3, [sp, #0]
 80013a8:	4610      	mov	r0, r2
 80013aa:	4986      	ldr	r1, [pc, #536]	; (80015c4 <stm32__device___elabs+0x288>)
 80013ac:	2201      	movs	r2, #1
 80013ae:	2300      	movs	r3, #0
 80013b0:	f008 f8ce 	bl	8009550 <ada__tags__register_interface_offset>
 80013b4:	4b80      	ldr	r3, [pc, #512]	; (80015b8 <stm32__device___elabs+0x27c>)
 80013b6:	681b      	ldr	r3, [r3, #0]
 80013b8:	4a85      	ldr	r2, [pc, #532]	; (80015d0 <stm32__device___elabs+0x294>)
 80013ba:	6053      	str	r3, [r2, #4]
 80013bc:	4b84      	ldr	r3, [pc, #528]	; (80015d0 <stm32__device___elabs+0x294>)
 80013be:	2208      	movs	r2, #8
 80013c0:	811a      	strh	r2, [r3, #8]
 80013c2:	4b83      	ldr	r3, [pc, #524]	; (80015d0 <stm32__device___elabs+0x294>)
 80013c4:	4a7e      	ldr	r2, [pc, #504]	; (80015c0 <stm32__device___elabs+0x284>)
 80013c6:	601a      	str	r2, [r3, #0]
 80013c8:	4a81      	ldr	r2, [pc, #516]	; (80015d0 <stm32__device___elabs+0x294>)
 80013ca:	2300      	movs	r3, #0
 80013cc:	9300      	str	r3, [sp, #0]
 80013ce:	4610      	mov	r0, r2
 80013d0:	497c      	ldr	r1, [pc, #496]	; (80015c4 <stm32__device___elabs+0x288>)
 80013d2:	2201      	movs	r2, #1
 80013d4:	2300      	movs	r3, #0
 80013d6:	f008 f8bb 	bl	8009550 <ada__tags__register_interface_offset>
 80013da:	4b77      	ldr	r3, [pc, #476]	; (80015b8 <stm32__device___elabs+0x27c>)
 80013dc:	681b      	ldr	r3, [r3, #0]
 80013de:	4a7d      	ldr	r2, [pc, #500]	; (80015d4 <stm32__device___elabs+0x298>)
 80013e0:	6053      	str	r3, [r2, #4]
 80013e2:	4b7c      	ldr	r3, [pc, #496]	; (80015d4 <stm32__device___elabs+0x298>)
 80013e4:	2210      	movs	r2, #16
 80013e6:	811a      	strh	r2, [r3, #8]
 80013e8:	4b7a      	ldr	r3, [pc, #488]	; (80015d4 <stm32__device___elabs+0x298>)
 80013ea:	4a75      	ldr	r2, [pc, #468]	; (80015c0 <stm32__device___elabs+0x284>)
 80013ec:	601a      	str	r2, [r3, #0]
 80013ee:	4a79      	ldr	r2, [pc, #484]	; (80015d4 <stm32__device___elabs+0x298>)
 80013f0:	2300      	movs	r3, #0
 80013f2:	9300      	str	r3, [sp, #0]
 80013f4:	4610      	mov	r0, r2
 80013f6:	4973      	ldr	r1, [pc, #460]	; (80015c4 <stm32__device___elabs+0x288>)
 80013f8:	2201      	movs	r2, #1
 80013fa:	2300      	movs	r3, #0
 80013fc:	f008 f8a8 	bl	8009550 <ada__tags__register_interface_offset>
 8001400:	4b6d      	ldr	r3, [pc, #436]	; (80015b8 <stm32__device___elabs+0x27c>)
 8001402:	681b      	ldr	r3, [r3, #0]
 8001404:	4a74      	ldr	r2, [pc, #464]	; (80015d8 <stm32__device___elabs+0x29c>)
 8001406:	6053      	str	r3, [r2, #4]
 8001408:	4b73      	ldr	r3, [pc, #460]	; (80015d8 <stm32__device___elabs+0x29c>)
 800140a:	2220      	movs	r2, #32
 800140c:	811a      	strh	r2, [r3, #8]
 800140e:	4b72      	ldr	r3, [pc, #456]	; (80015d8 <stm32__device___elabs+0x29c>)
 8001410:	4a6b      	ldr	r2, [pc, #428]	; (80015c0 <stm32__device___elabs+0x284>)
 8001412:	601a      	str	r2, [r3, #0]
 8001414:	4a70      	ldr	r2, [pc, #448]	; (80015d8 <stm32__device___elabs+0x29c>)
 8001416:	2300      	movs	r3, #0
 8001418:	9300      	str	r3, [sp, #0]
 800141a:	4610      	mov	r0, r2
 800141c:	4969      	ldr	r1, [pc, #420]	; (80015c4 <stm32__device___elabs+0x288>)
 800141e:	2201      	movs	r2, #1
 8001420:	2300      	movs	r3, #0
 8001422:	f008 f895 	bl	8009550 <ada__tags__register_interface_offset>
 8001426:	4b64      	ldr	r3, [pc, #400]	; (80015b8 <stm32__device___elabs+0x27c>)
 8001428:	681b      	ldr	r3, [r3, #0]
 800142a:	4a6c      	ldr	r2, [pc, #432]	; (80015dc <stm32__device___elabs+0x2a0>)
 800142c:	6053      	str	r3, [r2, #4]
 800142e:	4b6b      	ldr	r3, [pc, #428]	; (80015dc <stm32__device___elabs+0x2a0>)
 8001430:	2240      	movs	r2, #64	; 0x40
 8001432:	811a      	strh	r2, [r3, #8]
 8001434:	4b69      	ldr	r3, [pc, #420]	; (80015dc <stm32__device___elabs+0x2a0>)
 8001436:	4a62      	ldr	r2, [pc, #392]	; (80015c0 <stm32__device___elabs+0x284>)
 8001438:	601a      	str	r2, [r3, #0]
 800143a:	4a68      	ldr	r2, [pc, #416]	; (80015dc <stm32__device___elabs+0x2a0>)
 800143c:	2300      	movs	r3, #0
 800143e:	9300      	str	r3, [sp, #0]
 8001440:	4610      	mov	r0, r2
 8001442:	4960      	ldr	r1, [pc, #384]	; (80015c4 <stm32__device___elabs+0x288>)
 8001444:	2201      	movs	r2, #1
 8001446:	2300      	movs	r3, #0
 8001448:	f008 f882 	bl	8009550 <ada__tags__register_interface_offset>
 800144c:	4b5a      	ldr	r3, [pc, #360]	; (80015b8 <stm32__device___elabs+0x27c>)
 800144e:	681b      	ldr	r3, [r3, #0]
 8001450:	4a63      	ldr	r2, [pc, #396]	; (80015e0 <stm32__device___elabs+0x2a4>)
 8001452:	6053      	str	r3, [r2, #4]
 8001454:	4b62      	ldr	r3, [pc, #392]	; (80015e0 <stm32__device___elabs+0x2a4>)
 8001456:	2280      	movs	r2, #128	; 0x80
 8001458:	811a      	strh	r2, [r3, #8]
 800145a:	4b61      	ldr	r3, [pc, #388]	; (80015e0 <stm32__device___elabs+0x2a4>)
 800145c:	4a58      	ldr	r2, [pc, #352]	; (80015c0 <stm32__device___elabs+0x284>)
 800145e:	601a      	str	r2, [r3, #0]
 8001460:	4a5f      	ldr	r2, [pc, #380]	; (80015e0 <stm32__device___elabs+0x2a4>)
 8001462:	2300      	movs	r3, #0
 8001464:	9300      	str	r3, [sp, #0]
 8001466:	4610      	mov	r0, r2
 8001468:	4956      	ldr	r1, [pc, #344]	; (80015c4 <stm32__device___elabs+0x288>)
 800146a:	2201      	movs	r2, #1
 800146c:	2300      	movs	r3, #0
 800146e:	f008 f86f 	bl	8009550 <ada__tags__register_interface_offset>
 8001472:	4b51      	ldr	r3, [pc, #324]	; (80015b8 <stm32__device___elabs+0x27c>)
 8001474:	681b      	ldr	r3, [r3, #0]
 8001476:	4a5b      	ldr	r2, [pc, #364]	; (80015e4 <stm32__device___elabs+0x2a8>)
 8001478:	6053      	str	r3, [r2, #4]
 800147a:	4b5a      	ldr	r3, [pc, #360]	; (80015e4 <stm32__device___elabs+0x2a8>)
 800147c:	f44f 7280 	mov.w	r2, #256	; 0x100
 8001480:	811a      	strh	r2, [r3, #8]
 8001482:	4b58      	ldr	r3, [pc, #352]	; (80015e4 <stm32__device___elabs+0x2a8>)
 8001484:	4a4e      	ldr	r2, [pc, #312]	; (80015c0 <stm32__device___elabs+0x284>)
 8001486:	601a      	str	r2, [r3, #0]
 8001488:	4a56      	ldr	r2, [pc, #344]	; (80015e4 <stm32__device___elabs+0x2a8>)
 800148a:	2300      	movs	r3, #0
 800148c:	9300      	str	r3, [sp, #0]
 800148e:	4610      	mov	r0, r2
 8001490:	494c      	ldr	r1, [pc, #304]	; (80015c4 <stm32__device___elabs+0x288>)
 8001492:	2201      	movs	r2, #1
 8001494:	2300      	movs	r3, #0
 8001496:	f008 f85b 	bl	8009550 <ada__tags__register_interface_offset>
 800149a:	4b47      	ldr	r3, [pc, #284]	; (80015b8 <stm32__device___elabs+0x27c>)
 800149c:	681b      	ldr	r3, [r3, #0]
 800149e:	4a52      	ldr	r2, [pc, #328]	; (80015e8 <stm32__device___elabs+0x2ac>)
 80014a0:	6053      	str	r3, [r2, #4]
 80014a2:	4b51      	ldr	r3, [pc, #324]	; (80015e8 <stm32__device___elabs+0x2ac>)
 80014a4:	f44f 7200 	mov.w	r2, #512	; 0x200
 80014a8:	811a      	strh	r2, [r3, #8]
 80014aa:	4b4f      	ldr	r3, [pc, #316]	; (80015e8 <stm32__device___elabs+0x2ac>)
 80014ac:	4a44      	ldr	r2, [pc, #272]	; (80015c0 <stm32__device___elabs+0x284>)
 80014ae:	601a      	str	r2, [r3, #0]
 80014b0:	4a4d      	ldr	r2, [pc, #308]	; (80015e8 <stm32__device___elabs+0x2ac>)
 80014b2:	2300      	movs	r3, #0
 80014b4:	9300      	str	r3, [sp, #0]
 80014b6:	4610      	mov	r0, r2
 80014b8:	4942      	ldr	r1, [pc, #264]	; (80015c4 <stm32__device___elabs+0x288>)
 80014ba:	2201      	movs	r2, #1
 80014bc:	2300      	movs	r3, #0
 80014be:	f008 f847 	bl	8009550 <ada__tags__register_interface_offset>
 80014c2:	4b3d      	ldr	r3, [pc, #244]	; (80015b8 <stm32__device___elabs+0x27c>)
 80014c4:	681b      	ldr	r3, [r3, #0]
 80014c6:	4a49      	ldr	r2, [pc, #292]	; (80015ec <stm32__device___elabs+0x2b0>)
 80014c8:	6053      	str	r3, [r2, #4]
 80014ca:	4b48      	ldr	r3, [pc, #288]	; (80015ec <stm32__device___elabs+0x2b0>)
 80014cc:	f44f 6280 	mov.w	r2, #1024	; 0x400
 80014d0:	811a      	strh	r2, [r3, #8]
 80014d2:	4b46      	ldr	r3, [pc, #280]	; (80015ec <stm32__device___elabs+0x2b0>)
 80014d4:	4a3a      	ldr	r2, [pc, #232]	; (80015c0 <stm32__device___elabs+0x284>)
 80014d6:	601a      	str	r2, [r3, #0]
 80014d8:	4a44      	ldr	r2, [pc, #272]	; (80015ec <stm32__device___elabs+0x2b0>)
 80014da:	2300      	movs	r3, #0
 80014dc:	9300      	str	r3, [sp, #0]
 80014de:	4610      	mov	r0, r2
 80014e0:	4938      	ldr	r1, [pc, #224]	; (80015c4 <stm32__device___elabs+0x288>)
 80014e2:	2201      	movs	r2, #1
 80014e4:	2300      	movs	r3, #0
 80014e6:	f008 f833 	bl	8009550 <ada__tags__register_interface_offset>
 80014ea:	4b33      	ldr	r3, [pc, #204]	; (80015b8 <stm32__device___elabs+0x27c>)
 80014ec:	681b      	ldr	r3, [r3, #0]
 80014ee:	4a40      	ldr	r2, [pc, #256]	; (80015f0 <stm32__device___elabs+0x2b4>)
 80014f0:	6053      	str	r3, [r2, #4]
 80014f2:	4b3f      	ldr	r3, [pc, #252]	; (80015f0 <stm32__device___elabs+0x2b4>)
 80014f4:	f44f 6200 	mov.w	r2, #2048	; 0x800
 80014f8:	811a      	strh	r2, [r3, #8]
 80014fa:	4b3d      	ldr	r3, [pc, #244]	; (80015f0 <stm32__device___elabs+0x2b4>)
 80014fc:	4a30      	ldr	r2, [pc, #192]	; (80015c0 <stm32__device___elabs+0x284>)
 80014fe:	601a      	str	r2, [r3, #0]
 8001500:	4a3b      	ldr	r2, [pc, #236]	; (80015f0 <stm32__device___elabs+0x2b4>)
 8001502:	2300      	movs	r3, #0
 8001504:	9300      	str	r3, [sp, #0]
 8001506:	4610      	mov	r0, r2
 8001508:	492e      	ldr	r1, [pc, #184]	; (80015c4 <stm32__device___elabs+0x288>)
 800150a:	2201      	movs	r2, #1
 800150c:	2300      	movs	r3, #0
 800150e:	f008 f81f 	bl	8009550 <ada__tags__register_interface_offset>
 8001512:	4b29      	ldr	r3, [pc, #164]	; (80015b8 <stm32__device___elabs+0x27c>)
 8001514:	681b      	ldr	r3, [r3, #0]
 8001516:	4a37      	ldr	r2, [pc, #220]	; (80015f4 <stm32__device___elabs+0x2b8>)
 8001518:	6053      	str	r3, [r2, #4]
 800151a:	4b36      	ldr	r3, [pc, #216]	; (80015f4 <stm32__device___elabs+0x2b8>)
 800151c:	f44f 5280 	mov.w	r2, #4096	; 0x1000
 8001520:	811a      	strh	r2, [r3, #8]
 8001522:	4b34      	ldr	r3, [pc, #208]	; (80015f4 <stm32__device___elabs+0x2b8>)
 8001524:	4a26      	ldr	r2, [pc, #152]	; (80015c0 <stm32__device___elabs+0x284>)
 8001526:	601a      	str	r2, [r3, #0]
 8001528:	4a32      	ldr	r2, [pc, #200]	; (80015f4 <stm32__device___elabs+0x2b8>)
 800152a:	2300      	movs	r3, #0
 800152c:	9300      	str	r3, [sp, #0]
 800152e:	4610      	mov	r0, r2
 8001530:	4924      	ldr	r1, [pc, #144]	; (80015c4 <stm32__device___elabs+0x288>)
 8001532:	2201      	movs	r2, #1
 8001534:	2300      	movs	r3, #0
 8001536:	f008 f80b 	bl	8009550 <ada__tags__register_interface_offset>
 800153a:	4b1f      	ldr	r3, [pc, #124]	; (80015b8 <stm32__device___elabs+0x27c>)
 800153c:	681b      	ldr	r3, [r3, #0]
 800153e:	4a2e      	ldr	r2, [pc, #184]	; (80015f8 <stm32__device___elabs+0x2bc>)
 8001540:	6053      	str	r3, [r2, #4]
 8001542:	4b2d      	ldr	r3, [pc, #180]	; (80015f8 <stm32__device___elabs+0x2bc>)
 8001544:	f44f 5200 	mov.w	r2, #8192	; 0x2000
 8001548:	811a      	strh	r2, [r3, #8]
 800154a:	4b2b      	ldr	r3, [pc, #172]	; (80015f8 <stm32__device___elabs+0x2bc>)
 800154c:	4a1c      	ldr	r2, [pc, #112]	; (80015c0 <stm32__device___elabs+0x284>)
 800154e:	601a      	str	r2, [r3, #0]
 8001550:	4a29      	ldr	r2, [pc, #164]	; (80015f8 <stm32__device___elabs+0x2bc>)
 8001552:	2300      	movs	r3, #0
 8001554:	9300      	str	r3, [sp, #0]
 8001556:	4610      	mov	r0, r2
 8001558:	491a      	ldr	r1, [pc, #104]	; (80015c4 <stm32__device___elabs+0x288>)
 800155a:	2201      	movs	r2, #1
 800155c:	2300      	movs	r3, #0
 800155e:	f007 fff7 	bl	8009550 <ada__tags__register_interface_offset>
 8001562:	4b15      	ldr	r3, [pc, #84]	; (80015b8 <stm32__device___elabs+0x27c>)
 8001564:	681b      	ldr	r3, [r3, #0]
 8001566:	4a25      	ldr	r2, [pc, #148]	; (80015fc <stm32__device___elabs+0x2c0>)
 8001568:	6053      	str	r3, [r2, #4]
 800156a:	4b24      	ldr	r3, [pc, #144]	; (80015fc <stm32__device___elabs+0x2c0>)
 800156c:	f44f 4280 	mov.w	r2, #16384	; 0x4000
 8001570:	811a      	strh	r2, [r3, #8]
 8001572:	4b22      	ldr	r3, [pc, #136]	; (80015fc <stm32__device___elabs+0x2c0>)
 8001574:	4a12      	ldr	r2, [pc, #72]	; (80015c0 <stm32__device___elabs+0x284>)
 8001576:	601a      	str	r2, [r3, #0]
 8001578:	4a20      	ldr	r2, [pc, #128]	; (80015fc <stm32__device___elabs+0x2c0>)
 800157a:	2300      	movs	r3, #0
 800157c:	9300      	str	r3, [sp, #0]
 800157e:	4610      	mov	r0, r2
 8001580:	4910      	ldr	r1, [pc, #64]	; (80015c4 <stm32__device___elabs+0x288>)
 8001582:	2201      	movs	r2, #1
 8001584:	2300      	movs	r3, #0
 8001586:	f007 ffe3 	bl	8009550 <ada__tags__register_interface_offset>
 800158a:	4b0b      	ldr	r3, [pc, #44]	; (80015b8 <stm32__device___elabs+0x27c>)
 800158c:	681b      	ldr	r3, [r3, #0]
 800158e:	4a1c      	ldr	r2, [pc, #112]	; (8001600 <stm32__device___elabs+0x2c4>)
 8001590:	6053      	str	r3, [r2, #4]
 8001592:	4b1b      	ldr	r3, [pc, #108]	; (8001600 <stm32__device___elabs+0x2c4>)
 8001594:	f44f 4200 	mov.w	r2, #32768	; 0x8000
 8001598:	811a      	strh	r2, [r3, #8]
 800159a:	4b19      	ldr	r3, [pc, #100]	; (8001600 <stm32__device___elabs+0x2c4>)
 800159c:	4a08      	ldr	r2, [pc, #32]	; (80015c0 <stm32__device___elabs+0x284>)
 800159e:	601a      	str	r2, [r3, #0]
 80015a0:	4a17      	ldr	r2, [pc, #92]	; (8001600 <stm32__device___elabs+0x2c4>)
 80015a2:	2300      	movs	r3, #0
 80015a4:	9300      	str	r3, [sp, #0]
 80015a6:	4610      	mov	r0, r2
 80015a8:	4906      	ldr	r1, [pc, #24]	; (80015c4 <stm32__device___elabs+0x288>)
 80015aa:	2201      	movs	r2, #1
 80015ac:	2300      	movs	r3, #0
 80015ae:	f007 ffcf 	bl	8009550 <ada__tags__register_interface_offset>
 80015b2:	4b14      	ldr	r3, [pc, #80]	; (8001604 <stm32__device___elabs+0x2c8>)
 80015b4:	681b      	ldr	r3, [r3, #0]
 80015b6:	e027      	b.n	8001608 <stm32__device___elabs+0x2cc>
 80015b8:	20000030 	.word	0x20000030
 80015bc:	200002f4 	.word	0x200002f4
 80015c0:	0800d5e8 	.word	0x0800d5e8
 80015c4:	0800dbb4 	.word	0x0800dbb4
 80015c8:	20000300 	.word	0x20000300
 80015cc:	2000030c 	.word	0x2000030c
 80015d0:	20000318 	.word	0x20000318
 80015d4:	20000324 	.word	0x20000324
 80015d8:	20000330 	.word	0x20000330
 80015dc:	2000033c 	.word	0x2000033c
 80015e0:	20000348 	.word	0x20000348
 80015e4:	20000354 	.word	0x20000354
 80015e8:	20000360 	.word	0x20000360
 80015ec:	2000036c 	.word	0x2000036c
 80015f0:	20000378 	.word	0x20000378
 80015f4:	20000384 	.word	0x20000384
 80015f8:	20000390 	.word	0x20000390
 80015fc:	2000039c 	.word	0x2000039c
 8001600:	200003a8 	.word	0x200003a8
 8001604:	20000034 	.word	0x20000034
 8001608:	4a9d      	ldr	r2, [pc, #628]	; (8001880 <stm32__device___elabs+0x544>)
 800160a:	6053      	str	r3, [r2, #4]
 800160c:	4b9c      	ldr	r3, [pc, #624]	; (8001880 <stm32__device___elabs+0x544>)
 800160e:	2201      	movs	r2, #1
 8001610:	811a      	strh	r2, [r3, #8]
 8001612:	4b9b      	ldr	r3, [pc, #620]	; (8001880 <stm32__device___elabs+0x544>)
 8001614:	4a9b      	ldr	r2, [pc, #620]	; (8001884 <stm32__device___elabs+0x548>)
 8001616:	601a      	str	r2, [r3, #0]
 8001618:	4a99      	ldr	r2, [pc, #612]	; (8001880 <stm32__device___elabs+0x544>)
 800161a:	2300      	movs	r3, #0
 800161c:	9300      	str	r3, [sp, #0]
 800161e:	4610      	mov	r0, r2
 8001620:	4999      	ldr	r1, [pc, #612]	; (8001888 <stm32__device___elabs+0x54c>)
 8001622:	2201      	movs	r2, #1
 8001624:	2300      	movs	r3, #0
 8001626:	f007 ff93 	bl	8009550 <ada__tags__register_interface_offset>
 800162a:	4b98      	ldr	r3, [pc, #608]	; (800188c <stm32__device___elabs+0x550>)
 800162c:	681b      	ldr	r3, [r3, #0]
 800162e:	4a98      	ldr	r2, [pc, #608]	; (8001890 <stm32__device___elabs+0x554>)
 8001630:	6053      	str	r3, [r2, #4]
 8001632:	4b97      	ldr	r3, [pc, #604]	; (8001890 <stm32__device___elabs+0x554>)
 8001634:	2202      	movs	r2, #2
 8001636:	811a      	strh	r2, [r3, #8]
 8001638:	4b95      	ldr	r3, [pc, #596]	; (8001890 <stm32__device___elabs+0x554>)
 800163a:	4a92      	ldr	r2, [pc, #584]	; (8001884 <stm32__device___elabs+0x548>)
 800163c:	601a      	str	r2, [r3, #0]
 800163e:	4a94      	ldr	r2, [pc, #592]	; (8001890 <stm32__device___elabs+0x554>)
 8001640:	2300      	movs	r3, #0
 8001642:	9300      	str	r3, [sp, #0]
 8001644:	4610      	mov	r0, r2
 8001646:	4990      	ldr	r1, [pc, #576]	; (8001888 <stm32__device___elabs+0x54c>)
 8001648:	2201      	movs	r2, #1
 800164a:	2300      	movs	r3, #0
 800164c:	f007 ff80 	bl	8009550 <ada__tags__register_interface_offset>
 8001650:	4b8e      	ldr	r3, [pc, #568]	; (800188c <stm32__device___elabs+0x550>)
 8001652:	681b      	ldr	r3, [r3, #0]
 8001654:	4a8f      	ldr	r2, [pc, #572]	; (8001894 <stm32__device___elabs+0x558>)
 8001656:	6053      	str	r3, [r2, #4]
 8001658:	4b8e      	ldr	r3, [pc, #568]	; (8001894 <stm32__device___elabs+0x558>)
 800165a:	2204      	movs	r2, #4
 800165c:	811a      	strh	r2, [r3, #8]
 800165e:	4b8d      	ldr	r3, [pc, #564]	; (8001894 <stm32__device___elabs+0x558>)
 8001660:	4a88      	ldr	r2, [pc, #544]	; (8001884 <stm32__device___elabs+0x548>)
 8001662:	601a      	str	r2, [r3, #0]
 8001664:	4a8b      	ldr	r2, [pc, #556]	; (8001894 <stm32__device___elabs+0x558>)
 8001666:	2300      	movs	r3, #0
 8001668:	9300      	str	r3, [sp, #0]
 800166a:	4610      	mov	r0, r2
 800166c:	4986      	ldr	r1, [pc, #536]	; (8001888 <stm32__device___elabs+0x54c>)
 800166e:	2201      	movs	r2, #1
 8001670:	2300      	movs	r3, #0
 8001672:	f007 ff6d 	bl	8009550 <ada__tags__register_interface_offset>
 8001676:	4b85      	ldr	r3, [pc, #532]	; (800188c <stm32__device___elabs+0x550>)
 8001678:	681b      	ldr	r3, [r3, #0]
 800167a:	4a87      	ldr	r2, [pc, #540]	; (8001898 <stm32__device___elabs+0x55c>)
 800167c:	6053      	str	r3, [r2, #4]
 800167e:	4b86      	ldr	r3, [pc, #536]	; (8001898 <stm32__device___elabs+0x55c>)
 8001680:	2208      	movs	r2, #8
 8001682:	811a      	strh	r2, [r3, #8]
 8001684:	4b84      	ldr	r3, [pc, #528]	; (8001898 <stm32__device___elabs+0x55c>)
 8001686:	4a7f      	ldr	r2, [pc, #508]	; (8001884 <stm32__device___elabs+0x548>)
 8001688:	601a      	str	r2, [r3, #0]
 800168a:	4a83      	ldr	r2, [pc, #524]	; (8001898 <stm32__device___elabs+0x55c>)
 800168c:	2300      	movs	r3, #0
 800168e:	9300      	str	r3, [sp, #0]
 8001690:	4610      	mov	r0, r2
 8001692:	497d      	ldr	r1, [pc, #500]	; (8001888 <stm32__device___elabs+0x54c>)
 8001694:	2201      	movs	r2, #1
 8001696:	2300      	movs	r3, #0
 8001698:	f007 ff5a 	bl	8009550 <ada__tags__register_interface_offset>
 800169c:	4b7b      	ldr	r3, [pc, #492]	; (800188c <stm32__device___elabs+0x550>)
 800169e:	681b      	ldr	r3, [r3, #0]
 80016a0:	4a7e      	ldr	r2, [pc, #504]	; (800189c <stm32__device___elabs+0x560>)
 80016a2:	6053      	str	r3, [r2, #4]
 80016a4:	4b7d      	ldr	r3, [pc, #500]	; (800189c <stm32__device___elabs+0x560>)
 80016a6:	2210      	movs	r2, #16
 80016a8:	811a      	strh	r2, [r3, #8]
 80016aa:	4b7c      	ldr	r3, [pc, #496]	; (800189c <stm32__device___elabs+0x560>)
 80016ac:	4a75      	ldr	r2, [pc, #468]	; (8001884 <stm32__device___elabs+0x548>)
 80016ae:	601a      	str	r2, [r3, #0]
 80016b0:	4a7a      	ldr	r2, [pc, #488]	; (800189c <stm32__device___elabs+0x560>)
 80016b2:	2300      	movs	r3, #0
 80016b4:	9300      	str	r3, [sp, #0]
 80016b6:	4610      	mov	r0, r2
 80016b8:	4973      	ldr	r1, [pc, #460]	; (8001888 <stm32__device___elabs+0x54c>)
 80016ba:	2201      	movs	r2, #1
 80016bc:	2300      	movs	r3, #0
 80016be:	f007 ff47 	bl	8009550 <ada__tags__register_interface_offset>
 80016c2:	4b72      	ldr	r3, [pc, #456]	; (800188c <stm32__device___elabs+0x550>)
 80016c4:	681b      	ldr	r3, [r3, #0]
 80016c6:	4a76      	ldr	r2, [pc, #472]	; (80018a0 <stm32__device___elabs+0x564>)
 80016c8:	6053      	str	r3, [r2, #4]
 80016ca:	4b75      	ldr	r3, [pc, #468]	; (80018a0 <stm32__device___elabs+0x564>)
 80016cc:	2220      	movs	r2, #32
 80016ce:	811a      	strh	r2, [r3, #8]
 80016d0:	4b73      	ldr	r3, [pc, #460]	; (80018a0 <stm32__device___elabs+0x564>)
 80016d2:	4a6c      	ldr	r2, [pc, #432]	; (8001884 <stm32__device___elabs+0x548>)
 80016d4:	601a      	str	r2, [r3, #0]
 80016d6:	4a72      	ldr	r2, [pc, #456]	; (80018a0 <stm32__device___elabs+0x564>)
 80016d8:	2300      	movs	r3, #0
 80016da:	9300      	str	r3, [sp, #0]
 80016dc:	4610      	mov	r0, r2
 80016de:	496a      	ldr	r1, [pc, #424]	; (8001888 <stm32__device___elabs+0x54c>)
 80016e0:	2201      	movs	r2, #1
 80016e2:	2300      	movs	r3, #0
 80016e4:	f007 ff34 	bl	8009550 <ada__tags__register_interface_offset>
 80016e8:	4b68      	ldr	r3, [pc, #416]	; (800188c <stm32__device___elabs+0x550>)
 80016ea:	681b      	ldr	r3, [r3, #0]
 80016ec:	4a6d      	ldr	r2, [pc, #436]	; (80018a4 <stm32__device___elabs+0x568>)
 80016ee:	6053      	str	r3, [r2, #4]
 80016f0:	4b6c      	ldr	r3, [pc, #432]	; (80018a4 <stm32__device___elabs+0x568>)
 80016f2:	2240      	movs	r2, #64	; 0x40
 80016f4:	811a      	strh	r2, [r3, #8]
 80016f6:	4b6b      	ldr	r3, [pc, #428]	; (80018a4 <stm32__device___elabs+0x568>)
 80016f8:	4a62      	ldr	r2, [pc, #392]	; (8001884 <stm32__device___elabs+0x548>)
 80016fa:	601a      	str	r2, [r3, #0]
 80016fc:	4a69      	ldr	r2, [pc, #420]	; (80018a4 <stm32__device___elabs+0x568>)
 80016fe:	2300      	movs	r3, #0
 8001700:	9300      	str	r3, [sp, #0]
 8001702:	4610      	mov	r0, r2
 8001704:	4960      	ldr	r1, [pc, #384]	; (8001888 <stm32__device___elabs+0x54c>)
 8001706:	2201      	movs	r2, #1
 8001708:	2300      	movs	r3, #0
 800170a:	f007 ff21 	bl	8009550 <ada__tags__register_interface_offset>
 800170e:	4b5f      	ldr	r3, [pc, #380]	; (800188c <stm32__device___elabs+0x550>)
 8001710:	681b      	ldr	r3, [r3, #0]
 8001712:	4a65      	ldr	r2, [pc, #404]	; (80018a8 <stm32__device___elabs+0x56c>)
 8001714:	6053      	str	r3, [r2, #4]
 8001716:	4b64      	ldr	r3, [pc, #400]	; (80018a8 <stm32__device___elabs+0x56c>)
 8001718:	2280      	movs	r2, #128	; 0x80
 800171a:	811a      	strh	r2, [r3, #8]
 800171c:	4b62      	ldr	r3, [pc, #392]	; (80018a8 <stm32__device___elabs+0x56c>)
 800171e:	4a59      	ldr	r2, [pc, #356]	; (8001884 <stm32__device___elabs+0x548>)
 8001720:	601a      	str	r2, [r3, #0]
 8001722:	4a61      	ldr	r2, [pc, #388]	; (80018a8 <stm32__device___elabs+0x56c>)
 8001724:	2300      	movs	r3, #0
 8001726:	9300      	str	r3, [sp, #0]
 8001728:	4610      	mov	r0, r2
 800172a:	4957      	ldr	r1, [pc, #348]	; (8001888 <stm32__device___elabs+0x54c>)
 800172c:	2201      	movs	r2, #1
 800172e:	2300      	movs	r3, #0
 8001730:	f007 ff0e 	bl	8009550 <ada__tags__register_interface_offset>
 8001734:	4b55      	ldr	r3, [pc, #340]	; (800188c <stm32__device___elabs+0x550>)
 8001736:	681b      	ldr	r3, [r3, #0]
 8001738:	4a5c      	ldr	r2, [pc, #368]	; (80018ac <stm32__device___elabs+0x570>)
 800173a:	6053      	str	r3, [r2, #4]
 800173c:	4b5b      	ldr	r3, [pc, #364]	; (80018ac <stm32__device___elabs+0x570>)
 800173e:	f44f 7280 	mov.w	r2, #256	; 0x100
 8001742:	811a      	strh	r2, [r3, #8]
 8001744:	4b59      	ldr	r3, [pc, #356]	; (80018ac <stm32__device___elabs+0x570>)
 8001746:	4a4f      	ldr	r2, [pc, #316]	; (8001884 <stm32__device___elabs+0x548>)
 8001748:	601a      	str	r2, [r3, #0]
 800174a:	4a58      	ldr	r2, [pc, #352]	; (80018ac <stm32__device___elabs+0x570>)
 800174c:	2300      	movs	r3, #0
 800174e:	9300      	str	r3, [sp, #0]
 8001750:	4610      	mov	r0, r2
 8001752:	494d      	ldr	r1, [pc, #308]	; (8001888 <stm32__device___elabs+0x54c>)
 8001754:	2201      	movs	r2, #1
 8001756:	2300      	movs	r3, #0
 8001758:	f007 fefa 	bl	8009550 <ada__tags__register_interface_offset>
 800175c:	4b4b      	ldr	r3, [pc, #300]	; (800188c <stm32__device___elabs+0x550>)
 800175e:	681b      	ldr	r3, [r3, #0]
 8001760:	4a53      	ldr	r2, [pc, #332]	; (80018b0 <stm32__device___elabs+0x574>)
 8001762:	6053      	str	r3, [r2, #4]
 8001764:	4b52      	ldr	r3, [pc, #328]	; (80018b0 <stm32__device___elabs+0x574>)
 8001766:	f44f 7200 	mov.w	r2, #512	; 0x200
 800176a:	811a      	strh	r2, [r3, #8]
 800176c:	4b50      	ldr	r3, [pc, #320]	; (80018b0 <stm32__device___elabs+0x574>)
 800176e:	4a45      	ldr	r2, [pc, #276]	; (8001884 <stm32__device___elabs+0x548>)
 8001770:	601a      	str	r2, [r3, #0]
 8001772:	4a4f      	ldr	r2, [pc, #316]	; (80018b0 <stm32__device___elabs+0x574>)
 8001774:	2300      	movs	r3, #0
 8001776:	9300      	str	r3, [sp, #0]
 8001778:	4610      	mov	r0, r2
 800177a:	4943      	ldr	r1, [pc, #268]	; (8001888 <stm32__device___elabs+0x54c>)
 800177c:	2201      	movs	r2, #1
 800177e:	2300      	movs	r3, #0
 8001780:	f007 fee6 	bl	8009550 <ada__tags__register_interface_offset>
 8001784:	4b41      	ldr	r3, [pc, #260]	; (800188c <stm32__device___elabs+0x550>)
 8001786:	681b      	ldr	r3, [r3, #0]
 8001788:	4a4a      	ldr	r2, [pc, #296]	; (80018b4 <stm32__device___elabs+0x578>)
 800178a:	6053      	str	r3, [r2, #4]
 800178c:	4b49      	ldr	r3, [pc, #292]	; (80018b4 <stm32__device___elabs+0x578>)
 800178e:	f44f 6280 	mov.w	r2, #1024	; 0x400
 8001792:	811a      	strh	r2, [r3, #8]
 8001794:	4b47      	ldr	r3, [pc, #284]	; (80018b4 <stm32__device___elabs+0x578>)
 8001796:	4a3b      	ldr	r2, [pc, #236]	; (8001884 <stm32__device___elabs+0x548>)
 8001798:	601a      	str	r2, [r3, #0]
 800179a:	4a46      	ldr	r2, [pc, #280]	; (80018b4 <stm32__device___elabs+0x578>)
 800179c:	2300      	movs	r3, #0
 800179e:	9300      	str	r3, [sp, #0]
 80017a0:	4610      	mov	r0, r2
 80017a2:	4939      	ldr	r1, [pc, #228]	; (8001888 <stm32__device___elabs+0x54c>)
 80017a4:	2201      	movs	r2, #1
 80017a6:	2300      	movs	r3, #0
 80017a8:	f007 fed2 	bl	8009550 <ada__tags__register_interface_offset>
 80017ac:	4b37      	ldr	r3, [pc, #220]	; (800188c <stm32__device___elabs+0x550>)
 80017ae:	681b      	ldr	r3, [r3, #0]
 80017b0:	4a41      	ldr	r2, [pc, #260]	; (80018b8 <stm32__device___elabs+0x57c>)
 80017b2:	6053      	str	r3, [r2, #4]
 80017b4:	4b40      	ldr	r3, [pc, #256]	; (80018b8 <stm32__device___elabs+0x57c>)
 80017b6:	f44f 6200 	mov.w	r2, #2048	; 0x800
 80017ba:	811a      	strh	r2, [r3, #8]
 80017bc:	4b3e      	ldr	r3, [pc, #248]	; (80018b8 <stm32__device___elabs+0x57c>)
 80017be:	4a31      	ldr	r2, [pc, #196]	; (8001884 <stm32__device___elabs+0x548>)
 80017c0:	601a      	str	r2, [r3, #0]
 80017c2:	4a3d      	ldr	r2, [pc, #244]	; (80018b8 <stm32__device___elabs+0x57c>)
 80017c4:	2300      	movs	r3, #0
 80017c6:	9300      	str	r3, [sp, #0]
 80017c8:	4610      	mov	r0, r2
 80017ca:	492f      	ldr	r1, [pc, #188]	; (8001888 <stm32__device___elabs+0x54c>)
 80017cc:	2201      	movs	r2, #1
 80017ce:	2300      	movs	r3, #0
 80017d0:	f007 febe 	bl	8009550 <ada__tags__register_interface_offset>
 80017d4:	4b2d      	ldr	r3, [pc, #180]	; (800188c <stm32__device___elabs+0x550>)
 80017d6:	681b      	ldr	r3, [r3, #0]
 80017d8:	4a38      	ldr	r2, [pc, #224]	; (80018bc <stm32__device___elabs+0x580>)
 80017da:	6053      	str	r3, [r2, #4]
 80017dc:	4b37      	ldr	r3, [pc, #220]	; (80018bc <stm32__device___elabs+0x580>)
 80017de:	f44f 5280 	mov.w	r2, #4096	; 0x1000
 80017e2:	811a      	strh	r2, [r3, #8]
 80017e4:	4b35      	ldr	r3, [pc, #212]	; (80018bc <stm32__device___elabs+0x580>)
 80017e6:	4a27      	ldr	r2, [pc, #156]	; (8001884 <stm32__device___elabs+0x548>)
 80017e8:	601a      	str	r2, [r3, #0]
 80017ea:	4a34      	ldr	r2, [pc, #208]	; (80018bc <stm32__device___elabs+0x580>)
 80017ec:	2300      	movs	r3, #0
 80017ee:	9300      	str	r3, [sp, #0]
 80017f0:	4610      	mov	r0, r2
 80017f2:	4925      	ldr	r1, [pc, #148]	; (8001888 <stm32__device___elabs+0x54c>)
 80017f4:	2201      	movs	r2, #1
 80017f6:	2300      	movs	r3, #0
 80017f8:	f007 feaa 	bl	8009550 <ada__tags__register_interface_offset>
 80017fc:	4b23      	ldr	r3, [pc, #140]	; (800188c <stm32__device___elabs+0x550>)
 80017fe:	681b      	ldr	r3, [r3, #0]
 8001800:	4a2f      	ldr	r2, [pc, #188]	; (80018c0 <stm32__device___elabs+0x584>)
 8001802:	6053      	str	r3, [r2, #4]
 8001804:	4b2e      	ldr	r3, [pc, #184]	; (80018c0 <stm32__device___elabs+0x584>)
 8001806:	f44f 5200 	mov.w	r2, #8192	; 0x2000
 800180a:	811a      	strh	r2, [r3, #8]
 800180c:	4b2c      	ldr	r3, [pc, #176]	; (80018c0 <stm32__device___elabs+0x584>)
 800180e:	4a1d      	ldr	r2, [pc, #116]	; (8001884 <stm32__device___elabs+0x548>)
 8001810:	601a      	str	r2, [r3, #0]
 8001812:	4a2b      	ldr	r2, [pc, #172]	; (80018c0 <stm32__device___elabs+0x584>)
 8001814:	2300      	movs	r3, #0
 8001816:	9300      	str	r3, [sp, #0]
 8001818:	4610      	mov	r0, r2
 800181a:	491b      	ldr	r1, [pc, #108]	; (8001888 <stm32__device___elabs+0x54c>)
 800181c:	2201      	movs	r2, #1
 800181e:	2300      	movs	r3, #0
 8001820:	f007 fe96 	bl	8009550 <ada__tags__register_interface_offset>
 8001824:	4b19      	ldr	r3, [pc, #100]	; (800188c <stm32__device___elabs+0x550>)
 8001826:	681b      	ldr	r3, [r3, #0]
 8001828:	4a26      	ldr	r2, [pc, #152]	; (80018c4 <stm32__device___elabs+0x588>)
 800182a:	6053      	str	r3, [r2, #4]
 800182c:	4b25      	ldr	r3, [pc, #148]	; (80018c4 <stm32__device___elabs+0x588>)
 800182e:	f44f 4280 	mov.w	r2, #16384	; 0x4000
 8001832:	811a      	strh	r2, [r3, #8]
 8001834:	4b23      	ldr	r3, [pc, #140]	; (80018c4 <stm32__device___elabs+0x588>)
 8001836:	4a13      	ldr	r2, [pc, #76]	; (8001884 <stm32__device___elabs+0x548>)
 8001838:	601a      	str	r2, [r3, #0]
 800183a:	4a22      	ldr	r2, [pc, #136]	; (80018c4 <stm32__device___elabs+0x588>)
 800183c:	2300      	movs	r3, #0
 800183e:	9300      	str	r3, [sp, #0]
 8001840:	4610      	mov	r0, r2
 8001842:	4911      	ldr	r1, [pc, #68]	; (8001888 <stm32__device___elabs+0x54c>)
 8001844:	2201      	movs	r2, #1
 8001846:	2300      	movs	r3, #0
 8001848:	f007 fe82 	bl	8009550 <ada__tags__register_interface_offset>
 800184c:	4b0f      	ldr	r3, [pc, #60]	; (800188c <stm32__device___elabs+0x550>)
 800184e:	681b      	ldr	r3, [r3, #0]
 8001850:	4a1d      	ldr	r2, [pc, #116]	; (80018c8 <stm32__device___elabs+0x58c>)
 8001852:	6053      	str	r3, [r2, #4]
 8001854:	4b1c      	ldr	r3, [pc, #112]	; (80018c8 <stm32__device___elabs+0x58c>)
 8001856:	f44f 4200 	mov.w	r2, #32768	; 0x8000
 800185a:	811a      	strh	r2, [r3, #8]
 800185c:	4b1a      	ldr	r3, [pc, #104]	; (80018c8 <stm32__device___elabs+0x58c>)
 800185e:	4a09      	ldr	r2, [pc, #36]	; (8001884 <stm32__device___elabs+0x548>)
 8001860:	601a      	str	r2, [r3, #0]
 8001862:	4a19      	ldr	r2, [pc, #100]	; (80018c8 <stm32__device___elabs+0x58c>)
 8001864:	2300      	movs	r3, #0
 8001866:	9300      	str	r3, [sp, #0]
 8001868:	4610      	mov	r0, r2
 800186a:	4907      	ldr	r1, [pc, #28]	; (8001888 <stm32__device___elabs+0x54c>)
 800186c:	2201      	movs	r2, #1
 800186e:	2300      	movs	r3, #0
 8001870:	f007 fe6e 	bl	8009550 <ada__tags__register_interface_offset>
 8001874:	4b15      	ldr	r3, [pc, #84]	; (80018cc <stm32__device___elabs+0x590>)
 8001876:	681b      	ldr	r3, [r3, #0]
 8001878:	4a15      	ldr	r2, [pc, #84]	; (80018d0 <stm32__device___elabs+0x594>)
 800187a:	6053      	str	r3, [r2, #4]
 800187c:	e02a      	b.n	80018d4 <stm32__device___elabs+0x598>
 800187e:	bf00      	nop
 8001880:	200003b4 	.word	0x200003b4
 8001884:	0800d5e8 	.word	0x0800d5e8
 8001888:	0800dbb4 	.word	0x0800dbb4
 800188c:	20000034 	.word	0x20000034
 8001890:	200003c0 	.word	0x200003c0
 8001894:	200003cc 	.word	0x200003cc
 8001898:	200003d8 	.word	0x200003d8
 800189c:	200003e4 	.word	0x200003e4
 80018a0:	200003f0 	.word	0x200003f0
 80018a4:	200003fc 	.word	0x200003fc
 80018a8:	20000408 	.word	0x20000408
 80018ac:	20000414 	.word	0x20000414
 80018b0:	20000420 	.word	0x20000420
 80018b4:	2000042c 	.word	0x2000042c
 80018b8:	20000438 	.word	0x20000438
 80018bc:	20000444 	.word	0x20000444
 80018c0:	20000450 	.word	0x20000450
 80018c4:	2000045c 	.word	0x2000045c
 80018c8:	20000468 	.word	0x20000468
 80018cc:	20000038 	.word	0x20000038
 80018d0:	20000474 	.word	0x20000474
 80018d4:	4b9d      	ldr	r3, [pc, #628]	; (8001b4c <stm32__device___elabs+0x810>)
 80018d6:	2201      	movs	r2, #1
 80018d8:	811a      	strh	r2, [r3, #8]
 80018da:	4b9c      	ldr	r3, [pc, #624]	; (8001b4c <stm32__device___elabs+0x810>)
 80018dc:	4a9c      	ldr	r2, [pc, #624]	; (8001b50 <stm32__device___elabs+0x814>)
 80018de:	601a      	str	r2, [r3, #0]
 80018e0:	4a9a      	ldr	r2, [pc, #616]	; (8001b4c <stm32__device___elabs+0x810>)
 80018e2:	2300      	movs	r3, #0
 80018e4:	9300      	str	r3, [sp, #0]
 80018e6:	4610      	mov	r0, r2
 80018e8:	499a      	ldr	r1, [pc, #616]	; (8001b54 <stm32__device___elabs+0x818>)
 80018ea:	2201      	movs	r2, #1
 80018ec:	2300      	movs	r3, #0
 80018ee:	f007 fe2f 	bl	8009550 <ada__tags__register_interface_offset>
 80018f2:	4b99      	ldr	r3, [pc, #612]	; (8001b58 <stm32__device___elabs+0x81c>)
 80018f4:	681b      	ldr	r3, [r3, #0]
 80018f6:	4a99      	ldr	r2, [pc, #612]	; (8001b5c <stm32__device___elabs+0x820>)
 80018f8:	6053      	str	r3, [r2, #4]
 80018fa:	4b98      	ldr	r3, [pc, #608]	; (8001b5c <stm32__device___elabs+0x820>)
 80018fc:	2202      	movs	r2, #2
 80018fe:	811a      	strh	r2, [r3, #8]
 8001900:	4b96      	ldr	r3, [pc, #600]	; (8001b5c <stm32__device___elabs+0x820>)
 8001902:	4a93      	ldr	r2, [pc, #588]	; (8001b50 <stm32__device___elabs+0x814>)
 8001904:	601a      	str	r2, [r3, #0]
 8001906:	4a95      	ldr	r2, [pc, #596]	; (8001b5c <stm32__device___elabs+0x820>)
 8001908:	2300      	movs	r3, #0
 800190a:	9300      	str	r3, [sp, #0]
 800190c:	4610      	mov	r0, r2
 800190e:	4991      	ldr	r1, [pc, #580]	; (8001b54 <stm32__device___elabs+0x818>)
 8001910:	2201      	movs	r2, #1
 8001912:	2300      	movs	r3, #0
 8001914:	f007 fe1c 	bl	8009550 <ada__tags__register_interface_offset>
 8001918:	4b8f      	ldr	r3, [pc, #572]	; (8001b58 <stm32__device___elabs+0x81c>)
 800191a:	681b      	ldr	r3, [r3, #0]
 800191c:	4a90      	ldr	r2, [pc, #576]	; (8001b60 <stm32__device___elabs+0x824>)
 800191e:	6053      	str	r3, [r2, #4]
 8001920:	4b8f      	ldr	r3, [pc, #572]	; (8001b60 <stm32__device___elabs+0x824>)
 8001922:	2204      	movs	r2, #4
 8001924:	811a      	strh	r2, [r3, #8]
 8001926:	4b8e      	ldr	r3, [pc, #568]	; (8001b60 <stm32__device___elabs+0x824>)
 8001928:	4a89      	ldr	r2, [pc, #548]	; (8001b50 <stm32__device___elabs+0x814>)
 800192a:	601a      	str	r2, [r3, #0]
 800192c:	4a8c      	ldr	r2, [pc, #560]	; (8001b60 <stm32__device___elabs+0x824>)
 800192e:	2300      	movs	r3, #0
 8001930:	9300      	str	r3, [sp, #0]
 8001932:	4610      	mov	r0, r2
 8001934:	4987      	ldr	r1, [pc, #540]	; (8001b54 <stm32__device___elabs+0x818>)
 8001936:	2201      	movs	r2, #1
 8001938:	2300      	movs	r3, #0
 800193a:	f007 fe09 	bl	8009550 <ada__tags__register_interface_offset>
 800193e:	4b86      	ldr	r3, [pc, #536]	; (8001b58 <stm32__device___elabs+0x81c>)
 8001940:	681b      	ldr	r3, [r3, #0]
 8001942:	4a88      	ldr	r2, [pc, #544]	; (8001b64 <stm32__device___elabs+0x828>)
 8001944:	6053      	str	r3, [r2, #4]
 8001946:	4b87      	ldr	r3, [pc, #540]	; (8001b64 <stm32__device___elabs+0x828>)
 8001948:	2208      	movs	r2, #8
 800194a:	811a      	strh	r2, [r3, #8]
 800194c:	4b85      	ldr	r3, [pc, #532]	; (8001b64 <stm32__device___elabs+0x828>)
 800194e:	4a80      	ldr	r2, [pc, #512]	; (8001b50 <stm32__device___elabs+0x814>)
 8001950:	601a      	str	r2, [r3, #0]
 8001952:	4a84      	ldr	r2, [pc, #528]	; (8001b64 <stm32__device___elabs+0x828>)
 8001954:	2300      	movs	r3, #0
 8001956:	9300      	str	r3, [sp, #0]
 8001958:	4610      	mov	r0, r2
 800195a:	497e      	ldr	r1, [pc, #504]	; (8001b54 <stm32__device___elabs+0x818>)
 800195c:	2201      	movs	r2, #1
 800195e:	2300      	movs	r3, #0
 8001960:	f007 fdf6 	bl	8009550 <ada__tags__register_interface_offset>
 8001964:	4b7c      	ldr	r3, [pc, #496]	; (8001b58 <stm32__device___elabs+0x81c>)
 8001966:	681b      	ldr	r3, [r3, #0]
 8001968:	4a7f      	ldr	r2, [pc, #508]	; (8001b68 <stm32__device___elabs+0x82c>)
 800196a:	6053      	str	r3, [r2, #4]
 800196c:	4b7e      	ldr	r3, [pc, #504]	; (8001b68 <stm32__device___elabs+0x82c>)
 800196e:	2210      	movs	r2, #16
 8001970:	811a      	strh	r2, [r3, #8]
 8001972:	4b7d      	ldr	r3, [pc, #500]	; (8001b68 <stm32__device___elabs+0x82c>)
 8001974:	4a76      	ldr	r2, [pc, #472]	; (8001b50 <stm32__device___elabs+0x814>)
 8001976:	601a      	str	r2, [r3, #0]
 8001978:	4a7b      	ldr	r2, [pc, #492]	; (8001b68 <stm32__device___elabs+0x82c>)
 800197a:	2300      	movs	r3, #0
 800197c:	9300      	str	r3, [sp, #0]
 800197e:	4610      	mov	r0, r2
 8001980:	4974      	ldr	r1, [pc, #464]	; (8001b54 <stm32__device___elabs+0x818>)
 8001982:	2201      	movs	r2, #1
 8001984:	2300      	movs	r3, #0
 8001986:	f007 fde3 	bl	8009550 <ada__tags__register_interface_offset>
 800198a:	4b73      	ldr	r3, [pc, #460]	; (8001b58 <stm32__device___elabs+0x81c>)
 800198c:	681b      	ldr	r3, [r3, #0]
 800198e:	4a77      	ldr	r2, [pc, #476]	; (8001b6c <stm32__device___elabs+0x830>)
 8001990:	6053      	str	r3, [r2, #4]
 8001992:	4b76      	ldr	r3, [pc, #472]	; (8001b6c <stm32__device___elabs+0x830>)
 8001994:	2220      	movs	r2, #32
 8001996:	811a      	strh	r2, [r3, #8]
 8001998:	4b74      	ldr	r3, [pc, #464]	; (8001b6c <stm32__device___elabs+0x830>)
 800199a:	4a6d      	ldr	r2, [pc, #436]	; (8001b50 <stm32__device___elabs+0x814>)
 800199c:	601a      	str	r2, [r3, #0]
 800199e:	4a73      	ldr	r2, [pc, #460]	; (8001b6c <stm32__device___elabs+0x830>)
 80019a0:	2300      	movs	r3, #0
 80019a2:	9300      	str	r3, [sp, #0]
 80019a4:	4610      	mov	r0, r2
 80019a6:	496b      	ldr	r1, [pc, #428]	; (8001b54 <stm32__device___elabs+0x818>)
 80019a8:	2201      	movs	r2, #1
 80019aa:	2300      	movs	r3, #0
 80019ac:	f007 fdd0 	bl	8009550 <ada__tags__register_interface_offset>
 80019b0:	4b69      	ldr	r3, [pc, #420]	; (8001b58 <stm32__device___elabs+0x81c>)
 80019b2:	681b      	ldr	r3, [r3, #0]
 80019b4:	4a6e      	ldr	r2, [pc, #440]	; (8001b70 <stm32__device___elabs+0x834>)
 80019b6:	6053      	str	r3, [r2, #4]
 80019b8:	4b6d      	ldr	r3, [pc, #436]	; (8001b70 <stm32__device___elabs+0x834>)
 80019ba:	2240      	movs	r2, #64	; 0x40
 80019bc:	811a      	strh	r2, [r3, #8]
 80019be:	4b6c      	ldr	r3, [pc, #432]	; (8001b70 <stm32__device___elabs+0x834>)
 80019c0:	4a63      	ldr	r2, [pc, #396]	; (8001b50 <stm32__device___elabs+0x814>)
 80019c2:	601a      	str	r2, [r3, #0]
 80019c4:	4a6a      	ldr	r2, [pc, #424]	; (8001b70 <stm32__device___elabs+0x834>)
 80019c6:	2300      	movs	r3, #0
 80019c8:	9300      	str	r3, [sp, #0]
 80019ca:	4610      	mov	r0, r2
 80019cc:	4961      	ldr	r1, [pc, #388]	; (8001b54 <stm32__device___elabs+0x818>)
 80019ce:	2201      	movs	r2, #1
 80019d0:	2300      	movs	r3, #0
 80019d2:	f007 fdbd 	bl	8009550 <ada__tags__register_interface_offset>
 80019d6:	4b60      	ldr	r3, [pc, #384]	; (8001b58 <stm32__device___elabs+0x81c>)
 80019d8:	681b      	ldr	r3, [r3, #0]
 80019da:	4a66      	ldr	r2, [pc, #408]	; (8001b74 <stm32__device___elabs+0x838>)
 80019dc:	6053      	str	r3, [r2, #4]
 80019de:	4b65      	ldr	r3, [pc, #404]	; (8001b74 <stm32__device___elabs+0x838>)
 80019e0:	2280      	movs	r2, #128	; 0x80
 80019e2:	811a      	strh	r2, [r3, #8]
 80019e4:	4b63      	ldr	r3, [pc, #396]	; (8001b74 <stm32__device___elabs+0x838>)
 80019e6:	4a5a      	ldr	r2, [pc, #360]	; (8001b50 <stm32__device___elabs+0x814>)
 80019e8:	601a      	str	r2, [r3, #0]
 80019ea:	4a62      	ldr	r2, [pc, #392]	; (8001b74 <stm32__device___elabs+0x838>)
 80019ec:	2300      	movs	r3, #0
 80019ee:	9300      	str	r3, [sp, #0]
 80019f0:	4610      	mov	r0, r2
 80019f2:	4958      	ldr	r1, [pc, #352]	; (8001b54 <stm32__device___elabs+0x818>)
 80019f4:	2201      	movs	r2, #1
 80019f6:	2300      	movs	r3, #0
 80019f8:	f007 fdaa 	bl	8009550 <ada__tags__register_interface_offset>
 80019fc:	4b56      	ldr	r3, [pc, #344]	; (8001b58 <stm32__device___elabs+0x81c>)
 80019fe:	681b      	ldr	r3, [r3, #0]
 8001a00:	4a5d      	ldr	r2, [pc, #372]	; (8001b78 <stm32__device___elabs+0x83c>)
 8001a02:	6053      	str	r3, [r2, #4]
 8001a04:	4b5c      	ldr	r3, [pc, #368]	; (8001b78 <stm32__device___elabs+0x83c>)
 8001a06:	f44f 7280 	mov.w	r2, #256	; 0x100
 8001a0a:	811a      	strh	r2, [r3, #8]
 8001a0c:	4b5a      	ldr	r3, [pc, #360]	; (8001b78 <stm32__device___elabs+0x83c>)
 8001a0e:	4a50      	ldr	r2, [pc, #320]	; (8001b50 <stm32__device___elabs+0x814>)
 8001a10:	601a      	str	r2, [r3, #0]
 8001a12:	4a59      	ldr	r2, [pc, #356]	; (8001b78 <stm32__device___elabs+0x83c>)
 8001a14:	2300      	movs	r3, #0
 8001a16:	9300      	str	r3, [sp, #0]
 8001a18:	4610      	mov	r0, r2
 8001a1a:	494e      	ldr	r1, [pc, #312]	; (8001b54 <stm32__device___elabs+0x818>)
 8001a1c:	2201      	movs	r2, #1
 8001a1e:	2300      	movs	r3, #0
 8001a20:	f007 fd96 	bl	8009550 <ada__tags__register_interface_offset>
 8001a24:	4b4c      	ldr	r3, [pc, #304]	; (8001b58 <stm32__device___elabs+0x81c>)
 8001a26:	681b      	ldr	r3, [r3, #0]
 8001a28:	4a54      	ldr	r2, [pc, #336]	; (8001b7c <stm32__device___elabs+0x840>)
 8001a2a:	6053      	str	r3, [r2, #4]
 8001a2c:	4b53      	ldr	r3, [pc, #332]	; (8001b7c <stm32__device___elabs+0x840>)
 8001a2e:	f44f 7200 	mov.w	r2, #512	; 0x200
 8001a32:	811a      	strh	r2, [r3, #8]
 8001a34:	4b51      	ldr	r3, [pc, #324]	; (8001b7c <stm32__device___elabs+0x840>)
 8001a36:	4a46      	ldr	r2, [pc, #280]	; (8001b50 <stm32__device___elabs+0x814>)
 8001a38:	601a      	str	r2, [r3, #0]
 8001a3a:	4a50      	ldr	r2, [pc, #320]	; (8001b7c <stm32__device___elabs+0x840>)
 8001a3c:	2300      	movs	r3, #0
 8001a3e:	9300      	str	r3, [sp, #0]
 8001a40:	4610      	mov	r0, r2
 8001a42:	4944      	ldr	r1, [pc, #272]	; (8001b54 <stm32__device___elabs+0x818>)
 8001a44:	2201      	movs	r2, #1
 8001a46:	2300      	movs	r3, #0
 8001a48:	f007 fd82 	bl	8009550 <ada__tags__register_interface_offset>
 8001a4c:	4b42      	ldr	r3, [pc, #264]	; (8001b58 <stm32__device___elabs+0x81c>)
 8001a4e:	681b      	ldr	r3, [r3, #0]
 8001a50:	4a4b      	ldr	r2, [pc, #300]	; (8001b80 <stm32__device___elabs+0x844>)
 8001a52:	6053      	str	r3, [r2, #4]
 8001a54:	4b4a      	ldr	r3, [pc, #296]	; (8001b80 <stm32__device___elabs+0x844>)
 8001a56:	f44f 6280 	mov.w	r2, #1024	; 0x400
 8001a5a:	811a      	strh	r2, [r3, #8]
 8001a5c:	4b48      	ldr	r3, [pc, #288]	; (8001b80 <stm32__device___elabs+0x844>)
 8001a5e:	4a3c      	ldr	r2, [pc, #240]	; (8001b50 <stm32__device___elabs+0x814>)
 8001a60:	601a      	str	r2, [r3, #0]
 8001a62:	4a47      	ldr	r2, [pc, #284]	; (8001b80 <stm32__device___elabs+0x844>)
 8001a64:	2300      	movs	r3, #0
 8001a66:	9300      	str	r3, [sp, #0]
 8001a68:	4610      	mov	r0, r2
 8001a6a:	493a      	ldr	r1, [pc, #232]	; (8001b54 <stm32__device___elabs+0x818>)
 8001a6c:	2201      	movs	r2, #1
 8001a6e:	2300      	movs	r3, #0
 8001a70:	f007 fd6e 	bl	8009550 <ada__tags__register_interface_offset>
 8001a74:	4b38      	ldr	r3, [pc, #224]	; (8001b58 <stm32__device___elabs+0x81c>)
 8001a76:	681b      	ldr	r3, [r3, #0]
 8001a78:	4a42      	ldr	r2, [pc, #264]	; (8001b84 <stm32__device___elabs+0x848>)
 8001a7a:	6053      	str	r3, [r2, #4]
 8001a7c:	4b41      	ldr	r3, [pc, #260]	; (8001b84 <stm32__device___elabs+0x848>)
 8001a7e:	f44f 6200 	mov.w	r2, #2048	; 0x800
 8001a82:	811a      	strh	r2, [r3, #8]
 8001a84:	4b3f      	ldr	r3, [pc, #252]	; (8001b84 <stm32__device___elabs+0x848>)
 8001a86:	4a32      	ldr	r2, [pc, #200]	; (8001b50 <stm32__device___elabs+0x814>)
 8001a88:	601a      	str	r2, [r3, #0]
 8001a8a:	4a3e      	ldr	r2, [pc, #248]	; (8001b84 <stm32__device___elabs+0x848>)
 8001a8c:	2300      	movs	r3, #0
 8001a8e:	9300      	str	r3, [sp, #0]
 8001a90:	4610      	mov	r0, r2
 8001a92:	4930      	ldr	r1, [pc, #192]	; (8001b54 <stm32__device___elabs+0x818>)
 8001a94:	2201      	movs	r2, #1
 8001a96:	2300      	movs	r3, #0
 8001a98:	f007 fd5a 	bl	8009550 <ada__tags__register_interface_offset>
 8001a9c:	4b2e      	ldr	r3, [pc, #184]	; (8001b58 <stm32__device___elabs+0x81c>)
 8001a9e:	681b      	ldr	r3, [r3, #0]
 8001aa0:	4a39      	ldr	r2, [pc, #228]	; (8001b88 <stm32__device___elabs+0x84c>)
 8001aa2:	6053      	str	r3, [r2, #4]
 8001aa4:	4b38      	ldr	r3, [pc, #224]	; (8001b88 <stm32__device___elabs+0x84c>)
 8001aa6:	f44f 5280 	mov.w	r2, #4096	; 0x1000
 8001aaa:	811a      	strh	r2, [r3, #8]
 8001aac:	4b36      	ldr	r3, [pc, #216]	; (8001b88 <stm32__device___elabs+0x84c>)
 8001aae:	4a28      	ldr	r2, [pc, #160]	; (8001b50 <stm32__device___elabs+0x814>)
 8001ab0:	601a      	str	r2, [r3, #0]
 8001ab2:	4a35      	ldr	r2, [pc, #212]	; (8001b88 <stm32__device___elabs+0x84c>)
 8001ab4:	2300      	movs	r3, #0
 8001ab6:	9300      	str	r3, [sp, #0]
 8001ab8:	4610      	mov	r0, r2
 8001aba:	4926      	ldr	r1, [pc, #152]	; (8001b54 <stm32__device___elabs+0x818>)
 8001abc:	2201      	movs	r2, #1
 8001abe:	2300      	movs	r3, #0
 8001ac0:	f007 fd46 	bl	8009550 <ada__tags__register_interface_offset>
 8001ac4:	4b24      	ldr	r3, [pc, #144]	; (8001b58 <stm32__device___elabs+0x81c>)
 8001ac6:	681b      	ldr	r3, [r3, #0]
 8001ac8:	4a30      	ldr	r2, [pc, #192]	; (8001b8c <stm32__device___elabs+0x850>)
 8001aca:	6053      	str	r3, [r2, #4]
 8001acc:	4b2f      	ldr	r3, [pc, #188]	; (8001b8c <stm32__device___elabs+0x850>)
 8001ace:	f44f 5200 	mov.w	r2, #8192	; 0x2000
 8001ad2:	811a      	strh	r2, [r3, #8]
 8001ad4:	4b2d      	ldr	r3, [pc, #180]	; (8001b8c <stm32__device___elabs+0x850>)
 8001ad6:	4a1e      	ldr	r2, [pc, #120]	; (8001b50 <stm32__device___elabs+0x814>)
 8001ad8:	601a      	str	r2, [r3, #0]
 8001ada:	4a2c      	ldr	r2, [pc, #176]	; (8001b8c <stm32__device___elabs+0x850>)
 8001adc:	2300      	movs	r3, #0
 8001ade:	9300      	str	r3, [sp, #0]
 8001ae0:	4610      	mov	r0, r2
 8001ae2:	491c      	ldr	r1, [pc, #112]	; (8001b54 <stm32__device___elabs+0x818>)
 8001ae4:	2201      	movs	r2, #1
 8001ae6:	2300      	movs	r3, #0
 8001ae8:	f007 fd32 	bl	8009550 <ada__tags__register_interface_offset>
 8001aec:	4b1a      	ldr	r3, [pc, #104]	; (8001b58 <stm32__device___elabs+0x81c>)
 8001aee:	681b      	ldr	r3, [r3, #0]
 8001af0:	4a27      	ldr	r2, [pc, #156]	; (8001b90 <stm32__device___elabs+0x854>)
 8001af2:	6053      	str	r3, [r2, #4]
 8001af4:	4b26      	ldr	r3, [pc, #152]	; (8001b90 <stm32__device___elabs+0x854>)
 8001af6:	f44f 4280 	mov.w	r2, #16384	; 0x4000
 8001afa:	811a      	strh	r2, [r3, #8]
 8001afc:	4b24      	ldr	r3, [pc, #144]	; (8001b90 <stm32__device___elabs+0x854>)
 8001afe:	4a14      	ldr	r2, [pc, #80]	; (8001b50 <stm32__device___elabs+0x814>)
 8001b00:	601a      	str	r2, [r3, #0]
 8001b02:	4a23      	ldr	r2, [pc, #140]	; (8001b90 <stm32__device___elabs+0x854>)
 8001b04:	2300      	movs	r3, #0
 8001b06:	9300      	str	r3, [sp, #0]
 8001b08:	4610      	mov	r0, r2
 8001b0a:	4912      	ldr	r1, [pc, #72]	; (8001b54 <stm32__device___elabs+0x818>)
 8001b0c:	2201      	movs	r2, #1
 8001b0e:	2300      	movs	r3, #0
 8001b10:	f007 fd1e 	bl	8009550 <ada__tags__register_interface_offset>
 8001b14:	4b10      	ldr	r3, [pc, #64]	; (8001b58 <stm32__device___elabs+0x81c>)
 8001b16:	681b      	ldr	r3, [r3, #0]
 8001b18:	4a1e      	ldr	r2, [pc, #120]	; (8001b94 <stm32__device___elabs+0x858>)
 8001b1a:	6053      	str	r3, [r2, #4]
 8001b1c:	4b1d      	ldr	r3, [pc, #116]	; (8001b94 <stm32__device___elabs+0x858>)
 8001b1e:	f44f 4200 	mov.w	r2, #32768	; 0x8000
 8001b22:	811a      	strh	r2, [r3, #8]
 8001b24:	4b1b      	ldr	r3, [pc, #108]	; (8001b94 <stm32__device___elabs+0x858>)
 8001b26:	4a0a      	ldr	r2, [pc, #40]	; (8001b50 <stm32__device___elabs+0x814>)
 8001b28:	601a      	str	r2, [r3, #0]
 8001b2a:	4a1a      	ldr	r2, [pc, #104]	; (8001b94 <stm32__device___elabs+0x858>)
 8001b2c:	2300      	movs	r3, #0
 8001b2e:	9300      	str	r3, [sp, #0]
 8001b30:	4610      	mov	r0, r2
 8001b32:	4908      	ldr	r1, [pc, #32]	; (8001b54 <stm32__device___elabs+0x818>)
 8001b34:	2201      	movs	r2, #1
 8001b36:	2300      	movs	r3, #0
 8001b38:	f007 fd0a 	bl	8009550 <ada__tags__register_interface_offset>
 8001b3c:	4b16      	ldr	r3, [pc, #88]	; (8001b98 <stm32__device___elabs+0x85c>)
 8001b3e:	681b      	ldr	r3, [r3, #0]
 8001b40:	4a16      	ldr	r2, [pc, #88]	; (8001b9c <stm32__device___elabs+0x860>)
 8001b42:	6053      	str	r3, [r2, #4]
 8001b44:	4b15      	ldr	r3, [pc, #84]	; (8001b9c <stm32__device___elabs+0x860>)
 8001b46:	2201      	movs	r2, #1
 8001b48:	e02a      	b.n	8001ba0 <stm32__device___elabs+0x864>
 8001b4a:	bf00      	nop
 8001b4c:	20000474 	.word	0x20000474
 8001b50:	0800d5e8 	.word	0x0800d5e8
 8001b54:	0800dbb4 	.word	0x0800dbb4
 8001b58:	20000038 	.word	0x20000038
 8001b5c:	20000480 	.word	0x20000480
 8001b60:	2000048c 	.word	0x2000048c
 8001b64:	20000498 	.word	0x20000498
 8001b68:	200004a4 	.word	0x200004a4
 8001b6c:	200004b0 	.word	0x200004b0
 8001b70:	200004bc 	.word	0x200004bc
 8001b74:	200004c8 	.word	0x200004c8
 8001b78:	200004d4 	.word	0x200004d4
 8001b7c:	200004e0 	.word	0x200004e0
 8001b80:	200004ec 	.word	0x200004ec
 8001b84:	200004f8 	.word	0x200004f8
 8001b88:	20000504 	.word	0x20000504
 8001b8c:	20000510 	.word	0x20000510
 8001b90:	2000051c 	.word	0x2000051c
 8001b94:	20000528 	.word	0x20000528
 8001b98:	2000003c 	.word	0x2000003c
 8001b9c:	20000534 	.word	0x20000534
 8001ba0:	811a      	strh	r2, [r3, #8]
 8001ba2:	4b9d      	ldr	r3, [pc, #628]	; (8001e18 <stm32__device___elabs+0xadc>)
 8001ba4:	4a9d      	ldr	r2, [pc, #628]	; (8001e1c <stm32__device___elabs+0xae0>)
 8001ba6:	601a      	str	r2, [r3, #0]
 8001ba8:	4a9b      	ldr	r2, [pc, #620]	; (8001e18 <stm32__device___elabs+0xadc>)
 8001baa:	2300      	movs	r3, #0
 8001bac:	9300      	str	r3, [sp, #0]
 8001bae:	4610      	mov	r0, r2
 8001bb0:	499b      	ldr	r1, [pc, #620]	; (8001e20 <stm32__device___elabs+0xae4>)
 8001bb2:	2201      	movs	r2, #1
 8001bb4:	2300      	movs	r3, #0
 8001bb6:	f007 fccb 	bl	8009550 <ada__tags__register_interface_offset>
 8001bba:	4b9a      	ldr	r3, [pc, #616]	; (8001e24 <stm32__device___elabs+0xae8>)
 8001bbc:	681b      	ldr	r3, [r3, #0]
 8001bbe:	4a9a      	ldr	r2, [pc, #616]	; (8001e28 <stm32__device___elabs+0xaec>)
 8001bc0:	6053      	str	r3, [r2, #4]
 8001bc2:	4b99      	ldr	r3, [pc, #612]	; (8001e28 <stm32__device___elabs+0xaec>)
 8001bc4:	2202      	movs	r2, #2
 8001bc6:	811a      	strh	r2, [r3, #8]
 8001bc8:	4b97      	ldr	r3, [pc, #604]	; (8001e28 <stm32__device___elabs+0xaec>)
 8001bca:	4a94      	ldr	r2, [pc, #592]	; (8001e1c <stm32__device___elabs+0xae0>)
 8001bcc:	601a      	str	r2, [r3, #0]
 8001bce:	4a96      	ldr	r2, [pc, #600]	; (8001e28 <stm32__device___elabs+0xaec>)
 8001bd0:	2300      	movs	r3, #0
 8001bd2:	9300      	str	r3, [sp, #0]
 8001bd4:	4610      	mov	r0, r2
 8001bd6:	4992      	ldr	r1, [pc, #584]	; (8001e20 <stm32__device___elabs+0xae4>)
 8001bd8:	2201      	movs	r2, #1
 8001bda:	2300      	movs	r3, #0
 8001bdc:	f007 fcb8 	bl	8009550 <ada__tags__register_interface_offset>
 8001be0:	4b90      	ldr	r3, [pc, #576]	; (8001e24 <stm32__device___elabs+0xae8>)
 8001be2:	681b      	ldr	r3, [r3, #0]
 8001be4:	4a91      	ldr	r2, [pc, #580]	; (8001e2c <stm32__device___elabs+0xaf0>)
 8001be6:	6053      	str	r3, [r2, #4]
 8001be8:	4b90      	ldr	r3, [pc, #576]	; (8001e2c <stm32__device___elabs+0xaf0>)
 8001bea:	2204      	movs	r2, #4
 8001bec:	811a      	strh	r2, [r3, #8]
 8001bee:	4b8f      	ldr	r3, [pc, #572]	; (8001e2c <stm32__device___elabs+0xaf0>)
 8001bf0:	4a8a      	ldr	r2, [pc, #552]	; (8001e1c <stm32__device___elabs+0xae0>)
 8001bf2:	601a      	str	r2, [r3, #0]
 8001bf4:	4a8d      	ldr	r2, [pc, #564]	; (8001e2c <stm32__device___elabs+0xaf0>)
 8001bf6:	2300      	movs	r3, #0
 8001bf8:	9300      	str	r3, [sp, #0]
 8001bfa:	4610      	mov	r0, r2
 8001bfc:	4988      	ldr	r1, [pc, #544]	; (8001e20 <stm32__device___elabs+0xae4>)
 8001bfe:	2201      	movs	r2, #1
 8001c00:	2300      	movs	r3, #0
 8001c02:	f007 fca5 	bl	8009550 <ada__tags__register_interface_offset>
 8001c06:	4b87      	ldr	r3, [pc, #540]	; (8001e24 <stm32__device___elabs+0xae8>)
 8001c08:	681b      	ldr	r3, [r3, #0]
 8001c0a:	4a89      	ldr	r2, [pc, #548]	; (8001e30 <stm32__device___elabs+0xaf4>)
 8001c0c:	6053      	str	r3, [r2, #4]
 8001c0e:	4b88      	ldr	r3, [pc, #544]	; (8001e30 <stm32__device___elabs+0xaf4>)
 8001c10:	2208      	movs	r2, #8
 8001c12:	811a      	strh	r2, [r3, #8]
 8001c14:	4b86      	ldr	r3, [pc, #536]	; (8001e30 <stm32__device___elabs+0xaf4>)
 8001c16:	4a81      	ldr	r2, [pc, #516]	; (8001e1c <stm32__device___elabs+0xae0>)
 8001c18:	601a      	str	r2, [r3, #0]
 8001c1a:	4a85      	ldr	r2, [pc, #532]	; (8001e30 <stm32__device___elabs+0xaf4>)
 8001c1c:	2300      	movs	r3, #0
 8001c1e:	9300      	str	r3, [sp, #0]
 8001c20:	4610      	mov	r0, r2
 8001c22:	497f      	ldr	r1, [pc, #508]	; (8001e20 <stm32__device___elabs+0xae4>)
 8001c24:	2201      	movs	r2, #1
 8001c26:	2300      	movs	r3, #0
 8001c28:	f007 fc92 	bl	8009550 <ada__tags__register_interface_offset>
 8001c2c:	4b7d      	ldr	r3, [pc, #500]	; (8001e24 <stm32__device___elabs+0xae8>)
 8001c2e:	681b      	ldr	r3, [r3, #0]
 8001c30:	4a80      	ldr	r2, [pc, #512]	; (8001e34 <stm32__device___elabs+0xaf8>)
 8001c32:	6053      	str	r3, [r2, #4]
 8001c34:	4b7f      	ldr	r3, [pc, #508]	; (8001e34 <stm32__device___elabs+0xaf8>)
 8001c36:	2210      	movs	r2, #16
 8001c38:	811a      	strh	r2, [r3, #8]
 8001c3a:	4b7e      	ldr	r3, [pc, #504]	; (8001e34 <stm32__device___elabs+0xaf8>)
 8001c3c:	4a77      	ldr	r2, [pc, #476]	; (8001e1c <stm32__device___elabs+0xae0>)
 8001c3e:	601a      	str	r2, [r3, #0]
 8001c40:	4a7c      	ldr	r2, [pc, #496]	; (8001e34 <stm32__device___elabs+0xaf8>)
 8001c42:	2300      	movs	r3, #0
 8001c44:	9300      	str	r3, [sp, #0]
 8001c46:	4610      	mov	r0, r2
 8001c48:	4975      	ldr	r1, [pc, #468]	; (8001e20 <stm32__device___elabs+0xae4>)
 8001c4a:	2201      	movs	r2, #1
 8001c4c:	2300      	movs	r3, #0
 8001c4e:	f007 fc7f 	bl	8009550 <ada__tags__register_interface_offset>
 8001c52:	4b74      	ldr	r3, [pc, #464]	; (8001e24 <stm32__device___elabs+0xae8>)
 8001c54:	681b      	ldr	r3, [r3, #0]
 8001c56:	4a78      	ldr	r2, [pc, #480]	; (8001e38 <stm32__device___elabs+0xafc>)
 8001c58:	6053      	str	r3, [r2, #4]
 8001c5a:	4b77      	ldr	r3, [pc, #476]	; (8001e38 <stm32__device___elabs+0xafc>)
 8001c5c:	2220      	movs	r2, #32
 8001c5e:	811a      	strh	r2, [r3, #8]
 8001c60:	4b75      	ldr	r3, [pc, #468]	; (8001e38 <stm32__device___elabs+0xafc>)
 8001c62:	4a6e      	ldr	r2, [pc, #440]	; (8001e1c <stm32__device___elabs+0xae0>)
 8001c64:	601a      	str	r2, [r3, #0]
 8001c66:	4a74      	ldr	r2, [pc, #464]	; (8001e38 <stm32__device___elabs+0xafc>)
 8001c68:	2300      	movs	r3, #0
 8001c6a:	9300      	str	r3, [sp, #0]
 8001c6c:	4610      	mov	r0, r2
 8001c6e:	496c      	ldr	r1, [pc, #432]	; (8001e20 <stm32__device___elabs+0xae4>)
 8001c70:	2201      	movs	r2, #1
 8001c72:	2300      	movs	r3, #0
 8001c74:	f007 fc6c 	bl	8009550 <ada__tags__register_interface_offset>
 8001c78:	4b6a      	ldr	r3, [pc, #424]	; (8001e24 <stm32__device___elabs+0xae8>)
 8001c7a:	681b      	ldr	r3, [r3, #0]
 8001c7c:	4a6f      	ldr	r2, [pc, #444]	; (8001e3c <stm32__device___elabs+0xb00>)
 8001c7e:	6053      	str	r3, [r2, #4]
 8001c80:	4b6e      	ldr	r3, [pc, #440]	; (8001e3c <stm32__device___elabs+0xb00>)
 8001c82:	2240      	movs	r2, #64	; 0x40
 8001c84:	811a      	strh	r2, [r3, #8]
 8001c86:	4b6d      	ldr	r3, [pc, #436]	; (8001e3c <stm32__device___elabs+0xb00>)
 8001c88:	4a64      	ldr	r2, [pc, #400]	; (8001e1c <stm32__device___elabs+0xae0>)
 8001c8a:	601a      	str	r2, [r3, #0]
 8001c8c:	4a6b      	ldr	r2, [pc, #428]	; (8001e3c <stm32__device___elabs+0xb00>)
 8001c8e:	2300      	movs	r3, #0
 8001c90:	9300      	str	r3, [sp, #0]
 8001c92:	4610      	mov	r0, r2
 8001c94:	4962      	ldr	r1, [pc, #392]	; (8001e20 <stm32__device___elabs+0xae4>)
 8001c96:	2201      	movs	r2, #1
 8001c98:	2300      	movs	r3, #0
 8001c9a:	f007 fc59 	bl	8009550 <ada__tags__register_interface_offset>
 8001c9e:	4b61      	ldr	r3, [pc, #388]	; (8001e24 <stm32__device___elabs+0xae8>)
 8001ca0:	681b      	ldr	r3, [r3, #0]
 8001ca2:	4a67      	ldr	r2, [pc, #412]	; (8001e40 <stm32__device___elabs+0xb04>)
 8001ca4:	6053      	str	r3, [r2, #4]
 8001ca6:	4b66      	ldr	r3, [pc, #408]	; (8001e40 <stm32__device___elabs+0xb04>)
 8001ca8:	2280      	movs	r2, #128	; 0x80
 8001caa:	811a      	strh	r2, [r3, #8]
 8001cac:	4b64      	ldr	r3, [pc, #400]	; (8001e40 <stm32__device___elabs+0xb04>)
 8001cae:	4a5b      	ldr	r2, [pc, #364]	; (8001e1c <stm32__device___elabs+0xae0>)
 8001cb0:	601a      	str	r2, [r3, #0]
 8001cb2:	4a63      	ldr	r2, [pc, #396]	; (8001e40 <stm32__device___elabs+0xb04>)
 8001cb4:	2300      	movs	r3, #0
 8001cb6:	9300      	str	r3, [sp, #0]
 8001cb8:	4610      	mov	r0, r2
 8001cba:	4959      	ldr	r1, [pc, #356]	; (8001e20 <stm32__device___elabs+0xae4>)
 8001cbc:	2201      	movs	r2, #1
 8001cbe:	2300      	movs	r3, #0
 8001cc0:	f007 fc46 	bl	8009550 <ada__tags__register_interface_offset>
 8001cc4:	4b57      	ldr	r3, [pc, #348]	; (8001e24 <stm32__device___elabs+0xae8>)
 8001cc6:	681b      	ldr	r3, [r3, #0]
 8001cc8:	4a5e      	ldr	r2, [pc, #376]	; (8001e44 <stm32__device___elabs+0xb08>)
 8001cca:	6053      	str	r3, [r2, #4]
 8001ccc:	4b5d      	ldr	r3, [pc, #372]	; (8001e44 <stm32__device___elabs+0xb08>)
 8001cce:	f44f 7280 	mov.w	r2, #256	; 0x100
 8001cd2:	811a      	strh	r2, [r3, #8]
 8001cd4:	4b5b      	ldr	r3, [pc, #364]	; (8001e44 <stm32__device___elabs+0xb08>)
 8001cd6:	4a51      	ldr	r2, [pc, #324]	; (8001e1c <stm32__device___elabs+0xae0>)
 8001cd8:	601a      	str	r2, [r3, #0]
 8001cda:	4a5a      	ldr	r2, [pc, #360]	; (8001e44 <stm32__device___elabs+0xb08>)
 8001cdc:	2300      	movs	r3, #0
 8001cde:	9300      	str	r3, [sp, #0]
 8001ce0:	4610      	mov	r0, r2
 8001ce2:	494f      	ldr	r1, [pc, #316]	; (8001e20 <stm32__device___elabs+0xae4>)
 8001ce4:	2201      	movs	r2, #1
 8001ce6:	2300      	movs	r3, #0
 8001ce8:	f007 fc32 	bl	8009550 <ada__tags__register_interface_offset>
 8001cec:	4b4d      	ldr	r3, [pc, #308]	; (8001e24 <stm32__device___elabs+0xae8>)
 8001cee:	681b      	ldr	r3, [r3, #0]
 8001cf0:	4a55      	ldr	r2, [pc, #340]	; (8001e48 <stm32__device___elabs+0xb0c>)
 8001cf2:	6053      	str	r3, [r2, #4]
 8001cf4:	4b54      	ldr	r3, [pc, #336]	; (8001e48 <stm32__device___elabs+0xb0c>)
 8001cf6:	f44f 7200 	mov.w	r2, #512	; 0x200
 8001cfa:	811a      	strh	r2, [r3, #8]
 8001cfc:	4b52      	ldr	r3, [pc, #328]	; (8001e48 <stm32__device___elabs+0xb0c>)
 8001cfe:	4a47      	ldr	r2, [pc, #284]	; (8001e1c <stm32__device___elabs+0xae0>)
 8001d00:	601a      	str	r2, [r3, #0]
 8001d02:	4a51      	ldr	r2, [pc, #324]	; (8001e48 <stm32__device___elabs+0xb0c>)
 8001d04:	2300      	movs	r3, #0
 8001d06:	9300      	str	r3, [sp, #0]
 8001d08:	4610      	mov	r0, r2
 8001d0a:	4945      	ldr	r1, [pc, #276]	; (8001e20 <stm32__device___elabs+0xae4>)
 8001d0c:	2201      	movs	r2, #1
 8001d0e:	2300      	movs	r3, #0
 8001d10:	f007 fc1e 	bl	8009550 <ada__tags__register_interface_offset>
 8001d14:	4b43      	ldr	r3, [pc, #268]	; (8001e24 <stm32__device___elabs+0xae8>)
 8001d16:	681b      	ldr	r3, [r3, #0]
 8001d18:	4a4c      	ldr	r2, [pc, #304]	; (8001e4c <stm32__device___elabs+0xb10>)
 8001d1a:	6053      	str	r3, [r2, #4]
 8001d1c:	4b4b      	ldr	r3, [pc, #300]	; (8001e4c <stm32__device___elabs+0xb10>)
 8001d1e:	f44f 6280 	mov.w	r2, #1024	; 0x400
 8001d22:	811a      	strh	r2, [r3, #8]
 8001d24:	4b49      	ldr	r3, [pc, #292]	; (8001e4c <stm32__device___elabs+0xb10>)
 8001d26:	4a3d      	ldr	r2, [pc, #244]	; (8001e1c <stm32__device___elabs+0xae0>)
 8001d28:	601a      	str	r2, [r3, #0]
 8001d2a:	4a48      	ldr	r2, [pc, #288]	; (8001e4c <stm32__device___elabs+0xb10>)
 8001d2c:	2300      	movs	r3, #0
 8001d2e:	9300      	str	r3, [sp, #0]
 8001d30:	4610      	mov	r0, r2
 8001d32:	493b      	ldr	r1, [pc, #236]	; (8001e20 <stm32__device___elabs+0xae4>)
 8001d34:	2201      	movs	r2, #1
 8001d36:	2300      	movs	r3, #0
 8001d38:	f007 fc0a 	bl	8009550 <ada__tags__register_interface_offset>
 8001d3c:	4b39      	ldr	r3, [pc, #228]	; (8001e24 <stm32__device___elabs+0xae8>)
 8001d3e:	681b      	ldr	r3, [r3, #0]
 8001d40:	4a43      	ldr	r2, [pc, #268]	; (8001e50 <stm32__device___elabs+0xb14>)
 8001d42:	6053      	str	r3, [r2, #4]
 8001d44:	4b42      	ldr	r3, [pc, #264]	; (8001e50 <stm32__device___elabs+0xb14>)
 8001d46:	f44f 6200 	mov.w	r2, #2048	; 0x800
 8001d4a:	811a      	strh	r2, [r3, #8]
 8001d4c:	4b40      	ldr	r3, [pc, #256]	; (8001e50 <stm32__device___elabs+0xb14>)
 8001d4e:	4a33      	ldr	r2, [pc, #204]	; (8001e1c <stm32__device___elabs+0xae0>)
 8001d50:	601a      	str	r2, [r3, #0]
 8001d52:	4a3f      	ldr	r2, [pc, #252]	; (8001e50 <stm32__device___elabs+0xb14>)
 8001d54:	2300      	movs	r3, #0
 8001d56:	9300      	str	r3, [sp, #0]
 8001d58:	4610      	mov	r0, r2
 8001d5a:	4931      	ldr	r1, [pc, #196]	; (8001e20 <stm32__device___elabs+0xae4>)
 8001d5c:	2201      	movs	r2, #1
 8001d5e:	2300      	movs	r3, #0
 8001d60:	f007 fbf6 	bl	8009550 <ada__tags__register_interface_offset>
 8001d64:	4b2f      	ldr	r3, [pc, #188]	; (8001e24 <stm32__device___elabs+0xae8>)
 8001d66:	681b      	ldr	r3, [r3, #0]
 8001d68:	4a3a      	ldr	r2, [pc, #232]	; (8001e54 <stm32__device___elabs+0xb18>)
 8001d6a:	6053      	str	r3, [r2, #4]
 8001d6c:	4b39      	ldr	r3, [pc, #228]	; (8001e54 <stm32__device___elabs+0xb18>)
 8001d6e:	f44f 5280 	mov.w	r2, #4096	; 0x1000
 8001d72:	811a      	strh	r2, [r3, #8]
 8001d74:	4b37      	ldr	r3, [pc, #220]	; (8001e54 <stm32__device___elabs+0xb18>)
 8001d76:	4a29      	ldr	r2, [pc, #164]	; (8001e1c <stm32__device___elabs+0xae0>)
 8001d78:	601a      	str	r2, [r3, #0]
 8001d7a:	4a36      	ldr	r2, [pc, #216]	; (8001e54 <stm32__device___elabs+0xb18>)
 8001d7c:	2300      	movs	r3, #0
 8001d7e:	9300      	str	r3, [sp, #0]
 8001d80:	4610      	mov	r0, r2
 8001d82:	4927      	ldr	r1, [pc, #156]	; (8001e20 <stm32__device___elabs+0xae4>)
 8001d84:	2201      	movs	r2, #1
 8001d86:	2300      	movs	r3, #0
 8001d88:	f007 fbe2 	bl	8009550 <ada__tags__register_interface_offset>
 8001d8c:	4b25      	ldr	r3, [pc, #148]	; (8001e24 <stm32__device___elabs+0xae8>)
 8001d8e:	681b      	ldr	r3, [r3, #0]
 8001d90:	4a31      	ldr	r2, [pc, #196]	; (8001e58 <stm32__device___elabs+0xb1c>)
 8001d92:	6053      	str	r3, [r2, #4]
 8001d94:	4b30      	ldr	r3, [pc, #192]	; (8001e58 <stm32__device___elabs+0xb1c>)
 8001d96:	f44f 5200 	mov.w	r2, #8192	; 0x2000
 8001d9a:	811a      	strh	r2, [r3, #8]
 8001d9c:	4b2e      	ldr	r3, [pc, #184]	; (8001e58 <stm32__device___elabs+0xb1c>)
 8001d9e:	4a1f      	ldr	r2, [pc, #124]	; (8001e1c <stm32__device___elabs+0xae0>)
 8001da0:	601a      	str	r2, [r3, #0]
 8001da2:	4a2d      	ldr	r2, [pc, #180]	; (8001e58 <stm32__device___elabs+0xb1c>)
 8001da4:	2300      	movs	r3, #0
 8001da6:	9300      	str	r3, [sp, #0]
 8001da8:	4610      	mov	r0, r2
 8001daa:	491d      	ldr	r1, [pc, #116]	; (8001e20 <stm32__device___elabs+0xae4>)
 8001dac:	2201      	movs	r2, #1
 8001dae:	2300      	movs	r3, #0
 8001db0:	f007 fbce 	bl	8009550 <ada__tags__register_interface_offset>
 8001db4:	4b1b      	ldr	r3, [pc, #108]	; (8001e24 <stm32__device___elabs+0xae8>)
 8001db6:	681b      	ldr	r3, [r3, #0]
 8001db8:	4a28      	ldr	r2, [pc, #160]	; (8001e5c <stm32__device___elabs+0xb20>)
 8001dba:	6053      	str	r3, [r2, #4]
 8001dbc:	4b27      	ldr	r3, [pc, #156]	; (8001e5c <stm32__device___elabs+0xb20>)
 8001dbe:	f44f 4280 	mov.w	r2, #16384	; 0x4000
 8001dc2:	811a      	strh	r2, [r3, #8]
 8001dc4:	4b25      	ldr	r3, [pc, #148]	; (8001e5c <stm32__device___elabs+0xb20>)
 8001dc6:	4a15      	ldr	r2, [pc, #84]	; (8001e1c <stm32__device___elabs+0xae0>)
 8001dc8:	601a      	str	r2, [r3, #0]
 8001dca:	4a24      	ldr	r2, [pc, #144]	; (8001e5c <stm32__device___elabs+0xb20>)
 8001dcc:	2300      	movs	r3, #0
 8001dce:	9300      	str	r3, [sp, #0]
 8001dd0:	4610      	mov	r0, r2
 8001dd2:	4913      	ldr	r1, [pc, #76]	; (8001e20 <stm32__device___elabs+0xae4>)
 8001dd4:	2201      	movs	r2, #1
 8001dd6:	2300      	movs	r3, #0
 8001dd8:	f007 fbba 	bl	8009550 <ada__tags__register_interface_offset>
 8001ddc:	4b11      	ldr	r3, [pc, #68]	; (8001e24 <stm32__device___elabs+0xae8>)
 8001dde:	681b      	ldr	r3, [r3, #0]
 8001de0:	4a1f      	ldr	r2, [pc, #124]	; (8001e60 <stm32__device___elabs+0xb24>)
 8001de2:	6053      	str	r3, [r2, #4]
 8001de4:	4b1e      	ldr	r3, [pc, #120]	; (8001e60 <stm32__device___elabs+0xb24>)
 8001de6:	f44f 4200 	mov.w	r2, #32768	; 0x8000
 8001dea:	811a      	strh	r2, [r3, #8]
 8001dec:	4b1c      	ldr	r3, [pc, #112]	; (8001e60 <stm32__device___elabs+0xb24>)
 8001dee:	4a0b      	ldr	r2, [pc, #44]	; (8001e1c <stm32__device___elabs+0xae0>)
 8001df0:	601a      	str	r2, [r3, #0]
 8001df2:	4a1b      	ldr	r2, [pc, #108]	; (8001e60 <stm32__device___elabs+0xb24>)
 8001df4:	2300      	movs	r3, #0
 8001df6:	9300      	str	r3, [sp, #0]
 8001df8:	4610      	mov	r0, r2
 8001dfa:	4909      	ldr	r1, [pc, #36]	; (8001e20 <stm32__device___elabs+0xae4>)
 8001dfc:	2201      	movs	r2, #1
 8001dfe:	2300      	movs	r3, #0
 8001e00:	f007 fba6 	bl	8009550 <ada__tags__register_interface_offset>
 8001e04:	4b17      	ldr	r3, [pc, #92]	; (8001e64 <stm32__device___elabs+0xb28>)
 8001e06:	681b      	ldr	r3, [r3, #0]
 8001e08:	4a17      	ldr	r2, [pc, #92]	; (8001e68 <stm32__device___elabs+0xb2c>)
 8001e0a:	6053      	str	r3, [r2, #4]
 8001e0c:	4b16      	ldr	r3, [pc, #88]	; (8001e68 <stm32__device___elabs+0xb2c>)
 8001e0e:	2201      	movs	r2, #1
 8001e10:	811a      	strh	r2, [r3, #8]
 8001e12:	4b15      	ldr	r3, [pc, #84]	; (8001e68 <stm32__device___elabs+0xb2c>)
 8001e14:	e02a      	b.n	8001e6c <stm32__device___elabs+0xb30>
 8001e16:	bf00      	nop
 8001e18:	20000534 	.word	0x20000534
 8001e1c:	0800d5e8 	.word	0x0800d5e8
 8001e20:	0800dbb4 	.word	0x0800dbb4
 8001e24:	2000003c 	.word	0x2000003c
 8001e28:	20000540 	.word	0x20000540
 8001e2c:	2000054c 	.word	0x2000054c
 8001e30:	20000558 	.word	0x20000558
 8001e34:	20000564 	.word	0x20000564
 8001e38:	20000570 	.word	0x20000570
 8001e3c:	2000057c 	.word	0x2000057c
 8001e40:	20000588 	.word	0x20000588
 8001e44:	20000594 	.word	0x20000594
 8001e48:	200005a0 	.word	0x200005a0
 8001e4c:	200005ac 	.word	0x200005ac
 8001e50:	200005b8 	.word	0x200005b8
 8001e54:	200005c4 	.word	0x200005c4
 8001e58:	200005d0 	.word	0x200005d0
 8001e5c:	200005dc 	.word	0x200005dc
 8001e60:	200005e8 	.word	0x200005e8
 8001e64:	20000040 	.word	0x20000040
 8001e68:	200005f4 	.word	0x200005f4
 8001e6c:	4a9e      	ldr	r2, [pc, #632]	; (80020e8 <stm32__device___elabs+0xdac>)
 8001e6e:	601a      	str	r2, [r3, #0]
 8001e70:	4a9e      	ldr	r2, [pc, #632]	; (80020ec <stm32__device___elabs+0xdb0>)
 8001e72:	2300      	movs	r3, #0
 8001e74:	9300      	str	r3, [sp, #0]
 8001e76:	4610      	mov	r0, r2
 8001e78:	499d      	ldr	r1, [pc, #628]	; (80020f0 <stm32__device___elabs+0xdb4>)
 8001e7a:	2201      	movs	r2, #1
 8001e7c:	2300      	movs	r3, #0
 8001e7e:	f007 fb67 	bl	8009550 <ada__tags__register_interface_offset>
 8001e82:	4b9c      	ldr	r3, [pc, #624]	; (80020f4 <stm32__device___elabs+0xdb8>)
 8001e84:	681b      	ldr	r3, [r3, #0]
 8001e86:	4a9c      	ldr	r2, [pc, #624]	; (80020f8 <stm32__device___elabs+0xdbc>)
 8001e88:	6053      	str	r3, [r2, #4]
 8001e8a:	4b9b      	ldr	r3, [pc, #620]	; (80020f8 <stm32__device___elabs+0xdbc>)
 8001e8c:	2202      	movs	r2, #2
 8001e8e:	811a      	strh	r2, [r3, #8]
 8001e90:	4b99      	ldr	r3, [pc, #612]	; (80020f8 <stm32__device___elabs+0xdbc>)
 8001e92:	4a95      	ldr	r2, [pc, #596]	; (80020e8 <stm32__device___elabs+0xdac>)
 8001e94:	601a      	str	r2, [r3, #0]
 8001e96:	4a98      	ldr	r2, [pc, #608]	; (80020f8 <stm32__device___elabs+0xdbc>)
 8001e98:	2300      	movs	r3, #0
 8001e9a:	9300      	str	r3, [sp, #0]
 8001e9c:	4610      	mov	r0, r2
 8001e9e:	4994      	ldr	r1, [pc, #592]	; (80020f0 <stm32__device___elabs+0xdb4>)
 8001ea0:	2201      	movs	r2, #1
 8001ea2:	2300      	movs	r3, #0
 8001ea4:	f007 fb54 	bl	8009550 <ada__tags__register_interface_offset>
 8001ea8:	4b92      	ldr	r3, [pc, #584]	; (80020f4 <stm32__device___elabs+0xdb8>)
 8001eaa:	681b      	ldr	r3, [r3, #0]
 8001eac:	4a93      	ldr	r2, [pc, #588]	; (80020fc <stm32__device___elabs+0xdc0>)
 8001eae:	6053      	str	r3, [r2, #4]
 8001eb0:	4b92      	ldr	r3, [pc, #584]	; (80020fc <stm32__device___elabs+0xdc0>)
 8001eb2:	2204      	movs	r2, #4
 8001eb4:	811a      	strh	r2, [r3, #8]
 8001eb6:	4b91      	ldr	r3, [pc, #580]	; (80020fc <stm32__device___elabs+0xdc0>)
 8001eb8:	4a8b      	ldr	r2, [pc, #556]	; (80020e8 <stm32__device___elabs+0xdac>)
 8001eba:	601a      	str	r2, [r3, #0]
 8001ebc:	4a8f      	ldr	r2, [pc, #572]	; (80020fc <stm32__device___elabs+0xdc0>)
 8001ebe:	2300      	movs	r3, #0
 8001ec0:	9300      	str	r3, [sp, #0]
 8001ec2:	4610      	mov	r0, r2
 8001ec4:	498a      	ldr	r1, [pc, #552]	; (80020f0 <stm32__device___elabs+0xdb4>)
 8001ec6:	2201      	movs	r2, #1
 8001ec8:	2300      	movs	r3, #0
 8001eca:	f007 fb41 	bl	8009550 <ada__tags__register_interface_offset>
 8001ece:	4b89      	ldr	r3, [pc, #548]	; (80020f4 <stm32__device___elabs+0xdb8>)
 8001ed0:	681b      	ldr	r3, [r3, #0]
 8001ed2:	4a8b      	ldr	r2, [pc, #556]	; (8002100 <stm32__device___elabs+0xdc4>)
 8001ed4:	6053      	str	r3, [r2, #4]
 8001ed6:	4b8a      	ldr	r3, [pc, #552]	; (8002100 <stm32__device___elabs+0xdc4>)
 8001ed8:	2208      	movs	r2, #8
 8001eda:	811a      	strh	r2, [r3, #8]
 8001edc:	4b88      	ldr	r3, [pc, #544]	; (8002100 <stm32__device___elabs+0xdc4>)
 8001ede:	4a82      	ldr	r2, [pc, #520]	; (80020e8 <stm32__device___elabs+0xdac>)
 8001ee0:	601a      	str	r2, [r3, #0]
 8001ee2:	4a87      	ldr	r2, [pc, #540]	; (8002100 <stm32__device___elabs+0xdc4>)
 8001ee4:	2300      	movs	r3, #0
 8001ee6:	9300      	str	r3, [sp, #0]
 8001ee8:	4610      	mov	r0, r2
 8001eea:	4981      	ldr	r1, [pc, #516]	; (80020f0 <stm32__device___elabs+0xdb4>)
 8001eec:	2201      	movs	r2, #1
 8001eee:	2300      	movs	r3, #0
 8001ef0:	f007 fb2e 	bl	8009550 <ada__tags__register_interface_offset>
 8001ef4:	4b7f      	ldr	r3, [pc, #508]	; (80020f4 <stm32__device___elabs+0xdb8>)
 8001ef6:	681b      	ldr	r3, [r3, #0]
 8001ef8:	4a82      	ldr	r2, [pc, #520]	; (8002104 <stm32__device___elabs+0xdc8>)
 8001efa:	6053      	str	r3, [r2, #4]
 8001efc:	4b81      	ldr	r3, [pc, #516]	; (8002104 <stm32__device___elabs+0xdc8>)
 8001efe:	2210      	movs	r2, #16
 8001f00:	811a      	strh	r2, [r3, #8]
 8001f02:	4b80      	ldr	r3, [pc, #512]	; (8002104 <stm32__device___elabs+0xdc8>)
 8001f04:	4a78      	ldr	r2, [pc, #480]	; (80020e8 <stm32__device___elabs+0xdac>)
 8001f06:	601a      	str	r2, [r3, #0]
 8001f08:	4a7e      	ldr	r2, [pc, #504]	; (8002104 <stm32__device___elabs+0xdc8>)
 8001f0a:	2300      	movs	r3, #0
 8001f0c:	9300      	str	r3, [sp, #0]
 8001f0e:	4610      	mov	r0, r2
 8001f10:	4977      	ldr	r1, [pc, #476]	; (80020f0 <stm32__device___elabs+0xdb4>)
 8001f12:	2201      	movs	r2, #1
 8001f14:	2300      	movs	r3, #0
 8001f16:	f007 fb1b 	bl	8009550 <ada__tags__register_interface_offset>
 8001f1a:	4b76      	ldr	r3, [pc, #472]	; (80020f4 <stm32__device___elabs+0xdb8>)
 8001f1c:	681b      	ldr	r3, [r3, #0]
 8001f1e:	4a7a      	ldr	r2, [pc, #488]	; (8002108 <stm32__device___elabs+0xdcc>)
 8001f20:	6053      	str	r3, [r2, #4]
 8001f22:	4b79      	ldr	r3, [pc, #484]	; (8002108 <stm32__device___elabs+0xdcc>)
 8001f24:	2220      	movs	r2, #32
 8001f26:	811a      	strh	r2, [r3, #8]
 8001f28:	4b77      	ldr	r3, [pc, #476]	; (8002108 <stm32__device___elabs+0xdcc>)
 8001f2a:	4a6f      	ldr	r2, [pc, #444]	; (80020e8 <stm32__device___elabs+0xdac>)
 8001f2c:	601a      	str	r2, [r3, #0]
 8001f2e:	4a76      	ldr	r2, [pc, #472]	; (8002108 <stm32__device___elabs+0xdcc>)
 8001f30:	2300      	movs	r3, #0
 8001f32:	9300      	str	r3, [sp, #0]
 8001f34:	4610      	mov	r0, r2
 8001f36:	496e      	ldr	r1, [pc, #440]	; (80020f0 <stm32__device___elabs+0xdb4>)
 8001f38:	2201      	movs	r2, #1
 8001f3a:	2300      	movs	r3, #0
 8001f3c:	f007 fb08 	bl	8009550 <ada__tags__register_interface_offset>
 8001f40:	4b6c      	ldr	r3, [pc, #432]	; (80020f4 <stm32__device___elabs+0xdb8>)
 8001f42:	681b      	ldr	r3, [r3, #0]
 8001f44:	4a71      	ldr	r2, [pc, #452]	; (800210c <stm32__device___elabs+0xdd0>)
 8001f46:	6053      	str	r3, [r2, #4]
 8001f48:	4b70      	ldr	r3, [pc, #448]	; (800210c <stm32__device___elabs+0xdd0>)
 8001f4a:	2240      	movs	r2, #64	; 0x40
 8001f4c:	811a      	strh	r2, [r3, #8]
 8001f4e:	4b6f      	ldr	r3, [pc, #444]	; (800210c <stm32__device___elabs+0xdd0>)
 8001f50:	4a65      	ldr	r2, [pc, #404]	; (80020e8 <stm32__device___elabs+0xdac>)
 8001f52:	601a      	str	r2, [r3, #0]
 8001f54:	4a6d      	ldr	r2, [pc, #436]	; (800210c <stm32__device___elabs+0xdd0>)
 8001f56:	2300      	movs	r3, #0
 8001f58:	9300      	str	r3, [sp, #0]
 8001f5a:	4610      	mov	r0, r2
 8001f5c:	4964      	ldr	r1, [pc, #400]	; (80020f0 <stm32__device___elabs+0xdb4>)
 8001f5e:	2201      	movs	r2, #1
 8001f60:	2300      	movs	r3, #0
 8001f62:	f007 faf5 	bl	8009550 <ada__tags__register_interface_offset>
 8001f66:	4b63      	ldr	r3, [pc, #396]	; (80020f4 <stm32__device___elabs+0xdb8>)
 8001f68:	681b      	ldr	r3, [r3, #0]
 8001f6a:	4a69      	ldr	r2, [pc, #420]	; (8002110 <stm32__device___elabs+0xdd4>)
 8001f6c:	6053      	str	r3, [r2, #4]
 8001f6e:	4b68      	ldr	r3, [pc, #416]	; (8002110 <stm32__device___elabs+0xdd4>)
 8001f70:	2280      	movs	r2, #128	; 0x80
 8001f72:	811a      	strh	r2, [r3, #8]
 8001f74:	4b66      	ldr	r3, [pc, #408]	; (8002110 <stm32__device___elabs+0xdd4>)
 8001f76:	4a5c      	ldr	r2, [pc, #368]	; (80020e8 <stm32__device___elabs+0xdac>)
 8001f78:	601a      	str	r2, [r3, #0]
 8001f7a:	4a65      	ldr	r2, [pc, #404]	; (8002110 <stm32__device___elabs+0xdd4>)
 8001f7c:	2300      	movs	r3, #0
 8001f7e:	9300      	str	r3, [sp, #0]
 8001f80:	4610      	mov	r0, r2
 8001f82:	495b      	ldr	r1, [pc, #364]	; (80020f0 <stm32__device___elabs+0xdb4>)
 8001f84:	2201      	movs	r2, #1
 8001f86:	2300      	movs	r3, #0
 8001f88:	f007 fae2 	bl	8009550 <ada__tags__register_interface_offset>
 8001f8c:	4b59      	ldr	r3, [pc, #356]	; (80020f4 <stm32__device___elabs+0xdb8>)
 8001f8e:	681b      	ldr	r3, [r3, #0]
 8001f90:	4a60      	ldr	r2, [pc, #384]	; (8002114 <stm32__device___elabs+0xdd8>)
 8001f92:	6053      	str	r3, [r2, #4]
 8001f94:	4b5f      	ldr	r3, [pc, #380]	; (8002114 <stm32__device___elabs+0xdd8>)
 8001f96:	f44f 7280 	mov.w	r2, #256	; 0x100
 8001f9a:	811a      	strh	r2, [r3, #8]
 8001f9c:	4b5d      	ldr	r3, [pc, #372]	; (8002114 <stm32__device___elabs+0xdd8>)
 8001f9e:	4a52      	ldr	r2, [pc, #328]	; (80020e8 <stm32__device___elabs+0xdac>)
 8001fa0:	601a      	str	r2, [r3, #0]
 8001fa2:	4a5c      	ldr	r2, [pc, #368]	; (8002114 <stm32__device___elabs+0xdd8>)
 8001fa4:	2300      	movs	r3, #0
 8001fa6:	9300      	str	r3, [sp, #0]
 8001fa8:	4610      	mov	r0, r2
 8001faa:	4951      	ldr	r1, [pc, #324]	; (80020f0 <stm32__device___elabs+0xdb4>)
 8001fac:	2201      	movs	r2, #1
 8001fae:	2300      	movs	r3, #0
 8001fb0:	f007 face 	bl	8009550 <ada__tags__register_interface_offset>
 8001fb4:	4b4f      	ldr	r3, [pc, #316]	; (80020f4 <stm32__device___elabs+0xdb8>)
 8001fb6:	681b      	ldr	r3, [r3, #0]
 8001fb8:	4a57      	ldr	r2, [pc, #348]	; (8002118 <stm32__device___elabs+0xddc>)
 8001fba:	6053      	str	r3, [r2, #4]
 8001fbc:	4b56      	ldr	r3, [pc, #344]	; (8002118 <stm32__device___elabs+0xddc>)
 8001fbe:	f44f 7200 	mov.w	r2, #512	; 0x200
 8001fc2:	811a      	strh	r2, [r3, #8]
 8001fc4:	4b54      	ldr	r3, [pc, #336]	; (8002118 <stm32__device___elabs+0xddc>)
 8001fc6:	4a48      	ldr	r2, [pc, #288]	; (80020e8 <stm32__device___elabs+0xdac>)
 8001fc8:	601a      	str	r2, [r3, #0]
 8001fca:	4a53      	ldr	r2, [pc, #332]	; (8002118 <stm32__device___elabs+0xddc>)
 8001fcc:	2300      	movs	r3, #0
 8001fce:	9300      	str	r3, [sp, #0]
 8001fd0:	4610      	mov	r0, r2
 8001fd2:	4947      	ldr	r1, [pc, #284]	; (80020f0 <stm32__device___elabs+0xdb4>)
 8001fd4:	2201      	movs	r2, #1
 8001fd6:	2300      	movs	r3, #0
 8001fd8:	f007 faba 	bl	8009550 <ada__tags__register_interface_offset>
 8001fdc:	4b45      	ldr	r3, [pc, #276]	; (80020f4 <stm32__device___elabs+0xdb8>)
 8001fde:	681b      	ldr	r3, [r3, #0]
 8001fe0:	4a4e      	ldr	r2, [pc, #312]	; (800211c <stm32__device___elabs+0xde0>)
 8001fe2:	6053      	str	r3, [r2, #4]
 8001fe4:	4b4d      	ldr	r3, [pc, #308]	; (800211c <stm32__device___elabs+0xde0>)
 8001fe6:	f44f 6280 	mov.w	r2, #1024	; 0x400
 8001fea:	811a      	strh	r2, [r3, #8]
 8001fec:	4b4b      	ldr	r3, [pc, #300]	; (800211c <stm32__device___elabs+0xde0>)
 8001fee:	4a3e      	ldr	r2, [pc, #248]	; (80020e8 <stm32__device___elabs+0xdac>)
 8001ff0:	601a      	str	r2, [r3, #0]
 8001ff2:	4a4a      	ldr	r2, [pc, #296]	; (800211c <stm32__device___elabs+0xde0>)
 8001ff4:	2300      	movs	r3, #0
 8001ff6:	9300      	str	r3, [sp, #0]
 8001ff8:	4610      	mov	r0, r2
 8001ffa:	493d      	ldr	r1, [pc, #244]	; (80020f0 <stm32__device___elabs+0xdb4>)
 8001ffc:	2201      	movs	r2, #1
 8001ffe:	2300      	movs	r3, #0
 8002000:	f007 faa6 	bl	8009550 <ada__tags__register_interface_offset>
 8002004:	4b3b      	ldr	r3, [pc, #236]	; (80020f4 <stm32__device___elabs+0xdb8>)
 8002006:	681b      	ldr	r3, [r3, #0]
 8002008:	4a45      	ldr	r2, [pc, #276]	; (8002120 <stm32__device___elabs+0xde4>)
 800200a:	6053      	str	r3, [r2, #4]
 800200c:	4b44      	ldr	r3, [pc, #272]	; (8002120 <stm32__device___elabs+0xde4>)
 800200e:	f44f 6200 	mov.w	r2, #2048	; 0x800
 8002012:	811a      	strh	r2, [r3, #8]
 8002014:	4b42      	ldr	r3, [pc, #264]	; (8002120 <stm32__device___elabs+0xde4>)
 8002016:	4a34      	ldr	r2, [pc, #208]	; (80020e8 <stm32__device___elabs+0xdac>)
 8002018:	601a      	str	r2, [r3, #0]
 800201a:	4a41      	ldr	r2, [pc, #260]	; (8002120 <stm32__device___elabs+0xde4>)
 800201c:	2300      	movs	r3, #0
 800201e:	9300      	str	r3, [sp, #0]
 8002020:	4610      	mov	r0, r2
 8002022:	4933      	ldr	r1, [pc, #204]	; (80020f0 <stm32__device___elabs+0xdb4>)
 8002024:	2201      	movs	r2, #1
 8002026:	2300      	movs	r3, #0
 8002028:	f007 fa92 	bl	8009550 <ada__tags__register_interface_offset>
 800202c:	4b31      	ldr	r3, [pc, #196]	; (80020f4 <stm32__device___elabs+0xdb8>)
 800202e:	681b      	ldr	r3, [r3, #0]
 8002030:	4a3c      	ldr	r2, [pc, #240]	; (8002124 <stm32__device___elabs+0xde8>)
 8002032:	6053      	str	r3, [r2, #4]
 8002034:	4b3b      	ldr	r3, [pc, #236]	; (8002124 <stm32__device___elabs+0xde8>)
 8002036:	f44f 5280 	mov.w	r2, #4096	; 0x1000
 800203a:	811a      	strh	r2, [r3, #8]
 800203c:	4b39      	ldr	r3, [pc, #228]	; (8002124 <stm32__device___elabs+0xde8>)
 800203e:	4a2a      	ldr	r2, [pc, #168]	; (80020e8 <stm32__device___elabs+0xdac>)
 8002040:	601a      	str	r2, [r3, #0]
 8002042:	4a38      	ldr	r2, [pc, #224]	; (8002124 <stm32__device___elabs+0xde8>)
 8002044:	2300      	movs	r3, #0
 8002046:	9300      	str	r3, [sp, #0]
 8002048:	4610      	mov	r0, r2
 800204a:	4929      	ldr	r1, [pc, #164]	; (80020f0 <stm32__device___elabs+0xdb4>)
 800204c:	2201      	movs	r2, #1
 800204e:	2300      	movs	r3, #0
 8002050:	f007 fa7e 	bl	8009550 <ada__tags__register_interface_offset>
 8002054:	4b27      	ldr	r3, [pc, #156]	; (80020f4 <stm32__device___elabs+0xdb8>)
 8002056:	681b      	ldr	r3, [r3, #0]
 8002058:	4a33      	ldr	r2, [pc, #204]	; (8002128 <stm32__device___elabs+0xdec>)
 800205a:	6053      	str	r3, [r2, #4]
 800205c:	4b32      	ldr	r3, [pc, #200]	; (8002128 <stm32__device___elabs+0xdec>)
 800205e:	f44f 5200 	mov.w	r2, #8192	; 0x2000
 8002062:	811a      	strh	r2, [r3, #8]
 8002064:	4b30      	ldr	r3, [pc, #192]	; (8002128 <stm32__device___elabs+0xdec>)
 8002066:	4a20      	ldr	r2, [pc, #128]	; (80020e8 <stm32__device___elabs+0xdac>)
 8002068:	601a      	str	r2, [r3, #0]
 800206a:	4a2f      	ldr	r2, [pc, #188]	; (8002128 <stm32__device___elabs+0xdec>)
 800206c:	2300      	movs	r3, #0
 800206e:	9300      	str	r3, [sp, #0]
 8002070:	4610      	mov	r0, r2
 8002072:	491f      	ldr	r1, [pc, #124]	; (80020f0 <stm32__device___elabs+0xdb4>)
 8002074:	2201      	movs	r2, #1
 8002076:	2300      	movs	r3, #0
 8002078:	f007 fa6a 	bl	8009550 <ada__tags__register_interface_offset>
 800207c:	4b1d      	ldr	r3, [pc, #116]	; (80020f4 <stm32__device___elabs+0xdb8>)
 800207e:	681b      	ldr	r3, [r3, #0]
 8002080:	4a2a      	ldr	r2, [pc, #168]	; (800212c <stm32__device___elabs+0xdf0>)
 8002082:	6053      	str	r3, [r2, #4]
 8002084:	4b29      	ldr	r3, [pc, #164]	; (800212c <stm32__device___elabs+0xdf0>)
 8002086:	f44f 4280 	mov.w	r2, #16384	; 0x4000
 800208a:	811a      	strh	r2, [r3, #8]
 800208c:	4b27      	ldr	r3, [pc, #156]	; (800212c <stm32__device___elabs+0xdf0>)
 800208e:	4a16      	ldr	r2, [pc, #88]	; (80020e8 <stm32__device___elabs+0xdac>)
 8002090:	601a      	str	r2, [r3, #0]
 8002092:	4a26      	ldr	r2, [pc, #152]	; (800212c <stm32__device___elabs+0xdf0>)
 8002094:	2300      	movs	r3, #0
 8002096:	9300      	str	r3, [sp, #0]
 8002098:	4610      	mov	r0, r2
 800209a:	4915      	ldr	r1, [pc, #84]	; (80020f0 <stm32__device___elabs+0xdb4>)
 800209c:	2201      	movs	r2, #1
 800209e:	2300      	movs	r3, #0
 80020a0:	f007 fa56 	bl	8009550 <ada__tags__register_interface_offset>
 80020a4:	4b13      	ldr	r3, [pc, #76]	; (80020f4 <stm32__device___elabs+0xdb8>)
 80020a6:	681b      	ldr	r3, [r3, #0]
 80020a8:	4a21      	ldr	r2, [pc, #132]	; (8002130 <stm32__device___elabs+0xdf4>)
 80020aa:	6053      	str	r3, [r2, #4]
 80020ac:	4b20      	ldr	r3, [pc, #128]	; (8002130 <stm32__device___elabs+0xdf4>)
 80020ae:	f44f 4200 	mov.w	r2, #32768	; 0x8000
 80020b2:	811a      	strh	r2, [r3, #8]
 80020b4:	4b1e      	ldr	r3, [pc, #120]	; (8002130 <stm32__device___elabs+0xdf4>)
 80020b6:	4a0c      	ldr	r2, [pc, #48]	; (80020e8 <stm32__device___elabs+0xdac>)
 80020b8:	601a      	str	r2, [r3, #0]
 80020ba:	4a1d      	ldr	r2, [pc, #116]	; (8002130 <stm32__device___elabs+0xdf4>)
 80020bc:	2300      	movs	r3, #0
 80020be:	9300      	str	r3, [sp, #0]
 80020c0:	4610      	mov	r0, r2
 80020c2:	490b      	ldr	r1, [pc, #44]	; (80020f0 <stm32__device___elabs+0xdb4>)
 80020c4:	2201      	movs	r2, #1
 80020c6:	2300      	movs	r3, #0
 80020c8:	f007 fa42 	bl	8009550 <ada__tags__register_interface_offset>
 80020cc:	4b19      	ldr	r3, [pc, #100]	; (8002134 <stm32__device___elabs+0xdf8>)
 80020ce:	681b      	ldr	r3, [r3, #0]
 80020d0:	4819      	ldr	r0, [pc, #100]	; (8002138 <stm32__device___elabs+0xdfc>)
 80020d2:	4619      	mov	r1, r3
 80020d4:	2201      	movs	r2, #1
 80020d6:	f002 fa61 	bl	800459c <stm32__i2c__i2c_portIP>
 80020da:	4b18      	ldr	r3, [pc, #96]	; (800213c <stm32__device___elabs+0xe00>)
 80020dc:	681b      	ldr	r3, [r3, #0]
 80020de:	4818      	ldr	r0, [pc, #96]	; (8002140 <stm32__device___elabs+0xe04>)
 80020e0:	4619      	mov	r1, r3
 80020e2:	2201      	movs	r2, #1
 80020e4:	e02e      	b.n	8002144 <stm32__device___elabs+0xe08>
 80020e6:	bf00      	nop
 80020e8:	0800d5e8 	.word	0x0800d5e8
 80020ec:	200005f4 	.word	0x200005f4
 80020f0:	0800dbb4 	.word	0x0800dbb4
 80020f4:	20000040 	.word	0x20000040
 80020f8:	20000600 	.word	0x20000600
 80020fc:	2000060c 	.word	0x2000060c
 8002100:	20000618 	.word	0x20000618
 8002104:	20000624 	.word	0x20000624
 8002108:	20000630 	.word	0x20000630
 800210c:	2000063c 	.word	0x2000063c
 8002110:	20000648 	.word	0x20000648
 8002114:	20000654 	.word	0x20000654
 8002118:	20000660 	.word	0x20000660
 800211c:	2000066c 	.word	0x2000066c
 8002120:	20000678 	.word	0x20000678
 8002124:	20000684 	.word	0x20000684
 8002128:	20000690 	.word	0x20000690
 800212c:	2000069c 	.word	0x2000069c
 8002130:	200006a8 	.word	0x200006a8
 8002134:	20000044 	.word	0x20000044
 8002138:	200006b4 	.word	0x200006b4
 800213c:	20000048 	.word	0x20000048
 8002140:	200006cc 	.word	0x200006cc
 8002144:	f002 fa2a 	bl	800459c <stm32__i2c__i2c_portIP>
 8002148:	4b12      	ldr	r3, [pc, #72]	; (8002194 <stm32__device___elabs+0xe58>)
 800214a:	681b      	ldr	r3, [r3, #0]
 800214c:	4812      	ldr	r0, [pc, #72]	; (8002198 <stm32__device___elabs+0xe5c>)
 800214e:	4619      	mov	r1, r3
 8002150:	2201      	movs	r2, #1
 8002152:	f002 fa23 	bl	800459c <stm32__i2c__i2c_portIP>
 8002156:	4b11      	ldr	r3, [pc, #68]	; (800219c <stm32__device___elabs+0xe60>)
 8002158:	681b      	ldr	r3, [r3, #0]
 800215a:	4811      	ldr	r0, [pc, #68]	; (80021a0 <stm32__device___elabs+0xe64>)
 800215c:	4619      	mov	r1, r3
 800215e:	2201      	movs	r2, #1
 8002160:	f002 fa1c 	bl	800459c <stm32__i2c__i2c_portIP>
 8002164:	4b0f      	ldr	r3, [pc, #60]	; (80021a4 <stm32__device___elabs+0xe68>)
 8002166:	681b      	ldr	r3, [r3, #0]
 8002168:	480f      	ldr	r0, [pc, #60]	; (80021a8 <stm32__device___elabs+0xe6c>)
 800216a:	4619      	mov	r1, r3
 800216c:	2201      	movs	r2, #1
 800216e:	f000 fdcf 	bl	8002d10 <stm32__spi__spi_portIP>
 8002172:	4b0e      	ldr	r3, [pc, #56]	; (80021ac <stm32__device___elabs+0xe70>)
 8002174:	681b      	ldr	r3, [r3, #0]
 8002176:	480e      	ldr	r0, [pc, #56]	; (80021b0 <stm32__device___elabs+0xe74>)
 8002178:	4619      	mov	r1, r3
 800217a:	2201      	movs	r2, #1
 800217c:	f000 fdc8 	bl	8002d10 <stm32__spi__spi_portIP>
 8002180:	4b0c      	ldr	r3, [pc, #48]	; (80021b4 <stm32__device___elabs+0xe78>)
 8002182:	681b      	ldr	r3, [r3, #0]
 8002184:	480c      	ldr	r0, [pc, #48]	; (80021b8 <stm32__device___elabs+0xe7c>)
 8002186:	4619      	mov	r1, r3
 8002188:	2201      	movs	r2, #1
 800218a:	f000 fdc1 	bl	8002d10 <stm32__spi__spi_portIP>
 800218e:	46bd      	mov	sp, r7
 8002190:	bd80      	pop	{r7, pc}
 8002192:	bf00      	nop
 8002194:	2000004c 	.word	0x2000004c
 8002198:	200006e4 	.word	0x200006e4
 800219c:	20000050 	.word	0x20000050
 80021a0:	200006fc 	.word	0x200006fc
 80021a4:	20000054 	.word	0x20000054
 80021a8:	20000714 	.word	0x20000714
 80021ac:	20000058 	.word	0x20000058
 80021b0:	2000071c 	.word	0x2000071c
 80021b4:	2000005c 	.word	0x2000005c
 80021b8:	20000724 	.word	0x20000724

080021bc <stm32__gpio__gpio_pinRP>:
 80021bc:	b580      	push	{r7, lr}
 80021be:	b082      	sub	sp, #8
 80021c0:	af00      	add	r7, sp, #0
 80021c2:	4603      	mov	r3, r0
 80021c4:	460a      	mov	r2, r1
 80021c6:	80fb      	strh	r3, [r7, #6]
 80021c8:	4613      	mov	r3, r2
 80021ca:	717b      	strb	r3, [r7, #5]
 80021cc:	88fb      	ldrh	r3, [r7, #6]
 80021ce:	2b80      	cmp	r3, #128	; 0x80
 80021d0:	d042      	beq.n	8002258 <stm32__gpio__gpio_pinRP+0x9c>
 80021d2:	2b80      	cmp	r3, #128	; 0x80
 80021d4:	d811      	bhi.n	80021fa <stm32__gpio__gpio_pinRP+0x3e>
 80021d6:	2b08      	cmp	r3, #8
 80021d8:	d036      	beq.n	8002248 <stm32__gpio__gpio_pinRP+0x8c>
 80021da:	2b08      	cmp	r3, #8
 80021dc:	d806      	bhi.n	80021ec <stm32__gpio__gpio_pinRP+0x30>
 80021de:	2b02      	cmp	r3, #2
 80021e0:	d02e      	beq.n	8002240 <stm32__gpio__gpio_pinRP+0x84>
 80021e2:	2b04      	cmp	r3, #4
 80021e4:	d02e      	beq.n	8002244 <stm32__gpio__gpio_pinRP+0x88>
 80021e6:	2b01      	cmp	r3, #1
 80021e8:	d028      	beq.n	800223c <stm32__gpio__gpio_pinRP+0x80>
 80021ea:	e047      	b.n	800227c <stm32__gpio__gpio_pinRP+0xc0>
 80021ec:	2b20      	cmp	r3, #32
 80021ee:	d02f      	beq.n	8002250 <stm32__gpio__gpio_pinRP+0x94>
 80021f0:	2b40      	cmp	r3, #64	; 0x40
 80021f2:	d02f      	beq.n	8002254 <stm32__gpio__gpio_pinRP+0x98>
 80021f4:	2b10      	cmp	r3, #16
 80021f6:	d029      	beq.n	800224c <stm32__gpio__gpio_pinRP+0x90>
 80021f8:	e040      	b.n	800227c <stm32__gpio__gpio_pinRP+0xc0>
 80021fa:	f5b3 6f00 	cmp.w	r3, #2048	; 0x800
 80021fe:	d033      	beq.n	8002268 <stm32__gpio__gpio_pinRP+0xac>
 8002200:	f5b3 6f00 	cmp.w	r3, #2048	; 0x800
 8002204:	d809      	bhi.n	800221a <stm32__gpio__gpio_pinRP+0x5e>
 8002206:	f5b3 7f00 	cmp.w	r3, #512	; 0x200
 800220a:	d029      	beq.n	8002260 <stm32__gpio__gpio_pinRP+0xa4>
 800220c:	f5b3 6f80 	cmp.w	r3, #1024	; 0x400
 8002210:	d028      	beq.n	8002264 <stm32__gpio__gpio_pinRP+0xa8>
 8002212:	f5b3 7f80 	cmp.w	r3, #256	; 0x100
 8002216:	d021      	beq.n	800225c <stm32__gpio__gpio_pinRP+0xa0>
 8002218:	e030      	b.n	800227c <stm32__gpio__gpio_pinRP+0xc0>
 800221a:	f5b3 5f00 	cmp.w	r3, #8192	; 0x2000
 800221e:	d027      	beq.n	8002270 <stm32__gpio__gpio_pinRP+0xb4>
 8002220:	f5b3 5f00 	cmp.w	r3, #8192	; 0x2000
 8002224:	d803      	bhi.n	800222e <stm32__gpio__gpio_pinRP+0x72>
 8002226:	f5b3 5f80 	cmp.w	r3, #4096	; 0x1000
 800222a:	d01f      	beq.n	800226c <stm32__gpio__gpio_pinRP+0xb0>
 800222c:	e026      	b.n	800227c <stm32__gpio__gpio_pinRP+0xc0>
 800222e:	f5b3 4f80 	cmp.w	r3, #16384	; 0x4000
 8002232:	d01f      	beq.n	8002274 <stm32__gpio__gpio_pinRP+0xb8>
 8002234:	f5b3 4f00 	cmp.w	r3, #32768	; 0x8000
 8002238:	d01e      	beq.n	8002278 <stm32__gpio__gpio_pinRP+0xbc>
 800223a:	e01f      	b.n	800227c <stm32__gpio__gpio_pinRP+0xc0>
 800223c:	2300      	movs	r3, #0
 800223e:	e026      	b.n	800228e <stm32__gpio__gpio_pinRP+0xd2>
 8002240:	2301      	movs	r3, #1
 8002242:	e024      	b.n	800228e <stm32__gpio__gpio_pinRP+0xd2>
 8002244:	2302      	movs	r3, #2
 8002246:	e022      	b.n	800228e <stm32__gpio__gpio_pinRP+0xd2>
 8002248:	2303      	movs	r3, #3
 800224a:	e020      	b.n	800228e <stm32__gpio__gpio_pinRP+0xd2>
 800224c:	2304      	movs	r3, #4
 800224e:	e01e      	b.n	800228e <stm32__gpio__gpio_pinRP+0xd2>
 8002250:	2305      	movs	r3, #5
 8002252:	e01c      	b.n	800228e <stm32__gpio__gpio_pinRP+0xd2>
 8002254:	2306      	movs	r3, #6
 8002256:	e01a      	b.n	800228e <stm32__gpio__gpio_pinRP+0xd2>
 8002258:	2307      	movs	r3, #7
 800225a:	e018      	b.n	800228e <stm32__gpio__gpio_pinRP+0xd2>
 800225c:	2308      	movs	r3, #8
 800225e:	e016      	b.n	800228e <stm32__gpio__gpio_pinRP+0xd2>
 8002260:	2309      	movs	r3, #9
 8002262:	e014      	b.n	800228e <stm32__gpio__gpio_pinRP+0xd2>
 8002264:	230a      	movs	r3, #10
 8002266:	e012      	b.n	800228e <stm32__gpio__gpio_pinRP+0xd2>
 8002268:	230b      	movs	r3, #11
 800226a:	e010      	b.n	800228e <stm32__gpio__gpio_pinRP+0xd2>
 800226c:	230c      	movs	r3, #12
 800226e:	e00e      	b.n	800228e <stm32__gpio__gpio_pinRP+0xd2>
 8002270:	230d      	movs	r3, #13
 8002272:	e00c      	b.n	800228e <stm32__gpio__gpio_pinRP+0xd2>
 8002274:	230e      	movs	r3, #14
 8002276:	e00a      	b.n	800228e <stm32__gpio__gpio_pinRP+0xd2>
 8002278:	230f      	movs	r3, #15
 800227a:	e008      	b.n	800228e <stm32__gpio__gpio_pinRP+0xd2>
 800227c:	797b      	ldrb	r3, [r7, #5]
 800227e:	2b00      	cmp	r3, #0
 8002280:	d003      	beq.n	800228a <stm32__gpio__gpio_pinRP+0xce>
 8002282:	4805      	ldr	r0, [pc, #20]	; (8002298 <stm32__gpio__gpio_pinRP+0xdc>)
 8002284:	2135      	movs	r1, #53	; 0x35
 8002286:	f006 feaf 	bl	8008fe8 <__gnat_rcheck_CE_Invalid_Data>
 800228a:	f04f 33ff 	mov.w	r3, #4294967295
 800228e:	4618      	mov	r0, r3
 8002290:	3708      	adds	r7, #8
 8002292:	46bd      	mov	sp, r7
 8002294:	bd80      	pop	{r7, pc}
 8002296:	bf00      	nop
 8002298:	0800d61c 	.word	0x0800d61c

0800229c <stm32__gpio__gpio_pointIP>:
 800229c:	b580      	push	{r7, lr}
 800229e:	b084      	sub	sp, #16
 80022a0:	af02      	add	r7, sp, #8
 80022a2:	6078      	str	r0, [r7, #4]
 80022a4:	460b      	mov	r3, r1
 80022a6:	70fb      	strb	r3, [r7, #3]
 80022a8:	78fb      	ldrb	r3, [r7, #3]
 80022aa:	2b00      	cmp	r3, #0
 80022ac:	d00b      	beq.n	80022c6 <stm32__gpio__gpio_pointIP+0x2a>
 80022ae:	687b      	ldr	r3, [r7, #4]
 80022b0:	4a08      	ldr	r2, [pc, #32]	; (80022d4 <stm32__gpio__gpio_pointIP+0x38>)
 80022b2:	601a      	str	r2, [r3, #0]
 80022b4:	687a      	ldr	r2, [r7, #4]
 80022b6:	2300      	movs	r3, #0
 80022b8:	9300      	str	r3, [sp, #0]
 80022ba:	4610      	mov	r0, r2
 80022bc:	4906      	ldr	r1, [pc, #24]	; (80022d8 <stm32__gpio__gpio_pointIP+0x3c>)
 80022be:	2201      	movs	r2, #1
 80022c0:	2300      	movs	r3, #0
 80022c2:	f007 f945 	bl	8009550 <ada__tags__register_interface_offset>
 80022c6:	687b      	ldr	r3, [r7, #4]
 80022c8:	2200      	movs	r2, #0
 80022ca:	605a      	str	r2, [r3, #4]
 80022cc:	3708      	adds	r7, #8
 80022ce:	46bd      	mov	sp, r7
 80022d0:	bd80      	pop	{r7, pc}
 80022d2:	bf00      	nop
 80022d4:	0800d5e8 	.word	0x0800d5e8
 80022d8:	0800dbb4 	.word	0x0800dbb4

080022dc <stm32__gpio___size__2>:
 80022dc:	b490      	push	{r4, r7}
 80022de:	b082      	sub	sp, #8
 80022e0:	af00      	add	r7, sp, #0
 80022e2:	6078      	str	r0, [r7, #4]
 80022e4:	f04f 0360 	mov.w	r3, #96	; 0x60
 80022e8:	f04f 0400 	mov.w	r4, #0
 80022ec:	4618      	mov	r0, r3
 80022ee:	4621      	mov	r1, r4
 80022f0:	3708      	adds	r7, #8
 80022f2:	46bd      	mov	sp, r7
 80022f4:	bc90      	pop	{r4, r7}
 80022f6:	4770      	bx	lr

080022f8 <stm32__gpio__gpio_pointSR__2>:
 80022f8:	b580      	push	{r7, lr}
 80022fa:	b084      	sub	sp, #16
 80022fc:	af00      	add	r7, sp, #0
 80022fe:	60f8      	str	r0, [r7, #12]
 8002300:	60b9      	str	r1, [r7, #8]
 8002302:	607a      	str	r2, [r7, #4]
 8002304:	68f8      	ldr	r0, [r7, #12]
 8002306:	f006 fee7 	bl	80090d8 <system__stream_attributes__i_as>
 800230a:	4603      	mov	r3, r0
 800230c:	461a      	mov	r2, r3
 800230e:	68bb      	ldr	r3, [r7, #8]
 8002310:	605a      	str	r2, [r3, #4]
 8002312:	68f8      	ldr	r0, [r7, #12]
 8002314:	f006 ff34 	bl	8009180 <system__stream_attributes__i_su>
 8002318:	4603      	mov	r3, r0
 800231a:	461a      	mov	r2, r3
 800231c:	68bb      	ldr	r3, [r7, #8]
 800231e:	811a      	strh	r2, [r3, #8]
 8002320:	3710      	adds	r7, #16
 8002322:	46bd      	mov	sp, r7
 8002324:	bd80      	pop	{r7, pc}
 8002326:	bf00      	nop

08002328 <stm32__gpio__gpio_pointSW__2>:
 8002328:	b580      	push	{r7, lr}
 800232a:	b084      	sub	sp, #16
 800232c:	af00      	add	r7, sp, #0
 800232e:	60f8      	str	r0, [r7, #12]
 8002330:	60b9      	str	r1, [r7, #8]
 8002332:	607a      	str	r2, [r7, #4]
 8002334:	68bb      	ldr	r3, [r7, #8]
 8002336:	68f8      	ldr	r0, [r7, #12]
 8002338:	6859      	ldr	r1, [r3, #4]
 800233a:	f006 ff59 	bl	80091f0 <system__stream_attributes__w_as>
 800233e:	68bb      	ldr	r3, [r7, #8]
 8002340:	891b      	ldrh	r3, [r3, #8]
 8002342:	68f8      	ldr	r0, [r7, #12]
 8002344:	4619      	mov	r1, r3
 8002346:	f006 ff7f 	bl	8009248 <system__stream_attributes__w_su>
 800234a:	3710      	adds	r7, #16
 800234c:	46bd      	mov	sp, r7
 800234e:	bd80      	pop	{r7, pc}

08002350 <stm32__gpio__gpio_pointSI__2>:
 8002350:	b5b0      	push	{r4, r5, r7, lr}
 8002352:	b086      	sub	sp, #24
 8002354:	af00      	add	r7, sp, #0
 8002356:	6078      	str	r0, [r7, #4]
 8002358:	6039      	str	r1, [r7, #0]
 800235a:	f107 030c 	add.w	r3, r7, #12
 800235e:	4618      	mov	r0, r3
 8002360:	2101      	movs	r1, #1
 8002362:	f7ff ff9b 	bl	800229c <stm32__gpio__gpio_pointIP>
 8002366:	f107 030c 	add.w	r3, r7, #12
 800236a:	6878      	ldr	r0, [r7, #4]
 800236c:	4619      	mov	r1, r3
 800236e:	683a      	ldr	r2, [r7, #0]
 8002370:	f7ff ffc2 	bl	80022f8 <stm32__gpio__gpio_pointSR__2>
 8002374:	200c      	movs	r0, #12
 8002376:	f007 fb85 	bl	8009a84 <system__secondary_stack__ss_allocate>
 800237a:	4605      	mov	r5, r0
 800237c:	462b      	mov	r3, r5
 800237e:	461c      	mov	r4, r3
 8002380:	f107 030c 	add.w	r3, r7, #12
 8002384:	e893 0007 	ldmia.w	r3, {r0, r1, r2}
 8002388:	e884 0007 	stmia.w	r4, {r0, r1, r2}
 800238c:	462b      	mov	r3, r5
 800238e:	4618      	mov	r0, r3
 8002390:	3718      	adds	r7, #24
 8002392:	46bd      	mov	sp, r7
 8002394:	bdb0      	pop	{r4, r5, r7, pc}
 8002396:	bf00      	nop

08002398 <stm32__gpio__gpio_pointSO__2>:
 8002398:	b580      	push	{r7, lr}
 800239a:	b084      	sub	sp, #16
 800239c:	af00      	add	r7, sp, #0
 800239e:	60f8      	str	r0, [r7, #12]
 80023a0:	60b9      	str	r1, [r7, #8]
 80023a2:	607a      	str	r2, [r7, #4]
 80023a4:	68f8      	ldr	r0, [r7, #12]
 80023a6:	68b9      	ldr	r1, [r7, #8]
 80023a8:	687a      	ldr	r2, [r7, #4]
 80023aa:	f7ff ffbd 	bl	8002328 <stm32__gpio__gpio_pointSW__2>
 80023ae:	3710      	adds	r7, #16
 80023b0:	46bd      	mov	sp, r7
 80023b2:	bd80      	pop	{r7, pc}

080023b4 <stm32__gpio__Oeq>:
 80023b4:	b480      	push	{r7}
 80023b6:	b083      	sub	sp, #12
 80023b8:	af00      	add	r7, sp, #0
 80023ba:	6078      	str	r0, [r7, #4]
 80023bc:	6039      	str	r1, [r7, #0]
 80023be:	687b      	ldr	r3, [r7, #4]
 80023c0:	685a      	ldr	r2, [r3, #4]
 80023c2:	683b      	ldr	r3, [r7, #0]
 80023c4:	685b      	ldr	r3, [r3, #4]
 80023c6:	429a      	cmp	r2, r3
 80023c8:	d107      	bne.n	80023da <stm32__gpio__Oeq+0x26>
 80023ca:	687b      	ldr	r3, [r7, #4]
 80023cc:	891a      	ldrh	r2, [r3, #8]
 80023ce:	683b      	ldr	r3, [r7, #0]
 80023d0:	891b      	ldrh	r3, [r3, #8]
 80023d2:	429a      	cmp	r2, r3
 80023d4:	d101      	bne.n	80023da <stm32__gpio__Oeq+0x26>
 80023d6:	2301      	movs	r3, #1
 80023d8:	e000      	b.n	80023dc <stm32__gpio__Oeq+0x28>
 80023da:	2300      	movs	r3, #0
 80023dc:	4618      	mov	r0, r3
 80023de:	370c      	adds	r7, #12
 80023e0:	46bd      	mov	sp, r7
 80023e2:	f85d 7b04 	ldr.w	r7, [sp], #4
 80023e6:	4770      	bx	lr

080023e8 <stm32__gpio___assign>:
 80023e8:	b490      	push	{r4, r7}
 80023ea:	b0ec      	sub	sp, #432	; 0x1b0
 80023ec:	af00      	add	r7, sp, #0
 80023ee:	1d3b      	adds	r3, r7, #4
 80023f0:	6018      	str	r0, [r3, #0]
 80023f2:	463b      	mov	r3, r7
 80023f4:	6019      	str	r1, [r3, #0]
 80023f6:	1d3b      	adds	r3, r7, #4
 80023f8:	681a      	ldr	r2, [r3, #0]
 80023fa:	463b      	mov	r3, r7
 80023fc:	681b      	ldr	r3, [r3, #0]
 80023fe:	429a      	cmp	r2, r3
 8002400:	d00d      	beq.n	800241e <stm32__gpio___assign+0x36>
 8002402:	1d3b      	adds	r3, r7, #4
 8002404:	681b      	ldr	r3, [r3, #0]
 8002406:	681c      	ldr	r4, [r3, #0]
 8002408:	1d3b      	adds	r3, r7, #4
 800240a:	6819      	ldr	r1, [r3, #0]
 800240c:	463b      	mov	r3, r7
 800240e:	681a      	ldr	r2, [r3, #0]
 8002410:	460b      	mov	r3, r1
 8002412:	ca07      	ldmia	r2, {r0, r1, r2}
 8002414:	e883 0007 	stmia.w	r3, {r0, r1, r2}
 8002418:	1d3b      	adds	r3, r7, #4
 800241a:	681b      	ldr	r3, [r3, #0]
 800241c:	601c      	str	r4, [r3, #0]
 800241e:	f507 77d8 	add.w	r7, r7, #432	; 0x1b0
 8002422:	46bd      	mov	sp, r7
 8002424:	bc90      	pop	{r4, r7}
 8002426:	4770      	bx	lr

08002428 <stm32__gpio__gpio_pointDA>:
 8002428:	b480      	push	{r7}
 800242a:	b083      	sub	sp, #12
 800242c:	af00      	add	r7, sp, #0
 800242e:	6078      	str	r0, [r7, #4]
 8002430:	460b      	mov	r3, r1
 8002432:	70fb      	strb	r3, [r7, #3]
 8002434:	370c      	adds	r7, #12
 8002436:	46bd      	mov	sp, r7
 8002438:	f85d 7b04 	ldr.w	r7, [sp], #4
 800243c:	4770      	bx	lr
 800243e:	bf00      	nop

08002440 <stm32__gpio__gpio_pointDF__2>:
 8002440:	b480      	push	{r7}
 8002442:	b083      	sub	sp, #12
 8002444:	af00      	add	r7, sp, #0
 8002446:	6078      	str	r0, [r7, #4]
 8002448:	460b      	mov	r3, r1
 800244a:	70fb      	strb	r3, [r7, #3]
 800244c:	370c      	adds	r7, #12
 800244e:	46bd      	mov	sp, r7
 8002450:	f85d 7b04 	ldr.w	r7, [sp], #4
 8002454:	4770      	bx	lr
 8002456:	bf00      	nop

08002458 <stm32__gpio__mode>:
 8002458:	b580      	push	{r7, lr}
 800245a:	b084      	sub	sp, #16
 800245c:	af00      	add	r7, sp, #0
 800245e:	6078      	str	r0, [r7, #4]
 8002460:	687b      	ldr	r3, [r7, #4]
 8002462:	891b      	ldrh	r3, [r3, #8]
 8002464:	4618      	mov	r0, r3
 8002466:	2101      	movs	r1, #1
 8002468:	f7ff fea8 	bl	80021bc <stm32__gpio__gpio_pinRP>
 800246c:	4603      	mov	r3, r0
 800246e:	2b00      	cmp	r3, #0
 8002470:	db01      	blt.n	8002476 <stm32__gpio__mode+0x1e>
 8002472:	2b0f      	cmp	r3, #15
 8002474:	dd03      	ble.n	800247e <stm32__gpio__mode+0x26>
 8002476:	481a      	ldr	r0, [pc, #104]	; (80024e0 <stm32__gpio__mode+0x88>)
 8002478:	2153      	movs	r1, #83	; 0x53
 800247a:	f006 fdc5 	bl	8009008 <__gnat_rcheck_CE_Range_Check>
 800247e:	687b      	ldr	r3, [r7, #4]
 8002480:	891b      	ldrh	r3, [r3, #8]
 8002482:	4618      	mov	r0, r3
 8002484:	2101      	movs	r1, #1
 8002486:	f7ff fe99 	bl	80021bc <stm32__gpio__gpio_pinRP>
 800248a:	4603      	mov	r3, r0
 800248c:	60fb      	str	r3, [r7, #12]
 800248e:	687b      	ldr	r3, [r7, #4]
 8002490:	685b      	ldr	r3, [r3, #4]
 8002492:	2b00      	cmp	r3, #0
 8002494:	d103      	bne.n	800249e <stm32__gpio__mode+0x46>
 8002496:	4812      	ldr	r0, [pc, #72]	; (80024e0 <stm32__gpio__mode+0x88>)
 8002498:	2155      	movs	r1, #85	; 0x55
 800249a:	f006 fd85 	bl	8008fa8 <__gnat_rcheck_CE_Access_Check>
 800249e:	687b      	ldr	r3, [r7, #4]
 80024a0:	685b      	ldr	r3, [r3, #4]
 80024a2:	681b      	ldr	r3, [r3, #0]
 80024a4:	461a      	mov	r2, r3
 80024a6:	68fb      	ldr	r3, [r7, #12]
 80024a8:	005b      	lsls	r3, r3, #1
 80024aa:	fa22 f303 	lsr.w	r3, r2, r3
 80024ae:	b2db      	uxtb	r3, r3
 80024b0:	f003 0303 	and.w	r3, r3, #3
 80024b4:	b2db      	uxtb	r3, r3
 80024b6:	2b03      	cmp	r3, #3
 80024b8:	d903      	bls.n	80024c2 <stm32__gpio__mode+0x6a>
 80024ba:	4809      	ldr	r0, [pc, #36]	; (80024e0 <stm32__gpio__mode+0x88>)
 80024bc:	2155      	movs	r1, #85	; 0x55
 80024be:	f006 fd93 	bl	8008fe8 <__gnat_rcheck_CE_Invalid_Data>
 80024c2:	2b00      	cmp	r3, #0
 80024c4:	d003      	beq.n	80024ce <stm32__gpio__mode+0x76>
 80024c6:	2b01      	cmp	r3, #1
 80024c8:	d103      	bne.n	80024d2 <stm32__gpio__mode+0x7a>
 80024ca:	2302      	movs	r3, #2
 80024cc:	e002      	b.n	80024d4 <stm32__gpio__mode+0x7c>
 80024ce:	2301      	movs	r3, #1
 80024d0:	e000      	b.n	80024d4 <stm32__gpio__mode+0x7c>
 80024d2:	2300      	movs	r3, #0
 80024d4:	bf00      	nop
 80024d6:	4618      	mov	r0, r3
 80024d8:	3710      	adds	r7, #16
 80024da:	46bd      	mov	sp, r7
 80024dc:	bd80      	pop	{r7, pc}
 80024de:	bf00      	nop
 80024e0:	0800d62c 	.word	0x0800d62c

080024e4 <stm32__gpio__set_mode>:
 80024e4:	b580      	push	{r7, lr}
 80024e6:	b086      	sub	sp, #24
 80024e8:	af00      	add	r7, sp, #0
 80024ea:	6078      	str	r0, [r7, #4]
 80024ec:	460b      	mov	r3, r1
 80024ee:	70fb      	strb	r3, [r7, #3]
 80024f0:	687b      	ldr	r3, [r7, #4]
 80024f2:	891b      	ldrh	r3, [r3, #8]
 80024f4:	4618      	mov	r0, r3
 80024f6:	2101      	movs	r1, #1
 80024f8:	f7ff fe60 	bl	80021bc <stm32__gpio__gpio_pinRP>
 80024fc:	4603      	mov	r3, r0
 80024fe:	2b00      	cmp	r3, #0
 8002500:	db01      	blt.n	8002506 <stm32__gpio__set_mode+0x22>
 8002502:	2b0f      	cmp	r3, #15
 8002504:	dd03      	ble.n	800250e <stm32__gpio__set_mode+0x2a>
 8002506:	482a      	ldr	r0, [pc, #168]	; (80025b0 <stm32__gpio__set_mode+0xcc>)
 8002508:	2166      	movs	r1, #102	; 0x66
 800250a:	f006 fd7d 	bl	8009008 <__gnat_rcheck_CE_Range_Check>
 800250e:	617b      	str	r3, [r7, #20]
 8002510:	78fb      	ldrb	r3, [r7, #3]
 8002512:	2b00      	cmp	r3, #0
 8002514:	d002      	beq.n	800251c <stm32__gpio__set_mode+0x38>
 8002516:	78fb      	ldrb	r3, [r7, #3]
 8002518:	2b02      	cmp	r3, #2
 800251a:	d903      	bls.n	8002524 <stm32__gpio__set_mode+0x40>
 800251c:	4824      	ldr	r0, [pc, #144]	; (80025b0 <stm32__gpio__set_mode+0xcc>)
 800251e:	2168      	movs	r1, #104	; 0x68
 8002520:	f006 fd62 	bl	8008fe8 <__gnat_rcheck_CE_Invalid_Data>
 8002524:	78fb      	ldrb	r3, [r7, #3]
 8002526:	2b02      	cmp	r3, #2
 8002528:	d121      	bne.n	800256e <stm32__gpio__set_mode+0x8a>
 800252a:	687b      	ldr	r3, [r7, #4]
 800252c:	685b      	ldr	r3, [r3, #4]
 800252e:	2b00      	cmp	r3, #0
 8002530:	d103      	bne.n	800253a <stm32__gpio__set_mode+0x56>
 8002532:	481f      	ldr	r0, [pc, #124]	; (80025b0 <stm32__gpio__set_mode+0xcc>)
 8002534:	216a      	movs	r1, #106	; 0x6a
 8002536:	f006 fd37 	bl	8008fa8 <__gnat_rcheck_CE_Access_Check>
 800253a:	687b      	ldr	r3, [r7, #4]
 800253c:	6859      	ldr	r1, [r3, #4]
 800253e:	460b      	mov	r3, r1
 8002540:	681b      	ldr	r3, [r3, #0]
 8002542:	613b      	str	r3, [r7, #16]
 8002544:	460b      	mov	r3, r1
 8002546:	681b      	ldr	r3, [r3, #0]
 8002548:	461a      	mov	r2, r3
 800254a:	693a      	ldr	r2, [r7, #16]
 800254c:	697b      	ldr	r3, [r7, #20]
 800254e:	005b      	lsls	r3, r3, #1
 8002550:	2003      	movs	r0, #3
 8002552:	fa00 f303 	lsl.w	r3, r0, r3
 8002556:	43db      	mvns	r3, r3
 8002558:	401a      	ands	r2, r3
 800255a:	697b      	ldr	r3, [r7, #20]
 800255c:	005b      	lsls	r3, r3, #1
 800255e:	2001      	movs	r0, #1
 8002560:	fa00 f303 	lsl.w	r3, r0, r3
 8002564:	4313      	orrs	r3, r2
 8002566:	461a      	mov	r2, r3
 8002568:	460b      	mov	r3, r1
 800256a:	601a      	str	r2, [r3, #0]
 800256c:	e01a      	b.n	80025a4 <stm32__gpio__set_mode+0xc0>
 800256e:	687b      	ldr	r3, [r7, #4]
 8002570:	685b      	ldr	r3, [r3, #4]
 8002572:	2b00      	cmp	r3, #0
 8002574:	d103      	bne.n	800257e <stm32__gpio__set_mode+0x9a>
 8002576:	480e      	ldr	r0, [pc, #56]	; (80025b0 <stm32__gpio__set_mode+0xcc>)
 8002578:	216c      	movs	r1, #108	; 0x6c
 800257a:	f006 fd15 	bl	8008fa8 <__gnat_rcheck_CE_Access_Check>
 800257e:	687b      	ldr	r3, [r7, #4]
 8002580:	6859      	ldr	r1, [r3, #4]
 8002582:	460b      	mov	r3, r1
 8002584:	681b      	ldr	r3, [r3, #0]
 8002586:	60fb      	str	r3, [r7, #12]
 8002588:	460b      	mov	r3, r1
 800258a:	681b      	ldr	r3, [r3, #0]
 800258c:	461a      	mov	r2, r3
 800258e:	68fa      	ldr	r2, [r7, #12]
 8002590:	697b      	ldr	r3, [r7, #20]
 8002592:	005b      	lsls	r3, r3, #1
 8002594:	2003      	movs	r0, #3
 8002596:	fa00 f303 	lsl.w	r3, r0, r3
 800259a:	43db      	mvns	r3, r3
 800259c:	4013      	ands	r3, r2
 800259e:	461a      	mov	r2, r3
 80025a0:	460b      	mov	r3, r1
 80025a2:	601a      	str	r2, [r3, #0]
 80025a4:	2301      	movs	r3, #1
 80025a6:	bf00      	nop
 80025a8:	4618      	mov	r0, r3
 80025aa:	3718      	adds	r7, #24
 80025ac:	46bd      	mov	sp, r7
 80025ae:	bd80      	pop	{r7, pc}
 80025b0:	0800d62c 	.word	0x0800d62c

080025b4 <stm32__gpio__pull_resistor>:
 80025b4:	b580      	push	{r7, lr}
 80025b6:	b084      	sub	sp, #16
 80025b8:	af00      	add	r7, sp, #0
 80025ba:	6078      	str	r0, [r7, #4]
 80025bc:	687b      	ldr	r3, [r7, #4]
 80025be:	891b      	ldrh	r3, [r3, #8]
 80025c0:	4618      	mov	r0, r3
 80025c2:	2101      	movs	r1, #1
 80025c4:	f7ff fdfa 	bl	80021bc <stm32__gpio__gpio_pinRP>
 80025c8:	4603      	mov	r3, r0
 80025ca:	2b00      	cmp	r3, #0
 80025cc:	db01      	blt.n	80025d2 <stm32__gpio__pull_resistor+0x1e>
 80025ce:	2b0f      	cmp	r3, #15
 80025d0:	dd03      	ble.n	80025da <stm32__gpio__pull_resistor+0x26>
 80025d2:	4822      	ldr	r0, [pc, #136]	; (800265c <stm32__gpio__pull_resistor+0xa8>)
 80025d4:	217a      	movs	r1, #122	; 0x7a
 80025d6:	f006 fd17 	bl	8009008 <__gnat_rcheck_CE_Range_Check>
 80025da:	687b      	ldr	r3, [r7, #4]
 80025dc:	891b      	ldrh	r3, [r3, #8]
 80025de:	4618      	mov	r0, r3
 80025e0:	2101      	movs	r1, #1
 80025e2:	f7ff fdeb 	bl	80021bc <stm32__gpio__gpio_pinRP>
 80025e6:	4603      	mov	r3, r0
 80025e8:	60fb      	str	r3, [r7, #12]
 80025ea:	687b      	ldr	r3, [r7, #4]
 80025ec:	685b      	ldr	r3, [r3, #4]
 80025ee:	2b00      	cmp	r3, #0
 80025f0:	d103      	bne.n	80025fa <stm32__gpio__pull_resistor+0x46>
 80025f2:	481a      	ldr	r0, [pc, #104]	; (800265c <stm32__gpio__pull_resistor+0xa8>)
 80025f4:	217c      	movs	r1, #124	; 0x7c
 80025f6:	f006 fcd7 	bl	8008fa8 <__gnat_rcheck_CE_Access_Check>
 80025fa:	687b      	ldr	r3, [r7, #4]
 80025fc:	685b      	ldr	r3, [r3, #4]
 80025fe:	330c      	adds	r3, #12
 8002600:	681b      	ldr	r3, [r3, #0]
 8002602:	461a      	mov	r2, r3
 8002604:	68fb      	ldr	r3, [r7, #12]
 8002606:	005b      	lsls	r3, r3, #1
 8002608:	fa22 f303 	lsr.w	r3, r2, r3
 800260c:	b2db      	uxtb	r3, r3
 800260e:	f003 0303 	and.w	r3, r3, #3
 8002612:	b2db      	uxtb	r3, r3
 8002614:	2b00      	cmp	r3, #0
 8002616:	d101      	bne.n	800261c <stm32__gpio__pull_resistor+0x68>
 8002618:	2300      	movs	r3, #0
 800261a:	e019      	b.n	8002650 <stm32__gpio__pull_resistor+0x9c>
 800261c:	687b      	ldr	r3, [r7, #4]
 800261e:	685b      	ldr	r3, [r3, #4]
 8002620:	2b00      	cmp	r3, #0
 8002622:	d103      	bne.n	800262c <stm32__gpio__pull_resistor+0x78>
 8002624:	480d      	ldr	r0, [pc, #52]	; (800265c <stm32__gpio__pull_resistor+0xa8>)
 8002626:	217e      	movs	r1, #126	; 0x7e
 8002628:	f006 fcbe 	bl	8008fa8 <__gnat_rcheck_CE_Access_Check>
 800262c:	687b      	ldr	r3, [r7, #4]
 800262e:	685b      	ldr	r3, [r3, #4]
 8002630:	330c      	adds	r3, #12
 8002632:	681b      	ldr	r3, [r3, #0]
 8002634:	461a      	mov	r2, r3
 8002636:	68fb      	ldr	r3, [r7, #12]
 8002638:	005b      	lsls	r3, r3, #1
 800263a:	fa22 f303 	lsr.w	r3, r2, r3
 800263e:	b2db      	uxtb	r3, r3
 8002640:	f003 0303 	and.w	r3, r3, #3
 8002644:	b2db      	uxtb	r3, r3
 8002646:	2b01      	cmp	r3, #1
 8002648:	d101      	bne.n	800264e <stm32__gpio__pull_resistor+0x9a>
 800264a:	2301      	movs	r3, #1
 800264c:	e000      	b.n	8002650 <stm32__gpio__pull_resistor+0x9c>
 800264e:	2302      	movs	r3, #2
 8002650:	bf00      	nop
 8002652:	4618      	mov	r0, r3
 8002654:	3710      	adds	r7, #16
 8002656:	46bd      	mov	sp, r7
 8002658:	bd80      	pop	{r7, pc}
 800265a:	bf00      	nop
 800265c:	0800d62c 	.word	0x0800d62c

08002660 <stm32__gpio__set_pull_resistor>:
 8002660:	b580      	push	{r7, lr}
 8002662:	b086      	sub	sp, #24
 8002664:	af00      	add	r7, sp, #0
 8002666:	6078      	str	r0, [r7, #4]
 8002668:	460b      	mov	r3, r1
 800266a:	70fb      	strb	r3, [r7, #3]
 800266c:	687b      	ldr	r3, [r7, #4]
 800266e:	891b      	ldrh	r3, [r3, #8]
 8002670:	4618      	mov	r0, r3
 8002672:	2101      	movs	r1, #1
 8002674:	f7ff fda2 	bl	80021bc <stm32__gpio__gpio_pinRP>
 8002678:	4603      	mov	r3, r0
 800267a:	2b00      	cmp	r3, #0
 800267c:	db01      	blt.n	8002682 <stm32__gpio__set_pull_resistor+0x22>
 800267e:	2b0f      	cmp	r3, #15
 8002680:	dd03      	ble.n	800268a <stm32__gpio__set_pull_resistor+0x2a>
 8002682:	483c      	ldr	r0, [pc, #240]	; (8002774 <stm32__gpio__set_pull_resistor+0x114>)
 8002684:	218f      	movs	r1, #143	; 0x8f
 8002686:	f006 fcbf 	bl	8009008 <__gnat_rcheck_CE_Range_Check>
 800268a:	617b      	str	r3, [r7, #20]
 800268c:	78fb      	ldrb	r3, [r7, #3]
 800268e:	2b02      	cmp	r3, #2
 8002690:	d903      	bls.n	800269a <stm32__gpio__set_pull_resistor+0x3a>
 8002692:	4838      	ldr	r0, [pc, #224]	; (8002774 <stm32__gpio__set_pull_resistor+0x114>)
 8002694:	2191      	movs	r1, #145	; 0x91
 8002696:	f006 fca7 	bl	8008fe8 <__gnat_rcheck_CE_Invalid_Data>
 800269a:	78fb      	ldrb	r3, [r7, #3]
 800269c:	2b00      	cmp	r3, #0
 800269e:	d002      	beq.n	80026a6 <stm32__gpio__set_pull_resistor+0x46>
 80026a0:	2b01      	cmp	r3, #1
 80026a2:	d01c      	beq.n	80026de <stm32__gpio__set_pull_resistor+0x7e>
 80026a4:	e03d      	b.n	8002722 <stm32__gpio__set_pull_resistor+0xc2>
 80026a6:	687b      	ldr	r3, [r7, #4]
 80026a8:	685b      	ldr	r3, [r3, #4]
 80026aa:	2b00      	cmp	r3, #0
 80026ac:	d103      	bne.n	80026b6 <stm32__gpio__set_pull_resistor+0x56>
 80026ae:	4831      	ldr	r0, [pc, #196]	; (8002774 <stm32__gpio__set_pull_resistor+0x114>)
 80026b0:	2193      	movs	r1, #147	; 0x93
 80026b2:	f006 fc79 	bl	8008fa8 <__gnat_rcheck_CE_Access_Check>
 80026b6:	687b      	ldr	r3, [r7, #4]
 80026b8:	685b      	ldr	r3, [r3, #4]
 80026ba:	f103 020c 	add.w	r2, r3, #12
 80026be:	6812      	ldr	r2, [r2, #0]
 80026c0:	613a      	str	r2, [r7, #16]
 80026c2:	f103 020c 	add.w	r2, r3, #12
 80026c6:	6812      	ldr	r2, [r2, #0]
 80026c8:	6939      	ldr	r1, [r7, #16]
 80026ca:	697a      	ldr	r2, [r7, #20]
 80026cc:	0052      	lsls	r2, r2, #1
 80026ce:	2003      	movs	r0, #3
 80026d0:	fa00 f202 	lsl.w	r2, r0, r2
 80026d4:	43d2      	mvns	r2, r2
 80026d6:	400a      	ands	r2, r1
 80026d8:	330c      	adds	r3, #12
 80026da:	601a      	str	r2, [r3, #0]
 80026dc:	e042      	b.n	8002764 <stm32__gpio__set_pull_resistor+0x104>
 80026de:	687b      	ldr	r3, [r7, #4]
 80026e0:	685b      	ldr	r3, [r3, #4]
 80026e2:	2b00      	cmp	r3, #0
 80026e4:	d103      	bne.n	80026ee <stm32__gpio__set_pull_resistor+0x8e>
 80026e6:	4823      	ldr	r0, [pc, #140]	; (8002774 <stm32__gpio__set_pull_resistor+0x114>)
 80026e8:	2195      	movs	r1, #149	; 0x95
 80026ea:	f006 fc5d 	bl	8008fa8 <__gnat_rcheck_CE_Access_Check>
 80026ee:	687b      	ldr	r3, [r7, #4]
 80026f0:	685b      	ldr	r3, [r3, #4]
 80026f2:	f103 020c 	add.w	r2, r3, #12
 80026f6:	6812      	ldr	r2, [r2, #0]
 80026f8:	60fa      	str	r2, [r7, #12]
 80026fa:	f103 020c 	add.w	r2, r3, #12
 80026fe:	6812      	ldr	r2, [r2, #0]
 8002700:	68f9      	ldr	r1, [r7, #12]
 8002702:	697a      	ldr	r2, [r7, #20]
 8002704:	0052      	lsls	r2, r2, #1
 8002706:	2003      	movs	r0, #3
 8002708:	fa00 f202 	lsl.w	r2, r0, r2
 800270c:	43d2      	mvns	r2, r2
 800270e:	4011      	ands	r1, r2
 8002710:	697a      	ldr	r2, [r7, #20]
 8002712:	0052      	lsls	r2, r2, #1
 8002714:	2001      	movs	r0, #1
 8002716:	fa00 f202 	lsl.w	r2, r0, r2
 800271a:	430a      	orrs	r2, r1
 800271c:	330c      	adds	r3, #12
 800271e:	601a      	str	r2, [r3, #0]
 8002720:	e020      	b.n	8002764 <stm32__gpio__set_pull_resistor+0x104>
 8002722:	687b      	ldr	r3, [r7, #4]
 8002724:	685b      	ldr	r3, [r3, #4]
 8002726:	2b00      	cmp	r3, #0
 8002728:	d103      	bne.n	8002732 <stm32__gpio__set_pull_resistor+0xd2>
 800272a:	4812      	ldr	r0, [pc, #72]	; (8002774 <stm32__gpio__set_pull_resistor+0x114>)
 800272c:	2197      	movs	r1, #151	; 0x97
 800272e:	f006 fc3b 	bl	8008fa8 <__gnat_rcheck_CE_Access_Check>
 8002732:	687b      	ldr	r3, [r7, #4]
 8002734:	685b      	ldr	r3, [r3, #4]
 8002736:	f103 020c 	add.w	r2, r3, #12
 800273a:	6812      	ldr	r2, [r2, #0]
 800273c:	60ba      	str	r2, [r7, #8]
 800273e:	f103 020c 	add.w	r2, r3, #12
 8002742:	6812      	ldr	r2, [r2, #0]
 8002744:	68b9      	ldr	r1, [r7, #8]
 8002746:	697a      	ldr	r2, [r7, #20]
 8002748:	0052      	lsls	r2, r2, #1
 800274a:	2003      	movs	r0, #3
 800274c:	fa00 f202 	lsl.w	r2, r0, r2
 8002750:	43d2      	mvns	r2, r2
 8002752:	4011      	ands	r1, r2
 8002754:	697a      	ldr	r2, [r7, #20]
 8002756:	0052      	lsls	r2, r2, #1
 8002758:	2002      	movs	r0, #2
 800275a:	fa00 f202 	lsl.w	r2, r0, r2
 800275e:	430a      	orrs	r2, r1
 8002760:	330c      	adds	r3, #12
 8002762:	601a      	str	r2, [r3, #0]
 8002764:	bf00      	nop
 8002766:	2301      	movs	r3, #1
 8002768:	bf00      	nop
 800276a:	4618      	mov	r0, r3
 800276c:	3718      	adds	r7, #24
 800276e:	46bd      	mov	sp, r7
 8002770:	bd80      	pop	{r7, pc}
 8002772:	bf00      	nop
 8002774:	0800d62c 	.word	0x0800d62c

08002778 <stm32__gpio__set>:
 8002778:	b580      	push	{r7, lr}
 800277a:	b084      	sub	sp, #16
 800277c:	af00      	add	r7, sp, #0
 800277e:	6078      	str	r0, [r7, #4]
 8002780:	687b      	ldr	r3, [r7, #4]
 8002782:	891b      	ldrh	r3, [r3, #8]
 8002784:	81fb      	strh	r3, [r7, #14]
 8002786:	687b      	ldr	r3, [r7, #4]
 8002788:	685b      	ldr	r3, [r3, #4]
 800278a:	2b00      	cmp	r3, #0
 800278c:	d103      	bne.n	8002796 <stm32__gpio__set+0x1e>
 800278e:	480b      	ldr	r0, [pc, #44]	; (80027bc <stm32__gpio__set+0x44>)
 8002790:	21a4      	movs	r1, #164	; 0xa4
 8002792:	f006 fc09 	bl	8008fa8 <__gnat_rcheck_CE_Access_Check>
 8002796:	687b      	ldr	r3, [r7, #4]
 8002798:	685b      	ldr	r3, [r3, #4]
 800279a:	3310      	adds	r3, #16
 800279c:	681b      	ldr	r3, [r3, #0]
 800279e:	b29a      	uxth	r2, r3
 80027a0:	89fb      	ldrh	r3, [r7, #14]
 80027a2:	4013      	ands	r3, r2
 80027a4:	b29b      	uxth	r3, r3
 80027a6:	89fa      	ldrh	r2, [r7, #14]
 80027a8:	429a      	cmp	r2, r3
 80027aa:	bf0c      	ite	eq
 80027ac:	2301      	moveq	r3, #1
 80027ae:	2300      	movne	r3, #0
 80027b0:	b2db      	uxtb	r3, r3
 80027b2:	bf00      	nop
 80027b4:	4618      	mov	r0, r3
 80027b6:	3710      	adds	r7, #16
 80027b8:	46bd      	mov	sp, r7
 80027ba:	bd80      	pop	{r7, pc}
 80027bc:	0800d62c 	.word	0x0800d62c

080027c0 <stm32__gpio__set__2>:
 80027c0:	b5b0      	push	{r4, r5, r7, lr}
 80027c2:	b082      	sub	sp, #8
 80027c4:	af00      	add	r7, sp, #0
 80027c6:	6078      	str	r0, [r7, #4]
 80027c8:	6878      	ldr	r0, [r7, #4]
 80027ca:	f7ff fe45 	bl	8002458 <stm32__gpio__mode>
 80027ce:	4603      	mov	r3, r0
 80027d0:	2b02      	cmp	r3, #2
 80027d2:	d005      	beq.n	80027e0 <stm32__gpio__set__2+0x20>
 80027d4:	4c0e      	ldr	r4, [pc, #56]	; (8002810 <stm32__gpio__set__2+0x50>)
 80027d6:	4d0f      	ldr	r5, [pc, #60]	; (8002814 <stm32__gpio__set__2+0x54>)
 80027d8:	4620      	mov	r0, r4
 80027da:	4629      	mov	r1, r5
 80027dc:	f007 f92c 	bl	8009a38 <system__assertions__raise_assert_failure>
 80027e0:	687b      	ldr	r3, [r7, #4]
 80027e2:	685b      	ldr	r3, [r3, #4]
 80027e4:	2b00      	cmp	r3, #0
 80027e6:	d103      	bne.n	80027f0 <stm32__gpio__set__2+0x30>
 80027e8:	480b      	ldr	r0, [pc, #44]	; (8002818 <stm32__gpio__set__2+0x58>)
 80027ea:	21bd      	movs	r1, #189	; 0xbd
 80027ec:	f006 fbdc 	bl	8008fa8 <__gnat_rcheck_CE_Access_Check>
 80027f0:	687b      	ldr	r3, [r7, #4]
 80027f2:	685b      	ldr	r3, [r3, #4]
 80027f4:	3318      	adds	r3, #24
 80027f6:	681b      	ldr	r3, [r3, #0]
 80027f8:	687a      	ldr	r2, [r7, #4]
 80027fa:	8912      	ldrh	r2, [r2, #8]
 80027fc:	f362 030f 	bfi	r3, r2, #0, #16
 8002800:	687a      	ldr	r2, [r7, #4]
 8002802:	6852      	ldr	r2, [r2, #4]
 8002804:	3218      	adds	r2, #24
 8002806:	6013      	str	r3, [r2, #0]
 8002808:	3708      	adds	r7, #8
 800280a:	46bd      	mov	sp, r7
 800280c:	bdb0      	pop	{r4, r5, r7, pc}
 800280e:	bf00      	nop
 8002810:	0800d63c 	.word	0x0800d63c
 8002814:	0800d670 	.word	0x0800d670
 8002818:	0800d62c 	.word	0x0800d62c

0800281c <stm32__gpio__clear>:
 800281c:	b5b0      	push	{r4, r5, r7, lr}
 800281e:	b082      	sub	sp, #8
 8002820:	af00      	add	r7, sp, #0
 8002822:	6078      	str	r0, [r7, #4]
 8002824:	6878      	ldr	r0, [r7, #4]
 8002826:	f7ff fe17 	bl	8002458 <stm32__gpio__mode>
 800282a:	4603      	mov	r3, r0
 800282c:	2b02      	cmp	r3, #2
 800282e:	d005      	beq.n	800283c <stm32__gpio__clear+0x20>
 8002830:	4c0e      	ldr	r4, [pc, #56]	; (800286c <stm32__gpio__clear+0x50>)
 8002832:	4d0f      	ldr	r5, [pc, #60]	; (8002870 <stm32__gpio__clear+0x54>)
 8002834:	4620      	mov	r0, r4
 8002836:	4629      	mov	r1, r5
 8002838:	f007 f8fe 	bl	8009a38 <system__assertions__raise_assert_failure>
 800283c:	687b      	ldr	r3, [r7, #4]
 800283e:	685b      	ldr	r3, [r3, #4]
 8002840:	2b00      	cmp	r3, #0
 8002842:	d103      	bne.n	800284c <stm32__gpio__clear+0x30>
 8002844:	480b      	ldr	r0, [pc, #44]	; (8002874 <stm32__gpio__clear+0x58>)
 8002846:	21d4      	movs	r1, #212	; 0xd4
 8002848:	f006 fbae 	bl	8008fa8 <__gnat_rcheck_CE_Access_Check>
 800284c:	687b      	ldr	r3, [r7, #4]
 800284e:	685b      	ldr	r3, [r3, #4]
 8002850:	3318      	adds	r3, #24
 8002852:	681b      	ldr	r3, [r3, #0]
 8002854:	687a      	ldr	r2, [r7, #4]
 8002856:	8912      	ldrh	r2, [r2, #8]
 8002858:	f362 431f 	bfi	r3, r2, #16, #16
 800285c:	687a      	ldr	r2, [r7, #4]
 800285e:	6852      	ldr	r2, [r2, #4]
 8002860:	3218      	adds	r2, #24
 8002862:	6013      	str	r3, [r2, #0]
 8002864:	3708      	adds	r7, #8
 8002866:	46bd      	mov	sp, r7
 8002868:	bdb0      	pop	{r4, r5, r7, pc}
 800286a:	bf00      	nop
 800286c:	0800d678 	.word	0x0800d678
 8002870:	0800d670 	.word	0x0800d670
 8002874:	0800d62c 	.word	0x0800d62c

08002878 <stm32__gpio__toggle>:
 8002878:	b5b0      	push	{r4, r5, r7, lr}
 800287a:	b082      	sub	sp, #8
 800287c:	af00      	add	r7, sp, #0
 800287e:	6078      	str	r0, [r7, #4]
 8002880:	6878      	ldr	r0, [r7, #4]
 8002882:	f7ff fde9 	bl	8002458 <stm32__gpio__mode>
 8002886:	4603      	mov	r3, r0
 8002888:	2b02      	cmp	r3, #2
 800288a:	d005      	beq.n	8002898 <stm32__gpio__toggle+0x20>
 800288c:	4c15      	ldr	r4, [pc, #84]	; (80028e4 <stm32__gpio__toggle+0x6c>)
 800288e:	4d16      	ldr	r5, [pc, #88]	; (80028e8 <stm32__gpio__toggle+0x70>)
 8002890:	4620      	mov	r0, r4
 8002892:	4629      	mov	r1, r5
 8002894:	f007 f8d0 	bl	8009a38 <system__assertions__raise_assert_failure>
 8002898:	687b      	ldr	r3, [r7, #4]
 800289a:	685b      	ldr	r3, [r3, #4]
 800289c:	2b00      	cmp	r3, #0
 800289e:	d103      	bne.n	80028a8 <stm32__gpio__toggle+0x30>
 80028a0:	4812      	ldr	r0, [pc, #72]	; (80028ec <stm32__gpio__toggle+0x74>)
 80028a2:	21eb      	movs	r1, #235	; 0xeb
 80028a4:	f006 fb80 	bl	8008fa8 <__gnat_rcheck_CE_Access_Check>
 80028a8:	687b      	ldr	r3, [r7, #4]
 80028aa:	685b      	ldr	r3, [r3, #4]
 80028ac:	2b00      	cmp	r3, #0
 80028ae:	d103      	bne.n	80028b8 <stm32__gpio__toggle+0x40>
 80028b0:	480e      	ldr	r0, [pc, #56]	; (80028ec <stm32__gpio__toggle+0x74>)
 80028b2:	21eb      	movs	r1, #235	; 0xeb
 80028b4:	f006 fb78 	bl	8008fa8 <__gnat_rcheck_CE_Access_Check>
 80028b8:	687b      	ldr	r3, [r7, #4]
 80028ba:	685b      	ldr	r3, [r3, #4]
 80028bc:	3314      	adds	r3, #20
 80028be:	681b      	ldr	r3, [r3, #0]
 80028c0:	687a      	ldr	r2, [r7, #4]
 80028c2:	6852      	ldr	r2, [r2, #4]
 80028c4:	3214      	adds	r2, #20
 80028c6:	6812      	ldr	r2, [r2, #0]
 80028c8:	b291      	uxth	r1, r2
 80028ca:	687a      	ldr	r2, [r7, #4]
 80028cc:	8912      	ldrh	r2, [r2, #8]
 80028ce:	404a      	eors	r2, r1
 80028d0:	b292      	uxth	r2, r2
 80028d2:	f362 030f 	bfi	r3, r2, #0, #16
 80028d6:	687a      	ldr	r2, [r7, #4]
 80028d8:	6852      	ldr	r2, [r2, #4]
 80028da:	3214      	adds	r2, #20
 80028dc:	6013      	str	r3, [r2, #0]
 80028de:	3708      	adds	r7, #8
 80028e0:	46bd      	mov	sp, r7
 80028e2:	bdb0      	pop	{r4, r5, r7, pc}
 80028e4:	0800d6ac 	.word	0x0800d6ac
 80028e8:	0800d670 	.word	0x0800d670
 80028ec:	0800d62c 	.word	0x0800d62c

080028f0 <stm32__gpio__locked>:
 80028f0:	b580      	push	{r7, lr}
 80028f2:	b084      	sub	sp, #16
 80028f4:	af00      	add	r7, sp, #0
 80028f6:	6078      	str	r0, [r7, #4]
 80028f8:	687b      	ldr	r3, [r7, #4]
 80028fa:	891b      	ldrh	r3, [r3, #8]
 80028fc:	81fb      	strh	r3, [r7, #14]
 80028fe:	687b      	ldr	r3, [r7, #4]
 8002900:	685b      	ldr	r3, [r3, #4]
 8002902:	2b00      	cmp	r3, #0
 8002904:	d104      	bne.n	8002910 <stm32__gpio__locked+0x20>
 8002906:	480c      	ldr	r0, [pc, #48]	; (8002938 <stm32__gpio__locked+0x48>)
 8002908:	f44f 7180 	mov.w	r1, #256	; 0x100
 800290c:	f006 fb4c 	bl	8008fa8 <__gnat_rcheck_CE_Access_Check>
 8002910:	687b      	ldr	r3, [r7, #4]
 8002912:	685b      	ldr	r3, [r3, #4]
 8002914:	331c      	adds	r3, #28
 8002916:	681b      	ldr	r3, [r3, #0]
 8002918:	b29a      	uxth	r2, r3
 800291a:	89fb      	ldrh	r3, [r7, #14]
 800291c:	4013      	ands	r3, r2
 800291e:	b29b      	uxth	r3, r3
 8002920:	89fa      	ldrh	r2, [r7, #14]
 8002922:	429a      	cmp	r2, r3
 8002924:	bf0c      	ite	eq
 8002926:	2301      	moveq	r3, #1
 8002928:	2300      	movne	r3, #0
 800292a:	b2db      	uxtb	r3, r3
 800292c:	bf00      	nop
 800292e:	4618      	mov	r0, r3
 8002930:	3710      	adds	r7, #16
 8002932:	46bd      	mov	sp, r7
 8002934:	bd80      	pop	{r7, pc}
 8002936:	bf00      	nop
 8002938:	0800d62c 	.word	0x0800d62c

0800293c <stm32__gpio__lock_the_pin>:
 800293c:	b480      	push	{r7}
 800293e:	b085      	sub	sp, #20
 8002940:	af00      	add	r7, sp, #0
 8002942:	6078      	str	r0, [r7, #4]
 8002944:	460b      	mov	r3, r1
 8002946:	807b      	strh	r3, [r7, #2]
 8002948:	6879      	ldr	r1, [r7, #4]
 800294a:	8878      	ldrh	r0, [r7, #2]
 800294c:	f440 3380 	orr.w	r3, r0, #65536	; 0x10000
 8002950:	60fb      	str	r3, [r7, #12]
 8002952:	68fb      	ldr	r3, [r7, #12]
 8002954:	61cb      	str	r3, [r1, #28]
 8002956:	61c8      	str	r0, [r1, #28]
 8002958:	68fb      	ldr	r3, [r7, #12]
 800295a:	61cb      	str	r3, [r1, #28]
 800295c:	69cb      	ldr	r3, [r1, #28]
 800295e:	60fb      	str	r3, [r7, #12]
 8002960:	69cb      	ldr	r3, [r1, #28]
 8002962:	60fb      	str	r3, [r7, #12]
 8002964:	3714      	adds	r7, #20
 8002966:	46bd      	mov	sp, r7
 8002968:	f85d 7b04 	ldr.w	r7, [sp], #4
 800296c:	4770      	bx	lr
 800296e:	bf00      	nop

08002970 <stm32__gpio__lock___postconditions.5851>:
 8002970:	b5b0      	push	{r4, r5, r7, lr}
 8002972:	b082      	sub	sp, #8
 8002974:	af00      	add	r7, sp, #0
 8002976:	4663      	mov	r3, ip
 8002978:	f8c7 c004 	str.w	ip, [r7, #4]
 800297c:	681b      	ldr	r3, [r3, #0]
 800297e:	4618      	mov	r0, r3
 8002980:	f7ff ffb6 	bl	80028f0 <stm32__gpio__locked>
 8002984:	4603      	mov	r3, r0
 8002986:	f083 0301 	eor.w	r3, r3, #1
 800298a:	b2db      	uxtb	r3, r3
 800298c:	2b00      	cmp	r3, #0
 800298e:	d005      	beq.n	800299c <stm32__gpio__lock___postconditions.5851+0x2c>
 8002990:	4c04      	ldr	r4, [pc, #16]	; (80029a4 <stm32__gpio__lock___postconditions.5851+0x34>)
 8002992:	4d05      	ldr	r5, [pc, #20]	; (80029a8 <stm32__gpio__lock___postconditions.5851+0x38>)
 8002994:	4620      	mov	r0, r4
 8002996:	4629      	mov	r1, r5
 8002998:	f007 f84e 	bl	8009a38 <system__assertions__raise_assert_failure>
 800299c:	3708      	adds	r7, #8
 800299e:	46bd      	mov	sp, r7
 80029a0:	bdb0      	pop	{r4, r5, r7, pc}
 80029a2:	bf00      	nop
 80029a4:	0800d6e0 	.word	0x0800d6e0
 80029a8:	0800d70c 	.word	0x0800d70c

080029ac <stm32__gpio__lock>:
 80029ac:	b5b0      	push	{r4, r5, r7, lr}
 80029ae:	b084      	sub	sp, #16
 80029b0:	af00      	add	r7, sp, #0
 80029b2:	6078      	str	r0, [r7, #4]
 80029b4:	f107 0320 	add.w	r3, r7, #32
 80029b8:	60fb      	str	r3, [r7, #12]
 80029ba:	687b      	ldr	r3, [r7, #4]
 80029bc:	60bb      	str	r3, [r7, #8]
 80029be:	68bb      	ldr	r3, [r7, #8]
 80029c0:	4618      	mov	r0, r3
 80029c2:	f7ff ff95 	bl	80028f0 <stm32__gpio__locked>
 80029c6:	4603      	mov	r3, r0
 80029c8:	2b00      	cmp	r3, #0
 80029ca:	d005      	beq.n	80029d8 <stm32__gpio__lock+0x2c>
 80029cc:	4c0f      	ldr	r4, [pc, #60]	; (8002a0c <stm32__gpio__lock+0x60>)
 80029ce:	4d10      	ldr	r5, [pc, #64]	; (8002a10 <stm32__gpio__lock+0x64>)
 80029d0:	4620      	mov	r0, r4
 80029d2:	4629      	mov	r1, r5
 80029d4:	f007 f830 	bl	8009a38 <system__assertions__raise_assert_failure>
 80029d8:	68bb      	ldr	r3, [r7, #8]
 80029da:	685b      	ldr	r3, [r3, #4]
 80029dc:	2b00      	cmp	r3, #0
 80029de:	d104      	bne.n	80029ea <stm32__gpio__lock+0x3e>
 80029e0:	480c      	ldr	r0, [pc, #48]	; (8002a14 <stm32__gpio__lock+0x68>)
 80029e2:	f44f 71a2 	mov.w	r1, #324	; 0x144
 80029e6:	f006 fadf 	bl	8008fa8 <__gnat_rcheck_CE_Access_Check>
 80029ea:	68bb      	ldr	r3, [r7, #8]
 80029ec:	685a      	ldr	r2, [r3, #4]
 80029ee:	68bb      	ldr	r3, [r7, #8]
 80029f0:	891b      	ldrh	r3, [r3, #8]
 80029f2:	4610      	mov	r0, r2
 80029f4:	4619      	mov	r1, r3
 80029f6:	f7ff ffa1 	bl	800293c <stm32__gpio__lock_the_pin>
 80029fa:	f107 0308 	add.w	r3, r7, #8
 80029fe:	469c      	mov	ip, r3
 8002a00:	f7ff ffb6 	bl	8002970 <stm32__gpio__lock___postconditions.5851>
 8002a04:	3710      	adds	r7, #16
 8002a06:	46bd      	mov	sp, r7
 8002a08:	bdb0      	pop	{r4, r5, r7, pc}
 8002a0a:	bf00      	nop
 8002a0c:	0800d714 	.word	0x0800d714
 8002a10:	0800d740 	.word	0x0800d740
 8002a14:	0800d62c 	.word	0x0800d62c

08002a18 <stm32__gpio__configure_io>:
 8002a18:	b580      	push	{r7, lr}
 8002a1a:	b088      	sub	sp, #32
 8002a1c:	af00      	add	r7, sp, #0
 8002a1e:	6078      	str	r0, [r7, #4]
 8002a20:	6039      	str	r1, [r7, #0]
 8002a22:	687b      	ldr	r3, [r7, #4]
 8002a24:	891b      	ldrh	r3, [r3, #8]
 8002a26:	4618      	mov	r0, r3
 8002a28:	2101      	movs	r1, #1
 8002a2a:	f7ff fbc7 	bl	80021bc <stm32__gpio__gpio_pinRP>
 8002a2e:	4603      	mov	r3, r0
 8002a30:	2b00      	cmp	r3, #0
 8002a32:	db01      	blt.n	8002a38 <stm32__gpio__configure_io+0x20>
 8002a34:	2b0f      	cmp	r3, #15
 8002a36:	dd04      	ble.n	8002a42 <stm32__gpio__configure_io+0x2a>
 8002a38:	4858      	ldr	r0, [pc, #352]	; (8002b9c <stm32__gpio__configure_io+0x184>)
 8002a3a:	f44f 71ae 	mov.w	r1, #348	; 0x15c
 8002a3e:	f006 fae3 	bl	8009008 <__gnat_rcheck_CE_Range_Check>
 8002a42:	687b      	ldr	r3, [r7, #4]
 8002a44:	891b      	ldrh	r3, [r3, #8]
 8002a46:	4618      	mov	r0, r3
 8002a48:	2101      	movs	r1, #1
 8002a4a:	f7ff fbb7 	bl	80021bc <stm32__gpio__gpio_pinRP>
 8002a4e:	4603      	mov	r3, r0
 8002a50:	61fb      	str	r3, [r7, #28]
 8002a52:	687b      	ldr	r3, [r7, #4]
 8002a54:	685b      	ldr	r3, [r3, #4]
 8002a56:	2b00      	cmp	r3, #0
 8002a58:	d104      	bne.n	8002a64 <stm32__gpio__configure_io+0x4c>
 8002a5a:	4850      	ldr	r0, [pc, #320]	; (8002b9c <stm32__gpio__configure_io+0x184>)
 8002a5c:	f44f 71af 	mov.w	r1, #350	; 0x15e
 8002a60:	f006 faa2 	bl	8008fa8 <__gnat_rcheck_CE_Access_Check>
 8002a64:	687b      	ldr	r3, [r7, #4]
 8002a66:	685b      	ldr	r3, [r3, #4]
 8002a68:	681b      	ldr	r3, [r3, #0]
 8002a6a:	61bb      	str	r3, [r7, #24]
 8002a6c:	687b      	ldr	r3, [r7, #4]
 8002a6e:	685b      	ldr	r3, [r3, #4]
 8002a70:	681b      	ldr	r3, [r3, #0]
 8002a72:	461a      	mov	r2, r3
 8002a74:	69ba      	ldr	r2, [r7, #24]
 8002a76:	69fb      	ldr	r3, [r7, #28]
 8002a78:	005b      	lsls	r3, r3, #1
 8002a7a:	2103      	movs	r1, #3
 8002a7c:	fa01 f303 	lsl.w	r3, r1, r3
 8002a80:	43db      	mvns	r3, r3
 8002a82:	401a      	ands	r2, r3
 8002a84:	783b      	ldrb	r3, [r7, #0]
 8002a86:	4619      	mov	r1, r3
 8002a88:	69fb      	ldr	r3, [r7, #28]
 8002a8a:	005b      	lsls	r3, r3, #1
 8002a8c:	fa01 f303 	lsl.w	r3, r1, r3
 8002a90:	4313      	orrs	r3, r2
 8002a92:	461a      	mov	r2, r3
 8002a94:	687b      	ldr	r3, [r7, #4]
 8002a96:	685b      	ldr	r3, [r3, #4]
 8002a98:	601a      	str	r2, [r3, #0]
 8002a9a:	687b      	ldr	r3, [r7, #4]
 8002a9c:	685b      	ldr	r3, [r3, #4]
 8002a9e:	2b00      	cmp	r3, #0
 8002aa0:	d104      	bne.n	8002aac <stm32__gpio__configure_io+0x94>
 8002aa2:	483e      	ldr	r0, [pc, #248]	; (8002b9c <stm32__gpio__configure_io+0x184>)
 8002aa4:	f240 115f 	movw	r1, #351	; 0x15f
 8002aa8:	f006 fa7e 	bl	8008fa8 <__gnat_rcheck_CE_Access_Check>
 8002aac:	687b      	ldr	r3, [r7, #4]
 8002aae:	685b      	ldr	r3, [r3, #4]
 8002ab0:	3304      	adds	r3, #4
 8002ab2:	681b      	ldr	r3, [r3, #0]
 8002ab4:	b29b      	uxth	r3, r3
 8002ab6:	82bb      	strh	r3, [r7, #20]
 8002ab8:	687b      	ldr	r3, [r7, #4]
 8002aba:	685b      	ldr	r3, [r3, #4]
 8002abc:	3304      	adds	r3, #4
 8002abe:	681b      	ldr	r3, [r3, #0]
 8002ac0:	8ab9      	ldrh	r1, [r7, #20]
 8002ac2:	69fa      	ldr	r2, [r7, #28]
 8002ac4:	2001      	movs	r0, #1
 8002ac6:	fa00 f202 	lsl.w	r2, r0, r2
 8002aca:	b292      	uxth	r2, r2
 8002acc:	43d2      	mvns	r2, r2
 8002ace:	b292      	uxth	r2, r2
 8002ad0:	400a      	ands	r2, r1
 8002ad2:	b291      	uxth	r1, r2
 8002ad4:	787a      	ldrb	r2, [r7, #1]
 8002ad6:	2a01      	cmp	r2, #1
 8002ad8:	bf0c      	ite	eq
 8002ada:	2201      	moveq	r2, #1
 8002adc:	2200      	movne	r2, #0
 8002ade:	b2d2      	uxtb	r2, r2
 8002ae0:	b290      	uxth	r0, r2
 8002ae2:	69fa      	ldr	r2, [r7, #28]
 8002ae4:	fa00 f202 	lsl.w	r2, r0, r2
 8002ae8:	b292      	uxth	r2, r2
 8002aea:	430a      	orrs	r2, r1
 8002aec:	b292      	uxth	r2, r2
 8002aee:	f362 030f 	bfi	r3, r2, #0, #16
 8002af2:	687a      	ldr	r2, [r7, #4]
 8002af4:	6852      	ldr	r2, [r2, #4]
 8002af6:	3204      	adds	r2, #4
 8002af8:	6013      	str	r3, [r2, #0]
 8002afa:	687b      	ldr	r3, [r7, #4]
 8002afc:	685b      	ldr	r3, [r3, #4]
 8002afe:	2b00      	cmp	r3, #0
 8002b00:	d104      	bne.n	8002b0c <stm32__gpio__configure_io+0xf4>
 8002b02:	4826      	ldr	r0, [pc, #152]	; (8002b9c <stm32__gpio__configure_io+0x184>)
 8002b04:	f44f 71b0 	mov.w	r1, #352	; 0x160
 8002b08:	f006 fa4e 	bl	8008fa8 <__gnat_rcheck_CE_Access_Check>
 8002b0c:	687b      	ldr	r3, [r7, #4]
 8002b0e:	685b      	ldr	r3, [r3, #4]
 8002b10:	3308      	adds	r3, #8
 8002b12:	681b      	ldr	r3, [r3, #0]
 8002b14:	613b      	str	r3, [r7, #16]
 8002b16:	687b      	ldr	r3, [r7, #4]
 8002b18:	685b      	ldr	r3, [r3, #4]
 8002b1a:	3308      	adds	r3, #8
 8002b1c:	681b      	ldr	r3, [r3, #0]
 8002b1e:	461a      	mov	r2, r3
 8002b20:	693a      	ldr	r2, [r7, #16]
 8002b22:	69fb      	ldr	r3, [r7, #28]
 8002b24:	005b      	lsls	r3, r3, #1
 8002b26:	2103      	movs	r1, #3
 8002b28:	fa01 f303 	lsl.w	r3, r1, r3
 8002b2c:	43db      	mvns	r3, r3
 8002b2e:	401a      	ands	r2, r3
 8002b30:	78bb      	ldrb	r3, [r7, #2]
 8002b32:	4619      	mov	r1, r3
 8002b34:	69fb      	ldr	r3, [r7, #28]
 8002b36:	005b      	lsls	r3, r3, #1
 8002b38:	fa01 f303 	lsl.w	r3, r1, r3
 8002b3c:	4313      	orrs	r3, r2
 8002b3e:	461a      	mov	r2, r3
 8002b40:	687b      	ldr	r3, [r7, #4]
 8002b42:	685b      	ldr	r3, [r3, #4]
 8002b44:	3308      	adds	r3, #8
 8002b46:	601a      	str	r2, [r3, #0]
 8002b48:	687b      	ldr	r3, [r7, #4]
 8002b4a:	685b      	ldr	r3, [r3, #4]
 8002b4c:	2b00      	cmp	r3, #0
 8002b4e:	d104      	bne.n	8002b5a <stm32__gpio__configure_io+0x142>
 8002b50:	4812      	ldr	r0, [pc, #72]	; (8002b9c <stm32__gpio__configure_io+0x184>)
 8002b52:	f240 1161 	movw	r1, #353	; 0x161
 8002b56:	f006 fa27 	bl	8008fa8 <__gnat_rcheck_CE_Access_Check>
 8002b5a:	687b      	ldr	r3, [r7, #4]
 8002b5c:	685b      	ldr	r3, [r3, #4]
 8002b5e:	330c      	adds	r3, #12
 8002b60:	681b      	ldr	r3, [r3, #0]
 8002b62:	60fb      	str	r3, [r7, #12]
 8002b64:	687b      	ldr	r3, [r7, #4]
 8002b66:	685b      	ldr	r3, [r3, #4]
 8002b68:	330c      	adds	r3, #12
 8002b6a:	681b      	ldr	r3, [r3, #0]
 8002b6c:	461a      	mov	r2, r3
 8002b6e:	68fa      	ldr	r2, [r7, #12]
 8002b70:	69fb      	ldr	r3, [r7, #28]
 8002b72:	005b      	lsls	r3, r3, #1
 8002b74:	2103      	movs	r1, #3
 8002b76:	fa01 f303 	lsl.w	r3, r1, r3
 8002b7a:	43db      	mvns	r3, r3
 8002b7c:	401a      	ands	r2, r3
 8002b7e:	78fb      	ldrb	r3, [r7, #3]
 8002b80:	4619      	mov	r1, r3
 8002b82:	69fb      	ldr	r3, [r7, #28]
 8002b84:	005b      	lsls	r3, r3, #1
 8002b86:	fa01 f303 	lsl.w	r3, r1, r3
 8002b8a:	4313      	orrs	r3, r2
 8002b8c:	461a      	mov	r2, r3
 8002b8e:	687b      	ldr	r3, [r7, #4]
 8002b90:	685b      	ldr	r3, [r3, #4]
 8002b92:	330c      	adds	r3, #12
 8002b94:	601a      	str	r2, [r3, #0]
 8002b96:	3720      	adds	r7, #32
 8002b98:	46bd      	mov	sp, r7
 8002b9a:	bd80      	pop	{r7, pc}
 8002b9c:	0800d62c 	.word	0x0800d62c

08002ba0 <stm32__gpio__configure_alternate_function>:
 8002ba0:	b580      	push	{r7, lr}
 8002ba2:	b086      	sub	sp, #24
 8002ba4:	af00      	add	r7, sp, #0
 8002ba6:	6078      	str	r0, [r7, #4]
 8002ba8:	460b      	mov	r3, r1
 8002baa:	70fb      	strb	r3, [r7, #3]
 8002bac:	687b      	ldr	r3, [r7, #4]
 8002bae:	891b      	ldrh	r3, [r3, #8]
 8002bb0:	4618      	mov	r0, r3
 8002bb2:	2101      	movs	r1, #1
 8002bb4:	f7ff fb02 	bl	80021bc <stm32__gpio__gpio_pinRP>
 8002bb8:	4603      	mov	r3, r0
 8002bba:	2b00      	cmp	r3, #0
 8002bbc:	db01      	blt.n	8002bc2 <stm32__gpio__configure_alternate_function+0x22>
 8002bbe:	2b0f      	cmp	r3, #15
 8002bc0:	dd04      	ble.n	8002bcc <stm32__gpio__configure_alternate_function+0x2c>
 8002bc2:	4839      	ldr	r0, [pc, #228]	; (8002ca8 <stm32__gpio__configure_alternate_function+0x108>)
 8002bc4:	f44f 71bd 	mov.w	r1, #378	; 0x17a
 8002bc8:	f006 fa1e 	bl	8009008 <__gnat_rcheck_CE_Range_Check>
 8002bcc:	687b      	ldr	r3, [r7, #4]
 8002bce:	891b      	ldrh	r3, [r3, #8]
 8002bd0:	4618      	mov	r0, r3
 8002bd2:	2101      	movs	r1, #1
 8002bd4:	f7ff faf2 	bl	80021bc <stm32__gpio__gpio_pinRP>
 8002bd8:	4603      	mov	r3, r0
 8002bda:	617b      	str	r3, [r7, #20]
 8002bdc:	697b      	ldr	r3, [r7, #20]
 8002bde:	2b07      	cmp	r3, #7
 8002be0:	dc2e      	bgt.n	8002c40 <stm32__gpio__configure_alternate_function+0xa0>
 8002be2:	687b      	ldr	r3, [r7, #4]
 8002be4:	685b      	ldr	r3, [r3, #4]
 8002be6:	2b00      	cmp	r3, #0
 8002be8:	d104      	bne.n	8002bf4 <stm32__gpio__configure_alternate_function+0x54>
 8002bea:	482f      	ldr	r0, [pc, #188]	; (8002ca8 <stm32__gpio__configure_alternate_function+0x108>)
 8002bec:	f240 117d 	movw	r1, #381	; 0x17d
 8002bf0:	f006 f9da 	bl	8008fa8 <__gnat_rcheck_CE_Access_Check>
 8002bf4:	697b      	ldr	r3, [r7, #20]
 8002bf6:	2b07      	cmp	r3, #7
 8002bf8:	dd04      	ble.n	8002c04 <stm32__gpio__configure_alternate_function+0x64>
 8002bfa:	482b      	ldr	r0, [pc, #172]	; (8002ca8 <stm32__gpio__configure_alternate_function+0x108>)
 8002bfc:	f240 117d 	movw	r1, #381	; 0x17d
 8002c00:	f006 f9ea 	bl	8008fd8 <__gnat_rcheck_CE_Index_Check>
 8002c04:	687b      	ldr	r3, [r7, #4]
 8002c06:	685b      	ldr	r3, [r3, #4]
 8002c08:	3320      	adds	r3, #32
 8002c0a:	681b      	ldr	r3, [r3, #0]
 8002c0c:	613b      	str	r3, [r7, #16]
 8002c0e:	687b      	ldr	r3, [r7, #4]
 8002c10:	685b      	ldr	r3, [r3, #4]
 8002c12:	3320      	adds	r3, #32
 8002c14:	681b      	ldr	r3, [r3, #0]
 8002c16:	461a      	mov	r2, r3
 8002c18:	693a      	ldr	r2, [r7, #16]
 8002c1a:	697b      	ldr	r3, [r7, #20]
 8002c1c:	009b      	lsls	r3, r3, #2
 8002c1e:	210f      	movs	r1, #15
 8002c20:	fa01 f303 	lsl.w	r3, r1, r3
 8002c24:	43db      	mvns	r3, r3
 8002c26:	401a      	ands	r2, r3
 8002c28:	78f9      	ldrb	r1, [r7, #3]
 8002c2a:	697b      	ldr	r3, [r7, #20]
 8002c2c:	009b      	lsls	r3, r3, #2
 8002c2e:	fa01 f303 	lsl.w	r3, r1, r3
 8002c32:	4313      	orrs	r3, r2
 8002c34:	461a      	mov	r2, r3
 8002c36:	687b      	ldr	r3, [r7, #4]
 8002c38:	685b      	ldr	r3, [r3, #4]
 8002c3a:	3320      	adds	r3, #32
 8002c3c:	601a      	str	r2, [r3, #0]
 8002c3e:	e02f      	b.n	8002ca0 <stm32__gpio__configure_alternate_function+0x100>
 8002c40:	687b      	ldr	r3, [r7, #4]
 8002c42:	685b      	ldr	r3, [r3, #4]
 8002c44:	2b00      	cmp	r3, #0
 8002c46:	d104      	bne.n	8002c52 <stm32__gpio__configure_alternate_function+0xb2>
 8002c48:	4817      	ldr	r0, [pc, #92]	; (8002ca8 <stm32__gpio__configure_alternate_function+0x108>)
 8002c4a:	f240 117f 	movw	r1, #383	; 0x17f
 8002c4e:	f006 f9ab 	bl	8008fa8 <__gnat_rcheck_CE_Access_Check>
 8002c52:	697b      	ldr	r3, [r7, #20]
 8002c54:	2b07      	cmp	r3, #7
 8002c56:	dc04      	bgt.n	8002c62 <stm32__gpio__configure_alternate_function+0xc2>
 8002c58:	4813      	ldr	r0, [pc, #76]	; (8002ca8 <stm32__gpio__configure_alternate_function+0x108>)
 8002c5a:	f240 117f 	movw	r1, #383	; 0x17f
 8002c5e:	f006 f9bb 	bl	8008fd8 <__gnat_rcheck_CE_Index_Check>
 8002c62:	687b      	ldr	r3, [r7, #4]
 8002c64:	685b      	ldr	r3, [r3, #4]
 8002c66:	3324      	adds	r3, #36	; 0x24
 8002c68:	681b      	ldr	r3, [r3, #0]
 8002c6a:	60fb      	str	r3, [r7, #12]
 8002c6c:	687b      	ldr	r3, [r7, #4]
 8002c6e:	685b      	ldr	r3, [r3, #4]
 8002c70:	3324      	adds	r3, #36	; 0x24
 8002c72:	681b      	ldr	r3, [r3, #0]
 8002c74:	461a      	mov	r2, r3
 8002c76:	68fa      	ldr	r2, [r7, #12]
 8002c78:	697b      	ldr	r3, [r7, #20]
 8002c7a:	3b08      	subs	r3, #8
 8002c7c:	009b      	lsls	r3, r3, #2
 8002c7e:	210f      	movs	r1, #15
 8002c80:	fa01 f303 	lsl.w	r3, r1, r3
 8002c84:	43db      	mvns	r3, r3
 8002c86:	401a      	ands	r2, r3
 8002c88:	78f9      	ldrb	r1, [r7, #3]
 8002c8a:	697b      	ldr	r3, [r7, #20]
 8002c8c:	3b08      	subs	r3, #8
 8002c8e:	009b      	lsls	r3, r3, #2
 8002c90:	fa01 f303 	lsl.w	r3, r1, r3
 8002c94:	4313      	orrs	r3, r2
 8002c96:	461a      	mov	r2, r3
 8002c98:	687b      	ldr	r3, [r7, #4]
 8002c9a:	685b      	ldr	r3, [r3, #4]
 8002c9c:	3324      	adds	r3, #36	; 0x24
 8002c9e:	601a      	str	r2, [r3, #0]
 8002ca0:	3718      	adds	r7, #24
 8002ca2:	46bd      	mov	sp, r7
 8002ca4:	bd80      	pop	{r7, pc}
 8002ca6:	bf00      	nop
 8002ca8:	0800d62c 	.word	0x0800d62c

08002cac <stm32__gpio__interrupt_line_number>:
 8002cac:	b580      	push	{r7, lr}
 8002cae:	b082      	sub	sp, #8
 8002cb0:	af00      	add	r7, sp, #0
 8002cb2:	6078      	str	r0, [r7, #4]
 8002cb4:	687b      	ldr	r3, [r7, #4]
 8002cb6:	891b      	ldrh	r3, [r3, #8]
 8002cb8:	4618      	mov	r0, r3
 8002cba:	2101      	movs	r1, #1
 8002cbc:	f7ff fa7e 	bl	80021bc <stm32__gpio__gpio_pinRP>
 8002cc0:	4603      	mov	r3, r0
 8002cc2:	2b00      	cmp	r3, #0
 8002cc4:	db01      	blt.n	8002cca <stm32__gpio__interrupt_line_number+0x1e>
 8002cc6:	2b16      	cmp	r3, #22
 8002cc8:	dd04      	ble.n	8002cd4 <stm32__gpio__interrupt_line_number+0x28>
 8002cca:	4809      	ldr	r0, [pc, #36]	; (8002cf0 <stm32__gpio__interrupt_line_number+0x44>)
 8002ccc:	f240 1199 	movw	r1, #409	; 0x199
 8002cd0:	f006 f99a 	bl	8009008 <__gnat_rcheck_CE_Range_Check>
 8002cd4:	687b      	ldr	r3, [r7, #4]
 8002cd6:	891b      	ldrh	r3, [r3, #8]
 8002cd8:	4618      	mov	r0, r3
 8002cda:	2101      	movs	r1, #1
 8002cdc:	f7ff fa6e 	bl	80021bc <stm32__gpio__gpio_pinRP>
 8002ce0:	4603      	mov	r3, r0
 8002ce2:	b2db      	uxtb	r3, r3
 8002ce4:	bf00      	nop
 8002ce6:	4618      	mov	r0, r3
 8002ce8:	3708      	adds	r7, #8
 8002cea:	46bd      	mov	sp, r7
 8002cec:	bd80      	pop	{r7, pc}
 8002cee:	bf00      	nop
 8002cf0:	0800d62c 	.word	0x0800d62c

08002cf4 <stm32__gpio___elabs>:
 8002cf4:	b580      	push	{r7, lr}
 8002cf6:	af00      	add	r7, sp, #0
 8002cf8:	4803      	ldr	r0, [pc, #12]	; (8002d08 <stm32__gpio___elabs+0x14>)
 8002cfa:	f006 fbdf 	bl	80094bc <ada__tags__check_tsd>
 8002cfe:	4803      	ldr	r0, [pc, #12]	; (8002d0c <stm32__gpio___elabs+0x18>)
 8002d00:	f006 fc56 	bl	80095b0 <ada__tags__register_tag>
 8002d04:	bd80      	pop	{r7, pc}
 8002d06:	bf00      	nop
 8002d08:	0800d578 	.word	0x0800d578
 8002d0c:	0800d5e8 	.word	0x0800d5e8

08002d10 <stm32__spi__spi_portIP>:
 8002d10:	b580      	push	{r7, lr}
 8002d12:	b086      	sub	sp, #24
 8002d14:	af02      	add	r7, sp, #8
 8002d16:	60f8      	str	r0, [r7, #12]
 8002d18:	60b9      	str	r1, [r7, #8]
 8002d1a:	4613      	mov	r3, r2
 8002d1c:	71fb      	strb	r3, [r7, #7]
 8002d1e:	79fb      	ldrb	r3, [r7, #7]
 8002d20:	2b00      	cmp	r3, #0
 8002d22:	d00b      	beq.n	8002d3c <stm32__spi__spi_portIP+0x2c>
 8002d24:	68fb      	ldr	r3, [r7, #12]
 8002d26:	4a08      	ldr	r2, [pc, #32]	; (8002d48 <stm32__spi__spi_portIP+0x38>)
 8002d28:	601a      	str	r2, [r3, #0]
 8002d2a:	68fa      	ldr	r2, [r7, #12]
 8002d2c:	2300      	movs	r3, #0
 8002d2e:	9300      	str	r3, [sp, #0]
 8002d30:	4610      	mov	r0, r2
 8002d32:	4906      	ldr	r1, [pc, #24]	; (8002d4c <stm32__spi__spi_portIP+0x3c>)
 8002d34:	2201      	movs	r2, #1
 8002d36:	2300      	movs	r3, #0
 8002d38:	f006 fc0a 	bl	8009550 <ada__tags__register_interface_offset>
 8002d3c:	68fb      	ldr	r3, [r7, #12]
 8002d3e:	68ba      	ldr	r2, [r7, #8]
 8002d40:	605a      	str	r2, [r3, #4]
 8002d42:	3710      	adds	r7, #16
 8002d44:	46bd      	mov	sp, r7
 8002d46:	bd80      	pop	{r7, pc}
 8002d48:	0800d7cc 	.word	0x0800d7cc
 8002d4c:	0800db6c 	.word	0x0800db6c

08002d50 <stm32__spi___size__2>:
 8002d50:	b490      	push	{r4, r7}
 8002d52:	b082      	sub	sp, #8
 8002d54:	af00      	add	r7, sp, #0
 8002d56:	6078      	str	r0, [r7, #4]
 8002d58:	f04f 0340 	mov.w	r3, #64	; 0x40
 8002d5c:	f04f 0400 	mov.w	r4, #0
 8002d60:	4618      	mov	r0, r3
 8002d62:	4621      	mov	r1, r4
 8002d64:	3708      	adds	r7, #8
 8002d66:	46bd      	mov	sp, r7
 8002d68:	bc90      	pop	{r4, r7}
 8002d6a:	4770      	bx	lr

08002d6c <stm32__spi__spi_portDF__2>:
 8002d6c:	b480      	push	{r7}
 8002d6e:	b083      	sub	sp, #12
 8002d70:	af00      	add	r7, sp, #0
 8002d72:	6078      	str	r0, [r7, #4]
 8002d74:	460b      	mov	r3, r1
 8002d76:	70fb      	strb	r3, [r7, #3]
 8002d78:	370c      	adds	r7, #12
 8002d7a:	46bd      	mov	sp, r7
 8002d7c:	f85d 7b04 	ldr.w	r7, [sp], #4
 8002d80:	4770      	bx	lr
 8002d82:	bf00      	nop

08002d84 <stm32__spi__configure>:
 8002d84:	b580      	push	{r7, lr}
 8002d86:	b082      	sub	sp, #8
 8002d88:	af00      	add	r7, sp, #0
 8002d8a:	6078      	str	r0, [r7, #4]
 8002d8c:	6039      	str	r1, [r7, #0]
 8002d8e:	683b      	ldr	r3, [r7, #0]
 8002d90:	785b      	ldrb	r3, [r3, #1]
 8002d92:	2b01      	cmp	r3, #1
 8002d94:	d903      	bls.n	8002d9e <stm32__spi__configure+0x1a>
 8002d96:	4891      	ldr	r0, [pc, #580]	; (8002fdc <stm32__spi__configure+0x258>)
 8002d98:	214b      	movs	r1, #75	; 0x4b
 8002d9a:	f006 f925 	bl	8008fe8 <__gnat_rcheck_CE_Invalid_Data>
 8002d9e:	683b      	ldr	r3, [r7, #0]
 8002da0:	785b      	ldrb	r3, [r3, #1]
 8002da2:	2b00      	cmp	r3, #0
 8002da4:	d114      	bne.n	8002dd0 <stm32__spi__configure+0x4c>
 8002da6:	687b      	ldr	r3, [r7, #4]
 8002da8:	685b      	ldr	r3, [r3, #4]
 8002daa:	681b      	ldr	r3, [r3, #0]
 8002dac:	461a      	mov	r2, r3
 8002dae:	4613      	mov	r3, r2
 8002db0:	f043 0204 	orr.w	r2, r3, #4
 8002db4:	687b      	ldr	r3, [r7, #4]
 8002db6:	685b      	ldr	r3, [r3, #4]
 8002db8:	601a      	str	r2, [r3, #0]
 8002dba:	687b      	ldr	r3, [r7, #4]
 8002dbc:	685b      	ldr	r3, [r3, #4]
 8002dbe:	681b      	ldr	r3, [r3, #0]
 8002dc0:	461a      	mov	r2, r3
 8002dc2:	4613      	mov	r3, r2
 8002dc4:	f443 7280 	orr.w	r2, r3, #256	; 0x100
 8002dc8:	687b      	ldr	r3, [r7, #4]
 8002dca:	685b      	ldr	r3, [r3, #4]
 8002dcc:	601a      	str	r2, [r3, #0]
 8002dce:	e00f      	b.n	8002df0 <stm32__spi__configure+0x6c>
 8002dd0:	687b      	ldr	r3, [r7, #4]
 8002dd2:	685b      	ldr	r3, [r3, #4]
 8002dd4:	681b      	ldr	r3, [r3, #0]
 8002dd6:	f36f 0382 	bfc	r3, #2, #1
 8002dda:	687a      	ldr	r2, [r7, #4]
 8002ddc:	6852      	ldr	r2, [r2, #4]
 8002dde:	6013      	str	r3, [r2, #0]
 8002de0:	687b      	ldr	r3, [r7, #4]
 8002de2:	685b      	ldr	r3, [r3, #4]
 8002de4:	681b      	ldr	r3, [r3, #0]
 8002de6:	f36f 2308 	bfc	r3, #8, #1
 8002dea:	687a      	ldr	r2, [r7, #4]
 8002dec:	6852      	ldr	r2, [r2, #4]
 8002dee:	6013      	str	r3, [r2, #0]
 8002df0:	683b      	ldr	r3, [r7, #0]
 8002df2:	781b      	ldrb	r3, [r3, #0]
 8002df4:	2b03      	cmp	r3, #3
 8002df6:	d903      	bls.n	8002e00 <stm32__spi__configure+0x7c>
 8002df8:	4878      	ldr	r0, [pc, #480]	; (8002fdc <stm32__spi__configure+0x258>)
 8002dfa:	2154      	movs	r1, #84	; 0x54
 8002dfc:	f006 f8f4 	bl	8008fe8 <__gnat_rcheck_CE_Invalid_Data>
 8002e00:	683b      	ldr	r3, [r7, #0]
 8002e02:	781b      	ldrb	r3, [r3, #0]
 8002e04:	2b01      	cmp	r3, #1
 8002e06:	d01d      	beq.n	8002e44 <stm32__spi__configure+0xc0>
 8002e08:	2b01      	cmp	r3, #1
 8002e0a:	d302      	bcc.n	8002e12 <stm32__spi__configure+0x8e>
 8002e0c:	2b02      	cmp	r3, #2
 8002e0e:	d034      	beq.n	8002e7a <stm32__spi__configure+0xf6>
 8002e10:	e04e      	b.n	8002eb0 <stm32__spi__configure+0x12c>
 8002e12:	687b      	ldr	r3, [r7, #4]
 8002e14:	685b      	ldr	r3, [r3, #4]
 8002e16:	681b      	ldr	r3, [r3, #0]
 8002e18:	f36f 33cf 	bfc	r3, #15, #1
 8002e1c:	687a      	ldr	r2, [r7, #4]
 8002e1e:	6852      	ldr	r2, [r2, #4]
 8002e20:	6013      	str	r3, [r2, #0]
 8002e22:	687b      	ldr	r3, [r7, #4]
 8002e24:	685b      	ldr	r3, [r3, #4]
 8002e26:	681b      	ldr	r3, [r3, #0]
 8002e28:	f36f 338e 	bfc	r3, #14, #1
 8002e2c:	687a      	ldr	r2, [r7, #4]
 8002e2e:	6852      	ldr	r2, [r2, #4]
 8002e30:	6013      	str	r3, [r2, #0]
 8002e32:	687b      	ldr	r3, [r7, #4]
 8002e34:	685b      	ldr	r3, [r3, #4]
 8002e36:	681b      	ldr	r3, [r3, #0]
 8002e38:	f36f 238a 	bfc	r3, #10, #1
 8002e3c:	687a      	ldr	r2, [r7, #4]
 8002e3e:	6852      	ldr	r2, [r2, #4]
 8002e40:	6013      	str	r3, [r2, #0]
 8002e42:	e051      	b.n	8002ee8 <stm32__spi__configure+0x164>
 8002e44:	687b      	ldr	r3, [r7, #4]
 8002e46:	685b      	ldr	r3, [r3, #4]
 8002e48:	681b      	ldr	r3, [r3, #0]
 8002e4a:	f36f 33cf 	bfc	r3, #15, #1
 8002e4e:	687a      	ldr	r2, [r7, #4]
 8002e50:	6852      	ldr	r2, [r2, #4]
 8002e52:	6013      	str	r3, [r2, #0]
 8002e54:	687b      	ldr	r3, [r7, #4]
 8002e56:	685b      	ldr	r3, [r3, #4]
 8002e58:	681b      	ldr	r3, [r3, #0]
 8002e5a:	f36f 338e 	bfc	r3, #14, #1
 8002e5e:	687a      	ldr	r2, [r7, #4]
 8002e60:	6852      	ldr	r2, [r2, #4]
 8002e62:	6013      	str	r3, [r2, #0]
 8002e64:	687b      	ldr	r3, [r7, #4]
 8002e66:	685b      	ldr	r3, [r3, #4]
 8002e68:	681b      	ldr	r3, [r3, #0]
 8002e6a:	461a      	mov	r2, r3
 8002e6c:	4613      	mov	r3, r2
 8002e6e:	f443 6280 	orr.w	r2, r3, #1024	; 0x400
 8002e72:	687b      	ldr	r3, [r7, #4]
 8002e74:	685b      	ldr	r3, [r3, #4]
 8002e76:	601a      	str	r2, [r3, #0]
 8002e78:	e036      	b.n	8002ee8 <stm32__spi__configure+0x164>
 8002e7a:	687b      	ldr	r3, [r7, #4]
 8002e7c:	685b      	ldr	r3, [r3, #4]
 8002e7e:	681b      	ldr	r3, [r3, #0]
 8002e80:	461a      	mov	r2, r3
 8002e82:	4613      	mov	r3, r2
 8002e84:	f443 4200 	orr.w	r2, r3, #32768	; 0x8000
 8002e88:	687b      	ldr	r3, [r7, #4]
 8002e8a:	685b      	ldr	r3, [r3, #4]
 8002e8c:	601a      	str	r2, [r3, #0]
 8002e8e:	687b      	ldr	r3, [r7, #4]
 8002e90:	685b      	ldr	r3, [r3, #4]
 8002e92:	681b      	ldr	r3, [r3, #0]
 8002e94:	f36f 338e 	bfc	r3, #14, #1
 8002e98:	687a      	ldr	r2, [r7, #4]
 8002e9a:	6852      	ldr	r2, [r2, #4]
 8002e9c:	6013      	str	r3, [r2, #0]
 8002e9e:	687b      	ldr	r3, [r7, #4]
 8002ea0:	685b      	ldr	r3, [r3, #4]
 8002ea2:	681b      	ldr	r3, [r3, #0]
 8002ea4:	f36f 238a 	bfc	r3, #10, #1
 8002ea8:	687a      	ldr	r2, [r7, #4]
 8002eaa:	6852      	ldr	r2, [r2, #4]
 8002eac:	6013      	str	r3, [r2, #0]
 8002eae:	e01b      	b.n	8002ee8 <stm32__spi__configure+0x164>
 8002eb0:	687b      	ldr	r3, [r7, #4]
 8002eb2:	685b      	ldr	r3, [r3, #4]
 8002eb4:	681b      	ldr	r3, [r3, #0]
 8002eb6:	461a      	mov	r2, r3
 8002eb8:	4613      	mov	r3, r2
 8002eba:	f443 4200 	orr.w	r2, r3, #32768	; 0x8000
 8002ebe:	687b      	ldr	r3, [r7, #4]
 8002ec0:	685b      	ldr	r3, [r3, #4]
 8002ec2:	601a      	str	r2, [r3, #0]
 8002ec4:	687b      	ldr	r3, [r7, #4]
 8002ec6:	685b      	ldr	r3, [r3, #4]
 8002ec8:	681b      	ldr	r3, [r3, #0]
 8002eca:	461a      	mov	r2, r3
 8002ecc:	4613      	mov	r3, r2
 8002ece:	f443 4280 	orr.w	r2, r3, #16384	; 0x4000
 8002ed2:	687b      	ldr	r3, [r7, #4]
 8002ed4:	685b      	ldr	r3, [r3, #4]
 8002ed6:	601a      	str	r2, [r3, #0]
 8002ed8:	687b      	ldr	r3, [r7, #4]
 8002eda:	685b      	ldr	r3, [r3, #4]
 8002edc:	681b      	ldr	r3, [r3, #0]
 8002ede:	f36f 238a 	bfc	r3, #10, #1
 8002ee2:	687a      	ldr	r2, [r7, #4]
 8002ee4:	6852      	ldr	r2, [r2, #4]
 8002ee6:	6013      	str	r3, [r2, #0]
 8002ee8:	bf00      	nop
 8002eea:	687b      	ldr	r3, [r7, #4]
 8002eec:	685b      	ldr	r3, [r3, #4]
 8002eee:	681b      	ldr	r3, [r3, #0]
 8002ef0:	683a      	ldr	r2, [r7, #0]
 8002ef2:	7892      	ldrb	r2, [r2, #2]
 8002ef4:	2a01      	cmp	r2, #1
 8002ef6:	bf0c      	ite	eq
 8002ef8:	2201      	moveq	r2, #1
 8002efa:	2200      	movne	r2, #0
 8002efc:	b2d2      	uxtb	r2, r2
 8002efe:	f002 0201 	and.w	r2, r2, #1
 8002f02:	b2d2      	uxtb	r2, r2
 8002f04:	f362 23cb 	bfi	r3, r2, #11, #1
 8002f08:	687a      	ldr	r2, [r7, #4]
 8002f0a:	6852      	ldr	r2, [r2, #4]
 8002f0c:	6013      	str	r3, [r2, #0]
 8002f0e:	687b      	ldr	r3, [r7, #4]
 8002f10:	685b      	ldr	r3, [r3, #4]
 8002f12:	681b      	ldr	r3, [r3, #0]
 8002f14:	683a      	ldr	r2, [r7, #0]
 8002f16:	78d2      	ldrb	r2, [r2, #3]
 8002f18:	2a00      	cmp	r2, #0
 8002f1a:	bf0c      	ite	eq
 8002f1c:	2201      	moveq	r2, #1
 8002f1e:	2200      	movne	r2, #0
 8002f20:	b2d2      	uxtb	r2, r2
 8002f22:	f002 0201 	and.w	r2, r2, #1
 8002f26:	b2d2      	uxtb	r2, r2
 8002f28:	f362 0341 	bfi	r3, r2, #1, #1
 8002f2c:	687a      	ldr	r2, [r7, #4]
 8002f2e:	6852      	ldr	r2, [r2, #4]
 8002f30:	6013      	str	r3, [r2, #0]
 8002f32:	687b      	ldr	r3, [r7, #4]
 8002f34:	685b      	ldr	r3, [r3, #4]
 8002f36:	681b      	ldr	r3, [r3, #0]
 8002f38:	683a      	ldr	r2, [r7, #0]
 8002f3a:	7912      	ldrb	r2, [r2, #4]
 8002f3c:	2a01      	cmp	r2, #1
 8002f3e:	bf0c      	ite	eq
 8002f40:	2201      	moveq	r2, #1
 8002f42:	2200      	movne	r2, #0
 8002f44:	b2d2      	uxtb	r2, r2
 8002f46:	f002 0201 	and.w	r2, r2, #1
 8002f4a:	b2d2      	uxtb	r2, r2
 8002f4c:	f362 0300 	bfi	r3, r2, #0, #1
 8002f50:	687a      	ldr	r2, [r7, #4]
 8002f52:	6852      	ldr	r2, [r2, #4]
 8002f54:	6013      	str	r3, [r2, #0]
 8002f56:	687b      	ldr	r3, [r7, #4]
 8002f58:	685b      	ldr	r3, [r3, #4]
 8002f5a:	681b      	ldr	r3, [r3, #0]
 8002f5c:	683a      	ldr	r2, [r7, #0]
 8002f5e:	7952      	ldrb	r2, [r2, #5]
 8002f60:	2a00      	cmp	r2, #0
 8002f62:	bf0c      	ite	eq
 8002f64:	2201      	moveq	r2, #1
 8002f66:	2200      	movne	r2, #0
 8002f68:	b2d2      	uxtb	r2, r2
 8002f6a:	f002 0201 	and.w	r2, r2, #1
 8002f6e:	b2d2      	uxtb	r2, r2
 8002f70:	f362 2349 	bfi	r3, r2, #9, #1
 8002f74:	687a      	ldr	r2, [r7, #4]
 8002f76:	6852      	ldr	r2, [r2, #4]
 8002f78:	6013      	str	r3, [r2, #0]
 8002f7a:	687b      	ldr	r3, [r7, #4]
 8002f7c:	685b      	ldr	r3, [r3, #4]
 8002f7e:	681b      	ldr	r3, [r3, #0]
 8002f80:	683a      	ldr	r2, [r7, #0]
 8002f82:	7992      	ldrb	r2, [r2, #6]
 8002f84:	4611      	mov	r1, r2
 8002f86:	4a16      	ldr	r2, [pc, #88]	; (8002fe0 <stm32__spi__configure+0x25c>)
 8002f88:	5c52      	ldrb	r2, [r2, r1]
 8002f8a:	f002 0207 	and.w	r2, r2, #7
 8002f8e:	b2d2      	uxtb	r2, r2
 8002f90:	f362 03c5 	bfi	r3, r2, #3, #3
 8002f94:	687a      	ldr	r2, [r7, #4]
 8002f96:	6852      	ldr	r2, [r2, #4]
 8002f98:	6013      	str	r3, [r2, #0]
 8002f9a:	687b      	ldr	r3, [r7, #4]
 8002f9c:	685b      	ldr	r3, [r3, #4]
 8002f9e:	681b      	ldr	r3, [r3, #0]
 8002fa0:	683a      	ldr	r2, [r7, #0]
 8002fa2:	79d2      	ldrb	r2, [r2, #7]
 8002fa4:	2a01      	cmp	r2, #1
 8002fa6:	bf0c      	ite	eq
 8002fa8:	2201      	moveq	r2, #1
 8002faa:	2200      	movne	r2, #0
 8002fac:	b2d2      	uxtb	r2, r2
 8002fae:	f002 0201 	and.w	r2, r2, #1
 8002fb2:	b2d2      	uxtb	r2, r2
 8002fb4:	f362 13c7 	bfi	r3, r2, #7, #1
 8002fb8:	687a      	ldr	r2, [r7, #4]
 8002fba:	6852      	ldr	r2, [r2, #4]
 8002fbc:	6013      	str	r3, [r2, #0]
 8002fbe:	687b      	ldr	r3, [r7, #4]
 8002fc0:	685b      	ldr	r3, [r3, #4]
 8002fc2:	3310      	adds	r3, #16
 8002fc4:	681b      	ldr	r3, [r3, #0]
 8002fc6:	683a      	ldr	r2, [r7, #0]
 8002fc8:	8912      	ldrh	r2, [r2, #8]
 8002fca:	f362 030f 	bfi	r3, r2, #0, #16
 8002fce:	687a      	ldr	r2, [r7, #4]
 8002fd0:	6852      	ldr	r2, [r2, #4]
 8002fd2:	3210      	adds	r2, #16
 8002fd4:	6013      	str	r3, [r2, #0]
 8002fd6:	3708      	adds	r7, #8
 8002fd8:	46bd      	mov	sp, r7
 8002fda:	bd80      	pop	{r7, pc}
 8002fdc:	0800d868 	.word	0x0800d868
 8002fe0:	0800d860 	.word	0x0800d860

08002fe4 <stm32__spi__enable>:
 8002fe4:	b480      	push	{r7}
 8002fe6:	b083      	sub	sp, #12
 8002fe8:	af00      	add	r7, sp, #0
 8002fea:	6078      	str	r0, [r7, #4]
 8002fec:	687b      	ldr	r3, [r7, #4]
 8002fee:	685b      	ldr	r3, [r3, #4]
 8002ff0:	681b      	ldr	r3, [r3, #0]
 8002ff2:	461a      	mov	r2, r3
 8002ff4:	4613      	mov	r3, r2
 8002ff6:	f043 0240 	orr.w	r2, r3, #64	; 0x40
 8002ffa:	687b      	ldr	r3, [r7, #4]
 8002ffc:	685b      	ldr	r3, [r3, #4]
 8002ffe:	601a      	str	r2, [r3, #0]
 8003000:	370c      	adds	r7, #12
 8003002:	46bd      	mov	sp, r7
 8003004:	f85d 7b04 	ldr.w	r7, [sp], #4
 8003008:	4770      	bx	lr
 800300a:	bf00      	nop

0800300c <stm32__spi__disable>:
 800300c:	b480      	push	{r7}
 800300e:	b083      	sub	sp, #12
 8003010:	af00      	add	r7, sp, #0
 8003012:	6078      	str	r0, [r7, #4]
 8003014:	687b      	ldr	r3, [r7, #4]
 8003016:	685b      	ldr	r3, [r3, #4]
 8003018:	681b      	ldr	r3, [r3, #0]
 800301a:	f36f 1386 	bfc	r3, #6, #1
 800301e:	687a      	ldr	r2, [r7, #4]
 8003020:	6852      	ldr	r2, [r2, #4]
 8003022:	6013      	str	r3, [r2, #0]
 8003024:	370c      	adds	r7, #12
 8003026:	46bd      	mov	sp, r7
 8003028:	f85d 7b04 	ldr.w	r7, [sp], #4
 800302c:	4770      	bx	lr
 800302e:	bf00      	nop

08003030 <stm32__spi__enabled>:
 8003030:	b480      	push	{r7}
 8003032:	b083      	sub	sp, #12
 8003034:	af00      	add	r7, sp, #0
 8003036:	6078      	str	r0, [r7, #4]
 8003038:	687b      	ldr	r3, [r7, #4]
 800303a:	685b      	ldr	r3, [r3, #4]
 800303c:	681b      	ldr	r3, [r3, #0]
 800303e:	f3c3 1380 	ubfx	r3, r3, #6, #1
 8003042:	b2db      	uxtb	r3, r3
 8003044:	bf00      	nop
 8003046:	4618      	mov	r0, r3
 8003048:	370c      	adds	r7, #12
 800304a:	46bd      	mov	sp, r7
 800304c:	f85d 7b04 	ldr.w	r7, [sp], #4
 8003050:	4770      	bx	lr
 8003052:	bf00      	nop

08003054 <stm32__spi__send>:
 8003054:	b480      	push	{r7}
 8003056:	b083      	sub	sp, #12
 8003058:	af00      	add	r7, sp, #0
 800305a:	6078      	str	r0, [r7, #4]
 800305c:	460b      	mov	r3, r1
 800305e:	807b      	strh	r3, [r7, #2]
 8003060:	687b      	ldr	r3, [r7, #4]
 8003062:	685b      	ldr	r3, [r3, #4]
 8003064:	330c      	adds	r3, #12
 8003066:	681b      	ldr	r3, [r3, #0]
 8003068:	887a      	ldrh	r2, [r7, #2]
 800306a:	f362 030f 	bfi	r3, r2, #0, #16
 800306e:	687a      	ldr	r2, [r7, #4]
 8003070:	6852      	ldr	r2, [r2, #4]
 8003072:	320c      	adds	r2, #12
 8003074:	6013      	str	r3, [r2, #0]
 8003076:	370c      	adds	r7, #12
 8003078:	46bd      	mov	sp, r7
 800307a:	f85d 7b04 	ldr.w	r7, [sp], #4
 800307e:	4770      	bx	lr

08003080 <stm32__spi__data>:
 8003080:	b480      	push	{r7}
 8003082:	b083      	sub	sp, #12
 8003084:	af00      	add	r7, sp, #0
 8003086:	6078      	str	r0, [r7, #4]
 8003088:	687b      	ldr	r3, [r7, #4]
 800308a:	685b      	ldr	r3, [r3, #4]
 800308c:	330c      	adds	r3, #12
 800308e:	681b      	ldr	r3, [r3, #0]
 8003090:	b29b      	uxth	r3, r3
 8003092:	bf00      	nop
 8003094:	4618      	mov	r0, r3
 8003096:	370c      	adds	r7, #12
 8003098:	46bd      	mov	sp, r7
 800309a:	f85d 7b04 	ldr.w	r7, [sp], #4
 800309e:	4770      	bx	lr

080030a0 <stm32__spi__send__2>:
 80030a0:	b580      	push	{r7, lr}
 80030a2:	b082      	sub	sp, #8
 80030a4:	af00      	add	r7, sp, #0
 80030a6:	6078      	str	r0, [r7, #4]
 80030a8:	460b      	mov	r3, r1
 80030aa:	70fb      	strb	r3, [r7, #3]
 80030ac:	78fb      	ldrb	r3, [r7, #3]
 80030ae:	b29b      	uxth	r3, r3
 80030b0:	6878      	ldr	r0, [r7, #4]
 80030b2:	4619      	mov	r1, r3
 80030b4:	f7ff ffce 	bl	8003054 <stm32__spi__send>
 80030b8:	3708      	adds	r7, #8
 80030ba:	46bd      	mov	sp, r7
 80030bc:	bd80      	pop	{r7, pc}
 80030be:	bf00      	nop

080030c0 <stm32__spi__data__2>:
 80030c0:	b580      	push	{r7, lr}
 80030c2:	b082      	sub	sp, #8
 80030c4:	af00      	add	r7, sp, #0
 80030c6:	6078      	str	r0, [r7, #4]
 80030c8:	6878      	ldr	r0, [r7, #4]
 80030ca:	f7ff ffd9 	bl	8003080 <stm32__spi__data>
 80030ce:	4603      	mov	r3, r0
 80030d0:	2bff      	cmp	r3, #255	; 0xff
 80030d2:	d903      	bls.n	80030dc <stm32__spi__data__2+0x1c>
 80030d4:	4804      	ldr	r0, [pc, #16]	; (80030e8 <stm32__spi__data__2+0x28>)
 80030d6:	21b0      	movs	r1, #176	; 0xb0
 80030d8:	f005 ff96 	bl	8009008 <__gnat_rcheck_CE_Range_Check>
 80030dc:	b2db      	uxtb	r3, r3
 80030de:	bf00      	nop
 80030e0:	4618      	mov	r0, r3
 80030e2:	3708      	adds	r7, #8
 80030e4:	46bd      	mov	sp, r7
 80030e6:	bd80      	pop	{r7, pc}
 80030e8:	0800d868 	.word	0x0800d868

080030ec <stm32__spi__is_busy>:
 80030ec:	b580      	push	{r7, lr}
 80030ee:	b082      	sub	sp, #8
 80030f0:	af00      	add	r7, sp, #0
 80030f2:	6078      	str	r0, [r7, #4]
 80030f4:	6878      	ldr	r0, [r7, #4]
 80030f6:	f000 f82d 	bl	8003154 <stm32__spi__rx_is_empty>
 80030fa:	4603      	mov	r3, r0
 80030fc:	2b00      	cmp	r3, #0
 80030fe:	d008      	beq.n	8003112 <stm32__spi__is_busy+0x26>
 8003100:	6878      	ldr	r0, [r7, #4]
 8003102:	f000 f815 	bl	8003130 <stm32__spi__tx_is_empty>
 8003106:	4603      	mov	r3, r0
 8003108:	f083 0301 	eor.w	r3, r3, #1
 800310c:	b2db      	uxtb	r3, r3
 800310e:	2b00      	cmp	r3, #0
 8003110:	d105      	bne.n	800311e <stm32__spi__is_busy+0x32>
 8003112:	6878      	ldr	r0, [r7, #4]
 8003114:	f000 f834 	bl	8003180 <stm32__spi__busy>
 8003118:	4603      	mov	r3, r0
 800311a:	2b00      	cmp	r3, #0
 800311c:	d001      	beq.n	8003122 <stm32__spi__is_busy+0x36>
 800311e:	2301      	movs	r3, #1
 8003120:	e000      	b.n	8003124 <stm32__spi__is_busy+0x38>
 8003122:	2300      	movs	r3, #0
 8003124:	bf00      	nop
 8003126:	4618      	mov	r0, r3
 8003128:	3708      	adds	r7, #8
 800312a:	46bd      	mov	sp, r7
 800312c:	bd80      	pop	{r7, pc}
 800312e:	bf00      	nop

08003130 <stm32__spi__tx_is_empty>:
 8003130:	b480      	push	{r7}
 8003132:	b083      	sub	sp, #12
 8003134:	af00      	add	r7, sp, #0
 8003136:	6078      	str	r0, [r7, #4]
 8003138:	687b      	ldr	r3, [r7, #4]
 800313a:	685b      	ldr	r3, [r3, #4]
 800313c:	3308      	adds	r3, #8
 800313e:	681b      	ldr	r3, [r3, #0]
 8003140:	f3c3 0340 	ubfx	r3, r3, #1, #1
 8003144:	b2db      	uxtb	r3, r3
 8003146:	bf00      	nop
 8003148:	4618      	mov	r0, r3
 800314a:	370c      	adds	r7, #12
 800314c:	46bd      	mov	sp, r7
 800314e:	f85d 7b04 	ldr.w	r7, [sp], #4
 8003152:	4770      	bx	lr

08003154 <stm32__spi__rx_is_empty>:
 8003154:	b480      	push	{r7}
 8003156:	b083      	sub	sp, #12
 8003158:	af00      	add	r7, sp, #0
 800315a:	6078      	str	r0, [r7, #4]
 800315c:	687b      	ldr	r3, [r7, #4]
 800315e:	685b      	ldr	r3, [r3, #4]
 8003160:	3308      	adds	r3, #8
 8003162:	681b      	ldr	r3, [r3, #0]
 8003164:	f3c3 0300 	ubfx	r3, r3, #0, #1
 8003168:	b2db      	uxtb	r3, r3
 800316a:	f083 0301 	eor.w	r3, r3, #1
 800316e:	b2db      	uxtb	r3, r3
 8003170:	bf00      	nop
 8003172:	4618      	mov	r0, r3
 8003174:	370c      	adds	r7, #12
 8003176:	46bd      	mov	sp, r7
 8003178:	f85d 7b04 	ldr.w	r7, [sp], #4
 800317c:	4770      	bx	lr
 800317e:	bf00      	nop

08003180 <stm32__spi__busy>:
 8003180:	b480      	push	{r7}
 8003182:	b083      	sub	sp, #12
 8003184:	af00      	add	r7, sp, #0
 8003186:	6078      	str	r0, [r7, #4]
 8003188:	687b      	ldr	r3, [r7, #4]
 800318a:	685b      	ldr	r3, [r3, #4]
 800318c:	3308      	adds	r3, #8
 800318e:	681b      	ldr	r3, [r3, #0]
 8003190:	f3c3 13c0 	ubfx	r3, r3, #7, #1
 8003194:	b2db      	uxtb	r3, r3
 8003196:	bf00      	nop
 8003198:	4618      	mov	r0, r3
 800319a:	370c      	adds	r7, #12
 800319c:	46bd      	mov	sp, r7
 800319e:	f85d 7b04 	ldr.w	r7, [sp], #4
 80031a2:	4770      	bx	lr

080031a4 <stm32__spi__current_mode>:
 80031a4:	b480      	push	{r7}
 80031a6:	b083      	sub	sp, #12
 80031a8:	af00      	add	r7, sp, #0
 80031aa:	6078      	str	r0, [r7, #4]
 80031ac:	687b      	ldr	r3, [r7, #4]
 80031ae:	685b      	ldr	r3, [r3, #4]
 80031b0:	681b      	ldr	r3, [r3, #0]
 80031b2:	f3c3 0380 	ubfx	r3, r3, #2, #1
 80031b6:	b2db      	uxtb	r3, r3
 80031b8:	461a      	mov	r2, r3
 80031ba:	687b      	ldr	r3, [r7, #4]
 80031bc:	685b      	ldr	r3, [r3, #4]
 80031be:	681b      	ldr	r3, [r3, #0]
 80031c0:	f3c3 2300 	ubfx	r3, r3, #8, #1
 80031c4:	b2db      	uxtb	r3, r3
 80031c6:	4013      	ands	r3, r2
 80031c8:	b2db      	uxtb	r3, r3
 80031ca:	2b00      	cmp	r3, #0
 80031cc:	d001      	beq.n	80031d2 <stm32__spi__current_mode+0x2e>
 80031ce:	2300      	movs	r3, #0
 80031d0:	e000      	b.n	80031d4 <stm32__spi__current_mode+0x30>
 80031d2:	2301      	movs	r3, #1
 80031d4:	bf00      	nop
 80031d6:	4618      	mov	r0, r3
 80031d8:	370c      	adds	r7, #12
 80031da:	46bd      	mov	sp, r7
 80031dc:	f85d 7b04 	ldr.w	r7, [sp], #4
 80031e0:	4770      	bx	lr
 80031e2:	bf00      	nop

080031e4 <stm32__spi__current_data_direction>:
 80031e4:	b480      	push	{r7}
 80031e6:	b083      	sub	sp, #12
 80031e8:	af00      	add	r7, sp, #0
 80031ea:	6078      	str	r0, [r7, #4]
 80031ec:	687b      	ldr	r3, [r7, #4]
 80031ee:	685b      	ldr	r3, [r3, #4]
 80031f0:	681b      	ldr	r3, [r3, #0]
 80031f2:	f3c3 33c0 	ubfx	r3, r3, #15, #1
 80031f6:	b2db      	uxtb	r3, r3
 80031f8:	f083 0301 	eor.w	r3, r3, #1
 80031fc:	b2db      	uxtb	r3, r3
 80031fe:	2b00      	cmp	r3, #0
 8003200:	d00e      	beq.n	8003220 <stm32__spi__current_data_direction+0x3c>
 8003202:	687b      	ldr	r3, [r7, #4]
 8003204:	685b      	ldr	r3, [r3, #4]
 8003206:	681b      	ldr	r3, [r3, #0]
 8003208:	f3c3 2380 	ubfx	r3, r3, #10, #1
 800320c:	b2db      	uxtb	r3, r3
 800320e:	f083 0301 	eor.w	r3, r3, #1
 8003212:	b2db      	uxtb	r3, r3
 8003214:	2b00      	cmp	r3, #0
 8003216:	d001      	beq.n	800321c <stm32__spi__current_data_direction+0x38>
 8003218:	2300      	movs	r3, #0
 800321a:	e00f      	b.n	800323c <stm32__spi__current_data_direction+0x58>
 800321c:	2301      	movs	r3, #1
 800321e:	e00d      	b.n	800323c <stm32__spi__current_data_direction+0x58>
 8003220:	687b      	ldr	r3, [r7, #4]
 8003222:	685b      	ldr	r3, [r3, #4]
 8003224:	681b      	ldr	r3, [r3, #0]
 8003226:	f3c3 3380 	ubfx	r3, r3, #14, #1
 800322a:	b2db      	uxtb	r3, r3
 800322c:	f083 0301 	eor.w	r3, r3, #1
 8003230:	b2db      	uxtb	r3, r3
 8003232:	2b00      	cmp	r3, #0
 8003234:	d001      	beq.n	800323a <stm32__spi__current_data_direction+0x56>
 8003236:	2302      	movs	r3, #2
 8003238:	e000      	b.n	800323c <stm32__spi__current_data_direction+0x58>
 800323a:	2303      	movs	r3, #3
 800323c:	bf00      	nop
 800323e:	4618      	mov	r0, r3
 8003240:	370c      	adds	r7, #12
 8003242:	46bd      	mov	sp, r7
 8003244:	f85d 7b04 	ldr.w	r7, [sp], #4
 8003248:	4770      	bx	lr
 800324a:	bf00      	nop

0800324c <stm32__spi__crc_enabled>:
 800324c:	b480      	push	{r7}
 800324e:	b083      	sub	sp, #12
 8003250:	af00      	add	r7, sp, #0
 8003252:	6078      	str	r0, [r7, #4]
 8003254:	687b      	ldr	r3, [r7, #4]
 8003256:	685b      	ldr	r3, [r3, #4]
 8003258:	681b      	ldr	r3, [r3, #0]
 800325a:	f3c3 3340 	ubfx	r3, r3, #13, #1
 800325e:	b2db      	uxtb	r3, r3
 8003260:	bf00      	nop
 8003262:	4618      	mov	r0, r3
 8003264:	370c      	adds	r7, #12
 8003266:	46bd      	mov	sp, r7
 8003268:	f85d 7b04 	ldr.w	r7, [sp], #4
 800326c:	4770      	bx	lr
 800326e:	bf00      	nop

08003270 <stm32__spi__crc_error_indicated>:
 8003270:	b480      	push	{r7}
 8003272:	b083      	sub	sp, #12
 8003274:	af00      	add	r7, sp, #0
 8003276:	6078      	str	r0, [r7, #4]
 8003278:	687b      	ldr	r3, [r7, #4]
 800327a:	685b      	ldr	r3, [r3, #4]
 800327c:	3308      	adds	r3, #8
 800327e:	681b      	ldr	r3, [r3, #0]
 8003280:	f3c3 1300 	ubfx	r3, r3, #4, #1
 8003284:	b2db      	uxtb	r3, r3
 8003286:	bf00      	nop
 8003288:	4618      	mov	r0, r3
 800328a:	370c      	adds	r7, #12
 800328c:	46bd      	mov	sp, r7
 800328e:	f85d 7b04 	ldr.w	r7, [sp], #4
 8003292:	4770      	bx	lr

08003294 <stm32__spi__mode_fault_indicated>:
 8003294:	b480      	push	{r7}
 8003296:	b083      	sub	sp, #12
 8003298:	af00      	add	r7, sp, #0
 800329a:	6078      	str	r0, [r7, #4]
 800329c:	687b      	ldr	r3, [r7, #4]
 800329e:	685b      	ldr	r3, [r3, #4]
 80032a0:	3308      	adds	r3, #8
 80032a2:	681b      	ldr	r3, [r3, #0]
 80032a4:	f3c3 1340 	ubfx	r3, r3, #5, #1
 80032a8:	b2db      	uxtb	r3, r3
 80032aa:	bf00      	nop
 80032ac:	4618      	mov	r0, r3
 80032ae:	370c      	adds	r7, #12
 80032b0:	46bd      	mov	sp, r7
 80032b2:	f85d 7b04 	ldr.w	r7, [sp], #4
 80032b6:	4770      	bx	lr

080032b8 <stm32__spi__overrun_indicated>:
 80032b8:	b480      	push	{r7}
 80032ba:	b083      	sub	sp, #12
 80032bc:	af00      	add	r7, sp, #0
 80032be:	6078      	str	r0, [r7, #4]
 80032c0:	687b      	ldr	r3, [r7, #4]
 80032c2:	685b      	ldr	r3, [r3, #4]
 80032c4:	3308      	adds	r3, #8
 80032c6:	681b      	ldr	r3, [r3, #0]
 80032c8:	f3c3 1380 	ubfx	r3, r3, #6, #1
 80032cc:	b2db      	uxtb	r3, r3
 80032ce:	bf00      	nop
 80032d0:	4618      	mov	r0, r3
 80032d2:	370c      	adds	r7, #12
 80032d4:	46bd      	mov	sp, r7
 80032d6:	f85d 7b04 	ldr.w	r7, [sp], #4
 80032da:	4770      	bx	lr

080032dc <stm32__spi__frame_fmt_error_indicated>:
 80032dc:	b480      	push	{r7}
 80032de:	b083      	sub	sp, #12
 80032e0:	af00      	add	r7, sp, #0
 80032e2:	6078      	str	r0, [r7, #4]
 80032e4:	687b      	ldr	r3, [r7, #4]
 80032e6:	685b      	ldr	r3, [r3, #4]
 80032e8:	3308      	adds	r3, #8
 80032ea:	681b      	ldr	r3, [r3, #0]
 80032ec:	f3c3 2300 	ubfx	r3, r3, #8, #1
 80032f0:	b2db      	uxtb	r3, r3
 80032f2:	bf00      	nop
 80032f4:	4618      	mov	r0, r3
 80032f6:	370c      	adds	r7, #12
 80032f8:	46bd      	mov	sp, r7
 80032fa:	f85d 7b04 	ldr.w	r7, [sp], #4
 80032fe:	4770      	bx	lr

08003300 <stm32__spi__clear_overrun>:
 8003300:	b580      	push	{r7, lr}
 8003302:	b084      	sub	sp, #16
 8003304:	af00      	add	r7, sp, #0
 8003306:	6078      	str	r0, [r7, #4]
 8003308:	f107 0308 	add.w	r3, r7, #8
 800330c:	4618      	mov	r0, r3
 800330e:	f003 f969 	bl	80065e4 <stm32_svd__spi__sr_registerIP>
 8003312:	687b      	ldr	r3, [r7, #4]
 8003314:	685b      	ldr	r3, [r3, #4]
 8003316:	330c      	adds	r3, #12
 8003318:	681b      	ldr	r3, [r3, #0]
 800331a:	81fb      	strh	r3, [r7, #14]
 800331c:	687b      	ldr	r3, [r7, #4]
 800331e:	685b      	ldr	r3, [r3, #4]
 8003320:	3308      	adds	r3, #8
 8003322:	681b      	ldr	r3, [r3, #0]
 8003324:	60bb      	str	r3, [r7, #8]
 8003326:	3710      	adds	r7, #16
 8003328:	46bd      	mov	sp, r7
 800332a:	bd80      	pop	{r7, pc}

0800332c <stm32__spi__reset_crc>:
 800332c:	b480      	push	{r7}
 800332e:	b083      	sub	sp, #12
 8003330:	af00      	add	r7, sp, #0
 8003332:	6078      	str	r0, [r7, #4]
 8003334:	687b      	ldr	r3, [r7, #4]
 8003336:	685b      	ldr	r3, [r3, #4]
 8003338:	681b      	ldr	r3, [r3, #0]
 800333a:	f36f 334d 	bfc	r3, #13, #1
 800333e:	687a      	ldr	r2, [r7, #4]
 8003340:	6852      	ldr	r2, [r2, #4]
 8003342:	6013      	str	r3, [r2, #0]
 8003344:	687b      	ldr	r3, [r7, #4]
 8003346:	685b      	ldr	r3, [r3, #4]
 8003348:	681b      	ldr	r3, [r3, #0]
 800334a:	461a      	mov	r2, r3
 800334c:	4613      	mov	r3, r2
 800334e:	f443 5200 	orr.w	r2, r3, #8192	; 0x2000
 8003352:	687b      	ldr	r3, [r7, #4]
 8003354:	685b      	ldr	r3, [r3, #4]
 8003356:	601a      	str	r2, [r3, #0]
 8003358:	370c      	adds	r7, #12
 800335a:	46bd      	mov	sp, r7
 800335c:	f85d 7b04 	ldr.w	r7, [sp], #4
 8003360:	4770      	bx	lr
 8003362:	bf00      	nop

08003364 <stm32__spi__is_data_frame_16bit>:
 8003364:	b480      	push	{r7}
 8003366:	b083      	sub	sp, #12
 8003368:	af00      	add	r7, sp, #0
 800336a:	6078      	str	r0, [r7, #4]
 800336c:	687b      	ldr	r3, [r7, #4]
 800336e:	685b      	ldr	r3, [r3, #4]
 8003370:	681b      	ldr	r3, [r3, #0]
 8003372:	f3c3 23c0 	ubfx	r3, r3, #11, #1
 8003376:	b2db      	uxtb	r3, r3
 8003378:	bf00      	nop
 800337a:	4618      	mov	r0, r3
 800337c:	370c      	adds	r7, #12
 800337e:	46bd      	mov	sp, r7
 8003380:	f85d 7b04 	ldr.w	r7, [sp], #4
 8003384:	4770      	bx	lr
 8003386:	bf00      	nop

08003388 <stm32__spi__data_size>:
 8003388:	b480      	push	{r7}
 800338a:	b083      	sub	sp, #12
 800338c:	af00      	add	r7, sp, #0
 800338e:	6078      	str	r0, [r7, #4]
 8003390:	687b      	ldr	r3, [r7, #4]
 8003392:	685b      	ldr	r3, [r3, #4]
 8003394:	681b      	ldr	r3, [r3, #0]
 8003396:	f3c3 23c0 	ubfx	r3, r3, #11, #1
 800339a:	b2db      	uxtb	r3, r3
 800339c:	2b00      	cmp	r3, #0
 800339e:	d001      	beq.n	80033a4 <stm32__spi__data_size+0x1c>
 80033a0:	2301      	movs	r3, #1
 80033a2:	e000      	b.n	80033a6 <stm32__spi__data_size+0x1e>
 80033a4:	2300      	movs	r3, #0
 80033a6:	bf00      	nop
 80033a8:	4618      	mov	r0, r3
 80033aa:	370c      	adds	r7, #12
 80033ac:	46bd      	mov	sp, r7
 80033ae:	f85d 7b04 	ldr.w	r7, [sp], #4
 80033b2:	4770      	bx	lr

080033b4 <stm32__spi__transmit>:
 80033b4:	b5b0      	push	{r4, r5, r7, lr}
 80033b6:	b086      	sub	sp, #24
 80033b8:	af00      	add	r7, sp, #0
 80033ba:	60f8      	str	r0, [r7, #12]
 80033bc:	e9c7 2300 	strd	r2, r3, [r7]
 80033c0:	68f8      	ldr	r0, [r7, #12]
 80033c2:	f7ff ffe1 	bl	8003388 <stm32__spi__data_size>
 80033c6:	4603      	mov	r3, r0
 80033c8:	2b00      	cmp	r3, #0
 80033ca:	d005      	beq.n	80033d8 <stm32__spi__transmit+0x24>
 80033cc:	4c2c      	ldr	r4, [pc, #176]	; (8003480 <stm32__spi__transmit+0xcc>)
 80033ce:	4d2d      	ldr	r5, [pc, #180]	; (8003484 <stm32__spi__transmit+0xd0>)
 80033d0:	4620      	mov	r0, r4
 80033d2:	4629      	mov	r1, r5
 80033d4:	f006 fb30 	bl	8009a38 <system__assertions__raise_assert_failure>
 80033d8:	68f8      	ldr	r0, [r7, #12]
 80033da:	f7ff ff37 	bl	800324c <stm32__spi__crc_enabled>
 80033de:	4603      	mov	r3, r0
 80033e0:	2b00      	cmp	r3, #0
 80033e2:	d002      	beq.n	80033ea <stm32__spi__transmit+0x36>
 80033e4:	68f8      	ldr	r0, [r7, #12]
 80033e6:	f7ff ffa1 	bl	800332c <stm32__spi__reset_crc>
 80033ea:	68f8      	ldr	r0, [r7, #12]
 80033ec:	f7ff fefa 	bl	80031e4 <stm32__spi__current_data_direction>
 80033f0:	4603      	mov	r3, r0
 80033f2:	2b03      	cmp	r3, #3
 80033f4:	d109      	bne.n	800340a <stm32__spi__transmit+0x56>
 80033f6:	68fb      	ldr	r3, [r7, #12]
 80033f8:	685b      	ldr	r3, [r3, #4]
 80033fa:	681b      	ldr	r3, [r3, #0]
 80033fc:	461a      	mov	r2, r3
 80033fe:	4613      	mov	r3, r2
 8003400:	f443 4280 	orr.w	r2, r3, #16384	; 0x4000
 8003404:	68fb      	ldr	r3, [r7, #12]
 8003406:	685b      	ldr	r3, [r3, #4]
 8003408:	601a      	str	r2, [r3, #0]
 800340a:	68f8      	ldr	r0, [r7, #12]
 800340c:	f7ff ff78 	bl	8003300 <stm32__spi__clear_overrun>
 8003410:	68f8      	ldr	r0, [r7, #12]
 8003412:	f7ff fe0d 	bl	8003030 <stm32__spi__enabled>
 8003416:	4603      	mov	r3, r0
 8003418:	f083 0301 	eor.w	r3, r3, #1
 800341c:	b2db      	uxtb	r3, r3
 800341e:	2b00      	cmp	r3, #0
 8003420:	d002      	beq.n	8003428 <stm32__spi__transmit+0x74>
 8003422:	68f8      	ldr	r0, [r7, #12]
 8003424:	f7ff fdde 	bl	8002fe4 <stm32__spi__enable>
 8003428:	68f8      	ldr	r0, [r7, #12]
 800342a:	e9d7 2300 	ldrd	r2, r3, [r7]
 800342e:	f000 ff2d 	bl	800428c <stm32__spi__send_8bit_mode>
 8003432:	68f8      	ldr	r0, [r7, #12]
 8003434:	f7ff fe7c 	bl	8003130 <stm32__spi__tx_is_empty>
 8003438:	4603      	mov	r3, r0
 800343a:	f083 0301 	eor.w	r3, r3, #1
 800343e:	b2db      	uxtb	r3, r3
 8003440:	2b00      	cmp	r3, #0
 8003442:	d001      	beq.n	8003448 <stm32__spi__transmit+0x94>
 8003444:	bf00      	nop
 8003446:	e7f4      	b.n	8003432 <stm32__spi__transmit+0x7e>
 8003448:	68f8      	ldr	r0, [r7, #12]
 800344a:	f7ff fe99 	bl	8003180 <stm32__spi__busy>
 800344e:	4603      	mov	r3, r0
 8003450:	2b00      	cmp	r3, #0
 8003452:	d001      	beq.n	8003458 <stm32__spi__transmit+0xa4>
 8003454:	bf00      	nop
 8003456:	e7f7      	b.n	8003448 <stm32__spi__transmit+0x94>
 8003458:	68f8      	ldr	r0, [r7, #12]
 800345a:	f7ff fec3 	bl	80031e4 <stm32__spi__current_data_direction>
 800345e:	4603      	mov	r3, r0
 8003460:	2b01      	cmp	r3, #1
 8003462:	d001      	beq.n	8003468 <stm32__spi__transmit+0xb4>
 8003464:	2b00      	cmp	r3, #0
 8003466:	d102      	bne.n	800346e <stm32__spi__transmit+0xba>
 8003468:	68f8      	ldr	r0, [r7, #12]
 800346a:	f7ff ff49 	bl	8003300 <stm32__spi__clear_overrun>
 800346e:	2300      	movs	r3, #0
 8003470:	75fb      	strb	r3, [r7, #23]
 8003472:	7dfb      	ldrb	r3, [r7, #23]
 8003474:	bf00      	nop
 8003476:	4618      	mov	r0, r3
 8003478:	3718      	adds	r7, #24
 800347a:	46bd      	mov	sp, r7
 800347c:	bdb0      	pop	{r4, r5, r7, pc}
 800347e:	bf00      	nop
 8003480:	0800d878 	.word	0x0800d878
 8003484:	0800d8ac 	.word	0x0800d8ac

08003488 <stm32__spi__transmit__2>:
 8003488:	b5b0      	push	{r4, r5, r7, lr}
 800348a:	b086      	sub	sp, #24
 800348c:	af00      	add	r7, sp, #0
 800348e:	60f8      	str	r0, [r7, #12]
 8003490:	e9c7 2300 	strd	r2, r3, [r7]
 8003494:	68f8      	ldr	r0, [r7, #12]
 8003496:	f7ff ff77 	bl	8003388 <stm32__spi__data_size>
 800349a:	4603      	mov	r3, r0
 800349c:	2b01      	cmp	r3, #1
 800349e:	d005      	beq.n	80034ac <stm32__spi__transmit__2+0x24>
 80034a0:	4c2d      	ldr	r4, [pc, #180]	; (8003558 <stm32__spi__transmit__2+0xd0>)
 80034a2:	4d2e      	ldr	r5, [pc, #184]	; (800355c <stm32__spi__transmit__2+0xd4>)
 80034a4:	4620      	mov	r0, r4
 80034a6:	4629      	mov	r1, r5
 80034a8:	f006 fac6 	bl	8009a38 <system__assertions__raise_assert_failure>
 80034ac:	68f8      	ldr	r0, [r7, #12]
 80034ae:	f7ff fecd 	bl	800324c <stm32__spi__crc_enabled>
 80034b2:	4603      	mov	r3, r0
 80034b4:	2b00      	cmp	r3, #0
 80034b6:	d002      	beq.n	80034be <stm32__spi__transmit__2+0x36>
 80034b8:	68f8      	ldr	r0, [r7, #12]
 80034ba:	f7ff ff37 	bl	800332c <stm32__spi__reset_crc>
 80034be:	68f8      	ldr	r0, [r7, #12]
 80034c0:	f7ff fe90 	bl	80031e4 <stm32__spi__current_data_direction>
 80034c4:	4603      	mov	r3, r0
 80034c6:	2b03      	cmp	r3, #3
 80034c8:	d109      	bne.n	80034de <stm32__spi__transmit__2+0x56>
 80034ca:	68fb      	ldr	r3, [r7, #12]
 80034cc:	685b      	ldr	r3, [r3, #4]
 80034ce:	681b      	ldr	r3, [r3, #0]
 80034d0:	461a      	mov	r2, r3
 80034d2:	4613      	mov	r3, r2
 80034d4:	f443 4280 	orr.w	r2, r3, #16384	; 0x4000
 80034d8:	68fb      	ldr	r3, [r7, #12]
 80034da:	685b      	ldr	r3, [r3, #4]
 80034dc:	601a      	str	r2, [r3, #0]
 80034de:	68f8      	ldr	r0, [r7, #12]
 80034e0:	f7ff ff0e 	bl	8003300 <stm32__spi__clear_overrun>
 80034e4:	68f8      	ldr	r0, [r7, #12]
 80034e6:	f7ff fda3 	bl	8003030 <stm32__spi__enabled>
 80034ea:	4603      	mov	r3, r0
 80034ec:	f083 0301 	eor.w	r3, r3, #1
 80034f0:	b2db      	uxtb	r3, r3
 80034f2:	2b00      	cmp	r3, #0
 80034f4:	d002      	beq.n	80034fc <stm32__spi__transmit__2+0x74>
 80034f6:	68f8      	ldr	r0, [r7, #12]
 80034f8:	f7ff fd74 	bl	8002fe4 <stm32__spi__enable>
 80034fc:	68f8      	ldr	r0, [r7, #12]
 80034fe:	e9d7 2300 	ldrd	r2, r3, [r7]
 8003502:	f000 fdd5 	bl	80040b0 <stm32__spi__send_16bit_mode>
 8003506:	68f8      	ldr	r0, [r7, #12]
 8003508:	f7ff fe12 	bl	8003130 <stm32__spi__tx_is_empty>
 800350c:	4603      	mov	r3, r0
 800350e:	f083 0301 	eor.w	r3, r3, #1
 8003512:	b2db      	uxtb	r3, r3
 8003514:	2b00      	cmp	r3, #0
 8003516:	d001      	beq.n	800351c <stm32__spi__transmit__2+0x94>
 8003518:	bf00      	nop
 800351a:	e7f4      	b.n	8003506 <stm32__spi__transmit__2+0x7e>
 800351c:	68f8      	ldr	r0, [r7, #12]
 800351e:	f7ff fe2f 	bl	8003180 <stm32__spi__busy>
 8003522:	4603      	mov	r3, r0
 8003524:	2b00      	cmp	r3, #0
 8003526:	d001      	beq.n	800352c <stm32__spi__transmit__2+0xa4>
 8003528:	bf00      	nop
 800352a:	e7f7      	b.n	800351c <stm32__spi__transmit__2+0x94>
 800352c:	68f8      	ldr	r0, [r7, #12]
 800352e:	f7ff fe59 	bl	80031e4 <stm32__spi__current_data_direction>
 8003532:	4603      	mov	r3, r0
 8003534:	2b01      	cmp	r3, #1
 8003536:	d001      	beq.n	800353c <stm32__spi__transmit__2+0xb4>
 8003538:	2b00      	cmp	r3, #0
 800353a:	d104      	bne.n	8003546 <stm32__spi__transmit__2+0xbe>
 800353c:	68f8      	ldr	r0, [r7, #12]
 800353e:	f7ff fedf 	bl	8003300 <stm32__spi__clear_overrun>
 8003542:	2301      	movs	r3, #1
 8003544:	75fb      	strb	r3, [r7, #23]
 8003546:	2300      	movs	r3, #0
 8003548:	75fb      	strb	r3, [r7, #23]
 800354a:	7dfb      	ldrb	r3, [r7, #23]
 800354c:	bf00      	nop
 800354e:	4618      	mov	r0, r3
 8003550:	3718      	adds	r7, #24
 8003552:	46bd      	mov	sp, r7
 8003554:	bdb0      	pop	{r4, r5, r7, pc}
 8003556:	bf00      	nop
 8003558:	0800d8b4 	.word	0x0800d8b4
 800355c:	0800d8ac 	.word	0x0800d8ac

08003560 <stm32__spi__transmit__3>:
 8003560:	b580      	push	{r7, lr}
 8003562:	b082      	sub	sp, #8
 8003564:	af00      	add	r7, sp, #0
 8003566:	6078      	str	r0, [r7, #4]
 8003568:	460b      	mov	r3, r1
 800356a:	70fb      	strb	r3, [r7, #3]
 800356c:	6878      	ldr	r0, [r7, #4]
 800356e:	f7ff fe6d 	bl	800324c <stm32__spi__crc_enabled>
 8003572:	4603      	mov	r3, r0
 8003574:	2b00      	cmp	r3, #0
 8003576:	d002      	beq.n	800357e <stm32__spi__transmit__3+0x1e>
 8003578:	6878      	ldr	r0, [r7, #4]
 800357a:	f7ff fed7 	bl	800332c <stm32__spi__reset_crc>
 800357e:	6878      	ldr	r0, [r7, #4]
 8003580:	f7ff fe30 	bl	80031e4 <stm32__spi__current_data_direction>
 8003584:	4603      	mov	r3, r0
 8003586:	2b03      	cmp	r3, #3
 8003588:	d109      	bne.n	800359e <stm32__spi__transmit__3+0x3e>
 800358a:	687b      	ldr	r3, [r7, #4]
 800358c:	685b      	ldr	r3, [r3, #4]
 800358e:	681b      	ldr	r3, [r3, #0]
 8003590:	461a      	mov	r2, r3
 8003592:	4613      	mov	r3, r2
 8003594:	f443 4280 	orr.w	r2, r3, #16384	; 0x4000
 8003598:	687b      	ldr	r3, [r7, #4]
 800359a:	685b      	ldr	r3, [r3, #4]
 800359c:	601a      	str	r2, [r3, #0]
 800359e:	6878      	ldr	r0, [r7, #4]
 80035a0:	f7ff fd46 	bl	8003030 <stm32__spi__enabled>
 80035a4:	4603      	mov	r3, r0
 80035a6:	f083 0301 	eor.w	r3, r3, #1
 80035aa:	b2db      	uxtb	r3, r3
 80035ac:	2b00      	cmp	r3, #0
 80035ae:	d002      	beq.n	80035b6 <stm32__spi__transmit__3+0x56>
 80035b0:	6878      	ldr	r0, [r7, #4]
 80035b2:	f7ff fd17 	bl	8002fe4 <stm32__spi__enable>
 80035b6:	687b      	ldr	r3, [r7, #4]
 80035b8:	685b      	ldr	r3, [r3, #4]
 80035ba:	330c      	adds	r3, #12
 80035bc:	681b      	ldr	r3, [r3, #0]
 80035be:	78fa      	ldrb	r2, [r7, #3]
 80035c0:	b292      	uxth	r2, r2
 80035c2:	f362 030f 	bfi	r3, r2, #0, #16
 80035c6:	687a      	ldr	r2, [r7, #4]
 80035c8:	6852      	ldr	r2, [r2, #4]
 80035ca:	320c      	adds	r2, #12
 80035cc:	6013      	str	r3, [r2, #0]
 80035ce:	6878      	ldr	r0, [r7, #4]
 80035d0:	f7ff fdae 	bl	8003130 <stm32__spi__tx_is_empty>
 80035d4:	4603      	mov	r3, r0
 80035d6:	f083 0301 	eor.w	r3, r3, #1
 80035da:	b2db      	uxtb	r3, r3
 80035dc:	2b00      	cmp	r3, #0
 80035de:	d001      	beq.n	80035e4 <stm32__spi__transmit__3+0x84>
 80035e0:	bf00      	nop
 80035e2:	e7f4      	b.n	80035ce <stm32__spi__transmit__3+0x6e>
 80035e4:	6878      	ldr	r0, [r7, #4]
 80035e6:	f7ff fdcb 	bl	8003180 <stm32__spi__busy>
 80035ea:	4603      	mov	r3, r0
 80035ec:	2b00      	cmp	r3, #0
 80035ee:	d001      	beq.n	80035f4 <stm32__spi__transmit__3+0x94>
 80035f0:	bf00      	nop
 80035f2:	e7f7      	b.n	80035e4 <stm32__spi__transmit__3+0x84>
 80035f4:	6878      	ldr	r0, [r7, #4]
 80035f6:	f7ff fdf5 	bl	80031e4 <stm32__spi__current_data_direction>
 80035fa:	4603      	mov	r3, r0
 80035fc:	2b01      	cmp	r3, #1
 80035fe:	d001      	beq.n	8003604 <stm32__spi__transmit__3+0xa4>
 8003600:	2b00      	cmp	r3, #0
 8003602:	d102      	bne.n	800360a <stm32__spi__transmit__3+0xaa>
 8003604:	6878      	ldr	r0, [r7, #4]
 8003606:	f7ff fe7b 	bl	8003300 <stm32__spi__clear_overrun>
 800360a:	3708      	adds	r7, #8
 800360c:	46bd      	mov	sp, r7
 800360e:	bd80      	pop	{r7, pc}

08003610 <stm32__spi__receive>:
 8003610:	b5b0      	push	{r4, r5, r7, lr}
 8003612:	b086      	sub	sp, #24
 8003614:	af00      	add	r7, sp, #0
 8003616:	60f8      	str	r0, [r7, #12]
 8003618:	e9c7 2300 	strd	r2, r3, [r7]
 800361c:	68f8      	ldr	r0, [r7, #12]
 800361e:	f7ff feb3 	bl	8003388 <stm32__spi__data_size>
 8003622:	4603      	mov	r3, r0
 8003624:	2b00      	cmp	r3, #0
 8003626:	d005      	beq.n	8003634 <stm32__spi__receive+0x24>
 8003628:	4c20      	ldr	r4, [pc, #128]	; (80036ac <stm32__spi__receive+0x9c>)
 800362a:	4d21      	ldr	r5, [pc, #132]	; (80036b0 <stm32__spi__receive+0xa0>)
 800362c:	4620      	mov	r0, r4
 800362e:	4629      	mov	r1, r5
 8003630:	f006 fa02 	bl	8009a38 <system__assertions__raise_assert_failure>
 8003634:	68f8      	ldr	r0, [r7, #12]
 8003636:	f7ff fe09 	bl	800324c <stm32__spi__crc_enabled>
 800363a:	4603      	mov	r3, r0
 800363c:	2b00      	cmp	r3, #0
 800363e:	d002      	beq.n	8003646 <stm32__spi__receive+0x36>
 8003640:	68f8      	ldr	r0, [r7, #12]
 8003642:	f7ff fe73 	bl	800332c <stm32__spi__reset_crc>
 8003646:	68f8      	ldr	r0, [r7, #12]
 8003648:	f7ff fcf2 	bl	8003030 <stm32__spi__enabled>
 800364c:	4603      	mov	r3, r0
 800364e:	f083 0301 	eor.w	r3, r3, #1
 8003652:	b2db      	uxtb	r3, r3
 8003654:	2b00      	cmp	r3, #0
 8003656:	d002      	beq.n	800365e <stm32__spi__receive+0x4e>
 8003658:	68f8      	ldr	r0, [r7, #12]
 800365a:	f7ff fcc3 	bl	8002fe4 <stm32__spi__enable>
 800365e:	68f8      	ldr	r0, [r7, #12]
 8003660:	e9d7 2300 	ldrd	r2, r3, [r7]
 8003664:	f000 ff2c 	bl	80044c0 <stm32__spi__receive_8bit_mode>
 8003668:	68f8      	ldr	r0, [r7, #12]
 800366a:	f7ff fd89 	bl	8003180 <stm32__spi__busy>
 800366e:	4603      	mov	r3, r0
 8003670:	2b00      	cmp	r3, #0
 8003672:	d001      	beq.n	8003678 <stm32__spi__receive+0x68>
 8003674:	bf00      	nop
 8003676:	e7f7      	b.n	8003668 <stm32__spi__receive+0x58>
 8003678:	68f8      	ldr	r0, [r7, #12]
 800367a:	f7ff fde7 	bl	800324c <stm32__spi__crc_enabled>
 800367e:	4603      	mov	r3, r0
 8003680:	461c      	mov	r4, r3
 8003682:	68f8      	ldr	r0, [r7, #12]
 8003684:	f7ff fdf4 	bl	8003270 <stm32__spi__crc_error_indicated>
 8003688:	4603      	mov	r3, r0
 800368a:	4023      	ands	r3, r4
 800368c:	b2db      	uxtb	r3, r3
 800368e:	2b00      	cmp	r3, #0
 8003690:	d004      	beq.n	800369c <stm32__spi__receive+0x8c>
 8003692:	68f8      	ldr	r0, [r7, #12]
 8003694:	f7ff fe4a 	bl	800332c <stm32__spi__reset_crc>
 8003698:	2301      	movs	r3, #1
 800369a:	75fb      	strb	r3, [r7, #23]
 800369c:	2300      	movs	r3, #0
 800369e:	75fb      	strb	r3, [r7, #23]
 80036a0:	7dfb      	ldrb	r3, [r7, #23]
 80036a2:	bf00      	nop
 80036a4:	4618      	mov	r0, r3
 80036a6:	3718      	adds	r7, #24
 80036a8:	46bd      	mov	sp, r7
 80036aa:	bdb0      	pop	{r4, r5, r7, pc}
 80036ac:	0800d8e8 	.word	0x0800d8e8
 80036b0:	0800d8ac 	.word	0x0800d8ac

080036b4 <stm32__spi__receive__2>:
 80036b4:	b5b0      	push	{r4, r5, r7, lr}
 80036b6:	b086      	sub	sp, #24
 80036b8:	af00      	add	r7, sp, #0
 80036ba:	60f8      	str	r0, [r7, #12]
 80036bc:	e9c7 2300 	strd	r2, r3, [r7]
 80036c0:	68f8      	ldr	r0, [r7, #12]
 80036c2:	f7ff fe61 	bl	8003388 <stm32__spi__data_size>
 80036c6:	4603      	mov	r3, r0
 80036c8:	2b01      	cmp	r3, #1
 80036ca:	d005      	beq.n	80036d8 <stm32__spi__receive__2+0x24>
 80036cc:	4c20      	ldr	r4, [pc, #128]	; (8003750 <stm32__spi__receive__2+0x9c>)
 80036ce:	4d21      	ldr	r5, [pc, #132]	; (8003754 <stm32__spi__receive__2+0xa0>)
 80036d0:	4620      	mov	r0, r4
 80036d2:	4629      	mov	r1, r5
 80036d4:	f006 f9b0 	bl	8009a38 <system__assertions__raise_assert_failure>
 80036d8:	68f8      	ldr	r0, [r7, #12]
 80036da:	f7ff fdb7 	bl	800324c <stm32__spi__crc_enabled>
 80036de:	4603      	mov	r3, r0
 80036e0:	2b00      	cmp	r3, #0
 80036e2:	d002      	beq.n	80036ea <stm32__spi__receive__2+0x36>
 80036e4:	68f8      	ldr	r0, [r7, #12]
 80036e6:	f7ff fe21 	bl	800332c <stm32__spi__reset_crc>
 80036ea:	68f8      	ldr	r0, [r7, #12]
 80036ec:	f7ff fca0 	bl	8003030 <stm32__spi__enabled>
 80036f0:	4603      	mov	r3, r0
 80036f2:	f083 0301 	eor.w	r3, r3, #1
 80036f6:	b2db      	uxtb	r3, r3
 80036f8:	2b00      	cmp	r3, #0
 80036fa:	d002      	beq.n	8003702 <stm32__spi__receive__2+0x4e>
 80036fc:	68f8      	ldr	r0, [r7, #12]
 80036fe:	f7ff fc71 	bl	8002fe4 <stm32__spi__enable>
 8003702:	68f8      	ldr	r0, [r7, #12]
 8003704:	e9d7 2300 	ldrd	r2, r3, [r7]
 8003708:	f000 fe92 	bl	8004430 <stm32__spi__receive_16bit_mode>
 800370c:	68f8      	ldr	r0, [r7, #12]
 800370e:	f7ff fd37 	bl	8003180 <stm32__spi__busy>
 8003712:	4603      	mov	r3, r0
 8003714:	2b00      	cmp	r3, #0
 8003716:	d001      	beq.n	800371c <stm32__spi__receive__2+0x68>
 8003718:	bf00      	nop
 800371a:	e7f7      	b.n	800370c <stm32__spi__receive__2+0x58>
 800371c:	68f8      	ldr	r0, [r7, #12]
 800371e:	f7ff fd95 	bl	800324c <stm32__spi__crc_enabled>
 8003722:	4603      	mov	r3, r0
 8003724:	461c      	mov	r4, r3
 8003726:	68f8      	ldr	r0, [r7, #12]
 8003728:	f7ff fda2 	bl	8003270 <stm32__spi__crc_error_indicated>
 800372c:	4603      	mov	r3, r0
 800372e:	4023      	ands	r3, r4
 8003730:	b2db      	uxtb	r3, r3
 8003732:	2b00      	cmp	r3, #0
 8003734:	d004      	beq.n	8003740 <stm32__spi__receive__2+0x8c>
 8003736:	68f8      	ldr	r0, [r7, #12]
 8003738:	f7ff fdf8 	bl	800332c <stm32__spi__reset_crc>
 800373c:	2301      	movs	r3, #1
 800373e:	75fb      	strb	r3, [r7, #23]
 8003740:	2300      	movs	r3, #0
 8003742:	75fb      	strb	r3, [r7, #23]
 8003744:	7dfb      	ldrb	r3, [r7, #23]
 8003746:	bf00      	nop
 8003748:	4618      	mov	r0, r3
 800374a:	3718      	adds	r7, #24
 800374c:	46bd      	mov	sp, r7
 800374e:	bdb0      	pop	{r4, r5, r7, pc}
 8003750:	0800d91c 	.word	0x0800d91c
 8003754:	0800d8ac 	.word	0x0800d8ac

08003758 <stm32__spi__receive__3>:
 8003758:	b590      	push	{r4, r7, lr}
 800375a:	b085      	sub	sp, #20
 800375c:	af00      	add	r7, sp, #0
 800375e:	6078      	str	r0, [r7, #4]
 8003760:	6878      	ldr	r0, [r7, #4]
 8003762:	f7ff fd73 	bl	800324c <stm32__spi__crc_enabled>
 8003766:	4603      	mov	r3, r0
 8003768:	2b00      	cmp	r3, #0
 800376a:	d002      	beq.n	8003772 <stm32__spi__receive__3+0x1a>
 800376c:	6878      	ldr	r0, [r7, #4]
 800376e:	f7ff fddd 	bl	800332c <stm32__spi__reset_crc>
 8003772:	6878      	ldr	r0, [r7, #4]
 8003774:	f7ff fc5c 	bl	8003030 <stm32__spi__enabled>
 8003778:	4603      	mov	r3, r0
 800377a:	f083 0301 	eor.w	r3, r3, #1
 800377e:	b2db      	uxtb	r3, r3
 8003780:	2b00      	cmp	r3, #0
 8003782:	d002      	beq.n	800378a <stm32__spi__receive__3+0x32>
 8003784:	6878      	ldr	r0, [r7, #4]
 8003786:	f7ff fc2d 	bl	8002fe4 <stm32__spi__enable>
 800378a:	687b      	ldr	r3, [r7, #4]
 800378c:	685b      	ldr	r3, [r3, #4]
 800378e:	330c      	adds	r3, #12
 8003790:	681b      	ldr	r3, [r3, #0]
 8003792:	f36f 030f 	bfc	r3, #0, #16
 8003796:	687a      	ldr	r2, [r7, #4]
 8003798:	6852      	ldr	r2, [r2, #4]
 800379a:	320c      	adds	r2, #12
 800379c:	6013      	str	r3, [r2, #0]
 800379e:	6878      	ldr	r0, [r7, #4]
 80037a0:	f7ff fcd8 	bl	8003154 <stm32__spi__rx_is_empty>
 80037a4:	4603      	mov	r3, r0
 80037a6:	2b00      	cmp	r3, #0
 80037a8:	d001      	beq.n	80037ae <stm32__spi__receive__3+0x56>
 80037aa:	bf00      	nop
 80037ac:	e7f7      	b.n	800379e <stm32__spi__receive__3+0x46>
 80037ae:	687b      	ldr	r3, [r7, #4]
 80037b0:	685b      	ldr	r3, [r3, #4]
 80037b2:	330c      	adds	r3, #12
 80037b4:	681b      	ldr	r3, [r3, #0]
 80037b6:	b29b      	uxth	r3, r3
 80037b8:	2bff      	cmp	r3, #255	; 0xff
 80037ba:	d904      	bls.n	80037c6 <stm32__spi__receive__3+0x6e>
 80037bc:	481b      	ldr	r0, [pc, #108]	; (800382c <stm32__spi__receive__3+0xd4>)
 80037be:	f44f 7110 	mov.w	r1, #576	; 0x240
 80037c2:	f005 fc21 	bl	8009008 <__gnat_rcheck_CE_Range_Check>
 80037c6:	b2db      	uxtb	r3, r3
 80037c8:	737b      	strb	r3, [r7, #13]
 80037ca:	6878      	ldr	r0, [r7, #4]
 80037cc:	f7ff fd3e 	bl	800324c <stm32__spi__crc_enabled>
 80037d0:	4603      	mov	r3, r0
 80037d2:	2b00      	cmp	r3, #0
 80037d4:	d00c      	beq.n	80037f0 <stm32__spi__receive__3+0x98>
 80037d6:	6878      	ldr	r0, [r7, #4]
 80037d8:	f7ff fcbc 	bl	8003154 <stm32__spi__rx_is_empty>
 80037dc:	4603      	mov	r3, r0
 80037de:	2b00      	cmp	r3, #0
 80037e0:	d001      	beq.n	80037e6 <stm32__spi__receive__3+0x8e>
 80037e2:	bf00      	nop
 80037e4:	e7f7      	b.n	80037d6 <stm32__spi__receive__3+0x7e>
 80037e6:	687b      	ldr	r3, [r7, #4]
 80037e8:	685b      	ldr	r3, [r3, #4]
 80037ea:	330c      	adds	r3, #12
 80037ec:	681b      	ldr	r3, [r3, #0]
 80037ee:	81fb      	strh	r3, [r7, #14]
 80037f0:	6878      	ldr	r0, [r7, #4]
 80037f2:	f7ff fcc5 	bl	8003180 <stm32__spi__busy>
 80037f6:	4603      	mov	r3, r0
 80037f8:	2b00      	cmp	r3, #0
 80037fa:	d001      	beq.n	8003800 <stm32__spi__receive__3+0xa8>
 80037fc:	bf00      	nop
 80037fe:	e7f7      	b.n	80037f0 <stm32__spi__receive__3+0x98>
 8003800:	6878      	ldr	r0, [r7, #4]
 8003802:	f7ff fd23 	bl	800324c <stm32__spi__crc_enabled>
 8003806:	4603      	mov	r3, r0
 8003808:	461c      	mov	r4, r3
 800380a:	6878      	ldr	r0, [r7, #4]
 800380c:	f7ff fd30 	bl	8003270 <stm32__spi__crc_error_indicated>
 8003810:	4603      	mov	r3, r0
 8003812:	4023      	ands	r3, r4
 8003814:	b2db      	uxtb	r3, r3
 8003816:	2b00      	cmp	r3, #0
 8003818:	d002      	beq.n	8003820 <stm32__spi__receive__3+0xc8>
 800381a:	6878      	ldr	r0, [r7, #4]
 800381c:	f7ff fd86 	bl	800332c <stm32__spi__reset_crc>
 8003820:	7b7b      	ldrb	r3, [r7, #13]
 8003822:	bf00      	nop
 8003824:	4618      	mov	r0, r3
 8003826:	3714      	adds	r7, #20
 8003828:	46bd      	mov	sp, r7
 800382a:	bd90      	pop	{r4, r7, pc}
 800382c:	0800d868 	.word	0x0800d868

08003830 <stm32__spi__transmit_receive>:
 8003830:	b590      	push	{r4, r7, lr}
 8003832:	b08f      	sub	sp, #60	; 0x3c
 8003834:	af04      	add	r7, sp, #16
 8003836:	60f8      	str	r0, [r7, #12]
 8003838:	e9c7 2300 	strd	r2, r3, [r7]
 800383c:	687b      	ldr	r3, [r7, #4]
 800383e:	681b      	ldr	r3, [r3, #0]
 8003840:	687a      	ldr	r2, [r7, #4]
 8003842:	6852      	ldr	r2, [r2, #4]
 8003844:	6bf9      	ldr	r1, [r7, #60]	; 0x3c
 8003846:	6809      	ldr	r1, [r1, #0]
 8003848:	6279      	str	r1, [r7, #36]	; 0x24
 800384a:	6bf9      	ldr	r1, [r7, #60]	; 0x3c
 800384c:	6848      	ldr	r0, [r1, #4]
 800384e:	6bf9      	ldr	r1, [r7, #60]	; 0x3c
 8003850:	6809      	ldr	r1, [r1, #0]
 8003852:	4288      	cmp	r0, r1
 8003854:	db03      	blt.n	800385e <stm32__spi__transmit_receive+0x2e>
 8003856:	6bf9      	ldr	r1, [r7, #60]	; 0x3c
 8003858:	6849      	ldr	r1, [r1, #4]
 800385a:	6239      	str	r1, [r7, #32]
 800385c:	e003      	b.n	8003866 <stm32__spi__transmit_receive+0x36>
 800385e:	6bf9      	ldr	r1, [r7, #60]	; 0x3c
 8003860:	6809      	ldr	r1, [r1, #0]
 8003862:	3901      	subs	r1, #1
 8003864:	6239      	str	r1, [r7, #32]
 8003866:	61fb      	str	r3, [r7, #28]
 8003868:	429a      	cmp	r2, r3
 800386a:	db01      	blt.n	8003870 <stm32__spi__transmit_receive+0x40>
 800386c:	61ba      	str	r2, [r7, #24]
 800386e:	e001      	b.n	8003874 <stm32__spi__transmit_receive+0x44>
 8003870:	3b01      	subs	r3, #1
 8003872:	61bb      	str	r3, [r7, #24]
 8003874:	68f8      	ldr	r0, [r7, #12]
 8003876:	f7ff fce9 	bl	800324c <stm32__spi__crc_enabled>
 800387a:	4603      	mov	r3, r0
 800387c:	2b00      	cmp	r3, #0
 800387e:	d002      	beq.n	8003886 <stm32__spi__transmit_receive+0x56>
 8003880:	68f8      	ldr	r0, [r7, #12]
 8003882:	f7ff fd53 	bl	800332c <stm32__spi__reset_crc>
 8003886:	68f8      	ldr	r0, [r7, #12]
 8003888:	f7ff fbd2 	bl	8003030 <stm32__spi__enabled>
 800388c:	4603      	mov	r3, r0
 800388e:	f083 0301 	eor.w	r3, r3, #1
 8003892:	b2db      	uxtb	r3, r3
 8003894:	2b00      	cmp	r3, #0
 8003896:	d002      	beq.n	800389e <stm32__spi__transmit_receive+0x6e>
 8003898:	68f8      	ldr	r0, [r7, #12]
 800389a:	f7ff fba3 	bl	8002fe4 <stm32__spi__enable>
 800389e:	68f8      	ldr	r0, [r7, #12]
 80038a0:	f7ff fd60 	bl	8003364 <stm32__spi__is_data_frame_16bit>
 80038a4:	4603      	mov	r3, r0
 80038a6:	2b00      	cmp	r3, #0
 80038a8:	d00b      	beq.n	80038c2 <stm32__spi__transmit_receive+0x92>
 80038aa:	e9d7 340e 	ldrd	r3, r4, [r7, #56]	; 0x38
 80038ae:	e9cd 3400 	strd	r3, r4, [sp]
 80038b2:	6c3b      	ldr	r3, [r7, #64]	; 0x40
 80038b4:	9302      	str	r3, [sp, #8]
 80038b6:	68f8      	ldr	r0, [r7, #12]
 80038b8:	e9d7 2300 	ldrd	r2, r3, [r7]
 80038bc:	f000 f8c6 	bl	8003a4c <stm32__spi__send_receive_16bit_mode>
 80038c0:	e00a      	b.n	80038d8 <stm32__spi__transmit_receive+0xa8>
 80038c2:	e9d7 340e 	ldrd	r3, r4, [r7, #56]	; 0x38
 80038c6:	e9cd 3400 	strd	r3, r4, [sp]
 80038ca:	6c3b      	ldr	r3, [r7, #64]	; 0x40
 80038cc:	9302      	str	r3, [sp, #8]
 80038ce:	68f8      	ldr	r0, [r7, #12]
 80038d0:	e9d7 2300 	ldrd	r2, r3, [r7]
 80038d4:	f000 fa64 	bl	8003da0 <stm32__spi__send_receive_8bit_mode>
 80038d8:	68f8      	ldr	r0, [r7, #12]
 80038da:	f7ff fcb7 	bl	800324c <stm32__spi__crc_enabled>
 80038de:	4603      	mov	r3, r0
 80038e0:	2b00      	cmp	r3, #0
 80038e2:	d00c      	beq.n	80038fe <stm32__spi__transmit_receive+0xce>
 80038e4:	68f8      	ldr	r0, [r7, #12]
 80038e6:	f7ff fc35 	bl	8003154 <stm32__spi__rx_is_empty>
 80038ea:	4603      	mov	r3, r0
 80038ec:	2b00      	cmp	r3, #0
 80038ee:	d001      	beq.n	80038f4 <stm32__spi__transmit_receive+0xc4>
 80038f0:	bf00      	nop
 80038f2:	e7f7      	b.n	80038e4 <stm32__spi__transmit_receive+0xb4>
 80038f4:	68fb      	ldr	r3, [r7, #12]
 80038f6:	685b      	ldr	r3, [r3, #4]
 80038f8:	330c      	adds	r3, #12
 80038fa:	681b      	ldr	r3, [r3, #0]
 80038fc:	82fb      	strh	r3, [r7, #22]
 80038fe:	68f8      	ldr	r0, [r7, #12]
 8003900:	f7ff fc3e 	bl	8003180 <stm32__spi__busy>
 8003904:	4603      	mov	r3, r0
 8003906:	2b00      	cmp	r3, #0
 8003908:	d001      	beq.n	800390e <stm32__spi__transmit_receive+0xde>
 800390a:	bf00      	nop
 800390c:	e7f7      	b.n	80038fe <stm32__spi__transmit_receive+0xce>
 800390e:	68f8      	ldr	r0, [r7, #12]
 8003910:	f7ff fc9c 	bl	800324c <stm32__spi__crc_enabled>
 8003914:	4603      	mov	r3, r0
 8003916:	461c      	mov	r4, r3
 8003918:	68f8      	ldr	r0, [r7, #12]
 800391a:	f7ff fca9 	bl	8003270 <stm32__spi__crc_error_indicated>
 800391e:	4603      	mov	r3, r0
 8003920:	4023      	ands	r3, r4
 8003922:	b2db      	uxtb	r3, r3
 8003924:	2b00      	cmp	r3, #0
 8003926:	d002      	beq.n	800392e <stm32__spi__transmit_receive+0xfe>
 8003928:	68f8      	ldr	r0, [r7, #12]
 800392a:	f7ff fcff 	bl	800332c <stm32__spi__reset_crc>
 800392e:	372c      	adds	r7, #44	; 0x2c
 8003930:	46bd      	mov	sp, r7
 8003932:	bd90      	pop	{r4, r7, pc}

08003934 <stm32__spi__transmit_receive__2>:
 8003934:	b590      	push	{r4, r7, lr}
 8003936:	b085      	sub	sp, #20
 8003938:	af00      	add	r7, sp, #0
 800393a:	6078      	str	r0, [r7, #4]
 800393c:	460b      	mov	r3, r1
 800393e:	70fb      	strb	r3, [r7, #3]
 8003940:	6878      	ldr	r0, [r7, #4]
 8003942:	f7ff fc83 	bl	800324c <stm32__spi__crc_enabled>
 8003946:	4603      	mov	r3, r0
 8003948:	2b00      	cmp	r3, #0
 800394a:	d002      	beq.n	8003952 <stm32__spi__transmit_receive__2+0x1e>
 800394c:	6878      	ldr	r0, [r7, #4]
 800394e:	f7ff fced 	bl	800332c <stm32__spi__reset_crc>
 8003952:	6878      	ldr	r0, [r7, #4]
 8003954:	f7ff fb6c 	bl	8003030 <stm32__spi__enabled>
 8003958:	4603      	mov	r3, r0
 800395a:	f083 0301 	eor.w	r3, r3, #1
 800395e:	b2db      	uxtb	r3, r3
 8003960:	2b00      	cmp	r3, #0
 8003962:	d002      	beq.n	800396a <stm32__spi__transmit_receive__2+0x36>
 8003964:	6878      	ldr	r0, [r7, #4]
 8003966:	f7ff fb3d 	bl	8002fe4 <stm32__spi__enable>
 800396a:	6878      	ldr	r0, [r7, #4]
 800396c:	f7ff fcfa 	bl	8003364 <stm32__spi__is_data_frame_16bit>
 8003970:	4603      	mov	r3, r0
 8003972:	2b00      	cmp	r3, #0
 8003974:	d004      	beq.n	8003980 <stm32__spi__transmit_receive__2+0x4c>
 8003976:	4834      	ldr	r0, [pc, #208]	; (8003a48 <stm32__spi__transmit_receive__2+0x114>)
 8003978:	f44f 7126 	mov.w	r1, #664	; 0x298
 800397c:	f005 fb4c 	bl	8009018 <__gnat_rcheck_PE_Explicit_Raise>
 8003980:	687b      	ldr	r3, [r7, #4]
 8003982:	685b      	ldr	r3, [r3, #4]
 8003984:	330c      	adds	r3, #12
 8003986:	681b      	ldr	r3, [r3, #0]
 8003988:	78fa      	ldrb	r2, [r7, #3]
 800398a:	b292      	uxth	r2, r2
 800398c:	f362 030f 	bfi	r3, r2, #0, #16
 8003990:	687a      	ldr	r2, [r7, #4]
 8003992:	6852      	ldr	r2, [r2, #4]
 8003994:	320c      	adds	r2, #12
 8003996:	6013      	str	r3, [r2, #0]
 8003998:	6878      	ldr	r0, [r7, #4]
 800399a:	f7ff fc57 	bl	800324c <stm32__spi__crc_enabled>
 800399e:	4603      	mov	r3, r0
 80039a0:	2b00      	cmp	r3, #0
 80039a2:	d009      	beq.n	80039b8 <stm32__spi__transmit_receive__2+0x84>
 80039a4:	687b      	ldr	r3, [r7, #4]
 80039a6:	685b      	ldr	r3, [r3, #4]
 80039a8:	681b      	ldr	r3, [r3, #0]
 80039aa:	461a      	mov	r2, r3
 80039ac:	4613      	mov	r3, r2
 80039ae:	f443 5280 	orr.w	r2, r3, #4096	; 0x1000
 80039b2:	687b      	ldr	r3, [r7, #4]
 80039b4:	685b      	ldr	r3, [r3, #4]
 80039b6:	601a      	str	r2, [r3, #0]
 80039b8:	6878      	ldr	r0, [r7, #4]
 80039ba:	f7ff fbcb 	bl	8003154 <stm32__spi__rx_is_empty>
 80039be:	4603      	mov	r3, r0
 80039c0:	2b00      	cmp	r3, #0
 80039c2:	d001      	beq.n	80039c8 <stm32__spi__transmit_receive__2+0x94>
 80039c4:	bf00      	nop
 80039c6:	e7f7      	b.n	80039b8 <stm32__spi__transmit_receive__2+0x84>
 80039c8:	687b      	ldr	r3, [r7, #4]
 80039ca:	685b      	ldr	r3, [r3, #4]
 80039cc:	330c      	adds	r3, #12
 80039ce:	681b      	ldr	r3, [r3, #0]
 80039d0:	b29b      	uxth	r3, r3
 80039d2:	2bff      	cmp	r3, #255	; 0xff
 80039d4:	d904      	bls.n	80039e0 <stm32__spi__transmit_receive__2+0xac>
 80039d6:	481c      	ldr	r0, [pc, #112]	; (8003a48 <stm32__spi__transmit_receive__2+0x114>)
 80039d8:	f240 21a7 	movw	r1, #679	; 0x2a7
 80039dc:	f005 fb14 	bl	8009008 <__gnat_rcheck_CE_Range_Check>
 80039e0:	b2db      	uxtb	r3, r3
 80039e2:	737b      	strb	r3, [r7, #13]
 80039e4:	6878      	ldr	r0, [r7, #4]
 80039e6:	f7ff fc31 	bl	800324c <stm32__spi__crc_enabled>
 80039ea:	4603      	mov	r3, r0
 80039ec:	2b00      	cmp	r3, #0
 80039ee:	d00c      	beq.n	8003a0a <stm32__spi__transmit_receive__2+0xd6>
 80039f0:	6878      	ldr	r0, [r7, #4]
 80039f2:	f7ff fbaf 	bl	8003154 <stm32__spi__rx_is_empty>
 80039f6:	4603      	mov	r3, r0
 80039f8:	2b00      	cmp	r3, #0
 80039fa:	d001      	beq.n	8003a00 <stm32__spi__transmit_receive__2+0xcc>
 80039fc:	bf00      	nop
 80039fe:	e7f7      	b.n	80039f0 <stm32__spi__transmit_receive__2+0xbc>
 8003a00:	687b      	ldr	r3, [r7, #4]
 8003a02:	685b      	ldr	r3, [r3, #4]
 8003a04:	330c      	adds	r3, #12
 8003a06:	681b      	ldr	r3, [r3, #0]
 8003a08:	81fb      	strh	r3, [r7, #14]
 8003a0a:	6878      	ldr	r0, [r7, #4]
 8003a0c:	f7ff fbb8 	bl	8003180 <stm32__spi__busy>
 8003a10:	4603      	mov	r3, r0
 8003a12:	2b00      	cmp	r3, #0
 8003a14:	d001      	beq.n	8003a1a <stm32__spi__transmit_receive__2+0xe6>
 8003a16:	bf00      	nop
 8003a18:	e7f7      	b.n	8003a0a <stm32__spi__transmit_receive__2+0xd6>
 8003a1a:	6878      	ldr	r0, [r7, #4]
 8003a1c:	f7ff fc16 	bl	800324c <stm32__spi__crc_enabled>
 8003a20:	4603      	mov	r3, r0
 8003a22:	461c      	mov	r4, r3
 8003a24:	6878      	ldr	r0, [r7, #4]
 8003a26:	f7ff fc23 	bl	8003270 <stm32__spi__crc_error_indicated>
 8003a2a:	4603      	mov	r3, r0
 8003a2c:	4023      	ands	r3, r4
 8003a2e:	b2db      	uxtb	r3, r3
 8003a30:	2b00      	cmp	r3, #0
 8003a32:	d002      	beq.n	8003a3a <stm32__spi__transmit_receive__2+0x106>
 8003a34:	6878      	ldr	r0, [r7, #4]
 8003a36:	f7ff fc79 	bl	800332c <stm32__spi__reset_crc>
 8003a3a:	7b7b      	ldrb	r3, [r7, #13]
 8003a3c:	bf00      	nop
 8003a3e:	4618      	mov	r0, r3
 8003a40:	3714      	adds	r7, #20
 8003a42:	46bd      	mov	sp, r7
 8003a44:	bd90      	pop	{r4, r7, pc}
 8003a46:	bf00      	nop
 8003a48:	0800d868 	.word	0x0800d868

08003a4c <stm32__spi__send_receive_16bit_mode>:
 8003a4c:	b5f0      	push	{r4, r5, r6, r7, lr}
 8003a4e:	b08d      	sub	sp, #52	; 0x34
 8003a50:	af00      	add	r7, sp, #0
 8003a52:	60f8      	str	r0, [r7, #12]
 8003a54:	e9c7 2300 	strd	r2, r3, [r7]
 8003a58:	687b      	ldr	r3, [r7, #4]
 8003a5a:	681c      	ldr	r4, [r3, #0]
 8003a5c:	687b      	ldr	r3, [r7, #4]
 8003a5e:	685d      	ldr	r5, [r3, #4]
 8003a60:	6cfb      	ldr	r3, [r7, #76]	; 0x4c
 8003a62:	681b      	ldr	r3, [r3, #0]
 8003a64:	623b      	str	r3, [r7, #32]
 8003a66:	6cfb      	ldr	r3, [r7, #76]	; 0x4c
 8003a68:	685a      	ldr	r2, [r3, #4]
 8003a6a:	6cfb      	ldr	r3, [r7, #76]	; 0x4c
 8003a6c:	681b      	ldr	r3, [r3, #0]
 8003a6e:	429a      	cmp	r2, r3
 8003a70:	db03      	blt.n	8003a7a <stm32__spi__send_receive_16bit_mode+0x2e>
 8003a72:	6cfb      	ldr	r3, [r7, #76]	; 0x4c
 8003a74:	685b      	ldr	r3, [r3, #4]
 8003a76:	61fb      	str	r3, [r7, #28]
 8003a78:	e003      	b.n	8003a82 <stm32__spi__send_receive_16bit_mode+0x36>
 8003a7a:	6cfb      	ldr	r3, [r7, #76]	; 0x4c
 8003a7c:	681b      	ldr	r3, [r3, #0]
 8003a7e:	3b01      	subs	r3, #1
 8003a80:	61fb      	str	r3, [r7, #28]
 8003a82:	61bc      	str	r4, [r7, #24]
 8003a84:	42a5      	cmp	r5, r4
 8003a86:	db01      	blt.n	8003a8c <stm32__spi__send_receive_16bit_mode+0x40>
 8003a88:	617d      	str	r5, [r7, #20]
 8003a8a:	e002      	b.n	8003a92 <stm32__spi__send_receive_16bit_mode+0x46>
 8003a8c:	4623      	mov	r3, r4
 8003a8e:	3b01      	subs	r3, #1
 8003a90:	617b      	str	r3, [r7, #20]
 8003a92:	6d3b      	ldr	r3, [r7, #80]	; 0x50
 8003a94:	62fb      	str	r3, [r7, #44]	; 0x2c
 8003a96:	2c00      	cmp	r4, #0
 8003a98:	da04      	bge.n	8003aa4 <stm32__spi__send_receive_16bit_mode+0x58>
 8003a9a:	48a7      	ldr	r0, [pc, #668]	; (8003d38 <stm32__spi__send_receive_16bit_mode+0x2ec>)
 8003a9c:	f240 21ca 	movw	r1, #714	; 0x2ca
 8003aa0:	f005 fab2 	bl	8009008 <__gnat_rcheck_CE_Range_Check>
 8003aa4:	62bc      	str	r4, [r7, #40]	; 0x28
 8003aa6:	6cfb      	ldr	r3, [r7, #76]	; 0x4c
 8003aa8:	681b      	ldr	r3, [r3, #0]
 8003aaa:	2b00      	cmp	r3, #0
 8003aac:	da04      	bge.n	8003ab8 <stm32__spi__send_receive_16bit_mode+0x6c>
 8003aae:	48a2      	ldr	r0, [pc, #648]	; (8003d38 <stm32__spi__send_receive_16bit_mode+0x2ec>)
 8003ab0:	f240 21cb 	movw	r1, #715	; 0x2cb
 8003ab4:	f005 faa8 	bl	8009008 <__gnat_rcheck_CE_Range_Check>
 8003ab8:	6cfb      	ldr	r3, [r7, #76]	; 0x4c
 8003aba:	681b      	ldr	r3, [r3, #0]
 8003abc:	627b      	str	r3, [r7, #36]	; 0x24
 8003abe:	68f8      	ldr	r0, [r7, #12]
 8003ac0:	f7ff fb70 	bl	80031a4 <stm32__spi__current_mode>
 8003ac4:	4603      	mov	r3, r0
 8003ac6:	2b01      	cmp	r3, #1
 8003ac8:	d002      	beq.n	8003ad0 <stm32__spi__send_receive_16bit_mode+0x84>
 8003aca:	6afb      	ldr	r3, [r7, #44]	; 0x2c
 8003acc:	2b01      	cmp	r3, #1
 8003ace:	d13c      	bne.n	8003b4a <stm32__spi__send_receive_16bit_mode+0xfe>
 8003ad0:	6abb      	ldr	r3, [r7, #40]	; 0x28
 8003ad2:	42a3      	cmp	r3, r4
 8003ad4:	db02      	blt.n	8003adc <stm32__spi__send_receive_16bit_mode+0x90>
 8003ad6:	6abb      	ldr	r3, [r7, #40]	; 0x28
 8003ad8:	42ab      	cmp	r3, r5
 8003ada:	dd04      	ble.n	8003ae6 <stm32__spi__send_receive_16bit_mode+0x9a>
 8003adc:	4896      	ldr	r0, [pc, #600]	; (8003d38 <stm32__spi__send_receive_16bit_mode+0x2ec>)
 8003ade:	f240 21cf 	movw	r1, #719	; 0x2cf
 8003ae2:	f005 fa79 	bl	8008fd8 <__gnat_rcheck_CE_Index_Check>
 8003ae6:	683a      	ldr	r2, [r7, #0]
 8003ae8:	4621      	mov	r1, r4
 8003aea:	6abb      	ldr	r3, [r7, #40]	; 0x28
 8003aec:	1a5b      	subs	r3, r3, r1
 8003aee:	4413      	add	r3, r2
 8003af0:	2b00      	cmp	r3, #0
 8003af2:	d104      	bne.n	8003afe <stm32__spi__send_receive_16bit_mode+0xb2>
 8003af4:	4890      	ldr	r0, [pc, #576]	; (8003d38 <stm32__spi__send_receive_16bit_mode+0x2ec>)
 8003af6:	f240 21cf 	movw	r1, #719	; 0x2cf
 8003afa:	f005 fa55 	bl	8008fa8 <__gnat_rcheck_CE_Access_Check>
 8003afe:	68fb      	ldr	r3, [r7, #12]
 8003b00:	685b      	ldr	r3, [r3, #4]
 8003b02:	330c      	adds	r3, #12
 8003b04:	681b      	ldr	r3, [r3, #0]
 8003b06:	6839      	ldr	r1, [r7, #0]
 8003b08:	4620      	mov	r0, r4
 8003b0a:	6aba      	ldr	r2, [r7, #40]	; 0x28
 8003b0c:	1a12      	subs	r2, r2, r0
 8003b0e:	440a      	add	r2, r1
 8003b10:	8812      	ldrh	r2, [r2, #0]
 8003b12:	f362 030f 	bfi	r3, r2, #0, #16
 8003b16:	68fa      	ldr	r2, [r7, #12]
 8003b18:	6852      	ldr	r2, [r2, #4]
 8003b1a:	320c      	adds	r2, #12
 8003b1c:	6013      	str	r3, [r2, #0]
 8003b1e:	6abb      	ldr	r3, [r7, #40]	; 0x28
 8003b20:	4a86      	ldr	r2, [pc, #536]	; (8003d3c <stm32__spi__send_receive_16bit_mode+0x2f0>)
 8003b22:	4293      	cmp	r3, r2
 8003b24:	dd04      	ble.n	8003b30 <stm32__spi__send_receive_16bit_mode+0xe4>
 8003b26:	4884      	ldr	r0, [pc, #528]	; (8003d38 <stm32__spi__send_receive_16bit_mode+0x2ec>)
 8003b28:	f44f 7134 	mov.w	r1, #720	; 0x2d0
 8003b2c:	f005 fa64 	bl	8008ff8 <__gnat_rcheck_CE_Overflow_Check>
 8003b30:	6abb      	ldr	r3, [r7, #40]	; 0x28
 8003b32:	3302      	adds	r3, #2
 8003b34:	62bb      	str	r3, [r7, #40]	; 0x28
 8003b36:	6afb      	ldr	r3, [r7, #44]	; 0x2c
 8003b38:	3b01      	subs	r3, #1
 8003b3a:	2b00      	cmp	r3, #0
 8003b3c:	da04      	bge.n	8003b48 <stm32__spi__send_receive_16bit_mode+0xfc>
 8003b3e:	487e      	ldr	r0, [pc, #504]	; (8003d38 <stm32__spi__send_receive_16bit_mode+0x2ec>)
 8003b40:	f240 21d1 	movw	r1, #721	; 0x2d1
 8003b44:	f005 fa60 	bl	8009008 <__gnat_rcheck_CE_Range_Check>
 8003b48:	62fb      	str	r3, [r7, #44]	; 0x2c
 8003b4a:	6afb      	ldr	r3, [r7, #44]	; 0x2c
 8003b4c:	2b00      	cmp	r3, #0
 8003b4e:	d142      	bne.n	8003bd6 <stm32__spi__send_receive_16bit_mode+0x18a>
 8003b50:	68f8      	ldr	r0, [r7, #12]
 8003b52:	f7ff fb7b 	bl	800324c <stm32__spi__crc_enabled>
 8003b56:	4603      	mov	r3, r0
 8003b58:	2b00      	cmp	r3, #0
 8003b5a:	d009      	beq.n	8003b70 <stm32__spi__send_receive_16bit_mode+0x124>
 8003b5c:	68fb      	ldr	r3, [r7, #12]
 8003b5e:	685b      	ldr	r3, [r3, #4]
 8003b60:	681b      	ldr	r3, [r3, #0]
 8003b62:	461a      	mov	r2, r3
 8003b64:	4613      	mov	r3, r2
 8003b66:	f443 5280 	orr.w	r2, r3, #4096	; 0x1000
 8003b6a:	68fb      	ldr	r3, [r7, #12]
 8003b6c:	685b      	ldr	r3, [r3, #4]
 8003b6e:	601a      	str	r2, [r3, #0]
 8003b70:	68f8      	ldr	r0, [r7, #12]
 8003b72:	f7ff faef 	bl	8003154 <stm32__spi__rx_is_empty>
 8003b76:	4603      	mov	r3, r0
 8003b78:	2b00      	cmp	r3, #0
 8003b7a:	d001      	beq.n	8003b80 <stm32__spi__send_receive_16bit_mode+0x134>
 8003b7c:	bf00      	nop
 8003b7e:	e7f7      	b.n	8003b70 <stm32__spi__send_receive_16bit_mode+0x124>
 8003b80:	6a7a      	ldr	r2, [r7, #36]	; 0x24
 8003b82:	6cfb      	ldr	r3, [r7, #76]	; 0x4c
 8003b84:	681b      	ldr	r3, [r3, #0]
 8003b86:	429a      	cmp	r2, r3
 8003b88:	db04      	blt.n	8003b94 <stm32__spi__send_receive_16bit_mode+0x148>
 8003b8a:	6a7a      	ldr	r2, [r7, #36]	; 0x24
 8003b8c:	6cfb      	ldr	r3, [r7, #76]	; 0x4c
 8003b8e:	685b      	ldr	r3, [r3, #4]
 8003b90:	429a      	cmp	r2, r3
 8003b92:	dd04      	ble.n	8003b9e <stm32__spi__send_receive_16bit_mode+0x152>
 8003b94:	4868      	ldr	r0, [pc, #416]	; (8003d38 <stm32__spi__send_receive_16bit_mode+0x2ec>)
 8003b96:	f44f 7138 	mov.w	r1, #736	; 0x2e0
 8003b9a:	f005 fa1d 	bl	8008fd8 <__gnat_rcheck_CE_Index_Check>
 8003b9e:	6cba      	ldr	r2, [r7, #72]	; 0x48
 8003ba0:	6cfb      	ldr	r3, [r7, #76]	; 0x4c
 8003ba2:	681b      	ldr	r3, [r3, #0]
 8003ba4:	4619      	mov	r1, r3
 8003ba6:	6a7b      	ldr	r3, [r7, #36]	; 0x24
 8003ba8:	1a5b      	subs	r3, r3, r1
 8003baa:	4413      	add	r3, r2
 8003bac:	2b00      	cmp	r3, #0
 8003bae:	d104      	bne.n	8003bba <stm32__spi__send_receive_16bit_mode+0x16e>
 8003bb0:	4861      	ldr	r0, [pc, #388]	; (8003d38 <stm32__spi__send_receive_16bit_mode+0x2ec>)
 8003bb2:	f44f 7138 	mov.w	r1, #736	; 0x2e0
 8003bb6:	f005 f9f7 	bl	8008fa8 <__gnat_rcheck_CE_Access_Check>
 8003bba:	6cba      	ldr	r2, [r7, #72]	; 0x48
 8003bbc:	6cfb      	ldr	r3, [r7, #76]	; 0x4c
 8003bbe:	681b      	ldr	r3, [r3, #0]
 8003bc0:	4619      	mov	r1, r3
 8003bc2:	6a7b      	ldr	r3, [r7, #36]	; 0x24
 8003bc4:	1a5b      	subs	r3, r3, r1
 8003bc6:	4413      	add	r3, r2
 8003bc8:	68fa      	ldr	r2, [r7, #12]
 8003bca:	6852      	ldr	r2, [r2, #4]
 8003bcc:	320c      	adds	r2, #12
 8003bce:	6812      	ldr	r2, [r2, #0]
 8003bd0:	b292      	uxth	r2, r2
 8003bd2:	801a      	strh	r2, [r3, #0]
 8003bd4:	e0de      	b.n	8003d94 <stm32__spi__send_receive_16bit_mode+0x348>
 8003bd6:	6afb      	ldr	r3, [r7, #44]	; 0x2c
 8003bd8:	2b00      	cmp	r3, #0
 8003bda:	f340 809f 	ble.w	8003d1c <stm32__spi__send_receive_16bit_mode+0x2d0>
 8003bde:	68f8      	ldr	r0, [r7, #12]
 8003be0:	f7ff faa6 	bl	8003130 <stm32__spi__tx_is_empty>
 8003be4:	4603      	mov	r3, r0
 8003be6:	f083 0301 	eor.w	r3, r3, #1
 8003bea:	b2db      	uxtb	r3, r3
 8003bec:	2b00      	cmp	r3, #0
 8003bee:	d001      	beq.n	8003bf4 <stm32__spi__send_receive_16bit_mode+0x1a8>
 8003bf0:	bf00      	nop
 8003bf2:	e7f4      	b.n	8003bde <stm32__spi__send_receive_16bit_mode+0x192>
 8003bf4:	6abb      	ldr	r3, [r7, #40]	; 0x28
 8003bf6:	42a3      	cmp	r3, r4
 8003bf8:	db02      	blt.n	8003c00 <stm32__spi__send_receive_16bit_mode+0x1b4>
 8003bfa:	6abb      	ldr	r3, [r7, #40]	; 0x28
 8003bfc:	42ab      	cmp	r3, r5
 8003bfe:	dd04      	ble.n	8003c0a <stm32__spi__send_receive_16bit_mode+0x1be>
 8003c00:	484d      	ldr	r0, [pc, #308]	; (8003d38 <stm32__spi__send_receive_16bit_mode+0x2ec>)
 8003c02:	f240 21ed 	movw	r1, #749	; 0x2ed
 8003c06:	f005 f9e7 	bl	8008fd8 <__gnat_rcheck_CE_Index_Check>
 8003c0a:	683a      	ldr	r2, [r7, #0]
 8003c0c:	4621      	mov	r1, r4
 8003c0e:	6abb      	ldr	r3, [r7, #40]	; 0x28
 8003c10:	1a5b      	subs	r3, r3, r1
 8003c12:	4413      	add	r3, r2
 8003c14:	2b00      	cmp	r3, #0
 8003c16:	d104      	bne.n	8003c22 <stm32__spi__send_receive_16bit_mode+0x1d6>
 8003c18:	4847      	ldr	r0, [pc, #284]	; (8003d38 <stm32__spi__send_receive_16bit_mode+0x2ec>)
 8003c1a:	f240 21ed 	movw	r1, #749	; 0x2ed
 8003c1e:	f005 f9c3 	bl	8008fa8 <__gnat_rcheck_CE_Access_Check>
 8003c22:	68fb      	ldr	r3, [r7, #12]
 8003c24:	685b      	ldr	r3, [r3, #4]
 8003c26:	330c      	adds	r3, #12
 8003c28:	681b      	ldr	r3, [r3, #0]
 8003c2a:	6839      	ldr	r1, [r7, #0]
 8003c2c:	4620      	mov	r0, r4
 8003c2e:	6aba      	ldr	r2, [r7, #40]	; 0x28
 8003c30:	1a12      	subs	r2, r2, r0
 8003c32:	440a      	add	r2, r1
 8003c34:	8812      	ldrh	r2, [r2, #0]
 8003c36:	f362 030f 	bfi	r3, r2, #0, #16
 8003c3a:	68fa      	ldr	r2, [r7, #12]
 8003c3c:	6852      	ldr	r2, [r2, #4]
 8003c3e:	320c      	adds	r2, #12
 8003c40:	6013      	str	r3, [r2, #0]
 8003c42:	6abb      	ldr	r3, [r7, #40]	; 0x28
 8003c44:	4a3d      	ldr	r2, [pc, #244]	; (8003d3c <stm32__spi__send_receive_16bit_mode+0x2f0>)
 8003c46:	4293      	cmp	r3, r2
 8003c48:	dd04      	ble.n	8003c54 <stm32__spi__send_receive_16bit_mode+0x208>
 8003c4a:	483b      	ldr	r0, [pc, #236]	; (8003d38 <stm32__spi__send_receive_16bit_mode+0x2ec>)
 8003c4c:	f240 21ee 	movw	r1, #750	; 0x2ee
 8003c50:	f005 f9d2 	bl	8008ff8 <__gnat_rcheck_CE_Overflow_Check>
 8003c54:	6abb      	ldr	r3, [r7, #40]	; 0x28
 8003c56:	3302      	adds	r3, #2
 8003c58:	62bb      	str	r3, [r7, #40]	; 0x28
 8003c5a:	6afb      	ldr	r3, [r7, #44]	; 0x2c
 8003c5c:	3b01      	subs	r3, #1
 8003c5e:	2b00      	cmp	r3, #0
 8003c60:	da04      	bge.n	8003c6c <stm32__spi__send_receive_16bit_mode+0x220>
 8003c62:	4835      	ldr	r0, [pc, #212]	; (8003d38 <stm32__spi__send_receive_16bit_mode+0x2ec>)
 8003c64:	f240 21ef 	movw	r1, #751	; 0x2ef
 8003c68:	f005 f9ce 	bl	8009008 <__gnat_rcheck_CE_Range_Check>
 8003c6c:	62fb      	str	r3, [r7, #44]	; 0x2c
 8003c6e:	6afb      	ldr	r3, [r7, #44]	; 0x2c
 8003c70:	2b00      	cmp	r3, #0
 8003c72:	bf0c      	ite	eq
 8003c74:	2301      	moveq	r3, #1
 8003c76:	2300      	movne	r3, #0
 8003c78:	b2de      	uxtb	r6, r3
 8003c7a:	68f8      	ldr	r0, [r7, #12]
 8003c7c:	f7ff fae6 	bl	800324c <stm32__spi__crc_enabled>
 8003c80:	4603      	mov	r3, r0
 8003c82:	4033      	ands	r3, r6
 8003c84:	b2db      	uxtb	r3, r3
 8003c86:	2b00      	cmp	r3, #0
 8003c88:	d009      	beq.n	8003c9e <stm32__spi__send_receive_16bit_mode+0x252>
 8003c8a:	68fb      	ldr	r3, [r7, #12]
 8003c8c:	685b      	ldr	r3, [r3, #4]
 8003c8e:	681b      	ldr	r3, [r3, #0]
 8003c90:	461a      	mov	r2, r3
 8003c92:	4613      	mov	r3, r2
 8003c94:	f443 5280 	orr.w	r2, r3, #4096	; 0x1000
 8003c98:	68fb      	ldr	r3, [r7, #12]
 8003c9a:	685b      	ldr	r3, [r3, #4]
 8003c9c:	601a      	str	r2, [r3, #0]
 8003c9e:	68f8      	ldr	r0, [r7, #12]
 8003ca0:	f7ff fa58 	bl	8003154 <stm32__spi__rx_is_empty>
 8003ca4:	4603      	mov	r3, r0
 8003ca6:	2b00      	cmp	r3, #0
 8003ca8:	d001      	beq.n	8003cae <stm32__spi__send_receive_16bit_mode+0x262>
 8003caa:	bf00      	nop
 8003cac:	e7f7      	b.n	8003c9e <stm32__spi__send_receive_16bit_mode+0x252>
 8003cae:	6a7a      	ldr	r2, [r7, #36]	; 0x24
 8003cb0:	6cfb      	ldr	r3, [r7, #76]	; 0x4c
 8003cb2:	681b      	ldr	r3, [r3, #0]
 8003cb4:	429a      	cmp	r2, r3
 8003cb6:	db04      	blt.n	8003cc2 <stm32__spi__send_receive_16bit_mode+0x276>
 8003cb8:	6a7a      	ldr	r2, [r7, #36]	; 0x24
 8003cba:	6cfb      	ldr	r3, [r7, #76]	; 0x4c
 8003cbc:	685b      	ldr	r3, [r3, #4]
 8003cbe:	429a      	cmp	r2, r3
 8003cc0:	dd04      	ble.n	8003ccc <stm32__spi__send_receive_16bit_mode+0x280>
 8003cc2:	481d      	ldr	r0, [pc, #116]	; (8003d38 <stm32__spi__send_receive_16bit_mode+0x2ec>)
 8003cc4:	f240 21fb 	movw	r1, #763	; 0x2fb
 8003cc8:	f005 f986 	bl	8008fd8 <__gnat_rcheck_CE_Index_Check>
 8003ccc:	6cba      	ldr	r2, [r7, #72]	; 0x48
 8003cce:	6cfb      	ldr	r3, [r7, #76]	; 0x4c
 8003cd0:	681b      	ldr	r3, [r3, #0]
 8003cd2:	4619      	mov	r1, r3
 8003cd4:	6a7b      	ldr	r3, [r7, #36]	; 0x24
 8003cd6:	1a5b      	subs	r3, r3, r1
 8003cd8:	4413      	add	r3, r2
 8003cda:	2b00      	cmp	r3, #0
 8003cdc:	d104      	bne.n	8003ce8 <stm32__spi__send_receive_16bit_mode+0x29c>
 8003cde:	4816      	ldr	r0, [pc, #88]	; (8003d38 <stm32__spi__send_receive_16bit_mode+0x2ec>)
 8003ce0:	f240 21fb 	movw	r1, #763	; 0x2fb
 8003ce4:	f005 f960 	bl	8008fa8 <__gnat_rcheck_CE_Access_Check>
 8003ce8:	6cba      	ldr	r2, [r7, #72]	; 0x48
 8003cea:	6cfb      	ldr	r3, [r7, #76]	; 0x4c
 8003cec:	681b      	ldr	r3, [r3, #0]
 8003cee:	4619      	mov	r1, r3
 8003cf0:	6a7b      	ldr	r3, [r7, #36]	; 0x24
 8003cf2:	1a5b      	subs	r3, r3, r1
 8003cf4:	4413      	add	r3, r2
 8003cf6:	68fa      	ldr	r2, [r7, #12]
 8003cf8:	6852      	ldr	r2, [r2, #4]
 8003cfa:	320c      	adds	r2, #12
 8003cfc:	6812      	ldr	r2, [r2, #0]
 8003cfe:	b292      	uxth	r2, r2
 8003d00:	801a      	strh	r2, [r3, #0]
 8003d02:	6a7b      	ldr	r3, [r7, #36]	; 0x24
 8003d04:	4a0d      	ldr	r2, [pc, #52]	; (8003d3c <stm32__spi__send_receive_16bit_mode+0x2f0>)
 8003d06:	4293      	cmp	r3, r2
 8003d08:	dd04      	ble.n	8003d14 <stm32__spi__send_receive_16bit_mode+0x2c8>
 8003d0a:	480b      	ldr	r0, [pc, #44]	; (8003d38 <stm32__spi__send_receive_16bit_mode+0x2ec>)
 8003d0c:	f240 21fd 	movw	r1, #765	; 0x2fd
 8003d10:	f005 f972 	bl	8008ff8 <__gnat_rcheck_CE_Overflow_Check>
 8003d14:	6a7b      	ldr	r3, [r7, #36]	; 0x24
 8003d16:	3302      	adds	r3, #2
 8003d18:	627b      	str	r3, [r7, #36]	; 0x24
 8003d1a:	e75c      	b.n	8003bd6 <stm32__spi__send_receive_16bit_mode+0x18a>
 8003d1c:	68f8      	ldr	r0, [r7, #12]
 8003d1e:	f7ff fa41 	bl	80031a4 <stm32__spi__current_mode>
 8003d22:	4603      	mov	r3, r0
 8003d24:	2b01      	cmp	r3, #1
 8003d26:	d135      	bne.n	8003d94 <stm32__spi__send_receive_16bit_mode+0x348>
 8003d28:	68f8      	ldr	r0, [r7, #12]
 8003d2a:	f7ff fa13 	bl	8003154 <stm32__spi__rx_is_empty>
 8003d2e:	4603      	mov	r3, r0
 8003d30:	2b00      	cmp	r3, #0
 8003d32:	d005      	beq.n	8003d40 <stm32__spi__send_receive_16bit_mode+0x2f4>
 8003d34:	bf00      	nop
 8003d36:	e7f7      	b.n	8003d28 <stm32__spi__send_receive_16bit_mode+0x2dc>
 8003d38:	0800d868 	.word	0x0800d868
 8003d3c:	7ffffffd 	.word	0x7ffffffd
 8003d40:	6a7a      	ldr	r2, [r7, #36]	; 0x24
 8003d42:	6cfb      	ldr	r3, [r7, #76]	; 0x4c
 8003d44:	681b      	ldr	r3, [r3, #0]
 8003d46:	429a      	cmp	r2, r3
 8003d48:	db04      	blt.n	8003d54 <stm32__spi__send_receive_16bit_mode+0x308>
 8003d4a:	6a7a      	ldr	r2, [r7, #36]	; 0x24
 8003d4c:	6cfb      	ldr	r3, [r7, #76]	; 0x4c
 8003d4e:	685b      	ldr	r3, [r3, #4]
 8003d50:	429a      	cmp	r2, r3
 8003d52:	dd04      	ble.n	8003d5e <stm32__spi__send_receive_16bit_mode+0x312>
 8003d54:	4811      	ldr	r0, [pc, #68]	; (8003d9c <stm32__spi__send_receive_16bit_mode+0x350>)
 8003d56:	f240 3107 	movw	r1, #775	; 0x307
 8003d5a:	f005 f93d 	bl	8008fd8 <__gnat_rcheck_CE_Index_Check>
 8003d5e:	6cba      	ldr	r2, [r7, #72]	; 0x48
 8003d60:	6cfb      	ldr	r3, [r7, #76]	; 0x4c
 8003d62:	681b      	ldr	r3, [r3, #0]
 8003d64:	4619      	mov	r1, r3
 8003d66:	6a7b      	ldr	r3, [r7, #36]	; 0x24
 8003d68:	1a5b      	subs	r3, r3, r1
 8003d6a:	4413      	add	r3, r2
 8003d6c:	2b00      	cmp	r3, #0
 8003d6e:	d104      	bne.n	8003d7a <stm32__spi__send_receive_16bit_mode+0x32e>
 8003d70:	480a      	ldr	r0, [pc, #40]	; (8003d9c <stm32__spi__send_receive_16bit_mode+0x350>)
 8003d72:	f240 3107 	movw	r1, #775	; 0x307
 8003d76:	f005 f917 	bl	8008fa8 <__gnat_rcheck_CE_Access_Check>
 8003d7a:	6cba      	ldr	r2, [r7, #72]	; 0x48
 8003d7c:	6cfb      	ldr	r3, [r7, #76]	; 0x4c
 8003d7e:	681b      	ldr	r3, [r3, #0]
 8003d80:	4619      	mov	r1, r3
 8003d82:	6a7b      	ldr	r3, [r7, #36]	; 0x24
 8003d84:	1a5b      	subs	r3, r3, r1
 8003d86:	4413      	add	r3, r2
 8003d88:	68fa      	ldr	r2, [r7, #12]
 8003d8a:	6852      	ldr	r2, [r2, #4]
 8003d8c:	320c      	adds	r2, #12
 8003d8e:	6812      	ldr	r2, [r2, #0]
 8003d90:	b292      	uxth	r2, r2
 8003d92:	801a      	strh	r2, [r3, #0]
 8003d94:	3734      	adds	r7, #52	; 0x34
 8003d96:	46bd      	mov	sp, r7
 8003d98:	bdf0      	pop	{r4, r5, r6, r7, pc}
 8003d9a:	bf00      	nop
 8003d9c:	0800d868 	.word	0x0800d868

08003da0 <stm32__spi__send_receive_8bit_mode>:
 8003da0:	b5f0      	push	{r4, r5, r6, r7, lr}
 8003da2:	b08d      	sub	sp, #52	; 0x34
 8003da4:	af00      	add	r7, sp, #0
 8003da6:	60f8      	str	r0, [r7, #12]
 8003da8:	e9c7 2300 	strd	r2, r3, [r7]
 8003dac:	687b      	ldr	r3, [r7, #4]
 8003dae:	681c      	ldr	r4, [r3, #0]
 8003db0:	687b      	ldr	r3, [r7, #4]
 8003db2:	685d      	ldr	r5, [r3, #4]
 8003db4:	6cfb      	ldr	r3, [r7, #76]	; 0x4c
 8003db6:	681b      	ldr	r3, [r3, #0]
 8003db8:	623b      	str	r3, [r7, #32]
 8003dba:	6cfb      	ldr	r3, [r7, #76]	; 0x4c
 8003dbc:	685a      	ldr	r2, [r3, #4]
 8003dbe:	6cfb      	ldr	r3, [r7, #76]	; 0x4c
 8003dc0:	681b      	ldr	r3, [r3, #0]
 8003dc2:	429a      	cmp	r2, r3
 8003dc4:	db03      	blt.n	8003dce <stm32__spi__send_receive_8bit_mode+0x2e>
 8003dc6:	6cfb      	ldr	r3, [r7, #76]	; 0x4c
 8003dc8:	685b      	ldr	r3, [r3, #4]
 8003dca:	61fb      	str	r3, [r7, #28]
 8003dcc:	e003      	b.n	8003dd6 <stm32__spi__send_receive_8bit_mode+0x36>
 8003dce:	6cfb      	ldr	r3, [r7, #76]	; 0x4c
 8003dd0:	681b      	ldr	r3, [r3, #0]
 8003dd2:	3b01      	subs	r3, #1
 8003dd4:	61fb      	str	r3, [r7, #28]
 8003dd6:	61bc      	str	r4, [r7, #24]
 8003dd8:	42a5      	cmp	r5, r4
 8003dda:	db01      	blt.n	8003de0 <stm32__spi__send_receive_8bit_mode+0x40>
 8003ddc:	617d      	str	r5, [r7, #20]
 8003dde:	e002      	b.n	8003de6 <stm32__spi__send_receive_8bit_mode+0x46>
 8003de0:	4623      	mov	r3, r4
 8003de2:	3b01      	subs	r3, #1
 8003de4:	617b      	str	r3, [r7, #20]
 8003de6:	6d3b      	ldr	r3, [r7, #80]	; 0x50
 8003de8:	62fb      	str	r3, [r7, #44]	; 0x2c
 8003dea:	2c00      	cmp	r4, #0
 8003dec:	da04      	bge.n	8003df8 <stm32__spi__send_receive_8bit_mode+0x58>
 8003dee:	48a8      	ldr	r0, [pc, #672]	; (8004090 <stm32__spi__send_receive_8bit_mode+0x2f0>)
 8003df0:	f240 3117 	movw	r1, #791	; 0x317
 8003df4:	f005 f908 	bl	8009008 <__gnat_rcheck_CE_Range_Check>
 8003df8:	62bc      	str	r4, [r7, #40]	; 0x28
 8003dfa:	6cfb      	ldr	r3, [r7, #76]	; 0x4c
 8003dfc:	681b      	ldr	r3, [r3, #0]
 8003dfe:	2b00      	cmp	r3, #0
 8003e00:	da04      	bge.n	8003e0c <stm32__spi__send_receive_8bit_mode+0x6c>
 8003e02:	48a3      	ldr	r0, [pc, #652]	; (8004090 <stm32__spi__send_receive_8bit_mode+0x2f0>)
 8003e04:	f44f 7146 	mov.w	r1, #792	; 0x318
 8003e08:	f005 f8fe 	bl	8009008 <__gnat_rcheck_CE_Range_Check>
 8003e0c:	6cfb      	ldr	r3, [r7, #76]	; 0x4c
 8003e0e:	681b      	ldr	r3, [r3, #0]
 8003e10:	627b      	str	r3, [r7, #36]	; 0x24
 8003e12:	68f8      	ldr	r0, [r7, #12]
 8003e14:	f7ff f9c6 	bl	80031a4 <stm32__spi__current_mode>
 8003e18:	4603      	mov	r3, r0
 8003e1a:	2b01      	cmp	r3, #1
 8003e1c:	d002      	beq.n	8003e24 <stm32__spi__send_receive_8bit_mode+0x84>
 8003e1e:	6afb      	ldr	r3, [r7, #44]	; 0x2c
 8003e20:	2b01      	cmp	r3, #1
 8003e22:	d131      	bne.n	8003e88 <stm32__spi__send_receive_8bit_mode+0xe8>
 8003e24:	6abb      	ldr	r3, [r7, #40]	; 0x28
 8003e26:	42a3      	cmp	r3, r4
 8003e28:	db02      	blt.n	8003e30 <stm32__spi__send_receive_8bit_mode+0x90>
 8003e2a:	6abb      	ldr	r3, [r7, #40]	; 0x28
 8003e2c:	42ab      	cmp	r3, r5
 8003e2e:	dd04      	ble.n	8003e3a <stm32__spi__send_receive_8bit_mode+0x9a>
 8003e30:	4897      	ldr	r0, [pc, #604]	; (8004090 <stm32__spi__send_receive_8bit_mode+0x2f0>)
 8003e32:	f240 311b 	movw	r1, #795	; 0x31b
 8003e36:	f005 f8cf 	bl	8008fd8 <__gnat_rcheck_CE_Index_Check>
 8003e3a:	68fb      	ldr	r3, [r7, #12]
 8003e3c:	685b      	ldr	r3, [r3, #4]
 8003e3e:	330c      	adds	r3, #12
 8003e40:	681b      	ldr	r3, [r3, #0]
 8003e42:	6839      	ldr	r1, [r7, #0]
 8003e44:	6ab8      	ldr	r0, [r7, #40]	; 0x28
 8003e46:	69ba      	ldr	r2, [r7, #24]
 8003e48:	1a82      	subs	r2, r0, r2
 8003e4a:	5c8a      	ldrb	r2, [r1, r2]
 8003e4c:	b292      	uxth	r2, r2
 8003e4e:	f362 030f 	bfi	r3, r2, #0, #16
 8003e52:	68fa      	ldr	r2, [r7, #12]
 8003e54:	6852      	ldr	r2, [r2, #4]
 8003e56:	320c      	adds	r2, #12
 8003e58:	6013      	str	r3, [r2, #0]
 8003e5a:	6abb      	ldr	r3, [r7, #40]	; 0x28
 8003e5c:	f06f 4200 	mvn.w	r2, #2147483648	; 0x80000000
 8003e60:	4293      	cmp	r3, r2
 8003e62:	d104      	bne.n	8003e6e <stm32__spi__send_receive_8bit_mode+0xce>
 8003e64:	488a      	ldr	r0, [pc, #552]	; (8004090 <stm32__spi__send_receive_8bit_mode+0x2f0>)
 8003e66:	f44f 7147 	mov.w	r1, #796	; 0x31c
 8003e6a:	f005 f8c5 	bl	8008ff8 <__gnat_rcheck_CE_Overflow_Check>
 8003e6e:	6abb      	ldr	r3, [r7, #40]	; 0x28
 8003e70:	3301      	adds	r3, #1
 8003e72:	62bb      	str	r3, [r7, #40]	; 0x28
 8003e74:	6afb      	ldr	r3, [r7, #44]	; 0x2c
 8003e76:	3b01      	subs	r3, #1
 8003e78:	2b00      	cmp	r3, #0
 8003e7a:	da04      	bge.n	8003e86 <stm32__spi__send_receive_8bit_mode+0xe6>
 8003e7c:	4884      	ldr	r0, [pc, #528]	; (8004090 <stm32__spi__send_receive_8bit_mode+0x2f0>)
 8003e7e:	f240 311d 	movw	r1, #797	; 0x31d
 8003e82:	f005 f8c1 	bl	8009008 <__gnat_rcheck_CE_Range_Check>
 8003e86:	62fb      	str	r3, [r7, #44]	; 0x2c
 8003e88:	6afb      	ldr	r3, [r7, #44]	; 0x2c
 8003e8a:	2b00      	cmp	r3, #0
 8003e8c:	d142      	bne.n	8003f14 <stm32__spi__send_receive_8bit_mode+0x174>
 8003e8e:	68f8      	ldr	r0, [r7, #12]
 8003e90:	f7ff f9dc 	bl	800324c <stm32__spi__crc_enabled>
 8003e94:	4603      	mov	r3, r0
 8003e96:	2b00      	cmp	r3, #0
 8003e98:	d009      	beq.n	8003eae <stm32__spi__send_receive_8bit_mode+0x10e>
 8003e9a:	68fb      	ldr	r3, [r7, #12]
 8003e9c:	685b      	ldr	r3, [r3, #4]
 8003e9e:	681b      	ldr	r3, [r3, #0]
 8003ea0:	461a      	mov	r2, r3
 8003ea2:	4613      	mov	r3, r2
 8003ea4:	f443 5280 	orr.w	r2, r3, #4096	; 0x1000
 8003ea8:	68fb      	ldr	r3, [r7, #12]
 8003eaa:	685b      	ldr	r3, [r3, #4]
 8003eac:	601a      	str	r2, [r3, #0]
 8003eae:	68f8      	ldr	r0, [r7, #12]
 8003eb0:	f7ff f950 	bl	8003154 <stm32__spi__rx_is_empty>
 8003eb4:	4603      	mov	r3, r0
 8003eb6:	2b00      	cmp	r3, #0
 8003eb8:	d001      	beq.n	8003ebe <stm32__spi__send_receive_8bit_mode+0x11e>
 8003eba:	bf00      	nop
 8003ebc:	e7f7      	b.n	8003eae <stm32__spi__send_receive_8bit_mode+0x10e>
 8003ebe:	6a7a      	ldr	r2, [r7, #36]	; 0x24
 8003ec0:	6cfb      	ldr	r3, [r7, #76]	; 0x4c
 8003ec2:	681b      	ldr	r3, [r3, #0]
 8003ec4:	429a      	cmp	r2, r3
 8003ec6:	db04      	blt.n	8003ed2 <stm32__spi__send_receive_8bit_mode+0x132>
 8003ec8:	6a7a      	ldr	r2, [r7, #36]	; 0x24
 8003eca:	6cfb      	ldr	r3, [r7, #76]	; 0x4c
 8003ecc:	685b      	ldr	r3, [r3, #4]
 8003ece:	429a      	cmp	r2, r3
 8003ed0:	dd04      	ble.n	8003edc <stm32__spi__send_receive_8bit_mode+0x13c>
 8003ed2:	486f      	ldr	r0, [pc, #444]	; (8004090 <stm32__spi__send_receive_8bit_mode+0x2f0>)
 8003ed4:	f44f 714b 	mov.w	r1, #812	; 0x32c
 8003ed8:	f005 f87e 	bl	8008fd8 <__gnat_rcheck_CE_Index_Check>
 8003edc:	68fb      	ldr	r3, [r7, #12]
 8003ede:	685b      	ldr	r3, [r3, #4]
 8003ee0:	330c      	adds	r3, #12
 8003ee2:	681b      	ldr	r3, [r3, #0]
 8003ee4:	b29b      	uxth	r3, r3
 8003ee6:	2bff      	cmp	r3, #255	; 0xff
 8003ee8:	d904      	bls.n	8003ef4 <stm32__spi__send_receive_8bit_mode+0x154>
 8003eea:	4869      	ldr	r0, [pc, #420]	; (8004090 <stm32__spi__send_receive_8bit_mode+0x2f0>)
 8003eec:	f44f 714b 	mov.w	r1, #812	; 0x32c
 8003ef0:	f005 f88a 	bl	8009008 <__gnat_rcheck_CE_Range_Check>
 8003ef4:	6a7a      	ldr	r2, [r7, #36]	; 0x24
 8003ef6:	2a00      	cmp	r2, #0
 8003ef8:	da04      	bge.n	8003f04 <stm32__spi__send_receive_8bit_mode+0x164>
 8003efa:	4865      	ldr	r0, [pc, #404]	; (8004090 <stm32__spi__send_receive_8bit_mode+0x2f0>)
 8003efc:	f44f 714b 	mov.w	r1, #812	; 0x32c
 8003f00:	f005 f872 	bl	8008fe8 <__gnat_rcheck_CE_Invalid_Data>
 8003f04:	6cba      	ldr	r2, [r7, #72]	; 0x48
 8003f06:	b2d8      	uxtb	r0, r3
 8003f08:	6a79      	ldr	r1, [r7, #36]	; 0x24
 8003f0a:	6a3b      	ldr	r3, [r7, #32]
 8003f0c:	1acb      	subs	r3, r1, r3
 8003f0e:	4601      	mov	r1, r0
 8003f10:	54d1      	strb	r1, [r2, r3]
 8003f12:	e0ca      	b.n	80040aa <stm32__spi__send_receive_8bit_mode+0x30a>
 8003f14:	6afb      	ldr	r3, [r7, #44]	; 0x2c
 8003f16:	2b00      	cmp	r3, #0
 8003f18:	f340 8095 	ble.w	8004046 <stm32__spi__send_receive_8bit_mode+0x2a6>
 8003f1c:	68f8      	ldr	r0, [r7, #12]
 8003f1e:	f7ff f907 	bl	8003130 <stm32__spi__tx_is_empty>
 8003f22:	4603      	mov	r3, r0
 8003f24:	f083 0301 	eor.w	r3, r3, #1
 8003f28:	b2db      	uxtb	r3, r3
 8003f2a:	2b00      	cmp	r3, #0
 8003f2c:	d001      	beq.n	8003f32 <stm32__spi__send_receive_8bit_mode+0x192>
 8003f2e:	bf00      	nop
 8003f30:	e7f4      	b.n	8003f1c <stm32__spi__send_receive_8bit_mode+0x17c>
 8003f32:	6abb      	ldr	r3, [r7, #40]	; 0x28
 8003f34:	42a3      	cmp	r3, r4
 8003f36:	db02      	blt.n	8003f3e <stm32__spi__send_receive_8bit_mode+0x19e>
 8003f38:	6abb      	ldr	r3, [r7, #40]	; 0x28
 8003f3a:	42ab      	cmp	r3, r5
 8003f3c:	dd04      	ble.n	8003f48 <stm32__spi__send_receive_8bit_mode+0x1a8>
 8003f3e:	4854      	ldr	r0, [pc, #336]	; (8004090 <stm32__spi__send_receive_8bit_mode+0x2f0>)
 8003f40:	f44f 714e 	mov.w	r1, #824	; 0x338
 8003f44:	f005 f848 	bl	8008fd8 <__gnat_rcheck_CE_Index_Check>
 8003f48:	68fb      	ldr	r3, [r7, #12]
 8003f4a:	685b      	ldr	r3, [r3, #4]
 8003f4c:	330c      	adds	r3, #12
 8003f4e:	681b      	ldr	r3, [r3, #0]
 8003f50:	6839      	ldr	r1, [r7, #0]
 8003f52:	6ab8      	ldr	r0, [r7, #40]	; 0x28
 8003f54:	69ba      	ldr	r2, [r7, #24]
 8003f56:	1a82      	subs	r2, r0, r2
 8003f58:	5c8a      	ldrb	r2, [r1, r2]
 8003f5a:	b292      	uxth	r2, r2
 8003f5c:	f362 030f 	bfi	r3, r2, #0, #16
 8003f60:	68fa      	ldr	r2, [r7, #12]
 8003f62:	6852      	ldr	r2, [r2, #4]
 8003f64:	320c      	adds	r2, #12
 8003f66:	6013      	str	r3, [r2, #0]
 8003f68:	6abb      	ldr	r3, [r7, #40]	; 0x28
 8003f6a:	f06f 4200 	mvn.w	r2, #2147483648	; 0x80000000
 8003f6e:	4293      	cmp	r3, r2
 8003f70:	d104      	bne.n	8003f7c <stm32__spi__send_receive_8bit_mode+0x1dc>
 8003f72:	4847      	ldr	r0, [pc, #284]	; (8004090 <stm32__spi__send_receive_8bit_mode+0x2f0>)
 8003f74:	f240 3139 	movw	r1, #825	; 0x339
 8003f78:	f005 f83e 	bl	8008ff8 <__gnat_rcheck_CE_Overflow_Check>
 8003f7c:	6abb      	ldr	r3, [r7, #40]	; 0x28
 8003f7e:	3301      	adds	r3, #1
 8003f80:	62bb      	str	r3, [r7, #40]	; 0x28
 8003f82:	6afb      	ldr	r3, [r7, #44]	; 0x2c
 8003f84:	3b01      	subs	r3, #1
 8003f86:	2b00      	cmp	r3, #0
 8003f88:	da04      	bge.n	8003f94 <stm32__spi__send_receive_8bit_mode+0x1f4>
 8003f8a:	4841      	ldr	r0, [pc, #260]	; (8004090 <stm32__spi__send_receive_8bit_mode+0x2f0>)
 8003f8c:	f240 313a 	movw	r1, #826	; 0x33a
 8003f90:	f005 f83a 	bl	8009008 <__gnat_rcheck_CE_Range_Check>
 8003f94:	62fb      	str	r3, [r7, #44]	; 0x2c
 8003f96:	6afb      	ldr	r3, [r7, #44]	; 0x2c
 8003f98:	2b00      	cmp	r3, #0
 8003f9a:	bf0c      	ite	eq
 8003f9c:	2301      	moveq	r3, #1
 8003f9e:	2300      	movne	r3, #0
 8003fa0:	b2de      	uxtb	r6, r3
 8003fa2:	68f8      	ldr	r0, [r7, #12]
 8003fa4:	f7ff f952 	bl	800324c <stm32__spi__crc_enabled>
 8003fa8:	4603      	mov	r3, r0
 8003faa:	4033      	ands	r3, r6
 8003fac:	b2db      	uxtb	r3, r3
 8003fae:	2b00      	cmp	r3, #0
 8003fb0:	d009      	beq.n	8003fc6 <stm32__spi__send_receive_8bit_mode+0x226>
 8003fb2:	68fb      	ldr	r3, [r7, #12]
 8003fb4:	685b      	ldr	r3, [r3, #4]
 8003fb6:	681b      	ldr	r3, [r3, #0]
 8003fb8:	461a      	mov	r2, r3
 8003fba:	4613      	mov	r3, r2
 8003fbc:	f443 5280 	orr.w	r2, r3, #4096	; 0x1000
 8003fc0:	68fb      	ldr	r3, [r7, #12]
 8003fc2:	685b      	ldr	r3, [r3, #4]
 8003fc4:	601a      	str	r2, [r3, #0]
 8003fc6:	68f8      	ldr	r0, [r7, #12]
 8003fc8:	f7ff f8c4 	bl	8003154 <stm32__spi__rx_is_empty>
 8003fcc:	4603      	mov	r3, r0
 8003fce:	2b00      	cmp	r3, #0
 8003fd0:	d001      	beq.n	8003fd6 <stm32__spi__send_receive_8bit_mode+0x236>
 8003fd2:	bf00      	nop
 8003fd4:	e7f7      	b.n	8003fc6 <stm32__spi__send_receive_8bit_mode+0x226>
 8003fd6:	6a7a      	ldr	r2, [r7, #36]	; 0x24
 8003fd8:	6cfb      	ldr	r3, [r7, #76]	; 0x4c
 8003fda:	681b      	ldr	r3, [r3, #0]
 8003fdc:	429a      	cmp	r2, r3
 8003fde:	db04      	blt.n	8003fea <stm32__spi__send_receive_8bit_mode+0x24a>
 8003fe0:	6a7a      	ldr	r2, [r7, #36]	; 0x24
 8003fe2:	6cfb      	ldr	r3, [r7, #76]	; 0x4c
 8003fe4:	685b      	ldr	r3, [r3, #4]
 8003fe6:	429a      	cmp	r2, r3
 8003fe8:	dd04      	ble.n	8003ff4 <stm32__spi__send_receive_8bit_mode+0x254>
 8003fea:	4829      	ldr	r0, [pc, #164]	; (8004090 <stm32__spi__send_receive_8bit_mode+0x2f0>)
 8003fec:	f240 3146 	movw	r1, #838	; 0x346
 8003ff0:	f004 fff2 	bl	8008fd8 <__gnat_rcheck_CE_Index_Check>
 8003ff4:	68fb      	ldr	r3, [r7, #12]
 8003ff6:	685b      	ldr	r3, [r3, #4]
 8003ff8:	330c      	adds	r3, #12
 8003ffa:	681b      	ldr	r3, [r3, #0]
 8003ffc:	b29b      	uxth	r3, r3
 8003ffe:	2bff      	cmp	r3, #255	; 0xff
 8004000:	d904      	bls.n	800400c <stm32__spi__send_receive_8bit_mode+0x26c>
 8004002:	4823      	ldr	r0, [pc, #140]	; (8004090 <stm32__spi__send_receive_8bit_mode+0x2f0>)
 8004004:	f240 3146 	movw	r1, #838	; 0x346
 8004008:	f004 fffe 	bl	8009008 <__gnat_rcheck_CE_Range_Check>
 800400c:	6a7a      	ldr	r2, [r7, #36]	; 0x24
 800400e:	2a00      	cmp	r2, #0
 8004010:	da04      	bge.n	800401c <stm32__spi__send_receive_8bit_mode+0x27c>
 8004012:	481f      	ldr	r0, [pc, #124]	; (8004090 <stm32__spi__send_receive_8bit_mode+0x2f0>)
 8004014:	f240 3146 	movw	r1, #838	; 0x346
 8004018:	f004 ffe6 	bl	8008fe8 <__gnat_rcheck_CE_Invalid_Data>
 800401c:	6cba      	ldr	r2, [r7, #72]	; 0x48
 800401e:	b2d8      	uxtb	r0, r3
 8004020:	6a79      	ldr	r1, [r7, #36]	; 0x24
 8004022:	6a3b      	ldr	r3, [r7, #32]
 8004024:	1acb      	subs	r3, r1, r3
 8004026:	4601      	mov	r1, r0
 8004028:	54d1      	strb	r1, [r2, r3]
 800402a:	6a7b      	ldr	r3, [r7, #36]	; 0x24
 800402c:	f06f 4200 	mvn.w	r2, #2147483648	; 0x80000000
 8004030:	4293      	cmp	r3, r2
 8004032:	d104      	bne.n	800403e <stm32__spi__send_receive_8bit_mode+0x29e>
 8004034:	4816      	ldr	r0, [pc, #88]	; (8004090 <stm32__spi__send_receive_8bit_mode+0x2f0>)
 8004036:	f240 3147 	movw	r1, #839	; 0x347
 800403a:	f004 ffdd 	bl	8008ff8 <__gnat_rcheck_CE_Overflow_Check>
 800403e:	6a7b      	ldr	r3, [r7, #36]	; 0x24
 8004040:	3301      	adds	r3, #1
 8004042:	627b      	str	r3, [r7, #36]	; 0x24
 8004044:	e766      	b.n	8003f14 <stm32__spi__send_receive_8bit_mode+0x174>
 8004046:	68f8      	ldr	r0, [r7, #12]
 8004048:	f7ff f8ac 	bl	80031a4 <stm32__spi__current_mode>
 800404c:	4603      	mov	r3, r0
 800404e:	2b01      	cmp	r3, #1
 8004050:	d12b      	bne.n	80040aa <stm32__spi__send_receive_8bit_mode+0x30a>
 8004052:	68f8      	ldr	r0, [r7, #12]
 8004054:	f7ff f87e 	bl	8003154 <stm32__spi__rx_is_empty>
 8004058:	4603      	mov	r3, r0
 800405a:	2b00      	cmp	r3, #0
 800405c:	d001      	beq.n	8004062 <stm32__spi__send_receive_8bit_mode+0x2c2>
 800405e:	bf00      	nop
 8004060:	e7f7      	b.n	8004052 <stm32__spi__send_receive_8bit_mode+0x2b2>
 8004062:	6a7a      	ldr	r2, [r7, #36]	; 0x24
 8004064:	6cfb      	ldr	r3, [r7, #76]	; 0x4c
 8004066:	681b      	ldr	r3, [r3, #0]
 8004068:	429a      	cmp	r2, r3
 800406a:	db04      	blt.n	8004076 <stm32__spi__send_receive_8bit_mode+0x2d6>
 800406c:	6a7a      	ldr	r2, [r7, #36]	; 0x24
 800406e:	6cfb      	ldr	r3, [r7, #76]	; 0x4c
 8004070:	685b      	ldr	r3, [r3, #4]
 8004072:	429a      	cmp	r2, r3
 8004074:	dd04      	ble.n	8004080 <stm32__spi__send_receive_8bit_mode+0x2e0>
 8004076:	4806      	ldr	r0, [pc, #24]	; (8004090 <stm32__spi__send_receive_8bit_mode+0x2f0>)
 8004078:	f44f 7154 	mov.w	r1, #848	; 0x350
 800407c:	f004 ffac 	bl	8008fd8 <__gnat_rcheck_CE_Index_Check>
 8004080:	6a7b      	ldr	r3, [r7, #36]	; 0x24
 8004082:	2b00      	cmp	r3, #0
 8004084:	da06      	bge.n	8004094 <stm32__spi__send_receive_8bit_mode+0x2f4>
 8004086:	4802      	ldr	r0, [pc, #8]	; (8004090 <stm32__spi__send_receive_8bit_mode+0x2f0>)
 8004088:	f44f 7154 	mov.w	r1, #848	; 0x350
 800408c:	f004 ffac 	bl	8008fe8 <__gnat_rcheck_CE_Invalid_Data>
 8004090:	0800d868 	.word	0x0800d868
 8004094:	6cbc      	ldr	r4, [r7, #72]	; 0x48
 8004096:	68f8      	ldr	r0, [r7, #12]
 8004098:	f7ff f812 	bl	80030c0 <stm32__spi__data__2>
 800409c:	4603      	mov	r3, r0
 800409e:	4619      	mov	r1, r3
 80040a0:	6a7a      	ldr	r2, [r7, #36]	; 0x24
 80040a2:	6a3b      	ldr	r3, [r7, #32]
 80040a4:	1ad3      	subs	r3, r2, r3
 80040a6:	460a      	mov	r2, r1
 80040a8:	54e2      	strb	r2, [r4, r3]
 80040aa:	3734      	adds	r7, #52	; 0x34
 80040ac:	46bd      	mov	sp, r7
 80040ae:	bdf0      	pop	{r4, r5, r6, r7, pc}

080040b0 <stm32__spi__send_16bit_mode>:
 80040b0:	e92d 43b0 	stmdb	sp!, {r4, r5, r7, r8, r9, lr}
 80040b4:	b086      	sub	sp, #24
 80040b6:	af00      	add	r7, sp, #0
 80040b8:	60f8      	str	r0, [r7, #12]
 80040ba:	e9c7 2300 	strd	r2, r3, [r7]
 80040be:	687b      	ldr	r3, [r7, #4]
 80040c0:	681c      	ldr	r4, [r3, #0]
 80040c2:	687b      	ldr	r3, [r7, #4]
 80040c4:	685d      	ldr	r5, [r3, #4]
 80040c6:	42a5      	cmp	r5, r4
 80040c8:	db0d      	blt.n	80040e6 <stm32__spi__send_16bit_mode+0x36>
 80040ca:	4628      	mov	r0, r5
 80040cc:	ea4f 71e0 	mov.w	r1, r0, asr #31
 80040d0:	4622      	mov	r2, r4
 80040d2:	ea4f 73e2 	mov.w	r3, r2, asr #31
 80040d6:	1a82      	subs	r2, r0, r2
 80040d8:	eb61 0303 	sbc.w	r3, r1, r3
 80040dc:	f112 0801 	adds.w	r8, r2, #1
 80040e0:	f143 0900 	adc.w	r9, r3, #0
 80040e4:	e003      	b.n	80040ee <stm32__spi__send_16bit_mode+0x3e>
 80040e6:	f04f 0800 	mov.w	r8, #0
 80040ea:	f04f 0900 	mov.w	r9, #0
 80040ee:	4622      	mov	r2, r4
 80040f0:	ea4f 73e2 	mov.w	r3, r2, asr #31
 80040f4:	4862      	ldr	r0, [pc, #392]	; (8004280 <stm32__spi__send_16bit_mode+0x1d0>)
 80040f6:	f04f 0100 	mov.w	r1, #0
 80040fa:	1880      	adds	r0, r0, r2
 80040fc:	eb41 0103 	adc.w	r1, r1, r3
 8004100:	462a      	mov	r2, r5
 8004102:	ea4f 73e2 	mov.w	r3, r2, asr #31
 8004106:	4290      	cmp	r0, r2
 8004108:	eb71 0303 	sbcs.w	r3, r1, r3
 800410c:	da04      	bge.n	8004118 <stm32__spi__send_16bit_mode+0x68>
 800410e:	485d      	ldr	r0, [pc, #372]	; (8004284 <stm32__spi__send_16bit_mode+0x1d4>)
 8004110:	f44f 7157 	mov.w	r1, #860	; 0x35c
 8004114:	f004 ff78 	bl	8009008 <__gnat_rcheck_CE_Range_Check>
 8004118:	4643      	mov	r3, r8
 800411a:	617b      	str	r3, [r7, #20]
 800411c:	2c00      	cmp	r4, #0
 800411e:	da04      	bge.n	800412a <stm32__spi__send_16bit_mode+0x7a>
 8004120:	4858      	ldr	r0, [pc, #352]	; (8004284 <stm32__spi__send_16bit_mode+0x1d4>)
 8004122:	f240 315d 	movw	r1, #861	; 0x35d
 8004126:	f004 ff6f 	bl	8009008 <__gnat_rcheck_CE_Range_Check>
 800412a:	613c      	str	r4, [r7, #16]
 800412c:	68f8      	ldr	r0, [r7, #12]
 800412e:	f7ff f839 	bl	80031a4 <stm32__spi__current_mode>
 8004132:	4603      	mov	r3, r0
 8004134:	2b01      	cmp	r3, #1
 8004136:	d002      	beq.n	800413e <stm32__spi__send_16bit_mode+0x8e>
 8004138:	697b      	ldr	r3, [r7, #20]
 800413a:	2b01      	cmp	r3, #1
 800413c:	d13e      	bne.n	80041bc <stm32__spi__send_16bit_mode+0x10c>
 800413e:	693b      	ldr	r3, [r7, #16]
 8004140:	42a3      	cmp	r3, r4
 8004142:	db02      	blt.n	800414a <stm32__spi__send_16bit_mode+0x9a>
 8004144:	693b      	ldr	r3, [r7, #16]
 8004146:	42ab      	cmp	r3, r5
 8004148:	dd04      	ble.n	8004154 <stm32__spi__send_16bit_mode+0xa4>
 800414a:	484e      	ldr	r0, [pc, #312]	; (8004284 <stm32__spi__send_16bit_mode+0x1d4>)
 800414c:	f240 3161 	movw	r1, #865	; 0x361
 8004150:	f004 ff42 	bl	8008fd8 <__gnat_rcheck_CE_Index_Check>
 8004154:	683a      	ldr	r2, [r7, #0]
 8004156:	4621      	mov	r1, r4
 8004158:	693b      	ldr	r3, [r7, #16]
 800415a:	1a5b      	subs	r3, r3, r1
 800415c:	005b      	lsls	r3, r3, #1
 800415e:	4413      	add	r3, r2
 8004160:	2b00      	cmp	r3, #0
 8004162:	d104      	bne.n	800416e <stm32__spi__send_16bit_mode+0xbe>
 8004164:	4847      	ldr	r0, [pc, #284]	; (8004284 <stm32__spi__send_16bit_mode+0x1d4>)
 8004166:	f240 3161 	movw	r1, #865	; 0x361
 800416a:	f004 ff1d 	bl	8008fa8 <__gnat_rcheck_CE_Access_Check>
 800416e:	68fb      	ldr	r3, [r7, #12]
 8004170:	685b      	ldr	r3, [r3, #4]
 8004172:	330c      	adds	r3, #12
 8004174:	681b      	ldr	r3, [r3, #0]
 8004176:	6839      	ldr	r1, [r7, #0]
 8004178:	4620      	mov	r0, r4
 800417a:	693a      	ldr	r2, [r7, #16]
 800417c:	1a12      	subs	r2, r2, r0
 800417e:	0052      	lsls	r2, r2, #1
 8004180:	440a      	add	r2, r1
 8004182:	8812      	ldrh	r2, [r2, #0]
 8004184:	f362 030f 	bfi	r3, r2, #0, #16
 8004188:	68fa      	ldr	r2, [r7, #12]
 800418a:	6852      	ldr	r2, [r2, #4]
 800418c:	320c      	adds	r2, #12
 800418e:	6013      	str	r3, [r2, #0]
 8004190:	693b      	ldr	r3, [r7, #16]
 8004192:	4a3d      	ldr	r2, [pc, #244]	; (8004288 <stm32__spi__send_16bit_mode+0x1d8>)
 8004194:	4293      	cmp	r3, r2
 8004196:	dd04      	ble.n	80041a2 <stm32__spi__send_16bit_mode+0xf2>
 8004198:	483a      	ldr	r0, [pc, #232]	; (8004284 <stm32__spi__send_16bit_mode+0x1d4>)
 800419a:	f240 3162 	movw	r1, #866	; 0x362
 800419e:	f004 ff2b 	bl	8008ff8 <__gnat_rcheck_CE_Overflow_Check>
 80041a2:	693b      	ldr	r3, [r7, #16]
 80041a4:	3302      	adds	r3, #2
 80041a6:	613b      	str	r3, [r7, #16]
 80041a8:	697b      	ldr	r3, [r7, #20]
 80041aa:	3b01      	subs	r3, #1
 80041ac:	2b00      	cmp	r3, #0
 80041ae:	da04      	bge.n	80041ba <stm32__spi__send_16bit_mode+0x10a>
 80041b0:	4834      	ldr	r0, [pc, #208]	; (8004284 <stm32__spi__send_16bit_mode+0x1d4>)
 80041b2:	f240 3163 	movw	r1, #867	; 0x363
 80041b6:	f004 ff27 	bl	8009008 <__gnat_rcheck_CE_Range_Check>
 80041ba:	617b      	str	r3, [r7, #20]
 80041bc:	697b      	ldr	r3, [r7, #20]
 80041be:	2b00      	cmp	r3, #0
 80041c0:	dd4a      	ble.n	8004258 <stm32__spi__send_16bit_mode+0x1a8>
 80041c2:	68f8      	ldr	r0, [r7, #12]
 80041c4:	f7fe ffb4 	bl	8003130 <stm32__spi__tx_is_empty>
 80041c8:	4603      	mov	r3, r0
 80041ca:	f083 0301 	eor.w	r3, r3, #1
 80041ce:	b2db      	uxtb	r3, r3
 80041d0:	2b00      	cmp	r3, #0
 80041d2:	d001      	beq.n	80041d8 <stm32__spi__send_16bit_mode+0x128>
 80041d4:	bf00      	nop
 80041d6:	e7f4      	b.n	80041c2 <stm32__spi__send_16bit_mode+0x112>
 80041d8:	693b      	ldr	r3, [r7, #16]
 80041da:	42a3      	cmp	r3, r4
 80041dc:	db02      	blt.n	80041e4 <stm32__spi__send_16bit_mode+0x134>
 80041de:	693b      	ldr	r3, [r7, #16]
 80041e0:	42ab      	cmp	r3, r5
 80041e2:	dd04      	ble.n	80041ee <stm32__spi__send_16bit_mode+0x13e>
 80041e4:	4827      	ldr	r0, [pc, #156]	; (8004284 <stm32__spi__send_16bit_mode+0x1d4>)
 80041e6:	f240 316d 	movw	r1, #877	; 0x36d
 80041ea:	f004 fef5 	bl	8008fd8 <__gnat_rcheck_CE_Index_Check>
 80041ee:	683a      	ldr	r2, [r7, #0]
 80041f0:	4621      	mov	r1, r4
 80041f2:	693b      	ldr	r3, [r7, #16]
 80041f4:	1a5b      	subs	r3, r3, r1
 80041f6:	005b      	lsls	r3, r3, #1
 80041f8:	4413      	add	r3, r2
 80041fa:	2b00      	cmp	r3, #0
 80041fc:	d104      	bne.n	8004208 <stm32__spi__send_16bit_mode+0x158>
 80041fe:	4821      	ldr	r0, [pc, #132]	; (8004284 <stm32__spi__send_16bit_mode+0x1d4>)
 8004200:	f240 316d 	movw	r1, #877	; 0x36d
 8004204:	f004 fed0 	bl	8008fa8 <__gnat_rcheck_CE_Access_Check>
 8004208:	68fb      	ldr	r3, [r7, #12]
 800420a:	685b      	ldr	r3, [r3, #4]
 800420c:	330c      	adds	r3, #12
 800420e:	681b      	ldr	r3, [r3, #0]
 8004210:	6839      	ldr	r1, [r7, #0]
 8004212:	4620      	mov	r0, r4
 8004214:	693a      	ldr	r2, [r7, #16]
 8004216:	1a12      	subs	r2, r2, r0
 8004218:	0052      	lsls	r2, r2, #1
 800421a:	440a      	add	r2, r1
 800421c:	8812      	ldrh	r2, [r2, #0]
 800421e:	f362 030f 	bfi	r3, r2, #0, #16
 8004222:	68fa      	ldr	r2, [r7, #12]
 8004224:	6852      	ldr	r2, [r2, #4]
 8004226:	320c      	adds	r2, #12
 8004228:	6013      	str	r3, [r2, #0]
 800422a:	693b      	ldr	r3, [r7, #16]
 800422c:	4a16      	ldr	r2, [pc, #88]	; (8004288 <stm32__spi__send_16bit_mode+0x1d8>)
 800422e:	4293      	cmp	r3, r2
 8004230:	dd04      	ble.n	800423c <stm32__spi__send_16bit_mode+0x18c>
 8004232:	4814      	ldr	r0, [pc, #80]	; (8004284 <stm32__spi__send_16bit_mode+0x1d4>)
 8004234:	f240 316e 	movw	r1, #878	; 0x36e
 8004238:	f004 fede 	bl	8008ff8 <__gnat_rcheck_CE_Overflow_Check>
 800423c:	693b      	ldr	r3, [r7, #16]
 800423e:	3302      	adds	r3, #2
 8004240:	613b      	str	r3, [r7, #16]
 8004242:	697b      	ldr	r3, [r7, #20]
 8004244:	3b01      	subs	r3, #1
 8004246:	2b00      	cmp	r3, #0
 8004248:	da04      	bge.n	8004254 <stm32__spi__send_16bit_mode+0x1a4>
 800424a:	480e      	ldr	r0, [pc, #56]	; (8004284 <stm32__spi__send_16bit_mode+0x1d4>)
 800424c:	f240 316f 	movw	r1, #879	; 0x36f
 8004250:	f004 feda 	bl	8009008 <__gnat_rcheck_CE_Range_Check>
 8004254:	617b      	str	r3, [r7, #20]
 8004256:	e7b1      	b.n	80041bc <stm32__spi__send_16bit_mode+0x10c>
 8004258:	68f8      	ldr	r0, [r7, #12]
 800425a:	f7fe fff7 	bl	800324c <stm32__spi__crc_enabled>
 800425e:	4603      	mov	r3, r0
 8004260:	2b00      	cmp	r3, #0
 8004262:	d009      	beq.n	8004278 <stm32__spi__send_16bit_mode+0x1c8>
 8004264:	68fb      	ldr	r3, [r7, #12]
 8004266:	685b      	ldr	r3, [r3, #4]
 8004268:	681b      	ldr	r3, [r3, #0]
 800426a:	461a      	mov	r2, r3
 800426c:	4613      	mov	r3, r2
 800426e:	f443 5280 	orr.w	r2, r3, #4096	; 0x1000
 8004272:	68fb      	ldr	r3, [r7, #12]
 8004274:	685b      	ldr	r3, [r3, #4]
 8004276:	601a      	str	r2, [r3, #0]
 8004278:	3718      	adds	r7, #24
 800427a:	46bd      	mov	sp, r7
 800427c:	e8bd 83b0 	ldmia.w	sp!, {r4, r5, r7, r8, r9, pc}
 8004280:	7ffffffe 	.word	0x7ffffffe
 8004284:	0800d868 	.word	0x0800d868
 8004288:	7ffffffd 	.word	0x7ffffffd

0800428c <stm32__spi__send_8bit_mode>:
 800428c:	e92d 43f0 	stmdb	sp!, {r4, r5, r6, r7, r8, r9, lr}
 8004290:	b087      	sub	sp, #28
 8004292:	af00      	add	r7, sp, #0
 8004294:	60f8      	str	r0, [r7, #12]
 8004296:	e9c7 2300 	strd	r2, r3, [r7]
 800429a:	687b      	ldr	r3, [r7, #4]
 800429c:	681c      	ldr	r4, [r3, #0]
 800429e:	687b      	ldr	r3, [r7, #4]
 80042a0:	685d      	ldr	r5, [r3, #4]
 80042a2:	42a5      	cmp	r5, r4
 80042a4:	db0d      	blt.n	80042c2 <stm32__spi__send_8bit_mode+0x36>
 80042a6:	4628      	mov	r0, r5
 80042a8:	ea4f 71e0 	mov.w	r1, r0, asr #31
 80042ac:	4622      	mov	r2, r4
 80042ae:	ea4f 73e2 	mov.w	r3, r2, asr #31
 80042b2:	1a82      	subs	r2, r0, r2
 80042b4:	eb61 0303 	sbc.w	r3, r1, r3
 80042b8:	f112 0801 	adds.w	r8, r2, #1
 80042bc:	f143 0900 	adc.w	r9, r3, #0
 80042c0:	e003      	b.n	80042ca <stm32__spi__send_8bit_mode+0x3e>
 80042c2:	f04f 0800 	mov.w	r8, #0
 80042c6:	f04f 0900 	mov.w	r9, #0
 80042ca:	4626      	mov	r6, r4
 80042cc:	4622      	mov	r2, r4
 80042ce:	ea4f 73e2 	mov.w	r3, r2, asr #31
 80042d2:	4855      	ldr	r0, [pc, #340]	; (8004428 <stm32__spi__send_8bit_mode+0x19c>)
 80042d4:	f04f 0100 	mov.w	r1, #0
 80042d8:	1880      	adds	r0, r0, r2
 80042da:	eb41 0103 	adc.w	r1, r1, r3
 80042de:	462a      	mov	r2, r5
 80042e0:	ea4f 73e2 	mov.w	r3, r2, asr #31
 80042e4:	4290      	cmp	r0, r2
 80042e6:	eb71 0303 	sbcs.w	r3, r1, r3
 80042ea:	da04      	bge.n	80042f6 <stm32__spi__send_8bit_mode+0x6a>
 80042ec:	484f      	ldr	r0, [pc, #316]	; (800442c <stm32__spi__send_8bit_mode+0x1a0>)
 80042ee:	f240 317f 	movw	r1, #895	; 0x37f
 80042f2:	f004 fe89 	bl	8009008 <__gnat_rcheck_CE_Range_Check>
 80042f6:	4643      	mov	r3, r8
 80042f8:	617b      	str	r3, [r7, #20]
 80042fa:	2c00      	cmp	r4, #0
 80042fc:	da04      	bge.n	8004308 <stm32__spi__send_8bit_mode+0x7c>
 80042fe:	484b      	ldr	r0, [pc, #300]	; (800442c <stm32__spi__send_8bit_mode+0x1a0>)
 8004300:	f44f 7160 	mov.w	r1, #896	; 0x380
 8004304:	f004 fe80 	bl	8009008 <__gnat_rcheck_CE_Range_Check>
 8004308:	613c      	str	r4, [r7, #16]
 800430a:	68f8      	ldr	r0, [r7, #12]
 800430c:	f7fe ff4a 	bl	80031a4 <stm32__spi__current_mode>
 8004310:	4603      	mov	r3, r0
 8004312:	2b01      	cmp	r3, #1
 8004314:	d002      	beq.n	800431c <stm32__spi__send_8bit_mode+0x90>
 8004316:	697b      	ldr	r3, [r7, #20]
 8004318:	2b01      	cmp	r3, #1
 800431a:	d130      	bne.n	800437e <stm32__spi__send_8bit_mode+0xf2>
 800431c:	693b      	ldr	r3, [r7, #16]
 800431e:	42a3      	cmp	r3, r4
 8004320:	db02      	blt.n	8004328 <stm32__spi__send_8bit_mode+0x9c>
 8004322:	693b      	ldr	r3, [r7, #16]
 8004324:	42ab      	cmp	r3, r5
 8004326:	dd04      	ble.n	8004332 <stm32__spi__send_8bit_mode+0xa6>
 8004328:	4840      	ldr	r0, [pc, #256]	; (800442c <stm32__spi__send_8bit_mode+0x1a0>)
 800432a:	f240 3183 	movw	r1, #899	; 0x383
 800432e:	f004 fe53 	bl	8008fd8 <__gnat_rcheck_CE_Index_Check>
 8004332:	68fb      	ldr	r3, [r7, #12]
 8004334:	685b      	ldr	r3, [r3, #4]
 8004336:	330c      	adds	r3, #12
 8004338:	681b      	ldr	r3, [r3, #0]
 800433a:	6839      	ldr	r1, [r7, #0]
 800433c:	693a      	ldr	r2, [r7, #16]
 800433e:	1b92      	subs	r2, r2, r6
 8004340:	5c8a      	ldrb	r2, [r1, r2]
 8004342:	b292      	uxth	r2, r2
 8004344:	f362 030f 	bfi	r3, r2, #0, #16
 8004348:	68fa      	ldr	r2, [r7, #12]
 800434a:	6852      	ldr	r2, [r2, #4]
 800434c:	320c      	adds	r2, #12
 800434e:	6013      	str	r3, [r2, #0]
 8004350:	693b      	ldr	r3, [r7, #16]
 8004352:	f06f 4200 	mvn.w	r2, #2147483648	; 0x80000000
 8004356:	4293      	cmp	r3, r2
 8004358:	d104      	bne.n	8004364 <stm32__spi__send_8bit_mode+0xd8>
 800435a:	4834      	ldr	r0, [pc, #208]	; (800442c <stm32__spi__send_8bit_mode+0x1a0>)
 800435c:	f44f 7161 	mov.w	r1, #900	; 0x384
 8004360:	f004 fe4a 	bl	8008ff8 <__gnat_rcheck_CE_Overflow_Check>
 8004364:	693b      	ldr	r3, [r7, #16]
 8004366:	3301      	adds	r3, #1
 8004368:	613b      	str	r3, [r7, #16]
 800436a:	697b      	ldr	r3, [r7, #20]
 800436c:	3b01      	subs	r3, #1
 800436e:	2b00      	cmp	r3, #0
 8004370:	da04      	bge.n	800437c <stm32__spi__send_8bit_mode+0xf0>
 8004372:	482e      	ldr	r0, [pc, #184]	; (800442c <stm32__spi__send_8bit_mode+0x1a0>)
 8004374:	f240 3185 	movw	r1, #901	; 0x385
 8004378:	f004 fe46 	bl	8009008 <__gnat_rcheck_CE_Range_Check>
 800437c:	617b      	str	r3, [r7, #20]
 800437e:	697b      	ldr	r3, [r7, #20]
 8004380:	2b00      	cmp	r3, #0
 8004382:	dd3c      	ble.n	80043fe <stm32__spi__send_8bit_mode+0x172>
 8004384:	68f8      	ldr	r0, [r7, #12]
 8004386:	f7fe fed3 	bl	8003130 <stm32__spi__tx_is_empty>
 800438a:	4603      	mov	r3, r0
 800438c:	f083 0301 	eor.w	r3, r3, #1
 8004390:	b2db      	uxtb	r3, r3
 8004392:	2b00      	cmp	r3, #0
 8004394:	d001      	beq.n	800439a <stm32__spi__send_8bit_mode+0x10e>
 8004396:	bf00      	nop
 8004398:	e7f4      	b.n	8004384 <stm32__spi__send_8bit_mode+0xf8>
 800439a:	693b      	ldr	r3, [r7, #16]
 800439c:	42a3      	cmp	r3, r4
 800439e:	db02      	blt.n	80043a6 <stm32__spi__send_8bit_mode+0x11a>
 80043a0:	693b      	ldr	r3, [r7, #16]
 80043a2:	42ab      	cmp	r3, r5
 80043a4:	dd04      	ble.n	80043b0 <stm32__spi__send_8bit_mode+0x124>
 80043a6:	4821      	ldr	r0, [pc, #132]	; (800442c <stm32__spi__send_8bit_mode+0x1a0>)
 80043a8:	f240 318e 	movw	r1, #910	; 0x38e
 80043ac:	f004 fe14 	bl	8008fd8 <__gnat_rcheck_CE_Index_Check>
 80043b0:	68fb      	ldr	r3, [r7, #12]
 80043b2:	685b      	ldr	r3, [r3, #4]
 80043b4:	330c      	adds	r3, #12
 80043b6:	681b      	ldr	r3, [r3, #0]
 80043b8:	6839      	ldr	r1, [r7, #0]
 80043ba:	693a      	ldr	r2, [r7, #16]
 80043bc:	1b92      	subs	r2, r2, r6
 80043be:	5c8a      	ldrb	r2, [r1, r2]
 80043c0:	b292      	uxth	r2, r2
 80043c2:	f362 030f 	bfi	r3, r2, #0, #16
 80043c6:	68fa      	ldr	r2, [r7, #12]
 80043c8:	6852      	ldr	r2, [r2, #4]
 80043ca:	320c      	adds	r2, #12
 80043cc:	6013      	str	r3, [r2, #0]
 80043ce:	693b      	ldr	r3, [r7, #16]
 80043d0:	f06f 4200 	mvn.w	r2, #2147483648	; 0x80000000
 80043d4:	4293      	cmp	r3, r2
 80043d6:	d104      	bne.n	80043e2 <stm32__spi__send_8bit_mode+0x156>
 80043d8:	4814      	ldr	r0, [pc, #80]	; (800442c <stm32__spi__send_8bit_mode+0x1a0>)
 80043da:	f240 318f 	movw	r1, #911	; 0x38f
 80043de:	f004 fe0b 	bl	8008ff8 <__gnat_rcheck_CE_Overflow_Check>
 80043e2:	693b      	ldr	r3, [r7, #16]
 80043e4:	3301      	adds	r3, #1
 80043e6:	613b      	str	r3, [r7, #16]
 80043e8:	697b      	ldr	r3, [r7, #20]
 80043ea:	3b01      	subs	r3, #1
 80043ec:	2b00      	cmp	r3, #0
 80043ee:	da04      	bge.n	80043fa <stm32__spi__send_8bit_mode+0x16e>
 80043f0:	480e      	ldr	r0, [pc, #56]	; (800442c <stm32__spi__send_8bit_mode+0x1a0>)
 80043f2:	f44f 7164 	mov.w	r1, #912	; 0x390
 80043f6:	f004 fe07 	bl	8009008 <__gnat_rcheck_CE_Range_Check>
 80043fa:	617b      	str	r3, [r7, #20]
 80043fc:	e7bf      	b.n	800437e <stm32__spi__send_8bit_mode+0xf2>
 80043fe:	68f8      	ldr	r0, [r7, #12]
 8004400:	f7fe ff24 	bl	800324c <stm32__spi__crc_enabled>
 8004404:	4603      	mov	r3, r0
 8004406:	2b00      	cmp	r3, #0
 8004408:	d009      	beq.n	800441e <stm32__spi__send_8bit_mode+0x192>
 800440a:	68fb      	ldr	r3, [r7, #12]
 800440c:	685b      	ldr	r3, [r3, #4]
 800440e:	681b      	ldr	r3, [r3, #0]
 8004410:	461a      	mov	r2, r3
 8004412:	4613      	mov	r3, r2
 8004414:	f443 5280 	orr.w	r2, r3, #4096	; 0x1000
 8004418:	68fb      	ldr	r3, [r7, #12]
 800441a:	685b      	ldr	r3, [r3, #4]
 800441c:	601a      	str	r2, [r3, #0]
 800441e:	371c      	adds	r7, #28
 8004420:	46bd      	mov	sp, r7
 8004422:	e8bd 83f0 	ldmia.w	sp!, {r4, r5, r6, r7, r8, r9, pc}
 8004426:	bf00      	nop
 8004428:	7ffffffe 	.word	0x7ffffffe
 800442c:	0800d868 	.word	0x0800d868

08004430 <stm32__spi__receive_16bit_mode>:
 8004430:	e92d 41f0 	stmdb	sp!, {r4, r5, r6, r7, r8, lr}
 8004434:	b086      	sub	sp, #24
 8004436:	af00      	add	r7, sp, #0
 8004438:	60f8      	str	r0, [r7, #12]
 800443a:	e9c7 2300 	strd	r2, r3, [r7]
 800443e:	687b      	ldr	r3, [r7, #4]
 8004440:	681b      	ldr	r3, [r3, #0]
 8004442:	461e      	mov	r6, r3
 8004444:	68f8      	ldr	r0, [r7, #12]
 8004446:	f7fe fead 	bl	80031a4 <stm32__spi__current_mode>
 800444a:	4603      	mov	r3, r0
 800444c:	2b00      	cmp	r3, #0
 800444e:	bf0c      	ite	eq
 8004450:	2301      	moveq	r3, #1
 8004452:	2300      	movne	r3, #0
 8004454:	75fb      	strb	r3, [r7, #23]
 8004456:	687b      	ldr	r3, [r7, #4]
 8004458:	681c      	ldr	r4, [r3, #0]
 800445a:	687b      	ldr	r3, [r7, #4]
 800445c:	685d      	ldr	r5, [r3, #4]
 800445e:	42ac      	cmp	r4, r5
 8004460:	dc29      	bgt.n	80044b6 <stm32__spi__receive_16bit_mode+0x86>
 8004462:	683a      	ldr	r2, [r7, #0]
 8004464:	46a0      	mov	r8, r4
 8004466:	ebc6 0308 	rsb	r3, r6, r8
 800446a:	005b      	lsls	r3, r3, #1
 800446c:	4413      	add	r3, r2
 800446e:	613b      	str	r3, [r7, #16]
 8004470:	7dfb      	ldrb	r3, [r7, #23]
 8004472:	2b00      	cmp	r3, #0
 8004474:	d009      	beq.n	800448a <stm32__spi__receive_16bit_mode+0x5a>
 8004476:	68fb      	ldr	r3, [r7, #12]
 8004478:	685b      	ldr	r3, [r3, #4]
 800447a:	330c      	adds	r3, #12
 800447c:	681b      	ldr	r3, [r3, #0]
 800447e:	f36f 030f 	bfc	r3, #0, #16
 8004482:	68fa      	ldr	r2, [r7, #12]
 8004484:	6852      	ldr	r2, [r2, #4]
 8004486:	320c      	adds	r2, #12
 8004488:	6013      	str	r3, [r2, #0]
 800448a:	68f8      	ldr	r0, [r7, #12]
 800448c:	f7fe fe62 	bl	8003154 <stm32__spi__rx_is_empty>
 8004490:	4603      	mov	r3, r0
 8004492:	2b00      	cmp	r3, #0
 8004494:	d001      	beq.n	800449a <stm32__spi__receive_16bit_mode+0x6a>
 8004496:	bf00      	nop
 8004498:	e7f7      	b.n	800448a <stm32__spi__receive_16bit_mode+0x5a>
 800449a:	683b      	ldr	r3, [r7, #0]
 800449c:	68fa      	ldr	r2, [r7, #12]
 800449e:	6852      	ldr	r2, [r2, #4]
 80044a0:	320c      	adds	r2, #12
 80044a2:	6812      	ldr	r2, [r2, #0]
 80044a4:	b291      	uxth	r1, r2
 80044a6:	ebc6 0208 	rsb	r2, r6, r8
 80044aa:	f823 1012 	strh.w	r1, [r3, r2, lsl #1]
 80044ae:	42ac      	cmp	r4, r5
 80044b0:	d001      	beq.n	80044b6 <stm32__spi__receive_16bit_mode+0x86>
 80044b2:	3401      	adds	r4, #1
 80044b4:	e7d5      	b.n	8004462 <stm32__spi__receive_16bit_mode+0x32>
 80044b6:	3718      	adds	r7, #24
 80044b8:	46bd      	mov	sp, r7
 80044ba:	e8bd 81f0 	ldmia.w	sp!, {r4, r5, r6, r7, r8, pc}
 80044be:	bf00      	nop

080044c0 <stm32__spi__receive_8bit_mode>:
 80044c0:	e92d 41f0 	stmdb	sp!, {r4, r5, r6, r7, r8, lr}
 80044c4:	b086      	sub	sp, #24
 80044c6:	af00      	add	r7, sp, #0
 80044c8:	60f8      	str	r0, [r7, #12]
 80044ca:	e9c7 2300 	strd	r2, r3, [r7]
 80044ce:	687b      	ldr	r3, [r7, #4]
 80044d0:	681b      	ldr	r3, [r3, #0]
 80044d2:	461e      	mov	r6, r3
 80044d4:	68f8      	ldr	r0, [r7, #12]
 80044d6:	f7fe fe65 	bl	80031a4 <stm32__spi__current_mode>
 80044da:	4603      	mov	r3, r0
 80044dc:	2b00      	cmp	r3, #0
 80044de:	bf0c      	ite	eq
 80044e0:	2301      	moveq	r3, #1
 80044e2:	2300      	movne	r3, #0
 80044e4:	75fb      	strb	r3, [r7, #23]
 80044e6:	687b      	ldr	r3, [r7, #4]
 80044e8:	681c      	ldr	r4, [r3, #0]
 80044ea:	687b      	ldr	r3, [r7, #4]
 80044ec:	685d      	ldr	r5, [r3, #4]
 80044ee:	42ac      	cmp	r4, r5
 80044f0:	dc2f      	bgt.n	8004552 <stm32__spi__receive_8bit_mode+0x92>
 80044f2:	683a      	ldr	r2, [r7, #0]
 80044f4:	46a0      	mov	r8, r4
 80044f6:	ebc6 0308 	rsb	r3, r6, r8
 80044fa:	4413      	add	r3, r2
 80044fc:	613b      	str	r3, [r7, #16]
 80044fe:	7dfb      	ldrb	r3, [r7, #23]
 8004500:	2b00      	cmp	r3, #0
 8004502:	d009      	beq.n	8004518 <stm32__spi__receive_8bit_mode+0x58>
 8004504:	68fb      	ldr	r3, [r7, #12]
 8004506:	685b      	ldr	r3, [r3, #4]
 8004508:	330c      	adds	r3, #12
 800450a:	681b      	ldr	r3, [r3, #0]
 800450c:	f36f 030f 	bfc	r3, #0, #16
 8004510:	68fa      	ldr	r2, [r7, #12]
 8004512:	6852      	ldr	r2, [r2, #4]
 8004514:	320c      	adds	r2, #12
 8004516:	6013      	str	r3, [r2, #0]
 8004518:	68f8      	ldr	r0, [r7, #12]
 800451a:	f7fe fe1b 	bl	8003154 <stm32__spi__rx_is_empty>
 800451e:	4603      	mov	r3, r0
 8004520:	2b00      	cmp	r3, #0
 8004522:	d001      	beq.n	8004528 <stm32__spi__receive_8bit_mode+0x68>
 8004524:	bf00      	nop
 8004526:	e7f7      	b.n	8004518 <stm32__spi__receive_8bit_mode+0x58>
 8004528:	68fb      	ldr	r3, [r7, #12]
 800452a:	685b      	ldr	r3, [r3, #4]
 800452c:	330c      	adds	r3, #12
 800452e:	681b      	ldr	r3, [r3, #0]
 8004530:	b29b      	uxth	r3, r3
 8004532:	2bff      	cmp	r3, #255	; 0xff
 8004534:	d904      	bls.n	8004540 <stm32__spi__receive_8bit_mode+0x80>
 8004536:	4809      	ldr	r0, [pc, #36]	; (800455c <stm32__spi__receive_8bit_mode+0x9c>)
 8004538:	f240 31be 	movw	r1, #958	; 0x3be
 800453c:	f004 fd64 	bl	8009008 <__gnat_rcheck_CE_Range_Check>
 8004540:	683a      	ldr	r2, [r7, #0]
 8004542:	b2d9      	uxtb	r1, r3
 8004544:	ebc6 0308 	rsb	r3, r6, r8
 8004548:	54d1      	strb	r1, [r2, r3]
 800454a:	42ac      	cmp	r4, r5
 800454c:	d001      	beq.n	8004552 <stm32__spi__receive_8bit_mode+0x92>
 800454e:	3401      	adds	r4, #1
 8004550:	e7cf      	b.n	80044f2 <stm32__spi__receive_8bit_mode+0x32>
 8004552:	3718      	adds	r7, #24
 8004554:	46bd      	mov	sp, r7
 8004556:	e8bd 81f0 	ldmia.w	sp!, {r4, r5, r6, r7, r8, pc}
 800455a:	bf00      	nop
 800455c:	0800d868 	.word	0x0800d868

08004560 <stm32__spi___elabs>:
 8004560:	b580      	push	{r7, lr}
 8004562:	af00      	add	r7, sp, #0
 8004564:	4803      	ldr	r0, [pc, #12]	; (8004574 <stm32__spi___elabs+0x14>)
 8004566:	f004 ffa9 	bl	80094bc <ada__tags__check_tsd>
 800456a:	4803      	ldr	r0, [pc, #12]	; (8004578 <stm32__spi___elabs+0x18>)
 800456c:	f005 f820 	bl	80095b0 <ada__tags__register_tag>
 8004570:	bd80      	pop	{r7, pc}
 8004572:	bf00      	nop
 8004574:	0800d75c 	.word	0x0800d75c
 8004578:	0800d7cc 	.word	0x0800d7cc

0800457c <stm32__i2c__i2c_configurationIP>:
 800457c:	b480      	push	{r7}
 800457e:	b083      	sub	sp, #12
 8004580:	af00      	add	r7, sp, #0
 8004582:	6078      	str	r0, [r7, #4]
 8004584:	687b      	ldr	r3, [r7, #4]
 8004586:	2200      	movs	r2, #0
 8004588:	721a      	strb	r2, [r3, #8]
 800458a:	687b      	ldr	r3, [r7, #4]
 800458c:	2201      	movs	r2, #1
 800458e:	725a      	strb	r2, [r3, #9]
 8004590:	370c      	adds	r7, #12
 8004592:	46bd      	mov	sp, r7
 8004594:	f85d 7b04 	ldr.w	r7, [sp], #4
 8004598:	4770      	bx	lr
 800459a:	bf00      	nop

0800459c <stm32__i2c__i2c_portIP>:
 800459c:	b580      	push	{r7, lr}
 800459e:	b086      	sub	sp, #24
 80045a0:	af02      	add	r7, sp, #8
 80045a2:	60f8      	str	r0, [r7, #12]
 80045a4:	60b9      	str	r1, [r7, #8]
 80045a6:	4613      	mov	r3, r2
 80045a8:	71fb      	strb	r3, [r7, #7]
 80045aa:	79fb      	ldrb	r3, [r7, #7]
 80045ac:	2b00      	cmp	r3, #0
 80045ae:	d00b      	beq.n	80045c8 <stm32__i2c__i2c_portIP+0x2c>
 80045b0:	68fb      	ldr	r3, [r7, #12]
 80045b2:	4a0c      	ldr	r2, [pc, #48]	; (80045e4 <stm32__i2c__i2c_portIP+0x48>)
 80045b4:	601a      	str	r2, [r3, #0]
 80045b6:	68fa      	ldr	r2, [r7, #12]
 80045b8:	2300      	movs	r3, #0
 80045ba:	9300      	str	r3, [sp, #0]
 80045bc:	4610      	mov	r0, r2
 80045be:	490a      	ldr	r1, [pc, #40]	; (80045e8 <stm32__i2c__i2c_portIP+0x4c>)
 80045c0:	2201      	movs	r2, #1
 80045c2:	2300      	movs	r3, #0
 80045c4:	f004 ffc4 	bl	8009550 <ada__tags__register_interface_offset>
 80045c8:	68fb      	ldr	r3, [r7, #12]
 80045ca:	68ba      	ldr	r2, [r7, #8]
 80045cc:	605a      	str	r2, [r3, #4]
 80045ce:	68fb      	ldr	r3, [r7, #12]
 80045d0:	3308      	adds	r3, #8
 80045d2:	4618      	mov	r0, r3
 80045d4:	f7ff ffd2 	bl	800457c <stm32__i2c__i2c_configurationIP>
 80045d8:	68fb      	ldr	r3, [r7, #12]
 80045da:	2200      	movs	r2, #0
 80045dc:	751a      	strb	r2, [r3, #20]
 80045de:	3710      	adds	r7, #16
 80045e0:	46bd      	mov	sp, r7
 80045e2:	bd80      	pop	{r7, pc}
 80045e4:	0800d9d4 	.word	0x0800d9d4
 80045e8:	0800dc20 	.word	0x0800dc20

080045ec <stm32__i2c___size__2>:
 80045ec:	b490      	push	{r4, r7}
 80045ee:	b082      	sub	sp, #8
 80045f0:	af00      	add	r7, sp, #0
 80045f2:	6078      	str	r0, [r7, #4]
 80045f4:	f04f 03c0 	mov.w	r3, #192	; 0xc0
 80045f8:	f04f 0400 	mov.w	r4, #0
 80045fc:	4618      	mov	r0, r3
 80045fe:	4621      	mov	r1, r4
 8004600:	3708      	adds	r7, #8
 8004602:	46bd      	mov	sp, r7
 8004604:	bc90      	pop	{r4, r7}
 8004606:	4770      	bx	lr

08004608 <stm32__i2c__i2c_portSR__i2c_configuration_39SR__2.5131>:
 8004608:	b580      	push	{r7, lr}
 800460a:	b084      	sub	sp, #16
 800460c:	af00      	add	r7, sp, #0
 800460e:	60f8      	str	r0, [r7, #12]
 8004610:	60b9      	str	r1, [r7, #8]
 8004612:	607a      	str	r2, [r7, #4]
 8004614:	f8c7 c000 	str.w	ip, [r7]
 8004618:	68f8      	ldr	r0, [r7, #12]
 800461a:	f004 fdcd 	bl	80091b8 <system__stream_attributes__i_u>
 800461e:	4602      	mov	r2, r0
 8004620:	68bb      	ldr	r3, [r7, #8]
 8004622:	601a      	str	r2, [r3, #0]
 8004624:	68f8      	ldr	r0, [r7, #12]
 8004626:	f004 fd8f 	bl	8009148 <system__stream_attributes__i_ssu>
 800462a:	4603      	mov	r3, r0
 800462c:	461a      	mov	r2, r3
 800462e:	68bb      	ldr	r3, [r7, #8]
 8004630:	711a      	strb	r2, [r3, #4]
 8004632:	68f8      	ldr	r0, [r7, #12]
 8004634:	f004 fda4 	bl	8009180 <system__stream_attributes__i_su>
 8004638:	4603      	mov	r3, r0
 800463a:	461a      	mov	r2, r3
 800463c:	68bb      	ldr	r3, [r7, #8]
 800463e:	80da      	strh	r2, [r3, #6]
 8004640:	68f8      	ldr	r0, [r7, #12]
 8004642:	f004 fd65 	bl	8009110 <system__stream_attributes__i_b>
 8004646:	4603      	mov	r3, r0
 8004648:	461a      	mov	r2, r3
 800464a:	68bb      	ldr	r3, [r7, #8]
 800464c:	721a      	strb	r2, [r3, #8]
 800464e:	68f8      	ldr	r0, [r7, #12]
 8004650:	f004 fd5e 	bl	8009110 <system__stream_attributes__i_b>
 8004654:	4603      	mov	r3, r0
 8004656:	461a      	mov	r2, r3
 8004658:	68bb      	ldr	r3, [r7, #8]
 800465a:	725a      	strb	r2, [r3, #9]
 800465c:	3710      	adds	r7, #16
 800465e:	46bd      	mov	sp, r7
 8004660:	bd80      	pop	{r7, pc}
 8004662:	bf00      	nop

08004664 <stm32__i2c__i2c_portSR__2>:
 8004664:	b580      	push	{r7, lr}
 8004666:	b086      	sub	sp, #24
 8004668:	af00      	add	r7, sp, #0
 800466a:	60f8      	str	r0, [r7, #12]
 800466c:	60b9      	str	r1, [r7, #8]
 800466e:	607a      	str	r2, [r7, #4]
 8004670:	f107 0320 	add.w	r3, r7, #32
 8004674:	617b      	str	r3, [r7, #20]
 8004676:	68bb      	ldr	r3, [r7, #8]
 8004678:	f103 0208 	add.w	r2, r3, #8
 800467c:	f107 0314 	add.w	r3, r7, #20
 8004680:	469c      	mov	ip, r3
 8004682:	68f8      	ldr	r0, [r7, #12]
 8004684:	4611      	mov	r1, r2
 8004686:	687a      	ldr	r2, [r7, #4]
 8004688:	f7ff ffbe 	bl	8004608 <stm32__i2c__i2c_portSR__i2c_configuration_39SR__2.5131>
 800468c:	68f8      	ldr	r0, [r7, #12]
 800468e:	f004 fd5b 	bl	8009148 <system__stream_attributes__i_ssu>
 8004692:	4603      	mov	r3, r0
 8004694:	461a      	mov	r2, r3
 8004696:	68bb      	ldr	r3, [r7, #8]
 8004698:	751a      	strb	r2, [r3, #20]
 800469a:	3718      	adds	r7, #24
 800469c:	46bd      	mov	sp, r7
 800469e:	bd80      	pop	{r7, pc}

080046a0 <stm32__i2c__i2c_portSW__i2c_configuration_43SW__2.5163>:
 80046a0:	b580      	push	{r7, lr}
 80046a2:	b084      	sub	sp, #16
 80046a4:	af00      	add	r7, sp, #0
 80046a6:	60f8      	str	r0, [r7, #12]
 80046a8:	60b9      	str	r1, [r7, #8]
 80046aa:	607a      	str	r2, [r7, #4]
 80046ac:	f8c7 c000 	str.w	ip, [r7]
 80046b0:	68bb      	ldr	r3, [r7, #8]
 80046b2:	681b      	ldr	r3, [r3, #0]
 80046b4:	68f8      	ldr	r0, [r7, #12]
 80046b6:	4619      	mov	r1, r3
 80046b8:	f004 fdd6 	bl	8009268 <system__stream_attributes__w_u>
 80046bc:	68bb      	ldr	r3, [r7, #8]
 80046be:	791b      	ldrb	r3, [r3, #4]
 80046c0:	68f8      	ldr	r0, [r7, #12]
 80046c2:	4619      	mov	r1, r3
 80046c4:	f004 fdb2 	bl	800922c <system__stream_attributes__w_ssu>
 80046c8:	68bb      	ldr	r3, [r7, #8]
 80046ca:	88db      	ldrh	r3, [r3, #6]
 80046cc:	68f8      	ldr	r0, [r7, #12]
 80046ce:	4619      	mov	r1, r3
 80046d0:	f004 fdba 	bl	8009248 <system__stream_attributes__w_su>
 80046d4:	68bb      	ldr	r3, [r7, #8]
 80046d6:	7a1b      	ldrb	r3, [r3, #8]
 80046d8:	68f8      	ldr	r0, [r7, #12]
 80046da:	4619      	mov	r1, r3
 80046dc:	f004 fd98 	bl	8009210 <system__stream_attributes__w_b>
 80046e0:	68bb      	ldr	r3, [r7, #8]
 80046e2:	7a5b      	ldrb	r3, [r3, #9]
 80046e4:	68f8      	ldr	r0, [r7, #12]
 80046e6:	4619      	mov	r1, r3
 80046e8:	f004 fd92 	bl	8009210 <system__stream_attributes__w_b>
 80046ec:	3710      	adds	r7, #16
 80046ee:	46bd      	mov	sp, r7
 80046f0:	bd80      	pop	{r7, pc}
 80046f2:	bf00      	nop

080046f4 <stm32__i2c__i2c_portSW__2>:
 80046f4:	b580      	push	{r7, lr}
 80046f6:	b086      	sub	sp, #24
 80046f8:	af00      	add	r7, sp, #0
 80046fa:	60f8      	str	r0, [r7, #12]
 80046fc:	60b9      	str	r1, [r7, #8]
 80046fe:	607a      	str	r2, [r7, #4]
 8004700:	f107 0320 	add.w	r3, r7, #32
 8004704:	617b      	str	r3, [r7, #20]
 8004706:	68bb      	ldr	r3, [r7, #8]
 8004708:	f103 0208 	add.w	r2, r3, #8
 800470c:	f107 0314 	add.w	r3, r7, #20
 8004710:	469c      	mov	ip, r3
 8004712:	68f8      	ldr	r0, [r7, #12]
 8004714:	4611      	mov	r1, r2
 8004716:	687a      	ldr	r2, [r7, #4]
 8004718:	f7ff ffc2 	bl	80046a0 <stm32__i2c__i2c_portSW__i2c_configuration_43SW__2.5163>
 800471c:	68bb      	ldr	r3, [r7, #8]
 800471e:	7d1b      	ldrb	r3, [r3, #20]
 8004720:	68f8      	ldr	r0, [r7, #12]
 8004722:	4619      	mov	r1, r3
 8004724:	f004 fd82 	bl	800922c <system__stream_attributes__w_ssu>
 8004728:	3718      	adds	r7, #24
 800472a:	46bd      	mov	sp, r7
 800472c:	bd80      	pop	{r7, pc}
 800472e:	bf00      	nop

08004730 <stm32__i2c__i2c_portSI__2>:
 8004730:	b5f0      	push	{r4, r5, r6, r7, lr}
 8004732:	b089      	sub	sp, #36	; 0x24
 8004734:	af00      	add	r7, sp, #0
 8004736:	6078      	str	r0, [r7, #4]
 8004738:	6039      	str	r1, [r7, #0]
 800473a:	6878      	ldr	r0, [r7, #4]
 800473c:	f004 fccc 	bl	80090d8 <system__stream_attributes__i_as>
 8004740:	4603      	mov	r3, r0
 8004742:	461a      	mov	r2, r3
 8004744:	f107 0308 	add.w	r3, r7, #8
 8004748:	4618      	mov	r0, r3
 800474a:	4611      	mov	r1, r2
 800474c:	2201      	movs	r2, #1
 800474e:	f7ff ff25 	bl	800459c <stm32__i2c__i2c_portIP>
 8004752:	f107 0308 	add.w	r3, r7, #8
 8004756:	6878      	ldr	r0, [r7, #4]
 8004758:	4619      	mov	r1, r3
 800475a:	683a      	ldr	r2, [r7, #0]
 800475c:	f7ff ff82 	bl	8004664 <stm32__i2c__i2c_portSR__2>
 8004760:	2018      	movs	r0, #24
 8004762:	f005 f98f 	bl	8009a84 <system__secondary_stack__ss_allocate>
 8004766:	4606      	mov	r6, r0
 8004768:	4633      	mov	r3, r6
 800476a:	461d      	mov	r5, r3
 800476c:	f107 0408 	add.w	r4, r7, #8
 8004770:	cc0f      	ldmia	r4!, {r0, r1, r2, r3}
 8004772:	c50f      	stmia	r5!, {r0, r1, r2, r3}
 8004774:	e894 0003 	ldmia.w	r4, {r0, r1}
 8004778:	e885 0003 	stmia.w	r5, {r0, r1}
 800477c:	4633      	mov	r3, r6
 800477e:	4618      	mov	r0, r3
 8004780:	3724      	adds	r7, #36	; 0x24
 8004782:	46bd      	mov	sp, r7
 8004784:	bdf0      	pop	{r4, r5, r6, r7, pc}
 8004786:	bf00      	nop

08004788 <stm32__i2c__i2c_portSO__2>:
 8004788:	b580      	push	{r7, lr}
 800478a:	b084      	sub	sp, #16
 800478c:	af00      	add	r7, sp, #0
 800478e:	60f8      	str	r0, [r7, #12]
 8004790:	60b9      	str	r1, [r7, #8]
 8004792:	607a      	str	r2, [r7, #4]
 8004794:	68bb      	ldr	r3, [r7, #8]
 8004796:	68f8      	ldr	r0, [r7, #12]
 8004798:	6859      	ldr	r1, [r3, #4]
 800479a:	f004 fd29 	bl	80091f0 <system__stream_attributes__w_as>
 800479e:	68f8      	ldr	r0, [r7, #12]
 80047a0:	68b9      	ldr	r1, [r7, #8]
 80047a2:	687a      	ldr	r2, [r7, #4]
 80047a4:	f7ff ffa6 	bl	80046f4 <stm32__i2c__i2c_portSW__2>
 80047a8:	3710      	adds	r7, #16
 80047aa:	46bd      	mov	sp, r7
 80047ac:	bd80      	pop	{r7, pc}
 80047ae:	bf00      	nop

080047b0 <stm32__i2c__Oeq>:
 80047b0:	b480      	push	{r7}
 80047b2:	b083      	sub	sp, #12
 80047b4:	af00      	add	r7, sp, #0
 80047b6:	6078      	str	r0, [r7, #4]
 80047b8:	6039      	str	r1, [r7, #0]
 80047ba:	687b      	ldr	r3, [r7, #4]
 80047bc:	685a      	ldr	r2, [r3, #4]
 80047be:	683b      	ldr	r3, [r7, #0]
 80047c0:	685b      	ldr	r3, [r3, #4]
 80047c2:	429a      	cmp	r2, r3
 80047c4:	d125      	bne.n	8004812 <stm32__i2c__Oeq+0x62>
 80047c6:	687b      	ldr	r3, [r7, #4]
 80047c8:	689a      	ldr	r2, [r3, #8]
 80047ca:	683b      	ldr	r3, [r7, #0]
 80047cc:	689b      	ldr	r3, [r3, #8]
 80047ce:	429a      	cmp	r2, r3
 80047d0:	d11f      	bne.n	8004812 <stm32__i2c__Oeq+0x62>
 80047d2:	687b      	ldr	r3, [r7, #4]
 80047d4:	7b1a      	ldrb	r2, [r3, #12]
 80047d6:	683b      	ldr	r3, [r7, #0]
 80047d8:	7b1b      	ldrb	r3, [r3, #12]
 80047da:	429a      	cmp	r2, r3
 80047dc:	d119      	bne.n	8004812 <stm32__i2c__Oeq+0x62>
 80047de:	687b      	ldr	r3, [r7, #4]
 80047e0:	89da      	ldrh	r2, [r3, #14]
 80047e2:	683b      	ldr	r3, [r7, #0]
 80047e4:	89db      	ldrh	r3, [r3, #14]
 80047e6:	429a      	cmp	r2, r3
 80047e8:	d113      	bne.n	8004812 <stm32__i2c__Oeq+0x62>
 80047ea:	687b      	ldr	r3, [r7, #4]
 80047ec:	7c1a      	ldrb	r2, [r3, #16]
 80047ee:	683b      	ldr	r3, [r7, #0]
 80047f0:	7c1b      	ldrb	r3, [r3, #16]
 80047f2:	429a      	cmp	r2, r3
 80047f4:	d10d      	bne.n	8004812 <stm32__i2c__Oeq+0x62>
 80047f6:	687b      	ldr	r3, [r7, #4]
 80047f8:	7c5a      	ldrb	r2, [r3, #17]
 80047fa:	683b      	ldr	r3, [r7, #0]
 80047fc:	7c5b      	ldrb	r3, [r3, #17]
 80047fe:	429a      	cmp	r2, r3
 8004800:	d107      	bne.n	8004812 <stm32__i2c__Oeq+0x62>
 8004802:	687b      	ldr	r3, [r7, #4]
 8004804:	7d1a      	ldrb	r2, [r3, #20]
 8004806:	683b      	ldr	r3, [r7, #0]
 8004808:	7d1b      	ldrb	r3, [r3, #20]
 800480a:	429a      	cmp	r2, r3
 800480c:	d101      	bne.n	8004812 <stm32__i2c__Oeq+0x62>
 800480e:	2301      	movs	r3, #1
 8004810:	e000      	b.n	8004814 <stm32__i2c__Oeq+0x64>
 8004812:	2300      	movs	r3, #0
 8004814:	4618      	mov	r0, r3
 8004816:	370c      	adds	r7, #12
 8004818:	46bd      	mov	sp, r7
 800481a:	f85d 7b04 	ldr.w	r7, [sp], #4
 800481e:	4770      	bx	lr

08004820 <stm32__i2c___assign>:
 8004820:	b5f0      	push	{r4, r5, r6, r7, lr}
 8004822:	b0ed      	sub	sp, #436	; 0x1b4
 8004824:	af00      	add	r7, sp, #0
 8004826:	1d3b      	adds	r3, r7, #4
 8004828:	6018      	str	r0, [r3, #0]
 800482a:	463b      	mov	r3, r7
 800482c:	6019      	str	r1, [r3, #0]
 800482e:	1d3b      	adds	r3, r7, #4
 8004830:	681b      	ldr	r3, [r3, #0]
 8004832:	685b      	ldr	r3, [r3, #4]
 8004834:	463a      	mov	r2, r7
 8004836:	6812      	ldr	r2, [r2, #0]
 8004838:	6852      	ldr	r2, [r2, #4]
 800483a:	429a      	cmp	r2, r3
 800483c:	d003      	beq.n	8004846 <stm32__i2c___assign+0x26>
 800483e:	4810      	ldr	r0, [pc, #64]	; (8004880 <stm32__i2c___assign+0x60>)
 8004840:	2185      	movs	r1, #133	; 0x85
 8004842:	f004 fbb9 	bl	8008fb8 <__gnat_rcheck_CE_Discriminant_Check>
 8004846:	1d3b      	adds	r3, r7, #4
 8004848:	681a      	ldr	r2, [r3, #0]
 800484a:	463b      	mov	r3, r7
 800484c:	681b      	ldr	r3, [r3, #0]
 800484e:	429a      	cmp	r2, r3
 8004850:	d011      	beq.n	8004876 <stm32__i2c___assign+0x56>
 8004852:	1d3b      	adds	r3, r7, #4
 8004854:	681b      	ldr	r3, [r3, #0]
 8004856:	681e      	ldr	r6, [r3, #0]
 8004858:	1d3b      	adds	r3, r7, #4
 800485a:	681a      	ldr	r2, [r3, #0]
 800485c:	463b      	mov	r3, r7
 800485e:	681b      	ldr	r3, [r3, #0]
 8004860:	4614      	mov	r4, r2
 8004862:	461d      	mov	r5, r3
 8004864:	cd0f      	ldmia	r5!, {r0, r1, r2, r3}
 8004866:	c40f      	stmia	r4!, {r0, r1, r2, r3}
 8004868:	e895 0003 	ldmia.w	r5, {r0, r1}
 800486c:	e884 0003 	stmia.w	r4, {r0, r1}
 8004870:	1d3b      	adds	r3, r7, #4
 8004872:	681b      	ldr	r3, [r3, #0]
 8004874:	601e      	str	r6, [r3, #0]
 8004876:	f507 77da 	add.w	r7, r7, #436	; 0x1b4
 800487a:	46bd      	mov	sp, r7
 800487c:	bdf0      	pop	{r4, r5, r6, r7, pc}
 800487e:	bf00      	nop
 8004880:	0800d9f0 	.word	0x0800d9f0

08004884 <stm32__i2c__i2c_portDA>:
 8004884:	b480      	push	{r7}
 8004886:	b083      	sub	sp, #12
 8004888:	af00      	add	r7, sp, #0
 800488a:	6078      	str	r0, [r7, #4]
 800488c:	460b      	mov	r3, r1
 800488e:	70fb      	strb	r3, [r7, #3]
 8004890:	370c      	adds	r7, #12
 8004892:	46bd      	mov	sp, r7
 8004894:	f85d 7b04 	ldr.w	r7, [sp], #4
 8004898:	4770      	bx	lr
 800489a:	bf00      	nop

0800489c <stm32__i2c__i2c_portDF__2>:
 800489c:	b480      	push	{r7}
 800489e:	b083      	sub	sp, #12
 80048a0:	af00      	add	r7, sp, #0
 80048a2:	6078      	str	r0, [r7, #4]
 80048a4:	460b      	mov	r3, r1
 80048a6:	70fb      	strb	r3, [r7, #3]
 80048a8:	370c      	adds	r7, #12
 80048aa:	46bd      	mov	sp, r7
 80048ac:	f85d 7b04 	ldr.w	r7, [sp], #4
 80048b0:	4770      	bx	lr
 80048b2:	bf00      	nop

080048b4 <stm32__i2c__port_enabled>:
 80048b4:	b480      	push	{r7}
 80048b6:	b083      	sub	sp, #12
 80048b8:	af00      	add	r7, sp, #0
 80048ba:	6078      	str	r0, [r7, #4]
 80048bc:	687b      	ldr	r3, [r7, #4]
 80048be:	685b      	ldr	r3, [r3, #4]
 80048c0:	681b      	ldr	r3, [r3, #0]
 80048c2:	f3c3 0300 	ubfx	r3, r3, #0, #1
 80048c6:	b2db      	uxtb	r3, r3
 80048c8:	bf00      	nop
 80048ca:	4618      	mov	r0, r3
 80048cc:	370c      	adds	r7, #12
 80048ce:	46bd      	mov	sp, r7
 80048d0:	f85d 7b04 	ldr.w	r7, [sp], #4
 80048d4:	4770      	bx	lr
 80048d6:	bf00      	nop

080048d8 <stm32__i2c__configure___postconditions.5466>:
 80048d8:	b5b0      	push	{r4, r5, r7, lr}
 80048da:	b082      	sub	sp, #8
 80048dc:	af00      	add	r7, sp, #0
 80048de:	4663      	mov	r3, ip
 80048e0:	f8c7 c004 	str.w	ip, [r7, #4]
 80048e4:	681b      	ldr	r3, [r3, #0]
 80048e6:	4618      	mov	r0, r3
 80048e8:	f000 f960 	bl	8004bac <stm32__i2c__is_configured>
 80048ec:	4603      	mov	r3, r0
 80048ee:	f083 0301 	eor.w	r3, r3, #1
 80048f2:	b2db      	uxtb	r3, r3
 80048f4:	2b00      	cmp	r3, #0
 80048f6:	d005      	beq.n	8004904 <stm32__i2c__configure___postconditions.5466+0x2c>
 80048f8:	4c04      	ldr	r4, [pc, #16]	; (800490c <stm32__i2c__configure___postconditions.5466+0x34>)
 80048fa:	4d05      	ldr	r5, [pc, #20]	; (8004910 <stm32__i2c__configure___postconditions.5466+0x38>)
 80048fc:	4620      	mov	r0, r4
 80048fe:	4629      	mov	r1, r5
 8004900:	f005 f89a 	bl	8009a38 <system__assertions__raise_assert_failure>
 8004904:	3708      	adds	r7, #8
 8004906:	46bd      	mov	sp, r7
 8004908:	bdb0      	pop	{r4, r5, r7, pc}
 800490a:	bf00      	nop
 800490c:	0800da00 	.word	0x0800da00
 8004910:	0800da2c 	.word	0x0800da2c

08004914 <stm32__i2c__configure>:
 8004914:	b5b0      	push	{r4, r5, r7, lr}
 8004916:	b088      	sub	sp, #32
 8004918:	af00      	add	r7, sp, #0
 800491a:	6078      	str	r0, [r7, #4]
 800491c:	6039      	str	r1, [r7, #0]
 800491e:	f107 0330 	add.w	r3, r7, #48	; 0x30
 8004922:	60fb      	str	r3, [r7, #12]
 8004924:	687b      	ldr	r3, [r7, #4]
 8004926:	60bb      	str	r3, [r7, #8]
 8004928:	68bb      	ldr	r3, [r7, #8]
 800492a:	4618      	mov	r0, r3
 800492c:	f000 f93e 	bl	8004bac <stm32__i2c__is_configured>
 8004930:	4603      	mov	r3, r0
 8004932:	2b00      	cmp	r3, #0
 8004934:	d005      	beq.n	8004942 <stm32__i2c__configure+0x2e>
 8004936:	4c9b      	ldr	r4, [pc, #620]	; (8004ba4 <stm32__i2c__configure+0x290>)
 8004938:	4d9b      	ldr	r5, [pc, #620]	; (8004ba8 <stm32__i2c__configure+0x294>)
 800493a:	4620      	mov	r0, r4
 800493c:	4629      	mov	r1, r5
 800493e:	f005 f87b 	bl	8009a38 <system__assertions__raise_assert_failure>
 8004942:	68bb      	ldr	r3, [r7, #8]
 8004944:	7d1b      	ldrb	r3, [r3, #20]
 8004946:	2b00      	cmp	r3, #0
 8004948:	d005      	beq.n	8004956 <stm32__i2c__configure+0x42>
 800494a:	f107 0308 	add.w	r3, r7, #8
 800494e:	469c      	mov	ip, r3
 8004950:	f7ff ffc2 	bl	80048d8 <stm32__i2c__configure___postconditions.5466>
 8004954:	e122      	b.n	8004b9c <stm32__i2c__configure+0x288>
 8004956:	68bb      	ldr	r3, [r7, #8]
 8004958:	683a      	ldr	r2, [r7, #0]
 800495a:	3308      	adds	r3, #8
 800495c:	ca07      	ldmia	r2, {r0, r1, r2}
 800495e:	e883 0007 	stmia.w	r3, {r0, r1, r2}
 8004962:	68bb      	ldr	r3, [r7, #8]
 8004964:	685b      	ldr	r3, [r3, #4]
 8004966:	681b      	ldr	r3, [r3, #0]
 8004968:	f36f 0300 	bfc	r3, #0, #1
 800496c:	68ba      	ldr	r2, [r7, #8]
 800496e:	6852      	ldr	r2, [r2, #4]
 8004970:	6013      	str	r3, [r2, #0]
 8004972:	69fb      	ldr	r3, [r7, #28]
 8004974:	2232      	movs	r2, #50	; 0x32
 8004976:	f362 0307 	bfi	r3, r2, #0, #8
 800497a:	61fb      	str	r3, [r7, #28]
 800497c:	69fb      	ldr	r3, [r7, #28]
 800497e:	2227      	movs	r2, #39	; 0x27
 8004980:	f362 230f 	bfi	r3, r2, #8, #8
 8004984:	61fb      	str	r3, [r7, #28]
 8004986:	69fb      	ldr	r3, [r7, #28]
 8004988:	2201      	movs	r2, #1
 800498a:	f362 4313 	bfi	r3, r2, #16, #4
 800498e:	61fb      	str	r3, [r7, #28]
 8004990:	69fb      	ldr	r3, [r7, #28]
 8004992:	2209      	movs	r2, #9
 8004994:	f362 5317 	bfi	r3, r2, #20, #4
 8004998:	61fb      	str	r3, [r7, #28]
 800499a:	69fb      	ldr	r3, [r7, #28]
 800499c:	f36f 631b 	bfc	r3, #24, #4
 80049a0:	61fb      	str	r3, [r7, #28]
 80049a2:	69fb      	ldr	r3, [r7, #28]
 80049a4:	2204      	movs	r2, #4
 80049a6:	f362 731f 	bfi	r3, r2, #28, #4
 80049aa:	61fb      	str	r3, [r7, #28]
 80049ac:	68bb      	ldr	r3, [r7, #8]
 80049ae:	685b      	ldr	r3, [r3, #4]
 80049b0:	3310      	adds	r3, #16
 80049b2:	69fa      	ldr	r2, [r7, #28]
 80049b4:	601a      	str	r2, [r3, #0]
 80049b6:	68bb      	ldr	r3, [r7, #8]
 80049b8:	685b      	ldr	r3, [r3, #4]
 80049ba:	3308      	adds	r3, #8
 80049bc:	681b      	ldr	r3, [r3, #0]
 80049be:	f36f 33cf 	bfc	r3, #15, #1
 80049c2:	68ba      	ldr	r2, [r7, #8]
 80049c4:	6852      	ldr	r2, [r2, #4]
 80049c6:	3208      	adds	r2, #8
 80049c8:	6013      	str	r3, [r2, #0]
 80049ca:	683b      	ldr	r3, [r7, #0]
 80049cc:	88db      	ldrh	r3, [r3, #6]
 80049ce:	2b00      	cmp	r3, #0
 80049d0:	d027      	beq.n	8004a22 <stm32__i2c__configure+0x10e>
 80049d2:	69bb      	ldr	r3, [r7, #24]
 80049d4:	683a      	ldr	r2, [r7, #0]
 80049d6:	88d2      	ldrh	r2, [r2, #6]
 80049d8:	f3c2 0209 	ubfx	r2, r2, #0, #10
 80049dc:	b292      	uxth	r2, r2
 80049de:	f362 0309 	bfi	r3, r2, #0, #10
 80049e2:	61bb      	str	r3, [r7, #24]
 80049e4:	69bb      	ldr	r3, [r7, #24]
 80049e6:	683a      	ldr	r2, [r7, #0]
 80049e8:	7912      	ldrb	r2, [r2, #4]
 80049ea:	2a01      	cmp	r2, #1
 80049ec:	bf0c      	ite	eq
 80049ee:	2201      	moveq	r2, #1
 80049f0:	2200      	movne	r2, #0
 80049f2:	b2d2      	uxtb	r2, r2
 80049f4:	f002 0201 	and.w	r2, r2, #1
 80049f8:	b2d2      	uxtb	r2, r2
 80049fa:	f362 238a 	bfi	r3, r2, #10, #1
 80049fe:	61bb      	str	r3, [r7, #24]
 8004a00:	69bb      	ldr	r3, [r7, #24]
 8004a02:	f36f 23ce 	bfc	r3, #11, #4
 8004a06:	61bb      	str	r3, [r7, #24]
 8004a08:	69bb      	ldr	r3, [r7, #24]
 8004a0a:	f443 4300 	orr.w	r3, r3, #32768	; 0x8000
 8004a0e:	61bb      	str	r3, [r7, #24]
 8004a10:	69bb      	ldr	r3, [r7, #24]
 8004a12:	f36f 431f 	bfc	r3, #16, #16
 8004a16:	61bb      	str	r3, [r7, #24]
 8004a18:	68bb      	ldr	r3, [r7, #8]
 8004a1a:	685b      	ldr	r3, [r3, #4]
 8004a1c:	3308      	adds	r3, #8
 8004a1e:	69ba      	ldr	r2, [r7, #24]
 8004a20:	601a      	str	r2, [r3, #0]
 8004a22:	68bb      	ldr	r3, [r7, #8]
 8004a24:	685b      	ldr	r3, [r3, #4]
 8004a26:	3304      	adds	r3, #4
 8004a28:	681b      	ldr	r3, [r3, #0]
 8004a2a:	683a      	ldr	r2, [r7, #0]
 8004a2c:	7912      	ldrb	r2, [r2, #4]
 8004a2e:	2a01      	cmp	r2, #1
 8004a30:	bf0c      	ite	eq
 8004a32:	2201      	moveq	r2, #1
 8004a34:	2200      	movne	r2, #0
 8004a36:	b2d2      	uxtb	r2, r2
 8004a38:	f002 0201 	and.w	r2, r2, #1
 8004a3c:	b2d2      	uxtb	r2, r2
 8004a3e:	f362 23cb 	bfi	r3, r2, #11, #1
 8004a42:	68ba      	ldr	r2, [r7, #8]
 8004a44:	6852      	ldr	r2, [r2, #4]
 8004a46:	3204      	adds	r2, #4
 8004a48:	6013      	str	r3, [r2, #0]
 8004a4a:	68bb      	ldr	r3, [r7, #8]
 8004a4c:	685b      	ldr	r3, [r3, #4]
 8004a4e:	3304      	adds	r3, #4
 8004a50:	681b      	ldr	r3, [r3, #0]
 8004a52:	461a      	mov	r2, r3
 8004a54:	4613      	mov	r3, r2
 8004a56:	f043 7200 	orr.w	r2, r3, #33554432	; 0x2000000
 8004a5a:	68bb      	ldr	r3, [r7, #8]
 8004a5c:	685b      	ldr	r3, [r3, #4]
 8004a5e:	3304      	adds	r3, #4
 8004a60:	601a      	str	r2, [r3, #0]
 8004a62:	68bb      	ldr	r3, [r7, #8]
 8004a64:	685b      	ldr	r3, [r3, #4]
 8004a66:	3304      	adds	r3, #4
 8004a68:	681b      	ldr	r3, [r3, #0]
 8004a6a:	461a      	mov	r2, r3
 8004a6c:	4613      	mov	r3, r2
 8004a6e:	f443 4200 	orr.w	r2, r3, #32768	; 0x8000
 8004a72:	68bb      	ldr	r3, [r7, #8]
 8004a74:	685b      	ldr	r3, [r3, #4]
 8004a76:	3304      	adds	r3, #4
 8004a78:	601a      	str	r2, [r3, #0]
 8004a7a:	697b      	ldr	r3, [r7, #20]
 8004a7c:	f36f 0300 	bfc	r3, #0, #1
 8004a80:	617b      	str	r3, [r7, #20]
 8004a82:	697b      	ldr	r3, [r7, #20]
 8004a84:	f36f 0347 	bfc	r3, #1, #7
 8004a88:	617b      	str	r3, [r7, #20]
 8004a8a:	697b      	ldr	r3, [r7, #20]
 8004a8c:	f36f 230a 	bfc	r3, #8, #3
 8004a90:	617b      	str	r3, [r7, #20]
 8004a92:	697b      	ldr	r3, [r7, #20]
 8004a94:	f36f 23ce 	bfc	r3, #11, #4
 8004a98:	617b      	str	r3, [r7, #20]
 8004a9a:	697b      	ldr	r3, [r7, #20]
 8004a9c:	f36f 33cf 	bfc	r3, #15, #1
 8004aa0:	617b      	str	r3, [r7, #20]
 8004aa2:	697b      	ldr	r3, [r7, #20]
 8004aa4:	f36f 431f 	bfc	r3, #16, #16
 8004aa8:	617b      	str	r3, [r7, #20]
 8004aaa:	68bb      	ldr	r3, [r7, #8]
 8004aac:	685b      	ldr	r3, [r3, #4]
 8004aae:	330c      	adds	r3, #12
 8004ab0:	697a      	ldr	r2, [r7, #20]
 8004ab2:	601a      	str	r2, [r3, #0]
 8004ab4:	693b      	ldr	r3, [r7, #16]
 8004ab6:	f36f 0300 	bfc	r3, #0, #1
 8004aba:	613b      	str	r3, [r7, #16]
 8004abc:	693b      	ldr	r3, [r7, #16]
 8004abe:	f36f 0341 	bfc	r3, #1, #1
 8004ac2:	613b      	str	r3, [r7, #16]
 8004ac4:	693b      	ldr	r3, [r7, #16]
 8004ac6:	f36f 0382 	bfc	r3, #2, #1
 8004aca:	613b      	str	r3, [r7, #16]
 8004acc:	693b      	ldr	r3, [r7, #16]
 8004ace:	f36f 03c3 	bfc	r3, #3, #1
 8004ad2:	613b      	str	r3, [r7, #16]
 8004ad4:	693b      	ldr	r3, [r7, #16]
 8004ad6:	f36f 1304 	bfc	r3, #4, #1
 8004ada:	613b      	str	r3, [r7, #16]
 8004adc:	693b      	ldr	r3, [r7, #16]
 8004ade:	f36f 1345 	bfc	r3, #5, #1
 8004ae2:	613b      	str	r3, [r7, #16]
 8004ae4:	693b      	ldr	r3, [r7, #16]
 8004ae6:	f36f 1386 	bfc	r3, #6, #1
 8004aea:	613b      	str	r3, [r7, #16]
 8004aec:	693b      	ldr	r3, [r7, #16]
 8004aee:	f36f 13c7 	bfc	r3, #7, #1
 8004af2:	613b      	str	r3, [r7, #16]
 8004af4:	693b      	ldr	r3, [r7, #16]
 8004af6:	f36f 230b 	bfc	r3, #8, #4
 8004afa:	613b      	str	r3, [r7, #16]
 8004afc:	693b      	ldr	r3, [r7, #16]
 8004afe:	f36f 330c 	bfc	r3, #12, #1
 8004b02:	613b      	str	r3, [r7, #16]
 8004b04:	693b      	ldr	r3, [r7, #16]
 8004b06:	f36f 334d 	bfc	r3, #13, #1
 8004b0a:	613b      	str	r3, [r7, #16]
 8004b0c:	693b      	ldr	r3, [r7, #16]
 8004b0e:	f36f 338e 	bfc	r3, #14, #1
 8004b12:	613b      	str	r3, [r7, #16]
 8004b14:	693b      	ldr	r3, [r7, #16]
 8004b16:	f36f 33cf 	bfc	r3, #15, #1
 8004b1a:	613b      	str	r3, [r7, #16]
 8004b1c:	693b      	ldr	r3, [r7, #16]
 8004b1e:	f36f 4310 	bfc	r3, #16, #1
 8004b22:	613b      	str	r3, [r7, #16]
 8004b24:	693b      	ldr	r3, [r7, #16]
 8004b26:	f36f 4351 	bfc	r3, #17, #1
 8004b2a:	613b      	str	r3, [r7, #16]
 8004b2c:	693b      	ldr	r3, [r7, #16]
 8004b2e:	f36f 4392 	bfc	r3, #18, #1
 8004b32:	613b      	str	r3, [r7, #16]
 8004b34:	693b      	ldr	r3, [r7, #16]
 8004b36:	683a      	ldr	r2, [r7, #0]
 8004b38:	7a12      	ldrb	r2, [r2, #8]
 8004b3a:	f002 0201 	and.w	r2, r2, #1
 8004b3e:	b2d2      	uxtb	r2, r2
 8004b40:	f362 43d3 	bfi	r3, r2, #19, #1
 8004b44:	613b      	str	r3, [r7, #16]
 8004b46:	693b      	ldr	r3, [r7, #16]
 8004b48:	f36f 5314 	bfc	r3, #20, #1
 8004b4c:	613b      	str	r3, [r7, #16]
 8004b4e:	693b      	ldr	r3, [r7, #16]
 8004b50:	f36f 5355 	bfc	r3, #21, #1
 8004b54:	613b      	str	r3, [r7, #16]
 8004b56:	693b      	ldr	r3, [r7, #16]
 8004b58:	f36f 5396 	bfc	r3, #22, #1
 8004b5c:	613b      	str	r3, [r7, #16]
 8004b5e:	693b      	ldr	r3, [r7, #16]
 8004b60:	f36f 53d7 	bfc	r3, #23, #1
 8004b64:	613b      	str	r3, [r7, #16]
 8004b66:	693b      	ldr	r3, [r7, #16]
 8004b68:	f36f 631f 	bfc	r3, #24, #8
 8004b6c:	613b      	str	r3, [r7, #16]
 8004b6e:	68bb      	ldr	r3, [r7, #8]
 8004b70:	685b      	ldr	r3, [r3, #4]
 8004b72:	461a      	mov	r2, r3
 8004b74:	693b      	ldr	r3, [r7, #16]
 8004b76:	6013      	str	r3, [r2, #0]
 8004b78:	68bb      	ldr	r3, [r7, #8]
 8004b7a:	2201      	movs	r2, #1
 8004b7c:	751a      	strb	r2, [r3, #20]
 8004b7e:	68bb      	ldr	r3, [r7, #8]
 8004b80:	685b      	ldr	r3, [r3, #4]
 8004b82:	681b      	ldr	r3, [r3, #0]
 8004b84:	461a      	mov	r2, r3
 8004b86:	4613      	mov	r3, r2
 8004b88:	f043 0201 	orr.w	r2, r3, #1
 8004b8c:	68bb      	ldr	r3, [r7, #8]
 8004b8e:	685b      	ldr	r3, [r3, #4]
 8004b90:	601a      	str	r2, [r3, #0]
 8004b92:	f107 0308 	add.w	r3, r7, #8
 8004b96:	469c      	mov	ip, r3
 8004b98:	f7ff fe9e 	bl	80048d8 <stm32__i2c__configure___postconditions.5466>
 8004b9c:	3720      	adds	r7, #32
 8004b9e:	46bd      	mov	sp, r7
 8004ba0:	bdb0      	pop	{r4, r5, r7, pc}
 8004ba2:	bf00      	nop
 8004ba4:	0800da34 	.word	0x0800da34
 8004ba8:	0800da60 	.word	0x0800da60

08004bac <stm32__i2c__is_configured>:
 8004bac:	b480      	push	{r7}
 8004bae:	b083      	sub	sp, #12
 8004bb0:	af00      	add	r7, sp, #0
 8004bb2:	6078      	str	r0, [r7, #4]
 8004bb4:	687b      	ldr	r3, [r7, #4]
 8004bb6:	7d1b      	ldrb	r3, [r3, #20]
 8004bb8:	2b00      	cmp	r3, #0
 8004bba:	bf14      	ite	ne
 8004bbc:	2301      	movne	r3, #1
 8004bbe:	2300      	moveq	r3, #0
 8004bc0:	b2db      	uxtb	r3, r3
 8004bc2:	bf00      	nop
 8004bc4:	4618      	mov	r0, r3
 8004bc6:	370c      	adds	r7, #12
 8004bc8:	46bd      	mov	sp, r7
 8004bca:	f85d 7b04 	ldr.w	r7, [sp], #4
 8004bce:	4770      	bx	lr

08004bd0 <stm32__i2c__config_transfer>:
 8004bd0:	b580      	push	{r7, lr}
 8004bd2:	b086      	sub	sp, #24
 8004bd4:	af00      	add	r7, sp, #0
 8004bd6:	60f8      	str	r0, [r7, #12]
 8004bd8:	4608      	mov	r0, r1
 8004bda:	4611      	mov	r1, r2
 8004bdc:	461a      	mov	r2, r3
 8004bde:	4603      	mov	r3, r0
 8004be0:	817b      	strh	r3, [r7, #10]
 8004be2:	460b      	mov	r3, r1
 8004be4:	727b      	strb	r3, [r7, #9]
 8004be6:	4613      	mov	r3, r2
 8004be8:	723b      	strb	r3, [r7, #8]
 8004bea:	68fb      	ldr	r3, [r7, #12]
 8004bec:	685b      	ldr	r3, [r3, #4]
 8004bee:	3304      	adds	r3, #4
 8004bf0:	681b      	ldr	r3, [r3, #0]
 8004bf2:	607b      	str	r3, [r7, #4]
 8004bf4:	687b      	ldr	r3, [r7, #4]
 8004bf6:	617b      	str	r3, [r7, #20]
 8004bf8:	697b      	ldr	r3, [r7, #20]
 8004bfa:	897a      	ldrh	r2, [r7, #10]
 8004bfc:	f3c2 0209 	ubfx	r2, r2, #0, #10
 8004c00:	b292      	uxth	r2, r2
 8004c02:	f362 0309 	bfi	r3, r2, #0, #10
 8004c06:	617b      	str	r3, [r7, #20]
 8004c08:	697b      	ldr	r3, [r7, #20]
 8004c0a:	7a7a      	ldrb	r2, [r7, #9]
 8004c0c:	f362 4317 	bfi	r3, r2, #16, #8
 8004c10:	617b      	str	r3, [r7, #20]
 8004c12:	697b      	ldr	r3, [r7, #20]
 8004c14:	7a3a      	ldrb	r2, [r7, #8]
 8004c16:	2a00      	cmp	r2, #0
 8004c18:	bf0c      	ite	eq
 8004c1a:	2201      	moveq	r2, #1
 8004c1c:	2200      	movne	r2, #0
 8004c1e:	b2d2      	uxtb	r2, r2
 8004c20:	f002 0201 	and.w	r2, r2, #1
 8004c24:	b2d2      	uxtb	r2, r2
 8004c26:	f362 6318 	bfi	r3, r2, #24, #1
 8004c2a:	617b      	str	r3, [r7, #20]
 8004c2c:	697b      	ldr	r3, [r7, #20]
 8004c2e:	7a3a      	ldrb	r2, [r7, #8]
 8004c30:	2a01      	cmp	r2, #1
 8004c32:	bf0c      	ite	eq
 8004c34:	2201      	moveq	r2, #1
 8004c36:	2200      	movne	r2, #0
 8004c38:	b2d2      	uxtb	r2, r2
 8004c3a:	f002 0201 	and.w	r2, r2, #1
 8004c3e:	b2d2      	uxtb	r2, r2
 8004c40:	f362 6359 	bfi	r3, r2, #25, #1
 8004c44:	617b      	str	r3, [r7, #20]
 8004c46:	697b      	ldr	r3, [r7, #20]
 8004c48:	f36f 238a 	bfc	r3, #10, #1
 8004c4c:	617b      	str	r3, [r7, #20]
 8004c4e:	697b      	ldr	r3, [r7, #20]
 8004c50:	f36f 334d 	bfc	r3, #13, #1
 8004c54:	617b      	str	r3, [r7, #20]
 8004c56:	697b      	ldr	r3, [r7, #20]
 8004c58:	f36f 338e 	bfc	r3, #14, #1
 8004c5c:	617b      	str	r3, [r7, #20]
 8004c5e:	f897 3020 	ldrb.w	r3, [r7, #32]
 8004c62:	2b03      	cmp	r3, #3
 8004c64:	d903      	bls.n	8004c6e <stm32__i2c__config_transfer+0x9e>
 8004c66:	4815      	ldr	r0, [pc, #84]	; (8004cbc <stm32__i2c__config_transfer+0xec>)
 8004c68:	21b8      	movs	r1, #184	; 0xb8
 8004c6a:	f004 f9bd 	bl	8008fe8 <__gnat_rcheck_CE_Invalid_Data>
 8004c6e:	f897 3020 	ldrb.w	r3, [r7, #32]
 8004c72:	2b01      	cmp	r3, #1
 8004c74:	d006      	beq.n	8004c84 <stm32__i2c__config_transfer+0xb4>
 8004c76:	2b01      	cmp	r3, #1
 8004c78:	d302      	bcc.n	8004c80 <stm32__i2c__config_transfer+0xb0>
 8004c7a:	2b02      	cmp	r3, #2
 8004c7c:	d007      	beq.n	8004c8e <stm32__i2c__config_transfer+0xbe>
 8004c7e:	e00f      	b.n	8004ca0 <stm32__i2c__config_transfer+0xd0>
 8004c80:	bf00      	nop
 8004c82:	e011      	b.n	8004ca8 <stm32__i2c__config_transfer+0xd8>
 8004c84:	697b      	ldr	r3, [r7, #20]
 8004c86:	f443 4380 	orr.w	r3, r3, #16384	; 0x4000
 8004c8a:	617b      	str	r3, [r7, #20]
 8004c8c:	e00c      	b.n	8004ca8 <stm32__i2c__config_transfer+0xd8>
 8004c8e:	697b      	ldr	r3, [r7, #20]
 8004c90:	f443 6380 	orr.w	r3, r3, #1024	; 0x400
 8004c94:	617b      	str	r3, [r7, #20]
 8004c96:	697b      	ldr	r3, [r7, #20]
 8004c98:	f443 5300 	orr.w	r3, r3, #8192	; 0x2000
 8004c9c:	617b      	str	r3, [r7, #20]
 8004c9e:	e003      	b.n	8004ca8 <stm32__i2c__config_transfer+0xd8>
 8004ca0:	697b      	ldr	r3, [r7, #20]
 8004ca2:	f443 5300 	orr.w	r3, r3, #8192	; 0x2000
 8004ca6:	617b      	str	r3, [r7, #20]
 8004ca8:	bf00      	nop
 8004caa:	68fb      	ldr	r3, [r7, #12]
 8004cac:	685b      	ldr	r3, [r3, #4]
 8004cae:	3304      	adds	r3, #4
 8004cb0:	697a      	ldr	r2, [r7, #20]
 8004cb2:	601a      	str	r2, [r3, #0]
 8004cb4:	3718      	adds	r7, #24
 8004cb6:	46bd      	mov	sp, r7
 8004cb8:	bd80      	pop	{r7, pc}
 8004cba:	bf00      	nop
 8004cbc:	0800da68 	.word	0x0800da68

08004cc0 <stm32__i2c__reset_config>:
 8004cc0:	b480      	push	{r7}
 8004cc2:	b085      	sub	sp, #20
 8004cc4:	af00      	add	r7, sp, #0
 8004cc6:	6078      	str	r0, [r7, #4]
 8004cc8:	687b      	ldr	r3, [r7, #4]
 8004cca:	685b      	ldr	r3, [r3, #4]
 8004ccc:	3304      	adds	r3, #4
 8004cce:	681b      	ldr	r3, [r3, #0]
 8004cd0:	603b      	str	r3, [r7, #0]
 8004cd2:	683b      	ldr	r3, [r7, #0]
 8004cd4:	60fb      	str	r3, [r7, #12]
 8004cd6:	68fb      	ldr	r3, [r7, #12]
 8004cd8:	f36f 0309 	bfc	r3, #0, #10
 8004cdc:	60fb      	str	r3, [r7, #12]
 8004cde:	68fb      	ldr	r3, [r7, #12]
 8004ce0:	f36f 330c 	bfc	r3, #12, #1
 8004ce4:	60fb      	str	r3, [r7, #12]
 8004ce6:	68fb      	ldr	r3, [r7, #12]
 8004ce8:	f36f 4317 	bfc	r3, #16, #8
 8004cec:	60fb      	str	r3, [r7, #12]
 8004cee:	68fb      	ldr	r3, [r7, #12]
 8004cf0:	f36f 6318 	bfc	r3, #24, #1
 8004cf4:	60fb      	str	r3, [r7, #12]
 8004cf6:	68fb      	ldr	r3, [r7, #12]
 8004cf8:	f36f 238a 	bfc	r3, #10, #1
 8004cfc:	60fb      	str	r3, [r7, #12]
 8004cfe:	687b      	ldr	r3, [r7, #4]
 8004d00:	685b      	ldr	r3, [r3, #4]
 8004d02:	3304      	adds	r3, #4
 8004d04:	68fa      	ldr	r2, [r7, #12]
 8004d06:	601a      	str	r2, [r3, #0]
 8004d08:	3714      	adds	r7, #20
 8004d0a:	46bd      	mov	sp, r7
 8004d0c:	f85d 7b04 	ldr.w	r7, [sp], #4
 8004d10:	4770      	bx	lr
 8004d12:	bf00      	nop

08004d14 <stm32__i2c__check_nack>:
 8004d14:	b5f0      	push	{r4, r5, r6, r7, lr}
 8004d16:	b087      	sub	sp, #28
 8004d18:	af00      	add	r7, sp, #0
 8004d1a:	6078      	str	r0, [r7, #4]
 8004d1c:	6039      	str	r1, [r7, #0]
 8004d1e:	f002 fad5 	bl	80072cc <ada__real_time__clock>
 8004d22:	4603      	mov	r3, r0
 8004d24:	460c      	mov	r4, r1
 8004d26:	e9c7 3404 	strd	r3, r4, [r7, #16]
 8004d2a:	687b      	ldr	r3, [r7, #4]
 8004d2c:	685b      	ldr	r3, [r3, #4]
 8004d2e:	3318      	adds	r3, #24
 8004d30:	681b      	ldr	r3, [r3, #0]
 8004d32:	f3c3 1300 	ubfx	r3, r3, #4, #1
 8004d36:	b2db      	uxtb	r3, r3
 8004d38:	2b00      	cmp	r3, #0
 8004d3a:	d06f      	beq.n	8004e1c <stm32__i2c__check_nack+0x108>
 8004d3c:	687b      	ldr	r3, [r7, #4]
 8004d3e:	7d1b      	ldrb	r3, [r3, #20]
 8004d40:	2b02      	cmp	r3, #2
 8004d42:	d007      	beq.n	8004d54 <stm32__i2c__check_nack+0x40>
 8004d44:	687b      	ldr	r3, [r7, #4]
 8004d46:	7d1b      	ldrb	r3, [r3, #20]
 8004d48:	2b04      	cmp	r3, #4
 8004d4a:	d003      	beq.n	8004d54 <stm32__i2c__check_nack+0x40>
 8004d4c:	687b      	ldr	r3, [r7, #4]
 8004d4e:	7d1b      	ldrb	r3, [r3, #20]
 8004d50:	2b05      	cmp	r3, #5
 8004d52:	d117      	bne.n	8004d84 <stm32__i2c__check_nack+0x70>
 8004d54:	687b      	ldr	r3, [r7, #4]
 8004d56:	685b      	ldr	r3, [r3, #4]
 8004d58:	3304      	adds	r3, #4
 8004d5a:	681b      	ldr	r3, [r3, #0]
 8004d5c:	f3c3 6340 	ubfx	r3, r3, #25, #1
 8004d60:	b2db      	uxtb	r3, r3
 8004d62:	f083 0301 	eor.w	r3, r3, #1
 8004d66:	b2db      	uxtb	r3, r3
 8004d68:	2b00      	cmp	r3, #0
 8004d6a:	d00b      	beq.n	8004d84 <stm32__i2c__check_nack+0x70>
 8004d6c:	687b      	ldr	r3, [r7, #4]
 8004d6e:	685b      	ldr	r3, [r3, #4]
 8004d70:	3304      	adds	r3, #4
 8004d72:	681b      	ldr	r3, [r3, #0]
 8004d74:	461a      	mov	r2, r3
 8004d76:	4613      	mov	r3, r2
 8004d78:	f443 4280 	orr.w	r2, r3, #16384	; 0x4000
 8004d7c:	687b      	ldr	r3, [r7, #4]
 8004d7e:	685b      	ldr	r3, [r3, #4]
 8004d80:	3304      	adds	r3, #4
 8004d82:	601a      	str	r2, [r3, #0]
 8004d84:	687b      	ldr	r3, [r7, #4]
 8004d86:	685b      	ldr	r3, [r3, #4]
 8004d88:	3318      	adds	r3, #24
 8004d8a:	681b      	ldr	r3, [r3, #0]
 8004d8c:	f3c3 1340 	ubfx	r3, r3, #5, #1
 8004d90:	b2db      	uxtb	r3, r3
 8004d92:	f083 0301 	eor.w	r3, r3, #1
 8004d96:	b2db      	uxtb	r3, r3
 8004d98:	2b00      	cmp	r3, #0
 8004d9a:	d01e      	beq.n	8004dda <stm32__i2c__check_nack+0xc6>
 8004d9c:	683b      	ldr	r3, [r7, #0]
 8004d9e:	2b00      	cmp	r3, #0
 8004da0:	ddf0      	ble.n	8004d84 <stm32__i2c__check_nack+0x70>
 8004da2:	683b      	ldr	r3, [r7, #0]
 8004da4:	4618      	mov	r0, r3
 8004da6:	f002 fad9 	bl	800735c <ada__real_time__milliseconds>
 8004daa:	4603      	mov	r3, r0
 8004dac:	460c      	mov	r4, r1
 8004dae:	e9d7 0104 	ldrd	r0, r1, [r7, #16]
 8004db2:	461a      	mov	r2, r3
 8004db4:	4623      	mov	r3, r4
 8004db6:	f002 fa2f 	bl	8007218 <ada__real_time__Oadd>
 8004dba:	4605      	mov	r5, r0
 8004dbc:	460e      	mov	r6, r1
 8004dbe:	f002 fa85 	bl	80072cc <ada__real_time__clock>
 8004dc2:	4603      	mov	r3, r0
 8004dc4:	460c      	mov	r4, r1
 8004dc6:	42a6      	cmp	r6, r4
 8004dc8:	bf08      	it	eq
 8004dca:	429d      	cmpeq	r5, r3
 8004dcc:	d2da      	bcs.n	8004d84 <stm32__i2c__check_nack+0x70>
 8004dce:	687b      	ldr	r3, [r7, #4]
 8004dd0:	2201      	movs	r2, #1
 8004dd2:	751a      	strb	r2, [r3, #20]
 8004dd4:	2302      	movs	r3, #2
 8004dd6:	73fb      	strb	r3, [r7, #15]
 8004dd8:	e022      	b.n	8004e20 <stm32__i2c__check_nack+0x10c>
 8004dda:	687b      	ldr	r3, [r7, #4]
 8004ddc:	685b      	ldr	r3, [r3, #4]
 8004dde:	331c      	adds	r3, #28
 8004de0:	681b      	ldr	r3, [r3, #0]
 8004de2:	461a      	mov	r2, r3
 8004de4:	4613      	mov	r3, r2
 8004de6:	f043 0210 	orr.w	r2, r3, #16
 8004dea:	687b      	ldr	r3, [r7, #4]
 8004dec:	685b      	ldr	r3, [r3, #4]
 8004dee:	331c      	adds	r3, #28
 8004df0:	601a      	str	r2, [r3, #0]
 8004df2:	687b      	ldr	r3, [r7, #4]
 8004df4:	685b      	ldr	r3, [r3, #4]
 8004df6:	331c      	adds	r3, #28
 8004df8:	681b      	ldr	r3, [r3, #0]
 8004dfa:	461a      	mov	r2, r3
 8004dfc:	4613      	mov	r3, r2
 8004dfe:	f043 0220 	orr.w	r2, r3, #32
 8004e02:	687b      	ldr	r3, [r7, #4]
 8004e04:	685b      	ldr	r3, [r3, #4]
 8004e06:	331c      	adds	r3, #28
 8004e08:	601a      	str	r2, [r3, #0]
 8004e0a:	6878      	ldr	r0, [r7, #4]
 8004e0c:	f7ff ff58 	bl	8004cc0 <stm32__i2c__reset_config>
 8004e10:	687b      	ldr	r3, [r7, #4]
 8004e12:	2201      	movs	r2, #1
 8004e14:	751a      	strb	r2, [r3, #20]
 8004e16:	2301      	movs	r3, #1
 8004e18:	73fb      	strb	r3, [r7, #15]
 8004e1a:	e001      	b.n	8004e20 <stm32__i2c__check_nack+0x10c>
 8004e1c:	2300      	movs	r3, #0
 8004e1e:	73fb      	strb	r3, [r7, #15]
 8004e20:	7bfb      	ldrb	r3, [r7, #15]
 8004e22:	bf00      	nop
 8004e24:	4618      	mov	r0, r3
 8004e26:	371c      	adds	r7, #28
 8004e28:	46bd      	mov	sp, r7
 8004e2a:	bdf0      	pop	{r4, r5, r6, r7, pc}

08004e2c <stm32__i2c__wait_tx_interrupt_status>:
 8004e2c:	b5f0      	push	{r4, r5, r6, r7, lr}
 8004e2e:	b087      	sub	sp, #28
 8004e30:	af00      	add	r7, sp, #0
 8004e32:	6078      	str	r0, [r7, #4]
 8004e34:	6039      	str	r1, [r7, #0]
 8004e36:	f002 fa49 	bl	80072cc <ada__real_time__clock>
 8004e3a:	4603      	mov	r3, r0
 8004e3c:	460c      	mov	r4, r1
 8004e3e:	e9c7 3404 	strd	r3, r4, [r7, #16]
 8004e42:	687b      	ldr	r3, [r7, #4]
 8004e44:	685b      	ldr	r3, [r3, #4]
 8004e46:	3318      	adds	r3, #24
 8004e48:	681b      	ldr	r3, [r3, #0]
 8004e4a:	f3c3 0340 	ubfx	r3, r3, #1, #1
 8004e4e:	b2db      	uxtb	r3, r3
 8004e50:	f083 0301 	eor.w	r3, r3, #1
 8004e54:	b2db      	uxtb	r3, r3
 8004e56:	2b00      	cmp	r3, #0
 8004e58:	d030      	beq.n	8004ebc <stm32__i2c__wait_tx_interrupt_status+0x90>
 8004e5a:	6878      	ldr	r0, [r7, #4]
 8004e5c:	6839      	ldr	r1, [r7, #0]
 8004e5e:	f7ff ff59 	bl	8004d14 <stm32__i2c__check_nack>
 8004e62:	4603      	mov	r3, r0
 8004e64:	73fb      	strb	r3, [r7, #15]
 8004e66:	7bfb      	ldrb	r3, [r7, #15]
 8004e68:	2b00      	cmp	r3, #0
 8004e6a:	d005      	beq.n	8004e78 <stm32__i2c__wait_tx_interrupt_status+0x4c>
 8004e6c:	687b      	ldr	r3, [r7, #4]
 8004e6e:	2201      	movs	r2, #1
 8004e70:	751a      	strb	r2, [r3, #20]
 8004e72:	2301      	movs	r3, #1
 8004e74:	73fb      	strb	r3, [r7, #15]
 8004e76:	e023      	b.n	8004ec0 <stm32__i2c__wait_tx_interrupt_status+0x94>
 8004e78:	683b      	ldr	r3, [r7, #0]
 8004e7a:	2b00      	cmp	r3, #0
 8004e7c:	dde1      	ble.n	8004e42 <stm32__i2c__wait_tx_interrupt_status+0x16>
 8004e7e:	683b      	ldr	r3, [r7, #0]
 8004e80:	4618      	mov	r0, r3
 8004e82:	f002 fa6b 	bl	800735c <ada__real_time__milliseconds>
 8004e86:	4603      	mov	r3, r0
 8004e88:	460c      	mov	r4, r1
 8004e8a:	e9d7 0104 	ldrd	r0, r1, [r7, #16]
 8004e8e:	461a      	mov	r2, r3
 8004e90:	4623      	mov	r3, r4
 8004e92:	f002 f9c1 	bl	8007218 <ada__real_time__Oadd>
 8004e96:	4605      	mov	r5, r0
 8004e98:	460e      	mov	r6, r1
 8004e9a:	f002 fa17 	bl	80072cc <ada__real_time__clock>
 8004e9e:	4603      	mov	r3, r0
 8004ea0:	460c      	mov	r4, r1
 8004ea2:	42a6      	cmp	r6, r4
 8004ea4:	bf08      	it	eq
 8004ea6:	429d      	cmpeq	r5, r3
 8004ea8:	d2cb      	bcs.n	8004e42 <stm32__i2c__wait_tx_interrupt_status+0x16>
 8004eaa:	6878      	ldr	r0, [r7, #4]
 8004eac:	f7ff ff08 	bl	8004cc0 <stm32__i2c__reset_config>
 8004eb0:	687b      	ldr	r3, [r7, #4]
 8004eb2:	2201      	movs	r2, #1
 8004eb4:	751a      	strb	r2, [r3, #20]
 8004eb6:	2302      	movs	r3, #2
 8004eb8:	73fb      	strb	r3, [r7, #15]
 8004eba:	e001      	b.n	8004ec0 <stm32__i2c__wait_tx_interrupt_status+0x94>
 8004ebc:	2300      	movs	r3, #0
 8004ebe:	73fb      	strb	r3, [r7, #15]
 8004ec0:	7bfb      	ldrb	r3, [r7, #15]
 8004ec2:	bf00      	nop
 8004ec4:	4618      	mov	r0, r3
 8004ec6:	371c      	adds	r7, #28
 8004ec8:	46bd      	mov	sp, r7
 8004eca:	bdf0      	pop	{r4, r5, r6, r7, pc}

08004ecc <stm32__i2c__wait_transfer_complete_reset_flag>:
 8004ecc:	b5f0      	push	{r4, r5, r6, r7, lr}
 8004ece:	b087      	sub	sp, #28
 8004ed0:	af00      	add	r7, sp, #0
 8004ed2:	6078      	str	r0, [r7, #4]
 8004ed4:	6039      	str	r1, [r7, #0]
 8004ed6:	f002 f9f9 	bl	80072cc <ada__real_time__clock>
 8004eda:	4603      	mov	r3, r0
 8004edc:	460c      	mov	r4, r1
 8004ede:	e9c7 3404 	strd	r3, r4, [r7, #16]
 8004ee2:	687b      	ldr	r3, [r7, #4]
 8004ee4:	685b      	ldr	r3, [r3, #4]
 8004ee6:	3318      	adds	r3, #24
 8004ee8:	681b      	ldr	r3, [r3, #0]
 8004eea:	f3c3 13c0 	ubfx	r3, r3, #7, #1
 8004eee:	b2db      	uxtb	r3, r3
 8004ef0:	f083 0301 	eor.w	r3, r3, #1
 8004ef4:	b2db      	uxtb	r3, r3
 8004ef6:	2b00      	cmp	r3, #0
 8004ef8:	d021      	beq.n	8004f3e <stm32__i2c__wait_transfer_complete_reset_flag+0x72>
 8004efa:	683b      	ldr	r3, [r7, #0]
 8004efc:	2b00      	cmp	r3, #0
 8004efe:	ddf0      	ble.n	8004ee2 <stm32__i2c__wait_transfer_complete_reset_flag+0x16>
 8004f00:	683b      	ldr	r3, [r7, #0]
 8004f02:	4618      	mov	r0, r3
 8004f04:	f002 fa2a 	bl	800735c <ada__real_time__milliseconds>
 8004f08:	4603      	mov	r3, r0
 8004f0a:	460c      	mov	r4, r1
 8004f0c:	e9d7 0104 	ldrd	r0, r1, [r7, #16]
 8004f10:	461a      	mov	r2, r3
 8004f12:	4623      	mov	r3, r4
 8004f14:	f002 f980 	bl	8007218 <ada__real_time__Oadd>
 8004f18:	4605      	mov	r5, r0
 8004f1a:	460e      	mov	r6, r1
 8004f1c:	f002 f9d6 	bl	80072cc <ada__real_time__clock>
 8004f20:	4603      	mov	r3, r0
 8004f22:	460c      	mov	r4, r1
 8004f24:	42a6      	cmp	r6, r4
 8004f26:	bf08      	it	eq
 8004f28:	429d      	cmpeq	r5, r3
 8004f2a:	d2da      	bcs.n	8004ee2 <stm32__i2c__wait_transfer_complete_reset_flag+0x16>
 8004f2c:	6878      	ldr	r0, [r7, #4]
 8004f2e:	f7ff fec7 	bl	8004cc0 <stm32__i2c__reset_config>
 8004f32:	2302      	movs	r3, #2
 8004f34:	73fb      	strb	r3, [r7, #15]
 8004f36:	687b      	ldr	r3, [r7, #4]
 8004f38:	2201      	movs	r2, #1
 8004f3a:	751a      	strb	r2, [r3, #20]
 8004f3c:	e001      	b.n	8004f42 <stm32__i2c__wait_transfer_complete_reset_flag+0x76>
 8004f3e:	2300      	movs	r3, #0
 8004f40:	73fb      	strb	r3, [r7, #15]
 8004f42:	7bfb      	ldrb	r3, [r7, #15]
 8004f44:	bf00      	nop
 8004f46:	4618      	mov	r0, r3
 8004f48:	371c      	adds	r7, #28
 8004f4a:	46bd      	mov	sp, r7
 8004f4c:	bdf0      	pop	{r4, r5, r6, r7, pc}
 8004f4e:	bf00      	nop

08004f50 <stm32__i2c__wait_stop_flag>:
 8004f50:	b5f0      	push	{r4, r5, r6, r7, lr}
 8004f52:	b087      	sub	sp, #28
 8004f54:	af00      	add	r7, sp, #0
 8004f56:	6078      	str	r0, [r7, #4]
 8004f58:	6039      	str	r1, [r7, #0]
 8004f5a:	f002 f9b7 	bl	80072cc <ada__real_time__clock>
 8004f5e:	4603      	mov	r3, r0
 8004f60:	460c      	mov	r4, r1
 8004f62:	e9c7 3404 	strd	r3, r4, [r7, #16]
 8004f66:	687b      	ldr	r3, [r7, #4]
 8004f68:	685b      	ldr	r3, [r3, #4]
 8004f6a:	3318      	adds	r3, #24
 8004f6c:	681b      	ldr	r3, [r3, #0]
 8004f6e:	f3c3 1340 	ubfx	r3, r3, #5, #1
 8004f72:	b2db      	uxtb	r3, r3
 8004f74:	f083 0301 	eor.w	r3, r3, #1
 8004f78:	b2db      	uxtb	r3, r3
 8004f7a:	2b00      	cmp	r3, #0
 8004f7c:	d030      	beq.n	8004fe0 <stm32__i2c__wait_stop_flag+0x90>
 8004f7e:	6878      	ldr	r0, [r7, #4]
 8004f80:	6839      	ldr	r1, [r7, #0]
 8004f82:	f7ff fec7 	bl	8004d14 <stm32__i2c__check_nack>
 8004f86:	4603      	mov	r3, r0
 8004f88:	73fb      	strb	r3, [r7, #15]
 8004f8a:	7bfb      	ldrb	r3, [r7, #15]
 8004f8c:	2b00      	cmp	r3, #0
 8004f8e:	d005      	beq.n	8004f9c <stm32__i2c__wait_stop_flag+0x4c>
 8004f90:	687b      	ldr	r3, [r7, #4]
 8004f92:	2201      	movs	r2, #1
 8004f94:	751a      	strb	r2, [r3, #20]
 8004f96:	2301      	movs	r3, #1
 8004f98:	73fb      	strb	r3, [r7, #15]
 8004f9a:	e02f      	b.n	8004ffc <stm32__i2c__wait_stop_flag+0xac>
 8004f9c:	683b      	ldr	r3, [r7, #0]
 8004f9e:	2b00      	cmp	r3, #0
 8004fa0:	dde1      	ble.n	8004f66 <stm32__i2c__wait_stop_flag+0x16>
 8004fa2:	683b      	ldr	r3, [r7, #0]
 8004fa4:	4618      	mov	r0, r3
 8004fa6:	f002 f9d9 	bl	800735c <ada__real_time__milliseconds>
 8004faa:	4603      	mov	r3, r0
 8004fac:	460c      	mov	r4, r1
 8004fae:	e9d7 0104 	ldrd	r0, r1, [r7, #16]
 8004fb2:	461a      	mov	r2, r3
 8004fb4:	4623      	mov	r3, r4
 8004fb6:	f002 f92f 	bl	8007218 <ada__real_time__Oadd>
 8004fba:	4605      	mov	r5, r0
 8004fbc:	460e      	mov	r6, r1
 8004fbe:	f002 f985 	bl	80072cc <ada__real_time__clock>
 8004fc2:	4603      	mov	r3, r0
 8004fc4:	460c      	mov	r4, r1
 8004fc6:	42a6      	cmp	r6, r4
 8004fc8:	bf08      	it	eq
 8004fca:	429d      	cmpeq	r5, r3
 8004fcc:	d2cb      	bcs.n	8004f66 <stm32__i2c__wait_stop_flag+0x16>
 8004fce:	6878      	ldr	r0, [r7, #4]
 8004fd0:	f7ff fe76 	bl	8004cc0 <stm32__i2c__reset_config>
 8004fd4:	2302      	movs	r3, #2
 8004fd6:	73fb      	strb	r3, [r7, #15]
 8004fd8:	687b      	ldr	r3, [r7, #4]
 8004fda:	2201      	movs	r2, #1
 8004fdc:	751a      	strb	r2, [r3, #20]
 8004fde:	e00d      	b.n	8004ffc <stm32__i2c__wait_stop_flag+0xac>
 8004fe0:	687b      	ldr	r3, [r7, #4]
 8004fe2:	685b      	ldr	r3, [r3, #4]
 8004fe4:	331c      	adds	r3, #28
 8004fe6:	681b      	ldr	r3, [r3, #0]
 8004fe8:	461a      	mov	r2, r3
 8004fea:	4613      	mov	r3, r2
 8004fec:	f043 0220 	orr.w	r2, r3, #32
 8004ff0:	687b      	ldr	r3, [r7, #4]
 8004ff2:	685b      	ldr	r3, [r3, #4]
 8004ff4:	331c      	adds	r3, #28
 8004ff6:	601a      	str	r2, [r3, #0]
 8004ff8:	2300      	movs	r3, #0
 8004ffa:	73fb      	strb	r3, [r7, #15]
 8004ffc:	7bfb      	ldrb	r3, [r7, #15]
 8004ffe:	bf00      	nop
 8005000:	4618      	mov	r0, r3
 8005002:	371c      	adds	r7, #28
 8005004:	46bd      	mov	sp, r7
 8005006:	bdf0      	pop	{r4, r5, r6, r7, pc}

08005008 <stm32__i2c__master_transmit>:
 8005008:	e92d 4ff0 	stmdb	sp!, {r4, r5, r6, r7, r8, r9, sl, fp, lr}
 800500c:	b08b      	sub	sp, #44	; 0x2c
 800500e:	af02      	add	r7, sp, #8
 8005010:	60f8      	str	r0, [r7, #12]
 8005012:	e9c7 2300 	strd	r2, r3, [r7]
 8005016:	460b      	mov	r3, r1
 8005018:	817b      	strh	r3, [r7, #10]
 800501a:	687b      	ldr	r3, [r7, #4]
 800501c:	681c      	ldr	r4, [r3, #0]
 800501e:	687b      	ldr	r3, [r7, #4]
 8005020:	685d      	ldr	r5, [r3, #4]
 8005022:	42a5      	cmp	r5, r4
 8005024:	db0d      	blt.n	8005042 <stm32__i2c__master_transmit+0x3a>
 8005026:	4628      	mov	r0, r5
 8005028:	ea4f 71e0 	mov.w	r1, r0, asr #31
 800502c:	4622      	mov	r2, r4
 800502e:	ea4f 73e2 	mov.w	r3, r2, asr #31
 8005032:	1a82      	subs	r2, r0, r2
 8005034:	eb61 0303 	sbc.w	r3, r1, r3
 8005038:	f112 0801 	adds.w	r8, r2, #1
 800503c:	f143 0900 	adc.w	r9, r3, #0
 8005040:	e003      	b.n	800504a <stm32__i2c__master_transmit+0x42>
 8005042:	f04f 0800 	mov.w	r8, #0
 8005046:	f04f 0900 	mov.w	r9, #0
 800504a:	68f8      	ldr	r0, [r7, #12]
 800504c:	f7ff fdae 	bl	8004bac <stm32__i2c__is_configured>
 8005050:	4603      	mov	r3, r0
 8005052:	f083 0301 	eor.w	r3, r3, #1
 8005056:	b2db      	uxtb	r3, r3
 8005058:	2b00      	cmp	r3, #0
 800505a:	d007      	beq.n	800506c <stm32__i2c__master_transmit+0x64>
 800505c:	f8df a37c 	ldr.w	sl, [pc, #892]	; 80053dc <stm32__i2c__master_transmit+0x3d4>
 8005060:	f8df b37c 	ldr.w	fp, [pc, #892]	; 80053e0 <stm32__i2c__master_transmit+0x3d8>
 8005064:	4650      	mov	r0, sl
 8005066:	4659      	mov	r1, fp
 8005068:	f004 fce6 	bl	8009a38 <system__assertions__raise_assert_failure>
 800506c:	4626      	mov	r6, r4
 800506e:	2300      	movs	r3, #0
 8005070:	61fb      	str	r3, [r7, #28]
 8005072:	2300      	movs	r3, #0
 8005074:	61bb      	str	r3, [r7, #24]
 8005076:	68fb      	ldr	r3, [r7, #12]
 8005078:	685b      	ldr	r3, [r3, #4]
 800507a:	3318      	adds	r3, #24
 800507c:	681b      	ldr	r3, [r3, #0]
 800507e:	f3c3 33c0 	ubfx	r3, r3, #15, #1
 8005082:	b2db      	uxtb	r3, r3
 8005084:	2b00      	cmp	r3, #0
 8005086:	d002      	beq.n	800508e <stm32__i2c__master_transmit+0x86>
 8005088:	2303      	movs	r3, #3
 800508a:	75fb      	strb	r3, [r7, #23]
 800508c:	e19a      	b.n	80053c4 <stm32__i2c__master_transmit+0x3bc>
 800508e:	42ac      	cmp	r4, r5
 8005090:	dd02      	ble.n	8005098 <stm32__i2c__master_transmit+0x90>
 8005092:	2301      	movs	r3, #1
 8005094:	75fb      	strb	r3, [r7, #23]
 8005096:	e195      	b.n	80053c4 <stm32__i2c__master_transmit+0x3bc>
 8005098:	68fb      	ldr	r3, [r7, #12]
 800509a:	7d1b      	ldrb	r3, [r3, #20]
 800509c:	2b01      	cmp	r3, #1
 800509e:	d002      	beq.n	80050a6 <stm32__i2c__master_transmit+0x9e>
 80050a0:	2303      	movs	r3, #3
 80050a2:	75fb      	strb	r3, [r7, #23]
 80050a4:	e18e      	b.n	80053c4 <stm32__i2c__master_transmit+0x3bc>
 80050a6:	68fb      	ldr	r3, [r7, #12]
 80050a8:	2202      	movs	r2, #2
 80050aa:	751a      	strb	r2, [r3, #20]
 80050ac:	4622      	mov	r2, r4
 80050ae:	ea4f 73e2 	mov.w	r3, r2, asr #31
 80050b2:	f06f 00fe 	mvn.w	r0, #254	; 0xfe
 80050b6:	f06f 4100 	mvn.w	r1, #2147483648	; 0x80000000
 80050ba:	4290      	cmp	r0, r2
 80050bc:	eb71 0303 	sbcs.w	r3, r1, r3
 80050c0:	da04      	bge.n	80050cc <stm32__i2c__master_transmit+0xc4>
 80050c2:	48c4      	ldr	r0, [pc, #784]	; (80053d4 <stm32__i2c__master_transmit+0x3cc>)
 80050c4:	f44f 71c7 	mov.w	r1, #398	; 0x18e
 80050c8:	f003 ff96 	bl	8008ff8 <__gnat_rcheck_CE_Overflow_Check>
 80050cc:	4622      	mov	r2, r4
 80050ce:	ea4f 73e2 	mov.w	r3, r2, asr #31
 80050d2:	f112 00fe 	adds.w	r0, r2, #254	; 0xfe
 80050d6:	f143 0100 	adc.w	r1, r3, #0
 80050da:	462a      	mov	r2, r5
 80050dc:	ea4f 73e2 	mov.w	r3, r2, asr #31
 80050e0:	4290      	cmp	r0, r2
 80050e2:	eb71 0303 	sbcs.w	r3, r1, r3
 80050e6:	da0b      	bge.n	8005100 <stm32__i2c__master_transmit+0xf8>
 80050e8:	897a      	ldrh	r2, [r7, #10]
 80050ea:	2303      	movs	r3, #3
 80050ec:	9300      	str	r3, [sp, #0]
 80050ee:	68f8      	ldr	r0, [r7, #12]
 80050f0:	4611      	mov	r1, r2
 80050f2:	22ff      	movs	r2, #255	; 0xff
 80050f4:	2300      	movs	r3, #0
 80050f6:	f7ff fd6b 	bl	8004bd0 <stm32__i2c__config_transfer>
 80050fa:	23ff      	movs	r3, #255	; 0xff
 80050fc:	61fb      	str	r3, [r7, #28]
 80050fe:	e032      	b.n	8005166 <stm32__i2c__master_transmit+0x15e>
 8005100:	4622      	mov	r2, r4
 8005102:	ea4f 73e2 	mov.w	r3, r2, asr #31
 8005106:	f112 00fe 	adds.w	r0, r2, #254	; 0xfe
 800510a:	f143 0100 	adc.w	r1, r3, #0
 800510e:	462a      	mov	r2, r5
 8005110:	ea4f 73e2 	mov.w	r3, r2, asr #31
 8005114:	4290      	cmp	r0, r2
 8005116:	eb71 0303 	sbcs.w	r3, r1, r3
 800511a:	da04      	bge.n	8005126 <stm32__i2c__master_transmit+0x11e>
 800511c:	48ad      	ldr	r0, [pc, #692]	; (80053d4 <stm32__i2c__master_transmit+0x3cc>)
 800511e:	f44f 71ca 	mov.w	r1, #404	; 0x194
 8005122:	f003 ff71 	bl	8009008 <__gnat_rcheck_CE_Range_Check>
 8005126:	fa5f f288 	uxtb.w	r2, r8
 800512a:	8979      	ldrh	r1, [r7, #10]
 800512c:	2303      	movs	r3, #3
 800512e:	9300      	str	r3, [sp, #0]
 8005130:	68f8      	ldr	r0, [r7, #12]
 8005132:	2301      	movs	r3, #1
 8005134:	f7ff fd4c 	bl	8004bd0 <stm32__i2c__config_transfer>
 8005138:	4622      	mov	r2, r4
 800513a:	ea4f 73e2 	mov.w	r3, r2, asr #31
 800513e:	48a6      	ldr	r0, [pc, #664]	; (80053d8 <stm32__i2c__master_transmit+0x3d0>)
 8005140:	f04f 0100 	mov.w	r1, #0
 8005144:	1880      	adds	r0, r0, r2
 8005146:	eb41 0103 	adc.w	r1, r1, r3
 800514a:	462a      	mov	r2, r5
 800514c:	ea4f 73e2 	mov.w	r3, r2, asr #31
 8005150:	4290      	cmp	r0, r2
 8005152:	eb71 0303 	sbcs.w	r3, r1, r3
 8005156:	da04      	bge.n	8005162 <stm32__i2c__master_transmit+0x15a>
 8005158:	489e      	ldr	r0, [pc, #632]	; (80053d4 <stm32__i2c__master_transmit+0x3cc>)
 800515a:	f240 1195 	movw	r1, #405	; 0x195
 800515e:	f003 ff53 	bl	8009008 <__gnat_rcheck_CE_Range_Check>
 8005162:	4643      	mov	r3, r8
 8005164:	61fb      	str	r3, [r7, #28]
 8005166:	4622      	mov	r2, r4
 8005168:	ea4f 73e2 	mov.w	r3, r2, asr #31
 800516c:	489a      	ldr	r0, [pc, #616]	; (80053d8 <stm32__i2c__master_transmit+0x3d0>)
 800516e:	f04f 0100 	mov.w	r1, #0
 8005172:	1880      	adds	r0, r0, r2
 8005174:	eb41 0103 	adc.w	r1, r1, r3
 8005178:	462a      	mov	r2, r5
 800517a:	ea4f 73e2 	mov.w	r3, r2, asr #31
 800517e:	4290      	cmp	r0, r2
 8005180:	eb71 0303 	sbcs.w	r3, r1, r3
 8005184:	da04      	bge.n	8005190 <stm32__i2c__master_transmit+0x188>
 8005186:	4893      	ldr	r0, [pc, #588]	; (80053d4 <stm32__i2c__master_transmit+0x3cc>)
 8005188:	f240 1199 	movw	r1, #409	; 0x199
 800518c:	f003 ff3c 	bl	8009008 <__gnat_rcheck_CE_Range_Check>
 8005190:	69bb      	ldr	r3, [r7, #24]
 8005192:	4642      	mov	r2, r8
 8005194:	4293      	cmp	r3, r2
 8005196:	f280 80fe 	bge.w	8005396 <stm32__i2c__master_transmit+0x38e>
 800519a:	68f8      	ldr	r0, [r7, #12]
 800519c:	6cb9      	ldr	r1, [r7, #72]	; 0x48
 800519e:	f7ff fe45 	bl	8004e2c <stm32__i2c__wait_tx_interrupt_status>
 80051a2:	4603      	mov	r3, r0
 80051a4:	75fb      	strb	r3, [r7, #23]
 80051a6:	7dfb      	ldrb	r3, [r7, #23]
 80051a8:	2b00      	cmp	r3, #0
 80051aa:	f040 8106 	bne.w	80053ba <stm32__i2c__master_transmit+0x3b2>
 80051ae:	4622      	mov	r2, r4
 80051b0:	69bb      	ldr	r3, [r7, #24]
 80051b2:	4413      	add	r3, r2
 80051b4:	42a3      	cmp	r3, r4
 80051b6:	da04      	bge.n	80051c2 <stm32__i2c__master_transmit+0x1ba>
 80051b8:	4886      	ldr	r0, [pc, #536]	; (80053d4 <stm32__i2c__master_transmit+0x3cc>)
 80051ba:	f44f 71d0 	mov.w	r1, #416	; 0x1a0
 80051be:	f003 ff1b 	bl	8008ff8 <__gnat_rcheck_CE_Overflow_Check>
 80051c2:	69bb      	ldr	r3, [r7, #24]
 80051c4:	4423      	add	r3, r4
 80051c6:	429c      	cmp	r4, r3
 80051c8:	dc01      	bgt.n	80051ce <stm32__i2c__master_transmit+0x1c6>
 80051ca:	429d      	cmp	r5, r3
 80051cc:	da04      	bge.n	80051d8 <stm32__i2c__master_transmit+0x1d0>
 80051ce:	4881      	ldr	r0, [pc, #516]	; (80053d4 <stm32__i2c__master_transmit+0x3cc>)
 80051d0:	f44f 71d0 	mov.w	r1, #416	; 0x1a0
 80051d4:	f003 ff00 	bl	8008fd8 <__gnat_rcheck_CE_Index_Check>
 80051d8:	68fa      	ldr	r2, [r7, #12]
 80051da:	6852      	ldr	r2, [r2, #4]
 80051dc:	3228      	adds	r2, #40	; 0x28
 80051de:	6812      	ldr	r2, [r2, #0]
 80051e0:	6839      	ldr	r1, [r7, #0]
 80051e2:	1b9b      	subs	r3, r3, r6
 80051e4:	5ccb      	ldrb	r3, [r1, r3]
 80051e6:	f363 0207 	bfi	r2, r3, #0, #8
 80051ea:	68fb      	ldr	r3, [r7, #12]
 80051ec:	685b      	ldr	r3, [r3, #4]
 80051ee:	3328      	adds	r3, #40	; 0x28
 80051f0:	601a      	str	r2, [r3, #0]
 80051f2:	69bb      	ldr	r3, [r7, #24]
 80051f4:	f06f 4200 	mvn.w	r2, #2147483648	; 0x80000000
 80051f8:	4293      	cmp	r3, r2
 80051fa:	d104      	bne.n	8005206 <stm32__i2c__master_transmit+0x1fe>
 80051fc:	4875      	ldr	r0, [pc, #468]	; (80053d4 <stm32__i2c__master_transmit+0x3cc>)
 80051fe:	f240 11a1 	movw	r1, #417	; 0x1a1
 8005202:	f003 fef9 	bl	8008ff8 <__gnat_rcheck_CE_Overflow_Check>
 8005206:	69bb      	ldr	r3, [r7, #24]
 8005208:	3301      	adds	r3, #1
 800520a:	61bb      	str	r3, [r7, #24]
 800520c:	69ba      	ldr	r2, [r7, #24]
 800520e:	69fb      	ldr	r3, [r7, #28]
 8005210:	429a      	cmp	r2, r3
 8005212:	d1a8      	bne.n	8005166 <stm32__i2c__master_transmit+0x15e>
 8005214:	4622      	mov	r2, r4
 8005216:	ea4f 73e2 	mov.w	r3, r2, asr #31
 800521a:	486f      	ldr	r0, [pc, #444]	; (80053d8 <stm32__i2c__master_transmit+0x3d0>)
 800521c:	f04f 0100 	mov.w	r1, #0
 8005220:	1880      	adds	r0, r0, r2
 8005222:	eb41 0103 	adc.w	r1, r1, r3
 8005226:	462a      	mov	r2, r5
 8005228:	ea4f 73e2 	mov.w	r3, r2, asr #31
 800522c:	4290      	cmp	r0, r2
 800522e:	eb71 0303 	sbcs.w	r3, r1, r3
 8005232:	da04      	bge.n	800523e <stm32__i2c__master_transmit+0x236>
 8005234:	4867      	ldr	r0, [pc, #412]	; (80053d4 <stm32__i2c__master_transmit+0x3cc>)
 8005236:	f44f 71d2 	mov.w	r1, #420	; 0x1a4
 800523a:	f003 fee5 	bl	8009008 <__gnat_rcheck_CE_Range_Check>
 800523e:	69bb      	ldr	r3, [r7, #24]
 8005240:	4642      	mov	r2, r8
 8005242:	4293      	cmp	r3, r2
 8005244:	bfb4      	ite	lt
 8005246:	2301      	movlt	r3, #1
 8005248:	2300      	movge	r3, #0
 800524a:	b2db      	uxtb	r3, r3
 800524c:	2b00      	cmp	r3, #0
 800524e:	d08a      	beq.n	8005166 <stm32__i2c__master_transmit+0x15e>
 8005250:	68f8      	ldr	r0, [r7, #12]
 8005252:	6cb9      	ldr	r1, [r7, #72]	; 0x48
 8005254:	f7ff fe3a 	bl	8004ecc <stm32__i2c__wait_transfer_complete_reset_flag>
 8005258:	4603      	mov	r3, r0
 800525a:	75fb      	strb	r3, [r7, #23]
 800525c:	7dfb      	ldrb	r3, [r7, #23]
 800525e:	2b00      	cmp	r3, #0
 8005260:	f040 80ad 	bne.w	80053be <stm32__i2c__master_transmit+0x3b6>
 8005264:	4622      	mov	r2, r4
 8005266:	ea4f 73e2 	mov.w	r3, r2, asr #31
 800526a:	485b      	ldr	r0, [pc, #364]	; (80053d8 <stm32__i2c__master_transmit+0x3d0>)
 800526c:	f04f 0100 	mov.w	r1, #0
 8005270:	1880      	adds	r0, r0, r2
 8005272:	eb41 0103 	adc.w	r1, r1, r3
 8005276:	462a      	mov	r2, r5
 8005278:	ea4f 73e2 	mov.w	r3, r2, asr #31
 800527c:	4290      	cmp	r0, r2
 800527e:	eb71 0303 	sbcs.w	r3, r1, r3
 8005282:	da04      	bge.n	800528e <stm32__i2c__master_transmit+0x286>
 8005284:	4853      	ldr	r0, [pc, #332]	; (80053d4 <stm32__i2c__master_transmit+0x3cc>)
 8005286:	f44f 71d6 	mov.w	r1, #428	; 0x1ac
 800528a:	f003 febd 	bl	8009008 <__gnat_rcheck_CE_Range_Check>
 800528e:	4642      	mov	r2, r8
 8005290:	69bb      	ldr	r3, [r7, #24]
 8005292:	1ad3      	subs	r3, r2, r3
 8005294:	461a      	mov	r2, r3
 8005296:	4643      	mov	r3, r8
 8005298:	429a      	cmp	r2, r3
 800529a:	dd04      	ble.n	80052a6 <stm32__i2c__master_transmit+0x29e>
 800529c:	484d      	ldr	r0, [pc, #308]	; (80053d4 <stm32__i2c__master_transmit+0x3cc>)
 800529e:	f44f 71d6 	mov.w	r1, #428	; 0x1ac
 80052a2:	f003 fea9 	bl	8008ff8 <__gnat_rcheck_CE_Overflow_Check>
 80052a6:	4642      	mov	r2, r8
 80052a8:	69bb      	ldr	r3, [r7, #24]
 80052aa:	1ad3      	subs	r3, r2, r3
 80052ac:	2bff      	cmp	r3, #255	; 0xff
 80052ae:	bfcc      	ite	gt
 80052b0:	2301      	movgt	r3, #1
 80052b2:	2300      	movle	r3, #0
 80052b4:	b2db      	uxtb	r3, r3
 80052b6:	2b00      	cmp	r3, #0
 80052b8:	d00b      	beq.n	80052d2 <stm32__i2c__master_transmit+0x2ca>
 80052ba:	897a      	ldrh	r2, [r7, #10]
 80052bc:	2300      	movs	r3, #0
 80052be:	9300      	str	r3, [sp, #0]
 80052c0:	68f8      	ldr	r0, [r7, #12]
 80052c2:	4611      	mov	r1, r2
 80052c4:	22ff      	movs	r2, #255	; 0xff
 80052c6:	2300      	movs	r3, #0
 80052c8:	f7ff fc82 	bl	8004bd0 <stm32__i2c__config_transfer>
 80052cc:	23ff      	movs	r3, #255	; 0xff
 80052ce:	61fb      	str	r3, [r7, #28]
 80052d0:	e749      	b.n	8005166 <stm32__i2c__master_transmit+0x15e>
 80052d2:	4622      	mov	r2, r4
 80052d4:	ea4f 73e2 	mov.w	r3, r2, asr #31
 80052d8:	483f      	ldr	r0, [pc, #252]	; (80053d8 <stm32__i2c__master_transmit+0x3d0>)
 80052da:	f04f 0100 	mov.w	r1, #0
 80052de:	1880      	adds	r0, r0, r2
 80052e0:	eb41 0103 	adc.w	r1, r1, r3
 80052e4:	462a      	mov	r2, r5
 80052e6:	ea4f 73e2 	mov.w	r3, r2, asr #31
 80052ea:	4290      	cmp	r0, r2
 80052ec:	eb71 0303 	sbcs.w	r3, r1, r3
 80052f0:	da04      	bge.n	80052fc <stm32__i2c__master_transmit+0x2f4>
 80052f2:	4838      	ldr	r0, [pc, #224]	; (80053d4 <stm32__i2c__master_transmit+0x3cc>)
 80052f4:	f44f 71d9 	mov.w	r1, #434	; 0x1b2
 80052f8:	f003 fe86 	bl	8009008 <__gnat_rcheck_CE_Range_Check>
 80052fc:	4642      	mov	r2, r8
 80052fe:	69bb      	ldr	r3, [r7, #24]
 8005300:	1ad3      	subs	r3, r2, r3
 8005302:	461a      	mov	r2, r3
 8005304:	4643      	mov	r3, r8
 8005306:	429a      	cmp	r2, r3
 8005308:	dd04      	ble.n	8005314 <stm32__i2c__master_transmit+0x30c>
 800530a:	4832      	ldr	r0, [pc, #200]	; (80053d4 <stm32__i2c__master_transmit+0x3cc>)
 800530c:	f44f 71d9 	mov.w	r1, #434	; 0x1b2
 8005310:	f003 fe72 	bl	8008ff8 <__gnat_rcheck_CE_Overflow_Check>
 8005314:	4642      	mov	r2, r8
 8005316:	69bb      	ldr	r3, [r7, #24]
 8005318:	1ad3      	subs	r3, r2, r3
 800531a:	2b00      	cmp	r3, #0
 800531c:	db01      	blt.n	8005322 <stm32__i2c__master_transmit+0x31a>
 800531e:	2bff      	cmp	r3, #255	; 0xff
 8005320:	dd04      	ble.n	800532c <stm32__i2c__master_transmit+0x324>
 8005322:	482c      	ldr	r0, [pc, #176]	; (80053d4 <stm32__i2c__master_transmit+0x3cc>)
 8005324:	f44f 71d9 	mov.w	r1, #434	; 0x1b2
 8005328:	f003 fe6e 	bl	8009008 <__gnat_rcheck_CE_Range_Check>
 800532c:	b2da      	uxtb	r2, r3
 800532e:	8979      	ldrh	r1, [r7, #10]
 8005330:	2300      	movs	r3, #0
 8005332:	9300      	str	r3, [sp, #0]
 8005334:	68f8      	ldr	r0, [r7, #12]
 8005336:	2301      	movs	r3, #1
 8005338:	f7ff fc4a 	bl	8004bd0 <stm32__i2c__config_transfer>
 800533c:	4622      	mov	r2, r4
 800533e:	ea4f 73e2 	mov.w	r3, r2, asr #31
 8005342:	4825      	ldr	r0, [pc, #148]	; (80053d8 <stm32__i2c__master_transmit+0x3d0>)
 8005344:	f04f 0100 	mov.w	r1, #0
 8005348:	1880      	adds	r0, r0, r2
 800534a:	eb41 0103 	adc.w	r1, r1, r3
 800534e:	462a      	mov	r2, r5
 8005350:	ea4f 73e2 	mov.w	r3, r2, asr #31
 8005354:	4290      	cmp	r0, r2
 8005356:	eb71 0303 	sbcs.w	r3, r1, r3
 800535a:	da04      	bge.n	8005366 <stm32__i2c__master_transmit+0x35e>
 800535c:	481d      	ldr	r0, [pc, #116]	; (80053d4 <stm32__i2c__master_transmit+0x3cc>)
 800535e:	f44f 71da 	mov.w	r1, #436	; 0x1b4
 8005362:	f003 fe51 	bl	8009008 <__gnat_rcheck_CE_Range_Check>
 8005366:	4642      	mov	r2, r8
 8005368:	69bb      	ldr	r3, [r7, #24]
 800536a:	1ad3      	subs	r3, r2, r3
 800536c:	461a      	mov	r2, r3
 800536e:	4643      	mov	r3, r8
 8005370:	429a      	cmp	r2, r3
 8005372:	dd04      	ble.n	800537e <stm32__i2c__master_transmit+0x376>
 8005374:	4817      	ldr	r0, [pc, #92]	; (80053d4 <stm32__i2c__master_transmit+0x3cc>)
 8005376:	f44f 71da 	mov.w	r1, #436	; 0x1b4
 800537a:	f003 fe3d 	bl	8008ff8 <__gnat_rcheck_CE_Overflow_Check>
 800537e:	4642      	mov	r2, r8
 8005380:	69bb      	ldr	r3, [r7, #24]
 8005382:	1ad3      	subs	r3, r2, r3
 8005384:	2b00      	cmp	r3, #0
 8005386:	da04      	bge.n	8005392 <stm32__i2c__master_transmit+0x38a>
 8005388:	4812      	ldr	r0, [pc, #72]	; (80053d4 <stm32__i2c__master_transmit+0x3cc>)
 800538a:	f44f 71da 	mov.w	r1, #436	; 0x1b4
 800538e:	f003 fe3b 	bl	8009008 <__gnat_rcheck_CE_Range_Check>
 8005392:	61fb      	str	r3, [r7, #28]
 8005394:	e6e7      	b.n	8005166 <stm32__i2c__master_transmit+0x15e>
 8005396:	68f8      	ldr	r0, [r7, #12]
 8005398:	6cb9      	ldr	r1, [r7, #72]	; 0x48
 800539a:	f7ff fdd9 	bl	8004f50 <stm32__i2c__wait_stop_flag>
 800539e:	4603      	mov	r3, r0
 80053a0:	75fb      	strb	r3, [r7, #23]
 80053a2:	7dfb      	ldrb	r3, [r7, #23]
 80053a4:	2b00      	cmp	r3, #0
 80053a6:	d10c      	bne.n	80053c2 <stm32__i2c__master_transmit+0x3ba>
 80053a8:	68f8      	ldr	r0, [r7, #12]
 80053aa:	f7ff fc89 	bl	8004cc0 <stm32__i2c__reset_config>
 80053ae:	68fb      	ldr	r3, [r7, #12]
 80053b0:	2201      	movs	r2, #1
 80053b2:	751a      	strb	r2, [r3, #20]
 80053b4:	2300      	movs	r3, #0
 80053b6:	75fb      	strb	r3, [r7, #23]
 80053b8:	e004      	b.n	80053c4 <stm32__i2c__master_transmit+0x3bc>
 80053ba:	bf00      	nop
 80053bc:	e002      	b.n	80053c4 <stm32__i2c__master_transmit+0x3bc>
 80053be:	bf00      	nop
 80053c0:	e000      	b.n	80053c4 <stm32__i2c__master_transmit+0x3bc>
 80053c2:	bf00      	nop
 80053c4:	7dfb      	ldrb	r3, [r7, #23]
 80053c6:	bf00      	nop
 80053c8:	4618      	mov	r0, r3
 80053ca:	3724      	adds	r7, #36	; 0x24
 80053cc:	46bd      	mov	sp, r7
 80053ce:	e8bd 8ff0 	ldmia.w	sp!, {r4, r5, r6, r7, r8, r9, sl, fp, pc}
 80053d2:	bf00      	nop
 80053d4:	0800da68 	.word	0x0800da68
 80053d8:	7ffffffe 	.word	0x7ffffffe
 80053dc:	0800da78 	.word	0x0800da78
 80053e0:	0800da60 	.word	0x0800da60

080053e4 <stm32__i2c__master_receive>:
 80053e4:	b5b0      	push	{r4, r5, r7, lr}
 80053e6:	b08a      	sub	sp, #40	; 0x28
 80053e8:	af02      	add	r7, sp, #8
 80053ea:	60f8      	str	r0, [r7, #12]
 80053ec:	e9c7 2300 	strd	r2, r3, [r7]
 80053f0:	460b      	mov	r3, r1
 80053f2:	817b      	strh	r3, [r7, #10]
 80053f4:	68f8      	ldr	r0, [r7, #12]
 80053f6:	f7ff fbd9 	bl	8004bac <stm32__i2c__is_configured>
 80053fa:	4603      	mov	r3, r0
 80053fc:	f083 0301 	eor.w	r3, r3, #1
 8005400:	b2db      	uxtb	r3, r3
 8005402:	2b00      	cmp	r3, #0
 8005404:	d005      	beq.n	8005412 <stm32__i2c__master_receive+0x2e>
 8005406:	4ca8      	ldr	r4, [pc, #672]	; (80056a8 <stm32__i2c__master_receive+0x2c4>)
 8005408:	4da8      	ldr	r5, [pc, #672]	; (80056ac <stm32__i2c__master_receive+0x2c8>)
 800540a:	4620      	mov	r0, r4
 800540c:	4629      	mov	r1, r5
 800540e:	f004 fb13 	bl	8009a38 <system__assertions__raise_assert_failure>
 8005412:	687b      	ldr	r3, [r7, #4]
 8005414:	681b      	ldr	r3, [r3, #0]
 8005416:	461d      	mov	r5, r3
 8005418:	2300      	movs	r3, #0
 800541a:	61fb      	str	r3, [r7, #28]
 800541c:	2300      	movs	r3, #0
 800541e:	61bb      	str	r3, [r7, #24]
 8005420:	68fb      	ldr	r3, [r7, #12]
 8005422:	685b      	ldr	r3, [r3, #4]
 8005424:	3318      	adds	r3, #24
 8005426:	681b      	ldr	r3, [r3, #0]
 8005428:	f3c3 33c0 	ubfx	r3, r3, #15, #1
 800542c:	b2db      	uxtb	r3, r3
 800542e:	2b00      	cmp	r3, #0
 8005430:	d002      	beq.n	8005438 <stm32__i2c__master_receive+0x54>
 8005432:	2303      	movs	r3, #3
 8005434:	75fb      	strb	r3, [r7, #23]
 8005436:	e286      	b.n	8005946 <stm32__i2c__master_receive+0x562>
 8005438:	68fb      	ldr	r3, [r7, #12]
 800543a:	7d1b      	ldrb	r3, [r3, #20]
 800543c:	2b01      	cmp	r3, #1
 800543e:	d002      	beq.n	8005446 <stm32__i2c__master_receive+0x62>
 8005440:	2303      	movs	r3, #3
 8005442:	75fb      	strb	r3, [r7, #23]
 8005444:	e27f      	b.n	8005946 <stm32__i2c__master_receive+0x562>
 8005446:	68fb      	ldr	r3, [r7, #12]
 8005448:	2203      	movs	r2, #3
 800544a:	751a      	strb	r2, [r3, #20]
 800544c:	687b      	ldr	r3, [r7, #4]
 800544e:	681a      	ldr	r2, [r3, #0]
 8005450:	687b      	ldr	r3, [r7, #4]
 8005452:	685b      	ldr	r3, [r3, #4]
 8005454:	429a      	cmp	r2, r3
 8005456:	dd02      	ble.n	800545e <stm32__i2c__master_receive+0x7a>
 8005458:	2301      	movs	r3, #1
 800545a:	75fb      	strb	r3, [r7, #23]
 800545c:	e273      	b.n	8005946 <stm32__i2c__master_receive+0x562>
 800545e:	687b      	ldr	r3, [r7, #4]
 8005460:	681b      	ldr	r3, [r3, #0]
 8005462:	ea4f 74e3 	mov.w	r4, r3, asr #31
 8005466:	f06f 01fe 	mvn.w	r1, #254	; 0xfe
 800546a:	f06f 4200 	mvn.w	r2, #2147483648	; 0x80000000
 800546e:	4299      	cmp	r1, r3
 8005470:	eb72 0304 	sbcs.w	r3, r2, r4
 8005474:	da04      	bge.n	8005480 <stm32__i2c__master_receive+0x9c>
 8005476:	488e      	ldr	r0, [pc, #568]	; (80056b0 <stm32__i2c__master_receive+0x2cc>)
 8005478:	f240 11e5 	movw	r1, #485	; 0x1e5
 800547c:	f003 fdbc 	bl	8008ff8 <__gnat_rcheck_CE_Overflow_Check>
 8005480:	687b      	ldr	r3, [r7, #4]
 8005482:	681b      	ldr	r3, [r3, #0]
 8005484:	ea4f 74e3 	mov.w	r4, r3, asr #31
 8005488:	f113 01fe 	adds.w	r1, r3, #254	; 0xfe
 800548c:	f144 0200 	adc.w	r2, r4, #0
 8005490:	687b      	ldr	r3, [r7, #4]
 8005492:	685b      	ldr	r3, [r3, #4]
 8005494:	ea4f 74e3 	mov.w	r4, r3, asr #31
 8005498:	4299      	cmp	r1, r3
 800549a:	eb72 0304 	sbcs.w	r3, r2, r4
 800549e:	da0b      	bge.n	80054b8 <stm32__i2c__master_receive+0xd4>
 80054a0:	897a      	ldrh	r2, [r7, #10]
 80054a2:	2302      	movs	r3, #2
 80054a4:	9300      	str	r3, [sp, #0]
 80054a6:	68f8      	ldr	r0, [r7, #12]
 80054a8:	4611      	mov	r1, r2
 80054aa:	22ff      	movs	r2, #255	; 0xff
 80054ac:	2300      	movs	r3, #0
 80054ae:	f7ff fb8f 	bl	8004bd0 <stm32__i2c__config_transfer>
 80054b2:	23ff      	movs	r3, #255	; 0xff
 80054b4:	61fb      	str	r3, [r7, #28]
 80054b6:	e055      	b.n	8005564 <stm32__i2c__master_receive+0x180>
 80054b8:	687b      	ldr	r3, [r7, #4]
 80054ba:	681b      	ldr	r3, [r3, #0]
 80054bc:	ea4f 74e3 	mov.w	r4, r3, asr #31
 80054c0:	f113 01fe 	adds.w	r1, r3, #254	; 0xfe
 80054c4:	f144 0200 	adc.w	r2, r4, #0
 80054c8:	687b      	ldr	r3, [r7, #4]
 80054ca:	685b      	ldr	r3, [r3, #4]
 80054cc:	ea4f 74e3 	mov.w	r4, r3, asr #31
 80054d0:	4299      	cmp	r1, r3
 80054d2:	eb72 0304 	sbcs.w	r3, r2, r4
 80054d6:	da04      	bge.n	80054e2 <stm32__i2c__master_receive+0xfe>
 80054d8:	4875      	ldr	r0, [pc, #468]	; (80056b0 <stm32__i2c__master_receive+0x2cc>)
 80054da:	f240 11eb 	movw	r1, #491	; 0x1eb
 80054de:	f003 fd93 	bl	8009008 <__gnat_rcheck_CE_Range_Check>
 80054e2:	687b      	ldr	r3, [r7, #4]
 80054e4:	685a      	ldr	r2, [r3, #4]
 80054e6:	687b      	ldr	r3, [r7, #4]
 80054e8:	681b      	ldr	r3, [r3, #0]
 80054ea:	429a      	cmp	r2, r3
 80054ec:	db0a      	blt.n	8005504 <stm32__i2c__master_receive+0x120>
 80054ee:	687b      	ldr	r3, [r7, #4]
 80054f0:	685b      	ldr	r3, [r3, #4]
 80054f2:	b2da      	uxtb	r2, r3
 80054f4:	687b      	ldr	r3, [r7, #4]
 80054f6:	681b      	ldr	r3, [r3, #0]
 80054f8:	b2db      	uxtb	r3, r3
 80054fa:	1ad3      	subs	r3, r2, r3
 80054fc:	b2db      	uxtb	r3, r3
 80054fe:	3301      	adds	r3, #1
 8005500:	b2db      	uxtb	r3, r3
 8005502:	e000      	b.n	8005506 <stm32__i2c__master_receive+0x122>
 8005504:	2300      	movs	r3, #0
 8005506:	8979      	ldrh	r1, [r7, #10]
 8005508:	2202      	movs	r2, #2
 800550a:	9200      	str	r2, [sp, #0]
 800550c:	68f8      	ldr	r0, [r7, #12]
 800550e:	461a      	mov	r2, r3
 8005510:	2301      	movs	r3, #1
 8005512:	f7ff fb5d 	bl	8004bd0 <stm32__i2c__config_transfer>
 8005516:	687b      	ldr	r3, [r7, #4]
 8005518:	681b      	ldr	r3, [r3, #0]
 800551a:	ea4f 74e3 	mov.w	r4, r3, asr #31
 800551e:	4965      	ldr	r1, [pc, #404]	; (80056b4 <stm32__i2c__master_receive+0x2d0>)
 8005520:	f04f 0200 	mov.w	r2, #0
 8005524:	18c9      	adds	r1, r1, r3
 8005526:	eb42 0204 	adc.w	r2, r2, r4
 800552a:	687b      	ldr	r3, [r7, #4]
 800552c:	685b      	ldr	r3, [r3, #4]
 800552e:	ea4f 74e3 	mov.w	r4, r3, asr #31
 8005532:	4299      	cmp	r1, r3
 8005534:	eb72 0304 	sbcs.w	r3, r2, r4
 8005538:	da04      	bge.n	8005544 <stm32__i2c__master_receive+0x160>
 800553a:	485d      	ldr	r0, [pc, #372]	; (80056b0 <stm32__i2c__master_receive+0x2cc>)
 800553c:	f44f 71f6 	mov.w	r1, #492	; 0x1ec
 8005540:	f003 fd62 	bl	8009008 <__gnat_rcheck_CE_Range_Check>
 8005544:	687b      	ldr	r3, [r7, #4]
 8005546:	685a      	ldr	r2, [r3, #4]
 8005548:	687b      	ldr	r3, [r7, #4]
 800554a:	681b      	ldr	r3, [r3, #0]
 800554c:	429a      	cmp	r2, r3
 800554e:	db07      	blt.n	8005560 <stm32__i2c__master_receive+0x17c>
 8005550:	687b      	ldr	r3, [r7, #4]
 8005552:	685b      	ldr	r3, [r3, #4]
 8005554:	461a      	mov	r2, r3
 8005556:	687b      	ldr	r3, [r7, #4]
 8005558:	681b      	ldr	r3, [r3, #0]
 800555a:	1ad3      	subs	r3, r2, r3
 800555c:	3301      	adds	r3, #1
 800555e:	e000      	b.n	8005562 <stm32__i2c__master_receive+0x17e>
 8005560:	2300      	movs	r3, #0
 8005562:	61fb      	str	r3, [r7, #28]
 8005564:	687b      	ldr	r3, [r7, #4]
 8005566:	681b      	ldr	r3, [r3, #0]
 8005568:	ea4f 74e3 	mov.w	r4, r3, asr #31
 800556c:	4951      	ldr	r1, [pc, #324]	; (80056b4 <stm32__i2c__master_receive+0x2d0>)
 800556e:	f04f 0200 	mov.w	r2, #0
 8005572:	18c9      	adds	r1, r1, r3
 8005574:	eb42 0204 	adc.w	r2, r2, r4
 8005578:	687b      	ldr	r3, [r7, #4]
 800557a:	685b      	ldr	r3, [r3, #4]
 800557c:	ea4f 74e3 	mov.w	r4, r3, asr #31
 8005580:	4299      	cmp	r1, r3
 8005582:	eb72 0304 	sbcs.w	r3, r2, r4
 8005586:	da04      	bge.n	8005592 <stm32__i2c__master_receive+0x1ae>
 8005588:	4849      	ldr	r0, [pc, #292]	; (80056b0 <stm32__i2c__master_receive+0x2cc>)
 800558a:	f44f 71f8 	mov.w	r1, #496	; 0x1f0
 800558e:	f003 fd3b 	bl	8009008 <__gnat_rcheck_CE_Range_Check>
 8005592:	69bb      	ldr	r3, [r7, #24]
 8005594:	687a      	ldr	r2, [r7, #4]
 8005596:	6851      	ldr	r1, [r2, #4]
 8005598:	687a      	ldr	r2, [r7, #4]
 800559a:	6812      	ldr	r2, [r2, #0]
 800559c:	4291      	cmp	r1, r2
 800559e:	db07      	blt.n	80055b0 <stm32__i2c__master_receive+0x1cc>
 80055a0:	687a      	ldr	r2, [r7, #4]
 80055a2:	6852      	ldr	r2, [r2, #4]
 80055a4:	4611      	mov	r1, r2
 80055a6:	687a      	ldr	r2, [r7, #4]
 80055a8:	6812      	ldr	r2, [r2, #0]
 80055aa:	1a8a      	subs	r2, r1, r2
 80055ac:	3201      	adds	r2, #1
 80055ae:	e000      	b.n	80055b2 <stm32__i2c__master_receive+0x1ce>
 80055b0:	2200      	movs	r2, #0
 80055b2:	4293      	cmp	r3, r2
 80055b4:	f280 81b4 	bge.w	8005920 <stm32__i2c__master_receive+0x53c>
 80055b8:	68fb      	ldr	r3, [r7, #12]
 80055ba:	685b      	ldr	r3, [r3, #4]
 80055bc:	3318      	adds	r3, #24
 80055be:	681b      	ldr	r3, [r3, #0]
 80055c0:	f3c3 0380 	ubfx	r3, r3, #2, #1
 80055c4:	b2db      	uxtb	r3, r3
 80055c6:	f083 0301 	eor.w	r3, r3, #1
 80055ca:	b2db      	uxtb	r3, r3
 80055cc:	2b00      	cmp	r3, #0
 80055ce:	d001      	beq.n	80055d4 <stm32__i2c__master_receive+0x1f0>
 80055d0:	bf00      	nop
 80055d2:	e7f1      	b.n	80055b8 <stm32__i2c__master_receive+0x1d4>
 80055d4:	687b      	ldr	r3, [r7, #4]
 80055d6:	681b      	ldr	r3, [r3, #0]
 80055d8:	461a      	mov	r2, r3
 80055da:	69bb      	ldr	r3, [r7, #24]
 80055dc:	4413      	add	r3, r2
 80055de:	461a      	mov	r2, r3
 80055e0:	687b      	ldr	r3, [r7, #4]
 80055e2:	681b      	ldr	r3, [r3, #0]
 80055e4:	429a      	cmp	r2, r3
 80055e6:	da04      	bge.n	80055f2 <stm32__i2c__master_receive+0x20e>
 80055e8:	4831      	ldr	r0, [pc, #196]	; (80056b0 <stm32__i2c__master_receive+0x2cc>)
 80055ea:	f240 11f5 	movw	r1, #501	; 0x1f5
 80055ee:	f003 fd03 	bl	8008ff8 <__gnat_rcheck_CE_Overflow_Check>
 80055f2:	687b      	ldr	r3, [r7, #4]
 80055f4:	681a      	ldr	r2, [r3, #0]
 80055f6:	69bb      	ldr	r3, [r7, #24]
 80055f8:	4413      	add	r3, r2
 80055fa:	687a      	ldr	r2, [r7, #4]
 80055fc:	6812      	ldr	r2, [r2, #0]
 80055fe:	429a      	cmp	r2, r3
 8005600:	dc03      	bgt.n	800560a <stm32__i2c__master_receive+0x226>
 8005602:	687a      	ldr	r2, [r7, #4]
 8005604:	6852      	ldr	r2, [r2, #4]
 8005606:	429a      	cmp	r2, r3
 8005608:	da04      	bge.n	8005614 <stm32__i2c__master_receive+0x230>
 800560a:	4829      	ldr	r0, [pc, #164]	; (80056b0 <stm32__i2c__master_receive+0x2cc>)
 800560c:	f240 11f5 	movw	r1, #501	; 0x1f5
 8005610:	f003 fce2 	bl	8008fd8 <__gnat_rcheck_CE_Index_Check>
 8005614:	683a      	ldr	r2, [r7, #0]
 8005616:	4618      	mov	r0, r3
 8005618:	68fb      	ldr	r3, [r7, #12]
 800561a:	685b      	ldr	r3, [r3, #4]
 800561c:	3324      	adds	r3, #36	; 0x24
 800561e:	681b      	ldr	r3, [r3, #0]
 8005620:	b2d9      	uxtb	r1, r3
 8005622:	1b43      	subs	r3, r0, r5
 8005624:	54d1      	strb	r1, [r2, r3]
 8005626:	69bb      	ldr	r3, [r7, #24]
 8005628:	f06f 4200 	mvn.w	r2, #2147483648	; 0x80000000
 800562c:	4293      	cmp	r3, r2
 800562e:	d104      	bne.n	800563a <stm32__i2c__master_receive+0x256>
 8005630:	481f      	ldr	r0, [pc, #124]	; (80056b0 <stm32__i2c__master_receive+0x2cc>)
 8005632:	f44f 71fb 	mov.w	r1, #502	; 0x1f6
 8005636:	f003 fcdf 	bl	8008ff8 <__gnat_rcheck_CE_Overflow_Check>
 800563a:	69bb      	ldr	r3, [r7, #24]
 800563c:	3301      	adds	r3, #1
 800563e:	61bb      	str	r3, [r7, #24]
 8005640:	69fb      	ldr	r3, [r7, #28]
 8005642:	3b01      	subs	r3, #1
 8005644:	2b00      	cmp	r3, #0
 8005646:	da04      	bge.n	8005652 <stm32__i2c__master_receive+0x26e>
 8005648:	4819      	ldr	r0, [pc, #100]	; (80056b0 <stm32__i2c__master_receive+0x2cc>)
 800564a:	f240 11f7 	movw	r1, #503	; 0x1f7
 800564e:	f003 fcdb 	bl	8009008 <__gnat_rcheck_CE_Range_Check>
 8005652:	61fb      	str	r3, [r7, #28]
 8005654:	69fb      	ldr	r3, [r7, #28]
 8005656:	2b00      	cmp	r3, #0
 8005658:	d184      	bne.n	8005564 <stm32__i2c__master_receive+0x180>
 800565a:	687b      	ldr	r3, [r7, #4]
 800565c:	681b      	ldr	r3, [r3, #0]
 800565e:	ea4f 74e3 	mov.w	r4, r3, asr #31
 8005662:	4914      	ldr	r1, [pc, #80]	; (80056b4 <stm32__i2c__master_receive+0x2d0>)
 8005664:	f04f 0200 	mov.w	r2, #0
 8005668:	18c9      	adds	r1, r1, r3
 800566a:	eb42 0204 	adc.w	r2, r2, r4
 800566e:	687b      	ldr	r3, [r7, #4]
 8005670:	685b      	ldr	r3, [r3, #4]
 8005672:	ea4f 74e3 	mov.w	r4, r3, asr #31
 8005676:	4299      	cmp	r1, r3
 8005678:	eb72 0304 	sbcs.w	r3, r2, r4
 800567c:	da04      	bge.n	8005688 <stm32__i2c__master_receive+0x2a4>
 800567e:	480c      	ldr	r0, [pc, #48]	; (80056b0 <stm32__i2c__master_receive+0x2cc>)
 8005680:	f44f 71fd 	mov.w	r1, #506	; 0x1fa
 8005684:	f003 fcc0 	bl	8009008 <__gnat_rcheck_CE_Range_Check>
 8005688:	69bb      	ldr	r3, [r7, #24]
 800568a:	687a      	ldr	r2, [r7, #4]
 800568c:	6851      	ldr	r1, [r2, #4]
 800568e:	687a      	ldr	r2, [r7, #4]
 8005690:	6812      	ldr	r2, [r2, #0]
 8005692:	4291      	cmp	r1, r2
 8005694:	db10      	blt.n	80056b8 <stm32__i2c__master_receive+0x2d4>
 8005696:	687a      	ldr	r2, [r7, #4]
 8005698:	6852      	ldr	r2, [r2, #4]
 800569a:	4611      	mov	r1, r2
 800569c:	687a      	ldr	r2, [r7, #4]
 800569e:	6812      	ldr	r2, [r2, #0]
 80056a0:	1a8a      	subs	r2, r1, r2
 80056a2:	3201      	adds	r2, #1
 80056a4:	e009      	b.n	80056ba <stm32__i2c__master_receive+0x2d6>
 80056a6:	bf00      	nop
 80056a8:	0800daa4 	.word	0x0800daa4
 80056ac:	0800da60 	.word	0x0800da60
 80056b0:	0800da68 	.word	0x0800da68
 80056b4:	7ffffffe 	.word	0x7ffffffe
 80056b8:	2200      	movs	r2, #0
 80056ba:	4293      	cmp	r3, r2
 80056bc:	bfb4      	ite	lt
 80056be:	2301      	movlt	r3, #1
 80056c0:	2300      	movge	r3, #0
 80056c2:	b2db      	uxtb	r3, r3
 80056c4:	2b00      	cmp	r3, #0
 80056c6:	f43f af4d 	beq.w	8005564 <stm32__i2c__master_receive+0x180>
 80056ca:	68fb      	ldr	r3, [r7, #12]
 80056cc:	685b      	ldr	r3, [r3, #4]
 80056ce:	3318      	adds	r3, #24
 80056d0:	681b      	ldr	r3, [r3, #0]
 80056d2:	f3c3 13c0 	ubfx	r3, r3, #7, #1
 80056d6:	b2db      	uxtb	r3, r3
 80056d8:	2b00      	cmp	r3, #0
 80056da:	d001      	beq.n	80056e0 <stm32__i2c__master_receive+0x2fc>
 80056dc:	bf00      	nop
 80056de:	e7f4      	b.n	80056ca <stm32__i2c__master_receive+0x2e6>
 80056e0:	687b      	ldr	r3, [r7, #4]
 80056e2:	681b      	ldr	r3, [r3, #0]
 80056e4:	ea4f 74e3 	mov.w	r4, r3, asr #31
 80056e8:	499a      	ldr	r1, [pc, #616]	; (8005954 <stm32__i2c__master_receive+0x570>)
 80056ea:	f04f 0200 	mov.w	r2, #0
 80056ee:	18c9      	adds	r1, r1, r3
 80056f0:	eb42 0204 	adc.w	r2, r2, r4
 80056f4:	687b      	ldr	r3, [r7, #4]
 80056f6:	685b      	ldr	r3, [r3, #4]
 80056f8:	ea4f 74e3 	mov.w	r4, r3, asr #31
 80056fc:	4299      	cmp	r1, r3
 80056fe:	eb72 0304 	sbcs.w	r3, r2, r4
 8005702:	da04      	bge.n	800570e <stm32__i2c__master_receive+0x32a>
 8005704:	4894      	ldr	r0, [pc, #592]	; (8005958 <stm32__i2c__master_receive+0x574>)
 8005706:	f240 2101 	movw	r1, #513	; 0x201
 800570a:	f003 fc7d 	bl	8009008 <__gnat_rcheck_CE_Range_Check>
 800570e:	687b      	ldr	r3, [r7, #4]
 8005710:	685a      	ldr	r2, [r3, #4]
 8005712:	687b      	ldr	r3, [r7, #4]
 8005714:	681b      	ldr	r3, [r3, #0]
 8005716:	429a      	cmp	r2, r3
 8005718:	db07      	blt.n	800572a <stm32__i2c__master_receive+0x346>
 800571a:	687b      	ldr	r3, [r7, #4]
 800571c:	685b      	ldr	r3, [r3, #4]
 800571e:	461a      	mov	r2, r3
 8005720:	687b      	ldr	r3, [r7, #4]
 8005722:	681b      	ldr	r3, [r3, #0]
 8005724:	1ad3      	subs	r3, r2, r3
 8005726:	3301      	adds	r3, #1
 8005728:	e000      	b.n	800572c <stm32__i2c__master_receive+0x348>
 800572a:	2300      	movs	r3, #0
 800572c:	69ba      	ldr	r2, [r7, #24]
 800572e:	1a9b      	subs	r3, r3, r2
 8005730:	4619      	mov	r1, r3
 8005732:	687b      	ldr	r3, [r7, #4]
 8005734:	685a      	ldr	r2, [r3, #4]
 8005736:	687b      	ldr	r3, [r7, #4]
 8005738:	681b      	ldr	r3, [r3, #0]
 800573a:	429a      	cmp	r2, r3
 800573c:	db07      	blt.n	800574e <stm32__i2c__master_receive+0x36a>
 800573e:	687b      	ldr	r3, [r7, #4]
 8005740:	685b      	ldr	r3, [r3, #4]
 8005742:	461a      	mov	r2, r3
 8005744:	687b      	ldr	r3, [r7, #4]
 8005746:	681b      	ldr	r3, [r3, #0]
 8005748:	1ad3      	subs	r3, r2, r3
 800574a:	3301      	adds	r3, #1
 800574c:	e000      	b.n	8005750 <stm32__i2c__master_receive+0x36c>
 800574e:	2300      	movs	r3, #0
 8005750:	4299      	cmp	r1, r3
 8005752:	dd04      	ble.n	800575e <stm32__i2c__master_receive+0x37a>
 8005754:	4880      	ldr	r0, [pc, #512]	; (8005958 <stm32__i2c__master_receive+0x574>)
 8005756:	f240 2101 	movw	r1, #513	; 0x201
 800575a:	f003 fc4d 	bl	8008ff8 <__gnat_rcheck_CE_Overflow_Check>
 800575e:	687b      	ldr	r3, [r7, #4]
 8005760:	685a      	ldr	r2, [r3, #4]
 8005762:	687b      	ldr	r3, [r7, #4]
 8005764:	681b      	ldr	r3, [r3, #0]
 8005766:	429a      	cmp	r2, r3
 8005768:	db08      	blt.n	800577c <stm32__i2c__master_receive+0x398>
 800576a:	687b      	ldr	r3, [r7, #4]
 800576c:	685b      	ldr	r3, [r3, #4]
 800576e:	461a      	mov	r2, r3
 8005770:	687b      	ldr	r3, [r7, #4]
 8005772:	681b      	ldr	r3, [r3, #0]
 8005774:	1ad3      	subs	r3, r2, r3
 8005776:	3301      	adds	r3, #1
 8005778:	461a      	mov	r2, r3
 800577a:	e000      	b.n	800577e <stm32__i2c__master_receive+0x39a>
 800577c:	2200      	movs	r2, #0
 800577e:	69bb      	ldr	r3, [r7, #24]
 8005780:	1ad3      	subs	r3, r2, r3
 8005782:	2bff      	cmp	r3, #255	; 0xff
 8005784:	bfcc      	ite	gt
 8005786:	2301      	movgt	r3, #1
 8005788:	2300      	movle	r3, #0
 800578a:	b2db      	uxtb	r3, r3
 800578c:	2b00      	cmp	r3, #0
 800578e:	d00b      	beq.n	80057a8 <stm32__i2c__master_receive+0x3c4>
 8005790:	897a      	ldrh	r2, [r7, #10]
 8005792:	2300      	movs	r3, #0
 8005794:	9300      	str	r3, [sp, #0]
 8005796:	68f8      	ldr	r0, [r7, #12]
 8005798:	4611      	mov	r1, r2
 800579a:	22ff      	movs	r2, #255	; 0xff
 800579c:	2300      	movs	r3, #0
 800579e:	f7ff fa17 	bl	8004bd0 <stm32__i2c__config_transfer>
 80057a2:	23ff      	movs	r3, #255	; 0xff
 80057a4:	61fb      	str	r3, [r7, #28]
 80057a6:	e6dd      	b.n	8005564 <stm32__i2c__master_receive+0x180>
 80057a8:	687b      	ldr	r3, [r7, #4]
 80057aa:	681b      	ldr	r3, [r3, #0]
 80057ac:	ea4f 74e3 	mov.w	r4, r3, asr #31
 80057b0:	4968      	ldr	r1, [pc, #416]	; (8005954 <stm32__i2c__master_receive+0x570>)
 80057b2:	f04f 0200 	mov.w	r2, #0
 80057b6:	18c9      	adds	r1, r1, r3
 80057b8:	eb42 0204 	adc.w	r2, r2, r4
 80057bc:	687b      	ldr	r3, [r7, #4]
 80057be:	685b      	ldr	r3, [r3, #4]
 80057c0:	ea4f 74e3 	mov.w	r4, r3, asr #31
 80057c4:	4299      	cmp	r1, r3
 80057c6:	eb72 0304 	sbcs.w	r3, r2, r4
 80057ca:	da04      	bge.n	80057d6 <stm32__i2c__master_receive+0x3f2>
 80057cc:	4862      	ldr	r0, [pc, #392]	; (8005958 <stm32__i2c__master_receive+0x574>)
 80057ce:	f240 2107 	movw	r1, #519	; 0x207
 80057d2:	f003 fc19 	bl	8009008 <__gnat_rcheck_CE_Range_Check>
 80057d6:	687b      	ldr	r3, [r7, #4]
 80057d8:	685a      	ldr	r2, [r3, #4]
 80057da:	687b      	ldr	r3, [r7, #4]
 80057dc:	681b      	ldr	r3, [r3, #0]
 80057de:	429a      	cmp	r2, r3
 80057e0:	db07      	blt.n	80057f2 <stm32__i2c__master_receive+0x40e>
 80057e2:	687b      	ldr	r3, [r7, #4]
 80057e4:	685b      	ldr	r3, [r3, #4]
 80057e6:	461a      	mov	r2, r3
 80057e8:	687b      	ldr	r3, [r7, #4]
 80057ea:	681b      	ldr	r3, [r3, #0]
 80057ec:	1ad3      	subs	r3, r2, r3
 80057ee:	3301      	adds	r3, #1
 80057f0:	e000      	b.n	80057f4 <stm32__i2c__master_receive+0x410>
 80057f2:	2300      	movs	r3, #0
 80057f4:	69ba      	ldr	r2, [r7, #24]
 80057f6:	1a9b      	subs	r3, r3, r2
 80057f8:	4619      	mov	r1, r3
 80057fa:	687b      	ldr	r3, [r7, #4]
 80057fc:	685a      	ldr	r2, [r3, #4]
 80057fe:	687b      	ldr	r3, [r7, #4]
 8005800:	681b      	ldr	r3, [r3, #0]
 8005802:	429a      	cmp	r2, r3
 8005804:	db07      	blt.n	8005816 <stm32__i2c__master_receive+0x432>
 8005806:	687b      	ldr	r3, [r7, #4]
 8005808:	685b      	ldr	r3, [r3, #4]
 800580a:	461a      	mov	r2, r3
 800580c:	687b      	ldr	r3, [r7, #4]
 800580e:	681b      	ldr	r3, [r3, #0]
 8005810:	1ad3      	subs	r3, r2, r3
 8005812:	3301      	adds	r3, #1
 8005814:	e000      	b.n	8005818 <stm32__i2c__master_receive+0x434>
 8005816:	2300      	movs	r3, #0
 8005818:	4299      	cmp	r1, r3
 800581a:	dd04      	ble.n	8005826 <stm32__i2c__master_receive+0x442>
 800581c:	484e      	ldr	r0, [pc, #312]	; (8005958 <stm32__i2c__master_receive+0x574>)
 800581e:	f240 2107 	movw	r1, #519	; 0x207
 8005822:	f003 fbe9 	bl	8008ff8 <__gnat_rcheck_CE_Overflow_Check>
 8005826:	687b      	ldr	r3, [r7, #4]
 8005828:	685a      	ldr	r2, [r3, #4]
 800582a:	687b      	ldr	r3, [r7, #4]
 800582c:	681b      	ldr	r3, [r3, #0]
 800582e:	429a      	cmp	r2, r3
 8005830:	db08      	blt.n	8005844 <stm32__i2c__master_receive+0x460>
 8005832:	687b      	ldr	r3, [r7, #4]
 8005834:	685b      	ldr	r3, [r3, #4]
 8005836:	461a      	mov	r2, r3
 8005838:	687b      	ldr	r3, [r7, #4]
 800583a:	681b      	ldr	r3, [r3, #0]
 800583c:	1ad3      	subs	r3, r2, r3
 800583e:	3301      	adds	r3, #1
 8005840:	461a      	mov	r2, r3
 8005842:	e000      	b.n	8005846 <stm32__i2c__master_receive+0x462>
 8005844:	2200      	movs	r2, #0
 8005846:	69bb      	ldr	r3, [r7, #24]
 8005848:	1ad3      	subs	r3, r2, r3
 800584a:	2b00      	cmp	r3, #0
 800584c:	db01      	blt.n	8005852 <stm32__i2c__master_receive+0x46e>
 800584e:	2bff      	cmp	r3, #255	; 0xff
 8005850:	dd04      	ble.n	800585c <stm32__i2c__master_receive+0x478>
 8005852:	4841      	ldr	r0, [pc, #260]	; (8005958 <stm32__i2c__master_receive+0x574>)
 8005854:	f240 2107 	movw	r1, #519	; 0x207
 8005858:	f003 fbd6 	bl	8009008 <__gnat_rcheck_CE_Range_Check>
 800585c:	b2da      	uxtb	r2, r3
 800585e:	8979      	ldrh	r1, [r7, #10]
 8005860:	2300      	movs	r3, #0
 8005862:	9300      	str	r3, [sp, #0]
 8005864:	68f8      	ldr	r0, [r7, #12]
 8005866:	2301      	movs	r3, #1
 8005868:	f7ff f9b2 	bl	8004bd0 <stm32__i2c__config_transfer>
 800586c:	687b      	ldr	r3, [r7, #4]
 800586e:	681b      	ldr	r3, [r3, #0]
 8005870:	ea4f 74e3 	mov.w	r4, r3, asr #31
 8005874:	4937      	ldr	r1, [pc, #220]	; (8005954 <stm32__i2c__master_receive+0x570>)
 8005876:	f04f 0200 	mov.w	r2, #0
 800587a:	18c9      	adds	r1, r1, r3
 800587c:	eb42 0204 	adc.w	r2, r2, r4
 8005880:	687b      	ldr	r3, [r7, #4]
 8005882:	685b      	ldr	r3, [r3, #4]
 8005884:	ea4f 74e3 	mov.w	r4, r3, asr #31
 8005888:	4299      	cmp	r1, r3
 800588a:	eb72 0304 	sbcs.w	r3, r2, r4
 800588e:	da04      	bge.n	800589a <stm32__i2c__master_receive+0x4b6>
 8005890:	4831      	ldr	r0, [pc, #196]	; (8005958 <stm32__i2c__master_receive+0x574>)
 8005892:	f240 2109 	movw	r1, #521	; 0x209
 8005896:	f003 fbb7 	bl	8009008 <__gnat_rcheck_CE_Range_Check>
 800589a:	687b      	ldr	r3, [r7, #4]
 800589c:	685a      	ldr	r2, [r3, #4]
 800589e:	687b      	ldr	r3, [r7, #4]
 80058a0:	681b      	ldr	r3, [r3, #0]
 80058a2:	429a      	cmp	r2, r3
 80058a4:	db07      	blt.n	80058b6 <stm32__i2c__master_receive+0x4d2>
 80058a6:	687b      	ldr	r3, [r7, #4]
 80058a8:	685b      	ldr	r3, [r3, #4]
 80058aa:	461a      	mov	r2, r3
 80058ac:	687b      	ldr	r3, [r7, #4]
 80058ae:	681b      	ldr	r3, [r3, #0]
 80058b0:	1ad3      	subs	r3, r2, r3
 80058b2:	3301      	adds	r3, #1
 80058b4:	e000      	b.n	80058b8 <stm32__i2c__master_receive+0x4d4>
 80058b6:	2300      	movs	r3, #0
 80058b8:	69ba      	ldr	r2, [r7, #24]
 80058ba:	1a9b      	subs	r3, r3, r2
 80058bc:	4619      	mov	r1, r3
 80058be:	687b      	ldr	r3, [r7, #4]
 80058c0:	685a      	ldr	r2, [r3, #4]
 80058c2:	687b      	ldr	r3, [r7, #4]
 80058c4:	681b      	ldr	r3, [r3, #0]
 80058c6:	429a      	cmp	r2, r3
 80058c8:	db07      	blt.n	80058da <stm32__i2c__master_receive+0x4f6>
 80058ca:	687b      	ldr	r3, [r7, #4]
 80058cc:	685b      	ldr	r3, [r3, #4]
 80058ce:	461a      	mov	r2, r3
 80058d0:	687b      	ldr	r3, [r7, #4]
 80058d2:	681b      	ldr	r3, [r3, #0]
 80058d4:	1ad3      	subs	r3, r2, r3
 80058d6:	3301      	adds	r3, #1
 80058d8:	e000      	b.n	80058dc <stm32__i2c__master_receive+0x4f8>
 80058da:	2300      	movs	r3, #0
 80058dc:	4299      	cmp	r1, r3
 80058de:	dd04      	ble.n	80058ea <stm32__i2c__master_receive+0x506>
 80058e0:	481d      	ldr	r0, [pc, #116]	; (8005958 <stm32__i2c__master_receive+0x574>)
 80058e2:	f240 2109 	movw	r1, #521	; 0x209
 80058e6:	f003 fb87 	bl	8008ff8 <__gnat_rcheck_CE_Overflow_Check>
 80058ea:	687b      	ldr	r3, [r7, #4]
 80058ec:	685a      	ldr	r2, [r3, #4]
 80058ee:	687b      	ldr	r3, [r7, #4]
 80058f0:	681b      	ldr	r3, [r3, #0]
 80058f2:	429a      	cmp	r2, r3
 80058f4:	db08      	blt.n	8005908 <stm32__i2c__master_receive+0x524>
 80058f6:	687b      	ldr	r3, [r7, #4]
 80058f8:	685b      	ldr	r3, [r3, #4]
 80058fa:	461a      	mov	r2, r3
 80058fc:	687b      	ldr	r3, [r7, #4]
 80058fe:	681b      	ldr	r3, [r3, #0]
 8005900:	1ad3      	subs	r3, r2, r3
 8005902:	3301      	adds	r3, #1
 8005904:	461a      	mov	r2, r3
 8005906:	e000      	b.n	800590a <stm32__i2c__master_receive+0x526>
 8005908:	2200      	movs	r2, #0
 800590a:	69bb      	ldr	r3, [r7, #24]
 800590c:	1ad3      	subs	r3, r2, r3
 800590e:	2b00      	cmp	r3, #0
 8005910:	da04      	bge.n	800591c <stm32__i2c__master_receive+0x538>
 8005912:	4811      	ldr	r0, [pc, #68]	; (8005958 <stm32__i2c__master_receive+0x574>)
 8005914:	f240 2109 	movw	r1, #521	; 0x209
 8005918:	f003 fb76 	bl	8009008 <__gnat_rcheck_CE_Range_Check>
 800591c:	61fb      	str	r3, [r7, #28]
 800591e:	e621      	b.n	8005564 <stm32__i2c__master_receive+0x180>
 8005920:	68f8      	ldr	r0, [r7, #12]
 8005922:	6b39      	ldr	r1, [r7, #48]	; 0x30
 8005924:	f7ff fb14 	bl	8004f50 <stm32__i2c__wait_stop_flag>
 8005928:	4603      	mov	r3, r0
 800592a:	75fb      	strb	r3, [r7, #23]
 800592c:	7dfb      	ldrb	r3, [r7, #23]
 800592e:	2b00      	cmp	r3, #0
 8005930:	d108      	bne.n	8005944 <stm32__i2c__master_receive+0x560>
 8005932:	68f8      	ldr	r0, [r7, #12]
 8005934:	f7ff f9c4 	bl	8004cc0 <stm32__i2c__reset_config>
 8005938:	68fb      	ldr	r3, [r7, #12]
 800593a:	2201      	movs	r2, #1
 800593c:	751a      	strb	r2, [r3, #20]
 800593e:	2300      	movs	r3, #0
 8005940:	75fb      	strb	r3, [r7, #23]
 8005942:	e000      	b.n	8005946 <stm32__i2c__master_receive+0x562>
 8005944:	bf00      	nop
 8005946:	7dfb      	ldrb	r3, [r7, #23]
 8005948:	bf00      	nop
 800594a:	4618      	mov	r0, r3
 800594c:	3720      	adds	r7, #32
 800594e:	46bd      	mov	sp, r7
 8005950:	bdb0      	pop	{r4, r5, r7, pc}
 8005952:	bf00      	nop
 8005954:	7ffffffe 	.word	0x7ffffffe
 8005958:	0800da68 	.word	0x0800da68

0800595c <stm32__i2c__mem_write>:
 800595c:	e92d 4ff0 	stmdb	sp!, {r4, r5, r6, r7, r8, r9, sl, fp, lr}
 8005960:	b08d      	sub	sp, #52	; 0x34
 8005962:	af02      	add	r7, sp, #8
 8005964:	60f8      	str	r0, [r7, #12]
 8005966:	4608      	mov	r0, r1
 8005968:	4611      	mov	r1, r2
 800596a:	461a      	mov	r2, r3
 800596c:	4603      	mov	r3, r0
 800596e:	817b      	strh	r3, [r7, #10]
 8005970:	460b      	mov	r3, r1
 8005972:	813b      	strh	r3, [r7, #8]
 8005974:	4613      	mov	r3, r2
 8005976:	71fb      	strb	r3, [r7, #7]
 8005978:	6d7b      	ldr	r3, [r7, #84]	; 0x54
 800597a:	681c      	ldr	r4, [r3, #0]
 800597c:	6d7b      	ldr	r3, [r7, #84]	; 0x54
 800597e:	685d      	ldr	r5, [r3, #4]
 8005980:	42a5      	cmp	r5, r4
 8005982:	db0d      	blt.n	80059a0 <stm32__i2c__mem_write+0x44>
 8005984:	4628      	mov	r0, r5
 8005986:	ea4f 71e0 	mov.w	r1, r0, asr #31
 800598a:	4622      	mov	r2, r4
 800598c:	ea4f 73e2 	mov.w	r3, r2, asr #31
 8005990:	1a82      	subs	r2, r0, r2
 8005992:	eb61 0303 	sbc.w	r3, r1, r3
 8005996:	f112 0801 	adds.w	r8, r2, #1
 800599a:	f143 0900 	adc.w	r9, r3, #0
 800599e:	e003      	b.n	80059a8 <stm32__i2c__mem_write+0x4c>
 80059a0:	f04f 0800 	mov.w	r8, #0
 80059a4:	f04f 0900 	mov.w	r9, #0
 80059a8:	68f8      	ldr	r0, [r7, #12]
 80059aa:	f7ff f8ff 	bl	8004bac <stm32__i2c__is_configured>
 80059ae:	4603      	mov	r3, r0
 80059b0:	f083 0301 	eor.w	r3, r3, #1
 80059b4:	b2db      	uxtb	r3, r3
 80059b6:	2b00      	cmp	r3, #0
 80059b8:	d007      	beq.n	80059ca <stm32__i2c__mem_write+0x6e>
 80059ba:	f8df a37c 	ldr.w	sl, [pc, #892]	; 8005d38 <stm32__i2c__mem_write+0x3dc>
 80059be:	f8df b37c 	ldr.w	fp, [pc, #892]	; 8005d3c <stm32__i2c__mem_write+0x3e0>
 80059c2:	4650      	mov	r0, sl
 80059c4:	4659      	mov	r1, fp
 80059c6:	f004 f837 	bl	8009a38 <system__assertions__raise_assert_failure>
 80059ca:	4626      	mov	r6, r4
 80059cc:	2300      	movs	r3, #0
 80059ce:	627b      	str	r3, [r7, #36]	; 0x24
 80059d0:	2300      	movs	r3, #0
 80059d2:	623b      	str	r3, [r7, #32]
 80059d4:	f001 fc7a 	bl	80072cc <ada__real_time__clock>
 80059d8:	4602      	mov	r2, r0
 80059da:	460b      	mov	r3, r1
 80059dc:	e9c7 2306 	strd	r2, r3, [r7, #24]
 80059e0:	68fb      	ldr	r3, [r7, #12]
 80059e2:	685b      	ldr	r3, [r3, #4]
 80059e4:	3318      	adds	r3, #24
 80059e6:	681b      	ldr	r3, [r3, #0]
 80059e8:	f3c3 33c0 	ubfx	r3, r3, #15, #1
 80059ec:	b2db      	uxtb	r3, r3
 80059ee:	2b00      	cmp	r3, #0
 80059f0:	d018      	beq.n	8005a24 <stm32__i2c__mem_write+0xc8>
 80059f2:	f001 fc6b 	bl	80072cc <ada__real_time__clock>
 80059f6:	4602      	mov	r2, r0
 80059f8:	460b      	mov	r3, r1
 80059fa:	4610      	mov	r0, r2
 80059fc:	4619      	mov	r1, r3
 80059fe:	e9d7 2306 	ldrd	r2, r3, [r7, #24]
 8005a02:	f001 fc41 	bl	8007288 <ada__real_time__Osubtract__2>
 8005a06:	4682      	mov	sl, r0
 8005a08:	468b      	mov	fp, r1
 8005a0a:	6dbb      	ldr	r3, [r7, #88]	; 0x58
 8005a0c:	4618      	mov	r0, r3
 8005a0e:	f001 fca5 	bl	800735c <ada__real_time__milliseconds>
 8005a12:	4602      	mov	r2, r0
 8005a14:	460b      	mov	r3, r1
 8005a16:	4552      	cmp	r2, sl
 8005a18:	eb73 030b 	sbcs.w	r3, r3, fp
 8005a1c:	dae0      	bge.n	80059e0 <stm32__i2c__mem_write+0x84>
 8005a1e:	2303      	movs	r3, #3
 8005a20:	757b      	strb	r3, [r7, #21]
 8005a22:	e22c      	b.n	8005e7e <stm32__i2c__mem_write+0x522>
 8005a24:	42ac      	cmp	r4, r5
 8005a26:	dd02      	ble.n	8005a2e <stm32__i2c__mem_write+0xd2>
 8005a28:	2301      	movs	r3, #1
 8005a2a:	757b      	strb	r3, [r7, #21]
 8005a2c:	e227      	b.n	8005e7e <stm32__i2c__mem_write+0x522>
 8005a2e:	68fb      	ldr	r3, [r7, #12]
 8005a30:	7d1b      	ldrb	r3, [r3, #20]
 8005a32:	2b01      	cmp	r3, #1
 8005a34:	d002      	beq.n	8005a3c <stm32__i2c__mem_write+0xe0>
 8005a36:	2303      	movs	r3, #3
 8005a38:	757b      	strb	r3, [r7, #21]
 8005a3a:	e220      	b.n	8005e7e <stm32__i2c__mem_write+0x522>
 8005a3c:	68fb      	ldr	r3, [r7, #12]
 8005a3e:	2204      	movs	r2, #4
 8005a40:	751a      	strb	r2, [r3, #20]
 8005a42:	79fb      	ldrb	r3, [r7, #7]
 8005a44:	2b01      	cmp	r3, #1
 8005a46:	d904      	bls.n	8005a52 <stm32__i2c__mem_write+0xf6>
 8005a48:	48b9      	ldr	r0, [pc, #740]	; (8005d30 <stm32__i2c__mem_write+0x3d4>)
 8005a4a:	f44f 7111 	mov.w	r1, #580	; 0x244
 8005a4e:	f003 facb 	bl	8008fe8 <__gnat_rcheck_CE_Invalid_Data>
 8005a52:	79fb      	ldrb	r3, [r7, #7]
 8005a54:	2b00      	cmp	r3, #0
 8005a56:	d101      	bne.n	8005a5c <stm32__i2c__mem_write+0x100>
 8005a58:	2201      	movs	r2, #1
 8005a5a:	e000      	b.n	8005a5e <stm32__i2c__mem_write+0x102>
 8005a5c:	2202      	movs	r2, #2
 8005a5e:	8979      	ldrh	r1, [r7, #10]
 8005a60:	2303      	movs	r3, #3
 8005a62:	9300      	str	r3, [sp, #0]
 8005a64:	68f8      	ldr	r0, [r7, #12]
 8005a66:	2300      	movs	r3, #0
 8005a68:	f7ff f8b2 	bl	8004bd0 <stm32__i2c__config_transfer>
 8005a6c:	68f8      	ldr	r0, [r7, #12]
 8005a6e:	6db9      	ldr	r1, [r7, #88]	; 0x58
 8005a70:	f7ff f9dc 	bl	8004e2c <stm32__i2c__wait_tx_interrupt_status>
 8005a74:	4603      	mov	r3, r0
 8005a76:	757b      	strb	r3, [r7, #21]
 8005a78:	7d7b      	ldrb	r3, [r7, #21]
 8005a7a:	2b00      	cmp	r3, #0
 8005a7c:	d003      	beq.n	8005a86 <stm32__i2c__mem_write+0x12a>
 8005a7e:	68fb      	ldr	r3, [r7, #12]
 8005a80:	2201      	movs	r2, #1
 8005a82:	751a      	strb	r2, [r3, #20]
 8005a84:	e1fb      	b.n	8005e7e <stm32__i2c__mem_write+0x522>
 8005a86:	79fb      	ldrb	r3, [r7, #7]
 8005a88:	2b01      	cmp	r3, #1
 8005a8a:	d904      	bls.n	8005a96 <stm32__i2c__mem_write+0x13a>
 8005a8c:	48a8      	ldr	r0, [pc, #672]	; (8005d30 <stm32__i2c__mem_write+0x3d4>)
 8005a8e:	f240 2152 	movw	r1, #594	; 0x252
 8005a92:	f003 faa9 	bl	8008fe8 <__gnat_rcheck_CE_Invalid_Data>
 8005a96:	79fb      	ldrb	r3, [r7, #7]
 8005a98:	2b00      	cmp	r3, #0
 8005a9a:	d114      	bne.n	8005ac6 <stm32__i2c__mem_write+0x16a>
 8005a9c:	893b      	ldrh	r3, [r7, #8]
 8005a9e:	2bff      	cmp	r3, #255	; 0xff
 8005aa0:	d904      	bls.n	8005aac <stm32__i2c__mem_write+0x150>
 8005aa2:	48a3      	ldr	r0, [pc, #652]	; (8005d30 <stm32__i2c__mem_write+0x3d4>)
 8005aa4:	f44f 7115 	mov.w	r1, #596	; 0x254
 8005aa8:	f003 faae 	bl	8009008 <__gnat_rcheck_CE_Range_Check>
 8005aac:	68fb      	ldr	r3, [r7, #12]
 8005aae:	685b      	ldr	r3, [r3, #4]
 8005ab0:	3328      	adds	r3, #40	; 0x28
 8005ab2:	681b      	ldr	r3, [r3, #0]
 8005ab4:	893a      	ldrh	r2, [r7, #8]
 8005ab6:	b2d2      	uxtb	r2, r2
 8005ab8:	f362 0307 	bfi	r3, r2, #0, #8
 8005abc:	68fa      	ldr	r2, [r7, #12]
 8005abe:	6852      	ldr	r2, [r2, #4]
 8005ac0:	3228      	adds	r2, #40	; 0x28
 8005ac2:	6013      	str	r3, [r2, #0]
 8005ac4:	e039      	b.n	8005b3a <stm32__i2c__mem_write+0x1de>
 8005ac6:	893b      	ldrh	r3, [r7, #8]
 8005ac8:	0a1b      	lsrs	r3, r3, #8
 8005aca:	b29b      	uxth	r3, r3
 8005acc:	2bff      	cmp	r3, #255	; 0xff
 8005ace:	d904      	bls.n	8005ada <stm32__i2c__mem_write+0x17e>
 8005ad0:	4897      	ldr	r0, [pc, #604]	; (8005d30 <stm32__i2c__mem_write+0x3d4>)
 8005ad2:	f44f 7116 	mov.w	r1, #600	; 0x258
 8005ad6:	f003 fa97 	bl	8009008 <__gnat_rcheck_CE_Range_Check>
 8005ada:	893b      	ldrh	r3, [r7, #8]
 8005adc:	0a1b      	lsrs	r3, r3, #8
 8005ade:	b29b      	uxth	r3, r3
 8005ae0:	75fb      	strb	r3, [r7, #23]
 8005ae2:	893b      	ldrh	r3, [r7, #8]
 8005ae4:	b2db      	uxtb	r3, r3
 8005ae6:	b29b      	uxth	r3, r3
 8005ae8:	2bff      	cmp	r3, #255	; 0xff
 8005aea:	d904      	bls.n	8005af6 <stm32__i2c__mem_write+0x19a>
 8005aec:	4890      	ldr	r0, [pc, #576]	; (8005d30 <stm32__i2c__mem_write+0x3d4>)
 8005aee:	f240 2159 	movw	r1, #601	; 0x259
 8005af2:	f003 fa89 	bl	8009008 <__gnat_rcheck_CE_Range_Check>
 8005af6:	893b      	ldrh	r3, [r7, #8]
 8005af8:	75bb      	strb	r3, [r7, #22]
 8005afa:	68fb      	ldr	r3, [r7, #12]
 8005afc:	685b      	ldr	r3, [r3, #4]
 8005afe:	3328      	adds	r3, #40	; 0x28
 8005b00:	681b      	ldr	r3, [r3, #0]
 8005b02:	7dfa      	ldrb	r2, [r7, #23]
 8005b04:	f362 0307 	bfi	r3, r2, #0, #8
 8005b08:	68fa      	ldr	r2, [r7, #12]
 8005b0a:	6852      	ldr	r2, [r2, #4]
 8005b0c:	3228      	adds	r2, #40	; 0x28
 8005b0e:	6013      	str	r3, [r2, #0]
 8005b10:	68f8      	ldr	r0, [r7, #12]
 8005b12:	6db9      	ldr	r1, [r7, #88]	; 0x58
 8005b14:	f7ff f98a 	bl	8004e2c <stm32__i2c__wait_tx_interrupt_status>
 8005b18:	4603      	mov	r3, r0
 8005b1a:	757b      	strb	r3, [r7, #21]
 8005b1c:	7d7b      	ldrb	r3, [r7, #21]
 8005b1e:	2b00      	cmp	r3, #0
 8005b20:	f040 81a4 	bne.w	8005e6c <stm32__i2c__mem_write+0x510>
 8005b24:	68fb      	ldr	r3, [r7, #12]
 8005b26:	685b      	ldr	r3, [r3, #4]
 8005b28:	3328      	adds	r3, #40	; 0x28
 8005b2a:	681b      	ldr	r3, [r3, #0]
 8005b2c:	7dba      	ldrb	r2, [r7, #22]
 8005b2e:	f362 0307 	bfi	r3, r2, #0, #8
 8005b32:	68fa      	ldr	r2, [r7, #12]
 8005b34:	6852      	ldr	r2, [r2, #4]
 8005b36:	3228      	adds	r2, #40	; 0x28
 8005b38:	6013      	str	r3, [r2, #0]
 8005b3a:	68f8      	ldr	r0, [r7, #12]
 8005b3c:	6db9      	ldr	r1, [r7, #88]	; 0x58
 8005b3e:	f7ff f9c5 	bl	8004ecc <stm32__i2c__wait_transfer_complete_reset_flag>
 8005b42:	4603      	mov	r3, r0
 8005b44:	757b      	strb	r3, [r7, #21]
 8005b46:	7d7b      	ldrb	r3, [r7, #21]
 8005b48:	2b00      	cmp	r3, #0
 8005b4a:	f040 8191 	bne.w	8005e70 <stm32__i2c__mem_write+0x514>
 8005b4e:	4622      	mov	r2, r4
 8005b50:	ea4f 73e2 	mov.w	r3, r2, asr #31
 8005b54:	f06f 00fe 	mvn.w	r0, #254	; 0xfe
 8005b58:	f06f 4100 	mvn.w	r1, #2147483648	; 0x80000000
 8005b5c:	4290      	cmp	r0, r2
 8005b5e:	eb71 0303 	sbcs.w	r3, r1, r3
 8005b62:	da04      	bge.n	8005b6e <stm32__i2c__mem_write+0x212>
 8005b64:	4872      	ldr	r0, [pc, #456]	; (8005d30 <stm32__i2c__mem_write+0x3d4>)
 8005b66:	f240 216d 	movw	r1, #621	; 0x26d
 8005b6a:	f003 fa45 	bl	8008ff8 <__gnat_rcheck_CE_Overflow_Check>
 8005b6e:	4622      	mov	r2, r4
 8005b70:	ea4f 73e2 	mov.w	r3, r2, asr #31
 8005b74:	f112 00fe 	adds.w	r0, r2, #254	; 0xfe
 8005b78:	f143 0100 	adc.w	r1, r3, #0
 8005b7c:	462a      	mov	r2, r5
 8005b7e:	ea4f 73e2 	mov.w	r3, r2, asr #31
 8005b82:	4290      	cmp	r0, r2
 8005b84:	eb71 0303 	sbcs.w	r3, r1, r3
 8005b88:	da0b      	bge.n	8005ba2 <stm32__i2c__mem_write+0x246>
 8005b8a:	897a      	ldrh	r2, [r7, #10]
 8005b8c:	2300      	movs	r3, #0
 8005b8e:	9300      	str	r3, [sp, #0]
 8005b90:	68f8      	ldr	r0, [r7, #12]
 8005b92:	4611      	mov	r1, r2
 8005b94:	22ff      	movs	r2, #255	; 0xff
 8005b96:	2300      	movs	r3, #0
 8005b98:	f7ff f81a 	bl	8004bd0 <stm32__i2c__config_transfer>
 8005b9c:	23ff      	movs	r3, #255	; 0xff
 8005b9e:	627b      	str	r3, [r7, #36]	; 0x24
 8005ba0:	e032      	b.n	8005c08 <stm32__i2c__mem_write+0x2ac>
 8005ba2:	4622      	mov	r2, r4
 8005ba4:	ea4f 73e2 	mov.w	r3, r2, asr #31
 8005ba8:	f112 00fe 	adds.w	r0, r2, #254	; 0xfe
 8005bac:	f143 0100 	adc.w	r1, r3, #0
 8005bb0:	462a      	mov	r2, r5
 8005bb2:	ea4f 73e2 	mov.w	r3, r2, asr #31
 8005bb6:	4290      	cmp	r0, r2
 8005bb8:	eb71 0303 	sbcs.w	r3, r1, r3
 8005bbc:	da04      	bge.n	8005bc8 <stm32__i2c__mem_write+0x26c>
 8005bbe:	485c      	ldr	r0, [pc, #368]	; (8005d30 <stm32__i2c__mem_write+0x3d4>)
 8005bc0:	f240 2173 	movw	r1, #627	; 0x273
 8005bc4:	f003 fa20 	bl	8009008 <__gnat_rcheck_CE_Range_Check>
 8005bc8:	fa5f f288 	uxtb.w	r2, r8
 8005bcc:	8979      	ldrh	r1, [r7, #10]
 8005bce:	2300      	movs	r3, #0
 8005bd0:	9300      	str	r3, [sp, #0]
 8005bd2:	68f8      	ldr	r0, [r7, #12]
 8005bd4:	2301      	movs	r3, #1
 8005bd6:	f7fe fffb 	bl	8004bd0 <stm32__i2c__config_transfer>
 8005bda:	4622      	mov	r2, r4
 8005bdc:	ea4f 73e2 	mov.w	r3, r2, asr #31
 8005be0:	4854      	ldr	r0, [pc, #336]	; (8005d34 <stm32__i2c__mem_write+0x3d8>)
 8005be2:	f04f 0100 	mov.w	r1, #0
 8005be6:	1880      	adds	r0, r0, r2
 8005be8:	eb41 0103 	adc.w	r1, r1, r3
 8005bec:	462a      	mov	r2, r5
 8005bee:	ea4f 73e2 	mov.w	r3, r2, asr #31
 8005bf2:	4290      	cmp	r0, r2
 8005bf4:	eb71 0303 	sbcs.w	r3, r1, r3
 8005bf8:	da04      	bge.n	8005c04 <stm32__i2c__mem_write+0x2a8>
 8005bfa:	484d      	ldr	r0, [pc, #308]	; (8005d30 <stm32__i2c__mem_write+0x3d4>)
 8005bfc:	f44f 711d 	mov.w	r1, #628	; 0x274
 8005c00:	f003 fa02 	bl	8009008 <__gnat_rcheck_CE_Range_Check>
 8005c04:	4643      	mov	r3, r8
 8005c06:	627b      	str	r3, [r7, #36]	; 0x24
 8005c08:	4622      	mov	r2, r4
 8005c0a:	ea4f 73e2 	mov.w	r3, r2, asr #31
 8005c0e:	4849      	ldr	r0, [pc, #292]	; (8005d34 <stm32__i2c__mem_write+0x3d8>)
 8005c10:	f04f 0100 	mov.w	r1, #0
 8005c14:	1880      	adds	r0, r0, r2
 8005c16:	eb41 0103 	adc.w	r1, r1, r3
 8005c1a:	462a      	mov	r2, r5
 8005c1c:	ea4f 73e2 	mov.w	r3, r2, asr #31
 8005c20:	4290      	cmp	r0, r2
 8005c22:	eb71 0303 	sbcs.w	r3, r1, r3
 8005c26:	da04      	bge.n	8005c32 <stm32__i2c__mem_write+0x2d6>
 8005c28:	4841      	ldr	r0, [pc, #260]	; (8005d30 <stm32__i2c__mem_write+0x3d4>)
 8005c2a:	f44f 711e 	mov.w	r1, #632	; 0x278
 8005c2e:	f003 f9eb 	bl	8009008 <__gnat_rcheck_CE_Range_Check>
 8005c32:	6a3b      	ldr	r3, [r7, #32]
 8005c34:	4642      	mov	r2, r8
 8005c36:	4293      	cmp	r3, r2
 8005c38:	f280 8106 	bge.w	8005e48 <stm32__i2c__mem_write+0x4ec>
 8005c3c:	68f8      	ldr	r0, [r7, #12]
 8005c3e:	6db9      	ldr	r1, [r7, #88]	; 0x58
 8005c40:	f7ff f8f4 	bl	8004e2c <stm32__i2c__wait_tx_interrupt_status>
 8005c44:	4603      	mov	r3, r0
 8005c46:	757b      	strb	r3, [r7, #21]
 8005c48:	7d7b      	ldrb	r3, [r7, #21]
 8005c4a:	2b00      	cmp	r3, #0
 8005c4c:	f040 8112 	bne.w	8005e74 <stm32__i2c__mem_write+0x518>
 8005c50:	4622      	mov	r2, r4
 8005c52:	6a3b      	ldr	r3, [r7, #32]
 8005c54:	4413      	add	r3, r2
 8005c56:	42a3      	cmp	r3, r4
 8005c58:	da04      	bge.n	8005c64 <stm32__i2c__mem_write+0x308>
 8005c5a:	4835      	ldr	r0, [pc, #212]	; (8005d30 <stm32__i2c__mem_write+0x3d4>)
 8005c5c:	f240 217f 	movw	r1, #639	; 0x27f
 8005c60:	f003 f9ca 	bl	8008ff8 <__gnat_rcheck_CE_Overflow_Check>
 8005c64:	6a3b      	ldr	r3, [r7, #32]
 8005c66:	4423      	add	r3, r4
 8005c68:	429c      	cmp	r4, r3
 8005c6a:	dc01      	bgt.n	8005c70 <stm32__i2c__mem_write+0x314>
 8005c6c:	429d      	cmp	r5, r3
 8005c6e:	da04      	bge.n	8005c7a <stm32__i2c__mem_write+0x31e>
 8005c70:	482f      	ldr	r0, [pc, #188]	; (8005d30 <stm32__i2c__mem_write+0x3d4>)
 8005c72:	f240 217f 	movw	r1, #639	; 0x27f
 8005c76:	f003 f9af 	bl	8008fd8 <__gnat_rcheck_CE_Index_Check>
 8005c7a:	68fa      	ldr	r2, [r7, #12]
 8005c7c:	6852      	ldr	r2, [r2, #4]
 8005c7e:	3228      	adds	r2, #40	; 0x28
 8005c80:	6812      	ldr	r2, [r2, #0]
 8005c82:	6d39      	ldr	r1, [r7, #80]	; 0x50
 8005c84:	1b9b      	subs	r3, r3, r6
 8005c86:	5ccb      	ldrb	r3, [r1, r3]
 8005c88:	f363 0207 	bfi	r2, r3, #0, #8
 8005c8c:	68fb      	ldr	r3, [r7, #12]
 8005c8e:	685b      	ldr	r3, [r3, #4]
 8005c90:	3328      	adds	r3, #40	; 0x28
 8005c92:	601a      	str	r2, [r3, #0]
 8005c94:	6a3b      	ldr	r3, [r7, #32]
 8005c96:	f06f 4200 	mvn.w	r2, #2147483648	; 0x80000000
 8005c9a:	4293      	cmp	r3, r2
 8005c9c:	d104      	bne.n	8005ca8 <stm32__i2c__mem_write+0x34c>
 8005c9e:	4824      	ldr	r0, [pc, #144]	; (8005d30 <stm32__i2c__mem_write+0x3d4>)
 8005ca0:	f44f 7120 	mov.w	r1, #640	; 0x280
 8005ca4:	f003 f9a8 	bl	8008ff8 <__gnat_rcheck_CE_Overflow_Check>
 8005ca8:	6a3b      	ldr	r3, [r7, #32]
 8005caa:	3301      	adds	r3, #1
 8005cac:	623b      	str	r3, [r7, #32]
 8005cae:	6a3a      	ldr	r2, [r7, #32]
 8005cb0:	6a7b      	ldr	r3, [r7, #36]	; 0x24
 8005cb2:	429a      	cmp	r2, r3
 8005cb4:	d1a8      	bne.n	8005c08 <stm32__i2c__mem_write+0x2ac>
 8005cb6:	4622      	mov	r2, r4
 8005cb8:	ea4f 73e2 	mov.w	r3, r2, asr #31
 8005cbc:	481d      	ldr	r0, [pc, #116]	; (8005d34 <stm32__i2c__mem_write+0x3d8>)
 8005cbe:	f04f 0100 	mov.w	r1, #0
 8005cc2:	1880      	adds	r0, r0, r2
 8005cc4:	eb41 0103 	adc.w	r1, r1, r3
 8005cc8:	462a      	mov	r2, r5
 8005cca:	ea4f 73e2 	mov.w	r3, r2, asr #31
 8005cce:	4290      	cmp	r0, r2
 8005cd0:	eb71 0303 	sbcs.w	r3, r1, r3
 8005cd4:	da04      	bge.n	8005ce0 <stm32__i2c__mem_write+0x384>
 8005cd6:	4816      	ldr	r0, [pc, #88]	; (8005d30 <stm32__i2c__mem_write+0x3d4>)
 8005cd8:	f240 2183 	movw	r1, #643	; 0x283
 8005cdc:	f003 f994 	bl	8009008 <__gnat_rcheck_CE_Range_Check>
 8005ce0:	6a3b      	ldr	r3, [r7, #32]
 8005ce2:	4642      	mov	r2, r8
 8005ce4:	4293      	cmp	r3, r2
 8005ce6:	bfb4      	ite	lt
 8005ce8:	2301      	movlt	r3, #1
 8005cea:	2300      	movge	r3, #0
 8005cec:	b2db      	uxtb	r3, r3
 8005cee:	2b00      	cmp	r3, #0
 8005cf0:	d08a      	beq.n	8005c08 <stm32__i2c__mem_write+0x2ac>
 8005cf2:	68f8      	ldr	r0, [r7, #12]
 8005cf4:	6db9      	ldr	r1, [r7, #88]	; 0x58
 8005cf6:	f7ff f8e9 	bl	8004ecc <stm32__i2c__wait_transfer_complete_reset_flag>
 8005cfa:	4603      	mov	r3, r0
 8005cfc:	757b      	strb	r3, [r7, #21]
 8005cfe:	7d7b      	ldrb	r3, [r7, #21]
 8005d00:	2b00      	cmp	r3, #0
 8005d02:	f040 80b9 	bne.w	8005e78 <stm32__i2c__mem_write+0x51c>
 8005d06:	4622      	mov	r2, r4
 8005d08:	ea4f 73e2 	mov.w	r3, r2, asr #31
 8005d0c:	4809      	ldr	r0, [pc, #36]	; (8005d34 <stm32__i2c__mem_write+0x3d8>)
 8005d0e:	f04f 0100 	mov.w	r1, #0
 8005d12:	1880      	adds	r0, r0, r2
 8005d14:	eb41 0103 	adc.w	r1, r1, r3
 8005d18:	462a      	mov	r2, r5
 8005d1a:	ea4f 73e2 	mov.w	r3, r2, asr #31
 8005d1e:	4290      	cmp	r0, r2
 8005d20:	eb71 0303 	sbcs.w	r3, r1, r3
 8005d24:	da0c      	bge.n	8005d40 <stm32__i2c__mem_write+0x3e4>
 8005d26:	4802      	ldr	r0, [pc, #8]	; (8005d30 <stm32__i2c__mem_write+0x3d4>)
 8005d28:	f44f 7123 	mov.w	r1, #652	; 0x28c
 8005d2c:	f003 f96c 	bl	8009008 <__gnat_rcheck_CE_Range_Check>
 8005d30:	0800da68 	.word	0x0800da68
 8005d34:	7ffffffe 	.word	0x7ffffffe
 8005d38:	0800dad0 	.word	0x0800dad0
 8005d3c:	0800da2c 	.word	0x0800da2c
 8005d40:	4642      	mov	r2, r8
 8005d42:	6a3b      	ldr	r3, [r7, #32]
 8005d44:	1ad3      	subs	r3, r2, r3
 8005d46:	461a      	mov	r2, r3
 8005d48:	4643      	mov	r3, r8
 8005d4a:	429a      	cmp	r2, r3
 8005d4c:	dd04      	ble.n	8005d58 <stm32__i2c__mem_write+0x3fc>
 8005d4e:	484f      	ldr	r0, [pc, #316]	; (8005e8c <stm32__i2c__mem_write+0x530>)
 8005d50:	f44f 7123 	mov.w	r1, #652	; 0x28c
 8005d54:	f003 f950 	bl	8008ff8 <__gnat_rcheck_CE_Overflow_Check>
 8005d58:	4642      	mov	r2, r8
 8005d5a:	6a3b      	ldr	r3, [r7, #32]
 8005d5c:	1ad3      	subs	r3, r2, r3
 8005d5e:	2bff      	cmp	r3, #255	; 0xff
 8005d60:	bfcc      	ite	gt
 8005d62:	2301      	movgt	r3, #1
 8005d64:	2300      	movle	r3, #0
 8005d66:	b2db      	uxtb	r3, r3
 8005d68:	2b00      	cmp	r3, #0
 8005d6a:	d00b      	beq.n	8005d84 <stm32__i2c__mem_write+0x428>
 8005d6c:	897a      	ldrh	r2, [r7, #10]
 8005d6e:	2300      	movs	r3, #0
 8005d70:	9300      	str	r3, [sp, #0]
 8005d72:	68f8      	ldr	r0, [r7, #12]
 8005d74:	4611      	mov	r1, r2
 8005d76:	22ff      	movs	r2, #255	; 0xff
 8005d78:	2300      	movs	r3, #0
 8005d7a:	f7fe ff29 	bl	8004bd0 <stm32__i2c__config_transfer>
 8005d7e:	23ff      	movs	r3, #255	; 0xff
 8005d80:	627b      	str	r3, [r7, #36]	; 0x24
 8005d82:	e741      	b.n	8005c08 <stm32__i2c__mem_write+0x2ac>
 8005d84:	4622      	mov	r2, r4
 8005d86:	ea4f 73e2 	mov.w	r3, r2, asr #31
 8005d8a:	4841      	ldr	r0, [pc, #260]	; (8005e90 <stm32__i2c__mem_write+0x534>)
 8005d8c:	f04f 0100 	mov.w	r1, #0
 8005d90:	1880      	adds	r0, r0, r2
 8005d92:	eb41 0103 	adc.w	r1, r1, r3
 8005d96:	462a      	mov	r2, r5
 8005d98:	ea4f 73e2 	mov.w	r3, r2, asr #31
 8005d9c:	4290      	cmp	r0, r2
 8005d9e:	eb71 0303 	sbcs.w	r3, r1, r3
 8005da2:	da04      	bge.n	8005dae <stm32__i2c__mem_write+0x452>
 8005da4:	4839      	ldr	r0, [pc, #228]	; (8005e8c <stm32__i2c__mem_write+0x530>)
 8005da6:	f240 2193 	movw	r1, #659	; 0x293
 8005daa:	f003 f92d 	bl	8009008 <__gnat_rcheck_CE_Range_Check>
 8005dae:	4642      	mov	r2, r8
 8005db0:	6a3b      	ldr	r3, [r7, #32]
 8005db2:	1ad3      	subs	r3, r2, r3
 8005db4:	461a      	mov	r2, r3
 8005db6:	4643      	mov	r3, r8
 8005db8:	429a      	cmp	r2, r3
 8005dba:	dd04      	ble.n	8005dc6 <stm32__i2c__mem_write+0x46a>
 8005dbc:	4833      	ldr	r0, [pc, #204]	; (8005e8c <stm32__i2c__mem_write+0x530>)
 8005dbe:	f240 2193 	movw	r1, #659	; 0x293
 8005dc2:	f003 f919 	bl	8008ff8 <__gnat_rcheck_CE_Overflow_Check>
 8005dc6:	4642      	mov	r2, r8
 8005dc8:	6a3b      	ldr	r3, [r7, #32]
 8005dca:	1ad3      	subs	r3, r2, r3
 8005dcc:	2b00      	cmp	r3, #0
 8005dce:	db01      	blt.n	8005dd4 <stm32__i2c__mem_write+0x478>
 8005dd0:	2bff      	cmp	r3, #255	; 0xff
 8005dd2:	dd04      	ble.n	8005dde <stm32__i2c__mem_write+0x482>
 8005dd4:	482d      	ldr	r0, [pc, #180]	; (8005e8c <stm32__i2c__mem_write+0x530>)
 8005dd6:	f240 2193 	movw	r1, #659	; 0x293
 8005dda:	f003 f915 	bl	8009008 <__gnat_rcheck_CE_Range_Check>
 8005dde:	b2da      	uxtb	r2, r3
 8005de0:	8979      	ldrh	r1, [r7, #10]
 8005de2:	2300      	movs	r3, #0
 8005de4:	9300      	str	r3, [sp, #0]
 8005de6:	68f8      	ldr	r0, [r7, #12]
 8005de8:	2301      	movs	r3, #1
 8005dea:	f7fe fef1 	bl	8004bd0 <stm32__i2c__config_transfer>
 8005dee:	4622      	mov	r2, r4
 8005df0:	ea4f 73e2 	mov.w	r3, r2, asr #31
 8005df4:	4826      	ldr	r0, [pc, #152]	; (8005e90 <stm32__i2c__mem_write+0x534>)
 8005df6:	f04f 0100 	mov.w	r1, #0
 8005dfa:	1880      	adds	r0, r0, r2
 8005dfc:	eb41 0103 	adc.w	r1, r1, r3
 8005e00:	462a      	mov	r2, r5
 8005e02:	ea4f 73e2 	mov.w	r3, r2, asr #31
 8005e06:	4290      	cmp	r0, r2
 8005e08:	eb71 0303 	sbcs.w	r3, r1, r3
 8005e0c:	da04      	bge.n	8005e18 <stm32__i2c__mem_write+0x4bc>
 8005e0e:	481f      	ldr	r0, [pc, #124]	; (8005e8c <stm32__i2c__mem_write+0x530>)
 8005e10:	f240 2196 	movw	r1, #662	; 0x296
 8005e14:	f003 f8f8 	bl	8009008 <__gnat_rcheck_CE_Range_Check>
 8005e18:	4642      	mov	r2, r8
 8005e1a:	6a3b      	ldr	r3, [r7, #32]
 8005e1c:	1ad3      	subs	r3, r2, r3
 8005e1e:	461a      	mov	r2, r3
 8005e20:	4643      	mov	r3, r8
 8005e22:	429a      	cmp	r2, r3
 8005e24:	dd04      	ble.n	8005e30 <stm32__i2c__mem_write+0x4d4>
 8005e26:	4819      	ldr	r0, [pc, #100]	; (8005e8c <stm32__i2c__mem_write+0x530>)
 8005e28:	f240 2196 	movw	r1, #662	; 0x296
 8005e2c:	f003 f8e4 	bl	8008ff8 <__gnat_rcheck_CE_Overflow_Check>
 8005e30:	4642      	mov	r2, r8
 8005e32:	6a3b      	ldr	r3, [r7, #32]
 8005e34:	1ad3      	subs	r3, r2, r3
 8005e36:	2b00      	cmp	r3, #0
 8005e38:	da04      	bge.n	8005e44 <stm32__i2c__mem_write+0x4e8>
 8005e3a:	4814      	ldr	r0, [pc, #80]	; (8005e8c <stm32__i2c__mem_write+0x530>)
 8005e3c:	f240 2196 	movw	r1, #662	; 0x296
 8005e40:	f003 f8e2 	bl	8009008 <__gnat_rcheck_CE_Range_Check>
 8005e44:	627b      	str	r3, [r7, #36]	; 0x24
 8005e46:	e6df      	b.n	8005c08 <stm32__i2c__mem_write+0x2ac>
 8005e48:	68f8      	ldr	r0, [r7, #12]
 8005e4a:	6db9      	ldr	r1, [r7, #88]	; 0x58
 8005e4c:	f7ff f880 	bl	8004f50 <stm32__i2c__wait_stop_flag>
 8005e50:	4603      	mov	r3, r0
 8005e52:	757b      	strb	r3, [r7, #21]
 8005e54:	7d7b      	ldrb	r3, [r7, #21]
 8005e56:	2b00      	cmp	r3, #0
 8005e58:	d110      	bne.n	8005e7c <stm32__i2c__mem_write+0x520>
 8005e5a:	68f8      	ldr	r0, [r7, #12]
 8005e5c:	f7fe ff30 	bl	8004cc0 <stm32__i2c__reset_config>
 8005e60:	68fb      	ldr	r3, [r7, #12]
 8005e62:	2201      	movs	r2, #1
 8005e64:	751a      	strb	r2, [r3, #20]
 8005e66:	2300      	movs	r3, #0
 8005e68:	757b      	strb	r3, [r7, #21]
 8005e6a:	e008      	b.n	8005e7e <stm32__i2c__mem_write+0x522>
 8005e6c:	bf00      	nop
 8005e6e:	e006      	b.n	8005e7e <stm32__i2c__mem_write+0x522>
 8005e70:	bf00      	nop
 8005e72:	e004      	b.n	8005e7e <stm32__i2c__mem_write+0x522>
 8005e74:	bf00      	nop
 8005e76:	e002      	b.n	8005e7e <stm32__i2c__mem_write+0x522>
 8005e78:	bf00      	nop
 8005e7a:	e000      	b.n	8005e7e <stm32__i2c__mem_write+0x522>
 8005e7c:	bf00      	nop
 8005e7e:	7d7b      	ldrb	r3, [r7, #21]
 8005e80:	bf00      	nop
 8005e82:	4618      	mov	r0, r3
 8005e84:	372c      	adds	r7, #44	; 0x2c
 8005e86:	46bd      	mov	sp, r7
 8005e88:	e8bd 8ff0 	ldmia.w	sp!, {r4, r5, r6, r7, r8, r9, sl, fp, pc}
 8005e8c:	0800da68 	.word	0x0800da68
 8005e90:	7ffffffe 	.word	0x7ffffffe

08005e94 <stm32__i2c__mem_read>:
 8005e94:	b5f0      	push	{r4, r5, r6, r7, lr}
 8005e96:	b08d      	sub	sp, #52	; 0x34
 8005e98:	af02      	add	r7, sp, #8
 8005e9a:	60f8      	str	r0, [r7, #12]
 8005e9c:	4608      	mov	r0, r1
 8005e9e:	4611      	mov	r1, r2
 8005ea0:	461a      	mov	r2, r3
 8005ea2:	4603      	mov	r3, r0
 8005ea4:	817b      	strh	r3, [r7, #10]
 8005ea6:	460b      	mov	r3, r1
 8005ea8:	813b      	strh	r3, [r7, #8]
 8005eaa:	4613      	mov	r3, r2
 8005eac:	71fb      	strb	r3, [r7, #7]
 8005eae:	68f8      	ldr	r0, [r7, #12]
 8005eb0:	f7fe fe7c 	bl	8004bac <stm32__i2c__is_configured>
 8005eb4:	4603      	mov	r3, r0
 8005eb6:	f083 0301 	eor.w	r3, r3, #1
 8005eba:	b2db      	uxtb	r3, r3
 8005ebc:	2b00      	cmp	r3, #0
 8005ebe:	d005      	beq.n	8005ecc <stm32__i2c__mem_read+0x38>
 8005ec0:	4ca7      	ldr	r4, [pc, #668]	; (8006160 <stm32__i2c__mem_read+0x2cc>)
 8005ec2:	4da8      	ldr	r5, [pc, #672]	; (8006164 <stm32__i2c__mem_read+0x2d0>)
 8005ec4:	4620      	mov	r0, r4
 8005ec6:	4629      	mov	r1, r5
 8005ec8:	f003 fdb6 	bl	8009a38 <system__assertions__raise_assert_failure>
 8005ecc:	6c7b      	ldr	r3, [r7, #68]	; 0x44
 8005ece:	681b      	ldr	r3, [r3, #0]
 8005ed0:	461e      	mov	r6, r3
 8005ed2:	2300      	movs	r3, #0
 8005ed4:	627b      	str	r3, [r7, #36]	; 0x24
 8005ed6:	2300      	movs	r3, #0
 8005ed8:	623b      	str	r3, [r7, #32]
 8005eda:	f001 f9f7 	bl	80072cc <ada__real_time__clock>
 8005ede:	4603      	mov	r3, r0
 8005ee0:	460c      	mov	r4, r1
 8005ee2:	e9c7 3406 	strd	r3, r4, [r7, #24]
 8005ee6:	68fb      	ldr	r3, [r7, #12]
 8005ee8:	685b      	ldr	r3, [r3, #4]
 8005eea:	3318      	adds	r3, #24
 8005eec:	681b      	ldr	r3, [r3, #0]
 8005eee:	f3c3 33c0 	ubfx	r3, r3, #15, #1
 8005ef2:	b2db      	uxtb	r3, r3
 8005ef4:	2b00      	cmp	r3, #0
 8005ef6:	d017      	beq.n	8005f28 <stm32__i2c__mem_read+0x94>
 8005ef8:	f001 f9e8 	bl	80072cc <ada__real_time__clock>
 8005efc:	4603      	mov	r3, r0
 8005efe:	460c      	mov	r4, r1
 8005f00:	4618      	mov	r0, r3
 8005f02:	4621      	mov	r1, r4
 8005f04:	e9d7 2306 	ldrd	r2, r3, [r7, #24]
 8005f08:	f001 f9be 	bl	8007288 <ada__real_time__Osubtract__2>
 8005f0c:	4604      	mov	r4, r0
 8005f0e:	460d      	mov	r5, r1
 8005f10:	6cbb      	ldr	r3, [r7, #72]	; 0x48
 8005f12:	4618      	mov	r0, r3
 8005f14:	f001 fa22 	bl	800735c <ada__real_time__milliseconds>
 8005f18:	4602      	mov	r2, r0
 8005f1a:	460b      	mov	r3, r1
 8005f1c:	42a2      	cmp	r2, r4
 8005f1e:	41ab      	sbcs	r3, r5
 8005f20:	dae1      	bge.n	8005ee6 <stm32__i2c__mem_read+0x52>
 8005f22:	2303      	movs	r3, #3
 8005f24:	757b      	strb	r3, [r7, #21]
 8005f26:	e319      	b.n	800655c <stm32__i2c__mem_read+0x6c8>
 8005f28:	6c7b      	ldr	r3, [r7, #68]	; 0x44
 8005f2a:	681a      	ldr	r2, [r3, #0]
 8005f2c:	6c7b      	ldr	r3, [r7, #68]	; 0x44
 8005f2e:	685b      	ldr	r3, [r3, #4]
 8005f30:	429a      	cmp	r2, r3
 8005f32:	dd02      	ble.n	8005f3a <stm32__i2c__mem_read+0xa6>
 8005f34:	2301      	movs	r3, #1
 8005f36:	757b      	strb	r3, [r7, #21]
 8005f38:	e310      	b.n	800655c <stm32__i2c__mem_read+0x6c8>
 8005f3a:	68fb      	ldr	r3, [r7, #12]
 8005f3c:	7d1b      	ldrb	r3, [r3, #20]
 8005f3e:	2b01      	cmp	r3, #1
 8005f40:	d002      	beq.n	8005f48 <stm32__i2c__mem_read+0xb4>
 8005f42:	2303      	movs	r3, #3
 8005f44:	757b      	strb	r3, [r7, #21]
 8005f46:	e309      	b.n	800655c <stm32__i2c__mem_read+0x6c8>
 8005f48:	68fb      	ldr	r3, [r7, #12]
 8005f4a:	2205      	movs	r2, #5
 8005f4c:	751a      	strb	r2, [r3, #20]
 8005f4e:	79fb      	ldrb	r3, [r7, #7]
 8005f50:	2b01      	cmp	r3, #1
 8005f52:	d904      	bls.n	8005f5e <stm32__i2c__mem_read+0xca>
 8005f54:	4884      	ldr	r0, [pc, #528]	; (8006168 <stm32__i2c__mem_read+0x2d4>)
 8005f56:	f240 21d2 	movw	r1, #722	; 0x2d2
 8005f5a:	f003 f845 	bl	8008fe8 <__gnat_rcheck_CE_Invalid_Data>
 8005f5e:	79fb      	ldrb	r3, [r7, #7]
 8005f60:	2b00      	cmp	r3, #0
 8005f62:	d101      	bne.n	8005f68 <stm32__i2c__mem_read+0xd4>
 8005f64:	2201      	movs	r2, #1
 8005f66:	e000      	b.n	8005f6a <stm32__i2c__mem_read+0xd6>
 8005f68:	2202      	movs	r2, #2
 8005f6a:	8979      	ldrh	r1, [r7, #10]
 8005f6c:	2303      	movs	r3, #3
 8005f6e:	9300      	str	r3, [sp, #0]
 8005f70:	68f8      	ldr	r0, [r7, #12]
 8005f72:	2302      	movs	r3, #2
 8005f74:	f7fe fe2c 	bl	8004bd0 <stm32__i2c__config_transfer>
 8005f78:	68f8      	ldr	r0, [r7, #12]
 8005f7a:	6cb9      	ldr	r1, [r7, #72]	; 0x48
 8005f7c:	f7fe ff56 	bl	8004e2c <stm32__i2c__wait_tx_interrupt_status>
 8005f80:	4603      	mov	r3, r0
 8005f82:	757b      	strb	r3, [r7, #21]
 8005f84:	7d7b      	ldrb	r3, [r7, #21]
 8005f86:	2b00      	cmp	r3, #0
 8005f88:	f040 82e3 	bne.w	8006552 <stm32__i2c__mem_read+0x6be>
 8005f8c:	79fb      	ldrb	r3, [r7, #7]
 8005f8e:	2b01      	cmp	r3, #1
 8005f90:	d904      	bls.n	8005f9c <stm32__i2c__mem_read+0x108>
 8005f92:	4875      	ldr	r0, [pc, #468]	; (8006168 <stm32__i2c__mem_read+0x2d4>)
 8005f94:	f240 21de 	movw	r1, #734	; 0x2de
 8005f98:	f003 f826 	bl	8008fe8 <__gnat_rcheck_CE_Invalid_Data>
 8005f9c:	79fb      	ldrb	r3, [r7, #7]
 8005f9e:	2b00      	cmp	r3, #0
 8005fa0:	d114      	bne.n	8005fcc <stm32__i2c__mem_read+0x138>
 8005fa2:	893b      	ldrh	r3, [r7, #8]
 8005fa4:	2bff      	cmp	r3, #255	; 0xff
 8005fa6:	d904      	bls.n	8005fb2 <stm32__i2c__mem_read+0x11e>
 8005fa8:	486f      	ldr	r0, [pc, #444]	; (8006168 <stm32__i2c__mem_read+0x2d4>)
 8005faa:	f44f 7138 	mov.w	r1, #736	; 0x2e0
 8005fae:	f003 f82b 	bl	8009008 <__gnat_rcheck_CE_Range_Check>
 8005fb2:	68fb      	ldr	r3, [r7, #12]
 8005fb4:	685b      	ldr	r3, [r3, #4]
 8005fb6:	3328      	adds	r3, #40	; 0x28
 8005fb8:	681b      	ldr	r3, [r3, #0]
 8005fba:	893a      	ldrh	r2, [r7, #8]
 8005fbc:	b2d2      	uxtb	r2, r2
 8005fbe:	f362 0307 	bfi	r3, r2, #0, #8
 8005fc2:	68fa      	ldr	r2, [r7, #12]
 8005fc4:	6852      	ldr	r2, [r2, #4]
 8005fc6:	3228      	adds	r2, #40	; 0x28
 8005fc8:	6013      	str	r3, [r2, #0]
 8005fca:	e039      	b.n	8006040 <stm32__i2c__mem_read+0x1ac>
 8005fcc:	893b      	ldrh	r3, [r7, #8]
 8005fce:	0a1b      	lsrs	r3, r3, #8
 8005fd0:	b29b      	uxth	r3, r3
 8005fd2:	2bff      	cmp	r3, #255	; 0xff
 8005fd4:	d904      	bls.n	8005fe0 <stm32__i2c__mem_read+0x14c>
 8005fd6:	4864      	ldr	r0, [pc, #400]	; (8006168 <stm32__i2c__mem_read+0x2d4>)
 8005fd8:	f44f 7139 	mov.w	r1, #740	; 0x2e4
 8005fdc:	f003 f814 	bl	8009008 <__gnat_rcheck_CE_Range_Check>
 8005fe0:	893b      	ldrh	r3, [r7, #8]
 8005fe2:	0a1b      	lsrs	r3, r3, #8
 8005fe4:	b29b      	uxth	r3, r3
 8005fe6:	75fb      	strb	r3, [r7, #23]
 8005fe8:	893b      	ldrh	r3, [r7, #8]
 8005fea:	b2db      	uxtb	r3, r3
 8005fec:	b29b      	uxth	r3, r3
 8005fee:	2bff      	cmp	r3, #255	; 0xff
 8005ff0:	d904      	bls.n	8005ffc <stm32__i2c__mem_read+0x168>
 8005ff2:	485d      	ldr	r0, [pc, #372]	; (8006168 <stm32__i2c__mem_read+0x2d4>)
 8005ff4:	f240 21e5 	movw	r1, #741	; 0x2e5
 8005ff8:	f003 f806 	bl	8009008 <__gnat_rcheck_CE_Range_Check>
 8005ffc:	893b      	ldrh	r3, [r7, #8]
 8005ffe:	75bb      	strb	r3, [r7, #22]
 8006000:	68fb      	ldr	r3, [r7, #12]
 8006002:	685b      	ldr	r3, [r3, #4]
 8006004:	3328      	adds	r3, #40	; 0x28
 8006006:	681b      	ldr	r3, [r3, #0]
 8006008:	7dfa      	ldrb	r2, [r7, #23]
 800600a:	f362 0307 	bfi	r3, r2, #0, #8
 800600e:	68fa      	ldr	r2, [r7, #12]
 8006010:	6852      	ldr	r2, [r2, #4]
 8006012:	3228      	adds	r2, #40	; 0x28
 8006014:	6013      	str	r3, [r2, #0]
 8006016:	68f8      	ldr	r0, [r7, #12]
 8006018:	6cb9      	ldr	r1, [r7, #72]	; 0x48
 800601a:	f7fe ff07 	bl	8004e2c <stm32__i2c__wait_tx_interrupt_status>
 800601e:	4603      	mov	r3, r0
 8006020:	757b      	strb	r3, [r7, #21]
 8006022:	7d7b      	ldrb	r3, [r7, #21]
 8006024:	2b00      	cmp	r3, #0
 8006026:	f040 8296 	bne.w	8006556 <stm32__i2c__mem_read+0x6c2>
 800602a:	68fb      	ldr	r3, [r7, #12]
 800602c:	685b      	ldr	r3, [r3, #4]
 800602e:	3328      	adds	r3, #40	; 0x28
 8006030:	681b      	ldr	r3, [r3, #0]
 8006032:	7dba      	ldrb	r2, [r7, #22]
 8006034:	f362 0307 	bfi	r3, r2, #0, #8
 8006038:	68fa      	ldr	r2, [r7, #12]
 800603a:	6852      	ldr	r2, [r2, #4]
 800603c:	3228      	adds	r2, #40	; 0x28
 800603e:	6013      	str	r3, [r2, #0]
 8006040:	68fb      	ldr	r3, [r7, #12]
 8006042:	685b      	ldr	r3, [r3, #4]
 8006044:	3318      	adds	r3, #24
 8006046:	681b      	ldr	r3, [r3, #0]
 8006048:	f3c3 1380 	ubfx	r3, r3, #6, #1
 800604c:	b2db      	uxtb	r3, r3
 800604e:	f083 0301 	eor.w	r3, r3, #1
 8006052:	b2db      	uxtb	r3, r3
 8006054:	2b00      	cmp	r3, #0
 8006056:	d001      	beq.n	800605c <stm32__i2c__mem_read+0x1c8>
 8006058:	bf00      	nop
 800605a:	e7f1      	b.n	8006040 <stm32__i2c__mem_read+0x1ac>
 800605c:	6c7b      	ldr	r3, [r7, #68]	; 0x44
 800605e:	681b      	ldr	r3, [r3, #0]
 8006060:	ea4f 74e3 	mov.w	r4, r3, asr #31
 8006064:	f06f 01fe 	mvn.w	r1, #254	; 0xfe
 8006068:	f06f 4200 	mvn.w	r2, #2147483648	; 0x80000000
 800606c:	4299      	cmp	r1, r3
 800606e:	eb72 0304 	sbcs.w	r3, r2, r4
 8006072:	da04      	bge.n	800607e <stm32__i2c__mem_read+0x1ea>
 8006074:	483c      	ldr	r0, [pc, #240]	; (8006168 <stm32__i2c__mem_read+0x2d4>)
 8006076:	f240 21f9 	movw	r1, #761	; 0x2f9
 800607a:	f002 ffbd 	bl	8008ff8 <__gnat_rcheck_CE_Overflow_Check>
 800607e:	6c7b      	ldr	r3, [r7, #68]	; 0x44
 8006080:	681b      	ldr	r3, [r3, #0]
 8006082:	ea4f 74e3 	mov.w	r4, r3, asr #31
 8006086:	f113 01fe 	adds.w	r1, r3, #254	; 0xfe
 800608a:	f144 0200 	adc.w	r2, r4, #0
 800608e:	6c7b      	ldr	r3, [r7, #68]	; 0x44
 8006090:	685b      	ldr	r3, [r3, #4]
 8006092:	ea4f 74e3 	mov.w	r4, r3, asr #31
 8006096:	4299      	cmp	r1, r3
 8006098:	eb72 0304 	sbcs.w	r3, r2, r4
 800609c:	da0b      	bge.n	80060b6 <stm32__i2c__mem_read+0x222>
 800609e:	897a      	ldrh	r2, [r7, #10]
 80060a0:	2302      	movs	r3, #2
 80060a2:	9300      	str	r3, [sp, #0]
 80060a4:	68f8      	ldr	r0, [r7, #12]
 80060a6:	4611      	mov	r1, r2
 80060a8:	22ff      	movs	r2, #255	; 0xff
 80060aa:	2300      	movs	r3, #0
 80060ac:	f7fe fd90 	bl	8004bd0 <stm32__i2c__config_transfer>
 80060b0:	23ff      	movs	r3, #255	; 0xff
 80060b2:	627b      	str	r3, [r7, #36]	; 0x24
 80060b4:	e05e      	b.n	8006174 <stm32__i2c__mem_read+0x2e0>
 80060b6:	6c7b      	ldr	r3, [r7, #68]	; 0x44
 80060b8:	681b      	ldr	r3, [r3, #0]
 80060ba:	ea4f 74e3 	mov.w	r4, r3, asr #31
 80060be:	f113 01fe 	adds.w	r1, r3, #254	; 0xfe
 80060c2:	f144 0200 	adc.w	r2, r4, #0
 80060c6:	6c7b      	ldr	r3, [r7, #68]	; 0x44
 80060c8:	685b      	ldr	r3, [r3, #4]
 80060ca:	ea4f 74e3 	mov.w	r4, r3, asr #31
 80060ce:	4299      	cmp	r1, r3
 80060d0:	eb72 0304 	sbcs.w	r3, r2, r4
 80060d4:	da04      	bge.n	80060e0 <stm32__i2c__mem_read+0x24c>
 80060d6:	4824      	ldr	r0, [pc, #144]	; (8006168 <stm32__i2c__mem_read+0x2d4>)
 80060d8:	f240 21ff 	movw	r1, #767	; 0x2ff
 80060dc:	f002 ff94 	bl	8009008 <__gnat_rcheck_CE_Range_Check>
 80060e0:	6c7b      	ldr	r3, [r7, #68]	; 0x44
 80060e2:	685a      	ldr	r2, [r3, #4]
 80060e4:	6c7b      	ldr	r3, [r7, #68]	; 0x44
 80060e6:	681b      	ldr	r3, [r3, #0]
 80060e8:	429a      	cmp	r2, r3
 80060ea:	db0a      	blt.n	8006102 <stm32__i2c__mem_read+0x26e>
 80060ec:	6c7b      	ldr	r3, [r7, #68]	; 0x44
 80060ee:	685b      	ldr	r3, [r3, #4]
 80060f0:	b2da      	uxtb	r2, r3
 80060f2:	6c7b      	ldr	r3, [r7, #68]	; 0x44
 80060f4:	681b      	ldr	r3, [r3, #0]
 80060f6:	b2db      	uxtb	r3, r3
 80060f8:	1ad3      	subs	r3, r2, r3
 80060fa:	b2db      	uxtb	r3, r3
 80060fc:	3301      	adds	r3, #1
 80060fe:	b2db      	uxtb	r3, r3
 8006100:	e000      	b.n	8006104 <stm32__i2c__mem_read+0x270>
 8006102:	2300      	movs	r3, #0
 8006104:	8979      	ldrh	r1, [r7, #10]
 8006106:	2202      	movs	r2, #2
 8006108:	9200      	str	r2, [sp, #0]
 800610a:	68f8      	ldr	r0, [r7, #12]
 800610c:	461a      	mov	r2, r3
 800610e:	2301      	movs	r3, #1
 8006110:	f7fe fd5e 	bl	8004bd0 <stm32__i2c__config_transfer>
 8006114:	6c7b      	ldr	r3, [r7, #68]	; 0x44
 8006116:	681b      	ldr	r3, [r3, #0]
 8006118:	ea4f 74e3 	mov.w	r4, r3, asr #31
 800611c:	4913      	ldr	r1, [pc, #76]	; (800616c <stm32__i2c__mem_read+0x2d8>)
 800611e:	f04f 0200 	mov.w	r2, #0
 8006122:	18c9      	adds	r1, r1, r3
 8006124:	eb42 0204 	adc.w	r2, r2, r4
 8006128:	6c7b      	ldr	r3, [r7, #68]	; 0x44
 800612a:	685b      	ldr	r3, [r3, #4]
 800612c:	ea4f 74e3 	mov.w	r4, r3, asr #31
 8006130:	4299      	cmp	r1, r3
 8006132:	eb72 0304 	sbcs.w	r3, r2, r4
 8006136:	da04      	bge.n	8006142 <stm32__i2c__mem_read+0x2ae>
 8006138:	480b      	ldr	r0, [pc, #44]	; (8006168 <stm32__i2c__mem_read+0x2d4>)
 800613a:	f44f 7140 	mov.w	r1, #768	; 0x300
 800613e:	f002 ff63 	bl	8009008 <__gnat_rcheck_CE_Range_Check>
 8006142:	6c7b      	ldr	r3, [r7, #68]	; 0x44
 8006144:	685a      	ldr	r2, [r3, #4]
 8006146:	6c7b      	ldr	r3, [r7, #68]	; 0x44
 8006148:	681b      	ldr	r3, [r3, #0]
 800614a:	429a      	cmp	r2, r3
 800614c:	db10      	blt.n	8006170 <stm32__i2c__mem_read+0x2dc>
 800614e:	6c7b      	ldr	r3, [r7, #68]	; 0x44
 8006150:	685b      	ldr	r3, [r3, #4]
 8006152:	461a      	mov	r2, r3
 8006154:	6c7b      	ldr	r3, [r7, #68]	; 0x44
 8006156:	681b      	ldr	r3, [r3, #0]
 8006158:	1ad3      	subs	r3, r2, r3
 800615a:	3301      	adds	r3, #1
 800615c:	e009      	b.n	8006172 <stm32__i2c__mem_read+0x2de>
 800615e:	bf00      	nop
 8006160:	0800dafc 	.word	0x0800dafc
 8006164:	0800da2c 	.word	0x0800da2c
 8006168:	0800da68 	.word	0x0800da68
 800616c:	7ffffffe 	.word	0x7ffffffe
 8006170:	2300      	movs	r3, #0
 8006172:	627b      	str	r3, [r7, #36]	; 0x24
 8006174:	6c7b      	ldr	r3, [r7, #68]	; 0x44
 8006176:	681b      	ldr	r3, [r3, #0]
 8006178:	ea4f 74e3 	mov.w	r4, r3, asr #31
 800617c:	49a7      	ldr	r1, [pc, #668]	; (800641c <stm32__i2c__mem_read+0x588>)
 800617e:	f04f 0200 	mov.w	r2, #0
 8006182:	18c9      	adds	r1, r1, r3
 8006184:	eb42 0204 	adc.w	r2, r2, r4
 8006188:	6c7b      	ldr	r3, [r7, #68]	; 0x44
 800618a:	685b      	ldr	r3, [r3, #4]
 800618c:	ea4f 74e3 	mov.w	r4, r3, asr #31
 8006190:	4299      	cmp	r1, r3
 8006192:	eb72 0304 	sbcs.w	r3, r2, r4
 8006196:	da04      	bge.n	80061a2 <stm32__i2c__mem_read+0x30e>
 8006198:	48a1      	ldr	r0, [pc, #644]	; (8006420 <stm32__i2c__mem_read+0x58c>)
 800619a:	f44f 7141 	mov.w	r1, #772	; 0x304
 800619e:	f002 ff33 	bl	8009008 <__gnat_rcheck_CE_Range_Check>
 80061a2:	6a3b      	ldr	r3, [r7, #32]
 80061a4:	6c7a      	ldr	r2, [r7, #68]	; 0x44
 80061a6:	6851      	ldr	r1, [r2, #4]
 80061a8:	6c7a      	ldr	r2, [r7, #68]	; 0x44
 80061aa:	6812      	ldr	r2, [r2, #0]
 80061ac:	4291      	cmp	r1, r2
 80061ae:	db07      	blt.n	80061c0 <stm32__i2c__mem_read+0x32c>
 80061b0:	6c7a      	ldr	r2, [r7, #68]	; 0x44
 80061b2:	6852      	ldr	r2, [r2, #4]
 80061b4:	4611      	mov	r1, r2
 80061b6:	6c7a      	ldr	r2, [r7, #68]	; 0x44
 80061b8:	6812      	ldr	r2, [r2, #0]
 80061ba:	1a8a      	subs	r2, r1, r2
 80061bc:	3201      	adds	r2, #1
 80061be:	e000      	b.n	80061c2 <stm32__i2c__mem_read+0x32e>
 80061c0:	2200      	movs	r2, #0
 80061c2:	4293      	cmp	r3, r2
 80061c4:	f280 81b3 	bge.w	800652e <stm32__i2c__mem_read+0x69a>
 80061c8:	68fb      	ldr	r3, [r7, #12]
 80061ca:	685b      	ldr	r3, [r3, #4]
 80061cc:	3318      	adds	r3, #24
 80061ce:	681b      	ldr	r3, [r3, #0]
 80061d0:	f3c3 0380 	ubfx	r3, r3, #2, #1
 80061d4:	b2db      	uxtb	r3, r3
 80061d6:	f083 0301 	eor.w	r3, r3, #1
 80061da:	b2db      	uxtb	r3, r3
 80061dc:	2b00      	cmp	r3, #0
 80061de:	d001      	beq.n	80061e4 <stm32__i2c__mem_read+0x350>
 80061e0:	bf00      	nop
 80061e2:	e7f1      	b.n	80061c8 <stm32__i2c__mem_read+0x334>
 80061e4:	6c7b      	ldr	r3, [r7, #68]	; 0x44
 80061e6:	681b      	ldr	r3, [r3, #0]
 80061e8:	461a      	mov	r2, r3
 80061ea:	6a3b      	ldr	r3, [r7, #32]
 80061ec:	4413      	add	r3, r2
 80061ee:	461a      	mov	r2, r3
 80061f0:	6c7b      	ldr	r3, [r7, #68]	; 0x44
 80061f2:	681b      	ldr	r3, [r3, #0]
 80061f4:	429a      	cmp	r2, r3
 80061f6:	da04      	bge.n	8006202 <stm32__i2c__mem_read+0x36e>
 80061f8:	4889      	ldr	r0, [pc, #548]	; (8006420 <stm32__i2c__mem_read+0x58c>)
 80061fa:	f240 3109 	movw	r1, #777	; 0x309
 80061fe:	f002 fefb 	bl	8008ff8 <__gnat_rcheck_CE_Overflow_Check>
 8006202:	6c7b      	ldr	r3, [r7, #68]	; 0x44
 8006204:	681a      	ldr	r2, [r3, #0]
 8006206:	6a3b      	ldr	r3, [r7, #32]
 8006208:	4413      	add	r3, r2
 800620a:	6c7a      	ldr	r2, [r7, #68]	; 0x44
 800620c:	6812      	ldr	r2, [r2, #0]
 800620e:	429a      	cmp	r2, r3
 8006210:	dc03      	bgt.n	800621a <stm32__i2c__mem_read+0x386>
 8006212:	6c7a      	ldr	r2, [r7, #68]	; 0x44
 8006214:	6852      	ldr	r2, [r2, #4]
 8006216:	429a      	cmp	r2, r3
 8006218:	da04      	bge.n	8006224 <stm32__i2c__mem_read+0x390>
 800621a:	4881      	ldr	r0, [pc, #516]	; (8006420 <stm32__i2c__mem_read+0x58c>)
 800621c:	f240 3109 	movw	r1, #777	; 0x309
 8006220:	f002 feda 	bl	8008fd8 <__gnat_rcheck_CE_Index_Check>
 8006224:	6c3a      	ldr	r2, [r7, #64]	; 0x40
 8006226:	4618      	mov	r0, r3
 8006228:	68fb      	ldr	r3, [r7, #12]
 800622a:	685b      	ldr	r3, [r3, #4]
 800622c:	3324      	adds	r3, #36	; 0x24
 800622e:	681b      	ldr	r3, [r3, #0]
 8006230:	b2d9      	uxtb	r1, r3
 8006232:	1b83      	subs	r3, r0, r6
 8006234:	54d1      	strb	r1, [r2, r3]
 8006236:	6a3b      	ldr	r3, [r7, #32]
 8006238:	f06f 4200 	mvn.w	r2, #2147483648	; 0x80000000
 800623c:	4293      	cmp	r3, r2
 800623e:	d104      	bne.n	800624a <stm32__i2c__mem_read+0x3b6>
 8006240:	4877      	ldr	r0, [pc, #476]	; (8006420 <stm32__i2c__mem_read+0x58c>)
 8006242:	f240 310a 	movw	r1, #778	; 0x30a
 8006246:	f002 fed7 	bl	8008ff8 <__gnat_rcheck_CE_Overflow_Check>
 800624a:	6a3b      	ldr	r3, [r7, #32]
 800624c:	3301      	adds	r3, #1
 800624e:	623b      	str	r3, [r7, #32]
 8006250:	6a7b      	ldr	r3, [r7, #36]	; 0x24
 8006252:	3b01      	subs	r3, #1
 8006254:	2b00      	cmp	r3, #0
 8006256:	da04      	bge.n	8006262 <stm32__i2c__mem_read+0x3ce>
 8006258:	4871      	ldr	r0, [pc, #452]	; (8006420 <stm32__i2c__mem_read+0x58c>)
 800625a:	f240 310b 	movw	r1, #779	; 0x30b
 800625e:	f002 fed3 	bl	8009008 <__gnat_rcheck_CE_Range_Check>
 8006262:	627b      	str	r3, [r7, #36]	; 0x24
 8006264:	6a7b      	ldr	r3, [r7, #36]	; 0x24
 8006266:	2b00      	cmp	r3, #0
 8006268:	d184      	bne.n	8006174 <stm32__i2c__mem_read+0x2e0>
 800626a:	6c7b      	ldr	r3, [r7, #68]	; 0x44
 800626c:	681b      	ldr	r3, [r3, #0]
 800626e:	ea4f 74e3 	mov.w	r4, r3, asr #31
 8006272:	496a      	ldr	r1, [pc, #424]	; (800641c <stm32__i2c__mem_read+0x588>)
 8006274:	f04f 0200 	mov.w	r2, #0
 8006278:	18c9      	adds	r1, r1, r3
 800627a:	eb42 0204 	adc.w	r2, r2, r4
 800627e:	6c7b      	ldr	r3, [r7, #68]	; 0x44
 8006280:	685b      	ldr	r3, [r3, #4]
 8006282:	ea4f 74e3 	mov.w	r4, r3, asr #31
 8006286:	4299      	cmp	r1, r3
 8006288:	eb72 0304 	sbcs.w	r3, r2, r4
 800628c:	da04      	bge.n	8006298 <stm32__i2c__mem_read+0x404>
 800628e:	4864      	ldr	r0, [pc, #400]	; (8006420 <stm32__i2c__mem_read+0x58c>)
 8006290:	f240 310e 	movw	r1, #782	; 0x30e
 8006294:	f002 feb8 	bl	8009008 <__gnat_rcheck_CE_Range_Check>
 8006298:	6a3b      	ldr	r3, [r7, #32]
 800629a:	6c7a      	ldr	r2, [r7, #68]	; 0x44
 800629c:	6851      	ldr	r1, [r2, #4]
 800629e:	6c7a      	ldr	r2, [r7, #68]	; 0x44
 80062a0:	6812      	ldr	r2, [r2, #0]
 80062a2:	4291      	cmp	r1, r2
 80062a4:	db07      	blt.n	80062b6 <stm32__i2c__mem_read+0x422>
 80062a6:	6c7a      	ldr	r2, [r7, #68]	; 0x44
 80062a8:	6852      	ldr	r2, [r2, #4]
 80062aa:	4611      	mov	r1, r2
 80062ac:	6c7a      	ldr	r2, [r7, #68]	; 0x44
 80062ae:	6812      	ldr	r2, [r2, #0]
 80062b0:	1a8a      	subs	r2, r1, r2
 80062b2:	3201      	adds	r2, #1
 80062b4:	e000      	b.n	80062b8 <stm32__i2c__mem_read+0x424>
 80062b6:	2200      	movs	r2, #0
 80062b8:	4293      	cmp	r3, r2
 80062ba:	bfb4      	ite	lt
 80062bc:	2301      	movlt	r3, #1
 80062be:	2300      	movge	r3, #0
 80062c0:	b2db      	uxtb	r3, r3
 80062c2:	2b00      	cmp	r3, #0
 80062c4:	f43f af56 	beq.w	8006174 <stm32__i2c__mem_read+0x2e0>
 80062c8:	68fb      	ldr	r3, [r7, #12]
 80062ca:	685b      	ldr	r3, [r3, #4]
 80062cc:	3318      	adds	r3, #24
 80062ce:	681b      	ldr	r3, [r3, #0]
 80062d0:	f3c3 13c0 	ubfx	r3, r3, #7, #1
 80062d4:	b2db      	uxtb	r3, r3
 80062d6:	f083 0301 	eor.w	r3, r3, #1
 80062da:	b2db      	uxtb	r3, r3
 80062dc:	2b00      	cmp	r3, #0
 80062de:	d001      	beq.n	80062e4 <stm32__i2c__mem_read+0x450>
 80062e0:	bf00      	nop
 80062e2:	e7f1      	b.n	80062c8 <stm32__i2c__mem_read+0x434>
 80062e4:	6c7b      	ldr	r3, [r7, #68]	; 0x44
 80062e6:	681b      	ldr	r3, [r3, #0]
 80062e8:	ea4f 74e3 	mov.w	r4, r3, asr #31
 80062ec:	494b      	ldr	r1, [pc, #300]	; (800641c <stm32__i2c__mem_read+0x588>)
 80062ee:	f04f 0200 	mov.w	r2, #0
 80062f2:	18c9      	adds	r1, r1, r3
 80062f4:	eb42 0204 	adc.w	r2, r2, r4
 80062f8:	6c7b      	ldr	r3, [r7, #68]	; 0x44
 80062fa:	685b      	ldr	r3, [r3, #4]
 80062fc:	ea4f 74e3 	mov.w	r4, r3, asr #31
 8006300:	4299      	cmp	r1, r3
 8006302:	eb72 0304 	sbcs.w	r3, r2, r4
 8006306:	da04      	bge.n	8006312 <stm32__i2c__mem_read+0x47e>
 8006308:	4845      	ldr	r0, [pc, #276]	; (8006420 <stm32__i2c__mem_read+0x58c>)
 800630a:	f240 3115 	movw	r1, #789	; 0x315
 800630e:	f002 fe7b 	bl	8009008 <__gnat_rcheck_CE_Range_Check>
 8006312:	6c7b      	ldr	r3, [r7, #68]	; 0x44
 8006314:	685a      	ldr	r2, [r3, #4]
 8006316:	6c7b      	ldr	r3, [r7, #68]	; 0x44
 8006318:	681b      	ldr	r3, [r3, #0]
 800631a:	429a      	cmp	r2, r3
 800631c:	db07      	blt.n	800632e <stm32__i2c__mem_read+0x49a>
 800631e:	6c7b      	ldr	r3, [r7, #68]	; 0x44
 8006320:	685b      	ldr	r3, [r3, #4]
 8006322:	461a      	mov	r2, r3
 8006324:	6c7b      	ldr	r3, [r7, #68]	; 0x44
 8006326:	681b      	ldr	r3, [r3, #0]
 8006328:	1ad3      	subs	r3, r2, r3
 800632a:	3301      	adds	r3, #1
 800632c:	e000      	b.n	8006330 <stm32__i2c__mem_read+0x49c>
 800632e:	2300      	movs	r3, #0
 8006330:	6a3a      	ldr	r2, [r7, #32]
 8006332:	1a9b      	subs	r3, r3, r2
 8006334:	4619      	mov	r1, r3
 8006336:	6c7b      	ldr	r3, [r7, #68]	; 0x44
 8006338:	685a      	ldr	r2, [r3, #4]
 800633a:	6c7b      	ldr	r3, [r7, #68]	; 0x44
 800633c:	681b      	ldr	r3, [r3, #0]
 800633e:	429a      	cmp	r2, r3
 8006340:	db07      	blt.n	8006352 <stm32__i2c__mem_read+0x4be>
 8006342:	6c7b      	ldr	r3, [r7, #68]	; 0x44
 8006344:	685b      	ldr	r3, [r3, #4]
 8006346:	461a      	mov	r2, r3
 8006348:	6c7b      	ldr	r3, [r7, #68]	; 0x44
 800634a:	681b      	ldr	r3, [r3, #0]
 800634c:	1ad3      	subs	r3, r2, r3
 800634e:	3301      	adds	r3, #1
 8006350:	e000      	b.n	8006354 <stm32__i2c__mem_read+0x4c0>
 8006352:	2300      	movs	r3, #0
 8006354:	4299      	cmp	r1, r3
 8006356:	dd04      	ble.n	8006362 <stm32__i2c__mem_read+0x4ce>
 8006358:	4831      	ldr	r0, [pc, #196]	; (8006420 <stm32__i2c__mem_read+0x58c>)
 800635a:	f240 3115 	movw	r1, #789	; 0x315
 800635e:	f002 fe4b 	bl	8008ff8 <__gnat_rcheck_CE_Overflow_Check>
 8006362:	6c7b      	ldr	r3, [r7, #68]	; 0x44
 8006364:	685a      	ldr	r2, [r3, #4]
 8006366:	6c7b      	ldr	r3, [r7, #68]	; 0x44
 8006368:	681b      	ldr	r3, [r3, #0]
 800636a:	429a      	cmp	r2, r3
 800636c:	db08      	blt.n	8006380 <stm32__i2c__mem_read+0x4ec>
 800636e:	6c7b      	ldr	r3, [r7, #68]	; 0x44
 8006370:	685b      	ldr	r3, [r3, #4]
 8006372:	461a      	mov	r2, r3
 8006374:	6c7b      	ldr	r3, [r7, #68]	; 0x44
 8006376:	681b      	ldr	r3, [r3, #0]
 8006378:	1ad3      	subs	r3, r2, r3
 800637a:	3301      	adds	r3, #1
 800637c:	461a      	mov	r2, r3
 800637e:	e000      	b.n	8006382 <stm32__i2c__mem_read+0x4ee>
 8006380:	2200      	movs	r2, #0
 8006382:	6a3b      	ldr	r3, [r7, #32]
 8006384:	1ad3      	subs	r3, r2, r3
 8006386:	2bff      	cmp	r3, #255	; 0xff
 8006388:	bfcc      	ite	gt
 800638a:	2301      	movgt	r3, #1
 800638c:	2300      	movle	r3, #0
 800638e:	b2db      	uxtb	r3, r3
 8006390:	2b00      	cmp	r3, #0
 8006392:	d00b      	beq.n	80063ac <stm32__i2c__mem_read+0x518>
 8006394:	897a      	ldrh	r2, [r7, #10]
 8006396:	2300      	movs	r3, #0
 8006398:	9300      	str	r3, [sp, #0]
 800639a:	68f8      	ldr	r0, [r7, #12]
 800639c:	4611      	mov	r1, r2
 800639e:	22ff      	movs	r2, #255	; 0xff
 80063a0:	2300      	movs	r3, #0
 80063a2:	f7fe fc15 	bl	8004bd0 <stm32__i2c__config_transfer>
 80063a6:	23ff      	movs	r3, #255	; 0xff
 80063a8:	627b      	str	r3, [r7, #36]	; 0x24
 80063aa:	e6e3      	b.n	8006174 <stm32__i2c__mem_read+0x2e0>
 80063ac:	6c7b      	ldr	r3, [r7, #68]	; 0x44
 80063ae:	681b      	ldr	r3, [r3, #0]
 80063b0:	ea4f 74e3 	mov.w	r4, r3, asr #31
 80063b4:	4919      	ldr	r1, [pc, #100]	; (800641c <stm32__i2c__mem_read+0x588>)
 80063b6:	f04f 0200 	mov.w	r2, #0
 80063ba:	18c9      	adds	r1, r1, r3
 80063bc:	eb42 0204 	adc.w	r2, r2, r4
 80063c0:	6c7b      	ldr	r3, [r7, #68]	; 0x44
 80063c2:	685b      	ldr	r3, [r3, #4]
 80063c4:	ea4f 74e3 	mov.w	r4, r3, asr #31
 80063c8:	4299      	cmp	r1, r3
 80063ca:	eb72 0304 	sbcs.w	r3, r2, r4
 80063ce:	da04      	bge.n	80063da <stm32__i2c__mem_read+0x546>
 80063d0:	4813      	ldr	r0, [pc, #76]	; (8006420 <stm32__i2c__mem_read+0x58c>)
 80063d2:	f44f 7147 	mov.w	r1, #796	; 0x31c
 80063d6:	f002 fe17 	bl	8009008 <__gnat_rcheck_CE_Range_Check>
 80063da:	6c7b      	ldr	r3, [r7, #68]	; 0x44
 80063dc:	685a      	ldr	r2, [r3, #4]
 80063de:	6c7b      	ldr	r3, [r7, #68]	; 0x44
 80063e0:	681b      	ldr	r3, [r3, #0]
 80063e2:	429a      	cmp	r2, r3
 80063e4:	db07      	blt.n	80063f6 <stm32__i2c__mem_read+0x562>
 80063e6:	6c7b      	ldr	r3, [r7, #68]	; 0x44
 80063e8:	685b      	ldr	r3, [r3, #4]
 80063ea:	461a      	mov	r2, r3
 80063ec:	6c7b      	ldr	r3, [r7, #68]	; 0x44
 80063ee:	681b      	ldr	r3, [r3, #0]
 80063f0:	1ad3      	subs	r3, r2, r3
 80063f2:	3301      	adds	r3, #1
 80063f4:	e000      	b.n	80063f8 <stm32__i2c__mem_read+0x564>
 80063f6:	2300      	movs	r3, #0
 80063f8:	6a3a      	ldr	r2, [r7, #32]
 80063fa:	1a9b      	subs	r3, r3, r2
 80063fc:	4619      	mov	r1, r3
 80063fe:	6c7b      	ldr	r3, [r7, #68]	; 0x44
 8006400:	685a      	ldr	r2, [r3, #4]
 8006402:	6c7b      	ldr	r3, [r7, #68]	; 0x44
 8006404:	681b      	ldr	r3, [r3, #0]
 8006406:	429a      	cmp	r2, r3
 8006408:	db0c      	blt.n	8006424 <stm32__i2c__mem_read+0x590>
 800640a:	6c7b      	ldr	r3, [r7, #68]	; 0x44
 800640c:	685b      	ldr	r3, [r3, #4]
 800640e:	461a      	mov	r2, r3
 8006410:	6c7b      	ldr	r3, [r7, #68]	; 0x44
 8006412:	681b      	ldr	r3, [r3, #0]
 8006414:	1ad3      	subs	r3, r2, r3
 8006416:	3301      	adds	r3, #1
 8006418:	e005      	b.n	8006426 <stm32__i2c__mem_read+0x592>
 800641a:	bf00      	nop
 800641c:	7ffffffe 	.word	0x7ffffffe
 8006420:	0800da68 	.word	0x0800da68
 8006424:	2300      	movs	r3, #0
 8006426:	4299      	cmp	r1, r3
 8006428:	dd04      	ble.n	8006434 <stm32__i2c__mem_read+0x5a0>
 800642a:	484f      	ldr	r0, [pc, #316]	; (8006568 <stm32__i2c__mem_read+0x6d4>)
 800642c:	f44f 7147 	mov.w	r1, #796	; 0x31c
 8006430:	f002 fde2 	bl	8008ff8 <__gnat_rcheck_CE_Overflow_Check>
 8006434:	6c7b      	ldr	r3, [r7, #68]	; 0x44
 8006436:	685a      	ldr	r2, [r3, #4]
 8006438:	6c7b      	ldr	r3, [r7, #68]	; 0x44
 800643a:	681b      	ldr	r3, [r3, #0]
 800643c:	429a      	cmp	r2, r3
 800643e:	db08      	blt.n	8006452 <stm32__i2c__mem_read+0x5be>
 8006440:	6c7b      	ldr	r3, [r7, #68]	; 0x44
 8006442:	685b      	ldr	r3, [r3, #4]
 8006444:	461a      	mov	r2, r3
 8006446:	6c7b      	ldr	r3, [r7, #68]	; 0x44
 8006448:	681b      	ldr	r3, [r3, #0]
 800644a:	1ad3      	subs	r3, r2, r3
 800644c:	3301      	adds	r3, #1
 800644e:	461a      	mov	r2, r3
 8006450:	e000      	b.n	8006454 <stm32__i2c__mem_read+0x5c0>
 8006452:	2200      	movs	r2, #0
 8006454:	6a3b      	ldr	r3, [r7, #32]
 8006456:	1ad3      	subs	r3, r2, r3
 8006458:	2b00      	cmp	r3, #0
 800645a:	db01      	blt.n	8006460 <stm32__i2c__mem_read+0x5cc>
 800645c:	2bff      	cmp	r3, #255	; 0xff
 800645e:	dd04      	ble.n	800646a <stm32__i2c__mem_read+0x5d6>
 8006460:	4841      	ldr	r0, [pc, #260]	; (8006568 <stm32__i2c__mem_read+0x6d4>)
 8006462:	f44f 7147 	mov.w	r1, #796	; 0x31c
 8006466:	f002 fdcf 	bl	8009008 <__gnat_rcheck_CE_Range_Check>
 800646a:	b2da      	uxtb	r2, r3
 800646c:	8979      	ldrh	r1, [r7, #10]
 800646e:	2300      	movs	r3, #0
 8006470:	9300      	str	r3, [sp, #0]
 8006472:	68f8      	ldr	r0, [r7, #12]
 8006474:	2301      	movs	r3, #1
 8006476:	f7fe fbab 	bl	8004bd0 <stm32__i2c__config_transfer>
 800647a:	6c7b      	ldr	r3, [r7, #68]	; 0x44
 800647c:	681b      	ldr	r3, [r3, #0]
 800647e:	ea4f 74e3 	mov.w	r4, r3, asr #31
 8006482:	493a      	ldr	r1, [pc, #232]	; (800656c <stm32__i2c__mem_read+0x6d8>)
 8006484:	f04f 0200 	mov.w	r2, #0
 8006488:	18c9      	adds	r1, r1, r3
 800648a:	eb42 0204 	adc.w	r2, r2, r4
 800648e:	6c7b      	ldr	r3, [r7, #68]	; 0x44
 8006490:	685b      	ldr	r3, [r3, #4]
 8006492:	ea4f 74e3 	mov.w	r4, r3, asr #31
 8006496:	4299      	cmp	r1, r3
 8006498:	eb72 0304 	sbcs.w	r3, r2, r4
 800649c:	da04      	bge.n	80064a8 <stm32__i2c__mem_read+0x614>
 800649e:	4832      	ldr	r0, [pc, #200]	; (8006568 <stm32__i2c__mem_read+0x6d4>)
 80064a0:	f240 311f 	movw	r1, #799	; 0x31f
 80064a4:	f002 fdb0 	bl	8009008 <__gnat_rcheck_CE_Range_Check>
 80064a8:	6c7b      	ldr	r3, [r7, #68]	; 0x44
 80064aa:	685a      	ldr	r2, [r3, #4]
 80064ac:	6c7b      	ldr	r3, [r7, #68]	; 0x44
 80064ae:	681b      	ldr	r3, [r3, #0]
 80064b0:	429a      	cmp	r2, r3
 80064b2:	db07      	blt.n	80064c4 <stm32__i2c__mem_read+0x630>
 80064b4:	6c7b      	ldr	r3, [r7, #68]	; 0x44
 80064b6:	685b      	ldr	r3, [r3, #4]
 80064b8:	461a      	mov	r2, r3
 80064ba:	6c7b      	ldr	r3, [r7, #68]	; 0x44
 80064bc:	681b      	ldr	r3, [r3, #0]
 80064be:	1ad3      	subs	r3, r2, r3
 80064c0:	3301      	adds	r3, #1
 80064c2:	e000      	b.n	80064c6 <stm32__i2c__mem_read+0x632>
 80064c4:	2300      	movs	r3, #0
 80064c6:	6a3a      	ldr	r2, [r7, #32]
 80064c8:	1a9b      	subs	r3, r3, r2
 80064ca:	4619      	mov	r1, r3
 80064cc:	6c7b      	ldr	r3, [r7, #68]	; 0x44
 80064ce:	685a      	ldr	r2, [r3, #4]
 80064d0:	6c7b      	ldr	r3, [r7, #68]	; 0x44
 80064d2:	681b      	ldr	r3, [r3, #0]
 80064d4:	429a      	cmp	r2, r3
 80064d6:	db07      	blt.n	80064e8 <stm32__i2c__mem_read+0x654>
 80064d8:	6c7b      	ldr	r3, [r7, #68]	; 0x44
 80064da:	685b      	ldr	r3, [r3, #4]
 80064dc:	461a      	mov	r2, r3
 80064de:	6c7b      	ldr	r3, [r7, #68]	; 0x44
 80064e0:	681b      	ldr	r3, [r3, #0]
 80064e2:	1ad3      	subs	r3, r2, r3
 80064e4:	3301      	adds	r3, #1
 80064e6:	e000      	b.n	80064ea <stm32__i2c__mem_read+0x656>
 80064e8:	2300      	movs	r3, #0
 80064ea:	4299      	cmp	r1, r3
 80064ec:	dd04      	ble.n	80064f8 <stm32__i2c__mem_read+0x664>
 80064ee:	481e      	ldr	r0, [pc, #120]	; (8006568 <stm32__i2c__mem_read+0x6d4>)
 80064f0:	f240 311f 	movw	r1, #799	; 0x31f
 80064f4:	f002 fd80 	bl	8008ff8 <__gnat_rcheck_CE_Overflow_Check>
 80064f8:	6c7b      	ldr	r3, [r7, #68]	; 0x44
 80064fa:	685a      	ldr	r2, [r3, #4]
 80064fc:	6c7b      	ldr	r3, [r7, #68]	; 0x44
 80064fe:	681b      	ldr	r3, [r3, #0]
 8006500:	429a      	cmp	r2, r3
 8006502:	db08      	blt.n	8006516 <stm32__i2c__mem_read+0x682>
 8006504:	6c7b      	ldr	r3, [r7, #68]	; 0x44
 8006506:	685b      	ldr	r3, [r3, #4]
 8006508:	461a      	mov	r2, r3
 800650a:	6c7b      	ldr	r3, [r7, #68]	; 0x44
 800650c:	681b      	ldr	r3, [r3, #0]
 800650e:	1ad3      	subs	r3, r2, r3
 8006510:	3301      	adds	r3, #1
 8006512:	461a      	mov	r2, r3
 8006514:	e000      	b.n	8006518 <stm32__i2c__mem_read+0x684>
 8006516:	2200      	movs	r2, #0
 8006518:	6a3b      	ldr	r3, [r7, #32]
 800651a:	1ad3      	subs	r3, r2, r3
 800651c:	2b00      	cmp	r3, #0
 800651e:	da04      	bge.n	800652a <stm32__i2c__mem_read+0x696>
 8006520:	4811      	ldr	r0, [pc, #68]	; (8006568 <stm32__i2c__mem_read+0x6d4>)
 8006522:	f240 311f 	movw	r1, #799	; 0x31f
 8006526:	f002 fd6f 	bl	8009008 <__gnat_rcheck_CE_Range_Check>
 800652a:	627b      	str	r3, [r7, #36]	; 0x24
 800652c:	e622      	b.n	8006174 <stm32__i2c__mem_read+0x2e0>
 800652e:	68f8      	ldr	r0, [r7, #12]
 8006530:	6cb9      	ldr	r1, [r7, #72]	; 0x48
 8006532:	f7fe fd0d 	bl	8004f50 <stm32__i2c__wait_stop_flag>
 8006536:	4603      	mov	r3, r0
 8006538:	757b      	strb	r3, [r7, #21]
 800653a:	7d7b      	ldrb	r3, [r7, #21]
 800653c:	2b00      	cmp	r3, #0
 800653e:	d10c      	bne.n	800655a <stm32__i2c__mem_read+0x6c6>
 8006540:	68f8      	ldr	r0, [r7, #12]
 8006542:	f7fe fbbd 	bl	8004cc0 <stm32__i2c__reset_config>
 8006546:	68fb      	ldr	r3, [r7, #12]
 8006548:	2201      	movs	r2, #1
 800654a:	751a      	strb	r2, [r3, #20]
 800654c:	2300      	movs	r3, #0
 800654e:	757b      	strb	r3, [r7, #21]
 8006550:	e004      	b.n	800655c <stm32__i2c__mem_read+0x6c8>
 8006552:	bf00      	nop
 8006554:	e002      	b.n	800655c <stm32__i2c__mem_read+0x6c8>
 8006556:	bf00      	nop
 8006558:	e000      	b.n	800655c <stm32__i2c__mem_read+0x6c8>
 800655a:	bf00      	nop
 800655c:	7d7b      	ldrb	r3, [r7, #21]
 800655e:	bf00      	nop
 8006560:	4618      	mov	r0, r3
 8006562:	372c      	adds	r7, #44	; 0x2c
 8006564:	46bd      	mov	sp, r7
 8006566:	bdf0      	pop	{r4, r5, r6, r7, pc}
 8006568:	0800da68 	.word	0x0800da68
 800656c:	7ffffffe 	.word	0x7ffffffe

08006570 <stm32__i2c___elabs>:
 8006570:	b580      	push	{r7, lr}
 8006572:	af00      	add	r7, sp, #0
 8006574:	4803      	ldr	r0, [pc, #12]	; (8006584 <stm32__i2c___elabs+0x14>)
 8006576:	f002 ffa1 	bl	80094bc <ada__tags__check_tsd>
 800657a:	4803      	ldr	r0, [pc, #12]	; (8006588 <stm32__i2c___elabs+0x18>)
 800657c:	f003 f818 	bl	80095b0 <ada__tags__register_tag>
 8006580:	bd80      	pop	{r7, pc}
 8006582:	bf00      	nop
 8006584:	0800d964 	.word	0x0800d964
 8006588:	0800d9d4 	.word	0x0800d9d4

0800658c <stm32__adc___elabs>:
 800658c:	b598      	push	{r3, r4, r7, lr}
 800658e:	af00      	add	r7, sp, #0
 8006590:	2003      	movs	r0, #3
 8006592:	f000 fec7 	bl	8007324 <ada__real_time__microseconds>
 8006596:	4603      	mov	r3, r0
 8006598:	460c      	mov	r4, r1
 800659a:	4a0e      	ldr	r2, [pc, #56]	; (80065d4 <stm32__adc___elabs+0x48>)
 800659c:	e9c2 3400 	strd	r3, r4, [r2]
 80065a0:	f44f 7048 	mov.w	r0, #800	; 0x320
 80065a4:	f000 febe 	bl	8007324 <ada__real_time__microseconds>
 80065a8:	4603      	mov	r3, r0
 80065aa:	460c      	mov	r4, r1
 80065ac:	4a0a      	ldr	r2, [pc, #40]	; (80065d8 <stm32__adc___elabs+0x4c>)
 80065ae:	e9c2 3400 	strd	r3, r4, [r2]
 80065b2:	200a      	movs	r0, #10
 80065b4:	f000 feb6 	bl	8007324 <ada__real_time__microseconds>
 80065b8:	4603      	mov	r3, r0
 80065ba:	460c      	mov	r4, r1
 80065bc:	4a07      	ldr	r2, [pc, #28]	; (80065dc <stm32__adc___elabs+0x50>)
 80065be:	e9c2 3400 	strd	r3, r4, [r2]
 80065c2:	200a      	movs	r0, #10
 80065c4:	f000 feae 	bl	8007324 <ada__real_time__microseconds>
 80065c8:	4603      	mov	r3, r0
 80065ca:	460c      	mov	r4, r1
 80065cc:	4a04      	ldr	r2, [pc, #16]	; (80065e0 <stm32__adc___elabs+0x54>)
 80065ce:	e9c2 3400 	strd	r3, r4, [r2]
 80065d2:	bd98      	pop	{r3, r4, r7, pc}
 80065d4:	20000730 	.word	0x20000730
 80065d8:	20000738 	.word	0x20000738
 80065dc:	20000740 	.word	0x20000740
 80065e0:	20000748 	.word	0x20000748

080065e4 <stm32_svd__spi__sr_registerIP>:
 80065e4:	b480      	push	{r7}
 80065e6:	b083      	sub	sp, #12
 80065e8:	af00      	add	r7, sp, #0
 80065ea:	6078      	str	r0, [r7, #4]
 80065ec:	687b      	ldr	r3, [r7, #4]
 80065ee:	781a      	ldrb	r2, [r3, #0]
 80065f0:	f022 0201 	bic.w	r2, r2, #1
 80065f4:	701a      	strb	r2, [r3, #0]
 80065f6:	687b      	ldr	r3, [r7, #4]
 80065f8:	781a      	ldrb	r2, [r3, #0]
 80065fa:	f042 0202 	orr.w	r2, r2, #2
 80065fe:	701a      	strb	r2, [r3, #0]
 8006600:	687b      	ldr	r3, [r7, #4]
 8006602:	781a      	ldrb	r2, [r3, #0]
 8006604:	f022 020c 	bic.w	r2, r2, #12
 8006608:	701a      	strb	r2, [r3, #0]
 800660a:	687b      	ldr	r3, [r7, #4]
 800660c:	781a      	ldrb	r2, [r3, #0]
 800660e:	f022 0210 	bic.w	r2, r2, #16
 8006612:	701a      	strb	r2, [r3, #0]
 8006614:	687b      	ldr	r3, [r7, #4]
 8006616:	781a      	ldrb	r2, [r3, #0]
 8006618:	f022 0220 	bic.w	r2, r2, #32
 800661c:	701a      	strb	r2, [r3, #0]
 800661e:	687b      	ldr	r3, [r7, #4]
 8006620:	781a      	ldrb	r2, [r3, #0]
 8006622:	f022 0240 	bic.w	r2, r2, #64	; 0x40
 8006626:	701a      	strb	r2, [r3, #0]
 8006628:	687b      	ldr	r3, [r7, #4]
 800662a:	781a      	ldrb	r2, [r3, #0]
 800662c:	f002 027f 	and.w	r2, r2, #127	; 0x7f
 8006630:	701a      	strb	r2, [r3, #0]
 8006632:	687b      	ldr	r3, [r7, #4]
 8006634:	785a      	ldrb	r2, [r3, #1]
 8006636:	f022 0201 	bic.w	r2, r2, #1
 800663a:	705a      	strb	r2, [r3, #1]
 800663c:	687b      	ldr	r3, [r7, #4]
 800663e:	785a      	ldrb	r2, [r3, #1]
 8006640:	f022 0206 	bic.w	r2, r2, #6
 8006644:	705a      	strb	r2, [r3, #1]
 8006646:	687b      	ldr	r3, [r7, #4]
 8006648:	785a      	ldrb	r2, [r3, #1]
 800664a:	f022 0218 	bic.w	r2, r2, #24
 800664e:	705a      	strb	r2, [r3, #1]
 8006650:	687b      	ldr	r3, [r7, #4]
 8006652:	681a      	ldr	r2, [r3, #0]
 8006654:	f3c2 020c 	ubfx	r2, r2, #0, #13
 8006658:	601a      	str	r2, [r3, #0]
 800665a:	370c      	adds	r7, #12
 800665c:	46bd      	mov	sp, r7
 800665e:	f85d 7b04 	ldr.w	r7, [sp], #4
 8006662:	4770      	bx	lr

08006664 <hal__spi__Tspi_portCFD>:
 8006664:	b580      	push	{r7, lr}
 8006666:	b086      	sub	sp, #24
 8006668:	af00      	add	r7, sp, #0
 800666a:	6078      	str	r0, [r7, #4]
 800666c:	687b      	ldr	r3, [r7, #4]
 800666e:	681b      	ldr	r3, [r3, #0]
 8006670:	617b      	str	r3, [r7, #20]
 8006672:	697b      	ldr	r3, [r7, #20]
 8006674:	613b      	str	r3, [r7, #16]
 8006676:	693a      	ldr	r2, [r7, #16]
 8006678:	230c      	movs	r3, #12
 800667a:	60fb      	str	r3, [r7, #12]
 800667c:	68fb      	ldr	r3, [r7, #12]
 800667e:	1ad3      	subs	r3, r2, r3
 8006680:	681b      	ldr	r3, [r3, #0]
 8006682:	6a1b      	ldr	r3, [r3, #32]
 8006684:	687a      	ldr	r2, [r7, #4]
 8006686:	4610      	mov	r0, r2
 8006688:	2101      	movs	r1, #1
 800668a:	4798      	blx	r3
 800668c:	3718      	adds	r7, #24
 800668e:	46bd      	mov	sp, r7
 8006690:	bd80      	pop	{r7, pc}
 8006692:	bf00      	nop

08006694 <hal__spi___elabs>:
 8006694:	b580      	push	{r7, lr}
 8006696:	af00      	add	r7, sp, #0
 8006698:	480c      	ldr	r0, [pc, #48]	; (80066cc <hal__spi___elabs+0x38>)
 800669a:	2101      	movs	r1, #1
 800669c:	f003 f8ee 	bl	800987c <system__finalization_masters__finalization_masterIP>
 80066a0:	480a      	ldr	r0, [pc, #40]	; (80066cc <hal__spi___elabs+0x38>)
 80066a2:	f002 ff9d 	bl	80095e0 <system__finalization_masters__initialize__2>
 80066a6:	4b0a      	ldr	r3, [pc, #40]	; (80066d0 <hal__spi___elabs+0x3c>)
 80066a8:	2201      	movs	r2, #1
 80066aa:	601a      	str	r2, [r3, #0]
 80066ac:	4807      	ldr	r0, [pc, #28]	; (80066cc <hal__spi___elabs+0x38>)
 80066ae:	4909      	ldr	r1, [pc, #36]	; (80066d4 <hal__spi___elabs+0x40>)
 80066b0:	f002 ffa0 	bl	80095f4 <system__finalization_masters__set_base_pool>
 80066b4:	4805      	ldr	r0, [pc, #20]	; (80066cc <hal__spi___elabs+0x38>)
 80066b6:	4908      	ldr	r1, [pc, #32]	; (80066d8 <hal__spi___elabs+0x44>)
 80066b8:	f002 ff9e 	bl	80095f8 <system__finalization_masters__set_finalize_address>
 80066bc:	4807      	ldr	r0, [pc, #28]	; (80066dc <hal__spi___elabs+0x48>)
 80066be:	f002 fefd 	bl	80094bc <ada__tags__check_tsd>
 80066c2:	4807      	ldr	r0, [pc, #28]	; (80066e0 <hal__spi___elabs+0x4c>)
 80066c4:	f002 ff74 	bl	80095b0 <ada__tags__register_tag>
 80066c8:	bd80      	pop	{r7, pc}
 80066ca:	bf00      	nop
 80066cc:	20000750 	.word	0x20000750
 80066d0:	200000c8 	.word	0x200000c8
 80066d4:	20003e0c 	.word	0x20003e0c
 80066d8:	08006665 	.word	0x08006665
 80066dc:	0800db3c 	.word	0x0800db3c
 80066e0:	0800db6c 	.word	0x0800db6c

080066e4 <hal__gpio__Tgpio_pointCFD>:
 80066e4:	b580      	push	{r7, lr}
 80066e6:	b086      	sub	sp, #24
 80066e8:	af00      	add	r7, sp, #0
 80066ea:	6078      	str	r0, [r7, #4]
 80066ec:	687b      	ldr	r3, [r7, #4]
 80066ee:	681b      	ldr	r3, [r3, #0]
 80066f0:	617b      	str	r3, [r7, #20]
 80066f2:	697b      	ldr	r3, [r7, #20]
 80066f4:	613b      	str	r3, [r7, #16]
 80066f6:	693a      	ldr	r2, [r7, #16]
 80066f8:	230c      	movs	r3, #12
 80066fa:	60fb      	str	r3, [r7, #12]
 80066fc:	68fb      	ldr	r3, [r7, #12]
 80066fe:	1ad3      	subs	r3, r2, r3
 8006700:	681b      	ldr	r3, [r3, #0]
 8006702:	6a1b      	ldr	r3, [r3, #32]
 8006704:	687a      	ldr	r2, [r7, #4]
 8006706:	4610      	mov	r0, r2
 8006708:	2101      	movs	r1, #1
 800670a:	4798      	blx	r3
 800670c:	3718      	adds	r7, #24
 800670e:	46bd      	mov	sp, r7
 8006710:	bd80      	pop	{r7, pc}
 8006712:	bf00      	nop

08006714 <hal__gpio___elabs>:
 8006714:	b580      	push	{r7, lr}
 8006716:	af00      	add	r7, sp, #0
 8006718:	480c      	ldr	r0, [pc, #48]	; (800674c <hal__gpio___elabs+0x38>)
 800671a:	2101      	movs	r1, #1
 800671c:	f003 f8ae 	bl	800987c <system__finalization_masters__finalization_masterIP>
 8006720:	480a      	ldr	r0, [pc, #40]	; (800674c <hal__gpio___elabs+0x38>)
 8006722:	f002 ff5d 	bl	80095e0 <system__finalization_masters__initialize__2>
 8006726:	4b0a      	ldr	r3, [pc, #40]	; (8006750 <hal__gpio___elabs+0x3c>)
 8006728:	2201      	movs	r2, #1
 800672a:	601a      	str	r2, [r3, #0]
 800672c:	4807      	ldr	r0, [pc, #28]	; (800674c <hal__gpio___elabs+0x38>)
 800672e:	4909      	ldr	r1, [pc, #36]	; (8006754 <hal__gpio___elabs+0x40>)
 8006730:	f002 ff60 	bl	80095f4 <system__finalization_masters__set_base_pool>
 8006734:	4805      	ldr	r0, [pc, #20]	; (800674c <hal__gpio___elabs+0x38>)
 8006736:	4908      	ldr	r1, [pc, #32]	; (8006758 <hal__gpio___elabs+0x44>)
 8006738:	f002 ff5e 	bl	80095f8 <system__finalization_masters__set_finalize_address>
 800673c:	4807      	ldr	r0, [pc, #28]	; (800675c <hal__gpio___elabs+0x48>)
 800673e:	f002 febd 	bl	80094bc <ada__tags__check_tsd>
 8006742:	4807      	ldr	r0, [pc, #28]	; (8006760 <hal__gpio___elabs+0x4c>)
 8006744:	f002 ff34 	bl	80095b0 <ada__tags__register_tag>
 8006748:	bd80      	pop	{r7, pc}
 800674a:	bf00      	nop
 800674c:	2000076c 	.word	0x2000076c
 8006750:	200000d4 	.word	0x200000d4
 8006754:	20003e0c 	.word	0x20003e0c
 8006758:	080066e5 	.word	0x080066e5
 800675c:	0800db84 	.word	0x0800db84
 8006760:	0800dbb4 	.word	0x0800dbb4

08006764 <hal__i2c__Ti2c_portCFD>:
 8006764:	b580      	push	{r7, lr}
 8006766:	b086      	sub	sp, #24
 8006768:	af00      	add	r7, sp, #0
 800676a:	6078      	str	r0, [r7, #4]
 800676c:	687b      	ldr	r3, [r7, #4]
 800676e:	681b      	ldr	r3, [r3, #0]
 8006770:	617b      	str	r3, [r7, #20]
 8006772:	697b      	ldr	r3, [r7, #20]
 8006774:	613b      	str	r3, [r7, #16]
 8006776:	693a      	ldr	r2, [r7, #16]
 8006778:	230c      	movs	r3, #12
 800677a:	60fb      	str	r3, [r7, #12]
 800677c:	68fb      	ldr	r3, [r7, #12]
 800677e:	1ad3      	subs	r3, r2, r3
 8006780:	681b      	ldr	r3, [r3, #0]
 8006782:	6a1b      	ldr	r3, [r3, #32]
 8006784:	687a      	ldr	r2, [r7, #4]
 8006786:	4610      	mov	r0, r2
 8006788:	2101      	movs	r1, #1
 800678a:	4798      	blx	r3
 800678c:	3718      	adds	r7, #24
 800678e:	46bd      	mov	sp, r7
 8006790:	bd80      	pop	{r7, pc}
 8006792:	bf00      	nop

08006794 <hal__i2c___elabs>:
 8006794:	b580      	push	{r7, lr}
 8006796:	af00      	add	r7, sp, #0
 8006798:	480c      	ldr	r0, [pc, #48]	; (80067cc <hal__i2c___elabs+0x38>)
 800679a:	2101      	movs	r1, #1
 800679c:	f003 f86e 	bl	800987c <system__finalization_masters__finalization_masterIP>
 80067a0:	480a      	ldr	r0, [pc, #40]	; (80067cc <hal__i2c___elabs+0x38>)
 80067a2:	f002 ff1d 	bl	80095e0 <system__finalization_masters__initialize__2>
 80067a6:	4b0a      	ldr	r3, [pc, #40]	; (80067d0 <hal__i2c___elabs+0x3c>)
 80067a8:	2201      	movs	r2, #1
 80067aa:	601a      	str	r2, [r3, #0]
 80067ac:	4807      	ldr	r0, [pc, #28]	; (80067cc <hal__i2c___elabs+0x38>)
 80067ae:	4909      	ldr	r1, [pc, #36]	; (80067d4 <hal__i2c___elabs+0x40>)
 80067b0:	f002 ff20 	bl	80095f4 <system__finalization_masters__set_base_pool>
 80067b4:	4805      	ldr	r0, [pc, #20]	; (80067cc <hal__i2c___elabs+0x38>)
 80067b6:	4908      	ldr	r1, [pc, #32]	; (80067d8 <hal__i2c___elabs+0x44>)
 80067b8:	f002 ff1e 	bl	80095f8 <system__finalization_masters__set_finalize_address>
 80067bc:	4807      	ldr	r0, [pc, #28]	; (80067dc <hal__i2c___elabs+0x48>)
 80067be:	f002 fe7d 	bl	80094bc <ada__tags__check_tsd>
 80067c2:	4807      	ldr	r0, [pc, #28]	; (80067e0 <hal__i2c___elabs+0x4c>)
 80067c4:	f002 fef4 	bl	80095b0 <ada__tags__register_tag>
 80067c8:	bd80      	pop	{r7, pc}
 80067ca:	bf00      	nop
 80067cc:	20000788 	.word	0x20000788
 80067d0:	200000e0 	.word	0x200000e0
 80067d4:	20003e0c 	.word	0x20003e0c
 80067d8:	08006765 	.word	0x08006765
 80067dc:	0800dbf0 	.word	0x0800dbf0
 80067e0:	0800dc20 	.word	0x0800dc20

080067e4 <system__bb__timing_events___size>:
 80067e4:	f44f 7080 	mov.w	r0, #256	; 0x100
 80067e8:	2100      	movs	r1, #0
 80067ea:	4770      	bx	lr

080067ec <system__bb__timing_events__timing_eventDF>:
 80067ec:	4770      	bx	lr
 80067ee:	bf00      	nop

080067f0 <system__bb__timing_events__current_handler>:
 80067f0:	6900      	ldr	r0, [r0, #16]
 80067f2:	4770      	bx	lr

080067f4 <system__bb__timing_events__time_of_event>:
 80067f4:	6903      	ldr	r3, [r0, #16]
 80067f6:	b113      	cbz	r3, 80067fe <system__bb__timing_events__time_of_event+0xa>
 80067f8:	e9d0 0102 	ldrd	r0, r1, [r0, #8]
 80067fc:	4770      	bx	lr
 80067fe:	2000      	movs	r0, #0
 8006800:	2100      	movs	r1, #0
 8006802:	4770      	bx	lr

08006804 <system__bb__timing_events__cancel_handler>:
 8006804:	b508      	push	{r3, lr}
 8006806:	6903      	ldr	r3, [r0, #16]
 8006808:	b1fb      	cbz	r3, 800684a <system__bb__timing_events__cancel_handler+0x46>
 800680a:	4b14      	ldr	r3, [pc, #80]	; (800685c <system__bb__timing_events__cancel_handler+0x58>)
 800680c:	681a      	ldr	r2, [r3, #0]
 800680e:	4290      	cmp	r0, r2
 8006810:	d00b      	beq.n	800682a <system__bb__timing_events__cancel_handler+0x26>
 8006812:	6981      	ldr	r1, [r0, #24]
 8006814:	6943      	ldr	r3, [r0, #20]
 8006816:	614b      	str	r3, [r1, #20]
 8006818:	6942      	ldr	r2, [r0, #20]
 800681a:	b1da      	cbz	r2, 8006854 <system__bb__timing_events__cancel_handler+0x50>
 800681c:	2300      	movs	r3, #0
 800681e:	6191      	str	r1, [r2, #24]
 8006820:	6143      	str	r3, [r0, #20]
 8006822:	6183      	str	r3, [r0, #24]
 8006824:	6103      	str	r3, [r0, #16]
 8006826:	2001      	movs	r0, #1
 8006828:	bd08      	pop	{r3, pc}
 800682a:	6942      	ldr	r2, [r0, #20]
 800682c:	601a      	str	r2, [r3, #0]
 800682e:	b172      	cbz	r2, 800684e <system__bb__timing_events__cancel_handler+0x4a>
 8006830:	6983      	ldr	r3, [r0, #24]
 8006832:	6193      	str	r3, [r2, #24]
 8006834:	2300      	movs	r3, #0
 8006836:	6143      	str	r3, [r0, #20]
 8006838:	6183      	str	r3, [r0, #24]
 800683a:	6103      	str	r3, [r0, #16]
 800683c:	2001      	movs	r0, #1
 800683e:	f000 f8bf 	bl	80069c0 <system__bb__time__get_next_timeout>
 8006842:	f000 f937 	bl	8006ab4 <system__bb__time__update_alarm>
 8006846:	2001      	movs	r0, #1
 8006848:	bd08      	pop	{r3, pc}
 800684a:	4618      	mov	r0, r3
 800684c:	bd08      	pop	{r3, pc}
 800684e:	6182      	str	r2, [r0, #24]
 8006850:	6102      	str	r2, [r0, #16]
 8006852:	e7f3      	b.n	800683c <system__bb__timing_events__cancel_handler+0x38>
 8006854:	6182      	str	r2, [r0, #24]
 8006856:	6102      	str	r2, [r0, #16]
 8006858:	e7e5      	b.n	8006826 <system__bb__timing_events__cancel_handler+0x22>
 800685a:	bf00      	nop
 800685c:	200000e8 	.word	0x200000e8

08006860 <system__bb__timing_events__execute_expired_timing_events>:
 8006860:	e92d 4ff8 	stmdb	sp!, {r3, r4, r5, r6, r7, r8, r9, sl, fp, lr}
 8006864:	f8df b074 	ldr.w	fp, [pc, #116]	; 80068dc <system__bb__timing_events__execute_expired_timing_events+0x7c>
 8006868:	f8db 4000 	ldr.w	r4, [fp]
 800686c:	2c00      	cmp	r4, #0
 800686e:	d031      	beq.n	80068d4 <system__bb__timing_events__execute_expired_timing_events+0x74>
 8006870:	4b19      	ldr	r3, [pc, #100]	; (80068d8 <system__bb__timing_events__execute_expired_timing_events+0x78>)
 8006872:	f8d3 a000 	ldr.w	sl, [r3]
 8006876:	4606      	mov	r6, r0
 8006878:	460f      	mov	r7, r1
 800687a:	4650      	mov	r0, sl
 800687c:	21ff      	movs	r1, #255	; 0xff
 800687e:	f8da 9034 	ldr.w	r9, [sl, #52]	; 0x34
 8006882:	46d8      	mov	r8, fp
 8006884:	f000 fb20 	bl	8006ec8 <system__bb__threads__queues__change_priority>
 8006888:	2500      	movs	r5, #0
 800688a:	e00e      	b.n	80068aa <system__bb__timing_events__execute_expired_timing_events+0x4a>
 800688c:	69a3      	ldr	r3, [r4, #24]
 800688e:	6962      	ldr	r2, [r4, #20]
 8006890:	615a      	str	r2, [r3, #20]
 8006892:	6962      	ldr	r2, [r4, #20]
 8006894:	4620      	mov	r0, r4
 8006896:	b10a      	cbz	r2, 800689c <system__bb__timing_events__execute_expired_timing_events+0x3c>
 8006898:	69a3      	ldr	r3, [r4, #24]
 800689a:	6193      	str	r3, [r2, #24]
 800689c:	6165      	str	r5, [r4, #20]
 800689e:	61a5      	str	r5, [r4, #24]
 80068a0:	6125      	str	r5, [r4, #16]
 80068a2:	4788      	blx	r1
 80068a4:	f8db 4000 	ldr.w	r4, [fp]
 80068a8:	b174      	cbz	r4, 80068c8 <system__bb__timing_events__execute_expired_timing_events+0x68>
 80068aa:	e9d4 2302 	ldrd	r2, r3, [r4, #8]
 80068ae:	429f      	cmp	r7, r3
 80068b0:	bf08      	it	eq
 80068b2:	4296      	cmpeq	r6, r2
 80068b4:	d308      	bcc.n	80068c8 <system__bb__timing_events__execute_expired_timing_events+0x68>
 80068b6:	f8db 3000 	ldr.w	r3, [fp]
 80068ba:	6921      	ldr	r1, [r4, #16]
 80068bc:	429c      	cmp	r4, r3
 80068be:	d1e5      	bne.n	800688c <system__bb__timing_events__execute_expired_timing_events+0x2c>
 80068c0:	6962      	ldr	r2, [r4, #20]
 80068c2:	f8c8 2000 	str.w	r2, [r8]
 80068c6:	e7e5      	b.n	8006894 <system__bb__timing_events__execute_expired_timing_events+0x34>
 80068c8:	4650      	mov	r0, sl
 80068ca:	4649      	mov	r1, r9
 80068cc:	e8bd 4ff8 	ldmia.w	sp!, {r3, r4, r5, r6, r7, r8, r9, sl, fp, lr}
 80068d0:	f000 bafa 	b.w	8006ec8 <system__bb__threads__queues__change_priority>
 80068d4:	e8bd 8ff8 	ldmia.w	sp!, {r3, r4, r5, r6, r7, r8, r9, sl, fp, pc}
 80068d8:	20000134 	.word	0x20000134
 80068dc:	200000e8 	.word	0x200000e8

080068e0 <system__bb__timing_events__insert>:
 80068e0:	4b14      	ldr	r3, [pc, #80]	; (8006934 <system__bb__timing_events__insert+0x54>)
 80068e2:	681a      	ldr	r2, [r3, #0]
 80068e4:	b30a      	cbz	r2, 800692a <system__bb__timing_events__insert+0x4a>
 80068e6:	b4f0      	push	{r4, r5, r6, r7}
 80068e8:	e9d2 4502 	ldrd	r4, r5, [r2, #8]
 80068ec:	e9d0 6702 	ldrd	r6, r7, [r0, #8]
 80068f0:	42af      	cmp	r7, r5
 80068f2:	bf08      	it	eq
 80068f4:	42a6      	cmpeq	r6, r4
 80068f6:	d20c      	bcs.n	8006912 <system__bb__timing_events__insert+0x32>
 80068f8:	6142      	str	r2, [r0, #20]
 80068fa:	6018      	str	r0, [r3, #0]
 80068fc:	6190      	str	r0, [r2, #24]
 80068fe:	2001      	movs	r0, #1
 8006900:	bcf0      	pop	{r4, r5, r6, r7}
 8006902:	4770      	bx	lr
 8006904:	e9d3 4502 	ldrd	r4, r5, [r3, #8]
 8006908:	42af      	cmp	r7, r5
 800690a:	bf08      	it	eq
 800690c:	42a6      	cmpeq	r6, r4
 800690e:	d303      	bcc.n	8006918 <system__bb__timing_events__insert+0x38>
 8006910:	461a      	mov	r2, r3
 8006912:	6953      	ldr	r3, [r2, #20]
 8006914:	2b00      	cmp	r3, #0
 8006916:	d1f5      	bne.n	8006904 <system__bb__timing_events__insert+0x24>
 8006918:	6143      	str	r3, [r0, #20]
 800691a:	6953      	ldr	r3, [r2, #20]
 800691c:	6182      	str	r2, [r0, #24]
 800691e:	b103      	cbz	r3, 8006922 <system__bb__timing_events__insert+0x42>
 8006920:	6198      	str	r0, [r3, #24]
 8006922:	6150      	str	r0, [r2, #20]
 8006924:	2000      	movs	r0, #0
 8006926:	bcf0      	pop	{r4, r5, r6, r7}
 8006928:	4770      	bx	lr
 800692a:	6142      	str	r2, [r0, #20]
 800692c:	6018      	str	r0, [r3, #0]
 800692e:	2001      	movs	r0, #1
 8006930:	4770      	bx	lr
 8006932:	bf00      	nop
 8006934:	200000e8 	.word	0x200000e8

08006938 <system__bb__timing_events__set_handler>:
 8006938:	b5d0      	push	{r4, r6, r7, lr}
 800693a:	4616      	mov	r6, r2
 800693c:	6902      	ldr	r2, [r0, #16]
 800693e:	461f      	mov	r7, r3
 8006940:	4601      	mov	r1, r0
 8006942:	9b04      	ldr	r3, [sp, #16]
 8006944:	b31a      	cbz	r2, 800698e <system__bb__timing_events__set_handler+0x56>
 8006946:	4a1a      	ldr	r2, [pc, #104]	; (80069b0 <system__bb__timing_events__set_handler+0x78>)
 8006948:	6810      	ldr	r0, [r2, #0]
 800694a:	4281      	cmp	r1, r0
 800694c:	d02b      	beq.n	80069a6 <system__bb__timing_events__set_handler+0x6e>
 800694e:	698a      	ldr	r2, [r1, #24]
 8006950:	6948      	ldr	r0, [r1, #20]
 8006952:	6150      	str	r0, [r2, #20]
 8006954:	6948      	ldr	r0, [r1, #20]
 8006956:	2400      	movs	r4, #0
 8006958:	b108      	cbz	r0, 800695e <system__bb__timing_events__set_handler+0x26>
 800695a:	698a      	ldr	r2, [r1, #24]
 800695c:	6182      	str	r2, [r0, #24]
 800695e:	2000      	movs	r0, #0
 8006960:	610b      	str	r3, [r1, #16]
 8006962:	6148      	str	r0, [r1, #20]
 8006964:	6188      	str	r0, [r1, #24]
 8006966:	b17b      	cbz	r3, 8006988 <system__bb__timing_events__set_handler+0x50>
 8006968:	2301      	movs	r3, #1
 800696a:	e9c1 6702 	strd	r6, r7, [r1, #8]
 800696e:	770b      	strb	r3, [r1, #28]
 8006970:	4608      	mov	r0, r1
 8006972:	f7ff ffb5 	bl	80068e0 <system__bb__timing_events__insert>
 8006976:	b904      	cbnz	r4, 800697a <system__bb__timing_events__set_handler+0x42>
 8006978:	b140      	cbz	r0, 800698c <system__bb__timing_events__set_handler+0x54>
 800697a:	2001      	movs	r0, #1
 800697c:	f000 f820 	bl	80069c0 <system__bb__time__get_next_timeout>
 8006980:	e8bd 40d0 	ldmia.w	sp!, {r4, r6, r7, lr}
 8006984:	f000 b896 	b.w	8006ab4 <system__bb__time__update_alarm>
 8006988:	2c00      	cmp	r4, #0
 800698a:	d1f6      	bne.n	800697a <system__bb__timing_events__set_handler+0x42>
 800698c:	bdd0      	pop	{r4, r6, r7, pc}
 800698e:	6103      	str	r3, [r0, #16]
 8006990:	2b00      	cmp	r3, #0
 8006992:	d0fb      	beq.n	800698c <system__bb__timing_events__set_handler+0x54>
 8006994:	2301      	movs	r3, #1
 8006996:	e9c0 6702 	strd	r6, r7, [r0, #8]
 800699a:	7703      	strb	r3, [r0, #28]
 800699c:	f7ff ffa0 	bl	80068e0 <system__bb__timing_events__insert>
 80069a0:	2800      	cmp	r0, #0
 80069a2:	d1ea      	bne.n	800697a <system__bb__timing_events__set_handler+0x42>
 80069a4:	e7f2      	b.n	800698c <system__bb__timing_events__set_handler+0x54>
 80069a6:	6948      	ldr	r0, [r1, #20]
 80069a8:	6010      	str	r0, [r2, #0]
 80069aa:	2401      	movs	r4, #1
 80069ac:	e7d4      	b.n	8006958 <system__bb__timing_events__set_handler+0x20>
 80069ae:	bf00      	nop
 80069b0:	200000e8 	.word	0x200000e8

080069b4 <system__bb__timing_events___elabs>:
 80069b4:	4801      	ldr	r0, [pc, #4]	; (80069bc <system__bb__timing_events___elabs+0x8>)
 80069b6:	f002 bdfb 	b.w	80095b0 <ada__tags__register_tag>
 80069ba:	bf00      	nop
 80069bc:	0800dc90 	.word	0x0800dc90

080069c0 <system__bb__time__get_next_timeout>:
 80069c0:	b430      	push	{r4, r5}
 80069c2:	b240      	sxtb	r0, r0
 80069c4:	f100 4080 	add.w	r0, r0, #1073741824	; 0x40000000
 80069c8:	3801      	subs	r0, #1
 80069ca:	4b11      	ldr	r3, [pc, #68]	; (8006a10 <system__bb__time__get_next_timeout+0x50>)
 80069cc:	f853 3020 	ldr.w	r3, [r3, r0, lsl #2]
 80069d0:	b18b      	cbz	r3, 80069f6 <system__bb__time__get_next_timeout+0x36>
 80069d2:	e9d3 4512 	ldrd	r4, r5, [r3, #72]	; 0x48
 80069d6:	4b0f      	ldr	r3, [pc, #60]	; (8006a14 <system__bb__time__get_next_timeout+0x54>)
 80069d8:	f853 3020 	ldr.w	r3, [r3, r0, lsl #2]
 80069dc:	b1a3      	cbz	r3, 8006a08 <system__bb__time__get_next_timeout+0x48>
 80069de:	689a      	ldr	r2, [r3, #8]
 80069e0:	68db      	ldr	r3, [r3, #12]
 80069e2:	429d      	cmp	r5, r3
 80069e4:	bf08      	it	eq
 80069e6:	4294      	cmpeq	r4, r2
 80069e8:	4610      	mov	r0, r2
 80069ea:	4619      	mov	r1, r3
 80069ec:	bf3c      	itt	cc
 80069ee:	4620      	movcc	r0, r4
 80069f0:	4629      	movcc	r1, r5
 80069f2:	bc30      	pop	{r4, r5}
 80069f4:	4770      	bx	lr
 80069f6:	4b07      	ldr	r3, [pc, #28]	; (8006a14 <system__bb__time__get_next_timeout+0x54>)
 80069f8:	f853 3020 	ldr.w	r3, [r3, r0, lsl #2]
 80069fc:	f04f 34ff 	mov.w	r4, #4294967295
 8006a00:	f04f 35ff 	mov.w	r5, #4294967295
 8006a04:	2b00      	cmp	r3, #0
 8006a06:	d1ea      	bne.n	80069de <system__bb__time__get_next_timeout+0x1e>
 8006a08:	f04f 32ff 	mov.w	r2, #4294967295
 8006a0c:	4613      	mov	r3, r2
 8006a0e:	e7e8      	b.n	80069e2 <system__bb__time__get_next_timeout+0x22>
 8006a10:	20000130 	.word	0x20000130
 8006a14:	200000e8 	.word	0x200000e8

08006a18 <system__bb__time__initialize_timers>:
 8006a18:	e92d 4ff8 	stmdb	sp!, {r3, r4, r5, r6, r7, r8, r9, sl, fp, lr}
 8006a1c:	4b1e      	ldr	r3, [pc, #120]	; (8006a98 <system__bb__time__initialize_timers+0x80>)
 8006a1e:	4a1f      	ldr	r2, [pc, #124]	; (8006a9c <system__bb__time__initialize_timers+0x84>)
 8006a20:	4f1f      	ldr	r7, [pc, #124]	; (8006aa0 <system__bb__time__initialize_timers+0x88>)
 8006a22:	f8df a08c 	ldr.w	sl, [pc, #140]	; 8006ab0 <system__bb__time__initialize_timers+0x98>
 8006a26:	605a      	str	r2, [r3, #4]
 8006a28:	481e      	ldr	r0, [pc, #120]	; (8006aa4 <system__bb__time__initialize_timers+0x8c>)
 8006a2a:	4d1f      	ldr	r5, [pc, #124]	; (8006aa8 <system__bb__time__initialize_timers+0x90>)
 8006a2c:	2101      	movs	r1, #1
 8006a2e:	22ff      	movs	r2, #255	; 0xff
 8006a30:	f04f 0b00 	mov.w	fp, #0
 8006a34:	e9c7 ab00 	strd	sl, fp, [r7]
 8006a38:	f000 fec8 	bl	80077cc <system__bb__board_support__install_interrupt_handler>
 8006a3c:	f000 fe3c 	bl	80076b8 <system__bb__board_support__read_clock>
 8006a40:	2400      	movs	r4, #0
 8006a42:	6068      	str	r0, [r5, #4]
 8006a44:	682e      	ldr	r6, [r5, #0]
 8006a46:	f8d5 8004 	ldr.w	r8, [r5, #4]
 8006a4a:	f000 fe35 	bl	80076b8 <system__bb__board_support__read_clock>
 8006a4e:	682b      	ldr	r3, [r5, #0]
 8006a50:	429e      	cmp	r6, r3
 8006a52:	ebc9 0206 	rsb	r2, r9, r6
 8006a56:	f104 0401 	add.w	r4, r4, #1
 8006a5a:	d014      	beq.n	8006a86 <system__bb__time__initialize_timers+0x6e>
 8006a5c:	2c01      	cmp	r4, #1
 8006a5e:	d010      	beq.n	8006a82 <system__bb__time__initialize_timers+0x6a>
 8006a60:	2a01      	cmp	r2, #1
 8006a62:	d801      	bhi.n	8006a68 <system__bb__time__initialize_timers+0x50>
 8006a64:	2c03      	cmp	r4, #3
 8006a66:	d1ed      	bne.n	8006a44 <system__bb__time__initialize_timers+0x2c>
 8006a68:	2200      	movs	r2, #0
 8006a6a:	4633      	mov	r3, r6
 8006a6c:	e9d7 0100 	ldrd	r0, r1, [r7]
 8006a70:	4c0e      	ldr	r4, [pc, #56]	; (8006aac <system__bb__time__initialize_timers+0x94>)
 8006a72:	1812      	adds	r2, r2, r0
 8006a74:	414b      	adcs	r3, r1
 8006a76:	e9c4 2300 	strd	r2, r3, [r4]
 8006a7a:	e8bd 4ff8 	ldmia.w	sp!, {r3, r4, r5, r6, r7, r8, r9, sl, fp, lr}
 8006a7e:	f000 be39 	b.w	80076f4 <system__bb__board_support__set_alarm>
 8006a82:	46b1      	mov	r9, r6
 8006a84:	e7de      	b.n	8006a44 <system__bb__time__initialize_timers+0x2c>
 8006a86:	2200      	movs	r2, #0
 8006a88:	4580      	cmp	r8, r0
 8006a8a:	bf94      	ite	ls
 8006a8c:	4633      	movls	r3, r6
 8006a8e:	1c73      	addhi	r3, r6, #1
 8006a90:	1812      	adds	r2, r2, r0
 8006a92:	f143 0300 	adc.w	r3, r3, #0
 8006a96:	e7e9      	b.n	8006a6c <system__bb__time__initialize_timers+0x54>
 8006a98:	20003208 	.word	0x20003208
 8006a9c:	08006c65 	.word	0x08006c65
 8006aa0:	20000108 	.word	0x20000108
 8006aa4:	08007105 	.word	0x08007105
 8006aa8:	20000100 	.word	0x20000100
 8006aac:	200000f8 	.word	0x200000f8
 8006ab0:	dffffff9 	.word	0xdffffff9

08006ab4 <system__bb__time__update_alarm>:
 8006ab4:	e92d 47f0 	stmdb	sp!, {r4, r5, r6, r7, r8, r9, sl, lr}
 8006ab8:	4e20      	ldr	r6, [pc, #128]	; (8006b3c <system__bb__time__update_alarm+0x88>)
 8006aba:	4680      	mov	r8, r0
 8006abc:	4689      	mov	r9, r1
 8006abe:	2400      	movs	r4, #0
 8006ac0:	6835      	ldr	r5, [r6, #0]
 8006ac2:	6877      	ldr	r7, [r6, #4]
 8006ac4:	f000 fdf8 	bl	80076b8 <system__bb__board_support__read_clock>
 8006ac8:	6833      	ldr	r3, [r6, #0]
 8006aca:	429d      	cmp	r5, r3
 8006acc:	ebca 0205 	rsb	r2, sl, r5
 8006ad0:	f104 0401 	add.w	r4, r4, #1
 8006ad4:	d029      	beq.n	8006b2a <system__bb__time__update_alarm+0x76>
 8006ad6:	2c01      	cmp	r4, #1
 8006ad8:	d022      	beq.n	8006b20 <system__bb__time__update_alarm+0x6c>
 8006ada:	2a01      	cmp	r2, #1
 8006adc:	d801      	bhi.n	8006ae2 <system__bb__time__update_alarm+0x2e>
 8006ade:	2c03      	cmp	r4, #3
 8006ae0:	d1ee      	bne.n	8006ac0 <system__bb__time__update_alarm+0xc>
 8006ae2:	2200      	movs	r2, #0
 8006ae4:	462b      	mov	r3, r5
 8006ae6:	454b      	cmp	r3, r9
 8006ae8:	bf08      	it	eq
 8006aea:	4542      	cmpeq	r2, r8
 8006aec:	d21a      	bcs.n	8006b24 <system__bb__time__update_alarm+0x70>
 8006aee:	ebb8 0002 	subs.w	r0, r8, r2
 8006af2:	eb69 0103 	sbc.w	r1, r9, r3
 8006af6:	4e12      	ldr	r6, [pc, #72]	; (8006b40 <system__bb__time__update_alarm+0x8c>)
 8006af8:	4c12      	ldr	r4, [pc, #72]	; (8006b44 <system__bb__time__update_alarm+0x90>)
 8006afa:	e9d6 2300 	ldrd	r2, r3, [r6]
 8006afe:	4599      	cmp	r9, r3
 8006b00:	bf08      	it	eq
 8006b02:	4590      	cmpeq	r8, r2
 8006b04:	e9d4 4500 	ldrd	r4, r5, [r4]
 8006b08:	d208      	bcs.n	8006b1c <system__bb__time__update_alarm+0x68>
 8006b0a:	428d      	cmp	r5, r1
 8006b0c:	bf08      	it	eq
 8006b0e:	4284      	cmpeq	r4, r0
 8006b10:	bf38      	it	cc
 8006b12:	4620      	movcc	r0, r4
 8006b14:	f000 fdee 	bl	80076f4 <system__bb__board_support__set_alarm>
 8006b18:	e9c6 8900 	strd	r8, r9, [r6]
 8006b1c:	e8bd 87f0 	ldmia.w	sp!, {r4, r5, r6, r7, r8, r9, sl, pc}
 8006b20:	46aa      	mov	sl, r5
 8006b22:	e7cd      	b.n	8006ac0 <system__bb__time__update_alarm+0xc>
 8006b24:	2001      	movs	r0, #1
 8006b26:	2100      	movs	r1, #0
 8006b28:	e7e5      	b.n	8006af6 <system__bb__time__update_alarm+0x42>
 8006b2a:	2200      	movs	r2, #0
 8006b2c:	4287      	cmp	r7, r0
 8006b2e:	bf94      	ite	ls
 8006b30:	462b      	movls	r3, r5
 8006b32:	1c6b      	addhi	r3, r5, #1
 8006b34:	1812      	adds	r2, r2, r0
 8006b36:	f143 0300 	adc.w	r3, r3, #0
 8006b3a:	e7d4      	b.n	8006ae6 <system__bb__time__update_alarm+0x32>
 8006b3c:	20000100 	.word	0x20000100
 8006b40:	200000f8 	.word	0x200000f8
 8006b44:	20000108 	.word	0x20000108

08006b48 <system__bb__time__delay_until>:
 8006b48:	e92d 47f0 	stmdb	sp!, {r4, r5, r6, r7, r8, r9, sl, lr}
 8006b4c:	4680      	mov	r8, r0
 8006b4e:	4689      	mov	r9, r1
 8006b50:	b672      	cpsid	i
 8006b52:	4e33      	ldr	r6, [pc, #204]	; (8006c20 <system__bb__time__delay_until+0xd8>)
 8006b54:	2400      	movs	r4, #0
 8006b56:	6835      	ldr	r5, [r6, #0]
 8006b58:	f8d6 a004 	ldr.w	sl, [r6, #4]
 8006b5c:	f000 fdac 	bl	80076b8 <system__bb__board_support__read_clock>
 8006b60:	6833      	ldr	r3, [r6, #0]
 8006b62:	429d      	cmp	r5, r3
 8006b64:	eba5 0207 	sub.w	r2, r5, r7
 8006b68:	f104 0401 	add.w	r4, r4, #1
 8006b6c:	d045      	beq.n	8006bfa <system__bb__time__delay_until+0xb2>
 8006b6e:	2c01      	cmp	r4, #1
 8006b70:	d038      	beq.n	8006be4 <system__bb__time__delay_until+0x9c>
 8006b72:	2a01      	cmp	r2, #1
 8006b74:	d801      	bhi.n	8006b7a <system__bb__time__delay_until+0x32>
 8006b76:	2c03      	cmp	r4, #3
 8006b78:	d1ed      	bne.n	8006b56 <system__bb__time__delay_until+0xe>
 8006b7a:	2600      	movs	r6, #0
 8006b7c:	462f      	mov	r7, r5
 8006b7e:	4b29      	ldr	r3, [pc, #164]	; (8006c24 <system__bb__time__delay_until+0xdc>)
 8006b80:	454f      	cmp	r7, r9
 8006b82:	bf08      	it	eq
 8006b84:	4546      	cmpeq	r6, r8
 8006b86:	681a      	ldr	r2, [r3, #0]
 8006b88:	d230      	bcs.n	8006bec <system__bb__time__delay_until+0xa4>
 8006b8a:	f892 302c 	ldrb.w	r3, [r2, #44]	; 0x2c
 8006b8e:	2102      	movs	r1, #2
 8006b90:	f882 1054 	strb.w	r1, [r2, #84]	; 0x54
 8006b94:	b343      	cbz	r3, 8006be8 <system__bb__time__delay_until+0xa0>
 8006b96:	b25b      	sxtb	r3, r3
 8006b98:	f103 4380 	add.w	r3, r3, #1073741824	; 0x40000000
 8006b9c:	3b01      	subs	r3, #1
 8006b9e:	4922      	ldr	r1, [pc, #136]	; (8006c28 <system__bb__time__delay_until+0xe0>)
 8006ba0:	6c10      	ldr	r0, [r2, #64]	; 0x40
 8006ba2:	f841 0023 	str.w	r0, [r1, r3, lsl #2]
 8006ba6:	2300      	movs	r3, #0
 8006ba8:	4640      	mov	r0, r8
 8006baa:	4649      	mov	r1, r9
 8006bac:	6413      	str	r3, [r2, #64]	; 0x40
 8006bae:	f000 f9c3 	bl	8006f38 <system__bb__threads__queues__insert_alarm>
 8006bb2:	b198      	cbz	r0, 8006bdc <system__bb__time__delay_until+0x94>
 8006bb4:	4b1d      	ldr	r3, [pc, #116]	; (8006c2c <system__bb__time__delay_until+0xe4>)
 8006bb6:	681b      	ldr	r3, [r3, #0]
 8006bb8:	b343      	cbz	r3, 8006c0c <system__bb__time__delay_until+0xc4>
 8006bba:	e9d3 4512 	ldrd	r4, r5, [r3, #72]	; 0x48
 8006bbe:	4b1c      	ldr	r3, [pc, #112]	; (8006c30 <system__bb__time__delay_until+0xe8>)
 8006bc0:	681b      	ldr	r3, [r3, #0]
 8006bc2:	b343      	cbz	r3, 8006c16 <system__bb__time__delay_until+0xce>
 8006bc4:	689a      	ldr	r2, [r3, #8]
 8006bc6:	68db      	ldr	r3, [r3, #12]
 8006bc8:	429d      	cmp	r5, r3
 8006bca:	bf08      	it	eq
 8006bcc:	4294      	cmpeq	r4, r2
 8006bce:	4610      	mov	r0, r2
 8006bd0:	4619      	mov	r1, r3
 8006bd2:	bf3c      	itt	cc
 8006bd4:	4620      	movcc	r0, r4
 8006bd6:	4629      	movcc	r1, r5
 8006bd8:	f7ff ff6c 	bl	8006ab4 <system__bb__time__update_alarm>
 8006bdc:	e8bd 47f0 	ldmia.w	sp!, {r4, r5, r6, r7, r8, r9, sl, lr}
 8006be0:	f000 b948 	b.w	8006e74 <system__bb__protection__leave_kernel>
 8006be4:	462f      	mov	r7, r5
 8006be6:	e7b6      	b.n	8006b56 <system__bb__time__delay_until+0xe>
 8006be8:	2301      	movs	r3, #1
 8006bea:	e7d5      	b.n	8006b98 <system__bb__time__delay_until+0x50>
 8006bec:	4610      	mov	r0, r2
 8006bee:	f000 fa4f 	bl	8007090 <system__bb__threads__queues__yield>
 8006bf2:	e8bd 47f0 	ldmia.w	sp!, {r4, r5, r6, r7, r8, r9, sl, lr}
 8006bf6:	f000 b93d 	b.w	8006e74 <system__bb__protection__leave_kernel>
 8006bfa:	2600      	movs	r6, #0
 8006bfc:	4582      	cmp	sl, r0
 8006bfe:	bf94      	ite	ls
 8006c00:	462f      	movls	r7, r5
 8006c02:	1c6f      	addhi	r7, r5, #1
 8006c04:	1836      	adds	r6, r6, r0
 8006c06:	f147 0700 	adc.w	r7, r7, #0
 8006c0a:	e7b8      	b.n	8006b7e <system__bb__time__delay_until+0x36>
 8006c0c:	f04f 34ff 	mov.w	r4, #4294967295
 8006c10:	f04f 35ff 	mov.w	r5, #4294967295
 8006c14:	e7d3      	b.n	8006bbe <system__bb__time__delay_until+0x76>
 8006c16:	f04f 32ff 	mov.w	r2, #4294967295
 8006c1a:	4613      	mov	r3, r2
 8006c1c:	e7d4      	b.n	8006bc8 <system__bb__time__delay_until+0x80>
 8006c1e:	bf00      	nop
 8006c20:	20000100 	.word	0x20000100
 8006c24:	20000134 	.word	0x20000134
 8006c28:	20000128 	.word	0x20000128
 8006c2c:	20000130 	.word	0x20000130
 8006c30:	200000e8 	.word	0x200000e8

08006c34 <system__bb__time__update_clock>:
 8006c34:	b570      	push	{r4, r5, r6, lr}
 8006c36:	4c0a      	ldr	r4, [pc, #40]	; (8006c60 <system__bb__time__update_clock+0x2c>)
 8006c38:	6825      	ldr	r5, [r4, #0]
 8006c3a:	6866      	ldr	r6, [r4, #4]
 8006c3c:	f000 fd3c 	bl	80076b8 <system__bb__board_support__read_clock>
 8006c40:	4286      	cmp	r6, r0
 8006c42:	d807      	bhi.n	8006c54 <system__bb__time__update_clock+0x20>
 8006c44:	6060      	str	r0, [r4, #4]
 8006c46:	2200      	movs	r2, #0
 8006c48:	1812      	adds	r2, r2, r0
 8006c4a:	f145 0300 	adc.w	r3, r5, #0
 8006c4e:	4610      	mov	r0, r2
 8006c50:	4619      	mov	r1, r3
 8006c52:	bd70      	pop	{r4, r5, r6, pc}
 8006c54:	3501      	adds	r5, #1
 8006c56:	2300      	movs	r3, #0
 8006c58:	6023      	str	r3, [r4, #0]
 8006c5a:	6060      	str	r0, [r4, #4]
 8006c5c:	6025      	str	r5, [r4, #0]
 8006c5e:	e7f2      	b.n	8006c46 <system__bb__time__update_clock+0x12>
 8006c60:	20000100 	.word	0x20000100

08006c64 <system__bb__time__alarm_handler>:
 8006c64:	e92d 43f8 	stmdb	sp!, {r3, r4, r5, r6, r7, r8, r9, lr}
 8006c68:	4b1e      	ldr	r3, [pc, #120]	; (8006ce4 <system__bb__time__alarm_handler+0x80>)
 8006c6a:	f04f 7200 	mov.w	r2, #33554432	; 0x2000000
 8006c6e:	601a      	str	r2, [r3, #0]
 8006c70:	b672      	cpsid	i
 8006c72:	4b1d      	ldr	r3, [pc, #116]	; (8006ce8 <system__bb__time__alarm_handler+0x84>)
 8006c74:	f04f 37ff 	mov.w	r7, #4294967295
 8006c78:	601f      	str	r7, [r3, #0]
 8006c7a:	605f      	str	r7, [r3, #4]
 8006c7c:	f7ff ffda 	bl	8006c34 <system__bb__time__update_clock>
 8006c80:	4b1a      	ldr	r3, [pc, #104]	; (8006cec <system__bb__time__alarm_handler+0x88>)
 8006c82:	e9d3 4500 	ldrd	r4, r5, [r3]
 8006c86:	4680      	mov	r8, r0
 8006c88:	1824      	adds	r4, r4, r0
 8006c8a:	4689      	mov	r9, r1
 8006c8c:	414d      	adcs	r5, r1
 8006c8e:	f7ff fde7 	bl	8006860 <system__bb__timing_events__execute_expired_timing_events>
 8006c92:	4640      	mov	r0, r8
 8006c94:	4649      	mov	r1, r9
 8006c96:	f000 f97f 	bl	8006f98 <system__bb__threads__queues__wakeup_expired_alarms>
 8006c9a:	4b15      	ldr	r3, [pc, #84]	; (8006cf0 <system__bb__time__alarm_handler+0x8c>)
 8006c9c:	681b      	ldr	r3, [r3, #0]
 8006c9e:	463e      	mov	r6, r7
 8006ca0:	b10b      	cbz	r3, 8006ca6 <system__bb__time__alarm_handler+0x42>
 8006ca2:	6c9f      	ldr	r7, [r3, #72]	; 0x48
 8006ca4:	6cde      	ldr	r6, [r3, #76]	; 0x4c
 8006ca6:	4b13      	ldr	r3, [pc, #76]	; (8006cf4 <system__bb__time__alarm_handler+0x90>)
 8006ca8:	681b      	ldr	r3, [r3, #0]
 8006caa:	b1b3      	cbz	r3, 8006cda <system__bb__time__alarm_handler+0x76>
 8006cac:	e9d3 2302 	ldrd	r2, r3, [r3, #8]
 8006cb0:	42b5      	cmp	r5, r6
 8006cb2:	bf08      	it	eq
 8006cb4:	42bc      	cmpeq	r4, r7
 8006cb6:	4631      	mov	r1, r6
 8006cb8:	bf38      	it	cc
 8006cba:	4629      	movcc	r1, r5
 8006cbc:	4638      	mov	r0, r7
 8006cbe:	bf38      	it	cc
 8006cc0:	4620      	movcc	r0, r4
 8006cc2:	428b      	cmp	r3, r1
 8006cc4:	bf08      	it	eq
 8006cc6:	4282      	cmpeq	r2, r0
 8006cc8:	bf3c      	itt	cc
 8006cca:	4619      	movcc	r1, r3
 8006ccc:	4610      	movcc	r0, r2
 8006cce:	f7ff fef1 	bl	8006ab4 <system__bb__time__update_alarm>
 8006cd2:	e8bd 43f8 	ldmia.w	sp!, {r3, r4, r5, r6, r7, r8, r9, lr}
 8006cd6:	f000 b8cd 	b.w	8006e74 <system__bb__protection__leave_kernel>
 8006cda:	f04f 32ff 	mov.w	r2, #4294967295
 8006cde:	f04f 33ff 	mov.w	r3, #4294967295
 8006ce2:	e7e5      	b.n	8006cb0 <system__bb__time__alarm_handler+0x4c>
 8006ce4:	e000ed04 	.word	0xe000ed04
 8006ce8:	200000f8 	.word	0x200000f8
 8006cec:	20000108 	.word	0x20000108
 8006cf0:	20000130 	.word	0x20000130
 8006cf4:	200000e8 	.word	0x200000e8

08006cf8 <__gnat_get_secondary_stack>:
 8006cf8:	4b02      	ldr	r3, [pc, #8]	; (8006d04 <__gnat_get_secondary_stack+0xc>)
 8006cfa:	681b      	ldr	r3, [r3, #0]
 8006cfc:	6a9b      	ldr	r3, [r3, #40]	; 0x28
 8006cfe:	f8d3 0098 	ldr.w	r0, [r3, #152]	; 0x98
 8006d02:	4770      	bx	lr
 8006d04:	20000134 	.word	0x20000134

08006d08 <system__tasking__initialize_atcb>:
 8006d08:	b5f8      	push	{r3, r4, r5, r6, r7, lr}
 8006d0a:	9c09      	ldr	r4, [sp, #36]	; 0x24
 8006d0c:	f89d 7018 	ldrb.w	r7, [sp, #24]
 8006d10:	9e07      	ldr	r6, [sp, #28]
 8006d12:	2500      	movs	r5, #0
 8006d14:	7225      	strb	r5, [r4, #8]
 8006d16:	7263      	strb	r3, [r4, #9]
 8006d18:	60e2      	str	r2, [r4, #12]
 8006d1a:	6125      	str	r5, [r4, #16]
 8006d1c:	f8c4 008c 	str.w	r0, [r4, #140]	; 0x8c
 8006d20:	f8c4 1088 	str.w	r1, [r4, #136]	; 0x88
 8006d24:	f884 7248 	strb.w	r7, [r4, #584]	; 0x248
 8006d28:	f8c4 6090 	str.w	r6, [r4, #144]	; 0x90
 8006d2c:	9808      	ldr	r0, [sp, #32]
 8006d2e:	f002 ffd5 	bl	8009cdc <system__parameters__adjust_storage_size>
 8006d32:	2301      	movs	r3, #1
 8006d34:	f8c4 0094 	str.w	r0, [r4, #148]	; 0x94
 8006d38:	4618      	mov	r0, r3
 8006d3a:	bdf8      	pop	{r3, r4, r5, r6, r7, pc}

08006d3c <system__tasking__initialize>:
 8006d3c:	4b3d      	ldr	r3, [pc, #244]	; (8006e34 <system__tasking__initialize+0xf8>)
 8006d3e:	781a      	ldrb	r2, [r3, #0]
 8006d40:	2a00      	cmp	r2, #0
 8006d42:	d16d      	bne.n	8006e20 <system__tasking__initialize+0xe4>
 8006d44:	b5f0      	push	{r4, r5, r6, r7, lr}
 8006d46:	b085      	sub	sp, #20
 8006d48:	4a3b      	ldr	r2, [pc, #236]	; (8006e38 <system__tasking__initialize+0xfc>)
 8006d4a:	4c3c      	ldr	r4, [pc, #240]	; (8006e3c <system__tasking__initialize+0x100>)
 8006d4c:	6811      	ldr	r1, [r2, #0]
 8006d4e:	2001      	movs	r0, #1
 8006d50:	7018      	strb	r0, [r3, #0]
 8006d52:	2500      	movs	r5, #0
 8006d54:	3101      	adds	r1, #1
 8006d56:	f04f 0302 	mov.w	r3, #2
 8006d5a:	bf18      	it	ne
 8006d5c:	6812      	ldrne	r2, [r2, #0]
 8006d5e:	9502      	str	r5, [sp, #8]
 8006d60:	bf08      	it	eq
 8006d62:	2278      	moveq	r2, #120	; 0x78
 8006d64:	e88d 0028 	stmia.w	sp, {r3, r5}
 8006d68:	4629      	mov	r1, r5
 8006d6a:	2301      	movs	r3, #1
 8006d6c:	4628      	mov	r0, r5
 8006d6e:	9403      	str	r4, [sp, #12]
 8006d70:	f7ff ffca 	bl	8006d08 <system__tasking__initialize_atcb>
 8006d74:	f104 0318 	add.w	r3, r4, #24
 8006d78:	f8c4 3080 	str.w	r3, [r4, #128]	; 0x80
 8006d7c:	68e1      	ldr	r1, [r4, #12]
 8006d7e:	f8d4 0080 	ldr.w	r0, [r4, #128]	; 0x80
 8006d82:	f8c4 5244 	str.w	r5, [r4, #580]	; 0x244
 8006d86:	f000 fbf7 	bl	8007578 <system__bb__threads__initialize>
 8006d8a:	4b2d      	ldr	r3, [pc, #180]	; (8006e40 <system__tasking__initialize+0x104>)
 8006d8c:	f8d4 1080 	ldr.w	r1, [r4, #128]	; 0x80
 8006d90:	681a      	ldr	r2, [r3, #0]
 8006d92:	628c      	str	r4, [r1, #40]	; 0x28
 8006d94:	f8c4 5084 	str.w	r5, [r4, #132]	; 0x84
 8006d98:	2a00      	cmp	r2, #0
 8006d9a:	d042      	beq.n	8006e22 <system__tasking__initialize+0xe6>
 8006d9c:	f8c2 4244 	str.w	r4, [r2, #580]	; 0x244
 8006da0:	601c      	str	r4, [r3, #0]
 8006da2:	b672      	cpsid	i
 8006da4:	4b27      	ldr	r3, [pc, #156]	; (8006e44 <system__tasking__initialize+0x108>)
 8006da6:	68e1      	ldr	r1, [r4, #12]
 8006da8:	6818      	ldr	r0, [r3, #0]
 8006daa:	4e27      	ldr	r6, [pc, #156]	; (8006e48 <system__tasking__initialize+0x10c>)
 8006dac:	f000 f88c 	bl	8006ec8 <system__bb__threads__queues__change_priority>
 8006db0:	f000 f860 	bl	8006e74 <system__bb__protection__leave_kernel>
 8006db4:	4925      	ldr	r1, [pc, #148]	; (8006e4c <system__tasking__initialize+0x110>)
 8006db6:	4b26      	ldr	r3, [pc, #152]	; (8006e50 <system__tasking__initialize+0x114>)
 8006db8:	4a26      	ldr	r2, [pc, #152]	; (8006e54 <system__tasking__initialize+0x118>)
 8006dba:	601a      	str	r2, [r3, #0]
 8006dbc:	2001      	movs	r0, #1
 8006dbe:	4635      	mov	r5, r6
 8006dc0:	600c      	str	r4, [r1, #0]
 8006dc2:	f000 fb13 	bl	80073ec <system__task_primitives__operations__initialize_idle>
 8006dc6:	f1a6 0368 	sub.w	r3, r6, #104	; 0x68
 8006dca:	6033      	str	r3, [r6, #0]
 8006dcc:	f855 0980 	ldr.w	r0, [r5], #-128
 8006dd0:	4921      	ldr	r1, [pc, #132]	; (8006e58 <system__tasking__initialize+0x11c>)
 8006dd2:	f8d5 2090 	ldr.w	r2, [r5, #144]	; 0x90
 8006dd6:	f8d5 3094 	ldr.w	r3, [r5, #148]	; 0x94
 8006dda:	9302      	str	r3, [sp, #8]
 8006ddc:	2701      	movs	r7, #1
 8006dde:	9201      	str	r2, [sp, #4]
 8006de0:	f04f 33ff 	mov.w	r3, #4294967295
 8006de4:	462a      	mov	r2, r5
 8006de6:	9700      	str	r7, [sp, #0]
 8006de8:	f000 fc52 	bl	8007690 <system__bb__threads__thread_create>
 8006dec:	6832      	ldr	r2, [r6, #0]
 8006dee:	4b1b      	ldr	r3, [pc, #108]	; (8006e5c <system__tasking__initialize+0x120>)
 8006df0:	6295      	str	r5, [r2, #40]	; 0x28
 8006df2:	4618      	mov	r0, r3
 8006df4:	7227      	strb	r7, [r4, #8]
 8006df6:	f44f 5120 	mov.w	r1, #10240	; 0x2800
 8006dfa:	f8c4 3098 	str.w	r3, [r4, #152]	; 0x98
 8006dfe:	f8c4 4250 	str.w	r4, [r4, #592]	; 0x250
 8006e02:	f002 fe57 	bl	8009ab4 <system__secondary_stack__ss_init>
 8006e06:	4916      	ldr	r1, [pc, #88]	; (8006e60 <system__tasking__initialize+0x124>)
 8006e08:	4b16      	ldr	r3, [pc, #88]	; (8006e64 <system__tasking__initialize+0x128>)
 8006e0a:	6808      	ldr	r0, [r1, #0]
 8006e0c:	2200      	movs	r2, #0
 8006e0e:	3001      	adds	r0, #1
 8006e10:	601a      	str	r2, [r3, #0]
 8006e12:	605a      	str	r2, [r3, #4]
 8006e14:	d002      	beq.n	8006e1c <system__tasking__initialize+0xe0>
 8006e16:	680b      	ldr	r3, [r1, #0]
 8006e18:	42bb      	cmp	r3, r7
 8006e1a:	d105      	bne.n	8006e28 <system__tasking__initialize+0xec>
 8006e1c:	b005      	add	sp, #20
 8006e1e:	bdf0      	pop	{r4, r5, r6, r7, pc}
 8006e20:	4770      	bx	lr
 8006e22:	4a11      	ldr	r2, [pc, #68]	; (8006e68 <system__tasking__initialize+0x12c>)
 8006e24:	6014      	str	r4, [r2, #0]
 8006e26:	e7bb      	b.n	8006da0 <system__tasking__initialize+0x64>
 8006e28:	4a10      	ldr	r2, [pc, #64]	; (8006e6c <system__tasking__initialize+0x130>)
 8006e2a:	4811      	ldr	r0, [pc, #68]	; (8006e70 <system__tasking__initialize+0x134>)
 8006e2c:	f102 033c 	add.w	r3, r2, #60	; 0x3c
 8006e30:	f002 f878 	bl	8008f24 <__gnat_raise_exception>
 8006e34:	20000118 	.word	0x20000118
 8006e38:	20000114 	.word	0x20000114
 8006e3c:	200007a8 	.word	0x200007a8
 8006e40:	2000014c 	.word	0x2000014c
 8006e44:	20000134 	.word	0x20000134
 8006e48:	200033e0 	.word	0x200033e0
 8006e4c:	20000140 	.word	0x20000140
 8006e50:	2000335c 	.word	0x2000335c
 8006e54:	20003dc0 	.word	0x20003dc0
 8006e58:	080073d9 	.word	0x080073d9
 8006e5c:	20000a08 	.word	0x20000a08
 8006e60:	20000124 	.word	0x20000124
 8006e64:	2000011c 	.word	0x2000011c
 8006e68:	20000148 	.word	0x20000148
 8006e6c:	0800dcc8 	.word	0x0800dcc8
 8006e70:	20000158 	.word	0x20000158

08006e74 <system__bb__protection__leave_kernel>:
 8006e74:	b510      	push	{r4, lr}
 8006e76:	4b10      	ldr	r3, [pc, #64]	; (8006eb8 <system__bb__protection__leave_kernel+0x44>)
 8006e78:	4c10      	ldr	r4, [pc, #64]	; (8006ebc <system__bb__protection__leave_kernel+0x48>)
 8006e7a:	681a      	ldr	r2, [r3, #0]
 8006e7c:	6823      	ldr	r3, [r4, #0]
 8006e7e:	429a      	cmp	r2, r3
 8006e80:	d007      	beq.n	8006e92 <system__bb__protection__leave_kernel+0x1e>
 8006e82:	4b0f      	ldr	r3, [pc, #60]	; (8006ec0 <system__bb__protection__leave_kernel+0x4c>)
 8006e84:	681b      	ldr	r3, [r3, #0]
 8006e86:	b103      	cbz	r3, 8006e8a <system__bb__protection__leave_kernel+0x16>
 8006e88:	4798      	blx	r3
 8006e8a:	4b0e      	ldr	r3, [pc, #56]	; (8006ec4 <system__bb__protection__leave_kernel+0x50>)
 8006e8c:	f04f 5280 	mov.w	r2, #268435456	; 0x10000000
 8006e90:	601a      	str	r2, [r3, #0]
 8006e92:	6823      	ldr	r3, [r4, #0]
 8006e94:	6b5b      	ldr	r3, [r3, #52]	; 0x34
 8006e96:	f1a3 02f1 	sub.w	r2, r3, #241	; 0xf1
 8006e9a:	2a0e      	cmp	r2, #14
 8006e9c:	bf9d      	ittte	ls
 8006e9e:	ebc3 1303 	rsbls	r3, r3, r3, lsl #4
 8006ea2:	011b      	lslls	r3, r3, #4
 8006ea4:	b2db      	uxtbls	r3, r3
 8006ea6:	2300      	movhi	r3, #0
 8006ea8:	f383 8811 	msr	BASEPRI, r3
 8006eac:	b662      	cpsie	i
 8006eae:	f3bf 8f4f 	dsb	sy
 8006eb2:	f3bf 8f6f 	isb	sy
 8006eb6:	bd10      	pop	{r4, pc}
 8006eb8:	20000128 	.word	0x20000128
 8006ebc:	20000134 	.word	0x20000134
 8006ec0:	20000110 	.word	0x20000110
 8006ec4:	e000ed04 	.word	0xe000ed04

08006ec8 <system__bb__threads__queues__change_priority>:
 8006ec8:	6b43      	ldr	r3, [r0, #52]	; 0x34
 8006eca:	428b      	cmp	r3, r1
 8006ecc:	d02a      	beq.n	8006f24 <system__bb__threads__queues__change_priority+0x5c>
 8006ece:	b470      	push	{r4, r5, r6}
 8006ed0:	4e18      	ldr	r6, [pc, #96]	; (8006f34 <system__bb__threads__queues__change_priority+0x6c>)
 8006ed2:	6341      	str	r1, [r0, #52]	; 0x34
 8006ed4:	6834      	ldr	r4, [r6, #0]
 8006ed6:	42a0      	cmp	r0, r4
 8006ed8:	d025      	beq.n	8006f26 <system__bb__threads__queues__change_priority+0x5e>
 8006eda:	b14c      	cbz	r4, 8006ef0 <system__bb__threads__queues__change_priority+0x28>
 8006edc:	6c23      	ldr	r3, [r4, #64]	; 0x40
 8006ede:	4298      	cmp	r0, r3
 8006ee0:	d008      	beq.n	8006ef4 <system__bb__threads__queues__change_priority+0x2c>
 8006ee2:	b12b      	cbz	r3, 8006ef0 <system__bb__threads__queues__change_priority+0x28>
 8006ee4:	6c1a      	ldr	r2, [r3, #64]	; 0x40
 8006ee6:	4290      	cmp	r0, r2
 8006ee8:	d005      	beq.n	8006ef6 <system__bb__threads__queues__change_priority+0x2e>
 8006eea:	4613      	mov	r3, r2
 8006eec:	2b00      	cmp	r3, #0
 8006eee:	d1f9      	bne.n	8006ee4 <system__bb__threads__queues__change_priority+0x1c>
 8006ef0:	bc70      	pop	{r4, r5, r6}
 8006ef2:	4770      	bx	lr
 8006ef4:	4623      	mov	r3, r4
 8006ef6:	6c02      	ldr	r2, [r0, #64]	; 0x40
 8006ef8:	641a      	str	r2, [r3, #64]	; 0x40
 8006efa:	6b63      	ldr	r3, [r4, #52]	; 0x34
 8006efc:	4299      	cmp	r1, r3
 8006efe:	db04      	blt.n	8006f0a <system__bb__threads__queues__change_priority+0x42>
 8006f00:	6404      	str	r4, [r0, #64]	; 0x40
 8006f02:	4604      	mov	r4, r0
 8006f04:	6034      	str	r4, [r6, #0]
 8006f06:	bc70      	pop	{r4, r5, r6}
 8006f08:	4770      	bx	lr
 8006f0a:	4622      	mov	r2, r4
 8006f0c:	e003      	b.n	8006f16 <system__bb__threads__queues__change_priority+0x4e>
 8006f0e:	6b5d      	ldr	r5, [r3, #52]	; 0x34
 8006f10:	42a9      	cmp	r1, r5
 8006f12:	da03      	bge.n	8006f1c <system__bb__threads__queues__change_priority+0x54>
 8006f14:	461a      	mov	r2, r3
 8006f16:	6c13      	ldr	r3, [r2, #64]	; 0x40
 8006f18:	2b00      	cmp	r3, #0
 8006f1a:	d1f8      	bne.n	8006f0e <system__bb__threads__queues__change_priority+0x46>
 8006f1c:	6403      	str	r3, [r0, #64]	; 0x40
 8006f1e:	6034      	str	r4, [r6, #0]
 8006f20:	6410      	str	r0, [r2, #64]	; 0x40
 8006f22:	e7f0      	b.n	8006f06 <system__bb__threads__queues__change_priority+0x3e>
 8006f24:	4770      	bx	lr
 8006f26:	6c04      	ldr	r4, [r0, #64]	; 0x40
 8006f28:	2c00      	cmp	r4, #0
 8006f2a:	d0e1      	beq.n	8006ef0 <system__bb__threads__queues__change_priority+0x28>
 8006f2c:	6b63      	ldr	r3, [r4, #52]	; 0x34
 8006f2e:	4299      	cmp	r1, r3
 8006f30:	dbe3      	blt.n	8006efa <system__bb__threads__queues__change_priority+0x32>
 8006f32:	e7dd      	b.n	8006ef0 <system__bb__threads__queues__change_priority+0x28>
 8006f34:	20000128 	.word	0x20000128

08006f38 <system__bb__threads__queues__insert_alarm>:
 8006f38:	e92d 43d0 	stmdb	sp!, {r4, r6, r7, r8, r9, lr}
 8006f3c:	4606      	mov	r6, r0
 8006f3e:	4610      	mov	r0, r2
 8006f40:	4614      	mov	r4, r2
 8006f42:	460f      	mov	r7, r1
 8006f44:	f000 fa8a 	bl	800745c <system__bb__threads__get_cpu>
 8006f48:	b240      	sxtb	r0, r0
 8006f4a:	f100 4380 	add.w	r3, r0, #1073741824	; 0x40000000
 8006f4e:	3b01      	subs	r3, #1
 8006f50:	4a10      	ldr	r2, [pc, #64]	; (8006f94 <system__bb__threads__queues__insert_alarm+0x5c>)
 8006f52:	f852 1023 	ldr.w	r1, [r2, r3, lsl #2]
 8006f56:	e9c4 6712 	strd	r6, r7, [r4, #72]	; 0x48
 8006f5a:	b1a9      	cbz	r1, 8006f88 <system__bb__threads__queues__insert_alarm+0x50>
 8006f5c:	e9d1 8912 	ldrd	r8, r9, [r1, #72]	; 0x48
 8006f60:	454f      	cmp	r7, r9
 8006f62:	bf08      	it	eq
 8006f64:	4546      	cmpeq	r6, r8
 8006f66:	d207      	bcs.n	8006f78 <system__bb__threads__queues__insert_alarm+0x40>
 8006f68:	e00e      	b.n	8006f88 <system__bb__threads__queues__insert_alarm+0x50>
 8006f6a:	e9d3 8912 	ldrd	r8, r9, [r3, #72]	; 0x48
 8006f6e:	45b9      	cmp	r9, r7
 8006f70:	bf08      	it	eq
 8006f72:	45b0      	cmpeq	r8, r6
 8006f74:	d203      	bcs.n	8006f7e <system__bb__threads__queues__insert_alarm+0x46>
 8006f76:	4619      	mov	r1, r3
 8006f78:	6d0b      	ldr	r3, [r1, #80]	; 0x50
 8006f7a:	2b00      	cmp	r3, #0
 8006f7c:	d1f5      	bne.n	8006f6a <system__bb__threads__queues__insert_alarm+0x32>
 8006f7e:	2000      	movs	r0, #0
 8006f80:	6523      	str	r3, [r4, #80]	; 0x50
 8006f82:	650c      	str	r4, [r1, #80]	; 0x50
 8006f84:	e8bd 83d0 	ldmia.w	sp!, {r4, r6, r7, r8, r9, pc}
 8006f88:	2001      	movs	r0, #1
 8006f8a:	6521      	str	r1, [r4, #80]	; 0x50
 8006f8c:	f842 4023 	str.w	r4, [r2, r3, lsl #2]
 8006f90:	e8bd 83d0 	ldmia.w	sp!, {r4, r6, r7, r8, r9, pc}
 8006f94:	20000130 	.word	0x20000130

08006f98 <system__bb__threads__queues__wakeup_expired_alarms>:
 8006f98:	e92d 47f0 	stmdb	sp!, {r4, r5, r6, r7, r8, r9, sl, lr}
 8006f9c:	f8df a0ec 	ldr.w	sl, [pc, #236]	; 800708c <system__bb__threads__queues__wakeup_expired_alarms+0xf4>
 8006fa0:	f8df 90e4 	ldr.w	r9, [pc, #228]	; 8007088 <system__bb__threads__queues__wakeup_expired_alarms+0xf0>
 8006fa4:	4604      	mov	r4, r0
 8006fa6:	460d      	mov	r5, r1
 8006fa8:	f04f 36ff 	mov.w	r6, #4294967295
 8006fac:	f04f 37ff 	mov.w	r7, #4294967295
 8006fb0:	f8da 8000 	ldr.w	r8, [sl]
 8006fb4:	f1b8 0f00 	cmp.w	r8, #0
 8006fb8:	d040      	beq.n	800703c <system__bb__threads__queues__wakeup_expired_alarms+0xa4>
 8006fba:	e9d8 2312 	ldrd	r2, r3, [r8, #72]	; 0x48
 8006fbe:	429d      	cmp	r5, r3
 8006fc0:	bf08      	it	eq
 8006fc2:	4294      	cmpeq	r4, r2
 8006fc4:	d342      	bcc.n	800704c <system__bb__threads__queues__wakeup_expired_alarms+0xb4>
 8006fc6:	2200      	movs	r2, #0
 8006fc8:	f8d8 3050 	ldr.w	r3, [r8, #80]	; 0x50
 8006fcc:	f888 2054 	strb.w	r2, [r8, #84]	; 0x54
 8006fd0:	f8c8 2050 	str.w	r2, [r8, #80]	; 0x50
 8006fd4:	e9c8 6712 	strd	r6, r7, [r8, #72]	; 0x48
 8006fd8:	4640      	mov	r0, r8
 8006fda:	f8ca 3000 	str.w	r3, [sl]
 8006fde:	f000 fa3d 	bl	800745c <system__bb__threads__get_cpu>
 8006fe2:	b240      	sxtb	r0, r0
 8006fe4:	f100 4080 	add.w	r0, r0, #1073741824	; 0x40000000
 8006fe8:	3801      	subs	r0, #1
 8006fea:	4b27      	ldr	r3, [pc, #156]	; (8007088 <system__bb__threads__queues__wakeup_expired_alarms+0xf0>)
 8006fec:	f859 2020 	ldr.w	r2, [r9, r0, lsl #2]
 8006ff0:	4590      	cmp	r8, r2
 8006ff2:	d0dd      	beq.n	8006fb0 <system__bb__threads__queues__wakeup_expired_alarms+0x18>
 8006ff4:	f853 2020 	ldr.w	r2, [r3, r0, lsl #2]
 8006ff8:	b37a      	cbz	r2, 800705a <system__bb__threads__queues__wakeup_expired_alarms+0xc2>
 8006ffa:	f8d8 1034 	ldr.w	r1, [r8, #52]	; 0x34
 8006ffe:	f853 2020 	ldr.w	r2, [r3, r0, lsl #2]
 8007002:	6b52      	ldr	r2, [r2, #52]	; 0x34
 8007004:	4291      	cmp	r1, r2
 8007006:	dc28      	bgt.n	800705a <system__bb__threads__queues__wakeup_expired_alarms+0xc2>
 8007008:	f853 2020 	ldr.w	r2, [r3, r0, lsl #2]
 800700c:	e007      	b.n	800701e <system__bb__threads__queues__wakeup_expired_alarms+0x86>
 800700e:	4543      	cmp	r3, r8
 8007010:	d02a      	beq.n	8007068 <system__bb__threads__queues__wakeup_expired_alarms+0xd0>
 8007012:	6b58      	ldr	r0, [r3, #52]	; 0x34
 8007014:	f8d8 1034 	ldr.w	r1, [r8, #52]	; 0x34
 8007018:	4288      	cmp	r0, r1
 800701a:	db03      	blt.n	8007024 <system__bb__threads__queues__wakeup_expired_alarms+0x8c>
 800701c:	461a      	mov	r2, r3
 800701e:	6c13      	ldr	r3, [r2, #64]	; 0x40
 8007020:	2b00      	cmp	r3, #0
 8007022:	d1f4      	bne.n	800700e <system__bb__threads__queues__wakeup_expired_alarms+0x76>
 8007024:	4543      	cmp	r3, r8
 8007026:	d01f      	beq.n	8007068 <system__bb__threads__queues__wakeup_expired_alarms+0xd0>
 8007028:	6c13      	ldr	r3, [r2, #64]	; 0x40
 800702a:	f8c8 3040 	str.w	r3, [r8, #64]	; 0x40
 800702e:	f8c2 8040 	str.w	r8, [r2, #64]	; 0x40
 8007032:	f8da 8000 	ldr.w	r8, [sl]
 8007036:	f1b8 0f00 	cmp.w	r8, #0
 800703a:	d1be      	bne.n	8006fba <system__bb__threads__queues__wakeup_expired_alarms+0x22>
 800703c:	f04f 33ff 	mov.w	r3, #4294967295
 8007040:	f04f 32ff 	mov.w	r2, #4294967295
 8007044:	429d      	cmp	r5, r3
 8007046:	bf08      	it	eq
 8007048:	4294      	cmpeq	r4, r2
 800704a:	d2bc      	bcs.n	8006fc6 <system__bb__threads__queues__wakeup_expired_alarms+0x2e>
 800704c:	2001      	movs	r0, #1
 800704e:	f7ff fcb7 	bl	80069c0 <system__bb__time__get_next_timeout>
 8007052:	e8bd 47f0 	ldmia.w	sp!, {r4, r5, r6, r7, r8, r9, sl, lr}
 8007056:	f7ff bd2d 	b.w	8006ab4 <system__bb__time__update_alarm>
 800705a:	f853 2020 	ldr.w	r2, [r3, r0, lsl #2]
 800705e:	f8c8 2040 	str.w	r2, [r8, #64]	; 0x40
 8007062:	f843 8020 	str.w	r8, [r3, r0, lsl #2]
 8007066:	e7a3      	b.n	8006fb0 <system__bb__threads__queues__wakeup_expired_alarms+0x18>
 8007068:	f8d8 3040 	ldr.w	r3, [r8, #64]	; 0x40
 800706c:	6413      	str	r3, [r2, #64]	; 0x40
 800706e:	4611      	mov	r1, r2
 8007070:	e005      	b.n	800707e <system__bb__threads__queues__wakeup_expired_alarms+0xe6>
 8007072:	6b58      	ldr	r0, [r3, #52]	; 0x34
 8007074:	f8d8 2034 	ldr.w	r2, [r8, #52]	; 0x34
 8007078:	4290      	cmp	r0, r2
 800707a:	db03      	blt.n	8007084 <system__bb__threads__queues__wakeup_expired_alarms+0xec>
 800707c:	4619      	mov	r1, r3
 800707e:	6c0b      	ldr	r3, [r1, #64]	; 0x40
 8007080:	2b00      	cmp	r3, #0
 8007082:	d1f6      	bne.n	8007072 <system__bb__threads__queues__wakeup_expired_alarms+0xda>
 8007084:	460a      	mov	r2, r1
 8007086:	e7cf      	b.n	8007028 <system__bb__threads__queues__wakeup_expired_alarms+0x90>
 8007088:	20000128 	.word	0x20000128
 800708c:	20000130 	.word	0x20000130

08007090 <system__bb__threads__queues__yield>:
 8007090:	b538      	push	{r3, r4, r5, lr}
 8007092:	4605      	mov	r5, r0
 8007094:	f000 f9e2 	bl	800745c <system__bb__threads__get_cpu>
 8007098:	6c2a      	ldr	r2, [r5, #64]	; 0x40
 800709a:	6b6c      	ldr	r4, [r5, #52]	; 0x34
 800709c:	b112      	cbz	r2, 80070a4 <system__bb__threads__queues__yield+0x14>
 800709e:	6b53      	ldr	r3, [r2, #52]	; 0x34
 80070a0:	429c      	cmp	r4, r3
 80070a2:	d000      	beq.n	80070a6 <system__bb__threads__queues__yield+0x16>
 80070a4:	bd38      	pop	{r3, r4, r5, pc}
 80070a6:	b243      	sxtb	r3, r0
 80070a8:	f103 4380 	add.w	r3, r3, #1073741824	; 0x40000000
 80070ac:	3b01      	subs	r3, #1
 80070ae:	4908      	ldr	r1, [pc, #32]	; (80070d0 <system__bb__threads__queues__yield+0x40>)
 80070b0:	f841 2023 	str.w	r2, [r1, r3, lsl #2]
 80070b4:	f851 2023 	ldr.w	r2, [r1, r3, lsl #2]
 80070b8:	e003      	b.n	80070c2 <system__bb__threads__queues__yield+0x32>
 80070ba:	6b59      	ldr	r1, [r3, #52]	; 0x34
 80070bc:	428c      	cmp	r4, r1
 80070be:	d103      	bne.n	80070c8 <system__bb__threads__queues__yield+0x38>
 80070c0:	461a      	mov	r2, r3
 80070c2:	6c13      	ldr	r3, [r2, #64]	; 0x40
 80070c4:	2b00      	cmp	r3, #0
 80070c6:	d1f8      	bne.n	80070ba <system__bb__threads__queues__yield+0x2a>
 80070c8:	642b      	str	r3, [r5, #64]	; 0x40
 80070ca:	6415      	str	r5, [r2, #64]	; 0x40
 80070cc:	bd38      	pop	{r3, r4, r5, pc}
 80070ce:	bf00      	nop
 80070d0:	20000128 	.word	0x20000128

080070d4 <ada__real_time__delays__delay_until>:
 80070d4:	b510      	push	{r4, lr}
 80070d6:	4b09      	ldr	r3, [pc, #36]	; (80070fc <ada__real_time__delays__delay_until+0x28>)
 80070d8:	681a      	ldr	r2, [r3, #0]
 80070da:	6a92      	ldr	r2, [r2, #40]	; 0x28
 80070dc:	6912      	ldr	r2, [r2, #16]
 80070de:	2a00      	cmp	r2, #0
 80070e0:	dc08      	bgt.n	80070f4 <ada__real_time__delays__delay_until+0x20>
 80070e2:	681b      	ldr	r3, [r3, #0]
 80070e4:	6a9c      	ldr	r4, [r3, #40]	; 0x28
 80070e6:	2307      	movs	r3, #7
 80070e8:	7223      	strb	r3, [r4, #8]
 80070ea:	f7ff fd2d 	bl	8006b48 <system__bb__time__delay_until>
 80070ee:	2301      	movs	r3, #1
 80070f0:	7223      	strb	r3, [r4, #8]
 80070f2:	bd10      	pop	{r4, pc}
 80070f4:	4802      	ldr	r0, [pc, #8]	; (8007100 <ada__real_time__delays__delay_until+0x2c>)
 80070f6:	212e      	movs	r1, #46	; 0x2e
 80070f8:	f001 ff8e 	bl	8009018 <__gnat_rcheck_PE_Explicit_Raise>
 80070fc:	20000134 	.word	0x20000134
 8007100:	0800dd0c 	.word	0x0800dd0c

08007104 <system__bb__interrupts__interrupt_wrapper>:
 8007104:	e92d 4ff0 	stmdb	sp!, {r4, r5, r6, r7, r8, r9, sl, fp, lr}
 8007108:	b083      	sub	sp, #12
 800710a:	4b3a      	ldr	r3, [pc, #232]	; (80071f4 <system__bb__interrupts__interrupt_wrapper+0xf0>)
 800710c:	681d      	ldr	r5, [r3, #0]
 800710e:	280f      	cmp	r0, #15
 8007110:	f8d5 8034 	ldr.w	r8, [r5, #52]	; 0x34
 8007114:	d050      	beq.n	80071b8 <system__bb__interrupts__interrupt_wrapper+0xb4>
 8007116:	f3ef 8305 	mrs	r3, IPSR
 800711a:	b2db      	uxtb	r3, r3
 800711c:	f1a3 060e 	sub.w	r6, r3, #14
 8007120:	2e01      	cmp	r6, #1
 8007122:	d049      	beq.n	80071b8 <system__bb__interrupts__interrupt_wrapper+0xb4>
 8007124:	3b10      	subs	r3, #16
 8007126:	4a34      	ldr	r2, [pc, #208]	; (80071f8 <system__bb__interrupts__interrupt_wrapper+0xf4>)
 8007128:	5cd3      	ldrb	r3, [r2, r3]
 800712a:	f003 04ff 	and.w	r4, r3, #255	; 0xff
 800712e:	b95b      	cbnz	r3, 8007148 <system__bb__interrupts__interrupt_wrapper+0x44>
 8007130:	24ff      	movs	r4, #255	; 0xff
 8007132:	f8df 90cc 	ldr.w	r9, [pc, #204]	; 8007200 <system__bb__interrupts__interrupt_wrapper+0xfc>
 8007136:	f8d9 b000 	ldr.w	fp, [r9]
 800713a:	f895 7055 	ldrb.w	r7, [r5, #85]	; 0x55
 800713e:	b2ff      	uxtb	r7, r7
 8007140:	b936      	cbnz	r6, 8007150 <system__bb__interrupts__interrupt_wrapper+0x4c>
 8007142:	b003      	add	sp, #12
 8007144:	e8bd 8ff0 	ldmia.w	sp!, {r4, r5, r6, r7, r8, r9, sl, fp, pc}
 8007148:	0924      	lsrs	r4, r4, #4
 800714a:	f5c4 7480 	rsb	r4, r4, #256	; 0x100
 800714e:	e7f0      	b.n	8007132 <system__bb__interrupts__interrupt_wrapper+0x2e>
 8007150:	f8df a0b0 	ldr.w	sl, [pc, #176]	; 8007204 <system__bb__interrupts__interrupt_wrapper+0x100>
 8007154:	f8da 3000 	ldr.w	r3, [sl]
 8007158:	4621      	mov	r1, r4
 800715a:	b113      	cbz	r3, 8007162 <system__bb__interrupts__interrupt_wrapper+0x5e>
 800715c:	9101      	str	r1, [sp, #4]
 800715e:	4798      	blx	r3
 8007160:	9901      	ldr	r1, [sp, #4]
 8007162:	f8c9 6000 	str.w	r6, [r9]
 8007166:	2301      	movs	r3, #1
 8007168:	f885 3055 	strb.w	r3, [r5, #85]	; 0x55
 800716c:	4628      	mov	r0, r5
 800716e:	f7ff feab 	bl	8006ec8 <system__bb__threads__queues__change_priority>
 8007172:	f5b4 7f80 	cmp.w	r4, #256	; 0x100
 8007176:	d02f      	beq.n	80071d8 <system__bb__interrupts__interrupt_wrapper+0xd4>
 8007178:	ebc4 1404 	rsb	r4, r4, r4, lsl #4
 800717c:	0124      	lsls	r4, r4, #4
 800717e:	b2e4      	uxtb	r4, r4
 8007180:	f384 8811 	msr	BASEPRI, r4
 8007184:	b662      	cpsie	i
 8007186:	f3bf 8f4f 	dsb	sy
 800718a:	f3bf 8f6f 	isb	sy
 800718e:	4b1b      	ldr	r3, [pc, #108]	; (80071fc <system__bb__interrupts__interrupt_wrapper+0xf8>)
 8007190:	4630      	mov	r0, r6
 8007192:	f853 3026 	ldr.w	r3, [r3, r6, lsl #2]
 8007196:	4798      	blx	r3
 8007198:	b672      	cpsid	i
 800719a:	f8da 3000 	ldr.w	r3, [sl]
 800719e:	b103      	cbz	r3, 80071a2 <system__bb__interrupts__interrupt_wrapper+0x9e>
 80071a0:	4798      	blx	r3
 80071a2:	4641      	mov	r1, r8
 80071a4:	4628      	mov	r0, r5
 80071a6:	f7ff fe8f 	bl	8006ec8 <system__bb__threads__queues__change_priority>
 80071aa:	f8c9 b000 	str.w	fp, [r9]
 80071ae:	f885 7055 	strb.w	r7, [r5, #85]	; 0x55
 80071b2:	b003      	add	sp, #12
 80071b4:	e8bd 8ff0 	ldmia.w	sp!, {r4, r5, r6, r7, r8, r9, sl, fp, pc}
 80071b8:	f8df 9044 	ldr.w	r9, [pc, #68]	; 8007200 <system__bb__interrupts__interrupt_wrapper+0xfc>
 80071bc:	f8df a044 	ldr.w	sl, [pc, #68]	; 8007204 <system__bb__interrupts__interrupt_wrapper+0x100>
 80071c0:	f8d9 b000 	ldr.w	fp, [r9]
 80071c4:	f8da 3000 	ldr.w	r3, [sl]
 80071c8:	f895 7055 	ldrb.w	r7, [r5, #85]	; 0x55
 80071cc:	b2ff      	uxtb	r7, r7
 80071ce:	b12b      	cbz	r3, 80071dc <system__bb__interrupts__interrupt_wrapper+0xd8>
 80071d0:	21ff      	movs	r1, #255	; 0xff
 80071d2:	460c      	mov	r4, r1
 80071d4:	2601      	movs	r6, #1
 80071d6:	e7c1      	b.n	800715c <system__bb__interrupts__interrupt_wrapper+0x58>
 80071d8:	2400      	movs	r4, #0
 80071da:	e7d1      	b.n	8007180 <system__bb__interrupts__interrupt_wrapper+0x7c>
 80071dc:	2601      	movs	r6, #1
 80071de:	f8c9 6000 	str.w	r6, [r9]
 80071e2:	4628      	mov	r0, r5
 80071e4:	f885 6055 	strb.w	r6, [r5, #85]	; 0x55
 80071e8:	21ff      	movs	r1, #255	; 0xff
 80071ea:	f7ff fe6d 	bl	8006ec8 <system__bb__threads__queues__change_priority>
 80071ee:	24ff      	movs	r4, #255	; 0xff
 80071f0:	e7c2      	b.n	8007178 <system__bb__interrupts__interrupt_wrapper+0x74>
 80071f2:	bf00      	nop
 80071f4:	20000134 	.word	0x20000134
 80071f8:	e000e400 	.word	0xe000e400
 80071fc:	20003208 	.word	0x20003208
 8007200:	20000138 	.word	0x20000138
 8007204:	20000110 	.word	0x20000110

08007208 <system__bb__interrupts__initialize_interrupts>:
 8007208:	4a01      	ldr	r2, [pc, #4]	; (8007210 <system__bb__interrupts__initialize_interrupts+0x8>)
 800720a:	4b02      	ldr	r3, [pc, #8]	; (8007214 <system__bb__interrupts__initialize_interrupts+0xc>)
 800720c:	601a      	str	r2, [r3, #0]
 800720e:	4770      	bx	lr
 8007210:	20004b48 	.word	0x20004b48
 8007214:	20003358 	.word	0x20003358

08007218 <ada__real_time__Oadd>:
 8007218:	b5f8      	push	{r3, r4, r5, r6, r7, lr}
 800721a:	2a00      	cmp	r2, #0
 800721c:	f173 0400 	sbcs.w	r4, r3, #0
 8007220:	db1f      	blt.n	8007262 <ada__real_time__Oadd+0x4a>
 8007222:	43cd      	mvns	r5, r1
 8007224:	43c4      	mvns	r4, r0
 8007226:	429d      	cmp	r5, r3
 8007228:	bf08      	it	eq
 800722a:	4294      	cmpeq	r4, r2
 800722c:	d216      	bcs.n	800725c <ada__real_time__Oadd+0x44>
 800722e:	f112 34ff 	adds.w	r4, r2, #4294967295
 8007232:	f163 4500 	sbc.w	r5, r3, #2147483648	; 0x80000000
 8007236:	f06f 4700 	mvn.w	r7, #2147483648	; 0x80000000
 800723a:	f06f 0601 	mvn.w	r6, #1
 800723e:	42af      	cmp	r7, r5
 8007240:	bf08      	it	eq
 8007242:	42a6      	cmpeq	r6, r4
 8007244:	d316      	bcc.n	8007274 <ada__real_time__Oadd+0x5c>
 8007246:	4252      	negs	r2, r2
 8007248:	eb63 0343 	sbc.w	r3, r3, r3, lsl #1
 800724c:	4299      	cmp	r1, r3
 800724e:	bf08      	it	eq
 8007250:	4290      	cmpeq	r0, r2
 8007252:	d30f      	bcc.n	8007274 <ada__real_time__Oadd+0x5c>
 8007254:	1a80      	subs	r0, r0, r2
 8007256:	eb61 0103 	sbc.w	r1, r1, r3
 800725a:	bdf8      	pop	{r3, r4, r5, r6, r7, pc}
 800725c:	1880      	adds	r0, r0, r2
 800725e:	4159      	adcs	r1, r3
 8007260:	bdf8      	pop	{r3, r4, r5, r6, r7, pc}
 8007262:	f1b3 4f00 	cmp.w	r3, #2147483648	; 0x80000000
 8007266:	bf08      	it	eq
 8007268:	2a00      	cmpeq	r2, #0
 800726a:	d1e0      	bne.n	800722e <ada__real_time__Oadd+0x16>
 800726c:	2800      	cmp	r0, #0
 800726e:	f171 0300 	sbcs.w	r3, r1, #0
 8007272:	db03      	blt.n	800727c <ada__real_time__Oadd+0x64>
 8007274:	4803      	ldr	r0, [pc, #12]	; (8007284 <ada__real_time__Oadd+0x6c>)
 8007276:	21cf      	movs	r1, #207	; 0xcf
 8007278:	f001 fea6 	bl	8008fc8 <__gnat_rcheck_CE_Explicit_Raise>
 800727c:	3000      	adds	r0, #0
 800727e:	f141 4100 	adc.w	r1, r1, #2147483648	; 0x80000000
 8007282:	e7ea      	b.n	800725a <ada__real_time__Oadd+0x42>
 8007284:	0800dd1c 	.word	0x0800dd1c

08007288 <ada__real_time__Osubtract__2>:
 8007288:	b508      	push	{r3, lr}
 800728a:	4299      	cmp	r1, r3
 800728c:	bf08      	it	eq
 800728e:	4290      	cmpeq	r0, r2
 8007290:	d309      	bcc.n	80072a6 <ada__real_time__Osubtract__2+0x1e>
 8007292:	1a82      	subs	r2, r0, r2
 8007294:	eb61 0303 	sbc.w	r3, r1, r3
 8007298:	2a00      	cmp	r2, #0
 800729a:	f173 0100 	sbcs.w	r1, r3, #0
 800729e:	db0e      	blt.n	80072be <ada__real_time__Osubtract__2+0x36>
 80072a0:	4610      	mov	r0, r2
 80072a2:	4619      	mov	r1, r3
 80072a4:	bd08      	pop	{r3, pc}
 80072a6:	1a12      	subs	r2, r2, r0
 80072a8:	eb63 0301 	sbc.w	r3, r3, r1
 80072ac:	f1b3 4f00 	cmp.w	r3, #2147483648	; 0x80000000
 80072b0:	bf08      	it	eq
 80072b2:	2a01      	cmpeq	r2, #1
 80072b4:	d203      	bcs.n	80072be <ada__real_time__Osubtract__2+0x36>
 80072b6:	4250      	negs	r0, r2
 80072b8:	eb63 0143 	sbc.w	r1, r3, r3, lsl #1
 80072bc:	bd08      	pop	{r3, pc}
 80072be:	4802      	ldr	r0, [pc, #8]	; (80072c8 <ada__real_time__Osubtract__2+0x40>)
 80072c0:	f44f 7186 	mov.w	r1, #268	; 0x10c
 80072c4:	f001 fe80 	bl	8008fc8 <__gnat_rcheck_CE_Explicit_Raise>
 80072c8:	0800dd1c 	.word	0x0800dd1c

080072cc <ada__real_time__clock>:
 80072cc:	e92d 43f8 	stmdb	sp!, {r3, r4, r5, r6, r7, r8, r9, lr}
 80072d0:	4e13      	ldr	r6, [pc, #76]	; (8007320 <ada__real_time__clock+0x54>)
 80072d2:	2400      	movs	r4, #0
 80072d4:	f106 0804 	add.w	r8, r6, #4
 80072d8:	6835      	ldr	r5, [r6, #0]
 80072da:	f8d8 7000 	ldr.w	r7, [r8]
 80072de:	f000 f9eb 	bl	80076b8 <system__bb__board_support__read_clock>
 80072e2:	6833      	ldr	r3, [r6, #0]
 80072e4:	429d      	cmp	r5, r3
 80072e6:	ebc9 0205 	rsb	r2, r9, r5
 80072ea:	f104 0401 	add.w	r4, r4, #1
 80072ee:	d00d      	beq.n	800730c <ada__real_time__clock+0x40>
 80072f0:	2c01      	cmp	r4, #1
 80072f2:	d009      	beq.n	8007308 <ada__real_time__clock+0x3c>
 80072f4:	2a01      	cmp	r2, #1
 80072f6:	d801      	bhi.n	80072fc <ada__real_time__clock+0x30>
 80072f8:	2c03      	cmp	r4, #3
 80072fa:	d1ed      	bne.n	80072d8 <ada__real_time__clock+0xc>
 80072fc:	2200      	movs	r2, #0
 80072fe:	462b      	mov	r3, r5
 8007300:	4610      	mov	r0, r2
 8007302:	4619      	mov	r1, r3
 8007304:	e8bd 83f8 	ldmia.w	sp!, {r3, r4, r5, r6, r7, r8, r9, pc}
 8007308:	46a9      	mov	r9, r5
 800730a:	e7e5      	b.n	80072d8 <ada__real_time__clock+0xc>
 800730c:	2200      	movs	r2, #0
 800730e:	4287      	cmp	r7, r0
 8007310:	bf94      	ite	ls
 8007312:	462b      	movls	r3, r5
 8007314:	1c6b      	addhi	r3, r5, #1
 8007316:	1812      	adds	r2, r2, r0
 8007318:	f143 0300 	adc.w	r3, r3, #0
 800731c:	e7f0      	b.n	8007300 <ada__real_time__clock+0x34>
 800731e:	bf00      	nop
 8007320:	20000100 	.word	0x20000100

08007324 <ada__real_time__microseconds>:
 8007324:	b508      	push	{r3, lr}
 8007326:	4b09      	ldr	r3, [pc, #36]	; (800734c <ada__real_time__microseconds+0x28>)
 8007328:	fb80 0103 	smull	r0, r1, r0, r3
 800732c:	2800      	cmp	r0, #0
 800732e:	f171 0300 	sbcs.w	r3, r1, #0
 8007332:	bfab      	itete	ge
 8007334:	4a06      	ldrge	r2, [pc, #24]	; (8007350 <ada__real_time__microseconds+0x2c>)
 8007336:	4a07      	ldrlt	r2, [pc, #28]	; (8007354 <ada__real_time__microseconds+0x30>)
 8007338:	2300      	movge	r3, #0
 800733a:	f04f 33ff 	movlt.w	r3, #4294967295
 800733e:	1880      	adds	r0, r0, r2
 8007340:	4159      	adcs	r1, r3
 8007342:	4a05      	ldr	r2, [pc, #20]	; (8007358 <ada__real_time__microseconds+0x34>)
 8007344:	2300      	movs	r3, #0
 8007346:	f003 fb65 	bl	800aa14 <__aeabi_ldivmod>
 800734a:	bd08      	pop	{r3, pc}
 800734c:	04c4b400 	.word	0x04c4b400
 8007350:	0007a120 	.word	0x0007a120
 8007354:	fff85ee0 	.word	0xfff85ee0
 8007358:	000f4240 	.word	0x000f4240

0800735c <ada__real_time__milliseconds>:
 800735c:	b508      	push	{r3, lr}
 800735e:	4b0d      	ldr	r3, [pc, #52]	; (8007394 <ada__real_time__milliseconds+0x38>)
 8007360:	fb80 0103 	smull	r0, r1, r0, r3
 8007364:	2800      	cmp	r0, #0
 8007366:	f171 0300 	sbcs.w	r3, r1, #0
 800736a:	db09      	blt.n	8007380 <ada__real_time__milliseconds+0x24>
 800736c:	f510 70fa 	adds.w	r0, r0, #500	; 0x1f4
 8007370:	f141 0100 	adc.w	r1, r1, #0
 8007374:	f44f 727a 	mov.w	r2, #1000	; 0x3e8
 8007378:	2300      	movs	r3, #0
 800737a:	f003 fb4b 	bl	800aa14 <__aeabi_ldivmod>
 800737e:	bd08      	pop	{r3, pc}
 8007380:	f5b0 70fa 	subs.w	r0, r0, #500	; 0x1f4
 8007384:	f141 31ff 	adc.w	r1, r1, #4294967295
 8007388:	f44f 727a 	mov.w	r2, #1000	; 0x3e8
 800738c:	2300      	movs	r3, #0
 800738e:	f003 fb41 	bl	800aa14 <__aeabi_ldivmod>
 8007392:	bd08      	pop	{r3, pc}
 8007394:	04c4b400 	.word	0x04c4b400

08007398 <ada__real_time___elabb>:
 8007398:	f7ff bcd0 	b.w	8006d3c <system__tasking__initialize>

0800739c <system__task_primitives__operations__enter_task>:
 800739c:	b508      	push	{r3, lr}
 800739e:	4b0b      	ldr	r3, [pc, #44]	; (80073cc <system__task_primitives__operations__enter_task+0x30>)
 80073a0:	681a      	ldr	r2, [r3, #0]
 80073a2:	2100      	movs	r1, #0
 80073a4:	f8c0 1084 	str.w	r1, [r0, #132]	; 0x84
 80073a8:	b162      	cbz	r2, 80073c4 <system__task_primitives__operations__enter_task+0x28>
 80073aa:	f8c2 0244 	str.w	r0, [r2, #580]	; 0x244
 80073ae:	6018      	str	r0, [r3, #0]
 80073b0:	68c1      	ldr	r1, [r0, #12]
 80073b2:	b672      	cpsid	i
 80073b4:	4b06      	ldr	r3, [pc, #24]	; (80073d0 <system__task_primitives__operations__enter_task+0x34>)
 80073b6:	6818      	ldr	r0, [r3, #0]
 80073b8:	f7ff fd86 	bl	8006ec8 <system__bb__threads__queues__change_priority>
 80073bc:	e8bd 4008 	ldmia.w	sp!, {r3, lr}
 80073c0:	f7ff bd58 	b.w	8006e74 <system__bb__protection__leave_kernel>
 80073c4:	4a03      	ldr	r2, [pc, #12]	; (80073d4 <system__task_primitives__operations__enter_task+0x38>)
 80073c6:	6010      	str	r0, [r2, #0]
 80073c8:	e7f1      	b.n	80073ae <system__task_primitives__operations__enter_task+0x12>
 80073ca:	bf00      	nop
 80073cc:	2000014c 	.word	0x2000014c
 80073d0:	20000134 	.word	0x20000134
 80073d4:	20000148 	.word	0x20000148

080073d8 <system__task_primitives__operations__idle>:
 80073d8:	b508      	push	{r3, lr}
 80073da:	4b03      	ldr	r3, [pc, #12]	; (80073e8 <system__task_primitives__operations__idle+0x10>)
 80073dc:	681b      	ldr	r3, [r3, #0]
 80073de:	6a98      	ldr	r0, [r3, #40]	; 0x28
 80073e0:	f7ff ffdc 	bl	800739c <system__task_primitives__operations__enter_task>
 80073e4:	bf30      	wfi
 80073e6:	e7fd      	b.n	80073e4 <system__task_primitives__operations__idle+0xc>
 80073e8:	20000134 	.word	0x20000134

080073ec <system__task_primitives__operations__initialize_idle>:
 80073ec:	b5f0      	push	{r4, r5, r6, r7, lr}
 80073ee:	b085      	sub	sp, #20
 80073f0:	b246      	sxtb	r6, r0
 80073f2:	f44f 7418 	mov.w	r4, #608	; 0x260
 80073f6:	4914      	ldr	r1, [pc, #80]	; (8007448 <system__task_primitives__operations__initialize_idle+0x5c>)
 80073f8:	4d14      	ldr	r5, [pc, #80]	; (800744c <system__task_primitives__operations__initialize_idle+0x60>)
 80073fa:	4a15      	ldr	r2, [pc, #84]	; (8007450 <system__task_primitives__operations__initialize_idle+0x64>)
 80073fc:	fb04 f406 	mul.w	r4, r4, r6
 8007400:	4431      	add	r1, r6
 8007402:	f5a4 7618 	sub.w	r6, r4, #608	; 0x260
 8007406:	eb02 22c1 	add.w	r2, r2, r1, lsl #11
 800740a:	442e      	add	r6, r5
 800740c:	2702      	movs	r7, #2
 800740e:	f44f 6100 	mov.w	r1, #2048	; 0x800
 8007412:	4603      	mov	r3, r0
 8007414:	9201      	str	r2, [sp, #4]
 8007416:	9102      	str	r1, [sp, #8]
 8007418:	9603      	str	r6, [sp, #12]
 800741a:	9700      	str	r7, [sp, #0]
 800741c:	2100      	movs	r1, #0
 800741e:	f04f 32ff 	mov.w	r2, #4294967295
 8007422:	480c      	ldr	r0, [pc, #48]	; (8007454 <system__task_primitives__operations__initialize_idle+0x68>)
 8007424:	f7ff fc70 	bl	8006d08 <system__tasking__initialize_atcb>
 8007428:	f5a4 70f0 	sub.w	r0, r4, #480	; 0x1e0
 800742c:	1929      	adds	r1, r5, r4
 800742e:	f5a4 7312 	sub.w	r3, r4, #584	; 0x248
 8007432:	f5a4 7416 	sub.w	r4, r4, #600	; 0x258
 8007436:	442b      	add	r3, r5
 8007438:	2201      	movs	r2, #1
 800743a:	502b      	str	r3, [r5, r0]
 800743c:	f841 6c10 	str.w	r6, [r1, #-16]
 8007440:	552a      	strb	r2, [r5, r4]
 8007442:	b005      	add	sp, #20
 8007444:	bdf0      	pop	{r4, r5, r6, r7, pc}
 8007446:	bf00      	nop
 8007448:	001fffff 	.word	0x001fffff
 800744c:	20003360 	.word	0x20003360
 8007450:	200035c0 	.word	0x200035c0
 8007454:	080073d9 	.word	0x080073d9

08007458 <__gnat_start_slave_cpus>:
 8007458:	4770      	bx	lr
 800745a:	bf00      	nop

0800745c <system__bb__threads__get_cpu>:
 800745c:	f890 002c 	ldrb.w	r0, [r0, #44]	; 0x2c
 8007460:	2800      	cmp	r0, #0
 8007462:	bf08      	it	eq
 8007464:	2001      	moveq	r0, #1
 8007466:	4770      	bx	lr

08007468 <system__bb__threads__initialize_thread>:
 8007468:	e92d 43f0 	stmdb	sp!, {r4, r5, r6, r7, r8, r9, lr}
 800746c:	b089      	sub	sp, #36	; 0x24
 800746e:	4f40      	ldr	r7, [pc, #256]	; (8007570 <system__bb__threads__initialize_thread+0x108>)
 8007470:	f89d 5040 	ldrb.w	r5, [sp, #64]	; 0x40
 8007474:	6303      	str	r3, [r0, #48]	; 0x30
 8007476:	6343      	str	r3, [r0, #52]	; 0x34
 8007478:	683b      	ldr	r3, [r7, #0]
 800747a:	9e11      	ldr	r6, [sp, #68]	; 0x44
 800747c:	6583      	str	r3, [r0, #88]	; 0x58
 800747e:	4604      	mov	r4, r0
 8007480:	6038      	str	r0, [r7, #0]
 8007482:	f880 502c 	strb.w	r5, [r0, #44]	; 0x2c
 8007486:	2d00      	cmp	r5, #0
 8007488:	d05c      	beq.n	8007544 <system__bb__threads__initialize_thread+0xdc>
 800748a:	b26b      	sxtb	r3, r5
 800748c:	f103 4380 	add.w	r3, r3, #1073741824	; 0x40000000
 8007490:	3b01      	subs	r3, #1
 8007492:	4838      	ldr	r0, [pc, #224]	; (8007574 <system__bb__threads__initialize_thread+0x10c>)
 8007494:	f850 5023 	ldr.w	r5, [r0, r3, lsl #2]
 8007498:	42ac      	cmp	r4, r5
 800749a:	d01b      	beq.n	80074d4 <system__bb__threads__initialize_thread+0x6c>
 800749c:	f850 5023 	ldr.w	r5, [r0, r3, lsl #2]
 80074a0:	2d00      	cmp	r5, #0
 80074a2:	d051      	beq.n	8007548 <system__bb__threads__initialize_thread+0xe0>
 80074a4:	6b67      	ldr	r7, [r4, #52]	; 0x34
 80074a6:	f850 5023 	ldr.w	r5, [r0, r3, lsl #2]
 80074aa:	6b6d      	ldr	r5, [r5, #52]	; 0x34
 80074ac:	42af      	cmp	r7, r5
 80074ae:	dc4b      	bgt.n	8007548 <system__bb__threads__initialize_thread+0xe0>
 80074b0:	f850 0023 	ldr.w	r0, [r0, r3, lsl #2]
 80074b4:	e006      	b.n	80074c4 <system__bb__threads__initialize_thread+0x5c>
 80074b6:	429c      	cmp	r4, r3
 80074b8:	d04c      	beq.n	8007554 <system__bb__threads__initialize_thread+0xec>
 80074ba:	6b5f      	ldr	r7, [r3, #52]	; 0x34
 80074bc:	6b65      	ldr	r5, [r4, #52]	; 0x34
 80074be:	42af      	cmp	r7, r5
 80074c0:	db05      	blt.n	80074ce <system__bb__threads__initialize_thread+0x66>
 80074c2:	4618      	mov	r0, r3
 80074c4:	6c03      	ldr	r3, [r0, #64]	; 0x40
 80074c6:	2b00      	cmp	r3, #0
 80074c8:	d1f5      	bne.n	80074b6 <system__bb__threads__initialize_thread+0x4e>
 80074ca:	2c00      	cmp	r4, #0
 80074cc:	d042      	beq.n	8007554 <system__bb__threads__initialize_thread+0xec>
 80074ce:	6c03      	ldr	r3, [r0, #64]	; 0x40
 80074d0:	6423      	str	r3, [r4, #64]	; 0x40
 80074d2:	6404      	str	r4, [r0, #64]	; 0x40
 80074d4:	2500      	movs	r5, #0
 80074d6:	f04f 38ff 	mov.w	r8, #4294967295
 80074da:	f04f 39ff 	mov.w	r9, #4294967295
 80074de:	9b12      	ldr	r3, [sp, #72]	; 0x48
 80074e0:	63a6      	str	r6, [r4, #56]	; 0x38
 80074e2:	63e3      	str	r3, [r4, #60]	; 0x3c
 80074e4:	f884 5054 	strb.w	r5, [r4, #84]	; 0x54
 80074e8:	f884 5055 	strb.w	r5, [r4, #85]	; 0x55
 80074ec:	f884 5056 	strb.w	r5, [r4, #86]	; 0x56
 80074f0:	6525      	str	r5, [r4, #80]	; 0x50
 80074f2:	65e5      	str	r5, [r4, #92]	; 0x5c
 80074f4:	6625      	str	r5, [r4, #96]	; 0x60
 80074f6:	e9c4 8912 	strd	r8, r9, [r4, #72]	; 0x48
 80074fa:	b301      	cbz	r1, 800753e <system__bb__threads__initialize_thread+0xd6>
 80074fc:	e88d 0024 	stmia.w	sp, {r2, r5}
 8007500:	f04f 7380 	mov.w	r3, #16777216	; 0x1000000
 8007504:	9504      	str	r5, [sp, #16]
 8007506:	9505      	str	r5, [sp, #20]
 8007508:	9106      	str	r1, [sp, #24]
 800750a:	9307      	str	r3, [sp, #28]
 800750c:	9502      	str	r5, [sp, #8]
 800750e:	9503      	str	r5, [sp, #12]
 8007510:	466f      	mov	r7, sp
 8007512:	cf0f      	ldmia	r7!, {r0, r1, r2, r3}
 8007514:	f1a6 0e20 	sub.w	lr, r6, #32
 8007518:	f02e 0e04 	bic.w	lr, lr, #4
 800751c:	4676      	mov	r6, lr
 800751e:	c60f      	stmia	r6!, {r0, r1, r2, r3}
 8007520:	e897 000f 	ldmia.w	r7, {r0, r1, r2, r3}
 8007524:	e886 000f 	stmia.w	r6, {r0, r1, r2, r3}
 8007528:	f8c4 e020 	str.w	lr, [r4, #32]
 800752c:	6025      	str	r5, [r4, #0]
 800752e:	6065      	str	r5, [r4, #4]
 8007530:	60a5      	str	r5, [r4, #8]
 8007532:	60e5      	str	r5, [r4, #12]
 8007534:	6125      	str	r5, [r4, #16]
 8007536:	6165      	str	r5, [r4, #20]
 8007538:	61a5      	str	r5, [r4, #24]
 800753a:	61e5      	str	r5, [r4, #28]
 800753c:	6265      	str	r5, [r4, #36]	; 0x24
 800753e:	b009      	add	sp, #36	; 0x24
 8007540:	e8bd 83f0 	ldmia.w	sp!, {r4, r5, r6, r7, r8, r9, pc}
 8007544:	2301      	movs	r3, #1
 8007546:	e7a1      	b.n	800748c <system__bb__threads__initialize_thread+0x24>
 8007548:	f850 5023 	ldr.w	r5, [r0, r3, lsl #2]
 800754c:	6425      	str	r5, [r4, #64]	; 0x40
 800754e:	f840 4023 	str.w	r4, [r0, r3, lsl #2]
 8007552:	e7bf      	b.n	80074d4 <system__bb__threads__initialize_thread+0x6c>
 8007554:	6c23      	ldr	r3, [r4, #64]	; 0x40
 8007556:	6403      	str	r3, [r0, #64]	; 0x40
 8007558:	4605      	mov	r5, r0
 800755a:	e004      	b.n	8007566 <system__bb__threads__initialize_thread+0xfe>
 800755c:	6b5f      	ldr	r7, [r3, #52]	; 0x34
 800755e:	6b60      	ldr	r0, [r4, #52]	; 0x34
 8007560:	4287      	cmp	r7, r0
 8007562:	db03      	blt.n	800756c <system__bb__threads__initialize_thread+0x104>
 8007564:	461d      	mov	r5, r3
 8007566:	6c2b      	ldr	r3, [r5, #64]	; 0x40
 8007568:	2b00      	cmp	r3, #0
 800756a:	d1f7      	bne.n	800755c <system__bb__threads__initialize_thread+0xf4>
 800756c:	4628      	mov	r0, r5
 800756e:	e7ae      	b.n	80074ce <system__bb__threads__initialize_thread+0x66>
 8007570:	2000012c 	.word	0x2000012c
 8007574:	20000128 	.word	0x20000128

08007578 <system__bb__threads__initialize>:
 8007578:	e92d 43f0 	stmdb	sp!, {r4, r5, r6, r7, r8, r9, lr}
 800757c:	b085      	sub	sp, #20
 800757e:	4606      	mov	r6, r0
 8007580:	460f      	mov	r7, r1
 8007582:	f7ff fe41 	bl	8007208 <system__bb__interrupts__initialize_interrupts>
 8007586:	f3ef 8008 	mrs	r0, MSP
 800758a:	f380 8809 	msr	PSP, r0
 800758e:	f3ef 8014 	mrs	r0, CONTROL
 8007592:	f040 0002 	orr.w	r0, r0, #2
 8007596:	f380 8814 	msr	CONTROL, r0
 800759a:	4b1f      	ldr	r3, [pc, #124]	; (8007618 <system__bb__threads__initialize+0xa0>)
 800759c:	681b      	ldr	r3, [r3, #0]
 800759e:	f383 8808 	msr	MSP, r3
 80075a2:	4b1e      	ldr	r3, [pc, #120]	; (800761c <system__bb__threads__initialize+0xa4>)
 80075a4:	4d1e      	ldr	r5, [pc, #120]	; (8007620 <system__bb__threads__initialize+0xa8>)
 80075a6:	4a1f      	ldr	r2, [pc, #124]	; (8007624 <system__bb__threads__initialize+0xac>)
 80075a8:	601a      	str	r2, [r3, #0]
 80075aa:	682a      	ldr	r2, [r5, #0]
 80075ac:	f8df 9090 	ldr.w	r9, [pc, #144]	; 8007640 <system__bb__threads__initialize+0xc8>
 80075b0:	f8df 8090 	ldr.w	r8, [pc, #144]	; 8007644 <system__bb__threads__initialize+0xcc>
 80075b4:	f8df e090 	ldr.w	lr, [pc, #144]	; 8007648 <system__bb__threads__initialize+0xd0>
 80075b8:	481b      	ldr	r0, [pc, #108]	; (8007628 <system__bb__threads__initialize+0xb0>)
 80075ba:	491c      	ldr	r1, [pc, #112]	; (800762c <system__bb__threads__initialize+0xb4>)
 80075bc:	f442 7204 	orr.w	r2, r2, #528	; 0x210
 80075c0:	2400      	movs	r4, #0
 80075c2:	f042 0201 	orr.w	r2, r2, #1
 80075c6:	f44f 0c7f 	mov.w	ip, #16711680	; 0xff0000
 80075ca:	602a      	str	r2, [r5, #0]
 80075cc:	f8c9 4000 	str.w	r4, [r9]
 80075d0:	f8c8 4000 	str.w	r4, [r8]
 80075d4:	f8ce c000 	str.w	ip, [lr]
 80075d8:	6059      	str	r1, [r3, #4]
 80075da:	6802      	ldr	r2, [r0, #0]
 80075dc:	f442 22e0 	orr.w	r2, r2, #458752	; 0x70000
 80075e0:	6002      	str	r2, [r0, #0]
 80075e2:	b661      	cpsie	f
 80075e4:	f000 f89c 	bl	8007720 <system__bb__board_support__initialize_board>
 80075e8:	f7ff fa16 	bl	8006a18 <system__bb__time__initialize_timers>
 80075ec:	b672      	cpsid	i
 80075ee:	2501      	movs	r5, #1
 80075f0:	4b0f      	ldr	r3, [pc, #60]	; (8007630 <system__bb__threads__initialize+0xb8>)
 80075f2:	4a10      	ldr	r2, [pc, #64]	; (8007634 <system__bb__threads__initialize+0xbc>)
 80075f4:	9301      	str	r3, [sp, #4]
 80075f6:	9202      	str	r2, [sp, #8]
 80075f8:	463b      	mov	r3, r7
 80075fa:	4622      	mov	r2, r4
 80075fc:	9500      	str	r5, [sp, #0]
 80075fe:	4630      	mov	r0, r6
 8007600:	4621      	mov	r1, r4
 8007602:	f7ff ff31 	bl	8007468 <system__bb__threads__initialize_thread>
 8007606:	4a0c      	ldr	r2, [pc, #48]	; (8007638 <system__bb__threads__initialize+0xc0>)
 8007608:	4b0c      	ldr	r3, [pc, #48]	; (800763c <system__bb__threads__initialize+0xc4>)
 800760a:	6016      	str	r6, [r2, #0]
 800760c:	701d      	strb	r5, [r3, #0]
 800760e:	b005      	add	sp, #20
 8007610:	e8bd 43f0 	ldmia.w	sp!, {r4, r5, r6, r7, r8, r9, lr}
 8007614:	f7ff bc2e 	b.w	8006e74 <system__bb__protection__leave_kernel>
 8007618:	20003358 	.word	0x20003358
 800761c:	e000ed08 	.word	0xe000ed08
 8007620:	e000ed14 	.word	0xe000ed14
 8007624:	08007c00 	.word	0x08007c00
 8007628:	e000ed24 	.word	0xe000ed24
 800762c:	05fa0300 	.word	0x05fa0300
 8007630:	2000cb50 	.word	0x2000cb50
 8007634:	20004b50 	.word	0x20004b50
 8007638:	20000134 	.word	0x20000134
 800763c:	20000144 	.word	0x20000144
 8007640:	e000ed18 	.word	0xe000ed18
 8007644:	e000ed1c 	.word	0xe000ed1c
 8007648:	e000ed20 	.word	0xe000ed20

0800764c <system__bb__threads__sleep>:
 800764c:	4b0e      	ldr	r3, [pc, #56]	; (8007688 <system__bb__threads__sleep+0x3c>)
 800764e:	681a      	ldr	r2, [r3, #0]
 8007650:	b672      	cpsid	i
 8007652:	f892 3056 	ldrb.w	r3, [r2, #86]	; 0x56
 8007656:	b993      	cbnz	r3, 800767e <system__bb__threads__sleep+0x32>
 8007658:	f892 102c 	ldrb.w	r1, [r2, #44]	; 0x2c
 800765c:	2301      	movs	r3, #1
 800765e:	f882 3054 	strb.w	r3, [r2, #84]	; 0x54
 8007662:	b951      	cbnz	r1, 800767a <system__bb__threads__sleep+0x2e>
 8007664:	f103 4380 	add.w	r3, r3, #1073741824	; 0x40000000
 8007668:	3b01      	subs	r3, #1
 800766a:	4908      	ldr	r1, [pc, #32]	; (800768c <system__bb__threads__sleep+0x40>)
 800766c:	6c10      	ldr	r0, [r2, #64]	; 0x40
 800766e:	f841 0023 	str.w	r0, [r1, r3, lsl #2]
 8007672:	2300      	movs	r3, #0
 8007674:	6413      	str	r3, [r2, #64]	; 0x40
 8007676:	f7ff bbfd 	b.w	8006e74 <system__bb__protection__leave_kernel>
 800767a:	b24b      	sxtb	r3, r1
 800767c:	e7f2      	b.n	8007664 <system__bb__threads__sleep+0x18>
 800767e:	2300      	movs	r3, #0
 8007680:	f882 3056 	strb.w	r3, [r2, #86]	; 0x56
 8007684:	f7ff bbf6 	b.w	8006e74 <system__bb__protection__leave_kernel>
 8007688:	20000134 	.word	0x20000134
 800768c:	20000128 	.word	0x20000128

08007690 <system__bb__threads__thread_create>:
 8007690:	b570      	push	{r4, r5, r6, lr}
 8007692:	b084      	sub	sp, #16
 8007694:	f89d 6020 	ldrb.w	r6, [sp, #32]
 8007698:	9d09      	ldr	r5, [sp, #36]	; 0x24
 800769a:	9c0a      	ldr	r4, [sp, #40]	; 0x28
 800769c:	b672      	cpsid	i
 800769e:	442c      	add	r4, r5
 80076a0:	f024 0407 	bic.w	r4, r4, #7
 80076a4:	9401      	str	r4, [sp, #4]
 80076a6:	9600      	str	r6, [sp, #0]
 80076a8:	9502      	str	r5, [sp, #8]
 80076aa:	f7ff fedd 	bl	8007468 <system__bb__threads__initialize_thread>
 80076ae:	b004      	add	sp, #16
 80076b0:	e8bd 4070 	ldmia.w	sp!, {r4, r5, r6, lr}
 80076b4:	f7ff bbde 	b.w	8006e74 <system__bb__protection__leave_kernel>

080076b8 <system__bb__board_support__read_clock>:
 80076b8:	f3ef 8210 	mrs	r2, PRIMASK
 80076bc:	2301      	movs	r3, #1
 80076be:	f383 8810 	msr	PRIMASK, r3
 80076c2:	4b0a      	ldr	r3, [pc, #40]	; (80076ec <system__bb__board_support__read_clock+0x34>)
 80076c4:	6898      	ldr	r0, [r3, #8]
 80076c6:	681b      	ldr	r3, [r3, #0]
 80076c8:	03db      	lsls	r3, r3, #15
 80076ca:	d405      	bmi.n	80076d8 <system__bb__board_support__read_clock+0x20>
 80076cc:	4b08      	ldr	r3, [pc, #32]	; (80076f0 <system__bb__board_support__read_clock+0x38>)
 80076ce:	681b      	ldr	r3, [r3, #0]
 80076d0:	1a18      	subs	r0, r3, r0
 80076d2:	f382 8810 	msr	PRIMASK, r2
 80076d6:	4770      	bx	lr
 80076d8:	4905      	ldr	r1, [pc, #20]	; (80076f0 <system__bb__board_support__read_clock+0x38>)
 80076da:	6808      	ldr	r0, [r1, #0]
 80076dc:	680b      	ldr	r3, [r1, #0]
 80076de:	f503 339c 	add.w	r3, r3, #79872	; 0x13800
 80076e2:	3380      	adds	r3, #128	; 0x80
 80076e4:	600b      	str	r3, [r1, #0]
 80076e6:	f382 8810 	msr	PRIMASK, r2
 80076ea:	4770      	bx	lr
 80076ec:	e000e010 	.word	0xe000e010
 80076f0:	20003dc4 	.word	0x20003dc4

080076f4 <system__bb__board_support__set_alarm>:
 80076f4:	b510      	push	{r4, lr}
 80076f6:	4604      	mov	r4, r0
 80076f8:	f7ff ffde 	bl	80076b8 <system__bb__board_support__read_clock>
 80076fc:	f06f 4300 	mvn.w	r3, #2147483648	; 0x80000000
 8007700:	4a05      	ldr	r2, [pc, #20]	; (8007718 <system__bb__board_support__set_alarm+0x24>)
 8007702:	429c      	cmp	r4, r3
 8007704:	bf94      	ite	ls
 8007706:	1900      	addls	r0, r0, r4
 8007708:	18c0      	addhi	r0, r0, r3
 800770a:	6010      	str	r0, [r2, #0]
 800770c:	b91c      	cbnz	r4, 8007716 <system__bb__board_support__set_alarm+0x22>
 800770e:	4b03      	ldr	r3, [pc, #12]	; (800771c <system__bb__board_support__set_alarm+0x28>)
 8007710:	f04f 6280 	mov.w	r2, #67108864	; 0x4000000
 8007714:	601a      	str	r2, [r3, #0]
 8007716:	bd10      	pop	{r4, pc}
 8007718:	20003dc0 	.word	0x20003dc0
 800771c:	e000ed04 	.word	0xe000ed04

08007720 <system__bb__board_support__initialize_board>:
 8007720:	b570      	push	{r4, r5, r6, lr}
 8007722:	b672      	cpsid	i
 8007724:	4b0d      	ldr	r3, [pc, #52]	; (800775c <system__bb__board_support__initialize_board+0x3c>)
 8007726:	4a0e      	ldr	r2, [pc, #56]	; (8007760 <system__bb__board_support__initialize_board+0x40>)
 8007728:	4e0e      	ldr	r6, [pc, #56]	; (8007764 <system__bb__board_support__initialize_board+0x44>)
 800772a:	490f      	ldr	r1, [pc, #60]	; (8007768 <system__bb__board_support__initialize_board+0x48>)
 800772c:	2004      	movs	r0, #4
 800772e:	2400      	movs	r4, #0
 8007730:	2505      	movs	r5, #5
 8007732:	6018      	str	r0, [r3, #0]
 8007734:	605e      	str	r6, [r3, #4]
 8007736:	f04f 30ff 	mov.w	r0, #4294967295
 800773a:	609c      	str	r4, [r3, #8]
 800773c:	601d      	str	r5, [r3, #0]
 800773e:	6011      	str	r1, [r2, #0]
 8007740:	f7ff ffd8 	bl	80076f4 <system__bb__board_support__set_alarm>
 8007744:	4b09      	ldr	r3, [pc, #36]	; (800776c <system__bb__board_support__initialize_board+0x4c>)
 8007746:	f04f 7200 	mov.w	r2, #33554432	; 0x2000000
 800774a:	601a      	str	r2, [r3, #0]
 800774c:	f384 8811 	msr	BASEPRI, r4
 8007750:	b662      	cpsie	i
 8007752:	f3bf 8f4f 	dsb	sy
 8007756:	f3bf 8f6f 	isb	sy
 800775a:	bd70      	pop	{r4, r5, r6, pc}
 800775c:	e000e010 	.word	0xe000e010
 8007760:	20003dc4 	.word	0x20003dc4
 8007764:	0001387f 	.word	0x0001387f
 8007768:	00013880 	.word	0x00013880
 800776c:	e000ed04 	.word	0xe000ed04

08007770 <system__bb__board_support__enable_interrupt_request>:
 8007770:	2801      	cmp	r0, #1
 8007772:	d013      	beq.n	800779c <system__bb__board_support__enable_interrupt_request+0x2c>
 8007774:	4b11      	ldr	r3, [pc, #68]	; (80077bc <system__bb__board_support__enable_interrupt_request+0x4c>)
 8007776:	1e81      	subs	r1, r0, #2
 8007778:	2900      	cmp	r1, #0
 800777a:	ea03 0301 	and.w	r3, r3, r1
 800777e:	460a      	mov	r2, r1
 8007780:	bfb8      	it	lt
 8007782:	f100 021d 	addlt.w	r2, r0, #29
 8007786:	2b00      	cmp	r3, #0
 8007788:	ea4f 1262 	mov.w	r2, r2, asr #5
 800778c:	db10      	blt.n	80077b0 <system__bb__board_support__enable_interrupt_request+0x40>
 800778e:	2101      	movs	r1, #1
 8007790:	480b      	ldr	r0, [pc, #44]	; (80077c0 <system__bb__board_support__enable_interrupt_request+0x50>)
 8007792:	fa01 f303 	lsl.w	r3, r1, r3
 8007796:	f840 3022 	str.w	r3, [r0, r2, lsl #2]
 800779a:	4770      	bx	lr
 800779c:	4b09      	ldr	r3, [pc, #36]	; (80077c4 <system__bb__board_support__enable_interrupt_request+0x54>)
 800779e:	4a0a      	ldr	r2, [pc, #40]	; (80077c8 <system__bb__board_support__enable_interrupt_request+0x58>)
 80077a0:	f04f 7100 	mov.w	r1, #33554432	; 0x2000000
 80077a4:	6019      	str	r1, [r3, #0]
 80077a6:	6813      	ldr	r3, [r2, #0]
 80077a8:	f043 0302 	orr.w	r3, r3, #2
 80077ac:	6013      	str	r3, [r2, #0]
 80077ae:	4770      	bx	lr
 80077b0:	3b01      	subs	r3, #1
 80077b2:	f063 031f 	orn	r3, r3, #31
 80077b6:	3301      	adds	r3, #1
 80077b8:	e7e9      	b.n	800778e <system__bb__board_support__enable_interrupt_request+0x1e>
 80077ba:	bf00      	nop
 80077bc:	8000001f 	.word	0x8000001f
 80077c0:	e000e100 	.word	0xe000e100
 80077c4:	e000ed04 	.word	0xe000ed04
 80077c8:	e000e010 	.word	0xe000e010

080077cc <system__bb__board_support__install_interrupt_handler>:
 80077cc:	b570      	push	{r4, r5, r6, lr}
 80077ce:	2901      	cmp	r1, #1
 80077d0:	460c      	mov	r4, r1
 80077d2:	4615      	mov	r5, r2
 80077d4:	d018      	beq.n	8007808 <system__bb__board_support__install_interrupt_handler+0x3c>
 80077d6:	f1a5 03f1 	sub.w	r3, r5, #241	; 0xf1
 80077da:	2b0e      	cmp	r3, #14
 80077dc:	bf98      	it	ls
 80077de:	ebc5 1305 	rsbls	r3, r5, r5, lsl #4
 80077e2:	f1a1 0102 	sub.w	r1, r1, #2
 80077e6:	bf98      	it	ls
 80077e8:	011b      	lslls	r3, r3, #4
 80077ea:	4e0a      	ldr	r6, [pc, #40]	; (8007814 <system__bb__board_support__install_interrupt_handler+0x48>)
 80077ec:	bf94      	ite	ls
 80077ee:	b2db      	uxtbls	r3, r3
 80077f0:	2300      	movhi	r3, #0
 80077f2:	5473      	strb	r3, [r6, r1]
 80077f4:	2200      	movs	r2, #0
 80077f6:	2110      	movs	r1, #16
 80077f8:	f000 f8d8 	bl	80079ac <system__bb__cpu_primitives__install_trap_handler>
 80077fc:	4620      	mov	r0, r4
 80077fe:	4629      	mov	r1, r5
 8007800:	e8bd 4070 	ldmia.w	sp!, {r4, r5, r6, lr}
 8007804:	f7ff bfb4 	b.w	8007770 <system__bb__board_support__enable_interrupt_request>
 8007808:	210f      	movs	r1, #15
 800780a:	2200      	movs	r2, #0
 800780c:	f000 f8ce 	bl	80079ac <system__bb__cpu_primitives__install_trap_handler>
 8007810:	e7f4      	b.n	80077fc <system__bb__board_support__install_interrupt_handler+0x30>
 8007812:	bf00      	nop
 8007814:	e000e400 	.word	0xe000e400

08007818 <system__bb__cpu_primitives__gnat_error_handler>:
 8007818:	b508      	push	{r3, lr}
 800781a:	b240      	sxtb	r0, r0
 800781c:	3801      	subs	r0, #1
 800781e:	2805      	cmp	r0, #5
 8007820:	d822      	bhi.n	8007868 <system__bb__cpu_primitives__gnat_error_handler+0x50>
 8007822:	e8df f000 	tbb	[pc, r0]
 8007826:	0f09      	.short	0x0f09
 8007828:	031b2115 	.word	0x031b2115
 800782c:	4a11      	ldr	r2, [pc, #68]	; (8007874 <system__bb__cpu_primitives__gnat_error_handler+0x5c>)
 800782e:	4812      	ldr	r0, [pc, #72]	; (8007878 <system__bb__cpu_primitives__gnat_error_handler+0x60>)
 8007830:	f102 0338 	add.w	r3, r2, #56	; 0x38
 8007834:	f001 fb76 	bl	8008f24 <__gnat_raise_exception>
 8007838:	4a10      	ldr	r2, [pc, #64]	; (800787c <system__bb__cpu_primitives__gnat_error_handler+0x64>)
 800783a:	4811      	ldr	r0, [pc, #68]	; (8007880 <system__bb__cpu_primitives__gnat_error_handler+0x68>)
 800783c:	f102 0340 	add.w	r3, r2, #64	; 0x40
 8007840:	f001 fb70 	bl	8008f24 <__gnat_raise_exception>
 8007844:	4a0f      	ldr	r2, [pc, #60]	; (8007884 <system__bb__cpu_primitives__gnat_error_handler+0x6c>)
 8007846:	480e      	ldr	r0, [pc, #56]	; (8007880 <system__bb__cpu_primitives__gnat_error_handler+0x68>)
 8007848:	f102 0344 	add.w	r3, r2, #68	; 0x44
 800784c:	f001 fb6a 	bl	8008f24 <__gnat_raise_exception>
 8007850:	4a0d      	ldr	r2, [pc, #52]	; (8007888 <system__bb__cpu_primitives__gnat_error_handler+0x70>)
 8007852:	480b      	ldr	r0, [pc, #44]	; (8007880 <system__bb__cpu_primitives__gnat_error_handler+0x68>)
 8007854:	f102 0338 	add.w	r3, r2, #56	; 0x38
 8007858:	f001 fb64 	bl	8008f24 <__gnat_raise_exception>
 800785c:	4a0b      	ldr	r2, [pc, #44]	; (800788c <system__bb__cpu_primitives__gnat_error_handler+0x74>)
 800785e:	4808      	ldr	r0, [pc, #32]	; (8007880 <system__bb__cpu_primitives__gnat_error_handler+0x68>)
 8007860:	f102 0338 	add.w	r3, r2, #56	; 0x38
 8007864:	f001 fb5e 	bl	8008f24 <__gnat_raise_exception>
 8007868:	4a09      	ldr	r2, [pc, #36]	; (8007890 <system__bb__cpu_primitives__gnat_error_handler+0x78>)
 800786a:	4805      	ldr	r0, [pc, #20]	; (8007880 <system__bb__cpu_primitives__gnat_error_handler+0x68>)
 800786c:	f102 033c 	add.w	r3, r2, #60	; 0x3c
 8007870:	f001 fb58 	bl	8008f24 <__gnat_raise_exception>
 8007874:	0800de40 	.word	0x0800de40
 8007878:	200001dc 	.word	0x200001dc
 800787c:	0800dd2c 	.word	0x0800dd2c
 8007880:	200001c0 	.word	0x200001c0
 8007884:	0800dd74 	.word	0x0800dd74
 8007888:	0800ddc0 	.word	0x0800ddc0
 800788c:	0800de00 	.word	0x0800de00
 8007890:	0800de80 	.word	0x0800de80

08007894 <__gnat_irq_trap>:
 8007894:	b508      	push	{r3, lr}
 8007896:	4b10      	ldr	r3, [pc, #64]	; (80078d8 <__gnat_irq_trap+0x44>)
 8007898:	2010      	movs	r0, #16
 800789a:	6c1b      	ldr	r3, [r3, #64]	; 0x40
 800789c:	4798      	blx	r3
 800789e:	4a0f      	ldr	r2, [pc, #60]	; (80078dc <__gnat_irq_trap+0x48>)
 80078a0:	4b0f      	ldr	r3, [pc, #60]	; (80078e0 <__gnat_irq_trap+0x4c>)
 80078a2:	6811      	ldr	r1, [r2, #0]
 80078a4:	681a      	ldr	r2, [r3, #0]
 80078a6:	4291      	cmp	r1, r2
 80078a8:	d003      	beq.n	80078b2 <__gnat_irq_trap+0x1e>
 80078aa:	4a0e      	ldr	r2, [pc, #56]	; (80078e4 <__gnat_irq_trap+0x50>)
 80078ac:	f04f 5180 	mov.w	r1, #268435456	; 0x10000000
 80078b0:	6011      	str	r1, [r2, #0]
 80078b2:	681b      	ldr	r3, [r3, #0]
 80078b4:	6b5b      	ldr	r3, [r3, #52]	; 0x34
 80078b6:	f1a3 02f1 	sub.w	r2, r3, #241	; 0xf1
 80078ba:	2a0e      	cmp	r2, #14
 80078bc:	bf9d      	ittte	ls
 80078be:	ebc3 1303 	rsbls	r3, r3, r3, lsl #4
 80078c2:	011b      	lslls	r3, r3, #4
 80078c4:	b2db      	uxtbls	r3, r3
 80078c6:	2300      	movhi	r3, #0
 80078c8:	f383 8811 	msr	BASEPRI, r3
 80078cc:	b662      	cpsie	i
 80078ce:	f3bf 8f4f 	dsb	sy
 80078d2:	f3bf 8f6f 	isb	sy
 80078d6:	bd08      	pop	{r3, pc}
 80078d8:	20003dc8 	.word	0x20003dc8
 80078dc:	20000128 	.word	0x20000128
 80078e0:	20000134 	.word	0x20000134
 80078e4:	e000ed04 	.word	0xe000ed04

080078e8 <__gnat_pend_sv_trap>:
 80078e8:	f240 1234 	movw	r2, #308	; 0x134
 80078ec:	f2c2 0200 	movt	r2, #8192	; 0x2000
 80078f0:	f3ef 8c09 	mrs	ip, PSP
 80078f4:	6813      	ldr	r3, [r2, #0]
 80078f6:	f01e 0f10 	tst.w	lr, #16
 80078fa:	bf06      	itte	eq
 80078fc:	ed2c 8a10 	vstmdbeq	ip!, {s16-s31}
 8007900:	f10c 0c01 	addeq.w	ip, ip, #1
 8007904:	f1ae 0e10 	subne.w	lr, lr, #16
 8007908:	e883 1ff0 	stmia.w	r3, {r4, r5, r6, r7, r8, r9, sl, fp, ip}
 800790c:	f240 1328 	movw	r3, #296	; 0x128
 8007910:	f2c2 0300 	movt	r3, #8192	; 0x2000
 8007914:	681b      	ldr	r3, [r3, #0]
 8007916:	6013      	str	r3, [r2, #0]
 8007918:	e893 1ff0 	ldmia.w	r3, {r4, r5, r6, r7, r8, r9, sl, fp, ip}
 800791c:	f01c 0f01 	tst.w	ip, #1
 8007920:	bf1a      	itte	ne
 8007922:	f1ac 0c01 	subne.w	ip, ip, #1
 8007926:	ecbc 8a10 	vldmiane	ip!, {s16-s31}
 800792a:	f10e 0e10 	addeq.w	lr, lr, #16
 800792e:	f38c 8809 	msr	PSP, ip
 8007932:	4770      	bx	lr

08007934 <__gnat_sv_call_trap>:
 8007934:	b508      	push	{r3, lr}
 8007936:	200b      	movs	r0, #11
 8007938:	f7ff ff6e 	bl	8007818 <system__bb__cpu_primitives__gnat_error_handler>

0800793c <__gnat_sys_tick_trap>:
 800793c:	b508      	push	{r3, lr}
 800793e:	f7ff febb 	bl	80076b8 <system__bb__board_support__read_clock>
 8007942:	4a15      	ldr	r2, [pc, #84]	; (8007998 <__gnat_sys_tick_trap+0x5c>)
 8007944:	6813      	ldr	r3, [r2, #0]
 8007946:	1a1b      	subs	r3, r3, r0
 8007948:	2b00      	cmp	r3, #0
 800794a:	db00      	blt.n	800794e <__gnat_sys_tick_trap+0x12>
 800794c:	bd08      	pop	{r3, pc}
 800794e:	f100 4000 	add.w	r0, r0, #2147483648	; 0x80000000
 8007952:	3801      	subs	r0, #1
 8007954:	4b11      	ldr	r3, [pc, #68]	; (800799c <__gnat_sys_tick_trap+0x60>)
 8007956:	6010      	str	r0, [r2, #0]
 8007958:	6bdb      	ldr	r3, [r3, #60]	; 0x3c
 800795a:	200f      	movs	r0, #15
 800795c:	4798      	blx	r3
 800795e:	4a10      	ldr	r2, [pc, #64]	; (80079a0 <__gnat_sys_tick_trap+0x64>)
 8007960:	4b10      	ldr	r3, [pc, #64]	; (80079a4 <__gnat_sys_tick_trap+0x68>)
 8007962:	6811      	ldr	r1, [r2, #0]
 8007964:	681a      	ldr	r2, [r3, #0]
 8007966:	4291      	cmp	r1, r2
 8007968:	d003      	beq.n	8007972 <__gnat_sys_tick_trap+0x36>
 800796a:	4a0f      	ldr	r2, [pc, #60]	; (80079a8 <__gnat_sys_tick_trap+0x6c>)
 800796c:	f04f 5180 	mov.w	r1, #268435456	; 0x10000000
 8007970:	6011      	str	r1, [r2, #0]
 8007972:	681b      	ldr	r3, [r3, #0]
 8007974:	6b5b      	ldr	r3, [r3, #52]	; 0x34
 8007976:	f1a3 02f1 	sub.w	r2, r3, #241	; 0xf1
 800797a:	2a0e      	cmp	r2, #14
 800797c:	bf9d      	ittte	ls
 800797e:	ebc3 1303 	rsbls	r3, r3, r3, lsl #4
 8007982:	011b      	lslls	r3, r3, #4
 8007984:	b2db      	uxtbls	r3, r3
 8007986:	2300      	movhi	r3, #0
 8007988:	f383 8811 	msr	BASEPRI, r3
 800798c:	b662      	cpsie	i
 800798e:	f3bf 8f4f 	dsb	sy
 8007992:	f3bf 8f6f 	isb	sy
 8007996:	bd08      	pop	{r3, pc}
 8007998:	20003dc0 	.word	0x20003dc0
 800799c:	20003dc8 	.word	0x20003dc8
 80079a0:	20000128 	.word	0x20000128
 80079a4:	20000134 	.word	0x20000134
 80079a8:	e000ed04 	.word	0xe000ed04

080079ac <system__bb__cpu_primitives__install_trap_handler>:
 80079ac:	b249      	sxtb	r1, r1
 80079ae:	4b02      	ldr	r3, [pc, #8]	; (80079b8 <system__bb__cpu_primitives__install_trap_handler+0xc>)
 80079b0:	f843 0021 	str.w	r0, [r3, r1, lsl #2]
 80079b4:	4770      	bx	lr
 80079b6:	bf00      	nop
 80079b8:	20003dc8 	.word	0x20003dc8

080079bc <_start_rom>:
 80079bc:	f002 fd30 	bl	800a420 <_stm32_start_common>
 80079c0:	f240 0000 	movw	r0, #0
 80079c4:	f2c2 0000 	movt	r0, #8192	; 0x2000
 80079c8:	f240 01b5 	movw	r1, #181	; 0xb5
 80079cc:	f64e 7288 	movw	r2, #61320	; 0xef88
 80079d0:	f6c0 0200 	movt	r2, #2048	; 0x800
 80079d4:	b129      	cbz	r1, 80079e2 <_start_rom+0x26>
 80079d6:	f852 4b04 	ldr.w	r4, [r2], #4
 80079da:	f840 4b04 	str.w	r4, [r0], #4
 80079de:	3901      	subs	r1, #1
 80079e0:	d1f9      	bne.n	80079d6 <_start_rom+0x1a>
 80079e2:	f240 20d8 	movw	r0, #728	; 0x2d8
 80079e6:	f2c2 0000 	movt	r0, #8192	; 0x2000
 80079ea:	f241 011e 	movw	r1, #4126	; 0x101e
 80079ee:	f04f 0200 	mov.w	r2, #0
 80079f2:	b119      	cbz	r1, 80079fc <_start_rom+0x40>
 80079f4:	f840 2b04 	str.w	r2, [r0], #4
 80079f8:	3901      	subs	r1, #1
 80079fa:	d1fb      	bne.n	80079f4 <_start_rom+0x38>
 80079fc:	f002 fb98 	bl	800a130 <_ada_setup_pll>
 8007a00:	f7f8 fe6a 	bl	80006d8 <main>
 8007a04:	f002 f9a8 	bl	8009d58 <_exit>

08007a08 <hang>:
 8007a08:	e7fe      	b.n	8007a08 <hang>
	...

08007c00 <__vectors>:
 8007c00:	00000000 	.word	0x00000000
 8007c04:	08007d9d 	.word	0x08007d9d
 8007c08:	08007d9d 	.word	0x08007d9d
 8007c0c:	08007d9d 	.word	0x08007d9d
 8007c10:	08007d9d 	.word	0x08007d9d
 8007c14:	08007d9d 	.word	0x08007d9d
 8007c18:	08007d9d 	.word	0x08007d9d
 8007c1c:	08007d9d 	.word	0x08007d9d
 8007c20:	08007d9d 	.word	0x08007d9d
 8007c24:	08007d9d 	.word	0x08007d9d
 8007c28:	08007d9d 	.word	0x08007d9d
 8007c2c:	08007935 	.word	0x08007935
 8007c30:	08007d9d 	.word	0x08007d9d
 8007c34:	08007d9d 	.word	0x08007d9d
 8007c38:	080078e9 	.word	0x080078e9
 8007c3c:	0800793d 	.word	0x0800793d
 8007c40:	08007895 	.word	0x08007895
 8007c44:	08007895 	.word	0x08007895
 8007c48:	08007895 	.word	0x08007895
 8007c4c:	08007895 	.word	0x08007895
 8007c50:	08007895 	.word	0x08007895
 8007c54:	08007895 	.word	0x08007895
 8007c58:	08007895 	.word	0x08007895
 8007c5c:	08007895 	.word	0x08007895
 8007c60:	08007895 	.word	0x08007895
 8007c64:	08007895 	.word	0x08007895
 8007c68:	08007895 	.word	0x08007895
 8007c6c:	08007895 	.word	0x08007895
 8007c70:	08007895 	.word	0x08007895
 8007c74:	08007895 	.word	0x08007895
 8007c78:	08007895 	.word	0x08007895
 8007c7c:	08007895 	.word	0x08007895
 8007c80:	08007895 	.word	0x08007895
 8007c84:	08007895 	.word	0x08007895
 8007c88:	08007895 	.word	0x08007895
 8007c8c:	08007895 	.word	0x08007895
 8007c90:	08007895 	.word	0x08007895
 8007c94:	08007895 	.word	0x08007895
 8007c98:	08007895 	.word	0x08007895
 8007c9c:	08007895 	.word	0x08007895
 8007ca0:	08007895 	.word	0x08007895
 8007ca4:	08007895 	.word	0x08007895
 8007ca8:	08007895 	.word	0x08007895
 8007cac:	08007895 	.word	0x08007895
 8007cb0:	08007895 	.word	0x08007895
 8007cb4:	08007895 	.word	0x08007895
 8007cb8:	08007895 	.word	0x08007895
 8007cbc:	08007895 	.word	0x08007895
 8007cc0:	08007895 	.word	0x08007895
 8007cc4:	08007895 	.word	0x08007895
 8007cc8:	08007895 	.word	0x08007895
 8007ccc:	08007895 	.word	0x08007895
 8007cd0:	08007895 	.word	0x08007895
 8007cd4:	08007895 	.word	0x08007895
 8007cd8:	08007895 	.word	0x08007895
 8007cdc:	08007895 	.word	0x08007895
 8007ce0:	08007895 	.word	0x08007895
 8007ce4:	08007895 	.word	0x08007895
 8007ce8:	08007895 	.word	0x08007895
 8007cec:	08007895 	.word	0x08007895
 8007cf0:	08007895 	.word	0x08007895
 8007cf4:	08007895 	.word	0x08007895
 8007cf8:	08007895 	.word	0x08007895
 8007cfc:	08007895 	.word	0x08007895
 8007d00:	08007895 	.word	0x08007895
 8007d04:	08007895 	.word	0x08007895
 8007d08:	08007895 	.word	0x08007895
 8007d0c:	08007895 	.word	0x08007895
 8007d10:	08007895 	.word	0x08007895
 8007d14:	08007895 	.word	0x08007895
 8007d18:	08007895 	.word	0x08007895
 8007d1c:	08007895 	.word	0x08007895
 8007d20:	08007895 	.word	0x08007895
 8007d24:	08007895 	.word	0x08007895
 8007d28:	08007895 	.word	0x08007895
 8007d2c:	08007895 	.word	0x08007895
 8007d30:	08007895 	.word	0x08007895
 8007d34:	08007895 	.word	0x08007895
 8007d38:	08007895 	.word	0x08007895
 8007d3c:	08007895 	.word	0x08007895
 8007d40:	08007895 	.word	0x08007895
 8007d44:	08007895 	.word	0x08007895
 8007d48:	08007895 	.word	0x08007895
 8007d4c:	08007895 	.word	0x08007895
 8007d50:	08007895 	.word	0x08007895
 8007d54:	08007895 	.word	0x08007895
 8007d58:	08007895 	.word	0x08007895
 8007d5c:	08007895 	.word	0x08007895
 8007d60:	08007895 	.word	0x08007895
 8007d64:	08007895 	.word	0x08007895
 8007d68:	08007895 	.word	0x08007895
 8007d6c:	08007895 	.word	0x08007895
 8007d70:	08007895 	.word	0x08007895
 8007d74:	08007895 	.word	0x08007895
 8007d78:	08007895 	.word	0x08007895
 8007d7c:	08007895 	.word	0x08007895
 8007d80:	08007895 	.word	0x08007895
 8007d84:	08007895 	.word	0x08007895
 8007d88:	08007895 	.word	0x08007895
 8007d8c:	08007895 	.word	0x08007895
 8007d90:	08007895 	.word	0x08007895
 8007d94:	e7fe      	b.n	8007d94 <__vectors+0x194>
 8007d96:	e7fe      	b.n	8007d96 <__vectors+0x196>
 8007d98:	e7fe      	b.n	8007d98 <__vectors+0x198>
 8007d9a:	e7fe      	b.n	8007d9a <__vectors+0x19a>

08007d9c <fault>:
 8007d9c:	e7fe      	b.n	8007d9c <fault>
 8007d9e:	bf00      	nop

08007da0 <read_sleb128>:
 8007da0:	b430      	push	{r4, r5}
 8007da2:	2500      	movs	r5, #0
 8007da4:	462a      	mov	r2, r5
 8007da6:	f810 4b01 	ldrb.w	r4, [r0], #1
 8007daa:	f004 037f 	and.w	r3, r4, #127	; 0x7f
 8007dae:	4093      	lsls	r3, r2
 8007db0:	431d      	orrs	r5, r3
 8007db2:	0623      	lsls	r3, r4, #24
 8007db4:	f102 0207 	add.w	r2, r2, #7
 8007db8:	d4f5      	bmi.n	8007da6 <read_sleb128+0x6>
 8007dba:	2a1f      	cmp	r2, #31
 8007dbc:	d805      	bhi.n	8007dca <read_sleb128+0x2a>
 8007dbe:	0663      	lsls	r3, r4, #25
 8007dc0:	d503      	bpl.n	8007dca <read_sleb128+0x2a>
 8007dc2:	f04f 33ff 	mov.w	r3, #4294967295
 8007dc6:	4093      	lsls	r3, r2
 8007dc8:	431d      	orrs	r5, r3
 8007dca:	600d      	str	r5, [r1, #0]
 8007dcc:	bc30      	pop	{r4, r5}
 8007dce:	4770      	bx	lr

08007dd0 <read_encoded_value_with_base>:
 8007dd0:	e92d 41f0 	stmdb	sp!, {r4, r5, r6, r7, r8, lr}
 8007dd4:	2850      	cmp	r0, #80	; 0x50
 8007dd6:	b084      	sub	sp, #16
 8007dd8:	4606      	mov	r6, r0
 8007dda:	d048      	beq.n	8007e6e <read_encoded_value_with_base+0x9e>
 8007ddc:	4688      	mov	r8, r1
 8007dde:	f000 010f 	and.w	r1, r0, #15
 8007de2:	290c      	cmp	r1, #12
 8007de4:	d841      	bhi.n	8007e6a <read_encoded_value_with_base+0x9a>
 8007de6:	e8df f001 	tbb	[pc, r1]
 8007dea:	2c07      	.short	0x2c07
 8007dec:	4019073c 	.word	0x4019073c
 8007df0:	21404040 	.word	0x21404040
 8007df4:	071d      	.short	0x071d
 8007df6:	19          	.byte	0x19
 8007df7:	00          	.byte	0x00
 8007df8:	4615      	mov	r5, r2
 8007dfa:	f855 4b04 	ldr.w	r4, [r5], #4
 8007dfe:	b144      	cbz	r4, 8007e12 <read_encoded_value_with_base+0x42>
 8007e00:	f006 0070 	and.w	r0, r6, #112	; 0x70
 8007e04:	2810      	cmp	r0, #16
 8007e06:	bf18      	it	ne
 8007e08:	4642      	movne	r2, r8
 8007e0a:	4414      	add	r4, r2
 8007e0c:	0632      	lsls	r2, r6, #24
 8007e0e:	bf48      	it	mi
 8007e10:	6824      	ldrmi	r4, [r4, #0]
 8007e12:	601c      	str	r4, [r3, #0]
 8007e14:	4628      	mov	r0, r5
 8007e16:	b004      	add	sp, #16
 8007e18:	e8bd 81f0 	ldmia.w	sp!, {r4, r5, r6, r7, r8, pc}
 8007e1c:	4615      	mov	r5, r2
 8007e1e:	f855 4b08 	ldr.w	r4, [r5], #8
 8007e22:	e7ec      	b.n	8007dfe <read_encoded_value_with_base+0x2e>
 8007e24:	4615      	mov	r5, r2
 8007e26:	f935 4b02 	ldrsh.w	r4, [r5], #2
 8007e2a:	e7e8      	b.n	8007dfe <read_encoded_value_with_base+0x2e>
 8007e2c:	4610      	mov	r0, r2
 8007e2e:	a903      	add	r1, sp, #12
 8007e30:	9301      	str	r3, [sp, #4]
 8007e32:	9200      	str	r2, [sp, #0]
 8007e34:	f7ff ffb4 	bl	8007da0 <read_sleb128>
 8007e38:	9c03      	ldr	r4, [sp, #12]
 8007e3a:	4605      	mov	r5, r0
 8007e3c:	e89d 000c 	ldmia.w	sp, {r2, r3}
 8007e40:	e7dd      	b.n	8007dfe <read_encoded_value_with_base+0x2e>
 8007e42:	2400      	movs	r4, #0
 8007e44:	46a6      	mov	lr, r4
 8007e46:	4615      	mov	r5, r2
 8007e48:	f815 1b01 	ldrb.w	r1, [r5], #1
 8007e4c:	f001 077f 	and.w	r7, r1, #127	; 0x7f
 8007e50:	fa07 f70e 	lsl.w	r7, r7, lr
 8007e54:	0609      	lsls	r1, r1, #24
 8007e56:	ea44 0407 	orr.w	r4, r4, r7
 8007e5a:	f10e 0e07 	add.w	lr, lr, #7
 8007e5e:	d4f3      	bmi.n	8007e48 <read_encoded_value_with_base+0x78>
 8007e60:	e7cd      	b.n	8007dfe <read_encoded_value_with_base+0x2e>
 8007e62:	4615      	mov	r5, r2
 8007e64:	f835 4b02 	ldrh.w	r4, [r5], #2
 8007e68:	e7c9      	b.n	8007dfe <read_encoded_value_with_base+0x2e>
 8007e6a:	f001 ff6d 	bl	8009d48 <abort>
 8007e6e:	1cd5      	adds	r5, r2, #3
 8007e70:	f025 0503 	bic.w	r5, r5, #3
 8007e74:	f855 4b04 	ldr.w	r4, [r5], #4
 8007e78:	601c      	str	r4, [r3, #0]
 8007e7a:	4628      	mov	r0, r5
 8007e7c:	b004      	add	sp, #16
 8007e7e:	e8bd 81f0 	ldmia.w	sp!, {r4, r5, r6, r7, r8, pc}
 8007e82:	bf00      	nop

08007e84 <base_of_encoded_value>:
 8007e84:	28ff      	cmp	r0, #255	; 0xff
 8007e86:	d015      	beq.n	8007eb4 <base_of_encoded_value+0x30>
 8007e88:	b508      	push	{r3, lr}
 8007e8a:	f000 0370 	and.w	r3, r0, #112	; 0x70
 8007e8e:	2b20      	cmp	r3, #32
 8007e90:	d012      	beq.n	8007eb8 <base_of_encoded_value+0x34>
 8007e92:	d90a      	bls.n	8007eaa <base_of_encoded_value+0x26>
 8007e94:	2b40      	cmp	r3, #64	; 0x40
 8007e96:	d014      	beq.n	8007ec2 <base_of_encoded_value+0x3e>
 8007e98:	2b50      	cmp	r3, #80	; 0x50
 8007e9a:	d017      	beq.n	8007ecc <base_of_encoded_value+0x48>
 8007e9c:	2b30      	cmp	r3, #48	; 0x30
 8007e9e:	d107      	bne.n	8007eb0 <base_of_encoded_value+0x2c>
 8007ea0:	4608      	mov	r0, r1
 8007ea2:	e8bd 4008 	ldmia.w	sp!, {r3, lr}
 8007ea6:	f003 bd8d 	b.w	800b9c4 <_Unwind_GetDataRelBase>
 8007eaa:	b17b      	cbz	r3, 8007ecc <base_of_encoded_value+0x48>
 8007eac:	2b10      	cmp	r3, #16
 8007eae:	d00d      	beq.n	8007ecc <base_of_encoded_value+0x48>
 8007eb0:	f001 ff4a 	bl	8009d48 <abort>
 8007eb4:	2000      	movs	r0, #0
 8007eb6:	4770      	bx	lr
 8007eb8:	4608      	mov	r0, r1
 8007eba:	e8bd 4008 	ldmia.w	sp!, {r3, lr}
 8007ebe:	f003 bd85 	b.w	800b9cc <_Unwind_GetTextRelBase>
 8007ec2:	4608      	mov	r0, r1
 8007ec4:	e8bd 4008 	ldmia.w	sp!, {r3, lr}
 8007ec8:	f003 bd6c 	b.w	800b9a4 <_Unwind_GetRegionStart>
 8007ecc:	2000      	movs	r0, #0
 8007ece:	bd08      	pop	{r3, pc}

08007ed0 <__gnat_personality_v0>:
 8007ed0:	e92d 4ff0 	stmdb	sp!, {r4, r5, r6, r7, r8, r9, sl, fp, lr}
 8007ed4:	f000 0303 	and.w	r3, r0, #3
 8007ed8:	2b01      	cmp	r3, #1
 8007eda:	b091      	sub	sp, #68	; 0x44
 8007edc:	4605      	mov	r5, r0
 8007ede:	4689      	mov	r9, r1
 8007ee0:	4690      	mov	r8, r2
 8007ee2:	f000 80cf 	beq.w	8008084 <__gnat_personality_v0+0x1b4>
 8007ee6:	d310      	bcc.n	8007f0a <__gnat_personality_v0+0x3a>
 8007ee8:	2b02      	cmp	r3, #2
 8007eea:	d003      	beq.n	8007ef4 <__gnat_personality_v0+0x24>
 8007eec:	2009      	movs	r0, #9
 8007eee:	b011      	add	sp, #68	; 0x44
 8007ef0:	e8bd 8ff0 	ldmia.w	sp!, {r4, r5, r6, r7, r8, r9, sl, fp, pc}
 8007ef4:	4608      	mov	r0, r1
 8007ef6:	4611      	mov	r1, r2
 8007ef8:	f003 fd40 	bl	800b97c <__gnu_unwind_frame>
 8007efc:	2800      	cmp	r0, #0
 8007efe:	bf14      	ite	ne
 8007f00:	2009      	movne	r0, #9
 8007f02:	2008      	moveq	r0, #8
 8007f04:	b011      	add	sp, #68	; 0x44
 8007f06:	e8bd 8ff0 	ldmia.w	sp!, {r4, r5, r6, r7, r8, r9, sl, fp, pc}
 8007f0a:	2601      	movs	r6, #1
 8007f0c:	aa10      	add	r2, sp, #64	; 0x40
 8007f0e:	2100      	movs	r1, #0
 8007f10:	f842 9d34 	str.w	r9, [r2, #-52]!
 8007f14:	460b      	mov	r3, r1
 8007f16:	9200      	str	r2, [sp, #0]
 8007f18:	4640      	mov	r0, r8
 8007f1a:	220c      	movs	r2, #12
 8007f1c:	f002 ffc0 	bl	800aea0 <_Unwind_VRS_Set>
 8007f20:	f1b8 0f00 	cmp.w	r8, #0
 8007f24:	f000 80b0 	beq.w	8008088 <__gnat_personality_v0+0x1b8>
 8007f28:	4640      	mov	r0, r8
 8007f2a:	f003 fd41 	bl	800b9b0 <_Unwind_GetLanguageSpecificData>
 8007f2e:	4604      	mov	r4, r0
 8007f30:	9008      	str	r0, [sp, #32]
 8007f32:	2800      	cmp	r0, #0
 8007f34:	f000 809b 	beq.w	800806e <__gnat_personality_v0+0x19e>
 8007f38:	4640      	mov	r0, r8
 8007f3a:	f003 fd33 	bl	800b9a4 <_Unwind_GetRegionStart>
 8007f3e:	9007      	str	r0, [sp, #28]
 8007f40:	7827      	ldrb	r7, [r4, #0]
 8007f42:	2fff      	cmp	r7, #255	; 0xff
 8007f44:	f104 0401 	add.w	r4, r4, #1
 8007f48:	f000 80a1 	beq.w	800808e <__gnat_personality_v0+0x1be>
 8007f4c:	4641      	mov	r1, r8
 8007f4e:	4638      	mov	r0, r7
 8007f50:	f7ff ff98 	bl	8007e84 <base_of_encoded_value>
 8007f54:	4622      	mov	r2, r4
 8007f56:	4601      	mov	r1, r0
 8007f58:	ab0b      	add	r3, sp, #44	; 0x2c
 8007f5a:	4638      	mov	r0, r7
 8007f5c:	f7ff ff38 	bl	8007dd0 <read_encoded_value_with_base>
 8007f60:	4604      	mov	r4, r0
 8007f62:	7820      	ldrb	r0, [r4, #0]
 8007f64:	f88d 0034 	strb.w	r0, [sp, #52]	; 0x34
 8007f68:	28ff      	cmp	r0, #255	; 0xff
 8007f6a:	f104 0401 	add.w	r4, r4, #1
 8007f6e:	f000 8137 	beq.w	80081e0 <__gnat_personality_v0+0x310>
 8007f72:	2700      	movs	r7, #0
 8007f74:	463a      	mov	r2, r7
 8007f76:	f814 1b01 	ldrb.w	r1, [r4], #1
 8007f7a:	f001 037f 	and.w	r3, r1, #127	; 0x7f
 8007f7e:	4093      	lsls	r3, r2
 8007f80:	431f      	orrs	r7, r3
 8007f82:	060b      	lsls	r3, r1, #24
 8007f84:	f102 0207 	add.w	r2, r2, #7
 8007f88:	d4f5      	bmi.n	8007f76 <__gnat_personality_v0+0xa6>
 8007f8a:	4427      	add	r7, r4
 8007f8c:	970e      	str	r7, [sp, #56]	; 0x38
 8007f8e:	4641      	mov	r1, r8
 8007f90:	f7ff ff78 	bl	8007e84 <base_of_encoded_value>
 8007f94:	900f      	str	r0, [sp, #60]	; 0x3c
 8007f96:	7823      	ldrb	r3, [r4, #0]
 8007f98:	f88d 3024 	strb.w	r3, [sp, #36]	; 0x24
 8007f9c:	2700      	movs	r7, #0
 8007f9e:	1c63      	adds	r3, r4, #1
 8007fa0:	4639      	mov	r1, r7
 8007fa2:	f813 0b01 	ldrb.w	r0, [r3], #1
 8007fa6:	f000 027f 	and.w	r2, r0, #127	; 0x7f
 8007faa:	408a      	lsls	r2, r1
 8007fac:	0600      	lsls	r0, r0, #24
 8007fae:	ea47 0702 	orr.w	r7, r7, r2
 8007fb2:	f101 0107 	add.w	r1, r1, #7
 8007fb6:	d4f4      	bmi.n	8007fa2 <__gnat_personality_v0+0xd2>
 8007fb8:	9a08      	ldr	r2, [sp, #32]
 8007fba:	930a      	str	r3, [sp, #40]	; 0x28
 8007fbc:	443b      	add	r3, r7
 8007fbe:	930c      	str	r3, [sp, #48]	; 0x30
 8007fc0:	2a00      	cmp	r2, #0
 8007fc2:	d054      	beq.n	800806e <__gnat_personality_v0+0x19e>
 8007fc4:	2100      	movs	r1, #0
 8007fc6:	ab06      	add	r3, sp, #24
 8007fc8:	9300      	str	r3, [sp, #0]
 8007fca:	220f      	movs	r2, #15
 8007fcc:	460b      	mov	r3, r1
 8007fce:	4640      	mov	r0, r8
 8007fd0:	f002 ff40 	bl	800ae54 <_Unwind_VRS_Get>
 8007fd4:	9b06      	ldr	r3, [sp, #24]
 8007fd6:	9c0a      	ldr	r4, [sp, #40]	; 0x28
 8007fd8:	9a0c      	ldr	r2, [sp, #48]	; 0x30
 8007fda:	f005 0508 	and.w	r5, r5, #8
 8007fde:	f023 0301 	bic.w	r3, r3, #1
 8007fe2:	4294      	cmp	r4, r2
 8007fe4:	ea46 0705 	orr.w	r7, r6, r5
 8007fe8:	f103 3aff 	add.w	sl, r3, #4294967295
 8007fec:	d23f      	bcs.n	800806e <__gnat_personality_v0+0x19e>
 8007fee:	f89d 5024 	ldrb.w	r5, [sp, #36]	; 0x24
 8007ff2:	2100      	movs	r1, #0
 8007ff4:	4628      	mov	r0, r5
 8007ff6:	f7ff ff45 	bl	8007e84 <base_of_encoded_value>
 8007ffa:	4622      	mov	r2, r4
 8007ffc:	4601      	mov	r1, r0
 8007ffe:	ab04      	add	r3, sp, #16
 8008000:	4628      	mov	r0, r5
 8008002:	f7ff fee5 	bl	8007dd0 <read_encoded_value_with_base>
 8008006:	f89d 4024 	ldrb.w	r4, [sp, #36]	; 0x24
 800800a:	4605      	mov	r5, r0
 800800c:	2100      	movs	r1, #0
 800800e:	4620      	mov	r0, r4
 8008010:	f7ff ff38 	bl	8007e84 <base_of_encoded_value>
 8008014:	462a      	mov	r2, r5
 8008016:	4601      	mov	r1, r0
 8008018:	ab05      	add	r3, sp, #20
 800801a:	4620      	mov	r0, r4
 800801c:	f7ff fed8 	bl	8007dd0 <read_encoded_value_with_base>
 8008020:	f89d 4024 	ldrb.w	r4, [sp, #36]	; 0x24
 8008024:	4605      	mov	r5, r0
 8008026:	2100      	movs	r1, #0
 8008028:	4620      	mov	r0, r4
 800802a:	f7ff ff2b 	bl	8007e84 <base_of_encoded_value>
 800802e:	462a      	mov	r2, r5
 8008030:	4601      	mov	r1, r0
 8008032:	ab06      	add	r3, sp, #24
 8008034:	4620      	mov	r0, r4
 8008036:	f7ff fecb 	bl	8007dd0 <read_encoded_value_with_base>
 800803a:	2600      	movs	r6, #0
 800803c:	4634      	mov	r4, r6
 800803e:	f810 5b01 	ldrb.w	r5, [r0], #1
 8008042:	f005 037f 	and.w	r3, r5, #127	; 0x7f
 8008046:	40a3      	lsls	r3, r4
 8008048:	062a      	lsls	r2, r5, #24
 800804a:	ea46 0603 	orr.w	r6, r6, r3
 800804e:	f104 0407 	add.w	r4, r4, #7
 8008052:	d4f4      	bmi.n	800803e <__gnat_personality_v0+0x16e>
 8008054:	9a04      	ldr	r2, [sp, #16]
 8008056:	9b07      	ldr	r3, [sp, #28]
 8008058:	4413      	add	r3, r2
 800805a:	459a      	cmp	sl, r3
 800805c:	4604      	mov	r4, r0
 800805e:	d306      	bcc.n	800806e <__gnat_personality_v0+0x19e>
 8008060:	9a05      	ldr	r2, [sp, #20]
 8008062:	4413      	add	r3, r2
 8008064:	459a      	cmp	sl, r3
 8008066:	d314      	bcc.n	8008092 <__gnat_personality_v0+0x1c2>
 8008068:	9b0c      	ldr	r3, [sp, #48]	; 0x30
 800806a:	4283      	cmp	r3, r0
 800806c:	d8bf      	bhi.n	8007fee <__gnat_personality_v0+0x11e>
 800806e:	4648      	mov	r0, r9
 8008070:	4641      	mov	r1, r8
 8008072:	f003 fc83 	bl	800b97c <__gnu_unwind_frame>
 8008076:	2800      	cmp	r0, #0
 8008078:	f47f af38 	bne.w	8007eec <__gnat_personality_v0+0x1c>
 800807c:	2008      	movs	r0, #8
 800807e:	b011      	add	sp, #68	; 0x44
 8008080:	e8bd 8ff0 	ldmia.w	sp!, {r4, r5, r6, r7, r8, r9, sl, fp, pc}
 8008084:	2602      	movs	r6, #2
 8008086:	e741      	b.n	8007f0c <__gnat_personality_v0+0x3c>
 8008088:	f8cd 8020 	str.w	r8, [sp, #32]
 800808c:	e7ef      	b.n	800806e <__gnat_personality_v0+0x19e>
 800808e:	900b      	str	r0, [sp, #44]	; 0x2c
 8008090:	e767      	b.n	8007f62 <__gnat_personality_v0+0x92>
 8008092:	9b06      	ldr	r3, [sp, #24]
 8008094:	bb0b      	cbnz	r3, 80080da <__gnat_personality_v0+0x20a>
 8008096:	2e00      	cmp	r6, #0
 8008098:	d0e9      	beq.n	800806e <__gnat_personality_v0+0x19e>
 800809a:	469a      	mov	sl, r3
 800809c:	980c      	ldr	r0, [sp, #48]	; 0x30
 800809e:	3e01      	subs	r6, #1
 80080a0:	4430      	add	r0, r6
 80080a2:	f1ba 0f00 	cmp.w	sl, #0
 80080a6:	d0e2      	beq.n	800806e <__gnat_personality_v0+0x19e>
 80080a8:	b1f8      	cbz	r0, 80080ea <__gnat_personality_v0+0x21a>
 80080aa:	4e62      	ldr	r6, [pc, #392]	; (8008234 <__gnat_personality_v0+0x364>)
 80080ac:	2501      	movs	r5, #1
 80080ae:	e008      	b.n	80080c2 <__gnat_personality_v0+0x1f2>
 80080b0:	dd02      	ble.n	80080b8 <__gnat_personality_v0+0x1e8>
 80080b2:	f017 0208 	ands.w	r2, r7, #8
 80080b6:	d04a      	beq.n	800814e <__gnat_personality_v0+0x27e>
 80080b8:	9805      	ldr	r0, [sp, #20]
 80080ba:	2800      	cmp	r0, #0
 80080bc:	f000 80b4 	beq.w	8008228 <__gnat_personality_v0+0x358>
 80080c0:	4420      	add	r0, r4
 80080c2:	a904      	add	r1, sp, #16
 80080c4:	f7ff fe6c 	bl	8007da0 <read_sleb128>
 80080c8:	a905      	add	r1, sp, #20
 80080ca:	4604      	mov	r4, r0
 80080cc:	f7ff fe68 	bl	8007da0 <read_sleb128>
 80080d0:	9b04      	ldr	r3, [sp, #16]
 80080d2:	2b00      	cmp	r3, #0
 80080d4:	d1ec      	bne.n	80080b0 <__gnat_personality_v0+0x1e0>
 80080d6:	2502      	movs	r5, #2
 80080d8:	e7ee      	b.n	80080b8 <__gnat_personality_v0+0x1e8>
 80080da:	9a0b      	ldr	r2, [sp, #44]	; 0x2c
 80080dc:	eb03 0a02 	add.w	sl, r3, r2
 80080e0:	2e00      	cmp	r6, #0
 80080e2:	d1db      	bne.n	800809c <__gnat_personality_v0+0x1cc>
 80080e4:	f1ba 0f00 	cmp.w	sl, #0
 80080e8:	d0c1      	beq.n	800806e <__gnat_personality_v0+0x19e>
 80080ea:	f017 0001 	ands.w	r0, r7, #1
 80080ee:	d1be      	bne.n	800806e <__gnat_personality_v0+0x19e>
 80080f0:	4604      	mov	r4, r0
 80080f2:	2100      	movs	r1, #0
 80080f4:	ab06      	add	r3, sp, #24
 80080f6:	460a      	mov	r2, r1
 80080f8:	9300      	str	r3, [sp, #0]
 80080fa:	4640      	mov	r0, r8
 80080fc:	460b      	mov	r3, r1
 80080fe:	f8cd 9018 	str.w	r9, [sp, #24]
 8008102:	f002 fecd 	bl	800aea0 <_Unwind_VRS_Set>
 8008106:	2100      	movs	r1, #0
 8008108:	ab05      	add	r3, sp, #20
 800810a:	9300      	str	r3, [sp, #0]
 800810c:	2201      	movs	r2, #1
 800810e:	460b      	mov	r3, r1
 8008110:	4640      	mov	r0, r8
 8008112:	9405      	str	r4, [sp, #20]
 8008114:	f002 fec4 	bl	800aea0 <_Unwind_VRS_Set>
 8008118:	2100      	movs	r1, #0
 800811a:	ab04      	add	r3, sp, #16
 800811c:	9300      	str	r3, [sp, #0]
 800811e:	220f      	movs	r2, #15
 8008120:	460b      	mov	r3, r1
 8008122:	4640      	mov	r0, r8
 8008124:	f002 fe96 	bl	800ae54 <_Unwind_VRS_Get>
 8008128:	9b04      	ldr	r3, [sp, #16]
 800812a:	2100      	movs	r1, #0
 800812c:	aa04      	add	r2, sp, #16
 800812e:	f003 0301 	and.w	r3, r3, #1
 8008132:	9200      	str	r2, [sp, #0]
 8008134:	ea43 040a 	orr.w	r4, r3, sl
 8008138:	220f      	movs	r2, #15
 800813a:	460b      	mov	r3, r1
 800813c:	4640      	mov	r0, r8
 800813e:	9404      	str	r4, [sp, #16]
 8008140:	f002 feae 	bl	800aea0 <_Unwind_VRS_Set>
 8008144:	4648      	mov	r0, r9
 8008146:	f000 fd23 	bl	8008b90 <__gnat_setup_current_excep>
 800814a:	2007      	movs	r0, #7
 800814c:	e6cf      	b.n	8007eee <__gnat_personality_v0+0x1e>
 800814e:	f89d 0034 	ldrb.w	r0, [sp, #52]	; 0x34
 8008152:	28ff      	cmp	r0, #255	; 0xff
 8008154:	d00a      	beq.n	800816c <__gnat_personality_v0+0x29c>
 8008156:	f000 0207 	and.w	r2, r0, #7
 800815a:	2a04      	cmp	r2, #4
 800815c:	d849      	bhi.n	80081f2 <__gnat_personality_v0+0x322>
 800815e:	e8df f002 	tbb	[pc, r2]
 8008162:	4803      	.short	0x4803
 8008164:	0345      	.short	0x0345
 8008166:	42          	.byte	0x42
 8008167:	00          	.byte	0x00
 8008168:	009b      	lsls	r3, r3, #2
 800816a:	425a      	negs	r2, r3
 800816c:	9b0e      	ldr	r3, [sp, #56]	; 0x38
 800816e:	990f      	ldr	r1, [sp, #60]	; 0x3c
 8008170:	441a      	add	r2, r3
 8008172:	ab06      	add	r3, sp, #24
 8008174:	f7ff fe2c 	bl	8007dd0 <read_encoded_value_with_base>
 8008178:	f8dd b018 	ldr.w	fp, [sp, #24]
 800817c:	45b3      	cmp	fp, r6
 800817e:	d01f      	beq.n	80081c0 <__gnat_personality_v0+0x2f0>
 8008180:	4648      	mov	r0, r9
 8008182:	492d      	ldr	r1, [pc, #180]	; (8008238 <__gnat_personality_v0+0x368>)
 8008184:	2208      	movs	r2, #8
 8008186:	f001 f87f 	bl	8009288 <memcmp>
 800818a:	b3a0      	cbz	r0, 80081f6 <__gnat_personality_v0+0x326>
 800818c:	4b2b      	ldr	r3, [pc, #172]	; (800823c <__gnat_personality_v0+0x36c>)
 800818e:	459b      	cmp	fp, r3
 8008190:	d016      	beq.n	80081c0 <__gnat_personality_v0+0x2f0>
 8008192:	4a2b      	ldr	r2, [pc, #172]	; (8008240 <__gnat_personality_v0+0x370>)
 8008194:	4593      	cmp	fp, r2
 8008196:	d013      	beq.n	80081c0 <__gnat_personality_v0+0x2f0>
 8008198:	4648      	mov	r0, r9
 800819a:	492a      	ldr	r1, [pc, #168]	; (8008244 <__gnat_personality_v0+0x374>)
 800819c:	2208      	movs	r2, #8
 800819e:	f001 f873 	bl	8009288 <memcmp>
 80081a2:	2800      	cmp	r0, #0
 80081a4:	d188      	bne.n	80080b8 <__gnat_personality_v0+0x1e8>
 80081a6:	4658      	mov	r0, fp
 80081a8:	f000 fd52 	bl	8008c50 <__gnat_language_for>
 80081ac:	2843      	cmp	r0, #67	; 0x43
 80081ae:	d183      	bne.n	80080b8 <__gnat_personality_v0+0x1e8>
 80081b0:	4658      	mov	r0, fp
 80081b2:	f000 fd47 	bl	8008c44 <__gnat_foreign_data_for>
 80081b6:	f859 3c20 	ldr.w	r3, [r9, #-32]
 80081ba:	4283      	cmp	r3, r0
 80081bc:	f47f af7c 	bne.w	80080b8 <__gnat_personality_v0+0x1e8>
 80081c0:	2503      	movs	r5, #3
 80081c2:	9c04      	ldr	r4, [sp, #16]
 80081c4:	07fb      	lsls	r3, r7, #31
 80081c6:	d594      	bpl.n	80080f2 <__gnat_personality_v0+0x222>
 80081c8:	2d02      	cmp	r5, #2
 80081ca:	f43f af50 	beq.w	800806e <__gnat_personality_v0+0x19e>
 80081ce:	4648      	mov	r0, r9
 80081d0:	f000 fcde 	bl	8008b90 <__gnat_setup_current_excep>
 80081d4:	2d04      	cmp	r5, #4
 80081d6:	d016      	beq.n	8008206 <__gnat_personality_v0+0x336>
 80081d8:	f000 fdba 	bl	8008d50 <__gnat_notify_handled_exception>
 80081dc:	2006      	movs	r0, #6
 80081de:	e686      	b.n	8007eee <__gnat_personality_v0+0x1e>
 80081e0:	2300      	movs	r3, #0
 80081e2:	930e      	str	r3, [sp, #56]	; 0x38
 80081e4:	e6d3      	b.n	8007f8e <__gnat_personality_v0+0xbe>
 80081e6:	00db      	lsls	r3, r3, #3
 80081e8:	425a      	negs	r2, r3
 80081ea:	e7bf      	b.n	800816c <__gnat_personality_v0+0x29c>
 80081ec:	005b      	lsls	r3, r3, #1
 80081ee:	425a      	negs	r2, r3
 80081f0:	e7bc      	b.n	800816c <__gnat_personality_v0+0x29c>
 80081f2:	f001 fda9 	bl	8009d48 <abort>
 80081f6:	4648      	mov	r0, r9
 80081f8:	f000 fd22 	bl	8008c40 <__gnat_eid_for>
 80081fc:	4a12      	ldr	r2, [pc, #72]	; (8008248 <__gnat_personality_v0+0x378>)
 80081fe:	4593      	cmp	fp, r2
 8008200:	d104      	bne.n	800820c <__gnat_personality_v0+0x33c>
 8008202:	2504      	movs	r5, #4
 8008204:	e7dd      	b.n	80081c2 <__gnat_personality_v0+0x2f2>
 8008206:	f000 fda9 	bl	8008d5c <__gnat_notify_unhandled_exception>
 800820a:	e7e7      	b.n	80081dc <__gnat_personality_v0+0x30c>
 800820c:	4648      	mov	r0, r9
 800820e:	f000 fd17 	bl	8008c40 <__gnat_eid_for>
 8008212:	4583      	cmp	fp, r0
 8008214:	d0d4      	beq.n	80081c0 <__gnat_personality_v0+0x2f0>
 8008216:	4b09      	ldr	r3, [pc, #36]	; (800823c <__gnat_personality_v0+0x36c>)
 8008218:	459b      	cmp	fp, r3
 800821a:	f47f af4d 	bne.w	80080b8 <__gnat_personality_v0+0x1e8>
 800821e:	f000 fd13 	bl	8008c48 <__gnat_is_handled_by_others>
 8008222:	2800      	cmp	r0, #0
 8008224:	d1cc      	bne.n	80081c0 <__gnat_personality_v0+0x2f0>
 8008226:	e747      	b.n	80080b8 <__gnat_personality_v0+0x1e8>
 8008228:	2d01      	cmp	r5, #1
 800822a:	4604      	mov	r4, r0
 800822c:	f43f af1f 	beq.w	800806e <__gnat_personality_v0+0x19e>
 8008230:	e7c8      	b.n	80081c4 <__gnat_personality_v0+0x2f4>
 8008232:	bf00      	nop
 8008234:	0800e655 	.word	0x0800e655
 8008238:	0800dec4 	.word	0x0800dec4
 800823c:	0800e654 	.word	0x0800e654
 8008240:	2000022c 	.word	0x2000022c
 8008244:	0800decc 	.word	0x0800decc
 8008248:	0800e656 	.word	0x0800e656

0800824c <__gnat_cleanupunwind_handler>:
 800824c:	06ca      	lsls	r2, r1, #27
 800824e:	d401      	bmi.n	8008254 <__gnat_cleanupunwind_handler+0x8>
 8008250:	2000      	movs	r0, #0
 8008252:	4770      	bx	lr
 8008254:	b508      	push	{r3, lr}
 8008256:	4618      	mov	r0, r3
 8008258:	f000 fcec 	bl	8008c34 <__gnat_unhandled_except_handler>
 800825c:	2000      	movs	r0, #0
 800825e:	bd08      	pop	{r3, pc}

08008260 <__gnat_Unwind_RaiseException>:
 8008260:	f003 b9a4 	b.w	800b5ac <_Unwind_RaiseException>

08008264 <__gnat_Unwind_ForcedUnwind>:
 8008264:	f003 b9d8 	b.w	800b618 <_Unwind_ForcedUnwind>

08008268 <system__storage_pools___size__2>:
 8008268:	2020      	movs	r0, #32
 800826a:	2100      	movs	r1, #0
 800826c:	4770      	bx	lr
 800826e:	bf00      	nop

08008270 <system__storage_pools__root_storage_poolDF__2>:
 8008270:	4770      	bx	lr
 8008272:	bf00      	nop

08008274 <system__storage_pools___elabs>:
 8008274:	4801      	ldr	r0, [pc, #4]	; (800827c <system__storage_pools___elabs+0x8>)
 8008276:	f001 b99b 	b.w	80095b0 <ada__tags__register_tag>
 800827a:	bf00      	nop
 800827c:	0800df10 	.word	0x0800df10

08008280 <system__standard_library__adafinal>:
 8008280:	4b04      	ldr	r3, [pc, #16]	; (8008294 <system__standard_library__adafinal+0x14>)
 8008282:	781a      	ldrb	r2, [r3, #0]
 8008284:	b102      	cbz	r2, 8008288 <system__standard_library__adafinal+0x8>
 8008286:	4770      	bx	lr
 8008288:	4a03      	ldr	r2, [pc, #12]	; (8008298 <system__standard_library__adafinal+0x18>)
 800828a:	2101      	movs	r1, #1
 800828c:	6812      	ldr	r2, [r2, #0]
 800828e:	7019      	strb	r1, [r3, #0]
 8008290:	4710      	bx	r2
 8008292:	bf00      	nop
 8008294:	200001a4 	.word	0x200001a4
 8008298:	2000020c 	.word	0x2000020c

0800829c <system__pool_global___size>:
 800829c:	2020      	movs	r0, #32
 800829e:	2100      	movs	r1, #0
 80082a0:	4770      	bx	lr
 80082a2:	bf00      	nop

080082a4 <system__pool_global__unbounded_no_reclaim_poolDF>:
 80082a4:	4770      	bx	lr
 80082a6:	bf00      	nop

080082a8 <system__pool_global__storage_size>:
 80082a8:	f06f 4000 	mvn.w	r0, #2147483648	; 0x80000000
 80082ac:	4770      	bx	lr
 80082ae:	bf00      	nop

080082b0 <system__pool_global__allocate>:
 80082b0:	b510      	push	{r4, lr}
 80082b2:	2a08      	cmp	r2, #8
 80082b4:	4614      	mov	r4, r2
 80082b6:	dd0b      	ble.n	80082d0 <system__pool_global__allocate+0x20>
 80082b8:	1850      	adds	r0, r2, r1
 80082ba:	f002 f9d7 	bl	800a66c <__gnat_malloc>
 80082be:	4603      	mov	r3, r0
 80082c0:	b158      	cbz	r0, 80082da <system__pool_global__allocate+0x2a>
 80082c2:	fbb0 f0f4 	udiv	r0, r0, r4
 80082c6:	fb04 4000 	mla	r0, r4, r0, r4
 80082ca:	f840 3c04 	str.w	r3, [r0, #-4]
 80082ce:	bd10      	pop	{r4, pc}
 80082d0:	4608      	mov	r0, r1
 80082d2:	f002 f9cb 	bl	800a66c <__gnat_malloc>
 80082d6:	2800      	cmp	r0, #0
 80082d8:	d1f9      	bne.n	80082ce <system__pool_global__allocate+0x1e>
 80082da:	4802      	ldr	r0, [pc, #8]	; (80082e4 <system__pool_global__allocate+0x34>)
 80082dc:	213f      	movs	r1, #63	; 0x3f
 80082de:	f000 fea1 	bl	8009024 <__gnat_rcheck_SE_Explicit_Raise>
 80082e2:	bf00      	nop
 80082e4:	0800dfec 	.word	0x0800dfec

080082e8 <system__pool_global__deallocate>:
 80082e8:	2b08      	cmp	r3, #8
 80082ea:	dc02      	bgt.n	80082f2 <system__pool_global__deallocate+0xa>
 80082ec:	4608      	mov	r0, r1
 80082ee:	f002 b9e7 	b.w	800a6c0 <__gnat_free>
 80082f2:	f851 0c04 	ldr.w	r0, [r1, #-4]
 80082f6:	f002 b9e3 	b.w	800a6c0 <__gnat_free>
 80082fa:	bf00      	nop

080082fc <system__pool_global___elabs>:
 80082fc:	b510      	push	{r4, lr}
 80082fe:	4c05      	ldr	r4, [pc, #20]	; (8008314 <system__pool_global___elabs+0x18>)
 8008300:	4620      	mov	r0, r4
 8008302:	f001 f955 	bl	80095b0 <ada__tags__register_tag>
 8008306:	4a04      	ldr	r2, [pc, #16]	; (8008318 <system__pool_global___elabs+0x1c>)
 8008308:	4b04      	ldr	r3, [pc, #16]	; (800831c <system__pool_global___elabs+0x20>)
 800830a:	6014      	str	r4, [r2, #0]
 800830c:	2201      	movs	r2, #1
 800830e:	601a      	str	r2, [r3, #0]
 8008310:	bd10      	pop	{r4, pc}
 8008312:	bf00      	nop
 8008314:	0800e03c 	.word	0x0800e03c
 8008318:	20003e0c 	.word	0x20003e0c
 800831c:	200001f4 	.word	0x200001f4

08008320 <memcpy>:
 8008320:	b470      	push	{r4, r5, r6}
 8008322:	ea40 0301 	orr.w	r3, r0, r1
 8008326:	079b      	lsls	r3, r3, #30
 8008328:	d11b      	bne.n	8008362 <memcpy+0x42>
 800832a:	2a03      	cmp	r2, #3
 800832c:	d919      	bls.n	8008362 <memcpy+0x42>
 800832e:	1f16      	subs	r6, r2, #4
 8008330:	f026 0603 	bic.w	r6, r6, #3
 8008334:	1d0b      	adds	r3, r1, #4
 8008336:	4433      	add	r3, r6
 8008338:	4604      	mov	r4, r0
 800833a:	f851 5b04 	ldr.w	r5, [r1], #4
 800833e:	f844 5b04 	str.w	r5, [r4], #4
 8008342:	4299      	cmp	r1, r3
 8008344:	d1f9      	bne.n	800833a <memcpy+0x1a>
 8008346:	1d01      	adds	r1, r0, #4
 8008348:	f002 0203 	and.w	r2, r2, #3
 800834c:	4431      	add	r1, r6
 800834e:	b132      	cbz	r2, 800835e <memcpy+0x3e>
 8008350:	441a      	add	r2, r3
 8008352:	f813 4b01 	ldrb.w	r4, [r3], #1
 8008356:	f801 4b01 	strb.w	r4, [r1], #1
 800835a:	4293      	cmp	r3, r2
 800835c:	d1f9      	bne.n	8008352 <memcpy+0x32>
 800835e:	bc70      	pop	{r4, r5, r6}
 8008360:	4770      	bx	lr
 8008362:	460b      	mov	r3, r1
 8008364:	4601      	mov	r1, r0
 8008366:	e7f2      	b.n	800834e <memcpy+0x2e>

08008368 <system__soft_links__get_current_excep_soft>:
 8008368:	4b02      	ldr	r3, [pc, #8]	; (8008374 <system__soft_links__get_current_excep_soft+0xc>)
 800836a:	681b      	ldr	r3, [r3, #0]
 800836c:	6a98      	ldr	r0, [r3, #40]	; 0x28
 800836e:	309c      	adds	r0, #156	; 0x9c
 8008370:	4770      	bx	lr
 8008372:	bf00      	nop
 8008374:	20000134 	.word	0x20000134

08008378 <system__soft_links__adafinal_soft>:
 8008378:	4b01      	ldr	r3, [pc, #4]	; (8008380 <system__soft_links__adafinal_soft+0x8>)
 800837a:	4802      	ldr	r0, [pc, #8]	; (8008384 <system__soft_links__adafinal_soft+0xc>)
 800837c:	681b      	ldr	r3, [r3, #0]
 800837e:	4718      	bx	r3
 8008380:	20000210 	.word	0x20000210
 8008384:	0800e0c4 	.word	0x0800e0c4

08008388 <system__soft_links__task_lock_soft>:
 8008388:	490c      	ldr	r1, [pc, #48]	; (80083bc <system__soft_links__task_lock_soft+0x34>)
 800838a:	680b      	ldr	r3, [r1, #0]
 800838c:	6a9a      	ldr	r2, [r3, #40]	; 0x28
 800838e:	f8d2 324c 	ldr.w	r3, [r2, #588]	; 0x24c
 8008392:	3301      	adds	r3, #1
 8008394:	2b01      	cmp	r3, #1
 8008396:	f8c2 324c 	str.w	r3, [r2, #588]	; 0x24c
 800839a:	d000      	beq.n	800839e <system__soft_links__task_lock_soft+0x16>
 800839c:	4770      	bx	lr
 800839e:	b510      	push	{r4, lr}
 80083a0:	f8d2 3080 	ldr.w	r3, [r2, #128]	; 0x80
 80083a4:	6b5c      	ldr	r4, [r3, #52]	; 0x34
 80083a6:	b672      	cpsid	i
 80083a8:	6808      	ldr	r0, [r1, #0]
 80083aa:	21ff      	movs	r1, #255	; 0xff
 80083ac:	f7fe fd8c 	bl	8006ec8 <system__bb__threads__queues__change_priority>
 80083b0:	f7fe fd60 	bl	8006e74 <system__bb__protection__leave_kernel>
 80083b4:	4b02      	ldr	r3, [pc, #8]	; (80083c0 <system__soft_links__task_lock_soft+0x38>)
 80083b6:	601c      	str	r4, [r3, #0]
 80083b8:	bd10      	pop	{r4, pc}
 80083ba:	bf00      	nop
 80083bc:	20000134 	.word	0x20000134
 80083c0:	20003e10 	.word	0x20003e10

080083c4 <system__soft_links__task_unlock_soft>:
 80083c4:	b508      	push	{r3, lr}
 80083c6:	490a      	ldr	r1, [pc, #40]	; (80083f0 <system__soft_links__task_unlock_soft+0x2c>)
 80083c8:	680b      	ldr	r3, [r1, #0]
 80083ca:	6a9a      	ldr	r2, [r3, #40]	; 0x28
 80083cc:	f8d2 324c 	ldr.w	r3, [r2, #588]	; 0x24c
 80083d0:	3b01      	subs	r3, #1
 80083d2:	f8c2 324c 	str.w	r3, [r2, #588]	; 0x24c
 80083d6:	b103      	cbz	r3, 80083da <system__soft_links__task_unlock_soft+0x16>
 80083d8:	bd08      	pop	{r3, pc}
 80083da:	b672      	cpsid	i
 80083dc:	4b05      	ldr	r3, [pc, #20]	; (80083f4 <system__soft_links__task_unlock_soft+0x30>)
 80083de:	6808      	ldr	r0, [r1, #0]
 80083e0:	6819      	ldr	r1, [r3, #0]
 80083e2:	f7fe fd71 	bl	8006ec8 <system__bb__threads__queues__change_priority>
 80083e6:	e8bd 4008 	ldmia.w	sp!, {r3, lr}
 80083ea:	f7fe bd43 	b.w	8006e74 <system__bb__protection__leave_kernel>
 80083ee:	bf00      	nop
 80083f0:	20000134 	.word	0x20000134
 80083f4:	20003e10 	.word	0x20003e10

080083f8 <system__soft_links__task_termination_soft>:
 80083f8:	b570      	push	{r4, r5, r6, lr}
 80083fa:	b082      	sub	sp, #8
 80083fc:	4d12      	ldr	r5, [pc, #72]	; (8008448 <system__soft_links__task_termination_soft+0x50>)
 80083fe:	682b      	ldr	r3, [r5, #0]
 8008400:	6a9e      	ldr	r6, [r3, #40]	; 0x28
 8008402:	b672      	cpsid	i
 8008404:	21ff      	movs	r1, #255	; 0xff
 8008406:	6828      	ldr	r0, [r5, #0]
 8008408:	f7fe fd5e 	bl	8006ec8 <system__bb__threads__queues__change_priority>
 800840c:	f7fe fd32 	bl	8006e74 <system__bb__protection__leave_kernel>
 8008410:	4b0e      	ldr	r3, [pc, #56]	; (800844c <system__soft_links__task_termination_soft+0x54>)
 8008412:	68f2      	ldr	r2, [r6, #12]
 8008414:	e893 0003 	ldmia.w	r3, {r0, r1}
 8008418:	e88d 0003 	stmia.w	sp, {r0, r1}
 800841c:	b672      	cpsid	i
 800841e:	4611      	mov	r1, r2
 8008420:	6828      	ldr	r0, [r5, #0]
 8008422:	f7fe fd51 	bl	8006ec8 <system__bb__threads__queues__change_priority>
 8008426:	f7fe fd25 	bl	8006e74 <system__bb__protection__leave_kernel>
 800842a:	4668      	mov	r0, sp
 800842c:	4908      	ldr	r1, [pc, #32]	; (8008450 <system__soft_links__task_termination_soft+0x58>)
 800842e:	2208      	movs	r2, #8
 8008430:	f000 ff2a 	bl	8009288 <memcmp>
 8008434:	b908      	cbnz	r0, 800843a <system__soft_links__task_termination_soft+0x42>
 8008436:	b002      	add	sp, #8
 8008438:	bd70      	pop	{r4, r5, r6, pc}
 800843a:	e89d 0009 	ldmia.w	sp, {r0, r3}
 800843e:	4631      	mov	r1, r6
 8008440:	b002      	add	sp, #8
 8008442:	e8bd 4070 	ldmia.w	sp!, {r4, r5, r6, lr}
 8008446:	4718      	bx	r3
 8008448:	20000134 	.word	0x20000134
 800844c:	2000011c 	.word	0x2000011c
 8008450:	0800e0bc 	.word	0x0800e0bc

08008454 <system__soft_links___elabs>:
 8008454:	4b05      	ldr	r3, [pc, #20]	; (800846c <system__soft_links___elabs+0x18>)
 8008456:	2200      	movs	r2, #0
 8008458:	601a      	str	r2, [r3, #0]
 800845a:	609a      	str	r2, [r3, #8]
 800845c:	f883 20d4 	strb.w	r2, [r3, #212]	; 0xd4
 8008460:	f8c3 20d8 	str.w	r2, [r3, #216]	; 0xd8
 8008464:	f8c3 20dc 	str.w	r2, [r3, #220]	; 0xdc
 8008468:	4770      	bx	lr
 800846a:	bf00      	nop
 800846c:	20003e14 	.word	0x20003e14

08008470 <ada__exceptions__exception_occurrenceIP>:
 8008470:	2300      	movs	r3, #0
 8008472:	6003      	str	r3, [r0, #0]
 8008474:	6083      	str	r3, [r0, #8]
 8008476:	f880 30d4 	strb.w	r3, [r0, #212]	; 0xd4
 800847a:	f8c0 30d8 	str.w	r3, [r0, #216]	; 0xd8
 800847e:	f8c0 30dc 	str.w	r3, [r0, #220]	; 0xdc
 8008482:	4770      	bx	lr

08008484 <ada__exceptions__exception_data__append_info_addressXn>:
 8008484:	b5f0      	push	{r4, r5, r6, r7, lr}
 8008486:	b08b      	sub	sp, #44	; 0x2c
 8008488:	4616      	mov	r6, r2
 800848a:	461f      	mov	r7, r3
 800848c:	2311      	movs	r3, #17
 800848e:	4d14      	ldr	r5, [pc, #80]	; (80084e0 <ada__exceptions__exception_data__append_info_addressXn+0x5c>)
 8008490:	e000      	b.n	8008494 <ada__exceptions__exception_data__append_info_addressXn+0x10>
 8008492:	4613      	mov	r3, r2
 8008494:	f000 020f 	and.w	r2, r0, #15
 8008498:	5cac      	ldrb	r4, [r5, r2]
 800849a:	a903      	add	r1, sp, #12
 800849c:	545c      	strb	r4, [r3, r1]
 800849e:	4619      	mov	r1, r3
 80084a0:	1e5a      	subs	r2, r3, #1
 80084a2:	0900      	lsrs	r0, r0, #4
 80084a4:	d1f5      	bne.n	8008492 <ada__exceptions__exception_data__append_info_addressXn+0xe>
 80084a6:	aa0a      	add	r2, sp, #40	; 0x28
 80084a8:	4413      	add	r3, r2
 80084aa:	2230      	movs	r2, #48	; 0x30
 80084ac:	f803 2c1e 	strb.w	r2, [r3, #-30]
 80084b0:	2278      	movs	r2, #120	; 0x78
 80084b2:	f803 2c1d 	strb.w	r2, [r3, #-29]
 80084b6:	3901      	subs	r1, #1
 80084b8:	4608      	mov	r0, r1
 80084ba:	2913      	cmp	r1, #19
 80084bc:	bfa8      	it	ge
 80084be:	2013      	movge	r0, #19
 80084c0:	ab0a      	add	r3, sp, #40	; 0x28
 80084c2:	4418      	add	r0, r3
 80084c4:	9108      	str	r1, [sp, #32]
 80084c6:	2312      	movs	r3, #18
 80084c8:	9309      	str	r3, [sp, #36]	; 0x24
 80084ca:	9b10      	ldr	r3, [sp, #64]	; 0x40
 80084cc:	9300      	str	r3, [sp, #0]
 80084ce:	381d      	subs	r0, #29
 80084d0:	a908      	add	r1, sp, #32
 80084d2:	4632      	mov	r2, r6
 80084d4:	463b      	mov	r3, r7
 80084d6:	f000 f921 	bl	800871c <ada__exceptions__exception_data__append_info_stringXn>
 80084da:	b00b      	add	sp, #44	; 0x2c
 80084dc:	bdf0      	pop	{r4, r5, r6, r7, pc}
 80084de:	bf00      	nop
 80084e0:	0800e690 	.word	0x0800e690

080084e4 <ada__exceptions__exception_data__append_info_basic_exception_informationXn>:
 80084e4:	e92d 43f0 	stmdb	sp!, {r4, r5, r6, r7, r8, r9, lr}
 80084e8:	b087      	sub	sp, #28
 80084ea:	af02      	add	r7, sp, #8
 80084ec:	4604      	mov	r4, r0
 80084ee:	4691      	mov	r9, r2
 80084f0:	4698      	mov	r8, r3
 80084f2:	f000 fa0d 	bl	8008910 <ada__exceptions__exception_data__exception_name_length__2Xn>
 80084f6:	4606      	mov	r6, r0
 80084f8:	1dc5      	adds	r5, r0, #7
 80084fa:	f025 0507 	bic.w	r5, r5, #7
 80084fe:	ebad 0d05 	sub.w	sp, sp, r5
 8008502:	ad02      	add	r5, sp, #8
 8008504:	2301      	movs	r3, #1
 8008506:	603b      	str	r3, [r7, #0]
 8008508:	6078      	str	r0, [r7, #4]
 800850a:	2300      	movs	r3, #0
 800850c:	9300      	str	r3, [sp, #0]
 800850e:	4620      	mov	r0, r4
 8008510:	462a      	mov	r2, r5
 8008512:	463b      	mov	r3, r7
 8008514:	f000 f8c4 	bl	80086a0 <ada__exceptions__exception_data__append_info_exception_name__2Xn>
 8008518:	f89d 3008 	ldrb.w	r3, [sp, #8]
 800851c:	2b5f      	cmp	r3, #95	; 0x5f
 800851e:	d02b      	beq.n	8008578 <ada__exceptions__exception_data__append_info_basic_exception_informationXn+0x94>
 8008520:	6b3b      	ldr	r3, [r7, #48]	; 0x30
 8008522:	9300      	str	r3, [sp, #0]
 8008524:	4823      	ldr	r0, [pc, #140]	; (80085b4 <ada__exceptions__exception_data__append_info_basic_exception_informationXn+0xd0>)
 8008526:	4924      	ldr	r1, [pc, #144]	; (80085b8 <ada__exceptions__exception_data__append_info_basic_exception_informationXn+0xd4>)
 8008528:	464a      	mov	r2, r9
 800852a:	4643      	mov	r3, r8
 800852c:	f000 f8f6 	bl	800871c <ada__exceptions__exception_data__append_info_stringXn>
 8008530:	2301      	movs	r3, #1
 8008532:	60bb      	str	r3, [r7, #8]
 8008534:	60fe      	str	r6, [r7, #12]
 8008536:	9000      	str	r0, [sp, #0]
 8008538:	4628      	mov	r0, r5
 800853a:	f107 0108 	add.w	r1, r7, #8
 800853e:	464a      	mov	r2, r9
 8008540:	4643      	mov	r3, r8
 8008542:	f000 f8eb 	bl	800871c <ada__exceptions__exception_data__append_info_stringXn>
 8008546:	4605      	mov	r5, r0
 8008548:	4620      	mov	r0, r4
 800854a:	f000 f9db 	bl	8008904 <__gnat_exception_msg_len>
 800854e:	b168      	cbz	r0, 800856c <ada__exceptions__exception_data__append_info_basic_exception_informationXn+0x88>
 8008550:	9500      	str	r5, [sp, #0]
 8008552:	481a      	ldr	r0, [pc, #104]	; (80085bc <ada__exceptions__exception_data__append_info_basic_exception_informationXn+0xd8>)
 8008554:	491a      	ldr	r1, [pc, #104]	; (80085c0 <ada__exceptions__exception_data__append_info_basic_exception_informationXn+0xdc>)
 8008556:	464a      	mov	r2, r9
 8008558:	4643      	mov	r3, r8
 800855a:	f000 f8df 	bl	800871c <ada__exceptions__exception_data__append_info_stringXn>
 800855e:	9000      	str	r0, [sp, #0]
 8008560:	4620      	mov	r0, r4
 8008562:	464a      	mov	r2, r9
 8008564:	4643      	mov	r3, r8
 8008566:	f000 f841 	bl	80085ec <__gnat_append_info_e_msg>
 800856a:	4605      	mov	r5, r0
 800856c:	4648      	mov	r0, r9
 800856e:	4641      	mov	r1, r8
 8008570:	462a      	mov	r2, r5
 8008572:	f000 f8c7 	bl	8008704 <ada__exceptions__exception_data__append_info_nlXn>
 8008576:	6338      	str	r0, [r7, #48]	; 0x30
 8008578:	f8d4 30d8 	ldr.w	r3, [r4, #216]	; 0xd8
 800857c:	b1ab      	cbz	r3, 80085aa <ada__exceptions__exception_data__append_info_basic_exception_informationXn+0xc6>
 800857e:	6b3b      	ldr	r3, [r7, #48]	; 0x30
 8008580:	9300      	str	r3, [sp, #0]
 8008582:	4810      	ldr	r0, [pc, #64]	; (80085c4 <ada__exceptions__exception_data__append_info_basic_exception_informationXn+0xe0>)
 8008584:	4910      	ldr	r1, [pc, #64]	; (80085c8 <ada__exceptions__exception_data__append_info_basic_exception_informationXn+0xe4>)
 8008586:	464a      	mov	r2, r9
 8008588:	4643      	mov	r3, r8
 800858a:	f000 f8c7 	bl	800871c <ada__exceptions__exception_data__append_info_stringXn>
 800858e:	f8d4 30d8 	ldr.w	r3, [r4, #216]	; 0xd8
 8008592:	9000      	str	r0, [sp, #0]
 8008594:	4618      	mov	r0, r3
 8008596:	464a      	mov	r2, r9
 8008598:	4643      	mov	r3, r8
 800859a:	f000 f88b 	bl	80086b4 <ada__exceptions__exception_data__append_info_natXn>
 800859e:	4602      	mov	r2, r0
 80085a0:	4648      	mov	r0, r9
 80085a2:	4641      	mov	r1, r8
 80085a4:	f000 f8ae 	bl	8008704 <ada__exceptions__exception_data__append_info_nlXn>
 80085a8:	6338      	str	r0, [r7, #48]	; 0x30
 80085aa:	6b38      	ldr	r0, [r7, #48]	; 0x30
 80085ac:	3714      	adds	r7, #20
 80085ae:	46bd      	mov	sp, r7
 80085b0:	e8bd 83f0 	ldmia.w	sp!, {r4, r5, r6, r7, r8, r9, pc}
 80085b4:	0800e31c 	.word	0x0800e31c
 80085b8:	0800e360 	.word	0x0800e360
 80085bc:	0800e35c 	.word	0x0800e35c
 80085c0:	0800e368 	.word	0x0800e368
 80085c4:	0800e324 	.word	0x0800e324
 80085c8:	0800e370 	.word	0x0800e370

080085cc <ada__exceptions__exception_data__append_info_characterXn>:
 80085cc:	b510      	push	{r4, lr}
 80085ce:	9c02      	ldr	r4, [sp, #8]
 80085d0:	6819      	ldr	r1, [r3, #0]
 80085d2:	685b      	ldr	r3, [r3, #4]
 80085d4:	4299      	cmp	r1, r3
 80085d6:	dd02      	ble.n	80085de <ada__exceptions__exception_data__append_info_characterXn+0x12>
 80085d8:	f000 fd66 	bl	80090a8 <__gnat_to_stderr_char>
 80085dc:	e004      	b.n	80085e8 <ada__exceptions__exception_data__append_info_characterXn+0x1c>
 80085de:	42a3      	cmp	r3, r4
 80085e0:	dd02      	ble.n	80085e8 <ada__exceptions__exception_data__append_info_characterXn+0x1c>
 80085e2:	3401      	adds	r4, #1
 80085e4:	1a61      	subs	r1, r4, r1
 80085e6:	5450      	strb	r0, [r2, r1]
 80085e8:	4620      	mov	r0, r4
 80085ea:	bd10      	pop	{r4, pc}

080085ec <__gnat_append_info_e_msg>:
 80085ec:	e92d 43f0 	stmdb	sp!, {r4, r5, r6, r7, r8, r9, lr}
 80085f0:	b085      	sub	sp, #20
 80085f2:	af02      	add	r7, sp, #8
 80085f4:	4604      	mov	r4, r0
 80085f6:	4699      	mov	r9, r3
 80085f8:	6803      	ldr	r3, [r0, #0]
 80085fa:	b923      	cbnz	r3, 8008606 <__gnat_append_info_e_msg+0x1a>
 80085fc:	4811      	ldr	r0, [pc, #68]	; (8008644 <__gnat_append_info_e_msg+0x58>)
 80085fe:	f44f 71a0 	mov.w	r1, #320	; 0x140
 8008602:	f000 fce1 	bl	8008fc8 <__gnat_rcheck_CE_Explicit_Raise>
 8008606:	4690      	mov	r8, r2
 8008608:	f000 f97c 	bl	8008904 <__gnat_exception_msg_len>
 800860c:	4605      	mov	r5, r0
 800860e:	1dc3      	adds	r3, r0, #7
 8008610:	f023 0307 	bic.w	r3, r3, #7
 8008614:	ebad 0d03 	sub.w	sp, sp, r3
 8008618:	ae02      	add	r6, sp, #8
 800861a:	4630      	mov	r0, r6
 800861c:	f104 010c 	add.w	r1, r4, #12
 8008620:	462a      	mov	r2, r5
 8008622:	f7ff fe7d 	bl	8008320 <memcpy>
 8008626:	2301      	movs	r3, #1
 8008628:	603b      	str	r3, [r7, #0]
 800862a:	607d      	str	r5, [r7, #4]
 800862c:	6abb      	ldr	r3, [r7, #40]	; 0x28
 800862e:	9300      	str	r3, [sp, #0]
 8008630:	4630      	mov	r0, r6
 8008632:	4639      	mov	r1, r7
 8008634:	4642      	mov	r2, r8
 8008636:	464b      	mov	r3, r9
 8008638:	f000 f870 	bl	800871c <ada__exceptions__exception_data__append_info_stringXn>
 800863c:	370c      	adds	r7, #12
 800863e:	46bd      	mov	sp, r7
 8008640:	e8bd 83f0 	ldmia.w	sp!, {r4, r5, r6, r7, r8, r9, pc}
 8008644:	0800e378 	.word	0x0800e378

08008648 <ada__exceptions__exception_data__append_info_exception_nameXn>:
 8008648:	e92d 43f0 	stmdb	sp!, {r4, r5, r6, r7, r8, r9, lr}
 800864c:	b085      	sub	sp, #20
 800864e:	af02      	add	r7, sp, #8
 8008650:	b920      	cbnz	r0, 800865c <ada__exceptions__exception_data__append_info_exception_nameXn+0x14>
 8008652:	4812      	ldr	r0, [pc, #72]	; (800869c <ada__exceptions__exception_data__append_info_exception_nameXn+0x54>)
 8008654:	f44f 71ab 	mov.w	r1, #342	; 0x156
 8008658:	f000 fcb6 	bl	8008fc8 <__gnat_rcheck_CE_Explicit_Raise>
 800865c:	4690      	mov	r8, r2
 800865e:	4699      	mov	r9, r3
 8008660:	4605      	mov	r5, r0
 8008662:	f000 f951 	bl	8008908 <ada__exceptions__exception_data__exception_name_lengthXn>
 8008666:	4604      	mov	r4, r0
 8008668:	1dc3      	adds	r3, r0, #7
 800866a:	f023 0307 	bic.w	r3, r3, #7
 800866e:	ebad 0d03 	sub.w	sp, sp, r3
 8008672:	ae02      	add	r6, sp, #8
 8008674:	4630      	mov	r0, r6
 8008676:	68a9      	ldr	r1, [r5, #8]
 8008678:	4622      	mov	r2, r4
 800867a:	f7ff fe51 	bl	8008320 <memcpy>
 800867e:	2301      	movs	r3, #1
 8008680:	603b      	str	r3, [r7, #0]
 8008682:	607c      	str	r4, [r7, #4]
 8008684:	6abb      	ldr	r3, [r7, #40]	; 0x28
 8008686:	9300      	str	r3, [sp, #0]
 8008688:	4630      	mov	r0, r6
 800868a:	4639      	mov	r1, r7
 800868c:	4642      	mov	r2, r8
 800868e:	464b      	mov	r3, r9
 8008690:	f000 f844 	bl	800871c <ada__exceptions__exception_data__append_info_stringXn>
 8008694:	370c      	adds	r7, #12
 8008696:	46bd      	mov	sp, r7
 8008698:	e8bd 83f0 	ldmia.w	sp!, {r4, r5, r6, r7, r8, r9, pc}
 800869c:	0800e378 	.word	0x0800e378

080086a0 <ada__exceptions__exception_data__append_info_exception_name__2Xn>:
 80086a0:	b500      	push	{lr}
 80086a2:	b083      	sub	sp, #12
 80086a4:	6800      	ldr	r0, [r0, #0]
 80086a6:	9904      	ldr	r1, [sp, #16]
 80086a8:	9100      	str	r1, [sp, #0]
 80086aa:	f7ff ffcd 	bl	8008648 <ada__exceptions__exception_data__append_info_exception_nameXn>
 80086ae:	b003      	add	sp, #12
 80086b0:	f85d fb04 	ldr.w	pc, [sp], #4

080086b4 <ada__exceptions__exception_data__append_info_natXn>:
 80086b4:	b5d0      	push	{r4, r6, r7, lr}
 80086b6:	b082      	sub	sp, #8
 80086b8:	4604      	mov	r4, r0
 80086ba:	4616      	mov	r6, r2
 80086bc:	461f      	mov	r7, r3
 80086be:	9806      	ldr	r0, [sp, #24]
 80086c0:	2c09      	cmp	r4, #9
 80086c2:	dd0a      	ble.n	80086da <ada__exceptions__exception_data__append_info_natXn+0x26>
 80086c4:	4a0e      	ldr	r2, [pc, #56]	; (8008700 <ada__exceptions__exception_data__append_info_natXn+0x4c>)
 80086c6:	fb82 3204 	smull	r3, r2, r2, r4
 80086ca:	17e3      	asrs	r3, r4, #31
 80086cc:	9000      	str	r0, [sp, #0]
 80086ce:	ebc3 00a2 	rsb	r0, r3, r2, asr #2
 80086d2:	4632      	mov	r2, r6
 80086d4:	463b      	mov	r3, r7
 80086d6:	f7ff ffed 	bl	80086b4 <ada__exceptions__exception_data__append_info_natXn>
 80086da:	4b09      	ldr	r3, [pc, #36]	; (8008700 <ada__exceptions__exception_data__append_info_natXn+0x4c>)
 80086dc:	fb83 3204 	smull	r3, r2, r3, r4
 80086e0:	17e3      	asrs	r3, r4, #31
 80086e2:	ebc3 03a2 	rsb	r3, r3, r2, asr #2
 80086e6:	eb03 0383 	add.w	r3, r3, r3, lsl #2
 80086ea:	eba4 0443 	sub.w	r4, r4, r3, lsl #1
 80086ee:	3430      	adds	r4, #48	; 0x30
 80086f0:	9000      	str	r0, [sp, #0]
 80086f2:	b2e0      	uxtb	r0, r4
 80086f4:	4632      	mov	r2, r6
 80086f6:	463b      	mov	r3, r7
 80086f8:	f7ff ff68 	bl	80085cc <ada__exceptions__exception_data__append_info_characterXn>
 80086fc:	b002      	add	sp, #8
 80086fe:	bdd0      	pop	{r4, r6, r7, pc}
 8008700:	66666667 	.word	0x66666667

08008704 <ada__exceptions__exception_data__append_info_nlXn>:
 8008704:	b530      	push	{r4, r5, lr}
 8008706:	b083      	sub	sp, #12
 8008708:	4604      	mov	r4, r0
 800870a:	9200      	str	r2, [sp, #0]
 800870c:	200a      	movs	r0, #10
 800870e:	4622      	mov	r2, r4
 8008710:	460b      	mov	r3, r1
 8008712:	f7ff ff5b 	bl	80085cc <ada__exceptions__exception_data__append_info_characterXn>
 8008716:	b003      	add	sp, #12
 8008718:	bd30      	pop	{r4, r5, pc}
 800871a:	bf00      	nop

0800871c <ada__exceptions__exception_data__append_info_stringXn>:
 800871c:	b5f8      	push	{r3, r4, r5, r6, r7, lr}
 800871e:	4606      	mov	r6, r0
 8008720:	9c06      	ldr	r4, [sp, #24]
 8008722:	681f      	ldr	r7, [r3, #0]
 8008724:	685b      	ldr	r3, [r3, #4]
 8008726:	429f      	cmp	r7, r3
 8008728:	dd02      	ble.n	8008730 <ada__exceptions__exception_data__append_info_stringXn+0x14>
 800872a:	f000 fcc1 	bl	80090b0 <__gnat_to_stderr>
 800872e:	e018      	b.n	8008762 <ada__exceptions__exception_data__append_info_stringXn+0x46>
 8008730:	684d      	ldr	r5, [r1, #4]
 8008732:	6809      	ldr	r1, [r1, #0]
 8008734:	428d      	cmp	r5, r1
 8008736:	bfa6      	itte	ge
 8008738:	1a6d      	subge	r5, r5, r1
 800873a:	3501      	addge	r5, #1
 800873c:	2500      	movlt	r5, #0
 800873e:	4621      	mov	r1, r4
 8008740:	442c      	add	r4, r5
 8008742:	42a3      	cmp	r3, r4
 8008744:	bfa8      	it	ge
 8008746:	4623      	movge	r3, r4
 8008748:	461c      	mov	r4, r3
 800874a:	1c4d      	adds	r5, r1, #1
 800874c:	1bef      	subs	r7, r5, r7
 800874e:	18b8      	adds	r0, r7, r2
 8008750:	42ab      	cmp	r3, r5
 8008752:	bfa6      	itte	ge
 8008754:	f1c5 0501 	rsbge	r5, r5, #1
 8008758:	18ea      	addge	r2, r5, r3
 800875a:	2200      	movlt	r2, #0
 800875c:	4631      	mov	r1, r6
 800875e:	f000 fddd 	bl	800931c <memmove>
 8008762:	4620      	mov	r0, r4
 8008764:	bdf8      	pop	{r3, r4, r5, r6, r7, pc}
 8008766:	bf00      	nop

08008768 <ada__exceptions__exception_data__append_info_untailored_exception_tracebackXn>:
 8008768:	e92d 4ff0 	stmdb	sp!, {r4, r5, r6, r7, r8, r9, sl, fp, lr}
 800876c:	b083      	sub	sp, #12
 800876e:	f8d0 10dc 	ldr.w	r1, [r0, #220]	; 0xdc
 8008772:	2900      	cmp	r1, #0
 8008774:	d050      	beq.n	8008818 <ada__exceptions__exception_data__append_info_untailored_exception_tracebackXn+0xb0>
 8008776:	461f      	mov	r7, r3
 8008778:	4690      	mov	r8, r2
 800877a:	4681      	mov	r9, r0
 800877c:	f001 fec0 	bl	800a500 <__gnat_get_executable_load_address>
 8008780:	4604      	mov	r4, r0
 8008782:	b198      	cbz	r0, 80087ac <ada__exceptions__exception_data__append_info_untailored_exception_tracebackXn+0x44>
 8008784:	9b0c      	ldr	r3, [sp, #48]	; 0x30
 8008786:	9300      	str	r3, [sp, #0]
 8008788:	4825      	ldr	r0, [pc, #148]	; (8008820 <ada__exceptions__exception_data__append_info_untailored_exception_tracebackXn+0xb8>)
 800878a:	4926      	ldr	r1, [pc, #152]	; (8008824 <ada__exceptions__exception_data__append_info_untailored_exception_tracebackXn+0xbc>)
 800878c:	4642      	mov	r2, r8
 800878e:	463b      	mov	r3, r7
 8008790:	f7ff ffc4 	bl	800871c <ada__exceptions__exception_data__append_info_stringXn>
 8008794:	9000      	str	r0, [sp, #0]
 8008796:	4620      	mov	r0, r4
 8008798:	4642      	mov	r2, r8
 800879a:	463b      	mov	r3, r7
 800879c:	f7ff fe72 	bl	8008484 <ada__exceptions__exception_data__append_info_addressXn>
 80087a0:	4602      	mov	r2, r0
 80087a2:	4640      	mov	r0, r8
 80087a4:	4639      	mov	r1, r7
 80087a6:	f7ff ffad 	bl	8008704 <ada__exceptions__exception_data__append_info_nlXn>
 80087aa:	900c      	str	r0, [sp, #48]	; 0x30
 80087ac:	9b0c      	ldr	r3, [sp, #48]	; 0x30
 80087ae:	9300      	str	r3, [sp, #0]
 80087b0:	481d      	ldr	r0, [pc, #116]	; (8008828 <ada__exceptions__exception_data__append_info_untailored_exception_tracebackXn+0xc0>)
 80087b2:	491e      	ldr	r1, [pc, #120]	; (800882c <ada__exceptions__exception_data__append_info_untailored_exception_tracebackXn+0xc4>)
 80087b4:	4642      	mov	r2, r8
 80087b6:	463b      	mov	r3, r7
 80087b8:	f7ff ffb0 	bl	800871c <ada__exceptions__exception_data__append_info_stringXn>
 80087bc:	4602      	mov	r2, r0
 80087be:	4640      	mov	r0, r8
 80087c0:	4639      	mov	r1, r7
 80087c2:	f7ff ff9f 	bl	8008704 <ada__exceptions__exception_data__append_info_nlXn>
 80087c6:	4604      	mov	r4, r0
 80087c8:	f8d9 a0dc 	ldr.w	sl, [r9, #220]	; 0xdc
 80087cc:	f1ba 0f00 	cmp.w	sl, #0
 80087d0:	dd1c      	ble.n	800880c <ada__exceptions__exception_data__append_info_untailored_exception_tracebackXn+0xa4>
 80087d2:	f109 06e0 	add.w	r6, r9, #224	; 0xe0
 80087d6:	2500      	movs	r5, #0
 80087d8:	f04f 0b20 	mov.w	fp, #32
 80087dc:	3501      	adds	r5, #1
 80087de:	6830      	ldr	r0, [r6, #0]
 80087e0:	f001 fff0 	bl	800a7c4 <system__traceback_entries__pc_for>
 80087e4:	9400      	str	r4, [sp, #0]
 80087e6:	4642      	mov	r2, r8
 80087e8:	463b      	mov	r3, r7
 80087ea:	f7ff fe4b 	bl	8008484 <ada__exceptions__exception_data__append_info_addressXn>
 80087ee:	4604      	mov	r4, r0
 80087f0:	f8d9 30dc 	ldr.w	r3, [r9, #220]	; 0xdc
 80087f4:	42ab      	cmp	r3, r5
 80087f6:	d009      	beq.n	800880c <ada__exceptions__exception_data__append_info_untailored_exception_tracebackXn+0xa4>
 80087f8:	9000      	str	r0, [sp, #0]
 80087fa:	4658      	mov	r0, fp
 80087fc:	4642      	mov	r2, r8
 80087fe:	463b      	mov	r3, r7
 8008800:	f7ff fee4 	bl	80085cc <ada__exceptions__exception_data__append_info_characterXn>
 8008804:	4604      	mov	r4, r0
 8008806:	3604      	adds	r6, #4
 8008808:	45aa      	cmp	sl, r5
 800880a:	d1e7      	bne.n	80087dc <ada__exceptions__exception_data__append_info_untailored_exception_tracebackXn+0x74>
 800880c:	4640      	mov	r0, r8
 800880e:	4639      	mov	r1, r7
 8008810:	4622      	mov	r2, r4
 8008812:	f7ff ff77 	bl	8008704 <ada__exceptions__exception_data__append_info_nlXn>
 8008816:	900c      	str	r0, [sp, #48]	; 0x30
 8008818:	980c      	ldr	r0, [sp, #48]	; 0x30
 800881a:	b003      	add	sp, #12
 800881c:	e8bd 8ff0 	ldmia.w	sp!, {r4, r5, r6, r7, r8, r9, sl, fp, pc}
 8008820:	0800e34c 	.word	0x0800e34c
 8008824:	0800e388 	.word	0x0800e388
 8008828:	0800e32c 	.word	0x0800e32c
 800882c:	0800e390 	.word	0x0800e390

08008830 <ada__exceptions__exception_data__basic_exception_info_maxlengthXn>:
 8008830:	b538      	push	{r3, r4, r5, lr}
 8008832:	4605      	mov	r5, r0
 8008834:	f000 f86c 	bl	8008910 <ada__exceptions__exception_data__exception_name_length__2Xn>
 8008838:	4604      	mov	r4, r0
 800883a:	4628      	mov	r0, r5
 800883c:	f000 f862 	bl	8008904 <__gnat_exception_msg_len>
 8008840:	4420      	add	r0, r4
 8008842:	301f      	adds	r0, #31
 8008844:	bd38      	pop	{r3, r4, r5, pc}
 8008846:	bf00      	nop

08008848 <ada__exceptions__exception_data__exception_informationXn>:
 8008848:	e92d 4ff0 	stmdb	sp!, {r4, r5, r6, r7, r8, r9, sl, fp, lr}
 800884c:	b08d      	sub	sp, #52	; 0x34
 800884e:	af02      	add	r7, sp, #8
 8008850:	4605      	mov	r5, r0
 8008852:	6079      	str	r1, [r7, #4]
 8008854:	f107 0008 	add.w	r0, r7, #8
 8008858:	f000 f94e 	bl	8008af8 <ada__exceptions__exception_data__tailored_exception_tracebackXn>
 800885c:	f8d7 b008 	ldr.w	fp, [r7, #8]
 8008860:	68fb      	ldr	r3, [r7, #12]
 8008862:	f8d3 a000 	ldr.w	sl, [r3]
 8008866:	f8d3 9004 	ldr.w	r9, [r3, #4]
 800886a:	45ca      	cmp	sl, r9
 800886c:	bfda      	itte	le
 800886e:	ebca 0409 	rsble	r4, sl, r9
 8008872:	3401      	addle	r4, #1
 8008874:	2400      	movgt	r4, #0
 8008876:	6878      	ldr	r0, [r7, #4]
 8008878:	f7ff ffda 	bl	8008830 <ada__exceptions__exception_data__basic_exception_info_maxlengthXn>
 800887c:	4404      	add	r4, r0
 800887e:	ea24 73e4 	bic.w	r3, r4, r4, asr #31
 8008882:	3307      	adds	r3, #7
 8008884:	f023 0307 	bic.w	r3, r3, #7
 8008888:	ebad 0d03 	sub.w	sp, sp, r3
 800888c:	ae02      	add	r6, sp, #8
 800888e:	f04f 0801 	mov.w	r8, #1
 8008892:	f8c7 8010 	str.w	r8, [r7, #16]
 8008896:	617c      	str	r4, [r7, #20]
 8008898:	2300      	movs	r3, #0
 800889a:	9300      	str	r3, [sp, #0]
 800889c:	6878      	ldr	r0, [r7, #4]
 800889e:	4632      	mov	r2, r6
 80088a0:	f107 0310 	add.w	r3, r7, #16
 80088a4:	f7ff fe1e 	bl	80084e4 <ada__exceptions__exception_data__append_info_basic_exception_informationXn>
 80088a8:	f8c7 a018 	str.w	sl, [r7, #24]
 80088ac:	f8c7 901c 	str.w	r9, [r7, #28]
 80088b0:	f8c7 8020 	str.w	r8, [r7, #32]
 80088b4:	627c      	str	r4, [r7, #36]	; 0x24
 80088b6:	9000      	str	r0, [sp, #0]
 80088b8:	4658      	mov	r0, fp
 80088ba:	f107 0118 	add.w	r1, r7, #24
 80088be:	4632      	mov	r2, r6
 80088c0:	f107 0320 	add.w	r3, r7, #32
 80088c4:	f7ff ff2a 	bl	800871c <ada__exceptions__exception_data__append_info_stringXn>
 80088c8:	4682      	mov	sl, r0
 80088ca:	ea20 79e0 	bic.w	r9, r0, r0, asr #31
 80088ce:	f109 000b 	add.w	r0, r9, #11
 80088d2:	f020 0003 	bic.w	r0, r0, #3
 80088d6:	f001 f8d5 	bl	8009a84 <system__secondary_stack__ss_allocate>
 80088da:	4604      	mov	r4, r0
 80088dc:	f8c0 8000 	str.w	r8, [r0]
 80088e0:	f8c0 a004 	str.w	sl, [r0, #4]
 80088e4:	f100 0808 	add.w	r8, r0, #8
 80088e8:	4640      	mov	r0, r8
 80088ea:	4631      	mov	r1, r6
 80088ec:	464a      	mov	r2, r9
 80088ee:	f7ff fd17 	bl	8008320 <memcpy>
 80088f2:	f8c5 8000 	str.w	r8, [r5]
 80088f6:	606c      	str	r4, [r5, #4]
 80088f8:	4628      	mov	r0, r5
 80088fa:	372c      	adds	r7, #44	; 0x2c
 80088fc:	46bd      	mov	sp, r7
 80088fe:	e8bd 8ff0 	ldmia.w	sp!, {r4, r5, r6, r7, r8, r9, sl, fp, pc}
 8008902:	bf00      	nop

08008904 <__gnat_exception_msg_len>:
 8008904:	6880      	ldr	r0, [r0, #8]
 8008906:	4770      	bx	lr

08008908 <ada__exceptions__exception_data__exception_name_lengthXn>:
 8008908:	6840      	ldr	r0, [r0, #4]
 800890a:	3801      	subs	r0, #1
 800890c:	4770      	bx	lr
 800890e:	bf00      	nop

08008910 <ada__exceptions__exception_data__exception_name_length__2Xn>:
 8008910:	b508      	push	{r3, lr}
 8008912:	6800      	ldr	r0, [r0, #0]
 8008914:	f7ff fff8 	bl	8008908 <ada__exceptions__exception_data__exception_name_lengthXn>
 8008918:	bd08      	pop	{r3, pc}
 800891a:	bf00      	nop

0800891c <ada__exceptions__exception_data__untailored_exception_tracebackXn>:
 800891c:	e92d 47f0 	stmdb	sp!, {r4, r5, r6, r7, r8, r9, sl, lr}
 8008920:	b084      	sub	sp, #16
 8008922:	af02      	add	r7, sp, #8
 8008924:	4605      	mov	r5, r0
 8008926:	460c      	mov	r4, r1
 8008928:	4608      	mov	r0, r1
 800892a:	f000 f903 	bl	8008b34 <ada__exceptions__exception_data__untailored_exception_traceback_maxlengthXn>
 800892e:	1dc3      	adds	r3, r0, #7
 8008930:	f023 0307 	bic.w	r3, r3, #7
 8008934:	ebad 0d03 	sub.w	sp, sp, r3
 8008938:	f10d 0908 	add.w	r9, sp, #8
 800893c:	f04f 0a01 	mov.w	sl, #1
 8008940:	f8c7 a000 	str.w	sl, [r7]
 8008944:	6078      	str	r0, [r7, #4]
 8008946:	2300      	movs	r3, #0
 8008948:	9300      	str	r3, [sp, #0]
 800894a:	4620      	mov	r0, r4
 800894c:	464a      	mov	r2, r9
 800894e:	463b      	mov	r3, r7
 8008950:	f7ff ff0a 	bl	8008768 <ada__exceptions__exception_data__append_info_untailored_exception_tracebackXn>
 8008954:	4606      	mov	r6, r0
 8008956:	ea20 78e0 	bic.w	r8, r0, r0, asr #31
 800895a:	f108 000b 	add.w	r0, r8, #11
 800895e:	f020 0003 	bic.w	r0, r0, #3
 8008962:	f001 f88f 	bl	8009a84 <system__secondary_stack__ss_allocate>
 8008966:	4604      	mov	r4, r0
 8008968:	f8c0 a000 	str.w	sl, [r0]
 800896c:	6046      	str	r6, [r0, #4]
 800896e:	f100 0608 	add.w	r6, r0, #8
 8008972:	4630      	mov	r0, r6
 8008974:	4649      	mov	r1, r9
 8008976:	4642      	mov	r2, r8
 8008978:	f7ff fcd2 	bl	8008320 <memcpy>
 800897c:	602e      	str	r6, [r5, #0]
 800897e:	606c      	str	r4, [r5, #4]
 8008980:	4628      	mov	r0, r5
 8008982:	3708      	adds	r7, #8
 8008984:	46bd      	mov	sp, r7
 8008986:	e8bd 87f0 	ldmia.w	sp!, {r4, r5, r6, r7, r8, r9, sl, pc}
 800898a:	bf00      	nop

0800898c <ada__exceptions__exception_data__set_exception_c_msg__append_number.5333>:
 800898c:	2800      	cmp	r0, #0
 800898e:	dd38      	ble.n	8008a02 <ada__exceptions__exception_data__set_exception_c_msg__append_number.5333+0x76>
 8008990:	b470      	push	{r4, r5, r6}
 8008992:	4603      	mov	r3, r0
 8008994:	2201      	movs	r2, #1
 8008996:	4c1b      	ldr	r4, [pc, #108]	; (8008a04 <ada__exceptions__exception_data__set_exception_c_msg__append_number.5333+0x78>)
 8008998:	fb84 5103 	smull	r5, r1, r4, r3
 800899c:	17db      	asrs	r3, r3, #31
 800899e:	ebc3 03a1 	rsb	r3, r3, r1, asr #2
 80089a2:	3201      	adds	r2, #1
 80089a4:	2b00      	cmp	r3, #0
 80089a6:	dcf7      	bgt.n	8008998 <ada__exceptions__exception_data__set_exception_c_msg__append_number.5333+0xc>
 80089a8:	e022      	b.n	80089f0 <ada__exceptions__exception_data__set_exception_c_msg__append_number.5333+0x64>
 80089aa:	fb86 3200 	smull	r3, r2, r6, r0
 80089ae:	17c3      	asrs	r3, r0, #31
 80089b0:	ebc3 03a2 	rsb	r3, r3, r2, asr #2
 80089b4:	461c      	mov	r4, r3
 80089b6:	eb03 0383 	add.w	r3, r3, r3, lsl #2
 80089ba:	eba0 0343 	sub.w	r3, r0, r3, lsl #1
 80089be:	f8cc 3000 	str.w	r3, [ip]
 80089c2:	4620      	mov	r0, r4
 80089c4:	f8dc 5004 	ldr.w	r5, [ip, #4]
 80089c8:	68aa      	ldr	r2, [r5, #8]
 80089ca:	1a52      	subs	r2, r2, r1
 80089cc:	442a      	add	r2, r5
 80089ce:	3330      	adds	r3, #48	; 0x30
 80089d0:	72d3      	strb	r3, [r2, #11]
 80089d2:	3101      	adds	r1, #1
 80089d4:	2c00      	cmp	r4, #0
 80089d6:	dce8      	bgt.n	80089aa <ada__exceptions__exception_data__set_exception_c_msg__append_number.5333+0x1e>
 80089d8:	e011      	b.n	80089fe <ada__exceptions__exception_data__set_exception_c_msg__append_number.5333+0x72>
 80089da:	440b      	add	r3, r1
 80089dc:	213a      	movs	r1, #58	; 0x3a
 80089de:	7319      	strb	r1, [r3, #12]
 80089e0:	f8dc 1004 	ldr.w	r1, [ip, #4]
 80089e4:	688b      	ldr	r3, [r1, #8]
 80089e6:	441a      	add	r2, r3
 80089e8:	608a      	str	r2, [r1, #8]
 80089ea:	2100      	movs	r1, #0
 80089ec:	4e05      	ldr	r6, [pc, #20]	; (8008a04 <ada__exceptions__exception_data__set_exception_c_msg__append_number.5333+0x78>)
 80089ee:	e7dc      	b.n	80089aa <ada__exceptions__exception_data__set_exception_c_msg__append_number.5333+0x1e>
 80089f0:	f8dc 1004 	ldr.w	r1, [ip, #4]
 80089f4:	688b      	ldr	r3, [r1, #8]
 80089f6:	f1c2 04c8 	rsb	r4, r2, #200	; 0xc8
 80089fa:	42a3      	cmp	r3, r4
 80089fc:	dded      	ble.n	80089da <ada__exceptions__exception_data__set_exception_c_msg__append_number.5333+0x4e>
 80089fe:	bc70      	pop	{r4, r5, r6}
 8008a00:	4770      	bx	lr
 8008a02:	4770      	bx	lr
 8008a04:	66666667 	.word	0x66666667

08008a08 <ada__exceptions__exception_data__set_exception_c_msgXn>:
 8008a08:	b530      	push	{r4, r5, lr}
 8008a0a:	b085      	sub	sp, #20
 8008a0c:	9d09      	ldr	r5, [sp, #36]	; 0x24
 8008a0e:	ac08      	add	r4, sp, #32
 8008a10:	9403      	str	r4, [sp, #12]
 8008a12:	9002      	str	r0, [sp, #8]
 8008a14:	2400      	movs	r4, #0
 8008a16:	f880 40d4 	strb.w	r4, [r0, #212]	; 0xd4
 8008a1a:	6001      	str	r1, [r0, #0]
 8008a1c:	f8c0 40dc 	str.w	r4, [r0, #220]	; 0xdc
 8008a20:	4922      	ldr	r1, [pc, #136]	; (8008aac <ada__exceptions__exception_data__set_exception_c_msgXn+0xa4>)
 8008a22:	6809      	ldr	r1, [r1, #0]
 8008a24:	f8c0 10d8 	str.w	r1, [r0, #216]	; 0xd8
 8008a28:	6084      	str	r4, [r0, #8]
 8008a2a:	4614      	mov	r4, r2
 8008a2c:	7812      	ldrb	r2, [r2, #0]
 8008a2e:	b922      	cbnz	r2, 8008a3a <ada__exceptions__exception_data__set_exception_c_msgXn+0x32>
 8008a30:	e00f      	b.n	8008a52 <ada__exceptions__exception_data__set_exception_c_msgXn+0x4a>
 8008a32:	460a      	mov	r2, r1
 8008a34:	29c7      	cmp	r1, #199	; 0xc7
 8008a36:	dd01      	ble.n	8008a3c <ada__exceptions__exception_data__set_exception_c_msgXn+0x34>
 8008a38:	e00b      	b.n	8008a52 <ada__exceptions__exception_data__set_exception_c_msgXn+0x4a>
 8008a3a:	2200      	movs	r2, #0
 8008a3c:	3201      	adds	r2, #1
 8008a3e:	6082      	str	r2, [r0, #8]
 8008a40:	18a1      	adds	r1, r4, r2
 8008a42:	f811 1c01 	ldrb.w	r1, [r1, #-1]
 8008a46:	4402      	add	r2, r0
 8008a48:	72d1      	strb	r1, [r2, #11]
 8008a4a:	6881      	ldr	r1, [r0, #8]
 8008a4c:	5c62      	ldrb	r2, [r4, r1]
 8008a4e:	2a00      	cmp	r2, #0
 8008a50:	d1ef      	bne.n	8008a32 <ada__exceptions__exception_data__set_exception_c_msgXn+0x2a>
 8008a52:	f10d 0c04 	add.w	ip, sp, #4
 8008a56:	4618      	mov	r0, r3
 8008a58:	f7ff ff98 	bl	800898c <ada__exceptions__exception_data__set_exception_c_msg__append_number.5333>
 8008a5c:	f10d 0c04 	add.w	ip, sp, #4
 8008a60:	9808      	ldr	r0, [sp, #32]
 8008a62:	f7ff ff93 	bl	800898c <ada__exceptions__exception_data__set_exception_c_msg__append_number.5333>
 8008a66:	b1fd      	cbz	r5, 8008aa8 <ada__exceptions__exception_data__set_exception_c_msgXn+0xa0>
 8008a68:	9902      	ldr	r1, [sp, #8]
 8008a6a:	688b      	ldr	r3, [r1, #8]
 8008a6c:	2bc6      	cmp	r3, #198	; 0xc6
 8008a6e:	dc1b      	bgt.n	8008aa8 <ada__exceptions__exception_data__set_exception_c_msgXn+0xa0>
 8008a70:	3301      	adds	r3, #1
 8008a72:	608b      	str	r3, [r1, #8]
 8008a74:	440b      	add	r3, r1
 8008a76:	2220      	movs	r2, #32
 8008a78:	72da      	strb	r2, [r3, #11]
 8008a7a:	462c      	mov	r4, r5
 8008a7c:	782b      	ldrb	r3, [r5, #0]
 8008a7e:	b19b      	cbz	r3, 8008aa8 <ada__exceptions__exception_data__set_exception_c_msgXn+0xa0>
 8008a80:	688b      	ldr	r3, [r1, #8]
 8008a82:	2bc7      	cmp	r3, #199	; 0xc7
 8008a84:	dc10      	bgt.n	8008aa8 <ada__exceptions__exception_data__set_exception_c_msgXn+0xa0>
 8008a86:	462a      	mov	r2, r5
 8008a88:	f1c5 0501 	rsb	r5, r5, #1
 8008a8c:	e003      	b.n	8008a96 <ada__exceptions__exception_data__set_exception_c_msgXn+0x8e>
 8008a8e:	688b      	ldr	r3, [r1, #8]
 8008a90:	3201      	adds	r2, #1
 8008a92:	2bc7      	cmp	r3, #199	; 0xc7
 8008a94:	dc08      	bgt.n	8008aa8 <ada__exceptions__exception_data__set_exception_c_msgXn+0xa0>
 8008a96:	3301      	adds	r3, #1
 8008a98:	608b      	str	r3, [r1, #8]
 8008a9a:	7810      	ldrb	r0, [r2, #0]
 8008a9c:	440b      	add	r3, r1
 8008a9e:	72d8      	strb	r0, [r3, #11]
 8008aa0:	18a3      	adds	r3, r4, r2
 8008aa2:	5d5b      	ldrb	r3, [r3, r5]
 8008aa4:	2b00      	cmp	r3, #0
 8008aa6:	d1f2      	bne.n	8008a8e <ada__exceptions__exception_data__set_exception_c_msgXn+0x86>
 8008aa8:	b005      	add	sp, #20
 8008aaa:	bd30      	pop	{r4, r5, pc}
 8008aac:	200001d8 	.word	0x200001d8

08008ab0 <ada__exceptions__exception_data__set_exception_msgXn>:
 8008ab0:	b570      	push	{r4, r5, r6, lr}
 8008ab2:	4604      	mov	r4, r0
 8008ab4:	460e      	mov	r6, r1
 8008ab6:	6818      	ldr	r0, [r3, #0]
 8008ab8:	685b      	ldr	r3, [r3, #4]
 8008aba:	4298      	cmp	r0, r3
 8008abc:	dc05      	bgt.n	8008aca <ada__exceptions__exception_data__set_exception_msgXn+0x1a>
 8008abe:	1a1b      	subs	r3, r3, r0
 8008ac0:	3301      	adds	r3, #1
 8008ac2:	2bc8      	cmp	r3, #200	; 0xc8
 8008ac4:	bfa8      	it	ge
 8008ac6:	23c8      	movge	r3, #200	; 0xc8
 8008ac8:	e000      	b.n	8008acc <ada__exceptions__exception_data__set_exception_msgXn+0x1c>
 8008aca:	2300      	movs	r3, #0
 8008acc:	2500      	movs	r5, #0
 8008ace:	f884 50d4 	strb.w	r5, [r4, #212]	; 0xd4
 8008ad2:	60a3      	str	r3, [r4, #8]
 8008ad4:	f104 000c 	add.w	r0, r4, #12
 8008ad8:	4611      	mov	r1, r2
 8008ada:	ea23 72e3 	bic.w	r2, r3, r3, asr #31
 8008ade:	f000 fc1d 	bl	800931c <memmove>
 8008ae2:	6026      	str	r6, [r4, #0]
 8008ae4:	f8c4 50dc 	str.w	r5, [r4, #220]	; 0xdc
 8008ae8:	4b02      	ldr	r3, [pc, #8]	; (8008af4 <ada__exceptions__exception_data__set_exception_msgXn+0x44>)
 8008aea:	681b      	ldr	r3, [r3, #0]
 8008aec:	f8c4 30d8 	str.w	r3, [r4, #216]	; 0xd8
 8008af0:	bd70      	pop	{r4, r5, r6, pc}
 8008af2:	bf00      	nop
 8008af4:	200001d8 	.word	0x200001d8

08008af8 <ada__exceptions__exception_data__tailored_exception_tracebackXn>:
 8008af8:	b510      	push	{r4, lr}
 8008afa:	b082      	sub	sp, #8
 8008afc:	4604      	mov	r4, r0
 8008afe:	460a      	mov	r2, r1
 8008b00:	4b0b      	ldr	r3, [pc, #44]	; (8008b30 <ada__exceptions__exception_data__tailored_exception_tracebackXn+0x38>)
 8008b02:	681b      	ldr	r3, [r3, #0]
 8008b04:	b93b      	cbnz	r3, 8008b16 <ada__exceptions__exception_data__tailored_exception_tracebackXn+0x1e>
 8008b06:	4668      	mov	r0, sp
 8008b08:	f7ff ff08 	bl	800891c <ada__exceptions__exception_data__untailored_exception_tracebackXn>
 8008b0c:	9b00      	ldr	r3, [sp, #0]
 8008b0e:	6023      	str	r3, [r4, #0]
 8008b10:	9b01      	ldr	r3, [sp, #4]
 8008b12:	6063      	str	r3, [r4, #4]
 8008b14:	e008      	b.n	8008b28 <ada__exceptions__exception_data__tailored_exception_tracebackXn+0x30>
 8008b16:	4668      	mov	r0, sp
 8008b18:	31e0      	adds	r1, #224	; 0xe0
 8008b1a:	f8d2 20dc 	ldr.w	r2, [r2, #220]	; 0xdc
 8008b1e:	4798      	blx	r3
 8008b20:	9b00      	ldr	r3, [sp, #0]
 8008b22:	6023      	str	r3, [r4, #0]
 8008b24:	9b01      	ldr	r3, [sp, #4]
 8008b26:	6063      	str	r3, [r4, #4]
 8008b28:	4620      	mov	r0, r4
 8008b2a:	b002      	add	sp, #8
 8008b2c:	bd10      	pop	{r4, pc}
 8008b2e:	bf00      	nop
 8008b30:	20000214 	.word	0x20000214

08008b34 <ada__exceptions__exception_data__untailored_exception_traceback_maxlengthXn>:
 8008b34:	f8d0 30dc 	ldr.w	r3, [r0, #220]	; 0xdc
 8008b38:	eb03 00c3 	add.w	r0, r3, r3, lsl #3
 8008b3c:	eb03 0040 	add.w	r0, r3, r0, lsl #1
 8008b40:	3042      	adds	r0, #66	; 0x42
 8008b42:	4770      	bx	lr

08008b44 <ada__exceptions__exception_propagation__allocate_occurrenceXn>:
 8008b44:	b508      	push	{r3, lr}
 8008b46:	f001 f867 	bl	8009c18 <system__exceptions__machine__new_occurrence>
 8008b4a:	4b02      	ldr	r3, [pc, #8]	; (8008b54 <ada__exceptions__exception_propagation__allocate_occurrenceXn+0x10>)
 8008b4c:	6083      	str	r3, [r0, #8]
 8008b4e:	65c0      	str	r0, [r0, #92]	; 0x5c
 8008b50:	3058      	adds	r0, #88	; 0x58
 8008b52:	bd08      	pop	{r3, pc}
 8008b54:	08008b59 	.word	0x08008b59

08008b58 <ada__exceptions__exception_propagation__gnat_gcc_exception_cleanupXn>:
 8008b58:	b121      	cbz	r1, 8008b64 <ada__exceptions__exception_propagation__gnat_gcc_exception_cleanupXn+0xc>
 8008b5a:	b508      	push	{r3, lr}
 8008b5c:	4608      	mov	r0, r1
 8008b5e:	f001 fdaf 	bl	800a6c0 <__gnat_free>
 8008b62:	bd08      	pop	{r3, pc}
 8008b64:	4770      	bx	lr
 8008b66:	bf00      	nop

08008b68 <ada__exceptions__exception_propagation__set_foreign_occurrenceXn>:
 8008b68:	4b07      	ldr	r3, [pc, #28]	; (8008b88 <ada__exceptions__exception_propagation__set_foreign_occurrenceXn+0x20>)
 8008b6a:	681a      	ldr	r2, [r3, #0]
 8008b6c:	4b07      	ldr	r3, [pc, #28]	; (8008b8c <ada__exceptions__exception_propagation__set_foreign_occurrenceXn+0x24>)
 8008b6e:	6003      	str	r3, [r0, #0]
 8008b70:	6041      	str	r1, [r0, #4]
 8008b72:	2300      	movs	r3, #0
 8008b74:	6083      	str	r3, [r0, #8]
 8008b76:	2101      	movs	r1, #1
 8008b78:	f880 10d4 	strb.w	r1, [r0, #212]	; 0xd4
 8008b7c:	f8c0 20d8 	str.w	r2, [r0, #216]	; 0xd8
 8008b80:	f8c0 30dc 	str.w	r3, [r0, #220]	; 0xdc
 8008b84:	4770      	bx	lr
 8008b86:	bf00      	nop
 8008b88:	200001d8 	.word	0x200001d8
 8008b8c:	2000022c 	.word	0x2000022c

08008b90 <__gnat_setup_current_excep>:
 8008b90:	b538      	push	{r3, r4, r5, lr}
 8008b92:	4604      	mov	r4, r0
 8008b94:	f7ff fbe8 	bl	8008368 <system__soft_links__get_current_excep_soft>
 8008b98:	4605      	mov	r5, r0
 8008b9a:	4620      	mov	r0, r4
 8008b9c:	4909      	ldr	r1, [pc, #36]	; (8008bc4 <__gnat_setup_current_excep+0x34>)
 8008b9e:	2208      	movs	r2, #8
 8008ba0:	f000 fb72 	bl	8009288 <memcmp>
 8008ba4:	b940      	cbnz	r0, 8008bb8 <__gnat_setup_current_excep+0x28>
 8008ba6:	3458      	adds	r4, #88	; 0x58
 8008ba8:	4628      	mov	r0, r5
 8008baa:	4621      	mov	r1, r4
 8008bac:	f44f 72d4 	mov.w	r2, #424	; 0x1a8
 8008bb0:	f7ff fbb6 	bl	8008320 <memcpy>
 8008bb4:	4620      	mov	r0, r4
 8008bb6:	e004      	b.n	8008bc2 <__gnat_setup_current_excep+0x32>
 8008bb8:	4628      	mov	r0, r5
 8008bba:	4621      	mov	r1, r4
 8008bbc:	f7ff ffd4 	bl	8008b68 <ada__exceptions__exception_propagation__set_foreign_occurrenceXn>
 8008bc0:	4628      	mov	r0, r5
 8008bc2:	bd38      	pop	{r3, r4, r5, pc}
 8008bc4:	0800dec4 	.word	0x0800dec4

08008bc8 <__gnat_begin_handler>:
 8008bc8:	4770      	bx	lr
 8008bca:	bf00      	nop

08008bcc <__gnat_end_handler>:
 8008bcc:	b118      	cbz	r0, 8008bd6 <__gnat_end_handler+0xa>
 8008bce:	b508      	push	{r3, lr}
 8008bd0:	f002 f93a 	bl	800ae48 <_Unwind_DeleteException>
 8008bd4:	bd08      	pop	{r3, pc}
 8008bd6:	4770      	bx	lr

08008bd8 <ada__exceptions__exception_propagation__propagate_gcc_exceptionXn>:
 8008bd8:	b510      	push	{r4, lr}
 8008bda:	4604      	mov	r4, r0
 8008bdc:	f7ff fb40 	bl	8008260 <__gnat_Unwind_RaiseException>
 8008be0:	4620      	mov	r0, r4
 8008be2:	f7ff ffd5 	bl	8008b90 <__gnat_setup_current_excep>
 8008be6:	f000 f8b9 	bl	8008d5c <__gnat_notify_unhandled_exception>
 8008bea:	4620      	mov	r0, r4
 8008bec:	4903      	ldr	r1, [pc, #12]	; (8008bfc <ada__exceptions__exception_propagation__propagate_gcc_exceptionXn+0x24>)
 8008bee:	2200      	movs	r2, #0
 8008bf0:	f7ff fb38 	bl	8008264 <__gnat_Unwind_ForcedUnwind>
 8008bf4:	4620      	mov	r0, r4
 8008bf6:	f000 f81d 	bl	8008c34 <__gnat_unhandled_except_handler>
 8008bfa:	bf00      	nop
 8008bfc:	0800824d 	.word	0x0800824d

08008c00 <ada__exceptions__exception_propagation__propagate_exceptionXn>:
 8008c00:	b508      	push	{r3, lr}
 8008c02:	6840      	ldr	r0, [r0, #4]
 8008c04:	f7ff ffe8 	bl	8008bd8 <ada__exceptions__exception_propagation__propagate_gcc_exceptionXn>

08008c08 <__gnat_set_exception_parameter>:
 8008c08:	b538      	push	{r3, r4, r5, lr}
 8008c0a:	4605      	mov	r5, r0
 8008c0c:	460c      	mov	r4, r1
 8008c0e:	4608      	mov	r0, r1
 8008c10:	4907      	ldr	r1, [pc, #28]	; (8008c30 <__gnat_set_exception_parameter+0x28>)
 8008c12:	2208      	movs	r2, #8
 8008c14:	f000 fb38 	bl	8009288 <memcmp>
 8008c18:	b928      	cbnz	r0, 8008c26 <__gnat_set_exception_parameter+0x1e>
 8008c1a:	4628      	mov	r0, r5
 8008c1c:	f104 0158 	add.w	r1, r4, #88	; 0x58
 8008c20:	f000 fa1e 	bl	8009060 <ada__exceptions__save_occurrence>
 8008c24:	e003      	b.n	8008c2e <__gnat_set_exception_parameter+0x26>
 8008c26:	4628      	mov	r0, r5
 8008c28:	4621      	mov	r1, r4
 8008c2a:	f7ff ff9d 	bl	8008b68 <ada__exceptions__exception_propagation__set_foreign_occurrenceXn>
 8008c2e:	bd38      	pop	{r3, r4, r5, pc}
 8008c30:	0800dec4 	.word	0x0800dec4

08008c34 <__gnat_unhandled_except_handler>:
 8008c34:	b508      	push	{r3, lr}
 8008c36:	f7ff ffab 	bl	8008b90 <__gnat_setup_current_excep>
 8008c3a:	f000 f89f 	bl	8008d7c <ada__exceptions__exception_traces__unhandled_exception_terminateXn>
 8008c3e:	bf00      	nop

08008c40 <__gnat_eid_for>:
 8008c40:	6d80      	ldr	r0, [r0, #88]	; 0x58
 8008c42:	4770      	bx	lr

08008c44 <__gnat_foreign_data_for>:
 8008c44:	6900      	ldr	r0, [r0, #16]
 8008c46:	4770      	bx	lr

08008c48 <__gnat_is_handled_by_others>:
 8008c48:	7800      	ldrb	r0, [r0, #0]
 8008c4a:	f080 0001 	eor.w	r0, r0, #1
 8008c4e:	4770      	bx	lr

08008c50 <__gnat_language_for>:
 8008c50:	7840      	ldrb	r0, [r0, #1]
 8008c52:	4770      	bx	lr

08008c54 <ada__exceptions__exception_traces__notify_exception___finalizerXn.5598>:
 8008c54:	b508      	push	{r3, lr}
 8008c56:	f8dc 0000 	ldr.w	r0, [ip]
 8008c5a:	f000 ff37 	bl	8009acc <system__secondary_stack__ss_release>
 8008c5e:	bd08      	pop	{r3, pc}

08008c60 <ada__exceptions__exception_traces__notify_exceptionXn>:
 8008c60:	b530      	push	{r4, r5, lr}
 8008c62:	b085      	sub	sp, #20
 8008c64:	4604      	mov	r4, r0
 8008c66:	460d      	mov	r5, r1
 8008c68:	ab08      	add	r3, sp, #32
 8008c6a:	9303      	str	r3, [sp, #12]
 8008c6c:	f000 ff28 	bl	8009ac0 <system__secondary_stack__ss_mark>
 8008c70:	9002      	str	r0, [sp, #8]
 8008c72:	6823      	ldr	r3, [r4, #0]
 8008c74:	781b      	ldrb	r3, [r3, #0]
 8008c76:	2b00      	cmp	r3, #0
 8008c78:	d134      	bne.n	8008ce4 <ada__exceptions__exception_traces__notify_exceptionXn+0x84>
 8008c7a:	4b2a      	ldr	r3, [pc, #168]	; (8008d24 <ada__exceptions__exception_traces__notify_exceptionXn+0xc4>)
 8008c7c:	781b      	ldrb	r3, [r3, #0]
 8008c7e:	b2db      	uxtb	r3, r3
 8008c80:	2b01      	cmp	r3, #1
 8008c82:	d00b      	beq.n	8008c9c <ada__exceptions__exception_traces__notify_exceptionXn+0x3c>
 8008c84:	2d00      	cmp	r5, #0
 8008c86:	d02d      	beq.n	8008ce4 <ada__exceptions__exception_traces__notify_exceptionXn+0x84>
 8008c88:	4b26      	ldr	r3, [pc, #152]	; (8008d24 <ada__exceptions__exception_traces__notify_exceptionXn+0xc4>)
 8008c8a:	781b      	ldrb	r3, [r3, #0]
 8008c8c:	b2db      	uxtb	r3, r3
 8008c8e:	2b02      	cmp	r3, #2
 8008c90:	d004      	beq.n	8008c9c <ada__exceptions__exception_traces__notify_exceptionXn+0x3c>
 8008c92:	4b24      	ldr	r3, [pc, #144]	; (8008d24 <ada__exceptions__exception_traces__notify_exceptionXn+0xc4>)
 8008c94:	781b      	ldrb	r3, [r3, #0]
 8008c96:	b2db      	uxtb	r3, r3
 8008c98:	2b03      	cmp	r3, #3
 8008c9a:	d123      	bne.n	8008ce4 <ada__exceptions__exception_traces__notify_exceptionXn+0x84>
 8008c9c:	4b22      	ldr	r3, [pc, #136]	; (8008d28 <ada__exceptions__exception_traces__notify_exceptionXn+0xc8>)
 8008c9e:	681b      	ldr	r3, [r3, #0]
 8008ca0:	4798      	blx	r3
 8008ca2:	4822      	ldr	r0, [pc, #136]	; (8008d2c <ada__exceptions__exception_traces__notify_exceptionXn+0xcc>)
 8008ca4:	4922      	ldr	r1, [pc, #136]	; (8008d30 <ada__exceptions__exception_traces__notify_exceptionXn+0xd0>)
 8008ca6:	f000 fa03 	bl	80090b0 <__gnat_to_stderr>
 8008caa:	4b1e      	ldr	r3, [pc, #120]	; (8008d24 <ada__exceptions__exception_traces__notify_exceptionXn+0xc4>)
 8008cac:	781b      	ldrb	r3, [r3, #0]
 8008cae:	b2db      	uxtb	r3, r3
 8008cb0:	2b03      	cmp	r3, #3
 8008cb2:	d00c      	beq.n	8008cce <ada__exceptions__exception_traces__notify_exceptionXn+0x6e>
 8008cb4:	b11d      	cbz	r5, 8008cbe <ada__exceptions__exception_traces__notify_exceptionXn+0x5e>
 8008cb6:	481f      	ldr	r0, [pc, #124]	; (8008d34 <ada__exceptions__exception_traces__notify_exceptionXn+0xd4>)
 8008cb8:	491f      	ldr	r1, [pc, #124]	; (8008d38 <ada__exceptions__exception_traces__notify_exceptionXn+0xd8>)
 8008cba:	f000 f9f9 	bl	80090b0 <__gnat_to_stderr>
 8008cbe:	481f      	ldr	r0, [pc, #124]	; (8008d3c <ada__exceptions__exception_traces__notify_exceptionXn+0xdc>)
 8008cc0:	491f      	ldr	r1, [pc, #124]	; (8008d40 <ada__exceptions__exception_traces__notify_exceptionXn+0xe0>)
 8008cc2:	f000 f9f5 	bl	80090b0 <__gnat_to_stderr>
 8008cc6:	4819      	ldr	r0, [pc, #100]	; (8008d2c <ada__exceptions__exception_traces__notify_exceptionXn+0xcc>)
 8008cc8:	4919      	ldr	r1, [pc, #100]	; (8008d30 <ada__exceptions__exception_traces__notify_exceptionXn+0xd0>)
 8008cca:	f000 f9f1 	bl	80090b0 <__gnat_to_stderr>
 8008cce:	4668      	mov	r0, sp
 8008cd0:	4621      	mov	r1, r4
 8008cd2:	f000 f88b 	bl	8008dec <ada__exceptions__exception_information>
 8008cd6:	e9dd 0100 	ldrd	r0, r1, [sp]
 8008cda:	f000 f9e9 	bl	80090b0 <__gnat_to_stderr>
 8008cde:	4b19      	ldr	r3, [pc, #100]	; (8008d44 <ada__exceptions__exception_traces__notify_exceptionXn+0xe4>)
 8008ce0:	681b      	ldr	r3, [r3, #0]
 8008ce2:	4798      	blx	r3
 8008ce4:	4b18      	ldr	r3, [pc, #96]	; (8008d48 <ada__exceptions__exception_traces__notify_exceptionXn+0xe8>)
 8008ce6:	781b      	ldrb	r3, [r3, #0]
 8008ce8:	f013 0fff 	tst.w	r3, #255	; 0xff
 8008cec:	d004      	beq.n	8008cf8 <ada__exceptions__exception_traces__notify_exceptionXn+0x98>
 8008cee:	6823      	ldr	r3, [r4, #0]
 8008cf0:	695b      	ldr	r3, [r3, #20]
 8008cf2:	b10b      	cbz	r3, 8008cf8 <ada__exceptions__exception_traces__notify_exceptionXn+0x98>
 8008cf4:	4620      	mov	r0, r4
 8008cf6:	4798      	blx	r3
 8008cf8:	4b14      	ldr	r3, [pc, #80]	; (8008d4c <ada__exceptions__exception_traces__notify_exceptionXn+0xec>)
 8008cfa:	681b      	ldr	r3, [r3, #0]
 8008cfc:	b163      	cbz	r3, 8008d18 <ada__exceptions__exception_traces__notify_exceptionXn+0xb8>
 8008cfe:	4b13      	ldr	r3, [pc, #76]	; (8008d4c <ada__exceptions__exception_traces__notify_exceptionXn+0xec>)
 8008d00:	681b      	ldr	r3, [r3, #0]
 8008d02:	4620      	mov	r0, r4
 8008d04:	4798      	blx	r3
 8008d06:	e007      	b.n	8008d18 <ada__exceptions__exception_traces__notify_exceptionXn+0xb8>
 8008d08:	4604      	mov	r4, r0
 8008d0a:	f10d 0c08 	add.w	ip, sp, #8
 8008d0e:	f7ff ffa1 	bl	8008c54 <ada__exceptions__exception_traces__notify_exception___finalizerXn.5598>
 8008d12:	4620      	mov	r0, r4
 8008d14:	f002 fc5c 	bl	800b5d0 <_Unwind_Resume>
 8008d18:	f10d 0c08 	add.w	ip, sp, #8
 8008d1c:	f7ff ff9a 	bl	8008c54 <ada__exceptions__exception_traces__notify_exception___finalizerXn.5598>
 8008d20:	b005      	add	sp, #20
 8008d22:	bd30      	pop	{r4, r5, pc}
 8008d24:	20000188 	.word	0x20000188
 8008d28:	20000208 	.word	0x20000208
 8008d2c:	0800e3b4 	.word	0x0800e3b4
 8008d30:	0800e3b8 	.word	0x0800e3b8
 8008d34:	0800e398 	.word	0x0800e398
 8008d38:	0800e3c0 	.word	0x0800e3c0
 8008d3c:	0800e3a4 	.word	0x0800e3a4
 8008d40:	0800e3c8 	.word	0x0800e3c8
 8008d44:	20000200 	.word	0x20000200
 8008d48:	2000021c 	.word	0x2000021c
 8008d4c:	20000218 	.word	0x20000218

08008d50 <__gnat_notify_handled_exception>:
 8008d50:	b508      	push	{r3, lr}
 8008d52:	2100      	movs	r1, #0
 8008d54:	f7ff ff84 	bl	8008c60 <ada__exceptions__exception_traces__notify_exceptionXn>
 8008d58:	bd08      	pop	{r3, pc}
 8008d5a:	bf00      	nop

08008d5c <__gnat_notify_unhandled_exception>:
 8008d5c:	b510      	push	{r4, lr}
 8008d5e:	4604      	mov	r4, r0
 8008d60:	4b05      	ldr	r3, [pc, #20]	; (8008d78 <__gnat_notify_unhandled_exception+0x1c>)
 8008d62:	681b      	ldr	r3, [r3, #0]
 8008d64:	4798      	blx	r3
 8008d66:	4620      	mov	r0, r4
 8008d68:	2101      	movs	r1, #1
 8008d6a:	f7ff ff79 	bl	8008c60 <ada__exceptions__exception_traces__notify_exceptionXn>
 8008d6e:	6820      	ldr	r0, [r4, #0]
 8008d70:	f000 ff8c 	bl	8009c8c <__gnat_unhandled_exception>
 8008d74:	bd10      	pop	{r4, pc}
 8008d76:	bf00      	nop
 8008d78:	20000210 	.word	0x20000210

08008d7c <ada__exceptions__exception_traces__unhandled_exception_terminateXn>:
 8008d7c:	b510      	push	{r4, lr}
 8008d7e:	b0ea      	sub	sp, #424	; 0x1a8
 8008d80:	4604      	mov	r4, r0
 8008d82:	4668      	mov	r0, sp
 8008d84:	f7ff fb74 	bl	8008470 <ada__exceptions__exception_occurrenceIP>
 8008d88:	4668      	mov	r0, sp
 8008d8a:	4621      	mov	r1, r4
 8008d8c:	f000 f968 	bl	8009060 <ada__exceptions__save_occurrence>
 8008d90:	4668      	mov	r0, sp
 8008d92:	f001 fbb7 	bl	800a504 <__gnat_last_chance_handler>
 8008d96:	bf00      	nop

08008d98 <ada__exceptions__code_address_for_aaa>:
 8008d98:	4800      	ldr	r0, [pc, #0]	; (8008d9c <ada__exceptions__code_address_for_aaa+0x4>)
 8008d9a:	4770      	bx	lr
 8008d9c:	08008d98 	.word	0x08008d98

08008da0 <ada__exceptions__call_chain>:
 8008da0:	4b10      	ldr	r3, [pc, #64]	; (8008de4 <ada__exceptions__call_chain+0x44>)
 8008da2:	681b      	ldr	r3, [r3, #0]
 8008da4:	b1eb      	cbz	r3, 8008de2 <ada__exceptions__call_chain+0x42>
 8008da6:	f8d0 30dc 	ldr.w	r3, [r0, #220]	; 0xdc
 8008daa:	b9d3      	cbnz	r3, 8008de2 <ada__exceptions__call_chain+0x42>
 8008dac:	b530      	push	{r4, r5, lr}
 8008dae:	b0b5      	sub	sp, #212	; 0xd4
 8008db0:	4604      	mov	r4, r0
 8008db2:	f7ff fff1 	bl	8008d98 <ada__exceptions__code_address_for_aaa>
 8008db6:	4605      	mov	r5, r0
 8008db8:	f000 f98a 	bl	80090d0 <ada__exceptions__code_address_for_zzz>
 8008dbc:	9000      	str	r0, [sp, #0]
 8008dbe:	2305      	movs	r3, #5
 8008dc0:	9301      	str	r3, [sp, #4]
 8008dc2:	a802      	add	r0, sp, #8
 8008dc4:	4908      	ldr	r1, [pc, #32]	; (8008de8 <ada__exceptions__call_chain+0x48>)
 8008dc6:	2232      	movs	r2, #50	; 0x32
 8008dc8:	462b      	mov	r3, r5
 8008dca:	f000 fb07 	bl	80093dc <system__traceback__call_chain>
 8008dce:	f8c4 00dc 	str.w	r0, [r4, #220]	; 0xdc
 8008dd2:	f104 00e0 	add.w	r0, r4, #224	; 0xe0
 8008dd6:	a902      	add	r1, sp, #8
 8008dd8:	22c8      	movs	r2, #200	; 0xc8
 8008dda:	f7ff faa1 	bl	8008320 <memcpy>
 8008dde:	b035      	add	sp, #212	; 0xd4
 8008de0:	bd30      	pop	{r4, r5, pc}
 8008de2:	4770      	bx	lr
 8008de4:	20000288 	.word	0x20000288
 8008de8:	0800e5d4 	.word	0x0800e5d4

08008dec <ada__exceptions__exception_information>:
 8008dec:	b510      	push	{r4, lr}
 8008dee:	b082      	sub	sp, #8
 8008df0:	680b      	ldr	r3, [r1, #0]
 8008df2:	b923      	cbnz	r3, 8008dfe <ada__exceptions__exception_information+0x12>
 8008df4:	4807      	ldr	r0, [pc, #28]	; (8008e14 <ada__exceptions__exception_information+0x28>)
 8008df6:	f240 21e9 	movw	r1, #745	; 0x2e9
 8008dfa:	f000 f8e5 	bl	8008fc8 <__gnat_rcheck_CE_Explicit_Raise>
 8008dfe:	4604      	mov	r4, r0
 8008e00:	4668      	mov	r0, sp
 8008e02:	f7ff fd21 	bl	8008848 <ada__exceptions__exception_data__exception_informationXn>
 8008e06:	9b00      	ldr	r3, [sp, #0]
 8008e08:	6023      	str	r3, [r4, #0]
 8008e0a:	9b01      	ldr	r3, [sp, #4]
 8008e0c:	6063      	str	r3, [r4, #4]
 8008e0e:	4620      	mov	r0, r4
 8008e10:	b002      	add	sp, #8
 8008e12:	bd10      	pop	{r4, pc}
 8008e14:	0800e5dc 	.word	0x0800e5dc

08008e18 <ada__exceptions__exception_message>:
 8008e18:	e92d 41f0 	stmdb	sp!, {r4, r5, r6, r7, r8, lr}
 8008e1c:	460c      	mov	r4, r1
 8008e1e:	680b      	ldr	r3, [r1, #0]
 8008e20:	b923      	cbnz	r3, 8008e2c <ada__exceptions__exception_message+0x14>
 8008e22:	4811      	ldr	r0, [pc, #68]	; (8008e68 <ada__exceptions__exception_message+0x50>)
 8008e24:	f240 21f6 	movw	r1, #758	; 0x2f6
 8008e28:	f000 f8ce 	bl	8008fc8 <__gnat_rcheck_CE_Explicit_Raise>
 8008e2c:	4607      	mov	r7, r0
 8008e2e:	688e      	ldr	r6, [r1, #8]
 8008e30:	ea26 76e6 	bic.w	r6, r6, r6, asr #31
 8008e34:	f106 000b 	add.w	r0, r6, #11
 8008e38:	f020 0003 	bic.w	r0, r0, #3
 8008e3c:	f000 fe22 	bl	8009a84 <system__secondary_stack__ss_allocate>
 8008e40:	4605      	mov	r5, r0
 8008e42:	2301      	movs	r3, #1
 8008e44:	6003      	str	r3, [r0, #0]
 8008e46:	68a3      	ldr	r3, [r4, #8]
 8008e48:	6043      	str	r3, [r0, #4]
 8008e4a:	f100 0808 	add.w	r8, r0, #8
 8008e4e:	4640      	mov	r0, r8
 8008e50:	f104 010c 	add.w	r1, r4, #12
 8008e54:	4632      	mov	r2, r6
 8008e56:	f7ff fa63 	bl	8008320 <memcpy>
 8008e5a:	f8c7 8000 	str.w	r8, [r7]
 8008e5e:	607d      	str	r5, [r7, #4]
 8008e60:	4638      	mov	r0, r7
 8008e62:	e8bd 81f0 	ldmia.w	sp!, {r4, r5, r6, r7, r8, pc}
 8008e66:	bf00      	nop
 8008e68:	0800e5dc 	.word	0x0800e5dc

08008e6c <ada__exceptions__exception_name>:
 8008e6c:	e92d 41f0 	stmdb	sp!, {r4, r5, r6, r7, r8, lr}
 8008e70:	b921      	cbnz	r1, 8008e7c <ada__exceptions__exception_name+0x10>
 8008e72:	4810      	ldr	r0, [pc, #64]	; (8008eb4 <ada__exceptions__exception_name+0x48>)
 8008e74:	f240 3103 	movw	r1, #771	; 0x303
 8008e78:	f000 f8a6 	bl	8008fc8 <__gnat_rcheck_CE_Explicit_Raise>
 8008e7c:	4606      	mov	r6, r0
 8008e7e:	460f      	mov	r7, r1
 8008e80:	684d      	ldr	r5, [r1, #4]
 8008e82:	3d01      	subs	r5, #1
 8008e84:	ea25 78e5 	bic.w	r8, r5, r5, asr #31
 8008e88:	f108 000b 	add.w	r0, r8, #11
 8008e8c:	f020 0003 	bic.w	r0, r0, #3
 8008e90:	f000 fdf8 	bl	8009a84 <system__secondary_stack__ss_allocate>
 8008e94:	4604      	mov	r4, r0
 8008e96:	2301      	movs	r3, #1
 8008e98:	6003      	str	r3, [r0, #0]
 8008e9a:	6045      	str	r5, [r0, #4]
 8008e9c:	f100 0508 	add.w	r5, r0, #8
 8008ea0:	4628      	mov	r0, r5
 8008ea2:	68b9      	ldr	r1, [r7, #8]
 8008ea4:	4642      	mov	r2, r8
 8008ea6:	f7ff fa3b 	bl	8008320 <memcpy>
 8008eaa:	6035      	str	r5, [r6, #0]
 8008eac:	6074      	str	r4, [r6, #4]
 8008eae:	4630      	mov	r0, r6
 8008eb0:	e8bd 81f0 	ldmia.w	sp!, {r4, r5, r6, r7, r8, pc}
 8008eb4:	0800e5dc 	.word	0x0800e5dc

08008eb8 <ada__exceptions__exception_name__2>:
 8008eb8:	b510      	push	{r4, lr}
 8008eba:	b082      	sub	sp, #8
 8008ebc:	4604      	mov	r4, r0
 8008ebe:	4668      	mov	r0, sp
 8008ec0:	6809      	ldr	r1, [r1, #0]
 8008ec2:	f7ff ffd3 	bl	8008e6c <ada__exceptions__exception_name>
 8008ec6:	9b00      	ldr	r3, [sp, #0]
 8008ec8:	6023      	str	r3, [r4, #0]
 8008eca:	9b01      	ldr	r3, [sp, #4]
 8008ecc:	6063      	str	r3, [r4, #4]
 8008ece:	4620      	mov	r0, r4
 8008ed0:	b002      	add	sp, #8
 8008ed2:	bd10      	pop	{r4, pc}

08008ed4 <__gnat_raise_constraint_error_msg>:
 8008ed4:	b570      	push	{r4, r5, r6, lr}
 8008ed6:	b082      	sub	sp, #8
 8008ed8:	4606      	mov	r6, r0
 8008eda:	460d      	mov	r5, r1
 8008edc:	4614      	mov	r4, r2
 8008ede:	9300      	str	r3, [sp, #0]
 8008ee0:	4802      	ldr	r0, [pc, #8]	; (8008eec <__gnat_raise_constraint_error_msg+0x18>)
 8008ee2:	4631      	mov	r1, r6
 8008ee4:	462a      	mov	r2, r5
 8008ee6:	4623      	mov	r3, r4
 8008ee8:	f000 f848 	bl	8008f7c <ada__exceptions__raise_with_location_and_msg>
 8008eec:	200001dc 	.word	0x200001dc

08008ef0 <ada__exceptions__complete_occurrence>:
 8008ef0:	b510      	push	{r4, lr}
 8008ef2:	b082      	sub	sp, #8
 8008ef4:	4604      	mov	r4, r0
 8008ef6:	f7ff ff53 	bl	8008da0 <ada__exceptions__call_chain>
 8008efa:	68a3      	ldr	r3, [r4, #8]
 8008efc:	4622      	mov	r2, r4
 8008efe:	f852 0b0c 	ldr.w	r0, [r2], #12
 8008f02:	2101      	movs	r1, #1
 8008f04:	9100      	str	r1, [sp, #0]
 8008f06:	9301      	str	r3, [sp, #4]
 8008f08:	466b      	mov	r3, sp
 8008f0a:	f000 feb1 	bl	8009c70 <__gnat_debug_raise_exception>
 8008f0e:	b002      	add	sp, #8
 8008f10:	bd10      	pop	{r4, pc}
 8008f12:	bf00      	nop

08008f14 <ada__exceptions__complete_and_propagate_occurrence>:
 8008f14:	b510      	push	{r4, lr}
 8008f16:	4604      	mov	r4, r0
 8008f18:	f7ff ffea 	bl	8008ef0 <ada__exceptions__complete_occurrence>
 8008f1c:	4620      	mov	r0, r4
 8008f1e:	f7ff fe6f 	bl	8008c00 <ada__exceptions__exception_propagation__propagate_exceptionXn>
 8008f22:	bf00      	nop

08008f24 <__gnat_raise_exception>:
 8008f24:	b5f8      	push	{r3, r4, r5, r6, r7, lr}
 8008f26:	4605      	mov	r5, r0
 8008f28:	4616      	mov	r6, r2
 8008f2a:	461f      	mov	r7, r3
 8008f2c:	f7ff fe0a 	bl	8008b44 <ada__exceptions__exception_propagation__allocate_occurrenceXn>
 8008f30:	4604      	mov	r4, r0
 8008f32:	4629      	mov	r1, r5
 8008f34:	4632      	mov	r2, r6
 8008f36:	463b      	mov	r3, r7
 8008f38:	f7ff fdba 	bl	8008ab0 <ada__exceptions__exception_data__set_exception_msgXn>
 8008f3c:	4620      	mov	r0, r4
 8008f3e:	f7ff ffe9 	bl	8008f14 <ada__exceptions__complete_and_propagate_occurrence>
 8008f42:	bf00      	nop

08008f44 <__gnat_raise_program_error_msg>:
 8008f44:	b510      	push	{r4, lr}
 8008f46:	b082      	sub	sp, #8
 8008f48:	4604      	mov	r4, r0
 8008f4a:	460b      	mov	r3, r1
 8008f4c:	9200      	str	r2, [sp, #0]
 8008f4e:	4803      	ldr	r0, [pc, #12]	; (8008f5c <__gnat_raise_program_error_msg+0x18>)
 8008f50:	4621      	mov	r1, r4
 8008f52:	461a      	mov	r2, r3
 8008f54:	2300      	movs	r3, #0
 8008f56:	f000 f811 	bl	8008f7c <ada__exceptions__raise_with_location_and_msg>
 8008f5a:	bf00      	nop
 8008f5c:	200001c0 	.word	0x200001c0

08008f60 <__gnat_raise_storage_error_msg>:
 8008f60:	b510      	push	{r4, lr}
 8008f62:	b082      	sub	sp, #8
 8008f64:	4604      	mov	r4, r0
 8008f66:	460b      	mov	r3, r1
 8008f68:	9200      	str	r2, [sp, #0]
 8008f6a:	4803      	ldr	r0, [pc, #12]	; (8008f78 <__gnat_raise_storage_error_msg+0x18>)
 8008f6c:	4621      	mov	r1, r4
 8008f6e:	461a      	mov	r2, r3
 8008f70:	2300      	movs	r3, #0
 8008f72:	f000 f803 	bl	8008f7c <ada__exceptions__raise_with_location_and_msg>
 8008f76:	bf00      	nop
 8008f78:	20000170 	.word	0x20000170

08008f7c <ada__exceptions__raise_with_location_and_msg>:
 8008f7c:	e92d 41f0 	stmdb	sp!, {r4, r5, r6, r7, r8, lr}
 8008f80:	b082      	sub	sp, #8
 8008f82:	4607      	mov	r7, r0
 8008f84:	460e      	mov	r6, r1
 8008f86:	4615      	mov	r5, r2
 8008f88:	4698      	mov	r8, r3
 8008f8a:	f7ff fddb 	bl	8008b44 <ada__exceptions__exception_propagation__allocate_occurrenceXn>
 8008f8e:	4604      	mov	r4, r0
 8008f90:	f8cd 8000 	str.w	r8, [sp]
 8008f94:	9b08      	ldr	r3, [sp, #32]
 8008f96:	9301      	str	r3, [sp, #4]
 8008f98:	4639      	mov	r1, r7
 8008f9a:	4632      	mov	r2, r6
 8008f9c:	462b      	mov	r3, r5
 8008f9e:	f7ff fd33 	bl	8008a08 <ada__exceptions__exception_data__set_exception_c_msgXn>
 8008fa2:	4620      	mov	r0, r4
 8008fa4:	f7ff ffb6 	bl	8008f14 <ada__exceptions__complete_and_propagate_occurrence>

08008fa8 <__gnat_rcheck_CE_Access_Check>:
 8008fa8:	b508      	push	{r3, lr}
 8008faa:	2200      	movs	r2, #0
 8008fac:	4b01      	ldr	r3, [pc, #4]	; (8008fb4 <__gnat_rcheck_CE_Access_Check+0xc>)
 8008fae:	f7ff ff91 	bl	8008ed4 <__gnat_raise_constraint_error_msg>
 8008fb2:	bf00      	nop
 8008fb4:	0800e26c 	.word	0x0800e26c

08008fb8 <__gnat_rcheck_CE_Discriminant_Check>:
 8008fb8:	b508      	push	{r3, lr}
 8008fba:	2200      	movs	r2, #0
 8008fbc:	4b01      	ldr	r3, [pc, #4]	; (8008fc4 <__gnat_rcheck_CE_Discriminant_Check+0xc>)
 8008fbe:	f7ff ff89 	bl	8008ed4 <__gnat_raise_constraint_error_msg>
 8008fc2:	bf00      	nop
 8008fc4:	0800e280 	.word	0x0800e280

08008fc8 <__gnat_rcheck_CE_Explicit_Raise>:
 8008fc8:	b508      	push	{r3, lr}
 8008fca:	2200      	movs	r2, #0
 8008fcc:	4b01      	ldr	r3, [pc, #4]	; (8008fd4 <__gnat_rcheck_CE_Explicit_Raise+0xc>)
 8008fce:	f7ff ff81 	bl	8008ed4 <__gnat_raise_constraint_error_msg>
 8008fd2:	bf00      	nop
 8008fd4:	0800e29c 	.word	0x0800e29c

08008fd8 <__gnat_rcheck_CE_Index_Check>:
 8008fd8:	b508      	push	{r3, lr}
 8008fda:	2200      	movs	r2, #0
 8008fdc:	4b01      	ldr	r3, [pc, #4]	; (8008fe4 <__gnat_rcheck_CE_Index_Check+0xc>)
 8008fde:	f7ff ff79 	bl	8008ed4 <__gnat_raise_constraint_error_msg>
 8008fe2:	bf00      	nop
 8008fe4:	0800e2ac 	.word	0x0800e2ac

08008fe8 <__gnat_rcheck_CE_Invalid_Data>:
 8008fe8:	b508      	push	{r3, lr}
 8008fea:	2200      	movs	r2, #0
 8008fec:	4b01      	ldr	r3, [pc, #4]	; (8008ff4 <__gnat_rcheck_CE_Invalid_Data+0xc>)
 8008fee:	f7ff ff71 	bl	8008ed4 <__gnat_raise_constraint_error_msg>
 8008ff2:	bf00      	nop
 8008ff4:	0800e2c0 	.word	0x0800e2c0

08008ff8 <__gnat_rcheck_CE_Overflow_Check>:
 8008ff8:	b508      	push	{r3, lr}
 8008ffa:	2200      	movs	r2, #0
 8008ffc:	4b01      	ldr	r3, [pc, #4]	; (8009004 <__gnat_rcheck_CE_Overflow_Check+0xc>)
 8008ffe:	f7ff ff69 	bl	8008ed4 <__gnat_raise_constraint_error_msg>
 8009002:	bf00      	nop
 8009004:	0800e2d0 	.word	0x0800e2d0

08009008 <__gnat_rcheck_CE_Range_Check>:
 8009008:	b508      	push	{r3, lr}
 800900a:	2200      	movs	r2, #0
 800900c:	4b01      	ldr	r3, [pc, #4]	; (8009014 <__gnat_rcheck_CE_Range_Check+0xc>)
 800900e:	f7ff ff61 	bl	8008ed4 <__gnat_raise_constraint_error_msg>
 8009012:	bf00      	nop
 8009014:	0800e2e8 	.word	0x0800e2e8

08009018 <__gnat_rcheck_PE_Explicit_Raise>:
 8009018:	b508      	push	{r3, lr}
 800901a:	4a01      	ldr	r2, [pc, #4]	; (8009020 <__gnat_rcheck_PE_Explicit_Raise+0x8>)
 800901c:	f7ff ff92 	bl	8008f44 <__gnat_raise_program_error_msg>
 8009020:	0800e2fc 	.word	0x0800e2fc

08009024 <__gnat_rcheck_SE_Explicit_Raise>:
 8009024:	b508      	push	{r3, lr}
 8009026:	4a01      	ldr	r2, [pc, #4]	; (800902c <__gnat_rcheck_SE_Explicit_Raise+0x8>)
 8009028:	f7ff ff9a 	bl	8008f60 <__gnat_raise_storage_error_msg>
 800902c:	0800e30c 	.word	0x0800e30c

08009030 <ada__exceptions__reraise_occurrence>:
 8009030:	b508      	push	{r3, lr}
 8009032:	6803      	ldr	r3, [r0, #0]
 8009034:	b10b      	cbz	r3, 800903a <ada__exceptions__reraise_occurrence+0xa>
 8009036:	f000 f801 	bl	800903c <ada__exceptions__reraise_occurrence_always>
 800903a:	bd08      	pop	{r3, pc}

0800903c <ada__exceptions__reraise_occurrence_always>:
 800903c:	b508      	push	{r3, lr}
 800903e:	f000 f801 	bl	8009044 <ada__exceptions__reraise_occurrence_no_defer>
 8009042:	bf00      	nop

08009044 <ada__exceptions__reraise_occurrence_no_defer>:
 8009044:	b570      	push	{r4, r5, r6, lr}
 8009046:	4606      	mov	r6, r0
 8009048:	f7ff fd7c 	bl	8008b44 <ada__exceptions__exception_propagation__allocate_occurrenceXn>
 800904c:	4604      	mov	r4, r0
 800904e:	6845      	ldr	r5, [r0, #4]
 8009050:	4631      	mov	r1, r6
 8009052:	f000 f805 	bl	8009060 <ada__exceptions__save_occurrence>
 8009056:	6065      	str	r5, [r4, #4]
 8009058:	4620      	mov	r0, r4
 800905a:	f7ff ff5b 	bl	8008f14 <ada__exceptions__complete_and_propagate_occurrence>
 800905e:	bf00      	nop

08009060 <ada__exceptions__save_occurrence>:
 8009060:	b538      	push	{r3, r4, r5, lr}
 8009062:	4604      	mov	r4, r0
 8009064:	460d      	mov	r5, r1
 8009066:	680b      	ldr	r3, [r1, #0]
 8009068:	6003      	str	r3, [r0, #0]
 800906a:	2300      	movs	r3, #0
 800906c:	6043      	str	r3, [r0, #4]
 800906e:	688a      	ldr	r2, [r1, #8]
 8009070:	6082      	str	r2, [r0, #8]
 8009072:	f8d1 30dc 	ldr.w	r3, [r1, #220]	; 0xdc
 8009076:	f8c0 30dc 	str.w	r3, [r0, #220]	; 0xdc
 800907a:	f8d1 30d8 	ldr.w	r3, [r1, #216]	; 0xd8
 800907e:	f8c0 30d8 	str.w	r3, [r0, #216]	; 0xd8
 8009082:	300c      	adds	r0, #12
 8009084:	310c      	adds	r1, #12
 8009086:	ea22 72e2 	bic.w	r2, r2, r2, asr #31
 800908a:	f000 f947 	bl	800931c <memmove>
 800908e:	f8d4 20dc 	ldr.w	r2, [r4, #220]	; 0xdc
 8009092:	ea22 72e2 	bic.w	r2, r2, r2, asr #31
 8009096:	f104 00e0 	add.w	r0, r4, #224	; 0xe0
 800909a:	f105 01e0 	add.w	r1, r5, #224	; 0xe0
 800909e:	0092      	lsls	r2, r2, #2
 80090a0:	f000 f93c 	bl	800931c <memmove>
 80090a4:	bd38      	pop	{r3, r4, r5, pc}
 80090a6:	bf00      	nop

080090a8 <__gnat_to_stderr_char>:
 80090a8:	b508      	push	{r3, lr}
 80090aa:	f001 fb81 	bl	800a7b0 <put_char_stderr>
 80090ae:	bd08      	pop	{r3, pc}

080090b0 <__gnat_to_stderr>:
 80090b0:	b570      	push	{r4, r5, r6, lr}
 80090b2:	680d      	ldr	r5, [r1, #0]
 80090b4:	684e      	ldr	r6, [r1, #4]
 80090b6:	42b5      	cmp	r5, r6
 80090b8:	dc09      	bgt.n	80090ce <__gnat_to_stderr+0x1e>
 80090ba:	1e6c      	subs	r4, r5, #1
 80090bc:	1b45      	subs	r5, r0, r5
 80090be:	3401      	adds	r4, #1
 80090c0:	5d28      	ldrb	r0, [r5, r4]
 80090c2:	280d      	cmp	r0, #13
 80090c4:	d001      	beq.n	80090ca <__gnat_to_stderr+0x1a>
 80090c6:	f7ff ffef 	bl	80090a8 <__gnat_to_stderr_char>
 80090ca:	42a6      	cmp	r6, r4
 80090cc:	d1f7      	bne.n	80090be <__gnat_to_stderr+0xe>
 80090ce:	bd70      	pop	{r4, r5, r6, pc}

080090d0 <ada__exceptions__code_address_for_zzz>:
 80090d0:	4800      	ldr	r0, [pc, #0]	; (80090d4 <ada__exceptions__code_address_for_zzz+0x4>)
 80090d2:	4770      	bx	lr
 80090d4:	080090d0 	.word	0x080090d0

080090d8 <system__stream_attributes__i_as>:
 80090d8:	b500      	push	{lr}
 80090da:	b083      	sub	sp, #12
 80090dc:	6802      	ldr	r2, [r0, #0]
 80090de:	4b09      	ldr	r3, [pc, #36]	; (8009104 <system__stream_attributes__i_as+0x2c>)
 80090e0:	6811      	ldr	r1, [r2, #0]
 80090e2:	aa01      	add	r2, sp, #4
 80090e4:	4788      	blx	r1
 80090e6:	2804      	cmp	r0, #4
 80090e8:	f171 0300 	sbcs.w	r3, r1, #0
 80090ec:	db03      	blt.n	80090f6 <system__stream_attributes__i_as+0x1e>
 80090ee:	9801      	ldr	r0, [sp, #4]
 80090f0:	b003      	add	sp, #12
 80090f2:	f85d fb04 	ldr.w	pc, [sp], #4
 80090f6:	4a04      	ldr	r2, [pc, #16]	; (8009108 <system__stream_attributes__i_as+0x30>)
 80090f8:	4804      	ldr	r0, [pc, #16]	; (800910c <system__stream_attributes__i_as+0x34>)
 80090fa:	f1a2 0318 	sub.w	r3, r2, #24
 80090fe:	f7ff ff11 	bl	8008f24 <__gnat_raise_exception>
 8009102:	bf00      	nop
 8009104:	0800e6c8 	.word	0x0800e6c8
 8009108:	0800e6d8 	.word	0x0800e6d8
 800910c:	200002a8 	.word	0x200002a8

08009110 <system__stream_attributes__i_b>:
 8009110:	b500      	push	{lr}
 8009112:	b083      	sub	sp, #12
 8009114:	6802      	ldr	r2, [r0, #0]
 8009116:	4b09      	ldr	r3, [pc, #36]	; (800913c <system__stream_attributes__i_b+0x2c>)
 8009118:	6811      	ldr	r1, [r2, #0]
 800911a:	aa01      	add	r2, sp, #4
 800911c:	4788      	blx	r1
 800911e:	2801      	cmp	r0, #1
 8009120:	f171 0300 	sbcs.w	r3, r1, #0
 8009124:	db04      	blt.n	8009130 <system__stream_attributes__i_b+0x20>
 8009126:	f89d 0004 	ldrb.w	r0, [sp, #4]
 800912a:	b003      	add	sp, #12
 800912c:	f85d fb04 	ldr.w	pc, [sp], #4
 8009130:	4a03      	ldr	r2, [pc, #12]	; (8009140 <system__stream_attributes__i_b+0x30>)
 8009132:	4804      	ldr	r0, [pc, #16]	; (8009144 <system__stream_attributes__i_b+0x34>)
 8009134:	f1a2 0338 	sub.w	r3, r2, #56	; 0x38
 8009138:	f7ff fef4 	bl	8008f24 <__gnat_raise_exception>
 800913c:	0800e6e8 	.word	0x0800e6e8
 8009140:	0800e6f8 	.word	0x0800e6f8
 8009144:	200002a8 	.word	0x200002a8

08009148 <system__stream_attributes__i_ssu>:
 8009148:	b500      	push	{lr}
 800914a:	b083      	sub	sp, #12
 800914c:	6802      	ldr	r2, [r0, #0]
 800914e:	4b09      	ldr	r3, [pc, #36]	; (8009174 <system__stream_attributes__i_ssu+0x2c>)
 8009150:	6811      	ldr	r1, [r2, #0]
 8009152:	aa01      	add	r2, sp, #4
 8009154:	4788      	blx	r1
 8009156:	2801      	cmp	r0, #1
 8009158:	f171 0300 	sbcs.w	r3, r1, #0
 800915c:	db04      	blt.n	8009168 <system__stream_attributes__i_ssu+0x20>
 800915e:	f89d 0004 	ldrb.w	r0, [sp, #4]
 8009162:	b003      	add	sp, #12
 8009164:	f85d fb04 	ldr.w	pc, [sp], #4
 8009168:	4a03      	ldr	r2, [pc, #12]	; (8009178 <system__stream_attributes__i_ssu+0x30>)
 800916a:	4804      	ldr	r0, [pc, #16]	; (800917c <system__stream_attributes__i_ssu+0x34>)
 800916c:	f5a2 738c 	sub.w	r3, r2, #280	; 0x118
 8009170:	f7ff fed8 	bl	8008f24 <__gnat_raise_exception>
 8009174:	0800e6e8 	.word	0x0800e6e8
 8009178:	0800e7d8 	.word	0x0800e7d8
 800917c:	200002a8 	.word	0x200002a8

08009180 <system__stream_attributes__i_su>:
 8009180:	b500      	push	{lr}
 8009182:	b083      	sub	sp, #12
 8009184:	6802      	ldr	r2, [r0, #0]
 8009186:	4b09      	ldr	r3, [pc, #36]	; (80091ac <system__stream_attributes__i_su+0x2c>)
 8009188:	6811      	ldr	r1, [r2, #0]
 800918a:	aa01      	add	r2, sp, #4
 800918c:	4788      	blx	r1
 800918e:	2802      	cmp	r0, #2
 8009190:	f171 0300 	sbcs.w	r3, r1, #0
 8009194:	db04      	blt.n	80091a0 <system__stream_attributes__i_su+0x20>
 8009196:	f8bd 0004 	ldrh.w	r0, [sp, #4]
 800919a:	b003      	add	sp, #12
 800919c:	f85d fb04 	ldr.w	pc, [sp], #4
 80091a0:	4a03      	ldr	r2, [pc, #12]	; (80091b0 <system__stream_attributes__i_su+0x30>)
 80091a2:	4804      	ldr	r0, [pc, #16]	; (80091b4 <system__stream_attributes__i_su+0x34>)
 80091a4:	f5a2 7394 	sub.w	r3, r2, #296	; 0x128
 80091a8:	f7ff febc 	bl	8008f24 <__gnat_raise_exception>
 80091ac:	0800e7a8 	.word	0x0800e7a8
 80091b0:	0800e7e8 	.word	0x0800e7e8
 80091b4:	200002a8 	.word	0x200002a8

080091b8 <system__stream_attributes__i_u>:
 80091b8:	b500      	push	{lr}
 80091ba:	b083      	sub	sp, #12
 80091bc:	6802      	ldr	r2, [r0, #0]
 80091be:	4b09      	ldr	r3, [pc, #36]	; (80091e4 <system__stream_attributes__i_u+0x2c>)
 80091c0:	6811      	ldr	r1, [r2, #0]
 80091c2:	aa01      	add	r2, sp, #4
 80091c4:	4788      	blx	r1
 80091c6:	2804      	cmp	r0, #4
 80091c8:	f171 0300 	sbcs.w	r3, r1, #0
 80091cc:	db03      	blt.n	80091d6 <system__stream_attributes__i_u+0x1e>
 80091ce:	9801      	ldr	r0, [sp, #4]
 80091d0:	b003      	add	sp, #12
 80091d2:	f85d fb04 	ldr.w	pc, [sp], #4
 80091d6:	4a04      	ldr	r2, [pc, #16]	; (80091e8 <system__stream_attributes__i_u+0x30>)
 80091d8:	4804      	ldr	r0, [pc, #16]	; (80091ec <system__stream_attributes__i_u+0x34>)
 80091da:	f5a2 739c 	sub.w	r3, r2, #312	; 0x138
 80091de:	f7ff fea1 	bl	8008f24 <__gnat_raise_exception>
 80091e2:	bf00      	nop
 80091e4:	0800e6c8 	.word	0x0800e6c8
 80091e8:	0800e7f8 	.word	0x0800e7f8
 80091ec:	200002a8 	.word	0x200002a8

080091f0 <system__stream_attributes__w_as>:
 80091f0:	b500      	push	{lr}
 80091f2:	b085      	sub	sp, #20
 80091f4:	6803      	ldr	r3, [r0, #0]
 80091f6:	9101      	str	r1, [sp, #4]
 80091f8:	aa04      	add	r2, sp, #16
 80091fa:	f842 1d04 	str.w	r1, [r2, #-4]!
 80091fe:	6859      	ldr	r1, [r3, #4]
 8009200:	4b02      	ldr	r3, [pc, #8]	; (800920c <system__stream_attributes__w_as+0x1c>)
 8009202:	4788      	blx	r1
 8009204:	b005      	add	sp, #20
 8009206:	f85d fb04 	ldr.w	pc, [sp], #4
 800920a:	bf00      	nop
 800920c:	0800e6c8 	.word	0x0800e6c8

08009210 <system__stream_attributes__w_b>:
 8009210:	b500      	push	{lr}
 8009212:	b083      	sub	sp, #12
 8009214:	6803      	ldr	r3, [r0, #0]
 8009216:	aa02      	add	r2, sp, #8
 8009218:	f802 1d04 	strb.w	r1, [r2, #-4]!
 800921c:	6859      	ldr	r1, [r3, #4]
 800921e:	4b02      	ldr	r3, [pc, #8]	; (8009228 <system__stream_attributes__w_b+0x18>)
 8009220:	4788      	blx	r1
 8009222:	b003      	add	sp, #12
 8009224:	f85d fb04 	ldr.w	pc, [sp], #4
 8009228:	0800e6e8 	.word	0x0800e6e8

0800922c <system__stream_attributes__w_ssu>:
 800922c:	b500      	push	{lr}
 800922e:	b083      	sub	sp, #12
 8009230:	6803      	ldr	r3, [r0, #0]
 8009232:	aa02      	add	r2, sp, #8
 8009234:	f802 1d04 	strb.w	r1, [r2, #-4]!
 8009238:	6859      	ldr	r1, [r3, #4]
 800923a:	4b02      	ldr	r3, [pc, #8]	; (8009244 <system__stream_attributes__w_ssu+0x18>)
 800923c:	4788      	blx	r1
 800923e:	b003      	add	sp, #12
 8009240:	f85d fb04 	ldr.w	pc, [sp], #4
 8009244:	0800e6e8 	.word	0x0800e6e8

08009248 <system__stream_attributes__w_su>:
 8009248:	b500      	push	{lr}
 800924a:	b085      	sub	sp, #20
 800924c:	6803      	ldr	r3, [r0, #0]
 800924e:	f8ad 1006 	strh.w	r1, [sp, #6]
 8009252:	aa04      	add	r2, sp, #16
 8009254:	f822 1d04 	strh.w	r1, [r2, #-4]!
 8009258:	6859      	ldr	r1, [r3, #4]
 800925a:	4b02      	ldr	r3, [pc, #8]	; (8009264 <system__stream_attributes__w_su+0x1c>)
 800925c:	4788      	blx	r1
 800925e:	b005      	add	sp, #20
 8009260:	f85d fb04 	ldr.w	pc, [sp], #4
 8009264:	0800e7a8 	.word	0x0800e7a8

08009268 <system__stream_attributes__w_u>:
 8009268:	b500      	push	{lr}
 800926a:	b085      	sub	sp, #20
 800926c:	6803      	ldr	r3, [r0, #0]
 800926e:	9101      	str	r1, [sp, #4]
 8009270:	aa04      	add	r2, sp, #16
 8009272:	f842 1d04 	str.w	r1, [r2, #-4]!
 8009276:	6859      	ldr	r1, [r3, #4]
 8009278:	4b02      	ldr	r3, [pc, #8]	; (8009284 <system__stream_attributes__w_u+0x1c>)
 800927a:	4788      	blx	r1
 800927c:	b005      	add	sp, #20
 800927e:	f85d fb04 	ldr.w	pc, [sp], #4
 8009282:	bf00      	nop
 8009284:	0800e6c8 	.word	0x0800e6c8

08009288 <memcmp>:
 8009288:	b182      	cbz	r2, 80092ac <memcmp+0x24>
 800928a:	b430      	push	{r4, r5}
 800928c:	3a01      	subs	r2, #1
 800928e:	f04f 33ff 	mov.w	r3, #4294967295
 8009292:	e002      	b.n	800929a <memcmp+0x12>
 8009294:	d80c      	bhi.n	80092b0 <memcmp+0x28>
 8009296:	4293      	cmp	r3, r2
 8009298:	d00d      	beq.n	80092b6 <memcmp+0x2e>
 800929a:	3301      	adds	r3, #1
 800929c:	5c1d      	ldrb	r5, [r3, r0]
 800929e:	5c5c      	ldrb	r4, [r3, r1]
 80092a0:	42a5      	cmp	r5, r4
 80092a2:	d2f7      	bcs.n	8009294 <memcmp+0xc>
 80092a4:	f04f 30ff 	mov.w	r0, #4294967295
 80092a8:	bc30      	pop	{r4, r5}
 80092aa:	4770      	bx	lr
 80092ac:	2000      	movs	r0, #0
 80092ae:	4770      	bx	lr
 80092b0:	2001      	movs	r0, #1
 80092b2:	bc30      	pop	{r4, r5}
 80092b4:	4770      	bx	lr
 80092b6:	2000      	movs	r0, #0
 80092b8:	e7f6      	b.n	80092a8 <memcmp+0x20>
 80092ba:	bf00      	nop

080092bc <ada__finalization__adjust>:
 80092bc:	4770      	bx	lr
 80092be:	bf00      	nop

080092c0 <ada__finalization__initialize>:
 80092c0:	4770      	bx	lr
 80092c2:	bf00      	nop

080092c4 <ada__finalization__finalize>:
 80092c4:	4770      	bx	lr
 80092c6:	bf00      	nop

080092c8 <ada__finalization___size__3>:
 80092c8:	2020      	movs	r0, #32
 80092ca:	2100      	movs	r1, #0
 80092cc:	4770      	bx	lr
 80092ce:	bf00      	nop

080092d0 <ada__finalization___assign__3>:
 80092d0:	4770      	bx	lr
 80092d2:	bf00      	nop

080092d4 <ada__finalization__controlledDA__2>:
 80092d4:	4770      	bx	lr
 80092d6:	bf00      	nop

080092d8 <ada__finalization__controlledDF__2>:
 80092d8:	4770      	bx	lr
 80092da:	bf00      	nop

080092dc <ada__finalization__initialize__2>:
 80092dc:	4770      	bx	lr
 80092de:	bf00      	nop

080092e0 <ada__finalization__finalize__2>:
 80092e0:	4770      	bx	lr
 80092e2:	bf00      	nop

080092e4 <ada__finalization___size__4>:
 80092e4:	2020      	movs	r0, #32
 80092e6:	2100      	movs	r1, #0
 80092e8:	4770      	bx	lr
 80092ea:	bf00      	nop

080092ec <ada__finalization__limited_controlledDF__2>:
 80092ec:	4770      	bx	lr
 80092ee:	bf00      	nop

080092f0 <ada__finalization__controlledSR__2>:
 80092f0:	f000 bcfe 	b.w	8009cf0 <system__finalization_root__root_controlledSR>

080092f4 <ada__finalization__controlledSW__2>:
 80092f4:	f000 bcfe 	b.w	8009cf4 <system__finalization_root__root_controlledSW>

080092f8 <ada__finalization__controlledSO__2>:
 80092f8:	f000 bcfc 	b.w	8009cf4 <system__finalization_root__root_controlledSW>

080092fc <ada__finalization__Oeq__3>:
 80092fc:	f000 bcfe 	b.w	8009cfc <system__finalization_root__Oeq>

08009300 <ada__finalization___elabs>:
 8009300:	b508      	push	{r3, lr}
 8009302:	4804      	ldr	r0, [pc, #16]	; (8009314 <ada__finalization___elabs+0x14>)
 8009304:	f000 f954 	bl	80095b0 <ada__tags__register_tag>
 8009308:	4803      	ldr	r0, [pc, #12]	; (8009318 <ada__finalization___elabs+0x18>)
 800930a:	e8bd 4008 	ldmia.w	sp!, {r3, lr}
 800930e:	f000 b94f 	b.w	80095b0 <ada__tags__register_tag>
 8009312:	bf00      	nop
 8009314:	0800e83c 	.word	0x0800e83c
 8009318:	0800e924 	.word	0x0800e924

0800931c <memmove>:
 800931c:	b372      	cbz	r2, 800937c <memmove+0x60>
 800931e:	b470      	push	{r4, r5, r6}
 8009320:	4288      	cmp	r0, r1
 8009322:	d81f      	bhi.n	8009364 <memmove+0x48>
 8009324:	ea40 0301 	orr.w	r3, r0, r1
 8009328:	079b      	lsls	r3, r3, #30
 800932a:	d128      	bne.n	800937e <memmove+0x62>
 800932c:	2a03      	cmp	r2, #3
 800932e:	d926      	bls.n	800937e <memmove+0x62>
 8009330:	1f14      	subs	r4, r2, #4
 8009332:	f024 0403 	bic.w	r4, r4, #3
 8009336:	1d0b      	adds	r3, r1, #4
 8009338:	4423      	add	r3, r4
 800933a:	4605      	mov	r5, r0
 800933c:	f851 6b04 	ldr.w	r6, [r1], #4
 8009340:	f845 6b04 	str.w	r6, [r5], #4
 8009344:	4299      	cmp	r1, r3
 8009346:	d1f9      	bne.n	800933c <memmove+0x20>
 8009348:	1d01      	adds	r1, r0, #4
 800934a:	f012 0203 	ands.w	r2, r2, #3
 800934e:	4421      	add	r1, r4
 8009350:	d006      	beq.n	8009360 <memmove+0x44>
 8009352:	441a      	add	r2, r3
 8009354:	f813 4b01 	ldrb.w	r4, [r3], #1
 8009358:	f801 4b01 	strb.w	r4, [r1], #1
 800935c:	4293      	cmp	r3, r2
 800935e:	d1f9      	bne.n	8009354 <memmove+0x38>
 8009360:	bc70      	pop	{r4, r5, r6}
 8009362:	4770      	bx	lr
 8009364:	188b      	adds	r3, r1, r2
 8009366:	4298      	cmp	r0, r3
 8009368:	d2dc      	bcs.n	8009324 <memmove+0x8>
 800936a:	4402      	add	r2, r0
 800936c:	f813 4d01 	ldrb.w	r4, [r3, #-1]!
 8009370:	f802 4d01 	strb.w	r4, [r2, #-1]!
 8009374:	428b      	cmp	r3, r1
 8009376:	d1f9      	bne.n	800936c <memmove+0x50>
 8009378:	bc70      	pop	{r4, r5, r6}
 800937a:	4770      	bx	lr
 800937c:	4770      	bx	lr
 800937e:	460b      	mov	r3, r1
 8009380:	4601      	mov	r1, r0
 8009382:	e7e6      	b.n	8009352 <memmove+0x36>

08009384 <system__traceback__backtrace_callback>:
 8009384:	694b      	ldr	r3, [r1, #20]
 8009386:	2b00      	cmp	r3, #0
 8009388:	dd03      	ble.n	8009392 <system__traceback__backtrace_callback+0xe>
 800938a:	3b01      	subs	r3, #1
 800938c:	2000      	movs	r0, #0
 800938e:	614b      	str	r3, [r1, #20]
 8009390:	4770      	bx	lr
 8009392:	688a      	ldr	r2, [r1, #8]
 8009394:	684b      	ldr	r3, [r1, #4]
 8009396:	429a      	cmp	r2, r3
 8009398:	db01      	blt.n	800939e <system__traceback__backtrace_callback+0x1a>
 800939a:	2000      	movs	r0, #0
 800939c:	4770      	bx	lr
 800939e:	b510      	push	{r4, lr}
 80093a0:	b084      	sub	sp, #16
 80093a2:	ab03      	add	r3, sp, #12
 80093a4:	460c      	mov	r4, r1
 80093a6:	2100      	movs	r1, #0
 80093a8:	9300      	str	r3, [sp, #0]
 80093aa:	220f      	movs	r2, #15
 80093ac:	460b      	mov	r3, r1
 80093ae:	f001 fd51 	bl	800ae54 <_Unwind_VRS_Get>
 80093b2:	b110      	cbz	r0, 80093ba <system__traceback__backtrace_callback+0x36>
 80093b4:	2006      	movs	r0, #6
 80093b6:	b004      	add	sp, #16
 80093b8:	bd10      	pop	{r4, pc}
 80093ba:	68e2      	ldr	r2, [r4, #12]
 80093bc:	9b03      	ldr	r3, [sp, #12]
 80093be:	429a      	cmp	r2, r3
 80093c0:	d802      	bhi.n	80093c8 <system__traceback__backtrace_callback+0x44>
 80093c2:	6922      	ldr	r2, [r4, #16]
 80093c4:	4293      	cmp	r3, r2
 80093c6:	d907      	bls.n	80093d8 <system__traceback__backtrace_callback+0x54>
 80093c8:	68a2      	ldr	r2, [r4, #8]
 80093ca:	6821      	ldr	r1, [r4, #0]
 80093cc:	1c50      	adds	r0, r2, #1
 80093ce:	60a0      	str	r0, [r4, #8]
 80093d0:	2000      	movs	r0, #0
 80093d2:	f841 3022 	str.w	r3, [r1, r2, lsl #2]
 80093d6:	e7ee      	b.n	80093b6 <system__traceback__backtrace_callback+0x32>
 80093d8:	2000      	movs	r0, #0
 80093da:	e7ec      	b.n	80093b6 <system__traceback__backtrace_callback+0x32>

080093dc <system__traceback__call_chain>:
 80093dc:	b530      	push	{r4, r5, lr}
 80093de:	b087      	sub	sp, #28
 80093e0:	990b      	ldr	r1, [sp, #44]	; 0x2c
 80093e2:	9000      	str	r0, [sp, #0]
 80093e4:	1c4c      	adds	r4, r1, #1
 80093e6:	9d0a      	ldr	r5, [sp, #40]	; 0x28
 80093e8:	9201      	str	r2, [sp, #4]
 80093ea:	4669      	mov	r1, sp
 80093ec:	2200      	movs	r2, #0
 80093ee:	4805      	ldr	r0, [pc, #20]	; (8009404 <system__traceback__call_chain+0x28>)
 80093f0:	9303      	str	r3, [sp, #12]
 80093f2:	9405      	str	r4, [sp, #20]
 80093f4:	9504      	str	r5, [sp, #16]
 80093f6:	9202      	str	r2, [sp, #8]
 80093f8:	f002 f920 	bl	800b63c <_Unwind_Backtrace>
 80093fc:	9802      	ldr	r0, [sp, #8]
 80093fe:	b007      	add	sp, #28
 8009400:	bd30      	pop	{r4, r5, pc}
 8009402:	bf00      	nop
 8009404:	08009385 	.word	0x08009385

08009408 <ada__tags__htable_subprograms__hashXn>:
 8009408:	b430      	push	{r4, r5}
 800940a:	7804      	ldrb	r4, [r0, #0]
 800940c:	b1d4      	cbz	r4, 8009444 <ada__tags__htable_subprograms__hashXn+0x3c>
 800940e:	1c45      	adds	r5, r0, #1
 8009410:	4629      	mov	r1, r5
 8009412:	2201      	movs	r2, #1
 8009414:	f811 3b01 	ldrb.w	r3, [r1], #1
 8009418:	3201      	adds	r2, #1
 800941a:	2b00      	cmp	r3, #0
 800941c:	d1fa      	bne.n	8009414 <ada__tags__htable_subprograms__hashXn+0xc>
 800941e:	3a01      	subs	r2, #1
 8009420:	4402      	add	r2, r0
 8009422:	4628      	mov	r0, r5
 8009424:	e001      	b.n	800942a <ada__tags__htable_subprograms__hashXn+0x22>
 8009426:	f810 4b01 	ldrb.w	r4, [r0], #1
 800942a:	0419      	lsls	r1, r3, #16
 800942c:	eb01 1183 	add.w	r1, r1, r3, lsl #6
 8009430:	440c      	add	r4, r1
 8009432:	4290      	cmp	r0, r2
 8009434:	eba4 0303 	sub.w	r3, r4, r3
 8009438:	d1f5      	bne.n	8009426 <ada__tags__htable_subprograms__hashXn+0x1e>
 800943a:	f003 033f 	and.w	r3, r3, #63	; 0x3f
 800943e:	1c58      	adds	r0, r3, #1
 8009440:	bc30      	pop	{r4, r5}
 8009442:	4770      	bx	lr
 8009444:	2001      	movs	r0, #1
 8009446:	e7fb      	b.n	8009440 <ada__tags__htable_subprograms__hashXn+0x38>

08009448 <ada__tags__external_tag_htable__getXn>:
 8009448:	b5f8      	push	{r3, r4, r5, r6, r7, lr}
 800944a:	4605      	mov	r5, r0
 800944c:	f7ff ffdc 	bl	8009408 <ada__tags__htable_subprograms__hashXn>
 8009450:	b240      	sxtb	r0, r0
 8009452:	f100 4380 	add.w	r3, r0, #1073741824	; 0x40000000
 8009456:	3b01      	subs	r3, #1
 8009458:	4a0c      	ldr	r2, [pc, #48]	; (800948c <ada__tags__external_tag_htable__getXn+0x44>)
 800945a:	f852 0023 	ldr.w	r0, [r2, r3, lsl #2]
 800945e:	b198      	cbz	r0, 8009488 <ada__tags__external_tag_htable__getXn+0x40>
 8009460:	782f      	ldrb	r7, [r5, #0]
 8009462:	f850 6c04 	ldr.w	r6, [r0, #-4]
 8009466:	6934      	ldr	r4, [r6, #16]
 8009468:	7823      	ldrb	r3, [r4, #0]
 800946a:	42bb      	cmp	r3, r7
 800946c:	d108      	bne.n	8009480 <ada__tags__external_tag_htable__getXn+0x38>
 800946e:	b15f      	cbz	r7, 8009488 <ada__tags__external_tag_htable__getXn+0x40>
 8009470:	2301      	movs	r3, #1
 8009472:	e001      	b.n	8009478 <ada__tags__external_tag_htable__getXn+0x30>
 8009474:	3301      	adds	r3, #1
 8009476:	b13a      	cbz	r2, 8009488 <ada__tags__external_tag_htable__getXn+0x40>
 8009478:	5ce2      	ldrb	r2, [r4, r3]
 800947a:	5d59      	ldrb	r1, [r3, r5]
 800947c:	428a      	cmp	r2, r1
 800947e:	d0f9      	beq.n	8009474 <ada__tags__external_tag_htable__getXn+0x2c>
 8009480:	6973      	ldr	r3, [r6, #20]
 8009482:	6818      	ldr	r0, [r3, #0]
 8009484:	2800      	cmp	r0, #0
 8009486:	d1ec      	bne.n	8009462 <ada__tags__external_tag_htable__getXn+0x1a>
 8009488:	bdf8      	pop	{r3, r4, r5, r6, r7, pc}
 800948a:	bf00      	nop
 800948c:	20003fbc 	.word	0x20003fbc

08009490 <ada__tags__external_tag_htable__setXn>:
 8009490:	b538      	push	{r3, r4, r5, lr}
 8009492:	f850 5c04 	ldr.w	r5, [r0, #-4]
 8009496:	4604      	mov	r4, r0
 8009498:	6928      	ldr	r0, [r5, #16]
 800949a:	f7ff ffb5 	bl	8009408 <ada__tags__htable_subprograms__hashXn>
 800949e:	f06f 4340 	mvn.w	r3, #3221225472	; 0xc0000000
 80094a2:	fa43 f080 	sxtab	r0, r3, r0
 80094a6:	4a04      	ldr	r2, [pc, #16]	; (80094b8 <ada__tags__external_tag_htable__setXn+0x28>)
 80094a8:	6969      	ldr	r1, [r5, #20]
 80094aa:	f852 3020 	ldr.w	r3, [r2, r0, lsl #2]
 80094ae:	600b      	str	r3, [r1, #0]
 80094b0:	f842 4020 	str.w	r4, [r2, r0, lsl #2]
 80094b4:	bd38      	pop	{r3, r4, r5, pc}
 80094b6:	bf00      	nop
 80094b8:	20003fbc 	.word	0x20003fbc

080094bc <ada__tags__check_tsd>:
 80094bc:	b5f0      	push	{r4, r5, r6, r7, lr}
 80094be:	b083      	sub	sp, #12
 80094c0:	af00      	add	r7, sp, #0
 80094c2:	6905      	ldr	r5, [r0, #16]
 80094c4:	782b      	ldrb	r3, [r5, #0]
 80094c6:	b173      	cbz	r3, 80094e6 <ada__tags__check_tsd+0x2a>
 80094c8:	1c6b      	adds	r3, r5, #1
 80094ca:	2401      	movs	r4, #1
 80094cc:	f813 2b01 	ldrb.w	r2, [r3], #1
 80094d0:	3401      	adds	r4, #1
 80094d2:	2a00      	cmp	r2, #0
 80094d4:	d1fa      	bne.n	80094cc <ada__tags__check_tsd+0x10>
 80094d6:	1e66      	subs	r6, r4, #1
 80094d8:	4628      	mov	r0, r5
 80094da:	f7ff ffb5 	bl	8009448 <ada__tags__external_tag_htable__getXn>
 80094de:	b928      	cbnz	r0, 80094ec <ada__tags__check_tsd+0x30>
 80094e0:	370c      	adds	r7, #12
 80094e2:	46bd      	mov	sp, r7
 80094e4:	bdf0      	pop	{r4, r5, r6, r7, pc}
 80094e6:	461e      	mov	r6, r3
 80094e8:	2401      	movs	r4, #1
 80094ea:	e7f5      	b.n	80094d8 <ada__tags__check_tsd+0x1c>
 80094ec:	f8df e05c 	ldr.w	lr, [pc, #92]	; 800954c <ada__tags__check_tsd+0x90>
 80094f0:	3419      	adds	r4, #25
 80094f2:	e8be 000f 	ldmia.w	lr!, {r0, r1, r2, r3}
 80094f6:	ea24 7ce4 	bic.w	ip, r4, r4, asr #31
 80094fa:	f10c 0c07 	add.w	ip, ip, #7
 80094fe:	f02c 0c07 	bic.w	ip, ip, #7
 8009502:	ebad 0d0c 	sub.w	sp, sp, ip
 8009506:	9000      	str	r0, [sp, #0]
 8009508:	9101      	str	r1, [sp, #4]
 800950a:	e8be 0003 	ldmia.w	lr!, {r0, r1}
 800950e:	9202      	str	r2, [sp, #8]
 8009510:	9105      	str	r1, [sp, #20]
 8009512:	ea26 72e6 	bic.w	r2, r6, r6, asr #31
 8009516:	4629      	mov	r1, r5
 8009518:	f89e 6000 	ldrb.w	r6, [lr]
 800951c:	9004      	str	r0, [sp, #16]
 800951e:	eb0d 0504 	add.w	r5, sp, r4
 8009522:	f88d 6018 	strb.w	r6, [sp, #24]
 8009526:	f10d 0019 	add.w	r0, sp, #25
 800952a:	2622      	movs	r6, #34	; 0x22
 800952c:	9303      	str	r3, [sp, #12]
 800952e:	f7ff fef5 	bl	800931c <memmove>
 8009532:	2101      	movs	r1, #1
 8009534:	466a      	mov	r2, sp
 8009536:	4804      	ldr	r0, [pc, #16]	; (8009548 <ada__tags__check_tsd+0x8c>)
 8009538:	f805 6c01 	strb.w	r6, [r5, #-1]
 800953c:	463b      	mov	r3, r7
 800953e:	607c      	str	r4, [r7, #4]
 8009540:	6039      	str	r1, [r7, #0]
 8009542:	f7ff fcef 	bl	8008f24 <__gnat_raise_exception>
 8009546:	bf00      	nop
 8009548:	200001c0 	.word	0x200001c0
 800954c:	0800e960 	.word	0x0800e960

08009550 <ada__tags__register_interface_offset>:
 8009550:	b5f8      	push	{r3, r4, r5, r6, r7, lr}
 8009552:	6800      	ldr	r0, [r0, #0]
 8009554:	f850 0c04 	ldr.w	r0, [r0, #-4]
 8009558:	6a07      	ldr	r7, [r0, #32]
 800955a:	b317      	cbz	r7, 80095a2 <ada__tags__register_interface_offset+0x52>
 800955c:	469e      	mov	lr, r3
 800955e:	f8d7 c000 	ldr.w	ip, [r7]
 8009562:	2000      	movs	r0, #0
 8009564:	e001      	b.n	800956a <ada__tags__register_interface_offset+0x1a>
 8009566:	4584      	cmp	ip, r0
 8009568:	d01b      	beq.n	80095a2 <ada__tags__register_interface_offset+0x52>
 800956a:	3001      	adds	r0, #1
 800956c:	0085      	lsls	r5, r0, #2
 800956e:	182c      	adds	r4, r5, r0
 8009570:	eb07 0484 	add.w	r4, r7, r4, lsl #2
 8009574:	f1a4 0614 	sub.w	r6, r4, #20
 8009578:	6873      	ldr	r3, [r6, #4]
 800957a:	428b      	cmp	r3, r1
 800957c:	d1f3      	bne.n	8009566 <ada__tags__register_interface_offset+0x16>
 800957e:	b912      	cbnz	r2, 8009586 <ada__tags__register_interface_offset+0x36>
 8009580:	f1be 0f00 	cmp.w	lr, #0
 8009584:	d108      	bne.n	8009598 <ada__tags__register_interface_offset+0x48>
 8009586:	4428      	add	r0, r5
 8009588:	eb07 0080 	add.w	r0, r7, r0, lsl #2
 800958c:	2201      	movs	r2, #1
 800958e:	f840 ec08 	str.w	lr, [r0, #-8]
 8009592:	f800 2c0c 	strb.w	r2, [r0, #-12]
 8009596:	bdf8      	pop	{r3, r4, r5, r6, r7, pc}
 8009598:	9b06      	ldr	r3, [sp, #24]
 800959a:	7232      	strb	r2, [r6, #8]
 800959c:	f844 3c04 	str.w	r3, [r4, #-4]
 80095a0:	bdf8      	pop	{r3, r4, r5, r6, r7, pc}
 80095a2:	4802      	ldr	r0, [pc, #8]	; (80095ac <ada__tags__register_interface_offset+0x5c>)
 80095a4:	f240 3182 	movw	r1, #898	; 0x382
 80095a8:	f7ff fd36 	bl	8009018 <__gnat_rcheck_PE_Explicit_Raise>
 80095ac:	0800ea24 	.word	0x0800ea24

080095b0 <ada__tags__register_tag>:
 80095b0:	f7ff bf6e 	b.w	8009490 <ada__tags__external_tag_htable__setXn>

080095b4 <ada__tags___elabb>:
 80095b4:	4b04      	ldr	r3, [pc, #16]	; (80095c8 <ada__tags___elabb+0x14>)
 80095b6:	2100      	movs	r1, #0
 80095b8:	f503 7280 	add.w	r2, r3, #256	; 0x100
 80095bc:	f843 1b04 	str.w	r1, [r3], #4
 80095c0:	4293      	cmp	r3, r2
 80095c2:	d1fb      	bne.n	80095bc <ada__tags___elabb+0x8>
 80095c4:	4770      	bx	lr
 80095c6:	bf00      	nop
 80095c8:	20003fbc 	.word	0x20003fbc

080095cc <system__finalization_masters___size__2>:
 80095cc:	20e0      	movs	r0, #224	; 0xe0
 80095ce:	2100      	movs	r1, #0
 80095d0:	4770      	bx	lr
 80095d2:	bf00      	nop

080095d4 <system__finalization_masters__base_pool>:
 80095d4:	6880      	ldr	r0, [r0, #8]
 80095d6:	4770      	bx	lr

080095d8 <system__finalization_masters__finalize_address>:
 80095d8:	6940      	ldr	r0, [r0, #20]
 80095da:	4770      	bx	lr

080095dc <system__finalization_masters__finalization_started>:
 80095dc:	7e00      	ldrb	r0, [r0, #24]
 80095de:	4770      	bx	lr

080095e0 <system__finalization_masters__initialize__2>:
 80095e0:	f100 030c 	add.w	r3, r0, #12
 80095e4:	6103      	str	r3, [r0, #16]
 80095e6:	60c3      	str	r3, [r0, #12]
 80095e8:	4770      	bx	lr
 80095ea:	bf00      	nop

080095ec <system__finalization_masters__is_homogeneous>:
 80095ec:	7900      	ldrb	r0, [r0, #4]
 80095ee:	4770      	bx	lr

080095f0 <system__finalization_masters__objects>:
 80095f0:	300c      	adds	r0, #12
 80095f2:	4770      	bx	lr

080095f4 <system__finalization_masters__set_base_pool>:
 80095f4:	6081      	str	r1, [r0, #8]
 80095f6:	4770      	bx	lr

080095f8 <system__finalization_masters__set_finalize_address>:
 80095f8:	b570      	push	{r4, r5, r6, lr}
 80095fa:	4b09      	ldr	r3, [pc, #36]	; (8009620 <system__finalization_masters__set_finalize_address+0x28>)
 80095fc:	4604      	mov	r4, r0
 80095fe:	681b      	ldr	r3, [r3, #0]
 8009600:	460d      	mov	r5, r1
 8009602:	4798      	blx	r3
 8009604:	6963      	ldr	r3, [r4, #20]
 8009606:	b123      	cbz	r3, 8009612 <system__finalization_masters__set_finalize_address+0x1a>
 8009608:	4b06      	ldr	r3, [pc, #24]	; (8009624 <system__finalization_masters__set_finalize_address+0x2c>)
 800960a:	e8bd 4070 	ldmia.w	sp!, {r4, r5, r6, lr}
 800960e:	681b      	ldr	r3, [r3, #0]
 8009610:	4718      	bx	r3
 8009612:	4b04      	ldr	r3, [pc, #16]	; (8009624 <system__finalization_masters__set_finalize_address+0x2c>)
 8009614:	6165      	str	r5, [r4, #20]
 8009616:	681b      	ldr	r3, [r3, #0]
 8009618:	e8bd 4070 	ldmia.w	sp!, {r4, r5, r6, lr}
 800961c:	4718      	bx	r3
 800961e:	bf00      	nop
 8009620:	20000208 	.word	0x20000208
 8009624:	20000200 	.word	0x20000200

08009628 <system__finalization_masters__set_finalize_address_unprotected>:
 8009628:	6943      	ldr	r3, [r0, #20]
 800962a:	b103      	cbz	r3, 800962e <system__finalization_masters__set_finalize_address_unprotected+0x6>
 800962c:	4770      	bx	lr
 800962e:	6141      	str	r1, [r0, #20]
 8009630:	4770      	bx	lr
 8009632:	bf00      	nop

08009634 <system__finalization_masters__set_is_heterogeneous>:
 8009634:	b510      	push	{r4, lr}
 8009636:	4b05      	ldr	r3, [pc, #20]	; (800964c <system__finalization_masters__set_is_heterogeneous+0x18>)
 8009638:	681b      	ldr	r3, [r3, #0]
 800963a:	4604      	mov	r4, r0
 800963c:	4798      	blx	r3
 800963e:	4b04      	ldr	r3, [pc, #16]	; (8009650 <system__finalization_masters__set_is_heterogeneous+0x1c>)
 8009640:	2200      	movs	r2, #0
 8009642:	7122      	strb	r2, [r4, #4]
 8009644:	681b      	ldr	r3, [r3, #0]
 8009646:	e8bd 4010 	ldmia.w	sp!, {r4, lr}
 800964a:	4718      	bx	r3
 800964c:	20000208 	.word	0x20000208
 8009650:	20000200 	.word	0x20000200

08009654 <system__finalization_masters__print_master>:
 8009654:	e92d 41f0 	stmdb	sp!, {r4, r5, r6, r7, r8, lr}
 8009658:	b08a      	sub	sp, #40	; 0x28
 800965a:	4604      	mov	r4, r0
 800965c:	f000 fa30 	bl	8009ac0 <system__secondary_stack__ss_mark>
 8009660:	4680      	mov	r8, r0
 8009662:	4876      	ldr	r0, [pc, #472]	; (800983c <system__finalization_masters__print_master+0x1e8>)
 8009664:	f100 010c 	add.w	r1, r0, #12
 8009668:	f104 050c 	add.w	r5, r4, #12
 800966c:	f001 f892 	bl	800a794 <system__io__put__3>
 8009670:	4668      	mov	r0, sp
 8009672:	4621      	mov	r1, r4
 8009674:	f001 f836 	bl	800a6e4 <_ada_system__address_image>
 8009678:	e9dd 0100 	ldrd	r0, r1, [sp]
 800967c:	f001 f89a 	bl	800a7b4 <system__io__put_line>
 8009680:	486f      	ldr	r0, [pc, #444]	; (8009840 <system__finalization_masters__print_master+0x1ec>)
 8009682:	f1a0 0108 	sub.w	r1, r0, #8
 8009686:	f001 f885 	bl	800a794 <system__io__put__3>
 800968a:	aa02      	add	r2, sp, #8
 800968c:	7920      	ldrb	r0, [r4, #4]
 800968e:	4b6d      	ldr	r3, [pc, #436]	; (8009844 <system__finalization_masters__print_master+0x1f0>)
 8009690:	f000 f9de 	bl	8009a50 <system__img_bool__image_boolean>
 8009694:	9007      	str	r0, [sp, #28]
 8009696:	2301      	movs	r3, #1
 8009698:	a802      	add	r0, sp, #8
 800969a:	a906      	add	r1, sp, #24
 800969c:	9306      	str	r3, [sp, #24]
 800969e:	f001 f889 	bl	800a7b4 <system__io__put_line>
 80096a2:	4869      	ldr	r0, [pc, #420]	; (8009848 <system__finalization_masters__print_master+0x1f4>)
 80096a4:	f1a0 011c 	sub.w	r1, r0, #28
 80096a8:	f001 f874 	bl	800a794 <system__io__put__3>
 80096ac:	68a3      	ldr	r3, [r4, #8]
 80096ae:	2b00      	cmp	r3, #0
 80096b0:	f000 80ac 	beq.w	800980c <system__finalization_masters__print_master+0x1b8>
 80096b4:	4668      	mov	r0, sp
 80096b6:	f104 0108 	add.w	r1, r4, #8
 80096ba:	f001 f813 	bl	800a6e4 <_ada_system__address_image>
 80096be:	e9dd 0100 	ldrd	r0, r1, [sp]
 80096c2:	f001 f877 	bl	800a7b4 <system__io__put_line>
 80096c6:	4861      	ldr	r0, [pc, #388]	; (800984c <system__finalization_masters__print_master+0x1f8>)
 80096c8:	f1a0 0134 	sub.w	r1, r0, #52	; 0x34
 80096cc:	f001 f862 	bl	800a794 <system__io__put__3>
 80096d0:	6963      	ldr	r3, [r4, #20]
 80096d2:	2b00      	cmp	r3, #0
 80096d4:	f000 809f 	beq.w	8009816 <system__finalization_masters__print_master+0x1c2>
 80096d8:	4668      	mov	r0, sp
 80096da:	f104 0114 	add.w	r1, r4, #20
 80096de:	f001 f801 	bl	800a6e4 <_ada_system__address_image>
 80096e2:	e9dd 0100 	ldrd	r0, r1, [sp]
 80096e6:	f001 f865 	bl	800a7b4 <system__io__put_line>
 80096ea:	4859      	ldr	r0, [pc, #356]	; (8009850 <system__finalization_masters__print_master+0x1fc>)
 80096ec:	f1a0 0140 	sub.w	r1, r0, #64	; 0x40
 80096f0:	f001 f850 	bl	800a794 <system__io__put__3>
 80096f4:	7e20      	ldrb	r0, [r4, #24]
 80096f6:	4b53      	ldr	r3, [pc, #332]	; (8009844 <system__finalization_masters__print_master+0x1f0>)
 80096f8:	aa04      	add	r2, sp, #16
 80096fa:	f000 f9a9 	bl	8009a50 <system__img_bool__image_boolean>
 80096fe:	9009      	str	r0, [sp, #36]	; 0x24
 8009700:	2301      	movs	r3, #1
 8009702:	a804      	add	r0, sp, #16
 8009704:	a908      	add	r1, sp, #32
 8009706:	9308      	str	r3, [sp, #32]
 8009708:	f001 f854 	bl	800a7b4 <system__io__put_line>
 800970c:	2d00      	cmp	r5, #0
 800970e:	d077      	beq.n	8009800 <system__finalization_masters__print_master+0x1ac>
 8009710:	462c      	mov	r4, r5
 8009712:	2700      	movs	r7, #0
 8009714:	e04f      	b.n	80097b6 <system__finalization_masters__print_master+0x162>
 8009716:	6823      	ldr	r3, [r4, #0]
 8009718:	2b00      	cmp	r3, #0
 800971a:	d06b      	beq.n	80097f4 <system__finalization_masters__print_master+0x1a0>
 800971c:	685b      	ldr	r3, [r3, #4]
 800971e:	429c      	cmp	r4, r3
 8009720:	d062      	beq.n	80097e8 <system__finalization_masters__print_master+0x194>
 8009722:	484c      	ldr	r0, [pc, #304]	; (8009854 <system__finalization_masters__print_master+0x200>)
 8009724:	f1a0 010c 	sub.w	r1, r0, #12
 8009728:	f001 f844 	bl	800a7b4 <system__io__put_line>
 800972c:	484a      	ldr	r0, [pc, #296]	; (8009858 <system__finalization_masters__print_master+0x204>)
 800972e:	f100 010c 	add.w	r1, r0, #12
 8009732:	f001 f82f 	bl	800a794 <system__io__put__3>
 8009736:	f000 f9c3 	bl	8009ac0 <system__secondary_stack__ss_mark>
 800973a:	4606      	mov	r6, r0
 800973c:	4621      	mov	r1, r4
 800973e:	4668      	mov	r0, sp
 8009740:	f000 ffd0 	bl	800a6e4 <_ada_system__address_image>
 8009744:	e9dd 0100 	ldrd	r0, r1, [sp]
 8009748:	f001 f824 	bl	800a794 <system__io__put__3>
 800974c:	4630      	mov	r0, r6
 800974e:	f000 f9bd 	bl	8009acc <system__secondary_stack__ss_release>
 8009752:	42ac      	cmp	r4, r5
 8009754:	d042      	beq.n	80097dc <system__finalization_masters__print_master+0x188>
 8009756:	4841      	ldr	r0, [pc, #260]	; (800985c <system__finalization_masters__print_master+0x208>)
 8009758:	4601      	mov	r1, r0
 800975a:	f001 f82b 	bl	800a7b4 <system__io__put_line>
 800975e:	4840      	ldr	r0, [pc, #256]	; (8009860 <system__finalization_masters__print_master+0x20c>)
 8009760:	f1a0 0130 	sub.w	r1, r0, #48	; 0x30
 8009764:	f001 f816 	bl	800a794 <system__io__put__3>
 8009768:	6823      	ldr	r3, [r4, #0]
 800976a:	b393      	cbz	r3, 80097d2 <system__finalization_masters__print_master+0x17e>
 800976c:	f000 f9a8 	bl	8009ac0 <system__secondary_stack__ss_mark>
 8009770:	4606      	mov	r6, r0
 8009772:	6821      	ldr	r1, [r4, #0]
 8009774:	4668      	mov	r0, sp
 8009776:	f000 ffb5 	bl	800a6e4 <_ada_system__address_image>
 800977a:	e9dd 0100 	ldrd	r0, r1, [sp]
 800977e:	f001 f819 	bl	800a7b4 <system__io__put_line>
 8009782:	4630      	mov	r0, r6
 8009784:	f000 f9a2 	bl	8009acc <system__secondary_stack__ss_release>
 8009788:	4836      	ldr	r0, [pc, #216]	; (8009864 <system__finalization_masters__print_master+0x210>)
 800978a:	f1a0 0144 	sub.w	r1, r0, #68	; 0x44
 800978e:	f001 f801 	bl	800a794 <system__io__put__3>
 8009792:	6863      	ldr	r3, [r4, #4]
 8009794:	b1c3      	cbz	r3, 80097c8 <system__finalization_masters__print_master+0x174>
 8009796:	f000 f993 	bl	8009ac0 <system__secondary_stack__ss_mark>
 800979a:	4606      	mov	r6, r0
 800979c:	6861      	ldr	r1, [r4, #4]
 800979e:	4668      	mov	r0, sp
 80097a0:	f000 ffa0 	bl	800a6e4 <_ada_system__address_image>
 80097a4:	e9dd 0100 	ldrd	r0, r1, [sp]
 80097a8:	f001 f804 	bl	800a7b4 <system__io__put_line>
 80097ac:	4630      	mov	r0, r6
 80097ae:	f000 f98d 	bl	8009acc <system__secondary_stack__ss_release>
 80097b2:	6864      	ldr	r4, [r4, #4]
 80097b4:	b324      	cbz	r4, 8009800 <system__finalization_masters__print_master+0x1ac>
 80097b6:	482c      	ldr	r0, [pc, #176]	; (8009868 <system__finalization_masters__print_master+0x214>)
 80097b8:	1d01      	adds	r1, r0, #4
 80097ba:	f000 fffb 	bl	800a7b4 <system__io__put_line>
 80097be:	42ac      	cmp	r4, r5
 80097c0:	d1a9      	bne.n	8009716 <system__finalization_masters__print_master+0xc2>
 80097c2:	b9ef      	cbnz	r7, 8009800 <system__finalization_masters__print_master+0x1ac>
 80097c4:	2701      	movs	r7, #1
 80097c6:	e7a6      	b.n	8009716 <system__finalization_masters__print_master+0xc2>
 80097c8:	4828      	ldr	r0, [pc, #160]	; (800986c <system__finalization_masters__print_master+0x218>)
 80097ca:	1d01      	adds	r1, r0, #4
 80097cc:	f000 fff2 	bl	800a7b4 <system__io__put_line>
 80097d0:	e7ef      	b.n	80097b2 <system__finalization_masters__print_master+0x15e>
 80097d2:	4826      	ldr	r0, [pc, #152]	; (800986c <system__finalization_masters__print_master+0x218>)
 80097d4:	1d01      	adds	r1, r0, #4
 80097d6:	f000 ffed 	bl	800a7b4 <system__io__put_line>
 80097da:	e7d5      	b.n	8009788 <system__finalization_masters__print_master+0x134>
 80097dc:	4824      	ldr	r0, [pc, #144]	; (8009870 <system__finalization_masters__print_master+0x21c>)
 80097de:	f100 0110 	add.w	r1, r0, #16
 80097e2:	f000 ffe7 	bl	800a7b4 <system__io__put_line>
 80097e6:	e7ba      	b.n	800975e <system__finalization_masters__print_master+0x10a>
 80097e8:	4822      	ldr	r0, [pc, #136]	; (8009874 <system__finalization_masters__print_master+0x220>)
 80097ea:	f1a0 0130 	sub.w	r1, r0, #48	; 0x30
 80097ee:	f000 ffe1 	bl	800a7b4 <system__io__put_line>
 80097f2:	e79b      	b.n	800972c <system__finalization_masters__print_master+0xd8>
 80097f4:	4820      	ldr	r0, [pc, #128]	; (8009878 <system__finalization_masters__print_master+0x224>)
 80097f6:	f100 010c 	add.w	r1, r0, #12
 80097fa:	f000 ffdb 	bl	800a7b4 <system__io__put_line>
 80097fe:	e795      	b.n	800972c <system__finalization_masters__print_master+0xd8>
 8009800:	4640      	mov	r0, r8
 8009802:	f000 f963 	bl	8009acc <system__secondary_stack__ss_release>
 8009806:	b00a      	add	sp, #40	; 0x28
 8009808:	e8bd 81f0 	ldmia.w	sp!, {r4, r5, r6, r7, r8, pc}
 800980c:	4817      	ldr	r0, [pc, #92]	; (800986c <system__finalization_masters__print_master+0x218>)
 800980e:	1d01      	adds	r1, r0, #4
 8009810:	f000 ffd0 	bl	800a7b4 <system__io__put_line>
 8009814:	e757      	b.n	80096c6 <system__finalization_masters__print_master+0x72>
 8009816:	4815      	ldr	r0, [pc, #84]	; (800986c <system__finalization_masters__print_master+0x218>)
 8009818:	1d01      	adds	r1, r0, #4
 800981a:	f000 ffcb 	bl	800a7b4 <system__io__put_line>
 800981e:	e764      	b.n	80096ea <system__finalization_masters__print_master+0x96>
 8009820:	4604      	mov	r4, r0
 8009822:	4630      	mov	r0, r6
 8009824:	f000 f952 	bl	8009acc <system__secondary_stack__ss_release>
 8009828:	4640      	mov	r0, r8
 800982a:	f000 f94f 	bl	8009acc <system__secondary_stack__ss_release>
 800982e:	4620      	mov	r0, r4
 8009830:	f001 fece 	bl	800b5d0 <_Unwind_Resume>
 8009834:	e7f4      	b.n	8009820 <system__finalization_masters__print_master+0x1cc>
 8009836:	e7f3      	b.n	8009820 <system__finalization_masters__print_master+0x1cc>
 8009838:	4604      	mov	r4, r0
 800983a:	e7f5      	b.n	8009828 <system__finalization_masters__print_master+0x1d4>
 800983c:	0800eaa8 	.word	0x0800eaa8
 8009840:	0800eabc 	.word	0x0800eabc
 8009844:	0800eac8 	.word	0x0800eac8
 8009848:	0800ead0 	.word	0x0800ead0
 800984c:	0800eae8 	.word	0x0800eae8
 8009850:	0800eaf4 	.word	0x0800eaf4
 8009854:	0800eb38 	.word	0x0800eb38
 8009858:	0800eb20 	.word	0x0800eb20
 800985c:	0800eb68 	.word	0x0800eb68
 8009860:	0800eb5c 	.word	0x0800eb5c
 8009864:	0800eb70 	.word	0x0800eb70
 8009868:	0800eb00 	.word	0x0800eb00
 800986c:	0800eadc 	.word	0x0800eadc
 8009870:	0800eb44 	.word	0x0800eb44
 8009874:	0800eb34 	.word	0x0800eb34
 8009878:	0800eb0c 	.word	0x0800eb0c

0800987c <system__finalization_masters__finalization_masterIP>:
 800987c:	b109      	cbz	r1, 8009882 <system__finalization_masters__finalization_masterIP+0x6>
 800987e:	4b05      	ldr	r3, [pc, #20]	; (8009894 <system__finalization_masters__finalization_masterIP+0x18>)
 8009880:	6003      	str	r3, [r0, #0]
 8009882:	2300      	movs	r3, #0
 8009884:	2201      	movs	r2, #1
 8009886:	7102      	strb	r2, [r0, #4]
 8009888:	6083      	str	r3, [r0, #8]
 800988a:	60c3      	str	r3, [r0, #12]
 800988c:	6103      	str	r3, [r0, #16]
 800988e:	6143      	str	r3, [r0, #20]
 8009890:	7603      	strb	r3, [r0, #24]
 8009892:	4770      	bx	lr
 8009894:	0800ebc4 	.word	0x0800ebc4

08009898 <system__finalization_masters__finalize_address_table__tab__removeXnb>:
 8009898:	f000 017f 	and.w	r1, r0, #127	; 0x7f
 800989c:	4b0f      	ldr	r3, [pc, #60]	; (80098dc <system__finalization_masters__finalize_address_table__tab__removeXnb+0x44>)
 800989e:	f853 2021 	ldr.w	r2, [r3, r1, lsl #2]
 80098a2:	b1ca      	cbz	r2, 80098d8 <system__finalization_masters__finalize_address_table__tab__removeXnb+0x40>
 80098a4:	b410      	push	{r4}
 80098a6:	6814      	ldr	r4, [r2, #0]
 80098a8:	42a0      	cmp	r0, r4
 80098aa:	d104      	bne.n	80098b6 <system__finalization_masters__finalize_address_table__tab__removeXnb+0x1e>
 80098ac:	e00e      	b.n	80098cc <system__finalization_masters__finalize_address_table__tab__removeXnb+0x34>
 80098ae:	6819      	ldr	r1, [r3, #0]
 80098b0:	4288      	cmp	r0, r1
 80098b2:	d006      	beq.n	80098c2 <system__finalization_masters__finalize_address_table__tab__removeXnb+0x2a>
 80098b4:	461a      	mov	r2, r3
 80098b6:	6893      	ldr	r3, [r2, #8]
 80098b8:	2b00      	cmp	r3, #0
 80098ba:	d1f8      	bne.n	80098ae <system__finalization_masters__finalize_address_table__tab__removeXnb+0x16>
 80098bc:	f85d 4b04 	ldr.w	r4, [sp], #4
 80098c0:	4770      	bx	lr
 80098c2:	689b      	ldr	r3, [r3, #8]
 80098c4:	6093      	str	r3, [r2, #8]
 80098c6:	f85d 4b04 	ldr.w	r4, [sp], #4
 80098ca:	4770      	bx	lr
 80098cc:	6892      	ldr	r2, [r2, #8]
 80098ce:	f843 2021 	str.w	r2, [r3, r1, lsl #2]
 80098d2:	f85d 4b04 	ldr.w	r4, [sp], #4
 80098d6:	4770      	bx	lr
 80098d8:	4770      	bx	lr
 80098da:	bf00      	nop
 80098dc:	200040bc 	.word	0x200040bc

080098e0 <system__finalization_masters__finalize_address_table__removeXn>:
 80098e0:	b510      	push	{r4, lr}
 80098e2:	f000 027f 	and.w	r2, r0, #127	; 0x7f
 80098e6:	4b09      	ldr	r3, [pc, #36]	; (800990c <system__finalization_masters__finalize_address_table__removeXn+0x2c>)
 80098e8:	f853 4022 	ldr.w	r4, [r3, r2, lsl #2]
 80098ec:	b914      	cbnz	r4, 80098f4 <system__finalization_masters__finalize_address_table__removeXn+0x14>
 80098ee:	e00b      	b.n	8009908 <system__finalization_masters__finalize_address_table__removeXn+0x28>
 80098f0:	68a4      	ldr	r4, [r4, #8]
 80098f2:	b14c      	cbz	r4, 8009908 <system__finalization_masters__finalize_address_table__removeXn+0x28>
 80098f4:	6823      	ldr	r3, [r4, #0]
 80098f6:	4298      	cmp	r0, r3
 80098f8:	d1fa      	bne.n	80098f0 <system__finalization_masters__finalize_address_table__removeXn+0x10>
 80098fa:	f7ff ffcd 	bl	8009898 <system__finalization_masters__finalize_address_table__tab__removeXnb>
 80098fe:	4620      	mov	r0, r4
 8009900:	e8bd 4010 	ldmia.w	sp!, {r4, lr}
 8009904:	f000 bedc 	b.w	800a6c0 <__gnat_free>
 8009908:	bd10      	pop	{r4, pc}
 800990a:	bf00      	nop
 800990c:	200040bc 	.word	0x200040bc

08009910 <system__finalization_masters__finalize>:
 8009910:	e92d 47f0 	stmdb	sp!, {r4, r5, r6, r7, r8, r9, sl, lr}
 8009914:	f5ad 7d54 	sub.w	sp, sp, #848	; 0x350
 8009918:	4a3a      	ldr	r2, [pc, #232]	; (8009a04 <system__finalization_masters__finalize+0xf4>)
 800991a:	2300      	movs	r3, #0
 800991c:	4605      	mov	r5, r0
 800991e:	9300      	str	r3, [sp, #0]
 8009920:	9302      	str	r3, [sp, #8]
 8009922:	f88d 30d4 	strb.w	r3, [sp, #212]	; 0xd4
 8009926:	9336      	str	r3, [sp, #216]	; 0xd8
 8009928:	9337      	str	r3, [sp, #220]	; 0xdc
 800992a:	6813      	ldr	r3, [r2, #0]
 800992c:	4798      	blx	r3
 800992e:	7e2b      	ldrb	r3, [r5, #24]
 8009930:	2b00      	cmp	r3, #0
 8009932:	d141      	bne.n	80099b8 <system__finalization_masters__finalize+0xa8>
 8009934:	4699      	mov	r9, r3
 8009936:	f8df 80d4 	ldr.w	r8, [pc, #212]	; 8009a0c <system__finalization_masters__finalize+0xfc>
 800993a:	2301      	movs	r3, #1
 800993c:	762b      	strb	r3, [r5, #24]
 800993e:	464e      	mov	r6, r9
 8009940:	f105 070c 	add.w	r7, r5, #12
 8009944:	692c      	ldr	r4, [r5, #16]
 8009946:	42bc      	cmp	r4, r7
 8009948:	d017      	beq.n	800997a <system__finalization_masters__finalize+0x6a>
 800994a:	6823      	ldr	r3, [r4, #0]
 800994c:	b133      	cbz	r3, 800995c <system__finalization_masters__finalize+0x4c>
 800994e:	6862      	ldr	r2, [r4, #4]
 8009950:	b122      	cbz	r2, 800995c <system__finalization_masters__finalize+0x4c>
 8009952:	605a      	str	r2, [r3, #4]
 8009954:	6862      	ldr	r2, [r4, #4]
 8009956:	6013      	str	r3, [r2, #0]
 8009958:	6026      	str	r6, [r4, #0]
 800995a:	6066      	str	r6, [r4, #4]
 800995c:	792b      	ldrb	r3, [r5, #4]
 800995e:	3408      	adds	r4, #8
 8009960:	b1db      	cbz	r3, 800999a <system__finalization_masters__finalize+0x8a>
 8009962:	696b      	ldr	r3, [r5, #20]
 8009964:	4620      	mov	r0, r4
 8009966:	4798      	blx	r3
 8009968:	792b      	ldrb	r3, [r5, #4]
 800996a:	2b00      	cmp	r3, #0
 800996c:	d1ea      	bne.n	8009944 <system__finalization_masters__finalize+0x34>
 800996e:	4620      	mov	r0, r4
 8009970:	f7ff ffb6 	bl	80098e0 <system__finalization_masters__finalize_address_table__removeXn>
 8009974:	692c      	ldr	r4, [r5, #16]
 8009976:	42bc      	cmp	r4, r7
 8009978:	d1e7      	bne.n	800994a <system__finalization_masters__finalize+0x3a>
 800997a:	68eb      	ldr	r3, [r5, #12]
 800997c:	42bb      	cmp	r3, r7
 800997e:	d1e4      	bne.n	800994a <system__finalization_masters__finalize+0x3a>
 8009980:	4b21      	ldr	r3, [pc, #132]	; (8009a08 <system__finalization_masters__finalize+0xf8>)
 8009982:	681b      	ldr	r3, [r3, #0]
 8009984:	4798      	blx	r3
 8009986:	f1b9 0f00 	cmp.w	r9, #0
 800998a:	d002      	beq.n	8009992 <system__finalization_masters__finalize+0x82>
 800998c:	4668      	mov	r0, sp
 800998e:	f7ff fb4f 	bl	8009030 <ada__exceptions__reraise_occurrence>
 8009992:	f50d 7d54 	add.w	sp, sp, #848	; 0x350
 8009996:	e8bd 87f0 	ldmia.w	sp!, {r4, r5, r6, r7, r8, r9, sl, pc}
 800999a:	f004 037f 	and.w	r3, r4, #127	; 0x7f
 800999e:	f858 3023 	ldr.w	r3, [r8, r3, lsl #2]
 80099a2:	b913      	cbnz	r3, 80099aa <system__finalization_masters__finalize+0x9a>
 80099a4:	e006      	b.n	80099b4 <system__finalization_masters__finalize+0xa4>
 80099a6:	689b      	ldr	r3, [r3, #8]
 80099a8:	b123      	cbz	r3, 80099b4 <system__finalization_masters__finalize+0xa4>
 80099aa:	681a      	ldr	r2, [r3, #0]
 80099ac:	4294      	cmp	r4, r2
 80099ae:	d1fa      	bne.n	80099a6 <system__finalization_masters__finalize+0x96>
 80099b0:	685b      	ldr	r3, [r3, #4]
 80099b2:	e7d7      	b.n	8009964 <system__finalization_masters__finalize+0x54>
 80099b4:	2300      	movs	r3, #0
 80099b6:	e7d5      	b.n	8009964 <system__finalization_masters__finalize+0x54>
 80099b8:	4b13      	ldr	r3, [pc, #76]	; (8009a08 <system__finalization_masters__finalize+0xf8>)
 80099ba:	681b      	ldr	r3, [r3, #0]
 80099bc:	4798      	blx	r3
 80099be:	f50d 7d54 	add.w	sp, sp, #848	; 0x350
 80099c2:	e8bd 87f0 	ldmia.w	sp!, {r4, r5, r6, r7, r8, r9, sl, pc}
 80099c6:	2901      	cmp	r1, #1
 80099c8:	4682      	mov	sl, r0
 80099ca:	d113      	bne.n	80099f4 <system__finalization_masters__finalize+0xe4>
 80099cc:	f7ff f8fc 	bl	8008bc8 <__gnat_begin_handler>
 80099d0:	a86a      	add	r0, sp, #424	; 0x1a8
 80099d2:	4651      	mov	r1, sl
 80099d4:	f7ff f918 	bl	8008c08 <__gnat_set_exception_parameter>
 80099d8:	f1b9 0f00 	cmp.w	r9, #0
 80099dc:	d00c      	beq.n	80099f8 <system__finalization_masters__finalize+0xe8>
 80099de:	4650      	mov	r0, sl
 80099e0:	f7ff f8f4 	bl	8008bcc <__gnat_end_handler>
 80099e4:	f04f 0901 	mov.w	r9, #1
 80099e8:	e7be      	b.n	8009968 <system__finalization_masters__finalize+0x58>
 80099ea:	4604      	mov	r4, r0
 80099ec:	4650      	mov	r0, sl
 80099ee:	f7ff f8ed 	bl	8008bcc <__gnat_end_handler>
 80099f2:	4620      	mov	r0, r4
 80099f4:	f001 fdec 	bl	800b5d0 <_Unwind_Resume>
 80099f8:	4668      	mov	r0, sp
 80099fa:	a96a      	add	r1, sp, #424	; 0x1a8
 80099fc:	f7ff fb30 	bl	8009060 <ada__exceptions__save_occurrence>
 8009a00:	e7ed      	b.n	80099de <system__finalization_masters__finalize+0xce>
 8009a02:	bf00      	nop
 8009a04:	20000208 	.word	0x20000208
 8009a08:	20000200 	.word	0x20000200
 8009a0c:	200040bc 	.word	0x200040bc

08009a10 <system__finalization_masters__finalization_masterDF__2>:
 8009a10:	f7ff bf7e 	b.w	8009910 <system__finalization_masters__finalize>

08009a14 <system__finalization_masters___elabb>:
 8009a14:	4b04      	ldr	r3, [pc, #16]	; (8009a28 <system__finalization_masters___elabb+0x14>)
 8009a16:	2100      	movs	r1, #0
 8009a18:	f503 7200 	add.w	r2, r3, #512	; 0x200
 8009a1c:	f843 1b04 	str.w	r1, [r3], #4
 8009a20:	4293      	cmp	r3, r2
 8009a22:	d1fb      	bne.n	8009a1c <system__finalization_masters___elabb+0x8>
 8009a24:	4770      	bx	lr
 8009a26:	bf00      	nop
 8009a28:	200040bc 	.word	0x200040bc

08009a2c <system__finalization_masters___elabs>:
 8009a2c:	4801      	ldr	r0, [pc, #4]	; (8009a34 <system__finalization_masters___elabs+0x8>)
 8009a2e:	f7ff bdbf 	b.w	80095b0 <ada__tags__register_tag>
 8009a32:	bf00      	nop
 8009a34:	0800ebc4 	.word	0x0800ebc4

08009a38 <system__assertions__raise_assert_failure>:
 8009a38:	b538      	push	{r3, r4, r5, lr}
 8009a3a:	4604      	mov	r4, r0
 8009a3c:	460d      	mov	r5, r1
 8009a3e:	f000 f92f 	bl	8009ca0 <__gnat_debug_raise_assert_failure>
 8009a42:	4622      	mov	r2, r4
 8009a44:	462b      	mov	r3, r5
 8009a46:	4801      	ldr	r0, [pc, #4]	; (8009a4c <system__assertions__raise_assert_failure+0x14>)
 8009a48:	f7ff fa6c 	bl	8008f24 <__gnat_raise_exception>
 8009a4c:	2000024c 	.word	0x2000024c

08009a50 <system__img_bool__image_boolean>:
 8009a50:	681b      	ldr	r3, [r3, #0]
 8009a52:	b960      	cbnz	r0, 8009a6e <system__img_bool__image_boolean+0x1e>
 8009a54:	b410      	push	{r4}
 8009a56:	4909      	ldr	r1, [pc, #36]	; (8009a7c <system__img_bool__image_boolean+0x2c>)
 8009a58:	f1c3 0301 	rsb	r3, r3, #1
 8009a5c:	6808      	ldr	r0, [r1, #0]
 8009a5e:	7909      	ldrb	r1, [r1, #4]
 8009a60:	50d0      	str	r0, [r2, r3]
 8009a62:	18d4      	adds	r4, r2, r3
 8009a64:	2005      	movs	r0, #5
 8009a66:	7121      	strb	r1, [r4, #4]
 8009a68:	f85d 4b04 	ldr.w	r4, [sp], #4
 8009a6c:	4770      	bx	lr
 8009a6e:	4904      	ldr	r1, [pc, #16]	; (8009a80 <system__img_bool__image_boolean+0x30>)
 8009a70:	f1c3 0301 	rsb	r3, r3, #1
 8009a74:	6808      	ldr	r0, [r1, #0]
 8009a76:	50d0      	str	r0, [r2, r3]
 8009a78:	2004      	movs	r0, #4
 8009a7a:	4770      	bx	lr
 8009a7c:	0800ec7c 	.word	0x0800ec7c
 8009a80:	0800ec78 	.word	0x0800ec78

08009a84 <system__secondary_stack__ss_allocate>:
 8009a84:	b510      	push	{r4, lr}
 8009a86:	4604      	mov	r4, r0
 8009a88:	f7fd f936 	bl	8006cf8 <__gnat_get_secondary_stack>
 8009a8c:	1de3      	adds	r3, r4, #7
 8009a8e:	6802      	ldr	r2, [r0, #0]
 8009a90:	6841      	ldr	r1, [r0, #4]
 8009a92:	f023 0307 	bic.w	r3, r3, #7
 8009a96:	4413      	add	r3, r2
 8009a98:	428b      	cmp	r3, r1
 8009a9a:	d804      	bhi.n	8009aa6 <system__secondary_stack__ss_allocate+0x22>
 8009a9c:	3207      	adds	r2, #7
 8009a9e:	4402      	add	r2, r0
 8009aa0:	6003      	str	r3, [r0, #0]
 8009aa2:	4610      	mov	r0, r2
 8009aa4:	bd10      	pop	{r4, pc}
 8009aa6:	4802      	ldr	r0, [pc, #8]	; (8009ab0 <system__secondary_stack__ss_allocate+0x2c>)
 8009aa8:	2167      	movs	r1, #103	; 0x67
 8009aaa:	f7ff fabb 	bl	8009024 <__gnat_rcheck_SE_Explicit_Raise>
 8009aae:	bf00      	nop
 8009ab0:	0800ec84 	.word	0x0800ec84

08009ab4 <system__secondary_stack__ss_init>:
 8009ab4:	3908      	subs	r1, #8
 8009ab6:	2301      	movs	r3, #1
 8009ab8:	6041      	str	r1, [r0, #4]
 8009aba:	6003      	str	r3, [r0, #0]
 8009abc:	4770      	bx	lr
 8009abe:	bf00      	nop

08009ac0 <system__secondary_stack__ss_mark>:
 8009ac0:	b508      	push	{r3, lr}
 8009ac2:	f7fd f919 	bl	8006cf8 <__gnat_get_secondary_stack>
 8009ac6:	6800      	ldr	r0, [r0, #0]
 8009ac8:	bd08      	pop	{r3, pc}
 8009aca:	bf00      	nop

08009acc <system__secondary_stack__ss_release>:
 8009acc:	b510      	push	{r4, lr}
 8009ace:	4604      	mov	r4, r0
 8009ad0:	f7fd f912 	bl	8006cf8 <__gnat_get_secondary_stack>
 8009ad4:	6004      	str	r4, [r0, #0]
 8009ad6:	bd10      	pop	{r4, pc}

08009ad8 <__gnat_finalize>:
 8009ad8:	4770      	bx	lr
 8009ada:	bf00      	nop

08009adc <__gnat_initialize>:
 8009adc:	4770      	bx	lr
 8009ade:	bf00      	nop

08009ae0 <__gnat_runtime_initialize>:
 8009ae0:	b510      	push	{r4, lr}
 8009ae2:	4c14      	ldr	r4, [pc, #80]	; (8009b34 <__gnat_runtime_initialize+0x54>)
 8009ae4:	f7fd f92a 	bl	8006d3c <system__tasking__initialize>
 8009ae8:	4620      	mov	r0, r4
 8009aea:	2101      	movs	r1, #1
 8009aec:	2200      	movs	r2, #0
 8009aee:	f7fd ff5d 	bl	80079ac <system__bb__cpu_primitives__install_trap_handler>
 8009af2:	4620      	mov	r0, r4
 8009af4:	2102      	movs	r1, #2
 8009af6:	2200      	movs	r2, #0
 8009af8:	f7fd ff58 	bl	80079ac <system__bb__cpu_primitives__install_trap_handler>
 8009afc:	4620      	mov	r0, r4
 8009afe:	2103      	movs	r1, #3
 8009b00:	2200      	movs	r2, #0
 8009b02:	f7fd ff53 	bl	80079ac <system__bb__cpu_primitives__install_trap_handler>
 8009b06:	4620      	mov	r0, r4
 8009b08:	2105      	movs	r1, #5
 8009b0a:	2200      	movs	r2, #0
 8009b0c:	f7fd ff4e 	bl	80079ac <system__bb__cpu_primitives__install_trap_handler>
 8009b10:	4620      	mov	r0, r4
 8009b12:	2106      	movs	r1, #6
 8009b14:	2200      	movs	r2, #0
 8009b16:	f7fd ff49 	bl	80079ac <system__bb__cpu_primitives__install_trap_handler>
 8009b1a:	4620      	mov	r0, r4
 8009b1c:	210e      	movs	r1, #14
 8009b1e:	2200      	movs	r2, #0
 8009b20:	f7fd ff44 	bl	80079ac <system__bb__cpu_primitives__install_trap_handler>
 8009b24:	4620      	mov	r0, r4
 8009b26:	210b      	movs	r1, #11
 8009b28:	2200      	movs	r2, #0
 8009b2a:	e8bd 4010 	ldmia.w	sp!, {r4, lr}
 8009b2e:	f7fd bf3d 	b.w	80079ac <system__bb__cpu_primitives__install_trap_handler>
 8009b32:	bf00      	nop
 8009b34:	08007819 	.word	0x08007819

08009b38 <__gnat_runtime_finalize>:
 8009b38:	4770      	bx	lr
 8009b3a:	bf00      	nop

08009b3c <system__exception_table__register.part.1>:
 8009b3c:	b4d0      	push	{r4, r6, r7}
 8009b3e:	6883      	ldr	r3, [r0, #8]
 8009b40:	f103 4400 	add.w	r4, r3, #2147483648	; 0x80000000
 8009b44:	2100      	movs	r1, #0
 8009b46:	3c01      	subs	r4, #1
 8009b48:	e003      	b.n	8009b52 <system__exception_table__register.part.1+0x16>
 8009b4a:	42a3      	cmp	r3, r4
 8009b4c:	ea81 0102 	eor.w	r1, r1, r2
 8009b50:	d003      	beq.n	8009b5a <system__exception_table__register.part.1+0x1e>
 8009b52:	781a      	ldrb	r2, [r3, #0]
 8009b54:	3301      	adds	r3, #1
 8009b56:	2a00      	cmp	r2, #0
 8009b58:	d1f7      	bne.n	8009b4a <system__exception_table__register.part.1+0xe>
 8009b5a:	4e0e      	ldr	r6, [pc, #56]	; (8009b94 <system__exception_table__register.part.1+0x58>)
 8009b5c:	4c0e      	ldr	r4, [pc, #56]	; (8009b98 <system__exception_table__register.part.1+0x5c>)
 8009b5e:	fba1 6706 	umull	r6, r7, r1, r6
 8009b62:	1bcb      	subs	r3, r1, r7
 8009b64:	eb07 0353 	add.w	r3, r7, r3, lsr #1
 8009b68:	095b      	lsrs	r3, r3, #5
 8009b6a:	eb03 02c3 	add.w	r2, r3, r3, lsl #3
 8009b6e:	eb03 0382 	add.w	r3, r3, r2, lsl #2
 8009b72:	1acb      	subs	r3, r1, r3
 8009b74:	3301      	adds	r3, #1
 8009b76:	b2db      	uxtb	r3, r3
 8009b78:	f103 4380 	add.w	r3, r3, #1073741824	; 0x40000000
 8009b7c:	3b01      	subs	r3, #1
 8009b7e:	f854 2023 	ldr.w	r2, [r4, r3, lsl #2]
 8009b82:	2a00      	cmp	r2, #0
 8009b84:	bf08      	it	eq
 8009b86:	4602      	moveq	r2, r0
 8009b88:	60c2      	str	r2, [r0, #12]
 8009b8a:	f844 0023 	str.w	r0, [r4, r3, lsl #2]
 8009b8e:	bcd0      	pop	{r4, r6, r7}
 8009b90:	4770      	bx	lr
 8009b92:	bf00      	nop
 8009b94:	bacf914d 	.word	0xbacf914d
 8009b98:	200042bc 	.word	0x200042bc

08009b9c <system__exception_table___elabb>:
 8009b9c:	b508      	push	{r3, lr}
 8009b9e:	4b17      	ldr	r3, [pc, #92]	; (8009bfc <system__exception_table___elabb+0x60>)
 8009ba0:	2100      	movs	r1, #0
 8009ba2:	f103 0294 	add.w	r2, r3, #148	; 0x94
 8009ba6:	f843 1b04 	str.w	r1, [r3], #4
 8009baa:	4293      	cmp	r3, r2
 8009bac:	d1fb      	bne.n	8009ba6 <system__exception_table___elabb+0xa>
 8009bae:	4814      	ldr	r0, [pc, #80]	; (8009c00 <system__exception_table___elabb+0x64>)
 8009bb0:	68c3      	ldr	r3, [r0, #12]
 8009bb2:	b19b      	cbz	r3, 8009bdc <system__exception_table___elabb+0x40>
 8009bb4:	4813      	ldr	r0, [pc, #76]	; (8009c04 <system__exception_table___elabb+0x68>)
 8009bb6:	68c3      	ldr	r3, [r0, #12]
 8009bb8:	b19b      	cbz	r3, 8009be2 <system__exception_table___elabb+0x46>
 8009bba:	4813      	ldr	r0, [pc, #76]	; (8009c08 <system__exception_table___elabb+0x6c>)
 8009bbc:	68c3      	ldr	r3, [r0, #12]
 8009bbe:	b19b      	cbz	r3, 8009be8 <system__exception_table___elabb+0x4c>
 8009bc0:	4812      	ldr	r0, [pc, #72]	; (8009c0c <system__exception_table___elabb+0x70>)
 8009bc2:	68c3      	ldr	r3, [r0, #12]
 8009bc4:	b19b      	cbz	r3, 8009bee <system__exception_table___elabb+0x52>
 8009bc6:	4812      	ldr	r0, [pc, #72]	; (8009c10 <system__exception_table___elabb+0x74>)
 8009bc8:	68c3      	ldr	r3, [r0, #12]
 8009bca:	b19b      	cbz	r3, 8009bf4 <system__exception_table___elabb+0x58>
 8009bcc:	4811      	ldr	r0, [pc, #68]	; (8009c14 <system__exception_table___elabb+0x78>)
 8009bce:	68c3      	ldr	r3, [r0, #12]
 8009bd0:	b103      	cbz	r3, 8009bd4 <system__exception_table___elabb+0x38>
 8009bd2:	bd08      	pop	{r3, pc}
 8009bd4:	e8bd 4008 	ldmia.w	sp!, {r3, lr}
 8009bd8:	f7ff bfb0 	b.w	8009b3c <system__exception_table__register.part.1>
 8009bdc:	f7ff ffae 	bl	8009b3c <system__exception_table__register.part.1>
 8009be0:	e7e8      	b.n	8009bb4 <system__exception_table___elabb+0x18>
 8009be2:	f7ff ffab 	bl	8009b3c <system__exception_table__register.part.1>
 8009be6:	e7e8      	b.n	8009bba <system__exception_table___elabb+0x1e>
 8009be8:	f7ff ffa8 	bl	8009b3c <system__exception_table__register.part.1>
 8009bec:	e7e8      	b.n	8009bc0 <system__exception_table___elabb+0x24>
 8009bee:	f7ff ffa5 	bl	8009b3c <system__exception_table__register.part.1>
 8009bf2:	e7e8      	b.n	8009bc6 <system__exception_table___elabb+0x2a>
 8009bf4:	f7ff ffa2 	bl	8009b3c <system__exception_table__register.part.1>
 8009bf8:	e7e8      	b.n	8009bcc <system__exception_table___elabb+0x30>
 8009bfa:	bf00      	nop
 8009bfc:	200042bc 	.word	0x200042bc
 8009c00:	200001a8 	.word	0x200001a8
 8009c04:	20000158 	.word	0x20000158
 8009c08:	20000170 	.word	0x20000170
 8009c0c:	200001c0 	.word	0x200001c0
 8009c10:	2000018c 	.word	0x2000018c
 8009c14:	200001dc 	.word	0x200001dc

08009c18 <system__exceptions__machine__new_occurrence>:
 8009c18:	b510      	push	{r4, lr}
 8009c1a:	f44f 7000 	mov.w	r0, #512	; 0x200
 8009c1e:	f000 fd25 	bl	800a66c <__gnat_malloc>
 8009c22:	4908      	ldr	r1, [pc, #32]	; (8009c44 <system__exceptions__machine__new_occurrence+0x2c>)
 8009c24:	2258      	movs	r2, #88	; 0x58
 8009c26:	4604      	mov	r4, r0
 8009c28:	f7fe fb7a 	bl	8008320 <memcpy>
 8009c2c:	2300      	movs	r3, #0
 8009c2e:	65a3      	str	r3, [r4, #88]	; 0x58
 8009c30:	6623      	str	r3, [r4, #96]	; 0x60
 8009c32:	f884 312c 	strb.w	r3, [r4, #300]	; 0x12c
 8009c36:	f8c4 3130 	str.w	r3, [r4, #304]	; 0x130
 8009c3a:	f8c4 3134 	str.w	r3, [r4, #308]	; 0x134
 8009c3e:	4620      	mov	r0, r4
 8009c40:	bd10      	pop	{r4, pc}
 8009c42:	bf00      	nop
 8009c44:	0800ec98 	.word	0x0800ec98

08009c48 <ada__streams___size>:
 8009c48:	2020      	movs	r0, #32
 8009c4a:	2100      	movs	r1, #0
 8009c4c:	4770      	bx	lr
 8009c4e:	bf00      	nop

08009c50 <ada__streams__root_stream_typeDF>:
 8009c50:	4770      	bx	lr
 8009c52:	bf00      	nop

08009c54 <ada__streams___elabs>:
 8009c54:	4801      	ldr	r0, [pc, #4]	; (8009c5c <ada__streams___elabs+0x8>)
 8009c56:	f7ff bcab 	b.w	80095b0 <ada__tags__register_tag>
 8009c5a:	bf00      	nop
 8009c5c:	0800ed7c 	.word	0x0800ed7c

08009c60 <ada__text_io___elabb>:
 8009c60:	4b02      	ldr	r3, [pc, #8]	; (8009c6c <ada__text_io___elabb+0xc>)
 8009c62:	781b      	ldrb	r3, [r3, #0]
 8009c64:	b103      	cbz	r3, 8009c68 <ada__text_io___elabb+0x8>
 8009c66:	4770      	bx	lr
 8009c68:	f000 b87e 	b.w	8009d68 <system__text_io__initialize>
 8009c6c:	200002c8 	.word	0x200002c8

08009c70 <__gnat_debug_raise_exception>:
 8009c70:	b480      	push	{r7}
 8009c72:	b085      	sub	sp, #20
 8009c74:	af00      	add	r7, sp, #0
 8009c76:	60f8      	str	r0, [r7, #12]
 8009c78:	e9c7 2300 	strd	r2, r3, [r7]
 8009c7c:	683b      	ldr	r3, [r7, #0]
 8009c7e:	bf00      	nop
 8009c80:	3714      	adds	r7, #20
 8009c82:	46bd      	mov	sp, r7
 8009c84:	f85d 7b04 	ldr.w	r7, [sp], #4
 8009c88:	4770      	bx	lr
 8009c8a:	bf00      	nop

08009c8c <__gnat_unhandled_exception>:
 8009c8c:	b480      	push	{r7}
 8009c8e:	b083      	sub	sp, #12
 8009c90:	af00      	add	r7, sp, #0
 8009c92:	6078      	str	r0, [r7, #4]
 8009c94:	bf00      	nop
 8009c96:	370c      	adds	r7, #12
 8009c98:	46bd      	mov	sp, r7
 8009c9a:	f85d 7b04 	ldr.w	r7, [sp], #4
 8009c9e:	4770      	bx	lr

08009ca0 <__gnat_debug_raise_assert_failure>:
 8009ca0:	b480      	push	{r7}
 8009ca2:	af00      	add	r7, sp, #0
 8009ca4:	bf00      	nop
 8009ca6:	46bd      	mov	sp, r7
 8009ca8:	f85d 7b04 	ldr.w	r7, [sp], #4
 8009cac:	4770      	bx	lr
 8009cae:	bf00      	nop

08009cb0 <system__img_enum_new__image_enumeration_8>:
 8009cb0:	b5f8      	push	{r3, r4, r5, r6, r7, lr}
 8009cb2:	9c08      	ldr	r4, [sp, #32]
 8009cb4:	9907      	ldr	r1, [sp, #28]
 8009cb6:	681d      	ldr	r5, [r3, #0]
 8009cb8:	680e      	ldr	r6, [r1, #0]
 8009cba:	5c23      	ldrb	r3, [r4, r0]
 8009cbc:	9906      	ldr	r1, [sp, #24]
 8009cbe:	1827      	adds	r7, r4, r0
 8009cc0:	f1c5 0001 	rsb	r0, r5, #1
 8009cc4:	787c      	ldrb	r4, [r7, #1]
 8009cc6:	1ae4      	subs	r4, r4, r3
 8009cc8:	1b9b      	subs	r3, r3, r6
 8009cca:	4410      	add	r0, r2
 8009ccc:	4419      	add	r1, r3
 8009cce:	ea24 72e4 	bic.w	r2, r4, r4, asr #31
 8009cd2:	f7ff fb23 	bl	800931c <memmove>
 8009cd6:	4620      	mov	r0, r4
 8009cd8:	bdf8      	pop	{r3, r4, r5, r6, r7, pc}
 8009cda:	bf00      	nop

08009cdc <system__parameters__adjust_storage_size>:
 8009cdc:	f1b0 4f00 	cmp.w	r0, #2147483648	; 0x80000000
 8009ce0:	bf08      	it	eq
 8009ce2:	f44f 5080 	moveq.w	r0, #4096	; 0x1000
 8009ce6:	4770      	bx	lr

08009ce8 <system__finalization_root___size>:
 8009ce8:	2020      	movs	r0, #32
 8009cea:	2100      	movs	r1, #0
 8009cec:	4770      	bx	lr
 8009cee:	bf00      	nop

08009cf0 <system__finalization_root__root_controlledSR>:
 8009cf0:	4770      	bx	lr
 8009cf2:	bf00      	nop

08009cf4 <system__finalization_root__root_controlledSW>:
 8009cf4:	4770      	bx	lr
 8009cf6:	bf00      	nop

08009cf8 <system__finalization_root__root_controlledSO>:
 8009cf8:	4770      	bx	lr
 8009cfa:	bf00      	nop

08009cfc <system__finalization_root__Oeq>:
 8009cfc:	2001      	movs	r0, #1
 8009cfe:	4770      	bx	lr

08009d00 <system__finalization_root___assign>:
 8009d00:	4770      	bx	lr
 8009d02:	bf00      	nop

08009d04 <system__finalization_root__root_controlledDA>:
 8009d04:	4770      	bx	lr
 8009d06:	bf00      	nop

08009d08 <system__finalization_root__root_controlledDF>:
 8009d08:	4770      	bx	lr
 8009d0a:	bf00      	nop

08009d0c <system__finalization_root__adjust>:
 8009d0c:	b508      	push	{r3, lr}
 8009d0e:	4802      	ldr	r0, [pc, #8]	; (8009d18 <system__finalization_root__adjust+0xc>)
 8009d10:	2125      	movs	r1, #37	; 0x25
 8009d12:	f7ff f981 	bl	8009018 <__gnat_rcheck_PE_Explicit_Raise>
 8009d16:	bf00      	nop
 8009d18:	0800eda0 	.word	0x0800eda0

08009d1c <system__finalization_root__finalize>:
 8009d1c:	b508      	push	{r3, lr}
 8009d1e:	4802      	ldr	r0, [pc, #8]	; (8009d28 <system__finalization_root__finalize+0xc>)
 8009d20:	212e      	movs	r1, #46	; 0x2e
 8009d22:	f7ff f979 	bl	8009018 <__gnat_rcheck_PE_Explicit_Raise>
 8009d26:	bf00      	nop
 8009d28:	0800eda0 	.word	0x0800eda0

08009d2c <system__finalization_root__initialize>:
 8009d2c:	b508      	push	{r3, lr}
 8009d2e:	4802      	ldr	r0, [pc, #8]	; (8009d38 <system__finalization_root__initialize+0xc>)
 8009d30:	2137      	movs	r1, #55	; 0x37
 8009d32:	f7ff f971 	bl	8009018 <__gnat_rcheck_PE_Explicit_Raise>
 8009d36:	bf00      	nop
 8009d38:	0800eda0 	.word	0x0800eda0

08009d3c <system__finalization_root___elabs>:
 8009d3c:	4801      	ldr	r0, [pc, #4]	; (8009d44 <system__finalization_root___elabs+0x8>)
 8009d3e:	f7ff bc37 	b.w	80095b0 <ada__tags__register_tag>
 8009d42:	bf00      	nop
 8009d44:	0800edf0 	.word	0x0800edf0

08009d48 <abort>:
 8009d48:	4b01      	ldr	r3, [pc, #4]	; (8009d50 <abort+0x8>)
 8009d4a:	4a02      	ldr	r2, [pc, #8]	; (8009d54 <abort+0xc>)
 8009d4c:	601a      	str	r2, [r3, #0]
 8009d4e:	e7fe      	b.n	8009d4e <abort+0x6>
 8009d50:	e000ed0c 	.word	0xe000ed0c
 8009d54:	05fa0004 	.word	0x05fa0004

08009d58 <_exit>:
 8009d58:	4b01      	ldr	r3, [pc, #4]	; (8009d60 <_exit+0x8>)
 8009d5a:	4a02      	ldr	r2, [pc, #8]	; (8009d64 <_exit+0xc>)
 8009d5c:	601a      	str	r2, [r3, #0]
 8009d5e:	e7fe      	b.n	8009d5e <_exit+0x6>
 8009d60:	e000ed0c 	.word	0xe000ed0c
 8009d64:	05fa0004 	.word	0x05fa0004

08009d68 <system__text_io__initialize>:
 8009d68:	e92d 4ff0 	stmdb	sp!, {r4, r5, r6, r7, r8, r9, sl, fp, lr}
 8009d6c:	b08b      	sub	sp, #44	; 0x2c
 8009d6e:	a804      	add	r0, sp, #16
 8009d70:	f000 face 	bl	800a310 <system__stm32__system_clocks>
 8009d74:	49bd      	ldr	r1, [pc, #756]	; (800a06c <system__text_io__initialize+0x304>)
 8009d76:	f8df a314 	ldr.w	sl, [pc, #788]	; 800a08c <system__text_io__initialize+0x324>
 8009d7a:	9e07      	ldr	r6, [sp, #28]
 8009d7c:	f8df b310 	ldr.w	fp, [pc, #784]	; 800a090 <system__text_io__initialize+0x328>
 8009d80:	f8df 9310 	ldr.w	r9, [pc, #784]	; 800a094 <system__text_io__initialize+0x32c>
 8009d84:	4aba      	ldr	r2, [pc, #744]	; (800a070 <system__text_io__initialize+0x308>)
 8009d86:	f8df c310 	ldr.w	ip, [pc, #784]	; 800a098 <system__text_io__initialize+0x330>
 8009d8a:	4bba      	ldr	r3, [pc, #744]	; (800a074 <system__text_io__initialize+0x30c>)
 8009d8c:	f8df e30c 	ldr.w	lr, [pc, #780]	; 800a09c <system__text_io__initialize+0x334>
 8009d90:	f8df 830c 	ldr.w	r8, [pc, #780]	; 800a0a0 <system__text_io__initialize+0x338>
 8009d94:	4fb8      	ldr	r7, [pc, #736]	; (800a078 <system__text_io__initialize+0x310>)
 8009d96:	4db9      	ldr	r5, [pc, #740]	; (800a07c <system__text_io__initialize+0x314>)
 8009d98:	4cb9      	ldr	r4, [pc, #740]	; (800a080 <system__text_io__initialize+0x318>)
 8009d9a:	2001      	movs	r0, #1
 8009d9c:	7008      	strb	r0, [r1, #0]
 8009d9e:	f8da 1000 	ldr.w	r1, [sl]
 8009da2:	48b8      	ldr	r0, [pc, #736]	; (800a084 <system__text_io__initialize+0x31c>)
 8009da4:	f441 4180 	orr.w	r1, r1, #16384	; 0x4000
 8009da8:	f8ca 1000 	str.w	r1, [sl]
 8009dac:	f8db a000 	ldr.w	sl, [fp]
 8009db0:	49b5      	ldr	r1, [pc, #724]	; (800a088 <system__text_io__initialize+0x320>)
 8009db2:	f04a 0a02 	orr.w	sl, sl, #2
 8009db6:	f8cb a000 	str.w	sl, [fp]
 8009dba:	f8d9 a000 	ldr.w	sl, [r9]
 8009dbe:	f8d9 b000 	ldr.w	fp, [r9]
 8009dc2:	f42a 5a40 	bic.w	sl, sl, #12288	; 0x3000
 8009dc6:	f44a 5a00 	orr.w	sl, sl, #8192	; 0x2000
 8009dca:	f8c9 a000 	str.w	sl, [r9]
 8009dce:	f8d9 a000 	ldr.w	sl, [r9]
 8009dd2:	f8d9 b000 	ldr.w	fp, [r9]
 8009dd6:	f42a 4a40 	bic.w	sl, sl, #49152	; 0xc000
 8009dda:	f44a 4a00 	orr.w	sl, sl, #32768	; 0x8000
 8009dde:	f8c9 a000 	str.w	sl, [r9]
 8009de2:	f8d2 9000 	ldr.w	r9, [r2]
 8009de6:	f8d2 a000 	ldr.w	sl, [r2]
 8009dea:	f429 5940 	bic.w	r9, r9, #12288	; 0x3000
 8009dee:	f449 5900 	orr.w	r9, r9, #8192	; 0x2000
 8009df2:	f8c2 9000 	str.w	r9, [r2]
 8009df6:	f8d2 9000 	ldr.w	r9, [r2]
 8009dfa:	f8d2 a000 	ldr.w	sl, [r2]
 8009dfe:	f429 4940 	bic.w	r9, r9, #49152	; 0xc000
 8009e02:	f449 4900 	orr.w	r9, r9, #32768	; 0x8000
 8009e06:	f8c2 9000 	str.w	r9, [r2]
 8009e0a:	f8dc 9000 	ldr.w	r9, [ip]
 8009e0e:	f8dc 2000 	ldr.w	r2, [ip]
 8009e12:	f029 0940 	bic.w	r9, r9, #64	; 0x40
 8009e16:	f369 020f 	bfi	r2, r9, #0, #16
 8009e1a:	f8cc 2000 	str.w	r2, [ip]
 8009e1e:	f8dc 9000 	ldr.w	r9, [ip]
 8009e22:	f8dc 2000 	ldr.w	r2, [ip]
 8009e26:	f029 0980 	bic.w	r9, r9, #128	; 0x80
 8009e2a:	f369 020f 	bfi	r2, r9, #0, #16
 8009e2e:	f8cc 2000 	str.w	r2, [ip]
 8009e32:	681a      	ldr	r2, [r3, #0]
 8009e34:	f8d3 c000 	ldr.w	ip, [r3]
 8009e38:	f422 5240 	bic.w	r2, r2, #12288	; 0x3000
 8009e3c:	f442 5280 	orr.w	r2, r2, #4096	; 0x1000
 8009e40:	601a      	str	r2, [r3, #0]
 8009e42:	681a      	ldr	r2, [r3, #0]
 8009e44:	f8d3 c000 	ldr.w	ip, [r3]
 8009e48:	f422 4240 	bic.w	r2, r2, #49152	; 0xc000
 8009e4c:	f442 4280 	orr.w	r2, r2, #16384	; 0x4000
 8009e50:	601a      	str	r2, [r3, #0]
 8009e52:	f8de 3000 	ldr.w	r3, [lr]
 8009e56:	f8de 2000 	ldr.w	r2, [lr]
 8009e5a:	f023 6370 	bic.w	r3, r3, #251658240	; 0xf000000
 8009e5e:	f043 63e0 	orr.w	r3, r3, #117440512	; 0x7000000
 8009e62:	f8ce 3000 	str.w	r3, [lr]
 8009e66:	fb88 2306 	smull	r2, r3, r8, r6
 8009e6a:	17f6      	asrs	r6, r6, #31
 8009e6c:	f8de 2000 	ldr.w	r2, [lr]
 8009e70:	f8de c000 	ldr.w	ip, [lr]
 8009e74:	ebc6 3323 	rsb	r3, r6, r3, asr #12
 8009e78:	fb87 6803 	smull	r6, r8, r7, r3
 8009e7c:	17de      	asrs	r6, r3, #31
 8009e7e:	ebc6 1668 	rsb	r6, r6, r8, asr #5
 8009e82:	f022 4c70 	bic.w	ip, r2, #4026531840	; 0xf0000000
 8009e86:	2264      	movs	r2, #100	; 0x64
 8009e88:	fb02 3316 	mls	r3, r2, r6, r3
 8009e8c:	f04c 4ce0 	orr.w	ip, ip, #1879048192	; 0x70000000
 8009e90:	011b      	lsls	r3, r3, #4
 8009e92:	f8ce c000 	str.w	ip, [lr]
 8009e96:	3332      	adds	r3, #50	; 0x32
 8009e98:	9a00      	ldr	r2, [sp, #0]
 8009e9a:	fb87 e703 	smull	lr, r7, r7, r3
 8009e9e:	17db      	asrs	r3, r3, #31
 8009ea0:	ebc3 1367 	rsb	r3, r3, r7, asr #5
 8009ea4:	f363 0203 	bfi	r2, r3, #0, #4
 8009ea8:	9200      	str	r2, [sp, #0]
 8009eaa:	9b00      	ldr	r3, [sp, #0]
 8009eac:	f366 130f 	bfi	r3, r6, #4, #12
 8009eb0:	9300      	str	r3, [sp, #0]
 8009eb2:	9b00      	ldr	r3, [sp, #0]
 8009eb4:	f36f 431f 	bfc	r3, #16, #16
 8009eb8:	9300      	str	r3, [sp, #0]
 8009eba:	9b00      	ldr	r3, [sp, #0]
 8009ebc:	602b      	str	r3, [r5, #0]
 8009ebe:	9b01      	ldr	r3, [sp, #4]
 8009ec0:	f043 0301 	orr.w	r3, r3, #1
 8009ec4:	9301      	str	r3, [sp, #4]
 8009ec6:	9b01      	ldr	r3, [sp, #4]
 8009ec8:	f36f 0341 	bfc	r3, #1, #1
 8009ecc:	9301      	str	r3, [sp, #4]
 8009ece:	9b01      	ldr	r3, [sp, #4]
 8009ed0:	f043 0304 	orr.w	r3, r3, #4
 8009ed4:	9301      	str	r3, [sp, #4]
 8009ed6:	9b01      	ldr	r3, [sp, #4]
 8009ed8:	f043 0308 	orr.w	r3, r3, #8
 8009edc:	9301      	str	r3, [sp, #4]
 8009ede:	9b01      	ldr	r3, [sp, #4]
 8009ee0:	f36f 1304 	bfc	r3, #4, #1
 8009ee4:	9301      	str	r3, [sp, #4]
 8009ee6:	9b01      	ldr	r3, [sp, #4]
 8009ee8:	f36f 1345 	bfc	r3, #5, #1
 8009eec:	9301      	str	r3, [sp, #4]
 8009eee:	9b01      	ldr	r3, [sp, #4]
 8009ef0:	f36f 1386 	bfc	r3, #6, #1
 8009ef4:	9301      	str	r3, [sp, #4]
 8009ef6:	9b01      	ldr	r3, [sp, #4]
 8009ef8:	f36f 13c7 	bfc	r3, #7, #1
 8009efc:	9301      	str	r3, [sp, #4]
 8009efe:	9b01      	ldr	r3, [sp, #4]
 8009f00:	f36f 2308 	bfc	r3, #8, #1
 8009f04:	9301      	str	r3, [sp, #4]
 8009f06:	9b01      	ldr	r3, [sp, #4]
 8009f08:	f36f 2349 	bfc	r3, #9, #1
 8009f0c:	9301      	str	r3, [sp, #4]
 8009f0e:	9b01      	ldr	r3, [sp, #4]
 8009f10:	f36f 238a 	bfc	r3, #10, #1
 8009f14:	9301      	str	r3, [sp, #4]
 8009f16:	9b01      	ldr	r3, [sp, #4]
 8009f18:	f36f 23cb 	bfc	r3, #11, #1
 8009f1c:	9301      	str	r3, [sp, #4]
 8009f1e:	9b01      	ldr	r3, [sp, #4]
 8009f20:	f36f 330c 	bfc	r3, #12, #1
 8009f24:	9301      	str	r3, [sp, #4]
 8009f26:	9b01      	ldr	r3, [sp, #4]
 8009f28:	f36f 334d 	bfc	r3, #13, #1
 8009f2c:	9301      	str	r3, [sp, #4]
 8009f2e:	9b01      	ldr	r3, [sp, #4]
 8009f30:	f36f 338e 	bfc	r3, #14, #1
 8009f34:	9301      	str	r3, [sp, #4]
 8009f36:	9b01      	ldr	r3, [sp, #4]
 8009f38:	f36f 33cf 	bfc	r3, #15, #1
 8009f3c:	9301      	str	r3, [sp, #4]
 8009f3e:	9b01      	ldr	r3, [sp, #4]
 8009f40:	f36f 4314 	bfc	r3, #16, #5
 8009f44:	9301      	str	r3, [sp, #4]
 8009f46:	9b01      	ldr	r3, [sp, #4]
 8009f48:	f36f 5359 	bfc	r3, #21, #5
 8009f4c:	9301      	str	r3, [sp, #4]
 8009f4e:	9b01      	ldr	r3, [sp, #4]
 8009f50:	f36f 639a 	bfc	r3, #26, #1
 8009f54:	9301      	str	r3, [sp, #4]
 8009f56:	9b01      	ldr	r3, [sp, #4]
 8009f58:	f36f 63db 	bfc	r3, #27, #1
 8009f5c:	9301      	str	r3, [sp, #4]
 8009f5e:	9b01      	ldr	r3, [sp, #4]
 8009f60:	f36f 731c 	bfc	r3, #28, #1
 8009f64:	9301      	str	r3, [sp, #4]
 8009f66:	9b01      	ldr	r3, [sp, #4]
 8009f68:	f36f 735f 	bfc	r3, #29, #3
 8009f6c:	9301      	str	r3, [sp, #4]
 8009f6e:	9b01      	ldr	r3, [sp, #4]
 8009f70:	6023      	str	r3, [r4, #0]
 8009f72:	9b02      	ldr	r3, [sp, #8]
 8009f74:	f36f 0303 	bfc	r3, #0, #4
 8009f78:	9302      	str	r3, [sp, #8]
 8009f7a:	9b02      	ldr	r3, [sp, #8]
 8009f7c:	f36f 1304 	bfc	r3, #4, #1
 8009f80:	9302      	str	r3, [sp, #8]
 8009f82:	9b02      	ldr	r3, [sp, #8]
 8009f84:	f36f 1345 	bfc	r3, #5, #1
 8009f88:	9302      	str	r3, [sp, #8]
 8009f8a:	9b02      	ldr	r3, [sp, #8]
 8009f8c:	f36f 1386 	bfc	r3, #6, #1
 8009f90:	9302      	str	r3, [sp, #8]
 8009f92:	9b02      	ldr	r3, [sp, #8]
 8009f94:	f36f 13c7 	bfc	r3, #7, #1
 8009f98:	9302      	str	r3, [sp, #8]
 8009f9a:	9b02      	ldr	r3, [sp, #8]
 8009f9c:	f36f 2308 	bfc	r3, #8, #1
 8009fa0:	9302      	str	r3, [sp, #8]
 8009fa2:	9b02      	ldr	r3, [sp, #8]
 8009fa4:	f36f 2349 	bfc	r3, #9, #1
 8009fa8:	9302      	str	r3, [sp, #8]
 8009faa:	9b02      	ldr	r3, [sp, #8]
 8009fac:	f36f 238a 	bfc	r3, #10, #1
 8009fb0:	9302      	str	r3, [sp, #8]
 8009fb2:	9b02      	ldr	r3, [sp, #8]
 8009fb4:	f36f 23cb 	bfc	r3, #11, #1
 8009fb8:	9302      	str	r3, [sp, #8]
 8009fba:	9b02      	ldr	r3, [sp, #8]
 8009fbc:	f36f 330d 	bfc	r3, #12, #2
 8009fc0:	9302      	str	r3, [sp, #8]
 8009fc2:	9b02      	ldr	r3, [sp, #8]
 8009fc4:	f36f 338e 	bfc	r3, #14, #1
 8009fc8:	9302      	str	r3, [sp, #8]
 8009fca:	9b02      	ldr	r3, [sp, #8]
 8009fcc:	f36f 33cf 	bfc	r3, #15, #1
 8009fd0:	9302      	str	r3, [sp, #8]
 8009fd2:	9b02      	ldr	r3, [sp, #8]
 8009fd4:	f36f 4310 	bfc	r3, #16, #1
 8009fd8:	9302      	str	r3, [sp, #8]
 8009fda:	9b02      	ldr	r3, [sp, #8]
 8009fdc:	f36f 4351 	bfc	r3, #17, #1
 8009fe0:	9302      	str	r3, [sp, #8]
 8009fe2:	9b02      	ldr	r3, [sp, #8]
 8009fe4:	f36f 4392 	bfc	r3, #18, #1
 8009fe8:	9302      	str	r3, [sp, #8]
 8009fea:	9b02      	ldr	r3, [sp, #8]
 8009fec:	f36f 43d3 	bfc	r3, #19, #1
 8009ff0:	9302      	str	r3, [sp, #8]
 8009ff2:	9b02      	ldr	r3, [sp, #8]
 8009ff4:	f36f 5314 	bfc	r3, #20, #1
 8009ff8:	9302      	str	r3, [sp, #8]
 8009ffa:	9b02      	ldr	r3, [sp, #8]
 8009ffc:	f36f 5356 	bfc	r3, #21, #2
 800a000:	9302      	str	r3, [sp, #8]
 800a002:	9b02      	ldr	r3, [sp, #8]
 800a004:	f36f 53d7 	bfc	r3, #23, #1
 800a008:	9302      	str	r3, [sp, #8]
 800a00a:	9b02      	ldr	r3, [sp, #8]
 800a00c:	f36f 631b 	bfc	r3, #24, #4
 800a010:	9302      	str	r3, [sp, #8]
 800a012:	9b02      	ldr	r3, [sp, #8]
 800a014:	f36f 731f 	bfc	r3, #28, #4
 800a018:	9302      	str	r3, [sp, #8]
 800a01a:	9b02      	ldr	r3, [sp, #8]
 800a01c:	6003      	str	r3, [r0, #0]
 800a01e:	9b03      	ldr	r3, [sp, #12]
 800a020:	f36f 0300 	bfc	r3, #0, #1
 800a024:	9303      	str	r3, [sp, #12]
 800a026:	9b03      	ldr	r3, [sp, #12]
 800a028:	f36f 0341 	bfc	r3, #1, #1
 800a02c:	9303      	str	r3, [sp, #12]
 800a02e:	9b03      	ldr	r3, [sp, #12]
 800a030:	f36f 0382 	bfc	r3, #2, #1
 800a034:	9303      	str	r3, [sp, #12]
 800a036:	9b03      	ldr	r3, [sp, #12]
 800a038:	f36f 03c3 	bfc	r3, #3, #1
 800a03c:	9303      	str	r3, [sp, #12]
 800a03e:	9b03      	ldr	r3, [sp, #12]
 800a040:	f36f 1304 	bfc	r3, #4, #1
 800a044:	9303      	str	r3, [sp, #12]
 800a046:	9b03      	ldr	r3, [sp, #12]
 800a048:	f36f 1345 	bfc	r3, #5, #1
 800a04c:	9303      	str	r3, [sp, #12]
 800a04e:	9b03      	ldr	r3, [sp, #12]
 800a050:	f36f 1386 	bfc	r3, #6, #1
 800a054:	9303      	str	r3, [sp, #12]
 800a056:	9b03      	ldr	r3, [sp, #12]
 800a058:	f36f 13c7 	bfc	r3, #7, #1
 800a05c:	9303      	str	r3, [sp, #12]
 800a05e:	9b03      	ldr	r3, [sp, #12]
 800a060:	f36f 2308 	bfc	r3, #8, #1
 800a064:	9303      	str	r3, [sp, #12]
 800a066:	9b03      	ldr	r3, [sp, #12]
 800a068:	e01c      	b.n	800a0a4 <system__text_io__initialize+0x33c>
 800a06a:	bf00      	nop
 800a06c:	200002c8 	.word	0x200002c8
 800a070:	48000408 	.word	0x48000408
 800a074:	4800040c 	.word	0x4800040c
 800a078:	51eb851f 	.word	0x51eb851f
 800a07c:	4001380c 	.word	0x4001380c
 800a080:	40013800 	.word	0x40013800
 800a084:	40013804 	.word	0x40013804
 800a088:	40013808 	.word	0x40013808
 800a08c:	40021060 	.word	0x40021060
 800a090:	4002104c 	.word	0x4002104c
 800a094:	48000400 	.word	0x48000400
 800a098:	48000404 	.word	0x48000404
 800a09c:	48000420 	.word	0x48000420
 800a0a0:	38e38e39 	.word	0x38e38e39
 800a0a4:	f36f 2349 	bfc	r3, #9, #1
 800a0a8:	9303      	str	r3, [sp, #12]
 800a0aa:	9b03      	ldr	r3, [sp, #12]
 800a0ac:	f36f 238a 	bfc	r3, #10, #1
 800a0b0:	9303      	str	r3, [sp, #12]
 800a0b2:	9b03      	ldr	r3, [sp, #12]
 800a0b4:	f36f 23cb 	bfc	r3, #11, #1
 800a0b8:	9303      	str	r3, [sp, #12]
 800a0ba:	9b03      	ldr	r3, [sp, #12]
 800a0bc:	f36f 330c 	bfc	r3, #12, #1
 800a0c0:	9303      	str	r3, [sp, #12]
 800a0c2:	9b03      	ldr	r3, [sp, #12]
 800a0c4:	f36f 334d 	bfc	r3, #13, #1
 800a0c8:	9303      	str	r3, [sp, #12]
 800a0ca:	9b03      	ldr	r3, [sp, #12]
 800a0cc:	f36f 338e 	bfc	r3, #14, #1
 800a0d0:	9303      	str	r3, [sp, #12]
 800a0d2:	9b03      	ldr	r3, [sp, #12]
 800a0d4:	f36f 33cf 	bfc	r3, #15, #1
 800a0d8:	9303      	str	r3, [sp, #12]
 800a0da:	9b03      	ldr	r3, [sp, #12]
 800a0dc:	f36f 4310 	bfc	r3, #16, #1
 800a0e0:	9303      	str	r3, [sp, #12]
 800a0e2:	9b03      	ldr	r3, [sp, #12]
 800a0e4:	f36f 4353 	bfc	r3, #17, #3
 800a0e8:	9303      	str	r3, [sp, #12]
 800a0ea:	9b03      	ldr	r3, [sp, #12]
 800a0ec:	f36f 5315 	bfc	r3, #20, #2
 800a0f0:	9303      	str	r3, [sp, #12]
 800a0f2:	9b03      	ldr	r3, [sp, #12]
 800a0f4:	f36f 5396 	bfc	r3, #22, #1
 800a0f8:	9303      	str	r3, [sp, #12]
 800a0fa:	9b03      	ldr	r3, [sp, #12]
 800a0fc:	f36f 53df 	bfc	r3, #23, #9
 800a100:	9303      	str	r3, [sp, #12]
 800a102:	9b03      	ldr	r3, [sp, #12]
 800a104:	600b      	str	r3, [r1, #0]
 800a106:	b00b      	add	sp, #44	; 0x2c
 800a108:	e8bd 8ff0 	ldmia.w	sp!, {r4, r5, r6, r7, r8, r9, sl, fp, pc}

0800a10c <system__text_io__is_tx_ready>:
 800a10c:	4b02      	ldr	r3, [pc, #8]	; (800a118 <system__text_io__is_tx_ready+0xc>)
 800a10e:	6818      	ldr	r0, [r3, #0]
 800a110:	f3c0 1080 	ubfx	r0, r0, #6, #1
 800a114:	4770      	bx	lr
 800a116:	bf00      	nop
 800a118:	4001381c 	.word	0x4001381c

0800a11c <system__text_io__put>:
 800a11c:	4a02      	ldr	r2, [pc, #8]	; (800a128 <system__text_io__put+0xc>)
 800a11e:	6813      	ldr	r3, [r2, #0]
 800a120:	f360 0308 	bfi	r3, r0, #0, #9
 800a124:	6013      	str	r3, [r2, #0]
 800a126:	4770      	bx	lr
 800a128:	40013828 	.word	0x40013828

0800a12c <system__text_io__use_cr_lf_for_new_line>:
 800a12c:	2001      	movs	r0, #1
 800a12e:	4770      	bx	lr

0800a130 <_ada_setup_pll>:
 800a130:	b510      	push	{r4, lr}
 800a132:	b084      	sub	sp, #16
 800a134:	4970      	ldr	r1, [pc, #448]	; (800a2f8 <_ada_setup_pll+0x1c8>)
 800a136:	4b71      	ldr	r3, [pc, #452]	; (800a2fc <_ada_setup_pll+0x1cc>)
 800a138:	680a      	ldr	r2, [r1, #0]
 800a13a:	f042 5280 	orr.w	r2, r2, #268435456	; 0x10000000
 800a13e:	600a      	str	r2, [r1, #0]
 800a140:	681a      	ldr	r2, [r3, #0]
 800a142:	f042 5280 	orr.w	r2, r2, #268435456	; 0x10000000
 800a146:	601a      	str	r2, [r3, #0]
 800a148:	681a      	ldr	r2, [r3, #0]
 800a14a:	f36f 721c 	bfc	r2, #28, #1
 800a14e:	601a      	str	r2, [r3, #0]
 800a150:	f000 fc5c 	bl	800aa0c <system__bb__mcu_parameters__pwr_initialize>
 800a154:	4b6a      	ldr	r3, [pc, #424]	; (800a300 <_ada_setup_pll+0x1d0>)
 800a156:	681a      	ldr	r2, [r3, #0]
 800a158:	2106      	movs	r1, #6
 800a15a:	f361 1207 	bfi	r2, r1, #4, #4
 800a15e:	601a      	str	r2, [r3, #0]
 800a160:	681a      	ldr	r2, [r3, #0]
 800a162:	f042 0208 	orr.w	r2, r2, #8
 800a166:	601a      	str	r2, [r3, #0]
 800a168:	681a      	ldr	r2, [r3, #0]
 800a16a:	f042 0201 	orr.w	r2, r2, #1
 800a16e:	601a      	str	r2, [r3, #0]
 800a170:	681a      	ldr	r2, [r3, #0]
 800a172:	0791      	lsls	r1, r2, #30
 800a174:	d5fc      	bpl.n	800a170 <_ada_setup_pll+0x40>
 800a176:	681a      	ldr	r2, [r3, #0]
 800a178:	4962      	ldr	r1, [pc, #392]	; (800a304 <_ada_setup_pll+0x1d4>)
 800a17a:	f36f 6218 	bfc	r2, #24, #1
 800a17e:	601a      	str	r2, [r3, #0]
 800a180:	9a03      	ldr	r2, [sp, #12]
 800a182:	2001      	movs	r0, #1
 800a184:	f360 0201 	bfi	r2, r0, #0, #2
 800a188:	9203      	str	r2, [sp, #12]
 800a18a:	9a03      	ldr	r2, [sp, #12]
 800a18c:	f36f 0283 	bfc	r2, #2, #2
 800a190:	9203      	str	r2, [sp, #12]
 800a192:	9a03      	ldr	r2, [sp, #12]
 800a194:	f36f 1206 	bfc	r2, #4, #3
 800a198:	9203      	str	r2, [sp, #12]
 800a19a:	9a03      	ldr	r2, [sp, #12]
 800a19c:	f36f 12c7 	bfc	r2, #7, #1
 800a1a0:	9203      	str	r2, [sp, #12]
 800a1a2:	9a03      	ldr	r2, [sp, #12]
 800a1a4:	2428      	movs	r4, #40	; 0x28
 800a1a6:	f364 220e 	bfi	r2, r4, #8, #7
 800a1aa:	9203      	str	r2, [sp, #12]
 800a1ac:	9a03      	ldr	r2, [sp, #12]
 800a1ae:	f36f 32cf 	bfc	r2, #15, #1
 800a1b2:	9203      	str	r2, [sp, #12]
 800a1b4:	9a03      	ldr	r2, [sp, #12]
 800a1b6:	f36f 4210 	bfc	r2, #16, #1
 800a1ba:	9203      	str	r2, [sp, #12]
 800a1bc:	9a03      	ldr	r2, [sp, #12]
 800a1be:	f36f 4251 	bfc	r2, #17, #1
 800a1c2:	9203      	str	r2, [sp, #12]
 800a1c4:	9a03      	ldr	r2, [sp, #12]
 800a1c6:	f36f 4293 	bfc	r2, #18, #2
 800a1ca:	9203      	str	r2, [sp, #12]
 800a1cc:	9a03      	ldr	r2, [sp, #12]
 800a1ce:	f36f 5214 	bfc	r2, #20, #1
 800a1d2:	9203      	str	r2, [sp, #12]
 800a1d4:	9a03      	ldr	r2, [sp, #12]
 800a1d6:	f360 5256 	bfi	r2, r0, #21, #2
 800a1da:	9203      	str	r2, [sp, #12]
 800a1dc:	9a03      	ldr	r2, [sp, #12]
 800a1de:	f36f 52d7 	bfc	r2, #23, #1
 800a1e2:	9203      	str	r2, [sp, #12]
 800a1e4:	9a03      	ldr	r2, [sp, #12]
 800a1e6:	f042 7280 	orr.w	r2, r2, #16777216	; 0x1000000
 800a1ea:	9203      	str	r2, [sp, #12]
 800a1ec:	9a03      	ldr	r2, [sp, #12]
 800a1ee:	f36f 625a 	bfc	r2, #25, #2
 800a1f2:	9203      	str	r2, [sp, #12]
 800a1f4:	9a03      	ldr	r2, [sp, #12]
 800a1f6:	2007      	movs	r0, #7
 800a1f8:	f360 62df 	bfi	r2, r0, #27, #5
 800a1fc:	9203      	str	r2, [sp, #12]
 800a1fe:	9a03      	ldr	r2, [sp, #12]
 800a200:	600a      	str	r2, [r1, #0]
 800a202:	681a      	ldr	r2, [r3, #0]
 800a204:	f042 7280 	orr.w	r2, r2, #16777216	; 0x1000000
 800a208:	601a      	str	r2, [r3, #0]
 800a20a:	681a      	ldr	r2, [r3, #0]
 800a20c:	0192      	lsls	r2, r2, #6
 800a20e:	d5fc      	bpl.n	800a20a <_ada_setup_pll+0xda>
 800a210:	f000 fbfe 	bl	800aa10 <system__bb__mcu_parameters__pwr_overdrive_enable>
 800a214:	4b3c      	ldr	r3, [pc, #240]	; (800a308 <_ada_setup_pll+0x1d8>)
 800a216:	4a3d      	ldr	r2, [pc, #244]	; (800a30c <_ada_setup_pll+0x1dc>)
 800a218:	6819      	ldr	r1, [r3, #0]
 800a21a:	f36f 2149 	bfc	r1, #9, #1
 800a21e:	6019      	str	r1, [r3, #0]
 800a220:	6819      	ldr	r1, [r3, #0]
 800a222:	f36f 218a 	bfc	r1, #10, #1
 800a226:	6019      	str	r1, [r3, #0]
 800a228:	6819      	ldr	r1, [r3, #0]
 800a22a:	f441 6100 	orr.w	r1, r1, #2048	; 0x800
 800a22e:	6019      	str	r1, [r3, #0]
 800a230:	6819      	ldr	r1, [r3, #0]
 800a232:	f441 5180 	orr.w	r1, r1, #4096	; 0x1000
 800a236:	6019      	str	r1, [r3, #0]
 800a238:	9902      	ldr	r1, [sp, #8]
 800a23a:	2005      	movs	r0, #5
 800a23c:	f360 0102 	bfi	r1, r0, #0, #3
 800a240:	9102      	str	r1, [sp, #8]
 800a242:	9902      	ldr	r1, [sp, #8]
 800a244:	f36f 01c7 	bfc	r1, #3, #5
 800a248:	9102      	str	r1, [sp, #8]
 800a24a:	9902      	ldr	r1, [sp, #8]
 800a24c:	f441 7180 	orr.w	r1, r1, #256	; 0x100
 800a250:	9102      	str	r1, [sp, #8]
 800a252:	9902      	ldr	r1, [sp, #8]
 800a254:	f441 7100 	orr.w	r1, r1, #512	; 0x200
 800a258:	9102      	str	r1, [sp, #8]
 800a25a:	9902      	ldr	r1, [sp, #8]
 800a25c:	f441 6180 	orr.w	r1, r1, #1024	; 0x400
 800a260:	9102      	str	r1, [sp, #8]
 800a262:	9902      	ldr	r1, [sp, #8]
 800a264:	f36f 21cb 	bfc	r1, #11, #1
 800a268:	9102      	str	r1, [sp, #8]
 800a26a:	9902      	ldr	r1, [sp, #8]
 800a26c:	f36f 310c 	bfc	r1, #12, #1
 800a270:	9102      	str	r1, [sp, #8]
 800a272:	9902      	ldr	r1, [sp, #8]
 800a274:	f36f 314d 	bfc	r1, #13, #1
 800a278:	9102      	str	r1, [sp, #8]
 800a27a:	9902      	ldr	r1, [sp, #8]
 800a27c:	f36f 318e 	bfc	r1, #14, #1
 800a280:	9102      	str	r1, [sp, #8]
 800a282:	9902      	ldr	r1, [sp, #8]
 800a284:	f36f 31df 	bfc	r1, #15, #17
 800a288:	9102      	str	r1, [sp, #8]
 800a28a:	9902      	ldr	r1, [sp, #8]
 800a28c:	6019      	str	r1, [r3, #0]
 800a28e:	9b01      	ldr	r3, [sp, #4]
 800a290:	f043 0303 	orr.w	r3, r3, #3
 800a294:	9301      	str	r3, [sp, #4]
 800a296:	9b01      	ldr	r3, [sp, #4]
 800a298:	f36f 0383 	bfc	r3, #2, #2
 800a29c:	9301      	str	r3, [sp, #4]
 800a29e:	9b01      	ldr	r3, [sp, #4]
 800a2a0:	f36f 1307 	bfc	r3, #4, #4
 800a2a4:	9301      	str	r3, [sp, #4]
 800a2a6:	9b01      	ldr	r3, [sp, #4]
 800a2a8:	f36f 230d 	bfc	r3, #8, #6
 800a2ac:	9301      	str	r3, [sp, #4]
 800a2ae:	9b01      	ldr	r3, [sp, #4]
 800a2b0:	f36f 338e 	bfc	r3, #14, #1
 800a2b4:	9301      	str	r3, [sp, #4]
 800a2b6:	9b01      	ldr	r3, [sp, #4]
 800a2b8:	f36f 33cf 	bfc	r3, #15, #1
 800a2bc:	9301      	str	r3, [sp, #4]
 800a2be:	9b01      	ldr	r3, [sp, #4]
 800a2c0:	f36f 4317 	bfc	r3, #16, #8
 800a2c4:	9301      	str	r3, [sp, #4]
 800a2c6:	9b01      	ldr	r3, [sp, #4]
 800a2c8:	f36f 631a 	bfc	r3, #24, #3
 800a2cc:	9301      	str	r3, [sp, #4]
 800a2ce:	9b01      	ldr	r3, [sp, #4]
 800a2d0:	f36f 63db 	bfc	r3, #27, #1
 800a2d4:	9301      	str	r3, [sp, #4]
 800a2d6:	9b01      	ldr	r3, [sp, #4]
 800a2d8:	f36f 731e 	bfc	r3, #28, #3
 800a2dc:	9301      	str	r3, [sp, #4]
 800a2de:	9b01      	ldr	r3, [sp, #4]
 800a2e0:	f36f 73df 	bfc	r3, #31, #1
 800a2e4:	9301      	str	r3, [sp, #4]
 800a2e6:	9b01      	ldr	r3, [sp, #4]
 800a2e8:	6013      	str	r3, [r2, #0]
 800a2ea:	6813      	ldr	r3, [r2, #0]
 800a2ec:	f003 030c 	and.w	r3, r3, #12
 800a2f0:	2b0c      	cmp	r3, #12
 800a2f2:	d1fa      	bne.n	800a2ea <_ada_setup_pll+0x1ba>
 800a2f4:	b004      	add	sp, #16
 800a2f6:	bd10      	pop	{r4, pc}
 800a2f8:	40021058 	.word	0x40021058
 800a2fc:	40021038 	.word	0x40021038
 800a300:	40021000 	.word	0x40021000
 800a304:	4002100c 	.word	0x4002100c
 800a308:	40022000 	.word	0x40022000
 800a30c:	40021008 	.word	0x40021008

0800a310 <system__stm32__system_clocks>:
 800a310:	b4f0      	push	{r4, r5, r6, r7}
 800a312:	4c3b      	ldr	r4, [pc, #236]	; (800a400 <system__stm32__system_clocks+0xf0>)
 800a314:	6823      	ldr	r3, [r4, #0]
 800a316:	f3c3 0381 	ubfx	r3, r3, #2, #2
 800a31a:	2b01      	cmp	r3, #1
 800a31c:	d05e      	beq.n	800a3dc <system__stm32__system_clocks+0xcc>
 800a31e:	d35a      	bcc.n	800a3d6 <system__stm32__system_clocks+0xc6>
 800a320:	2b02      	cmp	r3, #2
 800a322:	d141      	bne.n	800a3a8 <system__stm32__system_clocks+0x98>
 800a324:	4937      	ldr	r1, [pc, #220]	; (800a404 <system__stm32__system_clocks+0xf4>)
 800a326:	6001      	str	r1, [r0, #0]
 800a328:	6822      	ldr	r2, [r4, #0]
 800a32a:	f04f 0300 	mov.w	r3, #0
 800a32e:	f3c2 1203 	ubfx	r2, r2, #4, #4
 800a332:	f362 0303 	bfi	r3, r2, #0, #4
 800a336:	f003 0207 	and.w	r2, r3, #7
 800a33a:	071b      	lsls	r3, r3, #28
 800a33c:	bf44      	itt	mi
 800a33e:	4b32      	ldrmi	r3, [pc, #200]	; (800a408 <system__stm32__system_clocks+0xf8>)
 800a340:	f853 6022 	ldrmi.w	r6, [r3, r2, lsl #2]
 800a344:	6822      	ldr	r2, [r4, #0]
 800a346:	f04f 0300 	mov.w	r3, #0
 800a34a:	f3c2 2205 	ubfx	r2, r2, #8, #6
 800a34e:	f362 0302 	bfi	r3, r2, #0, #3
 800a352:	f3c3 0580 	ubfx	r5, r3, #2, #1
 800a356:	bf58      	it	pl
 800a358:	2601      	movpl	r6, #1
 800a35a:	f003 0303 	and.w	r3, r3, #3
 800a35e:	2d00      	cmp	r5, #0
 800a360:	d037      	beq.n	800a3d2 <system__stm32__system_clocks+0xc2>
 800a362:	4a2a      	ldr	r2, [pc, #168]	; (800a40c <system__stm32__system_clocks+0xfc>)
 800a364:	f852 2023 	ldr.w	r2, [r2, r3, lsl #2]
 800a368:	6824      	ldr	r4, [r4, #0]
 800a36a:	f04f 0300 	mov.w	r3, #0
 800a36e:	f3c4 24c2 	ubfx	r4, r4, #11, #3
 800a372:	f364 0302 	bfi	r3, r4, #0, #3
 800a376:	f3c3 0480 	ubfx	r4, r3, #2, #1
 800a37a:	f003 0303 	and.w	r3, r3, #3
 800a37e:	b334      	cbz	r4, 800a3ce <system__stm32__system_clocks+0xbe>
 800a380:	4f22      	ldr	r7, [pc, #136]	; (800a40c <system__stm32__system_clocks+0xfc>)
 800a382:	f857 3023 	ldr.w	r3, [r7, r3, lsl #2]
 800a386:	fbb1 f1f6 	udiv	r1, r1, r6
 800a38a:	fbb1 f2f2 	udiv	r2, r1, r2
 800a38e:	fbb1 f3f3 	udiv	r3, r1, r3
 800a392:	6082      	str	r2, [r0, #8]
 800a394:	60c3      	str	r3, [r0, #12]
 800a396:	6041      	str	r1, [r0, #4]
 800a398:	b105      	cbz	r5, 800a39c <system__stm32__system_clocks+0x8c>
 800a39a:	0052      	lsls	r2, r2, #1
 800a39c:	6102      	str	r2, [r0, #16]
 800a39e:	b104      	cbz	r4, 800a3a2 <system__stm32__system_clocks+0x92>
 800a3a0:	005b      	lsls	r3, r3, #1
 800a3a2:	6143      	str	r3, [r0, #20]
 800a3a4:	bcf0      	pop	{r4, r5, r6, r7}
 800a3a6:	4770      	bx	lr
 800a3a8:	4b19      	ldr	r3, [pc, #100]	; (800a410 <system__stm32__system_clocks+0x100>)
 800a3aa:	681a      	ldr	r2, [r3, #0]
 800a3ac:	6819      	ldr	r1, [r3, #0]
 800a3ae:	681b      	ldr	r3, [r3, #0]
 800a3b0:	f003 0303 	and.w	r3, r3, #3
 800a3b4:	2b02      	cmp	r3, #2
 800a3b6:	f3c2 1202 	ubfx	r2, r2, #4, #3
 800a3ba:	f3c1 2106 	ubfx	r1, r1, #8, #7
 800a3be:	d010      	beq.n	800a3e2 <system__stm32__system_clocks+0xd2>
 800a3c0:	d816      	bhi.n	800a3f0 <system__stm32__system_clocks+0xe0>
 800a3c2:	2b01      	cmp	r3, #1
 800a3c4:	4913      	ldr	r1, [pc, #76]	; (800a414 <system__stm32__system_clocks+0x104>)
 800a3c6:	bf18      	it	ne
 800a3c8:	2100      	movne	r1, #0
 800a3ca:	6001      	str	r1, [r0, #0]
 800a3cc:	e7ac      	b.n	800a328 <system__stm32__system_clocks+0x18>
 800a3ce:	2301      	movs	r3, #1
 800a3d0:	e7d9      	b.n	800a386 <system__stm32__system_clocks+0x76>
 800a3d2:	2201      	movs	r2, #1
 800a3d4:	e7c8      	b.n	800a368 <system__stm32__system_clocks+0x58>
 800a3d6:	4910      	ldr	r1, [pc, #64]	; (800a418 <system__stm32__system_clocks+0x108>)
 800a3d8:	6001      	str	r1, [r0, #0]
 800a3da:	e7a5      	b.n	800a328 <system__stm32__system_clocks+0x18>
 800a3dc:	490f      	ldr	r1, [pc, #60]	; (800a41c <system__stm32__system_clocks+0x10c>)
 800a3de:	6001      	str	r1, [r0, #0]
 800a3e0:	e7a2      	b.n	800a328 <system__stm32__system_clocks+0x18>
 800a3e2:	4b0e      	ldr	r3, [pc, #56]	; (800a41c <system__stm32__system_clocks+0x10c>)
 800a3e4:	fbb3 f2f2 	udiv	r2, r3, r2
 800a3e8:	fb01 f102 	mul.w	r1, r1, r2
 800a3ec:	0889      	lsrs	r1, r1, #2
 800a3ee:	e7ec      	b.n	800a3ca <system__stm32__system_clocks+0xba>
 800a3f0:	4b04      	ldr	r3, [pc, #16]	; (800a404 <system__stm32__system_clocks+0xf4>)
 800a3f2:	fbb3 f2f2 	udiv	r2, r3, r2
 800a3f6:	fb01 f102 	mul.w	r1, r1, r2
 800a3fa:	0889      	lsrs	r1, r1, #2
 800a3fc:	e7e5      	b.n	800a3ca <system__stm32__system_clocks+0xba>
 800a3fe:	bf00      	nop
 800a400:	40021008 	.word	0x40021008
 800a404:	007a1200 	.word	0x007a1200
 800a408:	0800ee54 	.word	0x0800ee54
 800a40c:	0800ee74 	.word	0x0800ee74
 800a410:	4002100c 	.word	0x4002100c
 800a414:	04c4b400 	.word	0x04c4b400
 800a418:	003d0900 	.word	0x003d0900
 800a41c:	00f42400 	.word	0x00f42400

0800a420 <_stm32_start_common>:
 800a420:	f64e 5088 	movw	r0, #60808	; 0xed88
 800a424:	f2ce 0000 	movt	r0, #57344	; 0xe000
 800a428:	6801      	ldr	r1, [r0, #0]
 800a42a:	f441 0170 	orr.w	r1, r1, #15728640	; 0xf00000
 800a42e:	6001      	str	r1, [r0, #0]
 800a430:	f3bf 8f4f 	dsb	sy
 800a434:	f3bf 8f6f 	isb	sy
 800a438:	4829      	ldr	r0, [pc, #164]	; (800a4e0 <end+0x4>)
 800a43a:	6801      	ldr	r1, [r0, #0]
 800a43c:	f640 72ff 	movw	r2, #4095	; 0xfff
 800a440:	ea01 0102 	and.w	r1, r1, r2
 800a444:	f240 4249 	movw	r2, #1097	; 0x449
 800a448:	4291      	cmp	r1, r2
 800a44a:	d147      	bne.n	800a4dc <end>

0800a44c <dcache_invalidate>:
 800a44c:	f04f 0100 	mov.w	r1, #0
 800a450:	4824      	ldr	r0, [pc, #144]	; (800a4e4 <end+0x8>)
 800a452:	6001      	str	r1, [r0, #0]
 800a454:	f3bf 8f4f 	dsb	sy
 800a458:	4823      	ldr	r0, [pc, #140]	; (800a4e8 <end+0xc>)
 800a45a:	6802      	ldr	r2, [r0, #0]
 800a45c:	f002 0107 	and.w	r1, r2, #7
 800a460:	f101 0704 	add.w	r7, r1, #4
 800a464:	f3c2 04c9 	ubfx	r4, r2, #3, #10
 800a468:	f3c2 324e 	ubfx	r2, r2, #13, #15
 800a46c:	fab4 f684 	clz	r6, r4
 800a470:	481e      	ldr	r0, [pc, #120]	; (800a4ec <end+0x10>)

0800a472 <inv_loop1>:
 800a472:	4621      	mov	r1, r4
 800a474:	fa12 f807 	lsls.w	r8, r2, r7

0800a478 <inv_loop2>:
 800a478:	fa11 f306 	lsls.w	r3, r1, r6
 800a47c:	ea53 0308 	orrs.w	r3, r3, r8
 800a480:	6003      	str	r3, [r0, #0]
 800a482:	3901      	subs	r1, #1
 800a484:	daf8      	bge.n	800a478 <inv_loop2>
 800a486:	3a01      	subs	r2, #1
 800a488:	daf3      	bge.n	800a472 <inv_loop1>
 800a48a:	f3bf 8f4f 	dsb	sy
 800a48e:	f3bf 8f6f 	isb	sy

0800a492 <icache_invalidate>:
 800a492:	f04f 0100 	mov.w	r1, #0
 800a496:	4816      	ldr	r0, [pc, #88]	; (800a4f0 <end+0x14>)
 800a498:	6001      	str	r1, [r0, #0]
 800a49a:	f3bf 8f4f 	dsb	sy
 800a49e:	f3bf 8f6f 	isb	sy
 800a4a2:	4814      	ldr	r0, [pc, #80]	; (800a4f4 <end+0x18>)
 800a4a4:	6801      	ldr	r1, [r0, #0]
 800a4a6:	f441 3180 	orr.w	r1, r1, #65536	; 0x10000
 800a4aa:	f441 3100 	orr.w	r1, r1, #131072	; 0x20000
 800a4ae:	6001      	str	r1, [r0, #0]
 800a4b0:	f3bf 8f4f 	dsb	sy
 800a4b4:	f3bf 8f6f 	isb	sy
 800a4b8:	f3bf 8f4f 	dsb	sy
 800a4bc:	f3bf 8f6f 	isb	sy
 800a4c0:	480d      	ldr	r0, [pc, #52]	; (800a4f8 <end+0x1c>)
 800a4c2:	6801      	ldr	r1, [r0, #0]
 800a4c4:	f041 0101 	orr.w	r1, r1, #1
 800a4c8:	6001      	str	r1, [r0, #0]
 800a4ca:	480c      	ldr	r0, [pc, #48]	; (800a4fc <end+0x20>)
 800a4cc:	6801      	ldr	r1, [r0, #0]
 800a4ce:	f041 0101 	orr.w	r1, r1, #1
 800a4d2:	6001      	str	r1, [r0, #0]
 800a4d4:	f3bf 8f4f 	dsb	sy
 800a4d8:	f3bf 8f6f 	isb	sy

0800a4dc <end>:
 800a4dc:	4770      	bx	lr
 800a4de:	0000      	.short	0x0000
 800a4e0:	e0042000 	.word	0xe0042000
 800a4e4:	e000ed84 	.word	0xe000ed84
 800a4e8:	e000ed80 	.word	0xe000ed80
 800a4ec:	e000ef60 	.word	0xe000ef60
 800a4f0:	e000ef50 	.word	0xe000ef50
 800a4f4:	e000ed14 	.word	0xe000ed14
 800a4f8:	e000ef90 	.word	0xe000ef90
 800a4fc:	e000ef94 	.word	0xe000ef94

0800a500 <__gnat_get_executable_load_address>:
 800a500:	2000      	movs	r0, #0
 800a502:	4770      	bx	lr

0800a504 <__gnat_last_chance_handler>:
 800a504:	e92d 47f0 	stmdb	sp!, {r4, r5, r6, r7, r8, r9, sl, lr}
 800a508:	b08a      	sub	sp, #40	; 0x28
 800a50a:	af00      	add	r7, sp, #0
 800a50c:	4604      	mov	r4, r0
 800a50e:	f7ff fad7 	bl	8009ac0 <system__secondary_stack__ss_mark>
 800a512:	4680      	mov	r8, r0
 800a514:	484e      	ldr	r0, [pc, #312]	; (800a650 <__gnat_last_chance_handler+0x14c>)
 800a516:	f100 0118 	add.w	r1, r0, #24
 800a51a:	f000 f94b 	bl	800a7b4 <system__io__put_line>
 800a51e:	4638      	mov	r0, r7
 800a520:	4621      	mov	r1, r4
 800a522:	46ea      	mov	sl, sp
 800a524:	f7fe fcc8 	bl	8008eb8 <ada__exceptions__exception_name__2>
 800a528:	687a      	ldr	r2, [r7, #4]
 800a52a:	4d4a      	ldr	r5, [pc, #296]	; (800a654 <__gnat_last_chance_handler+0x150>)
 800a52c:	6816      	ldr	r6, [r2, #0]
 800a52e:	6853      	ldr	r3, [r2, #4]
 800a530:	f8d7 c000 	ldr.w	ip, [r7]
 800a534:	42b3      	cmp	r3, r6
 800a536:	bfa6      	itte	ge
 800a538:	1b9e      	subge	r6, r3, r6
 800a53a:	3601      	addge	r6, #1
 800a53c:	2600      	movlt	r6, #0
 800a53e:	3619      	adds	r6, #25
 800a540:	cd0f      	ldmia	r5!, {r0, r1, r2, r3}
 800a542:	ea26 7ee6 	bic.w	lr, r6, r6, asr #31
 800a546:	f10e 0e07 	add.w	lr, lr, #7
 800a54a:	f02e 0e07 	bic.w	lr, lr, #7
 800a54e:	ebad 0d0e 	sub.w	sp, sp, lr
 800a552:	9000      	str	r0, [sp, #0]
 800a554:	9101      	str	r1, [sp, #4]
 800a556:	9202      	str	r2, [sp, #8]
 800a558:	9303      	str	r3, [sp, #12]
 800a55a:	cd03      	ldmia	r5!, {r0, r1}
 800a55c:	9004      	str	r0, [sp, #16]
 800a55e:	9105      	str	r1, [sp, #20]
 800a560:	782b      	ldrb	r3, [r5, #0]
 800a562:	f88d 3018 	strb.w	r3, [sp, #24]
 800a566:	2e19      	cmp	r6, #25
 800a568:	4632      	mov	r2, r6
 800a56a:	bfb8      	it	lt
 800a56c:	2219      	movlt	r2, #25
 800a56e:	4661      	mov	r1, ip
 800a570:	3a19      	subs	r2, #25
 800a572:	f10d 0019 	add.w	r0, sp, #25
 800a576:	f7fd fed3 	bl	8008320 <memcpy>
 800a57a:	2301      	movs	r3, #1
 800a57c:	4668      	mov	r0, sp
 800a57e:	f107 010c 	add.w	r1, r7, #12
 800a582:	613e      	str	r6, [r7, #16]
 800a584:	60fb      	str	r3, [r7, #12]
 800a586:	f000 f915 	bl	800a7b4 <system__io__put_line>
 800a58a:	4638      	mov	r0, r7
 800a58c:	46d5      	mov	sp, sl
 800a58e:	4621      	mov	r1, r4
 800a590:	f7fe fc42 	bl	8008e18 <ada__exceptions__exception_message>
 800a594:	687a      	ldr	r2, [r7, #4]
 800a596:	683e      	ldr	r6, [r7, #0]
 800a598:	6815      	ldr	r5, [r2, #0]
 800a59a:	6853      	ldr	r3, [r2, #4]
 800a59c:	42ab      	cmp	r3, r5
 800a59e:	bfa6      	itte	ge
 800a5a0:	1b5d      	subge	r5, r3, r5
 800a5a2:	3501      	addge	r5, #1
 800a5a4:	2500      	movlt	r5, #0
 800a5a6:	3509      	adds	r5, #9
 800a5a8:	4b2b      	ldr	r3, [pc, #172]	; (800a658 <__gnat_last_chance_handler+0x154>)
 800a5aa:	ea25 72e5 	bic.w	r2, r5, r5, asr #31
 800a5ae:	cb03      	ldmia	r3!, {r0, r1}
 800a5b0:	3207      	adds	r2, #7
 800a5b2:	f022 0207 	bic.w	r2, r2, #7
 800a5b6:	ebad 0d02 	sub.w	sp, sp, r2
 800a5ba:	2d09      	cmp	r5, #9
 800a5bc:	781b      	ldrb	r3, [r3, #0]
 800a5be:	9000      	str	r0, [sp, #0]
 800a5c0:	462a      	mov	r2, r5
 800a5c2:	bfb8      	it	lt
 800a5c4:	2209      	movlt	r2, #9
 800a5c6:	9101      	str	r1, [sp, #4]
 800a5c8:	f88d 3008 	strb.w	r3, [sp, #8]
 800a5cc:	4631      	mov	r1, r6
 800a5ce:	f10d 0009 	add.w	r0, sp, #9
 800a5d2:	3a09      	subs	r2, #9
 800a5d4:	f7fd fea4 	bl	8008320 <memcpy>
 800a5d8:	2301      	movs	r3, #1
 800a5da:	4668      	mov	r0, sp
 800a5dc:	f107 0114 	add.w	r1, r7, #20
 800a5e0:	61bd      	str	r5, [r7, #24]
 800a5e2:	617b      	str	r3, [r7, #20]
 800a5e4:	f000 f8e6 	bl	800a7b4 <system__io__put_line>
 800a5e8:	481c      	ldr	r0, [pc, #112]	; (800a65c <__gnat_last_chance_handler+0x158>)
 800a5ea:	46d5      	mov	sp, sl
 800a5ec:	f100 0120 	add.w	r1, r0, #32
 800a5f0:	f000 f8e0 	bl	800a7b4 <system__io__put_line>
 800a5f4:	f8d4 60dc 	ldr.w	r6, [r4, #220]	; 0xdc
 800a5f8:	2e00      	cmp	r6, #0
 800a5fa:	dd14      	ble.n	800a626 <__gnat_last_chance_handler+0x122>
 800a5fc:	34e0      	adds	r4, #224	; 0xe0
 800a5fe:	2500      	movs	r5, #0
 800a600:	f107 001c 	add.w	r0, r7, #28
 800a604:	6821      	ldr	r1, [r4, #0]
 800a606:	3501      	adds	r5, #1
 800a608:	f000 f9ea 	bl	800a9e0 <gnat__debug_utilities__image_c>
 800a60c:	f107 001c 	add.w	r0, r7, #28
 800a610:	4913      	ldr	r1, [pc, #76]	; (800a660 <__gnat_last_chance_handler+0x15c>)
 800a612:	f000 f8bf 	bl	800a794 <system__io__put__3>
 800a616:	4813      	ldr	r0, [pc, #76]	; (800a664 <__gnat_last_chance_handler+0x160>)
 800a618:	1d01      	adds	r1, r0, #4
 800a61a:	f000 f8bb 	bl	800a794 <system__io__put__3>
 800a61e:	42ae      	cmp	r6, r5
 800a620:	f104 0404 	add.w	r4, r4, #4
 800a624:	d1ec      	bne.n	800a600 <__gnat_last_chance_handler+0xfc>
 800a626:	2001      	movs	r0, #1
 800a628:	f000 f89c 	bl	800a764 <system__io__new_line>
 800a62c:	f7fd f80e 	bl	800764c <system__bb__threads__sleep>
 800a630:	480d      	ldr	r0, [pc, #52]	; (800a668 <__gnat_last_chance_handler+0x164>)
 800a632:	213e      	movs	r1, #62	; 0x3e
 800a634:	f7fe fcf0 	bl	8009018 <__gnat_rcheck_PE_Explicit_Raise>
 800a638:	4604      	mov	r4, r0
 800a63a:	4640      	mov	r0, r8
 800a63c:	f7ff fa46 	bl	8009acc <system__secondary_stack__ss_release>
 800a640:	4620      	mov	r0, r4
 800a642:	f000 ffc5 	bl	800b5d0 <_Unwind_Resume>
 800a646:	4604      	mov	r4, r0
 800a648:	46d5      	mov	sp, sl
 800a64a:	e7f6      	b.n	800a63a <__gnat_last_chance_handler+0x136>
 800a64c:	e7fb      	b.n	800a646 <__gnat_last_chance_handler+0x142>
 800a64e:	bf00      	nop
 800a650:	0800ee84 	.word	0x0800ee84
 800a654:	0800eea4 	.word	0x0800eea4
 800a658:	0800eec0 	.word	0x0800eec0
 800a65c:	0800eecc 	.word	0x0800eecc
 800a660:	0800eef4 	.word	0x0800eef4
 800a664:	0800eefc 	.word	0x0800eefc
 800a668:	0800ef08 	.word	0x0800ef08

0800a66c <__gnat_malloc>:
 800a66c:	b510      	push	{r4, lr}
 800a66e:	1c43      	adds	r3, r0, #1
 800a670:	d010      	beq.n	800a694 <__gnat_malloc+0x28>
 800a672:	4b0e      	ldr	r3, [pc, #56]	; (800a6ac <__gnat_malloc+0x40>)
 800a674:	2800      	cmp	r0, #0
 800a676:	bf14      	ite	ne
 800a678:	4604      	movne	r4, r0
 800a67a:	2401      	moveq	r4, #1
 800a67c:	681b      	ldr	r3, [r3, #0]
 800a67e:	4798      	blx	r3
 800a680:	4620      	mov	r0, r4
 800a682:	f000 f8cf 	bl	800a824 <malloc>
 800a686:	4b0a      	ldr	r3, [pc, #40]	; (800a6b0 <__gnat_malloc+0x44>)
 800a688:	4604      	mov	r4, r0
 800a68a:	681b      	ldr	r3, [r3, #0]
 800a68c:	4798      	blx	r3
 800a68e:	b13c      	cbz	r4, 800a6a0 <__gnat_malloc+0x34>
 800a690:	4620      	mov	r0, r4
 800a692:	bd10      	pop	{r4, pc}
 800a694:	4a07      	ldr	r2, [pc, #28]	; (800a6b4 <__gnat_malloc+0x48>)
 800a696:	4808      	ldr	r0, [pc, #32]	; (800a6b8 <__gnat_malloc+0x4c>)
 800a698:	f102 0310 	add.w	r3, r2, #16
 800a69c:	f7fe fc42 	bl	8008f24 <__gnat_raise_exception>
 800a6a0:	4a06      	ldr	r2, [pc, #24]	; (800a6bc <__gnat_malloc+0x50>)
 800a6a2:	4805      	ldr	r0, [pc, #20]	; (800a6b8 <__gnat_malloc+0x4c>)
 800a6a4:	f102 0310 	add.w	r3, r2, #16
 800a6a8:	f7fe fc3c 	bl	8008f24 <__gnat_raise_exception>
 800a6ac:	20000208 	.word	0x20000208
 800a6b0:	20000200 	.word	0x20000200
 800a6b4:	0800ef18 	.word	0x0800ef18
 800a6b8:	20000170 	.word	0x20000170
 800a6bc:	0800ef30 	.word	0x0800ef30

0800a6c0 <__gnat_free>:
 800a6c0:	b510      	push	{r4, lr}
 800a6c2:	4b06      	ldr	r3, [pc, #24]	; (800a6dc <__gnat_free+0x1c>)
 800a6c4:	4604      	mov	r4, r0
 800a6c6:	681b      	ldr	r3, [r3, #0]
 800a6c8:	4798      	blx	r3
 800a6ca:	4620      	mov	r0, r4
 800a6cc:	f000 f916 	bl	800a8fc <free>
 800a6d0:	4b03      	ldr	r3, [pc, #12]	; (800a6e0 <__gnat_free+0x20>)
 800a6d2:	e8bd 4010 	ldmia.w	sp!, {r4, lr}
 800a6d6:	681b      	ldr	r3, [r3, #0]
 800a6d8:	4718      	bx	r3
 800a6da:	bf00      	nop
 800a6dc:	20000208 	.word	0x20000208
 800a6e0:	20000200 	.word	0x20000200

0800a6e4 <_ada_system__address_image>:
 800a6e4:	e92d 41f0 	stmdb	sp!, {r4, r5, r6, r7, r8, lr}
 800a6e8:	b084      	sub	sp, #16
 800a6ea:	4680      	mov	r8, r0
 800a6ec:	2010      	movs	r0, #16
 800a6ee:	460d      	mov	r5, r1
 800a6f0:	f7ff f9c8 	bl	8009a84 <system__secondary_stack__ss_allocate>
 800a6f4:	4b0f      	ldr	r3, [pc, #60]	; (800a734 <_ada_system__address_image+0x50>)
 800a6f6:	4c10      	ldr	r4, [pc, #64]	; (800a738 <_ada_system__address_image+0x54>)
 800a6f8:	9503      	str	r5, [sp, #12]
 800a6fa:	4606      	mov	r6, r0
 800a6fc:	e893 0003 	ldmia.w	r3, {r0, r1}
 800a700:	f106 0708 	add.w	r7, r6, #8
 800a704:	e886 0003 	stmia.w	r6, {r0, r1}
 800a708:	4633      	mov	r3, r6
 800a70a:	9501      	str	r5, [sp, #4]
 800a70c:	f10d 010f 	add.w	r1, sp, #15
 800a710:	f811 2901 	ldrb.w	r2, [r1], #-1
 800a714:	0915      	lsrs	r5, r2, #4
 800a716:	f002 020f 	and.w	r2, r2, #15
 800a71a:	5d65      	ldrb	r5, [r4, r5]
 800a71c:	5ca2      	ldrb	r2, [r4, r2]
 800a71e:	721d      	strb	r5, [r3, #8]
 800a720:	725a      	strb	r2, [r3, #9]
 800a722:	3302      	adds	r3, #2
 800a724:	42bb      	cmp	r3, r7
 800a726:	d1f3      	bne.n	800a710 <_ada_system__address_image+0x2c>
 800a728:	e888 0048 	stmia.w	r8, {r3, r6}
 800a72c:	4640      	mov	r0, r8
 800a72e:	b004      	add	sp, #16
 800a730:	e8bd 81f0 	ldmia.w	sp!, {r4, r5, r6, r7, r8, pc}
 800a734:	0800ef48 	.word	0x0800ef48
 800a738:	0800ef50 	.word	0x0800ef50

0800a73c <system__io__put__2>:
 800a73c:	b510      	push	{r4, lr}
 800a73e:	4b08      	ldr	r3, [pc, #32]	; (800a760 <system__io__put__2+0x24>)
 800a740:	781b      	ldrb	r3, [r3, #0]
 800a742:	4604      	mov	r4, r0
 800a744:	b143      	cbz	r3, 800a758 <system__io__put__2+0x1c>
 800a746:	f7ff fce1 	bl	800a10c <system__text_io__is_tx_ready>
 800a74a:	2800      	cmp	r0, #0
 800a74c:	d0fb      	beq.n	800a746 <system__io__put__2+0xa>
 800a74e:	4620      	mov	r0, r4
 800a750:	e8bd 4010 	ldmia.w	sp!, {r4, lr}
 800a754:	f7ff bce2 	b.w	800a11c <system__text_io__put>
 800a758:	f7ff fb06 	bl	8009d68 <system__text_io__initialize>
 800a75c:	e7f3      	b.n	800a746 <system__io__put__2+0xa>
 800a75e:	bf00      	nop
 800a760:	200002c8 	.word	0x200002c8

0800a764 <system__io__new_line>:
 800a764:	b538      	push	{r3, r4, r5, lr}
 800a766:	4605      	mov	r5, r0
 800a768:	2400      	movs	r4, #0
 800a76a:	e004      	b.n	800a776 <system__io__new_line+0x12>
 800a76c:	200a      	movs	r0, #10
 800a76e:	f7ff ffe5 	bl	800a73c <system__io__put__2>
 800a772:	42ac      	cmp	r4, r5
 800a774:	d00c      	beq.n	800a790 <system__io__new_line+0x2c>
 800a776:	3401      	adds	r4, #1
 800a778:	f7ff fcd8 	bl	800a12c <system__text_io__use_cr_lf_for_new_line>
 800a77c:	2800      	cmp	r0, #0
 800a77e:	d0f5      	beq.n	800a76c <system__io__new_line+0x8>
 800a780:	200d      	movs	r0, #13
 800a782:	f7ff ffdb 	bl	800a73c <system__io__put__2>
 800a786:	200a      	movs	r0, #10
 800a788:	f7ff ffd8 	bl	800a73c <system__io__put__2>
 800a78c:	42ac      	cmp	r4, r5
 800a78e:	d1f2      	bne.n	800a776 <system__io__new_line+0x12>
 800a790:	bd38      	pop	{r3, r4, r5, pc}
 800a792:	bf00      	nop

0800a794 <system__io__put__3>:
 800a794:	b570      	push	{r4, r5, r6, lr}
 800a796:	e891 0050 	ldmia.w	r1, {r4, r6}
 800a79a:	42b4      	cmp	r4, r6
 800a79c:	dc07      	bgt.n	800a7ae <system__io__put__3+0x1a>
 800a79e:	1b05      	subs	r5, r0, r4
 800a7a0:	3c01      	subs	r4, #1
 800a7a2:	3401      	adds	r4, #1
 800a7a4:	5d28      	ldrb	r0, [r5, r4]
 800a7a6:	f7ff ffc9 	bl	800a73c <system__io__put__2>
 800a7aa:	42b4      	cmp	r4, r6
 800a7ac:	d1f9      	bne.n	800a7a2 <system__io__put__3+0xe>
 800a7ae:	bd70      	pop	{r4, r5, r6, pc}

0800a7b0 <put_char_stderr>:
 800a7b0:	f7ff bfc4 	b.w	800a73c <system__io__put__2>

0800a7b4 <system__io__put_line>:
 800a7b4:	b508      	push	{r3, lr}
 800a7b6:	f7ff ffed 	bl	800a794 <system__io__put__3>
 800a7ba:	2001      	movs	r0, #1
 800a7bc:	e8bd 4008 	ldmia.w	sp!, {r3, lr}
 800a7c0:	f7ff bfd0 	b.w	800a764 <system__io__new_line>

0800a7c4 <system__traceback_entries__pc_for>:
 800a7c4:	4770      	bx	lr
 800a7c6:	bf00      	nop

0800a7c8 <system__c__malloc__add_free_cell>:
 800a7c8:	4a15      	ldr	r2, [pc, #84]	; (800a820 <system__c__malloc__add_free_cell+0x58>)
 800a7ca:	6811      	ldr	r1, [r2, #0]
 800a7cc:	b321      	cbz	r1, 800a818 <system__c__malloc__add_free_cell+0x50>
 800a7ce:	b410      	push	{r4}
 800a7d0:	684b      	ldr	r3, [r1, #4]
 800a7d2:	6844      	ldr	r4, [r0, #4]
 800a7d4:	f3c3 031e 	ubfx	r3, r3, #0, #31
 800a7d8:	f3c4 041e 	ubfx	r4, r4, #0, #31
 800a7dc:	429c      	cmp	r4, r3
 800a7de:	d806      	bhi.n	800a7ee <system__c__malloc__add_free_cell+0x26>
 800a7e0:	e012      	b.n	800a808 <system__c__malloc__add_free_cell+0x40>
 800a7e2:	685a      	ldr	r2, [r3, #4]
 800a7e4:	f3c2 021e 	ubfx	r2, r2, #0, #31
 800a7e8:	42a2      	cmp	r2, r4
 800a7ea:	d206      	bcs.n	800a7fa <system__c__malloc__add_free_cell+0x32>
 800a7ec:	4619      	mov	r1, r3
 800a7ee:	68cb      	ldr	r3, [r1, #12]
 800a7f0:	2b00      	cmp	r3, #0
 800a7f2:	d1f6      	bne.n	800a7e2 <system__c__malloc__add_free_cell+0x1a>
 800a7f4:	6081      	str	r1, [r0, #8]
 800a7f6:	60c3      	str	r3, [r0, #12]
 800a7f8:	e002      	b.n	800a800 <system__c__malloc__add_free_cell+0x38>
 800a7fa:	6081      	str	r1, [r0, #8]
 800a7fc:	60c3      	str	r3, [r0, #12]
 800a7fe:	6098      	str	r0, [r3, #8]
 800a800:	60c8      	str	r0, [r1, #12]
 800a802:	f85d 4b04 	ldr.w	r4, [sp], #4
 800a806:	4770      	bx	lr
 800a808:	2300      	movs	r3, #0
 800a80a:	60c1      	str	r1, [r0, #12]
 800a80c:	6083      	str	r3, [r0, #8]
 800a80e:	6010      	str	r0, [r2, #0]
 800a810:	6088      	str	r0, [r1, #8]
 800a812:	f85d 4b04 	ldr.w	r4, [sp], #4
 800a816:	4770      	bx	lr
 800a818:	6081      	str	r1, [r0, #8]
 800a81a:	60c1      	str	r1, [r0, #12]
 800a81c:	6010      	str	r0, [r2, #0]
 800a81e:	4770      	bx	lr
 800a820:	200002cc 	.word	0x200002cc

0800a824 <malloc>:
 800a824:	b5f8      	push	{r3, r4, r5, r6, r7, lr}
 800a826:	2800      	cmp	r0, #0
 800a828:	d03f      	beq.n	800a8aa <malloc+0x86>
 800a82a:	4930      	ldr	r1, [pc, #192]	; (800a8ec <malloc+0xc8>)
 800a82c:	680c      	ldr	r4, [r1, #0]
 800a82e:	3008      	adds	r0, #8
 800a830:	f020 0207 	bic.w	r2, r0, #7
 800a834:	b914      	cbnz	r4, 800a83c <malloc+0x18>
 800a836:	e01c      	b.n	800a872 <malloc+0x4e>
 800a838:	68e4      	ldr	r4, [r4, #12]
 800a83a:	b1d4      	cbz	r4, 800a872 <malloc+0x4e>
 800a83c:	6863      	ldr	r3, [r4, #4]
 800a83e:	f3c3 031e 	ubfx	r3, r3, #0, #31
 800a842:	429a      	cmp	r2, r3
 800a844:	d8f8      	bhi.n	800a838 <malloc+0x14>
 800a846:	68e3      	ldr	r3, [r4, #12]
 800a848:	b10b      	cbz	r3, 800a84e <malloc+0x2a>
 800a84a:	68a0      	ldr	r0, [r4, #8]
 800a84c:	6098      	str	r0, [r3, #8]
 800a84e:	68a0      	ldr	r0, [r4, #8]
 800a850:	2800      	cmp	r0, #0
 800a852:	d049      	beq.n	800a8e8 <malloc+0xc4>
 800a854:	60c3      	str	r3, [r0, #12]
 800a856:	6863      	ldr	r3, [r4, #4]
 800a858:	f3c3 031e 	ubfx	r3, r3, #0, #31
 800a85c:	1a99      	subs	r1, r3, r2
 800a85e:	290f      	cmp	r1, #15
 800a860:	f104 0508 	add.w	r5, r4, #8
 800a864:	d827      	bhi.n	800a8b6 <malloc+0x92>
 800a866:	79e3      	ldrb	r3, [r4, #7]
 800a868:	f36f 13c7 	bfc	r3, #7, #1
 800a86c:	71e3      	strb	r3, [r4, #7]
 800a86e:	4628      	mov	r0, r5
 800a870:	bdf8      	pop	{r3, r4, r5, r6, r7, pc}
 800a872:	4e1f      	ldr	r6, [pc, #124]	; (800a8f0 <malloc+0xcc>)
 800a874:	6831      	ldr	r1, [r6, #0]
 800a876:	2900      	cmp	r1, #0
 800a878:	d034      	beq.n	800a8e4 <malloc+0xc0>
 800a87a:	684b      	ldr	r3, [r1, #4]
 800a87c:	f3c3 031e 	ubfx	r3, r3, #0, #31
 800a880:	440b      	add	r3, r1
 800a882:	3308      	adds	r3, #8
 800a884:	685c      	ldr	r4, [r3, #4]
 800a886:	6019      	str	r1, [r3, #0]
 800a888:	f020 4100 	bic.w	r1, r0, #2147483648	; 0x80000000
 800a88c:	f362 041e 	bfi	r4, r2, #0, #31
 800a890:	4f18      	ldr	r7, [pc, #96]	; (800a8f4 <malloc+0xd0>)
 800a892:	605c      	str	r4, [r3, #4]
 800a894:	f021 0107 	bic.w	r1, r1, #7
 800a898:	f103 0508 	add.w	r5, r3, #8
 800a89c:	0e22      	lsrs	r2, r4, #24
 800a89e:	4429      	add	r1, r5
 800a8a0:	f36f 12c7 	bfc	r2, #7, #1
 800a8a4:	42b9      	cmp	r1, r7
 800a8a6:	71da      	strb	r2, [r3, #7]
 800a8a8:	d902      	bls.n	800a8b0 <malloc+0x8c>
 800a8aa:	2500      	movs	r5, #0
 800a8ac:	4628      	mov	r0, r5
 800a8ae:	bdf8      	pop	{r3, r4, r5, r6, r7, pc}
 800a8b0:	6033      	str	r3, [r6, #0]
 800a8b2:	4628      	mov	r0, r5
 800a8b4:	bdf8      	pop	{r3, r4, r5, r6, r7, pc}
 800a8b6:	18a8      	adds	r0, r5, r2
 800a8b8:	3908      	subs	r1, #8
 800a8ba:	6846      	ldr	r6, [r0, #4]
 800a8bc:	50ac      	str	r4, [r5, r2]
 800a8be:	f361 061e 	bfi	r6, r1, #0, #31
 800a8c2:	0e31      	lsrs	r1, r6, #24
 800a8c4:	f041 0180 	orr.w	r1, r1, #128	; 0x80
 800a8c8:	6046      	str	r6, [r0, #4]
 800a8ca:	71c1      	strb	r1, [r0, #7]
 800a8cc:	6861      	ldr	r1, [r4, #4]
 800a8ce:	50e8      	str	r0, [r5, r3]
 800a8d0:	f362 011e 	bfi	r1, r2, #0, #31
 800a8d4:	6061      	str	r1, [r4, #4]
 800a8d6:	f7ff ff77 	bl	800a7c8 <system__c__malloc__add_free_cell>
 800a8da:	79e3      	ldrb	r3, [r4, #7]
 800a8dc:	f36f 13c7 	bfc	r3, #7, #1
 800a8e0:	71e3      	strb	r3, [r4, #7]
 800a8e2:	e7c4      	b.n	800a86e <malloc+0x4a>
 800a8e4:	4b04      	ldr	r3, [pc, #16]	; (800a8f8 <malloc+0xd4>)
 800a8e6:	e7cd      	b.n	800a884 <malloc+0x60>
 800a8e8:	600b      	str	r3, [r1, #0]
 800a8ea:	e7b4      	b.n	800a856 <malloc+0x32>
 800a8ec:	200002cc 	.word	0x200002cc
 800a8f0:	200002d0 	.word	0x200002d0
 800a8f4:	20010000 	.word	0x20010000
 800a8f8:	2000cb50 	.word	0x2000cb50

0800a8fc <free>:
 800a8fc:	2800      	cmp	r0, #0
 800a8fe:	d04f      	beq.n	800a9a0 <free+0xa4>
 800a900:	b470      	push	{r4, r5, r6}
 800a902:	f1a0 0308 	sub.w	r3, r0, #8
 800a906:	4934      	ldr	r1, [pc, #208]	; (800a9d8 <free+0xdc>)
 800a908:	79da      	ldrb	r2, [r3, #7]
 800a90a:	680c      	ldr	r4, [r1, #0]
 800a90c:	f042 0280 	orr.w	r2, r2, #128	; 0x80
 800a910:	42a3      	cmp	r3, r4
 800a912:	71da      	strb	r2, [r3, #7]
 800a914:	d045      	beq.n	800a9a2 <free+0xa6>
 800a916:	685a      	ldr	r2, [r3, #4]
 800a918:	f3c2 021e 	ubfx	r2, r2, #0, #31
 800a91c:	4402      	add	r2, r0
 800a91e:	79d5      	ldrb	r5, [r2, #7]
 800a920:	09ed      	lsrs	r5, r5, #7
 800a922:	d019      	beq.n	800a958 <free+0x5c>
 800a924:	68d5      	ldr	r5, [r2, #12]
 800a926:	b10d      	cbz	r5, 800a92c <free+0x30>
 800a928:	6896      	ldr	r6, [r2, #8]
 800a92a:	60ae      	str	r6, [r5, #8]
 800a92c:	6896      	ldr	r6, [r2, #8]
 800a92e:	2e00      	cmp	r6, #0
 800a930:	d04c      	beq.n	800a9cc <free+0xd0>
 800a932:	60f5      	str	r5, [r6, #12]
 800a934:	4294      	cmp	r4, r2
 800a936:	d004      	beq.n	800a942 <free+0x46>
 800a938:	6854      	ldr	r4, [r2, #4]
 800a93a:	f3c4 041e 	ubfx	r4, r4, #0, #31
 800a93e:	4414      	add	r4, r2
 800a940:	60a3      	str	r3, [r4, #8]
 800a942:	685c      	ldr	r4, [r3, #4]
 800a944:	6852      	ldr	r2, [r2, #4]
 800a946:	f3c4 051e 	ubfx	r5, r4, #0, #31
 800a94a:	f3c2 021e 	ubfx	r2, r2, #0, #31
 800a94e:	442a      	add	r2, r5
 800a950:	3208      	adds	r2, #8
 800a952:	f362 041e 	bfi	r4, r2, #0, #31
 800a956:	605c      	str	r4, [r3, #4]
 800a958:	f850 2c08 	ldr.w	r2, [r0, #-8]
 800a95c:	b1e2      	cbz	r2, 800a998 <free+0x9c>
 800a95e:	79d4      	ldrb	r4, [r2, #7]
 800a960:	09e4      	lsrs	r4, r4, #7
 800a962:	d019      	beq.n	800a998 <free+0x9c>
 800a964:	68d4      	ldr	r4, [r2, #12]
 800a966:	b10c      	cbz	r4, 800a96c <free+0x70>
 800a968:	6895      	ldr	r5, [r2, #8]
 800a96a:	60a5      	str	r5, [r4, #8]
 800a96c:	6895      	ldr	r5, [r2, #8]
 800a96e:	b355      	cbz	r5, 800a9c6 <free+0xca>
 800a970:	60ec      	str	r4, [r5, #12]
 800a972:	6809      	ldr	r1, [r1, #0]
 800a974:	428b      	cmp	r3, r1
 800a976:	d003      	beq.n	800a980 <free+0x84>
 800a978:	6859      	ldr	r1, [r3, #4]
 800a97a:	f3c1 011e 	ubfx	r1, r1, #0, #31
 800a97e:	5042      	str	r2, [r0, r1]
 800a980:	6851      	ldr	r1, [r2, #4]
 800a982:	685b      	ldr	r3, [r3, #4]
 800a984:	f3c1 001e 	ubfx	r0, r1, #0, #31
 800a988:	f3c3 031e 	ubfx	r3, r3, #0, #31
 800a98c:	4403      	add	r3, r0
 800a98e:	3308      	adds	r3, #8
 800a990:	f363 011e 	bfi	r1, r3, #0, #31
 800a994:	6051      	str	r1, [r2, #4]
 800a996:	4613      	mov	r3, r2
 800a998:	4618      	mov	r0, r3
 800a99a:	bc70      	pop	{r4, r5, r6}
 800a99c:	f7ff bf14 	b.w	800a7c8 <system__c__malloc__add_free_cell>
 800a9a0:	4770      	bx	lr
 800a9a2:	f850 3c08 	ldr.w	r3, [r0, #-8]
 800a9a6:	600b      	str	r3, [r1, #0]
 800a9a8:	b15b      	cbz	r3, 800a9c2 <free+0xc6>
 800a9aa:	79da      	ldrb	r2, [r3, #7]
 800a9ac:	09d2      	lsrs	r2, r2, #7
 800a9ae:	d008      	beq.n	800a9c2 <free+0xc6>
 800a9b0:	68da      	ldr	r2, [r3, #12]
 800a9b2:	b10a      	cbz	r2, 800a9b8 <free+0xbc>
 800a9b4:	6898      	ldr	r0, [r3, #8]
 800a9b6:	6090      	str	r0, [r2, #8]
 800a9b8:	6898      	ldr	r0, [r3, #8]
 800a9ba:	b150      	cbz	r0, 800a9d2 <free+0xd6>
 800a9bc:	60c2      	str	r2, [r0, #12]
 800a9be:	681b      	ldr	r3, [r3, #0]
 800a9c0:	600b      	str	r3, [r1, #0]
 800a9c2:	bc70      	pop	{r4, r5, r6}
 800a9c4:	4770      	bx	lr
 800a9c6:	4d05      	ldr	r5, [pc, #20]	; (800a9dc <free+0xe0>)
 800a9c8:	602c      	str	r4, [r5, #0]
 800a9ca:	e7d2      	b.n	800a972 <free+0x76>
 800a9cc:	4e03      	ldr	r6, [pc, #12]	; (800a9dc <free+0xe0>)
 800a9ce:	6035      	str	r5, [r6, #0]
 800a9d0:	e7b0      	b.n	800a934 <free+0x38>
 800a9d2:	4802      	ldr	r0, [pc, #8]	; (800a9dc <free+0xe0>)
 800a9d4:	6002      	str	r2, [r0, #0]
 800a9d6:	e7f2      	b.n	800a9be <free+0xc2>
 800a9d8:	200002d0 	.word	0x200002d0
 800a9dc:	200002cc 	.word	0x200002cc

0800a9e0 <gnat__debug_utilities__image_c>:
 800a9e0:	b430      	push	{r4, r5}
 800a9e2:	4d08      	ldr	r5, [pc, #32]	; (800aa04 <gnat__debug_utilities__image_c+0x24>)
 800a9e4:	f100 0309 	add.w	r3, r0, #9
 800a9e8:	1c44      	adds	r4, r0, #1
 800a9ea:	f001 020f 	and.w	r2, r1, #15
 800a9ee:	0909      	lsrs	r1, r1, #4
 800a9f0:	5caa      	ldrb	r2, [r5, r2]
 800a9f2:	f803 2901 	strb.w	r2, [r3], #-1
 800a9f6:	42a3      	cmp	r3, r4
 800a9f8:	d1f7      	bne.n	800a9ea <gnat__debug_utilities__image_c+0xa>
 800a9fa:	4b03      	ldr	r3, [pc, #12]	; (800aa08 <gnat__debug_utilities__image_c+0x28>)
 800a9fc:	881b      	ldrh	r3, [r3, #0]
 800a9fe:	8003      	strh	r3, [r0, #0]
 800aa00:	bc30      	pop	{r4, r5}
 800aa02:	4770      	bx	lr
 800aa04:	0800ef78 	.word	0x0800ef78
 800aa08:	0800ef64 	.word	0x0800ef64

0800aa0c <system__bb__mcu_parameters__pwr_initialize>:
 800aa0c:	4770      	bx	lr
 800aa0e:	bf00      	nop

0800aa10 <system__bb__mcu_parameters__pwr_overdrive_enable>:
 800aa10:	4770      	bx	lr
 800aa12:	bf00      	nop

0800aa14 <__aeabi_ldivmod>:
 800aa14:	b97b      	cbnz	r3, 800aa36 <__aeabi_ldivmod+0x22>
 800aa16:	b972      	cbnz	r2, 800aa36 <__aeabi_ldivmod+0x22>
 800aa18:	2900      	cmp	r1, #0
 800aa1a:	bfbe      	ittt	lt
 800aa1c:	2000      	movlt	r0, #0
 800aa1e:	f04f 4100 	movlt.w	r1, #2147483648	; 0x80000000
 800aa22:	e006      	blt.n	800aa32 <__aeabi_ldivmod+0x1e>
 800aa24:	bf08      	it	eq
 800aa26:	2800      	cmpeq	r0, #0
 800aa28:	bf1c      	itt	ne
 800aa2a:	f06f 4100 	mvnne.w	r1, #2147483648	; 0x80000000
 800aa2e:	f04f 30ff 	movne.w	r0, #4294967295
 800aa32:	f000 bfcf 	b.w	800b9d4 <__aeabi_idiv0>
 800aa36:	b082      	sub	sp, #8
 800aa38:	46ec      	mov	ip, sp
 800aa3a:	e92d 5000 	stmdb	sp!, {ip, lr}
 800aa3e:	f000 f805 	bl	800aa4c <__gnu_ldivmod_helper>
 800aa42:	f8dd e004 	ldr.w	lr, [sp, #4]
 800aa46:	b002      	add	sp, #8
 800aa48:	bc0c      	pop	{r2, r3}
 800aa4a:	4770      	bx	lr

0800aa4c <__gnu_ldivmod_helper>:
 800aa4c:	e92d 41f0 	stmdb	sp!, {r4, r5, r6, r7, r8, lr}
 800aa50:	9c06      	ldr	r4, [sp, #24]
 800aa52:	4690      	mov	r8, r2
 800aa54:	4606      	mov	r6, r0
 800aa56:	460f      	mov	r7, r1
 800aa58:	461d      	mov	r5, r3
 800aa5a:	f000 ffbd 	bl	800b9d8 <__divdi3>
 800aa5e:	fb08 fc01 	mul.w	ip, r8, r1
 800aa62:	fba8 2300 	umull	r2, r3, r8, r0
 800aa66:	fb00 c505 	mla	r5, r0, r5, ip
 800aa6a:	1ab2      	subs	r2, r6, r2
 800aa6c:	442b      	add	r3, r5
 800aa6e:	eb67 0303 	sbc.w	r3, r7, r3
 800aa72:	4686      	mov	lr, r0
 800aa74:	e9c4 2300 	strd	r2, r3, [r4]
 800aa78:	e8bd 81f0 	ldmia.w	sp!, {r4, r5, r6, r7, r8, pc}

0800aa7c <__gnu_uldivmod_helper>:
 800aa7c:	e92d 43f8 	stmdb	sp!, {r3, r4, r5, r6, r7, r8, r9, lr}
 800aa80:	9e08      	ldr	r6, [sp, #32]
 800aa82:	4617      	mov	r7, r2
 800aa84:	4680      	mov	r8, r0
 800aa86:	4689      	mov	r9, r1
 800aa88:	461d      	mov	r5, r3
 800aa8a:	f001 f8fb 	bl	800bc84 <__udivdi3>
 800aa8e:	fb00 f305 	mul.w	r3, r0, r5
 800aa92:	fba0 4507 	umull	r4, r5, r0, r7
 800aa96:	fb07 3701 	mla	r7, r7, r1, r3
 800aa9a:	ebb8 0404 	subs.w	r4, r8, r4
 800aa9e:	443d      	add	r5, r7
 800aaa0:	eb69 0505 	sbc.w	r5, r9, r5
 800aaa4:	e9c6 4500 	strd	r4, r5, [r6]
 800aaa8:	e8bd 83f8 	ldmia.w	sp!, {r3, r4, r5, r6, r7, r8, r9, pc}

0800aaac <selfrel_offset31>:
 800aaac:	6803      	ldr	r3, [r0, #0]
 800aaae:	005a      	lsls	r2, r3, #1
 800aab0:	bf4c      	ite	mi
 800aab2:	f043 4300 	orrmi.w	r3, r3, #2147483648	; 0x80000000
 800aab6:	f023 4300 	bicpl.w	r3, r3, #2147483648	; 0x80000000
 800aaba:	4418      	add	r0, r3
 800aabc:	4770      	bx	lr
 800aabe:	bf00      	nop

0800aac0 <search_EIT_table>:
 800aac0:	e92d 4ff0 	stmdb	sp!, {r4, r5, r6, r7, r8, r9, sl, fp, lr}
 800aac4:	b083      	sub	sp, #12
 800aac6:	b369      	cbz	r1, 800ab24 <search_EIT_table+0x64>
 800aac8:	1e4b      	subs	r3, r1, #1
 800aaca:	4617      	mov	r7, r2
 800aacc:	4605      	mov	r5, r0
 800aace:	4698      	mov	r8, r3
 800aad0:	2600      	movs	r6, #0
 800aad2:	9301      	str	r3, [sp, #4]
 800aad4:	eb06 0408 	add.w	r4, r6, r8
 800aad8:	eb04 74d4 	add.w	r4, r4, r4, lsr #31
 800aadc:	1064      	asrs	r4, r4, #1
 800aade:	ea4f 0ac4 	mov.w	sl, r4, lsl #3
 800aae2:	eb05 0b0a 	add.w	fp, r5, sl
 800aae6:	4658      	mov	r0, fp
 800aae8:	f7ff ffe0 	bl	800aaac <selfrel_offset31>
 800aaec:	9b01      	ldr	r3, [sp, #4]
 800aaee:	4681      	mov	r9, r0
 800aaf0:	42a3      	cmp	r3, r4
 800aaf2:	f10a 0008 	add.w	r0, sl, #8
 800aaf6:	4428      	add	r0, r5
 800aaf8:	d00e      	beq.n	800ab18 <search_EIT_table+0x58>
 800aafa:	f7ff ffd7 	bl	800aaac <selfrel_offset31>
 800aafe:	45b9      	cmp	r9, r7
 800ab00:	f100 33ff 	add.w	r3, r0, #4294967295
 800ab04:	d904      	bls.n	800ab10 <search_EIT_table+0x50>
 800ab06:	42b4      	cmp	r4, r6
 800ab08:	d00c      	beq.n	800ab24 <search_EIT_table+0x64>
 800ab0a:	f104 38ff 	add.w	r8, r4, #4294967295
 800ab0e:	e7e1      	b.n	800aad4 <search_EIT_table+0x14>
 800ab10:	42bb      	cmp	r3, r7
 800ab12:	d203      	bcs.n	800ab1c <search_EIT_table+0x5c>
 800ab14:	1c66      	adds	r6, r4, #1
 800ab16:	e7dd      	b.n	800aad4 <search_EIT_table+0x14>
 800ab18:	45b9      	cmp	r9, r7
 800ab1a:	d8f4      	bhi.n	800ab06 <search_EIT_table+0x46>
 800ab1c:	4658      	mov	r0, fp
 800ab1e:	b003      	add	sp, #12
 800ab20:	e8bd 8ff0 	ldmia.w	sp!, {r4, r5, r6, r7, r8, r9, sl, fp, pc}
 800ab24:	f04f 0b00 	mov.w	fp, #0
 800ab28:	4658      	mov	r0, fp
 800ab2a:	b003      	add	sp, #12
 800ab2c:	e8bd 8ff0 	ldmia.w	sp!, {r4, r5, r6, r7, r8, r9, sl, fp, pc}

0800ab30 <__gnu_unwind_get_pr_addr>:
 800ab30:	2801      	cmp	r0, #1
 800ab32:	d009      	beq.n	800ab48 <__gnu_unwind_get_pr_addr+0x18>
 800ab34:	2802      	cmp	r0, #2
 800ab36:	d005      	beq.n	800ab44 <__gnu_unwind_get_pr_addr+0x14>
 800ab38:	4b04      	ldr	r3, [pc, #16]	; (800ab4c <__gnu_unwind_get_pr_addr+0x1c>)
 800ab3a:	2800      	cmp	r0, #0
 800ab3c:	bf0c      	ite	eq
 800ab3e:	4618      	moveq	r0, r3
 800ab40:	2000      	movne	r0, #0
 800ab42:	4770      	bx	lr
 800ab44:	4802      	ldr	r0, [pc, #8]	; (800ab50 <__gnu_unwind_get_pr_addr+0x20>)
 800ab46:	4770      	bx	lr
 800ab48:	4802      	ldr	r0, [pc, #8]	; (800ab54 <__gnu_unwind_get_pr_addr+0x24>)
 800ab4a:	4770      	bx	lr
 800ab4c:	0800b239 	.word	0x0800b239
 800ab50:	0800b241 	.word	0x0800b241
 800ab54:	0800b23d 	.word	0x0800b23d

0800ab58 <get_eit_entry>:
 800ab58:	b530      	push	{r4, r5, lr}
 800ab5a:	4b22      	ldr	r3, [pc, #136]	; (800abe4 <get_eit_entry+0x8c>)
 800ab5c:	b083      	sub	sp, #12
 800ab5e:	4604      	mov	r4, r0
 800ab60:	1e8d      	subs	r5, r1, #2
 800ab62:	b353      	cbz	r3, 800abba <get_eit_entry+0x62>
 800ab64:	4628      	mov	r0, r5
 800ab66:	a901      	add	r1, sp, #4
 800ab68:	f3af 8000 	nop.w
 800ab6c:	b300      	cbz	r0, 800abb0 <get_eit_entry+0x58>
 800ab6e:	9901      	ldr	r1, [sp, #4]
 800ab70:	462a      	mov	r2, r5
 800ab72:	f7ff ffa5 	bl	800aac0 <search_EIT_table>
 800ab76:	4605      	mov	r5, r0
 800ab78:	b1d0      	cbz	r0, 800abb0 <get_eit_entry+0x58>
 800ab7a:	f7ff ff97 	bl	800aaac <selfrel_offset31>
 800ab7e:	686b      	ldr	r3, [r5, #4]
 800ab80:	64a0      	str	r0, [r4, #72]	; 0x48
 800ab82:	2b01      	cmp	r3, #1
 800ab84:	d00f      	beq.n	800aba6 <get_eit_entry+0x4e>
 800ab86:	2b00      	cmp	r3, #0
 800ab88:	db1e      	blt.n	800abc8 <get_eit_entry+0x70>
 800ab8a:	1d28      	adds	r0, r5, #4
 800ab8c:	f7ff ff8e 	bl	800aaac <selfrel_offset31>
 800ab90:	2300      	movs	r3, #0
 800ab92:	64e0      	str	r0, [r4, #76]	; 0x4c
 800ab94:	6523      	str	r3, [r4, #80]	; 0x50
 800ab96:	6803      	ldr	r3, [r0, #0]
 800ab98:	2b00      	cmp	r3, #0
 800ab9a:	db1a      	blt.n	800abd2 <get_eit_entry+0x7a>
 800ab9c:	f7ff ff86 	bl	800aaac <selfrel_offset31>
 800aba0:	6120      	str	r0, [r4, #16]
 800aba2:	2000      	movs	r0, #0
 800aba4:	e002      	b.n	800abac <get_eit_entry+0x54>
 800aba6:	2300      	movs	r3, #0
 800aba8:	2005      	movs	r0, #5
 800abaa:	6123      	str	r3, [r4, #16]
 800abac:	b003      	add	sp, #12
 800abae:	bd30      	pop	{r4, r5, pc}
 800abb0:	2300      	movs	r3, #0
 800abb2:	2009      	movs	r0, #9
 800abb4:	6123      	str	r3, [r4, #16]
 800abb6:	b003      	add	sp, #12
 800abb8:	bd30      	pop	{r4, r5, pc}
 800abba:	490b      	ldr	r1, [pc, #44]	; (800abe8 <get_eit_entry+0x90>)
 800abbc:	4b0b      	ldr	r3, [pc, #44]	; (800abec <get_eit_entry+0x94>)
 800abbe:	4608      	mov	r0, r1
 800abc0:	1a5b      	subs	r3, r3, r1
 800abc2:	10d9      	asrs	r1, r3, #3
 800abc4:	9101      	str	r1, [sp, #4]
 800abc6:	e7d3      	b.n	800ab70 <get_eit_entry+0x18>
 800abc8:	2301      	movs	r3, #1
 800abca:	1d28      	adds	r0, r5, #4
 800abcc:	64e0      	str	r0, [r4, #76]	; 0x4c
 800abce:	6523      	str	r3, [r4, #80]	; 0x50
 800abd0:	e7e1      	b.n	800ab96 <get_eit_entry+0x3e>
 800abd2:	f3c3 6003 	ubfx	r0, r3, #24, #4
 800abd6:	f7ff ffab 	bl	800ab30 <__gnu_unwind_get_pr_addr>
 800abda:	6120      	str	r0, [r4, #16]
 800abdc:	2800      	cmp	r0, #0
 800abde:	d1e0      	bne.n	800aba2 <get_eit_entry+0x4a>
 800abe0:	2009      	movs	r0, #9
 800abe2:	e7e3      	b.n	800abac <get_eit_entry+0x54>
 800abe4:	00000000 	.word	0x00000000
 800abe8:	0800c768 	.word	0x0800c768
 800abec:	0800d288 	.word	0x0800d288

0800abf0 <restore_non_core_regs>:
 800abf0:	6803      	ldr	r3, [r0, #0]
 800abf2:	b510      	push	{r4, lr}
 800abf4:	07da      	lsls	r2, r3, #31
 800abf6:	4604      	mov	r4, r0
 800abf8:	d406      	bmi.n	800ac08 <restore_non_core_regs+0x18>
 800abfa:	079b      	lsls	r3, r3, #30
 800abfc:	f100 0048 	add.w	r0, r0, #72	; 0x48
 800ac00:	d509      	bpl.n	800ac16 <restore_non_core_regs+0x26>
 800ac02:	f000 fc6b 	bl	800b4dc <__gnu_Unwind_Restore_VFP_D>
 800ac06:	6823      	ldr	r3, [r4, #0]
 800ac08:	0759      	lsls	r1, r3, #29
 800ac0a:	d509      	bpl.n	800ac20 <restore_non_core_regs+0x30>
 800ac0c:	071a      	lsls	r2, r3, #28
 800ac0e:	d50e      	bpl.n	800ac2e <restore_non_core_regs+0x3e>
 800ac10:	06db      	lsls	r3, r3, #27
 800ac12:	d513      	bpl.n	800ac3c <restore_non_core_regs+0x4c>
 800ac14:	bd10      	pop	{r4, pc}
 800ac16:	f000 fc59 	bl	800b4cc <__gnu_Unwind_Restore_VFP>
 800ac1a:	6823      	ldr	r3, [r4, #0]
 800ac1c:	0759      	lsls	r1, r3, #29
 800ac1e:	d4f5      	bmi.n	800ac0c <restore_non_core_regs+0x1c>
 800ac20:	f104 00d0 	add.w	r0, r4, #208	; 0xd0
 800ac24:	f000 fc62 	bl	800b4ec <__gnu_Unwind_Restore_VFP_D_16_to_31>
 800ac28:	6823      	ldr	r3, [r4, #0]
 800ac2a:	071a      	lsls	r2, r3, #28
 800ac2c:	d4f0      	bmi.n	800ac10 <restore_non_core_regs+0x20>
 800ac2e:	f504 70a8 	add.w	r0, r4, #336	; 0x150
 800ac32:	f000 fc63 	bl	800b4fc <__gnu_Unwind_Restore_WMMXD>
 800ac36:	6823      	ldr	r3, [r4, #0]
 800ac38:	06db      	lsls	r3, r3, #27
 800ac3a:	d4eb      	bmi.n	800ac14 <restore_non_core_regs+0x24>
 800ac3c:	f504 70e8 	add.w	r0, r4, #464	; 0x1d0
 800ac40:	e8bd 4010 	ldmia.w	sp!, {r4, lr}
 800ac44:	f000 bc9e 	b.w	800b584 <__gnu_Unwind_Restore_WMMXC>

0800ac48 <_Unwind_decode_typeinfo_ptr.isra.0>:
 800ac48:	6803      	ldr	r3, [r0, #0]
 800ac4a:	b103      	cbz	r3, 800ac4e <_Unwind_decode_typeinfo_ptr.isra.0+0x6>
 800ac4c:	4403      	add	r3, r0
 800ac4e:	4618      	mov	r0, r3
 800ac50:	4770      	bx	lr
 800ac52:	bf00      	nop

0800ac54 <__gnu_unwind_24bit.isra.1>:
 800ac54:	2009      	movs	r0, #9
 800ac56:	4770      	bx	lr

0800ac58 <_Unwind_DebugHook>:
 800ac58:	4770      	bx	lr
 800ac5a:	bf00      	nop

0800ac5c <unwind_phase2>:
 800ac5c:	b570      	push	{r4, r5, r6, lr}
 800ac5e:	4604      	mov	r4, r0
 800ac60:	460d      	mov	r5, r1
 800ac62:	e008      	b.n	800ac76 <unwind_phase2+0x1a>
 800ac64:	6c2a      	ldr	r2, [r5, #64]	; 0x40
 800ac66:	6923      	ldr	r3, [r4, #16]
 800ac68:	6162      	str	r2, [r4, #20]
 800ac6a:	2001      	movs	r0, #1
 800ac6c:	4621      	mov	r1, r4
 800ac6e:	462a      	mov	r2, r5
 800ac70:	4798      	blx	r3
 800ac72:	2808      	cmp	r0, #8
 800ac74:	d108      	bne.n	800ac88 <unwind_phase2+0x2c>
 800ac76:	4620      	mov	r0, r4
 800ac78:	6c29      	ldr	r1, [r5, #64]	; 0x40
 800ac7a:	f7ff ff6d 	bl	800ab58 <get_eit_entry>
 800ac7e:	4606      	mov	r6, r0
 800ac80:	2800      	cmp	r0, #0
 800ac82:	d0ef      	beq.n	800ac64 <unwind_phase2+0x8>
 800ac84:	f7ff f860 	bl	8009d48 <abort>
 800ac88:	2807      	cmp	r0, #7
 800ac8a:	d1fb      	bne.n	800ac84 <unwind_phase2+0x28>
 800ac8c:	4630      	mov	r0, r6
 800ac8e:	6c29      	ldr	r1, [r5, #64]	; 0x40
 800ac90:	f7ff ffe2 	bl	800ac58 <_Unwind_DebugHook>
 800ac94:	1d28      	adds	r0, r5, #4
 800ac96:	f000 fc0d 	bl	800b4b4 <__restore_core_regs>
 800ac9a:	bf00      	nop

0800ac9c <unwind_phase2_forced>:
 800ac9c:	e92d 47f0 	stmdb	sp!, {r4, r5, r6, r7, r8, r9, sl, lr}
 800aca0:	4605      	mov	r5, r0
 800aca2:	2700      	movs	r7, #0
 800aca4:	f5ad 7d72 	sub.w	sp, sp, #968	; 0x3c8
 800aca8:	ae03      	add	r6, sp, #12
 800acaa:	1d0c      	adds	r4, r1, #4
 800acac:	4692      	mov	sl, r2
 800acae:	cc0f      	ldmia	r4!, {r0, r1, r2, r3}
 800acb0:	c60f      	stmia	r6!, {r0, r1, r2, r3}
 800acb2:	cc0f      	ldmia	r4!, {r0, r1, r2, r3}
 800acb4:	c60f      	stmia	r6!, {r0, r1, r2, r3}
 800acb6:	cc0f      	ldmia	r4!, {r0, r1, r2, r3}
 800acb8:	c60f      	stmia	r6!, {r0, r1, r2, r3}
 800acba:	e894 000f 	ldmia.w	r4, {r0, r1, r2, r3}
 800acbe:	ac02      	add	r4, sp, #8
 800acc0:	f8d5 800c 	ldr.w	r8, [r5, #12]
 800acc4:	f8d5 9018 	ldr.w	r9, [r5, #24]
 800acc8:	e886 000f 	stmia.w	r6, {r0, r1, r2, r3}
 800accc:	4628      	mov	r0, r5
 800acce:	6c21      	ldr	r1, [r4, #64]	; 0x40
 800acd0:	6027      	str	r7, [r4, #0]
 800acd2:	f7ff ff41 	bl	800ab58 <get_eit_entry>
 800acd6:	f1ba 0f00 	cmp.w	sl, #0
 800acda:	4607      	mov	r7, r0
 800acdc:	bf0c      	ite	eq
 800acde:	2609      	moveq	r6, #9
 800ace0:	260a      	movne	r6, #10
 800ace2:	b17f      	cbz	r7, 800ad04 <unwind_phase2_forced+0x68>
 800ace4:	6ba3      	ldr	r3, [r4, #56]	; 0x38
 800ace6:	f046 0110 	orr.w	r1, r6, #16
 800acea:	e88d 0210 	stmia.w	sp, {r4, r9}
 800acee:	2001      	movs	r0, #1
 800acf0:	6463      	str	r3, [r4, #68]	; 0x44
 800acf2:	462a      	mov	r2, r5
 800acf4:	462b      	mov	r3, r5
 800acf6:	47c0      	blx	r8
 800acf8:	bb78      	cbnz	r0, 800ad5a <unwind_phase2_forced+0xbe>
 800acfa:	4638      	mov	r0, r7
 800acfc:	f50d 7d72 	add.w	sp, sp, #968	; 0x3c8
 800ad00:	e8bd 87f0 	ldmia.w	sp!, {r4, r5, r6, r7, r8, r9, sl, pc}
 800ad04:	6c23      	ldr	r3, [r4, #64]	; 0x40
 800ad06:	4621      	mov	r1, r4
 800ad08:	616b      	str	r3, [r5, #20]
 800ad0a:	f44f 72f0 	mov.w	r2, #480	; 0x1e0
 800ad0e:	a87a      	add	r0, sp, #488	; 0x1e8
 800ad10:	f7fd fb06 	bl	8008320 <memcpy>
 800ad14:	692b      	ldr	r3, [r5, #16]
 800ad16:	4629      	mov	r1, r5
 800ad18:	aa7a      	add	r2, sp, #488	; 0x1e8
 800ad1a:	4630      	mov	r0, r6
 800ad1c:	4798      	blx	r3
 800ad1e:	9b88      	ldr	r3, [sp, #544]	; 0x220
 800ad20:	4682      	mov	sl, r0
 800ad22:	e88d 0210 	stmia.w	sp, {r4, r9}
 800ad26:	4631      	mov	r1, r6
 800ad28:	6463      	str	r3, [r4, #68]	; 0x44
 800ad2a:	2001      	movs	r0, #1
 800ad2c:	462a      	mov	r2, r5
 800ad2e:	462b      	mov	r3, r5
 800ad30:	47c0      	blx	r8
 800ad32:	b990      	cbnz	r0, 800ad5a <unwind_phase2_forced+0xbe>
 800ad34:	4620      	mov	r0, r4
 800ad36:	a97a      	add	r1, sp, #488	; 0x1e8
 800ad38:	f44f 72f0 	mov.w	r2, #480	; 0x1e0
 800ad3c:	f7fd faf0 	bl	8008320 <memcpy>
 800ad40:	f1ba 0f08 	cmp.w	sl, #8
 800ad44:	d106      	bne.n	800ad54 <unwind_phase2_forced+0xb8>
 800ad46:	4628      	mov	r0, r5
 800ad48:	6c21      	ldr	r1, [r4, #64]	; 0x40
 800ad4a:	f7ff ff05 	bl	800ab58 <get_eit_entry>
 800ad4e:	2609      	movs	r6, #9
 800ad50:	4607      	mov	r7, r0
 800ad52:	e7c6      	b.n	800ace2 <unwind_phase2_forced+0x46>
 800ad54:	f1ba 0f07 	cmp.w	sl, #7
 800ad58:	d005      	beq.n	800ad66 <unwind_phase2_forced+0xca>
 800ad5a:	2709      	movs	r7, #9
 800ad5c:	4638      	mov	r0, r7
 800ad5e:	f50d 7d72 	add.w	sp, sp, #968	; 0x3c8
 800ad62:	e8bd 87f0 	ldmia.w	sp!, {r4, r5, r6, r7, r8, r9, sl, pc}
 800ad66:	4638      	mov	r0, r7
 800ad68:	6c21      	ldr	r1, [r4, #64]	; 0x40
 800ad6a:	f7ff ff75 	bl	800ac58 <_Unwind_DebugHook>
 800ad6e:	a803      	add	r0, sp, #12
 800ad70:	f000 fba0 	bl	800b4b4 <__restore_core_regs>

0800ad74 <_Unwind_GetCFA>:
 800ad74:	6c40      	ldr	r0, [r0, #68]	; 0x44
 800ad76:	4770      	bx	lr

0800ad78 <__gnu_Unwind_RaiseException>:
 800ad78:	b5f0      	push	{r4, r5, r6, r7, lr}
 800ad7a:	f04f 3eff 	mov.w	lr, #4294967295
 800ad7e:	6bcb      	ldr	r3, [r1, #60]	; 0x3c
 800ad80:	b0f9      	sub	sp, #484	; 0x1e4
 800ad82:	640b      	str	r3, [r1, #64]	; 0x40
 800ad84:	1d0e      	adds	r6, r1, #4
 800ad86:	ad01      	add	r5, sp, #4
 800ad88:	460f      	mov	r7, r1
 800ad8a:	4604      	mov	r4, r0
 800ad8c:	ce0f      	ldmia	r6!, {r0, r1, r2, r3}
 800ad8e:	c50f      	stmia	r5!, {r0, r1, r2, r3}
 800ad90:	ce0f      	ldmia	r6!, {r0, r1, r2, r3}
 800ad92:	c50f      	stmia	r5!, {r0, r1, r2, r3}
 800ad94:	ce0f      	ldmia	r6!, {r0, r1, r2, r3}
 800ad96:	c50f      	stmia	r5!, {r0, r1, r2, r3}
 800ad98:	e896 000f 	ldmia.w	r6, {r0, r1, r2, r3}
 800ad9c:	e885 000f 	stmia.w	r5, {r0, r1, r2, r3}
 800ada0:	f8cd e000 	str.w	lr, [sp]
 800ada4:	e006      	b.n	800adb4 <__gnu_Unwind_RaiseException+0x3c>
 800ada6:	6923      	ldr	r3, [r4, #16]
 800ada8:	4621      	mov	r1, r4
 800adaa:	466a      	mov	r2, sp
 800adac:	4798      	blx	r3
 800adae:	2808      	cmp	r0, #8
 800adb0:	4605      	mov	r5, r0
 800adb2:	d108      	bne.n	800adc6 <__gnu_Unwind_RaiseException+0x4e>
 800adb4:	4620      	mov	r0, r4
 800adb6:	9910      	ldr	r1, [sp, #64]	; 0x40
 800adb8:	f7ff fece 	bl	800ab58 <get_eit_entry>
 800adbc:	2800      	cmp	r0, #0
 800adbe:	d0f2      	beq.n	800ada6 <__gnu_Unwind_RaiseException+0x2e>
 800adc0:	2009      	movs	r0, #9
 800adc2:	b079      	add	sp, #484	; 0x1e4
 800adc4:	bdf0      	pop	{r4, r5, r6, r7, pc}
 800adc6:	4668      	mov	r0, sp
 800adc8:	f7ff ff12 	bl	800abf0 <restore_non_core_regs>
 800adcc:	2d06      	cmp	r5, #6
 800adce:	d1f7      	bne.n	800adc0 <__gnu_Unwind_RaiseException+0x48>
 800add0:	4620      	mov	r0, r4
 800add2:	4639      	mov	r1, r7
 800add4:	f7ff ff42 	bl	800ac5c <unwind_phase2>

0800add8 <__gnu_Unwind_ForcedUnwind>:
 800add8:	b430      	push	{r4, r5}
 800adda:	6bdd      	ldr	r5, [r3, #60]	; 0x3c
 800addc:	60c1      	str	r1, [r0, #12]
 800adde:	6182      	str	r2, [r0, #24]
 800ade0:	4619      	mov	r1, r3
 800ade2:	641d      	str	r5, [r3, #64]	; 0x40
 800ade4:	2200      	movs	r2, #0
 800ade6:	bc30      	pop	{r4, r5}
 800ade8:	e758      	b.n	800ac9c <unwind_phase2_forced>
 800adea:	bf00      	nop

0800adec <__gnu_Unwind_Resume>:
 800adec:	b570      	push	{r4, r5, r6, lr}
 800adee:	6943      	ldr	r3, [r0, #20]
 800adf0:	68c6      	ldr	r6, [r0, #12]
 800adf2:	4604      	mov	r4, r0
 800adf4:	460d      	mov	r5, r1
 800adf6:	640b      	str	r3, [r1, #64]	; 0x40
 800adf8:	b126      	cbz	r6, 800ae04 <__gnu_Unwind_Resume+0x18>
 800adfa:	2201      	movs	r2, #1
 800adfc:	f7ff ff4e 	bl	800ac9c <unwind_phase2_forced>
 800ae00:	f7fe ffa2 	bl	8009d48 <abort>
 800ae04:	6903      	ldr	r3, [r0, #16]
 800ae06:	4621      	mov	r1, r4
 800ae08:	2002      	movs	r0, #2
 800ae0a:	462a      	mov	r2, r5
 800ae0c:	4798      	blx	r3
 800ae0e:	2807      	cmp	r0, #7
 800ae10:	d007      	beq.n	800ae22 <__gnu_Unwind_Resume+0x36>
 800ae12:	2808      	cmp	r0, #8
 800ae14:	d103      	bne.n	800ae1e <__gnu_Unwind_Resume+0x32>
 800ae16:	4620      	mov	r0, r4
 800ae18:	4629      	mov	r1, r5
 800ae1a:	f7ff ff1f 	bl	800ac5c <unwind_phase2>
 800ae1e:	f7fe ff93 	bl	8009d48 <abort>
 800ae22:	4630      	mov	r0, r6
 800ae24:	6c29      	ldr	r1, [r5, #64]	; 0x40
 800ae26:	f7ff ff17 	bl	800ac58 <_Unwind_DebugHook>
 800ae2a:	1d28      	adds	r0, r5, #4
 800ae2c:	f000 fb42 	bl	800b4b4 <__restore_core_regs>

0800ae30 <__gnu_Unwind_Resume_or_Rethrow>:
 800ae30:	68c2      	ldr	r2, [r0, #12]
 800ae32:	b132      	cbz	r2, 800ae42 <__gnu_Unwind_Resume_or_Rethrow+0x12>
 800ae34:	b410      	push	{r4}
 800ae36:	6bcc      	ldr	r4, [r1, #60]	; 0x3c
 800ae38:	2200      	movs	r2, #0
 800ae3a:	640c      	str	r4, [r1, #64]	; 0x40
 800ae3c:	f85d 4b04 	ldr.w	r4, [sp], #4
 800ae40:	e72c      	b.n	800ac9c <unwind_phase2_forced>
 800ae42:	e799      	b.n	800ad78 <__gnu_Unwind_RaiseException>

0800ae44 <_Unwind_Complete>:
 800ae44:	4770      	bx	lr
 800ae46:	bf00      	nop

0800ae48 <_Unwind_DeleteException>:
 800ae48:	6883      	ldr	r3, [r0, #8]
 800ae4a:	b113      	cbz	r3, 800ae52 <_Unwind_DeleteException+0xa>
 800ae4c:	4601      	mov	r1, r0
 800ae4e:	2001      	movs	r0, #1
 800ae50:	4718      	bx	r3
 800ae52:	4770      	bx	lr

0800ae54 <_Unwind_VRS_Get>:
 800ae54:	b500      	push	{lr}
 800ae56:	2904      	cmp	r1, #4
 800ae58:	d808      	bhi.n	800ae6c <_Unwind_VRS_Get+0x18>
 800ae5a:	e8df f001 	tbb	[pc, r1]
 800ae5e:	0306      	.short	0x0306
 800ae60:	0307      	.short	0x0307
 800ae62:	03          	.byte	0x03
 800ae63:	00          	.byte	0x00
 800ae64:	2001      	movs	r0, #1
 800ae66:	f85d fb04 	ldr.w	pc, [sp], #4
 800ae6a:	b113      	cbz	r3, 800ae72 <_Unwind_VRS_Get+0x1e>
 800ae6c:	2002      	movs	r0, #2
 800ae6e:	f85d fb04 	ldr.w	pc, [sp], #4
 800ae72:	2a0f      	cmp	r2, #15
 800ae74:	d8fa      	bhi.n	800ae6c <_Unwind_VRS_Get+0x18>
 800ae76:	eb00 0282 	add.w	r2, r0, r2, lsl #2
 800ae7a:	6852      	ldr	r2, [r2, #4]
 800ae7c:	4618      	mov	r0, r3
 800ae7e:	9b01      	ldr	r3, [sp, #4]
 800ae80:	601a      	str	r2, [r3, #0]
 800ae82:	f85d fb04 	ldr.w	pc, [sp], #4
 800ae86:	bf00      	nop

0800ae88 <_Unwind_GetGR>:
 800ae88:	460a      	mov	r2, r1
 800ae8a:	2100      	movs	r1, #0
 800ae8c:	b510      	push	{r4, lr}
 800ae8e:	b084      	sub	sp, #16
 800ae90:	ac03      	add	r4, sp, #12
 800ae92:	460b      	mov	r3, r1
 800ae94:	9400      	str	r4, [sp, #0]
 800ae96:	f7ff ffdd 	bl	800ae54 <_Unwind_VRS_Get>
 800ae9a:	9803      	ldr	r0, [sp, #12]
 800ae9c:	b004      	add	sp, #16
 800ae9e:	bd10      	pop	{r4, pc}

0800aea0 <_Unwind_VRS_Set>:
 800aea0:	b500      	push	{lr}
 800aea2:	2904      	cmp	r1, #4
 800aea4:	d808      	bhi.n	800aeb8 <_Unwind_VRS_Set+0x18>
 800aea6:	e8df f001 	tbb	[pc, r1]
 800aeaa:	0306      	.short	0x0306
 800aeac:	0307      	.short	0x0307
 800aeae:	03          	.byte	0x03
 800aeaf:	00          	.byte	0x00
 800aeb0:	2001      	movs	r0, #1
 800aeb2:	f85d fb04 	ldr.w	pc, [sp], #4
 800aeb6:	b113      	cbz	r3, 800aebe <_Unwind_VRS_Set+0x1e>
 800aeb8:	2002      	movs	r0, #2
 800aeba:	f85d fb04 	ldr.w	pc, [sp], #4
 800aebe:	2a0f      	cmp	r2, #15
 800aec0:	d8fa      	bhi.n	800aeb8 <_Unwind_VRS_Set+0x18>
 800aec2:	9901      	ldr	r1, [sp, #4]
 800aec4:	eb00 0282 	add.w	r2, r0, r2, lsl #2
 800aec8:	6809      	ldr	r1, [r1, #0]
 800aeca:	4618      	mov	r0, r3
 800aecc:	6051      	str	r1, [r2, #4]
 800aece:	f85d fb04 	ldr.w	pc, [sp], #4
 800aed2:	bf00      	nop

0800aed4 <_Unwind_SetGR>:
 800aed4:	b510      	push	{r4, lr}
 800aed6:	460c      	mov	r4, r1
 800aed8:	2100      	movs	r1, #0
 800aeda:	b084      	sub	sp, #16
 800aedc:	ab04      	add	r3, sp, #16
 800aede:	f843 2d04 	str.w	r2, [r3, #-4]!
 800aee2:	9300      	str	r3, [sp, #0]
 800aee4:	4622      	mov	r2, r4
 800aee6:	460b      	mov	r3, r1
 800aee8:	f7ff ffda 	bl	800aea0 <_Unwind_VRS_Set>
 800aeec:	b004      	add	sp, #16
 800aeee:	bd10      	pop	{r4, pc}

0800aef0 <__gnu_Unwind_Backtrace>:
 800aef0:	b5f0      	push	{r4, r5, r6, r7, lr}
 800aef2:	f04f 3eff 	mov.w	lr, #4294967295
 800aef6:	6bd3      	ldr	r3, [r2, #60]	; 0x3c
 800aef8:	f5ad 7d0f 	sub.w	sp, sp, #572	; 0x23c
 800aefc:	6413      	str	r3, [r2, #64]	; 0x40
 800aefe:	1d15      	adds	r5, r2, #4
 800af00:	ac17      	add	r4, sp, #92	; 0x5c
 800af02:	4607      	mov	r7, r0
 800af04:	460e      	mov	r6, r1
 800af06:	cd0f      	ldmia	r5!, {r0, r1, r2, r3}
 800af08:	c40f      	stmia	r4!, {r0, r1, r2, r3}
 800af0a:	cd0f      	ldmia	r5!, {r0, r1, r2, r3}
 800af0c:	c40f      	stmia	r4!, {r0, r1, r2, r3}
 800af0e:	cd0f      	ldmia	r5!, {r0, r1, r2, r3}
 800af10:	c40f      	stmia	r4!, {r0, r1, r2, r3}
 800af12:	e895 000f 	ldmia.w	r5, {r0, r1, r2, r3}
 800af16:	e884 000f 	stmia.w	r4, {r0, r1, r2, r3}
 800af1a:	f8cd e058 	str.w	lr, [sp, #88]	; 0x58
 800af1e:	e012      	b.n	800af46 <__gnu_Unwind_Backtrace+0x56>
 800af20:	a816      	add	r0, sp, #88	; 0x58
 800af22:	210c      	movs	r1, #12
 800af24:	466a      	mov	r2, sp
 800af26:	f7ff ffd5 	bl	800aed4 <_Unwind_SetGR>
 800af2a:	a816      	add	r0, sp, #88	; 0x58
 800af2c:	4631      	mov	r1, r6
 800af2e:	47b8      	blx	r7
 800af30:	b978      	cbnz	r0, 800af52 <__gnu_Unwind_Backtrace+0x62>
 800af32:	9b04      	ldr	r3, [sp, #16]
 800af34:	2008      	movs	r0, #8
 800af36:	4669      	mov	r1, sp
 800af38:	aa16      	add	r2, sp, #88	; 0x58
 800af3a:	4798      	blx	r3
 800af3c:	2805      	cmp	r0, #5
 800af3e:	4604      	mov	r4, r0
 800af40:	d008      	beq.n	800af54 <__gnu_Unwind_Backtrace+0x64>
 800af42:	2809      	cmp	r0, #9
 800af44:	d005      	beq.n	800af52 <__gnu_Unwind_Backtrace+0x62>
 800af46:	4668      	mov	r0, sp
 800af48:	9926      	ldr	r1, [sp, #152]	; 0x98
 800af4a:	f7ff fe05 	bl	800ab58 <get_eit_entry>
 800af4e:	2800      	cmp	r0, #0
 800af50:	d0e6      	beq.n	800af20 <__gnu_Unwind_Backtrace+0x30>
 800af52:	2409      	movs	r4, #9
 800af54:	a816      	add	r0, sp, #88	; 0x58
 800af56:	f7ff fe4b 	bl	800abf0 <restore_non_core_regs>
 800af5a:	4620      	mov	r0, r4
 800af5c:	f50d 7d0f 	add.w	sp, sp, #572	; 0x23c
 800af60:	bdf0      	pop	{r4, r5, r6, r7, pc}
 800af62:	bf00      	nop

0800af64 <__gnu_unwind_pr_common>:
 800af64:	e92d 4ff0 	stmdb	sp!, {r4, r5, r6, r7, r8, r9, sl, fp, lr}
 800af68:	6ccc      	ldr	r4, [r1, #76]	; 0x4c
 800af6a:	4690      	mov	r8, r2
 800af6c:	6822      	ldr	r2, [r4, #0]
 800af6e:	b08b      	sub	sp, #44	; 0x2c
 800af70:	3404      	adds	r4, #4
 800af72:	460d      	mov	r5, r1
 800af74:	9207      	str	r2, [sp, #28]
 800af76:	9408      	str	r4, [sp, #32]
 800af78:	f000 0903 	and.w	r9, r0, #3
 800af7c:	461e      	mov	r6, r3
 800af7e:	2b00      	cmp	r3, #0
 800af80:	d164      	bne.n	800b04c <__gnu_unwind_pr_common+0xe8>
 800af82:	2303      	movs	r3, #3
 800af84:	0212      	lsls	r2, r2, #8
 800af86:	9207      	str	r2, [sp, #28]
 800af88:	f88d 6025 	strb.w	r6, [sp, #37]	; 0x25
 800af8c:	f88d 3024 	strb.w	r3, [sp, #36]	; 0x24
 800af90:	6d2b      	ldr	r3, [r5, #80]	; 0x50
 800af92:	f1b9 0f02 	cmp.w	r9, #2
 800af96:	bf08      	it	eq
 800af98:	6bac      	ldreq	r4, [r5, #56]	; 0x38
 800af9a:	f013 0301 	ands.w	r3, r3, #1
 800af9e:	d143      	bne.n	800b028 <__gnu_unwind_pr_common+0xc4>
 800afa0:	f000 0008 	and.w	r0, r0, #8
 800afa4:	b2c2      	uxtb	r2, r0
 800afa6:	9203      	str	r2, [sp, #12]
 800afa8:	9301      	str	r3, [sp, #4]
 800afaa:	6827      	ldr	r7, [r4, #0]
 800afac:	2f00      	cmp	r7, #0
 800afae:	d03d      	beq.n	800b02c <__gnu_unwind_pr_common+0xc8>
 800afb0:	2e02      	cmp	r6, #2
 800afb2:	d047      	beq.n	800b044 <__gnu_unwind_pr_common+0xe0>
 800afb4:	8827      	ldrh	r7, [r4, #0]
 800afb6:	f8b4 a002 	ldrh.w	sl, [r4, #2]
 800afba:	3404      	adds	r4, #4
 800afbc:	6cab      	ldr	r3, [r5, #72]	; 0x48
 800afbe:	f02a 0b01 	bic.w	fp, sl, #1
 800afc2:	4640      	mov	r0, r8
 800afc4:	210f      	movs	r1, #15
 800afc6:	449b      	add	fp, r3
 800afc8:	f7ff ff5e 	bl	800ae88 <_Unwind_GetGR>
 800afcc:	4583      	cmp	fp, r0
 800afce:	d837      	bhi.n	800b040 <__gnu_unwind_pr_common+0xdc>
 800afd0:	f027 0301 	bic.w	r3, r7, #1
 800afd4:	449b      	add	fp, r3
 800afd6:	4558      	cmp	r0, fp
 800afd8:	bf2c      	ite	cs
 800afda:	2000      	movcs	r0, #0
 800afdc:	2001      	movcc	r0, #1
 800afde:	f00a 0a01 	and.w	sl, sl, #1
 800afe2:	f007 0701 	and.w	r7, r7, #1
 800afe6:	ea47 0a4a 	orr.w	sl, r7, sl, lsl #1
 800afea:	f1ba 0f01 	cmp.w	sl, #1
 800afee:	d043      	beq.n	800b078 <__gnu_unwind_pr_common+0x114>
 800aff0:	d33a      	bcc.n	800b068 <__gnu_unwind_pr_common+0x104>
 800aff2:	f1ba 0f02 	cmp.w	sl, #2
 800aff6:	d11f      	bne.n	800b038 <__gnu_unwind_pr_common+0xd4>
 800aff8:	6823      	ldr	r3, [r4, #0]
 800affa:	f023 4200 	bic.w	r2, r3, #2147483648	; 0x80000000
 800affe:	9202      	str	r2, [sp, #8]
 800b000:	f1b9 0f00 	cmp.w	r9, #0
 800b004:	d17b      	bne.n	800b0fe <__gnu_unwind_pr_common+0x19a>
 800b006:	b138      	cbz	r0, 800b018 <__gnu_unwind_pr_common+0xb4>
 800b008:	9a03      	ldr	r2, [sp, #12]
 800b00a:	2a00      	cmp	r2, #0
 800b00c:	f000 8083 	beq.w	800b116 <__gnu_unwind_pr_common+0x1b2>
 800b010:	9a02      	ldr	r2, [sp, #8]
 800b012:	2a00      	cmp	r2, #0
 800b014:	f000 80a6 	beq.w	800b164 <__gnu_unwind_pr_common+0x200>
 800b018:	2b00      	cmp	r3, #0
 800b01a:	db7a      	blt.n	800b112 <__gnu_unwind_pr_common+0x1ae>
 800b01c:	9b02      	ldr	r3, [sp, #8]
 800b01e:	f103 0a01 	add.w	sl, r3, #1
 800b022:	eb04 048a 	add.w	r4, r4, sl, lsl #2
 800b026:	e7c0      	b.n	800afaa <__gnu_unwind_pr_common+0x46>
 800b028:	2300      	movs	r3, #0
 800b02a:	9301      	str	r3, [sp, #4]
 800b02c:	2e02      	cmp	r6, #2
 800b02e:	dd40      	ble.n	800b0b2 <__gnu_unwind_pr_common+0x14e>
 800b030:	f7ff fe10 	bl	800ac54 <__gnu_unwind_24bit.isra.1>
 800b034:	2800      	cmp	r0, #0
 800b036:	d042      	beq.n	800b0be <__gnu_unwind_pr_common+0x15a>
 800b038:	2009      	movs	r0, #9
 800b03a:	b00b      	add	sp, #44	; 0x2c
 800b03c:	e8bd 8ff0 	ldmia.w	sp!, {r4, r5, r6, r7, r8, r9, sl, fp, pc}
 800b040:	2000      	movs	r0, #0
 800b042:	e7cc      	b.n	800afde <__gnu_unwind_pr_common+0x7a>
 800b044:	f8d4 a004 	ldr.w	sl, [r4, #4]
 800b048:	3408      	adds	r4, #8
 800b04a:	e7b7      	b.n	800afbc <__gnu_unwind_pr_common+0x58>
 800b04c:	2b02      	cmp	r3, #2
 800b04e:	dc9f      	bgt.n	800af90 <__gnu_unwind_pr_common+0x2c>
 800b050:	2102      	movs	r1, #2
 800b052:	0c13      	lsrs	r3, r2, #16
 800b054:	b2df      	uxtb	r7, r3
 800b056:	0412      	lsls	r2, r2, #16
 800b058:	f88d 3025 	strb.w	r3, [sp, #37]	; 0x25
 800b05c:	eb04 0487 	add.w	r4, r4, r7, lsl #2
 800b060:	9207      	str	r2, [sp, #28]
 800b062:	f88d 1024 	strb.w	r1, [sp, #36]	; 0x24
 800b066:	e793      	b.n	800af90 <__gnu_unwind_pr_common+0x2c>
 800b068:	f1b9 0f00 	cmp.w	r9, #0
 800b06c:	d002      	beq.n	800b074 <__gnu_unwind_pr_common+0x110>
 800b06e:	2800      	cmp	r0, #0
 800b070:	f040 80ad 	bne.w	800b1ce <__gnu_unwind_pr_common+0x26a>
 800b074:	3404      	adds	r4, #4
 800b076:	e798      	b.n	800afaa <__gnu_unwind_pr_common+0x46>
 800b078:	f1b9 0f00 	cmp.w	r9, #0
 800b07c:	d126      	bne.n	800b0cc <__gnu_unwind_pr_common+0x168>
 800b07e:	b1b0      	cbz	r0, 800b0ae <__gnu_unwind_pr_common+0x14a>
 800b080:	e894 000c 	ldmia.w	r4, {r2, r3}
 800b084:	0fd7      	lsrs	r7, r2, #31
 800b086:	1c9a      	adds	r2, r3, #2
 800b088:	d0d6      	beq.n	800b038 <__gnu_unwind_pr_common+0xd4>
 800b08a:	f105 0258 	add.w	r2, r5, #88	; 0x58
 800b08e:	3301      	adds	r3, #1
 800b090:	9206      	str	r2, [sp, #24]
 800b092:	f000 8092 	beq.w	800b1ba <__gnu_unwind_pr_common+0x256>
 800b096:	1d20      	adds	r0, r4, #4
 800b098:	f7ff fdd6 	bl	800ac48 <_Unwind_decode_typeinfo_ptr.isra.0>
 800b09c:	463a      	mov	r2, r7
 800b09e:	4601      	mov	r1, r0
 800b0a0:	ab06      	add	r3, sp, #24
 800b0a2:	4628      	mov	r0, r5
 800b0a4:	f3af 8000 	nop.w
 800b0a8:	2800      	cmp	r0, #0
 800b0aa:	f040 80b5 	bne.w	800b218 <__gnu_unwind_pr_common+0x2b4>
 800b0ae:	3408      	adds	r4, #8
 800b0b0:	e77b      	b.n	800afaa <__gnu_unwind_pr_common+0x46>
 800b0b2:	4640      	mov	r0, r8
 800b0b4:	a907      	add	r1, sp, #28
 800b0b6:	f000 faff 	bl	800b6b8 <__gnu_unwind_execute>
 800b0ba:	2800      	cmp	r0, #0
 800b0bc:	d1bc      	bne.n	800b038 <__gnu_unwind_pr_common+0xd4>
 800b0be:	9b01      	ldr	r3, [sp, #4]
 800b0c0:	2b00      	cmp	r3, #0
 800b0c2:	d159      	bne.n	800b178 <__gnu_unwind_pr_common+0x214>
 800b0c4:	2008      	movs	r0, #8
 800b0c6:	b00b      	add	sp, #44	; 0x2c
 800b0c8:	e8bd 8ff0 	ldmia.w	sp!, {r4, r5, r6, r7, r8, r9, sl, fp, pc}
 800b0cc:	4640      	mov	r0, r8
 800b0ce:	210d      	movs	r1, #13
 800b0d0:	6a2f      	ldr	r7, [r5, #32]
 800b0d2:	f7ff fed9 	bl	800ae88 <_Unwind_GetGR>
 800b0d6:	4287      	cmp	r7, r0
 800b0d8:	d1e9      	bne.n	800b0ae <__gnu_unwind_pr_common+0x14a>
 800b0da:	6aab      	ldr	r3, [r5, #40]	; 0x28
 800b0dc:	429c      	cmp	r4, r3
 800b0de:	d1e6      	bne.n	800b0ae <__gnu_unwind_pr_common+0x14a>
 800b0e0:	4620      	mov	r0, r4
 800b0e2:	f7ff fce3 	bl	800aaac <selfrel_offset31>
 800b0e6:	210f      	movs	r1, #15
 800b0e8:	4602      	mov	r2, r0
 800b0ea:	4640      	mov	r0, r8
 800b0ec:	f7ff fef2 	bl	800aed4 <_Unwind_SetGR>
 800b0f0:	4640      	mov	r0, r8
 800b0f2:	462a      	mov	r2, r5
 800b0f4:	2100      	movs	r1, #0
 800b0f6:	f7ff feed 	bl	800aed4 <_Unwind_SetGR>
 800b0fa:	2007      	movs	r0, #7
 800b0fc:	e79d      	b.n	800b03a <__gnu_unwind_pr_common+0xd6>
 800b0fe:	4640      	mov	r0, r8
 800b100:	210d      	movs	r1, #13
 800b102:	6a2f      	ldr	r7, [r5, #32]
 800b104:	f7ff fec0 	bl	800ae88 <_Unwind_GetGR>
 800b108:	4287      	cmp	r7, r0
 800b10a:	d045      	beq.n	800b198 <__gnu_unwind_pr_common+0x234>
 800b10c:	6823      	ldr	r3, [r4, #0]
 800b10e:	2b00      	cmp	r3, #0
 800b110:	da84      	bge.n	800b01c <__gnu_unwind_pr_common+0xb8>
 800b112:	3404      	adds	r4, #4
 800b114:	e782      	b.n	800b01c <__gnu_unwind_pr_common+0xb8>
 800b116:	9b02      	ldr	r3, [sp, #8]
 800b118:	b323      	cbz	r3, 800b164 <__gnu_unwind_pr_common+0x200>
 800b11a:	f105 0358 	add.w	r3, r5, #88	; 0x58
 800b11e:	9605      	str	r6, [sp, #20]
 800b120:	9f03      	ldr	r7, [sp, #12]
 800b122:	f104 0a04 	add.w	sl, r4, #4
 800b126:	f8dd b008 	ldr.w	fp, [sp, #8]
 800b12a:	f8cd 9010 	str.w	r9, [sp, #16]
 800b12e:	461e      	mov	r6, r3
 800b130:	e002      	b.n	800b138 <__gnu_unwind_pr_common+0x1d4>
 800b132:	45d9      	cmp	r9, fp
 800b134:	464f      	mov	r7, r9
 800b136:	d015      	beq.n	800b164 <__gnu_unwind_pr_common+0x200>
 800b138:	4650      	mov	r0, sl
 800b13a:	9606      	str	r6, [sp, #24]
 800b13c:	f7ff fd84 	bl	800ac48 <_Unwind_decode_typeinfo_ptr.isra.0>
 800b140:	2200      	movs	r2, #0
 800b142:	4601      	mov	r1, r0
 800b144:	ab06      	add	r3, sp, #24
 800b146:	4628      	mov	r0, r5
 800b148:	f3af 8000 	nop.w
 800b14c:	f107 0901 	add.w	r9, r7, #1
 800b150:	f10a 0a04 	add.w	sl, sl, #4
 800b154:	2800      	cmp	r0, #0
 800b156:	d0ec      	beq.n	800b132 <__gnu_unwind_pr_common+0x1ce>
 800b158:	9b02      	ldr	r3, [sp, #8]
 800b15a:	f8dd 9010 	ldr.w	r9, [sp, #16]
 800b15e:	429f      	cmp	r7, r3
 800b160:	9e05      	ldr	r6, [sp, #20]
 800b162:	d1d3      	bne.n	800b10c <__gnu_unwind_pr_common+0x1a8>
 800b164:	4640      	mov	r0, r8
 800b166:	210d      	movs	r1, #13
 800b168:	f7ff fe8e 	bl	800ae88 <_Unwind_GetGR>
 800b16c:	9b06      	ldr	r3, [sp, #24]
 800b16e:	6228      	str	r0, [r5, #32]
 800b170:	62ac      	str	r4, [r5, #40]	; 0x28
 800b172:	626b      	str	r3, [r5, #36]	; 0x24
 800b174:	2006      	movs	r0, #6
 800b176:	e760      	b.n	800b03a <__gnu_unwind_pr_common+0xd6>
 800b178:	210f      	movs	r1, #15
 800b17a:	4640      	mov	r0, r8
 800b17c:	f7ff fe84 	bl	800ae88 <_Unwind_GetGR>
 800b180:	210e      	movs	r1, #14
 800b182:	4602      	mov	r2, r0
 800b184:	4640      	mov	r0, r8
 800b186:	f7ff fea5 	bl	800aed4 <_Unwind_SetGR>
 800b18a:	4640      	mov	r0, r8
 800b18c:	210f      	movs	r1, #15
 800b18e:	4a29      	ldr	r2, [pc, #164]	; (800b234 <__gnu_unwind_pr_common+0x2d0>)
 800b190:	f7ff fea0 	bl	800aed4 <_Unwind_SetGR>
 800b194:	2007      	movs	r0, #7
 800b196:	e750      	b.n	800b03a <__gnu_unwind_pr_common+0xd6>
 800b198:	6aab      	ldr	r3, [r5, #40]	; 0x28
 800b19a:	429c      	cmp	r4, r3
 800b19c:	d1b6      	bne.n	800b10c <__gnu_unwind_pr_common+0x1a8>
 800b19e:	2204      	movs	r2, #4
 800b1a0:	2700      	movs	r7, #0
 800b1a2:	9902      	ldr	r1, [sp, #8]
 800b1a4:	18a3      	adds	r3, r4, r2
 800b1a6:	62a9      	str	r1, [r5, #40]	; 0x28
 800b1a8:	62ef      	str	r7, [r5, #44]	; 0x2c
 800b1aa:	632a      	str	r2, [r5, #48]	; 0x30
 800b1ac:	636b      	str	r3, [r5, #52]	; 0x34
 800b1ae:	6823      	ldr	r3, [r4, #0]
 800b1b0:	42bb      	cmp	r3, r7
 800b1b2:	db1f      	blt.n	800b1f4 <__gnu_unwind_pr_common+0x290>
 800b1b4:	2301      	movs	r3, #1
 800b1b6:	9301      	str	r3, [sp, #4]
 800b1b8:	e730      	b.n	800b01c <__gnu_unwind_pr_common+0xb8>
 800b1ba:	4640      	mov	r0, r8
 800b1bc:	210d      	movs	r1, #13
 800b1be:	f7ff fe63 	bl	800ae88 <_Unwind_GetGR>
 800b1c2:	6228      	str	r0, [r5, #32]
 800b1c4:	9b06      	ldr	r3, [sp, #24]
 800b1c6:	626b      	str	r3, [r5, #36]	; 0x24
 800b1c8:	62ac      	str	r4, [r5, #40]	; 0x28
 800b1ca:	2006      	movs	r0, #6
 800b1cc:	e735      	b.n	800b03a <__gnu_unwind_pr_common+0xd6>
 800b1ce:	4620      	mov	r0, r4
 800b1d0:	f7ff fc6c 	bl	800aaac <selfrel_offset31>
 800b1d4:	3404      	adds	r4, #4
 800b1d6:	4606      	mov	r6, r0
 800b1d8:	63ac      	str	r4, [r5, #56]	; 0x38
 800b1da:	4628      	mov	r0, r5
 800b1dc:	f3af 8000 	nop.w
 800b1e0:	2800      	cmp	r0, #0
 800b1e2:	f43f af29 	beq.w	800b038 <__gnu_unwind_pr_common+0xd4>
 800b1e6:	4640      	mov	r0, r8
 800b1e8:	4632      	mov	r2, r6
 800b1ea:	210f      	movs	r1, #15
 800b1ec:	f7ff fe72 	bl	800aed4 <_Unwind_SetGR>
 800b1f0:	2007      	movs	r0, #7
 800b1f2:	e722      	b.n	800b03a <__gnu_unwind_pr_common+0xd6>
 800b1f4:	4608      	mov	r0, r1
 800b1f6:	3001      	adds	r0, #1
 800b1f8:	eb04 0080 	add.w	r0, r4, r0, lsl #2
 800b1fc:	f7ff fc56 	bl	800aaac <selfrel_offset31>
 800b200:	210f      	movs	r1, #15
 800b202:	4602      	mov	r2, r0
 800b204:	4640      	mov	r0, r8
 800b206:	f7ff fe65 	bl	800aed4 <_Unwind_SetGR>
 800b20a:	4640      	mov	r0, r8
 800b20c:	4639      	mov	r1, r7
 800b20e:	462a      	mov	r2, r5
 800b210:	f7ff fe60 	bl	800aed4 <_Unwind_SetGR>
 800b214:	2007      	movs	r0, #7
 800b216:	e710      	b.n	800b03a <__gnu_unwind_pr_common+0xd6>
 800b218:	4607      	mov	r7, r0
 800b21a:	210d      	movs	r1, #13
 800b21c:	4640      	mov	r0, r8
 800b21e:	f7ff fe33 	bl	800ae88 <_Unwind_GetGR>
 800b222:	2f02      	cmp	r7, #2
 800b224:	6228      	str	r0, [r5, #32]
 800b226:	d1cd      	bne.n	800b1c4 <__gnu_unwind_pr_common+0x260>
 800b228:	462b      	mov	r3, r5
 800b22a:	9a06      	ldr	r2, [sp, #24]
 800b22c:	f843 2f2c 	str.w	r2, [r3, #44]!
 800b230:	626b      	str	r3, [r5, #36]	; 0x24
 800b232:	e7c9      	b.n	800b1c8 <__gnu_unwind_pr_common+0x264>
 800b234:	00000000 	.word	0x00000000

0800b238 <__aeabi_unwind_cpp_pr0>:
 800b238:	2300      	movs	r3, #0
 800b23a:	e693      	b.n	800af64 <__gnu_unwind_pr_common>

0800b23c <__aeabi_unwind_cpp_pr1>:
 800b23c:	2301      	movs	r3, #1
 800b23e:	e691      	b.n	800af64 <__gnu_unwind_pr_common>

0800b240 <__aeabi_unwind_cpp_pr2>:
 800b240:	2302      	movs	r3, #2
 800b242:	e68f      	b.n	800af64 <__gnu_unwind_pr_common>

0800b244 <_Unwind_VRS_Pop>:
 800b244:	b5f0      	push	{r4, r5, r6, r7, lr}
 800b246:	4606      	mov	r6, r0
 800b248:	b0c5      	sub	sp, #276	; 0x114
 800b24a:	2904      	cmp	r1, #4
 800b24c:	d80b      	bhi.n	800b266 <_Unwind_VRS_Pop+0x22>
 800b24e:	e8df f001 	tbb	[pc, r1]
 800b252:	0354      	.short	0x0354
 800b254:	2f0a      	.short	0x2f0a
 800b256:	0d          	.byte	0x0d
 800b257:	00          	.byte	0x00
 800b258:	2b01      	cmp	r3, #1
 800b25a:	ea4f 4412 	mov.w	r4, r2, lsr #16
 800b25e:	b295      	uxth	r5, r2
 800b260:	d063      	beq.n	800b32a <_Unwind_VRS_Pop+0xe6>
 800b262:	2b05      	cmp	r3, #5
 800b264:	d078      	beq.n	800b358 <_Unwind_VRS_Pop+0x114>
 800b266:	2002      	movs	r0, #2
 800b268:	b045      	add	sp, #276	; 0x114
 800b26a:	bdf0      	pop	{r4, r5, r6, r7, pc}
 800b26c:	2b00      	cmp	r3, #0
 800b26e:	d1fa      	bne.n	800b266 <_Unwind_VRS_Pop+0x22>
 800b270:	2a10      	cmp	r2, #16
 800b272:	d8f8      	bhi.n	800b266 <_Unwind_VRS_Pop+0x22>
 800b274:	6833      	ldr	r3, [r6, #0]
 800b276:	06d9      	lsls	r1, r3, #27
 800b278:	f100 8101 	bmi.w	800b47e <_Unwind_VRS_Pop+0x23a>
 800b27c:	ad22      	add	r5, sp, #136	; 0x88
 800b27e:	4628      	mov	r0, r5
 800b280:	9201      	str	r2, [sp, #4]
 800b282:	f000 f989 	bl	800b598 <__gnu_Unwind_Save_WMMXC>
 800b286:	2300      	movs	r3, #0
 800b288:	2001      	movs	r0, #1
 800b28a:	6bb4      	ldr	r4, [r6, #56]	; 0x38
 800b28c:	9a01      	ldr	r2, [sp, #4]
 800b28e:	fa00 f103 	lsl.w	r1, r0, r3
 800b292:	4211      	tst	r1, r2
 800b294:	d003      	beq.n	800b29e <_Unwind_VRS_Pop+0x5a>
 800b296:	6821      	ldr	r1, [r4, #0]
 800b298:	3404      	adds	r4, #4
 800b29a:	f845 1023 	str.w	r1, [r5, r3, lsl #2]
 800b29e:	3301      	adds	r3, #1
 800b2a0:	2b04      	cmp	r3, #4
 800b2a2:	d1f4      	bne.n	800b28e <_Unwind_VRS_Pop+0x4a>
 800b2a4:	4628      	mov	r0, r5
 800b2a6:	63b4      	str	r4, [r6, #56]	; 0x38
 800b2a8:	f000 f96c 	bl	800b584 <__gnu_Unwind_Restore_WMMXC>
 800b2ac:	2000      	movs	r0, #0
 800b2ae:	e7db      	b.n	800b268 <_Unwind_VRS_Pop+0x24>
 800b2b0:	2b03      	cmp	r3, #3
 800b2b2:	d1d8      	bne.n	800b266 <_Unwind_VRS_Pop+0x22>
 800b2b4:	0c14      	lsrs	r4, r2, #16
 800b2b6:	b297      	uxth	r7, r2
 800b2b8:	193b      	adds	r3, r7, r4
 800b2ba:	2b10      	cmp	r3, #16
 800b2bc:	d8d3      	bhi.n	800b266 <_Unwind_VRS_Pop+0x22>
 800b2be:	6833      	ldr	r3, [r6, #0]
 800b2c0:	0718      	lsls	r0, r3, #28
 800b2c2:	f100 80ec 	bmi.w	800b49e <_Unwind_VRS_Pop+0x25a>
 800b2c6:	ad22      	add	r5, sp, #136	; 0x88
 800b2c8:	4628      	mov	r0, r5
 800b2ca:	f000 f939 	bl	800b540 <__gnu_Unwind_Save_WMMXD>
 800b2ce:	6bb0      	ldr	r0, [r6, #56]	; 0x38
 800b2d0:	eb05 01c4 	add.w	r1, r5, r4, lsl #3
 800b2d4:	4603      	mov	r3, r0
 800b2d6:	007c      	lsls	r4, r7, #1
 800b2d8:	b14f      	cbz	r7, 800b2ee <_Unwind_VRS_Pop+0xaa>
 800b2da:	2300      	movs	r3, #0
 800b2dc:	f850 2023 	ldr.w	r2, [r0, r3, lsl #2]
 800b2e0:	f841 2023 	str.w	r2, [r1, r3, lsl #2]
 800b2e4:	3301      	adds	r3, #1
 800b2e6:	42a3      	cmp	r3, r4
 800b2e8:	d1f8      	bne.n	800b2dc <_Unwind_VRS_Pop+0x98>
 800b2ea:	eb00 0383 	add.w	r3, r0, r3, lsl #2
 800b2ee:	4628      	mov	r0, r5
 800b2f0:	63b3      	str	r3, [r6, #56]	; 0x38
 800b2f2:	f000 f903 	bl	800b4fc <__gnu_Unwind_Restore_WMMXD>
 800b2f6:	2000      	movs	r0, #0
 800b2f8:	e7b6      	b.n	800b268 <_Unwind_VRS_Pop+0x24>
 800b2fa:	2b00      	cmp	r3, #0
 800b2fc:	d1b3      	bne.n	800b266 <_Unwind_VRS_Pop+0x22>
 800b2fe:	2701      	movs	r7, #1
 800b300:	6bb5      	ldr	r5, [r6, #56]	; 0x38
 800b302:	b290      	uxth	r0, r2
 800b304:	1d34      	adds	r4, r6, #4
 800b306:	fa07 f103 	lsl.w	r1, r7, r3
 800b30a:	4201      	tst	r1, r0
 800b30c:	f103 0301 	add.w	r3, r3, #1
 800b310:	d002      	beq.n	800b318 <_Unwind_VRS_Pop+0xd4>
 800b312:	6829      	ldr	r1, [r5, #0]
 800b314:	3504      	adds	r5, #4
 800b316:	6021      	str	r1, [r4, #0]
 800b318:	2b10      	cmp	r3, #16
 800b31a:	f104 0404 	add.w	r4, r4, #4
 800b31e:	d1f2      	bne.n	800b306 <_Unwind_VRS_Pop+0xc2>
 800b320:	0490      	lsls	r0, r2, #18
 800b322:	d400      	bmi.n	800b326 <_Unwind_VRS_Pop+0xe2>
 800b324:	63b5      	str	r5, [r6, #56]	; 0x38
 800b326:	2000      	movs	r0, #0
 800b328:	e79e      	b.n	800b268 <_Unwind_VRS_Pop+0x24>
 800b32a:	192a      	adds	r2, r5, r4
 800b32c:	2a10      	cmp	r2, #16
 800b32e:	d89a      	bhi.n	800b266 <_Unwind_VRS_Pop+0x22>
 800b330:	2c0f      	cmp	r4, #15
 800b332:	d898      	bhi.n	800b266 <_Unwind_VRS_Pop+0x22>
 800b334:	6832      	ldr	r2, [r6, #0]
 800b336:	07d0      	lsls	r0, r2, #31
 800b338:	d508      	bpl.n	800b34c <_Unwind_VRS_Pop+0x108>
 800b33a:	4630      	mov	r0, r6
 800b33c:	f022 0203 	bic.w	r2, r2, #3
 800b340:	f840 2b48 	str.w	r2, [r0], #72
 800b344:	9301      	str	r3, [sp, #4]
 800b346:	f000 f8c5 	bl	800b4d4 <__gnu_Unwind_Save_VFP>
 800b34a:	9b01      	ldr	r3, [sp, #4]
 800b34c:	a822      	add	r0, sp, #136	; 0x88
 800b34e:	9301      	str	r3, [sp, #4]
 800b350:	f000 f8c0 	bl	800b4d4 <__gnu_Unwind_Save_VFP>
 800b354:	9b01      	ldr	r3, [sp, #4]
 800b356:	e007      	b.n	800b368 <_Unwind_VRS_Pop+0x124>
 800b358:	192f      	adds	r7, r5, r4
 800b35a:	2f20      	cmp	r7, #32
 800b35c:	d883      	bhi.n	800b266 <_Unwind_VRS_Pop+0x22>
 800b35e:	2c0f      	cmp	r4, #15
 800b360:	d93b      	bls.n	800b3da <_Unwind_VRS_Pop+0x196>
 800b362:	462f      	mov	r7, r5
 800b364:	2d00      	cmp	r5, #0
 800b366:	d17d      	bne.n	800b464 <_Unwind_VRS_Pop+0x220>
 800b368:	6bb0      	ldr	r0, [r6, #56]	; 0x38
 800b36a:	46ae      	mov	lr, r5
 800b36c:	4601      	mov	r1, r0
 800b36e:	2d00      	cmp	r5, #0
 800b370:	f000 809d 	beq.w	800b4ae <_Unwind_VRS_Pop+0x26a>
 800b374:	2700      	movs	r7, #0
 800b376:	2200      	movs	r2, #0
 800b378:	ad22      	add	r5, sp, #136	; 0x88
 800b37a:	ea4f 0e4e 	mov.w	lr, lr, lsl #1
 800b37e:	eb05 0cc4 	add.w	ip, r5, r4, lsl #3
 800b382:	f850 5022 	ldr.w	r5, [r0, r2, lsl #2]
 800b386:	f84c 5022 	str.w	r5, [ip, r2, lsl #2]
 800b38a:	3201      	adds	r2, #1
 800b38c:	4572      	cmp	r2, lr
 800b38e:	d1f8      	bne.n	800b382 <_Unwind_VRS_Pop+0x13e>
 800b390:	eb01 0282 	add.w	r2, r1, r2, lsl #2
 800b394:	b197      	cbz	r7, 800b3bc <_Unwind_VRS_Pop+0x178>
 800b396:	2c10      	cmp	r4, #16
 800b398:	4620      	mov	r0, r4
 800b39a:	bf38      	it	cc
 800b39c:	2010      	movcc	r0, #16
 800b39e:	a944      	add	r1, sp, #272	; 0x110
 800b3a0:	eb01 00c0 	add.w	r0, r1, r0, lsl #3
 800b3a4:	f5a0 70c4 	sub.w	r0, r0, #392	; 0x188
 800b3a8:	4611      	mov	r1, r2
 800b3aa:	007a      	lsls	r2, r7, #1
 800b3ac:	eb01 0282 	add.w	r2, r1, r2, lsl #2
 800b3b0:	f851 5b04 	ldr.w	r5, [r1], #4
 800b3b4:	4291      	cmp	r1, r2
 800b3b6:	f840 5b04 	str.w	r5, [r0], #4
 800b3ba:	d1f9      	bne.n	800b3b0 <_Unwind_VRS_Pop+0x16c>
 800b3bc:	2b01      	cmp	r3, #1
 800b3be:	d068      	beq.n	800b492 <_Unwind_VRS_Pop+0x24e>
 800b3c0:	2c0f      	cmp	r4, #15
 800b3c2:	63b2      	str	r2, [r6, #56]	; 0x38
 800b3c4:	d905      	bls.n	800b3d2 <_Unwind_VRS_Pop+0x18e>
 800b3c6:	2f00      	cmp	r7, #0
 800b3c8:	d0ad      	beq.n	800b326 <_Unwind_VRS_Pop+0xe2>
 800b3ca:	a802      	add	r0, sp, #8
 800b3cc:	f000 f88e 	bl	800b4ec <__gnu_Unwind_Restore_VFP_D_16_to_31>
 800b3d0:	e7a9      	b.n	800b326 <_Unwind_VRS_Pop+0xe2>
 800b3d2:	a822      	add	r0, sp, #136	; 0x88
 800b3d4:	f000 f882 	bl	800b4dc <__gnu_Unwind_Restore_VFP_D>
 800b3d8:	e7f5      	b.n	800b3c6 <_Unwind_VRS_Pop+0x182>
 800b3da:	2f10      	cmp	r7, #16
 800b3dc:	6832      	ldr	r2, [r6, #0]
 800b3de:	d82b      	bhi.n	800b438 <_Unwind_VRS_Pop+0x1f4>
 800b3e0:	f012 0701 	ands.w	r7, r2, #1
 800b3e4:	d00b      	beq.n	800b3fe <_Unwind_VRS_Pop+0x1ba>
 800b3e6:	4630      	mov	r0, r6
 800b3e8:	2700      	movs	r7, #0
 800b3ea:	f022 0201 	bic.w	r2, r2, #1
 800b3ee:	f042 0202 	orr.w	r2, r2, #2
 800b3f2:	f840 2b48 	str.w	r2, [r0], #72
 800b3f6:	9301      	str	r3, [sp, #4]
 800b3f8:	f000 f874 	bl	800b4e4 <__gnu_Unwind_Save_VFP_D>
 800b3fc:	9b01      	ldr	r3, [sp, #4]
 800b3fe:	a822      	add	r0, sp, #136	; 0x88
 800b400:	9301      	str	r3, [sp, #4]
 800b402:	f000 f86f 	bl	800b4e4 <__gnu_Unwind_Save_VFP_D>
 800b406:	9b01      	ldr	r3, [sp, #4]
 800b408:	2f00      	cmp	r7, #0
 800b40a:	d0ad      	beq.n	800b368 <_Unwind_VRS_Pop+0x124>
 800b40c:	a802      	add	r0, sp, #8
 800b40e:	9301      	str	r3, [sp, #4]
 800b410:	f000 f870 	bl	800b4f4 <__gnu_Unwind_Save_VFP_D_16_to_31>
 800b414:	6bb1      	ldr	r1, [r6, #56]	; 0x38
 800b416:	f1c4 0e10 	rsb	lr, r4, #16
 800b41a:	f1be 0f00 	cmp.w	lr, #0
 800b41e:	4608      	mov	r0, r1
 800b420:	9b01      	ldr	r3, [sp, #4]
 800b422:	dca8      	bgt.n	800b376 <_Unwind_VRS_Pop+0x132>
 800b424:	2c10      	cmp	r4, #16
 800b426:	4620      	mov	r0, r4
 800b428:	bf38      	it	cc
 800b42a:	2010      	movcc	r0, #16
 800b42c:	aa02      	add	r2, sp, #8
 800b42e:	3810      	subs	r0, #16
 800b430:	eb02 00c0 	add.w	r0, r2, r0, lsl #3
 800b434:	007a      	lsls	r2, r7, #1
 800b436:	e7b9      	b.n	800b3ac <_Unwind_VRS_Pop+0x168>
 800b438:	07d1      	lsls	r1, r2, #31
 800b43a:	f1a7 0710 	sub.w	r7, r7, #16
 800b43e:	d512      	bpl.n	800b466 <_Unwind_VRS_Pop+0x222>
 800b440:	4630      	mov	r0, r6
 800b442:	f022 0201 	bic.w	r2, r2, #1
 800b446:	f042 0202 	orr.w	r2, r2, #2
 800b44a:	f840 2b48 	str.w	r2, [r0], #72
 800b44e:	9301      	str	r3, [sp, #4]
 800b450:	f000 f848 	bl	800b4e4 <__gnu_Unwind_Save_VFP_D>
 800b454:	6832      	ldr	r2, [r6, #0]
 800b456:	9b01      	ldr	r3, [sp, #4]
 800b458:	f012 0f04 	tst.w	r2, #4
 800b45c:	d105      	bne.n	800b46a <_Unwind_VRS_Pop+0x226>
 800b45e:	2c0f      	cmp	r4, #15
 800b460:	d9cd      	bls.n	800b3fe <_Unwind_VRS_Pop+0x1ba>
 800b462:	e7d1      	b.n	800b408 <_Unwind_VRS_Pop+0x1c4>
 800b464:	6832      	ldr	r2, [r6, #0]
 800b466:	0751      	lsls	r1, r2, #29
 800b468:	d5f9      	bpl.n	800b45e <_Unwind_VRS_Pop+0x21a>
 800b46a:	4630      	mov	r0, r6
 800b46c:	f022 0204 	bic.w	r2, r2, #4
 800b470:	f840 2bd0 	str.w	r2, [r0], #208
 800b474:	9301      	str	r3, [sp, #4]
 800b476:	f000 f83d 	bl	800b4f4 <__gnu_Unwind_Save_VFP_D_16_to_31>
 800b47a:	9b01      	ldr	r3, [sp, #4]
 800b47c:	e7ef      	b.n	800b45e <_Unwind_VRS_Pop+0x21a>
 800b47e:	f023 0310 	bic.w	r3, r3, #16
 800b482:	6033      	str	r3, [r6, #0]
 800b484:	f506 70e8 	add.w	r0, r6, #464	; 0x1d0
 800b488:	9201      	str	r2, [sp, #4]
 800b48a:	f000 f885 	bl	800b598 <__gnu_Unwind_Save_WMMXC>
 800b48e:	9a01      	ldr	r2, [sp, #4]
 800b490:	e6f4      	b.n	800b27c <_Unwind_VRS_Pop+0x38>
 800b492:	3204      	adds	r2, #4
 800b494:	63b2      	str	r2, [r6, #56]	; 0x38
 800b496:	a822      	add	r0, sp, #136	; 0x88
 800b498:	f000 f818 	bl	800b4cc <__gnu_Unwind_Restore_VFP>
 800b49c:	e743      	b.n	800b326 <_Unwind_VRS_Pop+0xe2>
 800b49e:	f023 0308 	bic.w	r3, r3, #8
 800b4a2:	6033      	str	r3, [r6, #0]
 800b4a4:	f506 70a8 	add.w	r0, r6, #336	; 0x150
 800b4a8:	f000 f84a 	bl	800b540 <__gnu_Unwind_Save_WMMXD>
 800b4ac:	e70b      	b.n	800b2c6 <_Unwind_VRS_Pop+0x82>
 800b4ae:	4602      	mov	r2, r0
 800b4b0:	462f      	mov	r7, r5
 800b4b2:	e783      	b.n	800b3bc <_Unwind_VRS_Pop+0x178>

0800b4b4 <__restore_core_regs>:
 800b4b4:	f100 0134 	add.w	r1, r0, #52	; 0x34
 800b4b8:	e891 0038 	ldmia.w	r1, {r3, r4, r5}
 800b4bc:	469c      	mov	ip, r3
 800b4be:	46a6      	mov	lr, r4
 800b4c0:	f84c 5d04 	str.w	r5, [ip, #-4]!
 800b4c4:	e890 0fff 	ldmia.w	r0, {r0, r1, r2, r3, r4, r5, r6, r7, r8, r9, sl, fp}
 800b4c8:	46e5      	mov	sp, ip
 800b4ca:	bd00      	pop	{pc}

0800b4cc <__gnu_Unwind_Restore_VFP>:
 800b4cc:	ec90 0b21 	fldmiax	r0, {d0-d15}	;@ Deprecated
 800b4d0:	4770      	bx	lr
 800b4d2:	bf00      	nop

0800b4d4 <__gnu_Unwind_Save_VFP>:
 800b4d4:	ec80 0b21 	fstmiax	r0, {d0-d15}	;@ Deprecated
 800b4d8:	4770      	bx	lr
 800b4da:	bf00      	nop

0800b4dc <__gnu_Unwind_Restore_VFP_D>:
 800b4dc:	ec90 0b20 	vldmia	r0, {d0-d15}
 800b4e0:	4770      	bx	lr
 800b4e2:	bf00      	nop

0800b4e4 <__gnu_Unwind_Save_VFP_D>:
 800b4e4:	ec80 0b20 	vstmia	r0, {d0-d15}
 800b4e8:	4770      	bx	lr
 800b4ea:	bf00      	nop

0800b4ec <__gnu_Unwind_Restore_VFP_D_16_to_31>:
 800b4ec:	ecd0 0b20 	vldmia	r0, {d16-d31}
 800b4f0:	4770      	bx	lr
 800b4f2:	bf00      	nop

0800b4f4 <__gnu_Unwind_Save_VFP_D_16_to_31>:
 800b4f4:	ecc0 0b20 	vstmia	r0, {d16-d31}
 800b4f8:	4770      	bx	lr
 800b4fa:	bf00      	nop

0800b4fc <__gnu_Unwind_Restore_WMMXD>:
 800b4fc:	ecf0 0102 	ldfe	f0, [r0], #8
 800b500:	ecf0 1102 	ldfe	f1, [r0], #8
 800b504:	ecf0 2102 	ldfe	f2, [r0], #8
 800b508:	ecf0 3102 	ldfe	f3, [r0], #8
 800b50c:	ecf0 4102 	ldfe	f4, [r0], #8
 800b510:	ecf0 5102 	ldfe	f5, [r0], #8
 800b514:	ecf0 6102 	ldfe	f6, [r0], #8
 800b518:	ecf0 7102 	ldfe	f7, [r0], #8
 800b51c:	ecf0 8102 	ldfp	f0, [r0], #8
 800b520:	ecf0 9102 	ldfp	f1, [r0], #8
 800b524:	ecf0 a102 	ldfp	f2, [r0], #8
 800b528:	ecf0 b102 	ldfp	f3, [r0], #8
 800b52c:	ecf0 c102 	ldfp	f4, [r0], #8
 800b530:	ecf0 d102 	ldfp	f5, [r0], #8
 800b534:	ecf0 e102 	ldfp	f6, [r0], #8
 800b538:	ecf0 f102 	ldfp	f7, [r0], #8
 800b53c:	4770      	bx	lr
 800b53e:	bf00      	nop

0800b540 <__gnu_Unwind_Save_WMMXD>:
 800b540:	ece0 0102 	stfe	f0, [r0], #8
 800b544:	ece0 1102 	stfe	f1, [r0], #8
 800b548:	ece0 2102 	stfe	f2, [r0], #8
 800b54c:	ece0 3102 	stfe	f3, [r0], #8
 800b550:	ece0 4102 	stfe	f4, [r0], #8
 800b554:	ece0 5102 	stfe	f5, [r0], #8
 800b558:	ece0 6102 	stfe	f6, [r0], #8
 800b55c:	ece0 7102 	stfe	f7, [r0], #8
 800b560:	ece0 8102 	stfp	f0, [r0], #8
 800b564:	ece0 9102 	stfp	f1, [r0], #8
 800b568:	ece0 a102 	stfp	f2, [r0], #8
 800b56c:	ece0 b102 	stfp	f3, [r0], #8
 800b570:	ece0 c102 	stfp	f4, [r0], #8
 800b574:	ece0 d102 	stfp	f5, [r0], #8
 800b578:	ece0 e102 	stfp	f6, [r0], #8
 800b57c:	ece0 f102 	stfp	f7, [r0], #8
 800b580:	4770      	bx	lr
 800b582:	bf00      	nop

0800b584 <__gnu_Unwind_Restore_WMMXC>:
 800b584:	fcb0 8101 	ldc2	1, cr8, [r0], #4
 800b588:	fcb0 9101 	ldc2	1, cr9, [r0], #4
 800b58c:	fcb0 a101 	ldc2	1, cr10, [r0], #4
 800b590:	fcb0 b101 	ldc2	1, cr11, [r0], #4
 800b594:	4770      	bx	lr
 800b596:	bf00      	nop

0800b598 <__gnu_Unwind_Save_WMMXC>:
 800b598:	fca0 8101 	stc2	1, cr8, [r0], #4
 800b59c:	fca0 9101 	stc2	1, cr9, [r0], #4
 800b5a0:	fca0 a101 	stc2	1, cr10, [r0], #4
 800b5a4:	fca0 b101 	stc2	1, cr11, [r0], #4
 800b5a8:	4770      	bx	lr
 800b5aa:	bf00      	nop

0800b5ac <_Unwind_RaiseException>:
 800b5ac:	46ec      	mov	ip, sp
 800b5ae:	b500      	push	{lr}
 800b5b0:	e92d 5000 	stmdb	sp!, {ip, lr}
 800b5b4:	e92d 1fff 	stmdb	sp!, {r0, r1, r2, r3, r4, r5, r6, r7, r8, r9, sl, fp, ip}
 800b5b8:	f04f 0300 	mov.w	r3, #0
 800b5bc:	e92d 000c 	stmdb	sp!, {r2, r3}
 800b5c0:	a901      	add	r1, sp, #4
 800b5c2:	f7ff fbd9 	bl	800ad78 <__gnu_Unwind_RaiseException>
 800b5c6:	f8dd e040 	ldr.w	lr, [sp, #64]	; 0x40
 800b5ca:	b012      	add	sp, #72	; 0x48
 800b5cc:	4770      	bx	lr
 800b5ce:	bf00      	nop

0800b5d0 <_Unwind_Resume>:
 800b5d0:	46ec      	mov	ip, sp
 800b5d2:	b500      	push	{lr}
 800b5d4:	e92d 5000 	stmdb	sp!, {ip, lr}
 800b5d8:	e92d 1fff 	stmdb	sp!, {r0, r1, r2, r3, r4, r5, r6, r7, r8, r9, sl, fp, ip}
 800b5dc:	f04f 0300 	mov.w	r3, #0
 800b5e0:	e92d 000c 	stmdb	sp!, {r2, r3}
 800b5e4:	a901      	add	r1, sp, #4
 800b5e6:	f7ff fc01 	bl	800adec <__gnu_Unwind_Resume>
 800b5ea:	f8dd e040 	ldr.w	lr, [sp, #64]	; 0x40
 800b5ee:	b012      	add	sp, #72	; 0x48
 800b5f0:	4770      	bx	lr
 800b5f2:	bf00      	nop

0800b5f4 <_Unwind_Resume_or_Rethrow>:
 800b5f4:	46ec      	mov	ip, sp
 800b5f6:	b500      	push	{lr}
 800b5f8:	e92d 5000 	stmdb	sp!, {ip, lr}
 800b5fc:	e92d 1fff 	stmdb	sp!, {r0, r1, r2, r3, r4, r5, r6, r7, r8, r9, sl, fp, ip}
 800b600:	f04f 0300 	mov.w	r3, #0
 800b604:	e92d 000c 	stmdb	sp!, {r2, r3}
 800b608:	a901      	add	r1, sp, #4
 800b60a:	f7ff fc11 	bl	800ae30 <__gnu_Unwind_Resume_or_Rethrow>
 800b60e:	f8dd e040 	ldr.w	lr, [sp, #64]	; 0x40
 800b612:	b012      	add	sp, #72	; 0x48
 800b614:	4770      	bx	lr
 800b616:	bf00      	nop

0800b618 <_Unwind_ForcedUnwind>:
 800b618:	46ec      	mov	ip, sp
 800b61a:	b500      	push	{lr}
 800b61c:	e92d 5000 	stmdb	sp!, {ip, lr}
 800b620:	e92d 1fff 	stmdb	sp!, {r0, r1, r2, r3, r4, r5, r6, r7, r8, r9, sl, fp, ip}
 800b624:	f04f 0300 	mov.w	r3, #0
 800b628:	e92d 000c 	stmdb	sp!, {r2, r3}
 800b62c:	ab01      	add	r3, sp, #4
 800b62e:	f7ff fbd3 	bl	800add8 <__gnu_Unwind_ForcedUnwind>
 800b632:	f8dd e040 	ldr.w	lr, [sp, #64]	; 0x40
 800b636:	b012      	add	sp, #72	; 0x48
 800b638:	4770      	bx	lr
 800b63a:	bf00      	nop

0800b63c <_Unwind_Backtrace>:
 800b63c:	46ec      	mov	ip, sp
 800b63e:	b500      	push	{lr}
 800b640:	e92d 5000 	stmdb	sp!, {ip, lr}
 800b644:	e92d 1fff 	stmdb	sp!, {r0, r1, r2, r3, r4, r5, r6, r7, r8, r9, sl, fp, ip}
 800b648:	f04f 0300 	mov.w	r3, #0
 800b64c:	e92d 000c 	stmdb	sp!, {r2, r3}
 800b650:	aa01      	add	r2, sp, #4
 800b652:	f7ff fc4d 	bl	800aef0 <__gnu_Unwind_Backtrace>
 800b656:	f8dd e040 	ldr.w	lr, [sp, #64]	; 0x40
 800b65a:	b012      	add	sp, #72	; 0x48
 800b65c:	4770      	bx	lr
 800b65e:	bf00      	nop

0800b660 <next_unwind_byte>:
 800b660:	7a03      	ldrb	r3, [r0, #8]
 800b662:	b993      	cbnz	r3, 800b68a <next_unwind_byte+0x2a>
 800b664:	7a43      	ldrb	r3, [r0, #9]
 800b666:	b90b      	cbnz	r3, 800b66c <next_unwind_byte+0xc>
 800b668:	20b0      	movs	r0, #176	; 0xb0
 800b66a:	4770      	bx	lr
 800b66c:	2103      	movs	r1, #3
 800b66e:	6842      	ldr	r2, [r0, #4]
 800b670:	3b01      	subs	r3, #1
 800b672:	b410      	push	{r4}
 800b674:	7243      	strb	r3, [r0, #9]
 800b676:	6813      	ldr	r3, [r2, #0]
 800b678:	1d14      	adds	r4, r2, #4
 800b67a:	7201      	strb	r1, [r0, #8]
 800b67c:	021a      	lsls	r2, r3, #8
 800b67e:	6044      	str	r4, [r0, #4]
 800b680:	6002      	str	r2, [r0, #0]
 800b682:	f85d 4b04 	ldr.w	r4, [sp], #4
 800b686:	0e18      	lsrs	r0, r3, #24
 800b688:	4770      	bx	lr
 800b68a:	1e5a      	subs	r2, r3, #1
 800b68c:	6803      	ldr	r3, [r0, #0]
 800b68e:	7202      	strb	r2, [r0, #8]
 800b690:	021a      	lsls	r2, r3, #8
 800b692:	6002      	str	r2, [r0, #0]
 800b694:	0e18      	lsrs	r0, r3, #24
 800b696:	4770      	bx	lr

0800b698 <_Unwind_GetGR.constprop.0>:
 800b698:	2100      	movs	r1, #0
 800b69a:	b500      	push	{lr}
 800b69c:	b085      	sub	sp, #20
 800b69e:	aa03      	add	r2, sp, #12
 800b6a0:	9200      	str	r2, [sp, #0]
 800b6a2:	460b      	mov	r3, r1
 800b6a4:	220c      	movs	r2, #12
 800b6a6:	f7ff fbd5 	bl	800ae54 <_Unwind_VRS_Get>
 800b6aa:	9803      	ldr	r0, [sp, #12]
 800b6ac:	b005      	add	sp, #20
 800b6ae:	f85d fb04 	ldr.w	pc, [sp], #4
 800b6b2:	bf00      	nop

0800b6b4 <unwind_UCB_from_context>:
 800b6b4:	e7f0      	b.n	800b698 <_Unwind_GetGR.constprop.0>
 800b6b6:	bf00      	nop

0800b6b8 <__gnu_unwind_execute>:
 800b6b8:	e92d 43f0 	stmdb	sp!, {r4, r5, r6, r7, r8, r9, lr}
 800b6bc:	4606      	mov	r6, r0
 800b6be:	460d      	mov	r5, r1
 800b6c0:	f04f 0800 	mov.w	r8, #0
 800b6c4:	b085      	sub	sp, #20
 800b6c6:	4628      	mov	r0, r5
 800b6c8:	f7ff ffca 	bl	800b660 <next_unwind_byte>
 800b6cc:	28b0      	cmp	r0, #176	; 0xb0
 800b6ce:	4604      	mov	r4, r0
 800b6d0:	f000 80b5 	beq.w	800b83e <__gnu_unwind_execute+0x186>
 800b6d4:	f020 027f 	bic.w	r2, r0, #127	; 0x7f
 800b6d8:	f012 01ff 	ands.w	r1, r2, #255	; 0xff
 800b6dc:	d020      	beq.n	800b720 <__gnu_unwind_execute+0x68>
 800b6de:	f000 03f0 	and.w	r3, r0, #240	; 0xf0
 800b6e2:	2b80      	cmp	r3, #128	; 0x80
 800b6e4:	d07a      	beq.n	800b7dc <__gnu_unwind_execute+0x124>
 800b6e6:	2b90      	cmp	r3, #144	; 0x90
 800b6e8:	d035      	beq.n	800b756 <__gnu_unwind_execute+0x9e>
 800b6ea:	2ba0      	cmp	r3, #160	; 0xa0
 800b6ec:	d048      	beq.n	800b780 <__gnu_unwind_execute+0xc8>
 800b6ee:	2bb0      	cmp	r3, #176	; 0xb0
 800b6f0:	d05c      	beq.n	800b7ac <__gnu_unwind_execute+0xf4>
 800b6f2:	2bc0      	cmp	r3, #192	; 0xc0
 800b6f4:	f000 8089 	beq.w	800b80a <__gnu_unwind_execute+0x152>
 800b6f8:	f000 03f8 	and.w	r3, r0, #248	; 0xf8
 800b6fc:	2bd0      	cmp	r3, #208	; 0xd0
 800b6fe:	d10b      	bne.n	800b718 <__gnu_unwind_execute+0x60>
 800b700:	f000 0207 	and.w	r2, r0, #7
 800b704:	3201      	adds	r2, #1
 800b706:	f442 2200 	orr.w	r2, r2, #524288	; 0x80000
 800b70a:	4630      	mov	r0, r6
 800b70c:	2101      	movs	r1, #1
 800b70e:	2305      	movs	r3, #5
 800b710:	f7ff fd98 	bl	800b244 <_Unwind_VRS_Pop>
 800b714:	2800      	cmp	r0, #0
 800b716:	d0d6      	beq.n	800b6c6 <__gnu_unwind_execute+0xe>
 800b718:	2009      	movs	r0, #9
 800b71a:	b005      	add	sp, #20
 800b71c:	e8bd 83f0 	ldmia.w	sp!, {r4, r5, r6, r7, r8, r9, pc}
 800b720:	f10d 090c 	add.w	r9, sp, #12
 800b724:	460b      	mov	r3, r1
 800b726:	0087      	lsls	r7, r0, #2
 800b728:	f8cd 9000 	str.w	r9, [sp]
 800b72c:	4630      	mov	r0, r6
 800b72e:	220d      	movs	r2, #13
 800b730:	f7ff fb90 	bl	800ae54 <_Unwind_VRS_Get>
 800b734:	2100      	movs	r1, #0
 800b736:	9b03      	ldr	r3, [sp, #12]
 800b738:	b2ff      	uxtb	r7, r7
 800b73a:	3704      	adds	r7, #4
 800b73c:	0660      	lsls	r0, r4, #25
 800b73e:	bf4c      	ite	mi
 800b740:	1bdf      	submi	r7, r3, r7
 800b742:	18ff      	addpl	r7, r7, r3
 800b744:	f8cd 9000 	str.w	r9, [sp]
 800b748:	460b      	mov	r3, r1
 800b74a:	4630      	mov	r0, r6
 800b74c:	220d      	movs	r2, #13
 800b74e:	9703      	str	r7, [sp, #12]
 800b750:	f7ff fba6 	bl	800aea0 <_Unwind_VRS_Set>
 800b754:	e7b7      	b.n	800b6c6 <__gnu_unwind_execute+0xe>
 800b756:	f000 030d 	and.w	r3, r0, #13
 800b75a:	2b0d      	cmp	r3, #13
 800b75c:	d0dc      	beq.n	800b718 <__gnu_unwind_execute+0x60>
 800b75e:	2100      	movs	r1, #0
 800b760:	af03      	add	r7, sp, #12
 800b762:	f000 020f 	and.w	r2, r0, #15
 800b766:	460b      	mov	r3, r1
 800b768:	9700      	str	r7, [sp, #0]
 800b76a:	4630      	mov	r0, r6
 800b76c:	f7ff fb72 	bl	800ae54 <_Unwind_VRS_Get>
 800b770:	2100      	movs	r1, #0
 800b772:	9700      	str	r7, [sp, #0]
 800b774:	460b      	mov	r3, r1
 800b776:	4630      	mov	r0, r6
 800b778:	220d      	movs	r2, #13
 800b77a:	f7ff fb91 	bl	800aea0 <_Unwind_VRS_Set>
 800b77e:	e7a2      	b.n	800b6c6 <__gnu_unwind_execute+0xe>
 800b780:	43c3      	mvns	r3, r0
 800b782:	f44f 627f 	mov.w	r2, #4080	; 0xff0
 800b786:	0701      	lsls	r1, r0, #28
 800b788:	f04f 0100 	mov.w	r1, #0
 800b78c:	f003 0307 	and.w	r3, r3, #7
 800b790:	fa42 f203 	asr.w	r2, r2, r3
 800b794:	f402 627f 	and.w	r2, r2, #4080	; 0xff0
 800b798:	bf48      	it	mi
 800b79a:	f442 4280 	orrmi.w	r2, r2, #16384	; 0x4000
 800b79e:	460b      	mov	r3, r1
 800b7a0:	4630      	mov	r0, r6
 800b7a2:	f7ff fd4f 	bl	800b244 <_Unwind_VRS_Pop>
 800b7a6:	2800      	cmp	r0, #0
 800b7a8:	d1b6      	bne.n	800b718 <__gnu_unwind_execute+0x60>
 800b7aa:	e78c      	b.n	800b6c6 <__gnu_unwind_execute+0xe>
 800b7ac:	28b1      	cmp	r0, #177	; 0xb1
 800b7ae:	d04b      	beq.n	800b848 <__gnu_unwind_execute+0x190>
 800b7b0:	28b2      	cmp	r0, #178	; 0xb2
 800b7b2:	d05c      	beq.n	800b86e <__gnu_unwind_execute+0x1b6>
 800b7b4:	28b3      	cmp	r0, #179	; 0xb3
 800b7b6:	f000 8089 	beq.w	800b8cc <__gnu_unwind_execute+0x214>
 800b7ba:	f000 03fc 	and.w	r3, r0, #252	; 0xfc
 800b7be:	2bb4      	cmp	r3, #180	; 0xb4
 800b7c0:	d0aa      	beq.n	800b718 <__gnu_unwind_execute+0x60>
 800b7c2:	2101      	movs	r1, #1
 800b7c4:	f000 0207 	and.w	r2, r0, #7
 800b7c8:	440a      	add	r2, r1
 800b7ca:	f442 2200 	orr.w	r2, r2, #524288	; 0x80000
 800b7ce:	460b      	mov	r3, r1
 800b7d0:	4630      	mov	r0, r6
 800b7d2:	f7ff fd37 	bl	800b244 <_Unwind_VRS_Pop>
 800b7d6:	2800      	cmp	r0, #0
 800b7d8:	d19e      	bne.n	800b718 <__gnu_unwind_execute+0x60>
 800b7da:	e774      	b.n	800b6c6 <__gnu_unwind_execute+0xe>
 800b7dc:	4628      	mov	r0, r5
 800b7de:	f7ff ff3f 	bl	800b660 <next_unwind_byte>
 800b7e2:	0224      	lsls	r4, r4, #8
 800b7e4:	4320      	orrs	r0, r4
 800b7e6:	f5b0 4f00 	cmp.w	r0, #32768	; 0x8000
 800b7ea:	d095      	beq.n	800b718 <__gnu_unwind_execute+0x60>
 800b7ec:	2100      	movs	r1, #0
 800b7ee:	0104      	lsls	r4, r0, #4
 800b7f0:	b2a2      	uxth	r2, r4
 800b7f2:	460b      	mov	r3, r1
 800b7f4:	4630      	mov	r0, r6
 800b7f6:	f7ff fd25 	bl	800b244 <_Unwind_VRS_Pop>
 800b7fa:	2800      	cmp	r0, #0
 800b7fc:	d18c      	bne.n	800b718 <__gnu_unwind_execute+0x60>
 800b7fe:	f414 4f00 	tst.w	r4, #32768	; 0x8000
 800b802:	bf18      	it	ne
 800b804:	f04f 0801 	movne.w	r8, #1
 800b808:	e75d      	b.n	800b6c6 <__gnu_unwind_execute+0xe>
 800b80a:	28c6      	cmp	r0, #198	; 0xc6
 800b80c:	d071      	beq.n	800b8f2 <__gnu_unwind_execute+0x23a>
 800b80e:	28c7      	cmp	r0, #199	; 0xc7
 800b810:	d077      	beq.n	800b902 <__gnu_unwind_execute+0x24a>
 800b812:	f000 03f8 	and.w	r3, r0, #248	; 0xf8
 800b816:	2bc0      	cmp	r3, #192	; 0xc0
 800b818:	f000 8086 	beq.w	800b928 <__gnu_unwind_execute+0x270>
 800b81c:	28c8      	cmp	r0, #200	; 0xc8
 800b81e:	f000 80a1 	beq.w	800b964 <__gnu_unwind_execute+0x2ac>
 800b822:	28c9      	cmp	r0, #201	; 0xc9
 800b824:	f47f af78 	bne.w	800b718 <__gnu_unwind_execute+0x60>
 800b828:	4628      	mov	r0, r5
 800b82a:	f7ff ff19 	bl	800b660 <next_unwind_byte>
 800b82e:	f000 020f 	and.w	r2, r0, #15
 800b832:	3201      	adds	r2, #1
 800b834:	f000 00f0 	and.w	r0, r0, #240	; 0xf0
 800b838:	ea42 3200 	orr.w	r2, r2, r0, lsl #12
 800b83c:	e765      	b.n	800b70a <__gnu_unwind_execute+0x52>
 800b83e:	f1b8 0f00 	cmp.w	r8, #0
 800b842:	d07f      	beq.n	800b944 <__gnu_unwind_execute+0x28c>
 800b844:	2000      	movs	r0, #0
 800b846:	e768      	b.n	800b71a <__gnu_unwind_execute+0x62>
 800b848:	4628      	mov	r0, r5
 800b84a:	f7ff ff09 	bl	800b660 <next_unwind_byte>
 800b84e:	4602      	mov	r2, r0
 800b850:	2800      	cmp	r0, #0
 800b852:	f43f af61 	beq.w	800b718 <__gnu_unwind_execute+0x60>
 800b856:	f010 01f0 	ands.w	r1, r0, #240	; 0xf0
 800b85a:	f47f af5d 	bne.w	800b718 <__gnu_unwind_execute+0x60>
 800b85e:	4630      	mov	r0, r6
 800b860:	460b      	mov	r3, r1
 800b862:	f7ff fcef 	bl	800b244 <_Unwind_VRS_Pop>
 800b866:	2800      	cmp	r0, #0
 800b868:	f47f af56 	bne.w	800b718 <__gnu_unwind_execute+0x60>
 800b86c:	e72b      	b.n	800b6c6 <__gnu_unwind_execute+0xe>
 800b86e:	2100      	movs	r1, #0
 800b870:	f10d 090c 	add.w	r9, sp, #12
 800b874:	220d      	movs	r2, #13
 800b876:	460b      	mov	r3, r1
 800b878:	f8cd 9000 	str.w	r9, [sp]
 800b87c:	4630      	mov	r0, r6
 800b87e:	f7ff fae9 	bl	800ae54 <_Unwind_VRS_Get>
 800b882:	4628      	mov	r0, r5
 800b884:	f7ff feec 	bl	800b660 <next_unwind_byte>
 800b888:	0602      	lsls	r2, r0, #24
 800b88a:	f04f 0402 	mov.w	r4, #2
 800b88e:	d50c      	bpl.n	800b8aa <__gnu_unwind_execute+0x1f2>
 800b890:	9b03      	ldr	r3, [sp, #12]
 800b892:	f000 007f 	and.w	r0, r0, #127	; 0x7f
 800b896:	40a0      	lsls	r0, r4
 800b898:	4403      	add	r3, r0
 800b89a:	4628      	mov	r0, r5
 800b89c:	9303      	str	r3, [sp, #12]
 800b89e:	f7ff fedf 	bl	800b660 <next_unwind_byte>
 800b8a2:	0603      	lsls	r3, r0, #24
 800b8a4:	f104 0407 	add.w	r4, r4, #7
 800b8a8:	d4f2      	bmi.n	800b890 <__gnu_unwind_execute+0x1d8>
 800b8aa:	2100      	movs	r1, #0
 800b8ac:	9b03      	ldr	r3, [sp, #12]
 800b8ae:	f000 007f 	and.w	r0, r0, #127	; 0x7f
 800b8b2:	40a0      	lsls	r0, r4
 800b8b4:	f503 7301 	add.w	r3, r3, #516	; 0x204
 800b8b8:	181c      	adds	r4, r3, r0
 800b8ba:	f8cd 9000 	str.w	r9, [sp]
 800b8be:	460b      	mov	r3, r1
 800b8c0:	4630      	mov	r0, r6
 800b8c2:	220d      	movs	r2, #13
 800b8c4:	9403      	str	r4, [sp, #12]
 800b8c6:	f7ff faeb 	bl	800aea0 <_Unwind_VRS_Set>
 800b8ca:	e6fc      	b.n	800b6c6 <__gnu_unwind_execute+0xe>
 800b8cc:	4628      	mov	r0, r5
 800b8ce:	f7ff fec7 	bl	800b660 <next_unwind_byte>
 800b8d2:	2101      	movs	r1, #1
 800b8d4:	f000 020f 	and.w	r2, r0, #15
 800b8d8:	440a      	add	r2, r1
 800b8da:	f000 00f0 	and.w	r0, r0, #240	; 0xf0
 800b8de:	ea42 3200 	orr.w	r2, r2, r0, lsl #12
 800b8e2:	460b      	mov	r3, r1
 800b8e4:	4630      	mov	r0, r6
 800b8e6:	f7ff fcad 	bl	800b244 <_Unwind_VRS_Pop>
 800b8ea:	2800      	cmp	r0, #0
 800b8ec:	f47f af14 	bne.w	800b718 <__gnu_unwind_execute+0x60>
 800b8f0:	e6e9      	b.n	800b6c6 <__gnu_unwind_execute+0xe>
 800b8f2:	4628      	mov	r0, r5
 800b8f4:	f7ff feb4 	bl	800b660 <next_unwind_byte>
 800b8f8:	f000 020f 	and.w	r2, r0, #15
 800b8fc:	2103      	movs	r1, #3
 800b8fe:	3201      	adds	r2, #1
 800b900:	e7eb      	b.n	800b8da <__gnu_unwind_execute+0x222>
 800b902:	4628      	mov	r0, r5
 800b904:	f7ff feac 	bl	800b660 <next_unwind_byte>
 800b908:	4602      	mov	r2, r0
 800b90a:	2800      	cmp	r0, #0
 800b90c:	f43f af04 	beq.w	800b718 <__gnu_unwind_execute+0x60>
 800b910:	f010 03f0 	ands.w	r3, r0, #240	; 0xf0
 800b914:	f47f af00 	bne.w	800b718 <__gnu_unwind_execute+0x60>
 800b918:	4630      	mov	r0, r6
 800b91a:	2104      	movs	r1, #4
 800b91c:	f7ff fc92 	bl	800b244 <_Unwind_VRS_Pop>
 800b920:	2800      	cmp	r0, #0
 800b922:	f47f aef9 	bne.w	800b718 <__gnu_unwind_execute+0x60>
 800b926:	e6ce      	b.n	800b6c6 <__gnu_unwind_execute+0xe>
 800b928:	2103      	movs	r1, #3
 800b92a:	f000 020f 	and.w	r2, r0, #15
 800b92e:	3201      	adds	r2, #1
 800b930:	f442 2220 	orr.w	r2, r2, #655360	; 0xa0000
 800b934:	460b      	mov	r3, r1
 800b936:	4630      	mov	r0, r6
 800b938:	f7ff fc84 	bl	800b244 <_Unwind_VRS_Pop>
 800b93c:	2800      	cmp	r0, #0
 800b93e:	f47f aeeb 	bne.w	800b718 <__gnu_unwind_execute+0x60>
 800b942:	e6c0      	b.n	800b6c6 <__gnu_unwind_execute+0xe>
 800b944:	ac03      	add	r4, sp, #12
 800b946:	4641      	mov	r1, r8
 800b948:	4643      	mov	r3, r8
 800b94a:	9400      	str	r4, [sp, #0]
 800b94c:	4630      	mov	r0, r6
 800b94e:	220e      	movs	r2, #14
 800b950:	f7ff fa80 	bl	800ae54 <_Unwind_VRS_Get>
 800b954:	9400      	str	r4, [sp, #0]
 800b956:	4630      	mov	r0, r6
 800b958:	4641      	mov	r1, r8
 800b95a:	4643      	mov	r3, r8
 800b95c:	220f      	movs	r2, #15
 800b95e:	f7ff fa9f 	bl	800aea0 <_Unwind_VRS_Set>
 800b962:	e76f      	b.n	800b844 <__gnu_unwind_execute+0x18c>
 800b964:	4628      	mov	r0, r5
 800b966:	f7ff fe7b 	bl	800b660 <next_unwind_byte>
 800b96a:	f000 02f0 	and.w	r2, r0, #240	; 0xf0
 800b96e:	f000 030f 	and.w	r3, r0, #15
 800b972:	3210      	adds	r2, #16
 800b974:	3301      	adds	r3, #1
 800b976:	ea43 3202 	orr.w	r2, r3, r2, lsl #12
 800b97a:	e6c6      	b.n	800b70a <__gnu_unwind_execute+0x52>

0800b97c <__gnu_unwind_frame>:
 800b97c:	b510      	push	{r4, lr}
 800b97e:	2403      	movs	r4, #3
 800b980:	6cc3      	ldr	r3, [r0, #76]	; 0x4c
 800b982:	b084      	sub	sp, #16
 800b984:	685a      	ldr	r2, [r3, #4]
 800b986:	f88d 400c 	strb.w	r4, [sp, #12]
 800b98a:	79dc      	ldrb	r4, [r3, #7]
 800b98c:	0212      	lsls	r2, r2, #8
 800b98e:	3308      	adds	r3, #8
 800b990:	4608      	mov	r0, r1
 800b992:	a901      	add	r1, sp, #4
 800b994:	9201      	str	r2, [sp, #4]
 800b996:	f88d 400d 	strb.w	r4, [sp, #13]
 800b99a:	9302      	str	r3, [sp, #8]
 800b99c:	f7ff fe8c 	bl	800b6b8 <__gnu_unwind_execute>
 800b9a0:	b004      	add	sp, #16
 800b9a2:	bd10      	pop	{r4, pc}

0800b9a4 <_Unwind_GetRegionStart>:
 800b9a4:	b508      	push	{r3, lr}
 800b9a6:	f7ff fe85 	bl	800b6b4 <unwind_UCB_from_context>
 800b9aa:	6c80      	ldr	r0, [r0, #72]	; 0x48
 800b9ac:	bd08      	pop	{r3, pc}
 800b9ae:	bf00      	nop

0800b9b0 <_Unwind_GetLanguageSpecificData>:
 800b9b0:	b508      	push	{r3, lr}
 800b9b2:	f7ff fe7f 	bl	800b6b4 <unwind_UCB_from_context>
 800b9b6:	6cc3      	ldr	r3, [r0, #76]	; 0x4c
 800b9b8:	79d8      	ldrb	r0, [r3, #7]
 800b9ba:	eb03 0080 	add.w	r0, r3, r0, lsl #2
 800b9be:	3008      	adds	r0, #8
 800b9c0:	bd08      	pop	{r3, pc}
 800b9c2:	bf00      	nop

0800b9c4 <_Unwind_GetDataRelBase>:
 800b9c4:	b508      	push	{r3, lr}
 800b9c6:	f7fe f9bf 	bl	8009d48 <abort>
 800b9ca:	bf00      	nop

0800b9cc <_Unwind_GetTextRelBase>:
 800b9cc:	b508      	push	{r3, lr}
 800b9ce:	f7fe f9bb 	bl	8009d48 <abort>
 800b9d2:	bf00      	nop

0800b9d4 <__aeabi_idiv0>:
 800b9d4:	4770      	bx	lr
 800b9d6:	bf00      	nop

0800b9d8 <__divdi3>:
 800b9d8:	2900      	cmp	r1, #0
 800b9da:	e92d 43f0 	stmdb	sp!, {r4, r5, r6, r7, r8, r9, lr}
 800b9de:	f2c0 80a6 	blt.w	800bb2e <__divdi3+0x156>
 800b9e2:	2600      	movs	r6, #0
 800b9e4:	2b00      	cmp	r3, #0
 800b9e6:	f2c0 809c 	blt.w	800bb22 <__divdi3+0x14a>
 800b9ea:	4681      	mov	r9, r0
 800b9ec:	468e      	mov	lr, r1
 800b9ee:	4690      	mov	r8, r2
 800b9f0:	469c      	mov	ip, r3
 800b9f2:	4617      	mov	r7, r2
 800b9f4:	4604      	mov	r4, r0
 800b9f6:	460d      	mov	r5, r1
 800b9f8:	2b00      	cmp	r3, #0
 800b9fa:	d13d      	bne.n	800ba78 <__divdi3+0xa0>
 800b9fc:	428a      	cmp	r2, r1
 800b9fe:	d958      	bls.n	800bab2 <__divdi3+0xda>
 800ba00:	fab2 f382 	clz	r3, r2
 800ba04:	b13b      	cbz	r3, 800ba16 <__divdi3+0x3e>
 800ba06:	f1c3 0220 	rsb	r2, r3, #32
 800ba0a:	409d      	lsls	r5, r3
 800ba0c:	fa20 f202 	lsr.w	r2, r0, r2
 800ba10:	409f      	lsls	r7, r3
 800ba12:	4315      	orrs	r5, r2
 800ba14:	409c      	lsls	r4, r3
 800ba16:	0c39      	lsrs	r1, r7, #16
 800ba18:	fbb5 f0f1 	udiv	r0, r5, r1
 800ba1c:	fa1f fe87 	uxth.w	lr, r7
 800ba20:	fb01 5510 	mls	r5, r1, r0, r5
 800ba24:	fb0e f300 	mul.w	r3, lr, r0
 800ba28:	0c22      	lsrs	r2, r4, #16
 800ba2a:	ea42 4505 	orr.w	r5, r2, r5, lsl #16
 800ba2e:	42ab      	cmp	r3, r5
 800ba30:	d909      	bls.n	800ba46 <__divdi3+0x6e>
 800ba32:	19ed      	adds	r5, r5, r7
 800ba34:	f100 32ff 	add.w	r2, r0, #4294967295
 800ba38:	f080 810a 	bcs.w	800bc50 <__divdi3+0x278>
 800ba3c:	42ab      	cmp	r3, r5
 800ba3e:	f240 8107 	bls.w	800bc50 <__divdi3+0x278>
 800ba42:	3802      	subs	r0, #2
 800ba44:	443d      	add	r5, r7
 800ba46:	1aed      	subs	r5, r5, r3
 800ba48:	fbb5 f3f1 	udiv	r3, r5, r1
 800ba4c:	fb01 5513 	mls	r5, r1, r3, r5
 800ba50:	fb0e fe03 	mul.w	lr, lr, r3
 800ba54:	b2a4      	uxth	r4, r4
 800ba56:	ea44 4505 	orr.w	r5, r4, r5, lsl #16
 800ba5a:	45ae      	cmp	lr, r5
 800ba5c:	d908      	bls.n	800ba70 <__divdi3+0x98>
 800ba5e:	19ed      	adds	r5, r5, r7
 800ba60:	f103 32ff 	add.w	r2, r3, #4294967295
 800ba64:	f080 80f6 	bcs.w	800bc54 <__divdi3+0x27c>
 800ba68:	45ae      	cmp	lr, r5
 800ba6a:	f240 80f3 	bls.w	800bc54 <__divdi3+0x27c>
 800ba6e:	3b02      	subs	r3, #2
 800ba70:	ea43 4300 	orr.w	r3, r3, r0, lsl #16
 800ba74:	2200      	movs	r2, #0
 800ba76:	e003      	b.n	800ba80 <__divdi3+0xa8>
 800ba78:	428b      	cmp	r3, r1
 800ba7a:	d90e      	bls.n	800ba9a <__divdi3+0xc2>
 800ba7c:	2200      	movs	r2, #0
 800ba7e:	4613      	mov	r3, r2
 800ba80:	1c34      	adds	r4, r6, #0
 800ba82:	bf18      	it	ne
 800ba84:	2401      	movne	r4, #1
 800ba86:	2500      	movs	r5, #0
 800ba88:	4260      	negs	r0, r4
 800ba8a:	eb65 0145 	sbc.w	r1, r5, r5, lsl #1
 800ba8e:	4058      	eors	r0, r3
 800ba90:	4051      	eors	r1, r2
 800ba92:	1900      	adds	r0, r0, r4
 800ba94:	4169      	adcs	r1, r5
 800ba96:	e8bd 83f0 	ldmia.w	sp!, {r4, r5, r6, r7, r8, r9, pc}
 800ba9a:	fab3 f283 	clz	r2, r3
 800ba9e:	2a00      	cmp	r2, #0
 800baa0:	f040 8089 	bne.w	800bbb6 <__divdi3+0x1de>
 800baa4:	428b      	cmp	r3, r1
 800baa6:	d302      	bcc.n	800baae <__divdi3+0xd6>
 800baa8:	4580      	cmp	r8, r0
 800baaa:	f200 80de 	bhi.w	800bc6a <__divdi3+0x292>
 800baae:	2301      	movs	r3, #1
 800bab0:	e7e6      	b.n	800ba80 <__divdi3+0xa8>
 800bab2:	b912      	cbnz	r2, 800baba <__divdi3+0xe2>
 800bab4:	2301      	movs	r3, #1
 800bab6:	fbb3 f7f2 	udiv	r7, r3, r2
 800baba:	fab7 f887 	clz	r8, r7
 800babe:	f1b8 0f00 	cmp.w	r8, #0
 800bac2:	d13a      	bne.n	800bb3a <__divdi3+0x162>
 800bac4:	2201      	movs	r2, #1
 800bac6:	1bed      	subs	r5, r5, r7
 800bac8:	b2b8      	uxth	r0, r7
 800baca:	0c39      	lsrs	r1, r7, #16
 800bacc:	fbb5 fcf1 	udiv	ip, r5, r1
 800bad0:	fb01 551c 	mls	r5, r1, ip, r5
 800bad4:	fb00 f30c 	mul.w	r3, r0, ip
 800bad8:	ea4f 4e14 	mov.w	lr, r4, lsr #16
 800badc:	ea4e 4505 	orr.w	r5, lr, r5, lsl #16
 800bae0:	42ab      	cmp	r3, r5
 800bae2:	d907      	bls.n	800baf4 <__divdi3+0x11c>
 800bae4:	19ed      	adds	r5, r5, r7
 800bae6:	f10c 3eff 	add.w	lr, ip, #4294967295
 800baea:	d202      	bcs.n	800baf2 <__divdi3+0x11a>
 800baec:	42ab      	cmp	r3, r5
 800baee:	f200 80c2 	bhi.w	800bc76 <__divdi3+0x29e>
 800baf2:	46f4      	mov	ip, lr
 800baf4:	1aed      	subs	r5, r5, r3
 800baf6:	fbb5 f3f1 	udiv	r3, r5, r1
 800bafa:	fb01 5513 	mls	r5, r1, r3, r5
 800bafe:	fb00 f003 	mul.w	r0, r0, r3
 800bb02:	b2a4      	uxth	r4, r4
 800bb04:	ea44 4505 	orr.w	r5, r4, r5, lsl #16
 800bb08:	42a8      	cmp	r0, r5
 800bb0a:	d907      	bls.n	800bb1c <__divdi3+0x144>
 800bb0c:	19ed      	adds	r5, r5, r7
 800bb0e:	f103 31ff 	add.w	r1, r3, #4294967295
 800bb12:	d202      	bcs.n	800bb1a <__divdi3+0x142>
 800bb14:	42a8      	cmp	r0, r5
 800bb16:	f200 80b2 	bhi.w	800bc7e <__divdi3+0x2a6>
 800bb1a:	460b      	mov	r3, r1
 800bb1c:	ea43 430c 	orr.w	r3, r3, ip, lsl #16
 800bb20:	e7ae      	b.n	800ba80 <__divdi3+0xa8>
 800bb22:	4252      	negs	r2, r2
 800bb24:	ea6f 0606 	mvn.w	r6, r6
 800bb28:	eb63 0343 	sbc.w	r3, r3, r3, lsl #1
 800bb2c:	e75d      	b.n	800b9ea <__divdi3+0x12>
 800bb2e:	4240      	negs	r0, r0
 800bb30:	eb61 0141 	sbc.w	r1, r1, r1, lsl #1
 800bb34:	f04f 36ff 	mov.w	r6, #4294967295
 800bb38:	e754      	b.n	800b9e4 <__divdi3+0xc>
 800bb3a:	fa07 f708 	lsl.w	r7, r7, r8
 800bb3e:	f1c8 0220 	rsb	r2, r8, #32
 800bb42:	fa25 f302 	lsr.w	r3, r5, r2
 800bb46:	0c39      	lsrs	r1, r7, #16
 800bb48:	fbb3 fef1 	udiv	lr, r3, r1
 800bb4c:	b2b8      	uxth	r0, r7
 800bb4e:	fb01 331e 	mls	r3, r1, lr, r3
 800bb52:	fa24 f202 	lsr.w	r2, r4, r2
 800bb56:	fa05 f508 	lsl.w	r5, r5, r8
 800bb5a:	fb00 f90e 	mul.w	r9, r0, lr
 800bb5e:	432a      	orrs	r2, r5
 800bb60:	ea4f 4c12 	mov.w	ip, r2, lsr #16
 800bb64:	ea4c 4303 	orr.w	r3, ip, r3, lsl #16
 800bb68:	4599      	cmp	r9, r3
 800bb6a:	fa04 f408 	lsl.w	r4, r4, r8
 800bb6e:	d908      	bls.n	800bb82 <__divdi3+0x1aa>
 800bb70:	19db      	adds	r3, r3, r7
 800bb72:	f10e 35ff 	add.w	r5, lr, #4294967295
 800bb76:	d27c      	bcs.n	800bc72 <__divdi3+0x29a>
 800bb78:	4599      	cmp	r9, r3
 800bb7a:	d97a      	bls.n	800bc72 <__divdi3+0x29a>
 800bb7c:	f1ae 0e02 	sub.w	lr, lr, #2
 800bb80:	443b      	add	r3, r7
 800bb82:	ebc9 0303 	rsb	r3, r9, r3
 800bb86:	fbb3 fcf1 	udiv	ip, r3, r1
 800bb8a:	fb01 331c 	mls	r3, r1, ip, r3
 800bb8e:	fb00 f50c 	mul.w	r5, r0, ip
 800bb92:	b292      	uxth	r2, r2
 800bb94:	ea42 4303 	orr.w	r3, r2, r3, lsl #16
 800bb98:	429d      	cmp	r5, r3
 800bb9a:	d908      	bls.n	800bbae <__divdi3+0x1d6>
 800bb9c:	19db      	adds	r3, r3, r7
 800bb9e:	f10c 32ff 	add.w	r2, ip, #4294967295
 800bba2:	d25e      	bcs.n	800bc62 <__divdi3+0x28a>
 800bba4:	429d      	cmp	r5, r3
 800bba6:	d95c      	bls.n	800bc62 <__divdi3+0x28a>
 800bba8:	f1ac 0c02 	sub.w	ip, ip, #2
 800bbac:	443b      	add	r3, r7
 800bbae:	1b5d      	subs	r5, r3, r5
 800bbb0:	ea4c 420e 	orr.w	r2, ip, lr, lsl #16
 800bbb4:	e78a      	b.n	800bacc <__divdi3+0xf4>
 800bbb6:	f1c2 0320 	rsb	r3, r2, #32
 800bbba:	fa28 f103 	lsr.w	r1, r8, r3
 800bbbe:	fa0c fc02 	lsl.w	ip, ip, r2
 800bbc2:	ea41 0c0c 	orr.w	ip, r1, ip
 800bbc6:	ea4f 401c 	mov.w	r0, ip, lsr #16
 800bbca:	fa2e f103 	lsr.w	r1, lr, r3
 800bbce:	fbb1 f5f0 	udiv	r5, r1, r0
 800bbd2:	fa1f f78c 	uxth.w	r7, ip
 800bbd6:	fb00 1115 	mls	r1, r0, r5, r1
 800bbda:	fa29 f303 	lsr.w	r3, r9, r3
 800bbde:	fa0e fe02 	lsl.w	lr, lr, r2
 800bbe2:	fb07 f905 	mul.w	r9, r7, r5
 800bbe6:	ea43 0e0e 	orr.w	lr, r3, lr
 800bbea:	ea4f 431e 	mov.w	r3, lr, lsr #16
 800bbee:	ea43 4101 	orr.w	r1, r3, r1, lsl #16
 800bbf2:	4589      	cmp	r9, r1
 800bbf4:	fa08 f802 	lsl.w	r8, r8, r2
 800bbf8:	d908      	bls.n	800bc0c <__divdi3+0x234>
 800bbfa:	eb11 010c 	adds.w	r1, r1, ip
 800bbfe:	f105 33ff 	add.w	r3, r5, #4294967295
 800bc02:	d234      	bcs.n	800bc6e <__divdi3+0x296>
 800bc04:	4589      	cmp	r9, r1
 800bc06:	d932      	bls.n	800bc6e <__divdi3+0x296>
 800bc08:	3d02      	subs	r5, #2
 800bc0a:	4461      	add	r1, ip
 800bc0c:	ebc9 0101 	rsb	r1, r9, r1
 800bc10:	fbb1 f3f0 	udiv	r3, r1, r0
 800bc14:	fb00 1113 	mls	r1, r0, r3, r1
 800bc18:	fb07 f703 	mul.w	r7, r7, r3
 800bc1c:	fa1f fe8e 	uxth.w	lr, lr
 800bc20:	ea4e 4e01 	orr.w	lr, lr, r1, lsl #16
 800bc24:	4577      	cmp	r7, lr
 800bc26:	d908      	bls.n	800bc3a <__divdi3+0x262>
 800bc28:	eb1e 0e0c 	adds.w	lr, lr, ip
 800bc2c:	f103 31ff 	add.w	r1, r3, #4294967295
 800bc30:	d219      	bcs.n	800bc66 <__divdi3+0x28e>
 800bc32:	4577      	cmp	r7, lr
 800bc34:	d917      	bls.n	800bc66 <__divdi3+0x28e>
 800bc36:	3b02      	subs	r3, #2
 800bc38:	44e6      	add	lr, ip
 800bc3a:	ea43 4305 	orr.w	r3, r3, r5, lsl #16
 800bc3e:	fba3 8908 	umull	r8, r9, r3, r8
 800bc42:	ebc7 0e0e 	rsb	lr, r7, lr
 800bc46:	45ce      	cmp	lr, r9
 800bc48:	d309      	bcc.n	800bc5e <__divdi3+0x286>
 800bc4a:	d005      	beq.n	800bc58 <__divdi3+0x280>
 800bc4c:	2200      	movs	r2, #0
 800bc4e:	e717      	b.n	800ba80 <__divdi3+0xa8>
 800bc50:	4610      	mov	r0, r2
 800bc52:	e6f8      	b.n	800ba46 <__divdi3+0x6e>
 800bc54:	4613      	mov	r3, r2
 800bc56:	e70b      	b.n	800ba70 <__divdi3+0x98>
 800bc58:	4094      	lsls	r4, r2
 800bc5a:	4544      	cmp	r4, r8
 800bc5c:	d2f6      	bcs.n	800bc4c <__divdi3+0x274>
 800bc5e:	3b01      	subs	r3, #1
 800bc60:	e7f4      	b.n	800bc4c <__divdi3+0x274>
 800bc62:	4694      	mov	ip, r2
 800bc64:	e7a3      	b.n	800bbae <__divdi3+0x1d6>
 800bc66:	460b      	mov	r3, r1
 800bc68:	e7e7      	b.n	800bc3a <__divdi3+0x262>
 800bc6a:	4613      	mov	r3, r2
 800bc6c:	e708      	b.n	800ba80 <__divdi3+0xa8>
 800bc6e:	461d      	mov	r5, r3
 800bc70:	e7cc      	b.n	800bc0c <__divdi3+0x234>
 800bc72:	46ae      	mov	lr, r5
 800bc74:	e785      	b.n	800bb82 <__divdi3+0x1aa>
 800bc76:	f1ac 0c02 	sub.w	ip, ip, #2
 800bc7a:	443d      	add	r5, r7
 800bc7c:	e73a      	b.n	800baf4 <__divdi3+0x11c>
 800bc7e:	3b02      	subs	r3, #2
 800bc80:	e74c      	b.n	800bb1c <__divdi3+0x144>
 800bc82:	bf00      	nop

0800bc84 <__udivdi3>:
 800bc84:	e92d 43f0 	stmdb	sp!, {r4, r5, r6, r7, r8, r9, lr}
 800bc88:	2b00      	cmp	r3, #0
 800bc8a:	d144      	bne.n	800bd16 <__udivdi3+0x92>
 800bc8c:	428a      	cmp	r2, r1
 800bc8e:	4615      	mov	r5, r2
 800bc90:	4604      	mov	r4, r0
 800bc92:	d94f      	bls.n	800bd34 <__udivdi3+0xb0>
 800bc94:	fab2 f782 	clz	r7, r2
 800bc98:	460e      	mov	r6, r1
 800bc9a:	b14f      	cbz	r7, 800bcb0 <__udivdi3+0x2c>
 800bc9c:	f1c7 0320 	rsb	r3, r7, #32
 800bca0:	40b9      	lsls	r1, r7
 800bca2:	fa20 f603 	lsr.w	r6, r0, r3
 800bca6:	fa02 f507 	lsl.w	r5, r2, r7
 800bcaa:	430e      	orrs	r6, r1
 800bcac:	fa00 f407 	lsl.w	r4, r0, r7
 800bcb0:	0c2f      	lsrs	r7, r5, #16
 800bcb2:	fbb6 f0f7 	udiv	r0, r6, r7
 800bcb6:	fa1f fe85 	uxth.w	lr, r5
 800bcba:	fb07 6210 	mls	r2, r7, r0, r6
 800bcbe:	fb0e f100 	mul.w	r1, lr, r0
 800bcc2:	0c26      	lsrs	r6, r4, #16
 800bcc4:	ea46 4302 	orr.w	r3, r6, r2, lsl #16
 800bcc8:	4299      	cmp	r1, r3
 800bcca:	d909      	bls.n	800bce0 <__udivdi3+0x5c>
 800bccc:	195b      	adds	r3, r3, r5
 800bcce:	f100 32ff 	add.w	r2, r0, #4294967295
 800bcd2:	f080 80f4 	bcs.w	800bebe <__udivdi3+0x23a>
 800bcd6:	4299      	cmp	r1, r3
 800bcd8:	f240 80f1 	bls.w	800bebe <__udivdi3+0x23a>
 800bcdc:	3802      	subs	r0, #2
 800bcde:	442b      	add	r3, r5
 800bce0:	1a59      	subs	r1, r3, r1
 800bce2:	fbb1 f3f7 	udiv	r3, r1, r7
 800bce6:	fb07 1113 	mls	r1, r7, r3, r1
 800bcea:	fb0e fe03 	mul.w	lr, lr, r3
 800bcee:	b2a4      	uxth	r4, r4
 800bcf0:	ea44 4101 	orr.w	r1, r4, r1, lsl #16
 800bcf4:	458e      	cmp	lr, r1
 800bcf6:	d908      	bls.n	800bd0a <__udivdi3+0x86>
 800bcf8:	1949      	adds	r1, r1, r5
 800bcfa:	f103 32ff 	add.w	r2, r3, #4294967295
 800bcfe:	f080 80e8 	bcs.w	800bed2 <__udivdi3+0x24e>
 800bd02:	458e      	cmp	lr, r1
 800bd04:	f240 80e5 	bls.w	800bed2 <__udivdi3+0x24e>
 800bd08:	3b02      	subs	r3, #2
 800bd0a:	2600      	movs	r6, #0
 800bd0c:	ea43 4000 	orr.w	r0, r3, r0, lsl #16
 800bd10:	4631      	mov	r1, r6
 800bd12:	e8bd 83f0 	ldmia.w	sp!, {r4, r5, r6, r7, r8, r9, pc}
 800bd16:	428b      	cmp	r3, r1
 800bd18:	d847      	bhi.n	800bdaa <__udivdi3+0x126>
 800bd1a:	fab3 f683 	clz	r6, r3
 800bd1e:	2e00      	cmp	r6, #0
 800bd20:	d148      	bne.n	800bdb4 <__udivdi3+0x130>
 800bd22:	428b      	cmp	r3, r1
 800bd24:	d302      	bcc.n	800bd2c <__udivdi3+0xa8>
 800bd26:	4282      	cmp	r2, r0
 800bd28:	f200 80d5 	bhi.w	800bed6 <__udivdi3+0x252>
 800bd2c:	2001      	movs	r0, #1
 800bd2e:	4631      	mov	r1, r6
 800bd30:	e8bd 83f0 	ldmia.w	sp!, {r4, r5, r6, r7, r8, r9, pc}
 800bd34:	b912      	cbnz	r2, 800bd3c <__udivdi3+0xb8>
 800bd36:	2501      	movs	r5, #1
 800bd38:	fbb5 f5f2 	udiv	r5, r5, r2
 800bd3c:	fab5 fc85 	clz	ip, r5
 800bd40:	f1bc 0f00 	cmp.w	ip, #0
 800bd44:	d17f      	bne.n	800be46 <__udivdi3+0x1c2>
 800bd46:	2601      	movs	r6, #1
 800bd48:	1b49      	subs	r1, r1, r5
 800bd4a:	fa1f fe85 	uxth.w	lr, r5
 800bd4e:	0c2f      	lsrs	r7, r5, #16
 800bd50:	fbb1 f0f7 	udiv	r0, r1, r7
 800bd54:	fb07 1110 	mls	r1, r7, r0, r1
 800bd58:	fb0e f200 	mul.w	r2, lr, r0
 800bd5c:	0c23      	lsrs	r3, r4, #16
 800bd5e:	ea43 4101 	orr.w	r1, r3, r1, lsl #16
 800bd62:	428a      	cmp	r2, r1
 800bd64:	d907      	bls.n	800bd76 <__udivdi3+0xf2>
 800bd66:	1949      	adds	r1, r1, r5
 800bd68:	f100 33ff 	add.w	r3, r0, #4294967295
 800bd6c:	d202      	bcs.n	800bd74 <__udivdi3+0xf0>
 800bd6e:	428a      	cmp	r2, r1
 800bd70:	f200 80bb 	bhi.w	800beea <__udivdi3+0x266>
 800bd74:	4618      	mov	r0, r3
 800bd76:	1a89      	subs	r1, r1, r2
 800bd78:	fbb1 f3f7 	udiv	r3, r1, r7
 800bd7c:	fb07 1113 	mls	r1, r7, r3, r1
 800bd80:	fb0e fe03 	mul.w	lr, lr, r3
 800bd84:	b2a4      	uxth	r4, r4
 800bd86:	ea44 4201 	orr.w	r2, r4, r1, lsl #16
 800bd8a:	4596      	cmp	lr, r2
 800bd8c:	d908      	bls.n	800bda0 <__udivdi3+0x11c>
 800bd8e:	1952      	adds	r2, r2, r5
 800bd90:	f103 31ff 	add.w	r1, r3, #4294967295
 800bd94:	f080 809b 	bcs.w	800bece <__udivdi3+0x24a>
 800bd98:	4596      	cmp	lr, r2
 800bd9a:	f240 8098 	bls.w	800bece <__udivdi3+0x24a>
 800bd9e:	3b02      	subs	r3, #2
 800bda0:	ea43 4000 	orr.w	r0, r3, r0, lsl #16
 800bda4:	4631      	mov	r1, r6
 800bda6:	e8bd 83f0 	ldmia.w	sp!, {r4, r5, r6, r7, r8, r9, pc}
 800bdaa:	2600      	movs	r6, #0
 800bdac:	4630      	mov	r0, r6
 800bdae:	4631      	mov	r1, r6
 800bdb0:	e8bd 83f0 	ldmia.w	sp!, {r4, r5, r6, r7, r8, r9, pc}
 800bdb4:	f1c6 0420 	rsb	r4, r6, #32
 800bdb8:	fa22 f504 	lsr.w	r5, r2, r4
 800bdbc:	40b3      	lsls	r3, r6
 800bdbe:	432b      	orrs	r3, r5
 800bdc0:	fa21 f704 	lsr.w	r7, r1, r4
 800bdc4:	ea4f 4813 	mov.w	r8, r3, lsr #16
 800bdc8:	fbb7 fcf8 	udiv	ip, r7, r8
 800bdcc:	fa1f f983 	uxth.w	r9, r3
 800bdd0:	fb08 771c 	mls	r7, r8, ip, r7
 800bdd4:	fa20 fe04 	lsr.w	lr, r0, r4
 800bdd8:	fa01 f506 	lsl.w	r5, r1, r6
 800bddc:	fb09 f40c 	mul.w	r4, r9, ip
 800bde0:	ea4e 0505 	orr.w	r5, lr, r5
 800bde4:	ea4f 4e15 	mov.w	lr, r5, lsr #16
 800bde8:	ea4e 4707 	orr.w	r7, lr, r7, lsl #16
 800bdec:	42bc      	cmp	r4, r7
 800bdee:	fa02 f206 	lsl.w	r2, r2, r6
 800bdf2:	d908      	bls.n	800be06 <__udivdi3+0x182>
 800bdf4:	18ff      	adds	r7, r7, r3
 800bdf6:	f10c 31ff 	add.w	r1, ip, #4294967295
 800bdfa:	d26e      	bcs.n	800beda <__udivdi3+0x256>
 800bdfc:	42bc      	cmp	r4, r7
 800bdfe:	d96c      	bls.n	800beda <__udivdi3+0x256>
 800be00:	f1ac 0c02 	sub.w	ip, ip, #2
 800be04:	441f      	add	r7, r3
 800be06:	1b3f      	subs	r7, r7, r4
 800be08:	fbb7 f4f8 	udiv	r4, r7, r8
 800be0c:	fb08 7714 	mls	r7, r8, r4, r7
 800be10:	fb09 f904 	mul.w	r9, r9, r4
 800be14:	b2ad      	uxth	r5, r5
 800be16:	ea45 4107 	orr.w	r1, r5, r7, lsl #16
 800be1a:	4589      	cmp	r9, r1
 800be1c:	d907      	bls.n	800be2e <__udivdi3+0x1aa>
 800be1e:	18c9      	adds	r1, r1, r3
 800be20:	f104 35ff 	add.w	r5, r4, #4294967295
 800be24:	d25b      	bcs.n	800bede <__udivdi3+0x25a>
 800be26:	4589      	cmp	r9, r1
 800be28:	d959      	bls.n	800bede <__udivdi3+0x25a>
 800be2a:	3c02      	subs	r4, #2
 800be2c:	4419      	add	r1, r3
 800be2e:	ea44 440c 	orr.w	r4, r4, ip, lsl #16
 800be32:	fba4 2302 	umull	r2, r3, r4, r2
 800be36:	ebc9 0101 	rsb	r1, r9, r1
 800be3a:	4299      	cmp	r1, r3
 800be3c:	d344      	bcc.n	800bec8 <__udivdi3+0x244>
 800be3e:	d040      	beq.n	800bec2 <__udivdi3+0x23e>
 800be40:	4620      	mov	r0, r4
 800be42:	2600      	movs	r6, #0
 800be44:	e764      	b.n	800bd10 <__udivdi3+0x8c>
 800be46:	fa05 f50c 	lsl.w	r5, r5, ip
 800be4a:	f1cc 0220 	rsb	r2, ip, #32
 800be4e:	fa21 f302 	lsr.w	r3, r1, r2
 800be52:	0c2f      	lsrs	r7, r5, #16
 800be54:	fbb3 f6f7 	udiv	r6, r3, r7
 800be58:	fa1f fe85 	uxth.w	lr, r5
 800be5c:	fb07 3816 	mls	r8, r7, r6, r3
 800be60:	fa20 f202 	lsr.w	r2, r0, r2
 800be64:	fa01 f10c 	lsl.w	r1, r1, ip
 800be68:	fb0e f906 	mul.w	r9, lr, r6
 800be6c:	430a      	orrs	r2, r1
 800be6e:	0c14      	lsrs	r4, r2, #16
 800be70:	ea44 4308 	orr.w	r3, r4, r8, lsl #16
 800be74:	4599      	cmp	r9, r3
 800be76:	fa00 f40c 	lsl.w	r4, r0, ip
 800be7a:	d907      	bls.n	800be8c <__udivdi3+0x208>
 800be7c:	195b      	adds	r3, r3, r5
 800be7e:	f106 31ff 	add.w	r1, r6, #4294967295
 800be82:	d230      	bcs.n	800bee6 <__udivdi3+0x262>
 800be84:	4599      	cmp	r9, r3
 800be86:	d92e      	bls.n	800bee6 <__udivdi3+0x262>
 800be88:	3e02      	subs	r6, #2
 800be8a:	442b      	add	r3, r5
 800be8c:	ebc9 0303 	rsb	r3, r9, r3
 800be90:	fbb3 f0f7 	udiv	r0, r3, r7
 800be94:	fb07 3310 	mls	r3, r7, r0, r3
 800be98:	fb0e f100 	mul.w	r1, lr, r0
 800be9c:	b292      	uxth	r2, r2
 800be9e:	ea42 4303 	orr.w	r3, r2, r3, lsl #16
 800bea2:	4299      	cmp	r1, r3
 800bea4:	d907      	bls.n	800beb6 <__udivdi3+0x232>
 800bea6:	195b      	adds	r3, r3, r5
 800bea8:	f100 32ff 	add.w	r2, r0, #4294967295
 800beac:	d219      	bcs.n	800bee2 <__udivdi3+0x25e>
 800beae:	4299      	cmp	r1, r3
 800beb0:	d917      	bls.n	800bee2 <__udivdi3+0x25e>
 800beb2:	3802      	subs	r0, #2
 800beb4:	442b      	add	r3, r5
 800beb6:	1a59      	subs	r1, r3, r1
 800beb8:	ea40 4606 	orr.w	r6, r0, r6, lsl #16
 800bebc:	e748      	b.n	800bd50 <__udivdi3+0xcc>
 800bebe:	4610      	mov	r0, r2
 800bec0:	e70e      	b.n	800bce0 <__udivdi3+0x5c>
 800bec2:	40b0      	lsls	r0, r6
 800bec4:	4290      	cmp	r0, r2
 800bec6:	d2bb      	bcs.n	800be40 <__udivdi3+0x1bc>
 800bec8:	1e60      	subs	r0, r4, #1
 800beca:	2600      	movs	r6, #0
 800becc:	e720      	b.n	800bd10 <__udivdi3+0x8c>
 800bece:	460b      	mov	r3, r1
 800bed0:	e766      	b.n	800bda0 <__udivdi3+0x11c>
 800bed2:	4613      	mov	r3, r2
 800bed4:	e719      	b.n	800bd0a <__udivdi3+0x86>
 800bed6:	4630      	mov	r0, r6
 800bed8:	e71a      	b.n	800bd10 <__udivdi3+0x8c>
 800beda:	468c      	mov	ip, r1
 800bedc:	e793      	b.n	800be06 <__udivdi3+0x182>
 800bede:	462c      	mov	r4, r5
 800bee0:	e7a5      	b.n	800be2e <__udivdi3+0x1aa>
 800bee2:	4610      	mov	r0, r2
 800bee4:	e7e7      	b.n	800beb6 <__udivdi3+0x232>
 800bee6:	460e      	mov	r6, r1
 800bee8:	e7d0      	b.n	800be8c <__udivdi3+0x208>
 800beea:	3802      	subs	r0, #2
 800beec:	4429      	add	r1, r5
 800beee:	e742      	b.n	800bd76 <__udivdi3+0xf2>
