
pinny2:     file format elf32-littlearm


Disassembly of section .text:

08000000 <__vectors0>:
 8000000:	200127e8 	.word	0x200127e8
 8000004:	0800a93b 	.word	0x0800a93b
 8000008:	0800a986 	.word	0x0800a986
 800000c:	0800a986 	.word	0x0800a986
 8000010:	0800a986 	.word	0x0800a986

08000014 <pinny2__initialize.6324>:
 8000014:	b5f0      	push	{r4, r5, r6, r7, lr}
 8000016:	b085      	sub	sp, #20
 8000018:	af00      	add	r7, sp, #0
 800001a:	4666      	mov	r6, ip
 800001c:	f8c7 c004 	str.w	ip, [r7, #4]
 8000020:	4631      	mov	r1, r6
 8000022:	460a      	mov	r2, r1
 8000024:	4b0c      	ldr	r3, [pc, #48]	; (8000058 <pinny2__initialize.6324+0x44>)
 8000026:	4610      	mov	r0, r2
 8000028:	4619      	mov	r1, r3
 800002a:	f000 fd43 	bl	8000ab4 <stm32__device__enable_clock__3>
 800002e:	2300      	movs	r3, #0
 8000030:	727b      	strb	r3, [r7, #9]
 8000032:	2300      	movs	r3, #0
 8000034:	72fb      	strb	r3, [r7, #11]
 8000036:	2300      	movs	r3, #0
 8000038:	72bb      	strb	r3, [r7, #10]
 800003a:	2301      	movs	r3, #1
 800003c:	723b      	strb	r3, [r7, #8]
 800003e:	4633      	mov	r3, r6
 8000040:	461c      	mov	r4, r3
 8000042:	4d05      	ldr	r5, [pc, #20]	; (8000058 <pinny2__initialize.6324+0x44>)
 8000044:	f107 0308 	add.w	r3, r7, #8
 8000048:	461a      	mov	r2, r3
 800004a:	4620      	mov	r0, r4
 800004c:	4629      	mov	r1, r5
 800004e:	f002 fdcd 	bl	8002bec <stm32__gpio__configure_io__2>
 8000052:	3714      	adds	r7, #20
 8000054:	46bd      	mov	sp, r7
 8000056:	bdf0      	pop	{r4, r5, r6, r7, pc}
 8000058:	0800d270 	.word	0x0800d270

0800005c <_ada_pinny2>:
 800005c:	b5b0      	push	{r4, r5, r7, lr}
 800005e:	f5ad 7d46 	sub.w	sp, sp, #792	; 0x318
 8000062:	af00      	add	r7, sp, #0
 8000064:	f507 704a 	add.w	r0, r7, #808	; 0x328
 8000068:	f107 0320 	add.w	r3, r7, #32
 800006c:	f8c3 0174 	str.w	r0, [r3, #372]	; 0x174
 8000070:	f107 0320 	add.w	r3, r7, #32
 8000074:	4619      	mov	r1, r3
 8000076:	4adc      	ldr	r2, [pc, #880]	; (80003e8 <_ada_pinny2+0x38c>)
 8000078:	4608      	mov	r0, r1
 800007a:	4611      	mov	r1, r2
 800007c:	f002 f8b0 	bl	80021e0 <stm32__gpio__gpio_pointsIP>
 8000080:	f107 0320 	add.w	r3, r7, #32
 8000084:	49d9      	ldr	r1, [pc, #868]	; (80003ec <_ada_pinny2+0x390>)
 8000086:	4618      	mov	r0, r3
 8000088:	f002 f872 	bl	8002170 <stm32__gpio___assign>
 800008c:	f107 0320 	add.w	r3, r7, #32
 8000090:	330c      	adds	r3, #12
 8000092:	49d7      	ldr	r1, [pc, #860]	; (80003f0 <_ada_pinny2+0x394>)
 8000094:	4618      	mov	r0, r3
 8000096:	f002 f86b 	bl	8002170 <stm32__gpio___assign>
 800009a:	f107 0320 	add.w	r3, r7, #32
 800009e:	3318      	adds	r3, #24
 80000a0:	49d4      	ldr	r1, [pc, #848]	; (80003f4 <_ada_pinny2+0x398>)
 80000a2:	4618      	mov	r0, r3
 80000a4:	f002 f864 	bl	8002170 <stm32__gpio___assign>
 80000a8:	f107 0320 	add.w	r3, r7, #32
 80000ac:	3324      	adds	r3, #36	; 0x24
 80000ae:	49d2      	ldr	r1, [pc, #840]	; (80003f8 <_ada_pinny2+0x39c>)
 80000b0:	4618      	mov	r0, r3
 80000b2:	f002 f85d 	bl	8002170 <stm32__gpio___assign>
 80000b6:	f107 0320 	add.w	r3, r7, #32
 80000ba:	3330      	adds	r3, #48	; 0x30
 80000bc:	49cf      	ldr	r1, [pc, #828]	; (80003fc <_ada_pinny2+0x3a0>)
 80000be:	4618      	mov	r0, r3
 80000c0:	f002 f856 	bl	8002170 <stm32__gpio___assign>
 80000c4:	f107 0320 	add.w	r3, r7, #32
 80000c8:	333c      	adds	r3, #60	; 0x3c
 80000ca:	49cd      	ldr	r1, [pc, #820]	; (8000400 <_ada_pinny2+0x3a4>)
 80000cc:	4618      	mov	r0, r3
 80000ce:	f002 f84f 	bl	8002170 <stm32__gpio___assign>
 80000d2:	f107 0320 	add.w	r3, r7, #32
 80000d6:	3348      	adds	r3, #72	; 0x48
 80000d8:	49ca      	ldr	r1, [pc, #808]	; (8000404 <_ada_pinny2+0x3a8>)
 80000da:	4618      	mov	r0, r3
 80000dc:	f002 f848 	bl	8002170 <stm32__gpio___assign>
 80000e0:	f107 0320 	add.w	r3, r7, #32
 80000e4:	3354      	adds	r3, #84	; 0x54
 80000e6:	49c8      	ldr	r1, [pc, #800]	; (8000408 <_ada_pinny2+0x3ac>)
 80000e8:	4618      	mov	r0, r3
 80000ea:	f002 f841 	bl	8002170 <stm32__gpio___assign>
 80000ee:	f107 0320 	add.w	r3, r7, #32
 80000f2:	3360      	adds	r3, #96	; 0x60
 80000f4:	49c5      	ldr	r1, [pc, #788]	; (800040c <_ada_pinny2+0x3b0>)
 80000f6:	4618      	mov	r0, r3
 80000f8:	f002 f83a 	bl	8002170 <stm32__gpio___assign>
 80000fc:	f107 0320 	add.w	r3, r7, #32
 8000100:	336c      	adds	r3, #108	; 0x6c
 8000102:	49c3      	ldr	r1, [pc, #780]	; (8000410 <_ada_pinny2+0x3b4>)
 8000104:	4618      	mov	r0, r3
 8000106:	f002 f833 	bl	8002170 <stm32__gpio___assign>
 800010a:	f107 0320 	add.w	r3, r7, #32
 800010e:	3378      	adds	r3, #120	; 0x78
 8000110:	49c0      	ldr	r1, [pc, #768]	; (8000414 <_ada_pinny2+0x3b8>)
 8000112:	4618      	mov	r0, r3
 8000114:	f002 f82c 	bl	8002170 <stm32__gpio___assign>
 8000118:	f107 0320 	add.w	r3, r7, #32
 800011c:	3384      	adds	r3, #132	; 0x84
 800011e:	49be      	ldr	r1, [pc, #760]	; (8000418 <_ada_pinny2+0x3bc>)
 8000120:	4618      	mov	r0, r3
 8000122:	f002 f825 	bl	8002170 <stm32__gpio___assign>
 8000126:	f107 0320 	add.w	r3, r7, #32
 800012a:	3390      	adds	r3, #144	; 0x90
 800012c:	49bb      	ldr	r1, [pc, #748]	; (800041c <_ada_pinny2+0x3c0>)
 800012e:	4618      	mov	r0, r3
 8000130:	f002 f81e 	bl	8002170 <stm32__gpio___assign>
 8000134:	f107 0320 	add.w	r3, r7, #32
 8000138:	339c      	adds	r3, #156	; 0x9c
 800013a:	49b9      	ldr	r1, [pc, #740]	; (8000420 <_ada_pinny2+0x3c4>)
 800013c:	4618      	mov	r0, r3
 800013e:	f002 f817 	bl	8002170 <stm32__gpio___assign>
 8000142:	f107 0320 	add.w	r3, r7, #32
 8000146:	33a8      	adds	r3, #168	; 0xa8
 8000148:	49b6      	ldr	r1, [pc, #728]	; (8000424 <_ada_pinny2+0x3c8>)
 800014a:	4618      	mov	r0, r3
 800014c:	f002 f810 	bl	8002170 <stm32__gpio___assign>
 8000150:	f107 0320 	add.w	r3, r7, #32
 8000154:	33b4      	adds	r3, #180	; 0xb4
 8000156:	49b4      	ldr	r1, [pc, #720]	; (8000428 <_ada_pinny2+0x3cc>)
 8000158:	4618      	mov	r0, r3
 800015a:	f002 f809 	bl	8002170 <stm32__gpio___assign>
 800015e:	f107 0320 	add.w	r3, r7, #32
 8000162:	33c0      	adds	r3, #192	; 0xc0
 8000164:	49b1      	ldr	r1, [pc, #708]	; (800042c <_ada_pinny2+0x3d0>)
 8000166:	4618      	mov	r0, r3
 8000168:	f002 f802 	bl	8002170 <stm32__gpio___assign>
 800016c:	f107 0320 	add.w	r3, r7, #32
 8000170:	33cc      	adds	r3, #204	; 0xcc
 8000172:	49af      	ldr	r1, [pc, #700]	; (8000430 <_ada_pinny2+0x3d4>)
 8000174:	4618      	mov	r0, r3
 8000176:	f001 fffb 	bl	8002170 <stm32__gpio___assign>
 800017a:	f107 0320 	add.w	r3, r7, #32
 800017e:	33d8      	adds	r3, #216	; 0xd8
 8000180:	49ac      	ldr	r1, [pc, #688]	; (8000434 <_ada_pinny2+0x3d8>)
 8000182:	4618      	mov	r0, r3
 8000184:	f001 fff4 	bl	8002170 <stm32__gpio___assign>
 8000188:	f107 0320 	add.w	r3, r7, #32
 800018c:	33e4      	adds	r3, #228	; 0xe4
 800018e:	49aa      	ldr	r1, [pc, #680]	; (8000438 <_ada_pinny2+0x3dc>)
 8000190:	4618      	mov	r0, r3
 8000192:	f001 ffed 	bl	8002170 <stm32__gpio___assign>
 8000196:	f107 0320 	add.w	r3, r7, #32
 800019a:	33f0      	adds	r3, #240	; 0xf0
 800019c:	49a7      	ldr	r1, [pc, #668]	; (800043c <_ada_pinny2+0x3e0>)
 800019e:	4618      	mov	r0, r3
 80001a0:	f001 ffe6 	bl	8002170 <stm32__gpio___assign>
 80001a4:	f107 0320 	add.w	r3, r7, #32
 80001a8:	33fc      	adds	r3, #252	; 0xfc
 80001aa:	49a5      	ldr	r1, [pc, #660]	; (8000440 <_ada_pinny2+0x3e4>)
 80001ac:	4618      	mov	r0, r3
 80001ae:	f001 ffdf 	bl	8002170 <stm32__gpio___assign>
 80001b2:	f107 0320 	add.w	r3, r7, #32
 80001b6:	f503 7384 	add.w	r3, r3, #264	; 0x108
 80001ba:	49a2      	ldr	r1, [pc, #648]	; (8000444 <_ada_pinny2+0x3e8>)
 80001bc:	4618      	mov	r0, r3
 80001be:	f001 ffd7 	bl	8002170 <stm32__gpio___assign>
 80001c2:	f107 0320 	add.w	r3, r7, #32
 80001c6:	f503 738a 	add.w	r3, r3, #276	; 0x114
 80001ca:	499f      	ldr	r1, [pc, #636]	; (8000448 <_ada_pinny2+0x3ec>)
 80001cc:	4618      	mov	r0, r3
 80001ce:	f001 ffcf 	bl	8002170 <stm32__gpio___assign>
 80001d2:	f107 0320 	add.w	r3, r7, #32
 80001d6:	f503 7390 	add.w	r3, r3, #288	; 0x120
 80001da:	499c      	ldr	r1, [pc, #624]	; (800044c <_ada_pinny2+0x3f0>)
 80001dc:	4618      	mov	r0, r3
 80001de:	f001 ffc7 	bl	8002170 <stm32__gpio___assign>
 80001e2:	f107 0320 	add.w	r3, r7, #32
 80001e6:	f503 7396 	add.w	r3, r3, #300	; 0x12c
 80001ea:	4999      	ldr	r1, [pc, #612]	; (8000450 <_ada_pinny2+0x3f4>)
 80001ec:	4618      	mov	r0, r3
 80001ee:	f001 ffbf 	bl	8002170 <stm32__gpio___assign>
 80001f2:	f107 0320 	add.w	r3, r7, #32
 80001f6:	f503 739c 	add.w	r3, r3, #312	; 0x138
 80001fa:	4996      	ldr	r1, [pc, #600]	; (8000454 <_ada_pinny2+0x3f8>)
 80001fc:	4618      	mov	r0, r3
 80001fe:	f001 ffb7 	bl	8002170 <stm32__gpio___assign>
 8000202:	f107 0320 	add.w	r3, r7, #32
 8000206:	f503 73a2 	add.w	r3, r3, #324	; 0x144
 800020a:	4993      	ldr	r1, [pc, #588]	; (8000458 <_ada_pinny2+0x3fc>)
 800020c:	4618      	mov	r0, r3
 800020e:	f001 ffaf 	bl	8002170 <stm32__gpio___assign>
 8000212:	f107 0320 	add.w	r3, r7, #32
 8000216:	f503 73a8 	add.w	r3, r3, #336	; 0x150
 800021a:	4990      	ldr	r1, [pc, #576]	; (800045c <_ada_pinny2+0x400>)
 800021c:	4618      	mov	r0, r3
 800021e:	f001 ffa7 	bl	8002170 <stm32__gpio___assign>
 8000222:	f107 0320 	add.w	r3, r7, #32
 8000226:	f503 73ae 	add.w	r3, r3, #348	; 0x15c
 800022a:	498d      	ldr	r1, [pc, #564]	; (8000460 <_ada_pinny2+0x404>)
 800022c:	4618      	mov	r0, r3
 800022e:	f001 ff9f 	bl	8002170 <stm32__gpio___assign>
 8000232:	f107 0320 	add.w	r3, r7, #32
 8000236:	f503 73b4 	add.w	r3, r3, #360	; 0x168
 800023a:	498a      	ldr	r1, [pc, #552]	; (8000464 <_ada_pinny2+0x408>)
 800023c:	4618      	mov	r0, r3
 800023e:	f001 ff97 	bl	8002170 <stm32__gpio___assign>
 8000242:	f107 0320 	add.w	r3, r7, #32
 8000246:	f8c7 3314 	str.w	r3, [r7, #788]	; 0x314
 800024a:	f507 7313 	add.w	r3, r7, #588	; 0x24c
 800024e:	603b      	str	r3, [r7, #0]
 8000250:	4b85      	ldr	r3, [pc, #532]	; (8000468 <_ada_pinny2+0x40c>)
 8000252:	607b      	str	r3, [r7, #4]
 8000254:	e9d7 0100 	ldrd	r0, r1, [r7]
 8000258:	f001 ffc2 	bl	80021e0 <stm32__gpio__gpio_pointsIP>
 800025c:	f507 7313 	add.w	r3, r7, #588	; 0x24c
 8000260:	497e      	ldr	r1, [pc, #504]	; (800045c <_ada_pinny2+0x400>)
 8000262:	4618      	mov	r0, r3
 8000264:	f001 ff84 	bl	8002170 <stm32__gpio___assign>
 8000268:	f507 7313 	add.w	r3, r7, #588	; 0x24c
 800026c:	330c      	adds	r3, #12
 800026e:	497d      	ldr	r1, [pc, #500]	; (8000464 <_ada_pinny2+0x408>)
 8000270:	4618      	mov	r0, r3
 8000272:	f001 ff7d 	bl	8002170 <stm32__gpio___assign>
 8000276:	f507 7313 	add.w	r3, r7, #588	; 0x24c
 800027a:	3318      	adds	r3, #24
 800027c:	495c      	ldr	r1, [pc, #368]	; (80003f0 <_ada_pinny2+0x394>)
 800027e:	4618      	mov	r0, r3
 8000280:	f001 ff76 	bl	8002170 <stm32__gpio___assign>
 8000284:	f507 7313 	add.w	r3, r7, #588	; 0x24c
 8000288:	3324      	adds	r3, #36	; 0x24
 800028a:	495c      	ldr	r1, [pc, #368]	; (80003fc <_ada_pinny2+0x3a0>)
 800028c:	4618      	mov	r0, r3
 800028e:	f001 ff6f 	bl	8002170 <stm32__gpio___assign>
 8000292:	f507 7313 	add.w	r3, r7, #588	; 0x24c
 8000296:	3330      	adds	r3, #48	; 0x30
 8000298:	495a      	ldr	r1, [pc, #360]	; (8000404 <_ada_pinny2+0x3a8>)
 800029a:	4618      	mov	r0, r3
 800029c:	f001 ff68 	bl	8002170 <stm32__gpio___assign>
 80002a0:	f507 7313 	add.w	r3, r7, #588	; 0x24c
 80002a4:	333c      	adds	r3, #60	; 0x3c
 80002a6:	495f      	ldr	r1, [pc, #380]	; (8000424 <_ada_pinny2+0x3c8>)
 80002a8:	4618      	mov	r0, r3
 80002aa:	f001 ff61 	bl	8002170 <stm32__gpio___assign>
 80002ae:	f507 7313 	add.w	r3, r7, #588	; 0x24c
 80002b2:	3348      	adds	r3, #72	; 0x48
 80002b4:	4964      	ldr	r1, [pc, #400]	; (8000448 <_ada_pinny2+0x3ec>)
 80002b6:	4618      	mov	r0, r3
 80002b8:	f001 ff5a 	bl	8002170 <stm32__gpio___assign>
 80002bc:	f507 7313 	add.w	r3, r7, #588	; 0x24c
 80002c0:	3354      	adds	r3, #84	; 0x54
 80002c2:	4962      	ldr	r1, [pc, #392]	; (800044c <_ada_pinny2+0x3f0>)
 80002c4:	4618      	mov	r0, r3
 80002c6:	f001 ff53 	bl	8002170 <stm32__gpio___assign>
 80002ca:	f507 7313 	add.w	r3, r7, #588	; 0x24c
 80002ce:	3360      	adds	r3, #96	; 0x60
 80002d0:	4960      	ldr	r1, [pc, #384]	; (8000454 <_ada_pinny2+0x3f8>)
 80002d2:	4618      	mov	r0, r3
 80002d4:	f001 ff4c 	bl	8002170 <stm32__gpio___assign>
 80002d8:	f507 7313 	add.w	r3, r7, #588	; 0x24c
 80002dc:	336c      	adds	r3, #108	; 0x6c
 80002de:	494b      	ldr	r1, [pc, #300]	; (800040c <_ada_pinny2+0x3b0>)
 80002e0:	4618      	mov	r0, r3
 80002e2:	f001 ff45 	bl	8002170 <stm32__gpio___assign>
 80002e6:	f507 7313 	add.w	r3, r7, #588	; 0x24c
 80002ea:	3378      	adds	r3, #120	; 0x78
 80002ec:	4949      	ldr	r1, [pc, #292]	; (8000414 <_ada_pinny2+0x3b8>)
 80002ee:	4618      	mov	r0, r3
 80002f0:	f001 ff3e 	bl	8002170 <stm32__gpio___assign>
 80002f4:	f507 7313 	add.w	r3, r7, #588	; 0x24c
 80002f8:	3384      	adds	r3, #132	; 0x84
 80002fa:	4948      	ldr	r1, [pc, #288]	; (800041c <_ada_pinny2+0x3c0>)
 80002fc:	4618      	mov	r0, r3
 80002fe:	f001 ff37 	bl	8002170 <stm32__gpio___assign>
 8000302:	f507 7313 	add.w	r3, r7, #588	; 0x24c
 8000306:	3390      	adds	r3, #144	; 0x90
 8000308:	4948      	ldr	r1, [pc, #288]	; (800042c <_ada_pinny2+0x3d0>)
 800030a:	4618      	mov	r0, r3
 800030c:	f001 ff30 	bl	8002170 <stm32__gpio___assign>
 8000310:	f507 7313 	add.w	r3, r7, #588	; 0x24c
 8000314:	339c      	adds	r3, #156	; 0x9c
 8000316:	4947      	ldr	r1, [pc, #284]	; (8000434 <_ada_pinny2+0x3d8>)
 8000318:	4618      	mov	r0, r3
 800031a:	f001 ff29 	bl	8002170 <stm32__gpio___assign>
 800031e:	f507 7313 	add.w	r3, r7, #588	; 0x24c
 8000322:	33a8      	adds	r3, #168	; 0xa8
 8000324:	4945      	ldr	r1, [pc, #276]	; (800043c <_ada_pinny2+0x3e0>)
 8000326:	4618      	mov	r0, r3
 8000328:	f001 ff22 	bl	8002170 <stm32__gpio___assign>
 800032c:	f507 7313 	add.w	r3, r7, #588	; 0x24c
 8000330:	33b4      	adds	r3, #180	; 0xb4
 8000332:	4944      	ldr	r1, [pc, #272]	; (8000444 <_ada_pinny2+0x3e8>)
 8000334:	4618      	mov	r0, r3
 8000336:	f001 ff1b 	bl	8002170 <stm32__gpio___assign>
 800033a:	f507 7313 	add.w	r3, r7, #588	; 0x24c
 800033e:	f8c7 3310 	str.w	r3, [r7, #784]	; 0x310
 8000342:	f507 73cc 	add.w	r3, r7, #408	; 0x198
 8000346:	60bb      	str	r3, [r7, #8]
 8000348:	4b48      	ldr	r3, [pc, #288]	; (800046c <_ada_pinny2+0x410>)
 800034a:	60fb      	str	r3, [r7, #12]
 800034c:	e9d7 0102 	ldrd	r0, r1, [r7, #8]
 8000350:	f001 ff46 	bl	80021e0 <stm32__gpio__gpio_pointsIP>
 8000354:	f507 73cc 	add.w	r3, r7, #408	; 0x198
 8000358:	4941      	ldr	r1, [pc, #260]	; (8000460 <_ada_pinny2+0x404>)
 800035a:	4618      	mov	r0, r3
 800035c:	f001 ff08 	bl	8002170 <stm32__gpio___assign>
 8000360:	f507 73cc 	add.w	r3, r7, #408	; 0x198
 8000364:	330c      	adds	r3, #12
 8000366:	4921      	ldr	r1, [pc, #132]	; (80003ec <_ada_pinny2+0x390>)
 8000368:	4618      	mov	r0, r3
 800036a:	f001 ff01 	bl	8002170 <stm32__gpio___assign>
 800036e:	f507 73cc 	add.w	r3, r7, #408	; 0x198
 8000372:	3318      	adds	r3, #24
 8000374:	491f      	ldr	r1, [pc, #124]	; (80003f4 <_ada_pinny2+0x398>)
 8000376:	4618      	mov	r0, r3
 8000378:	f001 fefa 	bl	8002170 <stm32__gpio___assign>
 800037c:	f507 73cc 	add.w	r3, r7, #408	; 0x198
 8000380:	3324      	adds	r3, #36	; 0x24
 8000382:	491d      	ldr	r1, [pc, #116]	; (80003f8 <_ada_pinny2+0x39c>)
 8000384:	4618      	mov	r0, r3
 8000386:	f001 fef3 	bl	8002170 <stm32__gpio___assign>
 800038a:	f507 73cc 	add.w	r3, r7, #408	; 0x198
 800038e:	3330      	adds	r3, #48	; 0x30
 8000390:	491b      	ldr	r1, [pc, #108]	; (8000400 <_ada_pinny2+0x3a4>)
 8000392:	4618      	mov	r0, r3
 8000394:	f001 feec 	bl	8002170 <stm32__gpio___assign>
 8000398:	f507 73cc 	add.w	r3, r7, #408	; 0x198
 800039c:	333c      	adds	r3, #60	; 0x3c
 800039e:	491a      	ldr	r1, [pc, #104]	; (8000408 <_ada_pinny2+0x3ac>)
 80003a0:	4618      	mov	r0, r3
 80003a2:	f001 fee5 	bl	8002170 <stm32__gpio___assign>
 80003a6:	f507 73cc 	add.w	r3, r7, #408	; 0x198
 80003aa:	3348      	adds	r3, #72	; 0x48
 80003ac:	491e      	ldr	r1, [pc, #120]	; (8000428 <_ada_pinny2+0x3cc>)
 80003ae:	4618      	mov	r0, r3
 80003b0:	f001 fede 	bl	8002170 <stm32__gpio___assign>
 80003b4:	f507 73cc 	add.w	r3, r7, #408	; 0x198
 80003b8:	3354      	adds	r3, #84	; 0x54
 80003ba:	4925      	ldr	r1, [pc, #148]	; (8000450 <_ada_pinny2+0x3f4>)
 80003bc:	4618      	mov	r0, r3
 80003be:	f001 fed7 	bl	8002170 <stm32__gpio___assign>
 80003c2:	f507 73cc 	add.w	r3, r7, #408	; 0x198
 80003c6:	3360      	adds	r3, #96	; 0x60
 80003c8:	4923      	ldr	r1, [pc, #140]	; (8000458 <_ada_pinny2+0x3fc>)
 80003ca:	4618      	mov	r0, r3
 80003cc:	f001 fed0 	bl	8002170 <stm32__gpio___assign>
 80003d0:	f507 73cc 	add.w	r3, r7, #408	; 0x198
 80003d4:	336c      	adds	r3, #108	; 0x6c
 80003d6:	490e      	ldr	r1, [pc, #56]	; (8000410 <_ada_pinny2+0x3b4>)
 80003d8:	4618      	mov	r0, r3
 80003da:	f001 fec9 	bl	8002170 <stm32__gpio___assign>
 80003de:	f507 73cc 	add.w	r3, r7, #408	; 0x198
 80003e2:	3378      	adds	r3, #120	; 0x78
 80003e4:	e044      	b.n	8000470 <_ada_pinny2+0x414>
 80003e6:	bf00      	nop
 80003e8:	0800d270 	.word	0x0800d270
 80003ec:	20000498 	.word	0x20000498
 80003f0:	200004a4 	.word	0x200004a4
 80003f4:	200004b0 	.word	0x200004b0
 80003f8:	200004bc 	.word	0x200004bc
 80003fc:	200004c8 	.word	0x200004c8
 8000400:	200004d4 	.word	0x200004d4
 8000404:	200004e0 	.word	0x200004e0
 8000408:	200004ec 	.word	0x200004ec
 800040c:	200004f8 	.word	0x200004f8
 8000410:	20000504 	.word	0x20000504
 8000414:	20000510 	.word	0x20000510
 8000418:	2000051c 	.word	0x2000051c
 800041c:	20000528 	.word	0x20000528
 8000420:	2000054c 	.word	0x2000054c
 8000424:	20000560 	.word	0x20000560
 8000428:	2000056c 	.word	0x2000056c
 800042c:	20000584 	.word	0x20000584
 8000430:	20000590 	.word	0x20000590
 8000434:	2000059c 	.word	0x2000059c
 8000438:	200005a8 	.word	0x200005a8
 800043c:	200005b4 	.word	0x200005b4
 8000440:	200005c0 	.word	0x200005c0
 8000444:	200005cc 	.word	0x200005cc
 8000448:	200005d8 	.word	0x200005d8
 800044c:	200005f0 	.word	0x200005f0
 8000450:	200005fc 	.word	0x200005fc
 8000454:	20000608 	.word	0x20000608
 8000458:	20000614 	.word	0x20000614
 800045c:	200006c4 	.word	0x200006c4
 8000460:	200006d0 	.word	0x200006d0
 8000464:	200006dc 	.word	0x200006dc
 8000468:	0800d278 	.word	0x0800d278
 800046c:	0800d280 	.word	0x0800d280
 8000470:	4931      	ldr	r1, [pc, #196]	; (8000538 <_ada_pinny2+0x4dc>)
 8000472:	4618      	mov	r0, r3
 8000474:	f001 fe7c 	bl	8002170 <stm32__gpio___assign>
 8000478:	f507 73cc 	add.w	r3, r7, #408	; 0x198
 800047c:	3384      	adds	r3, #132	; 0x84
 800047e:	492f      	ldr	r1, [pc, #188]	; (800053c <_ada_pinny2+0x4e0>)
 8000480:	4618      	mov	r0, r3
 8000482:	f001 fe75 	bl	8002170 <stm32__gpio___assign>
 8000486:	f507 73cc 	add.w	r3, r7, #408	; 0x198
 800048a:	3390      	adds	r3, #144	; 0x90
 800048c:	492c      	ldr	r1, [pc, #176]	; (8000540 <_ada_pinny2+0x4e4>)
 800048e:	4618      	mov	r0, r3
 8000490:	f001 fe6e 	bl	8002170 <stm32__gpio___assign>
 8000494:	f507 73cc 	add.w	r3, r7, #408	; 0x198
 8000498:	339c      	adds	r3, #156	; 0x9c
 800049a:	492a      	ldr	r1, [pc, #168]	; (8000544 <_ada_pinny2+0x4e8>)
 800049c:	4618      	mov	r0, r3
 800049e:	f001 fe67 	bl	8002170 <stm32__gpio___assign>
 80004a2:	f507 73cc 	add.w	r3, r7, #408	; 0x198
 80004a6:	33a8      	adds	r3, #168	; 0xa8
 80004a8:	4927      	ldr	r1, [pc, #156]	; (8000548 <_ada_pinny2+0x4ec>)
 80004aa:	4618      	mov	r0, r3
 80004ac:	f001 fe60 	bl	8002170 <stm32__gpio___assign>
 80004b0:	f507 73cc 	add.w	r3, r7, #408	; 0x198
 80004b4:	f8c7 330c 	str.w	r3, [r7, #780]	; 0x30c
 80004b8:	f107 0320 	add.w	r3, r7, #32
 80004bc:	469c      	mov	ip, r3
 80004be:	f7ff fda9 	bl	8000014 <pinny2__initialize.6324>
 80004c2:	f507 7313 	add.w	r3, r7, #588	; 0x24c
 80004c6:	613b      	str	r3, [r7, #16]
 80004c8:	4b20      	ldr	r3, [pc, #128]	; (800054c <_ada_pinny2+0x4f0>)
 80004ca:	617b      	str	r3, [r7, #20]
 80004cc:	e9d7 0104 	ldrd	r0, r1, [r7, #16]
 80004d0:	f002 f90c 	bl	80026ec <stm32__gpio__clear__2>
 80004d4:	f507 73cc 	add.w	r3, r7, #408	; 0x198
 80004d8:	461c      	mov	r4, r3
 80004da:	4d1d      	ldr	r5, [pc, #116]	; (8000550 <_ada_pinny2+0x4f4>)
 80004dc:	4620      	mov	r0, r4
 80004de:	4629      	mov	r1, r5
 80004e0:	f002 f8ae 	bl	8002640 <stm32__gpio__set__4>
 80004e4:	f107 0320 	add.w	r3, r7, #32
 80004e8:	61bb      	str	r3, [r7, #24]
 80004ea:	4b1a      	ldr	r3, [pc, #104]	; (8000554 <_ada_pinny2+0x4f8>)
 80004ec:	61fb      	str	r3, [r7, #28]
 80004ee:	e9d7 0106 	ldrd	r0, r1, [r7, #24]
 80004f2:	f002 f95f 	bl	80027b4 <stm32__gpio__toggle__2>
 80004f6:	f006 ff9d 	bl	8007434 <ada__real_time__clock>
 80004fa:	4604      	mov	r4, r0
 80004fc:	460d      	mov	r5, r1
 80004fe:	f44f 707a 	mov.w	r0, #1000	; 0x3e8
 8000502:	f006 ffc7 	bl	8007494 <ada__real_time__milliseconds>
 8000506:	4602      	mov	r2, r0
 8000508:	460b      	mov	r3, r1
 800050a:	4620      	mov	r0, r4
 800050c:	4629      	mov	r1, r5
 800050e:	f006 ff39 	bl	8007384 <ada__real_time__Oadd>
 8000512:	4603      	mov	r3, r0
 8000514:	460c      	mov	r4, r1
 8000516:	4618      	mov	r0, r3
 8000518:	4621      	mov	r1, r4
 800051a:	f006 ffdf 	bl	80074dc <ada__real_time__delays__delay_until>
 800051e:	e7e1      	b.n	80004e4 <_ada_pinny2+0x488>
 8000520:	4602      	mov	r2, r0
 8000522:	2301      	movs	r3, #1
 8000524:	2b01      	cmp	r3, #1
 8000526:	d103      	bne.n	8000530 <_ada_pinny2+0x4d4>
 8000528:	4613      	mov	r3, r2
 800052a:	4618      	mov	r0, r3
 800052c:	f00b fc42 	bl	800bdb4 <_Unwind_Resume>
 8000530:	f507 7746 	add.w	r7, r7, #792	; 0x318
 8000534:	46bd      	mov	sp, r7
 8000536:	bdb0      	pop	{r4, r5, r7, pc}
 8000538:	2000051c 	.word	0x2000051c
 800053c:	2000054c 	.word	0x2000054c
 8000540:	20000590 	.word	0x20000590
 8000544:	200005a8 	.word	0x200005a8
 8000548:	200005c0 	.word	0x200005c0
 800054c:	0800d278 	.word	0x0800d278
 8000550:	0800d280 	.word	0x0800d280
 8000554:	0800d270 	.word	0x0800d270

08000558 <ada_main__Tsec_default_sized_stacksBIP>:
 8000558:	b5f0      	push	{r4, r5, r6, r7, lr}
 800055a:	b083      	sub	sp, #12
 800055c:	af00      	add	r7, sp, #0
 800055e:	e9c7 0100 	strd	r0, r1, [r7]
 8000562:	687b      	ldr	r3, [r7, #4]
 8000564:	681b      	ldr	r3, [r3, #0]
 8000566:	461e      	mov	r6, r3
 8000568:	687b      	ldr	r3, [r7, #4]
 800056a:	681c      	ldr	r4, [r3, #0]
 800056c:	687b      	ldr	r3, [r7, #4]
 800056e:	685d      	ldr	r5, [r3, #4]
 8000570:	42ac      	cmp	r4, r5
 8000572:	dc10      	bgt.n	8000596 <ada_main__Tsec_default_sized_stacksBIP+0x3e>
 8000574:	6839      	ldr	r1, [r7, #0]
 8000576:	4623      	mov	r3, r4
 8000578:	1b9a      	subs	r2, r3, r6
 800057a:	4613      	mov	r3, r2
 800057c:	015b      	lsls	r3, r3, #5
 800057e:	4413      	add	r3, r2
 8000580:	011b      	lsls	r3, r3, #4
 8000582:	440b      	add	r3, r1
 8000584:	f44f 7100 	mov.w	r1, #512	; 0x200
 8000588:	4618      	mov	r0, r3
 800058a:	f009 ff7f 	bl	800a48c <system__secondary_stack__ss_stackIP>
 800058e:	42ac      	cmp	r4, r5
 8000590:	d001      	beq.n	8000596 <ada_main__Tsec_default_sized_stacksBIP+0x3e>
 8000592:	3401      	adds	r4, #1
 8000594:	e7ee      	b.n	8000574 <ada_main__Tsec_default_sized_stacksBIP+0x1c>
 8000596:	370c      	adds	r7, #12
 8000598:	46bd      	mov	sp, r7
 800059a:	bdf0      	pop	{r4, r5, r6, r7, pc}

0800059c <adafinal>:
 800059c:	b580      	push	{r7, lr}
 800059e:	af00      	add	r7, sp, #0
 80005a0:	4b08      	ldr	r3, [pc, #32]	; (80005c4 <adafinal+0x28>)
 80005a2:	781b      	ldrb	r3, [r3, #0]
 80005a4:	f083 0301 	eor.w	r3, r3, #1
 80005a8:	b2db      	uxtb	r3, r3
 80005aa:	2b00      	cmp	r3, #0
 80005ac:	d107      	bne.n	80005be <adafinal+0x22>
 80005ae:	4b05      	ldr	r3, [pc, #20]	; (80005c4 <adafinal+0x28>)
 80005b0:	2200      	movs	r2, #0
 80005b2:	701a      	strb	r2, [r3, #0]
 80005b4:	f009 fe0a 	bl	800a1cc <__gnat_runtime_finalize>
 80005b8:	f00a f862 	bl	800a680 <system__standard_library__adafinal>
 80005bc:	e000      	b.n	80005c0 <adafinal+0x24>
 80005be:	bf00      	nop
 80005c0:	bd80      	pop	{r7, pc}
 80005c2:	bf00      	nop
 80005c4:	20000000 	.word	0x20000000

080005c8 <adainit>:
 80005c8:	b580      	push	{r7, lr}
 80005ca:	af00      	add	r7, sp, #0
 80005cc:	4b89      	ldr	r3, [pc, #548]	; (80007f4 <adainit+0x22c>)
 80005ce:	781b      	ldrb	r3, [r3, #0]
 80005d0:	2b00      	cmp	r3, #0
 80005d2:	f040 810d 	bne.w	80007f0 <adainit+0x228>
 80005d6:	4b87      	ldr	r3, [pc, #540]	; (80007f4 <adainit+0x22c>)
 80005d8:	2201      	movs	r2, #1
 80005da:	701a      	strb	r2, [r3, #0]
 80005dc:	4b86      	ldr	r3, [pc, #536]	; (80007f8 <adainit+0x230>)
 80005de:	f04f 32ff 	mov.w	r2, #4294967295	; 0xffffffff
 80005e2:	601a      	str	r2, [r3, #0]
 80005e4:	4b85      	ldr	r3, [pc, #532]	; (80007fc <adainit+0x234>)
 80005e6:	2200      	movs	r2, #0
 80005e8:	601a      	str	r2, [r3, #0]
 80005ea:	4b85      	ldr	r3, [pc, #532]	; (8000800 <adainit+0x238>)
 80005ec:	2262      	movs	r2, #98	; 0x62
 80005ee:	701a      	strb	r2, [r3, #0]
 80005f0:	4b84      	ldr	r3, [pc, #528]	; (8000804 <adainit+0x23c>)
 80005f2:	2243      	movs	r2, #67	; 0x43
 80005f4:	701a      	strb	r2, [r3, #0]
 80005f6:	4b84      	ldr	r3, [pc, #528]	; (8000808 <adainit+0x240>)
 80005f8:	2220      	movs	r2, #32
 80005fa:	701a      	strb	r2, [r3, #0]
 80005fc:	4b83      	ldr	r3, [pc, #524]	; (800080c <adainit+0x244>)
 80005fe:	2246      	movs	r2, #70	; 0x46
 8000600:	701a      	strb	r2, [r3, #0]
 8000602:	4b83      	ldr	r3, [pc, #524]	; (8000810 <adainit+0x248>)
 8000604:	4a83      	ldr	r2, [pc, #524]	; (8000814 <adainit+0x24c>)
 8000606:	601a      	str	r2, [r3, #0]
 8000608:	4b83      	ldr	r3, [pc, #524]	; (8000818 <adainit+0x250>)
 800060a:	2200      	movs	r2, #0
 800060c:	601a      	str	r2, [r3, #0]
 800060e:	4b83      	ldr	r3, [pc, #524]	; (800081c <adainit+0x254>)
 8000610:	f04f 32ff 	mov.w	r2, #4294967295	; 0xffffffff
 8000614:	601a      	str	r2, [r3, #0]
 8000616:	4b82      	ldr	r3, [pc, #520]	; (8000820 <adainit+0x258>)
 8000618:	4a82      	ldr	r2, [pc, #520]	; (8000824 <adainit+0x25c>)
 800061a:	601a      	str	r2, [r3, #0]
 800061c:	4b82      	ldr	r3, [pc, #520]	; (8000828 <adainit+0x260>)
 800061e:	2200      	movs	r2, #0
 8000620:	601a      	str	r2, [r3, #0]
 8000622:	4b82      	ldr	r3, [pc, #520]	; (800082c <adainit+0x264>)
 8000624:	2200      	movs	r2, #0
 8000626:	601a      	str	r2, [r3, #0]
 8000628:	4b81      	ldr	r3, [pc, #516]	; (8000830 <adainit+0x268>)
 800062a:	2201      	movs	r2, #1
 800062c:	601a      	str	r2, [r3, #0]
 800062e:	4b81      	ldr	r3, [pc, #516]	; (8000834 <adainit+0x26c>)
 8000630:	f04f 32ff 	mov.w	r2, #4294967295	; 0xffffffff
 8000634:	601a      	str	r2, [r3, #0]
 8000636:	4b80      	ldr	r3, [pc, #512]	; (8000838 <adainit+0x270>)
 8000638:	2200      	movs	r2, #0
 800063a:	601a      	str	r2, [r3, #0]
 800063c:	f000 f94a 	bl	80008d4 <ada_main___elabb>
 8000640:	4b7e      	ldr	r3, [pc, #504]	; (800083c <adainit+0x274>)
 8000642:	f44f 7200 	mov.w	r2, #512	; 0x200
 8000646:	601a      	str	r2, [r3, #0]
 8000648:	4b7d      	ldr	r3, [pc, #500]	; (8000840 <adainit+0x278>)
 800064a:	2201      	movs	r2, #1
 800064c:	601a      	str	r2, [r3, #0]
 800064e:	4a7d      	ldr	r2, [pc, #500]	; (8000844 <adainit+0x27c>)
 8000650:	4b7d      	ldr	r3, [pc, #500]	; (8000848 <adainit+0x280>)
 8000652:	601a      	str	r2, [r3, #0]
 8000654:	2001      	movs	r0, #1
 8000656:	f009 fd8d 	bl	800a174 <__gnat_runtime_initialize>
 800065a:	f007 fb2b 	bl	8007cb4 <system__bb__timing_events___elabs>
 800065e:	4b7b      	ldr	r3, [pc, #492]	; (800084c <adainit+0x284>)
 8000660:	881b      	ldrh	r3, [r3, #0]
 8000662:	b21b      	sxth	r3, r3
 8000664:	3301      	adds	r3, #1
 8000666:	b21a      	sxth	r2, r3
 8000668:	4b78      	ldr	r3, [pc, #480]	; (800084c <adainit+0x284>)
 800066a:	801a      	strh	r2, [r3, #0]
 800066c:	f009 fffc 	bl	800a668 <system__soft_links___elabs>
 8000670:	f008 fe54 	bl	800931c <ada__tags___elabb>
 8000674:	4b76      	ldr	r3, [pc, #472]	; (8000850 <adainit+0x288>)
 8000676:	881b      	ldrh	r3, [r3, #0]
 8000678:	b21b      	sxth	r3, r3
 800067a:	3301      	adds	r3, #1
 800067c:	b21a      	sxth	r2, r3
 800067e:	4b74      	ldr	r3, [pc, #464]	; (8000850 <adainit+0x288>)
 8000680:	801a      	strh	r2, [r3, #0]
 8000682:	f009 faa9 	bl	8009bd8 <system__exception_table___elabb>
 8000686:	4b73      	ldr	r3, [pc, #460]	; (8000854 <adainit+0x28c>)
 8000688:	881b      	ldrh	r3, [r3, #0]
 800068a:	b21b      	sxth	r3, r3
 800068c:	3301      	adds	r3, #1
 800068e:	b21a      	sxth	r2, r3
 8000690:	4b70      	ldr	r3, [pc, #448]	; (8000854 <adainit+0x28c>)
 8000692:	801a      	strh	r2, [r3, #0]
 8000694:	4b70      	ldr	r3, [pc, #448]	; (8000858 <adainit+0x290>)
 8000696:	881b      	ldrh	r3, [r3, #0]
 8000698:	b21b      	sxth	r3, r3
 800069a:	3301      	adds	r3, #1
 800069c:	b21a      	sxth	r2, r3
 800069e:	4b6e      	ldr	r3, [pc, #440]	; (8000858 <adainit+0x290>)
 80006a0:	801a      	strh	r2, [r3, #0]
 80006a2:	f008 fd91 	bl	80091c8 <ada__streams___elabs>
 80006a6:	4b6d      	ldr	r3, [pc, #436]	; (800085c <adainit+0x294>)
 80006a8:	881b      	ldrh	r3, [r3, #0]
 80006aa:	b21b      	sxth	r3, r3
 80006ac:	3301      	adds	r3, #1
 80006ae:	b21a      	sxth	r2, r3
 80006b0:	4b6a      	ldr	r3, [pc, #424]	; (800085c <adainit+0x294>)
 80006b2:	801a      	strh	r2, [r3, #0]
 80006b4:	f009 fd3a 	bl	800a12c <system__finalization_root___elabs>
 80006b8:	4b69      	ldr	r3, [pc, #420]	; (8000860 <adainit+0x298>)
 80006ba:	881b      	ldrh	r3, [r3, #0]
 80006bc:	b21b      	sxth	r3, r3
 80006be:	3301      	adds	r3, #1
 80006c0:	b21a      	sxth	r2, r3
 80006c2:	4b67      	ldr	r3, [pc, #412]	; (8000860 <adainit+0x298>)
 80006c4:	801a      	strh	r2, [r3, #0]
 80006c6:	f008 fd6b 	bl	80091a0 <ada__finalization___elabs>
 80006ca:	4b66      	ldr	r3, [pc, #408]	; (8000864 <adainit+0x29c>)
 80006cc:	881b      	ldrh	r3, [r3, #0]
 80006ce:	b21b      	sxth	r3, r3
 80006d0:	3301      	adds	r3, #1
 80006d2:	b21a      	sxth	r2, r3
 80006d4:	4b63      	ldr	r3, [pc, #396]	; (8000864 <adainit+0x29c>)
 80006d6:	801a      	strh	r2, [r3, #0]
 80006d8:	f009 ffe6 	bl	800a6a8 <system__storage_pools___elabs>
 80006dc:	4b62      	ldr	r3, [pc, #392]	; (8000868 <adainit+0x2a0>)
 80006de:	881b      	ldrh	r3, [r3, #0]
 80006e0:	b21b      	sxth	r3, r3
 80006e2:	3301      	adds	r3, #1
 80006e4:	b21a      	sxth	r2, r3
 80006e6:	4b60      	ldr	r3, [pc, #384]	; (8000868 <adainit+0x2a0>)
 80006e8:	801a      	strh	r2, [r3, #0]
 80006ea:	f009 fcef 	bl	800a0cc <system__finalization_masters___elabs>
 80006ee:	f009 fce1 	bl	800a0b4 <system__finalization_masters___elabb>
 80006f2:	4b5e      	ldr	r3, [pc, #376]	; (800086c <adainit+0x2a4>)
 80006f4:	881b      	ldrh	r3, [r3, #0]
 80006f6:	b21b      	sxth	r3, r3
 80006f8:	3301      	adds	r3, #1
 80006fa:	b21a      	sxth	r2, r3
 80006fc:	4b5b      	ldr	r3, [pc, #364]	; (800086c <adainit+0x2a4>)
 80006fe:	801a      	strh	r2, [r3, #0]
 8000700:	f006 feea 	bl	80074d8 <ada__real_time___elabb>
 8000704:	4b5a      	ldr	r3, [pc, #360]	; (8000870 <adainit+0x2a8>)
 8000706:	881b      	ldrh	r3, [r3, #0]
 8000708:	b21b      	sxth	r3, r3
 800070a:	3301      	adds	r3, #1
 800070c:	b21a      	sxth	r2, r3
 800070e:	4b58      	ldr	r3, [pc, #352]	; (8000870 <adainit+0x2a8>)
 8000710:	801a      	strh	r2, [r3, #0]
 8000712:	f009 fea9 	bl	800a468 <system__pool_global___elabs>
 8000716:	4b57      	ldr	r3, [pc, #348]	; (8000874 <adainit+0x2ac>)
 8000718:	881b      	ldrh	r3, [r3, #0]
 800071a:	b21b      	sxth	r3, r3
 800071c:	3301      	adds	r3, #1
 800071e:	b21a      	sxth	r2, r3
 8000720:	4b54      	ldr	r3, [pc, #336]	; (8000874 <adainit+0x2ac>)
 8000722:	801a      	strh	r2, [r3, #0]
 8000724:	f006 fd86 	bl	8007234 <hal__gpio___elabs>
 8000728:	4b53      	ldr	r3, [pc, #332]	; (8000878 <adainit+0x2b0>)
 800072a:	881b      	ldrh	r3, [r3, #0]
 800072c:	b21b      	sxth	r3, r3
 800072e:	3301      	adds	r3, #1
 8000730:	b21a      	sxth	r2, r3
 8000732:	4b51      	ldr	r3, [pc, #324]	; (8000878 <adainit+0x2b0>)
 8000734:	801a      	strh	r2, [r3, #0]
 8000736:	f006 fdbd 	bl	80072b4 <hal__i2c___elabs>
 800073a:	4b50      	ldr	r3, [pc, #320]	; (800087c <adainit+0x2b4>)
 800073c:	881b      	ldrh	r3, [r3, #0]
 800073e:	b21b      	sxth	r3, r3
 8000740:	3301      	adds	r3, #1
 8000742:	b21a      	sxth	r2, r3
 8000744:	4b4d      	ldr	r3, [pc, #308]	; (800087c <adainit+0x2b4>)
 8000746:	801a      	strh	r2, [r3, #0]
 8000748:	f006 fdf4 	bl	8007334 <hal__spi___elabs>
 800074c:	4b4c      	ldr	r3, [pc, #304]	; (8000880 <adainit+0x2b8>)
 800074e:	881b      	ldrh	r3, [r3, #0]
 8000750:	b21b      	sxth	r3, r3
 8000752:	3301      	adds	r3, #1
 8000754:	b21a      	sxth	r2, r3
 8000756:	4b4a      	ldr	r3, [pc, #296]	; (8000880 <adainit+0x2b8>)
 8000758:	801a      	strh	r2, [r3, #0]
 800075a:	4b4a      	ldr	r3, [pc, #296]	; (8000884 <adainit+0x2bc>)
 800075c:	881b      	ldrh	r3, [r3, #0]
 800075e:	b21b      	sxth	r3, r3
 8000760:	3301      	adds	r3, #1
 8000762:	b21a      	sxth	r2, r3
 8000764:	4b47      	ldr	r3, [pc, #284]	; (8000884 <adainit+0x2bc>)
 8000766:	801a      	strh	r2, [r3, #0]
 8000768:	f004 fe0c 	bl	8005384 <stm32__i2c___elabs>
 800076c:	f004 fde0 	bl	8005330 <stm32__i2c___elabb>
 8000770:	4b45      	ldr	r3, [pc, #276]	; (8000888 <adainit+0x2c0>)
 8000772:	881b      	ldrh	r3, [r3, #0]
 8000774:	b21b      	sxth	r3, r3
 8000776:	3301      	adds	r3, #1
 8000778:	b21a      	sxth	r2, r3
 800077a:	4b43      	ldr	r3, [pc, #268]	; (8000888 <adainit+0x2c0>)
 800077c:	801a      	strh	r2, [r3, #0]
 800077e:	4b43      	ldr	r3, [pc, #268]	; (800088c <adainit+0x2c4>)
 8000780:	881b      	ldrh	r3, [r3, #0]
 8000782:	b21b      	sxth	r3, r3
 8000784:	3301      	adds	r3, #1
 8000786:	b21a      	sxth	r2, r3
 8000788:	4b40      	ldr	r3, [pc, #256]	; (800088c <adainit+0x2c4>)
 800078a:	801a      	strh	r2, [r3, #0]
 800078c:	f006 fd2c 	bl	80071e8 <stm32__spi___elabs>
 8000790:	f006 fca2 	bl	80070d8 <stm32__spi___elabb>
 8000794:	4b3e      	ldr	r3, [pc, #248]	; (8000890 <adainit+0x2c8>)
 8000796:	881b      	ldrh	r3, [r3, #0]
 8000798:	b21b      	sxth	r3, r3
 800079a:	3301      	adds	r3, #1
 800079c:	b21a      	sxth	r2, r3
 800079e:	4b3c      	ldr	r3, [pc, #240]	; (8000890 <adainit+0x2c8>)
 80007a0:	801a      	strh	r2, [r3, #0]
 80007a2:	f002 fb89 	bl	8002eb8 <stm32__gpio___elabs>
 80007a6:	f000 fa07 	bl	8000bb8 <stm32__device___elabs>
 80007aa:	f000 f9dd 	bl	8000b68 <stm32__device___elabb>
 80007ae:	4b39      	ldr	r3, [pc, #228]	; (8000894 <adainit+0x2cc>)
 80007b0:	881b      	ldrh	r3, [r3, #0]
 80007b2:	b21b      	sxth	r3, r3
 80007b4:	3301      	adds	r3, #1
 80007b6:	b21a      	sxth	r2, r3
 80007b8:	4b36      	ldr	r3, [pc, #216]	; (8000894 <adainit+0x2cc>)
 80007ba:	801a      	strh	r2, [r3, #0]
 80007bc:	4b36      	ldr	r3, [pc, #216]	; (8000898 <adainit+0x2d0>)
 80007be:	881b      	ldrh	r3, [r3, #0]
 80007c0:	b21b      	sxth	r3, r3
 80007c2:	3301      	adds	r3, #1
 80007c4:	b21a      	sxth	r2, r3
 80007c6:	4b34      	ldr	r3, [pc, #208]	; (8000898 <adainit+0x2d0>)
 80007c8:	801a      	strh	r2, [r3, #0]
 80007ca:	f002 fb3d 	bl	8002e48 <stm32__gpio___elabb>
 80007ce:	4b33      	ldr	r3, [pc, #204]	; (800089c <adainit+0x2d4>)
 80007d0:	881b      	ldrh	r3, [r3, #0]
 80007d2:	b21b      	sxth	r3, r3
 80007d4:	3301      	adds	r3, #1
 80007d6:	b21a      	sxth	r2, r3
 80007d8:	4b30      	ldr	r3, [pc, #192]	; (800089c <adainit+0x2d4>)
 80007da:	801a      	strh	r2, [r3, #0]
 80007dc:	f000 f888 	bl	80008f0 <stm32__board___elabs>
 80007e0:	4b2f      	ldr	r3, [pc, #188]	; (80008a0 <adainit+0x2d8>)
 80007e2:	881b      	ldrh	r3, [r3, #0]
 80007e4:	b21b      	sxth	r3, r3
 80007e6:	3301      	adds	r3, #1
 80007e8:	b21a      	sxth	r2, r3
 80007ea:	4b2d      	ldr	r3, [pc, #180]	; (80008a0 <adainit+0x2d8>)
 80007ec:	801a      	strh	r2, [r3, #0]
 80007ee:	e000      	b.n	80007f2 <adainit+0x22a>
 80007f0:	bf00      	nop
 80007f2:	bd80      	pop	{r7, pc}
 80007f4:	20000000 	.word	0x20000000
 80007f8:	200000d0 	.word	0x200000d0
 80007fc:	20000170 	.word	0x20000170
 8000800:	20000178 	.word	0x20000178
 8000804:	2000015c 	.word	0x2000015c
 8000808:	2000016c 	.word	0x2000016c
 800080c:	2000016d 	.word	0x2000016d
 8000810:	20000168 	.word	0x20000168
 8000814:	0800d29c 	.word	0x0800d29c
 8000818:	20000164 	.word	0x20000164
 800081c:	200000cc 	.word	0x200000cc
 8000820:	20000154 	.word	0x20000154
 8000824:	0800d2a0 	.word	0x0800d2a0
 8000828:	20000160 	.word	0x20000160
 800082c:	20000174 	.word	0x20000174
 8000830:	2000014c 	.word	0x2000014c
 8000834:	20000148 	.word	0x20000148
 8000838:	20000158 	.word	0x20000158
 800083c:	20001e38 	.word	0x20001e38
 8000840:	20001e30 	.word	0x20001e30
 8000844:	20000268 	.word	0x20000268
 8000848:	20001e34 	.word	0x20001e34
 800084c:	200000a4 	.word	0x200000a4
 8000850:	20000104 	.word	0x20000104
 8000854:	20000138 	.word	0x20000138
 8000858:	20000188 	.word	0x20000188
 800085c:	200000fc 	.word	0x200000fc
 8000860:	20000140 	.word	0x20000140
 8000864:	200000f2 	.word	0x200000f2
 8000868:	2000023c 	.word	0x2000023c
 800086c:	2000013a 	.word	0x2000013a
 8000870:	2000008c 	.word	0x2000008c
 8000874:	2000017a 	.word	0x2000017a
 8000878:	2000006a 	.word	0x2000006a
 800087c:	20000074 	.word	0x20000074
 8000880:	20000080 	.word	0x20000080
 8000884:	20000020 	.word	0x20000020
 8000888:	20000034 	.word	0x20000034
 800088c:	20000044 	.word	0x20000044
 8000890:	20000046 	.word	0x20000046
 8000894:	20000004 	.word	0x20000004
 8000898:	20000068 	.word	0x20000068
 800089c:	20000022 	.word	0x20000022
 80008a0:	20000002 	.word	0x20000002

080008a4 <main>:
 80008a4:	b580      	push	{r7, lr}
 80008a6:	b084      	sub	sp, #16
 80008a8:	af00      	add	r7, sp, #0
 80008aa:	4b09      	ldr	r3, [pc, #36]	; (80008d0 <main+0x2c>)
 80008ac:	607b      	str	r3, [r7, #4]
 80008ae:	f107 0308 	add.w	r3, r7, #8
 80008b2:	4618      	mov	r0, r3
 80008b4:	f009 fc5c 	bl	800a170 <__gnat_initialize>
 80008b8:	f7ff fe86 	bl	80005c8 <adainit>
 80008bc:	f7ff fbce 	bl	800005c <_ada_pinny2>
 80008c0:	f7ff fe6c 	bl	800059c <adafinal>
 80008c4:	f009 fc52 	bl	800a16c <__gnat_finalize>
 80008c8:	3710      	adds	r7, #16
 80008ca:	46bd      	mov	sp, r7
 80008cc:	bd80      	pop	{r7, pc}
 80008ce:	bf00      	nop
 80008d0:	0800d290 	.word	0x0800d290

080008d4 <ada_main___elabb>:
 80008d4:	b598      	push	{r3, r4, r7, lr}
 80008d6:	af00      	add	r7, sp, #0
 80008d8:	4b03      	ldr	r3, [pc, #12]	; (80008e8 <ada_main___elabb+0x14>)
 80008da:	4c04      	ldr	r4, [pc, #16]	; (80008ec <ada_main___elabb+0x18>)
 80008dc:	4618      	mov	r0, r3
 80008de:	4621      	mov	r1, r4
 80008e0:	f7ff fe3a 	bl	8000558 <ada_main__Tsec_default_sized_stacksBIP>
 80008e4:	bd98      	pop	{r3, r4, r7, pc}
 80008e6:	bf00      	nop
 80008e8:	20000268 	.word	0x20000268
 80008ec:	0800d288 	.word	0x0800d288

080008f0 <stm32__board___elabs>:
 80008f0:	b598      	push	{r3, r4, r7, lr}
 80008f2:	af00      	add	r7, sp, #0
 80008f4:	4b07      	ldr	r3, [pc, #28]	; (8000914 <stm32__board___elabs+0x24>)
 80008f6:	4c08      	ldr	r4, [pc, #32]	; (8000918 <stm32__board___elabs+0x28>)
 80008f8:	4618      	mov	r0, r3
 80008fa:	4621      	mov	r1, r4
 80008fc:	f001 fc70 	bl	80021e0 <stm32__gpio__gpio_pointsIP>
 8000900:	4906      	ldr	r1, [pc, #24]	; (800091c <stm32__board___elabs+0x2c>)
 8000902:	4804      	ldr	r0, [pc, #16]	; (8000914 <stm32__board___elabs+0x24>)
 8000904:	f001 fc34 	bl	8002170 <stm32__gpio___assign>
 8000908:	4905      	ldr	r1, [pc, #20]	; (8000920 <stm32__board___elabs+0x30>)
 800090a:	4806      	ldr	r0, [pc, #24]	; (8000924 <stm32__board___elabs+0x34>)
 800090c:	f001 fc30 	bl	8002170 <stm32__gpio___assign>
 8000910:	bd98      	pop	{r3, r4, r7, pc}
 8000912:	bf00      	nop
 8000914:	20000478 	.word	0x20000478
 8000918:	0800d2a4 	.word	0x0800d2a4
 800091c:	20000a58 	.word	0x20000a58
 8000920:	20000a64 	.word	0x20000a64
 8000924:	20000484 	.word	0x20000484

08000928 <stm32__device__enable_clock>:
 8000928:	b5b0      	push	{r4, r5, r7, lr}
 800092a:	b082      	sub	sp, #8
 800092c:	af00      	add	r7, sp, #0
 800092e:	6078      	str	r0, [r7, #4]
 8000930:	4854      	ldr	r0, [pc, #336]	; (8000a84 <stm32__device__enable_clock+0x15c>)
 8000932:	f000 f8fb 	bl	8000b2c <stm32__device__s_ns_periph>
 8000936:	4602      	mov	r2, r0
 8000938:	687b      	ldr	r3, [r7, #4]
 800093a:	429a      	cmp	r2, r3
 800093c:	d10c      	bne.n	8000958 <stm32__device__enable_clock+0x30>
 800093e:	4b52      	ldr	r3, [pc, #328]	; (8000a88 <stm32__device__enable_clock+0x160>)
 8000940:	681b      	ldr	r3, [r3, #0]
 8000942:	338c      	adds	r3, #140	; 0x8c
 8000944:	681b      	ldr	r3, [r3, #0]
 8000946:	461a      	mov	r2, r3
 8000948:	4613      	mov	r3, r2
 800094a:	f043 0201 	orr.w	r2, r3, #1
 800094e:	4b4e      	ldr	r3, [pc, #312]	; (8000a88 <stm32__device__enable_clock+0x160>)
 8000950:	681b      	ldr	r3, [r3, #0]
 8000952:	338c      	adds	r3, #140	; 0x8c
 8000954:	601a      	str	r2, [r3, #0]
 8000956:	e092      	b.n	8000a7e <stm32__device__enable_clock+0x156>
 8000958:	484c      	ldr	r0, [pc, #304]	; (8000a8c <stm32__device__enable_clock+0x164>)
 800095a:	f000 f8e7 	bl	8000b2c <stm32__device__s_ns_periph>
 800095e:	4602      	mov	r2, r0
 8000960:	687b      	ldr	r3, [r7, #4]
 8000962:	429a      	cmp	r2, r3
 8000964:	d10c      	bne.n	8000980 <stm32__device__enable_clock+0x58>
 8000966:	4b48      	ldr	r3, [pc, #288]	; (8000a88 <stm32__device__enable_clock+0x160>)
 8000968:	681b      	ldr	r3, [r3, #0]
 800096a:	338c      	adds	r3, #140	; 0x8c
 800096c:	681b      	ldr	r3, [r3, #0]
 800096e:	461a      	mov	r2, r3
 8000970:	4613      	mov	r3, r2
 8000972:	f043 0202 	orr.w	r2, r3, #2
 8000976:	4b44      	ldr	r3, [pc, #272]	; (8000a88 <stm32__device__enable_clock+0x160>)
 8000978:	681b      	ldr	r3, [r3, #0]
 800097a:	338c      	adds	r3, #140	; 0x8c
 800097c:	601a      	str	r2, [r3, #0]
 800097e:	e07e      	b.n	8000a7e <stm32__device__enable_clock+0x156>
 8000980:	4843      	ldr	r0, [pc, #268]	; (8000a90 <stm32__device__enable_clock+0x168>)
 8000982:	f000 f8d3 	bl	8000b2c <stm32__device__s_ns_periph>
 8000986:	4602      	mov	r2, r0
 8000988:	687b      	ldr	r3, [r7, #4]
 800098a:	429a      	cmp	r2, r3
 800098c:	d10c      	bne.n	80009a8 <stm32__device__enable_clock+0x80>
 800098e:	4b3e      	ldr	r3, [pc, #248]	; (8000a88 <stm32__device__enable_clock+0x160>)
 8000990:	681b      	ldr	r3, [r3, #0]
 8000992:	338c      	adds	r3, #140	; 0x8c
 8000994:	681b      	ldr	r3, [r3, #0]
 8000996:	461a      	mov	r2, r3
 8000998:	4613      	mov	r3, r2
 800099a:	f043 0204 	orr.w	r2, r3, #4
 800099e:	4b3a      	ldr	r3, [pc, #232]	; (8000a88 <stm32__device__enable_clock+0x160>)
 80009a0:	681b      	ldr	r3, [r3, #0]
 80009a2:	338c      	adds	r3, #140	; 0x8c
 80009a4:	601a      	str	r2, [r3, #0]
 80009a6:	e06a      	b.n	8000a7e <stm32__device__enable_clock+0x156>
 80009a8:	483a      	ldr	r0, [pc, #232]	; (8000a94 <stm32__device__enable_clock+0x16c>)
 80009aa:	f000 f8bf 	bl	8000b2c <stm32__device__s_ns_periph>
 80009ae:	4602      	mov	r2, r0
 80009b0:	687b      	ldr	r3, [r7, #4]
 80009b2:	429a      	cmp	r2, r3
 80009b4:	d10c      	bne.n	80009d0 <stm32__device__enable_clock+0xa8>
 80009b6:	4b34      	ldr	r3, [pc, #208]	; (8000a88 <stm32__device__enable_clock+0x160>)
 80009b8:	681b      	ldr	r3, [r3, #0]
 80009ba:	338c      	adds	r3, #140	; 0x8c
 80009bc:	681b      	ldr	r3, [r3, #0]
 80009be:	461a      	mov	r2, r3
 80009c0:	4613      	mov	r3, r2
 80009c2:	f043 0208 	orr.w	r2, r3, #8
 80009c6:	4b30      	ldr	r3, [pc, #192]	; (8000a88 <stm32__device__enable_clock+0x160>)
 80009c8:	681b      	ldr	r3, [r3, #0]
 80009ca:	338c      	adds	r3, #140	; 0x8c
 80009cc:	601a      	str	r2, [r3, #0]
 80009ce:	e056      	b.n	8000a7e <stm32__device__enable_clock+0x156>
 80009d0:	4831      	ldr	r0, [pc, #196]	; (8000a98 <stm32__device__enable_clock+0x170>)
 80009d2:	f000 f8ab 	bl	8000b2c <stm32__device__s_ns_periph>
 80009d6:	4602      	mov	r2, r0
 80009d8:	687b      	ldr	r3, [r7, #4]
 80009da:	429a      	cmp	r2, r3
 80009dc:	d10c      	bne.n	80009f8 <stm32__device__enable_clock+0xd0>
 80009de:	4b2a      	ldr	r3, [pc, #168]	; (8000a88 <stm32__device__enable_clock+0x160>)
 80009e0:	681b      	ldr	r3, [r3, #0]
 80009e2:	338c      	adds	r3, #140	; 0x8c
 80009e4:	681b      	ldr	r3, [r3, #0]
 80009e6:	461a      	mov	r2, r3
 80009e8:	4613      	mov	r3, r2
 80009ea:	f043 0210 	orr.w	r2, r3, #16
 80009ee:	4b26      	ldr	r3, [pc, #152]	; (8000a88 <stm32__device__enable_clock+0x160>)
 80009f0:	681b      	ldr	r3, [r3, #0]
 80009f2:	338c      	adds	r3, #140	; 0x8c
 80009f4:	601a      	str	r2, [r3, #0]
 80009f6:	e042      	b.n	8000a7e <stm32__device__enable_clock+0x156>
 80009f8:	4828      	ldr	r0, [pc, #160]	; (8000a9c <stm32__device__enable_clock+0x174>)
 80009fa:	f000 f897 	bl	8000b2c <stm32__device__s_ns_periph>
 80009fe:	4602      	mov	r2, r0
 8000a00:	687b      	ldr	r3, [r7, #4]
 8000a02:	429a      	cmp	r2, r3
 8000a04:	d10c      	bne.n	8000a20 <stm32__device__enable_clock+0xf8>
 8000a06:	4b20      	ldr	r3, [pc, #128]	; (8000a88 <stm32__device__enable_clock+0x160>)
 8000a08:	681b      	ldr	r3, [r3, #0]
 8000a0a:	338c      	adds	r3, #140	; 0x8c
 8000a0c:	681b      	ldr	r3, [r3, #0]
 8000a0e:	461a      	mov	r2, r3
 8000a10:	4613      	mov	r3, r2
 8000a12:	f043 0220 	orr.w	r2, r3, #32
 8000a16:	4b1c      	ldr	r3, [pc, #112]	; (8000a88 <stm32__device__enable_clock+0x160>)
 8000a18:	681b      	ldr	r3, [r3, #0]
 8000a1a:	338c      	adds	r3, #140	; 0x8c
 8000a1c:	601a      	str	r2, [r3, #0]
 8000a1e:	e02e      	b.n	8000a7e <stm32__device__enable_clock+0x156>
 8000a20:	481f      	ldr	r0, [pc, #124]	; (8000aa0 <stm32__device__enable_clock+0x178>)
 8000a22:	f000 f883 	bl	8000b2c <stm32__device__s_ns_periph>
 8000a26:	4602      	mov	r2, r0
 8000a28:	687b      	ldr	r3, [r7, #4]
 8000a2a:	429a      	cmp	r2, r3
 8000a2c:	d10c      	bne.n	8000a48 <stm32__device__enable_clock+0x120>
 8000a2e:	4b16      	ldr	r3, [pc, #88]	; (8000a88 <stm32__device__enable_clock+0x160>)
 8000a30:	681b      	ldr	r3, [r3, #0]
 8000a32:	338c      	adds	r3, #140	; 0x8c
 8000a34:	681b      	ldr	r3, [r3, #0]
 8000a36:	461a      	mov	r2, r3
 8000a38:	4613      	mov	r3, r2
 8000a3a:	f043 0240 	orr.w	r2, r3, #64	; 0x40
 8000a3e:	4b12      	ldr	r3, [pc, #72]	; (8000a88 <stm32__device__enable_clock+0x160>)
 8000a40:	681b      	ldr	r3, [r3, #0]
 8000a42:	338c      	adds	r3, #140	; 0x8c
 8000a44:	601a      	str	r2, [r3, #0]
 8000a46:	e01a      	b.n	8000a7e <stm32__device__enable_clock+0x156>
 8000a48:	4816      	ldr	r0, [pc, #88]	; (8000aa4 <stm32__device__enable_clock+0x17c>)
 8000a4a:	f000 f86f 	bl	8000b2c <stm32__device__s_ns_periph>
 8000a4e:	4602      	mov	r2, r0
 8000a50:	687b      	ldr	r3, [r7, #4]
 8000a52:	429a      	cmp	r2, r3
 8000a54:	d10c      	bne.n	8000a70 <stm32__device__enable_clock+0x148>
 8000a56:	4b0c      	ldr	r3, [pc, #48]	; (8000a88 <stm32__device__enable_clock+0x160>)
 8000a58:	681b      	ldr	r3, [r3, #0]
 8000a5a:	338c      	adds	r3, #140	; 0x8c
 8000a5c:	681b      	ldr	r3, [r3, #0]
 8000a5e:	461a      	mov	r2, r3
 8000a60:	4613      	mov	r3, r2
 8000a62:	f043 0280 	orr.w	r2, r3, #128	; 0x80
 8000a66:	4b08      	ldr	r3, [pc, #32]	; (8000a88 <stm32__device__enable_clock+0x160>)
 8000a68:	681b      	ldr	r3, [r3, #0]
 8000a6a:	338c      	adds	r3, #140	; 0x8c
 8000a6c:	601a      	str	r2, [r3, #0]
 8000a6e:	e006      	b.n	8000a7e <stm32__device__enable_clock+0x156>
 8000a70:	4c0d      	ldr	r4, [pc, #52]	; (8000aa8 <stm32__device__enable_clock+0x180>)
 8000a72:	4d0e      	ldr	r5, [pc, #56]	; (8000aac <stm32__device__enable_clock+0x184>)
 8000a74:	4621      	mov	r1, r4
 8000a76:	462a      	mov	r2, r5
 8000a78:	480d      	ldr	r0, [pc, #52]	; (8000ab0 <stm32__device__enable_clock+0x188>)
 8000a7a:	f008 fa85 	bl	8008f88 <__gnat_raise_exception>
 8000a7e:	3708      	adds	r7, #8
 8000a80:	46bd      	mov	sp, r7
 8000a82:	bdb0      	pop	{r4, r5, r7, pc}
 8000a84:	42020000 	.word	0x42020000
 8000a88:	20000b64 	.word	0x20000b64
 8000a8c:	42020400 	.word	0x42020400
 8000a90:	42020800 	.word	0x42020800
 8000a94:	42020c00 	.word	0x42020c00
 8000a98:	42021000 	.word	0x42021000
 8000a9c:	42021400 	.word	0x42021400
 8000aa0:	42021800 	.word	0x42021800
 8000aa4:	42021c00 	.word	0x42021c00
 8000aa8:	0800d2ac 	.word	0x0800d2ac
 8000aac:	0800d2c0 	.word	0x0800d2c0
 8000ab0:	20000008 	.word	0x20000008

08000ab4 <stm32__device__enable_clock__3>:
 8000ab4:	b5f0      	push	{r4, r5, r6, r7, lr}
 8000ab6:	b085      	sub	sp, #20
 8000ab8:	af00      	add	r7, sp, #0
 8000aba:	e9c7 0100 	strd	r0, r1, [r7]
 8000abe:	687b      	ldr	r3, [r7, #4]
 8000ac0:	681a      	ldr	r2, [r3, #0]
 8000ac2:	687b      	ldr	r3, [r7, #4]
 8000ac4:	685b      	ldr	r3, [r3, #4]
 8000ac6:	4615      	mov	r5, r2
 8000ac8:	4614      	mov	r4, r2
 8000aca:	461e      	mov	r6, r3
 8000acc:	42b4      	cmp	r4, r6
 8000ace:	dc27      	bgt.n	8000b20 <stm32__device__enable_clock__3+0x6c>
 8000ad0:	6838      	ldr	r0, [r7, #0]
 8000ad2:	4622      	mov	r2, r4
 8000ad4:	1b51      	subs	r1, r2, r5
 8000ad6:	460b      	mov	r3, r1
 8000ad8:	005b      	lsls	r3, r3, #1
 8000ada:	440b      	add	r3, r1
 8000adc:	009b      	lsls	r3, r3, #2
 8000ade:	4403      	add	r3, r0
 8000ae0:	60fb      	str	r3, [r7, #12]
 8000ae2:	6838      	ldr	r0, [r7, #0]
 8000ae4:	1b51      	subs	r1, r2, r5
 8000ae6:	460b      	mov	r3, r1
 8000ae8:	005b      	lsls	r3, r3, #1
 8000aea:	440b      	add	r3, r1
 8000aec:	009b      	lsls	r3, r3, #2
 8000aee:	4403      	add	r3, r0
 8000af0:	3304      	adds	r3, #4
 8000af2:	681b      	ldr	r3, [r3, #0]
 8000af4:	2b00      	cmp	r3, #0
 8000af6:	d103      	bne.n	8000b00 <stm32__device__enable_clock__3+0x4c>
 8000af8:	217a      	movs	r1, #122	; 0x7a
 8000afa:	480b      	ldr	r0, [pc, #44]	; (8000b28 <stm32__device__enable_clock__3+0x74>)
 8000afc:	f008 fa82 	bl	8009004 <__gnat_rcheck_CE_Access_Check>
 8000b00:	6839      	ldr	r1, [r7, #0]
 8000b02:	1b52      	subs	r2, r2, r5
 8000b04:	4613      	mov	r3, r2
 8000b06:	005b      	lsls	r3, r3, #1
 8000b08:	4413      	add	r3, r2
 8000b0a:	009b      	lsls	r3, r3, #2
 8000b0c:	440b      	add	r3, r1
 8000b0e:	3304      	adds	r3, #4
 8000b10:	681b      	ldr	r3, [r3, #0]
 8000b12:	4618      	mov	r0, r3
 8000b14:	f7ff ff08 	bl	8000928 <stm32__device__enable_clock>
 8000b18:	42b4      	cmp	r4, r6
 8000b1a:	d001      	beq.n	8000b20 <stm32__device__enable_clock__3+0x6c>
 8000b1c:	3401      	adds	r4, #1
 8000b1e:	e7d7      	b.n	8000ad0 <stm32__device__enable_clock__3+0x1c>
 8000b20:	3714      	adds	r7, #20
 8000b22:	46bd      	mov	sp, r7
 8000b24:	bdf0      	pop	{r4, r5, r6, r7, pc}
 8000b26:	bf00      	nop
 8000b28:	0800d2dc 	.word	0x0800d2dc

08000b2c <stm32__device__s_ns_periph>:
 8000b2c:	b480      	push	{r7}
 8000b2e:	b085      	sub	sp, #20
 8000b30:	af00      	add	r7, sp, #0
 8000b32:	6078      	str	r0, [r7, #4]
 8000b34:	f107 0308 	add.w	r3, r7, #8
 8000b38:	60fb      	str	r3, [r7, #12]
 8000b3a:	687b      	ldr	r3, [r7, #4]
 8000b3c:	60bb      	str	r3, [r7, #8]
 8000b3e:	4b09      	ldr	r3, [pc, #36]	; (8000b64 <stm32__device__s_ns_periph+0x38>)
 8000b40:	681b      	ldr	r3, [r3, #0]
 8000b42:	2b00      	cmp	r3, #0
 8000b44:	d005      	beq.n	8000b52 <stm32__device__s_ns_periph+0x26>
 8000b46:	68fb      	ldr	r3, [r7, #12]
 8000b48:	681b      	ldr	r3, [r3, #0]
 8000b4a:	f103 5280 	add.w	r2, r3, #268435456	; 0x10000000
 8000b4e:	68fb      	ldr	r3, [r7, #12]
 8000b50:	601a      	str	r2, [r3, #0]
 8000b52:	68bb      	ldr	r3, [r7, #8]
 8000b54:	bf00      	nop
 8000b56:	4618      	mov	r0, r3
 8000b58:	3714      	adds	r7, #20
 8000b5a:	46bd      	mov	sp, r7
 8000b5c:	f85d 7b04 	ldr.w	r7, [sp], #4
 8000b60:	4770      	bx	lr
 8000b62:	bf00      	nop
 8000b64:	0800a936 	.word	0x0800a936

08000b68 <stm32__device___elabb>:
 8000b68:	b580      	push	{r7, lr}
 8000b6a:	b082      	sub	sp, #8
 8000b6c:	af00      	add	r7, sp, #0
 8000b6e:	480e      	ldr	r0, [pc, #56]	; (8000ba8 <stm32__device___elabb+0x40>)
 8000b70:	f7ff ffdc 	bl	8000b2c <stm32__device__s_ns_periph>
 8000b74:	4603      	mov	r3, r0
 8000b76:	607b      	str	r3, [r7, #4]
 8000b78:	4a0c      	ldr	r2, [pc, #48]	; (8000bac <stm32__device___elabb+0x44>)
 8000b7a:	1d3b      	adds	r3, r7, #4
 8000b7c:	6013      	str	r3, [r2, #0]
 8000b7e:	4b0b      	ldr	r3, [pc, #44]	; (8000bac <stm32__device___elabb+0x44>)
 8000b80:	681b      	ldr	r3, [r3, #0]
 8000b82:	681b      	ldr	r3, [r3, #0]
 8000b84:	461a      	mov	r2, r3
 8000b86:	4b0a      	ldr	r3, [pc, #40]	; (8000bb0 <stm32__device___elabb+0x48>)
 8000b88:	601a      	str	r2, [r3, #0]
 8000b8a:	4b08      	ldr	r3, [pc, #32]	; (8000bac <stm32__device___elabb+0x44>)
 8000b8c:	681b      	ldr	r3, [r3, #0]
 8000b8e:	681b      	ldr	r3, [r3, #0]
 8000b90:	f003 0303 	and.w	r3, r3, #3
 8000b94:	2b00      	cmp	r3, #0
 8000b96:	d003      	beq.n	8000ba0 <stm32__device___elabb+0x38>
 8000b98:	2131      	movs	r1, #49	; 0x31
 8000b9a:	4806      	ldr	r0, [pc, #24]	; (8000bb4 <stm32__device___elabb+0x4c>)
 8000b9c:	f008 fa76 	bl	800908c <__gnat_rcheck_PE_Misaligned_Address_Value>
 8000ba0:	3708      	adds	r7, #8
 8000ba2:	46bd      	mov	sp, r7
 8000ba4:	bd80      	pop	{r7, pc}
 8000ba6:	bf00      	nop
 8000ba8:	46020c00 	.word	0x46020c00
 8000bac:	20000b60 	.word	0x20000b60
 8000bb0:	20000b64 	.word	0x20000b64
 8000bb4:	0800d2dc 	.word	0x0800d2dc

08000bb8 <stm32__device___elabs>:
 8000bb8:	b580      	push	{r7, lr}
 8000bba:	b08e      	sub	sp, #56	; 0x38
 8000bbc:	af00      	add	r7, sp, #0
 8000bbe:	486d      	ldr	r0, [pc, #436]	; (8000d74 <stm32__device___elabs+0x1bc>)
 8000bc0:	f7ff ffb4 	bl	8000b2c <stm32__device__s_ns_periph>
 8000bc4:	4603      	mov	r3, r0
 8000bc6:	603b      	str	r3, [r7, #0]
 8000bc8:	4a6b      	ldr	r2, [pc, #428]	; (8000d78 <stm32__device___elabs+0x1c0>)
 8000bca:	463b      	mov	r3, r7
 8000bcc:	6013      	str	r3, [r2, #0]
 8000bce:	4b6a      	ldr	r3, [pc, #424]	; (8000d78 <stm32__device___elabs+0x1c0>)
 8000bd0:	681b      	ldr	r3, [r3, #0]
 8000bd2:	681b      	ldr	r3, [r3, #0]
 8000bd4:	461a      	mov	r2, r3
 8000bd6:	4b69      	ldr	r3, [pc, #420]	; (8000d7c <stm32__device___elabs+0x1c4>)
 8000bd8:	601a      	str	r2, [r3, #0]
 8000bda:	4b67      	ldr	r3, [pc, #412]	; (8000d78 <stm32__device___elabs+0x1c0>)
 8000bdc:	681b      	ldr	r3, [r3, #0]
 8000bde:	681b      	ldr	r3, [r3, #0]
 8000be0:	f003 0303 	and.w	r3, r3, #3
 8000be4:	2b00      	cmp	r3, #0
 8000be6:	d003      	beq.n	8000bf0 <stm32__device___elabs+0x38>
 8000be8:	2151      	movs	r1, #81	; 0x51
 8000bea:	4865      	ldr	r0, [pc, #404]	; (8000d80 <stm32__device___elabs+0x1c8>)
 8000bec:	f008 fa4e 	bl	800908c <__gnat_rcheck_PE_Misaligned_Address_Value>
 8000bf0:	4b62      	ldr	r3, [pc, #392]	; (8000d7c <stm32__device___elabs+0x1c4>)
 8000bf2:	681b      	ldr	r3, [r3, #0]
 8000bf4:	4a63      	ldr	r2, [pc, #396]	; (8000d84 <stm32__device___elabs+0x1cc>)
 8000bf6:	6053      	str	r3, [r2, #4]
 8000bf8:	4b62      	ldr	r3, [pc, #392]	; (8000d84 <stm32__device___elabs+0x1cc>)
 8000bfa:	2201      	movs	r2, #1
 8000bfc:	811a      	strh	r2, [r3, #8]
 8000bfe:	4a62      	ldr	r2, [pc, #392]	; (8000d88 <stm32__device___elabs+0x1d0>)
 8000c00:	4b60      	ldr	r3, [pc, #384]	; (8000d84 <stm32__device___elabs+0x1cc>)
 8000c02:	601a      	str	r2, [r3, #0]
 8000c04:	4b5d      	ldr	r3, [pc, #372]	; (8000d7c <stm32__device___elabs+0x1c4>)
 8000c06:	681b      	ldr	r3, [r3, #0]
 8000c08:	4a60      	ldr	r2, [pc, #384]	; (8000d8c <stm32__device___elabs+0x1d4>)
 8000c0a:	6053      	str	r3, [r2, #4]
 8000c0c:	4b5f      	ldr	r3, [pc, #380]	; (8000d8c <stm32__device___elabs+0x1d4>)
 8000c0e:	2202      	movs	r2, #2
 8000c10:	811a      	strh	r2, [r3, #8]
 8000c12:	4a5d      	ldr	r2, [pc, #372]	; (8000d88 <stm32__device___elabs+0x1d0>)
 8000c14:	4b5d      	ldr	r3, [pc, #372]	; (8000d8c <stm32__device___elabs+0x1d4>)
 8000c16:	601a      	str	r2, [r3, #0]
 8000c18:	4b58      	ldr	r3, [pc, #352]	; (8000d7c <stm32__device___elabs+0x1c4>)
 8000c1a:	681b      	ldr	r3, [r3, #0]
 8000c1c:	4a5c      	ldr	r2, [pc, #368]	; (8000d90 <stm32__device___elabs+0x1d8>)
 8000c1e:	6053      	str	r3, [r2, #4]
 8000c20:	4b5b      	ldr	r3, [pc, #364]	; (8000d90 <stm32__device___elabs+0x1d8>)
 8000c22:	2204      	movs	r2, #4
 8000c24:	811a      	strh	r2, [r3, #8]
 8000c26:	4a58      	ldr	r2, [pc, #352]	; (8000d88 <stm32__device___elabs+0x1d0>)
 8000c28:	4b59      	ldr	r3, [pc, #356]	; (8000d90 <stm32__device___elabs+0x1d8>)
 8000c2a:	601a      	str	r2, [r3, #0]
 8000c2c:	4b53      	ldr	r3, [pc, #332]	; (8000d7c <stm32__device___elabs+0x1c4>)
 8000c2e:	681b      	ldr	r3, [r3, #0]
 8000c30:	4a58      	ldr	r2, [pc, #352]	; (8000d94 <stm32__device___elabs+0x1dc>)
 8000c32:	6053      	str	r3, [r2, #4]
 8000c34:	4b57      	ldr	r3, [pc, #348]	; (8000d94 <stm32__device___elabs+0x1dc>)
 8000c36:	2208      	movs	r2, #8
 8000c38:	811a      	strh	r2, [r3, #8]
 8000c3a:	4a53      	ldr	r2, [pc, #332]	; (8000d88 <stm32__device___elabs+0x1d0>)
 8000c3c:	4b55      	ldr	r3, [pc, #340]	; (8000d94 <stm32__device___elabs+0x1dc>)
 8000c3e:	601a      	str	r2, [r3, #0]
 8000c40:	4b4e      	ldr	r3, [pc, #312]	; (8000d7c <stm32__device___elabs+0x1c4>)
 8000c42:	681b      	ldr	r3, [r3, #0]
 8000c44:	4a54      	ldr	r2, [pc, #336]	; (8000d98 <stm32__device___elabs+0x1e0>)
 8000c46:	6053      	str	r3, [r2, #4]
 8000c48:	4b53      	ldr	r3, [pc, #332]	; (8000d98 <stm32__device___elabs+0x1e0>)
 8000c4a:	2210      	movs	r2, #16
 8000c4c:	811a      	strh	r2, [r3, #8]
 8000c4e:	4a4e      	ldr	r2, [pc, #312]	; (8000d88 <stm32__device___elabs+0x1d0>)
 8000c50:	4b51      	ldr	r3, [pc, #324]	; (8000d98 <stm32__device___elabs+0x1e0>)
 8000c52:	601a      	str	r2, [r3, #0]
 8000c54:	4b49      	ldr	r3, [pc, #292]	; (8000d7c <stm32__device___elabs+0x1c4>)
 8000c56:	681b      	ldr	r3, [r3, #0]
 8000c58:	4a50      	ldr	r2, [pc, #320]	; (8000d9c <stm32__device___elabs+0x1e4>)
 8000c5a:	6053      	str	r3, [r2, #4]
 8000c5c:	4b4f      	ldr	r3, [pc, #316]	; (8000d9c <stm32__device___elabs+0x1e4>)
 8000c5e:	2220      	movs	r2, #32
 8000c60:	811a      	strh	r2, [r3, #8]
 8000c62:	4a49      	ldr	r2, [pc, #292]	; (8000d88 <stm32__device___elabs+0x1d0>)
 8000c64:	4b4d      	ldr	r3, [pc, #308]	; (8000d9c <stm32__device___elabs+0x1e4>)
 8000c66:	601a      	str	r2, [r3, #0]
 8000c68:	4b44      	ldr	r3, [pc, #272]	; (8000d7c <stm32__device___elabs+0x1c4>)
 8000c6a:	681b      	ldr	r3, [r3, #0]
 8000c6c:	4a4c      	ldr	r2, [pc, #304]	; (8000da0 <stm32__device___elabs+0x1e8>)
 8000c6e:	6053      	str	r3, [r2, #4]
 8000c70:	4b4b      	ldr	r3, [pc, #300]	; (8000da0 <stm32__device___elabs+0x1e8>)
 8000c72:	2240      	movs	r2, #64	; 0x40
 8000c74:	811a      	strh	r2, [r3, #8]
 8000c76:	4a44      	ldr	r2, [pc, #272]	; (8000d88 <stm32__device___elabs+0x1d0>)
 8000c78:	4b49      	ldr	r3, [pc, #292]	; (8000da0 <stm32__device___elabs+0x1e8>)
 8000c7a:	601a      	str	r2, [r3, #0]
 8000c7c:	4b3f      	ldr	r3, [pc, #252]	; (8000d7c <stm32__device___elabs+0x1c4>)
 8000c7e:	681b      	ldr	r3, [r3, #0]
 8000c80:	4a48      	ldr	r2, [pc, #288]	; (8000da4 <stm32__device___elabs+0x1ec>)
 8000c82:	6053      	str	r3, [r2, #4]
 8000c84:	4b47      	ldr	r3, [pc, #284]	; (8000da4 <stm32__device___elabs+0x1ec>)
 8000c86:	2280      	movs	r2, #128	; 0x80
 8000c88:	811a      	strh	r2, [r3, #8]
 8000c8a:	4a3f      	ldr	r2, [pc, #252]	; (8000d88 <stm32__device___elabs+0x1d0>)
 8000c8c:	4b45      	ldr	r3, [pc, #276]	; (8000da4 <stm32__device___elabs+0x1ec>)
 8000c8e:	601a      	str	r2, [r3, #0]
 8000c90:	4b3a      	ldr	r3, [pc, #232]	; (8000d7c <stm32__device___elabs+0x1c4>)
 8000c92:	681b      	ldr	r3, [r3, #0]
 8000c94:	4a44      	ldr	r2, [pc, #272]	; (8000da8 <stm32__device___elabs+0x1f0>)
 8000c96:	6053      	str	r3, [r2, #4]
 8000c98:	4b43      	ldr	r3, [pc, #268]	; (8000da8 <stm32__device___elabs+0x1f0>)
 8000c9a:	f44f 7280 	mov.w	r2, #256	; 0x100
 8000c9e:	811a      	strh	r2, [r3, #8]
 8000ca0:	4a39      	ldr	r2, [pc, #228]	; (8000d88 <stm32__device___elabs+0x1d0>)
 8000ca2:	4b41      	ldr	r3, [pc, #260]	; (8000da8 <stm32__device___elabs+0x1f0>)
 8000ca4:	601a      	str	r2, [r3, #0]
 8000ca6:	4b35      	ldr	r3, [pc, #212]	; (8000d7c <stm32__device___elabs+0x1c4>)
 8000ca8:	681b      	ldr	r3, [r3, #0]
 8000caa:	4a40      	ldr	r2, [pc, #256]	; (8000dac <stm32__device___elabs+0x1f4>)
 8000cac:	6053      	str	r3, [r2, #4]
 8000cae:	4b3f      	ldr	r3, [pc, #252]	; (8000dac <stm32__device___elabs+0x1f4>)
 8000cb0:	f44f 7200 	mov.w	r2, #512	; 0x200
 8000cb4:	811a      	strh	r2, [r3, #8]
 8000cb6:	4a34      	ldr	r2, [pc, #208]	; (8000d88 <stm32__device___elabs+0x1d0>)
 8000cb8:	4b3c      	ldr	r3, [pc, #240]	; (8000dac <stm32__device___elabs+0x1f4>)
 8000cba:	601a      	str	r2, [r3, #0]
 8000cbc:	4b2f      	ldr	r3, [pc, #188]	; (8000d7c <stm32__device___elabs+0x1c4>)
 8000cbe:	681b      	ldr	r3, [r3, #0]
 8000cc0:	4a3b      	ldr	r2, [pc, #236]	; (8000db0 <stm32__device___elabs+0x1f8>)
 8000cc2:	6053      	str	r3, [r2, #4]
 8000cc4:	4b3a      	ldr	r3, [pc, #232]	; (8000db0 <stm32__device___elabs+0x1f8>)
 8000cc6:	f44f 6280 	mov.w	r2, #1024	; 0x400
 8000cca:	811a      	strh	r2, [r3, #8]
 8000ccc:	4a2e      	ldr	r2, [pc, #184]	; (8000d88 <stm32__device___elabs+0x1d0>)
 8000cce:	4b38      	ldr	r3, [pc, #224]	; (8000db0 <stm32__device___elabs+0x1f8>)
 8000cd0:	601a      	str	r2, [r3, #0]
 8000cd2:	4b2a      	ldr	r3, [pc, #168]	; (8000d7c <stm32__device___elabs+0x1c4>)
 8000cd4:	681b      	ldr	r3, [r3, #0]
 8000cd6:	4a37      	ldr	r2, [pc, #220]	; (8000db4 <stm32__device___elabs+0x1fc>)
 8000cd8:	6053      	str	r3, [r2, #4]
 8000cda:	4b36      	ldr	r3, [pc, #216]	; (8000db4 <stm32__device___elabs+0x1fc>)
 8000cdc:	f44f 6200 	mov.w	r2, #2048	; 0x800
 8000ce0:	811a      	strh	r2, [r3, #8]
 8000ce2:	4a29      	ldr	r2, [pc, #164]	; (8000d88 <stm32__device___elabs+0x1d0>)
 8000ce4:	4b33      	ldr	r3, [pc, #204]	; (8000db4 <stm32__device___elabs+0x1fc>)
 8000ce6:	601a      	str	r2, [r3, #0]
 8000ce8:	4b24      	ldr	r3, [pc, #144]	; (8000d7c <stm32__device___elabs+0x1c4>)
 8000cea:	681b      	ldr	r3, [r3, #0]
 8000cec:	4a32      	ldr	r2, [pc, #200]	; (8000db8 <stm32__device___elabs+0x200>)
 8000cee:	6053      	str	r3, [r2, #4]
 8000cf0:	4b31      	ldr	r3, [pc, #196]	; (8000db8 <stm32__device___elabs+0x200>)
 8000cf2:	f44f 5280 	mov.w	r2, #4096	; 0x1000
 8000cf6:	811a      	strh	r2, [r3, #8]
 8000cf8:	4a23      	ldr	r2, [pc, #140]	; (8000d88 <stm32__device___elabs+0x1d0>)
 8000cfa:	4b2f      	ldr	r3, [pc, #188]	; (8000db8 <stm32__device___elabs+0x200>)
 8000cfc:	601a      	str	r2, [r3, #0]
 8000cfe:	4b1f      	ldr	r3, [pc, #124]	; (8000d7c <stm32__device___elabs+0x1c4>)
 8000d00:	681b      	ldr	r3, [r3, #0]
 8000d02:	4a2e      	ldr	r2, [pc, #184]	; (8000dbc <stm32__device___elabs+0x204>)
 8000d04:	6053      	str	r3, [r2, #4]
 8000d06:	4b2d      	ldr	r3, [pc, #180]	; (8000dbc <stm32__device___elabs+0x204>)
 8000d08:	f44f 5200 	mov.w	r2, #8192	; 0x2000
 8000d0c:	811a      	strh	r2, [r3, #8]
 8000d0e:	4a1e      	ldr	r2, [pc, #120]	; (8000d88 <stm32__device___elabs+0x1d0>)
 8000d10:	4b2a      	ldr	r3, [pc, #168]	; (8000dbc <stm32__device___elabs+0x204>)
 8000d12:	601a      	str	r2, [r3, #0]
 8000d14:	4b19      	ldr	r3, [pc, #100]	; (8000d7c <stm32__device___elabs+0x1c4>)
 8000d16:	681b      	ldr	r3, [r3, #0]
 8000d18:	4a29      	ldr	r2, [pc, #164]	; (8000dc0 <stm32__device___elabs+0x208>)
 8000d1a:	6053      	str	r3, [r2, #4]
 8000d1c:	4b28      	ldr	r3, [pc, #160]	; (8000dc0 <stm32__device___elabs+0x208>)
 8000d1e:	f44f 4280 	mov.w	r2, #16384	; 0x4000
 8000d22:	811a      	strh	r2, [r3, #8]
 8000d24:	4a18      	ldr	r2, [pc, #96]	; (8000d88 <stm32__device___elabs+0x1d0>)
 8000d26:	4b26      	ldr	r3, [pc, #152]	; (8000dc0 <stm32__device___elabs+0x208>)
 8000d28:	601a      	str	r2, [r3, #0]
 8000d2a:	4b14      	ldr	r3, [pc, #80]	; (8000d7c <stm32__device___elabs+0x1c4>)
 8000d2c:	681b      	ldr	r3, [r3, #0]
 8000d2e:	4a25      	ldr	r2, [pc, #148]	; (8000dc4 <stm32__device___elabs+0x20c>)
 8000d30:	6053      	str	r3, [r2, #4]
 8000d32:	4b24      	ldr	r3, [pc, #144]	; (8000dc4 <stm32__device___elabs+0x20c>)
 8000d34:	f44f 4200 	mov.w	r2, #32768	; 0x8000
 8000d38:	811a      	strh	r2, [r3, #8]
 8000d3a:	4a13      	ldr	r2, [pc, #76]	; (8000d88 <stm32__device___elabs+0x1d0>)
 8000d3c:	4b21      	ldr	r3, [pc, #132]	; (8000dc4 <stm32__device___elabs+0x20c>)
 8000d3e:	601a      	str	r2, [r3, #0]
 8000d40:	4821      	ldr	r0, [pc, #132]	; (8000dc8 <stm32__device___elabs+0x210>)
 8000d42:	f7ff fef3 	bl	8000b2c <stm32__device__s_ns_periph>
 8000d46:	4603      	mov	r3, r0
 8000d48:	607b      	str	r3, [r7, #4]
 8000d4a:	4a20      	ldr	r2, [pc, #128]	; (8000dcc <stm32__device___elabs+0x214>)
 8000d4c:	1d3b      	adds	r3, r7, #4
 8000d4e:	6013      	str	r3, [r2, #0]
 8000d50:	4b1e      	ldr	r3, [pc, #120]	; (8000dcc <stm32__device___elabs+0x214>)
 8000d52:	681b      	ldr	r3, [r3, #0]
 8000d54:	681b      	ldr	r3, [r3, #0]
 8000d56:	461a      	mov	r2, r3
 8000d58:	4b1d      	ldr	r3, [pc, #116]	; (8000dd0 <stm32__device___elabs+0x218>)
 8000d5a:	601a      	str	r2, [r3, #0]
 8000d5c:	4b1b      	ldr	r3, [pc, #108]	; (8000dcc <stm32__device___elabs+0x214>)
 8000d5e:	681b      	ldr	r3, [r3, #0]
 8000d60:	681b      	ldr	r3, [r3, #0]
 8000d62:	f003 0303 	and.w	r3, r3, #3
 8000d66:	2b00      	cmp	r3, #0
 8000d68:	d034      	beq.n	8000dd4 <stm32__device___elabs+0x21c>
 8000d6a:	2152      	movs	r1, #82	; 0x52
 8000d6c:	4804      	ldr	r0, [pc, #16]	; (8000d80 <stm32__device___elabs+0x1c8>)
 8000d6e:	f008 f98d 	bl	800908c <__gnat_rcheck_PE_Misaligned_Address_Value>
 8000d72:	bf00      	nop
 8000d74:	42020000 	.word	0x42020000
 8000d78:	20000490 	.word	0x20000490
 8000d7c:	20000494 	.word	0x20000494
 8000d80:	0800d358 	.word	0x0800d358
 8000d84:	20000498 	.word	0x20000498
 8000d88:	0800d568 	.word	0x0800d568
 8000d8c:	200004a4 	.word	0x200004a4
 8000d90:	200004b0 	.word	0x200004b0
 8000d94:	200004bc 	.word	0x200004bc
 8000d98:	200004c8 	.word	0x200004c8
 8000d9c:	200004d4 	.word	0x200004d4
 8000da0:	200004e0 	.word	0x200004e0
 8000da4:	200004ec 	.word	0x200004ec
 8000da8:	200004f8 	.word	0x200004f8
 8000dac:	20000504 	.word	0x20000504
 8000db0:	20000510 	.word	0x20000510
 8000db4:	2000051c 	.word	0x2000051c
 8000db8:	20000528 	.word	0x20000528
 8000dbc:	20000534 	.word	0x20000534
 8000dc0:	20000540 	.word	0x20000540
 8000dc4:	2000054c 	.word	0x2000054c
 8000dc8:	42020400 	.word	0x42020400
 8000dcc:	20000558 	.word	0x20000558
 8000dd0:	2000055c 	.word	0x2000055c
 8000dd4:	4b60      	ldr	r3, [pc, #384]	; (8000f58 <stm32__device___elabs+0x3a0>)
 8000dd6:	681b      	ldr	r3, [r3, #0]
 8000dd8:	4a60      	ldr	r2, [pc, #384]	; (8000f5c <stm32__device___elabs+0x3a4>)
 8000dda:	6053      	str	r3, [r2, #4]
 8000ddc:	4b5f      	ldr	r3, [pc, #380]	; (8000f5c <stm32__device___elabs+0x3a4>)
 8000dde:	2201      	movs	r2, #1
 8000de0:	811a      	strh	r2, [r3, #8]
 8000de2:	4a5f      	ldr	r2, [pc, #380]	; (8000f60 <stm32__device___elabs+0x3a8>)
 8000de4:	4b5d      	ldr	r3, [pc, #372]	; (8000f5c <stm32__device___elabs+0x3a4>)
 8000de6:	601a      	str	r2, [r3, #0]
 8000de8:	4b5b      	ldr	r3, [pc, #364]	; (8000f58 <stm32__device___elabs+0x3a0>)
 8000dea:	681b      	ldr	r3, [r3, #0]
 8000dec:	4a5d      	ldr	r2, [pc, #372]	; (8000f64 <stm32__device___elabs+0x3ac>)
 8000dee:	6053      	str	r3, [r2, #4]
 8000df0:	4b5c      	ldr	r3, [pc, #368]	; (8000f64 <stm32__device___elabs+0x3ac>)
 8000df2:	2202      	movs	r2, #2
 8000df4:	811a      	strh	r2, [r3, #8]
 8000df6:	4a5a      	ldr	r2, [pc, #360]	; (8000f60 <stm32__device___elabs+0x3a8>)
 8000df8:	4b5a      	ldr	r3, [pc, #360]	; (8000f64 <stm32__device___elabs+0x3ac>)
 8000dfa:	601a      	str	r2, [r3, #0]
 8000dfc:	4b56      	ldr	r3, [pc, #344]	; (8000f58 <stm32__device___elabs+0x3a0>)
 8000dfe:	681b      	ldr	r3, [r3, #0]
 8000e00:	4a59      	ldr	r2, [pc, #356]	; (8000f68 <stm32__device___elabs+0x3b0>)
 8000e02:	6053      	str	r3, [r2, #4]
 8000e04:	4b58      	ldr	r3, [pc, #352]	; (8000f68 <stm32__device___elabs+0x3b0>)
 8000e06:	2204      	movs	r2, #4
 8000e08:	811a      	strh	r2, [r3, #8]
 8000e0a:	4a55      	ldr	r2, [pc, #340]	; (8000f60 <stm32__device___elabs+0x3a8>)
 8000e0c:	4b56      	ldr	r3, [pc, #344]	; (8000f68 <stm32__device___elabs+0x3b0>)
 8000e0e:	601a      	str	r2, [r3, #0]
 8000e10:	4b51      	ldr	r3, [pc, #324]	; (8000f58 <stm32__device___elabs+0x3a0>)
 8000e12:	681b      	ldr	r3, [r3, #0]
 8000e14:	4a55      	ldr	r2, [pc, #340]	; (8000f6c <stm32__device___elabs+0x3b4>)
 8000e16:	6053      	str	r3, [r2, #4]
 8000e18:	4b54      	ldr	r3, [pc, #336]	; (8000f6c <stm32__device___elabs+0x3b4>)
 8000e1a:	2208      	movs	r2, #8
 8000e1c:	811a      	strh	r2, [r3, #8]
 8000e1e:	4a50      	ldr	r2, [pc, #320]	; (8000f60 <stm32__device___elabs+0x3a8>)
 8000e20:	4b52      	ldr	r3, [pc, #328]	; (8000f6c <stm32__device___elabs+0x3b4>)
 8000e22:	601a      	str	r2, [r3, #0]
 8000e24:	4b4c      	ldr	r3, [pc, #304]	; (8000f58 <stm32__device___elabs+0x3a0>)
 8000e26:	681b      	ldr	r3, [r3, #0]
 8000e28:	4a51      	ldr	r2, [pc, #324]	; (8000f70 <stm32__device___elabs+0x3b8>)
 8000e2a:	6053      	str	r3, [r2, #4]
 8000e2c:	4b50      	ldr	r3, [pc, #320]	; (8000f70 <stm32__device___elabs+0x3b8>)
 8000e2e:	2210      	movs	r2, #16
 8000e30:	811a      	strh	r2, [r3, #8]
 8000e32:	4a4b      	ldr	r2, [pc, #300]	; (8000f60 <stm32__device___elabs+0x3a8>)
 8000e34:	4b4e      	ldr	r3, [pc, #312]	; (8000f70 <stm32__device___elabs+0x3b8>)
 8000e36:	601a      	str	r2, [r3, #0]
 8000e38:	4b47      	ldr	r3, [pc, #284]	; (8000f58 <stm32__device___elabs+0x3a0>)
 8000e3a:	681b      	ldr	r3, [r3, #0]
 8000e3c:	4a4d      	ldr	r2, [pc, #308]	; (8000f74 <stm32__device___elabs+0x3bc>)
 8000e3e:	6053      	str	r3, [r2, #4]
 8000e40:	4b4c      	ldr	r3, [pc, #304]	; (8000f74 <stm32__device___elabs+0x3bc>)
 8000e42:	2220      	movs	r2, #32
 8000e44:	811a      	strh	r2, [r3, #8]
 8000e46:	4a46      	ldr	r2, [pc, #280]	; (8000f60 <stm32__device___elabs+0x3a8>)
 8000e48:	4b4a      	ldr	r3, [pc, #296]	; (8000f74 <stm32__device___elabs+0x3bc>)
 8000e4a:	601a      	str	r2, [r3, #0]
 8000e4c:	4b42      	ldr	r3, [pc, #264]	; (8000f58 <stm32__device___elabs+0x3a0>)
 8000e4e:	681b      	ldr	r3, [r3, #0]
 8000e50:	4a49      	ldr	r2, [pc, #292]	; (8000f78 <stm32__device___elabs+0x3c0>)
 8000e52:	6053      	str	r3, [r2, #4]
 8000e54:	4b48      	ldr	r3, [pc, #288]	; (8000f78 <stm32__device___elabs+0x3c0>)
 8000e56:	2240      	movs	r2, #64	; 0x40
 8000e58:	811a      	strh	r2, [r3, #8]
 8000e5a:	4a41      	ldr	r2, [pc, #260]	; (8000f60 <stm32__device___elabs+0x3a8>)
 8000e5c:	4b46      	ldr	r3, [pc, #280]	; (8000f78 <stm32__device___elabs+0x3c0>)
 8000e5e:	601a      	str	r2, [r3, #0]
 8000e60:	4b3d      	ldr	r3, [pc, #244]	; (8000f58 <stm32__device___elabs+0x3a0>)
 8000e62:	681b      	ldr	r3, [r3, #0]
 8000e64:	4a45      	ldr	r2, [pc, #276]	; (8000f7c <stm32__device___elabs+0x3c4>)
 8000e66:	6053      	str	r3, [r2, #4]
 8000e68:	4b44      	ldr	r3, [pc, #272]	; (8000f7c <stm32__device___elabs+0x3c4>)
 8000e6a:	2280      	movs	r2, #128	; 0x80
 8000e6c:	811a      	strh	r2, [r3, #8]
 8000e6e:	4a3c      	ldr	r2, [pc, #240]	; (8000f60 <stm32__device___elabs+0x3a8>)
 8000e70:	4b42      	ldr	r3, [pc, #264]	; (8000f7c <stm32__device___elabs+0x3c4>)
 8000e72:	601a      	str	r2, [r3, #0]
 8000e74:	4b38      	ldr	r3, [pc, #224]	; (8000f58 <stm32__device___elabs+0x3a0>)
 8000e76:	681b      	ldr	r3, [r3, #0]
 8000e78:	4a41      	ldr	r2, [pc, #260]	; (8000f80 <stm32__device___elabs+0x3c8>)
 8000e7a:	6053      	str	r3, [r2, #4]
 8000e7c:	4b40      	ldr	r3, [pc, #256]	; (8000f80 <stm32__device___elabs+0x3c8>)
 8000e7e:	f44f 7280 	mov.w	r2, #256	; 0x100
 8000e82:	811a      	strh	r2, [r3, #8]
 8000e84:	4a36      	ldr	r2, [pc, #216]	; (8000f60 <stm32__device___elabs+0x3a8>)
 8000e86:	4b3e      	ldr	r3, [pc, #248]	; (8000f80 <stm32__device___elabs+0x3c8>)
 8000e88:	601a      	str	r2, [r3, #0]
 8000e8a:	4b33      	ldr	r3, [pc, #204]	; (8000f58 <stm32__device___elabs+0x3a0>)
 8000e8c:	681b      	ldr	r3, [r3, #0]
 8000e8e:	4a3d      	ldr	r2, [pc, #244]	; (8000f84 <stm32__device___elabs+0x3cc>)
 8000e90:	6053      	str	r3, [r2, #4]
 8000e92:	4b3c      	ldr	r3, [pc, #240]	; (8000f84 <stm32__device___elabs+0x3cc>)
 8000e94:	f44f 7200 	mov.w	r2, #512	; 0x200
 8000e98:	811a      	strh	r2, [r3, #8]
 8000e9a:	4a31      	ldr	r2, [pc, #196]	; (8000f60 <stm32__device___elabs+0x3a8>)
 8000e9c:	4b39      	ldr	r3, [pc, #228]	; (8000f84 <stm32__device___elabs+0x3cc>)
 8000e9e:	601a      	str	r2, [r3, #0]
 8000ea0:	4b2d      	ldr	r3, [pc, #180]	; (8000f58 <stm32__device___elabs+0x3a0>)
 8000ea2:	681b      	ldr	r3, [r3, #0]
 8000ea4:	4a38      	ldr	r2, [pc, #224]	; (8000f88 <stm32__device___elabs+0x3d0>)
 8000ea6:	6053      	str	r3, [r2, #4]
 8000ea8:	4b37      	ldr	r3, [pc, #220]	; (8000f88 <stm32__device___elabs+0x3d0>)
 8000eaa:	f44f 6280 	mov.w	r2, #1024	; 0x400
 8000eae:	811a      	strh	r2, [r3, #8]
 8000eb0:	4a2b      	ldr	r2, [pc, #172]	; (8000f60 <stm32__device___elabs+0x3a8>)
 8000eb2:	4b35      	ldr	r3, [pc, #212]	; (8000f88 <stm32__device___elabs+0x3d0>)
 8000eb4:	601a      	str	r2, [r3, #0]
 8000eb6:	4b28      	ldr	r3, [pc, #160]	; (8000f58 <stm32__device___elabs+0x3a0>)
 8000eb8:	681b      	ldr	r3, [r3, #0]
 8000eba:	4a34      	ldr	r2, [pc, #208]	; (8000f8c <stm32__device___elabs+0x3d4>)
 8000ebc:	6053      	str	r3, [r2, #4]
 8000ebe:	4b33      	ldr	r3, [pc, #204]	; (8000f8c <stm32__device___elabs+0x3d4>)
 8000ec0:	f44f 6200 	mov.w	r2, #2048	; 0x800
 8000ec4:	811a      	strh	r2, [r3, #8]
 8000ec6:	4a26      	ldr	r2, [pc, #152]	; (8000f60 <stm32__device___elabs+0x3a8>)
 8000ec8:	4b30      	ldr	r3, [pc, #192]	; (8000f8c <stm32__device___elabs+0x3d4>)
 8000eca:	601a      	str	r2, [r3, #0]
 8000ecc:	4b22      	ldr	r3, [pc, #136]	; (8000f58 <stm32__device___elabs+0x3a0>)
 8000ece:	681b      	ldr	r3, [r3, #0]
 8000ed0:	4a2f      	ldr	r2, [pc, #188]	; (8000f90 <stm32__device___elabs+0x3d8>)
 8000ed2:	6053      	str	r3, [r2, #4]
 8000ed4:	4b2e      	ldr	r3, [pc, #184]	; (8000f90 <stm32__device___elabs+0x3d8>)
 8000ed6:	f44f 5280 	mov.w	r2, #4096	; 0x1000
 8000eda:	811a      	strh	r2, [r3, #8]
 8000edc:	4a20      	ldr	r2, [pc, #128]	; (8000f60 <stm32__device___elabs+0x3a8>)
 8000ede:	4b2c      	ldr	r3, [pc, #176]	; (8000f90 <stm32__device___elabs+0x3d8>)
 8000ee0:	601a      	str	r2, [r3, #0]
 8000ee2:	4b1d      	ldr	r3, [pc, #116]	; (8000f58 <stm32__device___elabs+0x3a0>)
 8000ee4:	681b      	ldr	r3, [r3, #0]
 8000ee6:	4a2b      	ldr	r2, [pc, #172]	; (8000f94 <stm32__device___elabs+0x3dc>)
 8000ee8:	6053      	str	r3, [r2, #4]
 8000eea:	4b2a      	ldr	r3, [pc, #168]	; (8000f94 <stm32__device___elabs+0x3dc>)
 8000eec:	f44f 5200 	mov.w	r2, #8192	; 0x2000
 8000ef0:	811a      	strh	r2, [r3, #8]
 8000ef2:	4a1b      	ldr	r2, [pc, #108]	; (8000f60 <stm32__device___elabs+0x3a8>)
 8000ef4:	4b27      	ldr	r3, [pc, #156]	; (8000f94 <stm32__device___elabs+0x3dc>)
 8000ef6:	601a      	str	r2, [r3, #0]
 8000ef8:	4b17      	ldr	r3, [pc, #92]	; (8000f58 <stm32__device___elabs+0x3a0>)
 8000efa:	681b      	ldr	r3, [r3, #0]
 8000efc:	4a26      	ldr	r2, [pc, #152]	; (8000f98 <stm32__device___elabs+0x3e0>)
 8000efe:	6053      	str	r3, [r2, #4]
 8000f00:	4b25      	ldr	r3, [pc, #148]	; (8000f98 <stm32__device___elabs+0x3e0>)
 8000f02:	f44f 4280 	mov.w	r2, #16384	; 0x4000
 8000f06:	811a      	strh	r2, [r3, #8]
 8000f08:	4a15      	ldr	r2, [pc, #84]	; (8000f60 <stm32__device___elabs+0x3a8>)
 8000f0a:	4b23      	ldr	r3, [pc, #140]	; (8000f98 <stm32__device___elabs+0x3e0>)
 8000f0c:	601a      	str	r2, [r3, #0]
 8000f0e:	4b12      	ldr	r3, [pc, #72]	; (8000f58 <stm32__device___elabs+0x3a0>)
 8000f10:	681b      	ldr	r3, [r3, #0]
 8000f12:	4a22      	ldr	r2, [pc, #136]	; (8000f9c <stm32__device___elabs+0x3e4>)
 8000f14:	6053      	str	r3, [r2, #4]
 8000f16:	4b21      	ldr	r3, [pc, #132]	; (8000f9c <stm32__device___elabs+0x3e4>)
 8000f18:	f44f 4200 	mov.w	r2, #32768	; 0x8000
 8000f1c:	811a      	strh	r2, [r3, #8]
 8000f1e:	4a10      	ldr	r2, [pc, #64]	; (8000f60 <stm32__device___elabs+0x3a8>)
 8000f20:	4b1e      	ldr	r3, [pc, #120]	; (8000f9c <stm32__device___elabs+0x3e4>)
 8000f22:	601a      	str	r2, [r3, #0]
 8000f24:	481e      	ldr	r0, [pc, #120]	; (8000fa0 <stm32__device___elabs+0x3e8>)
 8000f26:	f7ff fe01 	bl	8000b2c <stm32__device__s_ns_periph>
 8000f2a:	4603      	mov	r3, r0
 8000f2c:	60bb      	str	r3, [r7, #8]
 8000f2e:	4a1d      	ldr	r2, [pc, #116]	; (8000fa4 <stm32__device___elabs+0x3ec>)
 8000f30:	f107 0308 	add.w	r3, r7, #8
 8000f34:	6013      	str	r3, [r2, #0]
 8000f36:	4b1b      	ldr	r3, [pc, #108]	; (8000fa4 <stm32__device___elabs+0x3ec>)
 8000f38:	681b      	ldr	r3, [r3, #0]
 8000f3a:	681b      	ldr	r3, [r3, #0]
 8000f3c:	461a      	mov	r2, r3
 8000f3e:	4b1a      	ldr	r3, [pc, #104]	; (8000fa8 <stm32__device___elabs+0x3f0>)
 8000f40:	601a      	str	r2, [r3, #0]
 8000f42:	4b18      	ldr	r3, [pc, #96]	; (8000fa4 <stm32__device___elabs+0x3ec>)
 8000f44:	681b      	ldr	r3, [r3, #0]
 8000f46:	681b      	ldr	r3, [r3, #0]
 8000f48:	f003 0303 	and.w	r3, r3, #3
 8000f4c:	2b00      	cmp	r3, #0
 8000f4e:	d02f      	beq.n	8000fb0 <stm32__device___elabs+0x3f8>
 8000f50:	2153      	movs	r1, #83	; 0x53
 8000f52:	4816      	ldr	r0, [pc, #88]	; (8000fac <stm32__device___elabs+0x3f4>)
 8000f54:	f008 f89a 	bl	800908c <__gnat_rcheck_PE_Misaligned_Address_Value>
 8000f58:	2000055c 	.word	0x2000055c
 8000f5c:	20000560 	.word	0x20000560
 8000f60:	0800d568 	.word	0x0800d568
 8000f64:	2000056c 	.word	0x2000056c
 8000f68:	20000578 	.word	0x20000578
 8000f6c:	20000584 	.word	0x20000584
 8000f70:	20000590 	.word	0x20000590
 8000f74:	2000059c 	.word	0x2000059c
 8000f78:	200005a8 	.word	0x200005a8
 8000f7c:	200005b4 	.word	0x200005b4
 8000f80:	200005c0 	.word	0x200005c0
 8000f84:	200005cc 	.word	0x200005cc
 8000f88:	200005d8 	.word	0x200005d8
 8000f8c:	200005e4 	.word	0x200005e4
 8000f90:	200005f0 	.word	0x200005f0
 8000f94:	200005fc 	.word	0x200005fc
 8000f98:	20000608 	.word	0x20000608
 8000f9c:	20000614 	.word	0x20000614
 8000fa0:	42020800 	.word	0x42020800
 8000fa4:	20000620 	.word	0x20000620
 8000fa8:	20000624 	.word	0x20000624
 8000fac:	0800d358 	.word	0x0800d358
 8000fb0:	4b60      	ldr	r3, [pc, #384]	; (8001134 <stm32__device___elabs+0x57c>)
 8000fb2:	681b      	ldr	r3, [r3, #0]
 8000fb4:	4a60      	ldr	r2, [pc, #384]	; (8001138 <stm32__device___elabs+0x580>)
 8000fb6:	6053      	str	r3, [r2, #4]
 8000fb8:	4b5f      	ldr	r3, [pc, #380]	; (8001138 <stm32__device___elabs+0x580>)
 8000fba:	2201      	movs	r2, #1
 8000fbc:	811a      	strh	r2, [r3, #8]
 8000fbe:	4a5f      	ldr	r2, [pc, #380]	; (800113c <stm32__device___elabs+0x584>)
 8000fc0:	4b5d      	ldr	r3, [pc, #372]	; (8001138 <stm32__device___elabs+0x580>)
 8000fc2:	601a      	str	r2, [r3, #0]
 8000fc4:	4b5b      	ldr	r3, [pc, #364]	; (8001134 <stm32__device___elabs+0x57c>)
 8000fc6:	681b      	ldr	r3, [r3, #0]
 8000fc8:	4a5d      	ldr	r2, [pc, #372]	; (8001140 <stm32__device___elabs+0x588>)
 8000fca:	6053      	str	r3, [r2, #4]
 8000fcc:	4b5c      	ldr	r3, [pc, #368]	; (8001140 <stm32__device___elabs+0x588>)
 8000fce:	2202      	movs	r2, #2
 8000fd0:	811a      	strh	r2, [r3, #8]
 8000fd2:	4a5a      	ldr	r2, [pc, #360]	; (800113c <stm32__device___elabs+0x584>)
 8000fd4:	4b5a      	ldr	r3, [pc, #360]	; (8001140 <stm32__device___elabs+0x588>)
 8000fd6:	601a      	str	r2, [r3, #0]
 8000fd8:	4b56      	ldr	r3, [pc, #344]	; (8001134 <stm32__device___elabs+0x57c>)
 8000fda:	681b      	ldr	r3, [r3, #0]
 8000fdc:	4a59      	ldr	r2, [pc, #356]	; (8001144 <stm32__device___elabs+0x58c>)
 8000fde:	6053      	str	r3, [r2, #4]
 8000fe0:	4b58      	ldr	r3, [pc, #352]	; (8001144 <stm32__device___elabs+0x58c>)
 8000fe2:	2204      	movs	r2, #4
 8000fe4:	811a      	strh	r2, [r3, #8]
 8000fe6:	4a55      	ldr	r2, [pc, #340]	; (800113c <stm32__device___elabs+0x584>)
 8000fe8:	4b56      	ldr	r3, [pc, #344]	; (8001144 <stm32__device___elabs+0x58c>)
 8000fea:	601a      	str	r2, [r3, #0]
 8000fec:	4b51      	ldr	r3, [pc, #324]	; (8001134 <stm32__device___elabs+0x57c>)
 8000fee:	681b      	ldr	r3, [r3, #0]
 8000ff0:	4a55      	ldr	r2, [pc, #340]	; (8001148 <stm32__device___elabs+0x590>)
 8000ff2:	6053      	str	r3, [r2, #4]
 8000ff4:	4b54      	ldr	r3, [pc, #336]	; (8001148 <stm32__device___elabs+0x590>)
 8000ff6:	2208      	movs	r2, #8
 8000ff8:	811a      	strh	r2, [r3, #8]
 8000ffa:	4a50      	ldr	r2, [pc, #320]	; (800113c <stm32__device___elabs+0x584>)
 8000ffc:	4b52      	ldr	r3, [pc, #328]	; (8001148 <stm32__device___elabs+0x590>)
 8000ffe:	601a      	str	r2, [r3, #0]
 8001000:	4b4c      	ldr	r3, [pc, #304]	; (8001134 <stm32__device___elabs+0x57c>)
 8001002:	681b      	ldr	r3, [r3, #0]
 8001004:	4a51      	ldr	r2, [pc, #324]	; (800114c <stm32__device___elabs+0x594>)
 8001006:	6053      	str	r3, [r2, #4]
 8001008:	4b50      	ldr	r3, [pc, #320]	; (800114c <stm32__device___elabs+0x594>)
 800100a:	2210      	movs	r2, #16
 800100c:	811a      	strh	r2, [r3, #8]
 800100e:	4a4b      	ldr	r2, [pc, #300]	; (800113c <stm32__device___elabs+0x584>)
 8001010:	4b4e      	ldr	r3, [pc, #312]	; (800114c <stm32__device___elabs+0x594>)
 8001012:	601a      	str	r2, [r3, #0]
 8001014:	4b47      	ldr	r3, [pc, #284]	; (8001134 <stm32__device___elabs+0x57c>)
 8001016:	681b      	ldr	r3, [r3, #0]
 8001018:	4a4d      	ldr	r2, [pc, #308]	; (8001150 <stm32__device___elabs+0x598>)
 800101a:	6053      	str	r3, [r2, #4]
 800101c:	4b4c      	ldr	r3, [pc, #304]	; (8001150 <stm32__device___elabs+0x598>)
 800101e:	2220      	movs	r2, #32
 8001020:	811a      	strh	r2, [r3, #8]
 8001022:	4a46      	ldr	r2, [pc, #280]	; (800113c <stm32__device___elabs+0x584>)
 8001024:	4b4a      	ldr	r3, [pc, #296]	; (8001150 <stm32__device___elabs+0x598>)
 8001026:	601a      	str	r2, [r3, #0]
 8001028:	4b42      	ldr	r3, [pc, #264]	; (8001134 <stm32__device___elabs+0x57c>)
 800102a:	681b      	ldr	r3, [r3, #0]
 800102c:	4a49      	ldr	r2, [pc, #292]	; (8001154 <stm32__device___elabs+0x59c>)
 800102e:	6053      	str	r3, [r2, #4]
 8001030:	4b48      	ldr	r3, [pc, #288]	; (8001154 <stm32__device___elabs+0x59c>)
 8001032:	2240      	movs	r2, #64	; 0x40
 8001034:	811a      	strh	r2, [r3, #8]
 8001036:	4a41      	ldr	r2, [pc, #260]	; (800113c <stm32__device___elabs+0x584>)
 8001038:	4b46      	ldr	r3, [pc, #280]	; (8001154 <stm32__device___elabs+0x59c>)
 800103a:	601a      	str	r2, [r3, #0]
 800103c:	4b3d      	ldr	r3, [pc, #244]	; (8001134 <stm32__device___elabs+0x57c>)
 800103e:	681b      	ldr	r3, [r3, #0]
 8001040:	4a45      	ldr	r2, [pc, #276]	; (8001158 <stm32__device___elabs+0x5a0>)
 8001042:	6053      	str	r3, [r2, #4]
 8001044:	4b44      	ldr	r3, [pc, #272]	; (8001158 <stm32__device___elabs+0x5a0>)
 8001046:	2280      	movs	r2, #128	; 0x80
 8001048:	811a      	strh	r2, [r3, #8]
 800104a:	4a3c      	ldr	r2, [pc, #240]	; (800113c <stm32__device___elabs+0x584>)
 800104c:	4b42      	ldr	r3, [pc, #264]	; (8001158 <stm32__device___elabs+0x5a0>)
 800104e:	601a      	str	r2, [r3, #0]
 8001050:	4b38      	ldr	r3, [pc, #224]	; (8001134 <stm32__device___elabs+0x57c>)
 8001052:	681b      	ldr	r3, [r3, #0]
 8001054:	4a41      	ldr	r2, [pc, #260]	; (800115c <stm32__device___elabs+0x5a4>)
 8001056:	6053      	str	r3, [r2, #4]
 8001058:	4b40      	ldr	r3, [pc, #256]	; (800115c <stm32__device___elabs+0x5a4>)
 800105a:	f44f 7280 	mov.w	r2, #256	; 0x100
 800105e:	811a      	strh	r2, [r3, #8]
 8001060:	4a36      	ldr	r2, [pc, #216]	; (800113c <stm32__device___elabs+0x584>)
 8001062:	4b3e      	ldr	r3, [pc, #248]	; (800115c <stm32__device___elabs+0x5a4>)
 8001064:	601a      	str	r2, [r3, #0]
 8001066:	4b33      	ldr	r3, [pc, #204]	; (8001134 <stm32__device___elabs+0x57c>)
 8001068:	681b      	ldr	r3, [r3, #0]
 800106a:	4a3d      	ldr	r2, [pc, #244]	; (8001160 <stm32__device___elabs+0x5a8>)
 800106c:	6053      	str	r3, [r2, #4]
 800106e:	4b3c      	ldr	r3, [pc, #240]	; (8001160 <stm32__device___elabs+0x5a8>)
 8001070:	f44f 7200 	mov.w	r2, #512	; 0x200
 8001074:	811a      	strh	r2, [r3, #8]
 8001076:	4a31      	ldr	r2, [pc, #196]	; (800113c <stm32__device___elabs+0x584>)
 8001078:	4b39      	ldr	r3, [pc, #228]	; (8001160 <stm32__device___elabs+0x5a8>)
 800107a:	601a      	str	r2, [r3, #0]
 800107c:	4b2d      	ldr	r3, [pc, #180]	; (8001134 <stm32__device___elabs+0x57c>)
 800107e:	681b      	ldr	r3, [r3, #0]
 8001080:	4a38      	ldr	r2, [pc, #224]	; (8001164 <stm32__device___elabs+0x5ac>)
 8001082:	6053      	str	r3, [r2, #4]
 8001084:	4b37      	ldr	r3, [pc, #220]	; (8001164 <stm32__device___elabs+0x5ac>)
 8001086:	f44f 6280 	mov.w	r2, #1024	; 0x400
 800108a:	811a      	strh	r2, [r3, #8]
 800108c:	4a2b      	ldr	r2, [pc, #172]	; (800113c <stm32__device___elabs+0x584>)
 800108e:	4b35      	ldr	r3, [pc, #212]	; (8001164 <stm32__device___elabs+0x5ac>)
 8001090:	601a      	str	r2, [r3, #0]
 8001092:	4b28      	ldr	r3, [pc, #160]	; (8001134 <stm32__device___elabs+0x57c>)
 8001094:	681b      	ldr	r3, [r3, #0]
 8001096:	4a34      	ldr	r2, [pc, #208]	; (8001168 <stm32__device___elabs+0x5b0>)
 8001098:	6053      	str	r3, [r2, #4]
 800109a:	4b33      	ldr	r3, [pc, #204]	; (8001168 <stm32__device___elabs+0x5b0>)
 800109c:	f44f 6200 	mov.w	r2, #2048	; 0x800
 80010a0:	811a      	strh	r2, [r3, #8]
 80010a2:	4a26      	ldr	r2, [pc, #152]	; (800113c <stm32__device___elabs+0x584>)
 80010a4:	4b30      	ldr	r3, [pc, #192]	; (8001168 <stm32__device___elabs+0x5b0>)
 80010a6:	601a      	str	r2, [r3, #0]
 80010a8:	4b22      	ldr	r3, [pc, #136]	; (8001134 <stm32__device___elabs+0x57c>)
 80010aa:	681b      	ldr	r3, [r3, #0]
 80010ac:	4a2f      	ldr	r2, [pc, #188]	; (800116c <stm32__device___elabs+0x5b4>)
 80010ae:	6053      	str	r3, [r2, #4]
 80010b0:	4b2e      	ldr	r3, [pc, #184]	; (800116c <stm32__device___elabs+0x5b4>)
 80010b2:	f44f 5280 	mov.w	r2, #4096	; 0x1000
 80010b6:	811a      	strh	r2, [r3, #8]
 80010b8:	4a20      	ldr	r2, [pc, #128]	; (800113c <stm32__device___elabs+0x584>)
 80010ba:	4b2c      	ldr	r3, [pc, #176]	; (800116c <stm32__device___elabs+0x5b4>)
 80010bc:	601a      	str	r2, [r3, #0]
 80010be:	4b1d      	ldr	r3, [pc, #116]	; (8001134 <stm32__device___elabs+0x57c>)
 80010c0:	681b      	ldr	r3, [r3, #0]
 80010c2:	4a2b      	ldr	r2, [pc, #172]	; (8001170 <stm32__device___elabs+0x5b8>)
 80010c4:	6053      	str	r3, [r2, #4]
 80010c6:	4b2a      	ldr	r3, [pc, #168]	; (8001170 <stm32__device___elabs+0x5b8>)
 80010c8:	f44f 5200 	mov.w	r2, #8192	; 0x2000
 80010cc:	811a      	strh	r2, [r3, #8]
 80010ce:	4a1b      	ldr	r2, [pc, #108]	; (800113c <stm32__device___elabs+0x584>)
 80010d0:	4b27      	ldr	r3, [pc, #156]	; (8001170 <stm32__device___elabs+0x5b8>)
 80010d2:	601a      	str	r2, [r3, #0]
 80010d4:	4b17      	ldr	r3, [pc, #92]	; (8001134 <stm32__device___elabs+0x57c>)
 80010d6:	681b      	ldr	r3, [r3, #0]
 80010d8:	4a26      	ldr	r2, [pc, #152]	; (8001174 <stm32__device___elabs+0x5bc>)
 80010da:	6053      	str	r3, [r2, #4]
 80010dc:	4b25      	ldr	r3, [pc, #148]	; (8001174 <stm32__device___elabs+0x5bc>)
 80010de:	f44f 4280 	mov.w	r2, #16384	; 0x4000
 80010e2:	811a      	strh	r2, [r3, #8]
 80010e4:	4a15      	ldr	r2, [pc, #84]	; (800113c <stm32__device___elabs+0x584>)
 80010e6:	4b23      	ldr	r3, [pc, #140]	; (8001174 <stm32__device___elabs+0x5bc>)
 80010e8:	601a      	str	r2, [r3, #0]
 80010ea:	4b12      	ldr	r3, [pc, #72]	; (8001134 <stm32__device___elabs+0x57c>)
 80010ec:	681b      	ldr	r3, [r3, #0]
 80010ee:	4a22      	ldr	r2, [pc, #136]	; (8001178 <stm32__device___elabs+0x5c0>)
 80010f0:	6053      	str	r3, [r2, #4]
 80010f2:	4b21      	ldr	r3, [pc, #132]	; (8001178 <stm32__device___elabs+0x5c0>)
 80010f4:	f44f 4200 	mov.w	r2, #32768	; 0x8000
 80010f8:	811a      	strh	r2, [r3, #8]
 80010fa:	4a10      	ldr	r2, [pc, #64]	; (800113c <stm32__device___elabs+0x584>)
 80010fc:	4b1e      	ldr	r3, [pc, #120]	; (8001178 <stm32__device___elabs+0x5c0>)
 80010fe:	601a      	str	r2, [r3, #0]
 8001100:	481e      	ldr	r0, [pc, #120]	; (800117c <stm32__device___elabs+0x5c4>)
 8001102:	f7ff fd13 	bl	8000b2c <stm32__device__s_ns_periph>
 8001106:	4603      	mov	r3, r0
 8001108:	60fb      	str	r3, [r7, #12]
 800110a:	4a1d      	ldr	r2, [pc, #116]	; (8001180 <stm32__device___elabs+0x5c8>)
 800110c:	f107 030c 	add.w	r3, r7, #12
 8001110:	6013      	str	r3, [r2, #0]
 8001112:	4b1b      	ldr	r3, [pc, #108]	; (8001180 <stm32__device___elabs+0x5c8>)
 8001114:	681b      	ldr	r3, [r3, #0]
 8001116:	681b      	ldr	r3, [r3, #0]
 8001118:	461a      	mov	r2, r3
 800111a:	4b1a      	ldr	r3, [pc, #104]	; (8001184 <stm32__device___elabs+0x5cc>)
 800111c:	601a      	str	r2, [r3, #0]
 800111e:	4b18      	ldr	r3, [pc, #96]	; (8001180 <stm32__device___elabs+0x5c8>)
 8001120:	681b      	ldr	r3, [r3, #0]
 8001122:	681b      	ldr	r3, [r3, #0]
 8001124:	f003 0303 	and.w	r3, r3, #3
 8001128:	2b00      	cmp	r3, #0
 800112a:	d02f      	beq.n	800118c <stm32__device___elabs+0x5d4>
 800112c:	2154      	movs	r1, #84	; 0x54
 800112e:	4816      	ldr	r0, [pc, #88]	; (8001188 <stm32__device___elabs+0x5d0>)
 8001130:	f007 ffac 	bl	800908c <__gnat_rcheck_PE_Misaligned_Address_Value>
 8001134:	20000624 	.word	0x20000624
 8001138:	20000628 	.word	0x20000628
 800113c:	0800d568 	.word	0x0800d568
 8001140:	20000634 	.word	0x20000634
 8001144:	20000640 	.word	0x20000640
 8001148:	2000064c 	.word	0x2000064c
 800114c:	20000658 	.word	0x20000658
 8001150:	20000664 	.word	0x20000664
 8001154:	20000670 	.word	0x20000670
 8001158:	2000067c 	.word	0x2000067c
 800115c:	20000688 	.word	0x20000688
 8001160:	20000694 	.word	0x20000694
 8001164:	200006a0 	.word	0x200006a0
 8001168:	200006ac 	.word	0x200006ac
 800116c:	200006b8 	.word	0x200006b8
 8001170:	200006c4 	.word	0x200006c4
 8001174:	200006d0 	.word	0x200006d0
 8001178:	200006dc 	.word	0x200006dc
 800117c:	42020c00 	.word	0x42020c00
 8001180:	200006e8 	.word	0x200006e8
 8001184:	200006ec 	.word	0x200006ec
 8001188:	0800d358 	.word	0x0800d358
 800118c:	4b60      	ldr	r3, [pc, #384]	; (8001310 <stm32__device___elabs+0x758>)
 800118e:	681b      	ldr	r3, [r3, #0]
 8001190:	4a60      	ldr	r2, [pc, #384]	; (8001314 <stm32__device___elabs+0x75c>)
 8001192:	6053      	str	r3, [r2, #4]
 8001194:	4b5f      	ldr	r3, [pc, #380]	; (8001314 <stm32__device___elabs+0x75c>)
 8001196:	2201      	movs	r2, #1
 8001198:	811a      	strh	r2, [r3, #8]
 800119a:	4a5f      	ldr	r2, [pc, #380]	; (8001318 <stm32__device___elabs+0x760>)
 800119c:	4b5d      	ldr	r3, [pc, #372]	; (8001314 <stm32__device___elabs+0x75c>)
 800119e:	601a      	str	r2, [r3, #0]
 80011a0:	4b5b      	ldr	r3, [pc, #364]	; (8001310 <stm32__device___elabs+0x758>)
 80011a2:	681b      	ldr	r3, [r3, #0]
 80011a4:	4a5d      	ldr	r2, [pc, #372]	; (800131c <stm32__device___elabs+0x764>)
 80011a6:	6053      	str	r3, [r2, #4]
 80011a8:	4b5c      	ldr	r3, [pc, #368]	; (800131c <stm32__device___elabs+0x764>)
 80011aa:	2202      	movs	r2, #2
 80011ac:	811a      	strh	r2, [r3, #8]
 80011ae:	4a5a      	ldr	r2, [pc, #360]	; (8001318 <stm32__device___elabs+0x760>)
 80011b0:	4b5a      	ldr	r3, [pc, #360]	; (800131c <stm32__device___elabs+0x764>)
 80011b2:	601a      	str	r2, [r3, #0]
 80011b4:	4b56      	ldr	r3, [pc, #344]	; (8001310 <stm32__device___elabs+0x758>)
 80011b6:	681b      	ldr	r3, [r3, #0]
 80011b8:	4a59      	ldr	r2, [pc, #356]	; (8001320 <stm32__device___elabs+0x768>)
 80011ba:	6053      	str	r3, [r2, #4]
 80011bc:	4b58      	ldr	r3, [pc, #352]	; (8001320 <stm32__device___elabs+0x768>)
 80011be:	2204      	movs	r2, #4
 80011c0:	811a      	strh	r2, [r3, #8]
 80011c2:	4a55      	ldr	r2, [pc, #340]	; (8001318 <stm32__device___elabs+0x760>)
 80011c4:	4b56      	ldr	r3, [pc, #344]	; (8001320 <stm32__device___elabs+0x768>)
 80011c6:	601a      	str	r2, [r3, #0]
 80011c8:	4b51      	ldr	r3, [pc, #324]	; (8001310 <stm32__device___elabs+0x758>)
 80011ca:	681b      	ldr	r3, [r3, #0]
 80011cc:	4a55      	ldr	r2, [pc, #340]	; (8001324 <stm32__device___elabs+0x76c>)
 80011ce:	6053      	str	r3, [r2, #4]
 80011d0:	4b54      	ldr	r3, [pc, #336]	; (8001324 <stm32__device___elabs+0x76c>)
 80011d2:	2208      	movs	r2, #8
 80011d4:	811a      	strh	r2, [r3, #8]
 80011d6:	4a50      	ldr	r2, [pc, #320]	; (8001318 <stm32__device___elabs+0x760>)
 80011d8:	4b52      	ldr	r3, [pc, #328]	; (8001324 <stm32__device___elabs+0x76c>)
 80011da:	601a      	str	r2, [r3, #0]
 80011dc:	4b4c      	ldr	r3, [pc, #304]	; (8001310 <stm32__device___elabs+0x758>)
 80011de:	681b      	ldr	r3, [r3, #0]
 80011e0:	4a51      	ldr	r2, [pc, #324]	; (8001328 <stm32__device___elabs+0x770>)
 80011e2:	6053      	str	r3, [r2, #4]
 80011e4:	4b50      	ldr	r3, [pc, #320]	; (8001328 <stm32__device___elabs+0x770>)
 80011e6:	2210      	movs	r2, #16
 80011e8:	811a      	strh	r2, [r3, #8]
 80011ea:	4a4b      	ldr	r2, [pc, #300]	; (8001318 <stm32__device___elabs+0x760>)
 80011ec:	4b4e      	ldr	r3, [pc, #312]	; (8001328 <stm32__device___elabs+0x770>)
 80011ee:	601a      	str	r2, [r3, #0]
 80011f0:	4b47      	ldr	r3, [pc, #284]	; (8001310 <stm32__device___elabs+0x758>)
 80011f2:	681b      	ldr	r3, [r3, #0]
 80011f4:	4a4d      	ldr	r2, [pc, #308]	; (800132c <stm32__device___elabs+0x774>)
 80011f6:	6053      	str	r3, [r2, #4]
 80011f8:	4b4c      	ldr	r3, [pc, #304]	; (800132c <stm32__device___elabs+0x774>)
 80011fa:	2220      	movs	r2, #32
 80011fc:	811a      	strh	r2, [r3, #8]
 80011fe:	4a46      	ldr	r2, [pc, #280]	; (8001318 <stm32__device___elabs+0x760>)
 8001200:	4b4a      	ldr	r3, [pc, #296]	; (800132c <stm32__device___elabs+0x774>)
 8001202:	601a      	str	r2, [r3, #0]
 8001204:	4b42      	ldr	r3, [pc, #264]	; (8001310 <stm32__device___elabs+0x758>)
 8001206:	681b      	ldr	r3, [r3, #0]
 8001208:	4a49      	ldr	r2, [pc, #292]	; (8001330 <stm32__device___elabs+0x778>)
 800120a:	6053      	str	r3, [r2, #4]
 800120c:	4b48      	ldr	r3, [pc, #288]	; (8001330 <stm32__device___elabs+0x778>)
 800120e:	2240      	movs	r2, #64	; 0x40
 8001210:	811a      	strh	r2, [r3, #8]
 8001212:	4a41      	ldr	r2, [pc, #260]	; (8001318 <stm32__device___elabs+0x760>)
 8001214:	4b46      	ldr	r3, [pc, #280]	; (8001330 <stm32__device___elabs+0x778>)
 8001216:	601a      	str	r2, [r3, #0]
 8001218:	4b3d      	ldr	r3, [pc, #244]	; (8001310 <stm32__device___elabs+0x758>)
 800121a:	681b      	ldr	r3, [r3, #0]
 800121c:	4a45      	ldr	r2, [pc, #276]	; (8001334 <stm32__device___elabs+0x77c>)
 800121e:	6053      	str	r3, [r2, #4]
 8001220:	4b44      	ldr	r3, [pc, #272]	; (8001334 <stm32__device___elabs+0x77c>)
 8001222:	2280      	movs	r2, #128	; 0x80
 8001224:	811a      	strh	r2, [r3, #8]
 8001226:	4a3c      	ldr	r2, [pc, #240]	; (8001318 <stm32__device___elabs+0x760>)
 8001228:	4b42      	ldr	r3, [pc, #264]	; (8001334 <stm32__device___elabs+0x77c>)
 800122a:	601a      	str	r2, [r3, #0]
 800122c:	4b38      	ldr	r3, [pc, #224]	; (8001310 <stm32__device___elabs+0x758>)
 800122e:	681b      	ldr	r3, [r3, #0]
 8001230:	4a41      	ldr	r2, [pc, #260]	; (8001338 <stm32__device___elabs+0x780>)
 8001232:	6053      	str	r3, [r2, #4]
 8001234:	4b40      	ldr	r3, [pc, #256]	; (8001338 <stm32__device___elabs+0x780>)
 8001236:	f44f 7280 	mov.w	r2, #256	; 0x100
 800123a:	811a      	strh	r2, [r3, #8]
 800123c:	4a36      	ldr	r2, [pc, #216]	; (8001318 <stm32__device___elabs+0x760>)
 800123e:	4b3e      	ldr	r3, [pc, #248]	; (8001338 <stm32__device___elabs+0x780>)
 8001240:	601a      	str	r2, [r3, #0]
 8001242:	4b33      	ldr	r3, [pc, #204]	; (8001310 <stm32__device___elabs+0x758>)
 8001244:	681b      	ldr	r3, [r3, #0]
 8001246:	4a3d      	ldr	r2, [pc, #244]	; (800133c <stm32__device___elabs+0x784>)
 8001248:	6053      	str	r3, [r2, #4]
 800124a:	4b3c      	ldr	r3, [pc, #240]	; (800133c <stm32__device___elabs+0x784>)
 800124c:	f44f 7200 	mov.w	r2, #512	; 0x200
 8001250:	811a      	strh	r2, [r3, #8]
 8001252:	4a31      	ldr	r2, [pc, #196]	; (8001318 <stm32__device___elabs+0x760>)
 8001254:	4b39      	ldr	r3, [pc, #228]	; (800133c <stm32__device___elabs+0x784>)
 8001256:	601a      	str	r2, [r3, #0]
 8001258:	4b2d      	ldr	r3, [pc, #180]	; (8001310 <stm32__device___elabs+0x758>)
 800125a:	681b      	ldr	r3, [r3, #0]
 800125c:	4a38      	ldr	r2, [pc, #224]	; (8001340 <stm32__device___elabs+0x788>)
 800125e:	6053      	str	r3, [r2, #4]
 8001260:	4b37      	ldr	r3, [pc, #220]	; (8001340 <stm32__device___elabs+0x788>)
 8001262:	f44f 6280 	mov.w	r2, #1024	; 0x400
 8001266:	811a      	strh	r2, [r3, #8]
 8001268:	4a2b      	ldr	r2, [pc, #172]	; (8001318 <stm32__device___elabs+0x760>)
 800126a:	4b35      	ldr	r3, [pc, #212]	; (8001340 <stm32__device___elabs+0x788>)
 800126c:	601a      	str	r2, [r3, #0]
 800126e:	4b28      	ldr	r3, [pc, #160]	; (8001310 <stm32__device___elabs+0x758>)
 8001270:	681b      	ldr	r3, [r3, #0]
 8001272:	4a34      	ldr	r2, [pc, #208]	; (8001344 <stm32__device___elabs+0x78c>)
 8001274:	6053      	str	r3, [r2, #4]
 8001276:	4b33      	ldr	r3, [pc, #204]	; (8001344 <stm32__device___elabs+0x78c>)
 8001278:	f44f 6200 	mov.w	r2, #2048	; 0x800
 800127c:	811a      	strh	r2, [r3, #8]
 800127e:	4a26      	ldr	r2, [pc, #152]	; (8001318 <stm32__device___elabs+0x760>)
 8001280:	4b30      	ldr	r3, [pc, #192]	; (8001344 <stm32__device___elabs+0x78c>)
 8001282:	601a      	str	r2, [r3, #0]
 8001284:	4b22      	ldr	r3, [pc, #136]	; (8001310 <stm32__device___elabs+0x758>)
 8001286:	681b      	ldr	r3, [r3, #0]
 8001288:	4a2f      	ldr	r2, [pc, #188]	; (8001348 <stm32__device___elabs+0x790>)
 800128a:	6053      	str	r3, [r2, #4]
 800128c:	4b2e      	ldr	r3, [pc, #184]	; (8001348 <stm32__device___elabs+0x790>)
 800128e:	f44f 5280 	mov.w	r2, #4096	; 0x1000
 8001292:	811a      	strh	r2, [r3, #8]
 8001294:	4a20      	ldr	r2, [pc, #128]	; (8001318 <stm32__device___elabs+0x760>)
 8001296:	4b2c      	ldr	r3, [pc, #176]	; (8001348 <stm32__device___elabs+0x790>)
 8001298:	601a      	str	r2, [r3, #0]
 800129a:	4b1d      	ldr	r3, [pc, #116]	; (8001310 <stm32__device___elabs+0x758>)
 800129c:	681b      	ldr	r3, [r3, #0]
 800129e:	4a2b      	ldr	r2, [pc, #172]	; (800134c <stm32__device___elabs+0x794>)
 80012a0:	6053      	str	r3, [r2, #4]
 80012a2:	4b2a      	ldr	r3, [pc, #168]	; (800134c <stm32__device___elabs+0x794>)
 80012a4:	f44f 5200 	mov.w	r2, #8192	; 0x2000
 80012a8:	811a      	strh	r2, [r3, #8]
 80012aa:	4a1b      	ldr	r2, [pc, #108]	; (8001318 <stm32__device___elabs+0x760>)
 80012ac:	4b27      	ldr	r3, [pc, #156]	; (800134c <stm32__device___elabs+0x794>)
 80012ae:	601a      	str	r2, [r3, #0]
 80012b0:	4b17      	ldr	r3, [pc, #92]	; (8001310 <stm32__device___elabs+0x758>)
 80012b2:	681b      	ldr	r3, [r3, #0]
 80012b4:	4a26      	ldr	r2, [pc, #152]	; (8001350 <stm32__device___elabs+0x798>)
 80012b6:	6053      	str	r3, [r2, #4]
 80012b8:	4b25      	ldr	r3, [pc, #148]	; (8001350 <stm32__device___elabs+0x798>)
 80012ba:	f44f 4280 	mov.w	r2, #16384	; 0x4000
 80012be:	811a      	strh	r2, [r3, #8]
 80012c0:	4a15      	ldr	r2, [pc, #84]	; (8001318 <stm32__device___elabs+0x760>)
 80012c2:	4b23      	ldr	r3, [pc, #140]	; (8001350 <stm32__device___elabs+0x798>)
 80012c4:	601a      	str	r2, [r3, #0]
 80012c6:	4b12      	ldr	r3, [pc, #72]	; (8001310 <stm32__device___elabs+0x758>)
 80012c8:	681b      	ldr	r3, [r3, #0]
 80012ca:	4a22      	ldr	r2, [pc, #136]	; (8001354 <stm32__device___elabs+0x79c>)
 80012cc:	6053      	str	r3, [r2, #4]
 80012ce:	4b21      	ldr	r3, [pc, #132]	; (8001354 <stm32__device___elabs+0x79c>)
 80012d0:	f44f 4200 	mov.w	r2, #32768	; 0x8000
 80012d4:	811a      	strh	r2, [r3, #8]
 80012d6:	4a10      	ldr	r2, [pc, #64]	; (8001318 <stm32__device___elabs+0x760>)
 80012d8:	4b1e      	ldr	r3, [pc, #120]	; (8001354 <stm32__device___elabs+0x79c>)
 80012da:	601a      	str	r2, [r3, #0]
 80012dc:	481e      	ldr	r0, [pc, #120]	; (8001358 <stm32__device___elabs+0x7a0>)
 80012de:	f7ff fc25 	bl	8000b2c <stm32__device__s_ns_periph>
 80012e2:	4603      	mov	r3, r0
 80012e4:	613b      	str	r3, [r7, #16]
 80012e6:	4a1d      	ldr	r2, [pc, #116]	; (800135c <stm32__device___elabs+0x7a4>)
 80012e8:	f107 0310 	add.w	r3, r7, #16
 80012ec:	6013      	str	r3, [r2, #0]
 80012ee:	4b1b      	ldr	r3, [pc, #108]	; (800135c <stm32__device___elabs+0x7a4>)
 80012f0:	681b      	ldr	r3, [r3, #0]
 80012f2:	681b      	ldr	r3, [r3, #0]
 80012f4:	461a      	mov	r2, r3
 80012f6:	4b1a      	ldr	r3, [pc, #104]	; (8001360 <stm32__device___elabs+0x7a8>)
 80012f8:	601a      	str	r2, [r3, #0]
 80012fa:	4b18      	ldr	r3, [pc, #96]	; (800135c <stm32__device___elabs+0x7a4>)
 80012fc:	681b      	ldr	r3, [r3, #0]
 80012fe:	681b      	ldr	r3, [r3, #0]
 8001300:	f003 0303 	and.w	r3, r3, #3
 8001304:	2b00      	cmp	r3, #0
 8001306:	d02f      	beq.n	8001368 <stm32__device___elabs+0x7b0>
 8001308:	2155      	movs	r1, #85	; 0x55
 800130a:	4816      	ldr	r0, [pc, #88]	; (8001364 <stm32__device___elabs+0x7ac>)
 800130c:	f007 febe 	bl	800908c <__gnat_rcheck_PE_Misaligned_Address_Value>
 8001310:	200006ec 	.word	0x200006ec
 8001314:	200006f0 	.word	0x200006f0
 8001318:	0800d568 	.word	0x0800d568
 800131c:	200006fc 	.word	0x200006fc
 8001320:	20000708 	.word	0x20000708
 8001324:	20000714 	.word	0x20000714
 8001328:	20000720 	.word	0x20000720
 800132c:	2000072c 	.word	0x2000072c
 8001330:	20000738 	.word	0x20000738
 8001334:	20000744 	.word	0x20000744
 8001338:	20000750 	.word	0x20000750
 800133c:	2000075c 	.word	0x2000075c
 8001340:	20000768 	.word	0x20000768
 8001344:	20000774 	.word	0x20000774
 8001348:	20000780 	.word	0x20000780
 800134c:	2000078c 	.word	0x2000078c
 8001350:	20000798 	.word	0x20000798
 8001354:	200007a4 	.word	0x200007a4
 8001358:	42021000 	.word	0x42021000
 800135c:	200007b0 	.word	0x200007b0
 8001360:	200007b4 	.word	0x200007b4
 8001364:	0800d358 	.word	0x0800d358
 8001368:	4b60      	ldr	r3, [pc, #384]	; (80014ec <stm32__device___elabs+0x934>)
 800136a:	681b      	ldr	r3, [r3, #0]
 800136c:	4a60      	ldr	r2, [pc, #384]	; (80014f0 <stm32__device___elabs+0x938>)
 800136e:	6053      	str	r3, [r2, #4]
 8001370:	4b5f      	ldr	r3, [pc, #380]	; (80014f0 <stm32__device___elabs+0x938>)
 8001372:	2201      	movs	r2, #1
 8001374:	811a      	strh	r2, [r3, #8]
 8001376:	4a5f      	ldr	r2, [pc, #380]	; (80014f4 <stm32__device___elabs+0x93c>)
 8001378:	4b5d      	ldr	r3, [pc, #372]	; (80014f0 <stm32__device___elabs+0x938>)
 800137a:	601a      	str	r2, [r3, #0]
 800137c:	4b5b      	ldr	r3, [pc, #364]	; (80014ec <stm32__device___elabs+0x934>)
 800137e:	681b      	ldr	r3, [r3, #0]
 8001380:	4a5d      	ldr	r2, [pc, #372]	; (80014f8 <stm32__device___elabs+0x940>)
 8001382:	6053      	str	r3, [r2, #4]
 8001384:	4b5c      	ldr	r3, [pc, #368]	; (80014f8 <stm32__device___elabs+0x940>)
 8001386:	2202      	movs	r2, #2
 8001388:	811a      	strh	r2, [r3, #8]
 800138a:	4a5a      	ldr	r2, [pc, #360]	; (80014f4 <stm32__device___elabs+0x93c>)
 800138c:	4b5a      	ldr	r3, [pc, #360]	; (80014f8 <stm32__device___elabs+0x940>)
 800138e:	601a      	str	r2, [r3, #0]
 8001390:	4b56      	ldr	r3, [pc, #344]	; (80014ec <stm32__device___elabs+0x934>)
 8001392:	681b      	ldr	r3, [r3, #0]
 8001394:	4a59      	ldr	r2, [pc, #356]	; (80014fc <stm32__device___elabs+0x944>)
 8001396:	6053      	str	r3, [r2, #4]
 8001398:	4b58      	ldr	r3, [pc, #352]	; (80014fc <stm32__device___elabs+0x944>)
 800139a:	2204      	movs	r2, #4
 800139c:	811a      	strh	r2, [r3, #8]
 800139e:	4a55      	ldr	r2, [pc, #340]	; (80014f4 <stm32__device___elabs+0x93c>)
 80013a0:	4b56      	ldr	r3, [pc, #344]	; (80014fc <stm32__device___elabs+0x944>)
 80013a2:	601a      	str	r2, [r3, #0]
 80013a4:	4b51      	ldr	r3, [pc, #324]	; (80014ec <stm32__device___elabs+0x934>)
 80013a6:	681b      	ldr	r3, [r3, #0]
 80013a8:	4a55      	ldr	r2, [pc, #340]	; (8001500 <stm32__device___elabs+0x948>)
 80013aa:	6053      	str	r3, [r2, #4]
 80013ac:	4b54      	ldr	r3, [pc, #336]	; (8001500 <stm32__device___elabs+0x948>)
 80013ae:	2208      	movs	r2, #8
 80013b0:	811a      	strh	r2, [r3, #8]
 80013b2:	4a50      	ldr	r2, [pc, #320]	; (80014f4 <stm32__device___elabs+0x93c>)
 80013b4:	4b52      	ldr	r3, [pc, #328]	; (8001500 <stm32__device___elabs+0x948>)
 80013b6:	601a      	str	r2, [r3, #0]
 80013b8:	4b4c      	ldr	r3, [pc, #304]	; (80014ec <stm32__device___elabs+0x934>)
 80013ba:	681b      	ldr	r3, [r3, #0]
 80013bc:	4a51      	ldr	r2, [pc, #324]	; (8001504 <stm32__device___elabs+0x94c>)
 80013be:	6053      	str	r3, [r2, #4]
 80013c0:	4b50      	ldr	r3, [pc, #320]	; (8001504 <stm32__device___elabs+0x94c>)
 80013c2:	2210      	movs	r2, #16
 80013c4:	811a      	strh	r2, [r3, #8]
 80013c6:	4a4b      	ldr	r2, [pc, #300]	; (80014f4 <stm32__device___elabs+0x93c>)
 80013c8:	4b4e      	ldr	r3, [pc, #312]	; (8001504 <stm32__device___elabs+0x94c>)
 80013ca:	601a      	str	r2, [r3, #0]
 80013cc:	4b47      	ldr	r3, [pc, #284]	; (80014ec <stm32__device___elabs+0x934>)
 80013ce:	681b      	ldr	r3, [r3, #0]
 80013d0:	4a4d      	ldr	r2, [pc, #308]	; (8001508 <stm32__device___elabs+0x950>)
 80013d2:	6053      	str	r3, [r2, #4]
 80013d4:	4b4c      	ldr	r3, [pc, #304]	; (8001508 <stm32__device___elabs+0x950>)
 80013d6:	2220      	movs	r2, #32
 80013d8:	811a      	strh	r2, [r3, #8]
 80013da:	4a46      	ldr	r2, [pc, #280]	; (80014f4 <stm32__device___elabs+0x93c>)
 80013dc:	4b4a      	ldr	r3, [pc, #296]	; (8001508 <stm32__device___elabs+0x950>)
 80013de:	601a      	str	r2, [r3, #0]
 80013e0:	4b42      	ldr	r3, [pc, #264]	; (80014ec <stm32__device___elabs+0x934>)
 80013e2:	681b      	ldr	r3, [r3, #0]
 80013e4:	4a49      	ldr	r2, [pc, #292]	; (800150c <stm32__device___elabs+0x954>)
 80013e6:	6053      	str	r3, [r2, #4]
 80013e8:	4b48      	ldr	r3, [pc, #288]	; (800150c <stm32__device___elabs+0x954>)
 80013ea:	2240      	movs	r2, #64	; 0x40
 80013ec:	811a      	strh	r2, [r3, #8]
 80013ee:	4a41      	ldr	r2, [pc, #260]	; (80014f4 <stm32__device___elabs+0x93c>)
 80013f0:	4b46      	ldr	r3, [pc, #280]	; (800150c <stm32__device___elabs+0x954>)
 80013f2:	601a      	str	r2, [r3, #0]
 80013f4:	4b3d      	ldr	r3, [pc, #244]	; (80014ec <stm32__device___elabs+0x934>)
 80013f6:	681b      	ldr	r3, [r3, #0]
 80013f8:	4a45      	ldr	r2, [pc, #276]	; (8001510 <stm32__device___elabs+0x958>)
 80013fa:	6053      	str	r3, [r2, #4]
 80013fc:	4b44      	ldr	r3, [pc, #272]	; (8001510 <stm32__device___elabs+0x958>)
 80013fe:	2280      	movs	r2, #128	; 0x80
 8001400:	811a      	strh	r2, [r3, #8]
 8001402:	4a3c      	ldr	r2, [pc, #240]	; (80014f4 <stm32__device___elabs+0x93c>)
 8001404:	4b42      	ldr	r3, [pc, #264]	; (8001510 <stm32__device___elabs+0x958>)
 8001406:	601a      	str	r2, [r3, #0]
 8001408:	4b38      	ldr	r3, [pc, #224]	; (80014ec <stm32__device___elabs+0x934>)
 800140a:	681b      	ldr	r3, [r3, #0]
 800140c:	4a41      	ldr	r2, [pc, #260]	; (8001514 <stm32__device___elabs+0x95c>)
 800140e:	6053      	str	r3, [r2, #4]
 8001410:	4b40      	ldr	r3, [pc, #256]	; (8001514 <stm32__device___elabs+0x95c>)
 8001412:	f44f 7280 	mov.w	r2, #256	; 0x100
 8001416:	811a      	strh	r2, [r3, #8]
 8001418:	4a36      	ldr	r2, [pc, #216]	; (80014f4 <stm32__device___elabs+0x93c>)
 800141a:	4b3e      	ldr	r3, [pc, #248]	; (8001514 <stm32__device___elabs+0x95c>)
 800141c:	601a      	str	r2, [r3, #0]
 800141e:	4b33      	ldr	r3, [pc, #204]	; (80014ec <stm32__device___elabs+0x934>)
 8001420:	681b      	ldr	r3, [r3, #0]
 8001422:	4a3d      	ldr	r2, [pc, #244]	; (8001518 <stm32__device___elabs+0x960>)
 8001424:	6053      	str	r3, [r2, #4]
 8001426:	4b3c      	ldr	r3, [pc, #240]	; (8001518 <stm32__device___elabs+0x960>)
 8001428:	f44f 7200 	mov.w	r2, #512	; 0x200
 800142c:	811a      	strh	r2, [r3, #8]
 800142e:	4a31      	ldr	r2, [pc, #196]	; (80014f4 <stm32__device___elabs+0x93c>)
 8001430:	4b39      	ldr	r3, [pc, #228]	; (8001518 <stm32__device___elabs+0x960>)
 8001432:	601a      	str	r2, [r3, #0]
 8001434:	4b2d      	ldr	r3, [pc, #180]	; (80014ec <stm32__device___elabs+0x934>)
 8001436:	681b      	ldr	r3, [r3, #0]
 8001438:	4a38      	ldr	r2, [pc, #224]	; (800151c <stm32__device___elabs+0x964>)
 800143a:	6053      	str	r3, [r2, #4]
 800143c:	4b37      	ldr	r3, [pc, #220]	; (800151c <stm32__device___elabs+0x964>)
 800143e:	f44f 6280 	mov.w	r2, #1024	; 0x400
 8001442:	811a      	strh	r2, [r3, #8]
 8001444:	4a2b      	ldr	r2, [pc, #172]	; (80014f4 <stm32__device___elabs+0x93c>)
 8001446:	4b35      	ldr	r3, [pc, #212]	; (800151c <stm32__device___elabs+0x964>)
 8001448:	601a      	str	r2, [r3, #0]
 800144a:	4b28      	ldr	r3, [pc, #160]	; (80014ec <stm32__device___elabs+0x934>)
 800144c:	681b      	ldr	r3, [r3, #0]
 800144e:	4a34      	ldr	r2, [pc, #208]	; (8001520 <stm32__device___elabs+0x968>)
 8001450:	6053      	str	r3, [r2, #4]
 8001452:	4b33      	ldr	r3, [pc, #204]	; (8001520 <stm32__device___elabs+0x968>)
 8001454:	f44f 6200 	mov.w	r2, #2048	; 0x800
 8001458:	811a      	strh	r2, [r3, #8]
 800145a:	4a26      	ldr	r2, [pc, #152]	; (80014f4 <stm32__device___elabs+0x93c>)
 800145c:	4b30      	ldr	r3, [pc, #192]	; (8001520 <stm32__device___elabs+0x968>)
 800145e:	601a      	str	r2, [r3, #0]
 8001460:	4b22      	ldr	r3, [pc, #136]	; (80014ec <stm32__device___elabs+0x934>)
 8001462:	681b      	ldr	r3, [r3, #0]
 8001464:	4a2f      	ldr	r2, [pc, #188]	; (8001524 <stm32__device___elabs+0x96c>)
 8001466:	6053      	str	r3, [r2, #4]
 8001468:	4b2e      	ldr	r3, [pc, #184]	; (8001524 <stm32__device___elabs+0x96c>)
 800146a:	f44f 5280 	mov.w	r2, #4096	; 0x1000
 800146e:	811a      	strh	r2, [r3, #8]
 8001470:	4a20      	ldr	r2, [pc, #128]	; (80014f4 <stm32__device___elabs+0x93c>)
 8001472:	4b2c      	ldr	r3, [pc, #176]	; (8001524 <stm32__device___elabs+0x96c>)
 8001474:	601a      	str	r2, [r3, #0]
 8001476:	4b1d      	ldr	r3, [pc, #116]	; (80014ec <stm32__device___elabs+0x934>)
 8001478:	681b      	ldr	r3, [r3, #0]
 800147a:	4a2b      	ldr	r2, [pc, #172]	; (8001528 <stm32__device___elabs+0x970>)
 800147c:	6053      	str	r3, [r2, #4]
 800147e:	4b2a      	ldr	r3, [pc, #168]	; (8001528 <stm32__device___elabs+0x970>)
 8001480:	f44f 5200 	mov.w	r2, #8192	; 0x2000
 8001484:	811a      	strh	r2, [r3, #8]
 8001486:	4a1b      	ldr	r2, [pc, #108]	; (80014f4 <stm32__device___elabs+0x93c>)
 8001488:	4b27      	ldr	r3, [pc, #156]	; (8001528 <stm32__device___elabs+0x970>)
 800148a:	601a      	str	r2, [r3, #0]
 800148c:	4b17      	ldr	r3, [pc, #92]	; (80014ec <stm32__device___elabs+0x934>)
 800148e:	681b      	ldr	r3, [r3, #0]
 8001490:	4a26      	ldr	r2, [pc, #152]	; (800152c <stm32__device___elabs+0x974>)
 8001492:	6053      	str	r3, [r2, #4]
 8001494:	4b25      	ldr	r3, [pc, #148]	; (800152c <stm32__device___elabs+0x974>)
 8001496:	f44f 4280 	mov.w	r2, #16384	; 0x4000
 800149a:	811a      	strh	r2, [r3, #8]
 800149c:	4a15      	ldr	r2, [pc, #84]	; (80014f4 <stm32__device___elabs+0x93c>)
 800149e:	4b23      	ldr	r3, [pc, #140]	; (800152c <stm32__device___elabs+0x974>)
 80014a0:	601a      	str	r2, [r3, #0]
 80014a2:	4b12      	ldr	r3, [pc, #72]	; (80014ec <stm32__device___elabs+0x934>)
 80014a4:	681b      	ldr	r3, [r3, #0]
 80014a6:	4a22      	ldr	r2, [pc, #136]	; (8001530 <stm32__device___elabs+0x978>)
 80014a8:	6053      	str	r3, [r2, #4]
 80014aa:	4b21      	ldr	r3, [pc, #132]	; (8001530 <stm32__device___elabs+0x978>)
 80014ac:	f44f 4200 	mov.w	r2, #32768	; 0x8000
 80014b0:	811a      	strh	r2, [r3, #8]
 80014b2:	4a10      	ldr	r2, [pc, #64]	; (80014f4 <stm32__device___elabs+0x93c>)
 80014b4:	4b1e      	ldr	r3, [pc, #120]	; (8001530 <stm32__device___elabs+0x978>)
 80014b6:	601a      	str	r2, [r3, #0]
 80014b8:	481e      	ldr	r0, [pc, #120]	; (8001534 <stm32__device___elabs+0x97c>)
 80014ba:	f7ff fb37 	bl	8000b2c <stm32__device__s_ns_periph>
 80014be:	4603      	mov	r3, r0
 80014c0:	617b      	str	r3, [r7, #20]
 80014c2:	4a1d      	ldr	r2, [pc, #116]	; (8001538 <stm32__device___elabs+0x980>)
 80014c4:	f107 0314 	add.w	r3, r7, #20
 80014c8:	6013      	str	r3, [r2, #0]
 80014ca:	4b1b      	ldr	r3, [pc, #108]	; (8001538 <stm32__device___elabs+0x980>)
 80014cc:	681b      	ldr	r3, [r3, #0]
 80014ce:	681b      	ldr	r3, [r3, #0]
 80014d0:	461a      	mov	r2, r3
 80014d2:	4b1a      	ldr	r3, [pc, #104]	; (800153c <stm32__device___elabs+0x984>)
 80014d4:	601a      	str	r2, [r3, #0]
 80014d6:	4b18      	ldr	r3, [pc, #96]	; (8001538 <stm32__device___elabs+0x980>)
 80014d8:	681b      	ldr	r3, [r3, #0]
 80014da:	681b      	ldr	r3, [r3, #0]
 80014dc:	f003 0303 	and.w	r3, r3, #3
 80014e0:	2b00      	cmp	r3, #0
 80014e2:	d02f      	beq.n	8001544 <stm32__device___elabs+0x98c>
 80014e4:	2156      	movs	r1, #86	; 0x56
 80014e6:	4816      	ldr	r0, [pc, #88]	; (8001540 <stm32__device___elabs+0x988>)
 80014e8:	f007 fdd0 	bl	800908c <__gnat_rcheck_PE_Misaligned_Address_Value>
 80014ec:	200007b4 	.word	0x200007b4
 80014f0:	200007b8 	.word	0x200007b8
 80014f4:	0800d568 	.word	0x0800d568
 80014f8:	200007c4 	.word	0x200007c4
 80014fc:	200007d0 	.word	0x200007d0
 8001500:	200007dc 	.word	0x200007dc
 8001504:	200007e8 	.word	0x200007e8
 8001508:	200007f4 	.word	0x200007f4
 800150c:	20000800 	.word	0x20000800
 8001510:	2000080c 	.word	0x2000080c
 8001514:	20000818 	.word	0x20000818
 8001518:	20000824 	.word	0x20000824
 800151c:	20000830 	.word	0x20000830
 8001520:	2000083c 	.word	0x2000083c
 8001524:	20000848 	.word	0x20000848
 8001528:	20000854 	.word	0x20000854
 800152c:	20000860 	.word	0x20000860
 8001530:	2000086c 	.word	0x2000086c
 8001534:	42021400 	.word	0x42021400
 8001538:	20000878 	.word	0x20000878
 800153c:	2000087c 	.word	0x2000087c
 8001540:	0800d358 	.word	0x0800d358
 8001544:	4b60      	ldr	r3, [pc, #384]	; (80016c8 <stm32__device___elabs+0xb10>)
 8001546:	681b      	ldr	r3, [r3, #0]
 8001548:	4a60      	ldr	r2, [pc, #384]	; (80016cc <stm32__device___elabs+0xb14>)
 800154a:	6053      	str	r3, [r2, #4]
 800154c:	4b5f      	ldr	r3, [pc, #380]	; (80016cc <stm32__device___elabs+0xb14>)
 800154e:	2201      	movs	r2, #1
 8001550:	811a      	strh	r2, [r3, #8]
 8001552:	4a5f      	ldr	r2, [pc, #380]	; (80016d0 <stm32__device___elabs+0xb18>)
 8001554:	4b5d      	ldr	r3, [pc, #372]	; (80016cc <stm32__device___elabs+0xb14>)
 8001556:	601a      	str	r2, [r3, #0]
 8001558:	4b5b      	ldr	r3, [pc, #364]	; (80016c8 <stm32__device___elabs+0xb10>)
 800155a:	681b      	ldr	r3, [r3, #0]
 800155c:	4a5d      	ldr	r2, [pc, #372]	; (80016d4 <stm32__device___elabs+0xb1c>)
 800155e:	6053      	str	r3, [r2, #4]
 8001560:	4b5c      	ldr	r3, [pc, #368]	; (80016d4 <stm32__device___elabs+0xb1c>)
 8001562:	2202      	movs	r2, #2
 8001564:	811a      	strh	r2, [r3, #8]
 8001566:	4a5a      	ldr	r2, [pc, #360]	; (80016d0 <stm32__device___elabs+0xb18>)
 8001568:	4b5a      	ldr	r3, [pc, #360]	; (80016d4 <stm32__device___elabs+0xb1c>)
 800156a:	601a      	str	r2, [r3, #0]
 800156c:	4b56      	ldr	r3, [pc, #344]	; (80016c8 <stm32__device___elabs+0xb10>)
 800156e:	681b      	ldr	r3, [r3, #0]
 8001570:	4a59      	ldr	r2, [pc, #356]	; (80016d8 <stm32__device___elabs+0xb20>)
 8001572:	6053      	str	r3, [r2, #4]
 8001574:	4b58      	ldr	r3, [pc, #352]	; (80016d8 <stm32__device___elabs+0xb20>)
 8001576:	2204      	movs	r2, #4
 8001578:	811a      	strh	r2, [r3, #8]
 800157a:	4a55      	ldr	r2, [pc, #340]	; (80016d0 <stm32__device___elabs+0xb18>)
 800157c:	4b56      	ldr	r3, [pc, #344]	; (80016d8 <stm32__device___elabs+0xb20>)
 800157e:	601a      	str	r2, [r3, #0]
 8001580:	4b51      	ldr	r3, [pc, #324]	; (80016c8 <stm32__device___elabs+0xb10>)
 8001582:	681b      	ldr	r3, [r3, #0]
 8001584:	4a55      	ldr	r2, [pc, #340]	; (80016dc <stm32__device___elabs+0xb24>)
 8001586:	6053      	str	r3, [r2, #4]
 8001588:	4b54      	ldr	r3, [pc, #336]	; (80016dc <stm32__device___elabs+0xb24>)
 800158a:	2208      	movs	r2, #8
 800158c:	811a      	strh	r2, [r3, #8]
 800158e:	4a50      	ldr	r2, [pc, #320]	; (80016d0 <stm32__device___elabs+0xb18>)
 8001590:	4b52      	ldr	r3, [pc, #328]	; (80016dc <stm32__device___elabs+0xb24>)
 8001592:	601a      	str	r2, [r3, #0]
 8001594:	4b4c      	ldr	r3, [pc, #304]	; (80016c8 <stm32__device___elabs+0xb10>)
 8001596:	681b      	ldr	r3, [r3, #0]
 8001598:	4a51      	ldr	r2, [pc, #324]	; (80016e0 <stm32__device___elabs+0xb28>)
 800159a:	6053      	str	r3, [r2, #4]
 800159c:	4b50      	ldr	r3, [pc, #320]	; (80016e0 <stm32__device___elabs+0xb28>)
 800159e:	2210      	movs	r2, #16
 80015a0:	811a      	strh	r2, [r3, #8]
 80015a2:	4a4b      	ldr	r2, [pc, #300]	; (80016d0 <stm32__device___elabs+0xb18>)
 80015a4:	4b4e      	ldr	r3, [pc, #312]	; (80016e0 <stm32__device___elabs+0xb28>)
 80015a6:	601a      	str	r2, [r3, #0]
 80015a8:	4b47      	ldr	r3, [pc, #284]	; (80016c8 <stm32__device___elabs+0xb10>)
 80015aa:	681b      	ldr	r3, [r3, #0]
 80015ac:	4a4d      	ldr	r2, [pc, #308]	; (80016e4 <stm32__device___elabs+0xb2c>)
 80015ae:	6053      	str	r3, [r2, #4]
 80015b0:	4b4c      	ldr	r3, [pc, #304]	; (80016e4 <stm32__device___elabs+0xb2c>)
 80015b2:	2220      	movs	r2, #32
 80015b4:	811a      	strh	r2, [r3, #8]
 80015b6:	4a46      	ldr	r2, [pc, #280]	; (80016d0 <stm32__device___elabs+0xb18>)
 80015b8:	4b4a      	ldr	r3, [pc, #296]	; (80016e4 <stm32__device___elabs+0xb2c>)
 80015ba:	601a      	str	r2, [r3, #0]
 80015bc:	4b42      	ldr	r3, [pc, #264]	; (80016c8 <stm32__device___elabs+0xb10>)
 80015be:	681b      	ldr	r3, [r3, #0]
 80015c0:	4a49      	ldr	r2, [pc, #292]	; (80016e8 <stm32__device___elabs+0xb30>)
 80015c2:	6053      	str	r3, [r2, #4]
 80015c4:	4b48      	ldr	r3, [pc, #288]	; (80016e8 <stm32__device___elabs+0xb30>)
 80015c6:	2240      	movs	r2, #64	; 0x40
 80015c8:	811a      	strh	r2, [r3, #8]
 80015ca:	4a41      	ldr	r2, [pc, #260]	; (80016d0 <stm32__device___elabs+0xb18>)
 80015cc:	4b46      	ldr	r3, [pc, #280]	; (80016e8 <stm32__device___elabs+0xb30>)
 80015ce:	601a      	str	r2, [r3, #0]
 80015d0:	4b3d      	ldr	r3, [pc, #244]	; (80016c8 <stm32__device___elabs+0xb10>)
 80015d2:	681b      	ldr	r3, [r3, #0]
 80015d4:	4a45      	ldr	r2, [pc, #276]	; (80016ec <stm32__device___elabs+0xb34>)
 80015d6:	6053      	str	r3, [r2, #4]
 80015d8:	4b44      	ldr	r3, [pc, #272]	; (80016ec <stm32__device___elabs+0xb34>)
 80015da:	2280      	movs	r2, #128	; 0x80
 80015dc:	811a      	strh	r2, [r3, #8]
 80015de:	4a3c      	ldr	r2, [pc, #240]	; (80016d0 <stm32__device___elabs+0xb18>)
 80015e0:	4b42      	ldr	r3, [pc, #264]	; (80016ec <stm32__device___elabs+0xb34>)
 80015e2:	601a      	str	r2, [r3, #0]
 80015e4:	4b38      	ldr	r3, [pc, #224]	; (80016c8 <stm32__device___elabs+0xb10>)
 80015e6:	681b      	ldr	r3, [r3, #0]
 80015e8:	4a41      	ldr	r2, [pc, #260]	; (80016f0 <stm32__device___elabs+0xb38>)
 80015ea:	6053      	str	r3, [r2, #4]
 80015ec:	4b40      	ldr	r3, [pc, #256]	; (80016f0 <stm32__device___elabs+0xb38>)
 80015ee:	f44f 7280 	mov.w	r2, #256	; 0x100
 80015f2:	811a      	strh	r2, [r3, #8]
 80015f4:	4a36      	ldr	r2, [pc, #216]	; (80016d0 <stm32__device___elabs+0xb18>)
 80015f6:	4b3e      	ldr	r3, [pc, #248]	; (80016f0 <stm32__device___elabs+0xb38>)
 80015f8:	601a      	str	r2, [r3, #0]
 80015fa:	4b33      	ldr	r3, [pc, #204]	; (80016c8 <stm32__device___elabs+0xb10>)
 80015fc:	681b      	ldr	r3, [r3, #0]
 80015fe:	4a3d      	ldr	r2, [pc, #244]	; (80016f4 <stm32__device___elabs+0xb3c>)
 8001600:	6053      	str	r3, [r2, #4]
 8001602:	4b3c      	ldr	r3, [pc, #240]	; (80016f4 <stm32__device___elabs+0xb3c>)
 8001604:	f44f 7200 	mov.w	r2, #512	; 0x200
 8001608:	811a      	strh	r2, [r3, #8]
 800160a:	4a31      	ldr	r2, [pc, #196]	; (80016d0 <stm32__device___elabs+0xb18>)
 800160c:	4b39      	ldr	r3, [pc, #228]	; (80016f4 <stm32__device___elabs+0xb3c>)
 800160e:	601a      	str	r2, [r3, #0]
 8001610:	4b2d      	ldr	r3, [pc, #180]	; (80016c8 <stm32__device___elabs+0xb10>)
 8001612:	681b      	ldr	r3, [r3, #0]
 8001614:	4a38      	ldr	r2, [pc, #224]	; (80016f8 <stm32__device___elabs+0xb40>)
 8001616:	6053      	str	r3, [r2, #4]
 8001618:	4b37      	ldr	r3, [pc, #220]	; (80016f8 <stm32__device___elabs+0xb40>)
 800161a:	f44f 6280 	mov.w	r2, #1024	; 0x400
 800161e:	811a      	strh	r2, [r3, #8]
 8001620:	4a2b      	ldr	r2, [pc, #172]	; (80016d0 <stm32__device___elabs+0xb18>)
 8001622:	4b35      	ldr	r3, [pc, #212]	; (80016f8 <stm32__device___elabs+0xb40>)
 8001624:	601a      	str	r2, [r3, #0]
 8001626:	4b28      	ldr	r3, [pc, #160]	; (80016c8 <stm32__device___elabs+0xb10>)
 8001628:	681b      	ldr	r3, [r3, #0]
 800162a:	4a34      	ldr	r2, [pc, #208]	; (80016fc <stm32__device___elabs+0xb44>)
 800162c:	6053      	str	r3, [r2, #4]
 800162e:	4b33      	ldr	r3, [pc, #204]	; (80016fc <stm32__device___elabs+0xb44>)
 8001630:	f44f 6200 	mov.w	r2, #2048	; 0x800
 8001634:	811a      	strh	r2, [r3, #8]
 8001636:	4a26      	ldr	r2, [pc, #152]	; (80016d0 <stm32__device___elabs+0xb18>)
 8001638:	4b30      	ldr	r3, [pc, #192]	; (80016fc <stm32__device___elabs+0xb44>)
 800163a:	601a      	str	r2, [r3, #0]
 800163c:	4b22      	ldr	r3, [pc, #136]	; (80016c8 <stm32__device___elabs+0xb10>)
 800163e:	681b      	ldr	r3, [r3, #0]
 8001640:	4a2f      	ldr	r2, [pc, #188]	; (8001700 <stm32__device___elabs+0xb48>)
 8001642:	6053      	str	r3, [r2, #4]
 8001644:	4b2e      	ldr	r3, [pc, #184]	; (8001700 <stm32__device___elabs+0xb48>)
 8001646:	f44f 5280 	mov.w	r2, #4096	; 0x1000
 800164a:	811a      	strh	r2, [r3, #8]
 800164c:	4a20      	ldr	r2, [pc, #128]	; (80016d0 <stm32__device___elabs+0xb18>)
 800164e:	4b2c      	ldr	r3, [pc, #176]	; (8001700 <stm32__device___elabs+0xb48>)
 8001650:	601a      	str	r2, [r3, #0]
 8001652:	4b1d      	ldr	r3, [pc, #116]	; (80016c8 <stm32__device___elabs+0xb10>)
 8001654:	681b      	ldr	r3, [r3, #0]
 8001656:	4a2b      	ldr	r2, [pc, #172]	; (8001704 <stm32__device___elabs+0xb4c>)
 8001658:	6053      	str	r3, [r2, #4]
 800165a:	4b2a      	ldr	r3, [pc, #168]	; (8001704 <stm32__device___elabs+0xb4c>)
 800165c:	f44f 5200 	mov.w	r2, #8192	; 0x2000
 8001660:	811a      	strh	r2, [r3, #8]
 8001662:	4a1b      	ldr	r2, [pc, #108]	; (80016d0 <stm32__device___elabs+0xb18>)
 8001664:	4b27      	ldr	r3, [pc, #156]	; (8001704 <stm32__device___elabs+0xb4c>)
 8001666:	601a      	str	r2, [r3, #0]
 8001668:	4b17      	ldr	r3, [pc, #92]	; (80016c8 <stm32__device___elabs+0xb10>)
 800166a:	681b      	ldr	r3, [r3, #0]
 800166c:	4a26      	ldr	r2, [pc, #152]	; (8001708 <stm32__device___elabs+0xb50>)
 800166e:	6053      	str	r3, [r2, #4]
 8001670:	4b25      	ldr	r3, [pc, #148]	; (8001708 <stm32__device___elabs+0xb50>)
 8001672:	f44f 4280 	mov.w	r2, #16384	; 0x4000
 8001676:	811a      	strh	r2, [r3, #8]
 8001678:	4a15      	ldr	r2, [pc, #84]	; (80016d0 <stm32__device___elabs+0xb18>)
 800167a:	4b23      	ldr	r3, [pc, #140]	; (8001708 <stm32__device___elabs+0xb50>)
 800167c:	601a      	str	r2, [r3, #0]
 800167e:	4b12      	ldr	r3, [pc, #72]	; (80016c8 <stm32__device___elabs+0xb10>)
 8001680:	681b      	ldr	r3, [r3, #0]
 8001682:	4a22      	ldr	r2, [pc, #136]	; (800170c <stm32__device___elabs+0xb54>)
 8001684:	6053      	str	r3, [r2, #4]
 8001686:	4b21      	ldr	r3, [pc, #132]	; (800170c <stm32__device___elabs+0xb54>)
 8001688:	f44f 4200 	mov.w	r2, #32768	; 0x8000
 800168c:	811a      	strh	r2, [r3, #8]
 800168e:	4a10      	ldr	r2, [pc, #64]	; (80016d0 <stm32__device___elabs+0xb18>)
 8001690:	4b1e      	ldr	r3, [pc, #120]	; (800170c <stm32__device___elabs+0xb54>)
 8001692:	601a      	str	r2, [r3, #0]
 8001694:	481e      	ldr	r0, [pc, #120]	; (8001710 <stm32__device___elabs+0xb58>)
 8001696:	f7ff fa49 	bl	8000b2c <stm32__device__s_ns_periph>
 800169a:	4603      	mov	r3, r0
 800169c:	61bb      	str	r3, [r7, #24]
 800169e:	4a1d      	ldr	r2, [pc, #116]	; (8001714 <stm32__device___elabs+0xb5c>)
 80016a0:	f107 0318 	add.w	r3, r7, #24
 80016a4:	6013      	str	r3, [r2, #0]
 80016a6:	4b1b      	ldr	r3, [pc, #108]	; (8001714 <stm32__device___elabs+0xb5c>)
 80016a8:	681b      	ldr	r3, [r3, #0]
 80016aa:	681b      	ldr	r3, [r3, #0]
 80016ac:	461a      	mov	r2, r3
 80016ae:	4b1a      	ldr	r3, [pc, #104]	; (8001718 <stm32__device___elabs+0xb60>)
 80016b0:	601a      	str	r2, [r3, #0]
 80016b2:	4b18      	ldr	r3, [pc, #96]	; (8001714 <stm32__device___elabs+0xb5c>)
 80016b4:	681b      	ldr	r3, [r3, #0]
 80016b6:	681b      	ldr	r3, [r3, #0]
 80016b8:	f003 0303 	and.w	r3, r3, #3
 80016bc:	2b00      	cmp	r3, #0
 80016be:	d02f      	beq.n	8001720 <stm32__device___elabs+0xb68>
 80016c0:	2157      	movs	r1, #87	; 0x57
 80016c2:	4816      	ldr	r0, [pc, #88]	; (800171c <stm32__device___elabs+0xb64>)
 80016c4:	f007 fce2 	bl	800908c <__gnat_rcheck_PE_Misaligned_Address_Value>
 80016c8:	2000087c 	.word	0x2000087c
 80016cc:	20000880 	.word	0x20000880
 80016d0:	0800d568 	.word	0x0800d568
 80016d4:	2000088c 	.word	0x2000088c
 80016d8:	20000898 	.word	0x20000898
 80016dc:	200008a4 	.word	0x200008a4
 80016e0:	200008b0 	.word	0x200008b0
 80016e4:	200008bc 	.word	0x200008bc
 80016e8:	200008c8 	.word	0x200008c8
 80016ec:	200008d4 	.word	0x200008d4
 80016f0:	200008e0 	.word	0x200008e0
 80016f4:	200008ec 	.word	0x200008ec
 80016f8:	200008f8 	.word	0x200008f8
 80016fc:	20000904 	.word	0x20000904
 8001700:	20000910 	.word	0x20000910
 8001704:	2000091c 	.word	0x2000091c
 8001708:	20000928 	.word	0x20000928
 800170c:	20000934 	.word	0x20000934
 8001710:	42021800 	.word	0x42021800
 8001714:	20000940 	.word	0x20000940
 8001718:	20000944 	.word	0x20000944
 800171c:	0800d358 	.word	0x0800d358
 8001720:	4b60      	ldr	r3, [pc, #384]	; (80018a4 <stm32__device___elabs+0xcec>)
 8001722:	681b      	ldr	r3, [r3, #0]
 8001724:	4a60      	ldr	r2, [pc, #384]	; (80018a8 <stm32__device___elabs+0xcf0>)
 8001726:	6053      	str	r3, [r2, #4]
 8001728:	4b5f      	ldr	r3, [pc, #380]	; (80018a8 <stm32__device___elabs+0xcf0>)
 800172a:	2201      	movs	r2, #1
 800172c:	811a      	strh	r2, [r3, #8]
 800172e:	4a5f      	ldr	r2, [pc, #380]	; (80018ac <stm32__device___elabs+0xcf4>)
 8001730:	4b5d      	ldr	r3, [pc, #372]	; (80018a8 <stm32__device___elabs+0xcf0>)
 8001732:	601a      	str	r2, [r3, #0]
 8001734:	4b5b      	ldr	r3, [pc, #364]	; (80018a4 <stm32__device___elabs+0xcec>)
 8001736:	681b      	ldr	r3, [r3, #0]
 8001738:	4a5d      	ldr	r2, [pc, #372]	; (80018b0 <stm32__device___elabs+0xcf8>)
 800173a:	6053      	str	r3, [r2, #4]
 800173c:	4b5c      	ldr	r3, [pc, #368]	; (80018b0 <stm32__device___elabs+0xcf8>)
 800173e:	2202      	movs	r2, #2
 8001740:	811a      	strh	r2, [r3, #8]
 8001742:	4a5a      	ldr	r2, [pc, #360]	; (80018ac <stm32__device___elabs+0xcf4>)
 8001744:	4b5a      	ldr	r3, [pc, #360]	; (80018b0 <stm32__device___elabs+0xcf8>)
 8001746:	601a      	str	r2, [r3, #0]
 8001748:	4b56      	ldr	r3, [pc, #344]	; (80018a4 <stm32__device___elabs+0xcec>)
 800174a:	681b      	ldr	r3, [r3, #0]
 800174c:	4a59      	ldr	r2, [pc, #356]	; (80018b4 <stm32__device___elabs+0xcfc>)
 800174e:	6053      	str	r3, [r2, #4]
 8001750:	4b58      	ldr	r3, [pc, #352]	; (80018b4 <stm32__device___elabs+0xcfc>)
 8001752:	2204      	movs	r2, #4
 8001754:	811a      	strh	r2, [r3, #8]
 8001756:	4a55      	ldr	r2, [pc, #340]	; (80018ac <stm32__device___elabs+0xcf4>)
 8001758:	4b56      	ldr	r3, [pc, #344]	; (80018b4 <stm32__device___elabs+0xcfc>)
 800175a:	601a      	str	r2, [r3, #0]
 800175c:	4b51      	ldr	r3, [pc, #324]	; (80018a4 <stm32__device___elabs+0xcec>)
 800175e:	681b      	ldr	r3, [r3, #0]
 8001760:	4a55      	ldr	r2, [pc, #340]	; (80018b8 <stm32__device___elabs+0xd00>)
 8001762:	6053      	str	r3, [r2, #4]
 8001764:	4b54      	ldr	r3, [pc, #336]	; (80018b8 <stm32__device___elabs+0xd00>)
 8001766:	2208      	movs	r2, #8
 8001768:	811a      	strh	r2, [r3, #8]
 800176a:	4a50      	ldr	r2, [pc, #320]	; (80018ac <stm32__device___elabs+0xcf4>)
 800176c:	4b52      	ldr	r3, [pc, #328]	; (80018b8 <stm32__device___elabs+0xd00>)
 800176e:	601a      	str	r2, [r3, #0]
 8001770:	4b4c      	ldr	r3, [pc, #304]	; (80018a4 <stm32__device___elabs+0xcec>)
 8001772:	681b      	ldr	r3, [r3, #0]
 8001774:	4a51      	ldr	r2, [pc, #324]	; (80018bc <stm32__device___elabs+0xd04>)
 8001776:	6053      	str	r3, [r2, #4]
 8001778:	4b50      	ldr	r3, [pc, #320]	; (80018bc <stm32__device___elabs+0xd04>)
 800177a:	2210      	movs	r2, #16
 800177c:	811a      	strh	r2, [r3, #8]
 800177e:	4a4b      	ldr	r2, [pc, #300]	; (80018ac <stm32__device___elabs+0xcf4>)
 8001780:	4b4e      	ldr	r3, [pc, #312]	; (80018bc <stm32__device___elabs+0xd04>)
 8001782:	601a      	str	r2, [r3, #0]
 8001784:	4b47      	ldr	r3, [pc, #284]	; (80018a4 <stm32__device___elabs+0xcec>)
 8001786:	681b      	ldr	r3, [r3, #0]
 8001788:	4a4d      	ldr	r2, [pc, #308]	; (80018c0 <stm32__device___elabs+0xd08>)
 800178a:	6053      	str	r3, [r2, #4]
 800178c:	4b4c      	ldr	r3, [pc, #304]	; (80018c0 <stm32__device___elabs+0xd08>)
 800178e:	2220      	movs	r2, #32
 8001790:	811a      	strh	r2, [r3, #8]
 8001792:	4a46      	ldr	r2, [pc, #280]	; (80018ac <stm32__device___elabs+0xcf4>)
 8001794:	4b4a      	ldr	r3, [pc, #296]	; (80018c0 <stm32__device___elabs+0xd08>)
 8001796:	601a      	str	r2, [r3, #0]
 8001798:	4b42      	ldr	r3, [pc, #264]	; (80018a4 <stm32__device___elabs+0xcec>)
 800179a:	681b      	ldr	r3, [r3, #0]
 800179c:	4a49      	ldr	r2, [pc, #292]	; (80018c4 <stm32__device___elabs+0xd0c>)
 800179e:	6053      	str	r3, [r2, #4]
 80017a0:	4b48      	ldr	r3, [pc, #288]	; (80018c4 <stm32__device___elabs+0xd0c>)
 80017a2:	2240      	movs	r2, #64	; 0x40
 80017a4:	811a      	strh	r2, [r3, #8]
 80017a6:	4a41      	ldr	r2, [pc, #260]	; (80018ac <stm32__device___elabs+0xcf4>)
 80017a8:	4b46      	ldr	r3, [pc, #280]	; (80018c4 <stm32__device___elabs+0xd0c>)
 80017aa:	601a      	str	r2, [r3, #0]
 80017ac:	4b3d      	ldr	r3, [pc, #244]	; (80018a4 <stm32__device___elabs+0xcec>)
 80017ae:	681b      	ldr	r3, [r3, #0]
 80017b0:	4a45      	ldr	r2, [pc, #276]	; (80018c8 <stm32__device___elabs+0xd10>)
 80017b2:	6053      	str	r3, [r2, #4]
 80017b4:	4b44      	ldr	r3, [pc, #272]	; (80018c8 <stm32__device___elabs+0xd10>)
 80017b6:	2280      	movs	r2, #128	; 0x80
 80017b8:	811a      	strh	r2, [r3, #8]
 80017ba:	4a3c      	ldr	r2, [pc, #240]	; (80018ac <stm32__device___elabs+0xcf4>)
 80017bc:	4b42      	ldr	r3, [pc, #264]	; (80018c8 <stm32__device___elabs+0xd10>)
 80017be:	601a      	str	r2, [r3, #0]
 80017c0:	4b38      	ldr	r3, [pc, #224]	; (80018a4 <stm32__device___elabs+0xcec>)
 80017c2:	681b      	ldr	r3, [r3, #0]
 80017c4:	4a41      	ldr	r2, [pc, #260]	; (80018cc <stm32__device___elabs+0xd14>)
 80017c6:	6053      	str	r3, [r2, #4]
 80017c8:	4b40      	ldr	r3, [pc, #256]	; (80018cc <stm32__device___elabs+0xd14>)
 80017ca:	f44f 7280 	mov.w	r2, #256	; 0x100
 80017ce:	811a      	strh	r2, [r3, #8]
 80017d0:	4a36      	ldr	r2, [pc, #216]	; (80018ac <stm32__device___elabs+0xcf4>)
 80017d2:	4b3e      	ldr	r3, [pc, #248]	; (80018cc <stm32__device___elabs+0xd14>)
 80017d4:	601a      	str	r2, [r3, #0]
 80017d6:	4b33      	ldr	r3, [pc, #204]	; (80018a4 <stm32__device___elabs+0xcec>)
 80017d8:	681b      	ldr	r3, [r3, #0]
 80017da:	4a3d      	ldr	r2, [pc, #244]	; (80018d0 <stm32__device___elabs+0xd18>)
 80017dc:	6053      	str	r3, [r2, #4]
 80017de:	4b3c      	ldr	r3, [pc, #240]	; (80018d0 <stm32__device___elabs+0xd18>)
 80017e0:	f44f 7200 	mov.w	r2, #512	; 0x200
 80017e4:	811a      	strh	r2, [r3, #8]
 80017e6:	4a31      	ldr	r2, [pc, #196]	; (80018ac <stm32__device___elabs+0xcf4>)
 80017e8:	4b39      	ldr	r3, [pc, #228]	; (80018d0 <stm32__device___elabs+0xd18>)
 80017ea:	601a      	str	r2, [r3, #0]
 80017ec:	4b2d      	ldr	r3, [pc, #180]	; (80018a4 <stm32__device___elabs+0xcec>)
 80017ee:	681b      	ldr	r3, [r3, #0]
 80017f0:	4a38      	ldr	r2, [pc, #224]	; (80018d4 <stm32__device___elabs+0xd1c>)
 80017f2:	6053      	str	r3, [r2, #4]
 80017f4:	4b37      	ldr	r3, [pc, #220]	; (80018d4 <stm32__device___elabs+0xd1c>)
 80017f6:	f44f 6280 	mov.w	r2, #1024	; 0x400
 80017fa:	811a      	strh	r2, [r3, #8]
 80017fc:	4a2b      	ldr	r2, [pc, #172]	; (80018ac <stm32__device___elabs+0xcf4>)
 80017fe:	4b35      	ldr	r3, [pc, #212]	; (80018d4 <stm32__device___elabs+0xd1c>)
 8001800:	601a      	str	r2, [r3, #0]
 8001802:	4b28      	ldr	r3, [pc, #160]	; (80018a4 <stm32__device___elabs+0xcec>)
 8001804:	681b      	ldr	r3, [r3, #0]
 8001806:	4a34      	ldr	r2, [pc, #208]	; (80018d8 <stm32__device___elabs+0xd20>)
 8001808:	6053      	str	r3, [r2, #4]
 800180a:	4b33      	ldr	r3, [pc, #204]	; (80018d8 <stm32__device___elabs+0xd20>)
 800180c:	f44f 6200 	mov.w	r2, #2048	; 0x800
 8001810:	811a      	strh	r2, [r3, #8]
 8001812:	4a26      	ldr	r2, [pc, #152]	; (80018ac <stm32__device___elabs+0xcf4>)
 8001814:	4b30      	ldr	r3, [pc, #192]	; (80018d8 <stm32__device___elabs+0xd20>)
 8001816:	601a      	str	r2, [r3, #0]
 8001818:	4b22      	ldr	r3, [pc, #136]	; (80018a4 <stm32__device___elabs+0xcec>)
 800181a:	681b      	ldr	r3, [r3, #0]
 800181c:	4a2f      	ldr	r2, [pc, #188]	; (80018dc <stm32__device___elabs+0xd24>)
 800181e:	6053      	str	r3, [r2, #4]
 8001820:	4b2e      	ldr	r3, [pc, #184]	; (80018dc <stm32__device___elabs+0xd24>)
 8001822:	f44f 5280 	mov.w	r2, #4096	; 0x1000
 8001826:	811a      	strh	r2, [r3, #8]
 8001828:	4a20      	ldr	r2, [pc, #128]	; (80018ac <stm32__device___elabs+0xcf4>)
 800182a:	4b2c      	ldr	r3, [pc, #176]	; (80018dc <stm32__device___elabs+0xd24>)
 800182c:	601a      	str	r2, [r3, #0]
 800182e:	4b1d      	ldr	r3, [pc, #116]	; (80018a4 <stm32__device___elabs+0xcec>)
 8001830:	681b      	ldr	r3, [r3, #0]
 8001832:	4a2b      	ldr	r2, [pc, #172]	; (80018e0 <stm32__device___elabs+0xd28>)
 8001834:	6053      	str	r3, [r2, #4]
 8001836:	4b2a      	ldr	r3, [pc, #168]	; (80018e0 <stm32__device___elabs+0xd28>)
 8001838:	f44f 5200 	mov.w	r2, #8192	; 0x2000
 800183c:	811a      	strh	r2, [r3, #8]
 800183e:	4a1b      	ldr	r2, [pc, #108]	; (80018ac <stm32__device___elabs+0xcf4>)
 8001840:	4b27      	ldr	r3, [pc, #156]	; (80018e0 <stm32__device___elabs+0xd28>)
 8001842:	601a      	str	r2, [r3, #0]
 8001844:	4b17      	ldr	r3, [pc, #92]	; (80018a4 <stm32__device___elabs+0xcec>)
 8001846:	681b      	ldr	r3, [r3, #0]
 8001848:	4a26      	ldr	r2, [pc, #152]	; (80018e4 <stm32__device___elabs+0xd2c>)
 800184a:	6053      	str	r3, [r2, #4]
 800184c:	4b25      	ldr	r3, [pc, #148]	; (80018e4 <stm32__device___elabs+0xd2c>)
 800184e:	f44f 4280 	mov.w	r2, #16384	; 0x4000
 8001852:	811a      	strh	r2, [r3, #8]
 8001854:	4a15      	ldr	r2, [pc, #84]	; (80018ac <stm32__device___elabs+0xcf4>)
 8001856:	4b23      	ldr	r3, [pc, #140]	; (80018e4 <stm32__device___elabs+0xd2c>)
 8001858:	601a      	str	r2, [r3, #0]
 800185a:	4b12      	ldr	r3, [pc, #72]	; (80018a4 <stm32__device___elabs+0xcec>)
 800185c:	681b      	ldr	r3, [r3, #0]
 800185e:	4a22      	ldr	r2, [pc, #136]	; (80018e8 <stm32__device___elabs+0xd30>)
 8001860:	6053      	str	r3, [r2, #4]
 8001862:	4b21      	ldr	r3, [pc, #132]	; (80018e8 <stm32__device___elabs+0xd30>)
 8001864:	f44f 4200 	mov.w	r2, #32768	; 0x8000
 8001868:	811a      	strh	r2, [r3, #8]
 800186a:	4a10      	ldr	r2, [pc, #64]	; (80018ac <stm32__device___elabs+0xcf4>)
 800186c:	4b1e      	ldr	r3, [pc, #120]	; (80018e8 <stm32__device___elabs+0xd30>)
 800186e:	601a      	str	r2, [r3, #0]
 8001870:	481e      	ldr	r0, [pc, #120]	; (80018ec <stm32__device___elabs+0xd34>)
 8001872:	f7ff f95b 	bl	8000b2c <stm32__device__s_ns_periph>
 8001876:	4603      	mov	r3, r0
 8001878:	61fb      	str	r3, [r7, #28]
 800187a:	4a1d      	ldr	r2, [pc, #116]	; (80018f0 <stm32__device___elabs+0xd38>)
 800187c:	f107 031c 	add.w	r3, r7, #28
 8001880:	6013      	str	r3, [r2, #0]
 8001882:	4b1b      	ldr	r3, [pc, #108]	; (80018f0 <stm32__device___elabs+0xd38>)
 8001884:	681b      	ldr	r3, [r3, #0]
 8001886:	681b      	ldr	r3, [r3, #0]
 8001888:	461a      	mov	r2, r3
 800188a:	4b1a      	ldr	r3, [pc, #104]	; (80018f4 <stm32__device___elabs+0xd3c>)
 800188c:	601a      	str	r2, [r3, #0]
 800188e:	4b18      	ldr	r3, [pc, #96]	; (80018f0 <stm32__device___elabs+0xd38>)
 8001890:	681b      	ldr	r3, [r3, #0]
 8001892:	681b      	ldr	r3, [r3, #0]
 8001894:	f003 0303 	and.w	r3, r3, #3
 8001898:	2b00      	cmp	r3, #0
 800189a:	d02f      	beq.n	80018fc <stm32__device___elabs+0xd44>
 800189c:	2158      	movs	r1, #88	; 0x58
 800189e:	4816      	ldr	r0, [pc, #88]	; (80018f8 <stm32__device___elabs+0xd40>)
 80018a0:	f007 fbf4 	bl	800908c <__gnat_rcheck_PE_Misaligned_Address_Value>
 80018a4:	20000944 	.word	0x20000944
 80018a8:	20000948 	.word	0x20000948
 80018ac:	0800d568 	.word	0x0800d568
 80018b0:	20000954 	.word	0x20000954
 80018b4:	20000960 	.word	0x20000960
 80018b8:	2000096c 	.word	0x2000096c
 80018bc:	20000978 	.word	0x20000978
 80018c0:	20000984 	.word	0x20000984
 80018c4:	20000990 	.word	0x20000990
 80018c8:	2000099c 	.word	0x2000099c
 80018cc:	200009a8 	.word	0x200009a8
 80018d0:	200009b4 	.word	0x200009b4
 80018d4:	200009c0 	.word	0x200009c0
 80018d8:	200009cc 	.word	0x200009cc
 80018dc:	200009d8 	.word	0x200009d8
 80018e0:	200009e4 	.word	0x200009e4
 80018e4:	200009f0 	.word	0x200009f0
 80018e8:	200009fc 	.word	0x200009fc
 80018ec:	42021c00 	.word	0x42021c00
 80018f0:	20000a08 	.word	0x20000a08
 80018f4:	20000a0c 	.word	0x20000a0c
 80018f8:	0800d358 	.word	0x0800d358
 80018fc:	4b94      	ldr	r3, [pc, #592]	; (8001b50 <stm32__device___elabs+0xf98>)
 80018fe:	681b      	ldr	r3, [r3, #0]
 8001900:	4a94      	ldr	r2, [pc, #592]	; (8001b54 <stm32__device___elabs+0xf9c>)
 8001902:	6053      	str	r3, [r2, #4]
 8001904:	4b93      	ldr	r3, [pc, #588]	; (8001b54 <stm32__device___elabs+0xf9c>)
 8001906:	2201      	movs	r2, #1
 8001908:	811a      	strh	r2, [r3, #8]
 800190a:	4a93      	ldr	r2, [pc, #588]	; (8001b58 <stm32__device___elabs+0xfa0>)
 800190c:	4b91      	ldr	r3, [pc, #580]	; (8001b54 <stm32__device___elabs+0xf9c>)
 800190e:	601a      	str	r2, [r3, #0]
 8001910:	4b8f      	ldr	r3, [pc, #572]	; (8001b50 <stm32__device___elabs+0xf98>)
 8001912:	681b      	ldr	r3, [r3, #0]
 8001914:	4a91      	ldr	r2, [pc, #580]	; (8001b5c <stm32__device___elabs+0xfa4>)
 8001916:	6053      	str	r3, [r2, #4]
 8001918:	4b90      	ldr	r3, [pc, #576]	; (8001b5c <stm32__device___elabs+0xfa4>)
 800191a:	2202      	movs	r2, #2
 800191c:	811a      	strh	r2, [r3, #8]
 800191e:	4a8e      	ldr	r2, [pc, #568]	; (8001b58 <stm32__device___elabs+0xfa0>)
 8001920:	4b8e      	ldr	r3, [pc, #568]	; (8001b5c <stm32__device___elabs+0xfa4>)
 8001922:	601a      	str	r2, [r3, #0]
 8001924:	4b8a      	ldr	r3, [pc, #552]	; (8001b50 <stm32__device___elabs+0xf98>)
 8001926:	681b      	ldr	r3, [r3, #0]
 8001928:	4a8d      	ldr	r2, [pc, #564]	; (8001b60 <stm32__device___elabs+0xfa8>)
 800192a:	6053      	str	r3, [r2, #4]
 800192c:	4b8c      	ldr	r3, [pc, #560]	; (8001b60 <stm32__device___elabs+0xfa8>)
 800192e:	2204      	movs	r2, #4
 8001930:	811a      	strh	r2, [r3, #8]
 8001932:	4a89      	ldr	r2, [pc, #548]	; (8001b58 <stm32__device___elabs+0xfa0>)
 8001934:	4b8a      	ldr	r3, [pc, #552]	; (8001b60 <stm32__device___elabs+0xfa8>)
 8001936:	601a      	str	r2, [r3, #0]
 8001938:	4b85      	ldr	r3, [pc, #532]	; (8001b50 <stm32__device___elabs+0xf98>)
 800193a:	681b      	ldr	r3, [r3, #0]
 800193c:	4a89      	ldr	r2, [pc, #548]	; (8001b64 <stm32__device___elabs+0xfac>)
 800193e:	6053      	str	r3, [r2, #4]
 8001940:	4b88      	ldr	r3, [pc, #544]	; (8001b64 <stm32__device___elabs+0xfac>)
 8001942:	2208      	movs	r2, #8
 8001944:	811a      	strh	r2, [r3, #8]
 8001946:	4a84      	ldr	r2, [pc, #528]	; (8001b58 <stm32__device___elabs+0xfa0>)
 8001948:	4b86      	ldr	r3, [pc, #536]	; (8001b64 <stm32__device___elabs+0xfac>)
 800194a:	601a      	str	r2, [r3, #0]
 800194c:	4b80      	ldr	r3, [pc, #512]	; (8001b50 <stm32__device___elabs+0xf98>)
 800194e:	681b      	ldr	r3, [r3, #0]
 8001950:	4a85      	ldr	r2, [pc, #532]	; (8001b68 <stm32__device___elabs+0xfb0>)
 8001952:	6053      	str	r3, [r2, #4]
 8001954:	4b84      	ldr	r3, [pc, #528]	; (8001b68 <stm32__device___elabs+0xfb0>)
 8001956:	2210      	movs	r2, #16
 8001958:	811a      	strh	r2, [r3, #8]
 800195a:	4a7f      	ldr	r2, [pc, #508]	; (8001b58 <stm32__device___elabs+0xfa0>)
 800195c:	4b82      	ldr	r3, [pc, #520]	; (8001b68 <stm32__device___elabs+0xfb0>)
 800195e:	601a      	str	r2, [r3, #0]
 8001960:	4b7b      	ldr	r3, [pc, #492]	; (8001b50 <stm32__device___elabs+0xf98>)
 8001962:	681b      	ldr	r3, [r3, #0]
 8001964:	4a81      	ldr	r2, [pc, #516]	; (8001b6c <stm32__device___elabs+0xfb4>)
 8001966:	6053      	str	r3, [r2, #4]
 8001968:	4b80      	ldr	r3, [pc, #512]	; (8001b6c <stm32__device___elabs+0xfb4>)
 800196a:	2220      	movs	r2, #32
 800196c:	811a      	strh	r2, [r3, #8]
 800196e:	4a7a      	ldr	r2, [pc, #488]	; (8001b58 <stm32__device___elabs+0xfa0>)
 8001970:	4b7e      	ldr	r3, [pc, #504]	; (8001b6c <stm32__device___elabs+0xfb4>)
 8001972:	601a      	str	r2, [r3, #0]
 8001974:	4b76      	ldr	r3, [pc, #472]	; (8001b50 <stm32__device___elabs+0xf98>)
 8001976:	681b      	ldr	r3, [r3, #0]
 8001978:	4a7d      	ldr	r2, [pc, #500]	; (8001b70 <stm32__device___elabs+0xfb8>)
 800197a:	6053      	str	r3, [r2, #4]
 800197c:	4b7c      	ldr	r3, [pc, #496]	; (8001b70 <stm32__device___elabs+0xfb8>)
 800197e:	2240      	movs	r2, #64	; 0x40
 8001980:	811a      	strh	r2, [r3, #8]
 8001982:	4a75      	ldr	r2, [pc, #468]	; (8001b58 <stm32__device___elabs+0xfa0>)
 8001984:	4b7a      	ldr	r3, [pc, #488]	; (8001b70 <stm32__device___elabs+0xfb8>)
 8001986:	601a      	str	r2, [r3, #0]
 8001988:	4b71      	ldr	r3, [pc, #452]	; (8001b50 <stm32__device___elabs+0xf98>)
 800198a:	681b      	ldr	r3, [r3, #0]
 800198c:	4a79      	ldr	r2, [pc, #484]	; (8001b74 <stm32__device___elabs+0xfbc>)
 800198e:	6053      	str	r3, [r2, #4]
 8001990:	4b78      	ldr	r3, [pc, #480]	; (8001b74 <stm32__device___elabs+0xfbc>)
 8001992:	2280      	movs	r2, #128	; 0x80
 8001994:	811a      	strh	r2, [r3, #8]
 8001996:	4a70      	ldr	r2, [pc, #448]	; (8001b58 <stm32__device___elabs+0xfa0>)
 8001998:	4b76      	ldr	r3, [pc, #472]	; (8001b74 <stm32__device___elabs+0xfbc>)
 800199a:	601a      	str	r2, [r3, #0]
 800199c:	4b6c      	ldr	r3, [pc, #432]	; (8001b50 <stm32__device___elabs+0xf98>)
 800199e:	681b      	ldr	r3, [r3, #0]
 80019a0:	4a75      	ldr	r2, [pc, #468]	; (8001b78 <stm32__device___elabs+0xfc0>)
 80019a2:	6053      	str	r3, [r2, #4]
 80019a4:	4b74      	ldr	r3, [pc, #464]	; (8001b78 <stm32__device___elabs+0xfc0>)
 80019a6:	f44f 7280 	mov.w	r2, #256	; 0x100
 80019aa:	811a      	strh	r2, [r3, #8]
 80019ac:	4a6a      	ldr	r2, [pc, #424]	; (8001b58 <stm32__device___elabs+0xfa0>)
 80019ae:	4b72      	ldr	r3, [pc, #456]	; (8001b78 <stm32__device___elabs+0xfc0>)
 80019b0:	601a      	str	r2, [r3, #0]
 80019b2:	4b67      	ldr	r3, [pc, #412]	; (8001b50 <stm32__device___elabs+0xf98>)
 80019b4:	681b      	ldr	r3, [r3, #0]
 80019b6:	4a71      	ldr	r2, [pc, #452]	; (8001b7c <stm32__device___elabs+0xfc4>)
 80019b8:	6053      	str	r3, [r2, #4]
 80019ba:	4b70      	ldr	r3, [pc, #448]	; (8001b7c <stm32__device___elabs+0xfc4>)
 80019bc:	f44f 7200 	mov.w	r2, #512	; 0x200
 80019c0:	811a      	strh	r2, [r3, #8]
 80019c2:	4a65      	ldr	r2, [pc, #404]	; (8001b58 <stm32__device___elabs+0xfa0>)
 80019c4:	4b6d      	ldr	r3, [pc, #436]	; (8001b7c <stm32__device___elabs+0xfc4>)
 80019c6:	601a      	str	r2, [r3, #0]
 80019c8:	4b61      	ldr	r3, [pc, #388]	; (8001b50 <stm32__device___elabs+0xf98>)
 80019ca:	681b      	ldr	r3, [r3, #0]
 80019cc:	4a6c      	ldr	r2, [pc, #432]	; (8001b80 <stm32__device___elabs+0xfc8>)
 80019ce:	6053      	str	r3, [r2, #4]
 80019d0:	4b6b      	ldr	r3, [pc, #428]	; (8001b80 <stm32__device___elabs+0xfc8>)
 80019d2:	f44f 6280 	mov.w	r2, #1024	; 0x400
 80019d6:	811a      	strh	r2, [r3, #8]
 80019d8:	4a5f      	ldr	r2, [pc, #380]	; (8001b58 <stm32__device___elabs+0xfa0>)
 80019da:	4b69      	ldr	r3, [pc, #420]	; (8001b80 <stm32__device___elabs+0xfc8>)
 80019dc:	601a      	str	r2, [r3, #0]
 80019de:	4b5c      	ldr	r3, [pc, #368]	; (8001b50 <stm32__device___elabs+0xf98>)
 80019e0:	681b      	ldr	r3, [r3, #0]
 80019e2:	4a68      	ldr	r2, [pc, #416]	; (8001b84 <stm32__device___elabs+0xfcc>)
 80019e4:	6053      	str	r3, [r2, #4]
 80019e6:	4b67      	ldr	r3, [pc, #412]	; (8001b84 <stm32__device___elabs+0xfcc>)
 80019e8:	f44f 6200 	mov.w	r2, #2048	; 0x800
 80019ec:	811a      	strh	r2, [r3, #8]
 80019ee:	4a5a      	ldr	r2, [pc, #360]	; (8001b58 <stm32__device___elabs+0xfa0>)
 80019f0:	4b64      	ldr	r3, [pc, #400]	; (8001b84 <stm32__device___elabs+0xfcc>)
 80019f2:	601a      	str	r2, [r3, #0]
 80019f4:	4b56      	ldr	r3, [pc, #344]	; (8001b50 <stm32__device___elabs+0xf98>)
 80019f6:	681b      	ldr	r3, [r3, #0]
 80019f8:	4a63      	ldr	r2, [pc, #396]	; (8001b88 <stm32__device___elabs+0xfd0>)
 80019fa:	6053      	str	r3, [r2, #4]
 80019fc:	4b62      	ldr	r3, [pc, #392]	; (8001b88 <stm32__device___elabs+0xfd0>)
 80019fe:	f44f 5280 	mov.w	r2, #4096	; 0x1000
 8001a02:	811a      	strh	r2, [r3, #8]
 8001a04:	4a54      	ldr	r2, [pc, #336]	; (8001b58 <stm32__device___elabs+0xfa0>)
 8001a06:	4b60      	ldr	r3, [pc, #384]	; (8001b88 <stm32__device___elabs+0xfd0>)
 8001a08:	601a      	str	r2, [r3, #0]
 8001a0a:	4b51      	ldr	r3, [pc, #324]	; (8001b50 <stm32__device___elabs+0xf98>)
 8001a0c:	681b      	ldr	r3, [r3, #0]
 8001a0e:	4a5f      	ldr	r2, [pc, #380]	; (8001b8c <stm32__device___elabs+0xfd4>)
 8001a10:	6053      	str	r3, [r2, #4]
 8001a12:	4b5e      	ldr	r3, [pc, #376]	; (8001b8c <stm32__device___elabs+0xfd4>)
 8001a14:	f44f 5200 	mov.w	r2, #8192	; 0x2000
 8001a18:	811a      	strh	r2, [r3, #8]
 8001a1a:	4a4f      	ldr	r2, [pc, #316]	; (8001b58 <stm32__device___elabs+0xfa0>)
 8001a1c:	4b5b      	ldr	r3, [pc, #364]	; (8001b8c <stm32__device___elabs+0xfd4>)
 8001a1e:	601a      	str	r2, [r3, #0]
 8001a20:	4b4b      	ldr	r3, [pc, #300]	; (8001b50 <stm32__device___elabs+0xf98>)
 8001a22:	681b      	ldr	r3, [r3, #0]
 8001a24:	4a5a      	ldr	r2, [pc, #360]	; (8001b90 <stm32__device___elabs+0xfd8>)
 8001a26:	6053      	str	r3, [r2, #4]
 8001a28:	4b59      	ldr	r3, [pc, #356]	; (8001b90 <stm32__device___elabs+0xfd8>)
 8001a2a:	f44f 4280 	mov.w	r2, #16384	; 0x4000
 8001a2e:	811a      	strh	r2, [r3, #8]
 8001a30:	4a49      	ldr	r2, [pc, #292]	; (8001b58 <stm32__device___elabs+0xfa0>)
 8001a32:	4b57      	ldr	r3, [pc, #348]	; (8001b90 <stm32__device___elabs+0xfd8>)
 8001a34:	601a      	str	r2, [r3, #0]
 8001a36:	4b46      	ldr	r3, [pc, #280]	; (8001b50 <stm32__device___elabs+0xf98>)
 8001a38:	681b      	ldr	r3, [r3, #0]
 8001a3a:	4a56      	ldr	r2, [pc, #344]	; (8001b94 <stm32__device___elabs+0xfdc>)
 8001a3c:	6053      	str	r3, [r2, #4]
 8001a3e:	4b55      	ldr	r3, [pc, #340]	; (8001b94 <stm32__device___elabs+0xfdc>)
 8001a40:	f44f 4200 	mov.w	r2, #32768	; 0x8000
 8001a44:	811a      	strh	r2, [r3, #8]
 8001a46:	4a44      	ldr	r2, [pc, #272]	; (8001b58 <stm32__device___elabs+0xfa0>)
 8001a48:	4b52      	ldr	r3, [pc, #328]	; (8001b94 <stm32__device___elabs+0xfdc>)
 8001a4a:	601a      	str	r2, [r3, #0]
 8001a4c:	4852      	ldr	r0, [pc, #328]	; (8001b98 <stm32__device___elabs+0xfe0>)
 8001a4e:	f7ff f86d 	bl	8000b2c <stm32__device__s_ns_periph>
 8001a52:	4603      	mov	r3, r0
 8001a54:	623b      	str	r3, [r7, #32]
 8001a56:	4a51      	ldr	r2, [pc, #324]	; (8001b9c <stm32__device___elabs+0xfe4>)
 8001a58:	f107 0320 	add.w	r3, r7, #32
 8001a5c:	6013      	str	r3, [r2, #0]
 8001a5e:	4b4f      	ldr	r3, [pc, #316]	; (8001b9c <stm32__device___elabs+0xfe4>)
 8001a60:	681b      	ldr	r3, [r3, #0]
 8001a62:	681b      	ldr	r3, [r3, #0]
 8001a64:	461a      	mov	r2, r3
 8001a66:	4b4e      	ldr	r3, [pc, #312]	; (8001ba0 <stm32__device___elabs+0xfe8>)
 8001a68:	601a      	str	r2, [r3, #0]
 8001a6a:	4b4c      	ldr	r3, [pc, #304]	; (8001b9c <stm32__device___elabs+0xfe4>)
 8001a6c:	681b      	ldr	r3, [r3, #0]
 8001a6e:	681b      	ldr	r3, [r3, #0]
 8001a70:	f003 0303 	and.w	r3, r3, #3
 8001a74:	2b00      	cmp	r3, #0
 8001a76:	d004      	beq.n	8001a82 <stm32__device___elabs+0xeca>
 8001a78:	f44f 7184 	mov.w	r1, #264	; 0x108
 8001a7c:	4849      	ldr	r0, [pc, #292]	; (8001ba4 <stm32__device___elabs+0xfec>)
 8001a7e:	f007 fb05 	bl	800908c <__gnat_rcheck_PE_Misaligned_Address_Value>
 8001a82:	4b47      	ldr	r3, [pc, #284]	; (8001ba0 <stm32__device___elabs+0xfe8>)
 8001a84:	681b      	ldr	r3, [r3, #0]
 8001a86:	2201      	movs	r2, #1
 8001a88:	4619      	mov	r1, r3
 8001a8a:	4847      	ldr	r0, [pc, #284]	; (8001ba8 <stm32__device___elabs+0xff0>)
 8001a8c:	f001 fa32 	bl	8002ef4 <stm32__i2c__i2c_portIP>
 8001a90:	4846      	ldr	r0, [pc, #280]	; (8001bac <stm32__device___elabs+0xff4>)
 8001a92:	f7ff f84b 	bl	8000b2c <stm32__device__s_ns_periph>
 8001a96:	4603      	mov	r3, r0
 8001a98:	627b      	str	r3, [r7, #36]	; 0x24
 8001a9a:	4a45      	ldr	r2, [pc, #276]	; (8001bb0 <stm32__device___elabs+0xff8>)
 8001a9c:	f107 0324 	add.w	r3, r7, #36	; 0x24
 8001aa0:	6013      	str	r3, [r2, #0]
 8001aa2:	4b43      	ldr	r3, [pc, #268]	; (8001bb0 <stm32__device___elabs+0xff8>)
 8001aa4:	681b      	ldr	r3, [r3, #0]
 8001aa6:	681b      	ldr	r3, [r3, #0]
 8001aa8:	461a      	mov	r2, r3
 8001aaa:	4b42      	ldr	r3, [pc, #264]	; (8001bb4 <stm32__device___elabs+0xffc>)
 8001aac:	601a      	str	r2, [r3, #0]
 8001aae:	4b40      	ldr	r3, [pc, #256]	; (8001bb0 <stm32__device___elabs+0xff8>)
 8001ab0:	681b      	ldr	r3, [r3, #0]
 8001ab2:	681b      	ldr	r3, [r3, #0]
 8001ab4:	f003 0303 	and.w	r3, r3, #3
 8001ab8:	2b00      	cmp	r3, #0
 8001aba:	d004      	beq.n	8001ac6 <stm32__device___elabs+0xf0e>
 8001abc:	f44f 7185 	mov.w	r1, #266	; 0x10a
 8001ac0:	4838      	ldr	r0, [pc, #224]	; (8001ba4 <stm32__device___elabs+0xfec>)
 8001ac2:	f007 fae3 	bl	800908c <__gnat_rcheck_PE_Misaligned_Address_Value>
 8001ac6:	4b3b      	ldr	r3, [pc, #236]	; (8001bb4 <stm32__device___elabs+0xffc>)
 8001ac8:	681b      	ldr	r3, [r3, #0]
 8001aca:	2201      	movs	r2, #1
 8001acc:	4619      	mov	r1, r3
 8001ace:	483a      	ldr	r0, [pc, #232]	; (8001bb8 <stm32__device___elabs+0x1000>)
 8001ad0:	f001 fa10 	bl	8002ef4 <stm32__i2c__i2c_portIP>
 8001ad4:	4839      	ldr	r0, [pc, #228]	; (8001bbc <stm32__device___elabs+0x1004>)
 8001ad6:	f7ff f829 	bl	8000b2c <stm32__device__s_ns_periph>
 8001ada:	4603      	mov	r3, r0
 8001adc:	62bb      	str	r3, [r7, #40]	; 0x28
 8001ade:	4a38      	ldr	r2, [pc, #224]	; (8001bc0 <stm32__device___elabs+0x1008>)
 8001ae0:	f107 0328 	add.w	r3, r7, #40	; 0x28
 8001ae4:	6013      	str	r3, [r2, #0]
 8001ae6:	4b36      	ldr	r3, [pc, #216]	; (8001bc0 <stm32__device___elabs+0x1008>)
 8001ae8:	681b      	ldr	r3, [r3, #0]
 8001aea:	681b      	ldr	r3, [r3, #0]
 8001aec:	461a      	mov	r2, r3
 8001aee:	4b35      	ldr	r3, [pc, #212]	; (8001bc4 <stm32__device___elabs+0x100c>)
 8001af0:	601a      	str	r2, [r3, #0]
 8001af2:	4b33      	ldr	r3, [pc, #204]	; (8001bc0 <stm32__device___elabs+0x1008>)
 8001af4:	681b      	ldr	r3, [r3, #0]
 8001af6:	681b      	ldr	r3, [r3, #0]
 8001af8:	f003 0303 	and.w	r3, r3, #3
 8001afc:	2b00      	cmp	r3, #0
 8001afe:	d004      	beq.n	8001b0a <stm32__device___elabs+0xf52>
 8001b00:	f44f 7186 	mov.w	r1, #268	; 0x10c
 8001b04:	4827      	ldr	r0, [pc, #156]	; (8001ba4 <stm32__device___elabs+0xfec>)
 8001b06:	f007 fac1 	bl	800908c <__gnat_rcheck_PE_Misaligned_Address_Value>
 8001b0a:	4b2e      	ldr	r3, [pc, #184]	; (8001bc4 <stm32__device___elabs+0x100c>)
 8001b0c:	681b      	ldr	r3, [r3, #0]
 8001b0e:	2201      	movs	r2, #1
 8001b10:	4619      	mov	r1, r3
 8001b12:	482d      	ldr	r0, [pc, #180]	; (8001bc8 <stm32__device___elabs+0x1010>)
 8001b14:	f001 f9ee 	bl	8002ef4 <stm32__i2c__i2c_portIP>
 8001b18:	482c      	ldr	r0, [pc, #176]	; (8001bcc <stm32__device___elabs+0x1014>)
 8001b1a:	f7ff f807 	bl	8000b2c <stm32__device__s_ns_periph>
 8001b1e:	4603      	mov	r3, r0
 8001b20:	62fb      	str	r3, [r7, #44]	; 0x2c
 8001b22:	4a2b      	ldr	r2, [pc, #172]	; (8001bd0 <stm32__device___elabs+0x1018>)
 8001b24:	f107 032c 	add.w	r3, r7, #44	; 0x2c
 8001b28:	6013      	str	r3, [r2, #0]
 8001b2a:	4b29      	ldr	r3, [pc, #164]	; (8001bd0 <stm32__device___elabs+0x1018>)
 8001b2c:	681b      	ldr	r3, [r3, #0]
 8001b2e:	681b      	ldr	r3, [r3, #0]
 8001b30:	461a      	mov	r2, r3
 8001b32:	4b28      	ldr	r3, [pc, #160]	; (8001bd4 <stm32__device___elabs+0x101c>)
 8001b34:	601a      	str	r2, [r3, #0]
 8001b36:	4b26      	ldr	r3, [pc, #152]	; (8001bd0 <stm32__device___elabs+0x1018>)
 8001b38:	681b      	ldr	r3, [r3, #0]
 8001b3a:	681b      	ldr	r3, [r3, #0]
 8001b3c:	f003 0303 	and.w	r3, r3, #3
 8001b40:	2b00      	cmp	r3, #0
 8001b42:	d049      	beq.n	8001bd8 <stm32__device___elabs+0x1020>
 8001b44:	f240 111b 	movw	r1, #283	; 0x11b
 8001b48:	4816      	ldr	r0, [pc, #88]	; (8001ba4 <stm32__device___elabs+0xfec>)
 8001b4a:	f007 fa9f 	bl	800908c <__gnat_rcheck_PE_Misaligned_Address_Value>
 8001b4e:	bf00      	nop
 8001b50:	20000a0c 	.word	0x20000a0c
 8001b54:	20000a10 	.word	0x20000a10
 8001b58:	0800d568 	.word	0x0800d568
 8001b5c:	20000a1c 	.word	0x20000a1c
 8001b60:	20000a28 	.word	0x20000a28
 8001b64:	20000a34 	.word	0x20000a34
 8001b68:	20000a40 	.word	0x20000a40
 8001b6c:	20000a4c 	.word	0x20000a4c
 8001b70:	20000a58 	.word	0x20000a58
 8001b74:	20000a64 	.word	0x20000a64
 8001b78:	20000a70 	.word	0x20000a70
 8001b7c:	20000a7c 	.word	0x20000a7c
 8001b80:	20000a88 	.word	0x20000a88
 8001b84:	20000a94 	.word	0x20000a94
 8001b88:	20000aa0 	.word	0x20000aa0
 8001b8c:	20000aac 	.word	0x20000aac
 8001b90:	20000ab8 	.word	0x20000ab8
 8001b94:	20000ac4 	.word	0x20000ac4
 8001b98:	40005400 	.word	0x40005400
 8001b9c:	20000ad0 	.word	0x20000ad0
 8001ba0:	20000ad4 	.word	0x20000ad4
 8001ba4:	0800d358 	.word	0x0800d358
 8001ba8:	20000ad8 	.word	0x20000ad8
 8001bac:	40005800 	.word	0x40005800
 8001bb0:	20000af0 	.word	0x20000af0
 8001bb4:	20000af4 	.word	0x20000af4
 8001bb8:	20000af8 	.word	0x20000af8
 8001bbc:	46002800 	.word	0x46002800
 8001bc0:	20000b10 	.word	0x20000b10
 8001bc4:	20000b14 	.word	0x20000b14
 8001bc8:	20000b18 	.word	0x20000b18
 8001bcc:	40013000 	.word	0x40013000
 8001bd0:	20000b30 	.word	0x20000b30
 8001bd4:	20000b34 	.word	0x20000b34
 8001bd8:	4b26      	ldr	r3, [pc, #152]	; (8001c74 <stm32__device___elabs+0x10bc>)
 8001bda:	681b      	ldr	r3, [r3, #0]
 8001bdc:	2201      	movs	r2, #1
 8001bde:	4619      	mov	r1, r3
 8001be0:	4825      	ldr	r0, [pc, #148]	; (8001c78 <stm32__device___elabs+0x10c0>)
 8001be2:	f003 fbdd 	bl	80053a0 <stm32__spi__spi_portIP>
 8001be6:	4825      	ldr	r0, [pc, #148]	; (8001c7c <stm32__device___elabs+0x10c4>)
 8001be8:	f7fe ffa0 	bl	8000b2c <stm32__device__s_ns_periph>
 8001bec:	4603      	mov	r3, r0
 8001bee:	633b      	str	r3, [r7, #48]	; 0x30
 8001bf0:	4a23      	ldr	r2, [pc, #140]	; (8001c80 <stm32__device___elabs+0x10c8>)
 8001bf2:	f107 0330 	add.w	r3, r7, #48	; 0x30
 8001bf6:	6013      	str	r3, [r2, #0]
 8001bf8:	4b21      	ldr	r3, [pc, #132]	; (8001c80 <stm32__device___elabs+0x10c8>)
 8001bfa:	681b      	ldr	r3, [r3, #0]
 8001bfc:	681b      	ldr	r3, [r3, #0]
 8001bfe:	461a      	mov	r2, r3
 8001c00:	4b20      	ldr	r3, [pc, #128]	; (8001c84 <stm32__device___elabs+0x10cc>)
 8001c02:	601a      	str	r2, [r3, #0]
 8001c04:	4b1e      	ldr	r3, [pc, #120]	; (8001c80 <stm32__device___elabs+0x10c8>)
 8001c06:	681b      	ldr	r3, [r3, #0]
 8001c08:	681b      	ldr	r3, [r3, #0]
 8001c0a:	f003 0303 	and.w	r3, r3, #3
 8001c0e:	2b00      	cmp	r3, #0
 8001c10:	d004      	beq.n	8001c1c <stm32__device___elabs+0x1064>
 8001c12:	f240 111d 	movw	r1, #285	; 0x11d
 8001c16:	481c      	ldr	r0, [pc, #112]	; (8001c88 <stm32__device___elabs+0x10d0>)
 8001c18:	f007 fa38 	bl	800908c <__gnat_rcheck_PE_Misaligned_Address_Value>
 8001c1c:	4b19      	ldr	r3, [pc, #100]	; (8001c84 <stm32__device___elabs+0x10cc>)
 8001c1e:	681b      	ldr	r3, [r3, #0]
 8001c20:	2201      	movs	r2, #1
 8001c22:	4619      	mov	r1, r3
 8001c24:	4819      	ldr	r0, [pc, #100]	; (8001c8c <stm32__device___elabs+0x10d4>)
 8001c26:	f003 fbbb 	bl	80053a0 <stm32__spi__spi_portIP>
 8001c2a:	4819      	ldr	r0, [pc, #100]	; (8001c90 <stm32__device___elabs+0x10d8>)
 8001c2c:	f7fe ff7e 	bl	8000b2c <stm32__device__s_ns_periph>
 8001c30:	4603      	mov	r3, r0
 8001c32:	637b      	str	r3, [r7, #52]	; 0x34
 8001c34:	4a17      	ldr	r2, [pc, #92]	; (8001c94 <stm32__device___elabs+0x10dc>)
 8001c36:	f107 0334 	add.w	r3, r7, #52	; 0x34
 8001c3a:	6013      	str	r3, [r2, #0]
 8001c3c:	4b15      	ldr	r3, [pc, #84]	; (8001c94 <stm32__device___elabs+0x10dc>)
 8001c3e:	681b      	ldr	r3, [r3, #0]
 8001c40:	681b      	ldr	r3, [r3, #0]
 8001c42:	461a      	mov	r2, r3
 8001c44:	4b14      	ldr	r3, [pc, #80]	; (8001c98 <stm32__device___elabs+0x10e0>)
 8001c46:	601a      	str	r2, [r3, #0]
 8001c48:	4b12      	ldr	r3, [pc, #72]	; (8001c94 <stm32__device___elabs+0x10dc>)
 8001c4a:	681b      	ldr	r3, [r3, #0]
 8001c4c:	681b      	ldr	r3, [r3, #0]
 8001c4e:	f003 0303 	and.w	r3, r3, #3
 8001c52:	2b00      	cmp	r3, #0
 8001c54:	d004      	beq.n	8001c60 <stm32__device___elabs+0x10a8>
 8001c56:	f240 111f 	movw	r1, #287	; 0x11f
 8001c5a:	480b      	ldr	r0, [pc, #44]	; (8001c88 <stm32__device___elabs+0x10d0>)
 8001c5c:	f007 fa16 	bl	800908c <__gnat_rcheck_PE_Misaligned_Address_Value>
 8001c60:	4b0d      	ldr	r3, [pc, #52]	; (8001c98 <stm32__device___elabs+0x10e0>)
 8001c62:	681b      	ldr	r3, [r3, #0]
 8001c64:	2201      	movs	r2, #1
 8001c66:	4619      	mov	r1, r3
 8001c68:	480c      	ldr	r0, [pc, #48]	; (8001c9c <stm32__device___elabs+0x10e4>)
 8001c6a:	f003 fb99 	bl	80053a0 <stm32__spi__spi_portIP>
 8001c6e:	3738      	adds	r7, #56	; 0x38
 8001c70:	46bd      	mov	sp, r7
 8001c72:	bd80      	pop	{r7, pc}
 8001c74:	20000b34 	.word	0x20000b34
 8001c78:	20000b38 	.word	0x20000b38
 8001c7c:	40003800 	.word	0x40003800
 8001c80:	20000b40 	.word	0x20000b40
 8001c84:	20000b44 	.word	0x20000b44
 8001c88:	0800d358 	.word	0x0800d358
 8001c8c:	20000b48 	.word	0x20000b48
 8001c90:	46002000 	.word	0x46002000
 8001c94:	20000b50 	.word	0x20000b50
 8001c98:	20000b54 	.word	0x20000b54
 8001c9c:	20000b58 	.word	0x20000b58

08001ca0 <stm32__exti__enable_external_interrupt>:
 8001ca0:	b580      	push	{r7, lr}
 8001ca2:	b088      	sub	sp, #32
 8001ca4:	af00      	add	r7, sp, #0
 8001ca6:	4603      	mov	r3, r0
 8001ca8:	71fb      	strb	r3, [r7, #7]
 8001caa:	460b      	mov	r3, r1
 8001cac:	71bb      	strb	r3, [r7, #6]
 8001cae:	4613      	mov	r3, r2
 8001cb0:	717b      	strb	r3, [r7, #5]
 8001cb2:	79fb      	ldrb	r3, [r7, #7]
 8001cb4:	61fb      	str	r3, [r7, #28]
 8001cb6:	69fb      	ldr	r3, [r7, #28]
 8001cb8:	2b16      	cmp	r3, #22
 8001cba:	dd03      	ble.n	8001cc4 <stm32__exti__enable_external_interrupt+0x24>
 8001cbc:	213c      	movs	r1, #60	; 0x3c
 8001cbe:	4858      	ldr	r0, [pc, #352]	; (8001e20 <stm32__exti__enable_external_interrupt+0x180>)
 8001cc0:	f007 f9b8 	bl	8009034 <__gnat_rcheck_CE_Index_Check>
 8001cc4:	4b57      	ldr	r3, [pc, #348]	; (8001e24 <stm32__exti__enable_external_interrupt+0x184>)
 8001cc6:	3380      	adds	r3, #128	; 0x80
 8001cc8:	681b      	ldr	r3, [r3, #0]
 8001cca:	f3c3 0216 	ubfx	r2, r3, #0, #23
 8001cce:	69bb      	ldr	r3, [r7, #24]
 8001cd0:	f362 0316 	bfi	r3, r2, #0, #23
 8001cd4:	61bb      	str	r3, [r7, #24]
 8001cd6:	69bb      	ldr	r3, [r7, #24]
 8001cd8:	f3c3 0316 	ubfx	r3, r3, #0, #23
 8001cdc:	4619      	mov	r1, r3
 8001cde:	69fb      	ldr	r3, [r7, #28]
 8001ce0:	2201      	movs	r2, #1
 8001ce2:	fa02 f303 	lsl.w	r3, r2, r3
 8001ce6:	ea41 0203 	orr.w	r2, r1, r3
 8001cea:	4b4e      	ldr	r3, [pc, #312]	; (8001e24 <stm32__exti__enable_external_interrupt+0x184>)
 8001cec:	3380      	adds	r3, #128	; 0x80
 8001cee:	681b      	ldr	r3, [r3, #0]
 8001cf0:	f3c2 0216 	ubfx	r2, r2, #0, #23
 8001cf4:	f362 0316 	bfi	r3, r2, #0, #23
 8001cf8:	4a4a      	ldr	r2, [pc, #296]	; (8001e24 <stm32__exti__enable_external_interrupt+0x184>)
 8001cfa:	3280      	adds	r2, #128	; 0x80
 8001cfc:	6013      	str	r3, [r2, #0]
 8001cfe:	69fb      	ldr	r3, [r7, #28]
 8001d00:	2b16      	cmp	r3, #22
 8001d02:	dd03      	ble.n	8001d0c <stm32__exti__enable_external_interrupt+0x6c>
 8001d04:	213d      	movs	r1, #61	; 0x3d
 8001d06:	4846      	ldr	r0, [pc, #280]	; (8001e20 <stm32__exti__enable_external_interrupt+0x180>)
 8001d08:	f007 f994 	bl	8009034 <__gnat_rcheck_CE_Index_Check>
 8001d0c:	4b45      	ldr	r3, [pc, #276]	; (8001e24 <stm32__exti__enable_external_interrupt+0x184>)
 8001d0e:	3314      	adds	r3, #20
 8001d10:	681b      	ldr	r3, [r3, #0]
 8001d12:	f3c3 0216 	ubfx	r2, r3, #0, #23
 8001d16:	697b      	ldr	r3, [r7, #20]
 8001d18:	f362 0316 	bfi	r3, r2, #0, #23
 8001d1c:	617b      	str	r3, [r7, #20]
 8001d1e:	697b      	ldr	r3, [r7, #20]
 8001d20:	f3c3 0316 	ubfx	r3, r3, #0, #23
 8001d24:	4619      	mov	r1, r3
 8001d26:	69fb      	ldr	r3, [r7, #28]
 8001d28:	2201      	movs	r2, #1
 8001d2a:	fa02 f303 	lsl.w	r3, r2, r3
 8001d2e:	43db      	mvns	r3, r3
 8001d30:	ea01 0203 	and.w	r2, r1, r3
 8001d34:	7979      	ldrb	r1, [r7, #5]
 8001d36:	69fb      	ldr	r3, [r7, #28]
 8001d38:	fa01 f303 	lsl.w	r3, r1, r3
 8001d3c:	431a      	orrs	r2, r3
 8001d3e:	4b39      	ldr	r3, [pc, #228]	; (8001e24 <stm32__exti__enable_external_interrupt+0x184>)
 8001d40:	3314      	adds	r3, #20
 8001d42:	681b      	ldr	r3, [r3, #0]
 8001d44:	f3c2 0216 	ubfx	r2, r2, #0, #23
 8001d48:	f362 0316 	bfi	r3, r2, #0, #23
 8001d4c:	4a35      	ldr	r2, [pc, #212]	; (8001e24 <stm32__exti__enable_external_interrupt+0x184>)
 8001d4e:	3214      	adds	r2, #20
 8001d50:	6013      	str	r3, [r2, #0]
 8001d52:	69fb      	ldr	r3, [r7, #28]
 8001d54:	2b16      	cmp	r3, #22
 8001d56:	dd03      	ble.n	8001d60 <stm32__exti__enable_external_interrupt+0xc0>
 8001d58:	213e      	movs	r1, #62	; 0x3e
 8001d5a:	4831      	ldr	r0, [pc, #196]	; (8001e20 <stm32__exti__enable_external_interrupt+0x180>)
 8001d5c:	f007 f96a 	bl	8009034 <__gnat_rcheck_CE_Index_Check>
 8001d60:	4b30      	ldr	r3, [pc, #192]	; (8001e24 <stm32__exti__enable_external_interrupt+0x184>)
 8001d62:	681b      	ldr	r3, [r3, #0]
 8001d64:	f3c3 0216 	ubfx	r2, r3, #0, #23
 8001d68:	693b      	ldr	r3, [r7, #16]
 8001d6a:	f362 0316 	bfi	r3, r2, #0, #23
 8001d6e:	613b      	str	r3, [r7, #16]
 8001d70:	693b      	ldr	r3, [r7, #16]
 8001d72:	f3c3 0316 	ubfx	r3, r3, #0, #23
 8001d76:	4619      	mov	r1, r3
 8001d78:	69fb      	ldr	r3, [r7, #28]
 8001d7a:	2201      	movs	r2, #1
 8001d7c:	fa02 f303 	lsl.w	r3, r2, r3
 8001d80:	43db      	mvns	r3, r3
 8001d82:	ea01 0203 	and.w	r2, r1, r3
 8001d86:	79bb      	ldrb	r3, [r7, #6]
 8001d88:	2b00      	cmp	r3, #0
 8001d8a:	d002      	beq.n	8001d92 <stm32__exti__enable_external_interrupt+0xf2>
 8001d8c:	79bb      	ldrb	r3, [r7, #6]
 8001d8e:	2b02      	cmp	r3, #2
 8001d90:	d101      	bne.n	8001d96 <stm32__exti__enable_external_interrupt+0xf6>
 8001d92:	2301      	movs	r3, #1
 8001d94:	e000      	b.n	8001d98 <stm32__exti__enable_external_interrupt+0xf8>
 8001d96:	2300      	movs	r3, #0
 8001d98:	4619      	mov	r1, r3
 8001d9a:	69fb      	ldr	r3, [r7, #28]
 8001d9c:	fa01 f303 	lsl.w	r3, r1, r3
 8001da0:	431a      	orrs	r2, r3
 8001da2:	4b20      	ldr	r3, [pc, #128]	; (8001e24 <stm32__exti__enable_external_interrupt+0x184>)
 8001da4:	681b      	ldr	r3, [r3, #0]
 8001da6:	f3c2 0216 	ubfx	r2, r2, #0, #23
 8001daa:	f362 0316 	bfi	r3, r2, #0, #23
 8001dae:	4a1d      	ldr	r2, [pc, #116]	; (8001e24 <stm32__exti__enable_external_interrupt+0x184>)
 8001db0:	6013      	str	r3, [r2, #0]
 8001db2:	69fb      	ldr	r3, [r7, #28]
 8001db4:	2b16      	cmp	r3, #22
 8001db6:	dd03      	ble.n	8001dc0 <stm32__exti__enable_external_interrupt+0x120>
 8001db8:	2140      	movs	r1, #64	; 0x40
 8001dba:	4819      	ldr	r0, [pc, #100]	; (8001e20 <stm32__exti__enable_external_interrupt+0x180>)
 8001dbc:	f007 f93a 	bl	8009034 <__gnat_rcheck_CE_Index_Check>
 8001dc0:	4b18      	ldr	r3, [pc, #96]	; (8001e24 <stm32__exti__enable_external_interrupt+0x184>)
 8001dc2:	3304      	adds	r3, #4
 8001dc4:	681b      	ldr	r3, [r3, #0]
 8001dc6:	f3c3 0216 	ubfx	r2, r3, #0, #23
 8001dca:	68fb      	ldr	r3, [r7, #12]
 8001dcc:	f362 0316 	bfi	r3, r2, #0, #23
 8001dd0:	60fb      	str	r3, [r7, #12]
 8001dd2:	68fb      	ldr	r3, [r7, #12]
 8001dd4:	f3c3 0316 	ubfx	r3, r3, #0, #23
 8001dd8:	4619      	mov	r1, r3
 8001dda:	69fb      	ldr	r3, [r7, #28]
 8001ddc:	2201      	movs	r2, #1
 8001dde:	fa02 f303 	lsl.w	r3, r2, r3
 8001de2:	43db      	mvns	r3, r3
 8001de4:	ea01 0203 	and.w	r2, r1, r3
 8001de8:	79bb      	ldrb	r3, [r7, #6]
 8001dea:	2b01      	cmp	r3, #1
 8001dec:	d002      	beq.n	8001df4 <stm32__exti__enable_external_interrupt+0x154>
 8001dee:	79bb      	ldrb	r3, [r7, #6]
 8001df0:	2b02      	cmp	r3, #2
 8001df2:	d101      	bne.n	8001df8 <stm32__exti__enable_external_interrupt+0x158>
 8001df4:	2301      	movs	r3, #1
 8001df6:	e000      	b.n	8001dfa <stm32__exti__enable_external_interrupt+0x15a>
 8001df8:	2300      	movs	r3, #0
 8001dfa:	4619      	mov	r1, r3
 8001dfc:	69fb      	ldr	r3, [r7, #28]
 8001dfe:	fa01 f303 	lsl.w	r3, r1, r3
 8001e02:	431a      	orrs	r2, r3
 8001e04:	4b07      	ldr	r3, [pc, #28]	; (8001e24 <stm32__exti__enable_external_interrupt+0x184>)
 8001e06:	3304      	adds	r3, #4
 8001e08:	681b      	ldr	r3, [r3, #0]
 8001e0a:	f3c2 0216 	ubfx	r2, r2, #0, #23
 8001e0e:	f362 0316 	bfi	r3, r2, #0, #23
 8001e12:	4a04      	ldr	r2, [pc, #16]	; (8001e24 <stm32__exti__enable_external_interrupt+0x184>)
 8001e14:	3204      	adds	r2, #4
 8001e16:	6013      	str	r3, [r2, #0]
 8001e18:	3720      	adds	r7, #32
 8001e1a:	46bd      	mov	sp, r7
 8001e1c:	bd80      	pop	{r7, pc}
 8001e1e:	bf00      	nop
 8001e20:	0800d388 	.word	0x0800d388
 8001e24:	46022000 	.word	0x46022000

08001e28 <stm32__exti__enable_external_event>:
 8001e28:	b580      	push	{r7, lr}
 8001e2a:	b086      	sub	sp, #24
 8001e2c:	af00      	add	r7, sp, #0
 8001e2e:	4603      	mov	r3, r0
 8001e30:	460a      	mov	r2, r1
 8001e32:	71fb      	strb	r3, [r7, #7]
 8001e34:	4613      	mov	r3, r2
 8001e36:	71bb      	strb	r3, [r7, #6]
 8001e38:	79fb      	ldrb	r3, [r7, #7]
 8001e3a:	617b      	str	r3, [r7, #20]
 8001e3c:	697b      	ldr	r3, [r7, #20]
 8001e3e:	2b16      	cmp	r3, #22
 8001e40:	dd03      	ble.n	8001e4a <stm32__exti__enable_external_event+0x22>
 8001e42:	215a      	movs	r1, #90	; 0x5a
 8001e44:	4842      	ldr	r0, [pc, #264]	; (8001f50 <stm32__exti__enable_external_event+0x128>)
 8001e46:	f007 f8f5 	bl	8009034 <__gnat_rcheck_CE_Index_Check>
 8001e4a:	4b42      	ldr	r3, [pc, #264]	; (8001f54 <stm32__exti__enable_external_event+0x12c>)
 8001e4c:	3384      	adds	r3, #132	; 0x84
 8001e4e:	681b      	ldr	r3, [r3, #0]
 8001e50:	f3c3 0216 	ubfx	r2, r3, #0, #23
 8001e54:	693b      	ldr	r3, [r7, #16]
 8001e56:	f362 0316 	bfi	r3, r2, #0, #23
 8001e5a:	613b      	str	r3, [r7, #16]
 8001e5c:	693b      	ldr	r3, [r7, #16]
 8001e5e:	f3c3 0316 	ubfx	r3, r3, #0, #23
 8001e62:	4619      	mov	r1, r3
 8001e64:	697b      	ldr	r3, [r7, #20]
 8001e66:	2201      	movs	r2, #1
 8001e68:	fa02 f303 	lsl.w	r3, r2, r3
 8001e6c:	ea41 0203 	orr.w	r2, r1, r3
 8001e70:	4b38      	ldr	r3, [pc, #224]	; (8001f54 <stm32__exti__enable_external_event+0x12c>)
 8001e72:	3384      	adds	r3, #132	; 0x84
 8001e74:	681b      	ldr	r3, [r3, #0]
 8001e76:	f3c2 0216 	ubfx	r2, r2, #0, #23
 8001e7a:	f362 0316 	bfi	r3, r2, #0, #23
 8001e7e:	4a35      	ldr	r2, [pc, #212]	; (8001f54 <stm32__exti__enable_external_event+0x12c>)
 8001e80:	3284      	adds	r2, #132	; 0x84
 8001e82:	6013      	str	r3, [r2, #0]
 8001e84:	697b      	ldr	r3, [r7, #20]
 8001e86:	2b16      	cmp	r3, #22
 8001e88:	dd03      	ble.n	8001e92 <stm32__exti__enable_external_event+0x6a>
 8001e8a:	215b      	movs	r1, #91	; 0x5b
 8001e8c:	4830      	ldr	r0, [pc, #192]	; (8001f50 <stm32__exti__enable_external_event+0x128>)
 8001e8e:	f007 f8d1 	bl	8009034 <__gnat_rcheck_CE_Index_Check>
 8001e92:	4b30      	ldr	r3, [pc, #192]	; (8001f54 <stm32__exti__enable_external_event+0x12c>)
 8001e94:	681b      	ldr	r3, [r3, #0]
 8001e96:	f3c3 0216 	ubfx	r2, r3, #0, #23
 8001e9a:	68fb      	ldr	r3, [r7, #12]
 8001e9c:	f362 0316 	bfi	r3, r2, #0, #23
 8001ea0:	60fb      	str	r3, [r7, #12]
 8001ea2:	68fb      	ldr	r3, [r7, #12]
 8001ea4:	f3c3 0316 	ubfx	r3, r3, #0, #23
 8001ea8:	4619      	mov	r1, r3
 8001eaa:	697b      	ldr	r3, [r7, #20]
 8001eac:	2201      	movs	r2, #1
 8001eae:	fa02 f303 	lsl.w	r3, r2, r3
 8001eb2:	43db      	mvns	r3, r3
 8001eb4:	ea01 0203 	and.w	r2, r1, r3
 8001eb8:	79bb      	ldrb	r3, [r7, #6]
 8001eba:	2b00      	cmp	r3, #0
 8001ebc:	d002      	beq.n	8001ec4 <stm32__exti__enable_external_event+0x9c>
 8001ebe:	79bb      	ldrb	r3, [r7, #6]
 8001ec0:	2b02      	cmp	r3, #2
 8001ec2:	d101      	bne.n	8001ec8 <stm32__exti__enable_external_event+0xa0>
 8001ec4:	2301      	movs	r3, #1
 8001ec6:	e000      	b.n	8001eca <stm32__exti__enable_external_event+0xa2>
 8001ec8:	2300      	movs	r3, #0
 8001eca:	4619      	mov	r1, r3
 8001ecc:	697b      	ldr	r3, [r7, #20]
 8001ece:	fa01 f303 	lsl.w	r3, r1, r3
 8001ed2:	431a      	orrs	r2, r3
 8001ed4:	4b1f      	ldr	r3, [pc, #124]	; (8001f54 <stm32__exti__enable_external_event+0x12c>)
 8001ed6:	681b      	ldr	r3, [r3, #0]
 8001ed8:	f3c2 0216 	ubfx	r2, r2, #0, #23
 8001edc:	f362 0316 	bfi	r3, r2, #0, #23
 8001ee0:	4a1c      	ldr	r2, [pc, #112]	; (8001f54 <stm32__exti__enable_external_event+0x12c>)
 8001ee2:	6013      	str	r3, [r2, #0]
 8001ee4:	697b      	ldr	r3, [r7, #20]
 8001ee6:	2b16      	cmp	r3, #22
 8001ee8:	dd03      	ble.n	8001ef2 <stm32__exti__enable_external_event+0xca>
 8001eea:	215d      	movs	r1, #93	; 0x5d
 8001eec:	4818      	ldr	r0, [pc, #96]	; (8001f50 <stm32__exti__enable_external_event+0x128>)
 8001eee:	f007 f8a1 	bl	8009034 <__gnat_rcheck_CE_Index_Check>
 8001ef2:	4b18      	ldr	r3, [pc, #96]	; (8001f54 <stm32__exti__enable_external_event+0x12c>)
 8001ef4:	3304      	adds	r3, #4
 8001ef6:	681b      	ldr	r3, [r3, #0]
 8001ef8:	f3c3 0216 	ubfx	r2, r3, #0, #23
 8001efc:	68bb      	ldr	r3, [r7, #8]
 8001efe:	f362 0316 	bfi	r3, r2, #0, #23
 8001f02:	60bb      	str	r3, [r7, #8]
 8001f04:	68bb      	ldr	r3, [r7, #8]
 8001f06:	f3c3 0316 	ubfx	r3, r3, #0, #23
 8001f0a:	4619      	mov	r1, r3
 8001f0c:	697b      	ldr	r3, [r7, #20]
 8001f0e:	2201      	movs	r2, #1
 8001f10:	fa02 f303 	lsl.w	r3, r2, r3
 8001f14:	43db      	mvns	r3, r3
 8001f16:	ea01 0203 	and.w	r2, r1, r3
 8001f1a:	79bb      	ldrb	r3, [r7, #6]
 8001f1c:	2b01      	cmp	r3, #1
 8001f1e:	d002      	beq.n	8001f26 <stm32__exti__enable_external_event+0xfe>
 8001f20:	79bb      	ldrb	r3, [r7, #6]
 8001f22:	2b02      	cmp	r3, #2
 8001f24:	d101      	bne.n	8001f2a <stm32__exti__enable_external_event+0x102>
 8001f26:	2301      	movs	r3, #1
 8001f28:	e000      	b.n	8001f2c <stm32__exti__enable_external_event+0x104>
 8001f2a:	2300      	movs	r3, #0
 8001f2c:	4619      	mov	r1, r3
 8001f2e:	697b      	ldr	r3, [r7, #20]
 8001f30:	fa01 f303 	lsl.w	r3, r1, r3
 8001f34:	431a      	orrs	r2, r3
 8001f36:	4b07      	ldr	r3, [pc, #28]	; (8001f54 <stm32__exti__enable_external_event+0x12c>)
 8001f38:	3304      	adds	r3, #4
 8001f3a:	681b      	ldr	r3, [r3, #0]
 8001f3c:	f3c2 0216 	ubfx	r2, r2, #0, #23
 8001f40:	f362 0316 	bfi	r3, r2, #0, #23
 8001f44:	4a03      	ldr	r2, [pc, #12]	; (8001f54 <stm32__exti__enable_external_event+0x12c>)
 8001f46:	3204      	adds	r2, #4
 8001f48:	6013      	str	r3, [r2, #0]
 8001f4a:	3718      	adds	r7, #24
 8001f4c:	46bd      	mov	sp, r7
 8001f4e:	bd80      	pop	{r7, pc}
 8001f50:	0800d388 	.word	0x0800d388
 8001f54:	46022000 	.word	0x46022000

08001f58 <stm32__gpio__gpio_pinRP>:
 8001f58:	b580      	push	{r7, lr}
 8001f5a:	b082      	sub	sp, #8
 8001f5c:	af00      	add	r7, sp, #0
 8001f5e:	4603      	mov	r3, r0
 8001f60:	460a      	mov	r2, r1
 8001f62:	80fb      	strh	r3, [r7, #6]
 8001f64:	4613      	mov	r3, r2
 8001f66:	717b      	strb	r3, [r7, #5]
 8001f68:	88fb      	ldrh	r3, [r7, #6]
 8001f6a:	2b80      	cmp	r3, #128	; 0x80
 8001f6c:	d042      	beq.n	8001ff4 <stm32__gpio__gpio_pinRP+0x9c>
 8001f6e:	2b80      	cmp	r3, #128	; 0x80
 8001f70:	d811      	bhi.n	8001f96 <stm32__gpio__gpio_pinRP+0x3e>
 8001f72:	2b08      	cmp	r3, #8
 8001f74:	d036      	beq.n	8001fe4 <stm32__gpio__gpio_pinRP+0x8c>
 8001f76:	2b08      	cmp	r3, #8
 8001f78:	d806      	bhi.n	8001f88 <stm32__gpio__gpio_pinRP+0x30>
 8001f7a:	2b02      	cmp	r3, #2
 8001f7c:	d02e      	beq.n	8001fdc <stm32__gpio__gpio_pinRP+0x84>
 8001f7e:	2b04      	cmp	r3, #4
 8001f80:	d02e      	beq.n	8001fe0 <stm32__gpio__gpio_pinRP+0x88>
 8001f82:	2b01      	cmp	r3, #1
 8001f84:	d028      	beq.n	8001fd8 <stm32__gpio__gpio_pinRP+0x80>
 8001f86:	e047      	b.n	8002018 <stm32__gpio__gpio_pinRP+0xc0>
 8001f88:	2b20      	cmp	r3, #32
 8001f8a:	d02f      	beq.n	8001fec <stm32__gpio__gpio_pinRP+0x94>
 8001f8c:	2b40      	cmp	r3, #64	; 0x40
 8001f8e:	d02f      	beq.n	8001ff0 <stm32__gpio__gpio_pinRP+0x98>
 8001f90:	2b10      	cmp	r3, #16
 8001f92:	d029      	beq.n	8001fe8 <stm32__gpio__gpio_pinRP+0x90>
 8001f94:	e040      	b.n	8002018 <stm32__gpio__gpio_pinRP+0xc0>
 8001f96:	f5b3 6f00 	cmp.w	r3, #2048	; 0x800
 8001f9a:	d033      	beq.n	8002004 <stm32__gpio__gpio_pinRP+0xac>
 8001f9c:	f5b3 6f00 	cmp.w	r3, #2048	; 0x800
 8001fa0:	d809      	bhi.n	8001fb6 <stm32__gpio__gpio_pinRP+0x5e>
 8001fa2:	f5b3 7f00 	cmp.w	r3, #512	; 0x200
 8001fa6:	d029      	beq.n	8001ffc <stm32__gpio__gpio_pinRP+0xa4>
 8001fa8:	f5b3 6f80 	cmp.w	r3, #1024	; 0x400
 8001fac:	d028      	beq.n	8002000 <stm32__gpio__gpio_pinRP+0xa8>
 8001fae:	f5b3 7f80 	cmp.w	r3, #256	; 0x100
 8001fb2:	d021      	beq.n	8001ff8 <stm32__gpio__gpio_pinRP+0xa0>
 8001fb4:	e030      	b.n	8002018 <stm32__gpio__gpio_pinRP+0xc0>
 8001fb6:	f5b3 5f00 	cmp.w	r3, #8192	; 0x2000
 8001fba:	d027      	beq.n	800200c <stm32__gpio__gpio_pinRP+0xb4>
 8001fbc:	f5b3 5f00 	cmp.w	r3, #8192	; 0x2000
 8001fc0:	d803      	bhi.n	8001fca <stm32__gpio__gpio_pinRP+0x72>
 8001fc2:	f5b3 5f80 	cmp.w	r3, #4096	; 0x1000
 8001fc6:	d01f      	beq.n	8002008 <stm32__gpio__gpio_pinRP+0xb0>
 8001fc8:	e026      	b.n	8002018 <stm32__gpio__gpio_pinRP+0xc0>
 8001fca:	f5b3 4f80 	cmp.w	r3, #16384	; 0x4000
 8001fce:	d01f      	beq.n	8002010 <stm32__gpio__gpio_pinRP+0xb8>
 8001fd0:	f5b3 4f00 	cmp.w	r3, #32768	; 0x8000
 8001fd4:	d01e      	beq.n	8002014 <stm32__gpio__gpio_pinRP+0xbc>
 8001fd6:	e01f      	b.n	8002018 <stm32__gpio__gpio_pinRP+0xc0>
 8001fd8:	2300      	movs	r3, #0
 8001fda:	e026      	b.n	800202a <stm32__gpio__gpio_pinRP+0xd2>
 8001fdc:	2301      	movs	r3, #1
 8001fde:	e024      	b.n	800202a <stm32__gpio__gpio_pinRP+0xd2>
 8001fe0:	2302      	movs	r3, #2
 8001fe2:	e022      	b.n	800202a <stm32__gpio__gpio_pinRP+0xd2>
 8001fe4:	2303      	movs	r3, #3
 8001fe6:	e020      	b.n	800202a <stm32__gpio__gpio_pinRP+0xd2>
 8001fe8:	2304      	movs	r3, #4
 8001fea:	e01e      	b.n	800202a <stm32__gpio__gpio_pinRP+0xd2>
 8001fec:	2305      	movs	r3, #5
 8001fee:	e01c      	b.n	800202a <stm32__gpio__gpio_pinRP+0xd2>
 8001ff0:	2306      	movs	r3, #6
 8001ff2:	e01a      	b.n	800202a <stm32__gpio__gpio_pinRP+0xd2>
 8001ff4:	2307      	movs	r3, #7
 8001ff6:	e018      	b.n	800202a <stm32__gpio__gpio_pinRP+0xd2>
 8001ff8:	2308      	movs	r3, #8
 8001ffa:	e016      	b.n	800202a <stm32__gpio__gpio_pinRP+0xd2>
 8001ffc:	2309      	movs	r3, #9
 8001ffe:	e014      	b.n	800202a <stm32__gpio__gpio_pinRP+0xd2>
 8002000:	230a      	movs	r3, #10
 8002002:	e012      	b.n	800202a <stm32__gpio__gpio_pinRP+0xd2>
 8002004:	230b      	movs	r3, #11
 8002006:	e010      	b.n	800202a <stm32__gpio__gpio_pinRP+0xd2>
 8002008:	230c      	movs	r3, #12
 800200a:	e00e      	b.n	800202a <stm32__gpio__gpio_pinRP+0xd2>
 800200c:	230d      	movs	r3, #13
 800200e:	e00c      	b.n	800202a <stm32__gpio__gpio_pinRP+0xd2>
 8002010:	230e      	movs	r3, #14
 8002012:	e00a      	b.n	800202a <stm32__gpio__gpio_pinRP+0xd2>
 8002014:	230f      	movs	r3, #15
 8002016:	e008      	b.n	800202a <stm32__gpio__gpio_pinRP+0xd2>
 8002018:	797b      	ldrb	r3, [r7, #5]
 800201a:	2b00      	cmp	r3, #0
 800201c:	d003      	beq.n	8002026 <stm32__gpio__gpio_pinRP+0xce>
 800201e:	2135      	movs	r1, #53	; 0x35
 8002020:	4804      	ldr	r0, [pc, #16]	; (8002034 <stm32__gpio__gpio_pinRP+0xdc>)
 8002022:	f007 f80f 	bl	8009044 <__gnat_rcheck_CE_Invalid_Data>
 8002026:	f04f 33ff 	mov.w	r3, #4294967295	; 0xffffffff
 800202a:	4618      	mov	r0, r3
 800202c:	3708      	adds	r7, #8
 800202e:	46bd      	mov	sp, r7
 8002030:	bd80      	pop	{r7, pc}
 8002032:	bf00      	nop
 8002034:	0800d398 	.word	0x0800d398

08002038 <stm32__gpio__gpio_pointIP>:
 8002038:	b480      	push	{r7}
 800203a:	b083      	sub	sp, #12
 800203c:	af00      	add	r7, sp, #0
 800203e:	6078      	str	r0, [r7, #4]
 8002040:	460b      	mov	r3, r1
 8002042:	70fb      	strb	r3, [r7, #3]
 8002044:	78fb      	ldrb	r3, [r7, #3]
 8002046:	2b00      	cmp	r3, #0
 8002048:	d002      	beq.n	8002050 <stm32__gpio__gpio_pointIP+0x18>
 800204a:	4a05      	ldr	r2, [pc, #20]	; (8002060 <stm32__gpio__gpio_pointIP+0x28>)
 800204c:	687b      	ldr	r3, [r7, #4]
 800204e:	601a      	str	r2, [r3, #0]
 8002050:	687b      	ldr	r3, [r7, #4]
 8002052:	2200      	movs	r2, #0
 8002054:	605a      	str	r2, [r3, #4]
 8002056:	370c      	adds	r7, #12
 8002058:	46bd      	mov	sp, r7
 800205a:	f85d 7b04 	ldr.w	r7, [sp], #4
 800205e:	4770      	bx	lr
 8002060:	0800d568 	.word	0x0800d568

08002064 <stm32__gpio___size__2>:
 8002064:	b490      	push	{r4, r7}
 8002066:	b082      	sub	sp, #8
 8002068:	af00      	add	r7, sp, #0
 800206a:	6078      	str	r0, [r7, #4]
 800206c:	f04f 0360 	mov.w	r3, #96	; 0x60
 8002070:	f04f 0400 	mov.w	r4, #0
 8002074:	4618      	mov	r0, r3
 8002076:	4621      	mov	r1, r4
 8002078:	3708      	adds	r7, #8
 800207a:	46bd      	mov	sp, r7
 800207c:	bc90      	pop	{r4, r7}
 800207e:	4770      	bx	lr

08002080 <stm32__gpio__gpio_pointSR__2>:
 8002080:	b580      	push	{r7, lr}
 8002082:	b084      	sub	sp, #16
 8002084:	af00      	add	r7, sp, #0
 8002086:	60f8      	str	r0, [r7, #12]
 8002088:	60b9      	str	r1, [r7, #8]
 800208a:	607a      	str	r2, [r7, #4]
 800208c:	68f8      	ldr	r0, [r7, #12]
 800208e:	f008 fb11 	bl	800a6b4 <system__stream_attributes__i_as>
 8002092:	4603      	mov	r3, r0
 8002094:	461a      	mov	r2, r3
 8002096:	68bb      	ldr	r3, [r7, #8]
 8002098:	605a      	str	r2, [r3, #4]
 800209a:	68f8      	ldr	r0, [r7, #12]
 800209c:	f008 fb62 	bl	800a764 <system__stream_attributes__i_su>
 80020a0:	4603      	mov	r3, r0
 80020a2:	461a      	mov	r2, r3
 80020a4:	68bb      	ldr	r3, [r7, #8]
 80020a6:	811a      	strh	r2, [r3, #8]
 80020a8:	3710      	adds	r7, #16
 80020aa:	46bd      	mov	sp, r7
 80020ac:	bd80      	pop	{r7, pc}
 80020ae:	bf00      	nop

080020b0 <stm32__gpio__gpio_pointSW__2>:
 80020b0:	b580      	push	{r7, lr}
 80020b2:	b084      	sub	sp, #16
 80020b4:	af00      	add	r7, sp, #0
 80020b6:	60f8      	str	r0, [r7, #12]
 80020b8:	60b9      	str	r1, [r7, #8]
 80020ba:	607a      	str	r2, [r7, #4]
 80020bc:	68bb      	ldr	r3, [r7, #8]
 80020be:	6859      	ldr	r1, [r3, #4]
 80020c0:	68f8      	ldr	r0, [r7, #12]
 80020c2:	f008 fb89 	bl	800a7d8 <system__stream_attributes__w_as>
 80020c6:	68bb      	ldr	r3, [r7, #8]
 80020c8:	891b      	ldrh	r3, [r3, #8]
 80020ca:	4619      	mov	r1, r3
 80020cc:	68f8      	ldr	r0, [r7, #12]
 80020ce:	f008 fbaf 	bl	800a830 <system__stream_attributes__w_su>
 80020d2:	3710      	adds	r7, #16
 80020d4:	46bd      	mov	sp, r7
 80020d6:	bd80      	pop	{r7, pc}

080020d8 <stm32__gpio__gpio_pointSI__2>:
 80020d8:	b5b0      	push	{r4, r5, r7, lr}
 80020da:	b086      	sub	sp, #24
 80020dc:	af00      	add	r7, sp, #0
 80020de:	6078      	str	r0, [r7, #4]
 80020e0:	6039      	str	r1, [r7, #0]
 80020e2:	f107 030c 	add.w	r3, r7, #12
 80020e6:	2101      	movs	r1, #1
 80020e8:	4618      	mov	r0, r3
 80020ea:	f7ff ffa5 	bl	8002038 <stm32__gpio__gpio_pointIP>
 80020ee:	f107 030c 	add.w	r3, r7, #12
 80020f2:	683a      	ldr	r2, [r7, #0]
 80020f4:	4619      	mov	r1, r3
 80020f6:	6878      	ldr	r0, [r7, #4]
 80020f8:	f7ff ffc2 	bl	8002080 <stm32__gpio__gpio_pointSR__2>
 80020fc:	200c      	movs	r0, #12
 80020fe:	f008 f9c7 	bl	800a490 <system__secondary_stack__ss_allocate>
 8002102:	4605      	mov	r5, r0
 8002104:	462b      	mov	r3, r5
 8002106:	461c      	mov	r4, r3
 8002108:	f107 030c 	add.w	r3, r7, #12
 800210c:	e893 0007 	ldmia.w	r3, {r0, r1, r2}
 8002110:	e884 0007 	stmia.w	r4, {r0, r1, r2}
 8002114:	462b      	mov	r3, r5
 8002116:	4618      	mov	r0, r3
 8002118:	3718      	adds	r7, #24
 800211a:	46bd      	mov	sp, r7
 800211c:	bdb0      	pop	{r4, r5, r7, pc}
 800211e:	bf00      	nop

08002120 <stm32__gpio__gpio_pointSO__2>:
 8002120:	b580      	push	{r7, lr}
 8002122:	b084      	sub	sp, #16
 8002124:	af00      	add	r7, sp, #0
 8002126:	60f8      	str	r0, [r7, #12]
 8002128:	60b9      	str	r1, [r7, #8]
 800212a:	607a      	str	r2, [r7, #4]
 800212c:	687a      	ldr	r2, [r7, #4]
 800212e:	68b9      	ldr	r1, [r7, #8]
 8002130:	68f8      	ldr	r0, [r7, #12]
 8002132:	f7ff ffbd 	bl	80020b0 <stm32__gpio__gpio_pointSW__2>
 8002136:	3710      	adds	r7, #16
 8002138:	46bd      	mov	sp, r7
 800213a:	bd80      	pop	{r7, pc}

0800213c <stm32__gpio__Oeq>:
 800213c:	b480      	push	{r7}
 800213e:	b083      	sub	sp, #12
 8002140:	af00      	add	r7, sp, #0
 8002142:	6078      	str	r0, [r7, #4]
 8002144:	6039      	str	r1, [r7, #0]
 8002146:	687b      	ldr	r3, [r7, #4]
 8002148:	685a      	ldr	r2, [r3, #4]
 800214a:	683b      	ldr	r3, [r7, #0]
 800214c:	685b      	ldr	r3, [r3, #4]
 800214e:	429a      	cmp	r2, r3
 8002150:	d107      	bne.n	8002162 <stm32__gpio__Oeq+0x26>
 8002152:	687b      	ldr	r3, [r7, #4]
 8002154:	891a      	ldrh	r2, [r3, #8]
 8002156:	683b      	ldr	r3, [r7, #0]
 8002158:	891b      	ldrh	r3, [r3, #8]
 800215a:	429a      	cmp	r2, r3
 800215c:	d101      	bne.n	8002162 <stm32__gpio__Oeq+0x26>
 800215e:	2301      	movs	r3, #1
 8002160:	e000      	b.n	8002164 <stm32__gpio__Oeq+0x28>
 8002162:	2300      	movs	r3, #0
 8002164:	4618      	mov	r0, r3
 8002166:	370c      	adds	r7, #12
 8002168:	46bd      	mov	sp, r7
 800216a:	f85d 7b04 	ldr.w	r7, [sp], #4
 800216e:	4770      	bx	lr

08002170 <stm32__gpio___assign>:
 8002170:	b490      	push	{r4, r7}
 8002172:	b0ec      	sub	sp, #432	; 0x1b0
 8002174:	af00      	add	r7, sp, #0
 8002176:	1d3b      	adds	r3, r7, #4
 8002178:	6018      	str	r0, [r3, #0]
 800217a:	463b      	mov	r3, r7
 800217c:	6019      	str	r1, [r3, #0]
 800217e:	1d3b      	adds	r3, r7, #4
 8002180:	681a      	ldr	r2, [r3, #0]
 8002182:	463b      	mov	r3, r7
 8002184:	681b      	ldr	r3, [r3, #0]
 8002186:	429a      	cmp	r2, r3
 8002188:	d00d      	beq.n	80021a6 <stm32__gpio___assign+0x36>
 800218a:	1d3b      	adds	r3, r7, #4
 800218c:	681b      	ldr	r3, [r3, #0]
 800218e:	681c      	ldr	r4, [r3, #0]
 8002190:	1d3b      	adds	r3, r7, #4
 8002192:	6819      	ldr	r1, [r3, #0]
 8002194:	463b      	mov	r3, r7
 8002196:	681a      	ldr	r2, [r3, #0]
 8002198:	460b      	mov	r3, r1
 800219a:	ca07      	ldmia	r2, {r0, r1, r2}
 800219c:	e883 0007 	stmia.w	r3, {r0, r1, r2}
 80021a0:	1d3b      	adds	r3, r7, #4
 80021a2:	681b      	ldr	r3, [r3, #0]
 80021a4:	601c      	str	r4, [r3, #0]
 80021a6:	f507 77d8 	add.w	r7, r7, #432	; 0x1b0
 80021aa:	46bd      	mov	sp, r7
 80021ac:	bc90      	pop	{r4, r7}
 80021ae:	4770      	bx	lr

080021b0 <stm32__gpio__gpio_pointDA>:
 80021b0:	b480      	push	{r7}
 80021b2:	b083      	sub	sp, #12
 80021b4:	af00      	add	r7, sp, #0
 80021b6:	6078      	str	r0, [r7, #4]
 80021b8:	460b      	mov	r3, r1
 80021ba:	70fb      	strb	r3, [r7, #3]
 80021bc:	370c      	adds	r7, #12
 80021be:	46bd      	mov	sp, r7
 80021c0:	f85d 7b04 	ldr.w	r7, [sp], #4
 80021c4:	4770      	bx	lr
 80021c6:	bf00      	nop

080021c8 <stm32__gpio__gpio_pointDF__2>:
 80021c8:	b480      	push	{r7}
 80021ca:	b083      	sub	sp, #12
 80021cc:	af00      	add	r7, sp, #0
 80021ce:	6078      	str	r0, [r7, #4]
 80021d0:	460b      	mov	r3, r1
 80021d2:	70fb      	strb	r3, [r7, #3]
 80021d4:	370c      	adds	r7, #12
 80021d6:	46bd      	mov	sp, r7
 80021d8:	f85d 7b04 	ldr.w	r7, [sp], #4
 80021dc:	4770      	bx	lr
 80021de:	bf00      	nop

080021e0 <stm32__gpio__gpio_pointsIP>:
 80021e0:	b5f0      	push	{r4, r5, r6, r7, lr}
 80021e2:	b083      	sub	sp, #12
 80021e4:	af00      	add	r7, sp, #0
 80021e6:	e9c7 0100 	strd	r0, r1, [r7]
 80021ea:	687b      	ldr	r3, [r7, #4]
 80021ec:	681b      	ldr	r3, [r3, #0]
 80021ee:	461e      	mov	r6, r3
 80021f0:	687b      	ldr	r3, [r7, #4]
 80021f2:	681c      	ldr	r4, [r3, #0]
 80021f4:	687b      	ldr	r3, [r7, #4]
 80021f6:	685d      	ldr	r5, [r3, #4]
 80021f8:	42ac      	cmp	r4, r5
 80021fa:	dc0f      	bgt.n	800221c <stm32__gpio__gpio_pointsIP+0x3c>
 80021fc:	6839      	ldr	r1, [r7, #0]
 80021fe:	4623      	mov	r3, r4
 8002200:	1b9a      	subs	r2, r3, r6
 8002202:	4613      	mov	r3, r2
 8002204:	005b      	lsls	r3, r3, #1
 8002206:	4413      	add	r3, r2
 8002208:	009b      	lsls	r3, r3, #2
 800220a:	440b      	add	r3, r1
 800220c:	2101      	movs	r1, #1
 800220e:	4618      	mov	r0, r3
 8002210:	f7ff ff12 	bl	8002038 <stm32__gpio__gpio_pointIP>
 8002214:	42ac      	cmp	r4, r5
 8002216:	d001      	beq.n	800221c <stm32__gpio__gpio_pointsIP+0x3c>
 8002218:	3401      	adds	r4, #1
 800221a:	e7ef      	b.n	80021fc <stm32__gpio__gpio_pointsIP+0x1c>
 800221c:	370c      	adds	r7, #12
 800221e:	46bd      	mov	sp, r7
 8002220:	bdf0      	pop	{r4, r5, r6, r7, pc}
 8002222:	bf00      	nop

08002224 <stm32__gpio__mode>:
 8002224:	b580      	push	{r7, lr}
 8002226:	b084      	sub	sp, #16
 8002228:	af00      	add	r7, sp, #0
 800222a:	6078      	str	r0, [r7, #4]
 800222c:	4b21      	ldr	r3, [pc, #132]	; (80022b4 <stm32__gpio__mode+0x90>)
 800222e:	781b      	ldrb	r3, [r3, #0]
 8002230:	f083 0301 	eor.w	r3, r3, #1
 8002234:	b2db      	uxtb	r3, r3
 8002236:	2b00      	cmp	r3, #0
 8002238:	d003      	beq.n	8002242 <stm32__gpio__mode+0x1e>
 800223a:	2152      	movs	r1, #82	; 0x52
 800223c:	481e      	ldr	r0, [pc, #120]	; (80022b8 <stm32__gpio__mode+0x94>)
 800223e:	f006 ff19 	bl	8009074 <__gnat_rcheck_PE_Access_Before_Elaboration>
 8002242:	687b      	ldr	r3, [r7, #4]
 8002244:	891b      	ldrh	r3, [r3, #8]
 8002246:	2101      	movs	r1, #1
 8002248:	4618      	mov	r0, r3
 800224a:	f7ff fe85 	bl	8001f58 <stm32__gpio__gpio_pinRP>
 800224e:	4603      	mov	r3, r0
 8002250:	2b00      	cmp	r3, #0
 8002252:	db01      	blt.n	8002258 <stm32__gpio__mode+0x34>
 8002254:	2b0f      	cmp	r3, #15
 8002256:	dd03      	ble.n	8002260 <stm32__gpio__mode+0x3c>
 8002258:	2153      	movs	r1, #83	; 0x53
 800225a:	4817      	ldr	r0, [pc, #92]	; (80022b8 <stm32__gpio__mode+0x94>)
 800225c:	f006 ff02 	bl	8009064 <__gnat_rcheck_CE_Range_Check>
 8002260:	60fb      	str	r3, [r7, #12]
 8002262:	687b      	ldr	r3, [r7, #4]
 8002264:	685b      	ldr	r3, [r3, #4]
 8002266:	2b00      	cmp	r3, #0
 8002268:	d103      	bne.n	8002272 <stm32__gpio__mode+0x4e>
 800226a:	2155      	movs	r1, #85	; 0x55
 800226c:	4812      	ldr	r0, [pc, #72]	; (80022b8 <stm32__gpio__mode+0x94>)
 800226e:	f006 fec9 	bl	8009004 <__gnat_rcheck_CE_Access_Check>
 8002272:	687b      	ldr	r3, [r7, #4]
 8002274:	685b      	ldr	r3, [r3, #4]
 8002276:	681b      	ldr	r3, [r3, #0]
 8002278:	461a      	mov	r2, r3
 800227a:	68fb      	ldr	r3, [r7, #12]
 800227c:	005b      	lsls	r3, r3, #1
 800227e:	fa22 f303 	lsr.w	r3, r2, r3
 8002282:	b2db      	uxtb	r3, r3
 8002284:	f003 0303 	and.w	r3, r3, #3
 8002288:	b2db      	uxtb	r3, r3
 800228a:	2b03      	cmp	r3, #3
 800228c:	d903      	bls.n	8002296 <stm32__gpio__mode+0x72>
 800228e:	2155      	movs	r1, #85	; 0x55
 8002290:	4809      	ldr	r0, [pc, #36]	; (80022b8 <stm32__gpio__mode+0x94>)
 8002292:	f006 fed7 	bl	8009044 <__gnat_rcheck_CE_Invalid_Data>
 8002296:	2b00      	cmp	r3, #0
 8002298:	d003      	beq.n	80022a2 <stm32__gpio__mode+0x7e>
 800229a:	2b01      	cmp	r3, #1
 800229c:	d103      	bne.n	80022a6 <stm32__gpio__mode+0x82>
 800229e:	2302      	movs	r3, #2
 80022a0:	e002      	b.n	80022a8 <stm32__gpio__mode+0x84>
 80022a2:	2301      	movs	r3, #1
 80022a4:	e000      	b.n	80022a8 <stm32__gpio__mode+0x84>
 80022a6:	2300      	movs	r3, #0
 80022a8:	bf00      	nop
 80022aa:	4618      	mov	r0, r3
 80022ac:	3710      	adds	r7, #16
 80022ae:	46bd      	mov	sp, r7
 80022b0:	bd80      	pop	{r7, pc}
 80022b2:	bf00      	nop
 80022b4:	20000024 	.word	0x20000024
 80022b8:	0800d3a8 	.word	0x0800d3a8

080022bc <stm32__gpio__set_mode>:
 80022bc:	b580      	push	{r7, lr}
 80022be:	b086      	sub	sp, #24
 80022c0:	af00      	add	r7, sp, #0
 80022c2:	6078      	str	r0, [r7, #4]
 80022c4:	460b      	mov	r3, r1
 80022c6:	70fb      	strb	r3, [r7, #3]
 80022c8:	4b35      	ldr	r3, [pc, #212]	; (80023a0 <stm32__gpio__set_mode+0xe4>)
 80022ca:	781b      	ldrb	r3, [r3, #0]
 80022cc:	f083 0301 	eor.w	r3, r3, #1
 80022d0:	b2db      	uxtb	r3, r3
 80022d2:	2b00      	cmp	r3, #0
 80022d4:	d003      	beq.n	80022de <stm32__gpio__set_mode+0x22>
 80022d6:	2161      	movs	r1, #97	; 0x61
 80022d8:	4832      	ldr	r0, [pc, #200]	; (80023a4 <stm32__gpio__set_mode+0xe8>)
 80022da:	f006 fecb 	bl	8009074 <__gnat_rcheck_PE_Access_Before_Elaboration>
 80022de:	687b      	ldr	r3, [r7, #4]
 80022e0:	891b      	ldrh	r3, [r3, #8]
 80022e2:	2101      	movs	r1, #1
 80022e4:	4618      	mov	r0, r3
 80022e6:	f7ff fe37 	bl	8001f58 <stm32__gpio__gpio_pinRP>
 80022ea:	4603      	mov	r3, r0
 80022ec:	2b00      	cmp	r3, #0
 80022ee:	db01      	blt.n	80022f4 <stm32__gpio__set_mode+0x38>
 80022f0:	2b0f      	cmp	r3, #15
 80022f2:	dd03      	ble.n	80022fc <stm32__gpio__set_mode+0x40>
 80022f4:	2166      	movs	r1, #102	; 0x66
 80022f6:	482b      	ldr	r0, [pc, #172]	; (80023a4 <stm32__gpio__set_mode+0xe8>)
 80022f8:	f006 feb4 	bl	8009064 <__gnat_rcheck_CE_Range_Check>
 80022fc:	617b      	str	r3, [r7, #20]
 80022fe:	78fb      	ldrb	r3, [r7, #3]
 8002300:	2b00      	cmp	r3, #0
 8002302:	d002      	beq.n	800230a <stm32__gpio__set_mode+0x4e>
 8002304:	78fb      	ldrb	r3, [r7, #3]
 8002306:	2b02      	cmp	r3, #2
 8002308:	d903      	bls.n	8002312 <stm32__gpio__set_mode+0x56>
 800230a:	2168      	movs	r1, #104	; 0x68
 800230c:	4825      	ldr	r0, [pc, #148]	; (80023a4 <stm32__gpio__set_mode+0xe8>)
 800230e:	f006 fe99 	bl	8009044 <__gnat_rcheck_CE_Invalid_Data>
 8002312:	78fb      	ldrb	r3, [r7, #3]
 8002314:	2b02      	cmp	r3, #2
 8002316:	d121      	bne.n	800235c <stm32__gpio__set_mode+0xa0>
 8002318:	687b      	ldr	r3, [r7, #4]
 800231a:	685b      	ldr	r3, [r3, #4]
 800231c:	2b00      	cmp	r3, #0
 800231e:	d103      	bne.n	8002328 <stm32__gpio__set_mode+0x6c>
 8002320:	216a      	movs	r1, #106	; 0x6a
 8002322:	4820      	ldr	r0, [pc, #128]	; (80023a4 <stm32__gpio__set_mode+0xe8>)
 8002324:	f006 fe6e 	bl	8009004 <__gnat_rcheck_CE_Access_Check>
 8002328:	687b      	ldr	r3, [r7, #4]
 800232a:	6859      	ldr	r1, [r3, #4]
 800232c:	460b      	mov	r3, r1
 800232e:	681b      	ldr	r3, [r3, #0]
 8002330:	613b      	str	r3, [r7, #16]
 8002332:	693a      	ldr	r2, [r7, #16]
 8002334:	697b      	ldr	r3, [r7, #20]
 8002336:	005b      	lsls	r3, r3, #1
 8002338:	4618      	mov	r0, r3
 800233a:	2303      	movs	r3, #3
 800233c:	4083      	lsls	r3, r0
 800233e:	43db      	mvns	r3, r3
 8002340:	401a      	ands	r2, r3
 8002342:	697b      	ldr	r3, [r7, #20]
 8002344:	005b      	lsls	r3, r3, #1
 8002346:	4618      	mov	r0, r3
 8002348:	2301      	movs	r3, #1
 800234a:	4083      	lsls	r3, r0
 800234c:	4608      	mov	r0, r1
 800234e:	6800      	ldr	r0, [r0, #0]
 8002350:	4313      	orrs	r3, r2
 8002352:	4618      	mov	r0, r3
 8002354:	460b      	mov	r3, r1
 8002356:	4602      	mov	r2, r0
 8002358:	601a      	str	r2, [r3, #0]
 800235a:	e01a      	b.n	8002392 <stm32__gpio__set_mode+0xd6>
 800235c:	687b      	ldr	r3, [r7, #4]
 800235e:	685b      	ldr	r3, [r3, #4]
 8002360:	2b00      	cmp	r3, #0
 8002362:	d103      	bne.n	800236c <stm32__gpio__set_mode+0xb0>
 8002364:	216c      	movs	r1, #108	; 0x6c
 8002366:	480f      	ldr	r0, [pc, #60]	; (80023a4 <stm32__gpio__set_mode+0xe8>)
 8002368:	f006 fe4c 	bl	8009004 <__gnat_rcheck_CE_Access_Check>
 800236c:	687b      	ldr	r3, [r7, #4]
 800236e:	6859      	ldr	r1, [r3, #4]
 8002370:	460b      	mov	r3, r1
 8002372:	681b      	ldr	r3, [r3, #0]
 8002374:	60fb      	str	r3, [r7, #12]
 8002376:	68fa      	ldr	r2, [r7, #12]
 8002378:	697b      	ldr	r3, [r7, #20]
 800237a:	005b      	lsls	r3, r3, #1
 800237c:	4618      	mov	r0, r3
 800237e:	2303      	movs	r3, #3
 8002380:	4083      	lsls	r3, r0
 8002382:	43db      	mvns	r3, r3
 8002384:	4608      	mov	r0, r1
 8002386:	6800      	ldr	r0, [r0, #0]
 8002388:	4013      	ands	r3, r2
 800238a:	4618      	mov	r0, r3
 800238c:	460b      	mov	r3, r1
 800238e:	4602      	mov	r2, r0
 8002390:	601a      	str	r2, [r3, #0]
 8002392:	2301      	movs	r3, #1
 8002394:	bf00      	nop
 8002396:	4618      	mov	r0, r3
 8002398:	3718      	adds	r7, #24
 800239a:	46bd      	mov	sp, r7
 800239c:	bd80      	pop	{r7, pc}
 800239e:	bf00      	nop
 80023a0:	20000025 	.word	0x20000025
 80023a4:	0800d3a8 	.word	0x0800d3a8

080023a8 <stm32__gpio__pull_resistor>:
 80023a8:	b580      	push	{r7, lr}
 80023aa:	b084      	sub	sp, #16
 80023ac:	af00      	add	r7, sp, #0
 80023ae:	6078      	str	r0, [r7, #4]
 80023b0:	4b29      	ldr	r3, [pc, #164]	; (8002458 <stm32__gpio__pull_resistor+0xb0>)
 80023b2:	781b      	ldrb	r3, [r3, #0]
 80023b4:	f083 0301 	eor.w	r3, r3, #1
 80023b8:	b2db      	uxtb	r3, r3
 80023ba:	2b00      	cmp	r3, #0
 80023bc:	d003      	beq.n	80023c6 <stm32__gpio__pull_resistor+0x1e>
 80023be:	2176      	movs	r1, #118	; 0x76
 80023c0:	4826      	ldr	r0, [pc, #152]	; (800245c <stm32__gpio__pull_resistor+0xb4>)
 80023c2:	f006 fe57 	bl	8009074 <__gnat_rcheck_PE_Access_Before_Elaboration>
 80023c6:	687b      	ldr	r3, [r7, #4]
 80023c8:	891b      	ldrh	r3, [r3, #8]
 80023ca:	2101      	movs	r1, #1
 80023cc:	4618      	mov	r0, r3
 80023ce:	f7ff fdc3 	bl	8001f58 <stm32__gpio__gpio_pinRP>
 80023d2:	4603      	mov	r3, r0
 80023d4:	2b00      	cmp	r3, #0
 80023d6:	db01      	blt.n	80023dc <stm32__gpio__pull_resistor+0x34>
 80023d8:	2b0f      	cmp	r3, #15
 80023da:	dd03      	ble.n	80023e4 <stm32__gpio__pull_resistor+0x3c>
 80023dc:	217a      	movs	r1, #122	; 0x7a
 80023de:	481f      	ldr	r0, [pc, #124]	; (800245c <stm32__gpio__pull_resistor+0xb4>)
 80023e0:	f006 fe40 	bl	8009064 <__gnat_rcheck_CE_Range_Check>
 80023e4:	60fb      	str	r3, [r7, #12]
 80023e6:	687b      	ldr	r3, [r7, #4]
 80023e8:	685b      	ldr	r3, [r3, #4]
 80023ea:	2b00      	cmp	r3, #0
 80023ec:	d103      	bne.n	80023f6 <stm32__gpio__pull_resistor+0x4e>
 80023ee:	217c      	movs	r1, #124	; 0x7c
 80023f0:	481a      	ldr	r0, [pc, #104]	; (800245c <stm32__gpio__pull_resistor+0xb4>)
 80023f2:	f006 fe07 	bl	8009004 <__gnat_rcheck_CE_Access_Check>
 80023f6:	687b      	ldr	r3, [r7, #4]
 80023f8:	685b      	ldr	r3, [r3, #4]
 80023fa:	330c      	adds	r3, #12
 80023fc:	681b      	ldr	r3, [r3, #0]
 80023fe:	461a      	mov	r2, r3
 8002400:	68fb      	ldr	r3, [r7, #12]
 8002402:	005b      	lsls	r3, r3, #1
 8002404:	fa22 f303 	lsr.w	r3, r2, r3
 8002408:	b2db      	uxtb	r3, r3
 800240a:	f003 0303 	and.w	r3, r3, #3
 800240e:	b2db      	uxtb	r3, r3
 8002410:	2b00      	cmp	r3, #0
 8002412:	d101      	bne.n	8002418 <stm32__gpio__pull_resistor+0x70>
 8002414:	2300      	movs	r3, #0
 8002416:	e019      	b.n	800244c <stm32__gpio__pull_resistor+0xa4>
 8002418:	687b      	ldr	r3, [r7, #4]
 800241a:	685b      	ldr	r3, [r3, #4]
 800241c:	2b00      	cmp	r3, #0
 800241e:	d103      	bne.n	8002428 <stm32__gpio__pull_resistor+0x80>
 8002420:	217e      	movs	r1, #126	; 0x7e
 8002422:	480e      	ldr	r0, [pc, #56]	; (800245c <stm32__gpio__pull_resistor+0xb4>)
 8002424:	f006 fdee 	bl	8009004 <__gnat_rcheck_CE_Access_Check>
 8002428:	687b      	ldr	r3, [r7, #4]
 800242a:	685b      	ldr	r3, [r3, #4]
 800242c:	330c      	adds	r3, #12
 800242e:	681b      	ldr	r3, [r3, #0]
 8002430:	461a      	mov	r2, r3
 8002432:	68fb      	ldr	r3, [r7, #12]
 8002434:	005b      	lsls	r3, r3, #1
 8002436:	fa22 f303 	lsr.w	r3, r2, r3
 800243a:	b2db      	uxtb	r3, r3
 800243c:	f003 0303 	and.w	r3, r3, #3
 8002440:	b2db      	uxtb	r3, r3
 8002442:	2b01      	cmp	r3, #1
 8002444:	d101      	bne.n	800244a <stm32__gpio__pull_resistor+0xa2>
 8002446:	2301      	movs	r3, #1
 8002448:	e000      	b.n	800244c <stm32__gpio__pull_resistor+0xa4>
 800244a:	2302      	movs	r3, #2
 800244c:	bf00      	nop
 800244e:	4618      	mov	r0, r3
 8002450:	3710      	adds	r7, #16
 8002452:	46bd      	mov	sp, r7
 8002454:	bd80      	pop	{r7, pc}
 8002456:	bf00      	nop
 8002458:	20000026 	.word	0x20000026
 800245c:	0800d3a8 	.word	0x0800d3a8

08002460 <stm32__gpio__set_pull_resistor>:
 8002460:	b580      	push	{r7, lr}
 8002462:	b086      	sub	sp, #24
 8002464:	af00      	add	r7, sp, #0
 8002466:	6078      	str	r0, [r7, #4]
 8002468:	460b      	mov	r3, r1
 800246a:	70fb      	strb	r3, [r7, #3]
 800246c:	4b49      	ldr	r3, [pc, #292]	; (8002594 <stm32__gpio__set_pull_resistor+0x134>)
 800246e:	781b      	ldrb	r3, [r3, #0]
 8002470:	f083 0301 	eor.w	r3, r3, #1
 8002474:	b2db      	uxtb	r3, r3
 8002476:	2b00      	cmp	r3, #0
 8002478:	d003      	beq.n	8002482 <stm32__gpio__set_pull_resistor+0x22>
 800247a:	218a      	movs	r1, #138	; 0x8a
 800247c:	4846      	ldr	r0, [pc, #280]	; (8002598 <stm32__gpio__set_pull_resistor+0x138>)
 800247e:	f006 fdf9 	bl	8009074 <__gnat_rcheck_PE_Access_Before_Elaboration>
 8002482:	687b      	ldr	r3, [r7, #4]
 8002484:	891b      	ldrh	r3, [r3, #8]
 8002486:	2101      	movs	r1, #1
 8002488:	4618      	mov	r0, r3
 800248a:	f7ff fd65 	bl	8001f58 <stm32__gpio__gpio_pinRP>
 800248e:	4603      	mov	r3, r0
 8002490:	2b00      	cmp	r3, #0
 8002492:	db01      	blt.n	8002498 <stm32__gpio__set_pull_resistor+0x38>
 8002494:	2b0f      	cmp	r3, #15
 8002496:	dd03      	ble.n	80024a0 <stm32__gpio__set_pull_resistor+0x40>
 8002498:	218f      	movs	r1, #143	; 0x8f
 800249a:	483f      	ldr	r0, [pc, #252]	; (8002598 <stm32__gpio__set_pull_resistor+0x138>)
 800249c:	f006 fde2 	bl	8009064 <__gnat_rcheck_CE_Range_Check>
 80024a0:	617b      	str	r3, [r7, #20]
 80024a2:	78fb      	ldrb	r3, [r7, #3]
 80024a4:	2b02      	cmp	r3, #2
 80024a6:	d903      	bls.n	80024b0 <stm32__gpio__set_pull_resistor+0x50>
 80024a8:	2191      	movs	r1, #145	; 0x91
 80024aa:	483b      	ldr	r0, [pc, #236]	; (8002598 <stm32__gpio__set_pull_resistor+0x138>)
 80024ac:	f006 fdca 	bl	8009044 <__gnat_rcheck_CE_Invalid_Data>
 80024b0:	78fb      	ldrb	r3, [r7, #3]
 80024b2:	2b00      	cmp	r3, #0
 80024b4:	d002      	beq.n	80024bc <stm32__gpio__set_pull_resistor+0x5c>
 80024b6:	2b01      	cmp	r3, #1
 80024b8:	d01e      	beq.n	80024f8 <stm32__gpio__set_pull_resistor+0x98>
 80024ba:	e041      	b.n	8002540 <stm32__gpio__set_pull_resistor+0xe0>
 80024bc:	687b      	ldr	r3, [r7, #4]
 80024be:	685b      	ldr	r3, [r3, #4]
 80024c0:	2b00      	cmp	r3, #0
 80024c2:	d103      	bne.n	80024cc <stm32__gpio__set_pull_resistor+0x6c>
 80024c4:	2193      	movs	r1, #147	; 0x93
 80024c6:	4834      	ldr	r0, [pc, #208]	; (8002598 <stm32__gpio__set_pull_resistor+0x138>)
 80024c8:	f006 fd9c 	bl	8009004 <__gnat_rcheck_CE_Access_Check>
 80024cc:	687b      	ldr	r3, [r7, #4]
 80024ce:	685b      	ldr	r3, [r3, #4]
 80024d0:	f103 020c 	add.w	r2, r3, #12
 80024d4:	6812      	ldr	r2, [r2, #0]
 80024d6:	613a      	str	r2, [r7, #16]
 80024d8:	6939      	ldr	r1, [r7, #16]
 80024da:	697a      	ldr	r2, [r7, #20]
 80024dc:	0052      	lsls	r2, r2, #1
 80024de:	4610      	mov	r0, r2
 80024e0:	2203      	movs	r2, #3
 80024e2:	4082      	lsls	r2, r0
 80024e4:	43d2      	mvns	r2, r2
 80024e6:	f103 000c 	add.w	r0, r3, #12
 80024ea:	6800      	ldr	r0, [r0, #0]
 80024ec:	400a      	ands	r2, r1
 80024ee:	4610      	mov	r0, r2
 80024f0:	330c      	adds	r3, #12
 80024f2:	4602      	mov	r2, r0
 80024f4:	601a      	str	r2, [r3, #0]
 80024f6:	e046      	b.n	8002586 <stm32__gpio__set_pull_resistor+0x126>
 80024f8:	687b      	ldr	r3, [r7, #4]
 80024fa:	685b      	ldr	r3, [r3, #4]
 80024fc:	2b00      	cmp	r3, #0
 80024fe:	d103      	bne.n	8002508 <stm32__gpio__set_pull_resistor+0xa8>
 8002500:	2195      	movs	r1, #149	; 0x95
 8002502:	4825      	ldr	r0, [pc, #148]	; (8002598 <stm32__gpio__set_pull_resistor+0x138>)
 8002504:	f006 fd7e 	bl	8009004 <__gnat_rcheck_CE_Access_Check>
 8002508:	687b      	ldr	r3, [r7, #4]
 800250a:	685b      	ldr	r3, [r3, #4]
 800250c:	f103 020c 	add.w	r2, r3, #12
 8002510:	6812      	ldr	r2, [r2, #0]
 8002512:	60fa      	str	r2, [r7, #12]
 8002514:	68f9      	ldr	r1, [r7, #12]
 8002516:	697a      	ldr	r2, [r7, #20]
 8002518:	0052      	lsls	r2, r2, #1
 800251a:	4610      	mov	r0, r2
 800251c:	2203      	movs	r2, #3
 800251e:	4082      	lsls	r2, r0
 8002520:	43d2      	mvns	r2, r2
 8002522:	4011      	ands	r1, r2
 8002524:	697a      	ldr	r2, [r7, #20]
 8002526:	0052      	lsls	r2, r2, #1
 8002528:	4610      	mov	r0, r2
 800252a:	2201      	movs	r2, #1
 800252c:	4082      	lsls	r2, r0
 800252e:	f103 000c 	add.w	r0, r3, #12
 8002532:	6800      	ldr	r0, [r0, #0]
 8002534:	430a      	orrs	r2, r1
 8002536:	4610      	mov	r0, r2
 8002538:	330c      	adds	r3, #12
 800253a:	4602      	mov	r2, r0
 800253c:	601a      	str	r2, [r3, #0]
 800253e:	e022      	b.n	8002586 <stm32__gpio__set_pull_resistor+0x126>
 8002540:	687b      	ldr	r3, [r7, #4]
 8002542:	685b      	ldr	r3, [r3, #4]
 8002544:	2b00      	cmp	r3, #0
 8002546:	d103      	bne.n	8002550 <stm32__gpio__set_pull_resistor+0xf0>
 8002548:	2197      	movs	r1, #151	; 0x97
 800254a:	4813      	ldr	r0, [pc, #76]	; (8002598 <stm32__gpio__set_pull_resistor+0x138>)
 800254c:	f006 fd5a 	bl	8009004 <__gnat_rcheck_CE_Access_Check>
 8002550:	687b      	ldr	r3, [r7, #4]
 8002552:	685b      	ldr	r3, [r3, #4]
 8002554:	f103 020c 	add.w	r2, r3, #12
 8002558:	6812      	ldr	r2, [r2, #0]
 800255a:	60ba      	str	r2, [r7, #8]
 800255c:	68b9      	ldr	r1, [r7, #8]
 800255e:	697a      	ldr	r2, [r7, #20]
 8002560:	0052      	lsls	r2, r2, #1
 8002562:	4610      	mov	r0, r2
 8002564:	2203      	movs	r2, #3
 8002566:	4082      	lsls	r2, r0
 8002568:	43d2      	mvns	r2, r2
 800256a:	4011      	ands	r1, r2
 800256c:	697a      	ldr	r2, [r7, #20]
 800256e:	0052      	lsls	r2, r2, #1
 8002570:	4610      	mov	r0, r2
 8002572:	2202      	movs	r2, #2
 8002574:	4082      	lsls	r2, r0
 8002576:	f103 000c 	add.w	r0, r3, #12
 800257a:	6800      	ldr	r0, [r0, #0]
 800257c:	430a      	orrs	r2, r1
 800257e:	4610      	mov	r0, r2
 8002580:	330c      	adds	r3, #12
 8002582:	4602      	mov	r2, r0
 8002584:	601a      	str	r2, [r3, #0]
 8002586:	bf00      	nop
 8002588:	2301      	movs	r3, #1
 800258a:	bf00      	nop
 800258c:	4618      	mov	r0, r3
 800258e:	3718      	adds	r7, #24
 8002590:	46bd      	mov	sp, r7
 8002592:	bd80      	pop	{r7, pc}
 8002594:	20000027 	.word	0x20000027
 8002598:	0800d3a8 	.word	0x0800d3a8

0800259c <stm32__gpio__set>:
 800259c:	b580      	push	{r7, lr}
 800259e:	b084      	sub	sp, #16
 80025a0:	af00      	add	r7, sp, #0
 80025a2:	6078      	str	r0, [r7, #4]
 80025a4:	687b      	ldr	r3, [r7, #4]
 80025a6:	891b      	ldrh	r3, [r3, #8]
 80025a8:	81fb      	strh	r3, [r7, #14]
 80025aa:	687b      	ldr	r3, [r7, #4]
 80025ac:	685b      	ldr	r3, [r3, #4]
 80025ae:	2b00      	cmp	r3, #0
 80025b0:	d103      	bne.n	80025ba <stm32__gpio__set+0x1e>
 80025b2:	21a4      	movs	r1, #164	; 0xa4
 80025b4:	480a      	ldr	r0, [pc, #40]	; (80025e0 <stm32__gpio__set+0x44>)
 80025b6:	f006 fd25 	bl	8009004 <__gnat_rcheck_CE_Access_Check>
 80025ba:	687b      	ldr	r3, [r7, #4]
 80025bc:	685b      	ldr	r3, [r3, #4]
 80025be:	3310      	adds	r3, #16
 80025c0:	681b      	ldr	r3, [r3, #0]
 80025c2:	b29a      	uxth	r2, r3
 80025c4:	89fb      	ldrh	r3, [r7, #14]
 80025c6:	4013      	ands	r3, r2
 80025c8:	b29b      	uxth	r3, r3
 80025ca:	89fa      	ldrh	r2, [r7, #14]
 80025cc:	429a      	cmp	r2, r3
 80025ce:	bf0c      	ite	eq
 80025d0:	2301      	moveq	r3, #1
 80025d2:	2300      	movne	r3, #0
 80025d4:	b2db      	uxtb	r3, r3
 80025d6:	bf00      	nop
 80025d8:	4618      	mov	r0, r3
 80025da:	3710      	adds	r7, #16
 80025dc:	46bd      	mov	sp, r7
 80025de:	bd80      	pop	{r7, pc}
 80025e0:	0800d3a8 	.word	0x0800d3a8

080025e4 <stm32__gpio__set__2>:
 80025e4:	b5b0      	push	{r4, r5, r7, lr}
 80025e6:	b082      	sub	sp, #8
 80025e8:	af00      	add	r7, sp, #0
 80025ea:	6078      	str	r0, [r7, #4]
 80025ec:	6878      	ldr	r0, [r7, #4]
 80025ee:	f7ff fe19 	bl	8002224 <stm32__gpio__mode>
 80025f2:	4603      	mov	r3, r0
 80025f4:	2b02      	cmp	r3, #2
 80025f6:	d005      	beq.n	8002604 <stm32__gpio__set__2+0x20>
 80025f8:	4c0e      	ldr	r4, [pc, #56]	; (8002634 <stm32__gpio__set__2+0x50>)
 80025fa:	4d0f      	ldr	r5, [pc, #60]	; (8002638 <stm32__gpio__set__2+0x54>)
 80025fc:	4620      	mov	r0, r4
 80025fe:	4629      	mov	r1, r5
 8002600:	f007 fa44 	bl	8009a8c <system__assertions__raise_assert_failure>
 8002604:	687b      	ldr	r3, [r7, #4]
 8002606:	685b      	ldr	r3, [r3, #4]
 8002608:	2b00      	cmp	r3, #0
 800260a:	d103      	bne.n	8002614 <stm32__gpio__set__2+0x30>
 800260c:	21bd      	movs	r1, #189	; 0xbd
 800260e:	480b      	ldr	r0, [pc, #44]	; (800263c <stm32__gpio__set__2+0x58>)
 8002610:	f006 fcf8 	bl	8009004 <__gnat_rcheck_CE_Access_Check>
 8002614:	687b      	ldr	r3, [r7, #4]
 8002616:	685b      	ldr	r3, [r3, #4]
 8002618:	3318      	adds	r3, #24
 800261a:	681b      	ldr	r3, [r3, #0]
 800261c:	687a      	ldr	r2, [r7, #4]
 800261e:	8912      	ldrh	r2, [r2, #8]
 8002620:	f362 030f 	bfi	r3, r2, #0, #16
 8002624:	687a      	ldr	r2, [r7, #4]
 8002626:	6852      	ldr	r2, [r2, #4]
 8002628:	3218      	adds	r2, #24
 800262a:	6013      	str	r3, [r2, #0]
 800262c:	3708      	adds	r7, #8
 800262e:	46bd      	mov	sp, r7
 8002630:	bdb0      	pop	{r4, r5, r7, pc}
 8002632:	bf00      	nop
 8002634:	0800d3b8 	.word	0x0800d3b8
 8002638:	0800d3ec 	.word	0x0800d3ec
 800263c:	0800d3a8 	.word	0x0800d3a8

08002640 <stm32__gpio__set__4>:
 8002640:	b5f0      	push	{r4, r5, r6, r7, lr}
 8002642:	b085      	sub	sp, #20
 8002644:	af00      	add	r7, sp, #0
 8002646:	e9c7 0100 	strd	r0, r1, [r7]
 800264a:	687b      	ldr	r3, [r7, #4]
 800264c:	681b      	ldr	r3, [r3, #0]
 800264e:	461e      	mov	r6, r3
 8002650:	687b      	ldr	r3, [r7, #4]
 8002652:	681c      	ldr	r4, [r3, #0]
 8002654:	687b      	ldr	r3, [r7, #4]
 8002656:	685d      	ldr	r5, [r3, #4]
 8002658:	42ac      	cmp	r4, r5
 800265a:	dc16      	bgt.n	800268a <stm32__gpio__set__4+0x4a>
 800265c:	6838      	ldr	r0, [r7, #0]
 800265e:	4622      	mov	r2, r4
 8002660:	1b91      	subs	r1, r2, r6
 8002662:	460b      	mov	r3, r1
 8002664:	005b      	lsls	r3, r3, #1
 8002666:	440b      	add	r3, r1
 8002668:	009b      	lsls	r3, r3, #2
 800266a:	4403      	add	r3, r0
 800266c:	60fb      	str	r3, [r7, #12]
 800266e:	6839      	ldr	r1, [r7, #0]
 8002670:	1b92      	subs	r2, r2, r6
 8002672:	4613      	mov	r3, r2
 8002674:	005b      	lsls	r3, r3, #1
 8002676:	4413      	add	r3, r2
 8002678:	009b      	lsls	r3, r3, #2
 800267a:	440b      	add	r3, r1
 800267c:	4618      	mov	r0, r3
 800267e:	f7ff ffb1 	bl	80025e4 <stm32__gpio__set__2>
 8002682:	42ac      	cmp	r4, r5
 8002684:	d001      	beq.n	800268a <stm32__gpio__set__4+0x4a>
 8002686:	3401      	adds	r4, #1
 8002688:	e7e8      	b.n	800265c <stm32__gpio__set__4+0x1c>
 800268a:	3714      	adds	r7, #20
 800268c:	46bd      	mov	sp, r7
 800268e:	bdf0      	pop	{r4, r5, r6, r7, pc}

08002690 <stm32__gpio__clear>:
 8002690:	b5b0      	push	{r4, r5, r7, lr}
 8002692:	b082      	sub	sp, #8
 8002694:	af00      	add	r7, sp, #0
 8002696:	6078      	str	r0, [r7, #4]
 8002698:	6878      	ldr	r0, [r7, #4]
 800269a:	f7ff fdc3 	bl	8002224 <stm32__gpio__mode>
 800269e:	4603      	mov	r3, r0
 80026a0:	2b02      	cmp	r3, #2
 80026a2:	d005      	beq.n	80026b0 <stm32__gpio__clear+0x20>
 80026a4:	4c0e      	ldr	r4, [pc, #56]	; (80026e0 <stm32__gpio__clear+0x50>)
 80026a6:	4d0f      	ldr	r5, [pc, #60]	; (80026e4 <stm32__gpio__clear+0x54>)
 80026a8:	4620      	mov	r0, r4
 80026aa:	4629      	mov	r1, r5
 80026ac:	f007 f9ee 	bl	8009a8c <system__assertions__raise_assert_failure>
 80026b0:	687b      	ldr	r3, [r7, #4]
 80026b2:	685b      	ldr	r3, [r3, #4]
 80026b4:	2b00      	cmp	r3, #0
 80026b6:	d103      	bne.n	80026c0 <stm32__gpio__clear+0x30>
 80026b8:	21d4      	movs	r1, #212	; 0xd4
 80026ba:	480b      	ldr	r0, [pc, #44]	; (80026e8 <stm32__gpio__clear+0x58>)
 80026bc:	f006 fca2 	bl	8009004 <__gnat_rcheck_CE_Access_Check>
 80026c0:	687b      	ldr	r3, [r7, #4]
 80026c2:	685b      	ldr	r3, [r3, #4]
 80026c4:	3318      	adds	r3, #24
 80026c6:	681b      	ldr	r3, [r3, #0]
 80026c8:	687a      	ldr	r2, [r7, #4]
 80026ca:	8912      	ldrh	r2, [r2, #8]
 80026cc:	f362 431f 	bfi	r3, r2, #16, #16
 80026d0:	687a      	ldr	r2, [r7, #4]
 80026d2:	6852      	ldr	r2, [r2, #4]
 80026d4:	3218      	adds	r2, #24
 80026d6:	6013      	str	r3, [r2, #0]
 80026d8:	3708      	adds	r7, #8
 80026da:	46bd      	mov	sp, r7
 80026dc:	bdb0      	pop	{r4, r5, r7, pc}
 80026de:	bf00      	nop
 80026e0:	0800d3f4 	.word	0x0800d3f4
 80026e4:	0800d3ec 	.word	0x0800d3ec
 80026e8:	0800d3a8 	.word	0x0800d3a8

080026ec <stm32__gpio__clear__2>:
 80026ec:	b5f0      	push	{r4, r5, r6, r7, lr}
 80026ee:	b085      	sub	sp, #20
 80026f0:	af00      	add	r7, sp, #0
 80026f2:	e9c7 0100 	strd	r0, r1, [r7]
 80026f6:	687b      	ldr	r3, [r7, #4]
 80026f8:	681b      	ldr	r3, [r3, #0]
 80026fa:	461e      	mov	r6, r3
 80026fc:	687b      	ldr	r3, [r7, #4]
 80026fe:	681c      	ldr	r4, [r3, #0]
 8002700:	687b      	ldr	r3, [r7, #4]
 8002702:	685d      	ldr	r5, [r3, #4]
 8002704:	42ac      	cmp	r4, r5
 8002706:	dc16      	bgt.n	8002736 <stm32__gpio__clear__2+0x4a>
 8002708:	6838      	ldr	r0, [r7, #0]
 800270a:	4622      	mov	r2, r4
 800270c:	1b91      	subs	r1, r2, r6
 800270e:	460b      	mov	r3, r1
 8002710:	005b      	lsls	r3, r3, #1
 8002712:	440b      	add	r3, r1
 8002714:	009b      	lsls	r3, r3, #2
 8002716:	4403      	add	r3, r0
 8002718:	60fb      	str	r3, [r7, #12]
 800271a:	6839      	ldr	r1, [r7, #0]
 800271c:	1b92      	subs	r2, r2, r6
 800271e:	4613      	mov	r3, r2
 8002720:	005b      	lsls	r3, r3, #1
 8002722:	4413      	add	r3, r2
 8002724:	009b      	lsls	r3, r3, #2
 8002726:	440b      	add	r3, r1
 8002728:	4618      	mov	r0, r3
 800272a:	f7ff ffb1 	bl	8002690 <stm32__gpio__clear>
 800272e:	42ac      	cmp	r4, r5
 8002730:	d001      	beq.n	8002736 <stm32__gpio__clear__2+0x4a>
 8002732:	3401      	adds	r4, #1
 8002734:	e7e8      	b.n	8002708 <stm32__gpio__clear__2+0x1c>
 8002736:	3714      	adds	r7, #20
 8002738:	46bd      	mov	sp, r7
 800273a:	bdf0      	pop	{r4, r5, r6, r7, pc}

0800273c <stm32__gpio__toggle>:
 800273c:	b5b0      	push	{r4, r5, r7, lr}
 800273e:	b082      	sub	sp, #8
 8002740:	af00      	add	r7, sp, #0
 8002742:	6078      	str	r0, [r7, #4]
 8002744:	6878      	ldr	r0, [r7, #4]
 8002746:	f7ff fd6d 	bl	8002224 <stm32__gpio__mode>
 800274a:	4603      	mov	r3, r0
 800274c:	2b02      	cmp	r3, #2
 800274e:	d005      	beq.n	800275c <stm32__gpio__toggle+0x20>
 8002750:	4c15      	ldr	r4, [pc, #84]	; (80027a8 <stm32__gpio__toggle+0x6c>)
 8002752:	4d16      	ldr	r5, [pc, #88]	; (80027ac <stm32__gpio__toggle+0x70>)
 8002754:	4620      	mov	r0, r4
 8002756:	4629      	mov	r1, r5
 8002758:	f007 f998 	bl	8009a8c <system__assertions__raise_assert_failure>
 800275c:	687b      	ldr	r3, [r7, #4]
 800275e:	685b      	ldr	r3, [r3, #4]
 8002760:	2b00      	cmp	r3, #0
 8002762:	d103      	bne.n	800276c <stm32__gpio__toggle+0x30>
 8002764:	21eb      	movs	r1, #235	; 0xeb
 8002766:	4812      	ldr	r0, [pc, #72]	; (80027b0 <stm32__gpio__toggle+0x74>)
 8002768:	f006 fc4c 	bl	8009004 <__gnat_rcheck_CE_Access_Check>
 800276c:	687b      	ldr	r3, [r7, #4]
 800276e:	685b      	ldr	r3, [r3, #4]
 8002770:	2b00      	cmp	r3, #0
 8002772:	d103      	bne.n	800277c <stm32__gpio__toggle+0x40>
 8002774:	21eb      	movs	r1, #235	; 0xeb
 8002776:	480e      	ldr	r0, [pc, #56]	; (80027b0 <stm32__gpio__toggle+0x74>)
 8002778:	f006 fc44 	bl	8009004 <__gnat_rcheck_CE_Access_Check>
 800277c:	687b      	ldr	r3, [r7, #4]
 800277e:	685b      	ldr	r3, [r3, #4]
 8002780:	3314      	adds	r3, #20
 8002782:	681b      	ldr	r3, [r3, #0]
 8002784:	b299      	uxth	r1, r3
 8002786:	687b      	ldr	r3, [r7, #4]
 8002788:	891a      	ldrh	r2, [r3, #8]
 800278a:	687b      	ldr	r3, [r7, #4]
 800278c:	685b      	ldr	r3, [r3, #4]
 800278e:	3314      	adds	r3, #20
 8002790:	681b      	ldr	r3, [r3, #0]
 8002792:	404a      	eors	r2, r1
 8002794:	b292      	uxth	r2, r2
 8002796:	f362 030f 	bfi	r3, r2, #0, #16
 800279a:	687a      	ldr	r2, [r7, #4]
 800279c:	6852      	ldr	r2, [r2, #4]
 800279e:	3214      	adds	r2, #20
 80027a0:	6013      	str	r3, [r2, #0]
 80027a2:	3708      	adds	r7, #8
 80027a4:	46bd      	mov	sp, r7
 80027a6:	bdb0      	pop	{r4, r5, r7, pc}
 80027a8:	0800d428 	.word	0x0800d428
 80027ac:	0800d3ec 	.word	0x0800d3ec
 80027b0:	0800d3a8 	.word	0x0800d3a8

080027b4 <stm32__gpio__toggle__2>:
 80027b4:	b5f0      	push	{r4, r5, r6, r7, lr}
 80027b6:	b085      	sub	sp, #20
 80027b8:	af00      	add	r7, sp, #0
 80027ba:	e9c7 0100 	strd	r0, r1, [r7]
 80027be:	687b      	ldr	r3, [r7, #4]
 80027c0:	681b      	ldr	r3, [r3, #0]
 80027c2:	461e      	mov	r6, r3
 80027c4:	687b      	ldr	r3, [r7, #4]
 80027c6:	681c      	ldr	r4, [r3, #0]
 80027c8:	687b      	ldr	r3, [r7, #4]
 80027ca:	685d      	ldr	r5, [r3, #4]
 80027cc:	42ac      	cmp	r4, r5
 80027ce:	dc16      	bgt.n	80027fe <stm32__gpio__toggle__2+0x4a>
 80027d0:	6838      	ldr	r0, [r7, #0]
 80027d2:	4622      	mov	r2, r4
 80027d4:	1b91      	subs	r1, r2, r6
 80027d6:	460b      	mov	r3, r1
 80027d8:	005b      	lsls	r3, r3, #1
 80027da:	440b      	add	r3, r1
 80027dc:	009b      	lsls	r3, r3, #2
 80027de:	4403      	add	r3, r0
 80027e0:	60fb      	str	r3, [r7, #12]
 80027e2:	6839      	ldr	r1, [r7, #0]
 80027e4:	1b92      	subs	r2, r2, r6
 80027e6:	4613      	mov	r3, r2
 80027e8:	005b      	lsls	r3, r3, #1
 80027ea:	4413      	add	r3, r2
 80027ec:	009b      	lsls	r3, r3, #2
 80027ee:	440b      	add	r3, r1
 80027f0:	4618      	mov	r0, r3
 80027f2:	f7ff ffa3 	bl	800273c <stm32__gpio__toggle>
 80027f6:	42ac      	cmp	r4, r5
 80027f8:	d001      	beq.n	80027fe <stm32__gpio__toggle__2+0x4a>
 80027fa:	3401      	adds	r4, #1
 80027fc:	e7e8      	b.n	80027d0 <stm32__gpio__toggle__2+0x1c>
 80027fe:	3714      	adds	r7, #20
 8002800:	46bd      	mov	sp, r7
 8002802:	bdf0      	pop	{r4, r5, r6, r7, pc}

08002804 <stm32__gpio__locked>:
 8002804:	b580      	push	{r7, lr}
 8002806:	b084      	sub	sp, #16
 8002808:	af00      	add	r7, sp, #0
 800280a:	6078      	str	r0, [r7, #4]
 800280c:	687b      	ldr	r3, [r7, #4]
 800280e:	891b      	ldrh	r3, [r3, #8]
 8002810:	81fb      	strh	r3, [r7, #14]
 8002812:	687b      	ldr	r3, [r7, #4]
 8002814:	685b      	ldr	r3, [r3, #4]
 8002816:	2b00      	cmp	r3, #0
 8002818:	d104      	bne.n	8002824 <stm32__gpio__locked+0x20>
 800281a:	f44f 7180 	mov.w	r1, #256	; 0x100
 800281e:	480b      	ldr	r0, [pc, #44]	; (800284c <stm32__gpio__locked+0x48>)
 8002820:	f006 fbf0 	bl	8009004 <__gnat_rcheck_CE_Access_Check>
 8002824:	687b      	ldr	r3, [r7, #4]
 8002826:	685b      	ldr	r3, [r3, #4]
 8002828:	331c      	adds	r3, #28
 800282a:	681b      	ldr	r3, [r3, #0]
 800282c:	b29a      	uxth	r2, r3
 800282e:	89fb      	ldrh	r3, [r7, #14]
 8002830:	4013      	ands	r3, r2
 8002832:	b29b      	uxth	r3, r3
 8002834:	89fa      	ldrh	r2, [r7, #14]
 8002836:	429a      	cmp	r2, r3
 8002838:	bf0c      	ite	eq
 800283a:	2301      	moveq	r3, #1
 800283c:	2300      	movne	r3, #0
 800283e:	b2db      	uxtb	r3, r3
 8002840:	bf00      	nop
 8002842:	4618      	mov	r0, r3
 8002844:	3710      	adds	r7, #16
 8002846:	46bd      	mov	sp, r7
 8002848:	bd80      	pop	{r7, pc}
 800284a:	bf00      	nop
 800284c:	0800d3a8 	.word	0x0800d3a8

08002850 <stm32__gpio__lock_the_pin>:
 8002850:	b480      	push	{r7}
 8002852:	b085      	sub	sp, #20
 8002854:	af00      	add	r7, sp, #0
 8002856:	6078      	str	r0, [r7, #4]
 8002858:	460b      	mov	r3, r1
 800285a:	807b      	strh	r3, [r7, #2]
 800285c:	6879      	ldr	r1, [r7, #4]
 800285e:	8878      	ldrh	r0, [r7, #2]
 8002860:	f440 3380 	orr.w	r3, r0, #65536	; 0x10000
 8002864:	60fb      	str	r3, [r7, #12]
 8002866:	68fb      	ldr	r3, [r7, #12]
 8002868:	61cb      	str	r3, [r1, #28]
 800286a:	61c8      	str	r0, [r1, #28]
 800286c:	68fb      	ldr	r3, [r7, #12]
 800286e:	61cb      	str	r3, [r1, #28]
 8002870:	69cb      	ldr	r3, [r1, #28]
 8002872:	60fb      	str	r3, [r7, #12]
 8002874:	69cb      	ldr	r3, [r1, #28]
 8002876:	60fb      	str	r3, [r7, #12]
 8002878:	3714      	adds	r7, #20
 800287a:	46bd      	mov	sp, r7
 800287c:	f85d 7b04 	ldr.w	r7, [sp], #4
 8002880:	4770      	bx	lr
 8002882:	bf00      	nop

08002884 <stm32__gpio__lock___postconditions.7348>:
 8002884:	b5b0      	push	{r4, r5, r7, lr}
 8002886:	b082      	sub	sp, #8
 8002888:	af00      	add	r7, sp, #0
 800288a:	4663      	mov	r3, ip
 800288c:	f8c7 c004 	str.w	ip, [r7, #4]
 8002890:	681b      	ldr	r3, [r3, #0]
 8002892:	4618      	mov	r0, r3
 8002894:	f7ff ffb6 	bl	8002804 <stm32__gpio__locked>
 8002898:	4603      	mov	r3, r0
 800289a:	f083 0301 	eor.w	r3, r3, #1
 800289e:	b2db      	uxtb	r3, r3
 80028a0:	2b00      	cmp	r3, #0
 80028a2:	d005      	beq.n	80028b0 <stm32__gpio__lock___postconditions.7348+0x2c>
 80028a4:	4c04      	ldr	r4, [pc, #16]	; (80028b8 <stm32__gpio__lock___postconditions.7348+0x34>)
 80028a6:	4d05      	ldr	r5, [pc, #20]	; (80028bc <stm32__gpio__lock___postconditions.7348+0x38>)
 80028a8:	4620      	mov	r0, r4
 80028aa:	4629      	mov	r1, r5
 80028ac:	f007 f8ee 	bl	8009a8c <system__assertions__raise_assert_failure>
 80028b0:	3708      	adds	r7, #8
 80028b2:	46bd      	mov	sp, r7
 80028b4:	bdb0      	pop	{r4, r5, r7, pc}
 80028b6:	bf00      	nop
 80028b8:	0800d45c 	.word	0x0800d45c
 80028bc:	0800d48c 	.word	0x0800d48c

080028c0 <stm32__gpio__lock>:
 80028c0:	b5b0      	push	{r4, r5, r7, lr}
 80028c2:	b084      	sub	sp, #16
 80028c4:	af00      	add	r7, sp, #0
 80028c6:	6078      	str	r0, [r7, #4]
 80028c8:	f107 0320 	add.w	r3, r7, #32
 80028cc:	60fb      	str	r3, [r7, #12]
 80028ce:	687b      	ldr	r3, [r7, #4]
 80028d0:	60bb      	str	r3, [r7, #8]
 80028d2:	4b19      	ldr	r3, [pc, #100]	; (8002938 <stm32__gpio__lock+0x78>)
 80028d4:	781b      	ldrb	r3, [r3, #0]
 80028d6:	f083 0301 	eor.w	r3, r3, #1
 80028da:	b2db      	uxtb	r3, r3
 80028dc:	2b00      	cmp	r3, #0
 80028de:	d004      	beq.n	80028ea <stm32__gpio__lock+0x2a>
 80028e0:	f44f 71a1 	mov.w	r1, #322	; 0x142
 80028e4:	4815      	ldr	r0, [pc, #84]	; (800293c <stm32__gpio__lock+0x7c>)
 80028e6:	f006 fbc5 	bl	8009074 <__gnat_rcheck_PE_Access_Before_Elaboration>
 80028ea:	68bb      	ldr	r3, [r7, #8]
 80028ec:	4618      	mov	r0, r3
 80028ee:	f7ff ff89 	bl	8002804 <stm32__gpio__locked>
 80028f2:	4603      	mov	r3, r0
 80028f4:	2b00      	cmp	r3, #0
 80028f6:	d005      	beq.n	8002904 <stm32__gpio__lock+0x44>
 80028f8:	4c11      	ldr	r4, [pc, #68]	; (8002940 <stm32__gpio__lock+0x80>)
 80028fa:	4d12      	ldr	r5, [pc, #72]	; (8002944 <stm32__gpio__lock+0x84>)
 80028fc:	4620      	mov	r0, r4
 80028fe:	4629      	mov	r1, r5
 8002900:	f007 f8c4 	bl	8009a8c <system__assertions__raise_assert_failure>
 8002904:	68bb      	ldr	r3, [r7, #8]
 8002906:	685b      	ldr	r3, [r3, #4]
 8002908:	2b00      	cmp	r3, #0
 800290a:	d104      	bne.n	8002916 <stm32__gpio__lock+0x56>
 800290c:	f44f 71a2 	mov.w	r1, #324	; 0x144
 8002910:	480a      	ldr	r0, [pc, #40]	; (800293c <stm32__gpio__lock+0x7c>)
 8002912:	f006 fb77 	bl	8009004 <__gnat_rcheck_CE_Access_Check>
 8002916:	68bb      	ldr	r3, [r7, #8]
 8002918:	685a      	ldr	r2, [r3, #4]
 800291a:	68bb      	ldr	r3, [r7, #8]
 800291c:	891b      	ldrh	r3, [r3, #8]
 800291e:	4619      	mov	r1, r3
 8002920:	4610      	mov	r0, r2
 8002922:	f7ff ff95 	bl	8002850 <stm32__gpio__lock_the_pin>
 8002926:	f107 0308 	add.w	r3, r7, #8
 800292a:	469c      	mov	ip, r3
 800292c:	f7ff ffaa 	bl	8002884 <stm32__gpio__lock___postconditions.7348>
 8002930:	3710      	adds	r7, #16
 8002932:	46bd      	mov	sp, r7
 8002934:	bdb0      	pop	{r4, r5, r7, pc}
 8002936:	bf00      	nop
 8002938:	20000028 	.word	0x20000028
 800293c:	0800d3a8 	.word	0x0800d3a8
 8002940:	0800d494 	.word	0x0800d494
 8002944:	0800d4c0 	.word	0x0800d4c0

08002948 <stm32__gpio__set_secure>:
 8002948:	b580      	push	{r7, lr}
 800294a:	b084      	sub	sp, #16
 800294c:	af00      	add	r7, sp, #0
 800294e:	6078      	str	r0, [r7, #4]
 8002950:	460b      	mov	r3, r1
 8002952:	70fb      	strb	r3, [r7, #3]
 8002954:	4b25      	ldr	r3, [pc, #148]	; (80029ec <stm32__gpio__set_secure+0xa4>)
 8002956:	781b      	ldrb	r3, [r3, #0]
 8002958:	f083 0301 	eor.w	r3, r3, #1
 800295c:	b2db      	uxtb	r3, r3
 800295e:	2b00      	cmp	r3, #0
 8002960:	d004      	beq.n	800296c <stm32__gpio__set_secure+0x24>
 8002962:	f44f 71aa 	mov.w	r1, #340	; 0x154
 8002966:	4822      	ldr	r0, [pc, #136]	; (80029f0 <stm32__gpio__set_secure+0xa8>)
 8002968:	f006 fb84 	bl	8009074 <__gnat_rcheck_PE_Access_Before_Elaboration>
 800296c:	687b      	ldr	r3, [r7, #4]
 800296e:	891b      	ldrh	r3, [r3, #8]
 8002970:	2101      	movs	r1, #1
 8002972:	4618      	mov	r0, r3
 8002974:	f7ff faf0 	bl	8001f58 <stm32__gpio__gpio_pinRP>
 8002978:	4603      	mov	r3, r0
 800297a:	2b00      	cmp	r3, #0
 800297c:	db01      	blt.n	8002982 <stm32__gpio__set_secure+0x3a>
 800297e:	2b0f      	cmp	r3, #15
 8002980:	dd04      	ble.n	800298c <stm32__gpio__set_secure+0x44>
 8002982:	f44f 71ac 	mov.w	r1, #344	; 0x158
 8002986:	481a      	ldr	r0, [pc, #104]	; (80029f0 <stm32__gpio__set_secure+0xa8>)
 8002988:	f006 fb6c 	bl	8009064 <__gnat_rcheck_CE_Range_Check>
 800298c:	60fb      	str	r3, [r7, #12]
 800298e:	687b      	ldr	r3, [r7, #4]
 8002990:	685b      	ldr	r3, [r3, #4]
 8002992:	2b00      	cmp	r3, #0
 8002994:	d104      	bne.n	80029a0 <stm32__gpio__set_secure+0x58>
 8002996:	f44f 71ad 	mov.w	r1, #346	; 0x15a
 800299a:	4815      	ldr	r0, [pc, #84]	; (80029f0 <stm32__gpio__set_secure+0xa8>)
 800299c:	f006 fb32 	bl	8009004 <__gnat_rcheck_CE_Access_Check>
 80029a0:	687b      	ldr	r3, [r7, #4]
 80029a2:	685b      	ldr	r3, [r3, #4]
 80029a4:	3330      	adds	r3, #48	; 0x30
 80029a6:	681b      	ldr	r3, [r3, #0]
 80029a8:	b29b      	uxth	r3, r3
 80029aa:	813b      	strh	r3, [r7, #8]
 80029ac:	893a      	ldrh	r2, [r7, #8]
 80029ae:	68fb      	ldr	r3, [r7, #12]
 80029b0:	2101      	movs	r1, #1
 80029b2:	fa01 f303 	lsl.w	r3, r1, r3
 80029b6:	b29b      	uxth	r3, r3
 80029b8:	43db      	mvns	r3, r3
 80029ba:	b29b      	uxth	r3, r3
 80029bc:	4013      	ands	r3, r2
 80029be:	b299      	uxth	r1, r3
 80029c0:	78fb      	ldrb	r3, [r7, #3]
 80029c2:	b29a      	uxth	r2, r3
 80029c4:	68fb      	ldr	r3, [r7, #12]
 80029c6:	fa02 f303 	lsl.w	r3, r2, r3
 80029ca:	b29a      	uxth	r2, r3
 80029cc:	687b      	ldr	r3, [r7, #4]
 80029ce:	685b      	ldr	r3, [r3, #4]
 80029d0:	3330      	adds	r3, #48	; 0x30
 80029d2:	681b      	ldr	r3, [r3, #0]
 80029d4:	430a      	orrs	r2, r1
 80029d6:	b292      	uxth	r2, r2
 80029d8:	f362 030f 	bfi	r3, r2, #0, #16
 80029dc:	687a      	ldr	r2, [r7, #4]
 80029de:	6852      	ldr	r2, [r2, #4]
 80029e0:	3230      	adds	r2, #48	; 0x30
 80029e2:	6013      	str	r3, [r2, #0]
 80029e4:	3710      	adds	r7, #16
 80029e6:	46bd      	mov	sp, r7
 80029e8:	bd80      	pop	{r7, pc}
 80029ea:	bf00      	nop
 80029ec:	20000029 	.word	0x20000029
 80029f0:	0800d3a8 	.word	0x0800d3a8

080029f4 <stm32__gpio__configure_io>:
 80029f4:	b580      	push	{r7, lr}
 80029f6:	b088      	sub	sp, #32
 80029f8:	af00      	add	r7, sp, #0
 80029fa:	6078      	str	r0, [r7, #4]
 80029fc:	6039      	str	r1, [r7, #0]
 80029fe:	4b79      	ldr	r3, [pc, #484]	; (8002be4 <stm32__gpio__configure_io+0x1f0>)
 8002a00:	781b      	ldrb	r3, [r3, #0]
 8002a02:	f083 0301 	eor.w	r3, r3, #1
 8002a06:	b2db      	uxtb	r3, r3
 8002a08:	2b00      	cmp	r3, #0
 8002a0a:	d004      	beq.n	8002a16 <stm32__gpio__configure_io+0x22>
 8002a0c:	f240 1161 	movw	r1, #353	; 0x161
 8002a10:	4875      	ldr	r0, [pc, #468]	; (8002be8 <stm32__gpio__configure_io+0x1f4>)
 8002a12:	f006 fb2f 	bl	8009074 <__gnat_rcheck_PE_Access_Before_Elaboration>
 8002a16:	687b      	ldr	r3, [r7, #4]
 8002a18:	891b      	ldrh	r3, [r3, #8]
 8002a1a:	2101      	movs	r1, #1
 8002a1c:	4618      	mov	r0, r3
 8002a1e:	f7ff fa9b 	bl	8001f58 <stm32__gpio__gpio_pinRP>
 8002a22:	4603      	mov	r3, r0
 8002a24:	2b00      	cmp	r3, #0
 8002a26:	db01      	blt.n	8002a2c <stm32__gpio__configure_io+0x38>
 8002a28:	2b0f      	cmp	r3, #15
 8002a2a:	dd04      	ble.n	8002a36 <stm32__gpio__configure_io+0x42>
 8002a2c:	f240 1165 	movw	r1, #357	; 0x165
 8002a30:	486d      	ldr	r0, [pc, #436]	; (8002be8 <stm32__gpio__configure_io+0x1f4>)
 8002a32:	f006 fb17 	bl	8009064 <__gnat_rcheck_CE_Range_Check>
 8002a36:	61fb      	str	r3, [r7, #28]
 8002a38:	687b      	ldr	r3, [r7, #4]
 8002a3a:	685b      	ldr	r3, [r3, #4]
 8002a3c:	2b00      	cmp	r3, #0
 8002a3e:	d104      	bne.n	8002a4a <stm32__gpio__configure_io+0x56>
 8002a40:	f240 1167 	movw	r1, #359	; 0x167
 8002a44:	4868      	ldr	r0, [pc, #416]	; (8002be8 <stm32__gpio__configure_io+0x1f4>)
 8002a46:	f006 fadd 	bl	8009004 <__gnat_rcheck_CE_Access_Check>
 8002a4a:	687b      	ldr	r3, [r7, #4]
 8002a4c:	685b      	ldr	r3, [r3, #4]
 8002a4e:	3330      	adds	r3, #48	; 0x30
 8002a50:	681b      	ldr	r3, [r3, #0]
 8002a52:	b29b      	uxth	r3, r3
 8002a54:	833b      	strh	r3, [r7, #24]
 8002a56:	8b3a      	ldrh	r2, [r7, #24]
 8002a58:	69fb      	ldr	r3, [r7, #28]
 8002a5a:	2101      	movs	r1, #1
 8002a5c:	fa01 f303 	lsl.w	r3, r1, r3
 8002a60:	b29b      	uxth	r3, r3
 8002a62:	43db      	mvns	r3, r3
 8002a64:	b29b      	uxth	r3, r3
 8002a66:	4013      	ands	r3, r2
 8002a68:	b299      	uxth	r1, r3
 8002a6a:	683b      	ldr	r3, [r7, #0]
 8002a6c:	791b      	ldrb	r3, [r3, #4]
 8002a6e:	b29a      	uxth	r2, r3
 8002a70:	69fb      	ldr	r3, [r7, #28]
 8002a72:	fa02 f303 	lsl.w	r3, r2, r3
 8002a76:	b29a      	uxth	r2, r3
 8002a78:	687b      	ldr	r3, [r7, #4]
 8002a7a:	685b      	ldr	r3, [r3, #4]
 8002a7c:	3330      	adds	r3, #48	; 0x30
 8002a7e:	681b      	ldr	r3, [r3, #0]
 8002a80:	430a      	orrs	r2, r1
 8002a82:	b292      	uxth	r2, r2
 8002a84:	f362 030f 	bfi	r3, r2, #0, #16
 8002a88:	687a      	ldr	r2, [r7, #4]
 8002a8a:	6852      	ldr	r2, [r2, #4]
 8002a8c:	3230      	adds	r2, #48	; 0x30
 8002a8e:	6013      	str	r3, [r2, #0]
 8002a90:	687b      	ldr	r3, [r7, #4]
 8002a92:	685b      	ldr	r3, [r3, #4]
 8002a94:	2b00      	cmp	r3, #0
 8002a96:	d104      	bne.n	8002aa2 <stm32__gpio__configure_io+0xae>
 8002a98:	f44f 71b4 	mov.w	r1, #360	; 0x168
 8002a9c:	4852      	ldr	r0, [pc, #328]	; (8002be8 <stm32__gpio__configure_io+0x1f4>)
 8002a9e:	f006 fab1 	bl	8009004 <__gnat_rcheck_CE_Access_Check>
 8002aa2:	687b      	ldr	r3, [r7, #4]
 8002aa4:	685b      	ldr	r3, [r3, #4]
 8002aa6:	681b      	ldr	r3, [r3, #0]
 8002aa8:	617b      	str	r3, [r7, #20]
 8002aaa:	697a      	ldr	r2, [r7, #20]
 8002aac:	69fb      	ldr	r3, [r7, #28]
 8002aae:	005b      	lsls	r3, r3, #1
 8002ab0:	4619      	mov	r1, r3
 8002ab2:	2303      	movs	r3, #3
 8002ab4:	408b      	lsls	r3, r1
 8002ab6:	43db      	mvns	r3, r3
 8002ab8:	401a      	ands	r2, r3
 8002aba:	683b      	ldr	r3, [r7, #0]
 8002abc:	781b      	ldrb	r3, [r3, #0]
 8002abe:	4619      	mov	r1, r3
 8002ac0:	69fb      	ldr	r3, [r7, #28]
 8002ac2:	005b      	lsls	r3, r3, #1
 8002ac4:	fa01 f303 	lsl.w	r3, r1, r3
 8002ac8:	6879      	ldr	r1, [r7, #4]
 8002aca:	6849      	ldr	r1, [r1, #4]
 8002acc:	6809      	ldr	r1, [r1, #0]
 8002ace:	4313      	orrs	r3, r2
 8002ad0:	4619      	mov	r1, r3
 8002ad2:	687b      	ldr	r3, [r7, #4]
 8002ad4:	685b      	ldr	r3, [r3, #4]
 8002ad6:	460a      	mov	r2, r1
 8002ad8:	601a      	str	r2, [r3, #0]
 8002ada:	687b      	ldr	r3, [r7, #4]
 8002adc:	685b      	ldr	r3, [r3, #4]
 8002ade:	2b00      	cmp	r3, #0
 8002ae0:	d104      	bne.n	8002aec <stm32__gpio__configure_io+0xf8>
 8002ae2:	f240 1169 	movw	r1, #361	; 0x169
 8002ae6:	4840      	ldr	r0, [pc, #256]	; (8002be8 <stm32__gpio__configure_io+0x1f4>)
 8002ae8:	f006 fa8c 	bl	8009004 <__gnat_rcheck_CE_Access_Check>
 8002aec:	687b      	ldr	r3, [r7, #4]
 8002aee:	685b      	ldr	r3, [r3, #4]
 8002af0:	3304      	adds	r3, #4
 8002af2:	681b      	ldr	r3, [r3, #0]
 8002af4:	b29b      	uxth	r3, r3
 8002af6:	823b      	strh	r3, [r7, #16]
 8002af8:	8a3a      	ldrh	r2, [r7, #16]
 8002afa:	69fb      	ldr	r3, [r7, #28]
 8002afc:	2101      	movs	r1, #1
 8002afe:	fa01 f303 	lsl.w	r3, r1, r3
 8002b02:	b29b      	uxth	r3, r3
 8002b04:	43db      	mvns	r3, r3
 8002b06:	b29b      	uxth	r3, r3
 8002b08:	4013      	ands	r3, r2
 8002b0a:	b299      	uxth	r1, r3
 8002b0c:	683b      	ldr	r3, [r7, #0]
 8002b0e:	785b      	ldrb	r3, [r3, #1]
 8002b10:	2b01      	cmp	r3, #1
 8002b12:	bf0c      	ite	eq
 8002b14:	2301      	moveq	r3, #1
 8002b16:	2300      	movne	r3, #0
 8002b18:	b2db      	uxtb	r3, r3
 8002b1a:	b29a      	uxth	r2, r3
 8002b1c:	69fb      	ldr	r3, [r7, #28]
 8002b1e:	fa02 f303 	lsl.w	r3, r2, r3
 8002b22:	b29a      	uxth	r2, r3
 8002b24:	687b      	ldr	r3, [r7, #4]
 8002b26:	685b      	ldr	r3, [r3, #4]
 8002b28:	3304      	adds	r3, #4
 8002b2a:	681b      	ldr	r3, [r3, #0]
 8002b2c:	430a      	orrs	r2, r1
 8002b2e:	b292      	uxth	r2, r2
 8002b30:	f362 030f 	bfi	r3, r2, #0, #16
 8002b34:	687a      	ldr	r2, [r7, #4]
 8002b36:	6852      	ldr	r2, [r2, #4]
 8002b38:	3204      	adds	r2, #4
 8002b3a:	6013      	str	r3, [r2, #0]
 8002b3c:	687b      	ldr	r3, [r7, #4]
 8002b3e:	685b      	ldr	r3, [r3, #4]
 8002b40:	2b00      	cmp	r3, #0
 8002b42:	d104      	bne.n	8002b4e <stm32__gpio__configure_io+0x15a>
 8002b44:	f44f 71b5 	mov.w	r1, #362	; 0x16a
 8002b48:	4827      	ldr	r0, [pc, #156]	; (8002be8 <stm32__gpio__configure_io+0x1f4>)
 8002b4a:	f006 fa5b 	bl	8009004 <__gnat_rcheck_CE_Access_Check>
 8002b4e:	687b      	ldr	r3, [r7, #4]
 8002b50:	685b      	ldr	r3, [r3, #4]
 8002b52:	3308      	adds	r3, #8
 8002b54:	681b      	ldr	r3, [r3, #0]
 8002b56:	60fb      	str	r3, [r7, #12]
 8002b58:	68fa      	ldr	r2, [r7, #12]
 8002b5a:	69fb      	ldr	r3, [r7, #28]
 8002b5c:	005b      	lsls	r3, r3, #1
 8002b5e:	4619      	mov	r1, r3
 8002b60:	2303      	movs	r3, #3
 8002b62:	408b      	lsls	r3, r1
 8002b64:	43db      	mvns	r3, r3
 8002b66:	401a      	ands	r2, r3
 8002b68:	683b      	ldr	r3, [r7, #0]
 8002b6a:	789b      	ldrb	r3, [r3, #2]
 8002b6c:	4619      	mov	r1, r3
 8002b6e:	69fb      	ldr	r3, [r7, #28]
 8002b70:	005b      	lsls	r3, r3, #1
 8002b72:	fa01 f303 	lsl.w	r3, r1, r3
 8002b76:	6879      	ldr	r1, [r7, #4]
 8002b78:	6849      	ldr	r1, [r1, #4]
 8002b7a:	3108      	adds	r1, #8
 8002b7c:	6809      	ldr	r1, [r1, #0]
 8002b7e:	4313      	orrs	r3, r2
 8002b80:	4619      	mov	r1, r3
 8002b82:	687b      	ldr	r3, [r7, #4]
 8002b84:	685b      	ldr	r3, [r3, #4]
 8002b86:	3308      	adds	r3, #8
 8002b88:	460a      	mov	r2, r1
 8002b8a:	601a      	str	r2, [r3, #0]
 8002b8c:	687b      	ldr	r3, [r7, #4]
 8002b8e:	685b      	ldr	r3, [r3, #4]
 8002b90:	2b00      	cmp	r3, #0
 8002b92:	d104      	bne.n	8002b9e <stm32__gpio__configure_io+0x1aa>
 8002b94:	f240 116b 	movw	r1, #363	; 0x16b
 8002b98:	4813      	ldr	r0, [pc, #76]	; (8002be8 <stm32__gpio__configure_io+0x1f4>)
 8002b9a:	f006 fa33 	bl	8009004 <__gnat_rcheck_CE_Access_Check>
 8002b9e:	687b      	ldr	r3, [r7, #4]
 8002ba0:	685b      	ldr	r3, [r3, #4]
 8002ba2:	330c      	adds	r3, #12
 8002ba4:	681b      	ldr	r3, [r3, #0]
 8002ba6:	60bb      	str	r3, [r7, #8]
 8002ba8:	68ba      	ldr	r2, [r7, #8]
 8002baa:	69fb      	ldr	r3, [r7, #28]
 8002bac:	005b      	lsls	r3, r3, #1
 8002bae:	4619      	mov	r1, r3
 8002bb0:	2303      	movs	r3, #3
 8002bb2:	408b      	lsls	r3, r1
 8002bb4:	43db      	mvns	r3, r3
 8002bb6:	401a      	ands	r2, r3
 8002bb8:	683b      	ldr	r3, [r7, #0]
 8002bba:	78db      	ldrb	r3, [r3, #3]
 8002bbc:	4619      	mov	r1, r3
 8002bbe:	69fb      	ldr	r3, [r7, #28]
 8002bc0:	005b      	lsls	r3, r3, #1
 8002bc2:	fa01 f303 	lsl.w	r3, r1, r3
 8002bc6:	6879      	ldr	r1, [r7, #4]
 8002bc8:	6849      	ldr	r1, [r1, #4]
 8002bca:	310c      	adds	r1, #12
 8002bcc:	6809      	ldr	r1, [r1, #0]
 8002bce:	4313      	orrs	r3, r2
 8002bd0:	4619      	mov	r1, r3
 8002bd2:	687b      	ldr	r3, [r7, #4]
 8002bd4:	685b      	ldr	r3, [r3, #4]
 8002bd6:	330c      	adds	r3, #12
 8002bd8:	460a      	mov	r2, r1
 8002bda:	601a      	str	r2, [r3, #0]
 8002bdc:	3720      	adds	r7, #32
 8002bde:	46bd      	mov	sp, r7
 8002be0:	bd80      	pop	{r7, pc}
 8002be2:	bf00      	nop
 8002be4:	2000002a 	.word	0x2000002a
 8002be8:	0800d3a8 	.word	0x0800d3a8

08002bec <stm32__gpio__configure_io__2>:
 8002bec:	b5f0      	push	{r4, r5, r6, r7, lr}
 8002bee:	b087      	sub	sp, #28
 8002bf0:	af00      	add	r7, sp, #0
 8002bf2:	e9c7 0102 	strd	r0, r1, [r7, #8]
 8002bf6:	607a      	str	r2, [r7, #4]
 8002bf8:	68fb      	ldr	r3, [r7, #12]
 8002bfa:	681a      	ldr	r2, [r3, #0]
 8002bfc:	68fb      	ldr	r3, [r7, #12]
 8002bfe:	685b      	ldr	r3, [r3, #4]
 8002c00:	4615      	mov	r5, r2
 8002c02:	4614      	mov	r4, r2
 8002c04:	461e      	mov	r6, r3
 8002c06:	42b4      	cmp	r4, r6
 8002c08:	dc17      	bgt.n	8002c3a <stm32__gpio__configure_io__2+0x4e>
 8002c0a:	68b8      	ldr	r0, [r7, #8]
 8002c0c:	4622      	mov	r2, r4
 8002c0e:	1b51      	subs	r1, r2, r5
 8002c10:	460b      	mov	r3, r1
 8002c12:	005b      	lsls	r3, r3, #1
 8002c14:	440b      	add	r3, r1
 8002c16:	009b      	lsls	r3, r3, #2
 8002c18:	4403      	add	r3, r0
 8002c1a:	617b      	str	r3, [r7, #20]
 8002c1c:	68b9      	ldr	r1, [r7, #8]
 8002c1e:	1b52      	subs	r2, r2, r5
 8002c20:	4613      	mov	r3, r2
 8002c22:	005b      	lsls	r3, r3, #1
 8002c24:	4413      	add	r3, r2
 8002c26:	009b      	lsls	r3, r3, #2
 8002c28:	440b      	add	r3, r1
 8002c2a:	6879      	ldr	r1, [r7, #4]
 8002c2c:	4618      	mov	r0, r3
 8002c2e:	f7ff fee1 	bl	80029f4 <stm32__gpio__configure_io>
 8002c32:	42b4      	cmp	r4, r6
 8002c34:	d001      	beq.n	8002c3a <stm32__gpio__configure_io__2+0x4e>
 8002c36:	3401      	adds	r4, #1
 8002c38:	e7e7      	b.n	8002c0a <stm32__gpio__configure_io__2+0x1e>
 8002c3a:	371c      	adds	r7, #28
 8002c3c:	46bd      	mov	sp, r7
 8002c3e:	bdf0      	pop	{r4, r5, r6, r7, pc}

08002c40 <stm32__gpio__configure_alternate_function>:
 8002c40:	b580      	push	{r7, lr}
 8002c42:	b086      	sub	sp, #24
 8002c44:	af00      	add	r7, sp, #0
 8002c46:	6078      	str	r0, [r7, #4]
 8002c48:	460b      	mov	r3, r1
 8002c4a:	70fb      	strb	r3, [r7, #3]
 8002c4c:	4b3f      	ldr	r3, [pc, #252]	; (8002d4c <stm32__gpio__configure_alternate_function+0x10c>)
 8002c4e:	781b      	ldrb	r3, [r3, #0]
 8002c50:	f083 0301 	eor.w	r3, r3, #1
 8002c54:	b2db      	uxtb	r3, r3
 8002c56:	2b00      	cmp	r3, #0
 8002c58:	d004      	beq.n	8002c64 <stm32__gpio__configure_alternate_function+0x24>
 8002c5a:	f44f 71c0 	mov.w	r1, #384	; 0x180
 8002c5e:	483c      	ldr	r0, [pc, #240]	; (8002d50 <stm32__gpio__configure_alternate_function+0x110>)
 8002c60:	f006 fa08 	bl	8009074 <__gnat_rcheck_PE_Access_Before_Elaboration>
 8002c64:	687b      	ldr	r3, [r7, #4]
 8002c66:	891b      	ldrh	r3, [r3, #8]
 8002c68:	2101      	movs	r1, #1
 8002c6a:	4618      	mov	r0, r3
 8002c6c:	f7ff f974 	bl	8001f58 <stm32__gpio__gpio_pinRP>
 8002c70:	4603      	mov	r3, r0
 8002c72:	2b00      	cmp	r3, #0
 8002c74:	db01      	blt.n	8002c7a <stm32__gpio__configure_alternate_function+0x3a>
 8002c76:	2b0f      	cmp	r3, #15
 8002c78:	dd04      	ble.n	8002c84 <stm32__gpio__configure_alternate_function+0x44>
 8002c7a:	f44f 71c2 	mov.w	r1, #388	; 0x184
 8002c7e:	4834      	ldr	r0, [pc, #208]	; (8002d50 <stm32__gpio__configure_alternate_function+0x110>)
 8002c80:	f006 f9f0 	bl	8009064 <__gnat_rcheck_CE_Range_Check>
 8002c84:	617b      	str	r3, [r7, #20]
 8002c86:	697b      	ldr	r3, [r7, #20]
 8002c88:	2b07      	cmp	r3, #7
 8002c8a:	dc2d      	bgt.n	8002ce8 <stm32__gpio__configure_alternate_function+0xa8>
 8002c8c:	687b      	ldr	r3, [r7, #4]
 8002c8e:	685b      	ldr	r3, [r3, #4]
 8002c90:	2b00      	cmp	r3, #0
 8002c92:	d104      	bne.n	8002c9e <stm32__gpio__configure_alternate_function+0x5e>
 8002c94:	f240 1187 	movw	r1, #391	; 0x187
 8002c98:	482d      	ldr	r0, [pc, #180]	; (8002d50 <stm32__gpio__configure_alternate_function+0x110>)
 8002c9a:	f006 f9b3 	bl	8009004 <__gnat_rcheck_CE_Access_Check>
 8002c9e:	697b      	ldr	r3, [r7, #20]
 8002ca0:	2b07      	cmp	r3, #7
 8002ca2:	dd04      	ble.n	8002cae <stm32__gpio__configure_alternate_function+0x6e>
 8002ca4:	f240 1187 	movw	r1, #391	; 0x187
 8002ca8:	4829      	ldr	r0, [pc, #164]	; (8002d50 <stm32__gpio__configure_alternate_function+0x110>)
 8002caa:	f006 f9c3 	bl	8009034 <__gnat_rcheck_CE_Index_Check>
 8002cae:	687b      	ldr	r3, [r7, #4]
 8002cb0:	685b      	ldr	r3, [r3, #4]
 8002cb2:	3320      	adds	r3, #32
 8002cb4:	681b      	ldr	r3, [r3, #0]
 8002cb6:	613b      	str	r3, [r7, #16]
 8002cb8:	693a      	ldr	r2, [r7, #16]
 8002cba:	697b      	ldr	r3, [r7, #20]
 8002cbc:	009b      	lsls	r3, r3, #2
 8002cbe:	4619      	mov	r1, r3
 8002cc0:	230f      	movs	r3, #15
 8002cc2:	408b      	lsls	r3, r1
 8002cc4:	43db      	mvns	r3, r3
 8002cc6:	401a      	ands	r2, r3
 8002cc8:	78fb      	ldrb	r3, [r7, #3]
 8002cca:	6979      	ldr	r1, [r7, #20]
 8002ccc:	0089      	lsls	r1, r1, #2
 8002cce:	408b      	lsls	r3, r1
 8002cd0:	6879      	ldr	r1, [r7, #4]
 8002cd2:	6849      	ldr	r1, [r1, #4]
 8002cd4:	3120      	adds	r1, #32
 8002cd6:	6809      	ldr	r1, [r1, #0]
 8002cd8:	4313      	orrs	r3, r2
 8002cda:	4619      	mov	r1, r3
 8002cdc:	687b      	ldr	r3, [r7, #4]
 8002cde:	685b      	ldr	r3, [r3, #4]
 8002ce0:	3320      	adds	r3, #32
 8002ce2:	460a      	mov	r2, r1
 8002ce4:	601a      	str	r2, [r3, #0]
 8002ce6:	e02e      	b.n	8002d46 <stm32__gpio__configure_alternate_function+0x106>
 8002ce8:	687b      	ldr	r3, [r7, #4]
 8002cea:	685b      	ldr	r3, [r3, #4]
 8002cec:	2b00      	cmp	r3, #0
 8002cee:	d104      	bne.n	8002cfa <stm32__gpio__configure_alternate_function+0xba>
 8002cf0:	f240 1189 	movw	r1, #393	; 0x189
 8002cf4:	4816      	ldr	r0, [pc, #88]	; (8002d50 <stm32__gpio__configure_alternate_function+0x110>)
 8002cf6:	f006 f985 	bl	8009004 <__gnat_rcheck_CE_Access_Check>
 8002cfa:	697b      	ldr	r3, [r7, #20]
 8002cfc:	2b07      	cmp	r3, #7
 8002cfe:	dc04      	bgt.n	8002d0a <stm32__gpio__configure_alternate_function+0xca>
 8002d00:	f240 1189 	movw	r1, #393	; 0x189
 8002d04:	4812      	ldr	r0, [pc, #72]	; (8002d50 <stm32__gpio__configure_alternate_function+0x110>)
 8002d06:	f006 f995 	bl	8009034 <__gnat_rcheck_CE_Index_Check>
 8002d0a:	687b      	ldr	r3, [r7, #4]
 8002d0c:	685b      	ldr	r3, [r3, #4]
 8002d0e:	3324      	adds	r3, #36	; 0x24
 8002d10:	681b      	ldr	r3, [r3, #0]
 8002d12:	60fb      	str	r3, [r7, #12]
 8002d14:	68fa      	ldr	r2, [r7, #12]
 8002d16:	697b      	ldr	r3, [r7, #20]
 8002d18:	3b08      	subs	r3, #8
 8002d1a:	009b      	lsls	r3, r3, #2
 8002d1c:	4619      	mov	r1, r3
 8002d1e:	230f      	movs	r3, #15
 8002d20:	408b      	lsls	r3, r1
 8002d22:	43db      	mvns	r3, r3
 8002d24:	401a      	ands	r2, r3
 8002d26:	78fb      	ldrb	r3, [r7, #3]
 8002d28:	6979      	ldr	r1, [r7, #20]
 8002d2a:	3908      	subs	r1, #8
 8002d2c:	0089      	lsls	r1, r1, #2
 8002d2e:	408b      	lsls	r3, r1
 8002d30:	6879      	ldr	r1, [r7, #4]
 8002d32:	6849      	ldr	r1, [r1, #4]
 8002d34:	3124      	adds	r1, #36	; 0x24
 8002d36:	6809      	ldr	r1, [r1, #0]
 8002d38:	4313      	orrs	r3, r2
 8002d3a:	4619      	mov	r1, r3
 8002d3c:	687b      	ldr	r3, [r7, #4]
 8002d3e:	685b      	ldr	r3, [r3, #4]
 8002d40:	3324      	adds	r3, #36	; 0x24
 8002d42:	460a      	mov	r2, r1
 8002d44:	601a      	str	r2, [r3, #0]
 8002d46:	3718      	adds	r7, #24
 8002d48:	46bd      	mov	sp, r7
 8002d4a:	bd80      	pop	{r7, pc}
 8002d4c:	2000002d 	.word	0x2000002d
 8002d50:	0800d3a8 	.word	0x0800d3a8

08002d54 <stm32__gpio__interrupt_line_number>:
 8002d54:	b590      	push	{r4, r7, lr}
 8002d56:	b083      	sub	sp, #12
 8002d58:	af00      	add	r7, sp, #0
 8002d5a:	6078      	str	r0, [r7, #4]
 8002d5c:	4b13      	ldr	r3, [pc, #76]	; (8002dac <stm32__gpio__interrupt_line_number+0x58>)
 8002d5e:	781b      	ldrb	r3, [r3, #0]
 8002d60:	f083 0301 	eor.w	r3, r3, #1
 8002d64:	b2db      	uxtb	r3, r3
 8002d66:	2b00      	cmp	r3, #0
 8002d68:	d004      	beq.n	8002d74 <stm32__gpio__interrupt_line_number+0x20>
 8002d6a:	f240 119f 	movw	r1, #415	; 0x19f
 8002d6e:	4810      	ldr	r0, [pc, #64]	; (8002db0 <stm32__gpio__interrupt_line_number+0x5c>)
 8002d70:	f006 f980 	bl	8009074 <__gnat_rcheck_PE_Access_Before_Elaboration>
 8002d74:	687b      	ldr	r3, [r7, #4]
 8002d76:	891b      	ldrh	r3, [r3, #8]
 8002d78:	2101      	movs	r1, #1
 8002d7a:	4618      	mov	r0, r3
 8002d7c:	f7ff f8ec 	bl	8001f58 <stm32__gpio__gpio_pinRP>
 8002d80:	4603      	mov	r3, r0
 8002d82:	ea4f 74e3 	mov.w	r4, r3, asr #31
 8002d86:	2b00      	cmp	r3, #0
 8002d88:	f174 0200 	sbcs.w	r2, r4, #0
 8002d8c:	db03      	blt.n	8002d96 <stm32__gpio__interrupt_line_number+0x42>
 8002d8e:	2b17      	cmp	r3, #23
 8002d90:	f174 0200 	sbcs.w	r2, r4, #0
 8002d94:	db04      	blt.n	8002da0 <stm32__gpio__interrupt_line_number+0x4c>
 8002d96:	f240 11a3 	movw	r1, #419	; 0x1a3
 8002d9a:	4805      	ldr	r0, [pc, #20]	; (8002db0 <stm32__gpio__interrupt_line_number+0x5c>)
 8002d9c:	f006 f962 	bl	8009064 <__gnat_rcheck_CE_Range_Check>
 8002da0:	b2db      	uxtb	r3, r3
 8002da2:	bf00      	nop
 8002da4:	4618      	mov	r0, r3
 8002da6:	370c      	adds	r7, #12
 8002da8:	46bd      	mov	sp, r7
 8002daa:	bd90      	pop	{r4, r7, pc}
 8002dac:	2000002b 	.word	0x2000002b
 8002db0:	0800d3a8 	.word	0x0800d3a8

08002db4 <stm32__gpio__configure_trigger>:
 8002db4:	b590      	push	{r4, r7, lr}
 8002db6:	b085      	sub	sp, #20
 8002db8:	af00      	add	r7, sp, #0
 8002dba:	6078      	str	r0, [r7, #4]
 8002dbc:	460b      	mov	r3, r1
 8002dbe:	70fb      	strb	r3, [r7, #3]
 8002dc0:	4613      	mov	r3, r2
 8002dc2:	70bb      	strb	r3, [r7, #2]
 8002dc4:	4b1e      	ldr	r3, [pc, #120]	; (8002e40 <stm32__gpio__configure_trigger+0x8c>)
 8002dc6:	781b      	ldrb	r3, [r3, #0]
 8002dc8:	f083 0301 	eor.w	r3, r3, #1
 8002dcc:	b2db      	uxtb	r3, r3
 8002dce:	2b00      	cmp	r3, #0
 8002dd0:	d004      	beq.n	8002ddc <stm32__gpio__configure_trigger+0x28>
 8002dd2:	f44f 71d5 	mov.w	r1, #426	; 0x1aa
 8002dd6:	481b      	ldr	r0, [pc, #108]	; (8002e44 <stm32__gpio__configure_trigger+0x90>)
 8002dd8:	f006 f94c 	bl	8009074 <__gnat_rcheck_PE_Access_Before_Elaboration>
 8002ddc:	687b      	ldr	r3, [r7, #4]
 8002dde:	891b      	ldrh	r3, [r3, #8]
 8002de0:	2101      	movs	r1, #1
 8002de2:	4618      	mov	r0, r3
 8002de4:	f7ff f8b8 	bl	8001f58 <stm32__gpio__gpio_pinRP>
 8002de8:	4603      	mov	r3, r0
 8002dea:	ea4f 74e3 	mov.w	r4, r3, asr #31
 8002dee:	2b00      	cmp	r3, #0
 8002df0:	f174 0200 	sbcs.w	r2, r4, #0
 8002df4:	db03      	blt.n	8002dfe <stm32__gpio__configure_trigger+0x4a>
 8002df6:	2b17      	cmp	r3, #23
 8002df8:	f174 0200 	sbcs.w	r2, r4, #0
 8002dfc:	db04      	blt.n	8002e08 <stm32__gpio__configure_trigger+0x54>
 8002dfe:	f44f 71d8 	mov.w	r1, #432	; 0x1b0
 8002e02:	4810      	ldr	r0, [pc, #64]	; (8002e44 <stm32__gpio__configure_trigger+0x90>)
 8002e04:	f006 f92e 	bl	8009064 <__gnat_rcheck_CE_Range_Check>
 8002e08:	73fb      	strb	r3, [r7, #15]
 8002e0a:	78fb      	ldrb	r3, [r7, #3]
 8002e0c:	2b02      	cmp	r3, #2
 8002e0e:	d806      	bhi.n	8002e1e <stm32__gpio__configure_trigger+0x6a>
 8002e10:	78ba      	ldrb	r2, [r7, #2]
 8002e12:	78f9      	ldrb	r1, [r7, #3]
 8002e14:	7bfb      	ldrb	r3, [r7, #15]
 8002e16:	4618      	mov	r0, r3
 8002e18:	f7fe ff42 	bl	8001ca0 <stm32__exti__enable_external_interrupt>
 8002e1c:	e00d      	b.n	8002e3a <stm32__gpio__configure_trigger+0x86>
 8002e1e:	78fb      	ldrb	r3, [r7, #3]
 8002e20:	2b02      	cmp	r3, #2
 8002e22:	d804      	bhi.n	8002e2e <stm32__gpio__configure_trigger+0x7a>
 8002e24:	f240 11b9 	movw	r1, #441	; 0x1b9
 8002e28:	4806      	ldr	r0, [pc, #24]	; (8002e44 <stm32__gpio__configure_trigger+0x90>)
 8002e2a:	f006 f91b 	bl	8009064 <__gnat_rcheck_CE_Range_Check>
 8002e2e:	78fa      	ldrb	r2, [r7, #3]
 8002e30:	7bfb      	ldrb	r3, [r7, #15]
 8002e32:	4611      	mov	r1, r2
 8002e34:	4618      	mov	r0, r3
 8002e36:	f7fe fff7 	bl	8001e28 <stm32__exti__enable_external_event>
 8002e3a:	3714      	adds	r7, #20
 8002e3c:	46bd      	mov	sp, r7
 8002e3e:	bd90      	pop	{r4, r7, pc}
 8002e40:	2000002c 	.word	0x2000002c
 8002e44:	0800d3a8 	.word	0x0800d3a8

08002e48 <stm32__gpio___elabb>:
 8002e48:	b480      	push	{r7}
 8002e4a:	af00      	add	r7, sp, #0
 8002e4c:	4b10      	ldr	r3, [pc, #64]	; (8002e90 <stm32__gpio___elabb+0x48>)
 8002e4e:	2201      	movs	r2, #1
 8002e50:	701a      	strb	r2, [r3, #0]
 8002e52:	4b10      	ldr	r3, [pc, #64]	; (8002e94 <stm32__gpio___elabb+0x4c>)
 8002e54:	2201      	movs	r2, #1
 8002e56:	701a      	strb	r2, [r3, #0]
 8002e58:	4b0f      	ldr	r3, [pc, #60]	; (8002e98 <stm32__gpio___elabb+0x50>)
 8002e5a:	2201      	movs	r2, #1
 8002e5c:	701a      	strb	r2, [r3, #0]
 8002e5e:	4b0f      	ldr	r3, [pc, #60]	; (8002e9c <stm32__gpio___elabb+0x54>)
 8002e60:	2201      	movs	r2, #1
 8002e62:	701a      	strb	r2, [r3, #0]
 8002e64:	4b0e      	ldr	r3, [pc, #56]	; (8002ea0 <stm32__gpio___elabb+0x58>)
 8002e66:	2201      	movs	r2, #1
 8002e68:	701a      	strb	r2, [r3, #0]
 8002e6a:	4b0e      	ldr	r3, [pc, #56]	; (8002ea4 <stm32__gpio___elabb+0x5c>)
 8002e6c:	2201      	movs	r2, #1
 8002e6e:	701a      	strb	r2, [r3, #0]
 8002e70:	4b0d      	ldr	r3, [pc, #52]	; (8002ea8 <stm32__gpio___elabb+0x60>)
 8002e72:	2201      	movs	r2, #1
 8002e74:	701a      	strb	r2, [r3, #0]
 8002e76:	4b0d      	ldr	r3, [pc, #52]	; (8002eac <stm32__gpio___elabb+0x64>)
 8002e78:	2201      	movs	r2, #1
 8002e7a:	701a      	strb	r2, [r3, #0]
 8002e7c:	4b0c      	ldr	r3, [pc, #48]	; (8002eb0 <stm32__gpio___elabb+0x68>)
 8002e7e:	2201      	movs	r2, #1
 8002e80:	701a      	strb	r2, [r3, #0]
 8002e82:	4b0c      	ldr	r3, [pc, #48]	; (8002eb4 <stm32__gpio___elabb+0x6c>)
 8002e84:	2201      	movs	r2, #1
 8002e86:	701a      	strb	r2, [r3, #0]
 8002e88:	46bd      	mov	sp, r7
 8002e8a:	f85d 7b04 	ldr.w	r7, [sp], #4
 8002e8e:	4770      	bx	lr
 8002e90:	20000024 	.word	0x20000024
 8002e94:	20000025 	.word	0x20000025
 8002e98:	20000026 	.word	0x20000026
 8002e9c:	20000027 	.word	0x20000027
 8002ea0:	20000028 	.word	0x20000028
 8002ea4:	20000029 	.word	0x20000029
 8002ea8:	2000002a 	.word	0x2000002a
 8002eac:	2000002d 	.word	0x2000002d
 8002eb0:	2000002b 	.word	0x2000002b
 8002eb4:	2000002c 	.word	0x2000002c

08002eb8 <stm32__gpio___elabs>:
 8002eb8:	b580      	push	{r7, lr}
 8002eba:	af00      	add	r7, sp, #0
 8002ebc:	4803      	ldr	r0, [pc, #12]	; (8002ecc <stm32__gpio___elabs+0x14>)
 8002ebe:	f006 f9e3 	bl	8009288 <ada__tags__check_tsd>
 8002ec2:	4b03      	ldr	r3, [pc, #12]	; (8002ed0 <stm32__gpio___elabs+0x18>)
 8002ec4:	4618      	mov	r0, r3
 8002ec6:	f006 fa27 	bl	8009318 <ada__tags__register_tag>
 8002eca:	bd80      	pop	{r7, pc}
 8002ecc:	0800d4f8 	.word	0x0800d4f8
 8002ed0:	0800d568 	.word	0x0800d568

08002ed4 <stm32__i2c__i2c_configurationIP>:
 8002ed4:	b480      	push	{r7}
 8002ed6:	b083      	sub	sp, #12
 8002ed8:	af00      	add	r7, sp, #0
 8002eda:	6078      	str	r0, [r7, #4]
 8002edc:	687b      	ldr	r3, [r7, #4]
 8002ede:	2200      	movs	r2, #0
 8002ee0:	721a      	strb	r2, [r3, #8]
 8002ee2:	687b      	ldr	r3, [r7, #4]
 8002ee4:	2201      	movs	r2, #1
 8002ee6:	725a      	strb	r2, [r3, #9]
 8002ee8:	370c      	adds	r7, #12
 8002eea:	46bd      	mov	sp, r7
 8002eec:	f85d 7b04 	ldr.w	r7, [sp], #4
 8002ef0:	4770      	bx	lr
 8002ef2:	bf00      	nop

08002ef4 <stm32__i2c__i2c_portIP>:
 8002ef4:	b580      	push	{r7, lr}
 8002ef6:	b084      	sub	sp, #16
 8002ef8:	af00      	add	r7, sp, #0
 8002efa:	60f8      	str	r0, [r7, #12]
 8002efc:	60b9      	str	r1, [r7, #8]
 8002efe:	4613      	mov	r3, r2
 8002f00:	71fb      	strb	r3, [r7, #7]
 8002f02:	79fb      	ldrb	r3, [r7, #7]
 8002f04:	2b00      	cmp	r3, #0
 8002f06:	d002      	beq.n	8002f0e <stm32__i2c__i2c_portIP+0x1a>
 8002f08:	4a08      	ldr	r2, [pc, #32]	; (8002f2c <stm32__i2c__i2c_portIP+0x38>)
 8002f0a:	68fb      	ldr	r3, [r7, #12]
 8002f0c:	601a      	str	r2, [r3, #0]
 8002f0e:	68fb      	ldr	r3, [r7, #12]
 8002f10:	68ba      	ldr	r2, [r7, #8]
 8002f12:	605a      	str	r2, [r3, #4]
 8002f14:	68fb      	ldr	r3, [r7, #12]
 8002f16:	3308      	adds	r3, #8
 8002f18:	4618      	mov	r0, r3
 8002f1a:	f7ff ffdb 	bl	8002ed4 <stm32__i2c__i2c_configurationIP>
 8002f1e:	68fb      	ldr	r3, [r7, #12]
 8002f20:	2200      	movs	r2, #0
 8002f22:	751a      	strb	r2, [r3, #20]
 8002f24:	3710      	adds	r7, #16
 8002f26:	46bd      	mov	sp, r7
 8002f28:	bd80      	pop	{r7, pc}
 8002f2a:	bf00      	nop
 8002f2c:	0800d7a4 	.word	0x0800d7a4

08002f30 <stm32__i2c___size__2>:
 8002f30:	b490      	push	{r4, r7}
 8002f32:	b082      	sub	sp, #8
 8002f34:	af00      	add	r7, sp, #0
 8002f36:	6078      	str	r0, [r7, #4]
 8002f38:	f04f 03c0 	mov.w	r3, #192	; 0xc0
 8002f3c:	f04f 0400 	mov.w	r4, #0
 8002f40:	4618      	mov	r0, r3
 8002f42:	4621      	mov	r1, r4
 8002f44:	3708      	adds	r7, #8
 8002f46:	46bd      	mov	sp, r7
 8002f48:	bc90      	pop	{r4, r7}
 8002f4a:	4770      	bx	lr

08002f4c <stm32__i2c__i2c_portSR__i2c_configuration_38SR__2.6512>:
 8002f4c:	b580      	push	{r7, lr}
 8002f4e:	b084      	sub	sp, #16
 8002f50:	af00      	add	r7, sp, #0
 8002f52:	60f8      	str	r0, [r7, #12]
 8002f54:	60b9      	str	r1, [r7, #8]
 8002f56:	607a      	str	r2, [r7, #4]
 8002f58:	f8c7 c000 	str.w	ip, [r7]
 8002f5c:	68f8      	ldr	r0, [r7, #12]
 8002f5e:	f007 fc1f 	bl	800a7a0 <system__stream_attributes__i_u>
 8002f62:	4602      	mov	r2, r0
 8002f64:	68bb      	ldr	r3, [r7, #8]
 8002f66:	601a      	str	r2, [r3, #0]
 8002f68:	68f8      	ldr	r0, [r7, #12]
 8002f6a:	f007 fbdd 	bl	800a728 <system__stream_attributes__i_ssu>
 8002f6e:	4603      	mov	r3, r0
 8002f70:	461a      	mov	r2, r3
 8002f72:	68bb      	ldr	r3, [r7, #8]
 8002f74:	711a      	strb	r2, [r3, #4]
 8002f76:	68f8      	ldr	r0, [r7, #12]
 8002f78:	f007 fbf4 	bl	800a764 <system__stream_attributes__i_su>
 8002f7c:	4603      	mov	r3, r0
 8002f7e:	461a      	mov	r2, r3
 8002f80:	68bb      	ldr	r3, [r7, #8]
 8002f82:	80da      	strh	r2, [r3, #6]
 8002f84:	68f8      	ldr	r0, [r7, #12]
 8002f86:	f007 fbb1 	bl	800a6ec <system__stream_attributes__i_b>
 8002f8a:	4603      	mov	r3, r0
 8002f8c:	461a      	mov	r2, r3
 8002f8e:	68bb      	ldr	r3, [r7, #8]
 8002f90:	721a      	strb	r2, [r3, #8]
 8002f92:	68f8      	ldr	r0, [r7, #12]
 8002f94:	f007 fbaa 	bl	800a6ec <system__stream_attributes__i_b>
 8002f98:	4603      	mov	r3, r0
 8002f9a:	461a      	mov	r2, r3
 8002f9c:	68bb      	ldr	r3, [r7, #8]
 8002f9e:	725a      	strb	r2, [r3, #9]
 8002fa0:	3710      	adds	r7, #16
 8002fa2:	46bd      	mov	sp, r7
 8002fa4:	bd80      	pop	{r7, pc}
 8002fa6:	bf00      	nop

08002fa8 <stm32__i2c__i2c_portSR__2>:
 8002fa8:	b580      	push	{r7, lr}
 8002faa:	b086      	sub	sp, #24
 8002fac:	af00      	add	r7, sp, #0
 8002fae:	60f8      	str	r0, [r7, #12]
 8002fb0:	60b9      	str	r1, [r7, #8]
 8002fb2:	607a      	str	r2, [r7, #4]
 8002fb4:	f107 0320 	add.w	r3, r7, #32
 8002fb8:	617b      	str	r3, [r7, #20]
 8002fba:	68bb      	ldr	r3, [r7, #8]
 8002fbc:	f103 0108 	add.w	r1, r3, #8
 8002fc0:	f107 0314 	add.w	r3, r7, #20
 8002fc4:	469c      	mov	ip, r3
 8002fc6:	687a      	ldr	r2, [r7, #4]
 8002fc8:	68f8      	ldr	r0, [r7, #12]
 8002fca:	f7ff ffbf 	bl	8002f4c <stm32__i2c__i2c_portSR__i2c_configuration_38SR__2.6512>
 8002fce:	68f8      	ldr	r0, [r7, #12]
 8002fd0:	f007 fbaa 	bl	800a728 <system__stream_attributes__i_ssu>
 8002fd4:	4603      	mov	r3, r0
 8002fd6:	461a      	mov	r2, r3
 8002fd8:	68bb      	ldr	r3, [r7, #8]
 8002fda:	751a      	strb	r2, [r3, #20]
 8002fdc:	3718      	adds	r7, #24
 8002fde:	46bd      	mov	sp, r7
 8002fe0:	bd80      	pop	{r7, pc}
 8002fe2:	bf00      	nop

08002fe4 <stm32__i2c__i2c_portSW__i2c_configuration_42SW__2.6544>:
 8002fe4:	b580      	push	{r7, lr}
 8002fe6:	b084      	sub	sp, #16
 8002fe8:	af00      	add	r7, sp, #0
 8002fea:	60f8      	str	r0, [r7, #12]
 8002fec:	60b9      	str	r1, [r7, #8]
 8002fee:	607a      	str	r2, [r7, #4]
 8002ff0:	f8c7 c000 	str.w	ip, [r7]
 8002ff4:	68bb      	ldr	r3, [r7, #8]
 8002ff6:	681b      	ldr	r3, [r3, #0]
 8002ff8:	4619      	mov	r1, r3
 8002ffa:	68f8      	ldr	r0, [r7, #12]
 8002ffc:	f007 fc28 	bl	800a850 <system__stream_attributes__w_u>
 8003000:	68bb      	ldr	r3, [r7, #8]
 8003002:	791b      	ldrb	r3, [r3, #4]
 8003004:	4619      	mov	r1, r3
 8003006:	68f8      	ldr	r0, [r7, #12]
 8003008:	f007 fc04 	bl	800a814 <system__stream_attributes__w_ssu>
 800300c:	68bb      	ldr	r3, [r7, #8]
 800300e:	88db      	ldrh	r3, [r3, #6]
 8003010:	4619      	mov	r1, r3
 8003012:	68f8      	ldr	r0, [r7, #12]
 8003014:	f007 fc0c 	bl	800a830 <system__stream_attributes__w_su>
 8003018:	68bb      	ldr	r3, [r7, #8]
 800301a:	7a1b      	ldrb	r3, [r3, #8]
 800301c:	4619      	mov	r1, r3
 800301e:	68f8      	ldr	r0, [r7, #12]
 8003020:	f007 fbea 	bl	800a7f8 <system__stream_attributes__w_b>
 8003024:	68bb      	ldr	r3, [r7, #8]
 8003026:	7a5b      	ldrb	r3, [r3, #9]
 8003028:	4619      	mov	r1, r3
 800302a:	68f8      	ldr	r0, [r7, #12]
 800302c:	f007 fbe4 	bl	800a7f8 <system__stream_attributes__w_b>
 8003030:	3710      	adds	r7, #16
 8003032:	46bd      	mov	sp, r7
 8003034:	bd80      	pop	{r7, pc}
 8003036:	bf00      	nop

08003038 <stm32__i2c__i2c_portSW__2>:
 8003038:	b580      	push	{r7, lr}
 800303a:	b086      	sub	sp, #24
 800303c:	af00      	add	r7, sp, #0
 800303e:	60f8      	str	r0, [r7, #12]
 8003040:	60b9      	str	r1, [r7, #8]
 8003042:	607a      	str	r2, [r7, #4]
 8003044:	f107 0320 	add.w	r3, r7, #32
 8003048:	617b      	str	r3, [r7, #20]
 800304a:	68bb      	ldr	r3, [r7, #8]
 800304c:	f103 0108 	add.w	r1, r3, #8
 8003050:	f107 0314 	add.w	r3, r7, #20
 8003054:	469c      	mov	ip, r3
 8003056:	687a      	ldr	r2, [r7, #4]
 8003058:	68f8      	ldr	r0, [r7, #12]
 800305a:	f7ff ffc3 	bl	8002fe4 <stm32__i2c__i2c_portSW__i2c_configuration_42SW__2.6544>
 800305e:	68bb      	ldr	r3, [r7, #8]
 8003060:	7d1b      	ldrb	r3, [r3, #20]
 8003062:	4619      	mov	r1, r3
 8003064:	68f8      	ldr	r0, [r7, #12]
 8003066:	f007 fbd5 	bl	800a814 <system__stream_attributes__w_ssu>
 800306a:	3718      	adds	r7, #24
 800306c:	46bd      	mov	sp, r7
 800306e:	bd80      	pop	{r7, pc}

08003070 <stm32__i2c__i2c_portSI__2>:
 8003070:	b5f0      	push	{r4, r5, r6, r7, lr}
 8003072:	b089      	sub	sp, #36	; 0x24
 8003074:	af00      	add	r7, sp, #0
 8003076:	6078      	str	r0, [r7, #4]
 8003078:	6039      	str	r1, [r7, #0]
 800307a:	6878      	ldr	r0, [r7, #4]
 800307c:	f007 fb1a 	bl	800a6b4 <system__stream_attributes__i_as>
 8003080:	4603      	mov	r3, r0
 8003082:	4619      	mov	r1, r3
 8003084:	f107 0308 	add.w	r3, r7, #8
 8003088:	2201      	movs	r2, #1
 800308a:	4618      	mov	r0, r3
 800308c:	f7ff ff32 	bl	8002ef4 <stm32__i2c__i2c_portIP>
 8003090:	f107 0308 	add.w	r3, r7, #8
 8003094:	683a      	ldr	r2, [r7, #0]
 8003096:	4619      	mov	r1, r3
 8003098:	6878      	ldr	r0, [r7, #4]
 800309a:	f7ff ff85 	bl	8002fa8 <stm32__i2c__i2c_portSR__2>
 800309e:	2018      	movs	r0, #24
 80030a0:	f007 f9f6 	bl	800a490 <system__secondary_stack__ss_allocate>
 80030a4:	4606      	mov	r6, r0
 80030a6:	4633      	mov	r3, r6
 80030a8:	461d      	mov	r5, r3
 80030aa:	f107 0408 	add.w	r4, r7, #8
 80030ae:	cc0f      	ldmia	r4!, {r0, r1, r2, r3}
 80030b0:	c50f      	stmia	r5!, {r0, r1, r2, r3}
 80030b2:	e894 0003 	ldmia.w	r4, {r0, r1}
 80030b6:	e885 0003 	stmia.w	r5, {r0, r1}
 80030ba:	4633      	mov	r3, r6
 80030bc:	4618      	mov	r0, r3
 80030be:	3724      	adds	r7, #36	; 0x24
 80030c0:	46bd      	mov	sp, r7
 80030c2:	bdf0      	pop	{r4, r5, r6, r7, pc}

080030c4 <stm32__i2c__i2c_portSO__2>:
 80030c4:	b580      	push	{r7, lr}
 80030c6:	b084      	sub	sp, #16
 80030c8:	af00      	add	r7, sp, #0
 80030ca:	60f8      	str	r0, [r7, #12]
 80030cc:	60b9      	str	r1, [r7, #8]
 80030ce:	607a      	str	r2, [r7, #4]
 80030d0:	68bb      	ldr	r3, [r7, #8]
 80030d2:	6859      	ldr	r1, [r3, #4]
 80030d4:	68f8      	ldr	r0, [r7, #12]
 80030d6:	f007 fb7f 	bl	800a7d8 <system__stream_attributes__w_as>
 80030da:	687a      	ldr	r2, [r7, #4]
 80030dc:	68b9      	ldr	r1, [r7, #8]
 80030de:	68f8      	ldr	r0, [r7, #12]
 80030e0:	f7ff ffaa 	bl	8003038 <stm32__i2c__i2c_portSW__2>
 80030e4:	3710      	adds	r7, #16
 80030e6:	46bd      	mov	sp, r7
 80030e8:	bd80      	pop	{r7, pc}
 80030ea:	bf00      	nop

080030ec <stm32__i2c__Oeq>:
 80030ec:	b480      	push	{r7}
 80030ee:	b083      	sub	sp, #12
 80030f0:	af00      	add	r7, sp, #0
 80030f2:	6078      	str	r0, [r7, #4]
 80030f4:	6039      	str	r1, [r7, #0]
 80030f6:	687b      	ldr	r3, [r7, #4]
 80030f8:	685a      	ldr	r2, [r3, #4]
 80030fa:	683b      	ldr	r3, [r7, #0]
 80030fc:	685b      	ldr	r3, [r3, #4]
 80030fe:	429a      	cmp	r2, r3
 8003100:	d12f      	bne.n	8003162 <stm32__i2c__Oeq+0x76>
 8003102:	687b      	ldr	r3, [r7, #4]
 8003104:	689a      	ldr	r2, [r3, #8]
 8003106:	683b      	ldr	r3, [r7, #0]
 8003108:	689b      	ldr	r3, [r3, #8]
 800310a:	429a      	cmp	r2, r3
 800310c:	d129      	bne.n	8003162 <stm32__i2c__Oeq+0x76>
 800310e:	687b      	ldr	r3, [r7, #4]
 8003110:	7b1a      	ldrb	r2, [r3, #12]
 8003112:	683b      	ldr	r3, [r7, #0]
 8003114:	7b1b      	ldrb	r3, [r3, #12]
 8003116:	429a      	cmp	r2, r3
 8003118:	d123      	bne.n	8003162 <stm32__i2c__Oeq+0x76>
 800311a:	687b      	ldr	r3, [r7, #4]
 800311c:	89da      	ldrh	r2, [r3, #14]
 800311e:	683b      	ldr	r3, [r7, #0]
 8003120:	89db      	ldrh	r3, [r3, #14]
 8003122:	429a      	cmp	r2, r3
 8003124:	d11d      	bne.n	8003162 <stm32__i2c__Oeq+0x76>
 8003126:	687b      	ldr	r3, [r7, #4]
 8003128:	7c1b      	ldrb	r3, [r3, #16]
 800312a:	f083 0301 	eor.w	r3, r3, #1
 800312e:	b2da      	uxtb	r2, r3
 8003130:	683b      	ldr	r3, [r7, #0]
 8003132:	7c1b      	ldrb	r3, [r3, #16]
 8003134:	4053      	eors	r3, r2
 8003136:	b2db      	uxtb	r3, r3
 8003138:	2b00      	cmp	r3, #0
 800313a:	d012      	beq.n	8003162 <stm32__i2c__Oeq+0x76>
 800313c:	687b      	ldr	r3, [r7, #4]
 800313e:	7c5b      	ldrb	r3, [r3, #17]
 8003140:	f083 0301 	eor.w	r3, r3, #1
 8003144:	b2da      	uxtb	r2, r3
 8003146:	683b      	ldr	r3, [r7, #0]
 8003148:	7c5b      	ldrb	r3, [r3, #17]
 800314a:	4053      	eors	r3, r2
 800314c:	b2db      	uxtb	r3, r3
 800314e:	2b00      	cmp	r3, #0
 8003150:	d007      	beq.n	8003162 <stm32__i2c__Oeq+0x76>
 8003152:	687b      	ldr	r3, [r7, #4]
 8003154:	7d1a      	ldrb	r2, [r3, #20]
 8003156:	683b      	ldr	r3, [r7, #0]
 8003158:	7d1b      	ldrb	r3, [r3, #20]
 800315a:	429a      	cmp	r2, r3
 800315c:	d101      	bne.n	8003162 <stm32__i2c__Oeq+0x76>
 800315e:	2301      	movs	r3, #1
 8003160:	e000      	b.n	8003164 <stm32__i2c__Oeq+0x78>
 8003162:	2300      	movs	r3, #0
 8003164:	4618      	mov	r0, r3
 8003166:	370c      	adds	r7, #12
 8003168:	46bd      	mov	sp, r7
 800316a:	f85d 7b04 	ldr.w	r7, [sp], #4
 800316e:	4770      	bx	lr

08003170 <stm32__i2c___assign>:
 8003170:	b5f0      	push	{r4, r5, r6, r7, lr}
 8003172:	b0ed      	sub	sp, #436	; 0x1b4
 8003174:	af00      	add	r7, sp, #0
 8003176:	1d3b      	adds	r3, r7, #4
 8003178:	6018      	str	r0, [r3, #0]
 800317a:	463b      	mov	r3, r7
 800317c:	6019      	str	r1, [r3, #0]
 800317e:	1d3b      	adds	r3, r7, #4
 8003180:	681b      	ldr	r3, [r3, #0]
 8003182:	685a      	ldr	r2, [r3, #4]
 8003184:	463b      	mov	r3, r7
 8003186:	681b      	ldr	r3, [r3, #0]
 8003188:	685b      	ldr	r3, [r3, #4]
 800318a:	429a      	cmp	r2, r3
 800318c:	d003      	beq.n	8003196 <stm32__i2c___assign+0x26>
 800318e:	218f      	movs	r1, #143	; 0x8f
 8003190:	480f      	ldr	r0, [pc, #60]	; (80031d0 <stm32__i2c___assign+0x60>)
 8003192:	f005 ff3f 	bl	8009014 <__gnat_rcheck_CE_Discriminant_Check>
 8003196:	1d3b      	adds	r3, r7, #4
 8003198:	681a      	ldr	r2, [r3, #0]
 800319a:	463b      	mov	r3, r7
 800319c:	681b      	ldr	r3, [r3, #0]
 800319e:	429a      	cmp	r2, r3
 80031a0:	d011      	beq.n	80031c6 <stm32__i2c___assign+0x56>
 80031a2:	1d3b      	adds	r3, r7, #4
 80031a4:	681b      	ldr	r3, [r3, #0]
 80031a6:	681e      	ldr	r6, [r3, #0]
 80031a8:	1d3b      	adds	r3, r7, #4
 80031aa:	681a      	ldr	r2, [r3, #0]
 80031ac:	463b      	mov	r3, r7
 80031ae:	681b      	ldr	r3, [r3, #0]
 80031b0:	4614      	mov	r4, r2
 80031b2:	461d      	mov	r5, r3
 80031b4:	cd0f      	ldmia	r5!, {r0, r1, r2, r3}
 80031b6:	c40f      	stmia	r4!, {r0, r1, r2, r3}
 80031b8:	e895 0003 	ldmia.w	r5, {r0, r1}
 80031bc:	e884 0003 	stmia.w	r4, {r0, r1}
 80031c0:	1d3b      	adds	r3, r7, #4
 80031c2:	681b      	ldr	r3, [r3, #0]
 80031c4:	601e      	str	r6, [r3, #0]
 80031c6:	f507 77da 	add.w	r7, r7, #436	; 0x1b4
 80031ca:	46bd      	mov	sp, r7
 80031cc:	bdf0      	pop	{r4, r5, r6, r7, pc}
 80031ce:	bf00      	nop
 80031d0:	0800d5a4 	.word	0x0800d5a4

080031d4 <stm32__i2c__i2c_portDA>:
 80031d4:	b480      	push	{r7}
 80031d6:	b083      	sub	sp, #12
 80031d8:	af00      	add	r7, sp, #0
 80031da:	6078      	str	r0, [r7, #4]
 80031dc:	460b      	mov	r3, r1
 80031de:	70fb      	strb	r3, [r7, #3]
 80031e0:	370c      	adds	r7, #12
 80031e2:	46bd      	mov	sp, r7
 80031e4:	f85d 7b04 	ldr.w	r7, [sp], #4
 80031e8:	4770      	bx	lr
 80031ea:	bf00      	nop

080031ec <stm32__i2c__i2c_portDF__2>:
 80031ec:	b480      	push	{r7}
 80031ee:	b083      	sub	sp, #12
 80031f0:	af00      	add	r7, sp, #0
 80031f2:	6078      	str	r0, [r7, #4]
 80031f4:	460b      	mov	r3, r1
 80031f6:	70fb      	strb	r3, [r7, #3]
 80031f8:	370c      	adds	r7, #12
 80031fa:	46bd      	mov	sp, r7
 80031fc:	f85d 7b04 	ldr.w	r7, [sp], #4
 8003200:	4770      	bx	lr
 8003202:	bf00      	nop

08003204 <stm32__i2c__port_enabled>:
 8003204:	b480      	push	{r7}
 8003206:	b083      	sub	sp, #12
 8003208:	af00      	add	r7, sp, #0
 800320a:	6078      	str	r0, [r7, #4]
 800320c:	687b      	ldr	r3, [r7, #4]
 800320e:	685b      	ldr	r3, [r3, #4]
 8003210:	681b      	ldr	r3, [r3, #0]
 8003212:	f3c3 0300 	ubfx	r3, r3, #0, #1
 8003216:	b2db      	uxtb	r3, r3
 8003218:	bf00      	nop
 800321a:	4618      	mov	r0, r3
 800321c:	370c      	adds	r7, #12
 800321e:	46bd      	mov	sp, r7
 8003220:	f85d 7b04 	ldr.w	r7, [sp], #4
 8003224:	4770      	bx	lr
 8003226:	bf00      	nop

08003228 <stm32__i2c__configure___postconditions.6847>:
 8003228:	b5b0      	push	{r4, r5, r7, lr}
 800322a:	b082      	sub	sp, #8
 800322c:	af00      	add	r7, sp, #0
 800322e:	4663      	mov	r3, ip
 8003230:	f8c7 c004 	str.w	ip, [r7, #4]
 8003234:	681b      	ldr	r3, [r3, #0]
 8003236:	4618      	mov	r0, r3
 8003238:	f000 f97a 	bl	8003530 <stm32__i2c__is_configured>
 800323c:	4603      	mov	r3, r0
 800323e:	f083 0301 	eor.w	r3, r3, #1
 8003242:	b2db      	uxtb	r3, r3
 8003244:	2b00      	cmp	r3, #0
 8003246:	d005      	beq.n	8003254 <stm32__i2c__configure___postconditions.6847+0x2c>
 8003248:	4c04      	ldr	r4, [pc, #16]	; (800325c <stm32__i2c__configure___postconditions.6847+0x34>)
 800324a:	4d05      	ldr	r5, [pc, #20]	; (8003260 <stm32__i2c__configure___postconditions.6847+0x38>)
 800324c:	4620      	mov	r0, r4
 800324e:	4629      	mov	r1, r5
 8003250:	f006 fc1c 	bl	8009a8c <system__assertions__raise_assert_failure>
 8003254:	3708      	adds	r7, #8
 8003256:	46bd      	mov	sp, r7
 8003258:	bdb0      	pop	{r4, r5, r7, pc}
 800325a:	bf00      	nop
 800325c:	0800d5b4 	.word	0x0800d5b4
 8003260:	0800d5e0 	.word	0x0800d5e0

08003264 <stm32__i2c__configure>:
 8003264:	b5b0      	push	{r4, r5, r7, lr}
 8003266:	b088      	sub	sp, #32
 8003268:	af00      	add	r7, sp, #0
 800326a:	6078      	str	r0, [r7, #4]
 800326c:	6039      	str	r1, [r7, #0]
 800326e:	f107 0330 	add.w	r3, r7, #48	; 0x30
 8003272:	60fb      	str	r3, [r7, #12]
 8003274:	687b      	ldr	r3, [r7, #4]
 8003276:	60bb      	str	r3, [r7, #8]
 8003278:	4b10      	ldr	r3, [pc, #64]	; (80032bc <stm32__i2c__configure+0x58>)
 800327a:	781b      	ldrb	r3, [r3, #0]
 800327c:	f083 0301 	eor.w	r3, r3, #1
 8003280:	b2db      	uxtb	r3, r3
 8003282:	2b00      	cmp	r3, #0
 8003284:	d003      	beq.n	800328e <stm32__i2c__configure+0x2a>
 8003286:	215f      	movs	r1, #95	; 0x5f
 8003288:	480d      	ldr	r0, [pc, #52]	; (80032c0 <stm32__i2c__configure+0x5c>)
 800328a:	f005 fef3 	bl	8009074 <__gnat_rcheck_PE_Access_Before_Elaboration>
 800328e:	68bb      	ldr	r3, [r7, #8]
 8003290:	4618      	mov	r0, r3
 8003292:	f000 f94d 	bl	8003530 <stm32__i2c__is_configured>
 8003296:	4603      	mov	r3, r0
 8003298:	2b00      	cmp	r3, #0
 800329a:	d005      	beq.n	80032a8 <stm32__i2c__configure+0x44>
 800329c:	4c09      	ldr	r4, [pc, #36]	; (80032c4 <stm32__i2c__configure+0x60>)
 800329e:	4d0a      	ldr	r5, [pc, #40]	; (80032c8 <stm32__i2c__configure+0x64>)
 80032a0:	4620      	mov	r0, r4
 80032a2:	4629      	mov	r1, r5
 80032a4:	f006 fbf2 	bl	8009a8c <system__assertions__raise_assert_failure>
 80032a8:	68bb      	ldr	r3, [r7, #8]
 80032aa:	7d1b      	ldrb	r3, [r3, #20]
 80032ac:	2b00      	cmp	r3, #0
 80032ae:	d00d      	beq.n	80032cc <stm32__i2c__configure+0x68>
 80032b0:	f107 0308 	add.w	r3, r7, #8
 80032b4:	469c      	mov	ip, r3
 80032b6:	f7ff ffb7 	bl	8003228 <stm32__i2c__configure___postconditions.6847>
 80032ba:	e136      	b.n	800352a <stm32__i2c__configure+0x2c6>
 80032bc:	20000036 	.word	0x20000036
 80032c0:	0800d5e8 	.word	0x0800d5e8
 80032c4:	0800d5f8 	.word	0x0800d5f8
 80032c8:	0800d624 	.word	0x0800d624
 80032cc:	68bb      	ldr	r3, [r7, #8]
 80032ce:	683a      	ldr	r2, [r7, #0]
 80032d0:	3308      	adds	r3, #8
 80032d2:	ca07      	ldmia	r2, {r0, r1, r2}
 80032d4:	e883 0007 	stmia.w	r3, {r0, r1, r2}
 80032d8:	68bb      	ldr	r3, [r7, #8]
 80032da:	685b      	ldr	r3, [r3, #4]
 80032dc:	681b      	ldr	r3, [r3, #0]
 80032de:	f36f 0300 	bfc	r3, #0, #1
 80032e2:	68ba      	ldr	r2, [r7, #8]
 80032e4:	6852      	ldr	r2, [r2, #4]
 80032e6:	6013      	str	r3, [r2, #0]
 80032e8:	69fb      	ldr	r3, [r7, #28]
 80032ea:	2232      	movs	r2, #50	; 0x32
 80032ec:	f362 0307 	bfi	r3, r2, #0, #8
 80032f0:	61fb      	str	r3, [r7, #28]
 80032f2:	69fb      	ldr	r3, [r7, #28]
 80032f4:	2227      	movs	r2, #39	; 0x27
 80032f6:	f362 230f 	bfi	r3, r2, #8, #8
 80032fa:	61fb      	str	r3, [r7, #28]
 80032fc:	69fb      	ldr	r3, [r7, #28]
 80032fe:	2201      	movs	r2, #1
 8003300:	f362 4313 	bfi	r3, r2, #16, #4
 8003304:	61fb      	str	r3, [r7, #28]
 8003306:	69fb      	ldr	r3, [r7, #28]
 8003308:	2209      	movs	r2, #9
 800330a:	f362 5317 	bfi	r3, r2, #20, #4
 800330e:	61fb      	str	r3, [r7, #28]
 8003310:	69fb      	ldr	r3, [r7, #28]
 8003312:	f36f 631b 	bfc	r3, #24, #4
 8003316:	61fb      	str	r3, [r7, #28]
 8003318:	69fb      	ldr	r3, [r7, #28]
 800331a:	2204      	movs	r2, #4
 800331c:	f362 731f 	bfi	r3, r2, #28, #4
 8003320:	61fb      	str	r3, [r7, #28]
 8003322:	68bb      	ldr	r3, [r7, #8]
 8003324:	685b      	ldr	r3, [r3, #4]
 8003326:	3310      	adds	r3, #16
 8003328:	69fa      	ldr	r2, [r7, #28]
 800332a:	601a      	str	r2, [r3, #0]
 800332c:	68bb      	ldr	r3, [r7, #8]
 800332e:	685b      	ldr	r3, [r3, #4]
 8003330:	3308      	adds	r3, #8
 8003332:	681b      	ldr	r3, [r3, #0]
 8003334:	f36f 33cf 	bfc	r3, #15, #1
 8003338:	68ba      	ldr	r2, [r7, #8]
 800333a:	6852      	ldr	r2, [r2, #4]
 800333c:	3208      	adds	r2, #8
 800333e:	6013      	str	r3, [r2, #0]
 8003340:	683b      	ldr	r3, [r7, #0]
 8003342:	88db      	ldrh	r3, [r3, #6]
 8003344:	2b00      	cmp	r3, #0
 8003346:	d027      	beq.n	8003398 <stm32__i2c__configure+0x134>
 8003348:	683b      	ldr	r3, [r7, #0]
 800334a:	88da      	ldrh	r2, [r3, #6]
 800334c:	69bb      	ldr	r3, [r7, #24]
 800334e:	f3c2 0209 	ubfx	r2, r2, #0, #10
 8003352:	b292      	uxth	r2, r2
 8003354:	f362 0309 	bfi	r3, r2, #0, #10
 8003358:	61bb      	str	r3, [r7, #24]
 800335a:	683b      	ldr	r3, [r7, #0]
 800335c:	791b      	ldrb	r3, [r3, #4]
 800335e:	2b01      	cmp	r3, #1
 8003360:	bf0c      	ite	eq
 8003362:	2301      	moveq	r3, #1
 8003364:	2300      	movne	r3, #0
 8003366:	b2da      	uxtb	r2, r3
 8003368:	69bb      	ldr	r3, [r7, #24]
 800336a:	f002 0201 	and.w	r2, r2, #1
 800336e:	b2d2      	uxtb	r2, r2
 8003370:	f362 238a 	bfi	r3, r2, #10, #1
 8003374:	61bb      	str	r3, [r7, #24]
 8003376:	69bb      	ldr	r3, [r7, #24]
 8003378:	f36f 23ce 	bfc	r3, #11, #4
 800337c:	61bb      	str	r3, [r7, #24]
 800337e:	69bb      	ldr	r3, [r7, #24]
 8003380:	f443 4300 	orr.w	r3, r3, #32768	; 0x8000
 8003384:	61bb      	str	r3, [r7, #24]
 8003386:	69bb      	ldr	r3, [r7, #24]
 8003388:	f36f 431f 	bfc	r3, #16, #16
 800338c:	61bb      	str	r3, [r7, #24]
 800338e:	68bb      	ldr	r3, [r7, #8]
 8003390:	685b      	ldr	r3, [r3, #4]
 8003392:	3308      	adds	r3, #8
 8003394:	69ba      	ldr	r2, [r7, #24]
 8003396:	601a      	str	r2, [r3, #0]
 8003398:	683b      	ldr	r3, [r7, #0]
 800339a:	791b      	ldrb	r3, [r3, #4]
 800339c:	2b01      	cmp	r3, #1
 800339e:	bf0c      	ite	eq
 80033a0:	2301      	moveq	r3, #1
 80033a2:	2300      	movne	r3, #0
 80033a4:	b2da      	uxtb	r2, r3
 80033a6:	68bb      	ldr	r3, [r7, #8]
 80033a8:	685b      	ldr	r3, [r3, #4]
 80033aa:	3304      	adds	r3, #4
 80033ac:	681b      	ldr	r3, [r3, #0]
 80033ae:	f002 0201 	and.w	r2, r2, #1
 80033b2:	b2d2      	uxtb	r2, r2
 80033b4:	f362 23cb 	bfi	r3, r2, #11, #1
 80033b8:	68ba      	ldr	r2, [r7, #8]
 80033ba:	6852      	ldr	r2, [r2, #4]
 80033bc:	3204      	adds	r2, #4
 80033be:	6013      	str	r3, [r2, #0]
 80033c0:	68bb      	ldr	r3, [r7, #8]
 80033c2:	685b      	ldr	r3, [r3, #4]
 80033c4:	3304      	adds	r3, #4
 80033c6:	681b      	ldr	r3, [r3, #0]
 80033c8:	461a      	mov	r2, r3
 80033ca:	4613      	mov	r3, r2
 80033cc:	f043 7200 	orr.w	r2, r3, #33554432	; 0x2000000
 80033d0:	68bb      	ldr	r3, [r7, #8]
 80033d2:	685b      	ldr	r3, [r3, #4]
 80033d4:	3304      	adds	r3, #4
 80033d6:	601a      	str	r2, [r3, #0]
 80033d8:	68bb      	ldr	r3, [r7, #8]
 80033da:	685b      	ldr	r3, [r3, #4]
 80033dc:	3304      	adds	r3, #4
 80033de:	681b      	ldr	r3, [r3, #0]
 80033e0:	461a      	mov	r2, r3
 80033e2:	4613      	mov	r3, r2
 80033e4:	f443 4200 	orr.w	r2, r3, #32768	; 0x8000
 80033e8:	68bb      	ldr	r3, [r7, #8]
 80033ea:	685b      	ldr	r3, [r3, #4]
 80033ec:	3304      	adds	r3, #4
 80033ee:	601a      	str	r2, [r3, #0]
 80033f0:	697b      	ldr	r3, [r7, #20]
 80033f2:	f36f 0300 	bfc	r3, #0, #1
 80033f6:	617b      	str	r3, [r7, #20]
 80033f8:	697b      	ldr	r3, [r7, #20]
 80033fa:	f36f 0347 	bfc	r3, #1, #7
 80033fe:	617b      	str	r3, [r7, #20]
 8003400:	697b      	ldr	r3, [r7, #20]
 8003402:	f36f 230a 	bfc	r3, #8, #3
 8003406:	617b      	str	r3, [r7, #20]
 8003408:	697b      	ldr	r3, [r7, #20]
 800340a:	f36f 23ce 	bfc	r3, #11, #4
 800340e:	617b      	str	r3, [r7, #20]
 8003410:	697b      	ldr	r3, [r7, #20]
 8003412:	f36f 33cf 	bfc	r3, #15, #1
 8003416:	617b      	str	r3, [r7, #20]
 8003418:	697b      	ldr	r3, [r7, #20]
 800341a:	f36f 431f 	bfc	r3, #16, #16
 800341e:	617b      	str	r3, [r7, #20]
 8003420:	68bb      	ldr	r3, [r7, #8]
 8003422:	685b      	ldr	r3, [r3, #4]
 8003424:	330c      	adds	r3, #12
 8003426:	697a      	ldr	r2, [r7, #20]
 8003428:	601a      	str	r2, [r3, #0]
 800342a:	693b      	ldr	r3, [r7, #16]
 800342c:	f36f 0300 	bfc	r3, #0, #1
 8003430:	613b      	str	r3, [r7, #16]
 8003432:	693b      	ldr	r3, [r7, #16]
 8003434:	f36f 0341 	bfc	r3, #1, #1
 8003438:	613b      	str	r3, [r7, #16]
 800343a:	693b      	ldr	r3, [r7, #16]
 800343c:	f36f 0382 	bfc	r3, #2, #1
 8003440:	613b      	str	r3, [r7, #16]
 8003442:	693b      	ldr	r3, [r7, #16]
 8003444:	f36f 03c3 	bfc	r3, #3, #1
 8003448:	613b      	str	r3, [r7, #16]
 800344a:	693b      	ldr	r3, [r7, #16]
 800344c:	f36f 1304 	bfc	r3, #4, #1
 8003450:	613b      	str	r3, [r7, #16]
 8003452:	693b      	ldr	r3, [r7, #16]
 8003454:	f36f 1345 	bfc	r3, #5, #1
 8003458:	613b      	str	r3, [r7, #16]
 800345a:	693b      	ldr	r3, [r7, #16]
 800345c:	f36f 1386 	bfc	r3, #6, #1
 8003460:	613b      	str	r3, [r7, #16]
 8003462:	693b      	ldr	r3, [r7, #16]
 8003464:	f36f 13c7 	bfc	r3, #7, #1
 8003468:	613b      	str	r3, [r7, #16]
 800346a:	693b      	ldr	r3, [r7, #16]
 800346c:	f36f 230b 	bfc	r3, #8, #4
 8003470:	613b      	str	r3, [r7, #16]
 8003472:	693b      	ldr	r3, [r7, #16]
 8003474:	f36f 330c 	bfc	r3, #12, #1
 8003478:	613b      	str	r3, [r7, #16]
 800347a:	693b      	ldr	r3, [r7, #16]
 800347c:	f36f 334d 	bfc	r3, #13, #1
 8003480:	613b      	str	r3, [r7, #16]
 8003482:	693b      	ldr	r3, [r7, #16]
 8003484:	f36f 338e 	bfc	r3, #14, #1
 8003488:	613b      	str	r3, [r7, #16]
 800348a:	693b      	ldr	r3, [r7, #16]
 800348c:	f36f 33cf 	bfc	r3, #15, #1
 8003490:	613b      	str	r3, [r7, #16]
 8003492:	693b      	ldr	r3, [r7, #16]
 8003494:	f36f 4310 	bfc	r3, #16, #1
 8003498:	613b      	str	r3, [r7, #16]
 800349a:	693b      	ldr	r3, [r7, #16]
 800349c:	f36f 4351 	bfc	r3, #17, #1
 80034a0:	613b      	str	r3, [r7, #16]
 80034a2:	693b      	ldr	r3, [r7, #16]
 80034a4:	f36f 4392 	bfc	r3, #18, #1
 80034a8:	613b      	str	r3, [r7, #16]
 80034aa:	683b      	ldr	r3, [r7, #0]
 80034ac:	7a1a      	ldrb	r2, [r3, #8]
 80034ae:	693b      	ldr	r3, [r7, #16]
 80034b0:	f002 0201 	and.w	r2, r2, #1
 80034b4:	b2d2      	uxtb	r2, r2
 80034b6:	f362 43d3 	bfi	r3, r2, #19, #1
 80034ba:	613b      	str	r3, [r7, #16]
 80034bc:	693b      	ldr	r3, [r7, #16]
 80034be:	f36f 5314 	bfc	r3, #20, #1
 80034c2:	613b      	str	r3, [r7, #16]
 80034c4:	693b      	ldr	r3, [r7, #16]
 80034c6:	f36f 5355 	bfc	r3, #21, #1
 80034ca:	613b      	str	r3, [r7, #16]
 80034cc:	693b      	ldr	r3, [r7, #16]
 80034ce:	f36f 5396 	bfc	r3, #22, #1
 80034d2:	613b      	str	r3, [r7, #16]
 80034d4:	693b      	ldr	r3, [r7, #16]
 80034d6:	f36f 53d7 	bfc	r3, #23, #1
 80034da:	613b      	str	r3, [r7, #16]
 80034dc:	693b      	ldr	r3, [r7, #16]
 80034de:	f36f 6318 	bfc	r3, #24, #1
 80034e2:	613b      	str	r3, [r7, #16]
 80034e4:	693b      	ldr	r3, [r7, #16]
 80034e6:	f36f 635d 	bfc	r3, #25, #5
 80034ea:	613b      	str	r3, [r7, #16]
 80034ec:	693b      	ldr	r3, [r7, #16]
 80034ee:	f36f 739e 	bfc	r3, #30, #1
 80034f2:	613b      	str	r3, [r7, #16]
 80034f4:	693b      	ldr	r3, [r7, #16]
 80034f6:	f36f 73df 	bfc	r3, #31, #1
 80034fa:	613b      	str	r3, [r7, #16]
 80034fc:	68bb      	ldr	r3, [r7, #8]
 80034fe:	685b      	ldr	r3, [r3, #4]
 8003500:	461a      	mov	r2, r3
 8003502:	693b      	ldr	r3, [r7, #16]
 8003504:	6013      	str	r3, [r2, #0]
 8003506:	68bb      	ldr	r3, [r7, #8]
 8003508:	2201      	movs	r2, #1
 800350a:	751a      	strb	r2, [r3, #20]
 800350c:	68bb      	ldr	r3, [r7, #8]
 800350e:	685b      	ldr	r3, [r3, #4]
 8003510:	681b      	ldr	r3, [r3, #0]
 8003512:	461a      	mov	r2, r3
 8003514:	4613      	mov	r3, r2
 8003516:	f043 0201 	orr.w	r2, r3, #1
 800351a:	68bb      	ldr	r3, [r7, #8]
 800351c:	685b      	ldr	r3, [r3, #4]
 800351e:	601a      	str	r2, [r3, #0]
 8003520:	f107 0308 	add.w	r3, r7, #8
 8003524:	469c      	mov	ip, r3
 8003526:	f7ff fe7f 	bl	8003228 <stm32__i2c__configure___postconditions.6847>
 800352a:	3720      	adds	r7, #32
 800352c:	46bd      	mov	sp, r7
 800352e:	bdb0      	pop	{r4, r5, r7, pc}

08003530 <stm32__i2c__is_configured>:
 8003530:	b580      	push	{r7, lr}
 8003532:	b082      	sub	sp, #8
 8003534:	af00      	add	r7, sp, #0
 8003536:	6078      	str	r0, [r7, #4]
 8003538:	4b0b      	ldr	r3, [pc, #44]	; (8003568 <stm32__i2c__is_configured+0x38>)
 800353a:	781b      	ldrb	r3, [r3, #0]
 800353c:	f083 0301 	eor.w	r3, r3, #1
 8003540:	b2db      	uxtb	r3, r3
 8003542:	2b00      	cmp	r3, #0
 8003544:	d003      	beq.n	800354e <stm32__i2c__is_configured+0x1e>
 8003546:	219c      	movs	r1, #156	; 0x9c
 8003548:	4808      	ldr	r0, [pc, #32]	; (800356c <stm32__i2c__is_configured+0x3c>)
 800354a:	f005 fd93 	bl	8009074 <__gnat_rcheck_PE_Access_Before_Elaboration>
 800354e:	687b      	ldr	r3, [r7, #4]
 8003550:	7d1b      	ldrb	r3, [r3, #20]
 8003552:	2b00      	cmp	r3, #0
 8003554:	bf14      	ite	ne
 8003556:	2301      	movne	r3, #1
 8003558:	2300      	moveq	r3, #0
 800355a:	b2db      	uxtb	r3, r3
 800355c:	bf00      	nop
 800355e:	4618      	mov	r0, r3
 8003560:	3708      	adds	r7, #8
 8003562:	46bd      	mov	sp, r7
 8003564:	bd80      	pop	{r7, pc}
 8003566:	bf00      	nop
 8003568:	20000037 	.word	0x20000037
 800356c:	0800d5e8 	.word	0x0800d5e8

08003570 <stm32__i2c__config_transfer>:
 8003570:	b580      	push	{r7, lr}
 8003572:	b086      	sub	sp, #24
 8003574:	af00      	add	r7, sp, #0
 8003576:	60f8      	str	r0, [r7, #12]
 8003578:	4608      	mov	r0, r1
 800357a:	4611      	mov	r1, r2
 800357c:	461a      	mov	r2, r3
 800357e:	4603      	mov	r3, r0
 8003580:	817b      	strh	r3, [r7, #10]
 8003582:	460b      	mov	r3, r1
 8003584:	727b      	strb	r3, [r7, #9]
 8003586:	4613      	mov	r3, r2
 8003588:	723b      	strb	r3, [r7, #8]
 800358a:	68fb      	ldr	r3, [r7, #12]
 800358c:	685b      	ldr	r3, [r3, #4]
 800358e:	3304      	adds	r3, #4
 8003590:	681b      	ldr	r3, [r3, #0]
 8003592:	607b      	str	r3, [r7, #4]
 8003594:	687b      	ldr	r3, [r7, #4]
 8003596:	617b      	str	r3, [r7, #20]
 8003598:	697b      	ldr	r3, [r7, #20]
 800359a:	897a      	ldrh	r2, [r7, #10]
 800359c:	f3c2 0209 	ubfx	r2, r2, #0, #10
 80035a0:	b292      	uxth	r2, r2
 80035a2:	f362 0309 	bfi	r3, r2, #0, #10
 80035a6:	617b      	str	r3, [r7, #20]
 80035a8:	697b      	ldr	r3, [r7, #20]
 80035aa:	7a7a      	ldrb	r2, [r7, #9]
 80035ac:	f362 4317 	bfi	r3, r2, #16, #8
 80035b0:	617b      	str	r3, [r7, #20]
 80035b2:	7a3b      	ldrb	r3, [r7, #8]
 80035b4:	2b00      	cmp	r3, #0
 80035b6:	bf0c      	ite	eq
 80035b8:	2301      	moveq	r3, #1
 80035ba:	2300      	movne	r3, #0
 80035bc:	b2da      	uxtb	r2, r3
 80035be:	697b      	ldr	r3, [r7, #20]
 80035c0:	f002 0201 	and.w	r2, r2, #1
 80035c4:	b2d2      	uxtb	r2, r2
 80035c6:	f362 6318 	bfi	r3, r2, #24, #1
 80035ca:	617b      	str	r3, [r7, #20]
 80035cc:	7a3b      	ldrb	r3, [r7, #8]
 80035ce:	2b01      	cmp	r3, #1
 80035d0:	bf0c      	ite	eq
 80035d2:	2301      	moveq	r3, #1
 80035d4:	2300      	movne	r3, #0
 80035d6:	b2da      	uxtb	r2, r3
 80035d8:	697b      	ldr	r3, [r7, #20]
 80035da:	f002 0201 	and.w	r2, r2, #1
 80035de:	b2d2      	uxtb	r2, r2
 80035e0:	f362 6359 	bfi	r3, r2, #25, #1
 80035e4:	617b      	str	r3, [r7, #20]
 80035e6:	697b      	ldr	r3, [r7, #20]
 80035e8:	f36f 238a 	bfc	r3, #10, #1
 80035ec:	617b      	str	r3, [r7, #20]
 80035ee:	697b      	ldr	r3, [r7, #20]
 80035f0:	f36f 334d 	bfc	r3, #13, #1
 80035f4:	617b      	str	r3, [r7, #20]
 80035f6:	697b      	ldr	r3, [r7, #20]
 80035f8:	f36f 338e 	bfc	r3, #14, #1
 80035fc:	617b      	str	r3, [r7, #20]
 80035fe:	f897 3020 	ldrb.w	r3, [r7, #32]
 8003602:	2b03      	cmp	r3, #3
 8003604:	d903      	bls.n	800360e <stm32__i2c__config_transfer+0x9e>
 8003606:	21b8      	movs	r1, #184	; 0xb8
 8003608:	4814      	ldr	r0, [pc, #80]	; (800365c <stm32__i2c__config_transfer+0xec>)
 800360a:	f005 fd1b 	bl	8009044 <__gnat_rcheck_CE_Invalid_Data>
 800360e:	f897 3020 	ldrb.w	r3, [r7, #32]
 8003612:	2b01      	cmp	r3, #1
 8003614:	d006      	beq.n	8003624 <stm32__i2c__config_transfer+0xb4>
 8003616:	2b01      	cmp	r3, #1
 8003618:	d302      	bcc.n	8003620 <stm32__i2c__config_transfer+0xb0>
 800361a:	2b02      	cmp	r3, #2
 800361c:	d007      	beq.n	800362e <stm32__i2c__config_transfer+0xbe>
 800361e:	e00f      	b.n	8003640 <stm32__i2c__config_transfer+0xd0>
 8003620:	bf00      	nop
 8003622:	e011      	b.n	8003648 <stm32__i2c__config_transfer+0xd8>
 8003624:	697b      	ldr	r3, [r7, #20]
 8003626:	f443 4380 	orr.w	r3, r3, #16384	; 0x4000
 800362a:	617b      	str	r3, [r7, #20]
 800362c:	e00c      	b.n	8003648 <stm32__i2c__config_transfer+0xd8>
 800362e:	697b      	ldr	r3, [r7, #20]
 8003630:	f443 6380 	orr.w	r3, r3, #1024	; 0x400
 8003634:	617b      	str	r3, [r7, #20]
 8003636:	697b      	ldr	r3, [r7, #20]
 8003638:	f443 5300 	orr.w	r3, r3, #8192	; 0x2000
 800363c:	617b      	str	r3, [r7, #20]
 800363e:	e003      	b.n	8003648 <stm32__i2c__config_transfer+0xd8>
 8003640:	697b      	ldr	r3, [r7, #20]
 8003642:	f443 5300 	orr.w	r3, r3, #8192	; 0x2000
 8003646:	617b      	str	r3, [r7, #20]
 8003648:	bf00      	nop
 800364a:	68fb      	ldr	r3, [r7, #12]
 800364c:	685b      	ldr	r3, [r3, #4]
 800364e:	3304      	adds	r3, #4
 8003650:	697a      	ldr	r2, [r7, #20]
 8003652:	601a      	str	r2, [r3, #0]
 8003654:	3718      	adds	r7, #24
 8003656:	46bd      	mov	sp, r7
 8003658:	bd80      	pop	{r7, pc}
 800365a:	bf00      	nop
 800365c:	0800d5e8 	.word	0x0800d5e8

08003660 <stm32__i2c__reset_config>:
 8003660:	b480      	push	{r7}
 8003662:	b085      	sub	sp, #20
 8003664:	af00      	add	r7, sp, #0
 8003666:	6078      	str	r0, [r7, #4]
 8003668:	687b      	ldr	r3, [r7, #4]
 800366a:	685b      	ldr	r3, [r3, #4]
 800366c:	3304      	adds	r3, #4
 800366e:	681b      	ldr	r3, [r3, #0]
 8003670:	603b      	str	r3, [r7, #0]
 8003672:	683b      	ldr	r3, [r7, #0]
 8003674:	60fb      	str	r3, [r7, #12]
 8003676:	68fb      	ldr	r3, [r7, #12]
 8003678:	f36f 0309 	bfc	r3, #0, #10
 800367c:	60fb      	str	r3, [r7, #12]
 800367e:	68fb      	ldr	r3, [r7, #12]
 8003680:	f36f 330c 	bfc	r3, #12, #1
 8003684:	60fb      	str	r3, [r7, #12]
 8003686:	68fb      	ldr	r3, [r7, #12]
 8003688:	f36f 4317 	bfc	r3, #16, #8
 800368c:	60fb      	str	r3, [r7, #12]
 800368e:	68fb      	ldr	r3, [r7, #12]
 8003690:	f36f 6318 	bfc	r3, #24, #1
 8003694:	60fb      	str	r3, [r7, #12]
 8003696:	68fb      	ldr	r3, [r7, #12]
 8003698:	f36f 238a 	bfc	r3, #10, #1
 800369c:	60fb      	str	r3, [r7, #12]
 800369e:	687b      	ldr	r3, [r7, #4]
 80036a0:	685b      	ldr	r3, [r3, #4]
 80036a2:	3304      	adds	r3, #4
 80036a4:	68fa      	ldr	r2, [r7, #12]
 80036a6:	601a      	str	r2, [r3, #0]
 80036a8:	3714      	adds	r7, #20
 80036aa:	46bd      	mov	sp, r7
 80036ac:	f85d 7b04 	ldr.w	r7, [sp], #4
 80036b0:	4770      	bx	lr
 80036b2:	bf00      	nop

080036b4 <stm32__i2c__check_nack>:
 80036b4:	b5f0      	push	{r4, r5, r6, r7, lr}
 80036b6:	b087      	sub	sp, #28
 80036b8:	af00      	add	r7, sp, #0
 80036ba:	6078      	str	r0, [r7, #4]
 80036bc:	6039      	str	r1, [r7, #0]
 80036be:	f003 feb9 	bl	8007434 <ada__real_time__clock>
 80036c2:	4603      	mov	r3, r0
 80036c4:	460c      	mov	r4, r1
 80036c6:	e9c7 3404 	strd	r3, r4, [r7, #16]
 80036ca:	687b      	ldr	r3, [r7, #4]
 80036cc:	685b      	ldr	r3, [r3, #4]
 80036ce:	3318      	adds	r3, #24
 80036d0:	681b      	ldr	r3, [r3, #0]
 80036d2:	b2db      	uxtb	r3, r3
 80036d4:	f003 0310 	and.w	r3, r3, #16
 80036d8:	b2db      	uxtb	r3, r3
 80036da:	2b00      	cmp	r3, #0
 80036dc:	d071      	beq.n	80037c2 <stm32__i2c__check_nack+0x10e>
 80036de:	687b      	ldr	r3, [r7, #4]
 80036e0:	7d1b      	ldrb	r3, [r3, #20]
 80036e2:	2b02      	cmp	r3, #2
 80036e4:	d007      	beq.n	80036f6 <stm32__i2c__check_nack+0x42>
 80036e6:	687b      	ldr	r3, [r7, #4]
 80036e8:	7d1b      	ldrb	r3, [r3, #20]
 80036ea:	2b04      	cmp	r3, #4
 80036ec:	d003      	beq.n	80036f6 <stm32__i2c__check_nack+0x42>
 80036ee:	687b      	ldr	r3, [r7, #4]
 80036f0:	7d1b      	ldrb	r3, [r3, #20]
 80036f2:	2b05      	cmp	r3, #5
 80036f4:	d117      	bne.n	8003726 <stm32__i2c__check_nack+0x72>
 80036f6:	687b      	ldr	r3, [r7, #4]
 80036f8:	685b      	ldr	r3, [r3, #4]
 80036fa:	3304      	adds	r3, #4
 80036fc:	681b      	ldr	r3, [r3, #0]
 80036fe:	f3c3 6307 	ubfx	r3, r3, #24, #8
 8003702:	b2db      	uxtb	r3, r3
 8003704:	f003 0302 	and.w	r3, r3, #2
 8003708:	b2db      	uxtb	r3, r3
 800370a:	2b00      	cmp	r3, #0
 800370c:	d10b      	bne.n	8003726 <stm32__i2c__check_nack+0x72>
 800370e:	687b      	ldr	r3, [r7, #4]
 8003710:	685b      	ldr	r3, [r3, #4]
 8003712:	3304      	adds	r3, #4
 8003714:	681b      	ldr	r3, [r3, #0]
 8003716:	461a      	mov	r2, r3
 8003718:	4613      	mov	r3, r2
 800371a:	f443 4280 	orr.w	r2, r3, #16384	; 0x4000
 800371e:	687b      	ldr	r3, [r7, #4]
 8003720:	685b      	ldr	r3, [r3, #4]
 8003722:	3304      	adds	r3, #4
 8003724:	601a      	str	r2, [r3, #0]
 8003726:	687b      	ldr	r3, [r7, #4]
 8003728:	685b      	ldr	r3, [r3, #4]
 800372a:	3318      	adds	r3, #24
 800372c:	681b      	ldr	r3, [r3, #0]
 800372e:	b2db      	uxtb	r3, r3
 8003730:	f003 0320 	and.w	r3, r3, #32
 8003734:	b2db      	uxtb	r3, r3
 8003736:	2b00      	cmp	r3, #0
 8003738:	d122      	bne.n	8003780 <stm32__i2c__check_nack+0xcc>
 800373a:	683b      	ldr	r3, [r7, #0]
 800373c:	2b00      	cmp	r3, #0
 800373e:	ddf2      	ble.n	8003726 <stm32__i2c__check_nack+0x72>
 8003740:	6838      	ldr	r0, [r7, #0]
 8003742:	f003 fea7 	bl	8007494 <ada__real_time__milliseconds>
 8003746:	4603      	mov	r3, r0
 8003748:	460c      	mov	r4, r1
 800374a:	461a      	mov	r2, r3
 800374c:	4623      	mov	r3, r4
 800374e:	e9d7 0104 	ldrd	r0, r1, [r7, #16]
 8003752:	f003 fe17 	bl	8007384 <ada__real_time__Oadd>
 8003756:	4605      	mov	r5, r0
 8003758:	460e      	mov	r6, r1
 800375a:	f003 fe6b 	bl	8007434 <ada__real_time__clock>
 800375e:	4603      	mov	r3, r0
 8003760:	460c      	mov	r4, r1
 8003762:	42a6      	cmp	r6, r4
 8003764:	bf08      	it	eq
 8003766:	429d      	cmpeq	r5, r3
 8003768:	bf34      	ite	cc
 800376a:	2301      	movcc	r3, #1
 800376c:	2300      	movcs	r3, #0
 800376e:	b2db      	uxtb	r3, r3
 8003770:	2b00      	cmp	r3, #0
 8003772:	d0d8      	beq.n	8003726 <stm32__i2c__check_nack+0x72>
 8003774:	687b      	ldr	r3, [r7, #4]
 8003776:	2201      	movs	r2, #1
 8003778:	751a      	strb	r2, [r3, #20]
 800377a:	2302      	movs	r3, #2
 800377c:	73fb      	strb	r3, [r7, #15]
 800377e:	e022      	b.n	80037c6 <stm32__i2c__check_nack+0x112>
 8003780:	687b      	ldr	r3, [r7, #4]
 8003782:	685b      	ldr	r3, [r3, #4]
 8003784:	331c      	adds	r3, #28
 8003786:	681b      	ldr	r3, [r3, #0]
 8003788:	461a      	mov	r2, r3
 800378a:	4613      	mov	r3, r2
 800378c:	f043 0210 	orr.w	r2, r3, #16
 8003790:	687b      	ldr	r3, [r7, #4]
 8003792:	685b      	ldr	r3, [r3, #4]
 8003794:	331c      	adds	r3, #28
 8003796:	601a      	str	r2, [r3, #0]
 8003798:	687b      	ldr	r3, [r7, #4]
 800379a:	685b      	ldr	r3, [r3, #4]
 800379c:	331c      	adds	r3, #28
 800379e:	681b      	ldr	r3, [r3, #0]
 80037a0:	461a      	mov	r2, r3
 80037a2:	4613      	mov	r3, r2
 80037a4:	f043 0220 	orr.w	r2, r3, #32
 80037a8:	687b      	ldr	r3, [r7, #4]
 80037aa:	685b      	ldr	r3, [r3, #4]
 80037ac:	331c      	adds	r3, #28
 80037ae:	601a      	str	r2, [r3, #0]
 80037b0:	6878      	ldr	r0, [r7, #4]
 80037b2:	f7ff ff55 	bl	8003660 <stm32__i2c__reset_config>
 80037b6:	687b      	ldr	r3, [r7, #4]
 80037b8:	2201      	movs	r2, #1
 80037ba:	751a      	strb	r2, [r3, #20]
 80037bc:	2301      	movs	r3, #1
 80037be:	73fb      	strb	r3, [r7, #15]
 80037c0:	e001      	b.n	80037c6 <stm32__i2c__check_nack+0x112>
 80037c2:	2300      	movs	r3, #0
 80037c4:	73fb      	strb	r3, [r7, #15]
 80037c6:	7bfb      	ldrb	r3, [r7, #15]
 80037c8:	bf00      	nop
 80037ca:	4618      	mov	r0, r3
 80037cc:	371c      	adds	r7, #28
 80037ce:	46bd      	mov	sp, r7
 80037d0:	bdf0      	pop	{r4, r5, r6, r7, pc}
 80037d2:	bf00      	nop

080037d4 <stm32__i2c__wait_tx_interrupt_status>:
 80037d4:	b5f0      	push	{r4, r5, r6, r7, lr}
 80037d6:	b087      	sub	sp, #28
 80037d8:	af00      	add	r7, sp, #0
 80037da:	6078      	str	r0, [r7, #4]
 80037dc:	6039      	str	r1, [r7, #0]
 80037de:	f003 fe29 	bl	8007434 <ada__real_time__clock>
 80037e2:	4603      	mov	r3, r0
 80037e4:	460c      	mov	r4, r1
 80037e6:	e9c7 3404 	strd	r3, r4, [r7, #16]
 80037ea:	687b      	ldr	r3, [r7, #4]
 80037ec:	685b      	ldr	r3, [r3, #4]
 80037ee:	3318      	adds	r3, #24
 80037f0:	681b      	ldr	r3, [r3, #0]
 80037f2:	b2db      	uxtb	r3, r3
 80037f4:	f003 0302 	and.w	r3, r3, #2
 80037f8:	b2db      	uxtb	r3, r3
 80037fa:	2b00      	cmp	r3, #0
 80037fc:	d134      	bne.n	8003868 <stm32__i2c__wait_tx_interrupt_status+0x94>
 80037fe:	6839      	ldr	r1, [r7, #0]
 8003800:	6878      	ldr	r0, [r7, #4]
 8003802:	f7ff ff57 	bl	80036b4 <stm32__i2c__check_nack>
 8003806:	4603      	mov	r3, r0
 8003808:	73fb      	strb	r3, [r7, #15]
 800380a:	7bfb      	ldrb	r3, [r7, #15]
 800380c:	2b00      	cmp	r3, #0
 800380e:	d005      	beq.n	800381c <stm32__i2c__wait_tx_interrupt_status+0x48>
 8003810:	687b      	ldr	r3, [r7, #4]
 8003812:	2201      	movs	r2, #1
 8003814:	751a      	strb	r2, [r3, #20]
 8003816:	2301      	movs	r3, #1
 8003818:	73fb      	strb	r3, [r7, #15]
 800381a:	e027      	b.n	800386c <stm32__i2c__wait_tx_interrupt_status+0x98>
 800381c:	683b      	ldr	r3, [r7, #0]
 800381e:	2b00      	cmp	r3, #0
 8003820:	dde3      	ble.n	80037ea <stm32__i2c__wait_tx_interrupt_status+0x16>
 8003822:	6838      	ldr	r0, [r7, #0]
 8003824:	f003 fe36 	bl	8007494 <ada__real_time__milliseconds>
 8003828:	4603      	mov	r3, r0
 800382a:	460c      	mov	r4, r1
 800382c:	461a      	mov	r2, r3
 800382e:	4623      	mov	r3, r4
 8003830:	e9d7 0104 	ldrd	r0, r1, [r7, #16]
 8003834:	f003 fda6 	bl	8007384 <ada__real_time__Oadd>
 8003838:	4605      	mov	r5, r0
 800383a:	460e      	mov	r6, r1
 800383c:	f003 fdfa 	bl	8007434 <ada__real_time__clock>
 8003840:	4603      	mov	r3, r0
 8003842:	460c      	mov	r4, r1
 8003844:	42a6      	cmp	r6, r4
 8003846:	bf08      	it	eq
 8003848:	429d      	cmpeq	r5, r3
 800384a:	bf34      	ite	cc
 800384c:	2301      	movcc	r3, #1
 800384e:	2300      	movcs	r3, #0
 8003850:	b2db      	uxtb	r3, r3
 8003852:	2b00      	cmp	r3, #0
 8003854:	d0c9      	beq.n	80037ea <stm32__i2c__wait_tx_interrupt_status+0x16>
 8003856:	6878      	ldr	r0, [r7, #4]
 8003858:	f7ff ff02 	bl	8003660 <stm32__i2c__reset_config>
 800385c:	687b      	ldr	r3, [r7, #4]
 800385e:	2201      	movs	r2, #1
 8003860:	751a      	strb	r2, [r3, #20]
 8003862:	2302      	movs	r3, #2
 8003864:	73fb      	strb	r3, [r7, #15]
 8003866:	e001      	b.n	800386c <stm32__i2c__wait_tx_interrupt_status+0x98>
 8003868:	2300      	movs	r3, #0
 800386a:	73fb      	strb	r3, [r7, #15]
 800386c:	7bfb      	ldrb	r3, [r7, #15]
 800386e:	bf00      	nop
 8003870:	4618      	mov	r0, r3
 8003872:	371c      	adds	r7, #28
 8003874:	46bd      	mov	sp, r7
 8003876:	bdf0      	pop	{r4, r5, r6, r7, pc}

08003878 <stm32__i2c__wait_transfer_complete_reset_flag>:
 8003878:	b5f0      	push	{r4, r5, r6, r7, lr}
 800387a:	b087      	sub	sp, #28
 800387c:	af00      	add	r7, sp, #0
 800387e:	6078      	str	r0, [r7, #4]
 8003880:	6039      	str	r1, [r7, #0]
 8003882:	f003 fdd7 	bl	8007434 <ada__real_time__clock>
 8003886:	4603      	mov	r3, r0
 8003888:	460c      	mov	r4, r1
 800388a:	e9c7 3404 	strd	r3, r4, [r7, #16]
 800388e:	687b      	ldr	r3, [r7, #4]
 8003890:	685b      	ldr	r3, [r3, #4]
 8003892:	3318      	adds	r3, #24
 8003894:	681b      	ldr	r3, [r3, #0]
 8003896:	b2db      	uxtb	r3, r3
 8003898:	b25b      	sxtb	r3, r3
 800389a:	2b00      	cmp	r3, #0
 800389c:	db25      	blt.n	80038ea <stm32__i2c__wait_transfer_complete_reset_flag+0x72>
 800389e:	683b      	ldr	r3, [r7, #0]
 80038a0:	2b00      	cmp	r3, #0
 80038a2:	ddf4      	ble.n	800388e <stm32__i2c__wait_transfer_complete_reset_flag+0x16>
 80038a4:	6838      	ldr	r0, [r7, #0]
 80038a6:	f003 fdf5 	bl	8007494 <ada__real_time__milliseconds>
 80038aa:	4603      	mov	r3, r0
 80038ac:	460c      	mov	r4, r1
 80038ae:	461a      	mov	r2, r3
 80038b0:	4623      	mov	r3, r4
 80038b2:	e9d7 0104 	ldrd	r0, r1, [r7, #16]
 80038b6:	f003 fd65 	bl	8007384 <ada__real_time__Oadd>
 80038ba:	4605      	mov	r5, r0
 80038bc:	460e      	mov	r6, r1
 80038be:	f003 fdb9 	bl	8007434 <ada__real_time__clock>
 80038c2:	4603      	mov	r3, r0
 80038c4:	460c      	mov	r4, r1
 80038c6:	42a6      	cmp	r6, r4
 80038c8:	bf08      	it	eq
 80038ca:	429d      	cmpeq	r5, r3
 80038cc:	bf34      	ite	cc
 80038ce:	2301      	movcc	r3, #1
 80038d0:	2300      	movcs	r3, #0
 80038d2:	b2db      	uxtb	r3, r3
 80038d4:	2b00      	cmp	r3, #0
 80038d6:	d0da      	beq.n	800388e <stm32__i2c__wait_transfer_complete_reset_flag+0x16>
 80038d8:	6878      	ldr	r0, [r7, #4]
 80038da:	f7ff fec1 	bl	8003660 <stm32__i2c__reset_config>
 80038de:	2302      	movs	r3, #2
 80038e0:	73fb      	strb	r3, [r7, #15]
 80038e2:	687b      	ldr	r3, [r7, #4]
 80038e4:	2201      	movs	r2, #1
 80038e6:	751a      	strb	r2, [r3, #20]
 80038e8:	e001      	b.n	80038ee <stm32__i2c__wait_transfer_complete_reset_flag+0x76>
 80038ea:	2300      	movs	r3, #0
 80038ec:	73fb      	strb	r3, [r7, #15]
 80038ee:	7bfb      	ldrb	r3, [r7, #15]
 80038f0:	bf00      	nop
 80038f2:	4618      	mov	r0, r3
 80038f4:	371c      	adds	r7, #28
 80038f6:	46bd      	mov	sp, r7
 80038f8:	bdf0      	pop	{r4, r5, r6, r7, pc}
 80038fa:	bf00      	nop

080038fc <stm32__i2c__wait_stop_flag>:
 80038fc:	b5f0      	push	{r4, r5, r6, r7, lr}
 80038fe:	b087      	sub	sp, #28
 8003900:	af00      	add	r7, sp, #0
 8003902:	6078      	str	r0, [r7, #4]
 8003904:	6039      	str	r1, [r7, #0]
 8003906:	f003 fd95 	bl	8007434 <ada__real_time__clock>
 800390a:	4603      	mov	r3, r0
 800390c:	460c      	mov	r4, r1
 800390e:	e9c7 3404 	strd	r3, r4, [r7, #16]
 8003912:	687b      	ldr	r3, [r7, #4]
 8003914:	685b      	ldr	r3, [r3, #4]
 8003916:	3318      	adds	r3, #24
 8003918:	681b      	ldr	r3, [r3, #0]
 800391a:	b2db      	uxtb	r3, r3
 800391c:	f003 0320 	and.w	r3, r3, #32
 8003920:	b2db      	uxtb	r3, r3
 8003922:	2b00      	cmp	r3, #0
 8003924:	d134      	bne.n	8003990 <stm32__i2c__wait_stop_flag+0x94>
 8003926:	6839      	ldr	r1, [r7, #0]
 8003928:	6878      	ldr	r0, [r7, #4]
 800392a:	f7ff fec3 	bl	80036b4 <stm32__i2c__check_nack>
 800392e:	4603      	mov	r3, r0
 8003930:	73fb      	strb	r3, [r7, #15]
 8003932:	7bfb      	ldrb	r3, [r7, #15]
 8003934:	2b00      	cmp	r3, #0
 8003936:	d005      	beq.n	8003944 <stm32__i2c__wait_stop_flag+0x48>
 8003938:	687b      	ldr	r3, [r7, #4]
 800393a:	2201      	movs	r2, #1
 800393c:	751a      	strb	r2, [r3, #20]
 800393e:	2301      	movs	r3, #1
 8003940:	73fb      	strb	r3, [r7, #15]
 8003942:	e033      	b.n	80039ac <stm32__i2c__wait_stop_flag+0xb0>
 8003944:	683b      	ldr	r3, [r7, #0]
 8003946:	2b00      	cmp	r3, #0
 8003948:	dde3      	ble.n	8003912 <stm32__i2c__wait_stop_flag+0x16>
 800394a:	6838      	ldr	r0, [r7, #0]
 800394c:	f003 fda2 	bl	8007494 <ada__real_time__milliseconds>
 8003950:	4603      	mov	r3, r0
 8003952:	460c      	mov	r4, r1
 8003954:	461a      	mov	r2, r3
 8003956:	4623      	mov	r3, r4
 8003958:	e9d7 0104 	ldrd	r0, r1, [r7, #16]
 800395c:	f003 fd12 	bl	8007384 <ada__real_time__Oadd>
 8003960:	4605      	mov	r5, r0
 8003962:	460e      	mov	r6, r1
 8003964:	f003 fd66 	bl	8007434 <ada__real_time__clock>
 8003968:	4603      	mov	r3, r0
 800396a:	460c      	mov	r4, r1
 800396c:	42a6      	cmp	r6, r4
 800396e:	bf08      	it	eq
 8003970:	429d      	cmpeq	r5, r3
 8003972:	bf34      	ite	cc
 8003974:	2301      	movcc	r3, #1
 8003976:	2300      	movcs	r3, #0
 8003978:	b2db      	uxtb	r3, r3
 800397a:	2b00      	cmp	r3, #0
 800397c:	d0c9      	beq.n	8003912 <stm32__i2c__wait_stop_flag+0x16>
 800397e:	6878      	ldr	r0, [r7, #4]
 8003980:	f7ff fe6e 	bl	8003660 <stm32__i2c__reset_config>
 8003984:	2302      	movs	r3, #2
 8003986:	73fb      	strb	r3, [r7, #15]
 8003988:	687b      	ldr	r3, [r7, #4]
 800398a:	2201      	movs	r2, #1
 800398c:	751a      	strb	r2, [r3, #20]
 800398e:	e00d      	b.n	80039ac <stm32__i2c__wait_stop_flag+0xb0>
 8003990:	687b      	ldr	r3, [r7, #4]
 8003992:	685b      	ldr	r3, [r3, #4]
 8003994:	331c      	adds	r3, #28
 8003996:	681b      	ldr	r3, [r3, #0]
 8003998:	461a      	mov	r2, r3
 800399a:	4613      	mov	r3, r2
 800399c:	f043 0220 	orr.w	r2, r3, #32
 80039a0:	687b      	ldr	r3, [r7, #4]
 80039a2:	685b      	ldr	r3, [r3, #4]
 80039a4:	331c      	adds	r3, #28
 80039a6:	601a      	str	r2, [r3, #0]
 80039a8:	2300      	movs	r3, #0
 80039aa:	73fb      	strb	r3, [r7, #15]
 80039ac:	7bfb      	ldrb	r3, [r7, #15]
 80039ae:	bf00      	nop
 80039b0:	4618      	mov	r0, r3
 80039b2:	371c      	adds	r7, #28
 80039b4:	46bd      	mov	sp, r7
 80039b6:	bdf0      	pop	{r4, r5, r6, r7, pc}

080039b8 <stm32__i2c__master_transmit>:
 80039b8:	e92d 4bf0 	stmdb	sp!, {r4, r5, r6, r7, r8, r9, fp, lr}
 80039bc:	b08c      	sub	sp, #48	; 0x30
 80039be:	af02      	add	r7, sp, #8
 80039c0:	6178      	str	r0, [r7, #20]
 80039c2:	e9c7 2302 	strd	r2, r3, [r7, #8]
 80039c6:	460b      	mov	r3, r1
 80039c8:	827b      	strh	r3, [r7, #18]
 80039ca:	68fb      	ldr	r3, [r7, #12]
 80039cc:	681c      	ldr	r4, [r3, #0]
 80039ce:	68fb      	ldr	r3, [r7, #12]
 80039d0:	685d      	ldr	r5, [r3, #4]
 80039d2:	42a5      	cmp	r5, r4
 80039d4:	db10      	blt.n	80039f8 <stm32__i2c__master_transmit+0x40>
 80039d6:	4628      	mov	r0, r5
 80039d8:	ea4f 71e0 	mov.w	r1, r0, asr #31
 80039dc:	46a0      	mov	r8, r4
 80039de:	ea4f 79e8 	mov.w	r9, r8, asr #31
 80039e2:	4602      	mov	r2, r0
 80039e4:	460b      	mov	r3, r1
 80039e6:	ebb2 0208 	subs.w	r2, r2, r8
 80039ea:	eb63 0309 	sbc.w	r3, r3, r9
 80039ee:	f112 0801 	adds.w	r8, r2, #1
 80039f2:	f143 0900 	adc.w	r9, r3, #0
 80039f6:	e003      	b.n	8003a00 <stm32__i2c__master_transmit+0x48>
 80039f8:	f04f 0800 	mov.w	r8, #0
 80039fc:	f04f 0900 	mov.w	r9, #0
 8003a00:	4bc0      	ldr	r3, [pc, #768]	; (8003d04 <stm32__i2c__master_transmit+0x34c>)
 8003a02:	781b      	ldrb	r3, [r3, #0]
 8003a04:	f083 0301 	eor.w	r3, r3, #1
 8003a08:	b2db      	uxtb	r3, r3
 8003a0a:	2b00      	cmp	r3, #0
 8003a0c:	d004      	beq.n	8003a18 <stm32__i2c__master_transmit+0x60>
 8003a0e:	f240 1171 	movw	r1, #369	; 0x171
 8003a12:	48bd      	ldr	r0, [pc, #756]	; (8003d08 <stm32__i2c__master_transmit+0x350>)
 8003a14:	f005 fb2e 	bl	8009074 <__gnat_rcheck_PE_Access_Before_Elaboration>
 8003a18:	6978      	ldr	r0, [r7, #20]
 8003a1a:	f7ff fd89 	bl	8003530 <stm32__i2c__is_configured>
 8003a1e:	4603      	mov	r3, r0
 8003a20:	f083 0301 	eor.w	r3, r3, #1
 8003a24:	b2db      	uxtb	r3, r3
 8003a26:	2b00      	cmp	r3, #0
 8003a28:	d007      	beq.n	8003a3a <stm32__i2c__master_transmit+0x82>
 8003a2a:	4bb8      	ldr	r3, [pc, #736]	; (8003d0c <stm32__i2c__master_transmit+0x354>)
 8003a2c:	603b      	str	r3, [r7, #0]
 8003a2e:	4bb8      	ldr	r3, [pc, #736]	; (8003d10 <stm32__i2c__master_transmit+0x358>)
 8003a30:	607b      	str	r3, [r7, #4]
 8003a32:	e9d7 0100 	ldrd	r0, r1, [r7]
 8003a36:	f006 f829 	bl	8009a8c <system__assertions__raise_assert_failure>
 8003a3a:	4626      	mov	r6, r4
 8003a3c:	2300      	movs	r3, #0
 8003a3e:	627b      	str	r3, [r7, #36]	; 0x24
 8003a40:	2300      	movs	r3, #0
 8003a42:	623b      	str	r3, [r7, #32]
 8003a44:	2300      	movs	r3, #0
 8003a46:	61fb      	str	r3, [r7, #28]
 8003a48:	697b      	ldr	r3, [r7, #20]
 8003a4a:	685b      	ldr	r3, [r3, #4]
 8003a4c:	3318      	adds	r3, #24
 8003a4e:	681b      	ldr	r3, [r3, #0]
 8003a50:	f3c3 2307 	ubfx	r3, r3, #8, #8
 8003a54:	b2db      	uxtb	r3, r3
 8003a56:	f023 037f 	bic.w	r3, r3, #127	; 0x7f
 8003a5a:	b2db      	uxtb	r3, r3
 8003a5c:	2b00      	cmp	r3, #0
 8003a5e:	d002      	beq.n	8003a66 <stm32__i2c__master_transmit+0xae>
 8003a60:	2303      	movs	r3, #3
 8003a62:	76fb      	strb	r3, [r7, #27]
 8003a64:	e1b0      	b.n	8003dc8 <stm32__i2c__master_transmit+0x410>
 8003a66:	42ac      	cmp	r4, r5
 8003a68:	dd02      	ble.n	8003a70 <stm32__i2c__master_transmit+0xb8>
 8003a6a:	2301      	movs	r3, #1
 8003a6c:	76fb      	strb	r3, [r7, #27]
 8003a6e:	e1ab      	b.n	8003dc8 <stm32__i2c__master_transmit+0x410>
 8003a70:	697b      	ldr	r3, [r7, #20]
 8003a72:	7d1b      	ldrb	r3, [r3, #20]
 8003a74:	2b01      	cmp	r3, #1
 8003a76:	d002      	beq.n	8003a7e <stm32__i2c__master_transmit+0xc6>
 8003a78:	2303      	movs	r3, #3
 8003a7a:	76fb      	strb	r3, [r7, #27]
 8003a7c:	e1a4      	b.n	8003dc8 <stm32__i2c__master_transmit+0x410>
 8003a7e:	697b      	ldr	r3, [r7, #20]
 8003a80:	2202      	movs	r2, #2
 8003a82:	751a      	strb	r2, [r3, #20]
 8003a84:	4622      	mov	r2, r4
 8003a86:	ea4f 73e2 	mov.w	r3, r2, asr #31
 8003a8a:	f112 00fe 	adds.w	r0, r2, #254	; 0xfe
 8003a8e:	f143 0100 	adc.w	r1, r3, #0
 8003a92:	462a      	mov	r2, r5
 8003a94:	ea4f 73e2 	mov.w	r3, r2, asr #31
 8003a98:	4290      	cmp	r0, r2
 8003a9a:	eb71 0303 	sbcs.w	r3, r1, r3
 8003a9e:	da0a      	bge.n	8003ab6 <stm32__i2c__master_transmit+0xfe>
 8003aa0:	8a79      	ldrh	r1, [r7, #18]
 8003aa2:	2303      	movs	r3, #3
 8003aa4:	9300      	str	r3, [sp, #0]
 8003aa6:	2300      	movs	r3, #0
 8003aa8:	22ff      	movs	r2, #255	; 0xff
 8003aaa:	6978      	ldr	r0, [r7, #20]
 8003aac:	f7ff fd60 	bl	8003570 <stm32__i2c__config_transfer>
 8003ab0:	23ff      	movs	r3, #255	; 0xff
 8003ab2:	627b      	str	r3, [r7, #36]	; 0x24
 8003ab4:	e033      	b.n	8003b1e <stm32__i2c__master_transmit+0x166>
 8003ab6:	4622      	mov	r2, r4
 8003ab8:	ea4f 73e2 	mov.w	r3, r2, asr #31
 8003abc:	f112 00fe 	adds.w	r0, r2, #254	; 0xfe
 8003ac0:	f143 0100 	adc.w	r1, r3, #0
 8003ac4:	462a      	mov	r2, r5
 8003ac6:	ea4f 73e2 	mov.w	r3, r2, asr #31
 8003aca:	4290      	cmp	r0, r2
 8003acc:	eb71 0303 	sbcs.w	r3, r1, r3
 8003ad0:	da04      	bge.n	8003adc <stm32__i2c__master_transmit+0x124>
 8003ad2:	f240 1195 	movw	r1, #405	; 0x195
 8003ad6:	488c      	ldr	r0, [pc, #560]	; (8003d08 <stm32__i2c__master_transmit+0x350>)
 8003ad8:	f005 fac4 	bl	8009064 <__gnat_rcheck_CE_Range_Check>
 8003adc:	fa5f f288 	uxtb.w	r2, r8
 8003ae0:	8a79      	ldrh	r1, [r7, #18]
 8003ae2:	2303      	movs	r3, #3
 8003ae4:	9300      	str	r3, [sp, #0]
 8003ae6:	2301      	movs	r3, #1
 8003ae8:	6978      	ldr	r0, [r7, #20]
 8003aea:	f7ff fd41 	bl	8003570 <stm32__i2c__config_transfer>
 8003aee:	4622      	mov	r2, r4
 8003af0:	ea4f 73e2 	mov.w	r3, r2, asr #31
 8003af4:	4887      	ldr	r0, [pc, #540]	; (8003d14 <stm32__i2c__master_transmit+0x35c>)
 8003af6:	f04f 0100 	mov.w	r1, #0
 8003afa:	eb10 0b02 	adds.w	fp, r0, r2
 8003afe:	eb41 0c03 	adc.w	ip, r1, r3
 8003b02:	462a      	mov	r2, r5
 8003b04:	ea4f 73e2 	mov.w	r3, r2, asr #31
 8003b08:	4593      	cmp	fp, r2
 8003b0a:	eb7c 0303 	sbcs.w	r3, ip, r3
 8003b0e:	da04      	bge.n	8003b1a <stm32__i2c__master_transmit+0x162>
 8003b10:	f44f 71cb 	mov.w	r1, #406	; 0x196
 8003b14:	487c      	ldr	r0, [pc, #496]	; (8003d08 <stm32__i2c__master_transmit+0x350>)
 8003b16:	f005 faa5 	bl	8009064 <__gnat_rcheck_CE_Range_Check>
 8003b1a:	4643      	mov	r3, r8
 8003b1c:	627b      	str	r3, [r7, #36]	; 0x24
 8003b1e:	4622      	mov	r2, r4
 8003b20:	ea4f 73e2 	mov.w	r3, r2, asr #31
 8003b24:	487b      	ldr	r0, [pc, #492]	; (8003d14 <stm32__i2c__master_transmit+0x35c>)
 8003b26:	f04f 0100 	mov.w	r1, #0
 8003b2a:	eb10 0b02 	adds.w	fp, r0, r2
 8003b2e:	eb41 0c03 	adc.w	ip, r1, r3
 8003b32:	462a      	mov	r2, r5
 8003b34:	ea4f 73e2 	mov.w	r3, r2, asr #31
 8003b38:	4593      	cmp	fp, r2
 8003b3a:	eb7c 0303 	sbcs.w	r3, ip, r3
 8003b3e:	da04      	bge.n	8003b4a <stm32__i2c__master_transmit+0x192>
 8003b40:	f44f 71cd 	mov.w	r1, #410	; 0x19a
 8003b44:	4870      	ldr	r0, [pc, #448]	; (8003d08 <stm32__i2c__master_transmit+0x350>)
 8003b46:	f005 fa8d 	bl	8009064 <__gnat_rcheck_CE_Range_Check>
 8003b4a:	4642      	mov	r2, r8
 8003b4c:	6a3b      	ldr	r3, [r7, #32]
 8003b4e:	4293      	cmp	r3, r2
 8003b50:	f280 8123 	bge.w	8003d9a <stm32__i2c__master_transmit+0x3e2>
 8003b54:	6cb9      	ldr	r1, [r7, #72]	; 0x48
 8003b56:	6978      	ldr	r0, [r7, #20]
 8003b58:	f7ff fe3c 	bl	80037d4 <stm32__i2c__wait_tx_interrupt_status>
 8003b5c:	4603      	mov	r3, r0
 8003b5e:	76fb      	strb	r3, [r7, #27]
 8003b60:	7efb      	ldrb	r3, [r7, #27]
 8003b62:	2b00      	cmp	r3, #0
 8003b64:	f040 812b 	bne.w	8003dbe <stm32__i2c__master_transmit+0x406>
 8003b68:	2200      	movs	r2, #0
 8003b6a:	6a3b      	ldr	r3, [r7, #32]
 8003b6c:	18e3      	adds	r3, r4, r3
 8003b6e:	d700      	bvc.n	8003b72 <stm32__i2c__master_transmit+0x1ba>
 8003b70:	2201      	movs	r2, #1
 8003b72:	4619      	mov	r1, r3
 8003b74:	4613      	mov	r3, r2
 8003b76:	2b00      	cmp	r3, #0
 8003b78:	d004      	beq.n	8003b84 <stm32__i2c__master_transmit+0x1cc>
 8003b7a:	f240 11a1 	movw	r1, #417	; 0x1a1
 8003b7e:	4862      	ldr	r0, [pc, #392]	; (8003d08 <stm32__i2c__master_transmit+0x350>)
 8003b80:	f005 fa68 	bl	8009054 <__gnat_rcheck_CE_Overflow_Check>
 8003b84:	460b      	mov	r3, r1
 8003b86:	429c      	cmp	r4, r3
 8003b88:	dc01      	bgt.n	8003b8e <stm32__i2c__master_transmit+0x1d6>
 8003b8a:	429d      	cmp	r5, r3
 8003b8c:	da04      	bge.n	8003b98 <stm32__i2c__master_transmit+0x1e0>
 8003b8e:	f240 11a1 	movw	r1, #417	; 0x1a1
 8003b92:	485d      	ldr	r0, [pc, #372]	; (8003d08 <stm32__i2c__master_transmit+0x350>)
 8003b94:	f005 fa4e 	bl	8009034 <__gnat_rcheck_CE_Index_Check>
 8003b98:	68b9      	ldr	r1, [r7, #8]
 8003b9a:	461a      	mov	r2, r3
 8003b9c:	697b      	ldr	r3, [r7, #20]
 8003b9e:	685b      	ldr	r3, [r3, #4]
 8003ba0:	3328      	adds	r3, #40	; 0x28
 8003ba2:	681b      	ldr	r3, [r3, #0]
 8003ba4:	1b92      	subs	r2, r2, r6
 8003ba6:	5c8a      	ldrb	r2, [r1, r2]
 8003ba8:	f362 0307 	bfi	r3, r2, #0, #8
 8003bac:	697a      	ldr	r2, [r7, #20]
 8003bae:	6852      	ldr	r2, [r2, #4]
 8003bb0:	3228      	adds	r2, #40	; 0x28
 8003bb2:	6013      	str	r3, [r2, #0]
 8003bb4:	6a3b      	ldr	r3, [r7, #32]
 8003bb6:	f06f 4200 	mvn.w	r2, #2147483648	; 0x80000000
 8003bba:	4293      	cmp	r3, r2
 8003bbc:	d104      	bne.n	8003bc8 <stm32__i2c__master_transmit+0x210>
 8003bbe:	f44f 71d1 	mov.w	r1, #418	; 0x1a2
 8003bc2:	4851      	ldr	r0, [pc, #324]	; (8003d08 <stm32__i2c__master_transmit+0x350>)
 8003bc4:	f005 fa46 	bl	8009054 <__gnat_rcheck_CE_Overflow_Check>
 8003bc8:	6a3b      	ldr	r3, [r7, #32]
 8003bca:	3301      	adds	r3, #1
 8003bcc:	623b      	str	r3, [r7, #32]
 8003bce:	69fb      	ldr	r3, [r7, #28]
 8003bd0:	f06f 4200 	mvn.w	r2, #2147483648	; 0x80000000
 8003bd4:	4293      	cmp	r3, r2
 8003bd6:	d104      	bne.n	8003be2 <stm32__i2c__master_transmit+0x22a>
 8003bd8:	f240 11a3 	movw	r1, #419	; 0x1a3
 8003bdc:	484a      	ldr	r0, [pc, #296]	; (8003d08 <stm32__i2c__master_transmit+0x350>)
 8003bde:	f005 fa39 	bl	8009054 <__gnat_rcheck_CE_Overflow_Check>
 8003be2:	69fb      	ldr	r3, [r7, #28]
 8003be4:	3301      	adds	r3, #1
 8003be6:	61fb      	str	r3, [r7, #28]
 8003be8:	69fa      	ldr	r2, [r7, #28]
 8003bea:	6a7b      	ldr	r3, [r7, #36]	; 0x24
 8003bec:	429a      	cmp	r2, r3
 8003bee:	d196      	bne.n	8003b1e <stm32__i2c__master_transmit+0x166>
 8003bf0:	4622      	mov	r2, r4
 8003bf2:	ea4f 73e2 	mov.w	r3, r2, asr #31
 8003bf6:	4847      	ldr	r0, [pc, #284]	; (8003d14 <stm32__i2c__master_transmit+0x35c>)
 8003bf8:	f04f 0100 	mov.w	r1, #0
 8003bfc:	eb10 0b02 	adds.w	fp, r0, r2
 8003c00:	eb41 0c03 	adc.w	ip, r1, r3
 8003c04:	462a      	mov	r2, r5
 8003c06:	ea4f 73e2 	mov.w	r3, r2, asr #31
 8003c0a:	4593      	cmp	fp, r2
 8003c0c:	eb7c 0303 	sbcs.w	r3, ip, r3
 8003c10:	da04      	bge.n	8003c1c <stm32__i2c__master_transmit+0x264>
 8003c12:	f44f 71d3 	mov.w	r1, #422	; 0x1a6
 8003c16:	483c      	ldr	r0, [pc, #240]	; (8003d08 <stm32__i2c__master_transmit+0x350>)
 8003c18:	f005 fa24 	bl	8009064 <__gnat_rcheck_CE_Range_Check>
 8003c1c:	4642      	mov	r2, r8
 8003c1e:	6a3b      	ldr	r3, [r7, #32]
 8003c20:	4293      	cmp	r3, r2
 8003c22:	bfb4      	ite	lt
 8003c24:	2301      	movlt	r3, #1
 8003c26:	2300      	movge	r3, #0
 8003c28:	b2db      	uxtb	r3, r3
 8003c2a:	2b00      	cmp	r3, #0
 8003c2c:	f43f af77 	beq.w	8003b1e <stm32__i2c__master_transmit+0x166>
 8003c30:	6cb9      	ldr	r1, [r7, #72]	; 0x48
 8003c32:	6978      	ldr	r0, [r7, #20]
 8003c34:	f7ff fe20 	bl	8003878 <stm32__i2c__wait_transfer_complete_reset_flag>
 8003c38:	4603      	mov	r3, r0
 8003c3a:	76fb      	strb	r3, [r7, #27]
 8003c3c:	7efb      	ldrb	r3, [r7, #27]
 8003c3e:	2b00      	cmp	r3, #0
 8003c40:	f040 80bf 	bne.w	8003dc2 <stm32__i2c__master_transmit+0x40a>
 8003c44:	2300      	movs	r3, #0
 8003c46:	61fb      	str	r3, [r7, #28]
 8003c48:	4622      	mov	r2, r4
 8003c4a:	ea4f 73e2 	mov.w	r3, r2, asr #31
 8003c4e:	4831      	ldr	r0, [pc, #196]	; (8003d14 <stm32__i2c__master_transmit+0x35c>)
 8003c50:	f04f 0100 	mov.w	r1, #0
 8003c54:	eb10 0b02 	adds.w	fp, r0, r2
 8003c58:	eb41 0c03 	adc.w	ip, r1, r3
 8003c5c:	462a      	mov	r2, r5
 8003c5e:	ea4f 73e2 	mov.w	r3, r2, asr #31
 8003c62:	4593      	cmp	fp, r2
 8003c64:	eb7c 0303 	sbcs.w	r3, ip, r3
 8003c68:	da04      	bge.n	8003c74 <stm32__i2c__master_transmit+0x2bc>
 8003c6a:	f44f 71d7 	mov.w	r1, #430	; 0x1ae
 8003c6e:	4826      	ldr	r0, [pc, #152]	; (8003d08 <stm32__i2c__master_transmit+0x350>)
 8003c70:	f005 f9f8 	bl	8009064 <__gnat_rcheck_CE_Range_Check>
 8003c74:	4641      	mov	r1, r8
 8003c76:	2200      	movs	r2, #0
 8003c78:	6a3b      	ldr	r3, [r7, #32]
 8003c7a:	1acb      	subs	r3, r1, r3
 8003c7c:	d700      	bvc.n	8003c80 <stm32__i2c__master_transmit+0x2c8>
 8003c7e:	2201      	movs	r2, #1
 8003c80:	4619      	mov	r1, r3
 8003c82:	4613      	mov	r3, r2
 8003c84:	2b00      	cmp	r3, #0
 8003c86:	d004      	beq.n	8003c92 <stm32__i2c__master_transmit+0x2da>
 8003c88:	f44f 71d7 	mov.w	r1, #430	; 0x1ae
 8003c8c:	481e      	ldr	r0, [pc, #120]	; (8003d08 <stm32__i2c__master_transmit+0x350>)
 8003c8e:	f005 f9e1 	bl	8009054 <__gnat_rcheck_CE_Overflow_Check>
 8003c92:	460b      	mov	r3, r1
 8003c94:	2bff      	cmp	r3, #255	; 0xff
 8003c96:	bfcc      	ite	gt
 8003c98:	2301      	movgt	r3, #1
 8003c9a:	2300      	movle	r3, #0
 8003c9c:	b2db      	uxtb	r3, r3
 8003c9e:	2b00      	cmp	r3, #0
 8003ca0:	d00a      	beq.n	8003cb8 <stm32__i2c__master_transmit+0x300>
 8003ca2:	8a79      	ldrh	r1, [r7, #18]
 8003ca4:	2300      	movs	r3, #0
 8003ca6:	9300      	str	r3, [sp, #0]
 8003ca8:	2300      	movs	r3, #0
 8003caa:	22ff      	movs	r2, #255	; 0xff
 8003cac:	6978      	ldr	r0, [r7, #20]
 8003cae:	f7ff fc5f 	bl	8003570 <stm32__i2c__config_transfer>
 8003cb2:	23ff      	movs	r3, #255	; 0xff
 8003cb4:	627b      	str	r3, [r7, #36]	; 0x24
 8003cb6:	e732      	b.n	8003b1e <stm32__i2c__master_transmit+0x166>
 8003cb8:	4622      	mov	r2, r4
 8003cba:	ea4f 73e2 	mov.w	r3, r2, asr #31
 8003cbe:	4815      	ldr	r0, [pc, #84]	; (8003d14 <stm32__i2c__master_transmit+0x35c>)
 8003cc0:	f04f 0100 	mov.w	r1, #0
 8003cc4:	eb10 0b02 	adds.w	fp, r0, r2
 8003cc8:	eb41 0c03 	adc.w	ip, r1, r3
 8003ccc:	462a      	mov	r2, r5
 8003cce:	ea4f 73e2 	mov.w	r3, r2, asr #31
 8003cd2:	4593      	cmp	fp, r2
 8003cd4:	eb7c 0303 	sbcs.w	r3, ip, r3
 8003cd8:	da04      	bge.n	8003ce4 <stm32__i2c__master_transmit+0x32c>
 8003cda:	f44f 71da 	mov.w	r1, #436	; 0x1b4
 8003cde:	480a      	ldr	r0, [pc, #40]	; (8003d08 <stm32__i2c__master_transmit+0x350>)
 8003ce0:	f005 f9c0 	bl	8009064 <__gnat_rcheck_CE_Range_Check>
 8003ce4:	4641      	mov	r1, r8
 8003ce6:	2200      	movs	r2, #0
 8003ce8:	6a3b      	ldr	r3, [r7, #32]
 8003cea:	1acb      	subs	r3, r1, r3
 8003cec:	d700      	bvc.n	8003cf0 <stm32__i2c__master_transmit+0x338>
 8003cee:	2201      	movs	r2, #1
 8003cf0:	4619      	mov	r1, r3
 8003cf2:	4613      	mov	r3, r2
 8003cf4:	2b00      	cmp	r3, #0
 8003cf6:	d00f      	beq.n	8003d18 <stm32__i2c__master_transmit+0x360>
 8003cf8:	f44f 71da 	mov.w	r1, #436	; 0x1b4
 8003cfc:	4802      	ldr	r0, [pc, #8]	; (8003d08 <stm32__i2c__master_transmit+0x350>)
 8003cfe:	f005 f9a9 	bl	8009054 <__gnat_rcheck_CE_Overflow_Check>
 8003d02:	bf00      	nop
 8003d04:	20000038 	.word	0x20000038
 8003d08:	0800d5e8 	.word	0x0800d5e8
 8003d0c:	0800d62c 	.word	0x0800d62c
 8003d10:	0800d624 	.word	0x0800d624
 8003d14:	7ffffffe 	.word	0x7ffffffe
 8003d18:	460b      	mov	r3, r1
 8003d1a:	2b00      	cmp	r3, #0
 8003d1c:	db01      	blt.n	8003d22 <stm32__i2c__master_transmit+0x36a>
 8003d1e:	2bff      	cmp	r3, #255	; 0xff
 8003d20:	dd04      	ble.n	8003d2c <stm32__i2c__master_transmit+0x374>
 8003d22:	f44f 71da 	mov.w	r1, #436	; 0x1b4
 8003d26:	482c      	ldr	r0, [pc, #176]	; (8003dd8 <stm32__i2c__master_transmit+0x420>)
 8003d28:	f005 f99c 	bl	8009064 <__gnat_rcheck_CE_Range_Check>
 8003d2c:	b2da      	uxtb	r2, r3
 8003d2e:	8a79      	ldrh	r1, [r7, #18]
 8003d30:	2300      	movs	r3, #0
 8003d32:	9300      	str	r3, [sp, #0]
 8003d34:	2301      	movs	r3, #1
 8003d36:	6978      	ldr	r0, [r7, #20]
 8003d38:	f7ff fc1a 	bl	8003570 <stm32__i2c__config_transfer>
 8003d3c:	4622      	mov	r2, r4
 8003d3e:	ea4f 73e2 	mov.w	r3, r2, asr #31
 8003d42:	4826      	ldr	r0, [pc, #152]	; (8003ddc <stm32__i2c__master_transmit+0x424>)
 8003d44:	f04f 0100 	mov.w	r1, #0
 8003d48:	eb10 0b02 	adds.w	fp, r0, r2
 8003d4c:	eb41 0c03 	adc.w	ip, r1, r3
 8003d50:	462a      	mov	r2, r5
 8003d52:	ea4f 73e2 	mov.w	r3, r2, asr #31
 8003d56:	4593      	cmp	fp, r2
 8003d58:	eb7c 0303 	sbcs.w	r3, ip, r3
 8003d5c:	da04      	bge.n	8003d68 <stm32__i2c__master_transmit+0x3b0>
 8003d5e:	f44f 71db 	mov.w	r1, #438	; 0x1b6
 8003d62:	481d      	ldr	r0, [pc, #116]	; (8003dd8 <stm32__i2c__master_transmit+0x420>)
 8003d64:	f005 f97e 	bl	8009064 <__gnat_rcheck_CE_Range_Check>
 8003d68:	4641      	mov	r1, r8
 8003d6a:	2200      	movs	r2, #0
 8003d6c:	6a3b      	ldr	r3, [r7, #32]
 8003d6e:	1acb      	subs	r3, r1, r3
 8003d70:	d700      	bvc.n	8003d74 <stm32__i2c__master_transmit+0x3bc>
 8003d72:	2201      	movs	r2, #1
 8003d74:	4619      	mov	r1, r3
 8003d76:	4613      	mov	r3, r2
 8003d78:	2b00      	cmp	r3, #0
 8003d7a:	d004      	beq.n	8003d86 <stm32__i2c__master_transmit+0x3ce>
 8003d7c:	f44f 71db 	mov.w	r1, #438	; 0x1b6
 8003d80:	4815      	ldr	r0, [pc, #84]	; (8003dd8 <stm32__i2c__master_transmit+0x420>)
 8003d82:	f005 f967 	bl	8009054 <__gnat_rcheck_CE_Overflow_Check>
 8003d86:	460b      	mov	r3, r1
 8003d88:	2b00      	cmp	r3, #0
 8003d8a:	da04      	bge.n	8003d96 <stm32__i2c__master_transmit+0x3de>
 8003d8c:	f44f 71db 	mov.w	r1, #438	; 0x1b6
 8003d90:	4811      	ldr	r0, [pc, #68]	; (8003dd8 <stm32__i2c__master_transmit+0x420>)
 8003d92:	f005 f967 	bl	8009064 <__gnat_rcheck_CE_Range_Check>
 8003d96:	627b      	str	r3, [r7, #36]	; 0x24
 8003d98:	e6c1      	b.n	8003b1e <stm32__i2c__master_transmit+0x166>
 8003d9a:	6cb9      	ldr	r1, [r7, #72]	; 0x48
 8003d9c:	6978      	ldr	r0, [r7, #20]
 8003d9e:	f7ff fdad 	bl	80038fc <stm32__i2c__wait_stop_flag>
 8003da2:	4603      	mov	r3, r0
 8003da4:	76fb      	strb	r3, [r7, #27]
 8003da6:	7efb      	ldrb	r3, [r7, #27]
 8003da8:	2b00      	cmp	r3, #0
 8003daa:	d10c      	bne.n	8003dc6 <stm32__i2c__master_transmit+0x40e>
 8003dac:	6978      	ldr	r0, [r7, #20]
 8003dae:	f7ff fc57 	bl	8003660 <stm32__i2c__reset_config>
 8003db2:	697b      	ldr	r3, [r7, #20]
 8003db4:	2201      	movs	r2, #1
 8003db6:	751a      	strb	r2, [r3, #20]
 8003db8:	2300      	movs	r3, #0
 8003dba:	76fb      	strb	r3, [r7, #27]
 8003dbc:	e004      	b.n	8003dc8 <stm32__i2c__master_transmit+0x410>
 8003dbe:	bf00      	nop
 8003dc0:	e002      	b.n	8003dc8 <stm32__i2c__master_transmit+0x410>
 8003dc2:	bf00      	nop
 8003dc4:	e000      	b.n	8003dc8 <stm32__i2c__master_transmit+0x410>
 8003dc6:	bf00      	nop
 8003dc8:	7efb      	ldrb	r3, [r7, #27]
 8003dca:	bf00      	nop
 8003dcc:	4618      	mov	r0, r3
 8003dce:	3728      	adds	r7, #40	; 0x28
 8003dd0:	46bd      	mov	sp, r7
 8003dd2:	e8bd 8bf0 	ldmia.w	sp!, {r4, r5, r6, r7, r8, r9, fp, pc}
 8003dd6:	bf00      	nop
 8003dd8:	0800d5e8 	.word	0x0800d5e8
 8003ddc:	7ffffffe 	.word	0x7ffffffe

08003de0 <stm32__i2c__master_transmit__2>:
 8003de0:	e92d 4ff0 	stmdb	sp!, {r4, r5, r6, r7, r8, r9, sl, fp, lr}
 8003de4:	b095      	sub	sp, #84	; 0x54
 8003de6:	af02      	add	r7, sp, #8
 8003de8:	62f8      	str	r0, [r7, #44]	; 0x2c
 8003dea:	e9c7 2308 	strd	r2, r3, [r7, #32]
 8003dee:	460b      	mov	r3, r1
 8003df0:	857b      	strh	r3, [r7, #42]	; 0x2a
 8003df2:	f107 0318 	add.w	r3, r7, #24
 8003df6:	f107 0270 	add.w	r2, r7, #112	; 0x70
 8003dfa:	e892 0003 	ldmia.w	r2, {r0, r1}
 8003dfe:	e883 0003 	stmia.w	r3, {r0, r1}
 8003e02:	69fb      	ldr	r3, [r7, #28]
 8003e04:	681a      	ldr	r2, [r3, #0]
 8003e06:	613a      	str	r2, [r7, #16]
 8003e08:	69fb      	ldr	r3, [r7, #28]
 8003e0a:	685b      	ldr	r3, [r3, #4]
 8003e0c:	60bb      	str	r3, [r7, #8]
 8003e0e:	4293      	cmp	r3, r2
 8003e10:	db15      	blt.n	8003e3e <stm32__i2c__master_transmit__2+0x5e>
 8003e12:	68bb      	ldr	r3, [r7, #8]
 8003e14:	4619      	mov	r1, r3
 8003e16:	ea4f 72e1 	mov.w	r2, r1, asr #31
 8003e1a:	6938      	ldr	r0, [r7, #16]
 8003e1c:	4603      	mov	r3, r0
 8003e1e:	ea4f 74e3 	mov.w	r4, r3, asr #31
 8003e22:	4698      	mov	r8, r3
 8003e24:	46a1      	mov	r9, r4
 8003e26:	460b      	mov	r3, r1
 8003e28:	4614      	mov	r4, r2
 8003e2a:	ebb3 0308 	subs.w	r3, r3, r8
 8003e2e:	eb64 0409 	sbc.w	r4, r4, r9
 8003e32:	1c59      	adds	r1, r3, #1
 8003e34:	f144 0200 	adc.w	r2, r4, #0
 8003e38:	e9c7 1200 	strd	r1, r2, [r7]
 8003e3c:	e005      	b.n	8003e4a <stm32__i2c__master_transmit__2+0x6a>
 8003e3e:	f04f 0300 	mov.w	r3, #0
 8003e42:	f04f 0400 	mov.w	r4, #0
 8003e46:	e9c7 3400 	strd	r3, r4, [r7]
 8003e4a:	6a7b      	ldr	r3, [r7, #36]	; 0x24
 8003e4c:	681a      	ldr	r2, [r3, #0]
 8003e4e:	617a      	str	r2, [r7, #20]
 8003e50:	6a7b      	ldr	r3, [r7, #36]	; 0x24
 8003e52:	685b      	ldr	r3, [r3, #4]
 8003e54:	60fb      	str	r3, [r7, #12]
 8003e56:	4293      	cmp	r3, r2
 8003e58:	db14      	blt.n	8003e84 <stm32__i2c__master_transmit__2+0xa4>
 8003e5a:	68fb      	ldr	r3, [r7, #12]
 8003e5c:	4619      	mov	r1, r3
 8003e5e:	ea4f 72e1 	mov.w	r2, r1, asr #31
 8003e62:	6978      	ldr	r0, [r7, #20]
 8003e64:	4603      	mov	r3, r0
 8003e66:	ea4f 74e3 	mov.w	r4, r3, asr #31
 8003e6a:	4698      	mov	r8, r3
 8003e6c:	46a1      	mov	r9, r4
 8003e6e:	460b      	mov	r3, r1
 8003e70:	4614      	mov	r4, r2
 8003e72:	ebb3 0308 	subs.w	r3, r3, r8
 8003e76:	eb64 0409 	sbc.w	r4, r4, r9
 8003e7a:	f113 0801 	adds.w	r8, r3, #1
 8003e7e:	f144 0900 	adc.w	r9, r4, #0
 8003e82:	e003      	b.n	8003e8c <stm32__i2c__master_transmit__2+0xac>
 8003e84:	f04f 0800 	mov.w	r8, #0
 8003e88:	f04f 0900 	mov.w	r9, #0
 8003e8c:	4bb8      	ldr	r3, [pc, #736]	; (8004170 <stm32__i2c__master_transmit__2+0x390>)
 8003e8e:	781b      	ldrb	r3, [r3, #0]
 8003e90:	f083 0301 	eor.w	r3, r3, #1
 8003e94:	b2db      	uxtb	r3, r3
 8003e96:	2b00      	cmp	r3, #0
 8003e98:	d004      	beq.n	8003ea4 <stm32__i2c__master_transmit__2+0xc4>
 8003e9a:	f240 11cb 	movw	r1, #459	; 0x1cb
 8003e9e:	48b5      	ldr	r0, [pc, #724]	; (8004174 <stm32__i2c__master_transmit__2+0x394>)
 8003ea0:	f005 f8e8 	bl	8009074 <__gnat_rcheck_PE_Access_Before_Elaboration>
 8003ea4:	6af8      	ldr	r0, [r7, #44]	; 0x2c
 8003ea6:	f7ff fb43 	bl	8003530 <stm32__i2c__is_configured>
 8003eaa:	4603      	mov	r3, r0
 8003eac:	f083 0301 	eor.w	r3, r3, #1
 8003eb0:	b2db      	uxtb	r3, r3
 8003eb2:	2b00      	cmp	r3, #0
 8003eb4:	d005      	beq.n	8003ec2 <stm32__i2c__master_transmit__2+0xe2>
 8003eb6:	4db0      	ldr	r5, [pc, #704]	; (8004178 <stm32__i2c__master_transmit__2+0x398>)
 8003eb8:	4eb0      	ldr	r6, [pc, #704]	; (800417c <stm32__i2c__master_transmit__2+0x39c>)
 8003eba:	4628      	mov	r0, r5
 8003ebc:	4631      	mov	r1, r6
 8003ebe:	f005 fde5 	bl	8009a8c <system__assertions__raise_assert_failure>
 8003ec2:	693d      	ldr	r5, [r7, #16]
 8003ec4:	697a      	ldr	r2, [r7, #20]
 8003ec6:	4616      	mov	r6, r2
 8003ec8:	2300      	movs	r3, #0
 8003eca:	647b      	str	r3, [r7, #68]	; 0x44
 8003ecc:	2300      	movs	r3, #0
 8003ece:	643b      	str	r3, [r7, #64]	; 0x40
 8003ed0:	2300      	movs	r3, #0
 8003ed2:	63fb      	str	r3, [r7, #60]	; 0x3c
 8003ed4:	4613      	mov	r3, r2
 8003ed6:	ea4f 74e3 	mov.w	r4, r3, asr #31
 8003eda:	49a9      	ldr	r1, [pc, #676]	; (8004180 <stm32__i2c__master_transmit__2+0x3a0>)
 8003edc:	f04f 0200 	mov.w	r2, #0
 8003ee0:	eb11 0a03 	adds.w	sl, r1, r3
 8003ee4:	eb42 0b04 	adc.w	fp, r2, r4
 8003ee8:	4650      	mov	r0, sl
 8003eea:	4659      	mov	r1, fp
 8003eec:	68fa      	ldr	r2, [r7, #12]
 8003eee:	4613      	mov	r3, r2
 8003ef0:	ea4f 74e3 	mov.w	r4, r3, asr #31
 8003ef4:	4298      	cmp	r0, r3
 8003ef6:	eb71 0304 	sbcs.w	r3, r1, r4
 8003efa:	da04      	bge.n	8003f06 <stm32__i2c__master_transmit__2+0x126>
 8003efc:	f44f 71eb 	mov.w	r1, #470	; 0x1d6
 8003f00:	489c      	ldr	r0, [pc, #624]	; (8004174 <stm32__i2c__master_transmit__2+0x394>)
 8003f02:	f005 f8af 	bl	8009064 <__gnat_rcheck_CE_Range_Check>
 8003f06:	693a      	ldr	r2, [r7, #16]
 8003f08:	4613      	mov	r3, r2
 8003f0a:	ea4f 74e3 	mov.w	r4, r3, asr #31
 8003f0e:	499c      	ldr	r1, [pc, #624]	; (8004180 <stm32__i2c__master_transmit__2+0x3a0>)
 8003f10:	f04f 0200 	mov.w	r2, #0
 8003f14:	eb11 0a03 	adds.w	sl, r1, r3
 8003f18:	eb42 0b04 	adc.w	fp, r2, r4
 8003f1c:	4650      	mov	r0, sl
 8003f1e:	4659      	mov	r1, fp
 8003f20:	68ba      	ldr	r2, [r7, #8]
 8003f22:	4613      	mov	r3, r2
 8003f24:	ea4f 74e3 	mov.w	r4, r3, asr #31
 8003f28:	4298      	cmp	r0, r3
 8003f2a:	eb71 0304 	sbcs.w	r3, r1, r4
 8003f2e:	da04      	bge.n	8003f3a <stm32__i2c__master_transmit__2+0x15a>
 8003f30:	f44f 71eb 	mov.w	r1, #470	; 0x1d6
 8003f34:	488f      	ldr	r0, [pc, #572]	; (8004174 <stm32__i2c__master_transmit__2+0x394>)
 8003f36:	f005 f895 	bl	8009064 <__gnat_rcheck_CE_Range_Check>
 8003f3a:	4642      	mov	r2, r8
 8003f3c:	683b      	ldr	r3, [r7, #0]
 8003f3e:	2100      	movs	r1, #0
 8003f40:	18d3      	adds	r3, r2, r3
 8003f42:	d700      	bvc.n	8003f46 <stm32__i2c__master_transmit__2+0x166>
 8003f44:	2101      	movs	r1, #1
 8003f46:	461a      	mov	r2, r3
 8003f48:	460b      	mov	r3, r1
 8003f4a:	2b00      	cmp	r3, #0
 8003f4c:	d004      	beq.n	8003f58 <stm32__i2c__master_transmit__2+0x178>
 8003f4e:	f44f 71eb 	mov.w	r1, #470	; 0x1d6
 8003f52:	4888      	ldr	r0, [pc, #544]	; (8004174 <stm32__i2c__master_transmit__2+0x394>)
 8003f54:	f005 f87e 	bl	8009054 <__gnat_rcheck_CE_Overflow_Check>
 8003f58:	4613      	mov	r3, r2
 8003f5a:	637b      	str	r3, [r7, #52]	; 0x34
 8003f5c:	6afb      	ldr	r3, [r7, #44]	; 0x2c
 8003f5e:	685b      	ldr	r3, [r3, #4]
 8003f60:	3318      	adds	r3, #24
 8003f62:	681b      	ldr	r3, [r3, #0]
 8003f64:	f3c3 2307 	ubfx	r3, r3, #8, #8
 8003f68:	b2db      	uxtb	r3, r3
 8003f6a:	f023 037f 	bic.w	r3, r3, #127	; 0x7f
 8003f6e:	b2db      	uxtb	r3, r3
 8003f70:	2b00      	cmp	r3, #0
 8003f72:	d003      	beq.n	8003f7c <stm32__i2c__master_transmit__2+0x19c>
 8003f74:	2303      	movs	r3, #3
 8003f76:	f887 3033 	strb.w	r3, [r7, #51]	; 0x33
 8003f7a:	e193      	b.n	80042a4 <stm32__i2c__master_transmit__2+0x4c4>
 8003f7c:	697b      	ldr	r3, [r7, #20]
 8003f7e:	68fa      	ldr	r2, [r7, #12]
 8003f80:	4293      	cmp	r3, r2
 8003f82:	bfcc      	ite	gt
 8003f84:	2301      	movgt	r3, #1
 8003f86:	2300      	movle	r3, #0
 8003f88:	b2da      	uxtb	r2, r3
 8003f8a:	693b      	ldr	r3, [r7, #16]
 8003f8c:	68b9      	ldr	r1, [r7, #8]
 8003f8e:	428b      	cmp	r3, r1
 8003f90:	bfcc      	ite	gt
 8003f92:	2301      	movgt	r3, #1
 8003f94:	2300      	movle	r3, #0
 8003f96:	b2db      	uxtb	r3, r3
 8003f98:	4313      	orrs	r3, r2
 8003f9a:	b2db      	uxtb	r3, r3
 8003f9c:	2b00      	cmp	r3, #0
 8003f9e:	d003      	beq.n	8003fa8 <stm32__i2c__master_transmit__2+0x1c8>
 8003fa0:	2301      	movs	r3, #1
 8003fa2:	f887 3033 	strb.w	r3, [r7, #51]	; 0x33
 8003fa6:	e17d      	b.n	80042a4 <stm32__i2c__master_transmit__2+0x4c4>
 8003fa8:	6afb      	ldr	r3, [r7, #44]	; 0x2c
 8003faa:	7d1b      	ldrb	r3, [r3, #20]
 8003fac:	2b01      	cmp	r3, #1
 8003fae:	d003      	beq.n	8003fb8 <stm32__i2c__master_transmit__2+0x1d8>
 8003fb0:	2303      	movs	r3, #3
 8003fb2:	f887 3033 	strb.w	r3, [r7, #51]	; 0x33
 8003fb6:	e175      	b.n	80042a4 <stm32__i2c__master_transmit__2+0x4c4>
 8003fb8:	6afb      	ldr	r3, [r7, #44]	; 0x2c
 8003fba:	2202      	movs	r2, #2
 8003fbc:	751a      	strb	r2, [r3, #20]
 8003fbe:	6b7b      	ldr	r3, [r7, #52]	; 0x34
 8003fc0:	2bff      	cmp	r3, #255	; 0xff
 8003fc2:	dd0a      	ble.n	8003fda <stm32__i2c__master_transmit__2+0x1fa>
 8003fc4:	8d79      	ldrh	r1, [r7, #42]	; 0x2a
 8003fc6:	2303      	movs	r3, #3
 8003fc8:	9300      	str	r3, [sp, #0]
 8003fca:	2300      	movs	r3, #0
 8003fcc:	22ff      	movs	r2, #255	; 0xff
 8003fce:	6af8      	ldr	r0, [r7, #44]	; 0x2c
 8003fd0:	f7ff face 	bl	8003570 <stm32__i2c__config_transfer>
 8003fd4:	23ff      	movs	r3, #255	; 0xff
 8003fd6:	647b      	str	r3, [r7, #68]	; 0x44
 8003fd8:	e012      	b.n	8004000 <stm32__i2c__master_transmit__2+0x220>
 8003fda:	6b7b      	ldr	r3, [r7, #52]	; 0x34
 8003fdc:	2bff      	cmp	r3, #255	; 0xff
 8003fde:	dd04      	ble.n	8003fea <stm32__i2c__master_transmit__2+0x20a>
 8003fe0:	f240 11f1 	movw	r1, #497	; 0x1f1
 8003fe4:	4863      	ldr	r0, [pc, #396]	; (8004174 <stm32__i2c__master_transmit__2+0x394>)
 8003fe6:	f005 f83d 	bl	8009064 <__gnat_rcheck_CE_Range_Check>
 8003fea:	6b7b      	ldr	r3, [r7, #52]	; 0x34
 8003fec:	b2da      	uxtb	r2, r3
 8003fee:	8d79      	ldrh	r1, [r7, #42]	; 0x2a
 8003ff0:	2303      	movs	r3, #3
 8003ff2:	9300      	str	r3, [sp, #0]
 8003ff4:	2301      	movs	r3, #1
 8003ff6:	6af8      	ldr	r0, [r7, #44]	; 0x2c
 8003ff8:	f7ff faba 	bl	8003570 <stm32__i2c__config_transfer>
 8003ffc:	6b7b      	ldr	r3, [r7, #52]	; 0x34
 8003ffe:	647b      	str	r3, [r7, #68]	; 0x44
 8004000:	6c3a      	ldr	r2, [r7, #64]	; 0x40
 8004002:	6b7b      	ldr	r3, [r7, #52]	; 0x34
 8004004:	429a      	cmp	r2, r3
 8004006:	f280 8133 	bge.w	8004270 <stm32__i2c__master_transmit__2+0x490>
 800400a:	6fb9      	ldr	r1, [r7, #120]	; 0x78
 800400c:	6af8      	ldr	r0, [r7, #44]	; 0x2c
 800400e:	f7ff fbe1 	bl	80037d4 <stm32__i2c__wait_tx_interrupt_status>
 8004012:	4603      	mov	r3, r0
 8004014:	f887 3033 	strb.w	r3, [r7, #51]	; 0x33
 8004018:	f897 3033 	ldrb.w	r3, [r7, #51]	; 0x33
 800401c:	2b00      	cmp	r3, #0
 800401e:	f040 813c 	bne.w	800429a <stm32__i2c__master_transmit__2+0x4ba>
 8004022:	697a      	ldr	r2, [r7, #20]
 8004024:	4613      	mov	r3, r2
 8004026:	ea4f 74e3 	mov.w	r4, r3, asr #31
 800402a:	4955      	ldr	r1, [pc, #340]	; (8004180 <stm32__i2c__master_transmit__2+0x3a0>)
 800402c:	f04f 0200 	mov.w	r2, #0
 8004030:	eb11 0a03 	adds.w	sl, r1, r3
 8004034:	eb42 0b04 	adc.w	fp, r2, r4
 8004038:	68fa      	ldr	r2, [r7, #12]
 800403a:	4613      	mov	r3, r2
 800403c:	ea4f 74e3 	mov.w	r4, r3, asr #31
 8004040:	459a      	cmp	sl, r3
 8004042:	eb7b 0304 	sbcs.w	r3, fp, r4
 8004046:	da04      	bge.n	8004052 <stm32__i2c__master_transmit__2+0x272>
 8004048:	f240 11fd 	movw	r1, #509	; 0x1fd
 800404c:	4849      	ldr	r0, [pc, #292]	; (8004174 <stm32__i2c__master_transmit__2+0x394>)
 800404e:	f005 f809 	bl	8009064 <__gnat_rcheck_CE_Range_Check>
 8004052:	4642      	mov	r2, r8
 8004054:	6c3b      	ldr	r3, [r7, #64]	; 0x40
 8004056:	4293      	cmp	r3, r2
 8004058:	da20      	bge.n	800409c <stm32__i2c__master_transmit__2+0x2bc>
 800405a:	2200      	movs	r2, #0
 800405c:	6c3b      	ldr	r3, [r7, #64]	; 0x40
 800405e:	6979      	ldr	r1, [r7, #20]
 8004060:	18cb      	adds	r3, r1, r3
 8004062:	d700      	bvc.n	8004066 <stm32__i2c__master_transmit__2+0x286>
 8004064:	2201      	movs	r2, #1
 8004066:	4619      	mov	r1, r3
 8004068:	4613      	mov	r3, r2
 800406a:	2b00      	cmp	r3, #0
 800406c:	d004      	beq.n	8004078 <stm32__i2c__master_transmit__2+0x298>
 800406e:	f44f 71ff 	mov.w	r1, #510	; 0x1fe
 8004072:	4840      	ldr	r0, [pc, #256]	; (8004174 <stm32__i2c__master_transmit__2+0x394>)
 8004074:	f004 ffee 	bl	8009054 <__gnat_rcheck_CE_Overflow_Check>
 8004078:	460b      	mov	r3, r1
 800407a:	697a      	ldr	r2, [r7, #20]
 800407c:	429a      	cmp	r2, r3
 800407e:	dc02      	bgt.n	8004086 <stm32__i2c__master_transmit__2+0x2a6>
 8004080:	68fa      	ldr	r2, [r7, #12]
 8004082:	429a      	cmp	r2, r3
 8004084:	da04      	bge.n	8004090 <stm32__i2c__master_transmit__2+0x2b0>
 8004086:	f44f 71ff 	mov.w	r1, #510	; 0x1fe
 800408a:	483a      	ldr	r0, [pc, #232]	; (8004174 <stm32__i2c__master_transmit__2+0x394>)
 800408c:	f004 ffd2 	bl	8009034 <__gnat_rcheck_CE_Index_Check>
 8004090:	6a3a      	ldr	r2, [r7, #32]
 8004092:	1b9b      	subs	r3, r3, r6
 8004094:	5cd3      	ldrb	r3, [r2, r3]
 8004096:	f887 303b 	strb.w	r3, [r7, #59]	; 0x3b
 800409a:	e046      	b.n	800412a <stm32__i2c__master_transmit__2+0x34a>
 800409c:	697a      	ldr	r2, [r7, #20]
 800409e:	4613      	mov	r3, r2
 80040a0:	ea4f 74e3 	mov.w	r4, r3, asr #31
 80040a4:	4936      	ldr	r1, [pc, #216]	; (8004180 <stm32__i2c__master_transmit__2+0x3a0>)
 80040a6:	f04f 0200 	mov.w	r2, #0
 80040aa:	eb11 0a03 	adds.w	sl, r1, r3
 80040ae:	eb42 0b04 	adc.w	fp, r2, r4
 80040b2:	68fa      	ldr	r2, [r7, #12]
 80040b4:	4613      	mov	r3, r2
 80040b6:	ea4f 74e3 	mov.w	r4, r3, asr #31
 80040ba:	459a      	cmp	sl, r3
 80040bc:	eb7b 0304 	sbcs.w	r3, fp, r4
 80040c0:	da04      	bge.n	80040cc <stm32__i2c__master_transmit__2+0x2ec>
 80040c2:	f44f 7100 	mov.w	r1, #512	; 0x200
 80040c6:	482b      	ldr	r0, [pc, #172]	; (8004174 <stm32__i2c__master_transmit__2+0x394>)
 80040c8:	f004 ffcc 	bl	8009064 <__gnat_rcheck_CE_Range_Check>
 80040cc:	4641      	mov	r1, r8
 80040ce:	2200      	movs	r2, #0
 80040d0:	6c3b      	ldr	r3, [r7, #64]	; 0x40
 80040d2:	1a5b      	subs	r3, r3, r1
 80040d4:	d700      	bvc.n	80040d8 <stm32__i2c__master_transmit__2+0x2f8>
 80040d6:	2201      	movs	r2, #1
 80040d8:	4619      	mov	r1, r3
 80040da:	4613      	mov	r3, r2
 80040dc:	2b00      	cmp	r3, #0
 80040de:	d004      	beq.n	80040ea <stm32__i2c__master_transmit__2+0x30a>
 80040e0:	f44f 7100 	mov.w	r1, #512	; 0x200
 80040e4:	4823      	ldr	r0, [pc, #140]	; (8004174 <stm32__i2c__master_transmit__2+0x394>)
 80040e6:	f004 ffb5 	bl	8009054 <__gnat_rcheck_CE_Overflow_Check>
 80040ea:	460b      	mov	r3, r1
 80040ec:	2200      	movs	r2, #0
 80040ee:	6939      	ldr	r1, [r7, #16]
 80040f0:	18cb      	adds	r3, r1, r3
 80040f2:	d700      	bvc.n	80040f6 <stm32__i2c__master_transmit__2+0x316>
 80040f4:	2201      	movs	r2, #1
 80040f6:	4619      	mov	r1, r3
 80040f8:	4613      	mov	r3, r2
 80040fa:	2b00      	cmp	r3, #0
 80040fc:	d004      	beq.n	8004108 <stm32__i2c__master_transmit__2+0x328>
 80040fe:	f44f 7100 	mov.w	r1, #512	; 0x200
 8004102:	481c      	ldr	r0, [pc, #112]	; (8004174 <stm32__i2c__master_transmit__2+0x394>)
 8004104:	f004 ffa6 	bl	8009054 <__gnat_rcheck_CE_Overflow_Check>
 8004108:	460b      	mov	r3, r1
 800410a:	693a      	ldr	r2, [r7, #16]
 800410c:	429a      	cmp	r2, r3
 800410e:	dc02      	bgt.n	8004116 <stm32__i2c__master_transmit__2+0x336>
 8004110:	68ba      	ldr	r2, [r7, #8]
 8004112:	429a      	cmp	r2, r3
 8004114:	da04      	bge.n	8004120 <stm32__i2c__master_transmit__2+0x340>
 8004116:	f44f 7100 	mov.w	r1, #512	; 0x200
 800411a:	4816      	ldr	r0, [pc, #88]	; (8004174 <stm32__i2c__master_transmit__2+0x394>)
 800411c:	f004 ff8a 	bl	8009034 <__gnat_rcheck_CE_Index_Check>
 8004120:	69ba      	ldr	r2, [r7, #24]
 8004122:	1b5b      	subs	r3, r3, r5
 8004124:	5cd3      	ldrb	r3, [r2, r3]
 8004126:	f887 303b 	strb.w	r3, [r7, #59]	; 0x3b
 800412a:	6afb      	ldr	r3, [r7, #44]	; 0x2c
 800412c:	685b      	ldr	r3, [r3, #4]
 800412e:	3328      	adds	r3, #40	; 0x28
 8004130:	681b      	ldr	r3, [r3, #0]
 8004132:	f897 203b 	ldrb.w	r2, [r7, #59]	; 0x3b
 8004136:	f362 0307 	bfi	r3, r2, #0, #8
 800413a:	6afa      	ldr	r2, [r7, #44]	; 0x2c
 800413c:	6852      	ldr	r2, [r2, #4]
 800413e:	3228      	adds	r2, #40	; 0x28
 8004140:	6013      	str	r3, [r2, #0]
 8004142:	6c3b      	ldr	r3, [r7, #64]	; 0x40
 8004144:	f06f 4200 	mvn.w	r2, #2147483648	; 0x80000000
 8004148:	4293      	cmp	r3, r2
 800414a:	d104      	bne.n	8004156 <stm32__i2c__master_transmit__2+0x376>
 800414c:	f44f 7101 	mov.w	r1, #516	; 0x204
 8004150:	4808      	ldr	r0, [pc, #32]	; (8004174 <stm32__i2c__master_transmit__2+0x394>)
 8004152:	f004 ff7f 	bl	8009054 <__gnat_rcheck_CE_Overflow_Check>
 8004156:	6c3b      	ldr	r3, [r7, #64]	; 0x40
 8004158:	3301      	adds	r3, #1
 800415a:	643b      	str	r3, [r7, #64]	; 0x40
 800415c:	6bfb      	ldr	r3, [r7, #60]	; 0x3c
 800415e:	f06f 4200 	mvn.w	r2, #2147483648	; 0x80000000
 8004162:	4293      	cmp	r3, r2
 8004164:	d10e      	bne.n	8004184 <stm32__i2c__master_transmit__2+0x3a4>
 8004166:	f240 2105 	movw	r1, #517	; 0x205
 800416a:	4802      	ldr	r0, [pc, #8]	; (8004174 <stm32__i2c__master_transmit__2+0x394>)
 800416c:	f004 ff72 	bl	8009054 <__gnat_rcheck_CE_Overflow_Check>
 8004170:	20000039 	.word	0x20000039
 8004174:	0800d5e8 	.word	0x0800d5e8
 8004178:	0800d658 	.word	0x0800d658
 800417c:	0800d624 	.word	0x0800d624
 8004180:	7ffffffe 	.word	0x7ffffffe
 8004184:	6bfb      	ldr	r3, [r7, #60]	; 0x3c
 8004186:	3301      	adds	r3, #1
 8004188:	63fb      	str	r3, [r7, #60]	; 0x3c
 800418a:	6bfa      	ldr	r2, [r7, #60]	; 0x3c
 800418c:	6c7b      	ldr	r3, [r7, #68]	; 0x44
 800418e:	429a      	cmp	r2, r3
 8004190:	f47f af36 	bne.w	8004000 <stm32__i2c__master_transmit__2+0x220>
 8004194:	6c3a      	ldr	r2, [r7, #64]	; 0x40
 8004196:	6b7b      	ldr	r3, [r7, #52]	; 0x34
 8004198:	429a      	cmp	r2, r3
 800419a:	f6bf af31 	bge.w	8004000 <stm32__i2c__master_transmit__2+0x220>
 800419e:	6fb9      	ldr	r1, [r7, #120]	; 0x78
 80041a0:	6af8      	ldr	r0, [r7, #44]	; 0x2c
 80041a2:	f7ff fb69 	bl	8003878 <stm32__i2c__wait_transfer_complete_reset_flag>
 80041a6:	4603      	mov	r3, r0
 80041a8:	f887 3033 	strb.w	r3, [r7, #51]	; 0x33
 80041ac:	f897 3033 	ldrb.w	r3, [r7, #51]	; 0x33
 80041b0:	2b00      	cmp	r3, #0
 80041b2:	d174      	bne.n	800429e <stm32__i2c__master_transmit__2+0x4be>
 80041b4:	2300      	movs	r3, #0
 80041b6:	63fb      	str	r3, [r7, #60]	; 0x3c
 80041b8:	2100      	movs	r1, #0
 80041ba:	6b7a      	ldr	r2, [r7, #52]	; 0x34
 80041bc:	6c3b      	ldr	r3, [r7, #64]	; 0x40
 80041be:	1ad3      	subs	r3, r2, r3
 80041c0:	d700      	bvc.n	80041c4 <stm32__i2c__master_transmit__2+0x3e4>
 80041c2:	2101      	movs	r1, #1
 80041c4:	461a      	mov	r2, r3
 80041c6:	460b      	mov	r3, r1
 80041c8:	2b00      	cmp	r3, #0
 80041ca:	d004      	beq.n	80041d6 <stm32__i2c__master_transmit__2+0x3f6>
 80041cc:	f44f 7104 	mov.w	r1, #528	; 0x210
 80041d0:	4838      	ldr	r0, [pc, #224]	; (80042b4 <stm32__i2c__master_transmit__2+0x4d4>)
 80041d2:	f004 ff3f 	bl	8009054 <__gnat_rcheck_CE_Overflow_Check>
 80041d6:	4613      	mov	r3, r2
 80041d8:	2bff      	cmp	r3, #255	; 0xff
 80041da:	bfcc      	ite	gt
 80041dc:	2301      	movgt	r3, #1
 80041de:	2300      	movle	r3, #0
 80041e0:	b2db      	uxtb	r3, r3
 80041e2:	2b00      	cmp	r3, #0
 80041e4:	d00a      	beq.n	80041fc <stm32__i2c__master_transmit__2+0x41c>
 80041e6:	8d79      	ldrh	r1, [r7, #42]	; 0x2a
 80041e8:	2300      	movs	r3, #0
 80041ea:	9300      	str	r3, [sp, #0]
 80041ec:	2300      	movs	r3, #0
 80041ee:	22ff      	movs	r2, #255	; 0xff
 80041f0:	6af8      	ldr	r0, [r7, #44]	; 0x2c
 80041f2:	f7ff f9bd 	bl	8003570 <stm32__i2c__config_transfer>
 80041f6:	23ff      	movs	r3, #255	; 0xff
 80041f8:	647b      	str	r3, [r7, #68]	; 0x44
 80041fa:	e701      	b.n	8004000 <stm32__i2c__master_transmit__2+0x220>
 80041fc:	2100      	movs	r1, #0
 80041fe:	6b7a      	ldr	r2, [r7, #52]	; 0x34
 8004200:	6c3b      	ldr	r3, [r7, #64]	; 0x40
 8004202:	1ad3      	subs	r3, r2, r3
 8004204:	d700      	bvc.n	8004208 <stm32__i2c__master_transmit__2+0x428>
 8004206:	2101      	movs	r1, #1
 8004208:	461a      	mov	r2, r3
 800420a:	460b      	mov	r3, r1
 800420c:	2b00      	cmp	r3, #0
 800420e:	d004      	beq.n	800421a <stm32__i2c__master_transmit__2+0x43a>
 8004210:	f240 2116 	movw	r1, #534	; 0x216
 8004214:	4827      	ldr	r0, [pc, #156]	; (80042b4 <stm32__i2c__master_transmit__2+0x4d4>)
 8004216:	f004 ff1d 	bl	8009054 <__gnat_rcheck_CE_Overflow_Check>
 800421a:	4613      	mov	r3, r2
 800421c:	2b00      	cmp	r3, #0
 800421e:	db01      	blt.n	8004224 <stm32__i2c__master_transmit__2+0x444>
 8004220:	2bff      	cmp	r3, #255	; 0xff
 8004222:	dd04      	ble.n	800422e <stm32__i2c__master_transmit__2+0x44e>
 8004224:	f240 2116 	movw	r1, #534	; 0x216
 8004228:	4822      	ldr	r0, [pc, #136]	; (80042b4 <stm32__i2c__master_transmit__2+0x4d4>)
 800422a:	f004 ff1b 	bl	8009064 <__gnat_rcheck_CE_Range_Check>
 800422e:	b2da      	uxtb	r2, r3
 8004230:	8d79      	ldrh	r1, [r7, #42]	; 0x2a
 8004232:	2300      	movs	r3, #0
 8004234:	9300      	str	r3, [sp, #0]
 8004236:	2301      	movs	r3, #1
 8004238:	6af8      	ldr	r0, [r7, #44]	; 0x2c
 800423a:	f7ff f999 	bl	8003570 <stm32__i2c__config_transfer>
 800423e:	2100      	movs	r1, #0
 8004240:	6b7a      	ldr	r2, [r7, #52]	; 0x34
 8004242:	6c3b      	ldr	r3, [r7, #64]	; 0x40
 8004244:	1ad3      	subs	r3, r2, r3
 8004246:	d700      	bvc.n	800424a <stm32__i2c__master_transmit__2+0x46a>
 8004248:	2101      	movs	r1, #1
 800424a:	461a      	mov	r2, r3
 800424c:	460b      	mov	r3, r1
 800424e:	2b00      	cmp	r3, #0
 8004250:	d004      	beq.n	800425c <stm32__i2c__master_transmit__2+0x47c>
 8004252:	f44f 7106 	mov.w	r1, #536	; 0x218
 8004256:	4817      	ldr	r0, [pc, #92]	; (80042b4 <stm32__i2c__master_transmit__2+0x4d4>)
 8004258:	f004 fefc 	bl	8009054 <__gnat_rcheck_CE_Overflow_Check>
 800425c:	4613      	mov	r3, r2
 800425e:	2b00      	cmp	r3, #0
 8004260:	da04      	bge.n	800426c <stm32__i2c__master_transmit__2+0x48c>
 8004262:	f44f 7106 	mov.w	r1, #536	; 0x218
 8004266:	4813      	ldr	r0, [pc, #76]	; (80042b4 <stm32__i2c__master_transmit__2+0x4d4>)
 8004268:	f004 fefc 	bl	8009064 <__gnat_rcheck_CE_Range_Check>
 800426c:	647b      	str	r3, [r7, #68]	; 0x44
 800426e:	e6c7      	b.n	8004000 <stm32__i2c__master_transmit__2+0x220>
 8004270:	6fb9      	ldr	r1, [r7, #120]	; 0x78
 8004272:	6af8      	ldr	r0, [r7, #44]	; 0x2c
 8004274:	f7ff fb42 	bl	80038fc <stm32__i2c__wait_stop_flag>
 8004278:	4603      	mov	r3, r0
 800427a:	f887 3033 	strb.w	r3, [r7, #51]	; 0x33
 800427e:	f897 3033 	ldrb.w	r3, [r7, #51]	; 0x33
 8004282:	2b00      	cmp	r3, #0
 8004284:	d10d      	bne.n	80042a2 <stm32__i2c__master_transmit__2+0x4c2>
 8004286:	6af8      	ldr	r0, [r7, #44]	; 0x2c
 8004288:	f7ff f9ea 	bl	8003660 <stm32__i2c__reset_config>
 800428c:	6afb      	ldr	r3, [r7, #44]	; 0x2c
 800428e:	2201      	movs	r2, #1
 8004290:	751a      	strb	r2, [r3, #20]
 8004292:	2300      	movs	r3, #0
 8004294:	f887 3033 	strb.w	r3, [r7, #51]	; 0x33
 8004298:	e004      	b.n	80042a4 <stm32__i2c__master_transmit__2+0x4c4>
 800429a:	bf00      	nop
 800429c:	e002      	b.n	80042a4 <stm32__i2c__master_transmit__2+0x4c4>
 800429e:	bf00      	nop
 80042a0:	e000      	b.n	80042a4 <stm32__i2c__master_transmit__2+0x4c4>
 80042a2:	bf00      	nop
 80042a4:	f897 3033 	ldrb.w	r3, [r7, #51]	; 0x33
 80042a8:	bf00      	nop
 80042aa:	4618      	mov	r0, r3
 80042ac:	374c      	adds	r7, #76	; 0x4c
 80042ae:	46bd      	mov	sp, r7
 80042b0:	e8bd 8ff0 	ldmia.w	sp!, {r4, r5, r6, r7, r8, r9, sl, fp, pc}
 80042b4:	0800d5e8 	.word	0x0800d5e8

080042b8 <stm32__i2c__master_receive>:
 80042b8:	e92d 48b0 	stmdb	sp!, {r4, r5, r7, fp, lr}
 80042bc:	b08b      	sub	sp, #44	; 0x2c
 80042be:	af02      	add	r7, sp, #8
 80042c0:	60f8      	str	r0, [r7, #12]
 80042c2:	e9c7 2300 	strd	r2, r3, [r7]
 80042c6:	460b      	mov	r3, r1
 80042c8:	817b      	strh	r3, [r7, #10]
 80042ca:	4baa      	ldr	r3, [pc, #680]	; (8004574 <stm32__i2c__master_receive+0x2bc>)
 80042cc:	781b      	ldrb	r3, [r3, #0]
 80042ce:	f083 0301 	eor.w	r3, r3, #1
 80042d2:	b2db      	uxtb	r3, r3
 80042d4:	2b00      	cmp	r3, #0
 80042d6:	d004      	beq.n	80042e2 <stm32__i2c__master_receive+0x2a>
 80042d8:	f240 212d 	movw	r1, #557	; 0x22d
 80042dc:	48a6      	ldr	r0, [pc, #664]	; (8004578 <stm32__i2c__master_receive+0x2c0>)
 80042de:	f004 fec9 	bl	8009074 <__gnat_rcheck_PE_Access_Before_Elaboration>
 80042e2:	68f8      	ldr	r0, [r7, #12]
 80042e4:	f7ff f924 	bl	8003530 <stm32__i2c__is_configured>
 80042e8:	4603      	mov	r3, r0
 80042ea:	f083 0301 	eor.w	r3, r3, #1
 80042ee:	b2db      	uxtb	r3, r3
 80042f0:	2b00      	cmp	r3, #0
 80042f2:	d005      	beq.n	8004300 <stm32__i2c__master_receive+0x48>
 80042f4:	4ca1      	ldr	r4, [pc, #644]	; (800457c <stm32__i2c__master_receive+0x2c4>)
 80042f6:	4da2      	ldr	r5, [pc, #648]	; (8004580 <stm32__i2c__master_receive+0x2c8>)
 80042f8:	4620      	mov	r0, r4
 80042fa:	4629      	mov	r1, r5
 80042fc:	f005 fbc6 	bl	8009a8c <system__assertions__raise_assert_failure>
 8004300:	687b      	ldr	r3, [r7, #4]
 8004302:	681b      	ldr	r3, [r3, #0]
 8004304:	461d      	mov	r5, r3
 8004306:	2300      	movs	r3, #0
 8004308:	61bb      	str	r3, [r7, #24]
 800430a:	2300      	movs	r3, #0
 800430c:	61fb      	str	r3, [r7, #28]
 800430e:	68fb      	ldr	r3, [r7, #12]
 8004310:	685b      	ldr	r3, [r3, #4]
 8004312:	3318      	adds	r3, #24
 8004314:	681b      	ldr	r3, [r3, #0]
 8004316:	f3c3 2307 	ubfx	r3, r3, #8, #8
 800431a:	b2db      	uxtb	r3, r3
 800431c:	f023 037f 	bic.w	r3, r3, #127	; 0x7f
 8004320:	b2db      	uxtb	r3, r3
 8004322:	2b00      	cmp	r3, #0
 8004324:	d002      	beq.n	800432c <stm32__i2c__master_receive+0x74>
 8004326:	2303      	movs	r3, #3
 8004328:	75fb      	strb	r3, [r7, #23]
 800432a:	e222      	b.n	8004772 <stm32__i2c__master_receive+0x4ba>
 800432c:	68fb      	ldr	r3, [r7, #12]
 800432e:	7d1b      	ldrb	r3, [r3, #20]
 8004330:	2b01      	cmp	r3, #1
 8004332:	d002      	beq.n	800433a <stm32__i2c__master_receive+0x82>
 8004334:	2303      	movs	r3, #3
 8004336:	75fb      	strb	r3, [r7, #23]
 8004338:	e21b      	b.n	8004772 <stm32__i2c__master_receive+0x4ba>
 800433a:	68fb      	ldr	r3, [r7, #12]
 800433c:	2203      	movs	r2, #3
 800433e:	751a      	strb	r2, [r3, #20]
 8004340:	687b      	ldr	r3, [r7, #4]
 8004342:	681a      	ldr	r2, [r3, #0]
 8004344:	687b      	ldr	r3, [r7, #4]
 8004346:	685b      	ldr	r3, [r3, #4]
 8004348:	429a      	cmp	r2, r3
 800434a:	dd02      	ble.n	8004352 <stm32__i2c__master_receive+0x9a>
 800434c:	2301      	movs	r3, #1
 800434e:	75fb      	strb	r3, [r7, #23]
 8004350:	e20f      	b.n	8004772 <stm32__i2c__master_receive+0x4ba>
 8004352:	687b      	ldr	r3, [r7, #4]
 8004354:	681b      	ldr	r3, [r3, #0]
 8004356:	ea4f 74e3 	mov.w	r4, r3, asr #31
 800435a:	f113 01fe 	adds.w	r1, r3, #254	; 0xfe
 800435e:	f144 0200 	adc.w	r2, r4, #0
 8004362:	687b      	ldr	r3, [r7, #4]
 8004364:	685b      	ldr	r3, [r3, #4]
 8004366:	ea4f 74e3 	mov.w	r4, r3, asr #31
 800436a:	4299      	cmp	r1, r3
 800436c:	eb72 0304 	sbcs.w	r3, r2, r4
 8004370:	da0a      	bge.n	8004388 <stm32__i2c__master_receive+0xd0>
 8004372:	8979      	ldrh	r1, [r7, #10]
 8004374:	2302      	movs	r3, #2
 8004376:	9300      	str	r3, [sp, #0]
 8004378:	2300      	movs	r3, #0
 800437a:	22ff      	movs	r2, #255	; 0xff
 800437c:	68f8      	ldr	r0, [r7, #12]
 800437e:	f7ff f8f7 	bl	8003570 <stm32__i2c__config_transfer>
 8004382:	23ff      	movs	r3, #255	; 0xff
 8004384:	61bb      	str	r3, [r7, #24]
 8004386:	e055      	b.n	8004434 <stm32__i2c__master_receive+0x17c>
 8004388:	687b      	ldr	r3, [r7, #4]
 800438a:	681b      	ldr	r3, [r3, #0]
 800438c:	ea4f 74e3 	mov.w	r4, r3, asr #31
 8004390:	f113 01fe 	adds.w	r1, r3, #254	; 0xfe
 8004394:	f144 0200 	adc.w	r2, r4, #0
 8004398:	687b      	ldr	r3, [r7, #4]
 800439a:	685b      	ldr	r3, [r3, #4]
 800439c:	ea4f 74e3 	mov.w	r4, r3, asr #31
 80043a0:	4299      	cmp	r1, r3
 80043a2:	eb72 0304 	sbcs.w	r3, r2, r4
 80043a6:	da04      	bge.n	80043b2 <stm32__i2c__master_receive+0xfa>
 80043a8:	f240 214f 	movw	r1, #591	; 0x24f
 80043ac:	4872      	ldr	r0, [pc, #456]	; (8004578 <stm32__i2c__master_receive+0x2c0>)
 80043ae:	f004 fe59 	bl	8009064 <__gnat_rcheck_CE_Range_Check>
 80043b2:	687b      	ldr	r3, [r7, #4]
 80043b4:	685a      	ldr	r2, [r3, #4]
 80043b6:	687b      	ldr	r3, [r7, #4]
 80043b8:	681b      	ldr	r3, [r3, #0]
 80043ba:	429a      	cmp	r2, r3
 80043bc:	db0a      	blt.n	80043d4 <stm32__i2c__master_receive+0x11c>
 80043be:	687b      	ldr	r3, [r7, #4]
 80043c0:	685b      	ldr	r3, [r3, #4]
 80043c2:	b2da      	uxtb	r2, r3
 80043c4:	687b      	ldr	r3, [r7, #4]
 80043c6:	681b      	ldr	r3, [r3, #0]
 80043c8:	b2db      	uxtb	r3, r3
 80043ca:	1ad3      	subs	r3, r2, r3
 80043cc:	b2db      	uxtb	r3, r3
 80043ce:	3301      	adds	r3, #1
 80043d0:	b2da      	uxtb	r2, r3
 80043d2:	e000      	b.n	80043d6 <stm32__i2c__master_receive+0x11e>
 80043d4:	2200      	movs	r2, #0
 80043d6:	8979      	ldrh	r1, [r7, #10]
 80043d8:	2302      	movs	r3, #2
 80043da:	9300      	str	r3, [sp, #0]
 80043dc:	2301      	movs	r3, #1
 80043de:	68f8      	ldr	r0, [r7, #12]
 80043e0:	f7ff f8c6 	bl	8003570 <stm32__i2c__config_transfer>
 80043e4:	687b      	ldr	r3, [r7, #4]
 80043e6:	681b      	ldr	r3, [r3, #0]
 80043e8:	ea4f 74e3 	mov.w	r4, r3, asr #31
 80043ec:	4965      	ldr	r1, [pc, #404]	; (8004584 <stm32__i2c__master_receive+0x2cc>)
 80043ee:	f04f 0200 	mov.w	r2, #0
 80043f2:	eb11 0b03 	adds.w	fp, r1, r3
 80043f6:	eb42 0c04 	adc.w	ip, r2, r4
 80043fa:	687b      	ldr	r3, [r7, #4]
 80043fc:	685b      	ldr	r3, [r3, #4]
 80043fe:	ea4f 74e3 	mov.w	r4, r3, asr #31
 8004402:	459b      	cmp	fp, r3
 8004404:	eb7c 0304 	sbcs.w	r3, ip, r4
 8004408:	da04      	bge.n	8004414 <stm32__i2c__master_receive+0x15c>
 800440a:	f44f 7114 	mov.w	r1, #592	; 0x250
 800440e:	485a      	ldr	r0, [pc, #360]	; (8004578 <stm32__i2c__master_receive+0x2c0>)
 8004410:	f004 fe28 	bl	8009064 <__gnat_rcheck_CE_Range_Check>
 8004414:	687b      	ldr	r3, [r7, #4]
 8004416:	685a      	ldr	r2, [r3, #4]
 8004418:	687b      	ldr	r3, [r7, #4]
 800441a:	681b      	ldr	r3, [r3, #0]
 800441c:	429a      	cmp	r2, r3
 800441e:	db07      	blt.n	8004430 <stm32__i2c__master_receive+0x178>
 8004420:	687b      	ldr	r3, [r7, #4]
 8004422:	685b      	ldr	r3, [r3, #4]
 8004424:	461a      	mov	r2, r3
 8004426:	687b      	ldr	r3, [r7, #4]
 8004428:	681b      	ldr	r3, [r3, #0]
 800442a:	1ad3      	subs	r3, r2, r3
 800442c:	3301      	adds	r3, #1
 800442e:	e000      	b.n	8004432 <stm32__i2c__master_receive+0x17a>
 8004430:	2300      	movs	r3, #0
 8004432:	61bb      	str	r3, [r7, #24]
 8004434:	687b      	ldr	r3, [r7, #4]
 8004436:	681b      	ldr	r3, [r3, #0]
 8004438:	ea4f 74e3 	mov.w	r4, r3, asr #31
 800443c:	4951      	ldr	r1, [pc, #324]	; (8004584 <stm32__i2c__master_receive+0x2cc>)
 800443e:	f04f 0200 	mov.w	r2, #0
 8004442:	eb11 0b03 	adds.w	fp, r1, r3
 8004446:	eb42 0c04 	adc.w	ip, r2, r4
 800444a:	687b      	ldr	r3, [r7, #4]
 800444c:	685b      	ldr	r3, [r3, #4]
 800444e:	ea4f 74e3 	mov.w	r4, r3, asr #31
 8004452:	459b      	cmp	fp, r3
 8004454:	eb7c 0304 	sbcs.w	r3, ip, r4
 8004458:	da04      	bge.n	8004464 <stm32__i2c__master_receive+0x1ac>
 800445a:	f44f 7115 	mov.w	r1, #596	; 0x254
 800445e:	4846      	ldr	r0, [pc, #280]	; (8004578 <stm32__i2c__master_receive+0x2c0>)
 8004460:	f004 fe00 	bl	8009064 <__gnat_rcheck_CE_Range_Check>
 8004464:	687b      	ldr	r3, [r7, #4]
 8004466:	685a      	ldr	r2, [r3, #4]
 8004468:	687b      	ldr	r3, [r7, #4]
 800446a:	681b      	ldr	r3, [r3, #0]
 800446c:	429a      	cmp	r2, r3
 800446e:	db08      	blt.n	8004482 <stm32__i2c__master_receive+0x1ca>
 8004470:	687b      	ldr	r3, [r7, #4]
 8004472:	685b      	ldr	r3, [r3, #4]
 8004474:	461a      	mov	r2, r3
 8004476:	687b      	ldr	r3, [r7, #4]
 8004478:	681b      	ldr	r3, [r3, #0]
 800447a:	1ad3      	subs	r3, r2, r3
 800447c:	3301      	adds	r3, #1
 800447e:	461a      	mov	r2, r3
 8004480:	e000      	b.n	8004484 <stm32__i2c__master_receive+0x1cc>
 8004482:	2200      	movs	r2, #0
 8004484:	69fb      	ldr	r3, [r7, #28]
 8004486:	429a      	cmp	r2, r3
 8004488:	f340 8160 	ble.w	800474c <stm32__i2c__master_receive+0x494>
 800448c:	68fb      	ldr	r3, [r7, #12]
 800448e:	685b      	ldr	r3, [r3, #4]
 8004490:	3318      	adds	r3, #24
 8004492:	681b      	ldr	r3, [r3, #0]
 8004494:	b2db      	uxtb	r3, r3
 8004496:	f003 0304 	and.w	r3, r3, #4
 800449a:	b2db      	uxtb	r3, r3
 800449c:	2b00      	cmp	r3, #0
 800449e:	d101      	bne.n	80044a4 <stm32__i2c__master_receive+0x1ec>
 80044a0:	bf00      	nop
 80044a2:	e7f3      	b.n	800448c <stm32__i2c__master_receive+0x1d4>
 80044a4:	687b      	ldr	r3, [r7, #4]
 80044a6:	681a      	ldr	r2, [r3, #0]
 80044a8:	2100      	movs	r1, #0
 80044aa:	69fb      	ldr	r3, [r7, #28]
 80044ac:	18d3      	adds	r3, r2, r3
 80044ae:	d700      	bvc.n	80044b2 <stm32__i2c__master_receive+0x1fa>
 80044b0:	2101      	movs	r1, #1
 80044b2:	461a      	mov	r2, r3
 80044b4:	460b      	mov	r3, r1
 80044b6:	2b00      	cmp	r3, #0
 80044b8:	d004      	beq.n	80044c4 <stm32__i2c__master_receive+0x20c>
 80044ba:	f240 2159 	movw	r1, #601	; 0x259
 80044be:	482e      	ldr	r0, [pc, #184]	; (8004578 <stm32__i2c__master_receive+0x2c0>)
 80044c0:	f004 fdc8 	bl	8009054 <__gnat_rcheck_CE_Overflow_Check>
 80044c4:	4613      	mov	r3, r2
 80044c6:	687a      	ldr	r2, [r7, #4]
 80044c8:	6812      	ldr	r2, [r2, #0]
 80044ca:	4293      	cmp	r3, r2
 80044cc:	db03      	blt.n	80044d6 <stm32__i2c__master_receive+0x21e>
 80044ce:	687a      	ldr	r2, [r7, #4]
 80044d0:	6852      	ldr	r2, [r2, #4]
 80044d2:	4293      	cmp	r3, r2
 80044d4:	dd04      	ble.n	80044e0 <stm32__i2c__master_receive+0x228>
 80044d6:	f240 2159 	movw	r1, #601	; 0x259
 80044da:	4827      	ldr	r0, [pc, #156]	; (8004578 <stm32__i2c__master_receive+0x2c0>)
 80044dc:	f004 fdaa 	bl	8009034 <__gnat_rcheck_CE_Index_Check>
 80044e0:	68fa      	ldr	r2, [r7, #12]
 80044e2:	6852      	ldr	r2, [r2, #4]
 80044e4:	3224      	adds	r2, #36	; 0x24
 80044e6:	6811      	ldr	r1, [r2, #0]
 80044e8:	683a      	ldr	r2, [r7, #0]
 80044ea:	b2c9      	uxtb	r1, r1
 80044ec:	1b5b      	subs	r3, r3, r5
 80044ee:	54d1      	strb	r1, [r2, r3]
 80044f0:	69fb      	ldr	r3, [r7, #28]
 80044f2:	f06f 4200 	mvn.w	r2, #2147483648	; 0x80000000
 80044f6:	4293      	cmp	r3, r2
 80044f8:	d104      	bne.n	8004504 <stm32__i2c__master_receive+0x24c>
 80044fa:	f240 215a 	movw	r1, #602	; 0x25a
 80044fe:	481e      	ldr	r0, [pc, #120]	; (8004578 <stm32__i2c__master_receive+0x2c0>)
 8004500:	f004 fda8 	bl	8009054 <__gnat_rcheck_CE_Overflow_Check>
 8004504:	69fb      	ldr	r3, [r7, #28]
 8004506:	3301      	adds	r3, #1
 8004508:	61fb      	str	r3, [r7, #28]
 800450a:	69bb      	ldr	r3, [r7, #24]
 800450c:	3b01      	subs	r3, #1
 800450e:	2b00      	cmp	r3, #0
 8004510:	da04      	bge.n	800451c <stm32__i2c__master_receive+0x264>
 8004512:	f240 215b 	movw	r1, #603	; 0x25b
 8004516:	4818      	ldr	r0, [pc, #96]	; (8004578 <stm32__i2c__master_receive+0x2c0>)
 8004518:	f004 fda4 	bl	8009064 <__gnat_rcheck_CE_Range_Check>
 800451c:	61bb      	str	r3, [r7, #24]
 800451e:	69bb      	ldr	r3, [r7, #24]
 8004520:	2b00      	cmp	r3, #0
 8004522:	d187      	bne.n	8004434 <stm32__i2c__master_receive+0x17c>
 8004524:	687b      	ldr	r3, [r7, #4]
 8004526:	681b      	ldr	r3, [r3, #0]
 8004528:	ea4f 74e3 	mov.w	r4, r3, asr #31
 800452c:	4915      	ldr	r1, [pc, #84]	; (8004584 <stm32__i2c__master_receive+0x2cc>)
 800452e:	f04f 0200 	mov.w	r2, #0
 8004532:	eb11 0b03 	adds.w	fp, r1, r3
 8004536:	eb42 0c04 	adc.w	ip, r2, r4
 800453a:	687b      	ldr	r3, [r7, #4]
 800453c:	685b      	ldr	r3, [r3, #4]
 800453e:	ea4f 74e3 	mov.w	r4, r3, asr #31
 8004542:	459b      	cmp	fp, r3
 8004544:	eb7c 0304 	sbcs.w	r3, ip, r4
 8004548:	da04      	bge.n	8004554 <stm32__i2c__master_receive+0x29c>
 800454a:	f240 215e 	movw	r1, #606	; 0x25e
 800454e:	480a      	ldr	r0, [pc, #40]	; (8004578 <stm32__i2c__master_receive+0x2c0>)
 8004550:	f004 fd88 	bl	8009064 <__gnat_rcheck_CE_Range_Check>
 8004554:	687b      	ldr	r3, [r7, #4]
 8004556:	685a      	ldr	r2, [r3, #4]
 8004558:	687b      	ldr	r3, [r7, #4]
 800455a:	681b      	ldr	r3, [r3, #0]
 800455c:	429a      	cmp	r2, r3
 800455e:	db13      	blt.n	8004588 <stm32__i2c__master_receive+0x2d0>
 8004560:	687b      	ldr	r3, [r7, #4]
 8004562:	685b      	ldr	r3, [r3, #4]
 8004564:	461a      	mov	r2, r3
 8004566:	687b      	ldr	r3, [r7, #4]
 8004568:	681b      	ldr	r3, [r3, #0]
 800456a:	1ad3      	subs	r3, r2, r3
 800456c:	3301      	adds	r3, #1
 800456e:	461a      	mov	r2, r3
 8004570:	e00b      	b.n	800458a <stm32__i2c__master_receive+0x2d2>
 8004572:	bf00      	nop
 8004574:	2000003a 	.word	0x2000003a
 8004578:	0800d5e8 	.word	0x0800d5e8
 800457c:	0800d684 	.word	0x0800d684
 8004580:	0800d5e0 	.word	0x0800d5e0
 8004584:	7ffffffe 	.word	0x7ffffffe
 8004588:	2200      	movs	r2, #0
 800458a:	69fb      	ldr	r3, [r7, #28]
 800458c:	429a      	cmp	r2, r3
 800458e:	bfcc      	ite	gt
 8004590:	2301      	movgt	r3, #1
 8004592:	2300      	movle	r3, #0
 8004594:	b2db      	uxtb	r3, r3
 8004596:	2b00      	cmp	r3, #0
 8004598:	f43f af4c 	beq.w	8004434 <stm32__i2c__master_receive+0x17c>
 800459c:	68fb      	ldr	r3, [r7, #12]
 800459e:	685b      	ldr	r3, [r3, #4]
 80045a0:	3318      	adds	r3, #24
 80045a2:	681b      	ldr	r3, [r3, #0]
 80045a4:	b2db      	uxtb	r3, r3
 80045a6:	b25b      	sxtb	r3, r3
 80045a8:	2b00      	cmp	r3, #0
 80045aa:	db01      	blt.n	80045b0 <stm32__i2c__master_receive+0x2f8>
 80045ac:	bf00      	nop
 80045ae:	e7f5      	b.n	800459c <stm32__i2c__master_receive+0x2e4>
 80045b0:	687b      	ldr	r3, [r7, #4]
 80045b2:	681b      	ldr	r3, [r3, #0]
 80045b4:	ea4f 74e3 	mov.w	r4, r3, asr #31
 80045b8:	4971      	ldr	r1, [pc, #452]	; (8004780 <stm32__i2c__master_receive+0x4c8>)
 80045ba:	f04f 0200 	mov.w	r2, #0
 80045be:	eb11 0b03 	adds.w	fp, r1, r3
 80045c2:	eb42 0c04 	adc.w	ip, r2, r4
 80045c6:	687b      	ldr	r3, [r7, #4]
 80045c8:	685b      	ldr	r3, [r3, #4]
 80045ca:	ea4f 74e3 	mov.w	r4, r3, asr #31
 80045ce:	459b      	cmp	fp, r3
 80045d0:	eb7c 0304 	sbcs.w	r3, ip, r4
 80045d4:	da04      	bge.n	80045e0 <stm32__i2c__master_receive+0x328>
 80045d6:	f240 2165 	movw	r1, #613	; 0x265
 80045da:	486a      	ldr	r0, [pc, #424]	; (8004784 <stm32__i2c__master_receive+0x4cc>)
 80045dc:	f004 fd42 	bl	8009064 <__gnat_rcheck_CE_Range_Check>
 80045e0:	687b      	ldr	r3, [r7, #4]
 80045e2:	685a      	ldr	r2, [r3, #4]
 80045e4:	687b      	ldr	r3, [r7, #4]
 80045e6:	681b      	ldr	r3, [r3, #0]
 80045e8:	429a      	cmp	r2, r3
 80045ea:	db07      	blt.n	80045fc <stm32__i2c__master_receive+0x344>
 80045ec:	687b      	ldr	r3, [r7, #4]
 80045ee:	685b      	ldr	r3, [r3, #4]
 80045f0:	461a      	mov	r2, r3
 80045f2:	687b      	ldr	r3, [r7, #4]
 80045f4:	681b      	ldr	r3, [r3, #0]
 80045f6:	1ad3      	subs	r3, r2, r3
 80045f8:	3301      	adds	r3, #1
 80045fa:	e000      	b.n	80045fe <stm32__i2c__master_receive+0x346>
 80045fc:	2300      	movs	r3, #0
 80045fe:	2100      	movs	r1, #0
 8004600:	69fa      	ldr	r2, [r7, #28]
 8004602:	1a9b      	subs	r3, r3, r2
 8004604:	d700      	bvc.n	8004608 <stm32__i2c__master_receive+0x350>
 8004606:	2101      	movs	r1, #1
 8004608:	461a      	mov	r2, r3
 800460a:	460b      	mov	r3, r1
 800460c:	2b00      	cmp	r3, #0
 800460e:	d004      	beq.n	800461a <stm32__i2c__master_receive+0x362>
 8004610:	f240 2165 	movw	r1, #613	; 0x265
 8004614:	485b      	ldr	r0, [pc, #364]	; (8004784 <stm32__i2c__master_receive+0x4cc>)
 8004616:	f004 fd1d 	bl	8009054 <__gnat_rcheck_CE_Overflow_Check>
 800461a:	4613      	mov	r3, r2
 800461c:	2bff      	cmp	r3, #255	; 0xff
 800461e:	bfcc      	ite	gt
 8004620:	2301      	movgt	r3, #1
 8004622:	2300      	movle	r3, #0
 8004624:	b2db      	uxtb	r3, r3
 8004626:	2b00      	cmp	r3, #0
 8004628:	d00a      	beq.n	8004640 <stm32__i2c__master_receive+0x388>
 800462a:	8979      	ldrh	r1, [r7, #10]
 800462c:	2300      	movs	r3, #0
 800462e:	9300      	str	r3, [sp, #0]
 8004630:	2300      	movs	r3, #0
 8004632:	22ff      	movs	r2, #255	; 0xff
 8004634:	68f8      	ldr	r0, [r7, #12]
 8004636:	f7fe ff9b 	bl	8003570 <stm32__i2c__config_transfer>
 800463a:	23ff      	movs	r3, #255	; 0xff
 800463c:	61bb      	str	r3, [r7, #24]
 800463e:	e6f9      	b.n	8004434 <stm32__i2c__master_receive+0x17c>
 8004640:	687b      	ldr	r3, [r7, #4]
 8004642:	681b      	ldr	r3, [r3, #0]
 8004644:	ea4f 74e3 	mov.w	r4, r3, asr #31
 8004648:	494d      	ldr	r1, [pc, #308]	; (8004780 <stm32__i2c__master_receive+0x4c8>)
 800464a:	f04f 0200 	mov.w	r2, #0
 800464e:	eb11 0b03 	adds.w	fp, r1, r3
 8004652:	eb42 0c04 	adc.w	ip, r2, r4
 8004656:	687b      	ldr	r3, [r7, #4]
 8004658:	685b      	ldr	r3, [r3, #4]
 800465a:	ea4f 74e3 	mov.w	r4, r3, asr #31
 800465e:	459b      	cmp	fp, r3
 8004660:	eb7c 0304 	sbcs.w	r3, ip, r4
 8004664:	da04      	bge.n	8004670 <stm32__i2c__master_receive+0x3b8>
 8004666:	f240 216b 	movw	r1, #619	; 0x26b
 800466a:	4846      	ldr	r0, [pc, #280]	; (8004784 <stm32__i2c__master_receive+0x4cc>)
 800466c:	f004 fcfa 	bl	8009064 <__gnat_rcheck_CE_Range_Check>
 8004670:	687b      	ldr	r3, [r7, #4]
 8004672:	685a      	ldr	r2, [r3, #4]
 8004674:	687b      	ldr	r3, [r7, #4]
 8004676:	681b      	ldr	r3, [r3, #0]
 8004678:	429a      	cmp	r2, r3
 800467a:	db07      	blt.n	800468c <stm32__i2c__master_receive+0x3d4>
 800467c:	687b      	ldr	r3, [r7, #4]
 800467e:	685b      	ldr	r3, [r3, #4]
 8004680:	461a      	mov	r2, r3
 8004682:	687b      	ldr	r3, [r7, #4]
 8004684:	681b      	ldr	r3, [r3, #0]
 8004686:	1ad3      	subs	r3, r2, r3
 8004688:	3301      	adds	r3, #1
 800468a:	e000      	b.n	800468e <stm32__i2c__master_receive+0x3d6>
 800468c:	2300      	movs	r3, #0
 800468e:	2100      	movs	r1, #0
 8004690:	69fa      	ldr	r2, [r7, #28]
 8004692:	1a9b      	subs	r3, r3, r2
 8004694:	d700      	bvc.n	8004698 <stm32__i2c__master_receive+0x3e0>
 8004696:	2101      	movs	r1, #1
 8004698:	461a      	mov	r2, r3
 800469a:	460b      	mov	r3, r1
 800469c:	2b00      	cmp	r3, #0
 800469e:	d004      	beq.n	80046aa <stm32__i2c__master_receive+0x3f2>
 80046a0:	f240 216b 	movw	r1, #619	; 0x26b
 80046a4:	4837      	ldr	r0, [pc, #220]	; (8004784 <stm32__i2c__master_receive+0x4cc>)
 80046a6:	f004 fcd5 	bl	8009054 <__gnat_rcheck_CE_Overflow_Check>
 80046aa:	4613      	mov	r3, r2
 80046ac:	2b00      	cmp	r3, #0
 80046ae:	db01      	blt.n	80046b4 <stm32__i2c__master_receive+0x3fc>
 80046b0:	2bff      	cmp	r3, #255	; 0xff
 80046b2:	dd04      	ble.n	80046be <stm32__i2c__master_receive+0x406>
 80046b4:	f240 216b 	movw	r1, #619	; 0x26b
 80046b8:	4832      	ldr	r0, [pc, #200]	; (8004784 <stm32__i2c__master_receive+0x4cc>)
 80046ba:	f004 fcd3 	bl	8009064 <__gnat_rcheck_CE_Range_Check>
 80046be:	b2da      	uxtb	r2, r3
 80046c0:	8979      	ldrh	r1, [r7, #10]
 80046c2:	2300      	movs	r3, #0
 80046c4:	9300      	str	r3, [sp, #0]
 80046c6:	2301      	movs	r3, #1
 80046c8:	68f8      	ldr	r0, [r7, #12]
 80046ca:	f7fe ff51 	bl	8003570 <stm32__i2c__config_transfer>
 80046ce:	687b      	ldr	r3, [r7, #4]
 80046d0:	681b      	ldr	r3, [r3, #0]
 80046d2:	ea4f 74e3 	mov.w	r4, r3, asr #31
 80046d6:	492a      	ldr	r1, [pc, #168]	; (8004780 <stm32__i2c__master_receive+0x4c8>)
 80046d8:	f04f 0200 	mov.w	r2, #0
 80046dc:	eb11 0b03 	adds.w	fp, r1, r3
 80046e0:	eb42 0c04 	adc.w	ip, r2, r4
 80046e4:	687b      	ldr	r3, [r7, #4]
 80046e6:	685b      	ldr	r3, [r3, #4]
 80046e8:	ea4f 74e3 	mov.w	r4, r3, asr #31
 80046ec:	459b      	cmp	fp, r3
 80046ee:	eb7c 0304 	sbcs.w	r3, ip, r4
 80046f2:	da04      	bge.n	80046fe <stm32__i2c__master_receive+0x446>
 80046f4:	f240 216d 	movw	r1, #621	; 0x26d
 80046f8:	4822      	ldr	r0, [pc, #136]	; (8004784 <stm32__i2c__master_receive+0x4cc>)
 80046fa:	f004 fcb3 	bl	8009064 <__gnat_rcheck_CE_Range_Check>
 80046fe:	687b      	ldr	r3, [r7, #4]
 8004700:	685a      	ldr	r2, [r3, #4]
 8004702:	687b      	ldr	r3, [r7, #4]
 8004704:	681b      	ldr	r3, [r3, #0]
 8004706:	429a      	cmp	r2, r3
 8004708:	db07      	blt.n	800471a <stm32__i2c__master_receive+0x462>
 800470a:	687b      	ldr	r3, [r7, #4]
 800470c:	685b      	ldr	r3, [r3, #4]
 800470e:	461a      	mov	r2, r3
 8004710:	687b      	ldr	r3, [r7, #4]
 8004712:	681b      	ldr	r3, [r3, #0]
 8004714:	1ad3      	subs	r3, r2, r3
 8004716:	3301      	adds	r3, #1
 8004718:	e000      	b.n	800471c <stm32__i2c__master_receive+0x464>
 800471a:	2300      	movs	r3, #0
 800471c:	2100      	movs	r1, #0
 800471e:	69fa      	ldr	r2, [r7, #28]
 8004720:	1a9b      	subs	r3, r3, r2
 8004722:	d700      	bvc.n	8004726 <stm32__i2c__master_receive+0x46e>
 8004724:	2101      	movs	r1, #1
 8004726:	461a      	mov	r2, r3
 8004728:	460b      	mov	r3, r1
 800472a:	2b00      	cmp	r3, #0
 800472c:	d004      	beq.n	8004738 <stm32__i2c__master_receive+0x480>
 800472e:	f240 216d 	movw	r1, #621	; 0x26d
 8004732:	4814      	ldr	r0, [pc, #80]	; (8004784 <stm32__i2c__master_receive+0x4cc>)
 8004734:	f004 fc8e 	bl	8009054 <__gnat_rcheck_CE_Overflow_Check>
 8004738:	4613      	mov	r3, r2
 800473a:	2b00      	cmp	r3, #0
 800473c:	da04      	bge.n	8004748 <stm32__i2c__master_receive+0x490>
 800473e:	f240 216d 	movw	r1, #621	; 0x26d
 8004742:	4810      	ldr	r0, [pc, #64]	; (8004784 <stm32__i2c__master_receive+0x4cc>)
 8004744:	f004 fc8e 	bl	8009064 <__gnat_rcheck_CE_Range_Check>
 8004748:	61bb      	str	r3, [r7, #24]
 800474a:	e673      	b.n	8004434 <stm32__i2c__master_receive+0x17c>
 800474c:	6bb9      	ldr	r1, [r7, #56]	; 0x38
 800474e:	68f8      	ldr	r0, [r7, #12]
 8004750:	f7ff f8d4 	bl	80038fc <stm32__i2c__wait_stop_flag>
 8004754:	4603      	mov	r3, r0
 8004756:	75fb      	strb	r3, [r7, #23]
 8004758:	7dfb      	ldrb	r3, [r7, #23]
 800475a:	2b00      	cmp	r3, #0
 800475c:	d108      	bne.n	8004770 <stm32__i2c__master_receive+0x4b8>
 800475e:	68f8      	ldr	r0, [r7, #12]
 8004760:	f7fe ff7e 	bl	8003660 <stm32__i2c__reset_config>
 8004764:	68fb      	ldr	r3, [r7, #12]
 8004766:	2201      	movs	r2, #1
 8004768:	751a      	strb	r2, [r3, #20]
 800476a:	2300      	movs	r3, #0
 800476c:	75fb      	strb	r3, [r7, #23]
 800476e:	e000      	b.n	8004772 <stm32__i2c__master_receive+0x4ba>
 8004770:	bf00      	nop
 8004772:	7dfb      	ldrb	r3, [r7, #23]
 8004774:	bf00      	nop
 8004776:	4618      	mov	r0, r3
 8004778:	3724      	adds	r7, #36	; 0x24
 800477a:	46bd      	mov	sp, r7
 800477c:	e8bd 88b0 	ldmia.w	sp!, {r4, r5, r7, fp, pc}
 8004780:	7ffffffe 	.word	0x7ffffffe
 8004784:	0800d5e8 	.word	0x0800d5e8

08004788 <stm32__i2c__mem_write>:
 8004788:	e92d 4ff0 	stmdb	sp!, {r4, r5, r6, r7, r8, r9, sl, fp, lr}
 800478c:	b091      	sub	sp, #68	; 0x44
 800478e:	af02      	add	r7, sp, #8
 8004790:	61f8      	str	r0, [r7, #28]
 8004792:	4608      	mov	r0, r1
 8004794:	4611      	mov	r1, r2
 8004796:	461a      	mov	r2, r3
 8004798:	4603      	mov	r3, r0
 800479a:	837b      	strh	r3, [r7, #26]
 800479c:	460b      	mov	r3, r1
 800479e:	833b      	strh	r3, [r7, #24]
 80047a0:	4613      	mov	r3, r2
 80047a2:	75fb      	strb	r3, [r7, #23]
 80047a4:	f107 0308 	add.w	r3, r7, #8
 80047a8:	f107 0260 	add.w	r2, r7, #96	; 0x60
 80047ac:	e892 0003 	ldmia.w	r2, {r0, r1}
 80047b0:	e883 0003 	stmia.w	r3, {r0, r1}
 80047b4:	68fb      	ldr	r3, [r7, #12]
 80047b6:	681c      	ldr	r4, [r3, #0]
 80047b8:	68fb      	ldr	r3, [r7, #12]
 80047ba:	685d      	ldr	r5, [r3, #4]
 80047bc:	42a5      	cmp	r5, r4
 80047be:	db10      	blt.n	80047e2 <stm32__i2c__mem_write+0x5a>
 80047c0:	4628      	mov	r0, r5
 80047c2:	ea4f 71e0 	mov.w	r1, r0, asr #31
 80047c6:	46a0      	mov	r8, r4
 80047c8:	ea4f 79e8 	mov.w	r9, r8, asr #31
 80047cc:	4602      	mov	r2, r0
 80047ce:	460b      	mov	r3, r1
 80047d0:	ebb2 0208 	subs.w	r2, r2, r8
 80047d4:	eb63 0309 	sbc.w	r3, r3, r9
 80047d8:	f112 0801 	adds.w	r8, r2, #1
 80047dc:	f143 0900 	adc.w	r9, r3, #0
 80047e0:	e003      	b.n	80047ea <stm32__i2c__mem_write+0x62>
 80047e2:	f04f 0800 	mov.w	r8, #0
 80047e6:	f04f 0900 	mov.w	r9, #0
 80047ea:	4bb9      	ldr	r3, [pc, #740]	; (8004ad0 <stm32__i2c__mem_write+0x348>)
 80047ec:	781b      	ldrb	r3, [r3, #0]
 80047ee:	f083 0301 	eor.w	r3, r3, #1
 80047f2:	b2db      	uxtb	r3, r3
 80047f4:	2b00      	cmp	r3, #0
 80047f6:	d004      	beq.n	8004802 <stm32__i2c__mem_write+0x7a>
 80047f8:	f240 2182 	movw	r1, #642	; 0x282
 80047fc:	48b5      	ldr	r0, [pc, #724]	; (8004ad4 <stm32__i2c__mem_write+0x34c>)
 80047fe:	f004 fc39 	bl	8009074 <__gnat_rcheck_PE_Access_Before_Elaboration>
 8004802:	69f8      	ldr	r0, [r7, #28]
 8004804:	f7fe fe94 	bl	8003530 <stm32__i2c__is_configured>
 8004808:	4603      	mov	r3, r0
 800480a:	f083 0301 	eor.w	r3, r3, #1
 800480e:	b2db      	uxtb	r3, r3
 8004810:	2b00      	cmp	r3, #0
 8004812:	d007      	beq.n	8004824 <stm32__i2c__mem_write+0x9c>
 8004814:	4bb0      	ldr	r3, [pc, #704]	; (8004ad8 <stm32__i2c__mem_write+0x350>)
 8004816:	603b      	str	r3, [r7, #0]
 8004818:	4bb0      	ldr	r3, [pc, #704]	; (8004adc <stm32__i2c__mem_write+0x354>)
 800481a:	607b      	str	r3, [r7, #4]
 800481c:	e9d7 0100 	ldrd	r0, r1, [r7]
 8004820:	f005 f934 	bl	8009a8c <system__assertions__raise_assert_failure>
 8004824:	4626      	mov	r6, r4
 8004826:	2300      	movs	r3, #0
 8004828:	637b      	str	r3, [r7, #52]	; 0x34
 800482a:	2300      	movs	r3, #0
 800482c:	633b      	str	r3, [r7, #48]	; 0x30
 800482e:	f002 fe01 	bl	8007434 <ada__real_time__clock>
 8004832:	4602      	mov	r2, r0
 8004834:	460b      	mov	r3, r1
 8004836:	e9c7 230a 	strd	r2, r3, [r7, #40]	; 0x28
 800483a:	69fb      	ldr	r3, [r7, #28]
 800483c:	685b      	ldr	r3, [r3, #4]
 800483e:	3318      	adds	r3, #24
 8004840:	681b      	ldr	r3, [r3, #0]
 8004842:	f3c3 2307 	ubfx	r3, r3, #8, #8
 8004846:	b2db      	uxtb	r3, r3
 8004848:	f023 037f 	bic.w	r3, r3, #127	; 0x7f
 800484c:	b2db      	uxtb	r3, r3
 800484e:	2b00      	cmp	r3, #0
 8004850:	d014      	beq.n	800487c <stm32__i2c__mem_write+0xf4>
 8004852:	f002 fdef 	bl	8007434 <ada__real_time__clock>
 8004856:	e9d7 230a 	ldrd	r2, r3, [r7, #40]	; 0x28
 800485a:	f002 fdc7 	bl	80073ec <ada__real_time__Osubtract__2>
 800485e:	4682      	mov	sl, r0
 8004860:	468b      	mov	fp, r1
 8004862:	6eb8      	ldr	r0, [r7, #104]	; 0x68
 8004864:	f002 fe16 	bl	8007494 <ada__real_time__milliseconds>
 8004868:	4602      	mov	r2, r0
 800486a:	460b      	mov	r3, r1
 800486c:	4552      	cmp	r2, sl
 800486e:	eb73 030b 	sbcs.w	r3, r3, fp
 8004872:	dae2      	bge.n	800483a <stm32__i2c__mem_write+0xb2>
 8004874:	2303      	movs	r3, #3
 8004876:	f887 3025 	strb.w	r3, [r7, #37]	; 0x25
 800487a:	e23a      	b.n	8004cf2 <stm32__i2c__mem_write+0x56a>
 800487c:	42ac      	cmp	r4, r5
 800487e:	dd03      	ble.n	8004888 <stm32__i2c__mem_write+0x100>
 8004880:	2301      	movs	r3, #1
 8004882:	f887 3025 	strb.w	r3, [r7, #37]	; 0x25
 8004886:	e234      	b.n	8004cf2 <stm32__i2c__mem_write+0x56a>
 8004888:	69fb      	ldr	r3, [r7, #28]
 800488a:	7d1b      	ldrb	r3, [r3, #20]
 800488c:	2b01      	cmp	r3, #1
 800488e:	d003      	beq.n	8004898 <stm32__i2c__mem_write+0x110>
 8004890:	2303      	movs	r3, #3
 8004892:	f887 3025 	strb.w	r3, [r7, #37]	; 0x25
 8004896:	e22c      	b.n	8004cf2 <stm32__i2c__mem_write+0x56a>
 8004898:	69fb      	ldr	r3, [r7, #28]
 800489a:	2204      	movs	r2, #4
 800489c:	751a      	strb	r2, [r3, #20]
 800489e:	7dfb      	ldrb	r3, [r7, #23]
 80048a0:	2b01      	cmp	r3, #1
 80048a2:	d904      	bls.n	80048ae <stm32__i2c__mem_write+0x126>
 80048a4:	f44f 712a 	mov.w	r1, #680	; 0x2a8
 80048a8:	488a      	ldr	r0, [pc, #552]	; (8004ad4 <stm32__i2c__mem_write+0x34c>)
 80048aa:	f004 fbcb 	bl	8009044 <__gnat_rcheck_CE_Invalid_Data>
 80048ae:	7dfb      	ldrb	r3, [r7, #23]
 80048b0:	2b00      	cmp	r3, #0
 80048b2:	d101      	bne.n	80048b8 <stm32__i2c__mem_write+0x130>
 80048b4:	2201      	movs	r2, #1
 80048b6:	e000      	b.n	80048ba <stm32__i2c__mem_write+0x132>
 80048b8:	2202      	movs	r2, #2
 80048ba:	8b79      	ldrh	r1, [r7, #26]
 80048bc:	2303      	movs	r3, #3
 80048be:	9300      	str	r3, [sp, #0]
 80048c0:	2300      	movs	r3, #0
 80048c2:	69f8      	ldr	r0, [r7, #28]
 80048c4:	f7fe fe54 	bl	8003570 <stm32__i2c__config_transfer>
 80048c8:	6eb9      	ldr	r1, [r7, #104]	; 0x68
 80048ca:	69f8      	ldr	r0, [r7, #28]
 80048cc:	f7fe ff82 	bl	80037d4 <stm32__i2c__wait_tx_interrupt_status>
 80048d0:	4603      	mov	r3, r0
 80048d2:	f887 3025 	strb.w	r3, [r7, #37]	; 0x25
 80048d6:	f897 3025 	ldrb.w	r3, [r7, #37]	; 0x25
 80048da:	2b00      	cmp	r3, #0
 80048dc:	d003      	beq.n	80048e6 <stm32__i2c__mem_write+0x15e>
 80048de:	69fb      	ldr	r3, [r7, #28]
 80048e0:	2201      	movs	r2, #1
 80048e2:	751a      	strb	r2, [r3, #20]
 80048e4:	e205      	b.n	8004cf2 <stm32__i2c__mem_write+0x56a>
 80048e6:	7dfb      	ldrb	r3, [r7, #23]
 80048e8:	2b01      	cmp	r3, #1
 80048ea:	d904      	bls.n	80048f6 <stm32__i2c__mem_write+0x16e>
 80048ec:	f240 21b6 	movw	r1, #694	; 0x2b6
 80048f0:	4878      	ldr	r0, [pc, #480]	; (8004ad4 <stm32__i2c__mem_write+0x34c>)
 80048f2:	f004 fba7 	bl	8009044 <__gnat_rcheck_CE_Invalid_Data>
 80048f6:	7dfb      	ldrb	r3, [r7, #23]
 80048f8:	2b00      	cmp	r3, #0
 80048fa:	d114      	bne.n	8004926 <stm32__i2c__mem_write+0x19e>
 80048fc:	8b3b      	ldrh	r3, [r7, #24]
 80048fe:	2bff      	cmp	r3, #255	; 0xff
 8004900:	d904      	bls.n	800490c <stm32__i2c__mem_write+0x184>
 8004902:	f44f 712e 	mov.w	r1, #696	; 0x2b8
 8004906:	4873      	ldr	r0, [pc, #460]	; (8004ad4 <stm32__i2c__mem_write+0x34c>)
 8004908:	f004 fbac 	bl	8009064 <__gnat_rcheck_CE_Range_Check>
 800490c:	69fb      	ldr	r3, [r7, #28]
 800490e:	685b      	ldr	r3, [r3, #4]
 8004910:	3328      	adds	r3, #40	; 0x28
 8004912:	681b      	ldr	r3, [r3, #0]
 8004914:	8b3a      	ldrh	r2, [r7, #24]
 8004916:	b2d2      	uxtb	r2, r2
 8004918:	f362 0307 	bfi	r3, r2, #0, #8
 800491c:	69fa      	ldr	r2, [r7, #28]
 800491e:	6852      	ldr	r2, [r2, #4]
 8004920:	3228      	adds	r2, #40	; 0x28
 8004922:	6013      	str	r3, [r2, #0]
 8004924:	e03b      	b.n	800499e <stm32__i2c__mem_write+0x216>
 8004926:	8b3b      	ldrh	r3, [r7, #24]
 8004928:	0a1b      	lsrs	r3, r3, #8
 800492a:	b29b      	uxth	r3, r3
 800492c:	2bff      	cmp	r3, #255	; 0xff
 800492e:	d904      	bls.n	800493a <stm32__i2c__mem_write+0x1b2>
 8004930:	f44f 712f 	mov.w	r1, #700	; 0x2bc
 8004934:	4867      	ldr	r0, [pc, #412]	; (8004ad4 <stm32__i2c__mem_write+0x34c>)
 8004936:	f004 fb95 	bl	8009064 <__gnat_rcheck_CE_Range_Check>
 800493a:	f887 3027 	strb.w	r3, [r7, #39]	; 0x27
 800493e:	8b3b      	ldrh	r3, [r7, #24]
 8004940:	b2db      	uxtb	r3, r3
 8004942:	b29b      	uxth	r3, r3
 8004944:	2bff      	cmp	r3, #255	; 0xff
 8004946:	d904      	bls.n	8004952 <stm32__i2c__mem_write+0x1ca>
 8004948:	f240 21bd 	movw	r1, #701	; 0x2bd
 800494c:	4861      	ldr	r0, [pc, #388]	; (8004ad4 <stm32__i2c__mem_write+0x34c>)
 800494e:	f004 fb89 	bl	8009064 <__gnat_rcheck_CE_Range_Check>
 8004952:	f887 3026 	strb.w	r3, [r7, #38]	; 0x26
 8004956:	69fb      	ldr	r3, [r7, #28]
 8004958:	685b      	ldr	r3, [r3, #4]
 800495a:	3328      	adds	r3, #40	; 0x28
 800495c:	681b      	ldr	r3, [r3, #0]
 800495e:	f897 2027 	ldrb.w	r2, [r7, #39]	; 0x27
 8004962:	f362 0307 	bfi	r3, r2, #0, #8
 8004966:	69fa      	ldr	r2, [r7, #28]
 8004968:	6852      	ldr	r2, [r2, #4]
 800496a:	3228      	adds	r2, #40	; 0x28
 800496c:	6013      	str	r3, [r2, #0]
 800496e:	6eb9      	ldr	r1, [r7, #104]	; 0x68
 8004970:	69f8      	ldr	r0, [r7, #28]
 8004972:	f7fe ff2f 	bl	80037d4 <stm32__i2c__wait_tx_interrupt_status>
 8004976:	4603      	mov	r3, r0
 8004978:	f887 3025 	strb.w	r3, [r7, #37]	; 0x25
 800497c:	f897 3025 	ldrb.w	r3, [r7, #37]	; 0x25
 8004980:	2b00      	cmp	r3, #0
 8004982:	f040 81ad 	bne.w	8004ce0 <stm32__i2c__mem_write+0x558>
 8004986:	69fb      	ldr	r3, [r7, #28]
 8004988:	685b      	ldr	r3, [r3, #4]
 800498a:	3328      	adds	r3, #40	; 0x28
 800498c:	681b      	ldr	r3, [r3, #0]
 800498e:	f897 2026 	ldrb.w	r2, [r7, #38]	; 0x26
 8004992:	f362 0307 	bfi	r3, r2, #0, #8
 8004996:	69fa      	ldr	r2, [r7, #28]
 8004998:	6852      	ldr	r2, [r2, #4]
 800499a:	3228      	adds	r2, #40	; 0x28
 800499c:	6013      	str	r3, [r2, #0]
 800499e:	6eb9      	ldr	r1, [r7, #104]	; 0x68
 80049a0:	69f8      	ldr	r0, [r7, #28]
 80049a2:	f7fe ff69 	bl	8003878 <stm32__i2c__wait_transfer_complete_reset_flag>
 80049a6:	4603      	mov	r3, r0
 80049a8:	f887 3025 	strb.w	r3, [r7, #37]	; 0x25
 80049ac:	f897 3025 	ldrb.w	r3, [r7, #37]	; 0x25
 80049b0:	2b00      	cmp	r3, #0
 80049b2:	f040 8197 	bne.w	8004ce4 <stm32__i2c__mem_write+0x55c>
 80049b6:	4622      	mov	r2, r4
 80049b8:	ea4f 73e2 	mov.w	r3, r2, asr #31
 80049bc:	f112 00fe 	adds.w	r0, r2, #254	; 0xfe
 80049c0:	f143 0100 	adc.w	r1, r3, #0
 80049c4:	462a      	mov	r2, r5
 80049c6:	ea4f 73e2 	mov.w	r3, r2, asr #31
 80049ca:	4290      	cmp	r0, r2
 80049cc:	eb71 0303 	sbcs.w	r3, r1, r3
 80049d0:	da0a      	bge.n	80049e8 <stm32__i2c__mem_write+0x260>
 80049d2:	8b79      	ldrh	r1, [r7, #26]
 80049d4:	2300      	movs	r3, #0
 80049d6:	9300      	str	r3, [sp, #0]
 80049d8:	2300      	movs	r3, #0
 80049da:	22ff      	movs	r2, #255	; 0xff
 80049dc:	69f8      	ldr	r0, [r7, #28]
 80049de:	f7fe fdc7 	bl	8003570 <stm32__i2c__config_transfer>
 80049e2:	23ff      	movs	r3, #255	; 0xff
 80049e4:	637b      	str	r3, [r7, #52]	; 0x34
 80049e6:	e033      	b.n	8004a50 <stm32__i2c__mem_write+0x2c8>
 80049e8:	4622      	mov	r2, r4
 80049ea:	ea4f 73e2 	mov.w	r3, r2, asr #31
 80049ee:	f112 00fe 	adds.w	r0, r2, #254	; 0xfe
 80049f2:	f143 0100 	adc.w	r1, r3, #0
 80049f6:	462a      	mov	r2, r5
 80049f8:	ea4f 73e2 	mov.w	r3, r2, asr #31
 80049fc:	4290      	cmp	r0, r2
 80049fe:	eb71 0303 	sbcs.w	r3, r1, r3
 8004a02:	da04      	bge.n	8004a0e <stm32__i2c__mem_write+0x286>
 8004a04:	f240 21d7 	movw	r1, #727	; 0x2d7
 8004a08:	4832      	ldr	r0, [pc, #200]	; (8004ad4 <stm32__i2c__mem_write+0x34c>)
 8004a0a:	f004 fb2b 	bl	8009064 <__gnat_rcheck_CE_Range_Check>
 8004a0e:	fa5f f288 	uxtb.w	r2, r8
 8004a12:	8b79      	ldrh	r1, [r7, #26]
 8004a14:	2300      	movs	r3, #0
 8004a16:	9300      	str	r3, [sp, #0]
 8004a18:	2301      	movs	r3, #1
 8004a1a:	69f8      	ldr	r0, [r7, #28]
 8004a1c:	f7fe fda8 	bl	8003570 <stm32__i2c__config_transfer>
 8004a20:	4622      	mov	r2, r4
 8004a22:	ea4f 73e2 	mov.w	r3, r2, asr #31
 8004a26:	482e      	ldr	r0, [pc, #184]	; (8004ae0 <stm32__i2c__mem_write+0x358>)
 8004a28:	f04f 0100 	mov.w	r1, #0
 8004a2c:	eb10 0a02 	adds.w	sl, r0, r2
 8004a30:	eb41 0b03 	adc.w	fp, r1, r3
 8004a34:	462a      	mov	r2, r5
 8004a36:	ea4f 73e2 	mov.w	r3, r2, asr #31
 8004a3a:	4592      	cmp	sl, r2
 8004a3c:	eb7b 0303 	sbcs.w	r3, fp, r3
 8004a40:	da04      	bge.n	8004a4c <stm32__i2c__mem_write+0x2c4>
 8004a42:	f44f 7136 	mov.w	r1, #728	; 0x2d8
 8004a46:	4823      	ldr	r0, [pc, #140]	; (8004ad4 <stm32__i2c__mem_write+0x34c>)
 8004a48:	f004 fb0c 	bl	8009064 <__gnat_rcheck_CE_Range_Check>
 8004a4c:	4643      	mov	r3, r8
 8004a4e:	637b      	str	r3, [r7, #52]	; 0x34
 8004a50:	4622      	mov	r2, r4
 8004a52:	ea4f 73e2 	mov.w	r3, r2, asr #31
 8004a56:	4822      	ldr	r0, [pc, #136]	; (8004ae0 <stm32__i2c__mem_write+0x358>)
 8004a58:	f04f 0100 	mov.w	r1, #0
 8004a5c:	eb10 0a02 	adds.w	sl, r0, r2
 8004a60:	eb41 0b03 	adc.w	fp, r1, r3
 8004a64:	462a      	mov	r2, r5
 8004a66:	ea4f 73e2 	mov.w	r3, r2, asr #31
 8004a6a:	4592      	cmp	sl, r2
 8004a6c:	eb7b 0303 	sbcs.w	r3, fp, r3
 8004a70:	da04      	bge.n	8004a7c <stm32__i2c__mem_write+0x2f4>
 8004a72:	f44f 7137 	mov.w	r1, #732	; 0x2dc
 8004a76:	4817      	ldr	r0, [pc, #92]	; (8004ad4 <stm32__i2c__mem_write+0x34c>)
 8004a78:	f004 faf4 	bl	8009064 <__gnat_rcheck_CE_Range_Check>
 8004a7c:	4642      	mov	r2, r8
 8004a7e:	6b3b      	ldr	r3, [r7, #48]	; 0x30
 8004a80:	4293      	cmp	r3, r2
 8004a82:	f280 8118 	bge.w	8004cb6 <stm32__i2c__mem_write+0x52e>
 8004a86:	6eb9      	ldr	r1, [r7, #104]	; 0x68
 8004a88:	69f8      	ldr	r0, [r7, #28]
 8004a8a:	f7fe fea3 	bl	80037d4 <stm32__i2c__wait_tx_interrupt_status>
 8004a8e:	4603      	mov	r3, r0
 8004a90:	f887 3025 	strb.w	r3, [r7, #37]	; 0x25
 8004a94:	f897 3025 	ldrb.w	r3, [r7, #37]	; 0x25
 8004a98:	2b00      	cmp	r3, #0
 8004a9a:	f040 8125 	bne.w	8004ce8 <stm32__i2c__mem_write+0x560>
 8004a9e:	2200      	movs	r2, #0
 8004aa0:	6b3b      	ldr	r3, [r7, #48]	; 0x30
 8004aa2:	18e3      	adds	r3, r4, r3
 8004aa4:	d700      	bvc.n	8004aa8 <stm32__i2c__mem_write+0x320>
 8004aa6:	2201      	movs	r2, #1
 8004aa8:	4619      	mov	r1, r3
 8004aaa:	4613      	mov	r3, r2
 8004aac:	2b00      	cmp	r3, #0
 8004aae:	d004      	beq.n	8004aba <stm32__i2c__mem_write+0x332>
 8004ab0:	f240 21e3 	movw	r1, #739	; 0x2e3
 8004ab4:	4807      	ldr	r0, [pc, #28]	; (8004ad4 <stm32__i2c__mem_write+0x34c>)
 8004ab6:	f004 facd 	bl	8009054 <__gnat_rcheck_CE_Overflow_Check>
 8004aba:	460b      	mov	r3, r1
 8004abc:	429c      	cmp	r4, r3
 8004abe:	dc01      	bgt.n	8004ac4 <stm32__i2c__mem_write+0x33c>
 8004ac0:	429d      	cmp	r5, r3
 8004ac2:	da0f      	bge.n	8004ae4 <stm32__i2c__mem_write+0x35c>
 8004ac4:	f240 21e3 	movw	r1, #739	; 0x2e3
 8004ac8:	4802      	ldr	r0, [pc, #8]	; (8004ad4 <stm32__i2c__mem_write+0x34c>)
 8004aca:	f004 fab3 	bl	8009034 <__gnat_rcheck_CE_Index_Check>
 8004ace:	bf00      	nop
 8004ad0:	2000003b 	.word	0x2000003b
 8004ad4:	0800d5e8 	.word	0x0800d5e8
 8004ad8:	0800d6b0 	.word	0x0800d6b0
 8004adc:	0800d5e0 	.word	0x0800d5e0
 8004ae0:	7ffffffe 	.word	0x7ffffffe
 8004ae4:	68b9      	ldr	r1, [r7, #8]
 8004ae6:	461a      	mov	r2, r3
 8004ae8:	69fb      	ldr	r3, [r7, #28]
 8004aea:	685b      	ldr	r3, [r3, #4]
 8004aec:	3328      	adds	r3, #40	; 0x28
 8004aee:	681b      	ldr	r3, [r3, #0]
 8004af0:	1b92      	subs	r2, r2, r6
 8004af2:	5c8a      	ldrb	r2, [r1, r2]
 8004af4:	f362 0307 	bfi	r3, r2, #0, #8
 8004af8:	69fa      	ldr	r2, [r7, #28]
 8004afa:	6852      	ldr	r2, [r2, #4]
 8004afc:	3228      	adds	r2, #40	; 0x28
 8004afe:	6013      	str	r3, [r2, #0]
 8004b00:	6b3b      	ldr	r3, [r7, #48]	; 0x30
 8004b02:	f06f 4200 	mvn.w	r2, #2147483648	; 0x80000000
 8004b06:	4293      	cmp	r3, r2
 8004b08:	d104      	bne.n	8004b14 <stm32__i2c__mem_write+0x38c>
 8004b0a:	f44f 7139 	mov.w	r1, #740	; 0x2e4
 8004b0e:	487d      	ldr	r0, [pc, #500]	; (8004d04 <stm32__i2c__mem_write+0x57c>)
 8004b10:	f004 faa0 	bl	8009054 <__gnat_rcheck_CE_Overflow_Check>
 8004b14:	6b3b      	ldr	r3, [r7, #48]	; 0x30
 8004b16:	3301      	adds	r3, #1
 8004b18:	633b      	str	r3, [r7, #48]	; 0x30
 8004b1a:	6b3a      	ldr	r2, [r7, #48]	; 0x30
 8004b1c:	6b7b      	ldr	r3, [r7, #52]	; 0x34
 8004b1e:	429a      	cmp	r2, r3
 8004b20:	d196      	bne.n	8004a50 <stm32__i2c__mem_write+0x2c8>
 8004b22:	4622      	mov	r2, r4
 8004b24:	ea4f 73e2 	mov.w	r3, r2, asr #31
 8004b28:	4877      	ldr	r0, [pc, #476]	; (8004d08 <stm32__i2c__mem_write+0x580>)
 8004b2a:	f04f 0100 	mov.w	r1, #0
 8004b2e:	eb10 0a02 	adds.w	sl, r0, r2
 8004b32:	eb41 0b03 	adc.w	fp, r1, r3
 8004b36:	462a      	mov	r2, r5
 8004b38:	ea4f 73e2 	mov.w	r3, r2, asr #31
 8004b3c:	4592      	cmp	sl, r2
 8004b3e:	eb7b 0303 	sbcs.w	r3, fp, r3
 8004b42:	da04      	bge.n	8004b4e <stm32__i2c__mem_write+0x3c6>
 8004b44:	f240 21e7 	movw	r1, #743	; 0x2e7
 8004b48:	486e      	ldr	r0, [pc, #440]	; (8004d04 <stm32__i2c__mem_write+0x57c>)
 8004b4a:	f004 fa8b 	bl	8009064 <__gnat_rcheck_CE_Range_Check>
 8004b4e:	4642      	mov	r2, r8
 8004b50:	6b3b      	ldr	r3, [r7, #48]	; 0x30
 8004b52:	4293      	cmp	r3, r2
 8004b54:	bfb4      	ite	lt
 8004b56:	2301      	movlt	r3, #1
 8004b58:	2300      	movge	r3, #0
 8004b5a:	b2db      	uxtb	r3, r3
 8004b5c:	2b00      	cmp	r3, #0
 8004b5e:	f43f af77 	beq.w	8004a50 <stm32__i2c__mem_write+0x2c8>
 8004b62:	6eb9      	ldr	r1, [r7, #104]	; 0x68
 8004b64:	69f8      	ldr	r0, [r7, #28]
 8004b66:	f7fe fe87 	bl	8003878 <stm32__i2c__wait_transfer_complete_reset_flag>
 8004b6a:	4603      	mov	r3, r0
 8004b6c:	f887 3025 	strb.w	r3, [r7, #37]	; 0x25
 8004b70:	f897 3025 	ldrb.w	r3, [r7, #37]	; 0x25
 8004b74:	2b00      	cmp	r3, #0
 8004b76:	f040 80b9 	bne.w	8004cec <stm32__i2c__mem_write+0x564>
 8004b7a:	4622      	mov	r2, r4
 8004b7c:	ea4f 73e2 	mov.w	r3, r2, asr #31
 8004b80:	4861      	ldr	r0, [pc, #388]	; (8004d08 <stm32__i2c__mem_write+0x580>)
 8004b82:	f04f 0100 	mov.w	r1, #0
 8004b86:	eb10 0a02 	adds.w	sl, r0, r2
 8004b8a:	eb41 0b03 	adc.w	fp, r1, r3
 8004b8e:	462a      	mov	r2, r5
 8004b90:	ea4f 73e2 	mov.w	r3, r2, asr #31
 8004b94:	4592      	cmp	sl, r2
 8004b96:	eb7b 0303 	sbcs.w	r3, fp, r3
 8004b9a:	da04      	bge.n	8004ba6 <stm32__i2c__mem_write+0x41e>
 8004b9c:	f44f 713c 	mov.w	r1, #752	; 0x2f0
 8004ba0:	4858      	ldr	r0, [pc, #352]	; (8004d04 <stm32__i2c__mem_write+0x57c>)
 8004ba2:	f004 fa5f 	bl	8009064 <__gnat_rcheck_CE_Range_Check>
 8004ba6:	4641      	mov	r1, r8
 8004ba8:	2200      	movs	r2, #0
 8004baa:	6b3b      	ldr	r3, [r7, #48]	; 0x30
 8004bac:	1acb      	subs	r3, r1, r3
 8004bae:	d700      	bvc.n	8004bb2 <stm32__i2c__mem_write+0x42a>
 8004bb0:	2201      	movs	r2, #1
 8004bb2:	4619      	mov	r1, r3
 8004bb4:	4613      	mov	r3, r2
 8004bb6:	2b00      	cmp	r3, #0
 8004bb8:	d004      	beq.n	8004bc4 <stm32__i2c__mem_write+0x43c>
 8004bba:	f44f 713c 	mov.w	r1, #752	; 0x2f0
 8004bbe:	4851      	ldr	r0, [pc, #324]	; (8004d04 <stm32__i2c__mem_write+0x57c>)
 8004bc0:	f004 fa48 	bl	8009054 <__gnat_rcheck_CE_Overflow_Check>
 8004bc4:	460b      	mov	r3, r1
 8004bc6:	2bff      	cmp	r3, #255	; 0xff
 8004bc8:	bfcc      	ite	gt
 8004bca:	2301      	movgt	r3, #1
 8004bcc:	2300      	movle	r3, #0
 8004bce:	b2db      	uxtb	r3, r3
 8004bd0:	2b00      	cmp	r3, #0
 8004bd2:	d00a      	beq.n	8004bea <stm32__i2c__mem_write+0x462>
 8004bd4:	8b79      	ldrh	r1, [r7, #26]
 8004bd6:	2300      	movs	r3, #0
 8004bd8:	9300      	str	r3, [sp, #0]
 8004bda:	2300      	movs	r3, #0
 8004bdc:	22ff      	movs	r2, #255	; 0xff
 8004bde:	69f8      	ldr	r0, [r7, #28]
 8004be0:	f7fe fcc6 	bl	8003570 <stm32__i2c__config_transfer>
 8004be4:	23ff      	movs	r3, #255	; 0xff
 8004be6:	637b      	str	r3, [r7, #52]	; 0x34
 8004be8:	e732      	b.n	8004a50 <stm32__i2c__mem_write+0x2c8>
 8004bea:	4622      	mov	r2, r4
 8004bec:	ea4f 73e2 	mov.w	r3, r2, asr #31
 8004bf0:	4845      	ldr	r0, [pc, #276]	; (8004d08 <stm32__i2c__mem_write+0x580>)
 8004bf2:	f04f 0100 	mov.w	r1, #0
 8004bf6:	eb10 0a02 	adds.w	sl, r0, r2
 8004bfa:	eb41 0b03 	adc.w	fp, r1, r3
 8004bfe:	462a      	mov	r2, r5
 8004c00:	ea4f 73e2 	mov.w	r3, r2, asr #31
 8004c04:	4592      	cmp	sl, r2
 8004c06:	eb7b 0303 	sbcs.w	r3, fp, r3
 8004c0a:	da04      	bge.n	8004c16 <stm32__i2c__mem_write+0x48e>
 8004c0c:	f240 21f7 	movw	r1, #759	; 0x2f7
 8004c10:	483c      	ldr	r0, [pc, #240]	; (8004d04 <stm32__i2c__mem_write+0x57c>)
 8004c12:	f004 fa27 	bl	8009064 <__gnat_rcheck_CE_Range_Check>
 8004c16:	4641      	mov	r1, r8
 8004c18:	2200      	movs	r2, #0
 8004c1a:	6b3b      	ldr	r3, [r7, #48]	; 0x30
 8004c1c:	1acb      	subs	r3, r1, r3
 8004c1e:	d700      	bvc.n	8004c22 <stm32__i2c__mem_write+0x49a>
 8004c20:	2201      	movs	r2, #1
 8004c22:	4619      	mov	r1, r3
 8004c24:	4613      	mov	r3, r2
 8004c26:	2b00      	cmp	r3, #0
 8004c28:	d004      	beq.n	8004c34 <stm32__i2c__mem_write+0x4ac>
 8004c2a:	f240 21f7 	movw	r1, #759	; 0x2f7
 8004c2e:	4835      	ldr	r0, [pc, #212]	; (8004d04 <stm32__i2c__mem_write+0x57c>)
 8004c30:	f004 fa10 	bl	8009054 <__gnat_rcheck_CE_Overflow_Check>
 8004c34:	460b      	mov	r3, r1
 8004c36:	2b00      	cmp	r3, #0
 8004c38:	db01      	blt.n	8004c3e <stm32__i2c__mem_write+0x4b6>
 8004c3a:	2bff      	cmp	r3, #255	; 0xff
 8004c3c:	dd04      	ble.n	8004c48 <stm32__i2c__mem_write+0x4c0>
 8004c3e:	f240 21f7 	movw	r1, #759	; 0x2f7
 8004c42:	4830      	ldr	r0, [pc, #192]	; (8004d04 <stm32__i2c__mem_write+0x57c>)
 8004c44:	f004 fa0e 	bl	8009064 <__gnat_rcheck_CE_Range_Check>
 8004c48:	b2da      	uxtb	r2, r3
 8004c4a:	8b79      	ldrh	r1, [r7, #26]
 8004c4c:	2300      	movs	r3, #0
 8004c4e:	9300      	str	r3, [sp, #0]
 8004c50:	2301      	movs	r3, #1
 8004c52:	69f8      	ldr	r0, [r7, #28]
 8004c54:	f7fe fc8c 	bl	8003570 <stm32__i2c__config_transfer>
 8004c58:	4622      	mov	r2, r4
 8004c5a:	ea4f 73e2 	mov.w	r3, r2, asr #31
 8004c5e:	482a      	ldr	r0, [pc, #168]	; (8004d08 <stm32__i2c__mem_write+0x580>)
 8004c60:	f04f 0100 	mov.w	r1, #0
 8004c64:	eb10 0a02 	adds.w	sl, r0, r2
 8004c68:	eb41 0b03 	adc.w	fp, r1, r3
 8004c6c:	462a      	mov	r2, r5
 8004c6e:	ea4f 73e2 	mov.w	r3, r2, asr #31
 8004c72:	4592      	cmp	sl, r2
 8004c74:	eb7b 0303 	sbcs.w	r3, fp, r3
 8004c78:	da04      	bge.n	8004c84 <stm32__i2c__mem_write+0x4fc>
 8004c7a:	f240 21fa 	movw	r1, #762	; 0x2fa
 8004c7e:	4821      	ldr	r0, [pc, #132]	; (8004d04 <stm32__i2c__mem_write+0x57c>)
 8004c80:	f004 f9f0 	bl	8009064 <__gnat_rcheck_CE_Range_Check>
 8004c84:	4641      	mov	r1, r8
 8004c86:	2200      	movs	r2, #0
 8004c88:	6b3b      	ldr	r3, [r7, #48]	; 0x30
 8004c8a:	1acb      	subs	r3, r1, r3
 8004c8c:	d700      	bvc.n	8004c90 <stm32__i2c__mem_write+0x508>
 8004c8e:	2201      	movs	r2, #1
 8004c90:	4619      	mov	r1, r3
 8004c92:	4613      	mov	r3, r2
 8004c94:	2b00      	cmp	r3, #0
 8004c96:	d004      	beq.n	8004ca2 <stm32__i2c__mem_write+0x51a>
 8004c98:	f240 21fa 	movw	r1, #762	; 0x2fa
 8004c9c:	4819      	ldr	r0, [pc, #100]	; (8004d04 <stm32__i2c__mem_write+0x57c>)
 8004c9e:	f004 f9d9 	bl	8009054 <__gnat_rcheck_CE_Overflow_Check>
 8004ca2:	460b      	mov	r3, r1
 8004ca4:	2b00      	cmp	r3, #0
 8004ca6:	da04      	bge.n	8004cb2 <stm32__i2c__mem_write+0x52a>
 8004ca8:	f240 21fa 	movw	r1, #762	; 0x2fa
 8004cac:	4815      	ldr	r0, [pc, #84]	; (8004d04 <stm32__i2c__mem_write+0x57c>)
 8004cae:	f004 f9d9 	bl	8009064 <__gnat_rcheck_CE_Range_Check>
 8004cb2:	637b      	str	r3, [r7, #52]	; 0x34
 8004cb4:	e6cc      	b.n	8004a50 <stm32__i2c__mem_write+0x2c8>
 8004cb6:	6eb9      	ldr	r1, [r7, #104]	; 0x68
 8004cb8:	69f8      	ldr	r0, [r7, #28]
 8004cba:	f7fe fe1f 	bl	80038fc <stm32__i2c__wait_stop_flag>
 8004cbe:	4603      	mov	r3, r0
 8004cc0:	f887 3025 	strb.w	r3, [r7, #37]	; 0x25
 8004cc4:	f897 3025 	ldrb.w	r3, [r7, #37]	; 0x25
 8004cc8:	2b00      	cmp	r3, #0
 8004cca:	d111      	bne.n	8004cf0 <stm32__i2c__mem_write+0x568>
 8004ccc:	69f8      	ldr	r0, [r7, #28]
 8004cce:	f7fe fcc7 	bl	8003660 <stm32__i2c__reset_config>
 8004cd2:	69fb      	ldr	r3, [r7, #28]
 8004cd4:	2201      	movs	r2, #1
 8004cd6:	751a      	strb	r2, [r3, #20]
 8004cd8:	2300      	movs	r3, #0
 8004cda:	f887 3025 	strb.w	r3, [r7, #37]	; 0x25
 8004cde:	e008      	b.n	8004cf2 <stm32__i2c__mem_write+0x56a>
 8004ce0:	bf00      	nop
 8004ce2:	e006      	b.n	8004cf2 <stm32__i2c__mem_write+0x56a>
 8004ce4:	bf00      	nop
 8004ce6:	e004      	b.n	8004cf2 <stm32__i2c__mem_write+0x56a>
 8004ce8:	bf00      	nop
 8004cea:	e002      	b.n	8004cf2 <stm32__i2c__mem_write+0x56a>
 8004cec:	bf00      	nop
 8004cee:	e000      	b.n	8004cf2 <stm32__i2c__mem_write+0x56a>
 8004cf0:	bf00      	nop
 8004cf2:	f897 3025 	ldrb.w	r3, [r7, #37]	; 0x25
 8004cf6:	bf00      	nop
 8004cf8:	4618      	mov	r0, r3
 8004cfa:	373c      	adds	r7, #60	; 0x3c
 8004cfc:	46bd      	mov	sp, r7
 8004cfe:	e8bd 8ff0 	ldmia.w	sp!, {r4, r5, r6, r7, r8, r9, sl, fp, pc}
 8004d02:	bf00      	nop
 8004d04:	0800d5e8 	.word	0x0800d5e8
 8004d08:	7ffffffe 	.word	0x7ffffffe

08004d0c <stm32__i2c__mem_read>:
 8004d0c:	e92d 48f0 	stmdb	sp!, {r4, r5, r6, r7, fp, lr}
 8004d10:	b08e      	sub	sp, #56	; 0x38
 8004d12:	af02      	add	r7, sp, #8
 8004d14:	6178      	str	r0, [r7, #20]
 8004d16:	4608      	mov	r0, r1
 8004d18:	4611      	mov	r1, r2
 8004d1a:	461a      	mov	r2, r3
 8004d1c:	4603      	mov	r3, r0
 8004d1e:	827b      	strh	r3, [r7, #18]
 8004d20:	460b      	mov	r3, r1
 8004d22:	823b      	strh	r3, [r7, #16]
 8004d24:	4613      	mov	r3, r2
 8004d26:	73fb      	strb	r3, [r7, #15]
 8004d28:	463b      	mov	r3, r7
 8004d2a:	f107 0248 	add.w	r2, r7, #72	; 0x48
 8004d2e:	e892 0003 	ldmia.w	r2, {r0, r1}
 8004d32:	e883 0003 	stmia.w	r3, {r0, r1}
 8004d36:	4ba5      	ldr	r3, [pc, #660]	; (8004fcc <stm32__i2c__mem_read+0x2c0>)
 8004d38:	781b      	ldrb	r3, [r3, #0]
 8004d3a:	f083 0301 	eor.w	r3, r3, #1
 8004d3e:	b2db      	uxtb	r3, r3
 8004d40:	2b00      	cmp	r3, #0
 8004d42:	d004      	beq.n	8004d4e <stm32__i2c__mem_read+0x42>
 8004d44:	f240 310f 	movw	r1, #783	; 0x30f
 8004d48:	48a1      	ldr	r0, [pc, #644]	; (8004fd0 <stm32__i2c__mem_read+0x2c4>)
 8004d4a:	f004 f993 	bl	8009074 <__gnat_rcheck_PE_Access_Before_Elaboration>
 8004d4e:	6978      	ldr	r0, [r7, #20]
 8004d50:	f7fe fbee 	bl	8003530 <stm32__i2c__is_configured>
 8004d54:	4603      	mov	r3, r0
 8004d56:	f083 0301 	eor.w	r3, r3, #1
 8004d5a:	b2db      	uxtb	r3, r3
 8004d5c:	2b00      	cmp	r3, #0
 8004d5e:	d005      	beq.n	8004d6c <stm32__i2c__mem_read+0x60>
 8004d60:	4c9c      	ldr	r4, [pc, #624]	; (8004fd4 <stm32__i2c__mem_read+0x2c8>)
 8004d62:	4d9d      	ldr	r5, [pc, #628]	; (8004fd8 <stm32__i2c__mem_read+0x2cc>)
 8004d64:	4620      	mov	r0, r4
 8004d66:	4629      	mov	r1, r5
 8004d68:	f004 fe90 	bl	8009a8c <system__assertions__raise_assert_failure>
 8004d6c:	687b      	ldr	r3, [r7, #4]
 8004d6e:	681b      	ldr	r3, [r3, #0]
 8004d70:	461e      	mov	r6, r3
 8004d72:	2300      	movs	r3, #0
 8004d74:	62bb      	str	r3, [r7, #40]	; 0x28
 8004d76:	2300      	movs	r3, #0
 8004d78:	62fb      	str	r3, [r7, #44]	; 0x2c
 8004d7a:	f002 fb5b 	bl	8007434 <ada__real_time__clock>
 8004d7e:	4603      	mov	r3, r0
 8004d80:	460c      	mov	r4, r1
 8004d82:	e9c7 3408 	strd	r3, r4, [r7, #32]
 8004d86:	697b      	ldr	r3, [r7, #20]
 8004d88:	685b      	ldr	r3, [r3, #4]
 8004d8a:	3318      	adds	r3, #24
 8004d8c:	681b      	ldr	r3, [r3, #0]
 8004d8e:	f3c3 2307 	ubfx	r3, r3, #8, #8
 8004d92:	b2db      	uxtb	r3, r3
 8004d94:	f023 037f 	bic.w	r3, r3, #127	; 0x7f
 8004d98:	b2db      	uxtb	r3, r3
 8004d9a:	2b00      	cmp	r3, #0
 8004d9c:	d012      	beq.n	8004dc4 <stm32__i2c__mem_read+0xb8>
 8004d9e:	f002 fb49 	bl	8007434 <ada__real_time__clock>
 8004da2:	e9d7 2308 	ldrd	r2, r3, [r7, #32]
 8004da6:	f002 fb21 	bl	80073ec <ada__real_time__Osubtract__2>
 8004daa:	4604      	mov	r4, r0
 8004dac:	460d      	mov	r5, r1
 8004dae:	6d38      	ldr	r0, [r7, #80]	; 0x50
 8004db0:	f002 fb70 	bl	8007494 <ada__real_time__milliseconds>
 8004db4:	4602      	mov	r2, r0
 8004db6:	460b      	mov	r3, r1
 8004db8:	42a2      	cmp	r2, r4
 8004dba:	41ab      	sbcs	r3, r5
 8004dbc:	dae3      	bge.n	8004d86 <stm32__i2c__mem_read+0x7a>
 8004dbe:	2303      	movs	r3, #3
 8004dc0:	777b      	strb	r3, [r7, #29]
 8004dc2:	e2ab      	b.n	800531c <stm32__i2c__mem_read+0x610>
 8004dc4:	687b      	ldr	r3, [r7, #4]
 8004dc6:	681a      	ldr	r2, [r3, #0]
 8004dc8:	687b      	ldr	r3, [r7, #4]
 8004dca:	685b      	ldr	r3, [r3, #4]
 8004dcc:	429a      	cmp	r2, r3
 8004dce:	dd02      	ble.n	8004dd6 <stm32__i2c__mem_read+0xca>
 8004dd0:	2301      	movs	r3, #1
 8004dd2:	777b      	strb	r3, [r7, #29]
 8004dd4:	e2a2      	b.n	800531c <stm32__i2c__mem_read+0x610>
 8004dd6:	697b      	ldr	r3, [r7, #20]
 8004dd8:	7d1b      	ldrb	r3, [r3, #20]
 8004dda:	2b01      	cmp	r3, #1
 8004ddc:	d002      	beq.n	8004de4 <stm32__i2c__mem_read+0xd8>
 8004dde:	2303      	movs	r3, #3
 8004de0:	777b      	strb	r3, [r7, #29]
 8004de2:	e29b      	b.n	800531c <stm32__i2c__mem_read+0x610>
 8004de4:	697b      	ldr	r3, [r7, #20]
 8004de6:	2205      	movs	r2, #5
 8004de8:	751a      	strb	r2, [r3, #20]
 8004dea:	7bfb      	ldrb	r3, [r7, #15]
 8004dec:	2b01      	cmp	r3, #1
 8004dee:	d904      	bls.n	8004dfa <stm32__i2c__mem_read+0xee>
 8004df0:	f240 3136 	movw	r1, #822	; 0x336
 8004df4:	4876      	ldr	r0, [pc, #472]	; (8004fd0 <stm32__i2c__mem_read+0x2c4>)
 8004df6:	f004 f925 	bl	8009044 <__gnat_rcheck_CE_Invalid_Data>
 8004dfa:	7bfb      	ldrb	r3, [r7, #15]
 8004dfc:	2b00      	cmp	r3, #0
 8004dfe:	d101      	bne.n	8004e04 <stm32__i2c__mem_read+0xf8>
 8004e00:	2201      	movs	r2, #1
 8004e02:	e000      	b.n	8004e06 <stm32__i2c__mem_read+0xfa>
 8004e04:	2202      	movs	r2, #2
 8004e06:	8a79      	ldrh	r1, [r7, #18]
 8004e08:	2303      	movs	r3, #3
 8004e0a:	9300      	str	r3, [sp, #0]
 8004e0c:	2302      	movs	r3, #2
 8004e0e:	6978      	ldr	r0, [r7, #20]
 8004e10:	f7fe fbae 	bl	8003570 <stm32__i2c__config_transfer>
 8004e14:	6d39      	ldr	r1, [r7, #80]	; 0x50
 8004e16:	6978      	ldr	r0, [r7, #20]
 8004e18:	f7fe fcdc 	bl	80037d4 <stm32__i2c__wait_tx_interrupt_status>
 8004e1c:	4603      	mov	r3, r0
 8004e1e:	777b      	strb	r3, [r7, #29]
 8004e20:	7f7b      	ldrb	r3, [r7, #29]
 8004e22:	2b00      	cmp	r3, #0
 8004e24:	f040 8275 	bne.w	8005312 <stm32__i2c__mem_read+0x606>
 8004e28:	7bfb      	ldrb	r3, [r7, #15]
 8004e2a:	2b01      	cmp	r3, #1
 8004e2c:	d904      	bls.n	8004e38 <stm32__i2c__mem_read+0x12c>
 8004e2e:	f240 3142 	movw	r1, #834	; 0x342
 8004e32:	4867      	ldr	r0, [pc, #412]	; (8004fd0 <stm32__i2c__mem_read+0x2c4>)
 8004e34:	f004 f906 	bl	8009044 <__gnat_rcheck_CE_Invalid_Data>
 8004e38:	7bfb      	ldrb	r3, [r7, #15]
 8004e3a:	2b00      	cmp	r3, #0
 8004e3c:	d114      	bne.n	8004e68 <stm32__i2c__mem_read+0x15c>
 8004e3e:	8a3b      	ldrh	r3, [r7, #16]
 8004e40:	2bff      	cmp	r3, #255	; 0xff
 8004e42:	d904      	bls.n	8004e4e <stm32__i2c__mem_read+0x142>
 8004e44:	f44f 7151 	mov.w	r1, #836	; 0x344
 8004e48:	4861      	ldr	r0, [pc, #388]	; (8004fd0 <stm32__i2c__mem_read+0x2c4>)
 8004e4a:	f004 f90b 	bl	8009064 <__gnat_rcheck_CE_Range_Check>
 8004e4e:	697b      	ldr	r3, [r7, #20]
 8004e50:	685b      	ldr	r3, [r3, #4]
 8004e52:	3328      	adds	r3, #40	; 0x28
 8004e54:	681b      	ldr	r3, [r3, #0]
 8004e56:	8a3a      	ldrh	r2, [r7, #16]
 8004e58:	b2d2      	uxtb	r2, r2
 8004e5a:	f362 0307 	bfi	r3, r2, #0, #8
 8004e5e:	697a      	ldr	r2, [r7, #20]
 8004e60:	6852      	ldr	r2, [r2, #4]
 8004e62:	3228      	adds	r2, #40	; 0x28
 8004e64:	6013      	str	r3, [r2, #0]
 8004e66:	e035      	b.n	8004ed4 <stm32__i2c__mem_read+0x1c8>
 8004e68:	8a3b      	ldrh	r3, [r7, #16]
 8004e6a:	0a1b      	lsrs	r3, r3, #8
 8004e6c:	b29b      	uxth	r3, r3
 8004e6e:	2bff      	cmp	r3, #255	; 0xff
 8004e70:	d904      	bls.n	8004e7c <stm32__i2c__mem_read+0x170>
 8004e72:	f44f 7152 	mov.w	r1, #840	; 0x348
 8004e76:	4856      	ldr	r0, [pc, #344]	; (8004fd0 <stm32__i2c__mem_read+0x2c4>)
 8004e78:	f004 f8f4 	bl	8009064 <__gnat_rcheck_CE_Range_Check>
 8004e7c:	77fb      	strb	r3, [r7, #31]
 8004e7e:	8a3b      	ldrh	r3, [r7, #16]
 8004e80:	b2db      	uxtb	r3, r3
 8004e82:	b29b      	uxth	r3, r3
 8004e84:	2bff      	cmp	r3, #255	; 0xff
 8004e86:	d904      	bls.n	8004e92 <stm32__i2c__mem_read+0x186>
 8004e88:	f240 3149 	movw	r1, #841	; 0x349
 8004e8c:	4850      	ldr	r0, [pc, #320]	; (8004fd0 <stm32__i2c__mem_read+0x2c4>)
 8004e8e:	f004 f8e9 	bl	8009064 <__gnat_rcheck_CE_Range_Check>
 8004e92:	77bb      	strb	r3, [r7, #30]
 8004e94:	697b      	ldr	r3, [r7, #20]
 8004e96:	685b      	ldr	r3, [r3, #4]
 8004e98:	3328      	adds	r3, #40	; 0x28
 8004e9a:	681b      	ldr	r3, [r3, #0]
 8004e9c:	7ffa      	ldrb	r2, [r7, #31]
 8004e9e:	f362 0307 	bfi	r3, r2, #0, #8
 8004ea2:	697a      	ldr	r2, [r7, #20]
 8004ea4:	6852      	ldr	r2, [r2, #4]
 8004ea6:	3228      	adds	r2, #40	; 0x28
 8004ea8:	6013      	str	r3, [r2, #0]
 8004eaa:	6d39      	ldr	r1, [r7, #80]	; 0x50
 8004eac:	6978      	ldr	r0, [r7, #20]
 8004eae:	f7fe fc91 	bl	80037d4 <stm32__i2c__wait_tx_interrupt_status>
 8004eb2:	4603      	mov	r3, r0
 8004eb4:	777b      	strb	r3, [r7, #29]
 8004eb6:	7f7b      	ldrb	r3, [r7, #29]
 8004eb8:	2b00      	cmp	r3, #0
 8004eba:	f040 822c 	bne.w	8005316 <stm32__i2c__mem_read+0x60a>
 8004ebe:	697b      	ldr	r3, [r7, #20]
 8004ec0:	685b      	ldr	r3, [r3, #4]
 8004ec2:	3328      	adds	r3, #40	; 0x28
 8004ec4:	681b      	ldr	r3, [r3, #0]
 8004ec6:	7fba      	ldrb	r2, [r7, #30]
 8004ec8:	f362 0307 	bfi	r3, r2, #0, #8
 8004ecc:	697a      	ldr	r2, [r7, #20]
 8004ece:	6852      	ldr	r2, [r2, #4]
 8004ed0:	3228      	adds	r2, #40	; 0x28
 8004ed2:	6013      	str	r3, [r2, #0]
 8004ed4:	697b      	ldr	r3, [r7, #20]
 8004ed6:	685b      	ldr	r3, [r3, #4]
 8004ed8:	3318      	adds	r3, #24
 8004eda:	681b      	ldr	r3, [r3, #0]
 8004edc:	b2db      	uxtb	r3, r3
 8004ede:	f003 0340 	and.w	r3, r3, #64	; 0x40
 8004ee2:	b2db      	uxtb	r3, r3
 8004ee4:	2b00      	cmp	r3, #0
 8004ee6:	d101      	bne.n	8004eec <stm32__i2c__mem_read+0x1e0>
 8004ee8:	bf00      	nop
 8004eea:	e7f3      	b.n	8004ed4 <stm32__i2c__mem_read+0x1c8>
 8004eec:	687b      	ldr	r3, [r7, #4]
 8004eee:	681b      	ldr	r3, [r3, #0]
 8004ef0:	ea4f 74e3 	mov.w	r4, r3, asr #31
 8004ef4:	f113 01fe 	adds.w	r1, r3, #254	; 0xfe
 8004ef8:	f144 0200 	adc.w	r2, r4, #0
 8004efc:	687b      	ldr	r3, [r7, #4]
 8004efe:	685b      	ldr	r3, [r3, #4]
 8004f00:	ea4f 74e3 	mov.w	r4, r3, asr #31
 8004f04:	4299      	cmp	r1, r3
 8004f06:	eb72 0304 	sbcs.w	r3, r2, r4
 8004f0a:	da0a      	bge.n	8004f22 <stm32__i2c__mem_read+0x216>
 8004f0c:	8a79      	ldrh	r1, [r7, #18]
 8004f0e:	2302      	movs	r3, #2
 8004f10:	9300      	str	r3, [sp, #0]
 8004f12:	2300      	movs	r3, #0
 8004f14:	22ff      	movs	r2, #255	; 0xff
 8004f16:	6978      	ldr	r0, [r7, #20]
 8004f18:	f7fe fb2a 	bl	8003570 <stm32__i2c__config_transfer>
 8004f1c:	23ff      	movs	r3, #255	; 0xff
 8004f1e:	62bb      	str	r3, [r7, #40]	; 0x28
 8004f20:	e060      	b.n	8004fe4 <stm32__i2c__mem_read+0x2d8>
 8004f22:	687b      	ldr	r3, [r7, #4]
 8004f24:	681b      	ldr	r3, [r3, #0]
 8004f26:	ea4f 74e3 	mov.w	r4, r3, asr #31
 8004f2a:	f113 01fe 	adds.w	r1, r3, #254	; 0xfe
 8004f2e:	f144 0200 	adc.w	r2, r4, #0
 8004f32:	687b      	ldr	r3, [r7, #4]
 8004f34:	685b      	ldr	r3, [r3, #4]
 8004f36:	ea4f 74e3 	mov.w	r4, r3, asr #31
 8004f3a:	4299      	cmp	r1, r3
 8004f3c:	eb72 0304 	sbcs.w	r3, r2, r4
 8004f40:	da04      	bge.n	8004f4c <stm32__i2c__mem_read+0x240>
 8004f42:	f240 3163 	movw	r1, #867	; 0x363
 8004f46:	4822      	ldr	r0, [pc, #136]	; (8004fd0 <stm32__i2c__mem_read+0x2c4>)
 8004f48:	f004 f88c 	bl	8009064 <__gnat_rcheck_CE_Range_Check>
 8004f4c:	687b      	ldr	r3, [r7, #4]
 8004f4e:	685a      	ldr	r2, [r3, #4]
 8004f50:	687b      	ldr	r3, [r7, #4]
 8004f52:	681b      	ldr	r3, [r3, #0]
 8004f54:	429a      	cmp	r2, r3
 8004f56:	db0a      	blt.n	8004f6e <stm32__i2c__mem_read+0x262>
 8004f58:	687b      	ldr	r3, [r7, #4]
 8004f5a:	685b      	ldr	r3, [r3, #4]
 8004f5c:	b2da      	uxtb	r2, r3
 8004f5e:	687b      	ldr	r3, [r7, #4]
 8004f60:	681b      	ldr	r3, [r3, #0]
 8004f62:	b2db      	uxtb	r3, r3
 8004f64:	1ad3      	subs	r3, r2, r3
 8004f66:	b2db      	uxtb	r3, r3
 8004f68:	3301      	adds	r3, #1
 8004f6a:	b2da      	uxtb	r2, r3
 8004f6c:	e000      	b.n	8004f70 <stm32__i2c__mem_read+0x264>
 8004f6e:	2200      	movs	r2, #0
 8004f70:	8a79      	ldrh	r1, [r7, #18]
 8004f72:	2302      	movs	r3, #2
 8004f74:	9300      	str	r3, [sp, #0]
 8004f76:	2301      	movs	r3, #1
 8004f78:	6978      	ldr	r0, [r7, #20]
 8004f7a:	f7fe faf9 	bl	8003570 <stm32__i2c__config_transfer>
 8004f7e:	687b      	ldr	r3, [r7, #4]
 8004f80:	681b      	ldr	r3, [r3, #0]
 8004f82:	ea4f 74e3 	mov.w	r4, r3, asr #31
 8004f86:	4915      	ldr	r1, [pc, #84]	; (8004fdc <stm32__i2c__mem_read+0x2d0>)
 8004f88:	f04f 0200 	mov.w	r2, #0
 8004f8c:	eb11 0b03 	adds.w	fp, r1, r3
 8004f90:	eb42 0c04 	adc.w	ip, r2, r4
 8004f94:	687b      	ldr	r3, [r7, #4]
 8004f96:	685b      	ldr	r3, [r3, #4]
 8004f98:	ea4f 74e3 	mov.w	r4, r3, asr #31
 8004f9c:	459b      	cmp	fp, r3
 8004f9e:	eb7c 0304 	sbcs.w	r3, ip, r4
 8004fa2:	da04      	bge.n	8004fae <stm32__i2c__mem_read+0x2a2>
 8004fa4:	f44f 7159 	mov.w	r1, #868	; 0x364
 8004fa8:	4809      	ldr	r0, [pc, #36]	; (8004fd0 <stm32__i2c__mem_read+0x2c4>)
 8004faa:	f004 f85b 	bl	8009064 <__gnat_rcheck_CE_Range_Check>
 8004fae:	687b      	ldr	r3, [r7, #4]
 8004fb0:	685a      	ldr	r2, [r3, #4]
 8004fb2:	687b      	ldr	r3, [r7, #4]
 8004fb4:	681b      	ldr	r3, [r3, #0]
 8004fb6:	429a      	cmp	r2, r3
 8004fb8:	db12      	blt.n	8004fe0 <stm32__i2c__mem_read+0x2d4>
 8004fba:	687b      	ldr	r3, [r7, #4]
 8004fbc:	685b      	ldr	r3, [r3, #4]
 8004fbe:	461a      	mov	r2, r3
 8004fc0:	687b      	ldr	r3, [r7, #4]
 8004fc2:	681b      	ldr	r3, [r3, #0]
 8004fc4:	1ad3      	subs	r3, r2, r3
 8004fc6:	3301      	adds	r3, #1
 8004fc8:	e00b      	b.n	8004fe2 <stm32__i2c__mem_read+0x2d6>
 8004fca:	bf00      	nop
 8004fcc:	2000003c 	.word	0x2000003c
 8004fd0:	0800d5e8 	.word	0x0800d5e8
 8004fd4:	0800d6dc 	.word	0x0800d6dc
 8004fd8:	0800d5e0 	.word	0x0800d5e0
 8004fdc:	7ffffffe 	.word	0x7ffffffe
 8004fe0:	2300      	movs	r3, #0
 8004fe2:	62bb      	str	r3, [r7, #40]	; 0x28
 8004fe4:	687b      	ldr	r3, [r7, #4]
 8004fe6:	681b      	ldr	r3, [r3, #0]
 8004fe8:	ea4f 74e3 	mov.w	r4, r3, asr #31
 8004fec:	49aa      	ldr	r1, [pc, #680]	; (8005298 <stm32__i2c__mem_read+0x58c>)
 8004fee:	f04f 0200 	mov.w	r2, #0
 8004ff2:	eb11 0b03 	adds.w	fp, r1, r3
 8004ff6:	eb42 0c04 	adc.w	ip, r2, r4
 8004ffa:	687b      	ldr	r3, [r7, #4]
 8004ffc:	685b      	ldr	r3, [r3, #4]
 8004ffe:	ea4f 74e3 	mov.w	r4, r3, asr #31
 8005002:	459b      	cmp	fp, r3
 8005004:	eb7c 0304 	sbcs.w	r3, ip, r4
 8005008:	da04      	bge.n	8005014 <stm32__i2c__mem_read+0x308>
 800500a:	f44f 715a 	mov.w	r1, #872	; 0x368
 800500e:	48a3      	ldr	r0, [pc, #652]	; (800529c <stm32__i2c__mem_read+0x590>)
 8005010:	f004 f828 	bl	8009064 <__gnat_rcheck_CE_Range_Check>
 8005014:	687b      	ldr	r3, [r7, #4]
 8005016:	685a      	ldr	r2, [r3, #4]
 8005018:	687b      	ldr	r3, [r7, #4]
 800501a:	681b      	ldr	r3, [r3, #0]
 800501c:	429a      	cmp	r2, r3
 800501e:	db08      	blt.n	8005032 <stm32__i2c__mem_read+0x326>
 8005020:	687b      	ldr	r3, [r7, #4]
 8005022:	685b      	ldr	r3, [r3, #4]
 8005024:	461a      	mov	r2, r3
 8005026:	687b      	ldr	r3, [r7, #4]
 8005028:	681b      	ldr	r3, [r3, #0]
 800502a:	1ad3      	subs	r3, r2, r3
 800502c:	3301      	adds	r3, #1
 800502e:	461a      	mov	r2, r3
 8005030:	e000      	b.n	8005034 <stm32__i2c__mem_read+0x328>
 8005032:	2200      	movs	r2, #0
 8005034:	6afb      	ldr	r3, [r7, #44]	; 0x2c
 8005036:	429a      	cmp	r2, r3
 8005038:	f340 8159 	ble.w	80052ee <stm32__i2c__mem_read+0x5e2>
 800503c:	697b      	ldr	r3, [r7, #20]
 800503e:	685b      	ldr	r3, [r3, #4]
 8005040:	3318      	adds	r3, #24
 8005042:	681b      	ldr	r3, [r3, #0]
 8005044:	b2db      	uxtb	r3, r3
 8005046:	f003 0304 	and.w	r3, r3, #4
 800504a:	b2db      	uxtb	r3, r3
 800504c:	2b00      	cmp	r3, #0
 800504e:	d101      	bne.n	8005054 <stm32__i2c__mem_read+0x348>
 8005050:	bf00      	nop
 8005052:	e7f3      	b.n	800503c <stm32__i2c__mem_read+0x330>
 8005054:	687b      	ldr	r3, [r7, #4]
 8005056:	681a      	ldr	r2, [r3, #0]
 8005058:	2100      	movs	r1, #0
 800505a:	6afb      	ldr	r3, [r7, #44]	; 0x2c
 800505c:	18d3      	adds	r3, r2, r3
 800505e:	d700      	bvc.n	8005062 <stm32__i2c__mem_read+0x356>
 8005060:	2101      	movs	r1, #1
 8005062:	461a      	mov	r2, r3
 8005064:	460b      	mov	r3, r1
 8005066:	2b00      	cmp	r3, #0
 8005068:	d004      	beq.n	8005074 <stm32__i2c__mem_read+0x368>
 800506a:	f240 316d 	movw	r1, #877	; 0x36d
 800506e:	488b      	ldr	r0, [pc, #556]	; (800529c <stm32__i2c__mem_read+0x590>)
 8005070:	f003 fff0 	bl	8009054 <__gnat_rcheck_CE_Overflow_Check>
 8005074:	4613      	mov	r3, r2
 8005076:	687a      	ldr	r2, [r7, #4]
 8005078:	6812      	ldr	r2, [r2, #0]
 800507a:	4293      	cmp	r3, r2
 800507c:	db03      	blt.n	8005086 <stm32__i2c__mem_read+0x37a>
 800507e:	687a      	ldr	r2, [r7, #4]
 8005080:	6852      	ldr	r2, [r2, #4]
 8005082:	4293      	cmp	r3, r2
 8005084:	dd04      	ble.n	8005090 <stm32__i2c__mem_read+0x384>
 8005086:	f240 316d 	movw	r1, #877	; 0x36d
 800508a:	4884      	ldr	r0, [pc, #528]	; (800529c <stm32__i2c__mem_read+0x590>)
 800508c:	f003 ffd2 	bl	8009034 <__gnat_rcheck_CE_Index_Check>
 8005090:	697a      	ldr	r2, [r7, #20]
 8005092:	6852      	ldr	r2, [r2, #4]
 8005094:	3224      	adds	r2, #36	; 0x24
 8005096:	6811      	ldr	r1, [r2, #0]
 8005098:	683a      	ldr	r2, [r7, #0]
 800509a:	b2c9      	uxtb	r1, r1
 800509c:	1b9b      	subs	r3, r3, r6
 800509e:	54d1      	strb	r1, [r2, r3]
 80050a0:	6afb      	ldr	r3, [r7, #44]	; 0x2c
 80050a2:	f06f 4200 	mvn.w	r2, #2147483648	; 0x80000000
 80050a6:	4293      	cmp	r3, r2
 80050a8:	d104      	bne.n	80050b4 <stm32__i2c__mem_read+0x3a8>
 80050aa:	f240 316e 	movw	r1, #878	; 0x36e
 80050ae:	487b      	ldr	r0, [pc, #492]	; (800529c <stm32__i2c__mem_read+0x590>)
 80050b0:	f003 ffd0 	bl	8009054 <__gnat_rcheck_CE_Overflow_Check>
 80050b4:	6afb      	ldr	r3, [r7, #44]	; 0x2c
 80050b6:	3301      	adds	r3, #1
 80050b8:	62fb      	str	r3, [r7, #44]	; 0x2c
 80050ba:	6abb      	ldr	r3, [r7, #40]	; 0x28
 80050bc:	3b01      	subs	r3, #1
 80050be:	2b00      	cmp	r3, #0
 80050c0:	da04      	bge.n	80050cc <stm32__i2c__mem_read+0x3c0>
 80050c2:	f240 316f 	movw	r1, #879	; 0x36f
 80050c6:	4875      	ldr	r0, [pc, #468]	; (800529c <stm32__i2c__mem_read+0x590>)
 80050c8:	f003 ffcc 	bl	8009064 <__gnat_rcheck_CE_Range_Check>
 80050cc:	62bb      	str	r3, [r7, #40]	; 0x28
 80050ce:	6abb      	ldr	r3, [r7, #40]	; 0x28
 80050d0:	2b00      	cmp	r3, #0
 80050d2:	d187      	bne.n	8004fe4 <stm32__i2c__mem_read+0x2d8>
 80050d4:	687b      	ldr	r3, [r7, #4]
 80050d6:	681b      	ldr	r3, [r3, #0]
 80050d8:	ea4f 74e3 	mov.w	r4, r3, asr #31
 80050dc:	496e      	ldr	r1, [pc, #440]	; (8005298 <stm32__i2c__mem_read+0x58c>)
 80050de:	f04f 0200 	mov.w	r2, #0
 80050e2:	eb11 0b03 	adds.w	fp, r1, r3
 80050e6:	eb42 0c04 	adc.w	ip, r2, r4
 80050ea:	687b      	ldr	r3, [r7, #4]
 80050ec:	685b      	ldr	r3, [r3, #4]
 80050ee:	ea4f 74e3 	mov.w	r4, r3, asr #31
 80050f2:	459b      	cmp	fp, r3
 80050f4:	eb7c 0304 	sbcs.w	r3, ip, r4
 80050f8:	da04      	bge.n	8005104 <stm32__i2c__mem_read+0x3f8>
 80050fa:	f240 3172 	movw	r1, #882	; 0x372
 80050fe:	4867      	ldr	r0, [pc, #412]	; (800529c <stm32__i2c__mem_read+0x590>)
 8005100:	f003 ffb0 	bl	8009064 <__gnat_rcheck_CE_Range_Check>
 8005104:	687b      	ldr	r3, [r7, #4]
 8005106:	685a      	ldr	r2, [r3, #4]
 8005108:	687b      	ldr	r3, [r7, #4]
 800510a:	681b      	ldr	r3, [r3, #0]
 800510c:	429a      	cmp	r2, r3
 800510e:	db08      	blt.n	8005122 <stm32__i2c__mem_read+0x416>
 8005110:	687b      	ldr	r3, [r7, #4]
 8005112:	685b      	ldr	r3, [r3, #4]
 8005114:	461a      	mov	r2, r3
 8005116:	687b      	ldr	r3, [r7, #4]
 8005118:	681b      	ldr	r3, [r3, #0]
 800511a:	1ad3      	subs	r3, r2, r3
 800511c:	3301      	adds	r3, #1
 800511e:	461a      	mov	r2, r3
 8005120:	e000      	b.n	8005124 <stm32__i2c__mem_read+0x418>
 8005122:	2200      	movs	r2, #0
 8005124:	6afb      	ldr	r3, [r7, #44]	; 0x2c
 8005126:	429a      	cmp	r2, r3
 8005128:	bfcc      	ite	gt
 800512a:	2301      	movgt	r3, #1
 800512c:	2300      	movle	r3, #0
 800512e:	b2db      	uxtb	r3, r3
 8005130:	2b00      	cmp	r3, #0
 8005132:	f43f af57 	beq.w	8004fe4 <stm32__i2c__mem_read+0x2d8>
 8005136:	697b      	ldr	r3, [r7, #20]
 8005138:	685b      	ldr	r3, [r3, #4]
 800513a:	3318      	adds	r3, #24
 800513c:	681b      	ldr	r3, [r3, #0]
 800513e:	b2db      	uxtb	r3, r3
 8005140:	b25b      	sxtb	r3, r3
 8005142:	2b00      	cmp	r3, #0
 8005144:	db01      	blt.n	800514a <stm32__i2c__mem_read+0x43e>
 8005146:	bf00      	nop
 8005148:	e7f5      	b.n	8005136 <stm32__i2c__mem_read+0x42a>
 800514a:	687b      	ldr	r3, [r7, #4]
 800514c:	681b      	ldr	r3, [r3, #0]
 800514e:	ea4f 74e3 	mov.w	r4, r3, asr #31
 8005152:	4951      	ldr	r1, [pc, #324]	; (8005298 <stm32__i2c__mem_read+0x58c>)
 8005154:	f04f 0200 	mov.w	r2, #0
 8005158:	eb11 0b03 	adds.w	fp, r1, r3
 800515c:	eb42 0c04 	adc.w	ip, r2, r4
 8005160:	687b      	ldr	r3, [r7, #4]
 8005162:	685b      	ldr	r3, [r3, #4]
 8005164:	ea4f 74e3 	mov.w	r4, r3, asr #31
 8005168:	459b      	cmp	fp, r3
 800516a:	eb7c 0304 	sbcs.w	r3, ip, r4
 800516e:	da04      	bge.n	800517a <stm32__i2c__mem_read+0x46e>
 8005170:	f240 3179 	movw	r1, #889	; 0x379
 8005174:	4849      	ldr	r0, [pc, #292]	; (800529c <stm32__i2c__mem_read+0x590>)
 8005176:	f003 ff75 	bl	8009064 <__gnat_rcheck_CE_Range_Check>
 800517a:	687b      	ldr	r3, [r7, #4]
 800517c:	685a      	ldr	r2, [r3, #4]
 800517e:	687b      	ldr	r3, [r7, #4]
 8005180:	681b      	ldr	r3, [r3, #0]
 8005182:	429a      	cmp	r2, r3
 8005184:	db07      	blt.n	8005196 <stm32__i2c__mem_read+0x48a>
 8005186:	687b      	ldr	r3, [r7, #4]
 8005188:	685b      	ldr	r3, [r3, #4]
 800518a:	461a      	mov	r2, r3
 800518c:	687b      	ldr	r3, [r7, #4]
 800518e:	681b      	ldr	r3, [r3, #0]
 8005190:	1ad3      	subs	r3, r2, r3
 8005192:	3301      	adds	r3, #1
 8005194:	e000      	b.n	8005198 <stm32__i2c__mem_read+0x48c>
 8005196:	2300      	movs	r3, #0
 8005198:	2100      	movs	r1, #0
 800519a:	6afa      	ldr	r2, [r7, #44]	; 0x2c
 800519c:	1a9b      	subs	r3, r3, r2
 800519e:	d700      	bvc.n	80051a2 <stm32__i2c__mem_read+0x496>
 80051a0:	2101      	movs	r1, #1
 80051a2:	461a      	mov	r2, r3
 80051a4:	460b      	mov	r3, r1
 80051a6:	2b00      	cmp	r3, #0
 80051a8:	d004      	beq.n	80051b4 <stm32__i2c__mem_read+0x4a8>
 80051aa:	f240 3179 	movw	r1, #889	; 0x379
 80051ae:	483b      	ldr	r0, [pc, #236]	; (800529c <stm32__i2c__mem_read+0x590>)
 80051b0:	f003 ff50 	bl	8009054 <__gnat_rcheck_CE_Overflow_Check>
 80051b4:	4613      	mov	r3, r2
 80051b6:	2bff      	cmp	r3, #255	; 0xff
 80051b8:	bfcc      	ite	gt
 80051ba:	2301      	movgt	r3, #1
 80051bc:	2300      	movle	r3, #0
 80051be:	b2db      	uxtb	r3, r3
 80051c0:	2b00      	cmp	r3, #0
 80051c2:	d00a      	beq.n	80051da <stm32__i2c__mem_read+0x4ce>
 80051c4:	8a79      	ldrh	r1, [r7, #18]
 80051c6:	2300      	movs	r3, #0
 80051c8:	9300      	str	r3, [sp, #0]
 80051ca:	2300      	movs	r3, #0
 80051cc:	22ff      	movs	r2, #255	; 0xff
 80051ce:	6978      	ldr	r0, [r7, #20]
 80051d0:	f7fe f9ce 	bl	8003570 <stm32__i2c__config_transfer>
 80051d4:	23ff      	movs	r3, #255	; 0xff
 80051d6:	62bb      	str	r3, [r7, #40]	; 0x28
 80051d8:	e704      	b.n	8004fe4 <stm32__i2c__mem_read+0x2d8>
 80051da:	687b      	ldr	r3, [r7, #4]
 80051dc:	681b      	ldr	r3, [r3, #0]
 80051de:	ea4f 74e3 	mov.w	r4, r3, asr #31
 80051e2:	492d      	ldr	r1, [pc, #180]	; (8005298 <stm32__i2c__mem_read+0x58c>)
 80051e4:	f04f 0200 	mov.w	r2, #0
 80051e8:	eb11 0b03 	adds.w	fp, r1, r3
 80051ec:	eb42 0c04 	adc.w	ip, r2, r4
 80051f0:	687b      	ldr	r3, [r7, #4]
 80051f2:	685b      	ldr	r3, [r3, #4]
 80051f4:	ea4f 74e3 	mov.w	r4, r3, asr #31
 80051f8:	459b      	cmp	fp, r3
 80051fa:	eb7c 0304 	sbcs.w	r3, ip, r4
 80051fe:	da04      	bge.n	800520a <stm32__i2c__mem_read+0x4fe>
 8005200:	f44f 7160 	mov.w	r1, #896	; 0x380
 8005204:	4825      	ldr	r0, [pc, #148]	; (800529c <stm32__i2c__mem_read+0x590>)
 8005206:	f003 ff2d 	bl	8009064 <__gnat_rcheck_CE_Range_Check>
 800520a:	687b      	ldr	r3, [r7, #4]
 800520c:	685a      	ldr	r2, [r3, #4]
 800520e:	687b      	ldr	r3, [r7, #4]
 8005210:	681b      	ldr	r3, [r3, #0]
 8005212:	429a      	cmp	r2, r3
 8005214:	db07      	blt.n	8005226 <stm32__i2c__mem_read+0x51a>
 8005216:	687b      	ldr	r3, [r7, #4]
 8005218:	685b      	ldr	r3, [r3, #4]
 800521a:	461a      	mov	r2, r3
 800521c:	687b      	ldr	r3, [r7, #4]
 800521e:	681b      	ldr	r3, [r3, #0]
 8005220:	1ad3      	subs	r3, r2, r3
 8005222:	3301      	adds	r3, #1
 8005224:	e000      	b.n	8005228 <stm32__i2c__mem_read+0x51c>
 8005226:	2300      	movs	r3, #0
 8005228:	2100      	movs	r1, #0
 800522a:	6afa      	ldr	r2, [r7, #44]	; 0x2c
 800522c:	1a9b      	subs	r3, r3, r2
 800522e:	d700      	bvc.n	8005232 <stm32__i2c__mem_read+0x526>
 8005230:	2101      	movs	r1, #1
 8005232:	461a      	mov	r2, r3
 8005234:	460b      	mov	r3, r1
 8005236:	2b00      	cmp	r3, #0
 8005238:	d004      	beq.n	8005244 <stm32__i2c__mem_read+0x538>
 800523a:	f44f 7160 	mov.w	r1, #896	; 0x380
 800523e:	4817      	ldr	r0, [pc, #92]	; (800529c <stm32__i2c__mem_read+0x590>)
 8005240:	f003 ff08 	bl	8009054 <__gnat_rcheck_CE_Overflow_Check>
 8005244:	4613      	mov	r3, r2
 8005246:	2b00      	cmp	r3, #0
 8005248:	db01      	blt.n	800524e <stm32__i2c__mem_read+0x542>
 800524a:	2bff      	cmp	r3, #255	; 0xff
 800524c:	dd04      	ble.n	8005258 <stm32__i2c__mem_read+0x54c>
 800524e:	f44f 7160 	mov.w	r1, #896	; 0x380
 8005252:	4812      	ldr	r0, [pc, #72]	; (800529c <stm32__i2c__mem_read+0x590>)
 8005254:	f003 ff06 	bl	8009064 <__gnat_rcheck_CE_Range_Check>
 8005258:	b2da      	uxtb	r2, r3
 800525a:	8a79      	ldrh	r1, [r7, #18]
 800525c:	2300      	movs	r3, #0
 800525e:	9300      	str	r3, [sp, #0]
 8005260:	2301      	movs	r3, #1
 8005262:	6978      	ldr	r0, [r7, #20]
 8005264:	f7fe f984 	bl	8003570 <stm32__i2c__config_transfer>
 8005268:	687b      	ldr	r3, [r7, #4]
 800526a:	681b      	ldr	r3, [r3, #0]
 800526c:	ea4f 74e3 	mov.w	r4, r3, asr #31
 8005270:	4909      	ldr	r1, [pc, #36]	; (8005298 <stm32__i2c__mem_read+0x58c>)
 8005272:	f04f 0200 	mov.w	r2, #0
 8005276:	eb11 0b03 	adds.w	fp, r1, r3
 800527a:	eb42 0c04 	adc.w	ip, r2, r4
 800527e:	687b      	ldr	r3, [r7, #4]
 8005280:	685b      	ldr	r3, [r3, #4]
 8005282:	ea4f 74e3 	mov.w	r4, r3, asr #31
 8005286:	459b      	cmp	fp, r3
 8005288:	eb7c 0304 	sbcs.w	r3, ip, r4
 800528c:	da08      	bge.n	80052a0 <stm32__i2c__mem_read+0x594>
 800528e:	f240 3183 	movw	r1, #899	; 0x383
 8005292:	4802      	ldr	r0, [pc, #8]	; (800529c <stm32__i2c__mem_read+0x590>)
 8005294:	f003 fee6 	bl	8009064 <__gnat_rcheck_CE_Range_Check>
 8005298:	7ffffffe 	.word	0x7ffffffe
 800529c:	0800d5e8 	.word	0x0800d5e8
 80052a0:	687b      	ldr	r3, [r7, #4]
 80052a2:	685a      	ldr	r2, [r3, #4]
 80052a4:	687b      	ldr	r3, [r7, #4]
 80052a6:	681b      	ldr	r3, [r3, #0]
 80052a8:	429a      	cmp	r2, r3
 80052aa:	db07      	blt.n	80052bc <stm32__i2c__mem_read+0x5b0>
 80052ac:	687b      	ldr	r3, [r7, #4]
 80052ae:	685b      	ldr	r3, [r3, #4]
 80052b0:	461a      	mov	r2, r3
 80052b2:	687b      	ldr	r3, [r7, #4]
 80052b4:	681b      	ldr	r3, [r3, #0]
 80052b6:	1ad3      	subs	r3, r2, r3
 80052b8:	3301      	adds	r3, #1
 80052ba:	e000      	b.n	80052be <stm32__i2c__mem_read+0x5b2>
 80052bc:	2300      	movs	r3, #0
 80052be:	2100      	movs	r1, #0
 80052c0:	6afa      	ldr	r2, [r7, #44]	; 0x2c
 80052c2:	1a9b      	subs	r3, r3, r2
 80052c4:	d700      	bvc.n	80052c8 <stm32__i2c__mem_read+0x5bc>
 80052c6:	2101      	movs	r1, #1
 80052c8:	461a      	mov	r2, r3
 80052ca:	460b      	mov	r3, r1
 80052cc:	2b00      	cmp	r3, #0
 80052ce:	d004      	beq.n	80052da <stm32__i2c__mem_read+0x5ce>
 80052d0:	f240 3183 	movw	r1, #899	; 0x383
 80052d4:	4815      	ldr	r0, [pc, #84]	; (800532c <stm32__i2c__mem_read+0x620>)
 80052d6:	f003 febd 	bl	8009054 <__gnat_rcheck_CE_Overflow_Check>
 80052da:	4613      	mov	r3, r2
 80052dc:	2b00      	cmp	r3, #0
 80052de:	da04      	bge.n	80052ea <stm32__i2c__mem_read+0x5de>
 80052e0:	f240 3183 	movw	r1, #899	; 0x383
 80052e4:	4811      	ldr	r0, [pc, #68]	; (800532c <stm32__i2c__mem_read+0x620>)
 80052e6:	f003 febd 	bl	8009064 <__gnat_rcheck_CE_Range_Check>
 80052ea:	62bb      	str	r3, [r7, #40]	; 0x28
 80052ec:	e67a      	b.n	8004fe4 <stm32__i2c__mem_read+0x2d8>
 80052ee:	6d39      	ldr	r1, [r7, #80]	; 0x50
 80052f0:	6978      	ldr	r0, [r7, #20]
 80052f2:	f7fe fb03 	bl	80038fc <stm32__i2c__wait_stop_flag>
 80052f6:	4603      	mov	r3, r0
 80052f8:	777b      	strb	r3, [r7, #29]
 80052fa:	7f7b      	ldrb	r3, [r7, #29]
 80052fc:	2b00      	cmp	r3, #0
 80052fe:	d10c      	bne.n	800531a <stm32__i2c__mem_read+0x60e>
 8005300:	6978      	ldr	r0, [r7, #20]
 8005302:	f7fe f9ad 	bl	8003660 <stm32__i2c__reset_config>
 8005306:	697b      	ldr	r3, [r7, #20]
 8005308:	2201      	movs	r2, #1
 800530a:	751a      	strb	r2, [r3, #20]
 800530c:	2300      	movs	r3, #0
 800530e:	777b      	strb	r3, [r7, #29]
 8005310:	e004      	b.n	800531c <stm32__i2c__mem_read+0x610>
 8005312:	bf00      	nop
 8005314:	e002      	b.n	800531c <stm32__i2c__mem_read+0x610>
 8005316:	bf00      	nop
 8005318:	e000      	b.n	800531c <stm32__i2c__mem_read+0x610>
 800531a:	bf00      	nop
 800531c:	7f7b      	ldrb	r3, [r7, #29]
 800531e:	bf00      	nop
 8005320:	4618      	mov	r0, r3
 8005322:	3730      	adds	r7, #48	; 0x30
 8005324:	46bd      	mov	sp, r7
 8005326:	e8bd 88f0 	ldmia.w	sp!, {r4, r5, r6, r7, fp, pc}
 800532a:	bf00      	nop
 800532c:	0800d5e8 	.word	0x0800d5e8

08005330 <stm32__i2c___elabb>:
 8005330:	b480      	push	{r7}
 8005332:	af00      	add	r7, sp, #0
 8005334:	4b0c      	ldr	r3, [pc, #48]	; (8005368 <stm32__i2c___elabb+0x38>)
 8005336:	2201      	movs	r2, #1
 8005338:	701a      	strb	r2, [r3, #0]
 800533a:	4b0c      	ldr	r3, [pc, #48]	; (800536c <stm32__i2c___elabb+0x3c>)
 800533c:	2201      	movs	r2, #1
 800533e:	701a      	strb	r2, [r3, #0]
 8005340:	4b0b      	ldr	r3, [pc, #44]	; (8005370 <stm32__i2c___elabb+0x40>)
 8005342:	2201      	movs	r2, #1
 8005344:	701a      	strb	r2, [r3, #0]
 8005346:	4b0b      	ldr	r3, [pc, #44]	; (8005374 <stm32__i2c___elabb+0x44>)
 8005348:	2201      	movs	r2, #1
 800534a:	701a      	strb	r2, [r3, #0]
 800534c:	4b0a      	ldr	r3, [pc, #40]	; (8005378 <stm32__i2c___elabb+0x48>)
 800534e:	2201      	movs	r2, #1
 8005350:	701a      	strb	r2, [r3, #0]
 8005352:	4b0a      	ldr	r3, [pc, #40]	; (800537c <stm32__i2c___elabb+0x4c>)
 8005354:	2201      	movs	r2, #1
 8005356:	701a      	strb	r2, [r3, #0]
 8005358:	4b09      	ldr	r3, [pc, #36]	; (8005380 <stm32__i2c___elabb+0x50>)
 800535a:	2201      	movs	r2, #1
 800535c:	701a      	strb	r2, [r3, #0]
 800535e:	46bd      	mov	sp, r7
 8005360:	f85d 7b04 	ldr.w	r7, [sp], #4
 8005364:	4770      	bx	lr
 8005366:	bf00      	nop
 8005368:	20000036 	.word	0x20000036
 800536c:	20000037 	.word	0x20000037
 8005370:	20000038 	.word	0x20000038
 8005374:	20000039 	.word	0x20000039
 8005378:	2000003a 	.word	0x2000003a
 800537c:	2000003b 	.word	0x2000003b
 8005380:	2000003c 	.word	0x2000003c

08005384 <stm32__i2c___elabs>:
 8005384:	b580      	push	{r7, lr}
 8005386:	af00      	add	r7, sp, #0
 8005388:	4803      	ldr	r0, [pc, #12]	; (8005398 <stm32__i2c___elabs+0x14>)
 800538a:	f003 ff7d 	bl	8009288 <ada__tags__check_tsd>
 800538e:	4b03      	ldr	r3, [pc, #12]	; (800539c <stm32__i2c___elabs+0x18>)
 8005390:	4618      	mov	r0, r3
 8005392:	f003 ffc1 	bl	8009318 <ada__tags__register_tag>
 8005396:	bd80      	pop	{r7, pc}
 8005398:	0800d734 	.word	0x0800d734
 800539c:	0800d7a4 	.word	0x0800d7a4

080053a0 <stm32__spi__spi_portIP>:
 80053a0:	b480      	push	{r7}
 80053a2:	b085      	sub	sp, #20
 80053a4:	af00      	add	r7, sp, #0
 80053a6:	60f8      	str	r0, [r7, #12]
 80053a8:	60b9      	str	r1, [r7, #8]
 80053aa:	4613      	mov	r3, r2
 80053ac:	71fb      	strb	r3, [r7, #7]
 80053ae:	79fb      	ldrb	r3, [r7, #7]
 80053b0:	2b00      	cmp	r3, #0
 80053b2:	d002      	beq.n	80053ba <stm32__spi__spi_portIP+0x1a>
 80053b4:	4a05      	ldr	r2, [pc, #20]	; (80053cc <stm32__spi__spi_portIP+0x2c>)
 80053b6:	68fb      	ldr	r3, [r7, #12]
 80053b8:	601a      	str	r2, [r3, #0]
 80053ba:	68fb      	ldr	r3, [r7, #12]
 80053bc:	68ba      	ldr	r2, [r7, #8]
 80053be:	605a      	str	r2, [r3, #4]
 80053c0:	3714      	adds	r7, #20
 80053c2:	46bd      	mov	sp, r7
 80053c4:	f85d 7b04 	ldr.w	r7, [sp], #4
 80053c8:	4770      	bx	lr
 80053ca:	bf00      	nop
 80053cc:	0800d97c 	.word	0x0800d97c

080053d0 <stm32__spi___size__2>:
 80053d0:	b490      	push	{r4, r7}
 80053d2:	b082      	sub	sp, #8
 80053d4:	af00      	add	r7, sp, #0
 80053d6:	6078      	str	r0, [r7, #4]
 80053d8:	f04f 0340 	mov.w	r3, #64	; 0x40
 80053dc:	f04f 0400 	mov.w	r4, #0
 80053e0:	4618      	mov	r0, r3
 80053e2:	4621      	mov	r1, r4
 80053e4:	3708      	adds	r7, #8
 80053e6:	46bd      	mov	sp, r7
 80053e8:	bc90      	pop	{r4, r7}
 80053ea:	4770      	bx	lr

080053ec <stm32__spi__spi_portDF__2>:
 80053ec:	b480      	push	{r7}
 80053ee:	b083      	sub	sp, #12
 80053f0:	af00      	add	r7, sp, #0
 80053f2:	6078      	str	r0, [r7, #4]
 80053f4:	460b      	mov	r3, r1
 80053f6:	70fb      	strb	r3, [r7, #3]
 80053f8:	370c      	adds	r7, #12
 80053fa:	46bd      	mov	sp, r7
 80053fc:	f85d 7b04 	ldr.w	r7, [sp], #4
 8005400:	4770      	bx	lr
 8005402:	bf00      	nop

08005404 <stm32__spi__configure>:
 8005404:	b580      	push	{r7, lr}
 8005406:	b082      	sub	sp, #8
 8005408:	af00      	add	r7, sp, #0
 800540a:	6078      	str	r0, [r7, #4]
 800540c:	6039      	str	r1, [r7, #0]
 800540e:	4b8d      	ldr	r3, [pc, #564]	; (8005644 <stm32__spi__configure+0x240>)
 8005410:	781b      	ldrb	r3, [r3, #0]
 8005412:	f083 0301 	eor.w	r3, r3, #1
 8005416:	b2db      	uxtb	r3, r3
 8005418:	2b00      	cmp	r3, #0
 800541a:	d003      	beq.n	8005424 <stm32__spi__configure+0x20>
 800541c:	2148      	movs	r1, #72	; 0x48
 800541e:	488a      	ldr	r0, [pc, #552]	; (8005648 <stm32__spi__configure+0x244>)
 8005420:	f003 fe28 	bl	8009074 <__gnat_rcheck_PE_Access_Before_Elaboration>
 8005424:	683b      	ldr	r3, [r7, #0]
 8005426:	785b      	ldrb	r3, [r3, #1]
 8005428:	2b01      	cmp	r3, #1
 800542a:	d903      	bls.n	8005434 <stm32__spi__configure+0x30>
 800542c:	214a      	movs	r1, #74	; 0x4a
 800542e:	4886      	ldr	r0, [pc, #536]	; (8005648 <stm32__spi__configure+0x244>)
 8005430:	f003 fe08 	bl	8009044 <__gnat_rcheck_CE_Invalid_Data>
 8005434:	683b      	ldr	r3, [r7, #0]
 8005436:	785b      	ldrb	r3, [r3, #1]
 8005438:	2b00      	cmp	r3, #0
 800543a:	d122      	bne.n	8005482 <stm32__spi__configure+0x7e>
 800543c:	687b      	ldr	r3, [r7, #4]
 800543e:	685b      	ldr	r3, [r3, #4]
 8005440:	330c      	adds	r3, #12
 8005442:	681b      	ldr	r3, [r3, #0]
 8005444:	461a      	mov	r2, r3
 8005446:	4613      	mov	r3, r2
 8005448:	f043 6280 	orr.w	r2, r3, #67108864	; 0x4000000
 800544c:	687b      	ldr	r3, [r7, #4]
 800544e:	685b      	ldr	r3, [r3, #4]
 8005450:	330c      	adds	r3, #12
 8005452:	601a      	str	r2, [r3, #0]
 8005454:	687b      	ldr	r3, [r7, #4]
 8005456:	685b      	ldr	r3, [r3, #4]
 8005458:	681b      	ldr	r3, [r3, #0]
 800545a:	461a      	mov	r2, r3
 800545c:	4613      	mov	r3, r2
 800545e:	f443 5280 	orr.w	r2, r3, #4096	; 0x1000
 8005462:	687b      	ldr	r3, [r7, #4]
 8005464:	685b      	ldr	r3, [r3, #4]
 8005466:	601a      	str	r2, [r3, #0]
 8005468:	687b      	ldr	r3, [r7, #4]
 800546a:	685b      	ldr	r3, [r3, #4]
 800546c:	330c      	adds	r3, #12
 800546e:	681b      	ldr	r3, [r3, #0]
 8005470:	461a      	mov	r2, r3
 8005472:	4613      	mov	r3, r2
 8005474:	f443 0280 	orr.w	r2, r3, #4194304	; 0x400000
 8005478:	687b      	ldr	r3, [r7, #4]
 800547a:	685b      	ldr	r3, [r3, #4]
 800547c:	330c      	adds	r3, #12
 800547e:	601a      	str	r2, [r3, #0]
 8005480:	e01d      	b.n	80054be <stm32__spi__configure+0xba>
 8005482:	687b      	ldr	r3, [r7, #4]
 8005484:	685b      	ldr	r3, [r3, #4]
 8005486:	330c      	adds	r3, #12
 8005488:	681b      	ldr	r3, [r3, #0]
 800548a:	461a      	mov	r2, r3
 800548c:	4613      	mov	r3, r2
 800548e:	f043 6280 	orr.w	r2, r3, #67108864	; 0x4000000
 8005492:	687b      	ldr	r3, [r7, #4]
 8005494:	685b      	ldr	r3, [r3, #4]
 8005496:	330c      	adds	r3, #12
 8005498:	601a      	str	r2, [r3, #0]
 800549a:	687b      	ldr	r3, [r7, #4]
 800549c:	685b      	ldr	r3, [r3, #4]
 800549e:	681b      	ldr	r3, [r3, #0]
 80054a0:	f36f 330c 	bfc	r3, #12, #1
 80054a4:	687a      	ldr	r2, [r7, #4]
 80054a6:	6852      	ldr	r2, [r2, #4]
 80054a8:	6013      	str	r3, [r2, #0]
 80054aa:	687b      	ldr	r3, [r7, #4]
 80054ac:	685b      	ldr	r3, [r3, #4]
 80054ae:	330c      	adds	r3, #12
 80054b0:	681b      	ldr	r3, [r3, #0]
 80054b2:	f36f 5396 	bfc	r3, #22, #1
 80054b6:	687a      	ldr	r2, [r7, #4]
 80054b8:	6852      	ldr	r2, [r2, #4]
 80054ba:	320c      	adds	r2, #12
 80054bc:	6013      	str	r3, [r2, #0]
 80054be:	683b      	ldr	r3, [r7, #0]
 80054c0:	781b      	ldrb	r3, [r3, #0]
 80054c2:	2b03      	cmp	r3, #3
 80054c4:	d903      	bls.n	80054ce <stm32__spi__configure+0xca>
 80054c6:	2155      	movs	r1, #85	; 0x55
 80054c8:	485f      	ldr	r0, [pc, #380]	; (8005648 <stm32__spi__configure+0x244>)
 80054ca:	f003 fdbb 	bl	8009044 <__gnat_rcheck_CE_Invalid_Data>
 80054ce:	683b      	ldr	r3, [r7, #0]
 80054d0:	781b      	ldrb	r3, [r3, #0]
 80054d2:	2b01      	cmp	r3, #1
 80054d4:	d00f      	beq.n	80054f6 <stm32__spi__configure+0xf2>
 80054d6:	2b01      	cmp	r3, #1
 80054d8:	d302      	bcc.n	80054e0 <stm32__spi__configure+0xdc>
 80054da:	2b02      	cmp	r3, #2
 80054dc:	d00d      	beq.n	80054fa <stm32__spi__configure+0xf6>
 80054de:	e00e      	b.n	80054fe <stm32__spi__configure+0xfa>
 80054e0:	687b      	ldr	r3, [r7, #4]
 80054e2:	685b      	ldr	r3, [r3, #4]
 80054e4:	330c      	adds	r3, #12
 80054e6:	681b      	ldr	r3, [r3, #0]
 80054e8:	f36f 4352 	bfc	r3, #17, #2
 80054ec:	687a      	ldr	r2, [r7, #4]
 80054ee:	6852      	ldr	r2, [r2, #4]
 80054f0:	320c      	adds	r2, #12
 80054f2:	6013      	str	r3, [r2, #0]
 80054f4:	e003      	b.n	80054fe <stm32__spi__configure+0xfa>
 80054f6:	bf00      	nop
 80054f8:	e001      	b.n	80054fe <stm32__spi__configure+0xfa>
 80054fa:	bf00      	nop
 80054fc:	e7ff      	b.n	80054fe <stm32__spi__configure+0xfa>
 80054fe:	bf00      	nop
 8005500:	683b      	ldr	r3, [r7, #0]
 8005502:	78db      	ldrb	r3, [r3, #3]
 8005504:	2b00      	cmp	r3, #0
 8005506:	bf0c      	ite	eq
 8005508:	2301      	moveq	r3, #1
 800550a:	2300      	movne	r3, #0
 800550c:	b2da      	uxtb	r2, r3
 800550e:	687b      	ldr	r3, [r7, #4]
 8005510:	685b      	ldr	r3, [r3, #4]
 8005512:	330c      	adds	r3, #12
 8005514:	681b      	ldr	r3, [r3, #0]
 8005516:	f002 0201 	and.w	r2, r2, #1
 800551a:	b2d2      	uxtb	r2, r2
 800551c:	f362 6359 	bfi	r3, r2, #25, #1
 8005520:	687a      	ldr	r2, [r7, #4]
 8005522:	6852      	ldr	r2, [r2, #4]
 8005524:	320c      	adds	r2, #12
 8005526:	6013      	str	r3, [r2, #0]
 8005528:	683b      	ldr	r3, [r7, #0]
 800552a:	791b      	ldrb	r3, [r3, #4]
 800552c:	2b01      	cmp	r3, #1
 800552e:	bf0c      	ite	eq
 8005530:	2301      	moveq	r3, #1
 8005532:	2300      	movne	r3, #0
 8005534:	b2da      	uxtb	r2, r3
 8005536:	687b      	ldr	r3, [r7, #4]
 8005538:	685b      	ldr	r3, [r3, #4]
 800553a:	330c      	adds	r3, #12
 800553c:	681b      	ldr	r3, [r3, #0]
 800553e:	f002 0201 	and.w	r2, r2, #1
 8005542:	b2d2      	uxtb	r2, r2
 8005544:	f362 6318 	bfi	r3, r2, #24, #1
 8005548:	687a      	ldr	r2, [r7, #4]
 800554a:	6852      	ldr	r2, [r2, #4]
 800554c:	320c      	adds	r2, #12
 800554e:	6013      	str	r3, [r2, #0]
 8005550:	683b      	ldr	r3, [r7, #0]
 8005552:	795b      	ldrb	r3, [r3, #5]
 8005554:	2b00      	cmp	r3, #0
 8005556:	bf0c      	ite	eq
 8005558:	2301      	moveq	r3, #1
 800555a:	2300      	movne	r3, #0
 800555c:	b2da      	uxtb	r2, r3
 800555e:	687b      	ldr	r3, [r7, #4]
 8005560:	685b      	ldr	r3, [r3, #4]
 8005562:	330c      	adds	r3, #12
 8005564:	681b      	ldr	r3, [r3, #0]
 8005566:	f002 0201 	and.w	r2, r2, #1
 800556a:	b2d2      	uxtb	r2, r2
 800556c:	f362 639a 	bfi	r3, r2, #26, #1
 8005570:	687a      	ldr	r2, [r7, #4]
 8005572:	6852      	ldr	r2, [r2, #4]
 8005574:	320c      	adds	r2, #12
 8005576:	6013      	str	r3, [r2, #0]
 8005578:	683b      	ldr	r3, [r7, #0]
 800557a:	799b      	ldrb	r3, [r3, #6]
 800557c:	461a      	mov	r2, r3
 800557e:	4b33      	ldr	r3, [pc, #204]	; (800564c <stm32__spi__configure+0x248>)
 8005580:	5c9a      	ldrb	r2, [r3, r2]
 8005582:	687b      	ldr	r3, [r7, #4]
 8005584:	685b      	ldr	r3, [r3, #4]
 8005586:	3308      	adds	r3, #8
 8005588:	681b      	ldr	r3, [r3, #0]
 800558a:	f002 0207 	and.w	r2, r2, #7
 800558e:	b2d2      	uxtb	r2, r2
 8005590:	f362 731e 	bfi	r3, r2, #28, #3
 8005594:	687a      	ldr	r2, [r7, #4]
 8005596:	6852      	ldr	r2, [r2, #4]
 8005598:	3208      	adds	r2, #8
 800559a:	6013      	str	r3, [r2, #0]
 800559c:	683b      	ldr	r3, [r7, #0]
 800559e:	79db      	ldrb	r3, [r3, #7]
 80055a0:	2b01      	cmp	r3, #1
 80055a2:	bf0c      	ite	eq
 80055a4:	2301      	moveq	r3, #1
 80055a6:	2300      	movne	r3, #0
 80055a8:	b2da      	uxtb	r2, r3
 80055aa:	687b      	ldr	r3, [r7, #4]
 80055ac:	685b      	ldr	r3, [r3, #4]
 80055ae:	330c      	adds	r3, #12
 80055b0:	681b      	ldr	r3, [r3, #0]
 80055b2:	f002 0201 	and.w	r2, r2, #1
 80055b6:	b2d2      	uxtb	r2, r2
 80055b8:	f362 53d7 	bfi	r3, r2, #23, #1
 80055bc:	687a      	ldr	r2, [r7, #4]
 80055be:	6852      	ldr	r2, [r2, #4]
 80055c0:	320c      	adds	r2, #12
 80055c2:	6013      	str	r3, [r2, #0]
 80055c4:	683b      	ldr	r3, [r7, #0]
 80055c6:	7a9a      	ldrb	r2, [r3, #10]
 80055c8:	687b      	ldr	r3, [r7, #4]
 80055ca:	685b      	ldr	r3, [r3, #4]
 80055cc:	3308      	adds	r3, #8
 80055ce:	681b      	ldr	r3, [r3, #0]
 80055d0:	f002 0201 	and.w	r2, r2, #1
 80055d4:	b2d2      	uxtb	r2, r2
 80055d6:	f362 33cf 	bfi	r3, r2, #15, #1
 80055da:	687a      	ldr	r2, [r7, #4]
 80055dc:	6852      	ldr	r2, [r2, #4]
 80055de:	3208      	adds	r2, #8
 80055e0:	6013      	str	r3, [r2, #0]
 80055e2:	683b      	ldr	r3, [r7, #0]
 80055e4:	7a9a      	ldrb	r2, [r3, #10]
 80055e6:	687b      	ldr	r3, [r7, #4]
 80055e8:	685b      	ldr	r3, [r3, #4]
 80055ea:	3310      	adds	r3, #16
 80055ec:	681b      	ldr	r3, [r3, #0]
 80055ee:	f002 0201 	and.w	r2, r2, #1
 80055f2:	b2d2      	uxtb	r2, r2
 80055f4:	f362 03c3 	bfi	r3, r2, #3, #1
 80055f8:	687a      	ldr	r2, [r7, #4]
 80055fa:	6852      	ldr	r2, [r2, #4]
 80055fc:	3210      	adds	r2, #16
 80055fe:	6013      	str	r3, [r2, #0]
 8005600:	683b      	ldr	r3, [r7, #0]
 8005602:	7ada      	ldrb	r2, [r3, #11]
 8005604:	687b      	ldr	r3, [r7, #4]
 8005606:	685b      	ldr	r3, [r3, #4]
 8005608:	3308      	adds	r3, #8
 800560a:	681b      	ldr	r3, [r3, #0]
 800560c:	f002 0201 	and.w	r2, r2, #1
 8005610:	b2d2      	uxtb	r2, r2
 8005612:	f362 338e 	bfi	r3, r2, #14, #1
 8005616:	687a      	ldr	r2, [r7, #4]
 8005618:	6852      	ldr	r2, [r2, #4]
 800561a:	3208      	adds	r2, #8
 800561c:	6013      	str	r3, [r2, #0]
 800561e:	683b      	ldr	r3, [r7, #0]
 8005620:	7b1a      	ldrb	r2, [r3, #12]
 8005622:	687b      	ldr	r3, [r7, #4]
 8005624:	685b      	ldr	r3, [r3, #4]
 8005626:	3308      	adds	r3, #8
 8005628:	681b      	ldr	r3, [r3, #0]
 800562a:	f002 020f 	and.w	r2, r2, #15
 800562e:	b2d2      	uxtb	r2, r2
 8005630:	f362 1348 	bfi	r3, r2, #5, #4
 8005634:	687a      	ldr	r2, [r7, #4]
 8005636:	6852      	ldr	r2, [r2, #4]
 8005638:	3208      	adds	r2, #8
 800563a:	6013      	str	r3, [r2, #0]
 800563c:	3708      	adds	r7, #8
 800563e:	46bd      	mov	sp, r7
 8005640:	bd80      	pop	{r7, pc}
 8005642:	bf00      	nop
 8005644:	20000048 	.word	0x20000048
 8005648:	0800d7c4 	.word	0x0800d7c4
 800564c:	0800da14 	.word	0x0800da14

08005650 <stm32__spi__enable>:
 8005650:	b580      	push	{r7, lr}
 8005652:	b082      	sub	sp, #8
 8005654:	af00      	add	r7, sp, #0
 8005656:	6078      	str	r0, [r7, #4]
 8005658:	4b0b      	ldr	r3, [pc, #44]	; (8005688 <stm32__spi__enable+0x38>)
 800565a:	781b      	ldrb	r3, [r3, #0]
 800565c:	f083 0301 	eor.w	r3, r3, #1
 8005660:	b2db      	uxtb	r3, r3
 8005662:	2b00      	cmp	r3, #0
 8005664:	d003      	beq.n	800566e <stm32__spi__enable+0x1e>
 8005666:	2180      	movs	r1, #128	; 0x80
 8005668:	4808      	ldr	r0, [pc, #32]	; (800568c <stm32__spi__enable+0x3c>)
 800566a:	f003 fd03 	bl	8009074 <__gnat_rcheck_PE_Access_Before_Elaboration>
 800566e:	687b      	ldr	r3, [r7, #4]
 8005670:	685b      	ldr	r3, [r3, #4]
 8005672:	681b      	ldr	r3, [r3, #0]
 8005674:	461a      	mov	r2, r3
 8005676:	4613      	mov	r3, r2
 8005678:	f043 0201 	orr.w	r2, r3, #1
 800567c:	687b      	ldr	r3, [r7, #4]
 800567e:	685b      	ldr	r3, [r3, #4]
 8005680:	601a      	str	r2, [r3, #0]
 8005682:	3708      	adds	r7, #8
 8005684:	46bd      	mov	sp, r7
 8005686:	bd80      	pop	{r7, pc}
 8005688:	20000049 	.word	0x20000049
 800568c:	0800d7c4 	.word	0x0800d7c4

08005690 <stm32__spi__disable>:
 8005690:	b580      	push	{r7, lr}
 8005692:	b082      	sub	sp, #8
 8005694:	af00      	add	r7, sp, #0
 8005696:	6078      	str	r0, [r7, #4]
 8005698:	4b0a      	ldr	r3, [pc, #40]	; (80056c4 <stm32__spi__disable+0x34>)
 800569a:	781b      	ldrb	r3, [r3, #0]
 800569c:	f083 0301 	eor.w	r3, r3, #1
 80056a0:	b2db      	uxtb	r3, r3
 80056a2:	2b00      	cmp	r3, #0
 80056a4:	d003      	beq.n	80056ae <stm32__spi__disable+0x1e>
 80056a6:	2189      	movs	r1, #137	; 0x89
 80056a8:	4807      	ldr	r0, [pc, #28]	; (80056c8 <stm32__spi__disable+0x38>)
 80056aa:	f003 fce3 	bl	8009074 <__gnat_rcheck_PE_Access_Before_Elaboration>
 80056ae:	687b      	ldr	r3, [r7, #4]
 80056b0:	685b      	ldr	r3, [r3, #4]
 80056b2:	681b      	ldr	r3, [r3, #0]
 80056b4:	f36f 0300 	bfc	r3, #0, #1
 80056b8:	687a      	ldr	r2, [r7, #4]
 80056ba:	6852      	ldr	r2, [r2, #4]
 80056bc:	6013      	str	r3, [r2, #0]
 80056be:	3708      	adds	r7, #8
 80056c0:	46bd      	mov	sp, r7
 80056c2:	bd80      	pop	{r7, pc}
 80056c4:	2000004a 	.word	0x2000004a
 80056c8:	0800d7c4 	.word	0x0800d7c4

080056cc <stm32__spi__enabled>:
 80056cc:	b580      	push	{r7, lr}
 80056ce:	b082      	sub	sp, #8
 80056d0:	af00      	add	r7, sp, #0
 80056d2:	6078      	str	r0, [r7, #4]
 80056d4:	4b0a      	ldr	r3, [pc, #40]	; (8005700 <stm32__spi__enabled+0x34>)
 80056d6:	781b      	ldrb	r3, [r3, #0]
 80056d8:	f083 0301 	eor.w	r3, r3, #1
 80056dc:	b2db      	uxtb	r3, r3
 80056de:	2b00      	cmp	r3, #0
 80056e0:	d003      	beq.n	80056ea <stm32__spi__enabled+0x1e>
 80056e2:	2192      	movs	r1, #146	; 0x92
 80056e4:	4807      	ldr	r0, [pc, #28]	; (8005704 <stm32__spi__enabled+0x38>)
 80056e6:	f003 fcc5 	bl	8009074 <__gnat_rcheck_PE_Access_Before_Elaboration>
 80056ea:	687b      	ldr	r3, [r7, #4]
 80056ec:	685b      	ldr	r3, [r3, #4]
 80056ee:	681b      	ldr	r3, [r3, #0]
 80056f0:	f3c3 0300 	ubfx	r3, r3, #0, #1
 80056f4:	b2db      	uxtb	r3, r3
 80056f6:	bf00      	nop
 80056f8:	4618      	mov	r0, r3
 80056fa:	3708      	adds	r7, #8
 80056fc:	46bd      	mov	sp, r7
 80056fe:	bd80      	pop	{r7, pc}
 8005700:	2000004b 	.word	0x2000004b
 8005704:	0800d7c4 	.word	0x0800d7c4

08005708 <stm32__spi__send>:
 8005708:	b580      	push	{r7, lr}
 800570a:	b082      	sub	sp, #8
 800570c:	af00      	add	r7, sp, #0
 800570e:	6078      	str	r0, [r7, #4]
 8005710:	460b      	mov	r3, r1
 8005712:	807b      	strh	r3, [r7, #2]
 8005714:	4b08      	ldr	r3, [pc, #32]	; (8005738 <stm32__spi__send+0x30>)
 8005716:	781b      	ldrb	r3, [r3, #0]
 8005718:	f083 0301 	eor.w	r3, r3, #1
 800571c:	b2db      	uxtb	r3, r3
 800571e:	2b00      	cmp	r3, #0
 8005720:	d003      	beq.n	800572a <stm32__spi__send+0x22>
 8005722:	219b      	movs	r1, #155	; 0x9b
 8005724:	4805      	ldr	r0, [pc, #20]	; (800573c <stm32__spi__send+0x34>)
 8005726:	f003 fca5 	bl	8009074 <__gnat_rcheck_PE_Access_Before_Elaboration>
 800572a:	687b      	ldr	r3, [r7, #4]
 800572c:	685b      	ldr	r3, [r3, #4]
 800572e:	887a      	ldrh	r2, [r7, #2]
 8005730:	621a      	str	r2, [r3, #32]
 8005732:	3708      	adds	r7, #8
 8005734:	46bd      	mov	sp, r7
 8005736:	bd80      	pop	{r7, pc}
 8005738:	2000004c 	.word	0x2000004c
 800573c:	0800d7c4 	.word	0x0800d7c4

08005740 <stm32__spi__data>:
 8005740:	b580      	push	{r7, lr}
 8005742:	b082      	sub	sp, #8
 8005744:	af00      	add	r7, sp, #0
 8005746:	6078      	str	r0, [r7, #4]
 8005748:	687b      	ldr	r3, [r7, #4]
 800574a:	685b      	ldr	r3, [r3, #4]
 800574c:	6b1b      	ldr	r3, [r3, #48]	; 0x30
 800574e:	f5b3 3f80 	cmp.w	r3, #65536	; 0x10000
 8005752:	d303      	bcc.n	800575c <stm32__spi__data+0x1c>
 8005754:	21a8      	movs	r1, #168	; 0xa8
 8005756:	4804      	ldr	r0, [pc, #16]	; (8005768 <stm32__spi__data+0x28>)
 8005758:	f003 fc84 	bl	8009064 <__gnat_rcheck_CE_Range_Check>
 800575c:	b29b      	uxth	r3, r3
 800575e:	bf00      	nop
 8005760:	4618      	mov	r0, r3
 8005762:	3708      	adds	r7, #8
 8005764:	46bd      	mov	sp, r7
 8005766:	bd80      	pop	{r7, pc}
 8005768:	0800d7c4 	.word	0x0800d7c4

0800576c <stm32__spi__send__2>:
 800576c:	b580      	push	{r7, lr}
 800576e:	b084      	sub	sp, #16
 8005770:	af00      	add	r7, sp, #0
 8005772:	6078      	str	r0, [r7, #4]
 8005774:	460b      	mov	r3, r1
 8005776:	70fb      	strb	r3, [r7, #3]
 8005778:	4b0a      	ldr	r3, [pc, #40]	; (80057a4 <stm32__spi__send__2+0x38>)
 800577a:	781b      	ldrb	r3, [r3, #0]
 800577c:	f083 0301 	eor.w	r3, r3, #1
 8005780:	b2db      	uxtb	r3, r3
 8005782:	2b00      	cmp	r3, #0
 8005784:	d003      	beq.n	800578e <stm32__spi__send__2+0x22>
 8005786:	21af      	movs	r1, #175	; 0xaf
 8005788:	4807      	ldr	r0, [pc, #28]	; (80057a8 <stm32__spi__send__2+0x3c>)
 800578a:	f003 fc73 	bl	8009074 <__gnat_rcheck_PE_Access_Before_Elaboration>
 800578e:	687b      	ldr	r3, [r7, #4]
 8005790:	685b      	ldr	r3, [r3, #4]
 8005792:	3320      	adds	r3, #32
 8005794:	60fb      	str	r3, [r7, #12]
 8005796:	68fb      	ldr	r3, [r7, #12]
 8005798:	78fa      	ldrb	r2, [r7, #3]
 800579a:	701a      	strb	r2, [r3, #0]
 800579c:	3710      	adds	r7, #16
 800579e:	46bd      	mov	sp, r7
 80057a0:	bd80      	pop	{r7, pc}
 80057a2:	bf00      	nop
 80057a4:	2000004d 	.word	0x2000004d
 80057a8:	0800d7c4 	.word	0x0800d7c4

080057ac <stm32__spi__data__2>:
 80057ac:	b580      	push	{r7, lr}
 80057ae:	b082      	sub	sp, #8
 80057b0:	af00      	add	r7, sp, #0
 80057b2:	6078      	str	r0, [r7, #4]
 80057b4:	6878      	ldr	r0, [r7, #4]
 80057b6:	f7ff ffc3 	bl	8005740 <stm32__spi__data>
 80057ba:	4603      	mov	r3, r0
 80057bc:	2bff      	cmp	r3, #255	; 0xff
 80057be:	d903      	bls.n	80057c8 <stm32__spi__data__2+0x1c>
 80057c0:	21bc      	movs	r1, #188	; 0xbc
 80057c2:	4804      	ldr	r0, [pc, #16]	; (80057d4 <stm32__spi__data__2+0x28>)
 80057c4:	f003 fc4e 	bl	8009064 <__gnat_rcheck_CE_Range_Check>
 80057c8:	b2db      	uxtb	r3, r3
 80057ca:	bf00      	nop
 80057cc:	4618      	mov	r0, r3
 80057ce:	3708      	adds	r7, #8
 80057d0:	46bd      	mov	sp, r7
 80057d2:	bd80      	pop	{r7, pc}
 80057d4:	0800d7c4 	.word	0x0800d7c4

080057d8 <stm32__spi__is_busy>:
 80057d8:	b580      	push	{r7, lr}
 80057da:	b082      	sub	sp, #8
 80057dc:	af00      	add	r7, sp, #0
 80057de:	6078      	str	r0, [r7, #4]
 80057e0:	6878      	ldr	r0, [r7, #4]
 80057e2:	f000 f82d 	bl	8005840 <stm32__spi__rx_is_empty>
 80057e6:	4603      	mov	r3, r0
 80057e8:	2b00      	cmp	r3, #0
 80057ea:	d008      	beq.n	80057fe <stm32__spi__is_busy+0x26>
 80057ec:	6878      	ldr	r0, [r7, #4]
 80057ee:	f000 f815 	bl	800581c <stm32__spi__tx_is_empty>
 80057f2:	4603      	mov	r3, r0
 80057f4:	f083 0301 	eor.w	r3, r3, #1
 80057f8:	b2db      	uxtb	r3, r3
 80057fa:	2b00      	cmp	r3, #0
 80057fc:	d105      	bne.n	800580a <stm32__spi__is_busy+0x32>
 80057fe:	6878      	ldr	r0, [r7, #4]
 8005800:	f000 f836 	bl	8005870 <stm32__spi__busy>
 8005804:	4603      	mov	r3, r0
 8005806:	2b00      	cmp	r3, #0
 8005808:	d001      	beq.n	800580e <stm32__spi__is_busy+0x36>
 800580a:	2301      	movs	r3, #1
 800580c:	e000      	b.n	8005810 <stm32__spi__is_busy+0x38>
 800580e:	2300      	movs	r3, #0
 8005810:	bf00      	nop
 8005812:	4618      	mov	r0, r3
 8005814:	3708      	adds	r7, #8
 8005816:	46bd      	mov	sp, r7
 8005818:	bd80      	pop	{r7, pc}
 800581a:	bf00      	nop

0800581c <stm32__spi__tx_is_empty>:
 800581c:	b480      	push	{r7}
 800581e:	b083      	sub	sp, #12
 8005820:	af00      	add	r7, sp, #0
 8005822:	6078      	str	r0, [r7, #4]
 8005824:	687b      	ldr	r3, [r7, #4]
 8005826:	685b      	ldr	r3, [r3, #4]
 8005828:	3314      	adds	r3, #20
 800582a:	681b      	ldr	r3, [r3, #0]
 800582c:	f3c3 0340 	ubfx	r3, r3, #1, #1
 8005830:	b2db      	uxtb	r3, r3
 8005832:	bf00      	nop
 8005834:	4618      	mov	r0, r3
 8005836:	370c      	adds	r7, #12
 8005838:	46bd      	mov	sp, r7
 800583a:	f85d 7b04 	ldr.w	r7, [sp], #4
 800583e:	4770      	bx	lr

08005840 <stm32__spi__rx_is_empty>:
 8005840:	b480      	push	{r7}
 8005842:	b083      	sub	sp, #12
 8005844:	af00      	add	r7, sp, #0
 8005846:	6078      	str	r0, [r7, #4]
 8005848:	687b      	ldr	r3, [r7, #4]
 800584a:	685b      	ldr	r3, [r3, #4]
 800584c:	3314      	adds	r3, #20
 800584e:	681b      	ldr	r3, [r3, #0]
 8005850:	b2db      	uxtb	r3, r3
 8005852:	f003 0301 	and.w	r3, r3, #1
 8005856:	b2db      	uxtb	r3, r3
 8005858:	2b00      	cmp	r3, #0
 800585a:	bf0c      	ite	eq
 800585c:	2301      	moveq	r3, #1
 800585e:	2300      	movne	r3, #0
 8005860:	b2db      	uxtb	r3, r3
 8005862:	bf00      	nop
 8005864:	4618      	mov	r0, r3
 8005866:	370c      	adds	r7, #12
 8005868:	46bd      	mov	sp, r7
 800586a:	f85d 7b04 	ldr.w	r7, [sp], #4
 800586e:	4770      	bx	lr

08005870 <stm32__spi__busy>:
 8005870:	b480      	push	{r7}
 8005872:	b083      	sub	sp, #12
 8005874:	af00      	add	r7, sp, #0
 8005876:	6078      	str	r0, [r7, #4]
 8005878:	687b      	ldr	r3, [r7, #4]
 800587a:	685b      	ldr	r3, [r3, #4]
 800587c:	3314      	adds	r3, #20
 800587e:	681b      	ldr	r3, [r3, #0]
 8005880:	b2db      	uxtb	r3, r3
 8005882:	f003 0308 	and.w	r3, r3, #8
 8005886:	b2db      	uxtb	r3, r3
 8005888:	2b00      	cmp	r3, #0
 800588a:	bf0c      	ite	eq
 800588c:	2301      	moveq	r3, #1
 800588e:	2300      	movne	r3, #0
 8005890:	b2db      	uxtb	r3, r3
 8005892:	bf00      	nop
 8005894:	4618      	mov	r0, r3
 8005896:	370c      	adds	r7, #12
 8005898:	46bd      	mov	sp, r7
 800589a:	f85d 7b04 	ldr.w	r7, [sp], #4
 800589e:	4770      	bx	lr

080058a0 <stm32__spi__current_mode>:
 80058a0:	b580      	push	{r7, lr}
 80058a2:	b082      	sub	sp, #8
 80058a4:	af00      	add	r7, sp, #0
 80058a6:	6078      	str	r0, [r7, #4]
 80058a8:	4b19      	ldr	r3, [pc, #100]	; (8005910 <stm32__spi__current_mode+0x70>)
 80058aa:	781b      	ldrb	r3, [r3, #0]
 80058ac:	f083 0301 	eor.w	r3, r3, #1
 80058b0:	b2db      	uxtb	r3, r3
 80058b2:	2b00      	cmp	r3, #0
 80058b4:	d003      	beq.n	80058be <stm32__spi__current_mode+0x1e>
 80058b6:	21ec      	movs	r1, #236	; 0xec
 80058b8:	4816      	ldr	r0, [pc, #88]	; (8005914 <stm32__spi__current_mode+0x74>)
 80058ba:	f003 fbdb 	bl	8009074 <__gnat_rcheck_PE_Access_Before_Elaboration>
 80058be:	687b      	ldr	r3, [r7, #4]
 80058c0:	685b      	ldr	r3, [r3, #4]
 80058c2:	330c      	adds	r3, #12
 80058c4:	681b      	ldr	r3, [r3, #0]
 80058c6:	f3c3 4307 	ubfx	r3, r3, #16, #8
 80058ca:	b2db      	uxtb	r3, r3
 80058cc:	f003 0340 	and.w	r3, r3, #64	; 0x40
 80058d0:	b2db      	uxtb	r3, r3
 80058d2:	2b00      	cmp	r3, #0
 80058d4:	bf14      	ite	ne
 80058d6:	2301      	movne	r3, #1
 80058d8:	2300      	moveq	r3, #0
 80058da:	b2da      	uxtb	r2, r3
 80058dc:	687b      	ldr	r3, [r7, #4]
 80058de:	685b      	ldr	r3, [r3, #4]
 80058e0:	681b      	ldr	r3, [r3, #0]
 80058e2:	f3c3 2307 	ubfx	r3, r3, #8, #8
 80058e6:	b2db      	uxtb	r3, r3
 80058e8:	f003 0310 	and.w	r3, r3, #16
 80058ec:	b2db      	uxtb	r3, r3
 80058ee:	2b00      	cmp	r3, #0
 80058f0:	bf14      	ite	ne
 80058f2:	2301      	movne	r3, #1
 80058f4:	2300      	moveq	r3, #0
 80058f6:	b2db      	uxtb	r3, r3
 80058f8:	4013      	ands	r3, r2
 80058fa:	b2db      	uxtb	r3, r3
 80058fc:	2b00      	cmp	r3, #0
 80058fe:	d001      	beq.n	8005904 <stm32__spi__current_mode+0x64>
 8005900:	2300      	movs	r3, #0
 8005902:	e000      	b.n	8005906 <stm32__spi__current_mode+0x66>
 8005904:	2301      	movs	r3, #1
 8005906:	bf00      	nop
 8005908:	4618      	mov	r0, r3
 800590a:	3708      	adds	r7, #8
 800590c:	46bd      	mov	sp, r7
 800590e:	bd80      	pop	{r7, pc}
 8005910:	20000050 	.word	0x20000050
 8005914:	0800d7c4 	.word	0x0800d7c4

08005918 <stm32__spi__current_data_direction>:
 8005918:	b580      	push	{r7, lr}
 800591a:	b082      	sub	sp, #8
 800591c:	af00      	add	r7, sp, #0
 800591e:	6078      	str	r0, [r7, #4]
 8005920:	4b08      	ldr	r3, [pc, #32]	; (8005944 <stm32__spi__current_data_direction+0x2c>)
 8005922:	781b      	ldrb	r3, [r3, #0]
 8005924:	f083 0301 	eor.w	r3, r3, #1
 8005928:	b2db      	uxtb	r3, r3
 800592a:	2b00      	cmp	r3, #0
 800592c:	d003      	beq.n	8005936 <stm32__spi__current_data_direction+0x1e>
 800592e:	21f9      	movs	r1, #249	; 0xf9
 8005930:	4805      	ldr	r0, [pc, #20]	; (8005948 <stm32__spi__current_data_direction+0x30>)
 8005932:	f003 fb9f 	bl	8009074 <__gnat_rcheck_PE_Access_Before_Elaboration>
 8005936:	2300      	movs	r3, #0
 8005938:	bf00      	nop
 800593a:	4618      	mov	r0, r3
 800593c:	3708      	adds	r7, #8
 800593e:	46bd      	mov	sp, r7
 8005940:	bd80      	pop	{r7, pc}
 8005942:	bf00      	nop
 8005944:	20000051 	.word	0x20000051
 8005948:	0800d7c4 	.word	0x0800d7c4

0800594c <stm32__spi__crc_enabled>:
 800594c:	b480      	push	{r7}
 800594e:	b083      	sub	sp, #12
 8005950:	af00      	add	r7, sp, #0
 8005952:	6078      	str	r0, [r7, #4]
 8005954:	687b      	ldr	r3, [r7, #4]
 8005956:	685b      	ldr	r3, [r3, #4]
 8005958:	3308      	adds	r3, #8
 800595a:	681b      	ldr	r3, [r3, #0]
 800595c:	f3c3 5380 	ubfx	r3, r3, #22, #1
 8005960:	b2db      	uxtb	r3, r3
 8005962:	bf00      	nop
 8005964:	4618      	mov	r0, r3
 8005966:	370c      	adds	r7, #12
 8005968:	46bd      	mov	sp, r7
 800596a:	f85d 7b04 	ldr.w	r7, [sp], #4
 800596e:	4770      	bx	lr

08005970 <stm32__spi__crc_error_indicated>:
 8005970:	b480      	push	{r7}
 8005972:	b083      	sub	sp, #12
 8005974:	af00      	add	r7, sp, #0
 8005976:	6078      	str	r0, [r7, #4]
 8005978:	687b      	ldr	r3, [r7, #4]
 800597a:	685b      	ldr	r3, [r3, #4]
 800597c:	3314      	adds	r3, #20
 800597e:	681b      	ldr	r3, [r3, #0]
 8005980:	f3c3 13c0 	ubfx	r3, r3, #7, #1
 8005984:	b2db      	uxtb	r3, r3
 8005986:	bf00      	nop
 8005988:	4618      	mov	r0, r3
 800598a:	370c      	adds	r7, #12
 800598c:	46bd      	mov	sp, r7
 800598e:	f85d 7b04 	ldr.w	r7, [sp], #4
 8005992:	4770      	bx	lr

08005994 <stm32__spi__mode_fault_indicated>:
 8005994:	b480      	push	{r7}
 8005996:	b083      	sub	sp, #12
 8005998:	af00      	add	r7, sp, #0
 800599a:	6078      	str	r0, [r7, #4]
 800599c:	687b      	ldr	r3, [r7, #4]
 800599e:	685b      	ldr	r3, [r3, #4]
 80059a0:	3314      	adds	r3, #20
 80059a2:	681b      	ldr	r3, [r3, #0]
 80059a4:	f3c3 2340 	ubfx	r3, r3, #9, #1
 80059a8:	b2db      	uxtb	r3, r3
 80059aa:	bf00      	nop
 80059ac:	4618      	mov	r0, r3
 80059ae:	370c      	adds	r7, #12
 80059b0:	46bd      	mov	sp, r7
 80059b2:	f85d 7b04 	ldr.w	r7, [sp], #4
 80059b6:	4770      	bx	lr

080059b8 <stm32__spi__overrun_indicated>:
 80059b8:	b480      	push	{r7}
 80059ba:	b083      	sub	sp, #12
 80059bc:	af00      	add	r7, sp, #0
 80059be:	6078      	str	r0, [r7, #4]
 80059c0:	687b      	ldr	r3, [r7, #4]
 80059c2:	685b      	ldr	r3, [r3, #4]
 80059c4:	3314      	adds	r3, #20
 80059c6:	681b      	ldr	r3, [r3, #0]
 80059c8:	f3c3 1380 	ubfx	r3, r3, #6, #1
 80059cc:	b2db      	uxtb	r3, r3
 80059ce:	bf00      	nop
 80059d0:	4618      	mov	r0, r3
 80059d2:	370c      	adds	r7, #12
 80059d4:	46bd      	mov	sp, r7
 80059d6:	f85d 7b04 	ldr.w	r7, [sp], #4
 80059da:	4770      	bx	lr

080059dc <stm32__spi__frame_fmt_error_indicated>:
 80059dc:	b480      	push	{r7}
 80059de:	b083      	sub	sp, #12
 80059e0:	af00      	add	r7, sp, #0
 80059e2:	6078      	str	r0, [r7, #4]
 80059e4:	687b      	ldr	r3, [r7, #4]
 80059e6:	685b      	ldr	r3, [r3, #4]
 80059e8:	3314      	adds	r3, #20
 80059ea:	681b      	ldr	r3, [r3, #0]
 80059ec:	f3c3 2300 	ubfx	r3, r3, #8, #1
 80059f0:	b2db      	uxtb	r3, r3
 80059f2:	bf00      	nop
 80059f4:	4618      	mov	r0, r3
 80059f6:	370c      	adds	r7, #12
 80059f8:	46bd      	mov	sp, r7
 80059fa:	f85d 7b04 	ldr.w	r7, [sp], #4
 80059fe:	4770      	bx	lr

08005a00 <stm32__spi__clear_overrun>:
 8005a00:	b580      	push	{r7, lr}
 8005a02:	b084      	sub	sp, #16
 8005a04:	af00      	add	r7, sp, #0
 8005a06:	6078      	str	r0, [r7, #4]
 8005a08:	4b0f      	ldr	r3, [pc, #60]	; (8005a48 <stm32__spi__clear_overrun+0x48>)
 8005a0a:	781b      	ldrb	r3, [r3, #0]
 8005a0c:	f083 0301 	eor.w	r3, r3, #1
 8005a10:	b2db      	uxtb	r3, r3
 8005a12:	2b00      	cmp	r3, #0
 8005a14:	d004      	beq.n	8005a20 <stm32__spi__clear_overrun+0x20>
 8005a16:	f240 1129 	movw	r1, #297	; 0x129
 8005a1a:	480c      	ldr	r0, [pc, #48]	; (8005a4c <stm32__spi__clear_overrun+0x4c>)
 8005a1c:	f003 fb2a 	bl	8009074 <__gnat_rcheck_PE_Access_Before_Elaboration>
 8005a20:	687b      	ldr	r3, [r7, #4]
 8005a22:	685b      	ldr	r3, [r3, #4]
 8005a24:	6b1b      	ldr	r3, [r3, #48]	; 0x30
 8005a26:	f5b3 3f80 	cmp.w	r3, #65536	; 0x10000
 8005a2a:	d304      	bcc.n	8005a36 <stm32__spi__clear_overrun+0x36>
 8005a2c:	f240 112d 	movw	r1, #301	; 0x12d
 8005a30:	4806      	ldr	r0, [pc, #24]	; (8005a4c <stm32__spi__clear_overrun+0x4c>)
 8005a32:	f003 fb17 	bl	8009064 <__gnat_rcheck_CE_Range_Check>
 8005a36:	81fb      	strh	r3, [r7, #14]
 8005a38:	687b      	ldr	r3, [r7, #4]
 8005a3a:	685b      	ldr	r3, [r3, #4]
 8005a3c:	3314      	adds	r3, #20
 8005a3e:	681b      	ldr	r3, [r3, #0]
 8005a40:	60bb      	str	r3, [r7, #8]
 8005a42:	3710      	adds	r7, #16
 8005a44:	46bd      	mov	sp, r7
 8005a46:	bd80      	pop	{r7, pc}
 8005a48:	2000004e 	.word	0x2000004e
 8005a4c:	0800d7c4 	.word	0x0800d7c4

08005a50 <stm32__spi__reset_crc>:
 8005a50:	b580      	push	{r7, lr}
 8005a52:	b082      	sub	sp, #8
 8005a54:	af00      	add	r7, sp, #0
 8005a56:	6078      	str	r0, [r7, #4]
 8005a58:	4b12      	ldr	r3, [pc, #72]	; (8005aa4 <stm32__spi__reset_crc+0x54>)
 8005a5a:	781b      	ldrb	r3, [r3, #0]
 8005a5c:	f083 0301 	eor.w	r3, r3, #1
 8005a60:	b2db      	uxtb	r3, r3
 8005a62:	2b00      	cmp	r3, #0
 8005a64:	d004      	beq.n	8005a70 <stm32__spi__reset_crc+0x20>
 8005a66:	f240 1135 	movw	r1, #309	; 0x135
 8005a6a:	480f      	ldr	r0, [pc, #60]	; (8005aa8 <stm32__spi__reset_crc+0x58>)
 8005a6c:	f003 fb02 	bl	8009074 <__gnat_rcheck_PE_Access_Before_Elaboration>
 8005a70:	687b      	ldr	r3, [r7, #4]
 8005a72:	685b      	ldr	r3, [r3, #4]
 8005a74:	3308      	adds	r3, #8
 8005a76:	681b      	ldr	r3, [r3, #0]
 8005a78:	f36f 5396 	bfc	r3, #22, #1
 8005a7c:	687a      	ldr	r2, [r7, #4]
 8005a7e:	6852      	ldr	r2, [r2, #4]
 8005a80:	3208      	adds	r2, #8
 8005a82:	6013      	str	r3, [r2, #0]
 8005a84:	687b      	ldr	r3, [r7, #4]
 8005a86:	685b      	ldr	r3, [r3, #4]
 8005a88:	3308      	adds	r3, #8
 8005a8a:	681b      	ldr	r3, [r3, #0]
 8005a8c:	461a      	mov	r2, r3
 8005a8e:	4613      	mov	r3, r2
 8005a90:	f443 0280 	orr.w	r2, r3, #4194304	; 0x400000
 8005a94:	687b      	ldr	r3, [r7, #4]
 8005a96:	685b      	ldr	r3, [r3, #4]
 8005a98:	3308      	adds	r3, #8
 8005a9a:	601a      	str	r2, [r3, #0]
 8005a9c:	3708      	adds	r7, #8
 8005a9e:	46bd      	mov	sp, r7
 8005aa0:	bd80      	pop	{r7, pc}
 8005aa2:	bf00      	nop
 8005aa4:	2000004f 	.word	0x2000004f
 8005aa8:	0800d7c4 	.word	0x0800d7c4

08005aac <stm32__spi__is_data_frame_16bit>:
 8005aac:	b480      	push	{r7}
 8005aae:	b083      	sub	sp, #12
 8005ab0:	af00      	add	r7, sp, #0
 8005ab2:	6078      	str	r0, [r7, #4]
 8005ab4:	687b      	ldr	r3, [r7, #4]
 8005ab6:	685b      	ldr	r3, [r3, #4]
 8005ab8:	3308      	adds	r3, #8
 8005aba:	681b      	ldr	r3, [r3, #0]
 8005abc:	b2db      	uxtb	r3, r3
 8005abe:	f003 031f 	and.w	r3, r3, #31
 8005ac2:	b2db      	uxtb	r3, r3
 8005ac4:	2b0f      	cmp	r3, #15
 8005ac6:	bf0c      	ite	eq
 8005ac8:	2301      	moveq	r3, #1
 8005aca:	2300      	movne	r3, #0
 8005acc:	b2db      	uxtb	r3, r3
 8005ace:	bf00      	nop
 8005ad0:	4618      	mov	r0, r3
 8005ad2:	370c      	adds	r7, #12
 8005ad4:	46bd      	mov	sp, r7
 8005ad6:	f85d 7b04 	ldr.w	r7, [sp], #4
 8005ada:	4770      	bx	lr

08005adc <stm32__spi__data_size>:
 8005adc:	b580      	push	{r7, lr}
 8005ade:	b082      	sub	sp, #8
 8005ae0:	af00      	add	r7, sp, #0
 8005ae2:	6078      	str	r0, [r7, #4]
 8005ae4:	4b0e      	ldr	r3, [pc, #56]	; (8005b20 <stm32__spi__data_size+0x44>)
 8005ae6:	781b      	ldrb	r3, [r3, #0]
 8005ae8:	f083 0301 	eor.w	r3, r3, #1
 8005aec:	b2db      	uxtb	r3, r3
 8005aee:	2b00      	cmp	r3, #0
 8005af0:	d004      	beq.n	8005afc <stm32__spi__data_size+0x20>
 8005af2:	f240 1147 	movw	r1, #327	; 0x147
 8005af6:	480b      	ldr	r0, [pc, #44]	; (8005b24 <stm32__spi__data_size+0x48>)
 8005af8:	f003 fabc 	bl	8009074 <__gnat_rcheck_PE_Access_Before_Elaboration>
 8005afc:	687b      	ldr	r3, [r7, #4]
 8005afe:	685b      	ldr	r3, [r3, #4]
 8005b00:	3308      	adds	r3, #8
 8005b02:	681b      	ldr	r3, [r3, #0]
 8005b04:	b2db      	uxtb	r3, r3
 8005b06:	f003 031f 	and.w	r3, r3, #31
 8005b0a:	b2db      	uxtb	r3, r3
 8005b0c:	2b0f      	cmp	r3, #15
 8005b0e:	d101      	bne.n	8005b14 <stm32__spi__data_size+0x38>
 8005b10:	2301      	movs	r3, #1
 8005b12:	e000      	b.n	8005b16 <stm32__spi__data_size+0x3a>
 8005b14:	2300      	movs	r3, #0
 8005b16:	bf00      	nop
 8005b18:	4618      	mov	r0, r3
 8005b1a:	3708      	adds	r7, #8
 8005b1c:	46bd      	mov	sp, r7
 8005b1e:	bd80      	pop	{r7, pc}
 8005b20:	20000052 	.word	0x20000052
 8005b24:	0800d7c4 	.word	0x0800d7c4

08005b28 <stm32__spi__transmit>:
 8005b28:	b5b0      	push	{r4, r5, r7, lr}
 8005b2a:	b086      	sub	sp, #24
 8005b2c:	af00      	add	r7, sp, #0
 8005b2e:	60f8      	str	r0, [r7, #12]
 8005b30:	e9c7 1200 	strd	r1, r2, [r7]
 8005b34:	60bb      	str	r3, [r7, #8]
 8005b36:	4b33      	ldr	r3, [pc, #204]	; (8005c04 <stm32__spi__transmit+0xdc>)
 8005b38:	781b      	ldrb	r3, [r3, #0]
 8005b3a:	f083 0301 	eor.w	r3, r3, #1
 8005b3e:	b2db      	uxtb	r3, r3
 8005b40:	2b00      	cmp	r3, #0
 8005b42:	d004      	beq.n	8005b4e <stm32__spi__transmit+0x26>
 8005b44:	f240 1155 	movw	r1, #341	; 0x155
 8005b48:	482f      	ldr	r0, [pc, #188]	; (8005c08 <stm32__spi__transmit+0xe0>)
 8005b4a:	f003 fa93 	bl	8009074 <__gnat_rcheck_PE_Access_Before_Elaboration>
 8005b4e:	68f8      	ldr	r0, [r7, #12]
 8005b50:	f7ff ffc4 	bl	8005adc <stm32__spi__data_size>
 8005b54:	4603      	mov	r3, r0
 8005b56:	2b00      	cmp	r3, #0
 8005b58:	d005      	beq.n	8005b66 <stm32__spi__transmit+0x3e>
 8005b5a:	4c2c      	ldr	r4, [pc, #176]	; (8005c0c <stm32__spi__transmit+0xe4>)
 8005b5c:	4d2c      	ldr	r5, [pc, #176]	; (8005c10 <stm32__spi__transmit+0xe8>)
 8005b5e:	4620      	mov	r0, r4
 8005b60:	4629      	mov	r1, r5
 8005b62:	f003 ff93 	bl	8009a8c <system__assertions__raise_assert_failure>
 8005b66:	68f8      	ldr	r0, [r7, #12]
 8005b68:	f7ff fef0 	bl	800594c <stm32__spi__crc_enabled>
 8005b6c:	4603      	mov	r3, r0
 8005b6e:	2b00      	cmp	r3, #0
 8005b70:	d002      	beq.n	8005b78 <stm32__spi__transmit+0x50>
 8005b72:	68f8      	ldr	r0, [r7, #12]
 8005b74:	f7ff ff6c 	bl	8005a50 <stm32__spi__reset_crc>
 8005b78:	68f8      	ldr	r0, [r7, #12]
 8005b7a:	f7ff ff41 	bl	8005a00 <stm32__spi__clear_overrun>
 8005b7e:	68f8      	ldr	r0, [r7, #12]
 8005b80:	f7ff fda4 	bl	80056cc <stm32__spi__enabled>
 8005b84:	4603      	mov	r3, r0
 8005b86:	f083 0301 	eor.w	r3, r3, #1
 8005b8a:	b2db      	uxtb	r3, r3
 8005b8c:	2b00      	cmp	r3, #0
 8005b8e:	d002      	beq.n	8005b96 <stm32__spi__transmit+0x6e>
 8005b90:	68f8      	ldr	r0, [r7, #12]
 8005b92:	f7ff fd5d 	bl	8005650 <stm32__spi__enable>
 8005b96:	e9d7 1200 	ldrd	r1, r2, [r7]
 8005b9a:	68f8      	ldr	r0, [r7, #12]
 8005b9c:	f000 ffac 	bl	8006af8 <stm32__spi__send_8bit_mode>
 8005ba0:	68f8      	ldr	r0, [r7, #12]
 8005ba2:	f7ff fe3b 	bl	800581c <stm32__spi__tx_is_empty>
 8005ba6:	4603      	mov	r3, r0
 8005ba8:	2b00      	cmp	r3, #0
 8005baa:	d101      	bne.n	8005bb0 <stm32__spi__transmit+0x88>
 8005bac:	bf00      	nop
 8005bae:	e7f7      	b.n	8005ba0 <stm32__spi__transmit+0x78>
 8005bb0:	68f8      	ldr	r0, [r7, #12]
 8005bb2:	f7ff fe5d 	bl	8005870 <stm32__spi__busy>
 8005bb6:	4603      	mov	r3, r0
 8005bb8:	f083 0301 	eor.w	r3, r3, #1
 8005bbc:	b2db      	uxtb	r3, r3
 8005bbe:	2b00      	cmp	r3, #0
 8005bc0:	d101      	bne.n	8005bc6 <stm32__spi__transmit+0x9e>
 8005bc2:	bf00      	nop
 8005bc4:	e7f4      	b.n	8005bb0 <stm32__spi__transmit+0x88>
 8005bc6:	68f8      	ldr	r0, [r7, #12]
 8005bc8:	f7ff fea6 	bl	8005918 <stm32__spi__current_data_direction>
 8005bcc:	4603      	mov	r3, r0
 8005bce:	2b01      	cmp	r3, #1
 8005bd0:	d001      	beq.n	8005bd6 <stm32__spi__transmit+0xae>
 8005bd2:	2b00      	cmp	r3, #0
 8005bd4:	d102      	bne.n	8005bdc <stm32__spi__transmit+0xb4>
 8005bd6:	68f8      	ldr	r0, [r7, #12]
 8005bd8:	f7ff ff12 	bl	8005a00 <stm32__spi__clear_overrun>
 8005bdc:	68fb      	ldr	r3, [r7, #12]
 8005bde:	685b      	ldr	r3, [r3, #4]
 8005be0:	3318      	adds	r3, #24
 8005be2:	681b      	ldr	r3, [r3, #0]
 8005be4:	461a      	mov	r2, r3
 8005be6:	4613      	mov	r3, r2
 8005be8:	f043 0208 	orr.w	r2, r3, #8
 8005bec:	68fb      	ldr	r3, [r7, #12]
 8005bee:	685b      	ldr	r3, [r3, #4]
 8005bf0:	3318      	adds	r3, #24
 8005bf2:	601a      	str	r2, [r3, #0]
 8005bf4:	2300      	movs	r3, #0
 8005bf6:	75fb      	strb	r3, [r7, #23]
 8005bf8:	7dfb      	ldrb	r3, [r7, #23]
 8005bfa:	bf00      	nop
 8005bfc:	4618      	mov	r0, r3
 8005bfe:	3718      	adds	r7, #24
 8005c00:	46bd      	mov	sp, r7
 8005c02:	bdb0      	pop	{r4, r5, r7, pc}
 8005c04:	20000053 	.word	0x20000053
 8005c08:	0800d7c4 	.word	0x0800d7c4
 8005c0c:	0800d7d4 	.word	0x0800d7d4
 8005c10:	0800d808 	.word	0x0800d808

08005c14 <stm32__spi__transmit__2>:
 8005c14:	b5b0      	push	{r4, r5, r7, lr}
 8005c16:	b086      	sub	sp, #24
 8005c18:	af00      	add	r7, sp, #0
 8005c1a:	60f8      	str	r0, [r7, #12]
 8005c1c:	e9c7 1200 	strd	r1, r2, [r7]
 8005c20:	60bb      	str	r3, [r7, #8]
 8005c22:	4b2e      	ldr	r3, [pc, #184]	; (8005cdc <stm32__spi__transmit__2+0xc8>)
 8005c24:	781b      	ldrb	r3, [r3, #0]
 8005c26:	f083 0301 	eor.w	r3, r3, #1
 8005c2a:	b2db      	uxtb	r3, r3
 8005c2c:	2b00      	cmp	r3, #0
 8005c2e:	d004      	beq.n	8005c3a <stm32__spi__transmit__2+0x26>
 8005c30:	f240 1189 	movw	r1, #393	; 0x189
 8005c34:	482a      	ldr	r0, [pc, #168]	; (8005ce0 <stm32__spi__transmit__2+0xcc>)
 8005c36:	f003 fa1d 	bl	8009074 <__gnat_rcheck_PE_Access_Before_Elaboration>
 8005c3a:	68f8      	ldr	r0, [r7, #12]
 8005c3c:	f7ff ff4e 	bl	8005adc <stm32__spi__data_size>
 8005c40:	4603      	mov	r3, r0
 8005c42:	2b01      	cmp	r3, #1
 8005c44:	d005      	beq.n	8005c52 <stm32__spi__transmit__2+0x3e>
 8005c46:	4c27      	ldr	r4, [pc, #156]	; (8005ce4 <stm32__spi__transmit__2+0xd0>)
 8005c48:	4d27      	ldr	r5, [pc, #156]	; (8005ce8 <stm32__spi__transmit__2+0xd4>)
 8005c4a:	4620      	mov	r0, r4
 8005c4c:	4629      	mov	r1, r5
 8005c4e:	f003 ff1d 	bl	8009a8c <system__assertions__raise_assert_failure>
 8005c52:	68f8      	ldr	r0, [r7, #12]
 8005c54:	f7ff fe7a 	bl	800594c <stm32__spi__crc_enabled>
 8005c58:	4603      	mov	r3, r0
 8005c5a:	2b00      	cmp	r3, #0
 8005c5c:	d002      	beq.n	8005c64 <stm32__spi__transmit__2+0x50>
 8005c5e:	68f8      	ldr	r0, [r7, #12]
 8005c60:	f7ff fef6 	bl	8005a50 <stm32__spi__reset_crc>
 8005c64:	68f8      	ldr	r0, [r7, #12]
 8005c66:	f7ff fecb 	bl	8005a00 <stm32__spi__clear_overrun>
 8005c6a:	68f8      	ldr	r0, [r7, #12]
 8005c6c:	f7ff fd2e 	bl	80056cc <stm32__spi__enabled>
 8005c70:	4603      	mov	r3, r0
 8005c72:	f083 0301 	eor.w	r3, r3, #1
 8005c76:	b2db      	uxtb	r3, r3
 8005c78:	2b00      	cmp	r3, #0
 8005c7a:	d002      	beq.n	8005c82 <stm32__spi__transmit__2+0x6e>
 8005c7c:	68f8      	ldr	r0, [r7, #12]
 8005c7e:	f7ff fce7 	bl	8005650 <stm32__spi__enable>
 8005c82:	e9d7 1200 	ldrd	r1, r2, [r7]
 8005c86:	68f8      	ldr	r0, [r7, #12]
 8005c88:	f000 fe52 	bl	8006930 <stm32__spi__send_16bit_mode>
 8005c8c:	68f8      	ldr	r0, [r7, #12]
 8005c8e:	f7ff fdc5 	bl	800581c <stm32__spi__tx_is_empty>
 8005c92:	4603      	mov	r3, r0
 8005c94:	2b00      	cmp	r3, #0
 8005c96:	d101      	bne.n	8005c9c <stm32__spi__transmit__2+0x88>
 8005c98:	bf00      	nop
 8005c9a:	e7f7      	b.n	8005c8c <stm32__spi__transmit__2+0x78>
 8005c9c:	68f8      	ldr	r0, [r7, #12]
 8005c9e:	f7ff fde7 	bl	8005870 <stm32__spi__busy>
 8005ca2:	4603      	mov	r3, r0
 8005ca4:	f083 0301 	eor.w	r3, r3, #1
 8005ca8:	b2db      	uxtb	r3, r3
 8005caa:	2b00      	cmp	r3, #0
 8005cac:	d101      	bne.n	8005cb2 <stm32__spi__transmit__2+0x9e>
 8005cae:	bf00      	nop
 8005cb0:	e7f4      	b.n	8005c9c <stm32__spi__transmit__2+0x88>
 8005cb2:	68f8      	ldr	r0, [r7, #12]
 8005cb4:	f7ff fe30 	bl	8005918 <stm32__spi__current_data_direction>
 8005cb8:	4603      	mov	r3, r0
 8005cba:	2b01      	cmp	r3, #1
 8005cbc:	d001      	beq.n	8005cc2 <stm32__spi__transmit__2+0xae>
 8005cbe:	2b00      	cmp	r3, #0
 8005cc0:	d104      	bne.n	8005ccc <stm32__spi__transmit__2+0xb8>
 8005cc2:	68f8      	ldr	r0, [r7, #12]
 8005cc4:	f7ff fe9c 	bl	8005a00 <stm32__spi__clear_overrun>
 8005cc8:	2301      	movs	r3, #1
 8005cca:	75fb      	strb	r3, [r7, #23]
 8005ccc:	2300      	movs	r3, #0
 8005cce:	75fb      	strb	r3, [r7, #23]
 8005cd0:	7dfb      	ldrb	r3, [r7, #23]
 8005cd2:	bf00      	nop
 8005cd4:	4618      	mov	r0, r3
 8005cd6:	3718      	adds	r7, #24
 8005cd8:	46bd      	mov	sp, r7
 8005cda:	bdb0      	pop	{r4, r5, r7, pc}
 8005cdc:	20000054 	.word	0x20000054
 8005ce0:	0800d7c4 	.word	0x0800d7c4
 8005ce4:	0800d810 	.word	0x0800d810
 8005ce8:	0800d808 	.word	0x0800d808

08005cec <stm32__spi__transmit__3>:
 8005cec:	b580      	push	{r7, lr}
 8005cee:	b084      	sub	sp, #16
 8005cf0:	af00      	add	r7, sp, #0
 8005cf2:	6078      	str	r0, [r7, #4]
 8005cf4:	460b      	mov	r3, r1
 8005cf6:	70fb      	strb	r3, [r7, #3]
 8005cf8:	4b24      	ldr	r3, [pc, #144]	; (8005d8c <stm32__spi__transmit__3+0xa0>)
 8005cfa:	781b      	ldrb	r3, [r3, #0]
 8005cfc:	f083 0301 	eor.w	r3, r3, #1
 8005d00:	b2db      	uxtb	r3, r3
 8005d02:	2b00      	cmp	r3, #0
 8005d04:	d004      	beq.n	8005d10 <stm32__spi__transmit__3+0x24>
 8005d06:	f44f 71dd 	mov.w	r1, #442	; 0x1ba
 8005d0a:	4821      	ldr	r0, [pc, #132]	; (8005d90 <stm32__spi__transmit__3+0xa4>)
 8005d0c:	f003 f9b2 	bl	8009074 <__gnat_rcheck_PE_Access_Before_Elaboration>
 8005d10:	687b      	ldr	r3, [r7, #4]
 8005d12:	685b      	ldr	r3, [r3, #4]
 8005d14:	3320      	adds	r3, #32
 8005d16:	60fb      	str	r3, [r7, #12]
 8005d18:	6878      	ldr	r0, [r7, #4]
 8005d1a:	f7ff fe17 	bl	800594c <stm32__spi__crc_enabled>
 8005d1e:	4603      	mov	r3, r0
 8005d20:	2b00      	cmp	r3, #0
 8005d22:	d002      	beq.n	8005d2a <stm32__spi__transmit__3+0x3e>
 8005d24:	6878      	ldr	r0, [r7, #4]
 8005d26:	f7ff fe93 	bl	8005a50 <stm32__spi__reset_crc>
 8005d2a:	6878      	ldr	r0, [r7, #4]
 8005d2c:	f7ff fcce 	bl	80056cc <stm32__spi__enabled>
 8005d30:	4603      	mov	r3, r0
 8005d32:	f083 0301 	eor.w	r3, r3, #1
 8005d36:	b2db      	uxtb	r3, r3
 8005d38:	2b00      	cmp	r3, #0
 8005d3a:	d002      	beq.n	8005d42 <stm32__spi__transmit__3+0x56>
 8005d3c:	6878      	ldr	r0, [r7, #4]
 8005d3e:	f7ff fc87 	bl	8005650 <stm32__spi__enable>
 8005d42:	68fb      	ldr	r3, [r7, #12]
 8005d44:	78fa      	ldrb	r2, [r7, #3]
 8005d46:	701a      	strb	r2, [r3, #0]
 8005d48:	6878      	ldr	r0, [r7, #4]
 8005d4a:	f7ff fd67 	bl	800581c <stm32__spi__tx_is_empty>
 8005d4e:	4603      	mov	r3, r0
 8005d50:	2b00      	cmp	r3, #0
 8005d52:	d101      	bne.n	8005d58 <stm32__spi__transmit__3+0x6c>
 8005d54:	bf00      	nop
 8005d56:	e7f7      	b.n	8005d48 <stm32__spi__transmit__3+0x5c>
 8005d58:	6878      	ldr	r0, [r7, #4]
 8005d5a:	f7ff fd89 	bl	8005870 <stm32__spi__busy>
 8005d5e:	4603      	mov	r3, r0
 8005d60:	f083 0301 	eor.w	r3, r3, #1
 8005d64:	b2db      	uxtb	r3, r3
 8005d66:	2b00      	cmp	r3, #0
 8005d68:	d101      	bne.n	8005d6e <stm32__spi__transmit__3+0x82>
 8005d6a:	bf00      	nop
 8005d6c:	e7f4      	b.n	8005d58 <stm32__spi__transmit__3+0x6c>
 8005d6e:	6878      	ldr	r0, [r7, #4]
 8005d70:	f7ff fdd2 	bl	8005918 <stm32__spi__current_data_direction>
 8005d74:	4603      	mov	r3, r0
 8005d76:	2b01      	cmp	r3, #1
 8005d78:	d001      	beq.n	8005d7e <stm32__spi__transmit__3+0x92>
 8005d7a:	2b00      	cmp	r3, #0
 8005d7c:	d102      	bne.n	8005d84 <stm32__spi__transmit__3+0x98>
 8005d7e:	6878      	ldr	r0, [r7, #4]
 8005d80:	f7ff fe3e 	bl	8005a00 <stm32__spi__clear_overrun>
 8005d84:	3710      	adds	r7, #16
 8005d86:	46bd      	mov	sp, r7
 8005d88:	bd80      	pop	{r7, pc}
 8005d8a:	bf00      	nop
 8005d8c:	20000055 	.word	0x20000055
 8005d90:	0800d7c4 	.word	0x0800d7c4

08005d94 <stm32__spi__receive>:
 8005d94:	b5b0      	push	{r4, r5, r7, lr}
 8005d96:	b086      	sub	sp, #24
 8005d98:	af00      	add	r7, sp, #0
 8005d9a:	60f8      	str	r0, [r7, #12]
 8005d9c:	e9c7 1200 	strd	r1, r2, [r7]
 8005da0:	60bb      	str	r3, [r7, #8]
 8005da2:	4b39      	ldr	r3, [pc, #228]	; (8005e88 <stm32__spi__receive+0xf4>)
 8005da4:	781b      	ldrb	r3, [r3, #0]
 8005da6:	f083 0301 	eor.w	r3, r3, #1
 8005daa:	b2db      	uxtb	r3, r3
 8005dac:	2b00      	cmp	r3, #0
 8005dae:	d004      	beq.n	8005dba <stm32__spi__receive+0x26>
 8005db0:	f44f 71f4 	mov.w	r1, #488	; 0x1e8
 8005db4:	4835      	ldr	r0, [pc, #212]	; (8005e8c <stm32__spi__receive+0xf8>)
 8005db6:	f003 f95d 	bl	8009074 <__gnat_rcheck_PE_Access_Before_Elaboration>
 8005dba:	68f8      	ldr	r0, [r7, #12]
 8005dbc:	f7ff fe8e 	bl	8005adc <stm32__spi__data_size>
 8005dc0:	4603      	mov	r3, r0
 8005dc2:	2b00      	cmp	r3, #0
 8005dc4:	d005      	beq.n	8005dd2 <stm32__spi__receive+0x3e>
 8005dc6:	4c32      	ldr	r4, [pc, #200]	; (8005e90 <stm32__spi__receive+0xfc>)
 8005dc8:	4d32      	ldr	r5, [pc, #200]	; (8005e94 <stm32__spi__receive+0x100>)
 8005dca:	4620      	mov	r0, r4
 8005dcc:	4629      	mov	r1, r5
 8005dce:	f003 fe5d 	bl	8009a8c <system__assertions__raise_assert_failure>
 8005dd2:	68fb      	ldr	r3, [r7, #12]
 8005dd4:	685b      	ldr	r3, [r3, #4]
 8005dd6:	3330      	adds	r3, #48	; 0x30
 8005dd8:	617b      	str	r3, [r7, #20]
 8005dda:	68f8      	ldr	r0, [r7, #12]
 8005ddc:	f7ff fd30 	bl	8005840 <stm32__spi__rx_is_empty>
 8005de0:	4603      	mov	r3, r0
 8005de2:	2b00      	cmp	r3, #0
 8005de4:	d104      	bne.n	8005df0 <stm32__spi__receive+0x5c>
 8005de6:	697b      	ldr	r3, [r7, #20]
 8005de8:	781b      	ldrb	r3, [r3, #0]
 8005dea:	b2db      	uxtb	r3, r3
 8005dec:	74fb      	strb	r3, [r7, #19]
 8005dee:	e7f4      	b.n	8005dda <stm32__spi__receive+0x46>
 8005df0:	68f8      	ldr	r0, [r7, #12]
 8005df2:	f7ff fdab 	bl	800594c <stm32__spi__crc_enabled>
 8005df6:	4603      	mov	r3, r0
 8005df8:	2b00      	cmp	r3, #0
 8005dfa:	d002      	beq.n	8005e02 <stm32__spi__receive+0x6e>
 8005dfc:	68f8      	ldr	r0, [r7, #12]
 8005dfe:	f7ff fe27 	bl	8005a50 <stm32__spi__reset_crc>
 8005e02:	68f8      	ldr	r0, [r7, #12]
 8005e04:	f7ff fc62 	bl	80056cc <stm32__spi__enabled>
 8005e08:	4603      	mov	r3, r0
 8005e0a:	f083 0301 	eor.w	r3, r3, #1
 8005e0e:	b2db      	uxtb	r3, r3
 8005e10:	2b00      	cmp	r3, #0
 8005e12:	d002      	beq.n	8005e1a <stm32__spi__receive+0x86>
 8005e14:	68f8      	ldr	r0, [r7, #12]
 8005e16:	f7ff fc1b 	bl	8005650 <stm32__spi__enable>
 8005e1a:	e9d7 1200 	ldrd	r1, r2, [r7]
 8005e1e:	68f8      	ldr	r0, [r7, #12]
 8005e20:	f000 ffac 	bl	8006d7c <stm32__spi__receive_8bit_mode>
 8005e24:	68f8      	ldr	r0, [r7, #12]
 8005e26:	f7ff fd23 	bl	8005870 <stm32__spi__busy>
 8005e2a:	4603      	mov	r3, r0
 8005e2c:	f083 0301 	eor.w	r3, r3, #1
 8005e30:	b2db      	uxtb	r3, r3
 8005e32:	2b00      	cmp	r3, #0
 8005e34:	d101      	bne.n	8005e3a <stm32__spi__receive+0xa6>
 8005e36:	bf00      	nop
 8005e38:	e7f4      	b.n	8005e24 <stm32__spi__receive+0x90>
 8005e3a:	68f8      	ldr	r0, [r7, #12]
 8005e3c:	f7ff fd86 	bl	800594c <stm32__spi__crc_enabled>
 8005e40:	4603      	mov	r3, r0
 8005e42:	461c      	mov	r4, r3
 8005e44:	68f8      	ldr	r0, [r7, #12]
 8005e46:	f7ff fd93 	bl	8005970 <stm32__spi__crc_error_indicated>
 8005e4a:	4603      	mov	r3, r0
 8005e4c:	4023      	ands	r3, r4
 8005e4e:	b2db      	uxtb	r3, r3
 8005e50:	2b00      	cmp	r3, #0
 8005e52:	d004      	beq.n	8005e5e <stm32__spi__receive+0xca>
 8005e54:	68f8      	ldr	r0, [r7, #12]
 8005e56:	f7ff fdfb 	bl	8005a50 <stm32__spi__reset_crc>
 8005e5a:	2301      	movs	r3, #1
 8005e5c:	74bb      	strb	r3, [r7, #18]
 8005e5e:	68fb      	ldr	r3, [r7, #12]
 8005e60:	685b      	ldr	r3, [r3, #4]
 8005e62:	3318      	adds	r3, #24
 8005e64:	681b      	ldr	r3, [r3, #0]
 8005e66:	461a      	mov	r2, r3
 8005e68:	4613      	mov	r3, r2
 8005e6a:	f043 0208 	orr.w	r2, r3, #8
 8005e6e:	68fb      	ldr	r3, [r7, #12]
 8005e70:	685b      	ldr	r3, [r3, #4]
 8005e72:	3318      	adds	r3, #24
 8005e74:	601a      	str	r2, [r3, #0]
 8005e76:	2300      	movs	r3, #0
 8005e78:	74bb      	strb	r3, [r7, #18]
 8005e7a:	7cbb      	ldrb	r3, [r7, #18]
 8005e7c:	bf00      	nop
 8005e7e:	4618      	mov	r0, r3
 8005e80:	3718      	adds	r7, #24
 8005e82:	46bd      	mov	sp, r7
 8005e84:	bdb0      	pop	{r4, r5, r7, pc}
 8005e86:	bf00      	nop
 8005e88:	20000056 	.word	0x20000056
 8005e8c:	0800d7c4 	.word	0x0800d7c4
 8005e90:	0800d844 	.word	0x0800d844
 8005e94:	0800d808 	.word	0x0800d808

08005e98 <stm32__spi__receive__2>:
 8005e98:	b5b0      	push	{r4, r5, r7, lr}
 8005e9a:	b086      	sub	sp, #24
 8005e9c:	af00      	add	r7, sp, #0
 8005e9e:	60f8      	str	r0, [r7, #12]
 8005ea0:	e9c7 1200 	strd	r1, r2, [r7]
 8005ea4:	60bb      	str	r3, [r7, #8]
 8005ea6:	4b2b      	ldr	r3, [pc, #172]	; (8005f54 <stm32__spi__receive__2+0xbc>)
 8005ea8:	781b      	ldrb	r3, [r3, #0]
 8005eaa:	f083 0301 	eor.w	r3, r3, #1
 8005eae:	b2db      	uxtb	r3, r3
 8005eb0:	2b00      	cmp	r3, #0
 8005eb2:	d004      	beq.n	8005ebe <stm32__spi__receive__2+0x26>
 8005eb4:	f240 2131 	movw	r1, #561	; 0x231
 8005eb8:	4827      	ldr	r0, [pc, #156]	; (8005f58 <stm32__spi__receive__2+0xc0>)
 8005eba:	f003 f8db 	bl	8009074 <__gnat_rcheck_PE_Access_Before_Elaboration>
 8005ebe:	68f8      	ldr	r0, [r7, #12]
 8005ec0:	f7ff fe0c 	bl	8005adc <stm32__spi__data_size>
 8005ec4:	4603      	mov	r3, r0
 8005ec6:	2b01      	cmp	r3, #1
 8005ec8:	d005      	beq.n	8005ed6 <stm32__spi__receive__2+0x3e>
 8005eca:	4c24      	ldr	r4, [pc, #144]	; (8005f5c <stm32__spi__receive__2+0xc4>)
 8005ecc:	4d24      	ldr	r5, [pc, #144]	; (8005f60 <stm32__spi__receive__2+0xc8>)
 8005ece:	4620      	mov	r0, r4
 8005ed0:	4629      	mov	r1, r5
 8005ed2:	f003 fddb 	bl	8009a8c <system__assertions__raise_assert_failure>
 8005ed6:	68f8      	ldr	r0, [r7, #12]
 8005ed8:	f7ff fd38 	bl	800594c <stm32__spi__crc_enabled>
 8005edc:	4603      	mov	r3, r0
 8005ede:	2b00      	cmp	r3, #0
 8005ee0:	d002      	beq.n	8005ee8 <stm32__spi__receive__2+0x50>
 8005ee2:	68f8      	ldr	r0, [r7, #12]
 8005ee4:	f7ff fdb4 	bl	8005a50 <stm32__spi__reset_crc>
 8005ee8:	68f8      	ldr	r0, [r7, #12]
 8005eea:	f7ff fbef 	bl	80056cc <stm32__spi__enabled>
 8005eee:	4603      	mov	r3, r0
 8005ef0:	f083 0301 	eor.w	r3, r3, #1
 8005ef4:	b2db      	uxtb	r3, r3
 8005ef6:	2b00      	cmp	r3, #0
 8005ef8:	d002      	beq.n	8005f00 <stm32__spi__receive__2+0x68>
 8005efa:	68f8      	ldr	r0, [r7, #12]
 8005efc:	f7ff fba8 	bl	8005650 <stm32__spi__enable>
 8005f00:	e9d7 1200 	ldrd	r1, r2, [r7]
 8005f04:	68f8      	ldr	r0, [r7, #12]
 8005f06:	f000 fedd 	bl	8006cc4 <stm32__spi__receive_16bit_mode>
 8005f0a:	68f8      	ldr	r0, [r7, #12]
 8005f0c:	f7ff fcb0 	bl	8005870 <stm32__spi__busy>
 8005f10:	4603      	mov	r3, r0
 8005f12:	f083 0301 	eor.w	r3, r3, #1
 8005f16:	b2db      	uxtb	r3, r3
 8005f18:	2b00      	cmp	r3, #0
 8005f1a:	d101      	bne.n	8005f20 <stm32__spi__receive__2+0x88>
 8005f1c:	bf00      	nop
 8005f1e:	e7f4      	b.n	8005f0a <stm32__spi__receive__2+0x72>
 8005f20:	68f8      	ldr	r0, [r7, #12]
 8005f22:	f7ff fd13 	bl	800594c <stm32__spi__crc_enabled>
 8005f26:	4603      	mov	r3, r0
 8005f28:	461c      	mov	r4, r3
 8005f2a:	68f8      	ldr	r0, [r7, #12]
 8005f2c:	f7ff fd20 	bl	8005970 <stm32__spi__crc_error_indicated>
 8005f30:	4603      	mov	r3, r0
 8005f32:	4023      	ands	r3, r4
 8005f34:	b2db      	uxtb	r3, r3
 8005f36:	2b00      	cmp	r3, #0
 8005f38:	d004      	beq.n	8005f44 <stm32__spi__receive__2+0xac>
 8005f3a:	68f8      	ldr	r0, [r7, #12]
 8005f3c:	f7ff fd88 	bl	8005a50 <stm32__spi__reset_crc>
 8005f40:	2301      	movs	r3, #1
 8005f42:	75fb      	strb	r3, [r7, #23]
 8005f44:	2300      	movs	r3, #0
 8005f46:	75fb      	strb	r3, [r7, #23]
 8005f48:	7dfb      	ldrb	r3, [r7, #23]
 8005f4a:	bf00      	nop
 8005f4c:	4618      	mov	r0, r3
 8005f4e:	3718      	adds	r7, #24
 8005f50:	46bd      	mov	sp, r7
 8005f52:	bdb0      	pop	{r4, r5, r7, pc}
 8005f54:	20000058 	.word	0x20000058
 8005f58:	0800d7c4 	.word	0x0800d7c4
 8005f5c:	0800d878 	.word	0x0800d878
 8005f60:	0800d808 	.word	0x0800d808

08005f64 <stm32__spi__receive__3>:
 8005f64:	b590      	push	{r4, r7, lr}
 8005f66:	b085      	sub	sp, #20
 8005f68:	af00      	add	r7, sp, #0
 8005f6a:	6078      	str	r0, [r7, #4]
 8005f6c:	4b3a      	ldr	r3, [pc, #232]	; (8006058 <stm32__spi__receive__3+0xf4>)
 8005f6e:	781b      	ldrb	r3, [r3, #0]
 8005f70:	f083 0301 	eor.w	r3, r3, #1
 8005f74:	b2db      	uxtb	r3, r3
 8005f76:	2b00      	cmp	r3, #0
 8005f78:	d004      	beq.n	8005f84 <stm32__spi__receive__3+0x20>
 8005f7a:	f240 2152 	movw	r1, #594	; 0x252
 8005f7e:	4837      	ldr	r0, [pc, #220]	; (800605c <stm32__spi__receive__3+0xf8>)
 8005f80:	f003 f878 	bl	8009074 <__gnat_rcheck_PE_Access_Before_Elaboration>
 8005f84:	687b      	ldr	r3, [r7, #4]
 8005f86:	685b      	ldr	r3, [r3, #4]
 8005f88:	3330      	adds	r3, #48	; 0x30
 8005f8a:	60fb      	str	r3, [r7, #12]
 8005f8c:	6878      	ldr	r0, [r7, #4]
 8005f8e:	f7ff fcdd 	bl	800594c <stm32__spi__crc_enabled>
 8005f92:	4603      	mov	r3, r0
 8005f94:	2b00      	cmp	r3, #0
 8005f96:	d002      	beq.n	8005f9e <stm32__spi__receive__3+0x3a>
 8005f98:	6878      	ldr	r0, [r7, #4]
 8005f9a:	f7ff fd59 	bl	8005a50 <stm32__spi__reset_crc>
 8005f9e:	6878      	ldr	r0, [r7, #4]
 8005fa0:	f7ff fb94 	bl	80056cc <stm32__spi__enabled>
 8005fa4:	4603      	mov	r3, r0
 8005fa6:	f083 0301 	eor.w	r3, r3, #1
 8005faa:	b2db      	uxtb	r3, r3
 8005fac:	2b00      	cmp	r3, #0
 8005fae:	d002      	beq.n	8005fb6 <stm32__spi__receive__3+0x52>
 8005fb0:	6878      	ldr	r0, [r7, #4]
 8005fb2:	f7ff fb4d 	bl	8005650 <stm32__spi__enable>
 8005fb6:	68fb      	ldr	r3, [r7, #12]
 8005fb8:	2200      	movs	r2, #0
 8005fba:	701a      	strb	r2, [r3, #0]
 8005fbc:	6878      	ldr	r0, [r7, #4]
 8005fbe:	f7ff fc3f 	bl	8005840 <stm32__spi__rx_is_empty>
 8005fc2:	4603      	mov	r3, r0
 8005fc4:	f083 0301 	eor.w	r3, r3, #1
 8005fc8:	b2db      	uxtb	r3, r3
 8005fca:	2b00      	cmp	r3, #0
 8005fcc:	d101      	bne.n	8005fd2 <stm32__spi__receive__3+0x6e>
 8005fce:	bf00      	nop
 8005fd0:	e7f4      	b.n	8005fbc <stm32__spi__receive__3+0x58>
 8005fd2:	68fb      	ldr	r3, [r7, #12]
 8005fd4:	781b      	ldrb	r3, [r3, #0]
 8005fd6:	b2db      	uxtb	r3, r3
 8005fd8:	727b      	strb	r3, [r7, #9]
 8005fda:	6878      	ldr	r0, [r7, #4]
 8005fdc:	f7ff fcb6 	bl	800594c <stm32__spi__crc_enabled>
 8005fe0:	4603      	mov	r3, r0
 8005fe2:	2b00      	cmp	r3, #0
 8005fe4:	d016      	beq.n	8006014 <stm32__spi__receive__3+0xb0>
 8005fe6:	6878      	ldr	r0, [r7, #4]
 8005fe8:	f7ff fc2a 	bl	8005840 <stm32__spi__rx_is_empty>
 8005fec:	4603      	mov	r3, r0
 8005fee:	f083 0301 	eor.w	r3, r3, #1
 8005ff2:	b2db      	uxtb	r3, r3
 8005ff4:	2b00      	cmp	r3, #0
 8005ff6:	d101      	bne.n	8005ffc <stm32__spi__receive__3+0x98>
 8005ff8:	bf00      	nop
 8005ffa:	e7f4      	b.n	8005fe6 <stm32__spi__receive__3+0x82>
 8005ffc:	687b      	ldr	r3, [r7, #4]
 8005ffe:	685b      	ldr	r3, [r3, #4]
 8006000:	6b1b      	ldr	r3, [r3, #48]	; 0x30
 8006002:	f5b3 3f80 	cmp.w	r3, #65536	; 0x10000
 8006006:	d304      	bcc.n	8006012 <stm32__spi__receive__3+0xae>
 8006008:	f240 216f 	movw	r1, #623	; 0x26f
 800600c:	4813      	ldr	r0, [pc, #76]	; (800605c <stm32__spi__receive__3+0xf8>)
 800600e:	f003 f829 	bl	8009064 <__gnat_rcheck_CE_Range_Check>
 8006012:	817b      	strh	r3, [r7, #10]
 8006014:	6878      	ldr	r0, [r7, #4]
 8006016:	f7ff fc2b 	bl	8005870 <stm32__spi__busy>
 800601a:	4603      	mov	r3, r0
 800601c:	f083 0301 	eor.w	r3, r3, #1
 8006020:	b2db      	uxtb	r3, r3
 8006022:	2b00      	cmp	r3, #0
 8006024:	d101      	bne.n	800602a <stm32__spi__receive__3+0xc6>
 8006026:	bf00      	nop
 8006028:	e7f4      	b.n	8006014 <stm32__spi__receive__3+0xb0>
 800602a:	6878      	ldr	r0, [r7, #4]
 800602c:	f7ff fc8e 	bl	800594c <stm32__spi__crc_enabled>
 8006030:	4603      	mov	r3, r0
 8006032:	461c      	mov	r4, r3
 8006034:	6878      	ldr	r0, [r7, #4]
 8006036:	f7ff fc9b 	bl	8005970 <stm32__spi__crc_error_indicated>
 800603a:	4603      	mov	r3, r0
 800603c:	4023      	ands	r3, r4
 800603e:	b2db      	uxtb	r3, r3
 8006040:	2b00      	cmp	r3, #0
 8006042:	d002      	beq.n	800604a <stm32__spi__receive__3+0xe6>
 8006044:	6878      	ldr	r0, [r7, #4]
 8006046:	f7ff fd03 	bl	8005a50 <stm32__spi__reset_crc>
 800604a:	7a7b      	ldrb	r3, [r7, #9]
 800604c:	bf00      	nop
 800604e:	4618      	mov	r0, r3
 8006050:	3714      	adds	r7, #20
 8006052:	46bd      	mov	sp, r7
 8006054:	bd90      	pop	{r4, r7, pc}
 8006056:	bf00      	nop
 8006058:	20000059 	.word	0x20000059
 800605c:	0800d7c4 	.word	0x0800d7c4

08006060 <stm32__spi__transmit_receive__2>:
 8006060:	b082      	sub	sp, #8
 8006062:	b590      	push	{r4, r7, lr}
 8006064:	b08f      	sub	sp, #60	; 0x3c
 8006066:	af02      	add	r7, sp, #8
 8006068:	6178      	str	r0, [r7, #20]
 800606a:	e9c7 1202 	strd	r1, r2, [r7, #8]
 800606e:	647b      	str	r3, [r7, #68]	; 0x44
 8006070:	463b      	mov	r3, r7
 8006072:	f107 0244 	add.w	r2, r7, #68	; 0x44
 8006076:	e892 0003 	ldmia.w	r2, {r0, r1}
 800607a:	e883 0003 	stmia.w	r3, {r0, r1}
 800607e:	68fb      	ldr	r3, [r7, #12]
 8006080:	681b      	ldr	r3, [r3, #0]
 8006082:	68fa      	ldr	r2, [r7, #12]
 8006084:	6852      	ldr	r2, [r2, #4]
 8006086:	4949      	ldr	r1, [pc, #292]	; (80061ac <stm32__spi__transmit_receive__2+0x14c>)
 8006088:	7809      	ldrb	r1, [r1, #0]
 800608a:	f081 0101 	eor.w	r1, r1, #1
 800608e:	b2c9      	uxtb	r1, r1
 8006090:	2900      	cmp	r1, #0
 8006092:	d004      	beq.n	800609e <stm32__spi__transmit_receive__2+0x3e>
 8006094:	f44f 7120 	mov.w	r1, #640	; 0x280
 8006098:	4845      	ldr	r0, [pc, #276]	; (80061b0 <stm32__spi__transmit_receive__2+0x150>)
 800609a:	f002 ffeb 	bl	8009074 <__gnat_rcheck_PE_Access_Before_Elaboration>
 800609e:	6879      	ldr	r1, [r7, #4]
 80060a0:	6809      	ldr	r1, [r1, #0]
 80060a2:	62f9      	str	r1, [r7, #44]	; 0x2c
 80060a4:	6879      	ldr	r1, [r7, #4]
 80060a6:	6848      	ldr	r0, [r1, #4]
 80060a8:	6879      	ldr	r1, [r7, #4]
 80060aa:	6809      	ldr	r1, [r1, #0]
 80060ac:	4288      	cmp	r0, r1
 80060ae:	db03      	blt.n	80060b8 <stm32__spi__transmit_receive__2+0x58>
 80060b0:	6879      	ldr	r1, [r7, #4]
 80060b2:	6849      	ldr	r1, [r1, #4]
 80060b4:	62b9      	str	r1, [r7, #40]	; 0x28
 80060b6:	e003      	b.n	80060c0 <stm32__spi__transmit_receive__2+0x60>
 80060b8:	6879      	ldr	r1, [r7, #4]
 80060ba:	6809      	ldr	r1, [r1, #0]
 80060bc:	3901      	subs	r1, #1
 80060be:	62b9      	str	r1, [r7, #40]	; 0x28
 80060c0:	627b      	str	r3, [r7, #36]	; 0x24
 80060c2:	429a      	cmp	r2, r3
 80060c4:	db01      	blt.n	80060ca <stm32__spi__transmit_receive__2+0x6a>
 80060c6:	623a      	str	r2, [r7, #32]
 80060c8:	e001      	b.n	80060ce <stm32__spi__transmit_receive__2+0x6e>
 80060ca:	3b01      	subs	r3, #1
 80060cc:	623b      	str	r3, [r7, #32]
 80060ce:	6978      	ldr	r0, [r7, #20]
 80060d0:	f7ff fc3c 	bl	800594c <stm32__spi__crc_enabled>
 80060d4:	4603      	mov	r3, r0
 80060d6:	2b00      	cmp	r3, #0
 80060d8:	d002      	beq.n	80060e0 <stm32__spi__transmit_receive__2+0x80>
 80060da:	6978      	ldr	r0, [r7, #20]
 80060dc:	f7ff fcb8 	bl	8005a50 <stm32__spi__reset_crc>
 80060e0:	6978      	ldr	r0, [r7, #20]
 80060e2:	f7ff faf3 	bl	80056cc <stm32__spi__enabled>
 80060e6:	4603      	mov	r3, r0
 80060e8:	f083 0301 	eor.w	r3, r3, #1
 80060ec:	b2db      	uxtb	r3, r3
 80060ee:	2b00      	cmp	r3, #0
 80060f0:	d002      	beq.n	80060f8 <stm32__spi__transmit_receive__2+0x98>
 80060f2:	6978      	ldr	r0, [r7, #20]
 80060f4:	f7ff faac 	bl	8005650 <stm32__spi__enable>
 80060f8:	6978      	ldr	r0, [r7, #20]
 80060fa:	f7ff fcd7 	bl	8005aac <stm32__spi__is_data_frame_16bit>
 80060fe:	4603      	mov	r3, r0
 8006100:	2b00      	cmp	r3, #0
 8006102:	d00a      	beq.n	800611a <stm32__spi__transmit_receive__2+0xba>
 8006104:	6cfb      	ldr	r3, [r7, #76]	; 0x4c
 8006106:	9301      	str	r3, [sp, #4]
 8006108:	687b      	ldr	r3, [r7, #4]
 800610a:	9300      	str	r3, [sp, #0]
 800610c:	683b      	ldr	r3, [r7, #0]
 800610e:	e9d7 1202 	ldrd	r1, r2, [r7, #8]
 8006112:	6978      	ldr	r0, [r7, #20]
 8006114:	f000 f8dc 	bl	80062d0 <stm32__spi__send_receive_16bit_mode>
 8006118:	e009      	b.n	800612e <stm32__spi__transmit_receive__2+0xce>
 800611a:	6cfb      	ldr	r3, [r7, #76]	; 0x4c
 800611c:	9301      	str	r3, [sp, #4]
 800611e:	687b      	ldr	r3, [r7, #4]
 8006120:	9300      	str	r3, [sp, #0]
 8006122:	683b      	ldr	r3, [r7, #0]
 8006124:	e9d7 1202 	ldrd	r1, r2, [r7, #8]
 8006128:	6978      	ldr	r0, [r7, #20]
 800612a:	f000 fa79 	bl	8006620 <stm32__spi__send_receive_8bit_mode>
 800612e:	6978      	ldr	r0, [r7, #20]
 8006130:	f7ff fc0c 	bl	800594c <stm32__spi__crc_enabled>
 8006134:	4603      	mov	r3, r0
 8006136:	2b00      	cmp	r3, #0
 8006138:	d016      	beq.n	8006168 <stm32__spi__transmit_receive__2+0x108>
 800613a:	6978      	ldr	r0, [r7, #20]
 800613c:	f7ff fb80 	bl	8005840 <stm32__spi__rx_is_empty>
 8006140:	4603      	mov	r3, r0
 8006142:	f083 0301 	eor.w	r3, r3, #1
 8006146:	b2db      	uxtb	r3, r3
 8006148:	2b00      	cmp	r3, #0
 800614a:	d101      	bne.n	8006150 <stm32__spi__transmit_receive__2+0xf0>
 800614c:	bf00      	nop
 800614e:	e7f4      	b.n	800613a <stm32__spi__transmit_receive__2+0xda>
 8006150:	697b      	ldr	r3, [r7, #20]
 8006152:	685b      	ldr	r3, [r3, #4]
 8006154:	6b1b      	ldr	r3, [r3, #48]	; 0x30
 8006156:	f5b3 3f80 	cmp.w	r3, #65536	; 0x10000
 800615a:	d304      	bcc.n	8006166 <stm32__spi__transmit_receive__2+0x106>
 800615c:	f240 219e 	movw	r1, #670	; 0x29e
 8006160:	4813      	ldr	r0, [pc, #76]	; (80061b0 <stm32__spi__transmit_receive__2+0x150>)
 8006162:	f002 ff7f 	bl	8009064 <__gnat_rcheck_CE_Range_Check>
 8006166:	83fb      	strh	r3, [r7, #30]
 8006168:	6978      	ldr	r0, [r7, #20]
 800616a:	f7ff fb81 	bl	8005870 <stm32__spi__busy>
 800616e:	4603      	mov	r3, r0
 8006170:	f083 0301 	eor.w	r3, r3, #1
 8006174:	b2db      	uxtb	r3, r3
 8006176:	2b00      	cmp	r3, #0
 8006178:	d101      	bne.n	800617e <stm32__spi__transmit_receive__2+0x11e>
 800617a:	bf00      	nop
 800617c:	e7f4      	b.n	8006168 <stm32__spi__transmit_receive__2+0x108>
 800617e:	6978      	ldr	r0, [r7, #20]
 8006180:	f7ff fbe4 	bl	800594c <stm32__spi__crc_enabled>
 8006184:	4603      	mov	r3, r0
 8006186:	461c      	mov	r4, r3
 8006188:	6978      	ldr	r0, [r7, #20]
 800618a:	f7ff fbf1 	bl	8005970 <stm32__spi__crc_error_indicated>
 800618e:	4603      	mov	r3, r0
 8006190:	4023      	ands	r3, r4
 8006192:	b2db      	uxtb	r3, r3
 8006194:	2b00      	cmp	r3, #0
 8006196:	d002      	beq.n	800619e <stm32__spi__transmit_receive__2+0x13e>
 8006198:	6978      	ldr	r0, [r7, #20]
 800619a:	f7ff fc59 	bl	8005a50 <stm32__spi__reset_crc>
 800619e:	3734      	adds	r7, #52	; 0x34
 80061a0:	46bd      	mov	sp, r7
 80061a2:	e8bd 4090 	ldmia.w	sp!, {r4, r7, lr}
 80061a6:	b002      	add	sp, #8
 80061a8:	4770      	bx	lr
 80061aa:	bf00      	nop
 80061ac:	2000005a 	.word	0x2000005a
 80061b0:	0800d7c4 	.word	0x0800d7c4

080061b4 <stm32__spi__transmit_receive__3>:
 80061b4:	b590      	push	{r4, r7, lr}
 80061b6:	b087      	sub	sp, #28
 80061b8:	af00      	add	r7, sp, #0
 80061ba:	6078      	str	r0, [r7, #4]
 80061bc:	460b      	mov	r3, r1
 80061be:	70fb      	strb	r3, [r7, #3]
 80061c0:	4b41      	ldr	r3, [pc, #260]	; (80062c8 <stm32__spi__transmit_receive__3+0x114>)
 80061c2:	781b      	ldrb	r3, [r3, #0]
 80061c4:	f083 0301 	eor.w	r3, r3, #1
 80061c8:	b2db      	uxtb	r3, r3
 80061ca:	2b00      	cmp	r3, #0
 80061cc:	d004      	beq.n	80061d8 <stm32__spi__transmit_receive__3+0x24>
 80061ce:	f240 21af 	movw	r1, #687	; 0x2af
 80061d2:	483e      	ldr	r0, [pc, #248]	; (80062cc <stm32__spi__transmit_receive__3+0x118>)
 80061d4:	f002 ff4e 	bl	8009074 <__gnat_rcheck_PE_Access_Before_Elaboration>
 80061d8:	687b      	ldr	r3, [r7, #4]
 80061da:	685b      	ldr	r3, [r3, #4]
 80061dc:	3320      	adds	r3, #32
 80061de:	617b      	str	r3, [r7, #20]
 80061e0:	687b      	ldr	r3, [r7, #4]
 80061e2:	685b      	ldr	r3, [r3, #4]
 80061e4:	3330      	adds	r3, #48	; 0x30
 80061e6:	613b      	str	r3, [r7, #16]
 80061e8:	6878      	ldr	r0, [r7, #4]
 80061ea:	f7ff fbaf 	bl	800594c <stm32__spi__crc_enabled>
 80061ee:	4603      	mov	r3, r0
 80061f0:	2b00      	cmp	r3, #0
 80061f2:	d002      	beq.n	80061fa <stm32__spi__transmit_receive__3+0x46>
 80061f4:	6878      	ldr	r0, [r7, #4]
 80061f6:	f7ff fc2b 	bl	8005a50 <stm32__spi__reset_crc>
 80061fa:	6878      	ldr	r0, [r7, #4]
 80061fc:	f7ff fa66 	bl	80056cc <stm32__spi__enabled>
 8006200:	4603      	mov	r3, r0
 8006202:	f083 0301 	eor.w	r3, r3, #1
 8006206:	b2db      	uxtb	r3, r3
 8006208:	2b00      	cmp	r3, #0
 800620a:	d002      	beq.n	8006212 <stm32__spi__transmit_receive__3+0x5e>
 800620c:	6878      	ldr	r0, [r7, #4]
 800620e:	f7ff fa1f 	bl	8005650 <stm32__spi__enable>
 8006212:	6878      	ldr	r0, [r7, #4]
 8006214:	f7ff fc4a 	bl	8005aac <stm32__spi__is_data_frame_16bit>
 8006218:	4603      	mov	r3, r0
 800621a:	2b00      	cmp	r3, #0
 800621c:	d004      	beq.n	8006228 <stm32__spi__transmit_receive__3+0x74>
 800621e:	f44f 7130 	mov.w	r1, #704	; 0x2c0
 8006222:	482a      	ldr	r0, [pc, #168]	; (80062cc <stm32__spi__transmit_receive__3+0x118>)
 8006224:	f002 ff2c 	bl	8009080 <__gnat_rcheck_PE_Explicit_Raise>
 8006228:	697b      	ldr	r3, [r7, #20]
 800622a:	78fa      	ldrb	r2, [r7, #3]
 800622c:	701a      	strb	r2, [r3, #0]
 800622e:	6878      	ldr	r0, [r7, #4]
 8006230:	f7ff fb06 	bl	8005840 <stm32__spi__rx_is_empty>
 8006234:	4603      	mov	r3, r0
 8006236:	f083 0301 	eor.w	r3, r3, #1
 800623a:	b2db      	uxtb	r3, r3
 800623c:	2b00      	cmp	r3, #0
 800623e:	d101      	bne.n	8006244 <stm32__spi__transmit_receive__3+0x90>
 8006240:	bf00      	nop
 8006242:	e7f4      	b.n	800622e <stm32__spi__transmit_receive__3+0x7a>
 8006244:	693b      	ldr	r3, [r7, #16]
 8006246:	781b      	ldrb	r3, [r3, #0]
 8006248:	b2db      	uxtb	r3, r3
 800624a:	737b      	strb	r3, [r7, #13]
 800624c:	6878      	ldr	r0, [r7, #4]
 800624e:	f7ff fb7d 	bl	800594c <stm32__spi__crc_enabled>
 8006252:	4603      	mov	r3, r0
 8006254:	2b00      	cmp	r3, #0
 8006256:	d016      	beq.n	8006286 <stm32__spi__transmit_receive__3+0xd2>
 8006258:	6878      	ldr	r0, [r7, #4]
 800625a:	f7ff faf1 	bl	8005840 <stm32__spi__rx_is_empty>
 800625e:	4603      	mov	r3, r0
 8006260:	f083 0301 	eor.w	r3, r3, #1
 8006264:	b2db      	uxtb	r3, r3
 8006266:	2b00      	cmp	r3, #0
 8006268:	d101      	bne.n	800626e <stm32__spi__transmit_receive__3+0xba>
 800626a:	bf00      	nop
 800626c:	e7f4      	b.n	8006258 <stm32__spi__transmit_receive__3+0xa4>
 800626e:	687b      	ldr	r3, [r7, #4]
 8006270:	685b      	ldr	r3, [r3, #4]
 8006272:	6b1b      	ldr	r3, [r3, #48]	; 0x30
 8006274:	f5b3 3f80 	cmp.w	r3, #65536	; 0x10000
 8006278:	d304      	bcc.n	8006284 <stm32__spi__transmit_receive__3+0xd0>
 800627a:	f240 21da 	movw	r1, #730	; 0x2da
 800627e:	4813      	ldr	r0, [pc, #76]	; (80062cc <stm32__spi__transmit_receive__3+0x118>)
 8006280:	f002 fef0 	bl	8009064 <__gnat_rcheck_CE_Range_Check>
 8006284:	81fb      	strh	r3, [r7, #14]
 8006286:	6878      	ldr	r0, [r7, #4]
 8006288:	f7ff faf2 	bl	8005870 <stm32__spi__busy>
 800628c:	4603      	mov	r3, r0
 800628e:	f083 0301 	eor.w	r3, r3, #1
 8006292:	b2db      	uxtb	r3, r3
 8006294:	2b00      	cmp	r3, #0
 8006296:	d101      	bne.n	800629c <stm32__spi__transmit_receive__3+0xe8>
 8006298:	bf00      	nop
 800629a:	e7f4      	b.n	8006286 <stm32__spi__transmit_receive__3+0xd2>
 800629c:	6878      	ldr	r0, [r7, #4]
 800629e:	f7ff fb55 	bl	800594c <stm32__spi__crc_enabled>
 80062a2:	4603      	mov	r3, r0
 80062a4:	461c      	mov	r4, r3
 80062a6:	6878      	ldr	r0, [r7, #4]
 80062a8:	f7ff fb62 	bl	8005970 <stm32__spi__crc_error_indicated>
 80062ac:	4603      	mov	r3, r0
 80062ae:	4023      	ands	r3, r4
 80062b0:	b2db      	uxtb	r3, r3
 80062b2:	2b00      	cmp	r3, #0
 80062b4:	d002      	beq.n	80062bc <stm32__spi__transmit_receive__3+0x108>
 80062b6:	6878      	ldr	r0, [r7, #4]
 80062b8:	f7ff fbca 	bl	8005a50 <stm32__spi__reset_crc>
 80062bc:	7b7b      	ldrb	r3, [r7, #13]
 80062be:	bf00      	nop
 80062c0:	4618      	mov	r0, r3
 80062c2:	371c      	adds	r7, #28
 80062c4:	46bd      	mov	sp, r7
 80062c6:	bd90      	pop	{r4, r7, pc}
 80062c8:	2000005b 	.word	0x2000005b
 80062cc:	0800d7c4 	.word	0x0800d7c4

080062d0 <stm32__spi__send_receive_16bit_mode>:
 80062d0:	b082      	sub	sp, #8
 80062d2:	b5b0      	push	{r4, r5, r7, lr}
 80062d4:	b08e      	sub	sp, #56	; 0x38
 80062d6:	af00      	add	r7, sp, #0
 80062d8:	6178      	str	r0, [r7, #20]
 80062da:	e9c7 1202 	strd	r1, r2, [r7, #8]
 80062de:	64fb      	str	r3, [r7, #76]	; 0x4c
 80062e0:	463b      	mov	r3, r7
 80062e2:	f107 024c 	add.w	r2, r7, #76	; 0x4c
 80062e6:	e892 0003 	ldmia.w	r2, {r0, r1}
 80062ea:	e883 0003 	stmia.w	r3, {r0, r1}
 80062ee:	68fb      	ldr	r3, [r7, #12]
 80062f0:	681c      	ldr	r4, [r3, #0]
 80062f2:	68fb      	ldr	r3, [r7, #12]
 80062f4:	685d      	ldr	r5, [r3, #4]
 80062f6:	4ba3      	ldr	r3, [pc, #652]	; (8006584 <stm32__spi__send_receive_16bit_mode+0x2b4>)
 80062f8:	781b      	ldrb	r3, [r3, #0]
 80062fa:	f083 0301 	eor.w	r3, r3, #1
 80062fe:	b2db      	uxtb	r3, r3
 8006300:	2b00      	cmp	r3, #0
 8006302:	d004      	beq.n	800630e <stm32__spi__send_receive_16bit_mode+0x3e>
 8006304:	f240 21eb 	movw	r1, #747	; 0x2eb
 8006308:	489f      	ldr	r0, [pc, #636]	; (8006588 <stm32__spi__send_receive_16bit_mode+0x2b8>)
 800630a:	f002 feb3 	bl	8009074 <__gnat_rcheck_PE_Access_Before_Elaboration>
 800630e:	687b      	ldr	r3, [r7, #4]
 8006310:	681b      	ldr	r3, [r3, #0]
 8006312:	62bb      	str	r3, [r7, #40]	; 0x28
 8006314:	687b      	ldr	r3, [r7, #4]
 8006316:	685a      	ldr	r2, [r3, #4]
 8006318:	687b      	ldr	r3, [r7, #4]
 800631a:	681b      	ldr	r3, [r3, #0]
 800631c:	429a      	cmp	r2, r3
 800631e:	db03      	blt.n	8006328 <stm32__spi__send_receive_16bit_mode+0x58>
 8006320:	687b      	ldr	r3, [r7, #4]
 8006322:	685b      	ldr	r3, [r3, #4]
 8006324:	627b      	str	r3, [r7, #36]	; 0x24
 8006326:	e003      	b.n	8006330 <stm32__spi__send_receive_16bit_mode+0x60>
 8006328:	687b      	ldr	r3, [r7, #4]
 800632a:	681b      	ldr	r3, [r3, #0]
 800632c:	3b01      	subs	r3, #1
 800632e:	627b      	str	r3, [r7, #36]	; 0x24
 8006330:	623c      	str	r4, [r7, #32]
 8006332:	42a5      	cmp	r5, r4
 8006334:	db01      	blt.n	800633a <stm32__spi__send_receive_16bit_mode+0x6a>
 8006336:	61fd      	str	r5, [r7, #28]
 8006338:	e002      	b.n	8006340 <stm32__spi__send_receive_16bit_mode+0x70>
 800633a:	4623      	mov	r3, r4
 800633c:	3b01      	subs	r3, #1
 800633e:	61fb      	str	r3, [r7, #28]
 8006340:	6d7b      	ldr	r3, [r7, #84]	; 0x54
 8006342:	633b      	str	r3, [r7, #48]	; 0x30
 8006344:	2c00      	cmp	r4, #0
 8006346:	da04      	bge.n	8006352 <stm32__spi__send_receive_16bit_mode+0x82>
 8006348:	f240 21f2 	movw	r1, #754	; 0x2f2
 800634c:	488e      	ldr	r0, [pc, #568]	; (8006588 <stm32__spi__send_receive_16bit_mode+0x2b8>)
 800634e:	f002 fe89 	bl	8009064 <__gnat_rcheck_CE_Range_Check>
 8006352:	637c      	str	r4, [r7, #52]	; 0x34
 8006354:	687b      	ldr	r3, [r7, #4]
 8006356:	681b      	ldr	r3, [r3, #0]
 8006358:	2b00      	cmp	r3, #0
 800635a:	da04      	bge.n	8006366 <stm32__spi__send_receive_16bit_mode+0x96>
 800635c:	f240 21f3 	movw	r1, #755	; 0x2f3
 8006360:	4889      	ldr	r0, [pc, #548]	; (8006588 <stm32__spi__send_receive_16bit_mode+0x2b8>)
 8006362:	f002 fe7f 	bl	8009064 <__gnat_rcheck_CE_Range_Check>
 8006366:	687b      	ldr	r3, [r7, #4]
 8006368:	681b      	ldr	r3, [r3, #0]
 800636a:	62fb      	str	r3, [r7, #44]	; 0x2c
 800636c:	6978      	ldr	r0, [r7, #20]
 800636e:	f7ff fa97 	bl	80058a0 <stm32__spi__current_mode>
 8006372:	4603      	mov	r3, r0
 8006374:	2b01      	cmp	r3, #1
 8006376:	bf0c      	ite	eq
 8006378:	2301      	moveq	r3, #1
 800637a:	2300      	movne	r3, #0
 800637c:	b2db      	uxtb	r3, r3
 800637e:	2b00      	cmp	r3, #0
 8006380:	d102      	bne.n	8006388 <stm32__spi__send_receive_16bit_mode+0xb8>
 8006382:	6b3b      	ldr	r3, [r7, #48]	; 0x30
 8006384:	2b01      	cmp	r3, #1
 8006386:	d135      	bne.n	80063f4 <stm32__spi__send_receive_16bit_mode+0x124>
 8006388:	6b7b      	ldr	r3, [r7, #52]	; 0x34
 800638a:	429c      	cmp	r4, r3
 800638c:	dc02      	bgt.n	8006394 <stm32__spi__send_receive_16bit_mode+0xc4>
 800638e:	6b7b      	ldr	r3, [r7, #52]	; 0x34
 8006390:	429d      	cmp	r5, r3
 8006392:	da04      	bge.n	800639e <stm32__spi__send_receive_16bit_mode+0xce>
 8006394:	f240 21f7 	movw	r1, #759	; 0x2f7
 8006398:	487b      	ldr	r0, [pc, #492]	; (8006588 <stm32__spi__send_receive_16bit_mode+0x2b8>)
 800639a:	f002 fe4b 	bl	8009034 <__gnat_rcheck_CE_Index_Check>
 800639e:	68ba      	ldr	r2, [r7, #8]
 80063a0:	6b7b      	ldr	r3, [r7, #52]	; 0x34
 80063a2:	4621      	mov	r1, r4
 80063a4:	1a5b      	subs	r3, r3, r1
 80063a6:	4413      	add	r3, r2
 80063a8:	2b00      	cmp	r3, #0
 80063aa:	d104      	bne.n	80063b6 <stm32__spi__send_receive_16bit_mode+0xe6>
 80063ac:	f240 21f7 	movw	r1, #759	; 0x2f7
 80063b0:	4875      	ldr	r0, [pc, #468]	; (8006588 <stm32__spi__send_receive_16bit_mode+0x2b8>)
 80063b2:	f002 fe27 	bl	8009004 <__gnat_rcheck_CE_Access_Check>
 80063b6:	68ba      	ldr	r2, [r7, #8]
 80063b8:	6b7b      	ldr	r3, [r7, #52]	; 0x34
 80063ba:	4621      	mov	r1, r4
 80063bc:	1a5b      	subs	r3, r3, r1
 80063be:	4413      	add	r3, r2
 80063c0:	881a      	ldrh	r2, [r3, #0]
 80063c2:	697b      	ldr	r3, [r7, #20]
 80063c4:	685b      	ldr	r3, [r3, #4]
 80063c6:	621a      	str	r2, [r3, #32]
 80063c8:	6b7b      	ldr	r3, [r7, #52]	; 0x34
 80063ca:	4a70      	ldr	r2, [pc, #448]	; (800658c <stm32__spi__send_receive_16bit_mode+0x2bc>)
 80063cc:	4293      	cmp	r3, r2
 80063ce:	dd04      	ble.n	80063da <stm32__spi__send_receive_16bit_mode+0x10a>
 80063d0:	f44f 713e 	mov.w	r1, #760	; 0x2f8
 80063d4:	486c      	ldr	r0, [pc, #432]	; (8006588 <stm32__spi__send_receive_16bit_mode+0x2b8>)
 80063d6:	f002 fe3d 	bl	8009054 <__gnat_rcheck_CE_Overflow_Check>
 80063da:	6b7b      	ldr	r3, [r7, #52]	; 0x34
 80063dc:	3302      	adds	r3, #2
 80063de:	637b      	str	r3, [r7, #52]	; 0x34
 80063e0:	6b3b      	ldr	r3, [r7, #48]	; 0x30
 80063e2:	3b01      	subs	r3, #1
 80063e4:	2b00      	cmp	r3, #0
 80063e6:	da04      	bge.n	80063f2 <stm32__spi__send_receive_16bit_mode+0x122>
 80063e8:	f240 21f9 	movw	r1, #761	; 0x2f9
 80063ec:	4866      	ldr	r0, [pc, #408]	; (8006588 <stm32__spi__send_receive_16bit_mode+0x2b8>)
 80063ee:	f002 fe39 	bl	8009064 <__gnat_rcheck_CE_Range_Check>
 80063f2:	633b      	str	r3, [r7, #48]	; 0x30
 80063f4:	6b3b      	ldr	r3, [r7, #48]	; 0x30
 80063f6:	2b00      	cmp	r3, #0
 80063f8:	d13a      	bne.n	8006470 <stm32__spi__send_receive_16bit_mode+0x1a0>
 80063fa:	6978      	ldr	r0, [r7, #20]
 80063fc:	f7ff fa20 	bl	8005840 <stm32__spi__rx_is_empty>
 8006400:	4603      	mov	r3, r0
 8006402:	f083 0301 	eor.w	r3, r3, #1
 8006406:	b2db      	uxtb	r3, r3
 8006408:	2b00      	cmp	r3, #0
 800640a:	d101      	bne.n	8006410 <stm32__spi__send_receive_16bit_mode+0x140>
 800640c:	bf00      	nop
 800640e:	e7f4      	b.n	80063fa <stm32__spi__send_receive_16bit_mode+0x12a>
 8006410:	687b      	ldr	r3, [r7, #4]
 8006412:	681b      	ldr	r3, [r3, #0]
 8006414:	6afa      	ldr	r2, [r7, #44]	; 0x2c
 8006416:	429a      	cmp	r2, r3
 8006418:	db04      	blt.n	8006424 <stm32__spi__send_receive_16bit_mode+0x154>
 800641a:	687b      	ldr	r3, [r7, #4]
 800641c:	685b      	ldr	r3, [r3, #4]
 800641e:	6afa      	ldr	r2, [r7, #44]	; 0x2c
 8006420:	429a      	cmp	r2, r3
 8006422:	dd04      	ble.n	800642e <stm32__spi__send_receive_16bit_mode+0x15e>
 8006424:	f44f 7142 	mov.w	r1, #776	; 0x308
 8006428:	4857      	ldr	r0, [pc, #348]	; (8006588 <stm32__spi__send_receive_16bit_mode+0x2b8>)
 800642a:	f002 fe03 	bl	8009034 <__gnat_rcheck_CE_Index_Check>
 800642e:	683a      	ldr	r2, [r7, #0]
 8006430:	6afb      	ldr	r3, [r7, #44]	; 0x2c
 8006432:	6879      	ldr	r1, [r7, #4]
 8006434:	6809      	ldr	r1, [r1, #0]
 8006436:	1a5b      	subs	r3, r3, r1
 8006438:	4413      	add	r3, r2
 800643a:	2b00      	cmp	r3, #0
 800643c:	d104      	bne.n	8006448 <stm32__spi__send_receive_16bit_mode+0x178>
 800643e:	f44f 7142 	mov.w	r1, #776	; 0x308
 8006442:	4851      	ldr	r0, [pc, #324]	; (8006588 <stm32__spi__send_receive_16bit_mode+0x2b8>)
 8006444:	f002 fdde 	bl	8009004 <__gnat_rcheck_CE_Access_Check>
 8006448:	697b      	ldr	r3, [r7, #20]
 800644a:	685b      	ldr	r3, [r3, #4]
 800644c:	6b1b      	ldr	r3, [r3, #48]	; 0x30
 800644e:	f5b3 3f80 	cmp.w	r3, #65536	; 0x10000
 8006452:	d304      	bcc.n	800645e <stm32__spi__send_receive_16bit_mode+0x18e>
 8006454:	f240 3109 	movw	r1, #777	; 0x309
 8006458:	484b      	ldr	r0, [pc, #300]	; (8006588 <stm32__spi__send_receive_16bit_mode+0x2b8>)
 800645a:	f002 fe03 	bl	8009064 <__gnat_rcheck_CE_Range_Check>
 800645e:	6839      	ldr	r1, [r7, #0]
 8006460:	6afa      	ldr	r2, [r7, #44]	; 0x2c
 8006462:	6878      	ldr	r0, [r7, #4]
 8006464:	6800      	ldr	r0, [r0, #0]
 8006466:	1a12      	subs	r2, r2, r0
 8006468:	440a      	add	r2, r1
 800646a:	b29b      	uxth	r3, r3
 800646c:	8013      	strh	r3, [r2, #0]
 800646e:	e0cf      	b.n	8006610 <stm32__spi__send_receive_16bit_mode+0x340>
 8006470:	6b3b      	ldr	r3, [r7, #48]	; 0x30
 8006472:	2b00      	cmp	r3, #0
 8006474:	f340 808c 	ble.w	8006590 <stm32__spi__send_receive_16bit_mode+0x2c0>
 8006478:	6978      	ldr	r0, [r7, #20]
 800647a:	f7ff f9cf 	bl	800581c <stm32__spi__tx_is_empty>
 800647e:	4603      	mov	r3, r0
 8006480:	2b00      	cmp	r3, #0
 8006482:	d101      	bne.n	8006488 <stm32__spi__send_receive_16bit_mode+0x1b8>
 8006484:	bf00      	nop
 8006486:	e7f7      	b.n	8006478 <stm32__spi__send_receive_16bit_mode+0x1a8>
 8006488:	6b7b      	ldr	r3, [r7, #52]	; 0x34
 800648a:	429c      	cmp	r4, r3
 800648c:	dc02      	bgt.n	8006494 <stm32__spi__send_receive_16bit_mode+0x1c4>
 800648e:	6b7b      	ldr	r3, [r7, #52]	; 0x34
 8006490:	429d      	cmp	r5, r3
 8006492:	da04      	bge.n	800649e <stm32__spi__send_receive_16bit_mode+0x1ce>
 8006494:	f240 3115 	movw	r1, #789	; 0x315
 8006498:	483b      	ldr	r0, [pc, #236]	; (8006588 <stm32__spi__send_receive_16bit_mode+0x2b8>)
 800649a:	f002 fdcb 	bl	8009034 <__gnat_rcheck_CE_Index_Check>
 800649e:	68ba      	ldr	r2, [r7, #8]
 80064a0:	6b7b      	ldr	r3, [r7, #52]	; 0x34
 80064a2:	4621      	mov	r1, r4
 80064a4:	1a5b      	subs	r3, r3, r1
 80064a6:	4413      	add	r3, r2
 80064a8:	2b00      	cmp	r3, #0
 80064aa:	d104      	bne.n	80064b6 <stm32__spi__send_receive_16bit_mode+0x1e6>
 80064ac:	f240 3115 	movw	r1, #789	; 0x315
 80064b0:	4835      	ldr	r0, [pc, #212]	; (8006588 <stm32__spi__send_receive_16bit_mode+0x2b8>)
 80064b2:	f002 fda7 	bl	8009004 <__gnat_rcheck_CE_Access_Check>
 80064b6:	68ba      	ldr	r2, [r7, #8]
 80064b8:	6b7b      	ldr	r3, [r7, #52]	; 0x34
 80064ba:	4621      	mov	r1, r4
 80064bc:	1a5b      	subs	r3, r3, r1
 80064be:	4413      	add	r3, r2
 80064c0:	881a      	ldrh	r2, [r3, #0]
 80064c2:	697b      	ldr	r3, [r7, #20]
 80064c4:	685b      	ldr	r3, [r3, #4]
 80064c6:	621a      	str	r2, [r3, #32]
 80064c8:	6b7b      	ldr	r3, [r7, #52]	; 0x34
 80064ca:	4a30      	ldr	r2, [pc, #192]	; (800658c <stm32__spi__send_receive_16bit_mode+0x2bc>)
 80064cc:	4293      	cmp	r3, r2
 80064ce:	dd04      	ble.n	80064da <stm32__spi__send_receive_16bit_mode+0x20a>
 80064d0:	f240 3116 	movw	r1, #790	; 0x316
 80064d4:	482c      	ldr	r0, [pc, #176]	; (8006588 <stm32__spi__send_receive_16bit_mode+0x2b8>)
 80064d6:	f002 fdbd 	bl	8009054 <__gnat_rcheck_CE_Overflow_Check>
 80064da:	6b7b      	ldr	r3, [r7, #52]	; 0x34
 80064dc:	3302      	adds	r3, #2
 80064de:	637b      	str	r3, [r7, #52]	; 0x34
 80064e0:	6b3b      	ldr	r3, [r7, #48]	; 0x30
 80064e2:	3b01      	subs	r3, #1
 80064e4:	2b00      	cmp	r3, #0
 80064e6:	da04      	bge.n	80064f2 <stm32__spi__send_receive_16bit_mode+0x222>
 80064e8:	f240 3117 	movw	r1, #791	; 0x317
 80064ec:	4826      	ldr	r0, [pc, #152]	; (8006588 <stm32__spi__send_receive_16bit_mode+0x2b8>)
 80064ee:	f002 fdb9 	bl	8009064 <__gnat_rcheck_CE_Range_Check>
 80064f2:	633b      	str	r3, [r7, #48]	; 0x30
 80064f4:	6978      	ldr	r0, [r7, #20]
 80064f6:	f7ff f9a3 	bl	8005840 <stm32__spi__rx_is_empty>
 80064fa:	4603      	mov	r3, r0
 80064fc:	f083 0301 	eor.w	r3, r3, #1
 8006500:	b2db      	uxtb	r3, r3
 8006502:	2b00      	cmp	r3, #0
 8006504:	d101      	bne.n	800650a <stm32__spi__send_receive_16bit_mode+0x23a>
 8006506:	bf00      	nop
 8006508:	e7f4      	b.n	80064f4 <stm32__spi__send_receive_16bit_mode+0x224>
 800650a:	687b      	ldr	r3, [r7, #4]
 800650c:	681b      	ldr	r3, [r3, #0]
 800650e:	6afa      	ldr	r2, [r7, #44]	; 0x2c
 8006510:	429a      	cmp	r2, r3
 8006512:	db04      	blt.n	800651e <stm32__spi__send_receive_16bit_mode+0x24e>
 8006514:	687b      	ldr	r3, [r7, #4]
 8006516:	685b      	ldr	r3, [r3, #4]
 8006518:	6afa      	ldr	r2, [r7, #44]	; 0x2c
 800651a:	429a      	cmp	r2, r3
 800651c:	dd04      	ble.n	8006528 <stm32__spi__send_receive_16bit_mode+0x258>
 800651e:	f240 3123 	movw	r1, #803	; 0x323
 8006522:	4819      	ldr	r0, [pc, #100]	; (8006588 <stm32__spi__send_receive_16bit_mode+0x2b8>)
 8006524:	f002 fd86 	bl	8009034 <__gnat_rcheck_CE_Index_Check>
 8006528:	683a      	ldr	r2, [r7, #0]
 800652a:	6afb      	ldr	r3, [r7, #44]	; 0x2c
 800652c:	6879      	ldr	r1, [r7, #4]
 800652e:	6809      	ldr	r1, [r1, #0]
 8006530:	1a5b      	subs	r3, r3, r1
 8006532:	4413      	add	r3, r2
 8006534:	2b00      	cmp	r3, #0
 8006536:	d104      	bne.n	8006542 <stm32__spi__send_receive_16bit_mode+0x272>
 8006538:	f240 3123 	movw	r1, #803	; 0x323
 800653c:	4812      	ldr	r0, [pc, #72]	; (8006588 <stm32__spi__send_receive_16bit_mode+0x2b8>)
 800653e:	f002 fd61 	bl	8009004 <__gnat_rcheck_CE_Access_Check>
 8006542:	697b      	ldr	r3, [r7, #20]
 8006544:	685b      	ldr	r3, [r3, #4]
 8006546:	6b1b      	ldr	r3, [r3, #48]	; 0x30
 8006548:	f5b3 3f80 	cmp.w	r3, #65536	; 0x10000
 800654c:	d304      	bcc.n	8006558 <stm32__spi__send_receive_16bit_mode+0x288>
 800654e:	f44f 7149 	mov.w	r1, #804	; 0x324
 8006552:	480d      	ldr	r0, [pc, #52]	; (8006588 <stm32__spi__send_receive_16bit_mode+0x2b8>)
 8006554:	f002 fd86 	bl	8009064 <__gnat_rcheck_CE_Range_Check>
 8006558:	6839      	ldr	r1, [r7, #0]
 800655a:	6afa      	ldr	r2, [r7, #44]	; 0x2c
 800655c:	6878      	ldr	r0, [r7, #4]
 800655e:	6800      	ldr	r0, [r0, #0]
 8006560:	1a12      	subs	r2, r2, r0
 8006562:	440a      	add	r2, r1
 8006564:	b29b      	uxth	r3, r3
 8006566:	8013      	strh	r3, [r2, #0]
 8006568:	6afb      	ldr	r3, [r7, #44]	; 0x2c
 800656a:	4a08      	ldr	r2, [pc, #32]	; (800658c <stm32__spi__send_receive_16bit_mode+0x2bc>)
 800656c:	4293      	cmp	r3, r2
 800656e:	dd04      	ble.n	800657a <stm32__spi__send_receive_16bit_mode+0x2aa>
 8006570:	f240 3125 	movw	r1, #805	; 0x325
 8006574:	4804      	ldr	r0, [pc, #16]	; (8006588 <stm32__spi__send_receive_16bit_mode+0x2b8>)
 8006576:	f002 fd6d 	bl	8009054 <__gnat_rcheck_CE_Overflow_Check>
 800657a:	6afb      	ldr	r3, [r7, #44]	; 0x2c
 800657c:	3302      	adds	r3, #2
 800657e:	62fb      	str	r3, [r7, #44]	; 0x2c
 8006580:	e776      	b.n	8006470 <stm32__spi__send_receive_16bit_mode+0x1a0>
 8006582:	bf00      	nop
 8006584:	2000005c 	.word	0x2000005c
 8006588:	0800d7c4 	.word	0x0800d7c4
 800658c:	7ffffffd 	.word	0x7ffffffd
 8006590:	6978      	ldr	r0, [r7, #20]
 8006592:	f7ff f985 	bl	80058a0 <stm32__spi__current_mode>
 8006596:	4603      	mov	r3, r0
 8006598:	2b01      	cmp	r3, #1
 800659a:	d139      	bne.n	8006610 <stm32__spi__send_receive_16bit_mode+0x340>
 800659c:	6978      	ldr	r0, [r7, #20]
 800659e:	f7ff f94f 	bl	8005840 <stm32__spi__rx_is_empty>
 80065a2:	4603      	mov	r3, r0
 80065a4:	f083 0301 	eor.w	r3, r3, #1
 80065a8:	b2db      	uxtb	r3, r3
 80065aa:	2b00      	cmp	r3, #0
 80065ac:	d101      	bne.n	80065b2 <stm32__spi__send_receive_16bit_mode+0x2e2>
 80065ae:	bf00      	nop
 80065b0:	e7f4      	b.n	800659c <stm32__spi__send_receive_16bit_mode+0x2cc>
 80065b2:	687b      	ldr	r3, [r7, #4]
 80065b4:	681b      	ldr	r3, [r3, #0]
 80065b6:	6afa      	ldr	r2, [r7, #44]	; 0x2c
 80065b8:	429a      	cmp	r2, r3
 80065ba:	db04      	blt.n	80065c6 <stm32__spi__send_receive_16bit_mode+0x2f6>
 80065bc:	687b      	ldr	r3, [r7, #4]
 80065be:	685b      	ldr	r3, [r3, #4]
 80065c0:	6afa      	ldr	r2, [r7, #44]	; 0x2c
 80065c2:	429a      	cmp	r2, r3
 80065c4:	dd04      	ble.n	80065d0 <stm32__spi__send_receive_16bit_mode+0x300>
 80065c6:	f240 312f 	movw	r1, #815	; 0x32f
 80065ca:	4814      	ldr	r0, [pc, #80]	; (800661c <stm32__spi__send_receive_16bit_mode+0x34c>)
 80065cc:	f002 fd32 	bl	8009034 <__gnat_rcheck_CE_Index_Check>
 80065d0:	683a      	ldr	r2, [r7, #0]
 80065d2:	6afb      	ldr	r3, [r7, #44]	; 0x2c
 80065d4:	6879      	ldr	r1, [r7, #4]
 80065d6:	6809      	ldr	r1, [r1, #0]
 80065d8:	1a5b      	subs	r3, r3, r1
 80065da:	4413      	add	r3, r2
 80065dc:	2b00      	cmp	r3, #0
 80065de:	d104      	bne.n	80065ea <stm32__spi__send_receive_16bit_mode+0x31a>
 80065e0:	f240 312f 	movw	r1, #815	; 0x32f
 80065e4:	480d      	ldr	r0, [pc, #52]	; (800661c <stm32__spi__send_receive_16bit_mode+0x34c>)
 80065e6:	f002 fd0d 	bl	8009004 <__gnat_rcheck_CE_Access_Check>
 80065ea:	697b      	ldr	r3, [r7, #20]
 80065ec:	685b      	ldr	r3, [r3, #4]
 80065ee:	6b1b      	ldr	r3, [r3, #48]	; 0x30
 80065f0:	f5b3 3f80 	cmp.w	r3, #65536	; 0x10000
 80065f4:	d304      	bcc.n	8006600 <stm32__spi__send_receive_16bit_mode+0x330>
 80065f6:	f44f 714c 	mov.w	r1, #816	; 0x330
 80065fa:	4808      	ldr	r0, [pc, #32]	; (800661c <stm32__spi__send_receive_16bit_mode+0x34c>)
 80065fc:	f002 fd32 	bl	8009064 <__gnat_rcheck_CE_Range_Check>
 8006600:	6839      	ldr	r1, [r7, #0]
 8006602:	6afa      	ldr	r2, [r7, #44]	; 0x2c
 8006604:	6878      	ldr	r0, [r7, #4]
 8006606:	6800      	ldr	r0, [r0, #0]
 8006608:	1a12      	subs	r2, r2, r0
 800660a:	440a      	add	r2, r1
 800660c:	b29b      	uxth	r3, r3
 800660e:	8013      	strh	r3, [r2, #0]
 8006610:	3738      	adds	r7, #56	; 0x38
 8006612:	46bd      	mov	sp, r7
 8006614:	e8bd 40b0 	ldmia.w	sp!, {r4, r5, r7, lr}
 8006618:	b002      	add	sp, #8
 800661a:	4770      	bx	lr
 800661c:	0800d7c4 	.word	0x0800d7c4

08006620 <stm32__spi__send_receive_8bit_mode>:
 8006620:	b082      	sub	sp, #8
 8006622:	b5b0      	push	{r4, r5, r7, lr}
 8006624:	b090      	sub	sp, #64	; 0x40
 8006626:	af00      	add	r7, sp, #0
 8006628:	6178      	str	r0, [r7, #20]
 800662a:	e9c7 1202 	strd	r1, r2, [r7, #8]
 800662e:	657b      	str	r3, [r7, #84]	; 0x54
 8006630:	463b      	mov	r3, r7
 8006632:	f107 0254 	add.w	r2, r7, #84	; 0x54
 8006636:	e892 0003 	ldmia.w	r2, {r0, r1}
 800663a:	e883 0003 	stmia.w	r3, {r0, r1}
 800663e:	68fb      	ldr	r3, [r7, #12]
 8006640:	681c      	ldr	r4, [r3, #0]
 8006642:	68fb      	ldr	r3, [r7, #12]
 8006644:	685d      	ldr	r5, [r3, #4]
 8006646:	4ba3      	ldr	r3, [pc, #652]	; (80068d4 <stm32__spi__send_receive_8bit_mode+0x2b4>)
 8006648:	781b      	ldrb	r3, [r3, #0]
 800664a:	f083 0301 	eor.w	r3, r3, #1
 800664e:	b2db      	uxtb	r3, r3
 8006650:	2b00      	cmp	r3, #0
 8006652:	d004      	beq.n	800665e <stm32__spi__send_receive_8bit_mode+0x3e>
 8006654:	f44f 714e 	mov.w	r1, #824	; 0x338
 8006658:	489f      	ldr	r0, [pc, #636]	; (80068d8 <stm32__spi__send_receive_8bit_mode+0x2b8>)
 800665a:	f002 fd0b 	bl	8009074 <__gnat_rcheck_PE_Access_Before_Elaboration>
 800665e:	687b      	ldr	r3, [r7, #4]
 8006660:	681b      	ldr	r3, [r3, #0]
 8006662:	633b      	str	r3, [r7, #48]	; 0x30
 8006664:	687b      	ldr	r3, [r7, #4]
 8006666:	685a      	ldr	r2, [r3, #4]
 8006668:	687b      	ldr	r3, [r7, #4]
 800666a:	681b      	ldr	r3, [r3, #0]
 800666c:	429a      	cmp	r2, r3
 800666e:	db03      	blt.n	8006678 <stm32__spi__send_receive_8bit_mode+0x58>
 8006670:	687b      	ldr	r3, [r7, #4]
 8006672:	685b      	ldr	r3, [r3, #4]
 8006674:	62fb      	str	r3, [r7, #44]	; 0x2c
 8006676:	e003      	b.n	8006680 <stm32__spi__send_receive_8bit_mode+0x60>
 8006678:	687b      	ldr	r3, [r7, #4]
 800667a:	681b      	ldr	r3, [r3, #0]
 800667c:	3b01      	subs	r3, #1
 800667e:	62fb      	str	r3, [r7, #44]	; 0x2c
 8006680:	62bc      	str	r4, [r7, #40]	; 0x28
 8006682:	42a5      	cmp	r5, r4
 8006684:	db01      	blt.n	800668a <stm32__spi__send_receive_8bit_mode+0x6a>
 8006686:	627d      	str	r5, [r7, #36]	; 0x24
 8006688:	e002      	b.n	8006690 <stm32__spi__send_receive_8bit_mode+0x70>
 800668a:	4623      	mov	r3, r4
 800668c:	3b01      	subs	r3, #1
 800668e:	627b      	str	r3, [r7, #36]	; 0x24
 8006690:	6dfb      	ldr	r3, [r7, #92]	; 0x5c
 8006692:	63bb      	str	r3, [r7, #56]	; 0x38
 8006694:	2c00      	cmp	r4, #0
 8006696:	da04      	bge.n	80066a2 <stm32__spi__send_receive_8bit_mode+0x82>
 8006698:	f240 313f 	movw	r1, #831	; 0x33f
 800669c:	488e      	ldr	r0, [pc, #568]	; (80068d8 <stm32__spi__send_receive_8bit_mode+0x2b8>)
 800669e:	f002 fce1 	bl	8009064 <__gnat_rcheck_CE_Range_Check>
 80066a2:	63fc      	str	r4, [r7, #60]	; 0x3c
 80066a4:	687b      	ldr	r3, [r7, #4]
 80066a6:	681b      	ldr	r3, [r3, #0]
 80066a8:	2b00      	cmp	r3, #0
 80066aa:	da04      	bge.n	80066b6 <stm32__spi__send_receive_8bit_mode+0x96>
 80066ac:	f44f 7150 	mov.w	r1, #832	; 0x340
 80066b0:	4889      	ldr	r0, [pc, #548]	; (80068d8 <stm32__spi__send_receive_8bit_mode+0x2b8>)
 80066b2:	f002 fcd7 	bl	8009064 <__gnat_rcheck_CE_Range_Check>
 80066b6:	687b      	ldr	r3, [r7, #4]
 80066b8:	681b      	ldr	r3, [r3, #0]
 80066ba:	637b      	str	r3, [r7, #52]	; 0x34
 80066bc:	697b      	ldr	r3, [r7, #20]
 80066be:	685b      	ldr	r3, [r3, #4]
 80066c0:	3320      	adds	r3, #32
 80066c2:	623b      	str	r3, [r7, #32]
 80066c4:	697b      	ldr	r3, [r7, #20]
 80066c6:	685b      	ldr	r3, [r3, #4]
 80066c8:	3330      	adds	r3, #48	; 0x30
 80066ca:	61fb      	str	r3, [r7, #28]
 80066cc:	6bbb      	ldr	r3, [r7, #56]	; 0x38
 80066ce:	2b00      	cmp	r3, #0
 80066d0:	db03      	blt.n	80066da <stm32__spi__send_receive_8bit_mode+0xba>
 80066d2:	6bbb      	ldr	r3, [r7, #56]	; 0x38
 80066d4:	f5b3 3f80 	cmp.w	r3, #65536	; 0x10000
 80066d8:	db04      	blt.n	80066e4 <stm32__spi__send_receive_8bit_mode+0xc4>
 80066da:	f44f 7151 	mov.w	r1, #836	; 0x344
 80066de:	487e      	ldr	r0, [pc, #504]	; (80068d8 <stm32__spi__send_receive_8bit_mode+0x2b8>)
 80066e0:	f002 fcc0 	bl	8009064 <__gnat_rcheck_CE_Range_Check>
 80066e4:	697b      	ldr	r3, [r7, #20]
 80066e6:	685b      	ldr	r3, [r3, #4]
 80066e8:	3304      	adds	r3, #4
 80066ea:	681b      	ldr	r3, [r3, #0]
 80066ec:	6bba      	ldr	r2, [r7, #56]	; 0x38
 80066ee:	b292      	uxth	r2, r2
 80066f0:	f362 030f 	bfi	r3, r2, #0, #16
 80066f4:	697a      	ldr	r2, [r7, #20]
 80066f6:	6852      	ldr	r2, [r2, #4]
 80066f8:	3204      	adds	r2, #4
 80066fa:	6013      	str	r3, [r2, #0]
 80066fc:	697b      	ldr	r3, [r7, #20]
 80066fe:	685b      	ldr	r3, [r3, #4]
 8006700:	681b      	ldr	r3, [r3, #0]
 8006702:	461a      	mov	r2, r3
 8006704:	4613      	mov	r3, r2
 8006706:	f443 7200 	orr.w	r2, r3, #512	; 0x200
 800670a:	697b      	ldr	r3, [r7, #20]
 800670c:	685b      	ldr	r3, [r3, #4]
 800670e:	601a      	str	r2, [r3, #0]
 8006710:	6978      	ldr	r0, [r7, #20]
 8006712:	f7ff f8c5 	bl	80058a0 <stm32__spi__current_mode>
 8006716:	4603      	mov	r3, r0
 8006718:	2b01      	cmp	r3, #1
 800671a:	bf0c      	ite	eq
 800671c:	2301      	moveq	r3, #1
 800671e:	2300      	movne	r3, #0
 8006720:	b2db      	uxtb	r3, r3
 8006722:	2b00      	cmp	r3, #0
 8006724:	d102      	bne.n	800672c <stm32__spi__send_receive_8bit_mode+0x10c>
 8006726:	6bbb      	ldr	r3, [r7, #56]	; 0x38
 8006728:	2b01      	cmp	r3, #1
 800672a:	d128      	bne.n	800677e <stm32__spi__send_receive_8bit_mode+0x15e>
 800672c:	6bfb      	ldr	r3, [r7, #60]	; 0x3c
 800672e:	429c      	cmp	r4, r3
 8006730:	dc02      	bgt.n	8006738 <stm32__spi__send_receive_8bit_mode+0x118>
 8006732:	6bfb      	ldr	r3, [r7, #60]	; 0x3c
 8006734:	429d      	cmp	r5, r3
 8006736:	da04      	bge.n	8006742 <stm32__spi__send_receive_8bit_mode+0x122>
 8006738:	f240 3147 	movw	r1, #839	; 0x347
 800673c:	4866      	ldr	r0, [pc, #408]	; (80068d8 <stm32__spi__send_receive_8bit_mode+0x2b8>)
 800673e:	f002 fc79 	bl	8009034 <__gnat_rcheck_CE_Index_Check>
 8006742:	68ba      	ldr	r2, [r7, #8]
 8006744:	6bf9      	ldr	r1, [r7, #60]	; 0x3c
 8006746:	6abb      	ldr	r3, [r7, #40]	; 0x28
 8006748:	1acb      	subs	r3, r1, r3
 800674a:	5cd2      	ldrb	r2, [r2, r3]
 800674c:	6a3b      	ldr	r3, [r7, #32]
 800674e:	701a      	strb	r2, [r3, #0]
 8006750:	6bfb      	ldr	r3, [r7, #60]	; 0x3c
 8006752:	f06f 4200 	mvn.w	r2, #2147483648	; 0x80000000
 8006756:	4293      	cmp	r3, r2
 8006758:	d104      	bne.n	8006764 <stm32__spi__send_receive_8bit_mode+0x144>
 800675a:	f44f 7152 	mov.w	r1, #840	; 0x348
 800675e:	485e      	ldr	r0, [pc, #376]	; (80068d8 <stm32__spi__send_receive_8bit_mode+0x2b8>)
 8006760:	f002 fc78 	bl	8009054 <__gnat_rcheck_CE_Overflow_Check>
 8006764:	6bfb      	ldr	r3, [r7, #60]	; 0x3c
 8006766:	3301      	adds	r3, #1
 8006768:	63fb      	str	r3, [r7, #60]	; 0x3c
 800676a:	6bbb      	ldr	r3, [r7, #56]	; 0x38
 800676c:	3b01      	subs	r3, #1
 800676e:	2b00      	cmp	r3, #0
 8006770:	da04      	bge.n	800677c <stm32__spi__send_receive_8bit_mode+0x15c>
 8006772:	f240 3149 	movw	r1, #841	; 0x349
 8006776:	4858      	ldr	r0, [pc, #352]	; (80068d8 <stm32__spi__send_receive_8bit_mode+0x2b8>)
 8006778:	f002 fc74 	bl	8009064 <__gnat_rcheck_CE_Range_Check>
 800677c:	63bb      	str	r3, [r7, #56]	; 0x38
 800677e:	6bbb      	ldr	r3, [r7, #56]	; 0x38
 8006780:	2b00      	cmp	r3, #0
 8006782:	d12a      	bne.n	80067da <stm32__spi__send_receive_8bit_mode+0x1ba>
 8006784:	6978      	ldr	r0, [r7, #20]
 8006786:	f7ff f85b 	bl	8005840 <stm32__spi__rx_is_empty>
 800678a:	4603      	mov	r3, r0
 800678c:	f083 0301 	eor.w	r3, r3, #1
 8006790:	b2db      	uxtb	r3, r3
 8006792:	2b00      	cmp	r3, #0
 8006794:	d101      	bne.n	800679a <stm32__spi__send_receive_8bit_mode+0x17a>
 8006796:	bf00      	nop
 8006798:	e7f4      	b.n	8006784 <stm32__spi__send_receive_8bit_mode+0x164>
 800679a:	687b      	ldr	r3, [r7, #4]
 800679c:	681b      	ldr	r3, [r3, #0]
 800679e:	6b7a      	ldr	r2, [r7, #52]	; 0x34
 80067a0:	429a      	cmp	r2, r3
 80067a2:	db04      	blt.n	80067ae <stm32__spi__send_receive_8bit_mode+0x18e>
 80067a4:	687b      	ldr	r3, [r7, #4]
 80067a6:	685b      	ldr	r3, [r3, #4]
 80067a8:	6b7a      	ldr	r2, [r7, #52]	; 0x34
 80067aa:	429a      	cmp	r2, r3
 80067ac:	dd04      	ble.n	80067b8 <stm32__spi__send_receive_8bit_mode+0x198>
 80067ae:	f240 3157 	movw	r1, #855	; 0x357
 80067b2:	4849      	ldr	r0, [pc, #292]	; (80068d8 <stm32__spi__send_receive_8bit_mode+0x2b8>)
 80067b4:	f002 fc3e 	bl	8009034 <__gnat_rcheck_CE_Index_Check>
 80067b8:	6b7b      	ldr	r3, [r7, #52]	; 0x34
 80067ba:	2b00      	cmp	r3, #0
 80067bc:	da04      	bge.n	80067c8 <stm32__spi__send_receive_8bit_mode+0x1a8>
 80067be:	f240 3157 	movw	r1, #855	; 0x357
 80067c2:	4845      	ldr	r0, [pc, #276]	; (80068d8 <stm32__spi__send_receive_8bit_mode+0x2b8>)
 80067c4:	f002 fc3e 	bl	8009044 <__gnat_rcheck_CE_Invalid_Data>
 80067c8:	683a      	ldr	r2, [r7, #0]
 80067ca:	4618      	mov	r0, r3
 80067cc:	69fb      	ldr	r3, [r7, #28]
 80067ce:	781b      	ldrb	r3, [r3, #0]
 80067d0:	b2d9      	uxtb	r1, r3
 80067d2:	6b3b      	ldr	r3, [r7, #48]	; 0x30
 80067d4:	1ac3      	subs	r3, r0, r3
 80067d6:	54d1      	strb	r1, [r2, r3]
 80067d8:	e0a1      	b.n	800691e <stm32__spi__send_receive_8bit_mode+0x2fe>
 80067da:	6bbb      	ldr	r3, [r7, #56]	; 0x38
 80067dc:	2b00      	cmp	r3, #0
 80067de:	dd68      	ble.n	80068b2 <stm32__spi__send_receive_8bit_mode+0x292>
 80067e0:	6978      	ldr	r0, [r7, #20]
 80067e2:	f7ff f81b 	bl	800581c <stm32__spi__tx_is_empty>
 80067e6:	4603      	mov	r3, r0
 80067e8:	2b00      	cmp	r3, #0
 80067ea:	d101      	bne.n	80067f0 <stm32__spi__send_receive_8bit_mode+0x1d0>
 80067ec:	bf00      	nop
 80067ee:	e7f7      	b.n	80067e0 <stm32__spi__send_receive_8bit_mode+0x1c0>
 80067f0:	6bfb      	ldr	r3, [r7, #60]	; 0x3c
 80067f2:	429c      	cmp	r4, r3
 80067f4:	dc02      	bgt.n	80067fc <stm32__spi__send_receive_8bit_mode+0x1dc>
 80067f6:	6bfb      	ldr	r3, [r7, #60]	; 0x3c
 80067f8:	429d      	cmp	r5, r3
 80067fa:	da04      	bge.n	8006806 <stm32__spi__send_receive_8bit_mode+0x1e6>
 80067fc:	f240 3161 	movw	r1, #865	; 0x361
 8006800:	4835      	ldr	r0, [pc, #212]	; (80068d8 <stm32__spi__send_receive_8bit_mode+0x2b8>)
 8006802:	f002 fc17 	bl	8009034 <__gnat_rcheck_CE_Index_Check>
 8006806:	68ba      	ldr	r2, [r7, #8]
 8006808:	6bf9      	ldr	r1, [r7, #60]	; 0x3c
 800680a:	6abb      	ldr	r3, [r7, #40]	; 0x28
 800680c:	1acb      	subs	r3, r1, r3
 800680e:	5cd2      	ldrb	r2, [r2, r3]
 8006810:	6a3b      	ldr	r3, [r7, #32]
 8006812:	701a      	strb	r2, [r3, #0]
 8006814:	6bfb      	ldr	r3, [r7, #60]	; 0x3c
 8006816:	f06f 4200 	mvn.w	r2, #2147483648	; 0x80000000
 800681a:	4293      	cmp	r3, r2
 800681c:	d104      	bne.n	8006828 <stm32__spi__send_receive_8bit_mode+0x208>
 800681e:	f240 3162 	movw	r1, #866	; 0x362
 8006822:	482d      	ldr	r0, [pc, #180]	; (80068d8 <stm32__spi__send_receive_8bit_mode+0x2b8>)
 8006824:	f002 fc16 	bl	8009054 <__gnat_rcheck_CE_Overflow_Check>
 8006828:	6bfb      	ldr	r3, [r7, #60]	; 0x3c
 800682a:	3301      	adds	r3, #1
 800682c:	63fb      	str	r3, [r7, #60]	; 0x3c
 800682e:	6bbb      	ldr	r3, [r7, #56]	; 0x38
 8006830:	3b01      	subs	r3, #1
 8006832:	2b00      	cmp	r3, #0
 8006834:	da04      	bge.n	8006840 <stm32__spi__send_receive_8bit_mode+0x220>
 8006836:	f240 3163 	movw	r1, #867	; 0x363
 800683a:	4827      	ldr	r0, [pc, #156]	; (80068d8 <stm32__spi__send_receive_8bit_mode+0x2b8>)
 800683c:	f002 fc12 	bl	8009064 <__gnat_rcheck_CE_Range_Check>
 8006840:	63bb      	str	r3, [r7, #56]	; 0x38
 8006842:	6978      	ldr	r0, [r7, #20]
 8006844:	f7fe fffc 	bl	8005840 <stm32__spi__rx_is_empty>
 8006848:	4603      	mov	r3, r0
 800684a:	f083 0301 	eor.w	r3, r3, #1
 800684e:	b2db      	uxtb	r3, r3
 8006850:	2b00      	cmp	r3, #0
 8006852:	d101      	bne.n	8006858 <stm32__spi__send_receive_8bit_mode+0x238>
 8006854:	bf00      	nop
 8006856:	e7f4      	b.n	8006842 <stm32__spi__send_receive_8bit_mode+0x222>
 8006858:	687b      	ldr	r3, [r7, #4]
 800685a:	681b      	ldr	r3, [r3, #0]
 800685c:	6b7a      	ldr	r2, [r7, #52]	; 0x34
 800685e:	429a      	cmp	r2, r3
 8006860:	db04      	blt.n	800686c <stm32__spi__send_receive_8bit_mode+0x24c>
 8006862:	687b      	ldr	r3, [r7, #4]
 8006864:	685b      	ldr	r3, [r3, #4]
 8006866:	6b7a      	ldr	r2, [r7, #52]	; 0x34
 8006868:	429a      	cmp	r2, r3
 800686a:	dd04      	ble.n	8006876 <stm32__spi__send_receive_8bit_mode+0x256>
 800686c:	f240 316f 	movw	r1, #879	; 0x36f
 8006870:	4819      	ldr	r0, [pc, #100]	; (80068d8 <stm32__spi__send_receive_8bit_mode+0x2b8>)
 8006872:	f002 fbdf 	bl	8009034 <__gnat_rcheck_CE_Index_Check>
 8006876:	6b7b      	ldr	r3, [r7, #52]	; 0x34
 8006878:	2b00      	cmp	r3, #0
 800687a:	da04      	bge.n	8006886 <stm32__spi__send_receive_8bit_mode+0x266>
 800687c:	f240 316f 	movw	r1, #879	; 0x36f
 8006880:	4815      	ldr	r0, [pc, #84]	; (80068d8 <stm32__spi__send_receive_8bit_mode+0x2b8>)
 8006882:	f002 fbdf 	bl	8009044 <__gnat_rcheck_CE_Invalid_Data>
 8006886:	683a      	ldr	r2, [r7, #0]
 8006888:	4618      	mov	r0, r3
 800688a:	69fb      	ldr	r3, [r7, #28]
 800688c:	781b      	ldrb	r3, [r3, #0]
 800688e:	b2d9      	uxtb	r1, r3
 8006890:	6b3b      	ldr	r3, [r7, #48]	; 0x30
 8006892:	1ac3      	subs	r3, r0, r3
 8006894:	54d1      	strb	r1, [r2, r3]
 8006896:	6b7b      	ldr	r3, [r7, #52]	; 0x34
 8006898:	f06f 4200 	mvn.w	r2, #2147483648	; 0x80000000
 800689c:	4293      	cmp	r3, r2
 800689e:	d104      	bne.n	80068aa <stm32__spi__send_receive_8bit_mode+0x28a>
 80068a0:	f44f 715c 	mov.w	r1, #880	; 0x370
 80068a4:	480c      	ldr	r0, [pc, #48]	; (80068d8 <stm32__spi__send_receive_8bit_mode+0x2b8>)
 80068a6:	f002 fbd5 	bl	8009054 <__gnat_rcheck_CE_Overflow_Check>
 80068aa:	6b7b      	ldr	r3, [r7, #52]	; 0x34
 80068ac:	3301      	adds	r3, #1
 80068ae:	637b      	str	r3, [r7, #52]	; 0x34
 80068b0:	e793      	b.n	80067da <stm32__spi__send_receive_8bit_mode+0x1ba>
 80068b2:	6978      	ldr	r0, [r7, #20]
 80068b4:	f7fe fff4 	bl	80058a0 <stm32__spi__current_mode>
 80068b8:	4603      	mov	r3, r0
 80068ba:	2b01      	cmp	r3, #1
 80068bc:	d12f      	bne.n	800691e <stm32__spi__send_receive_8bit_mode+0x2fe>
 80068be:	6978      	ldr	r0, [r7, #20]
 80068c0:	f7fe ffbe 	bl	8005840 <stm32__spi__rx_is_empty>
 80068c4:	4603      	mov	r3, r0
 80068c6:	f083 0301 	eor.w	r3, r3, #1
 80068ca:	b2db      	uxtb	r3, r3
 80068cc:	2b00      	cmp	r3, #0
 80068ce:	d105      	bne.n	80068dc <stm32__spi__send_receive_8bit_mode+0x2bc>
 80068d0:	bf00      	nop
 80068d2:	e7f4      	b.n	80068be <stm32__spi__send_receive_8bit_mode+0x29e>
 80068d4:	2000005d 	.word	0x2000005d
 80068d8:	0800d7c4 	.word	0x0800d7c4
 80068dc:	687b      	ldr	r3, [r7, #4]
 80068de:	681b      	ldr	r3, [r3, #0]
 80068e0:	6b7a      	ldr	r2, [r7, #52]	; 0x34
 80068e2:	429a      	cmp	r2, r3
 80068e4:	db04      	blt.n	80068f0 <stm32__spi__send_receive_8bit_mode+0x2d0>
 80068e6:	687b      	ldr	r3, [r7, #4]
 80068e8:	685b      	ldr	r3, [r3, #4]
 80068ea:	6b7a      	ldr	r2, [r7, #52]	; 0x34
 80068ec:	429a      	cmp	r2, r3
 80068ee:	dd04      	ble.n	80068fa <stm32__spi__send_receive_8bit_mode+0x2da>
 80068f0:	f240 3179 	movw	r1, #889	; 0x379
 80068f4:	480d      	ldr	r0, [pc, #52]	; (800692c <stm32__spi__send_receive_8bit_mode+0x30c>)
 80068f6:	f002 fb9d 	bl	8009034 <__gnat_rcheck_CE_Index_Check>
 80068fa:	6b7b      	ldr	r3, [r7, #52]	; 0x34
 80068fc:	2b00      	cmp	r3, #0
 80068fe:	da04      	bge.n	800690a <stm32__spi__send_receive_8bit_mode+0x2ea>
 8006900:	f240 3179 	movw	r1, #889	; 0x379
 8006904:	4809      	ldr	r0, [pc, #36]	; (800692c <stm32__spi__send_receive_8bit_mode+0x30c>)
 8006906:	f002 fb9d 	bl	8009044 <__gnat_rcheck_CE_Invalid_Data>
 800690a:	683c      	ldr	r4, [r7, #0]
 800690c:	461d      	mov	r5, r3
 800690e:	6978      	ldr	r0, [r7, #20]
 8006910:	f7fe ff4c 	bl	80057ac <stm32__spi__data__2>
 8006914:	4603      	mov	r3, r0
 8006916:	461a      	mov	r2, r3
 8006918:	6b3b      	ldr	r3, [r7, #48]	; 0x30
 800691a:	1aeb      	subs	r3, r5, r3
 800691c:	54e2      	strb	r2, [r4, r3]
 800691e:	3740      	adds	r7, #64	; 0x40
 8006920:	46bd      	mov	sp, r7
 8006922:	e8bd 40b0 	ldmia.w	sp!, {r4, r5, r7, lr}
 8006926:	b002      	add	sp, #8
 8006928:	4770      	bx	lr
 800692a:	bf00      	nop
 800692c:	0800d7c4 	.word	0x0800d7c4

08006930 <stm32__spi__send_16bit_mode>:
 8006930:	e92d 4bb0 	stmdb	sp!, {r4, r5, r7, r8, r9, fp, lr}
 8006934:	b087      	sub	sp, #28
 8006936:	af00      	add	r7, sp, #0
 8006938:	60f8      	str	r0, [r7, #12]
 800693a:	e9c7 1200 	strd	r1, r2, [r7]
 800693e:	687b      	ldr	r3, [r7, #4]
 8006940:	681c      	ldr	r4, [r3, #0]
 8006942:	687b      	ldr	r3, [r7, #4]
 8006944:	685d      	ldr	r5, [r3, #4]
 8006946:	42a5      	cmp	r5, r4
 8006948:	db10      	blt.n	800696c <stm32__spi__send_16bit_mode+0x3c>
 800694a:	4628      	mov	r0, r5
 800694c:	ea4f 71e0 	mov.w	r1, r0, asr #31
 8006950:	46a0      	mov	r8, r4
 8006952:	ea4f 79e8 	mov.w	r9, r8, asr #31
 8006956:	4602      	mov	r2, r0
 8006958:	460b      	mov	r3, r1
 800695a:	ebb2 0208 	subs.w	r2, r2, r8
 800695e:	eb63 0309 	sbc.w	r3, r3, r9
 8006962:	f112 0801 	adds.w	r8, r2, #1
 8006966:	f143 0900 	adc.w	r9, r3, #0
 800696a:	e003      	b.n	8006974 <stm32__spi__send_16bit_mode+0x44>
 800696c:	f04f 0800 	mov.w	r8, #0
 8006970:	f04f 0900 	mov.w	r9, #0
 8006974:	4b5c      	ldr	r3, [pc, #368]	; (8006ae8 <stm32__spi__send_16bit_mode+0x1b8>)
 8006976:	781b      	ldrb	r3, [r3, #0]
 8006978:	f083 0301 	eor.w	r3, r3, #1
 800697c:	b2db      	uxtb	r3, r3
 800697e:	2b00      	cmp	r3, #0
 8006980:	d004      	beq.n	800698c <stm32__spi__send_16bit_mode+0x5c>
 8006982:	f240 3181 	movw	r1, #897	; 0x381
 8006986:	4859      	ldr	r0, [pc, #356]	; (8006aec <stm32__spi__send_16bit_mode+0x1bc>)
 8006988:	f002 fb74 	bl	8009074 <__gnat_rcheck_PE_Access_Before_Elaboration>
 800698c:	4622      	mov	r2, r4
 800698e:	ea4f 73e2 	mov.w	r3, r2, asr #31
 8006992:	4857      	ldr	r0, [pc, #348]	; (8006af0 <stm32__spi__send_16bit_mode+0x1c0>)
 8006994:	f04f 0100 	mov.w	r1, #0
 8006998:	eb10 0b02 	adds.w	fp, r0, r2
 800699c:	eb41 0c03 	adc.w	ip, r1, r3
 80069a0:	462a      	mov	r2, r5
 80069a2:	ea4f 73e2 	mov.w	r3, r2, asr #31
 80069a6:	4593      	cmp	fp, r2
 80069a8:	eb7c 0303 	sbcs.w	r3, ip, r3
 80069ac:	da04      	bge.n	80069b8 <stm32__spi__send_16bit_mode+0x88>
 80069ae:	f240 3185 	movw	r1, #901	; 0x385
 80069b2:	484e      	ldr	r0, [pc, #312]	; (8006aec <stm32__spi__send_16bit_mode+0x1bc>)
 80069b4:	f002 fb56 	bl	8009064 <__gnat_rcheck_CE_Range_Check>
 80069b8:	4643      	mov	r3, r8
 80069ba:	617b      	str	r3, [r7, #20]
 80069bc:	2c00      	cmp	r4, #0
 80069be:	da04      	bge.n	80069ca <stm32__spi__send_16bit_mode+0x9a>
 80069c0:	f240 3186 	movw	r1, #902	; 0x386
 80069c4:	4849      	ldr	r0, [pc, #292]	; (8006aec <stm32__spi__send_16bit_mode+0x1bc>)
 80069c6:	f002 fb4d 	bl	8009064 <__gnat_rcheck_CE_Range_Check>
 80069ca:	613c      	str	r4, [r7, #16]
 80069cc:	68f8      	ldr	r0, [r7, #12]
 80069ce:	f7fe ff67 	bl	80058a0 <stm32__spi__current_mode>
 80069d2:	4603      	mov	r3, r0
 80069d4:	2b01      	cmp	r3, #1
 80069d6:	bf0c      	ite	eq
 80069d8:	2301      	moveq	r3, #1
 80069da:	2300      	movne	r3, #0
 80069dc:	b2db      	uxtb	r3, r3
 80069de:	2b00      	cmp	r3, #0
 80069e0:	d102      	bne.n	80069e8 <stm32__spi__send_16bit_mode+0xb8>
 80069e2:	697b      	ldr	r3, [r7, #20]
 80069e4:	2b01      	cmp	r3, #1
 80069e6:	d137      	bne.n	8006a58 <stm32__spi__send_16bit_mode+0x128>
 80069e8:	693b      	ldr	r3, [r7, #16]
 80069ea:	429c      	cmp	r4, r3
 80069ec:	dc02      	bgt.n	80069f4 <stm32__spi__send_16bit_mode+0xc4>
 80069ee:	693b      	ldr	r3, [r7, #16]
 80069f0:	429d      	cmp	r5, r3
 80069f2:	da04      	bge.n	80069fe <stm32__spi__send_16bit_mode+0xce>
 80069f4:	f240 318a 	movw	r1, #906	; 0x38a
 80069f8:	483c      	ldr	r0, [pc, #240]	; (8006aec <stm32__spi__send_16bit_mode+0x1bc>)
 80069fa:	f002 fb1b 	bl	8009034 <__gnat_rcheck_CE_Index_Check>
 80069fe:	683a      	ldr	r2, [r7, #0]
 8006a00:	693b      	ldr	r3, [r7, #16]
 8006a02:	4621      	mov	r1, r4
 8006a04:	1a5b      	subs	r3, r3, r1
 8006a06:	005b      	lsls	r3, r3, #1
 8006a08:	4413      	add	r3, r2
 8006a0a:	2b00      	cmp	r3, #0
 8006a0c:	d104      	bne.n	8006a18 <stm32__spi__send_16bit_mode+0xe8>
 8006a0e:	f240 318a 	movw	r1, #906	; 0x38a
 8006a12:	4836      	ldr	r0, [pc, #216]	; (8006aec <stm32__spi__send_16bit_mode+0x1bc>)
 8006a14:	f002 faf6 	bl	8009004 <__gnat_rcheck_CE_Access_Check>
 8006a18:	683a      	ldr	r2, [r7, #0]
 8006a1a:	693b      	ldr	r3, [r7, #16]
 8006a1c:	4621      	mov	r1, r4
 8006a1e:	1a5b      	subs	r3, r3, r1
 8006a20:	005b      	lsls	r3, r3, #1
 8006a22:	4413      	add	r3, r2
 8006a24:	881a      	ldrh	r2, [r3, #0]
 8006a26:	68fb      	ldr	r3, [r7, #12]
 8006a28:	685b      	ldr	r3, [r3, #4]
 8006a2a:	621a      	str	r2, [r3, #32]
 8006a2c:	693b      	ldr	r3, [r7, #16]
 8006a2e:	4a31      	ldr	r2, [pc, #196]	; (8006af4 <stm32__spi__send_16bit_mode+0x1c4>)
 8006a30:	4293      	cmp	r3, r2
 8006a32:	dd04      	ble.n	8006a3e <stm32__spi__send_16bit_mode+0x10e>
 8006a34:	f240 318b 	movw	r1, #907	; 0x38b
 8006a38:	482c      	ldr	r0, [pc, #176]	; (8006aec <stm32__spi__send_16bit_mode+0x1bc>)
 8006a3a:	f002 fb0b 	bl	8009054 <__gnat_rcheck_CE_Overflow_Check>
 8006a3e:	693b      	ldr	r3, [r7, #16]
 8006a40:	3302      	adds	r3, #2
 8006a42:	613b      	str	r3, [r7, #16]
 8006a44:	697b      	ldr	r3, [r7, #20]
 8006a46:	3b01      	subs	r3, #1
 8006a48:	2b00      	cmp	r3, #0
 8006a4a:	da04      	bge.n	8006a56 <stm32__spi__send_16bit_mode+0x126>
 8006a4c:	f44f 7163 	mov.w	r1, #908	; 0x38c
 8006a50:	4826      	ldr	r0, [pc, #152]	; (8006aec <stm32__spi__send_16bit_mode+0x1bc>)
 8006a52:	f002 fb07 	bl	8009064 <__gnat_rcheck_CE_Range_Check>
 8006a56:	617b      	str	r3, [r7, #20]
 8006a58:	697b      	ldr	r3, [r7, #20]
 8006a5a:	2b00      	cmp	r3, #0
 8006a5c:	dd40      	ble.n	8006ae0 <stm32__spi__send_16bit_mode+0x1b0>
 8006a5e:	68f8      	ldr	r0, [r7, #12]
 8006a60:	f7fe fedc 	bl	800581c <stm32__spi__tx_is_empty>
 8006a64:	4603      	mov	r3, r0
 8006a66:	2b00      	cmp	r3, #0
 8006a68:	d101      	bne.n	8006a6e <stm32__spi__send_16bit_mode+0x13e>
 8006a6a:	bf00      	nop
 8006a6c:	e7f7      	b.n	8006a5e <stm32__spi__send_16bit_mode+0x12e>
 8006a6e:	693b      	ldr	r3, [r7, #16]
 8006a70:	429c      	cmp	r4, r3
 8006a72:	dc02      	bgt.n	8006a7a <stm32__spi__send_16bit_mode+0x14a>
 8006a74:	693b      	ldr	r3, [r7, #16]
 8006a76:	429d      	cmp	r5, r3
 8006a78:	da04      	bge.n	8006a84 <stm32__spi__send_16bit_mode+0x154>
 8006a7a:	f240 3196 	movw	r1, #918	; 0x396
 8006a7e:	481b      	ldr	r0, [pc, #108]	; (8006aec <stm32__spi__send_16bit_mode+0x1bc>)
 8006a80:	f002 fad8 	bl	8009034 <__gnat_rcheck_CE_Index_Check>
 8006a84:	683a      	ldr	r2, [r7, #0]
 8006a86:	693b      	ldr	r3, [r7, #16]
 8006a88:	4621      	mov	r1, r4
 8006a8a:	1a5b      	subs	r3, r3, r1
 8006a8c:	005b      	lsls	r3, r3, #1
 8006a8e:	4413      	add	r3, r2
 8006a90:	2b00      	cmp	r3, #0
 8006a92:	d104      	bne.n	8006a9e <stm32__spi__send_16bit_mode+0x16e>
 8006a94:	f240 3196 	movw	r1, #918	; 0x396
 8006a98:	4814      	ldr	r0, [pc, #80]	; (8006aec <stm32__spi__send_16bit_mode+0x1bc>)
 8006a9a:	f002 fab3 	bl	8009004 <__gnat_rcheck_CE_Access_Check>
 8006a9e:	683a      	ldr	r2, [r7, #0]
 8006aa0:	693b      	ldr	r3, [r7, #16]
 8006aa2:	4621      	mov	r1, r4
 8006aa4:	1a5b      	subs	r3, r3, r1
 8006aa6:	005b      	lsls	r3, r3, #1
 8006aa8:	4413      	add	r3, r2
 8006aaa:	881a      	ldrh	r2, [r3, #0]
 8006aac:	68fb      	ldr	r3, [r7, #12]
 8006aae:	685b      	ldr	r3, [r3, #4]
 8006ab0:	621a      	str	r2, [r3, #32]
 8006ab2:	693b      	ldr	r3, [r7, #16]
 8006ab4:	4a0f      	ldr	r2, [pc, #60]	; (8006af4 <stm32__spi__send_16bit_mode+0x1c4>)
 8006ab6:	4293      	cmp	r3, r2
 8006ab8:	dd04      	ble.n	8006ac4 <stm32__spi__send_16bit_mode+0x194>
 8006aba:	f240 3197 	movw	r1, #919	; 0x397
 8006abe:	480b      	ldr	r0, [pc, #44]	; (8006aec <stm32__spi__send_16bit_mode+0x1bc>)
 8006ac0:	f002 fac8 	bl	8009054 <__gnat_rcheck_CE_Overflow_Check>
 8006ac4:	693b      	ldr	r3, [r7, #16]
 8006ac6:	3302      	adds	r3, #2
 8006ac8:	613b      	str	r3, [r7, #16]
 8006aca:	697b      	ldr	r3, [r7, #20]
 8006acc:	3b01      	subs	r3, #1
 8006ace:	2b00      	cmp	r3, #0
 8006ad0:	da04      	bge.n	8006adc <stm32__spi__send_16bit_mode+0x1ac>
 8006ad2:	f44f 7166 	mov.w	r1, #920	; 0x398
 8006ad6:	4805      	ldr	r0, [pc, #20]	; (8006aec <stm32__spi__send_16bit_mode+0x1bc>)
 8006ad8:	f002 fac4 	bl	8009064 <__gnat_rcheck_CE_Range_Check>
 8006adc:	617b      	str	r3, [r7, #20]
 8006ade:	e7bb      	b.n	8006a58 <stm32__spi__send_16bit_mode+0x128>
 8006ae0:	371c      	adds	r7, #28
 8006ae2:	46bd      	mov	sp, r7
 8006ae4:	e8bd 8bb0 	ldmia.w	sp!, {r4, r5, r7, r8, r9, fp, pc}
 8006ae8:	2000005e 	.word	0x2000005e
 8006aec:	0800d7c4 	.word	0x0800d7c4
 8006af0:	7ffffffe 	.word	0x7ffffffe
 8006af4:	7ffffffd 	.word	0x7ffffffd

08006af8 <stm32__spi__send_8bit_mode>:
 8006af8:	e92d 4bf0 	stmdb	sp!, {r4, r5, r6, r7, r8, r9, fp, lr}
 8006afc:	b088      	sub	sp, #32
 8006afe:	af00      	add	r7, sp, #0
 8006b00:	60f8      	str	r0, [r7, #12]
 8006b02:	e9c7 1200 	strd	r1, r2, [r7]
 8006b06:	687b      	ldr	r3, [r7, #4]
 8006b08:	681c      	ldr	r4, [r3, #0]
 8006b0a:	687b      	ldr	r3, [r7, #4]
 8006b0c:	685d      	ldr	r5, [r3, #4]
 8006b0e:	42a5      	cmp	r5, r4
 8006b10:	db10      	blt.n	8006b34 <stm32__spi__send_8bit_mode+0x3c>
 8006b12:	4628      	mov	r0, r5
 8006b14:	ea4f 71e0 	mov.w	r1, r0, asr #31
 8006b18:	46a0      	mov	r8, r4
 8006b1a:	ea4f 79e8 	mov.w	r9, r8, asr #31
 8006b1e:	4602      	mov	r2, r0
 8006b20:	460b      	mov	r3, r1
 8006b22:	ebb2 0208 	subs.w	r2, r2, r8
 8006b26:	eb63 0309 	sbc.w	r3, r3, r9
 8006b2a:	f112 0801 	adds.w	r8, r2, #1
 8006b2e:	f143 0900 	adc.w	r9, r3, #0
 8006b32:	e003      	b.n	8006b3c <stm32__spi__send_8bit_mode+0x44>
 8006b34:	f04f 0800 	mov.w	r8, #0
 8006b38:	f04f 0900 	mov.w	r9, #0
 8006b3c:	4b5e      	ldr	r3, [pc, #376]	; (8006cb8 <stm32__spi__send_8bit_mode+0x1c0>)
 8006b3e:	781b      	ldrb	r3, [r3, #0]
 8006b40:	f083 0301 	eor.w	r3, r3, #1
 8006b44:	b2db      	uxtb	r3, r3
 8006b46:	2b00      	cmp	r3, #0
 8006b48:	d004      	beq.n	8006b54 <stm32__spi__send_8bit_mode+0x5c>
 8006b4a:	f44f 7169 	mov.w	r1, #932	; 0x3a4
 8006b4e:	485b      	ldr	r0, [pc, #364]	; (8006cbc <stm32__spi__send_8bit_mode+0x1c4>)
 8006b50:	f002 fa90 	bl	8009074 <__gnat_rcheck_PE_Access_Before_Elaboration>
 8006b54:	4626      	mov	r6, r4
 8006b56:	4622      	mov	r2, r4
 8006b58:	ea4f 73e2 	mov.w	r3, r2, asr #31
 8006b5c:	4858      	ldr	r0, [pc, #352]	; (8006cc0 <stm32__spi__send_8bit_mode+0x1c8>)
 8006b5e:	f04f 0100 	mov.w	r1, #0
 8006b62:	eb10 0b02 	adds.w	fp, r0, r2
 8006b66:	eb41 0c03 	adc.w	ip, r1, r3
 8006b6a:	462a      	mov	r2, r5
 8006b6c:	ea4f 73e2 	mov.w	r3, r2, asr #31
 8006b70:	4593      	cmp	fp, r2
 8006b72:	eb7c 0303 	sbcs.w	r3, ip, r3
 8006b76:	da04      	bge.n	8006b82 <stm32__spi__send_8bit_mode+0x8a>
 8006b78:	f44f 716a 	mov.w	r1, #936	; 0x3a8
 8006b7c:	484f      	ldr	r0, [pc, #316]	; (8006cbc <stm32__spi__send_8bit_mode+0x1c4>)
 8006b7e:	f002 fa71 	bl	8009064 <__gnat_rcheck_CE_Range_Check>
 8006b82:	4643      	mov	r3, r8
 8006b84:	61fb      	str	r3, [r7, #28]
 8006b86:	2c00      	cmp	r4, #0
 8006b88:	da04      	bge.n	8006b94 <stm32__spi__send_8bit_mode+0x9c>
 8006b8a:	f240 31a9 	movw	r1, #937	; 0x3a9
 8006b8e:	484b      	ldr	r0, [pc, #300]	; (8006cbc <stm32__spi__send_8bit_mode+0x1c4>)
 8006b90:	f002 fa68 	bl	8009064 <__gnat_rcheck_CE_Range_Check>
 8006b94:	61bc      	str	r4, [r7, #24]
 8006b96:	68fb      	ldr	r3, [r7, #12]
 8006b98:	685b      	ldr	r3, [r3, #4]
 8006b9a:	3320      	adds	r3, #32
 8006b9c:	617b      	str	r3, [r7, #20]
 8006b9e:	69fb      	ldr	r3, [r7, #28]
 8006ba0:	f5b3 3f80 	cmp.w	r3, #65536	; 0x10000
 8006ba4:	db04      	blt.n	8006bb0 <stm32__spi__send_8bit_mode+0xb8>
 8006ba6:	f44f 716b 	mov.w	r1, #940	; 0x3ac
 8006baa:	4844      	ldr	r0, [pc, #272]	; (8006cbc <stm32__spi__send_8bit_mode+0x1c4>)
 8006bac:	f002 fa5a 	bl	8009064 <__gnat_rcheck_CE_Range_Check>
 8006bb0:	68fb      	ldr	r3, [r7, #12]
 8006bb2:	685b      	ldr	r3, [r3, #4]
 8006bb4:	3304      	adds	r3, #4
 8006bb6:	681b      	ldr	r3, [r3, #0]
 8006bb8:	69fa      	ldr	r2, [r7, #28]
 8006bba:	b292      	uxth	r2, r2
 8006bbc:	f362 030f 	bfi	r3, r2, #0, #16
 8006bc0:	68fa      	ldr	r2, [r7, #12]
 8006bc2:	6852      	ldr	r2, [r2, #4]
 8006bc4:	3204      	adds	r2, #4
 8006bc6:	6013      	str	r3, [r2, #0]
 8006bc8:	68fb      	ldr	r3, [r7, #12]
 8006bca:	685b      	ldr	r3, [r3, #4]
 8006bcc:	681b      	ldr	r3, [r3, #0]
 8006bce:	461a      	mov	r2, r3
 8006bd0:	4613      	mov	r3, r2
 8006bd2:	f443 7200 	orr.w	r2, r3, #512	; 0x200
 8006bd6:	68fb      	ldr	r3, [r7, #12]
 8006bd8:	685b      	ldr	r3, [r3, #4]
 8006bda:	601a      	str	r2, [r3, #0]
 8006bdc:	68f8      	ldr	r0, [r7, #12]
 8006bde:	f7fe fe5f 	bl	80058a0 <stm32__spi__current_mode>
 8006be2:	4603      	mov	r3, r0
 8006be4:	2b01      	cmp	r3, #1
 8006be6:	bf0c      	ite	eq
 8006be8:	2301      	moveq	r3, #1
 8006bea:	2300      	movne	r3, #0
 8006bec:	b2db      	uxtb	r3, r3
 8006bee:	2b00      	cmp	r3, #0
 8006bf0:	d102      	bne.n	8006bf8 <stm32__spi__send_8bit_mode+0x100>
 8006bf2:	69fb      	ldr	r3, [r7, #28]
 8006bf4:	2b01      	cmp	r3, #1
 8006bf6:	d127      	bne.n	8006c48 <stm32__spi__send_8bit_mode+0x150>
 8006bf8:	69bb      	ldr	r3, [r7, #24]
 8006bfa:	429c      	cmp	r4, r3
 8006bfc:	dc02      	bgt.n	8006c04 <stm32__spi__send_8bit_mode+0x10c>
 8006bfe:	69bb      	ldr	r3, [r7, #24]
 8006c00:	429d      	cmp	r5, r3
 8006c02:	da04      	bge.n	8006c0e <stm32__spi__send_8bit_mode+0x116>
 8006c04:	f240 31af 	movw	r1, #943	; 0x3af
 8006c08:	482c      	ldr	r0, [pc, #176]	; (8006cbc <stm32__spi__send_8bit_mode+0x1c4>)
 8006c0a:	f002 fa13 	bl	8009034 <__gnat_rcheck_CE_Index_Check>
 8006c0e:	683a      	ldr	r2, [r7, #0]
 8006c10:	69bb      	ldr	r3, [r7, #24]
 8006c12:	1b9b      	subs	r3, r3, r6
 8006c14:	5cd2      	ldrb	r2, [r2, r3]
 8006c16:	697b      	ldr	r3, [r7, #20]
 8006c18:	701a      	strb	r2, [r3, #0]
 8006c1a:	69bb      	ldr	r3, [r7, #24]
 8006c1c:	f06f 4200 	mvn.w	r2, #2147483648	; 0x80000000
 8006c20:	4293      	cmp	r3, r2
 8006c22:	d104      	bne.n	8006c2e <stm32__spi__send_8bit_mode+0x136>
 8006c24:	f44f 716c 	mov.w	r1, #944	; 0x3b0
 8006c28:	4824      	ldr	r0, [pc, #144]	; (8006cbc <stm32__spi__send_8bit_mode+0x1c4>)
 8006c2a:	f002 fa13 	bl	8009054 <__gnat_rcheck_CE_Overflow_Check>
 8006c2e:	69bb      	ldr	r3, [r7, #24]
 8006c30:	3301      	adds	r3, #1
 8006c32:	61bb      	str	r3, [r7, #24]
 8006c34:	69fb      	ldr	r3, [r7, #28]
 8006c36:	3b01      	subs	r3, #1
 8006c38:	2b00      	cmp	r3, #0
 8006c3a:	da04      	bge.n	8006c46 <stm32__spi__send_8bit_mode+0x14e>
 8006c3c:	f240 31b1 	movw	r1, #945	; 0x3b1
 8006c40:	481e      	ldr	r0, [pc, #120]	; (8006cbc <stm32__spi__send_8bit_mode+0x1c4>)
 8006c42:	f002 fa0f 	bl	8009064 <__gnat_rcheck_CE_Range_Check>
 8006c46:	61fb      	str	r3, [r7, #28]
 8006c48:	69fb      	ldr	r3, [r7, #28]
 8006c4a:	2b00      	cmp	r3, #0
 8006c4c:	dd30      	ble.n	8006cb0 <stm32__spi__send_8bit_mode+0x1b8>
 8006c4e:	68f8      	ldr	r0, [r7, #12]
 8006c50:	f7fe fde4 	bl	800581c <stm32__spi__tx_is_empty>
 8006c54:	4603      	mov	r3, r0
 8006c56:	2b00      	cmp	r3, #0
 8006c58:	d101      	bne.n	8006c5e <stm32__spi__send_8bit_mode+0x166>
 8006c5a:	bf00      	nop
 8006c5c:	e7f7      	b.n	8006c4e <stm32__spi__send_8bit_mode+0x156>
 8006c5e:	69bb      	ldr	r3, [r7, #24]
 8006c60:	429c      	cmp	r4, r3
 8006c62:	dc02      	bgt.n	8006c6a <stm32__spi__send_8bit_mode+0x172>
 8006c64:	69bb      	ldr	r3, [r7, #24]
 8006c66:	429d      	cmp	r5, r3
 8006c68:	da04      	bge.n	8006c74 <stm32__spi__send_8bit_mode+0x17c>
 8006c6a:	f240 31ba 	movw	r1, #954	; 0x3ba
 8006c6e:	4813      	ldr	r0, [pc, #76]	; (8006cbc <stm32__spi__send_8bit_mode+0x1c4>)
 8006c70:	f002 f9e0 	bl	8009034 <__gnat_rcheck_CE_Index_Check>
 8006c74:	683a      	ldr	r2, [r7, #0]
 8006c76:	69bb      	ldr	r3, [r7, #24]
 8006c78:	1b9b      	subs	r3, r3, r6
 8006c7a:	5cd2      	ldrb	r2, [r2, r3]
 8006c7c:	697b      	ldr	r3, [r7, #20]
 8006c7e:	701a      	strb	r2, [r3, #0]
 8006c80:	69bb      	ldr	r3, [r7, #24]
 8006c82:	f06f 4200 	mvn.w	r2, #2147483648	; 0x80000000
 8006c86:	4293      	cmp	r3, r2
 8006c88:	d104      	bne.n	8006c94 <stm32__spi__send_8bit_mode+0x19c>
 8006c8a:	f240 31bb 	movw	r1, #955	; 0x3bb
 8006c8e:	480b      	ldr	r0, [pc, #44]	; (8006cbc <stm32__spi__send_8bit_mode+0x1c4>)
 8006c90:	f002 f9e0 	bl	8009054 <__gnat_rcheck_CE_Overflow_Check>
 8006c94:	69bb      	ldr	r3, [r7, #24]
 8006c96:	3301      	adds	r3, #1
 8006c98:	61bb      	str	r3, [r7, #24]
 8006c9a:	69fb      	ldr	r3, [r7, #28]
 8006c9c:	3b01      	subs	r3, #1
 8006c9e:	2b00      	cmp	r3, #0
 8006ca0:	da04      	bge.n	8006cac <stm32__spi__send_8bit_mode+0x1b4>
 8006ca2:	f44f 716f 	mov.w	r1, #956	; 0x3bc
 8006ca6:	4805      	ldr	r0, [pc, #20]	; (8006cbc <stm32__spi__send_8bit_mode+0x1c4>)
 8006ca8:	f002 f9dc 	bl	8009064 <__gnat_rcheck_CE_Range_Check>
 8006cac:	61fb      	str	r3, [r7, #28]
 8006cae:	e7cb      	b.n	8006c48 <stm32__spi__send_8bit_mode+0x150>
 8006cb0:	3720      	adds	r7, #32
 8006cb2:	46bd      	mov	sp, r7
 8006cb4:	e8bd 8bf0 	ldmia.w	sp!, {r4, r5, r6, r7, r8, r9, fp, pc}
 8006cb8:	2000005f 	.word	0x2000005f
 8006cbc:	0800d7c4 	.word	0x0800d7c4
 8006cc0:	7ffffffe 	.word	0x7ffffffe

08006cc4 <stm32__spi__receive_16bit_mode>:
 8006cc4:	e92d 41f0 	stmdb	sp!, {r4, r5, r6, r7, r8, lr}
 8006cc8:	b086      	sub	sp, #24
 8006cca:	af00      	add	r7, sp, #0
 8006ccc:	60f8      	str	r0, [r7, #12]
 8006cce:	e9c7 1200 	strd	r1, r2, [r7]
 8006cd2:	4b28      	ldr	r3, [pc, #160]	; (8006d74 <stm32__spi__receive_16bit_mode+0xb0>)
 8006cd4:	781b      	ldrb	r3, [r3, #0]
 8006cd6:	f083 0301 	eor.w	r3, r3, #1
 8006cda:	b2db      	uxtb	r3, r3
 8006cdc:	2b00      	cmp	r3, #0
 8006cde:	d004      	beq.n	8006cea <stm32__spi__receive_16bit_mode+0x26>
 8006ce0:	f240 31c9 	movw	r1, #969	; 0x3c9
 8006ce4:	4824      	ldr	r0, [pc, #144]	; (8006d78 <stm32__spi__receive_16bit_mode+0xb4>)
 8006ce6:	f002 f9c5 	bl	8009074 <__gnat_rcheck_PE_Access_Before_Elaboration>
 8006cea:	687b      	ldr	r3, [r7, #4]
 8006cec:	681b      	ldr	r3, [r3, #0]
 8006cee:	461e      	mov	r6, r3
 8006cf0:	68f8      	ldr	r0, [r7, #12]
 8006cf2:	f7fe fdd5 	bl	80058a0 <stm32__spi__current_mode>
 8006cf6:	4603      	mov	r3, r0
 8006cf8:	2b00      	cmp	r3, #0
 8006cfa:	bf0c      	ite	eq
 8006cfc:	2301      	moveq	r3, #1
 8006cfe:	2300      	movne	r3, #0
 8006d00:	75fb      	strb	r3, [r7, #23]
 8006d02:	687b      	ldr	r3, [r7, #4]
 8006d04:	681c      	ldr	r4, [r3, #0]
 8006d06:	687b      	ldr	r3, [r7, #4]
 8006d08:	685d      	ldr	r5, [r3, #4]
 8006d0a:	42ac      	cmp	r4, r5
 8006d0c:	dc2d      	bgt.n	8006d6a <stm32__spi__receive_16bit_mode+0xa6>
 8006d0e:	683a      	ldr	r2, [r7, #0]
 8006d10:	46a0      	mov	r8, r4
 8006d12:	eba8 0306 	sub.w	r3, r8, r6
 8006d16:	005b      	lsls	r3, r3, #1
 8006d18:	4413      	add	r3, r2
 8006d1a:	613b      	str	r3, [r7, #16]
 8006d1c:	7dfb      	ldrb	r3, [r7, #23]
 8006d1e:	2b00      	cmp	r3, #0
 8006d20:	d003      	beq.n	8006d2a <stm32__spi__receive_16bit_mode+0x66>
 8006d22:	68fb      	ldr	r3, [r7, #12]
 8006d24:	685b      	ldr	r3, [r3, #4]
 8006d26:	2200      	movs	r2, #0
 8006d28:	621a      	str	r2, [r3, #32]
 8006d2a:	68f8      	ldr	r0, [r7, #12]
 8006d2c:	f7fe fd88 	bl	8005840 <stm32__spi__rx_is_empty>
 8006d30:	4603      	mov	r3, r0
 8006d32:	f083 0301 	eor.w	r3, r3, #1
 8006d36:	b2db      	uxtb	r3, r3
 8006d38:	2b00      	cmp	r3, #0
 8006d3a:	d101      	bne.n	8006d40 <stm32__spi__receive_16bit_mode+0x7c>
 8006d3c:	bf00      	nop
 8006d3e:	e7f4      	b.n	8006d2a <stm32__spi__receive_16bit_mode+0x66>
 8006d40:	68fb      	ldr	r3, [r7, #12]
 8006d42:	685b      	ldr	r3, [r3, #4]
 8006d44:	6b1b      	ldr	r3, [r3, #48]	; 0x30
 8006d46:	f5b3 3f80 	cmp.w	r3, #65536	; 0x10000
 8006d4a:	d304      	bcc.n	8006d56 <stm32__spi__receive_16bit_mode+0x92>
 8006d4c:	f240 31d6 	movw	r1, #982	; 0x3d6
 8006d50:	4809      	ldr	r0, [pc, #36]	; (8006d78 <stm32__spi__receive_16bit_mode+0xb4>)
 8006d52:	f002 f987 	bl	8009064 <__gnat_rcheck_CE_Range_Check>
 8006d56:	683a      	ldr	r2, [r7, #0]
 8006d58:	b299      	uxth	r1, r3
 8006d5a:	eba8 0306 	sub.w	r3, r8, r6
 8006d5e:	f822 1013 	strh.w	r1, [r2, r3, lsl #1]
 8006d62:	42ac      	cmp	r4, r5
 8006d64:	d001      	beq.n	8006d6a <stm32__spi__receive_16bit_mode+0xa6>
 8006d66:	3401      	adds	r4, #1
 8006d68:	e7d1      	b.n	8006d0e <stm32__spi__receive_16bit_mode+0x4a>
 8006d6a:	3718      	adds	r7, #24
 8006d6c:	46bd      	mov	sp, r7
 8006d6e:	e8bd 81f0 	ldmia.w	sp!, {r4, r5, r6, r7, r8, pc}
 8006d72:	bf00      	nop
 8006d74:	20000060 	.word	0x20000060
 8006d78:	0800d7c4 	.word	0x0800d7c4

08006d7c <stm32__spi__receive_8bit_mode>:
 8006d7c:	e92d 43f0 	stmdb	sp!, {r4, r5, r6, r7, r8, r9, lr}
 8006d80:	b089      	sub	sp, #36	; 0x24
 8006d82:	af00      	add	r7, sp, #0
 8006d84:	60f8      	str	r0, [r7, #12]
 8006d86:	e9c7 1200 	strd	r1, r2, [r7]
 8006d8a:	4b45      	ldr	r3, [pc, #276]	; (8006ea0 <stm32__spi__receive_8bit_mode+0x124>)
 8006d8c:	781b      	ldrb	r3, [r3, #0]
 8006d8e:	f083 0301 	eor.w	r3, r3, #1
 8006d92:	b2db      	uxtb	r3, r3
 8006d94:	2b00      	cmp	r3, #0
 8006d96:	d004      	beq.n	8006da2 <stm32__spi__receive_8bit_mode+0x26>
 8006d98:	f240 31de 	movw	r1, #990	; 0x3de
 8006d9c:	4841      	ldr	r0, [pc, #260]	; (8006ea4 <stm32__spi__receive_8bit_mode+0x128>)
 8006d9e:	f002 f969 	bl	8009074 <__gnat_rcheck_PE_Access_Before_Elaboration>
 8006da2:	687b      	ldr	r3, [r7, #4]
 8006da4:	681b      	ldr	r3, [r3, #0]
 8006da6:	461e      	mov	r6, r3
 8006da8:	68f8      	ldr	r0, [r7, #12]
 8006daa:	f7fe fd79 	bl	80058a0 <stm32__spi__current_mode>
 8006dae:	4603      	mov	r3, r0
 8006db0:	2b00      	cmp	r3, #0
 8006db2:	bf0c      	ite	eq
 8006db4:	2301      	moveq	r3, #1
 8006db6:	2300      	movne	r3, #0
 8006db8:	77fb      	strb	r3, [r7, #31]
 8006dba:	68fb      	ldr	r3, [r7, #12]
 8006dbc:	685b      	ldr	r3, [r3, #4]
 8006dbe:	3320      	adds	r3, #32
 8006dc0:	61bb      	str	r3, [r7, #24]
 8006dc2:	68fb      	ldr	r3, [r7, #12]
 8006dc4:	685b      	ldr	r3, [r3, #4]
 8006dc6:	3330      	adds	r3, #48	; 0x30
 8006dc8:	617b      	str	r3, [r7, #20]
 8006dca:	687b      	ldr	r3, [r7, #4]
 8006dcc:	681b      	ldr	r3, [r3, #0]
 8006dce:	ea4f 74e3 	mov.w	r4, r3, asr #31
 8006dd2:	f64f 71fe 	movw	r1, #65534	; 0xfffe
 8006dd6:	f04f 0200 	mov.w	r2, #0
 8006dda:	eb11 0803 	adds.w	r8, r1, r3
 8006dde:	eb42 0904 	adc.w	r9, r2, r4
 8006de2:	687b      	ldr	r3, [r7, #4]
 8006de4:	685b      	ldr	r3, [r3, #4]
 8006de6:	ea4f 74e3 	mov.w	r4, r3, asr #31
 8006dea:	4598      	cmp	r8, r3
 8006dec:	eb79 0304 	sbcs.w	r3, r9, r4
 8006df0:	da04      	bge.n	8006dfc <stm32__spi__receive_8bit_mode+0x80>
 8006df2:	f44f 717a 	mov.w	r1, #1000	; 0x3e8
 8006df6:	482b      	ldr	r0, [pc, #172]	; (8006ea4 <stm32__spi__receive_8bit_mode+0x128>)
 8006df8:	f002 f934 	bl	8009064 <__gnat_rcheck_CE_Range_Check>
 8006dfc:	687b      	ldr	r3, [r7, #4]
 8006dfe:	685a      	ldr	r2, [r3, #4]
 8006e00:	687b      	ldr	r3, [r7, #4]
 8006e02:	681b      	ldr	r3, [r3, #0]
 8006e04:	429a      	cmp	r2, r3
 8006e06:	db0a      	blt.n	8006e1e <stm32__spi__receive_8bit_mode+0xa2>
 8006e08:	687b      	ldr	r3, [r7, #4]
 8006e0a:	685b      	ldr	r3, [r3, #4]
 8006e0c:	b29a      	uxth	r2, r3
 8006e0e:	687b      	ldr	r3, [r7, #4]
 8006e10:	681b      	ldr	r3, [r3, #0]
 8006e12:	b29b      	uxth	r3, r3
 8006e14:	1ad3      	subs	r3, r2, r3
 8006e16:	b29b      	uxth	r3, r3
 8006e18:	3301      	adds	r3, #1
 8006e1a:	b29a      	uxth	r2, r3
 8006e1c:	e000      	b.n	8006e20 <stm32__spi__receive_8bit_mode+0xa4>
 8006e1e:	2200      	movs	r2, #0
 8006e20:	68fb      	ldr	r3, [r7, #12]
 8006e22:	685b      	ldr	r3, [r3, #4]
 8006e24:	3304      	adds	r3, #4
 8006e26:	681b      	ldr	r3, [r3, #0]
 8006e28:	f362 030f 	bfi	r3, r2, #0, #16
 8006e2c:	68fa      	ldr	r2, [r7, #12]
 8006e2e:	6852      	ldr	r2, [r2, #4]
 8006e30:	3204      	adds	r2, #4
 8006e32:	6013      	str	r3, [r2, #0]
 8006e34:	68fb      	ldr	r3, [r7, #12]
 8006e36:	685b      	ldr	r3, [r3, #4]
 8006e38:	681b      	ldr	r3, [r3, #0]
 8006e3a:	461a      	mov	r2, r3
 8006e3c:	4613      	mov	r3, r2
 8006e3e:	f443 7200 	orr.w	r2, r3, #512	; 0x200
 8006e42:	68fb      	ldr	r3, [r7, #12]
 8006e44:	685b      	ldr	r3, [r3, #4]
 8006e46:	601a      	str	r2, [r3, #0]
 8006e48:	687b      	ldr	r3, [r7, #4]
 8006e4a:	681c      	ldr	r4, [r3, #0]
 8006e4c:	687b      	ldr	r3, [r7, #4]
 8006e4e:	685d      	ldr	r5, [r3, #4]
 8006e50:	42ac      	cmp	r4, r5
 8006e52:	dc21      	bgt.n	8006e98 <stm32__spi__receive_8bit_mode+0x11c>
 8006e54:	683a      	ldr	r2, [r7, #0]
 8006e56:	46a0      	mov	r8, r4
 8006e58:	eba8 0306 	sub.w	r3, r8, r6
 8006e5c:	4413      	add	r3, r2
 8006e5e:	613b      	str	r3, [r7, #16]
 8006e60:	7ffb      	ldrb	r3, [r7, #31]
 8006e62:	2b00      	cmp	r3, #0
 8006e64:	d002      	beq.n	8006e6c <stm32__spi__receive_8bit_mode+0xf0>
 8006e66:	69bb      	ldr	r3, [r7, #24]
 8006e68:	2200      	movs	r2, #0
 8006e6a:	701a      	strb	r2, [r3, #0]
 8006e6c:	68f8      	ldr	r0, [r7, #12]
 8006e6e:	f7fe fce7 	bl	8005840 <stm32__spi__rx_is_empty>
 8006e72:	4603      	mov	r3, r0
 8006e74:	f083 0301 	eor.w	r3, r3, #1
 8006e78:	b2db      	uxtb	r3, r3
 8006e7a:	2b00      	cmp	r3, #0
 8006e7c:	d101      	bne.n	8006e82 <stm32__spi__receive_8bit_mode+0x106>
 8006e7e:	bf00      	nop
 8006e80:	e7f4      	b.n	8006e6c <stm32__spi__receive_8bit_mode+0xf0>
 8006e82:	683a      	ldr	r2, [r7, #0]
 8006e84:	697b      	ldr	r3, [r7, #20]
 8006e86:	781b      	ldrb	r3, [r3, #0]
 8006e88:	b2d9      	uxtb	r1, r3
 8006e8a:	eba8 0306 	sub.w	r3, r8, r6
 8006e8e:	54d1      	strb	r1, [r2, r3]
 8006e90:	42ac      	cmp	r4, r5
 8006e92:	d001      	beq.n	8006e98 <stm32__spi__receive_8bit_mode+0x11c>
 8006e94:	3401      	adds	r4, #1
 8006e96:	e7dd      	b.n	8006e54 <stm32__spi__receive_8bit_mode+0xd8>
 8006e98:	3724      	adds	r7, #36	; 0x24
 8006e9a:	46bd      	mov	sp, r7
 8006e9c:	e8bd 83f0 	ldmia.w	sp!, {r4, r5, r6, r7, r8, r9, pc}
 8006ea0:	20000061 	.word	0x20000061
 8006ea4:	0800d7c4 	.word	0x0800d7c4

08006ea8 <stm32__spi__transmit_receive>:
 8006ea8:	b082      	sub	sp, #8
 8006eaa:	e92d 4ff0 	stmdb	sp!, {r4, r5, r6, r7, r8, r9, sl, fp, lr}
 8006eae:	b097      	sub	sp, #92	; 0x5c
 8006eb0:	af02      	add	r7, sp, #8
 8006eb2:	6378      	str	r0, [r7, #52]	; 0x34
 8006eb4:	e9c7 120a 	strd	r1, r2, [r7, #40]	; 0x28
 8006eb8:	67fb      	str	r3, [r7, #124]	; 0x7c
 8006eba:	f107 0320 	add.w	r3, r7, #32
 8006ebe:	f107 027c 	add.w	r2, r7, #124	; 0x7c
 8006ec2:	e892 0003 	ldmia.w	r2, {r0, r1}
 8006ec6:	e883 0003 	stmia.w	r3, {r0, r1}
 8006eca:	6afb      	ldr	r3, [r7, #44]	; 0x2c
 8006ecc:	681b      	ldr	r3, [r3, #0]
 8006ece:	633b      	str	r3, [r7, #48]	; 0x30
 8006ed0:	6afb      	ldr	r3, [r7, #44]	; 0x2c
 8006ed2:	685b      	ldr	r3, [r3, #4]
 8006ed4:	607b      	str	r3, [r7, #4]
 8006ed6:	6afb      	ldr	r3, [r7, #44]	; 0x2c
 8006ed8:	685a      	ldr	r2, [r3, #4]
 8006eda:	6afb      	ldr	r3, [r7, #44]	; 0x2c
 8006edc:	681b      	ldr	r3, [r3, #0]
 8006ede:	429a      	cmp	r2, r3
 8006ee0:	db12      	blt.n	8006f08 <stm32__spi__transmit_receive+0x60>
 8006ee2:	6afb      	ldr	r3, [r7, #44]	; 0x2c
 8006ee4:	685b      	ldr	r3, [r3, #4]
 8006ee6:	4619      	mov	r1, r3
 8006ee8:	ea4f 72e1 	mov.w	r2, r1, asr #31
 8006eec:	6afb      	ldr	r3, [r7, #44]	; 0x2c
 8006eee:	681b      	ldr	r3, [r3, #0]
 8006ef0:	461d      	mov	r5, r3
 8006ef2:	ea4f 76e5 	mov.w	r6, r5, asr #31
 8006ef6:	460b      	mov	r3, r1
 8006ef8:	4614      	mov	r4, r2
 8006efa:	1b5b      	subs	r3, r3, r5
 8006efc:	eb64 0406 	sbc.w	r4, r4, r6
 8006f00:	1c5d      	adds	r5, r3, #1
 8006f02:	f144 0600 	adc.w	r6, r4, #0
 8006f06:	e003      	b.n	8006f10 <stm32__spi__transmit_receive+0x68>
 8006f08:	f04f 0500 	mov.w	r5, #0
 8006f0c:	f04f 0600 	mov.w	r6, #0
 8006f10:	4b6c      	ldr	r3, [pc, #432]	; (80070c4 <stm32__spi__transmit_receive+0x21c>)
 8006f12:	781b      	ldrb	r3, [r3, #0]
 8006f14:	f083 0301 	eor.w	r3, r3, #1
 8006f18:	b2db      	uxtb	r3, r3
 8006f1a:	2b00      	cmp	r3, #0
 8006f1c:	d004      	beq.n	8006f28 <stm32__spi__transmit_receive+0x80>
 8006f1e:	f240 31f6 	movw	r1, #1014	; 0x3f6
 8006f22:	4869      	ldr	r0, [pc, #420]	; (80070c8 <stm32__spi__transmit_receive+0x220>)
 8006f24:	f002 f8a6 	bl	8009074 <__gnat_rcheck_PE_Access_Before_Elaboration>
 8006f28:	6b78      	ldr	r0, [r7, #52]	; 0x34
 8006f2a:	f7fe fdd7 	bl	8005adc <stm32__spi__data_size>
 8006f2e:	4603      	mov	r3, r0
 8006f30:	2b00      	cmp	r3, #0
 8006f32:	bf14      	ite	ne
 8006f34:	2301      	movne	r3, #1
 8006f36:	2300      	moveq	r3, #0
 8006f38:	b2d8      	uxtb	r0, r3
 8006f3a:	6a7b      	ldr	r3, [r7, #36]	; 0x24
 8006f3c:	685a      	ldr	r2, [r3, #4]
 8006f3e:	6a7b      	ldr	r3, [r7, #36]	; 0x24
 8006f40:	681b      	ldr	r3, [r3, #0]
 8006f42:	429a      	cmp	r2, r3
 8006f44:	db18      	blt.n	8006f78 <stm32__spi__transmit_receive+0xd0>
 8006f46:	6a7b      	ldr	r3, [r7, #36]	; 0x24
 8006f48:	685b      	ldr	r3, [r3, #4]
 8006f4a:	4619      	mov	r1, r3
 8006f4c:	ea4f 72e1 	mov.w	r2, r1, asr #31
 8006f50:	e9c7 1202 	strd	r1, r2, [r7, #8]
 8006f54:	6a7b      	ldr	r3, [r7, #36]	; 0x24
 8006f56:	681b      	ldr	r3, [r3, #0]
 8006f58:	4619      	mov	r1, r3
 8006f5a:	ea4f 72e1 	mov.w	r2, r1, asr #31
 8006f5e:	460b      	mov	r3, r1
 8006f60:	4614      	mov	r4, r2
 8006f62:	e9d7 1202 	ldrd	r1, r2, [r7, #8]
 8006f66:	1ac9      	subs	r1, r1, r3
 8006f68:	eb62 0204 	sbc.w	r2, r2, r4
 8006f6c:	460b      	mov	r3, r1
 8006f6e:	4614      	mov	r4, r2
 8006f70:	1c59      	adds	r1, r3, #1
 8006f72:	f144 0200 	adc.w	r2, r4, #0
 8006f76:	e003      	b.n	8006f80 <stm32__spi__transmit_receive+0xd8>
 8006f78:	f04f 0100 	mov.w	r1, #0
 8006f7c:	f04f 0200 	mov.w	r2, #0
 8006f80:	4296      	cmp	r6, r2
 8006f82:	bf0a      	itet	eq
 8006f84:	428d      	cmpeq	r5, r1
 8006f86:	2301      	movne	r3, #1
 8006f88:	2300      	moveq	r3, #0
 8006f8a:	b2db      	uxtb	r3, r3
 8006f8c:	4303      	orrs	r3, r0
 8006f8e:	b2db      	uxtb	r3, r3
 8006f90:	2b00      	cmp	r3, #0
 8006f92:	d007      	beq.n	8006fa4 <stm32__spi__transmit_receive+0xfc>
 8006f94:	4b4d      	ldr	r3, [pc, #308]	; (80070cc <stm32__spi__transmit_receive+0x224>)
 8006f96:	613b      	str	r3, [r7, #16]
 8006f98:	4b4d      	ldr	r3, [pc, #308]	; (80070d0 <stm32__spi__transmit_receive+0x228>)
 8006f9a:	617b      	str	r3, [r7, #20]
 8006f9c:	e9d7 0104 	ldrd	r0, r1, [r7, #16]
 8006fa0:	f002 fd74 	bl	8009a8c <system__assertions__raise_assert_failure>
 8006fa4:	6b3b      	ldr	r3, [r7, #48]	; 0x30
 8006fa6:	2b00      	cmp	r3, #0
 8006fa8:	da04      	bge.n	8006fb4 <stm32__spi__transmit_receive+0x10c>
 8006faa:	f240 31ff 	movw	r1, #1023	; 0x3ff
 8006fae:	4846      	ldr	r0, [pc, #280]	; (80070c8 <stm32__spi__transmit_receive+0x220>)
 8006fb0:	f002 f858 	bl	8009064 <__gnat_rcheck_CE_Range_Check>
 8006fb4:	6a7b      	ldr	r3, [r7, #36]	; 0x24
 8006fb6:	681b      	ldr	r3, [r3, #0]
 8006fb8:	2b00      	cmp	r3, #0
 8006fba:	da04      	bge.n	8006fc6 <stm32__spi__transmit_receive+0x11e>
 8006fbc:	f240 31ff 	movw	r1, #1023	; 0x3ff
 8006fc0:	4841      	ldr	r0, [pc, #260]	; (80070c8 <stm32__spi__transmit_receive+0x220>)
 8006fc2:	f002 f84f 	bl	8009064 <__gnat_rcheck_CE_Range_Check>
 8006fc6:	6a7b      	ldr	r3, [r7, #36]	; 0x24
 8006fc8:	685a      	ldr	r2, [r3, #4]
 8006fca:	6a7b      	ldr	r3, [r7, #36]	; 0x24
 8006fcc:	681b      	ldr	r3, [r3, #0]
 8006fce:	429a      	cmp	r2, r3
 8006fd0:	db2e      	blt.n	8007030 <stm32__spi__transmit_receive+0x188>
 8006fd2:	6a7b      	ldr	r3, [r7, #36]	; 0x24
 8006fd4:	685b      	ldr	r3, [r3, #4]
 8006fd6:	4619      	mov	r1, r3
 8006fd8:	ea4f 72e1 	mov.w	r2, r1, asr #31
 8006fdc:	6a7b      	ldr	r3, [r7, #36]	; 0x24
 8006fde:	681b      	ldr	r3, [r3, #0]
 8006fe0:	461d      	mov	r5, r3
 8006fe2:	ea4f 76e5 	mov.w	r6, r5, asr #31
 8006fe6:	460b      	mov	r3, r1
 8006fe8:	4614      	mov	r4, r2
 8006fea:	1b5b      	subs	r3, r3, r5
 8006fec:	eb64 0406 	sbc.w	r4, r4, r6
 8006ff0:	2b00      	cmp	r3, #0
 8006ff2:	f174 0300 	sbcs.w	r3, r4, #0
 8006ff6:	db1b      	blt.n	8007030 <stm32__spi__transmit_receive+0x188>
 8006ff8:	6a7b      	ldr	r3, [r7, #36]	; 0x24
 8006ffa:	685a      	ldr	r2, [r3, #4]
 8006ffc:	6a7b      	ldr	r3, [r7, #36]	; 0x24
 8006ffe:	681b      	ldr	r3, [r3, #0]
 8007000:	429a      	cmp	r2, r3
 8007002:	db1a      	blt.n	800703a <stm32__spi__transmit_receive+0x192>
 8007004:	6a7b      	ldr	r3, [r7, #36]	; 0x24
 8007006:	685b      	ldr	r3, [r3, #4]
 8007008:	4619      	mov	r1, r3
 800700a:	ea4f 72e1 	mov.w	r2, r1, asr #31
 800700e:	6a7b      	ldr	r3, [r7, #36]	; 0x24
 8007010:	681b      	ldr	r3, [r3, #0]
 8007012:	461d      	mov	r5, r3
 8007014:	ea4f 76e5 	mov.w	r6, r5, asr #31
 8007018:	460b      	mov	r3, r1
 800701a:	4614      	mov	r4, r2
 800701c:	1b5b      	subs	r3, r3, r5
 800701e:	eb64 0406 	sbc.w	r4, r4, r6
 8007022:	492c      	ldr	r1, [pc, #176]	; (80070d4 <stm32__spi__transmit_receive+0x22c>)
 8007024:	f04f 0200 	mov.w	r2, #0
 8007028:	4299      	cmp	r1, r3
 800702a:	eb72 0304 	sbcs.w	r3, r2, r4
 800702e:	da04      	bge.n	800703a <stm32__spi__transmit_receive+0x192>
 8007030:	f240 31ff 	movw	r1, #1023	; 0x3ff
 8007034:	4824      	ldr	r0, [pc, #144]	; (80070c8 <stm32__spi__transmit_receive+0x220>)
 8007036:	f002 f815 	bl	8009064 <__gnat_rcheck_CE_Range_Check>
 800703a:	6a7b      	ldr	r3, [r7, #36]	; 0x24
 800703c:	681b      	ldr	r3, [r3, #0]
 800703e:	2b00      	cmp	r3, #0
 8007040:	da04      	bge.n	800704c <stm32__spi__transmit_receive+0x1a4>
 8007042:	f240 31ff 	movw	r1, #1023	; 0x3ff
 8007046:	4820      	ldr	r0, [pc, #128]	; (80070c8 <stm32__spi__transmit_receive+0x220>)
 8007048:	f002 f80c 	bl	8009064 <__gnat_rcheck_CE_Range_Check>
 800704c:	6abb      	ldr	r3, [r7, #40]	; 0x28
 800704e:	469a      	mov	sl, r3
 8007050:	6b3b      	ldr	r3, [r7, #48]	; 0x30
 8007052:	643b      	str	r3, [r7, #64]	; 0x40
 8007054:	687b      	ldr	r3, [r7, #4]
 8007056:	647b      	str	r3, [r7, #68]	; 0x44
 8007058:	f107 0340 	add.w	r3, r7, #64	; 0x40
 800705c:	469b      	mov	fp, r3
 800705e:	6a3b      	ldr	r3, [r7, #32]
 8007060:	4698      	mov	r8, r3
 8007062:	6a7b      	ldr	r3, [r7, #36]	; 0x24
 8007064:	681b      	ldr	r3, [r3, #0]
 8007066:	64bb      	str	r3, [r7, #72]	; 0x48
 8007068:	6a7b      	ldr	r3, [r7, #36]	; 0x24
 800706a:	685b      	ldr	r3, [r3, #4]
 800706c:	64fb      	str	r3, [r7, #76]	; 0x4c
 800706e:	f107 0348 	add.w	r3, r7, #72	; 0x48
 8007072:	4699      	mov	r9, r3
 8007074:	6a7b      	ldr	r3, [r7, #36]	; 0x24
 8007076:	685a      	ldr	r2, [r3, #4]
 8007078:	6a7b      	ldr	r3, [r7, #36]	; 0x24
 800707a:	681b      	ldr	r3, [r3, #0]
 800707c:	429a      	cmp	r2, r3
 800707e:	db07      	blt.n	8007090 <stm32__spi__transmit_receive+0x1e8>
 8007080:	6a7b      	ldr	r3, [r7, #36]	; 0x24
 8007082:	685b      	ldr	r3, [r3, #4]
 8007084:	461a      	mov	r2, r3
 8007086:	6a7b      	ldr	r3, [r7, #36]	; 0x24
 8007088:	681b      	ldr	r3, [r3, #0]
 800708a:	1ad3      	subs	r3, r2, r3
 800708c:	3301      	adds	r3, #1
 800708e:	e000      	b.n	8007092 <stm32__spi__transmit_receive+0x1ea>
 8007090:	2300      	movs	r3, #0
 8007092:	9301      	str	r3, [sp, #4]
 8007094:	e9c7 8906 	strd	r8, r9, [r7, #24]
 8007098:	69fb      	ldr	r3, [r7, #28]
 800709a:	9300      	str	r3, [sp, #0]
 800709c:	4643      	mov	r3, r8
 800709e:	4651      	mov	r1, sl
 80070a0:	465a      	mov	r2, fp
 80070a2:	6b78      	ldr	r0, [r7, #52]	; 0x34
 80070a4:	f7ff fabc 	bl	8006620 <stm32__spi__send_receive_8bit_mode>
 80070a8:	2300      	movs	r3, #0
 80070aa:	f887 303f 	strb.w	r3, [r7, #63]	; 0x3f
 80070ae:	f897 303f 	ldrb.w	r3, [r7, #63]	; 0x3f
 80070b2:	bf00      	nop
 80070b4:	4618      	mov	r0, r3
 80070b6:	3754      	adds	r7, #84	; 0x54
 80070b8:	46bd      	mov	sp, r7
 80070ba:	e8bd 4ff0 	ldmia.w	sp!, {r4, r5, r6, r7, r8, r9, sl, fp, lr}
 80070be:	b002      	add	sp, #8
 80070c0:	4770      	bx	lr
 80070c2:	bf00      	nop
 80070c4:	20000057 	.word	0x20000057
 80070c8:	0800d7c4 	.word	0x0800d7c4
 80070cc:	0800d8ac 	.word	0x0800d8ac
 80070d0:	0800d808 	.word	0x0800d808
 80070d4:	7ffffffe 	.word	0x7ffffffe

080070d8 <stm32__spi___elabb>:
 80070d8:	b480      	push	{r7}
 80070da:	af00      	add	r7, sp, #0
 80070dc:	4b28      	ldr	r3, [pc, #160]	; (8007180 <stm32__spi___elabb+0xa8>)
 80070de:	2201      	movs	r2, #1
 80070e0:	701a      	strb	r2, [r3, #0]
 80070e2:	4b28      	ldr	r3, [pc, #160]	; (8007184 <stm32__spi___elabb+0xac>)
 80070e4:	2201      	movs	r2, #1
 80070e6:	701a      	strb	r2, [r3, #0]
 80070e8:	4b27      	ldr	r3, [pc, #156]	; (8007188 <stm32__spi___elabb+0xb0>)
 80070ea:	2201      	movs	r2, #1
 80070ec:	701a      	strb	r2, [r3, #0]
 80070ee:	4b27      	ldr	r3, [pc, #156]	; (800718c <stm32__spi___elabb+0xb4>)
 80070f0:	2201      	movs	r2, #1
 80070f2:	701a      	strb	r2, [r3, #0]
 80070f4:	4b26      	ldr	r3, [pc, #152]	; (8007190 <stm32__spi___elabb+0xb8>)
 80070f6:	2201      	movs	r2, #1
 80070f8:	701a      	strb	r2, [r3, #0]
 80070fa:	4b26      	ldr	r3, [pc, #152]	; (8007194 <stm32__spi___elabb+0xbc>)
 80070fc:	2201      	movs	r2, #1
 80070fe:	701a      	strb	r2, [r3, #0]
 8007100:	4b25      	ldr	r3, [pc, #148]	; (8007198 <stm32__spi___elabb+0xc0>)
 8007102:	2201      	movs	r2, #1
 8007104:	701a      	strb	r2, [r3, #0]
 8007106:	4b25      	ldr	r3, [pc, #148]	; (800719c <stm32__spi___elabb+0xc4>)
 8007108:	2201      	movs	r2, #1
 800710a:	701a      	strb	r2, [r3, #0]
 800710c:	4b24      	ldr	r3, [pc, #144]	; (80071a0 <stm32__spi___elabb+0xc8>)
 800710e:	2201      	movs	r2, #1
 8007110:	701a      	strb	r2, [r3, #0]
 8007112:	4b24      	ldr	r3, [pc, #144]	; (80071a4 <stm32__spi___elabb+0xcc>)
 8007114:	2201      	movs	r2, #1
 8007116:	701a      	strb	r2, [r3, #0]
 8007118:	4b23      	ldr	r3, [pc, #140]	; (80071a8 <stm32__spi___elabb+0xd0>)
 800711a:	2201      	movs	r2, #1
 800711c:	701a      	strb	r2, [r3, #0]
 800711e:	4b23      	ldr	r3, [pc, #140]	; (80071ac <stm32__spi___elabb+0xd4>)
 8007120:	2201      	movs	r2, #1
 8007122:	701a      	strb	r2, [r3, #0]
 8007124:	4b22      	ldr	r3, [pc, #136]	; (80071b0 <stm32__spi___elabb+0xd8>)
 8007126:	2201      	movs	r2, #1
 8007128:	701a      	strb	r2, [r3, #0]
 800712a:	4b22      	ldr	r3, [pc, #136]	; (80071b4 <stm32__spi___elabb+0xdc>)
 800712c:	2201      	movs	r2, #1
 800712e:	701a      	strb	r2, [r3, #0]
 8007130:	4b21      	ldr	r3, [pc, #132]	; (80071b8 <stm32__spi___elabb+0xe0>)
 8007132:	2201      	movs	r2, #1
 8007134:	701a      	strb	r2, [r3, #0]
 8007136:	4b21      	ldr	r3, [pc, #132]	; (80071bc <stm32__spi___elabb+0xe4>)
 8007138:	2201      	movs	r2, #1
 800713a:	701a      	strb	r2, [r3, #0]
 800713c:	4b20      	ldr	r3, [pc, #128]	; (80071c0 <stm32__spi___elabb+0xe8>)
 800713e:	2201      	movs	r2, #1
 8007140:	701a      	strb	r2, [r3, #0]
 8007142:	4b20      	ldr	r3, [pc, #128]	; (80071c4 <stm32__spi___elabb+0xec>)
 8007144:	2201      	movs	r2, #1
 8007146:	701a      	strb	r2, [r3, #0]
 8007148:	4b1f      	ldr	r3, [pc, #124]	; (80071c8 <stm32__spi___elabb+0xf0>)
 800714a:	2201      	movs	r2, #1
 800714c:	701a      	strb	r2, [r3, #0]
 800714e:	4b1f      	ldr	r3, [pc, #124]	; (80071cc <stm32__spi___elabb+0xf4>)
 8007150:	2201      	movs	r2, #1
 8007152:	701a      	strb	r2, [r3, #0]
 8007154:	4b1e      	ldr	r3, [pc, #120]	; (80071d0 <stm32__spi___elabb+0xf8>)
 8007156:	2201      	movs	r2, #1
 8007158:	701a      	strb	r2, [r3, #0]
 800715a:	4b1e      	ldr	r3, [pc, #120]	; (80071d4 <stm32__spi___elabb+0xfc>)
 800715c:	2201      	movs	r2, #1
 800715e:	701a      	strb	r2, [r3, #0]
 8007160:	4b1d      	ldr	r3, [pc, #116]	; (80071d8 <stm32__spi___elabb+0x100>)
 8007162:	2201      	movs	r2, #1
 8007164:	701a      	strb	r2, [r3, #0]
 8007166:	4b1d      	ldr	r3, [pc, #116]	; (80071dc <stm32__spi___elabb+0x104>)
 8007168:	2201      	movs	r2, #1
 800716a:	701a      	strb	r2, [r3, #0]
 800716c:	4b1c      	ldr	r3, [pc, #112]	; (80071e0 <stm32__spi___elabb+0x108>)
 800716e:	2201      	movs	r2, #1
 8007170:	701a      	strb	r2, [r3, #0]
 8007172:	4b1c      	ldr	r3, [pc, #112]	; (80071e4 <stm32__spi___elabb+0x10c>)
 8007174:	2201      	movs	r2, #1
 8007176:	701a      	strb	r2, [r3, #0]
 8007178:	46bd      	mov	sp, r7
 800717a:	f85d 7b04 	ldr.w	r7, [sp], #4
 800717e:	4770      	bx	lr
 8007180:	20000048 	.word	0x20000048
 8007184:	20000049 	.word	0x20000049
 8007188:	2000004a 	.word	0x2000004a
 800718c:	2000004b 	.word	0x2000004b
 8007190:	2000004c 	.word	0x2000004c
 8007194:	2000004d 	.word	0x2000004d
 8007198:	20000050 	.word	0x20000050
 800719c:	20000051 	.word	0x20000051
 80071a0:	2000004e 	.word	0x2000004e
 80071a4:	2000004f 	.word	0x2000004f
 80071a8:	20000052 	.word	0x20000052
 80071ac:	20000053 	.word	0x20000053
 80071b0:	20000054 	.word	0x20000054
 80071b4:	20000055 	.word	0x20000055
 80071b8:	20000056 	.word	0x20000056
 80071bc:	20000058 	.word	0x20000058
 80071c0:	20000059 	.word	0x20000059
 80071c4:	2000005a 	.word	0x2000005a
 80071c8:	2000005b 	.word	0x2000005b
 80071cc:	2000005c 	.word	0x2000005c
 80071d0:	2000005d 	.word	0x2000005d
 80071d4:	2000005e 	.word	0x2000005e
 80071d8:	2000005f 	.word	0x2000005f
 80071dc:	20000060 	.word	0x20000060
 80071e0:	20000061 	.word	0x20000061
 80071e4:	20000057 	.word	0x20000057

080071e8 <stm32__spi___elabs>:
 80071e8:	b580      	push	{r7, lr}
 80071ea:	af00      	add	r7, sp, #0
 80071ec:	4803      	ldr	r0, [pc, #12]	; (80071fc <stm32__spi___elabs+0x14>)
 80071ee:	f002 f84b 	bl	8009288 <ada__tags__check_tsd>
 80071f2:	4b03      	ldr	r3, [pc, #12]	; (8007200 <stm32__spi___elabs+0x18>)
 80071f4:	4618      	mov	r0, r3
 80071f6:	f002 f88f 	bl	8009318 <ada__tags__register_tag>
 80071fa:	bd80      	pop	{r7, pc}
 80071fc:	0800d90c 	.word	0x0800d90c
 8007200:	0800d97c 	.word	0x0800d97c

08007204 <hal__gpio__Tgpio_pointCFD>:
 8007204:	b580      	push	{r7, lr}
 8007206:	b086      	sub	sp, #24
 8007208:	af00      	add	r7, sp, #0
 800720a:	6078      	str	r0, [r7, #4]
 800720c:	687b      	ldr	r3, [r7, #4]
 800720e:	681b      	ldr	r3, [r3, #0]
 8007210:	617b      	str	r3, [r7, #20]
 8007212:	697b      	ldr	r3, [r7, #20]
 8007214:	613b      	str	r3, [r7, #16]
 8007216:	693a      	ldr	r2, [r7, #16]
 8007218:	230c      	movs	r3, #12
 800721a:	60fb      	str	r3, [r7, #12]
 800721c:	68fb      	ldr	r3, [r7, #12]
 800721e:	1ad3      	subs	r3, r2, r3
 8007220:	681b      	ldr	r3, [r3, #0]
 8007222:	6a1b      	ldr	r3, [r3, #32]
 8007224:	687a      	ldr	r2, [r7, #4]
 8007226:	2101      	movs	r1, #1
 8007228:	4610      	mov	r0, r2
 800722a:	4798      	blx	r3
 800722c:	3718      	adds	r7, #24
 800722e:	46bd      	mov	sp, r7
 8007230:	bd80      	pop	{r7, pc}
 8007232:	bf00      	nop

08007234 <hal__gpio___elabs>:
 8007234:	b580      	push	{r7, lr}
 8007236:	af00      	add	r7, sp, #0
 8007238:	2101      	movs	r1, #1
 800723a:	480c      	ldr	r0, [pc, #48]	; (800726c <hal__gpio___elabs+0x38>)
 800723c:	f002 fe74 	bl	8009f28 <system__finalization_masters__finalization_masterIP>
 8007240:	480a      	ldr	r0, [pc, #40]	; (800726c <hal__gpio___elabs+0x38>)
 8007242:	f002 fd19 	bl	8009c78 <system__finalization_masters__initialize__2>
 8007246:	4b0a      	ldr	r3, [pc, #40]	; (8007270 <hal__gpio___elabs+0x3c>)
 8007248:	2201      	movs	r2, #1
 800724a:	601a      	str	r2, [r3, #0]
 800724c:	4909      	ldr	r1, [pc, #36]	; (8007274 <hal__gpio___elabs+0x40>)
 800724e:	4807      	ldr	r0, [pc, #28]	; (800726c <hal__gpio___elabs+0x38>)
 8007250:	f002 fd1c 	bl	8009c8c <system__finalization_masters__set_base_pool>
 8007254:	4908      	ldr	r1, [pc, #32]	; (8007278 <hal__gpio___elabs+0x44>)
 8007256:	4805      	ldr	r0, [pc, #20]	; (800726c <hal__gpio___elabs+0x38>)
 8007258:	f002 fd1a 	bl	8009c90 <system__finalization_masters__set_finalize_address>
 800725c:	4807      	ldr	r0, [pc, #28]	; (800727c <hal__gpio___elabs+0x48>)
 800725e:	f002 f813 	bl	8009288 <ada__tags__check_tsd>
 8007262:	4b07      	ldr	r3, [pc, #28]	; (8007280 <hal__gpio___elabs+0x4c>)
 8007264:	4618      	mov	r0, r3
 8007266:	f002 f857 	bl	8009318 <ada__tags__register_tag>
 800726a:	bd80      	pop	{r7, pc}
 800726c:	20000b68 	.word	0x20000b68
 8007270:	2000006c 	.word	0x2000006c
 8007274:	20001e2c 	.word	0x20001e2c
 8007278:	08007205 	.word	0x08007205
 800727c:	0800da30 	.word	0x0800da30
 8007280:	0800da60 	.word	0x0800da60

08007284 <hal__i2c__Ti2c_portCFD>:
 8007284:	b580      	push	{r7, lr}
 8007286:	b086      	sub	sp, #24
 8007288:	af00      	add	r7, sp, #0
 800728a:	6078      	str	r0, [r7, #4]
 800728c:	687b      	ldr	r3, [r7, #4]
 800728e:	681b      	ldr	r3, [r3, #0]
 8007290:	617b      	str	r3, [r7, #20]
 8007292:	697b      	ldr	r3, [r7, #20]
 8007294:	613b      	str	r3, [r7, #16]
 8007296:	693a      	ldr	r2, [r7, #16]
 8007298:	230c      	movs	r3, #12
 800729a:	60fb      	str	r3, [r7, #12]
 800729c:	68fb      	ldr	r3, [r7, #12]
 800729e:	1ad3      	subs	r3, r2, r3
 80072a0:	681b      	ldr	r3, [r3, #0]
 80072a2:	6a1b      	ldr	r3, [r3, #32]
 80072a4:	687a      	ldr	r2, [r7, #4]
 80072a6:	2101      	movs	r1, #1
 80072a8:	4610      	mov	r0, r2
 80072aa:	4798      	blx	r3
 80072ac:	3718      	adds	r7, #24
 80072ae:	46bd      	mov	sp, r7
 80072b0:	bd80      	pop	{r7, pc}
 80072b2:	bf00      	nop

080072b4 <hal__i2c___elabs>:
 80072b4:	b580      	push	{r7, lr}
 80072b6:	af00      	add	r7, sp, #0
 80072b8:	2101      	movs	r1, #1
 80072ba:	480c      	ldr	r0, [pc, #48]	; (80072ec <hal__i2c___elabs+0x38>)
 80072bc:	f002 fe34 	bl	8009f28 <system__finalization_masters__finalization_masterIP>
 80072c0:	480a      	ldr	r0, [pc, #40]	; (80072ec <hal__i2c___elabs+0x38>)
 80072c2:	f002 fcd9 	bl	8009c78 <system__finalization_masters__initialize__2>
 80072c6:	4b0a      	ldr	r3, [pc, #40]	; (80072f0 <hal__i2c___elabs+0x3c>)
 80072c8:	2201      	movs	r2, #1
 80072ca:	601a      	str	r2, [r3, #0]
 80072cc:	4909      	ldr	r1, [pc, #36]	; (80072f4 <hal__i2c___elabs+0x40>)
 80072ce:	4807      	ldr	r0, [pc, #28]	; (80072ec <hal__i2c___elabs+0x38>)
 80072d0:	f002 fcdc 	bl	8009c8c <system__finalization_masters__set_base_pool>
 80072d4:	4908      	ldr	r1, [pc, #32]	; (80072f8 <hal__i2c___elabs+0x44>)
 80072d6:	4805      	ldr	r0, [pc, #20]	; (80072ec <hal__i2c___elabs+0x38>)
 80072d8:	f002 fcda 	bl	8009c90 <system__finalization_masters__set_finalize_address>
 80072dc:	4807      	ldr	r0, [pc, #28]	; (80072fc <hal__i2c___elabs+0x48>)
 80072de:	f001 ffd3 	bl	8009288 <ada__tags__check_tsd>
 80072e2:	4b07      	ldr	r3, [pc, #28]	; (8007300 <hal__i2c___elabs+0x4c>)
 80072e4:	4618      	mov	r0, r3
 80072e6:	f002 f817 	bl	8009318 <ada__tags__register_tag>
 80072ea:	bd80      	pop	{r7, pc}
 80072ec:	20000b84 	.word	0x20000b84
 80072f0:	20000078 	.word	0x20000078
 80072f4:	20001e2c 	.word	0x20001e2c
 80072f8:	08007285 	.word	0x08007285
 80072fc:	0800da78 	.word	0x0800da78
 8007300:	0800daa8 	.word	0x0800daa8

08007304 <hal__spi__Tspi_portCFD>:
 8007304:	b580      	push	{r7, lr}
 8007306:	b086      	sub	sp, #24
 8007308:	af00      	add	r7, sp, #0
 800730a:	6078      	str	r0, [r7, #4]
 800730c:	687b      	ldr	r3, [r7, #4]
 800730e:	681b      	ldr	r3, [r3, #0]
 8007310:	617b      	str	r3, [r7, #20]
 8007312:	697b      	ldr	r3, [r7, #20]
 8007314:	613b      	str	r3, [r7, #16]
 8007316:	693a      	ldr	r2, [r7, #16]
 8007318:	230c      	movs	r3, #12
 800731a:	60fb      	str	r3, [r7, #12]
 800731c:	68fb      	ldr	r3, [r7, #12]
 800731e:	1ad3      	subs	r3, r2, r3
 8007320:	681b      	ldr	r3, [r3, #0]
 8007322:	6a1b      	ldr	r3, [r3, #32]
 8007324:	687a      	ldr	r2, [r7, #4]
 8007326:	2101      	movs	r1, #1
 8007328:	4610      	mov	r0, r2
 800732a:	4798      	blx	r3
 800732c:	3718      	adds	r7, #24
 800732e:	46bd      	mov	sp, r7
 8007330:	bd80      	pop	{r7, pc}
 8007332:	bf00      	nop

08007334 <hal__spi___elabs>:
 8007334:	b580      	push	{r7, lr}
 8007336:	af00      	add	r7, sp, #0
 8007338:	2101      	movs	r1, #1
 800733a:	480c      	ldr	r0, [pc, #48]	; (800736c <hal__spi___elabs+0x38>)
 800733c:	f002 fdf4 	bl	8009f28 <system__finalization_masters__finalization_masterIP>
 8007340:	480a      	ldr	r0, [pc, #40]	; (800736c <hal__spi___elabs+0x38>)
 8007342:	f002 fc99 	bl	8009c78 <system__finalization_masters__initialize__2>
 8007346:	4b0a      	ldr	r3, [pc, #40]	; (8007370 <hal__spi___elabs+0x3c>)
 8007348:	2201      	movs	r2, #1
 800734a:	601a      	str	r2, [r3, #0]
 800734c:	4909      	ldr	r1, [pc, #36]	; (8007374 <hal__spi___elabs+0x40>)
 800734e:	4807      	ldr	r0, [pc, #28]	; (800736c <hal__spi___elabs+0x38>)
 8007350:	f002 fc9c 	bl	8009c8c <system__finalization_masters__set_base_pool>
 8007354:	4908      	ldr	r1, [pc, #32]	; (8007378 <hal__spi___elabs+0x44>)
 8007356:	4805      	ldr	r0, [pc, #20]	; (800736c <hal__spi___elabs+0x38>)
 8007358:	f002 fc9a 	bl	8009c90 <system__finalization_masters__set_finalize_address>
 800735c:	4807      	ldr	r0, [pc, #28]	; (800737c <hal__spi___elabs+0x48>)
 800735e:	f001 ff93 	bl	8009288 <ada__tags__check_tsd>
 8007362:	4b07      	ldr	r3, [pc, #28]	; (8007380 <hal__spi___elabs+0x4c>)
 8007364:	4618      	mov	r0, r3
 8007366:	f001 ffd7 	bl	8009318 <ada__tags__register_tag>
 800736a:	bd80      	pop	{r7, pc}
 800736c:	20000ba0 	.word	0x20000ba0
 8007370:	20000084 	.word	0x20000084
 8007374:	20001e2c 	.word	0x20001e2c
 8007378:	08007305 	.word	0x08007305
 800737c:	0800dac0 	.word	0x0800dac0
 8007380:	0800daf0 	.word	0x0800daf0

08007384 <ada__real_time__Oadd>:
 8007384:	2a00      	cmp	r2, #0
 8007386:	468c      	mov	ip, r1
 8007388:	f173 0100 	sbcs.w	r1, r3, #0
 800738c:	e92d 4830 	stmdb	sp!, {r4, r5, fp, lr}
 8007390:	4683      	mov	fp, r0
 8007392:	db18      	blt.n	80073c6 <ada__real_time__Oadd+0x42>
 8007394:	ea6f 050c 	mvn.w	r5, ip
 8007398:	43c4      	mvns	r4, r0
 800739a:	429d      	cmp	r5, r3
 800739c:	bf08      	it	eq
 800739e:	4294      	cmpeq	r4, r2
 80073a0:	d20b      	bcs.n	80073ba <ada__real_time__Oadd+0x36>
 80073a2:	f1b3 4f00 	cmp.w	r3, #2147483648	; 0x80000000
 80073a6:	bf08      	it	eq
 80073a8:	2a01      	cmpeq	r2, #1
 80073aa:	d315      	bcc.n	80073d8 <ada__real_time__Oadd+0x54>
 80073ac:	4254      	negs	r4, r2
 80073ae:	eb63 0543 	sbc.w	r5, r3, r3, lsl #1
 80073b2:	45ac      	cmp	ip, r5
 80073b4:	bf08      	it	eq
 80073b6:	45a3      	cmpeq	fp, r4
 80073b8:	d30e      	bcc.n	80073d8 <ada__real_time__Oadd+0x54>
 80073ba:	eb1b 0002 	adds.w	r0, fp, r2
 80073be:	eb4c 0103 	adc.w	r1, ip, r3
 80073c2:	e8bd 8830 	ldmia.w	sp!, {r4, r5, fp, pc}
 80073c6:	f1b3 4f00 	cmp.w	r3, #2147483648	; 0x80000000
 80073ca:	bf08      	it	eq
 80073cc:	2a00      	cmpeq	r2, #0
 80073ce:	d1e8      	bne.n	80073a2 <ada__real_time__Oadd+0x1e>
 80073d0:	2800      	cmp	r0, #0
 80073d2:	f17c 0300 	sbcs.w	r3, ip, #0
 80073d6:	db03      	blt.n	80073e0 <ada__real_time__Oadd+0x5c>
 80073d8:	21d4      	movs	r1, #212	; 0xd4
 80073da:	4803      	ldr	r0, [pc, #12]	; (80073e8 <ada__real_time__Oadd+0x64>)
 80073dc:	f001 fe22 	bl	8009024 <__gnat_rcheck_CE_Explicit_Raise>
 80073e0:	3000      	adds	r0, #0
 80073e2:	f14c 4100 	adc.w	r1, ip, #2147483648	; 0x80000000
 80073e6:	e7ec      	b.n	80073c2 <ada__real_time__Oadd+0x3e>
 80073e8:	0800daf4 	.word	0x0800daf4

080073ec <ada__real_time__Osubtract__2>:
 80073ec:	4299      	cmp	r1, r3
 80073ee:	bf08      	it	eq
 80073f0:	4290      	cmpeq	r0, r2
 80073f2:	e92d 4800 	stmdb	sp!, {fp, lr}
 80073f6:	d308      	bcc.n	800740a <ada__real_time__Osubtract__2+0x1e>
 80073f8:	1a80      	subs	r0, r0, r2
 80073fa:	eb61 0103 	sbc.w	r1, r1, r3
 80073fe:	2800      	cmp	r0, #0
 8007400:	f171 0300 	sbcs.w	r3, r1, #0
 8007404:	db0e      	blt.n	8007424 <ada__real_time__Osubtract__2+0x38>
 8007406:	e8bd 8800 	ldmia.w	sp!, {fp, pc}
 800740a:	1a12      	subs	r2, r2, r0
 800740c:	eb63 0301 	sbc.w	r3, r3, r1
 8007410:	f1b3 4f00 	cmp.w	r3, #2147483648	; 0x80000000
 8007414:	bf08      	it	eq
 8007416:	2a01      	cmpeq	r2, #1
 8007418:	d204      	bcs.n	8007424 <ada__real_time__Osubtract__2+0x38>
 800741a:	4250      	negs	r0, r2
 800741c:	eb63 0143 	sbc.w	r1, r3, r3, lsl #1
 8007420:	e8bd 8800 	ldmia.w	sp!, {fp, pc}
 8007424:	f240 1111 	movw	r1, #273	; 0x111
 8007428:	4801      	ldr	r0, [pc, #4]	; (8007430 <ada__real_time__Osubtract__2+0x44>)
 800742a:	f001 fdfb 	bl	8009024 <__gnat_rcheck_CE_Explicit_Raise>
 800742e:	bf00      	nop
 8007430:	0800daf4 	.word	0x0800daf4

08007434 <ada__real_time__clock>:
 8007434:	e92d 43f8 	stmdb	sp!, {r3, r4, r5, r6, r7, r8, r9, lr}
 8007438:	4e15      	ldr	r6, [pc, #84]	; (8007490 <ada__real_time__clock+0x5c>)
 800743a:	2400      	movs	r4, #0
 800743c:	f106 0804 	add.w	r8, r6, #4
 8007440:	6835      	ldr	r5, [r6, #0]
 8007442:	f8d8 7000 	ldr.w	r7, [r8]
 8007446:	f000 f879 	bl	800753c <system__bb__board_support__time__read_clock>
 800744a:	6833      	ldr	r3, [r6, #0]
 800744c:	429d      	cmp	r5, r3
 800744e:	eba5 0209 	sub.w	r2, r5, r9
 8007452:	f104 0401 	add.w	r4, r4, #1
 8007456:	d00f      	beq.n	8007478 <ada__real_time__clock+0x44>
 8007458:	2c01      	cmp	r4, #1
 800745a:	d00b      	beq.n	8007474 <ada__real_time__clock+0x40>
 800745c:	2a01      	cmp	r2, #1
 800745e:	d803      	bhi.n	8007468 <ada__real_time__clock+0x34>
 8007460:	2c03      	cmp	r4, #3
 8007462:	d001      	beq.n	8007468 <ada__real_time__clock+0x34>
 8007464:	2402      	movs	r4, #2
 8007466:	e7eb      	b.n	8007440 <ada__real_time__clock+0xc>
 8007468:	2600      	movs	r6, #0
 800746a:	462f      	mov	r7, r5
 800746c:	4630      	mov	r0, r6
 800746e:	4639      	mov	r1, r7
 8007470:	e8bd 83f8 	ldmia.w	sp!, {r3, r4, r5, r6, r7, r8, r9, pc}
 8007474:	46a9      	mov	r9, r5
 8007476:	e7e3      	b.n	8007440 <ada__real_time__clock+0xc>
 8007478:	2200      	movs	r2, #0
 800747a:	4287      	cmp	r7, r0
 800747c:	bf94      	ite	ls
 800747e:	462b      	movls	r3, r5
 8007480:	1c6b      	addhi	r3, r5, #1
 8007482:	1816      	adds	r6, r2, r0
 8007484:	f143 0700 	adc.w	r7, r3, #0
 8007488:	4630      	mov	r0, r6
 800748a:	4639      	mov	r1, r7
 800748c:	e8bd 83f8 	ldmia.w	sp!, {r3, r4, r5, r6, r7, r8, r9, pc}
 8007490:	200000c4 	.word	0x200000c4

08007494 <ada__real_time__milliseconds>:
 8007494:	4b0f      	ldr	r3, [pc, #60]	; (80074d4 <ada__real_time__milliseconds+0x40>)
 8007496:	e92d 4800 	stmdb	sp!, {fp, lr}
 800749a:	fb80 bc03 	smull	fp, ip, r0, r3
 800749e:	f1bb 0f00 	cmp.w	fp, #0
 80074a2:	f17c 0300 	sbcs.w	r3, ip, #0
 80074a6:	db0a      	blt.n	80074be <ada__real_time__milliseconds+0x2a>
 80074a8:	f51b 70fa 	adds.w	r0, fp, #500	; 0x1f4
 80074ac:	f14c 0100 	adc.w	r1, ip, #0
 80074b0:	f44f 727a 	mov.w	r2, #1000	; 0x3e8
 80074b4:	2300      	movs	r3, #0
 80074b6:	f003 fd4b 	bl	800af50 <__aeabi_ldivmod>
 80074ba:	e8bd 8800 	ldmia.w	sp!, {fp, pc}
 80074be:	f5bb 70fa 	subs.w	r0, fp, #500	; 0x1f4
 80074c2:	f14c 31ff 	adc.w	r1, ip, #4294967295	; 0xffffffff
 80074c6:	f44f 727a 	mov.w	r2, #1000	; 0x3e8
 80074ca:	2300      	movs	r3, #0
 80074cc:	f003 fd40 	bl	800af50 <__aeabi_ldivmod>
 80074d0:	e8bd 8800 	ldmia.w	sp!, {fp, pc}
 80074d4:	09896800 	.word	0x09896800

080074d8 <ada__real_time___elabb>:
 80074d8:	f000 bd94 	b.w	8008004 <system__tasking__initialize>

080074dc <ada__real_time__delays__delay_until>:
 80074dc:	4b09      	ldr	r3, [pc, #36]	; (8007504 <ada__real_time__delays__delay_until+0x28>)
 80074de:	b510      	push	{r4, lr}
 80074e0:	681a      	ldr	r2, [r3, #0]
 80074e2:	6a92      	ldr	r2, [r2, #40]	; 0x28
 80074e4:	6912      	ldr	r2, [r2, #16]
 80074e6:	2a00      	cmp	r2, #0
 80074e8:	dc08      	bgt.n	80074fc <ada__real_time__delays__delay_until+0x20>
 80074ea:	681b      	ldr	r3, [r3, #0]
 80074ec:	6a9c      	ldr	r4, [r3, #40]	; 0x28
 80074ee:	2307      	movs	r3, #7
 80074f0:	7223      	strb	r3, [r4, #8]
 80074f2:	f000 fc9b 	bl	8007e2c <system__bb__time__delay_until>
 80074f6:	2301      	movs	r3, #1
 80074f8:	7223      	strb	r3, [r4, #8]
 80074fa:	bd10      	pop	{r4, pc}
 80074fc:	2133      	movs	r1, #51	; 0x33
 80074fe:	4802      	ldr	r0, [pc, #8]	; (8007508 <ada__real_time__delays__delay_until+0x2c>)
 8007500:	f001 fdbe 	bl	8009080 <__gnat_rcheck_PE_Explicit_Raise>
 8007504:	20000094 	.word	0x20000094
 8007508:	0800db04 	.word	0x0800db04

0800750c <system__bb__board_support__timer_interrupt_handler>:
 800750c:	f04f 30ff 	mov.w	r0, #4294967295	; 0xffffffff
 8007510:	f000 b97e 	b.w	8007810 <system__bb__interrupts__interrupt_wrapper>

08007514 <system__bb__board_support__interrupt_handler>:
 8007514:	f3ef 8005 	mrs	r0, IPSR
 8007518:	b2c0      	uxtb	r0, r0
 800751a:	3810      	subs	r0, #16
 800751c:	f000 b978 	b.w	8007810 <system__bb__interrupts__interrupt_wrapper>

08007520 <system__bb__board_support__enable_interrupt_request.part.0>:
 8007520:	4b04      	ldr	r3, [pc, #16]	; (8007534 <system__bb__board_support__enable_interrupt_request.part.0+0x14>)
 8007522:	4a05      	ldr	r2, [pc, #20]	; (8007538 <system__bb__board_support__enable_interrupt_request.part.0+0x18>)
 8007524:	f04f 7100 	mov.w	r1, #33554432	; 0x2000000
 8007528:	6019      	str	r1, [r3, #0]
 800752a:	6813      	ldr	r3, [r2, #0]
 800752c:	f043 0302 	orr.w	r3, r3, #2
 8007530:	6013      	str	r3, [r2, #0]
 8007532:	4770      	bx	lr
 8007534:	e000ed04 	.word	0xe000ed04
 8007538:	e000e010 	.word	0xe000e010

0800753c <system__bb__board_support__time__read_clock>:
 800753c:	f3ef 8210 	mrs	r2, PRIMASK
 8007540:	2301      	movs	r3, #1
 8007542:	f383 8810 	msr	PRIMASK, r3
 8007546:	4b0c      	ldr	r3, [pc, #48]	; (8007578 <system__bb__board_support__time__read_clock+0x3c>)
 8007548:	6899      	ldr	r1, [r3, #8]
 800754a:	681b      	ldr	r3, [r3, #0]
 800754c:	03db      	lsls	r3, r3, #15
 800754e:	d406      	bmi.n	800755e <system__bb__board_support__time__read_clock+0x22>
 8007550:	4b0a      	ldr	r3, [pc, #40]	; (800757c <system__bb__board_support__time__read_clock+0x40>)
 8007552:	6818      	ldr	r0, [r3, #0]
 8007554:	1a40      	subs	r0, r0, r1
 8007556:	f382 8810 	msr	PRIMASK, r2
 800755a:	2100      	movs	r1, #0
 800755c:	4770      	bx	lr
 800755e:	4907      	ldr	r1, [pc, #28]	; (800757c <system__bb__board_support__time__read_clock+0x40>)
 8007560:	6808      	ldr	r0, [r1, #0]
 8007562:	680b      	ldr	r3, [r1, #0]
 8007564:	f503 331c 	add.w	r3, r3, #159744	; 0x27000
 8007568:	f503 7380 	add.w	r3, r3, #256	; 0x100
 800756c:	600b      	str	r3, [r1, #0]
 800756e:	f382 8810 	msr	PRIMASK, r2
 8007572:	2100      	movs	r1, #0
 8007574:	4770      	bx	lr
 8007576:	bf00      	nop
 8007578:	e000e010 	.word	0xe000e010
 800757c:	20000bc0 	.word	0x20000bc0

08007580 <system__bb__board_support__time__set_alarm>:
 8007580:	b410      	push	{r4}
 8007582:	f3ef 8110 	mrs	r1, PRIMASK
 8007586:	2301      	movs	r3, #1
 8007588:	f383 8810 	msr	PRIMASK, r3
 800758c:	4a11      	ldr	r2, [pc, #68]	; (80075d4 <system__bb__board_support__time__set_alarm+0x54>)
 800758e:	6894      	ldr	r4, [r2, #8]
 8007590:	6812      	ldr	r2, [r2, #0]
 8007592:	03d3      	lsls	r3, r2, #15
 8007594:	d519      	bpl.n	80075ca <system__bb__board_support__time__set_alarm+0x4a>
 8007596:	4c10      	ldr	r4, [pc, #64]	; (80075d8 <system__bb__board_support__time__set_alarm+0x58>)
 8007598:	6823      	ldr	r3, [r4, #0]
 800759a:	6822      	ldr	r2, [r4, #0]
 800759c:	f502 321c 	add.w	r2, r2, #159744	; 0x27000
 80075a0:	f502 7280 	add.w	r2, r2, #256	; 0x100
 80075a4:	6022      	str	r2, [r4, #0]
 80075a6:	f381 8810 	msr	PRIMASK, r1
 80075aa:	f06f 4100 	mvn.w	r1, #2147483648	; 0x80000000
 80075ae:	4a0b      	ldr	r2, [pc, #44]	; (80075dc <system__bb__board_support__time__set_alarm+0x5c>)
 80075b0:	4288      	cmp	r0, r1
 80075b2:	bf94      	ite	ls
 80075b4:	181b      	addls	r3, r3, r0
 80075b6:	185b      	addhi	r3, r3, r1
 80075b8:	6013      	str	r3, [r2, #0]
 80075ba:	b918      	cbnz	r0, 80075c4 <system__bb__board_support__time__set_alarm+0x44>
 80075bc:	4b08      	ldr	r3, [pc, #32]	; (80075e0 <system__bb__board_support__time__set_alarm+0x60>)
 80075be:	f04f 6280 	mov.w	r2, #67108864	; 0x4000000
 80075c2:	601a      	str	r2, [r3, #0]
 80075c4:	f85d 4b04 	ldr.w	r4, [sp], #4
 80075c8:	4770      	bx	lr
 80075ca:	4b03      	ldr	r3, [pc, #12]	; (80075d8 <system__bb__board_support__time__set_alarm+0x58>)
 80075cc:	681b      	ldr	r3, [r3, #0]
 80075ce:	1b1b      	subs	r3, r3, r4
 80075d0:	e7e9      	b.n	80075a6 <system__bb__board_support__time__set_alarm+0x26>
 80075d2:	bf00      	nop
 80075d4:	e000e010 	.word	0xe000e010
 80075d8:	20000bc0 	.word	0x20000bc0
 80075dc:	20000bbc 	.word	0x20000bbc
 80075e0:	e000ed04 	.word	0xe000ed04

080075e4 <system__bb__board_support__time__install_alarm_handler>:
 80075e4:	4b01      	ldr	r3, [pc, #4]	; (80075ec <system__bb__board_support__time__install_alarm_handler+0x8>)
 80075e6:	6018      	str	r0, [r3, #0]
 80075e8:	f7ff bf9a 	b.w	8007520 <system__bb__board_support__enable_interrupt_request.part.0>
 80075ec:	20000c0c 	.word	0x20000c0c

080075f0 <system__bb__board_support__initialize_board>:
 80075f0:	b538      	push	{r3, r4, r5, lr}
 80075f2:	b672      	cpsid	i
 80075f4:	4a1d      	ldr	r2, [pc, #116]	; (800766c <system__bb__board_support__initialize_board+0x7c>)
 80075f6:	491e      	ldr	r1, [pc, #120]	; (8007670 <system__bb__board_support__initialize_board+0x80>)
 80075f8:	4d1e      	ldr	r5, [pc, #120]	; (8007674 <system__bb__board_support__initialize_board+0x84>)
 80075fa:	4b1f      	ldr	r3, [pc, #124]	; (8007678 <system__bb__board_support__initialize_board+0x88>)
 80075fc:	2004      	movs	r0, #4
 80075fe:	6010      	str	r0, [r2, #0]
 8007600:	2400      	movs	r4, #0
 8007602:	2005      	movs	r0, #5
 8007604:	6055      	str	r5, [r2, #4]
 8007606:	6094      	str	r4, [r2, #8]
 8007608:	6010      	str	r0, [r2, #0]
 800760a:	600b      	str	r3, [r1, #0]
 800760c:	f3ef 8010 	mrs	r0, PRIMASK
 8007610:	2301      	movs	r3, #1
 8007612:	f383 8810 	msr	PRIMASK, r3
 8007616:	6894      	ldr	r4, [r2, #8]
 8007618:	6812      	ldr	r2, [r2, #0]
 800761a:	680b      	ldr	r3, [r1, #0]
 800761c:	03d2      	lsls	r2, r2, #15
 800761e:	d41e      	bmi.n	800765e <system__bb__board_support__initialize_board+0x6e>
 8007620:	1b1b      	subs	r3, r3, r4
 8007622:	f380 8810 	msr	PRIMASK, r0
 8007626:	4a15      	ldr	r2, [pc, #84]	; (800767c <system__bb__board_support__initialize_board+0x8c>)
 8007628:	4915      	ldr	r1, [pc, #84]	; (8007680 <system__bb__board_support__initialize_board+0x90>)
 800762a:	4816      	ldr	r0, [pc, #88]	; (8007684 <system__bb__board_support__initialize_board+0x94>)
 800762c:	f103 4300 	add.w	r3, r3, #2147483648	; 0x80000000
 8007630:	3b01      	subs	r3, #1
 8007632:	f04f 7400 	mov.w	r4, #33554432	; 0x2000000
 8007636:	6013      	str	r3, [r2, #0]
 8007638:	600c      	str	r4, [r1, #0]
 800763a:	2200      	movs	r2, #0
 800763c:	210f      	movs	r1, #15
 800763e:	f000 f8e1 	bl	8007804 <system__bb__cpu_primitives__install_trap_handler>
 8007642:	2200      	movs	r2, #0
 8007644:	2110      	movs	r1, #16
 8007646:	4810      	ldr	r0, [pc, #64]	; (8007688 <system__bb__board_support__initialize_board+0x98>)
 8007648:	f000 f8dc 	bl	8007804 <system__bb__cpu_primitives__install_trap_handler>
 800764c:	2300      	movs	r3, #0
 800764e:	f383 8811 	msr	BASEPRI, r3
 8007652:	b662      	cpsie	i
 8007654:	f3bf 8f4f 	dsb	sy
 8007658:	f3bf 8f6f 	isb	sy
 800765c:	bd38      	pop	{r3, r4, r5, pc}
 800765e:	680a      	ldr	r2, [r1, #0]
 8007660:	f502 321c 	add.w	r2, r2, #159744	; 0x27000
 8007664:	f502 7280 	add.w	r2, r2, #256	; 0x100
 8007668:	600a      	str	r2, [r1, #0]
 800766a:	e7da      	b.n	8007622 <system__bb__board_support__initialize_board+0x32>
 800766c:	e000e010 	.word	0xe000e010
 8007670:	20000bc0 	.word	0x20000bc0
 8007674:	000270ff 	.word	0x000270ff
 8007678:	00027100 	.word	0x00027100
 800767c:	20000bbc 	.word	0x20000bbc
 8007680:	e000ed04 	.word	0xe000ed04
 8007684:	0800750d 	.word	0x0800750d
 8007688:	08007515 	.word	0x08007515

0800768c <system__bb__cpu_primitives__gnat_error_handler>:
 800768c:	3801      	subs	r0, #1
 800768e:	b508      	push	{r3, lr}
 8007690:	2805      	cmp	r0, #5
 8007692:	d81d      	bhi.n	80076d0 <system__bb__cpu_primitives__gnat_error_handler+0x44>
 8007694:	e8df f000 	tbb	[pc, r0]
 8007698:	1c120d08 	.word	0x1c120d08
 800769c:	0317      	.short	0x0317
 800769e:	490f      	ldr	r1, [pc, #60]	; (80076dc <system__bb__cpu_primitives__gnat_error_handler+0x50>)
 80076a0:	4a0f      	ldr	r2, [pc, #60]	; (80076e0 <system__bb__cpu_primitives__gnat_error_handler+0x54>)
 80076a2:	4810      	ldr	r0, [pc, #64]	; (80076e4 <system__bb__cpu_primitives__gnat_error_handler+0x58>)
 80076a4:	f001 fc70 	bl	8008f88 <__gnat_raise_exception>
 80076a8:	490f      	ldr	r1, [pc, #60]	; (80076e8 <system__bb__cpu_primitives__gnat_error_handler+0x5c>)
 80076aa:	4a10      	ldr	r2, [pc, #64]	; (80076ec <system__bb__cpu_primitives__gnat_error_handler+0x60>)
 80076ac:	4810      	ldr	r0, [pc, #64]	; (80076f0 <system__bb__cpu_primitives__gnat_error_handler+0x64>)
 80076ae:	f001 fc6b 	bl	8008f88 <__gnat_raise_exception>
 80076b2:	4910      	ldr	r1, [pc, #64]	; (80076f4 <system__bb__cpu_primitives__gnat_error_handler+0x68>)
 80076b4:	4a10      	ldr	r2, [pc, #64]	; (80076f8 <system__bb__cpu_primitives__gnat_error_handler+0x6c>)
 80076b6:	480e      	ldr	r0, [pc, #56]	; (80076f0 <system__bb__cpu_primitives__gnat_error_handler+0x64>)
 80076b8:	f001 fc66 	bl	8008f88 <__gnat_raise_exception>
 80076bc:	490f      	ldr	r1, [pc, #60]	; (80076fc <system__bb__cpu_primitives__gnat_error_handler+0x70>)
 80076be:	4a10      	ldr	r2, [pc, #64]	; (8007700 <system__bb__cpu_primitives__gnat_error_handler+0x74>)
 80076c0:	480b      	ldr	r0, [pc, #44]	; (80076f0 <system__bb__cpu_primitives__gnat_error_handler+0x64>)
 80076c2:	f001 fc61 	bl	8008f88 <__gnat_raise_exception>
 80076c6:	490f      	ldr	r1, [pc, #60]	; (8007704 <system__bb__cpu_primitives__gnat_error_handler+0x78>)
 80076c8:	4a0f      	ldr	r2, [pc, #60]	; (8007708 <system__bb__cpu_primitives__gnat_error_handler+0x7c>)
 80076ca:	4809      	ldr	r0, [pc, #36]	; (80076f0 <system__bb__cpu_primitives__gnat_error_handler+0x64>)
 80076cc:	f001 fc5c 	bl	8008f88 <__gnat_raise_exception>
 80076d0:	490e      	ldr	r1, [pc, #56]	; (800770c <system__bb__cpu_primitives__gnat_error_handler+0x80>)
 80076d2:	4a0f      	ldr	r2, [pc, #60]	; (8007710 <system__bb__cpu_primitives__gnat_error_handler+0x84>)
 80076d4:	4806      	ldr	r0, [pc, #24]	; (80076f0 <system__bb__cpu_primitives__gnat_error_handler+0x64>)
 80076d6:	f001 fc57 	bl	8008f88 <__gnat_raise_exception>
 80076da:	bf00      	nop
 80076dc:	0800dc38 	.word	0x0800dc38
 80076e0:	0800db34 	.word	0x0800db34
 80076e4:	200001b8 	.word	0x200001b8
 80076e8:	0800db44 	.word	0x0800db44
 80076ec:	0800db14 	.word	0x0800db14
 80076f0:	200001e8 	.word	0x200001e8
 80076f4:	0800db84 	.word	0x0800db84
 80076f8:	0800db1c 	.word	0x0800db1c
 80076fc:	0800dbc8 	.word	0x0800dbc8
 8007700:	0800db24 	.word	0x0800db24
 8007704:	0800dc00 	.word	0x0800dc00
 8007708:	0800db2c 	.word	0x0800db2c
 800770c:	0800dc74 	.word	0x0800dc74
 8007710:	0800db3c 	.word	0x0800db3c

08007714 <__gnat_irq_trap>:
 8007714:	b538      	push	{r3, r4, r5, lr}
 8007716:	4673      	mov	r3, lr
 8007718:	4d14      	ldr	r5, [pc, #80]	; (800776c <__gnat_irq_trap+0x58>)
 800771a:	4a15      	ldr	r2, [pc, #84]	; (8007770 <__gnat_irq_trap+0x5c>)
 800771c:	4c15      	ldr	r4, [pc, #84]	; (8007774 <__gnat_irq_trap+0x60>)
 800771e:	6c12      	ldr	r2, [r2, #64]	; 0x40
 8007720:	f3c3 1380 	ubfx	r3, r3, #6, #1
 8007724:	702b      	strb	r3, [r5, #0]
 8007726:	2010      	movs	r0, #16
 8007728:	4790      	blx	r2
 800772a:	4b13      	ldr	r3, [pc, #76]	; (8007778 <__gnat_irq_trap+0x64>)
 800772c:	6819      	ldr	r1, [r3, #0]
 800772e:	6822      	ldr	r2, [r4, #0]
 8007730:	4291      	cmp	r1, r2
 8007732:	d002      	beq.n	800773a <__gnat_irq_trap+0x26>
 8007734:	782a      	ldrb	r2, [r5, #0]
 8007736:	681b      	ldr	r3, [r3, #0]
 8007738:	b192      	cbz	r2, 8007760 <__gnat_irq_trap+0x4c>
 800773a:	6823      	ldr	r3, [r4, #0]
 800773c:	6b5b      	ldr	r3, [r3, #52]	; 0x34
 800773e:	f1a3 02f1 	sub.w	r2, r3, #241	; 0xf1
 8007742:	2a0e      	cmp	r2, #14
 8007744:	bf9d      	ittte	ls
 8007746:	ebc3 1303 	rsbls	r3, r3, r3, lsl #4
 800774a:	011b      	lslls	r3, r3, #4
 800774c:	b2db      	uxtbls	r3, r3
 800774e:	2300      	movhi	r3, #0
 8007750:	f383 8811 	msr	BASEPRI, r3
 8007754:	b662      	cpsie	i
 8007756:	f3bf 8f4f 	dsb	sy
 800775a:	f3bf 8f6f 	isb	sy
 800775e:	bd38      	pop	{r3, r4, r5, pc}
 8007760:	2b00      	cmp	r3, #0
 8007762:	d0ea      	beq.n	800773a <__gnat_irq_trap+0x26>
 8007764:	f002 f9a0 	bl	8009aa8 <system__bb__cpu_primitives__context_switch_trigger__trigger_context_switch>
 8007768:	e7e7      	b.n	800773a <__gnat_irq_trap+0x26>
 800776a:	bf00      	nop
 800776c:	2000008e 	.word	0x2000008e
 8007770:	20000bc4 	.word	0x20000bc4
 8007774:	20000094 	.word	0x20000094
 8007778:	20000098 	.word	0x20000098

0800777c <__gnat_sv_call_trap>:
 800777c:	b508      	push	{r3, lr}
 800777e:	200b      	movs	r0, #11
 8007780:	f7ff ff84 	bl	800768c <system__bb__cpu_primitives__gnat_error_handler>

08007784 <__gnat_sys_tick_trap>:
 8007784:	b538      	push	{r3, r4, r5, lr}
 8007786:	4673      	mov	r3, lr
 8007788:	4c19      	ldr	r4, [pc, #100]	; (80077f0 <__gnat_sys_tick_trap+0x6c>)
 800778a:	f3c3 1380 	ubfx	r3, r3, #6, #1
 800778e:	7023      	strb	r3, [r4, #0]
 8007790:	f7ff fed4 	bl	800753c <system__bb__board_support__time__read_clock>
 8007794:	4a17      	ldr	r2, [pc, #92]	; (80077f4 <__gnat_sys_tick_trap+0x70>)
 8007796:	6813      	ldr	r3, [r2, #0]
 8007798:	1a1b      	subs	r3, r3, r0
 800779a:	2b00      	cmp	r3, #0
 800779c:	da22      	bge.n	80077e4 <__gnat_sys_tick_trap+0x60>
 800779e:	f100 4000 	add.w	r0, r0, #2147483648	; 0x80000000
 80077a2:	3801      	subs	r0, #1
 80077a4:	4b14      	ldr	r3, [pc, #80]	; (80077f8 <__gnat_sys_tick_trap+0x74>)
 80077a6:	6010      	str	r0, [r2, #0]
 80077a8:	6bdb      	ldr	r3, [r3, #60]	; 0x3c
 80077aa:	4d14      	ldr	r5, [pc, #80]	; (80077fc <__gnat_sys_tick_trap+0x78>)
 80077ac:	200f      	movs	r0, #15
 80077ae:	4798      	blx	r3
 80077b0:	4b13      	ldr	r3, [pc, #76]	; (8007800 <__gnat_sys_tick_trap+0x7c>)
 80077b2:	6819      	ldr	r1, [r3, #0]
 80077b4:	682a      	ldr	r2, [r5, #0]
 80077b6:	4291      	cmp	r1, r2
 80077b8:	d002      	beq.n	80077c0 <__gnat_sys_tick_trap+0x3c>
 80077ba:	7822      	ldrb	r2, [r4, #0]
 80077bc:	681b      	ldr	r3, [r3, #0]
 80077be:	b192      	cbz	r2, 80077e6 <__gnat_sys_tick_trap+0x62>
 80077c0:	682b      	ldr	r3, [r5, #0]
 80077c2:	6b5b      	ldr	r3, [r3, #52]	; 0x34
 80077c4:	f1a3 02f1 	sub.w	r2, r3, #241	; 0xf1
 80077c8:	2a0e      	cmp	r2, #14
 80077ca:	bf9d      	ittte	ls
 80077cc:	ebc3 1303 	rsbls	r3, r3, r3, lsl #4
 80077d0:	011b      	lslls	r3, r3, #4
 80077d2:	b2db      	uxtbls	r3, r3
 80077d4:	2300      	movhi	r3, #0
 80077d6:	f383 8811 	msr	BASEPRI, r3
 80077da:	b662      	cpsie	i
 80077dc:	f3bf 8f4f 	dsb	sy
 80077e0:	f3bf 8f6f 	isb	sy
 80077e4:	bd38      	pop	{r3, r4, r5, pc}
 80077e6:	2b00      	cmp	r3, #0
 80077e8:	d0ea      	beq.n	80077c0 <__gnat_sys_tick_trap+0x3c>
 80077ea:	f002 f95d 	bl	8009aa8 <system__bb__cpu_primitives__context_switch_trigger__trigger_context_switch>
 80077ee:	e7e7      	b.n	80077c0 <__gnat_sys_tick_trap+0x3c>
 80077f0:	2000008e 	.word	0x2000008e
 80077f4:	20000bbc 	.word	0x20000bbc
 80077f8:	20000bc4 	.word	0x20000bc4
 80077fc:	20000094 	.word	0x20000094
 8007800:	20000098 	.word	0x20000098

08007804 <system__bb__cpu_primitives__install_trap_handler>:
 8007804:	4b01      	ldr	r3, [pc, #4]	; (800780c <system__bb__cpu_primitives__install_trap_handler+0x8>)
 8007806:	f843 0021 	str.w	r0, [r3, r1, lsl #2]
 800780a:	4770      	bx	lr
 800780c:	20000bc4 	.word	0x20000bc4

08007810 <system__bb__interrupts__interrupt_wrapper>:
 8007810:	e92d 4ff8 	stmdb	sp!, {r3, r4, r5, r6, r7, r8, r9, sl, fp, lr}
 8007814:	4b36      	ldr	r3, [pc, #216]	; (80078f0 <system__bb__interrupts__interrupt_wrapper+0xe0>)
 8007816:	f8df 90e4 	ldr.w	r9, [pc, #228]	; 80078fc <system__bb__interrupts__interrupt_wrapper+0xec>
 800781a:	681e      	ldr	r6, [r3, #0]
 800781c:	f8d9 2000 	ldr.w	r2, [r9]
 8007820:	6b75      	ldr	r5, [r6, #52]	; 0x34
 8007822:	f8df 80dc 	ldr.w	r8, [pc, #220]	; 8007900 <system__bb__interrupts__interrupt_wrapper+0xf0>
 8007826:	4683      	mov	fp, r0
 8007828:	3001      	adds	r0, #1
 800782a:	d006      	beq.n	800783a <system__bb__interrupts__interrupt_wrapper+0x2a>
 800782c:	4b31      	ldr	r3, [pc, #196]	; (80078f4 <system__bb__interrupts__interrupt_wrapper+0xe4>)
 800782e:	f813 300b 	ldrb.w	r3, [r3, fp]
 8007832:	f003 04ff 	and.w	r4, r3, #255	; 0xff
 8007836:	2b00      	cmp	r3, #0
 8007838:	d143      	bne.n	80078c2 <system__bb__interrupts__interrupt_wrapper+0xb2>
 800783a:	f8d8 a000 	ldr.w	sl, [r8]
 800783e:	f896 7055 	ldrb.w	r7, [r6, #85]	; 0x55
 8007842:	24ff      	movs	r4, #255	; 0xff
 8007844:	b2ff      	uxtb	r7, r7
 8007846:	2a00      	cmp	r2, #0
 8007848:	d046      	beq.n	80078d8 <system__bb__interrupts__interrupt_wrapper+0xc8>
 800784a:	4790      	blx	r2
 800784c:	2301      	movs	r3, #1
 800784e:	4621      	mov	r1, r4
 8007850:	f8c8 b000 	str.w	fp, [r8]
 8007854:	4630      	mov	r0, r6
 8007856:	f886 3055 	strb.w	r3, [r6, #85]	; 0x55
 800785a:	f000 f85b 	bl	8007914 <system__bb__threads__queues__change_priority>
 800785e:	f5b4 7f80 	cmp.w	r4, #256	; 0x100
 8007862:	bf1d      	ittte	ne
 8007864:	ebc4 1404 	rsbne	r4, r4, r4, lsl #4
 8007868:	0124      	lslne	r4, r4, #4
 800786a:	b2e4      	uxtbne	r4, r4
 800786c:	2400      	moveq	r4, #0
 800786e:	f384 8811 	msr	BASEPRI, r4
 8007872:	b662      	cpsie	i
 8007874:	f3bf 8f4f 	dsb	sy
 8007878:	f3bf 8f6f 	isb	sy
 800787c:	4b1e      	ldr	r3, [pc, #120]	; (80078f8 <system__bb__interrupts__interrupt_wrapper+0xe8>)
 800787e:	f10b 0201 	add.w	r2, fp, #1
 8007882:	4658      	mov	r0, fp
 8007884:	f853 3022 	ldr.w	r3, [r3, r2, lsl #2]
 8007888:	4798      	blx	r3
 800788a:	b672      	cpsid	i
 800788c:	f8d9 3000 	ldr.w	r3, [r9]
 8007890:	b103      	cbz	r3, 8007894 <system__bb__interrupts__interrupt_wrapper+0x84>
 8007892:	4798      	blx	r3
 8007894:	4629      	mov	r1, r5
 8007896:	4630      	mov	r0, r6
 8007898:	f000 f83c 	bl	8007914 <system__bb__threads__queues__change_priority>
 800789c:	f1a5 03f1 	sub.w	r3, r5, #241	; 0xf1
 80078a0:	2b0e      	cmp	r3, #14
 80078a2:	bf9c      	itt	ls
 80078a4:	ebc5 1505 	rsbls	r5, r5, r5, lsl #4
 80078a8:	012d      	lslls	r5, r5, #4
 80078aa:	f8c8 a000 	str.w	sl, [r8]
 80078ae:	bf98      	it	ls
 80078b0:	b2ed      	uxtbls	r5, r5
 80078b2:	f886 7055 	strb.w	r7, [r6, #85]	; 0x55
 80078b6:	bf88      	it	hi
 80078b8:	2500      	movhi	r5, #0
 80078ba:	f385 8811 	msr	BASEPRI, r5
 80078be:	e8bd 8ff8 	ldmia.w	sp!, {r3, r4, r5, r6, r7, r8, r9, sl, fp, pc}
 80078c2:	f8d8 a000 	ldr.w	sl, [r8]
 80078c6:	f896 7055 	ldrb.w	r7, [r6, #85]	; 0x55
 80078ca:	0924      	lsrs	r4, r4, #4
 80078cc:	f5c4 7480 	rsb	r4, r4, #256	; 0x100
 80078d0:	b2ff      	uxtb	r7, r7
 80078d2:	2a00      	cmp	r2, #0
 80078d4:	d1b9      	bne.n	800784a <system__bb__interrupts__interrupt_wrapper+0x3a>
 80078d6:	e7b9      	b.n	800784c <system__bb__interrupts__interrupt_wrapper+0x3c>
 80078d8:	2301      	movs	r3, #1
 80078da:	f8c8 b000 	str.w	fp, [r8]
 80078de:	21ff      	movs	r1, #255	; 0xff
 80078e0:	f886 3055 	strb.w	r3, [r6, #85]	; 0x55
 80078e4:	4630      	mov	r0, r6
 80078e6:	f000 f815 	bl	8007914 <system__bb__threads__queues__change_priority>
 80078ea:	2410      	movs	r4, #16
 80078ec:	e7bf      	b.n	800786e <system__bb__interrupts__interrupt_wrapper+0x5e>
 80078ee:	bf00      	nop
 80078f0:	20000094 	.word	0x20000094
 80078f4:	e000e400 	.word	0xe000e400
 80078f8:	20000c0c 	.word	0x20000c0c
 80078fc:	200000c0 	.word	0x200000c0
 8007900:	20000090 	.word	0x20000090

08007904 <system__bb__interrupts__initialize_interrupts>:
 8007904:	4b01      	ldr	r3, [pc, #4]	; (800790c <system__bb__interrupts__initialize_interrupts+0x8>)
 8007906:	4a02      	ldr	r2, [pc, #8]	; (8007910 <system__bb__interrupts__initialize_interrupts+0xc>)
 8007908:	601a      	str	r2, [r3, #0]
 800790a:	4770      	bx	lr
 800790c:	20000c08 	.word	0x20000c08
 8007910:	200027e0 	.word	0x200027e0

08007914 <system__bb__threads__queues__change_priority>:
 8007914:	6b43      	ldr	r3, [r0, #52]	; 0x34
 8007916:	428b      	cmp	r3, r1
 8007918:	d019      	beq.n	800794e <system__bb__threads__queues__change_priority+0x3a>
 800791a:	b470      	push	{r4, r5, r6}
 800791c:	4e18      	ldr	r6, [pc, #96]	; (8007980 <system__bb__threads__queues__change_priority+0x6c>)
 800791e:	6341      	str	r1, [r0, #52]	; 0x34
 8007920:	6834      	ldr	r4, [r6, #0]
 8007922:	42a0      	cmp	r0, r4
 8007924:	d00c      	beq.n	8007940 <system__bb__threads__queues__change_priority+0x2c>
 8007926:	b14c      	cbz	r4, 800793c <system__bb__threads__queues__change_priority+0x28>
 8007928:	6c23      	ldr	r3, [r4, #64]	; 0x40
 800792a:	4298      	cmp	r0, r3
 800792c:	d010      	beq.n	8007950 <system__bb__threads__queues__change_priority+0x3c>
 800792e:	b12b      	cbz	r3, 800793c <system__bb__threads__queues__change_priority+0x28>
 8007930:	6c1a      	ldr	r2, [r3, #64]	; 0x40
 8007932:	4282      	cmp	r2, r0
 8007934:	d00d      	beq.n	8007952 <system__bb__threads__queues__change_priority+0x3e>
 8007936:	4613      	mov	r3, r2
 8007938:	2b00      	cmp	r3, #0
 800793a:	d1f9      	bne.n	8007930 <system__bb__threads__queues__change_priority+0x1c>
 800793c:	bc70      	pop	{r4, r5, r6}
 800793e:	4770      	bx	lr
 8007940:	6c04      	ldr	r4, [r0, #64]	; 0x40
 8007942:	2c00      	cmp	r4, #0
 8007944:	d0fa      	beq.n	800793c <system__bb__threads__queues__change_priority+0x28>
 8007946:	6b63      	ldr	r3, [r4, #52]	; 0x34
 8007948:	428b      	cmp	r3, r1
 800794a:	dc04      	bgt.n	8007956 <system__bb__threads__queues__change_priority+0x42>
 800794c:	e7f6      	b.n	800793c <system__bb__threads__queues__change_priority+0x28>
 800794e:	4770      	bx	lr
 8007950:	4623      	mov	r3, r4
 8007952:	6c02      	ldr	r2, [r0, #64]	; 0x40
 8007954:	641a      	str	r2, [r3, #64]	; 0x40
 8007956:	6b63      	ldr	r3, [r4, #52]	; 0x34
 8007958:	428b      	cmp	r3, r1
 800795a:	dd0b      	ble.n	8007974 <system__bb__threads__queues__change_priority+0x60>
 800795c:	4622      	mov	r2, r4
 800795e:	e003      	b.n	8007968 <system__bb__threads__queues__change_priority+0x54>
 8007960:	6b5d      	ldr	r5, [r3, #52]	; 0x34
 8007962:	428d      	cmp	r5, r1
 8007964:	dd03      	ble.n	800796e <system__bb__threads__queues__change_priority+0x5a>
 8007966:	461a      	mov	r2, r3
 8007968:	6c13      	ldr	r3, [r2, #64]	; 0x40
 800796a:	2b00      	cmp	r3, #0
 800796c:	d1f8      	bne.n	8007960 <system__bb__threads__queues__change_priority+0x4c>
 800796e:	6403      	str	r3, [r0, #64]	; 0x40
 8007970:	6410      	str	r0, [r2, #64]	; 0x40
 8007972:	e001      	b.n	8007978 <system__bb__threads__queues__change_priority+0x64>
 8007974:	6404      	str	r4, [r0, #64]	; 0x40
 8007976:	4604      	mov	r4, r0
 8007978:	6034      	str	r4, [r6, #0]
 800797a:	bc70      	pop	{r4, r5, r6}
 800797c:	4770      	bx	lr
 800797e:	bf00      	nop
 8007980:	20000098 	.word	0x20000098

08007984 <system__bb__threads__queues__insert_alarm>:
 8007984:	f992 302c 	ldrsb.w	r3, [r2, #44]	; 0x2c
 8007988:	2b00      	cmp	r3, #0
 800798a:	bf08      	it	eq
 800798c:	2301      	moveq	r3, #1
 800798e:	f103 4380 	add.w	r3, r3, #1073741824	; 0x40000000
 8007992:	b4f0      	push	{r4, r5, r6, r7}
 8007994:	3b01      	subs	r3, #1
 8007996:	4f10      	ldr	r7, [pc, #64]	; (80079d8 <system__bb__threads__queues__insert_alarm+0x54>)
 8007998:	f857 6023 	ldr.w	r6, [r7, r3, lsl #2]
 800799c:	e9c2 0112 	strd	r0, r1, [r2, #72]	; 0x48
 80079a0:	b12e      	cbz	r6, 80079ae <system__bb__threads__queues__insert_alarm+0x2a>
 80079a2:	e9d6 4512 	ldrd	r4, r5, [r6, #72]	; 0x48
 80079a6:	42a9      	cmp	r1, r5
 80079a8:	bf08      	it	eq
 80079aa:	42a0      	cmpeq	r0, r4
 80079ac:	d20c      	bcs.n	80079c8 <system__bb__threads__queues__insert_alarm+0x44>
 80079ae:	6516      	str	r6, [r2, #80]	; 0x50
 80079b0:	f847 2023 	str.w	r2, [r7, r3, lsl #2]
 80079b4:	2001      	movs	r0, #1
 80079b6:	bcf0      	pop	{r4, r5, r6, r7}
 80079b8:	4770      	bx	lr
 80079ba:	e9d3 4512 	ldrd	r4, r5, [r3, #72]	; 0x48
 80079be:	428d      	cmp	r5, r1
 80079c0:	bf08      	it	eq
 80079c2:	4284      	cmpeq	r4, r0
 80079c4:	d203      	bcs.n	80079ce <system__bb__threads__queues__insert_alarm+0x4a>
 80079c6:	461e      	mov	r6, r3
 80079c8:	6d33      	ldr	r3, [r6, #80]	; 0x50
 80079ca:	2b00      	cmp	r3, #0
 80079cc:	d1f5      	bne.n	80079ba <system__bb__threads__queues__insert_alarm+0x36>
 80079ce:	6513      	str	r3, [r2, #80]	; 0x50
 80079d0:	2000      	movs	r0, #0
 80079d2:	6532      	str	r2, [r6, #80]	; 0x50
 80079d4:	bcf0      	pop	{r4, r5, r6, r7}
 80079d6:	4770      	bx	lr
 80079d8:	2000009c 	.word	0x2000009c

080079dc <system__bb__threads__queues__wakeup_expired_alarms>:
 80079dc:	e92d 4ff0 	stmdb	sp!, {r4, r5, r6, r7, r8, r9, sl, fp, lr}
 80079e0:	4b39      	ldr	r3, [pc, #228]	; (8007ac8 <system__bb__threads__queues__wakeup_expired_alarms+0xec>)
 80079e2:	4c3a      	ldr	r4, [pc, #232]	; (8007acc <system__bb__threads__queues__wakeup_expired_alarms+0xf0>)
 80079e4:	681b      	ldr	r3, [r3, #0]
 80079e6:	2200      	movs	r2, #0
 80079e8:	b083      	sub	sp, #12
 80079ea:	4606      	mov	r6, r0
 80079ec:	460f      	mov	r7, r1
 80079ee:	4615      	mov	r5, r2
 80079f0:	f04f 38ff 	mov.w	r8, #4294967295	; 0xffffffff
 80079f4:	f04f 39ff 	mov.w	r9, #4294967295	; 0xffffffff
 80079f8:	f06f 4c40 	mvn.w	ip, #3221225472	; 0xc0000000
 80079fc:	2b00      	cmp	r3, #0
 80079fe:	d039      	beq.n	8007a74 <system__bb__threads__queues__wakeup_expired_alarms+0x98>
 8007a00:	e9d3 0112 	ldrd	r0, r1, [r3, #72]	; 0x48
 8007a04:	428f      	cmp	r7, r1
 8007a06:	bf08      	it	eq
 8007a08:	4286      	cmpeq	r6, r0
 8007a0a:	d33b      	bcc.n	8007a84 <system__bb__threads__queues__wakeup_expired_alarms+0xa8>
 8007a0c:	f993 202c 	ldrsb.w	r2, [r3, #44]	; 0x2c
 8007a10:	f8d3 a050 	ldr.w	sl, [r3, #80]	; 0x50
 8007a14:	f883 5054 	strb.w	r5, [r3, #84]	; 0x54
 8007a18:	2a00      	cmp	r2, #0
 8007a1a:	bf08      	it	eq
 8007a1c:	2201      	moveq	r2, #1
 8007a1e:	eb02 010c 	add.w	r1, r2, ip
 8007a22:	e9c3 8912 	strd	r8, r9, [r3, #72]	; 0x48
 8007a26:	f854 0021 	ldr.w	r0, [r4, r1, lsl #2]
 8007a2a:	651d      	str	r5, [r3, #80]	; 0x50
 8007a2c:	4298      	cmp	r0, r3
 8007a2e:	f04f 0201 	mov.w	r2, #1
 8007a32:	d031      	beq.n	8007a98 <system__bb__threads__queues__wakeup_expired_alarms+0xbc>
 8007a34:	f854 2021 	ldr.w	r2, [r4, r1, lsl #2]
 8007a38:	b342      	cbz	r2, 8007a8c <system__bb__threads__queues__wakeup_expired_alarms+0xb0>
 8007a3a:	6b58      	ldr	r0, [r3, #52]	; 0x34
 8007a3c:	f854 2021 	ldr.w	r2, [r4, r1, lsl #2]
 8007a40:	6b52      	ldr	r2, [r2, #52]	; 0x34
 8007a42:	4290      	cmp	r0, r2
 8007a44:	dc22      	bgt.n	8007a8c <system__bb__threads__queues__wakeup_expired_alarms+0xb0>
 8007a46:	f854 1021 	ldr.w	r1, [r4, r1, lsl #2]
 8007a4a:	e9cd 6700 	strd	r6, r7, [sp]
 8007a4e:	e006      	b.n	8007a5e <system__bb__threads__queues__wakeup_expired_alarms+0x82>
 8007a50:	429a      	cmp	r2, r3
 8007a52:	d023      	beq.n	8007a9c <system__bb__threads__queues__wakeup_expired_alarms+0xc0>
 8007a54:	6b57      	ldr	r7, [r2, #52]	; 0x34
 8007a56:	6b58      	ldr	r0, [r3, #52]	; 0x34
 8007a58:	4287      	cmp	r7, r0
 8007a5a:	db03      	blt.n	8007a64 <system__bb__threads__queues__wakeup_expired_alarms+0x88>
 8007a5c:	4611      	mov	r1, r2
 8007a5e:	6c0a      	ldr	r2, [r1, #64]	; 0x40
 8007a60:	2a00      	cmp	r2, #0
 8007a62:	d1f5      	bne.n	8007a50 <system__bb__threads__queues__wakeup_expired_alarms+0x74>
 8007a64:	e9dd 6700 	ldrd	r6, r7, [sp]
 8007a68:	641a      	str	r2, [r3, #64]	; 0x40
 8007a6a:	640b      	str	r3, [r1, #64]	; 0x40
 8007a6c:	4653      	mov	r3, sl
 8007a6e:	2201      	movs	r2, #1
 8007a70:	2b00      	cmp	r3, #0
 8007a72:	d1c5      	bne.n	8007a00 <system__bb__threads__queues__wakeup_expired_alarms+0x24>
 8007a74:	f04f 31ff 	mov.w	r1, #4294967295	; 0xffffffff
 8007a78:	f04f 30ff 	mov.w	r0, #4294967295	; 0xffffffff
 8007a7c:	428f      	cmp	r7, r1
 8007a7e:	bf08      	it	eq
 8007a80:	4286      	cmpeq	r6, r0
 8007a82:	d2c3      	bcs.n	8007a0c <system__bb__threads__queues__wakeup_expired_alarms+0x30>
 8007a84:	b9ea      	cbnz	r2, 8007ac2 <system__bb__threads__queues__wakeup_expired_alarms+0xe6>
 8007a86:	b003      	add	sp, #12
 8007a88:	e8bd 8ff0 	ldmia.w	sp!, {r4, r5, r6, r7, r8, r9, sl, fp, pc}
 8007a8c:	f854 2021 	ldr.w	r2, [r4, r1, lsl #2]
 8007a90:	641a      	str	r2, [r3, #64]	; 0x40
 8007a92:	f844 3021 	str.w	r3, [r4, r1, lsl #2]
 8007a96:	e7e9      	b.n	8007a6c <system__bb__threads__queues__wakeup_expired_alarms+0x90>
 8007a98:	4653      	mov	r3, sl
 8007a9a:	e7af      	b.n	80079fc <system__bb__threads__queues__wakeup_expired_alarms+0x20>
 8007a9c:	6c18      	ldr	r0, [r3, #64]	; 0x40
 8007a9e:	6408      	str	r0, [r1, #64]	; 0x40
 8007aa0:	e9dd 6700 	ldrd	r6, r7, [sp]
 8007aa4:	4696      	mov	lr, r2
 8007aa6:	469b      	mov	fp, r3
 8007aa8:	b140      	cbz	r0, 8007abc <system__bb__threads__queues__wakeup_expired_alarms+0xe0>
 8007aaa:	6b43      	ldr	r3, [r0, #52]	; 0x34
 8007aac:	f8de 2034 	ldr.w	r2, [lr, #52]	; 0x34
 8007ab0:	4293      	cmp	r3, r2
 8007ab2:	db03      	blt.n	8007abc <system__bb__threads__queues__wakeup_expired_alarms+0xe0>
 8007ab4:	4601      	mov	r1, r0
 8007ab6:	6c00      	ldr	r0, [r0, #64]	; 0x40
 8007ab8:	2800      	cmp	r0, #0
 8007aba:	d1f6      	bne.n	8007aaa <system__bb__threads__queues__wakeup_expired_alarms+0xce>
 8007abc:	465b      	mov	r3, fp
 8007abe:	4602      	mov	r2, r0
 8007ac0:	e7d2      	b.n	8007a68 <system__bb__threads__queues__wakeup_expired_alarms+0x8c>
 8007ac2:	4a01      	ldr	r2, [pc, #4]	; (8007ac8 <system__bb__threads__queues__wakeup_expired_alarms+0xec>)
 8007ac4:	6013      	str	r3, [r2, #0]
 8007ac6:	e7de      	b.n	8007a86 <system__bb__threads__queues__wakeup_expired_alarms+0xaa>
 8007ac8:	2000009c 	.word	0x2000009c
 8007acc:	20000098 	.word	0x20000098

08007ad0 <system__bb__threads__queues__yield>:
 8007ad0:	f990 302c 	ldrsb.w	r3, [r0, #44]	; 0x2c
 8007ad4:	6c02      	ldr	r2, [r0, #64]	; 0x40
 8007ad6:	6b41      	ldr	r1, [r0, #52]	; 0x34
 8007ad8:	2b00      	cmp	r3, #0
 8007ada:	bf08      	it	eq
 8007adc:	2301      	moveq	r3, #1
 8007ade:	b1da      	cbz	r2, 8007b18 <system__bb__threads__queues__yield+0x48>
 8007ae0:	b410      	push	{r4}
 8007ae2:	6b54      	ldr	r4, [r2, #52]	; 0x34
 8007ae4:	428c      	cmp	r4, r1
 8007ae6:	d002      	beq.n	8007aee <system__bb__threads__queues__yield+0x1e>
 8007ae8:	f85d 4b04 	ldr.w	r4, [sp], #4
 8007aec:	4770      	bx	lr
 8007aee:	f103 4380 	add.w	r3, r3, #1073741824	; 0x40000000
 8007af2:	3b01      	subs	r3, #1
 8007af4:	4909      	ldr	r1, [pc, #36]	; (8007b1c <system__bb__threads__queues__yield+0x4c>)
 8007af6:	f841 2023 	str.w	r2, [r1, r3, lsl #2]
 8007afa:	f851 2023 	ldr.w	r2, [r1, r3, lsl #2]
 8007afe:	e003      	b.n	8007b08 <system__bb__threads__queues__yield+0x38>
 8007b00:	6b59      	ldr	r1, [r3, #52]	; 0x34
 8007b02:	428c      	cmp	r4, r1
 8007b04:	d103      	bne.n	8007b0e <system__bb__threads__queues__yield+0x3e>
 8007b06:	461a      	mov	r2, r3
 8007b08:	6c13      	ldr	r3, [r2, #64]	; 0x40
 8007b0a:	2b00      	cmp	r3, #0
 8007b0c:	d1f8      	bne.n	8007b00 <system__bb__threads__queues__yield+0x30>
 8007b0e:	6403      	str	r3, [r0, #64]	; 0x40
 8007b10:	f85d 4b04 	ldr.w	r4, [sp], #4
 8007b14:	6410      	str	r0, [r2, #64]	; 0x40
 8007b16:	4770      	bx	lr
 8007b18:	4770      	bx	lr
 8007b1a:	bf00      	nop
 8007b1c:	20000098 	.word	0x20000098

08007b20 <system__bb__timing_events___size>:
 8007b20:	f44f 7080 	mov.w	r0, #256	; 0x100
 8007b24:	2100      	movs	r1, #0
 8007b26:	4770      	bx	lr

08007b28 <system__bb__timing_events__timing_eventDF>:
 8007b28:	4770      	bx	lr
 8007b2a:	bf00      	nop

08007b2c <system__bb__timing_events__time_of_event>:
 8007b2c:	6903      	ldr	r3, [r0, #16]
 8007b2e:	b113      	cbz	r3, 8007b36 <system__bb__timing_events__time_of_event+0xa>
 8007b30:	e9d0 0102 	ldrd	r0, r1, [r0, #8]
 8007b34:	4770      	bx	lr
 8007b36:	2000      	movs	r0, #0
 8007b38:	2100      	movs	r1, #0
 8007b3a:	4770      	bx	lr

08007b3c <system__bb__timing_events__set_handler>:
 8007b3c:	e92d 43f8 	stmdb	sp!, {r3, r4, r5, r6, r7, r8, r9, lr}
 8007b40:	461f      	mov	r7, r3
 8007b42:	6903      	ldr	r3, [r0, #16]
 8007b44:	4616      	mov	r6, r2
 8007b46:	9a08      	ldr	r2, [sp, #32]
 8007b48:	2b00      	cmp	r3, #0
 8007b4a:	d03e      	beq.n	8007bca <system__bb__timing_events__set_handler+0x8e>
 8007b4c:	4c23      	ldr	r4, [pc, #140]	; (8007bdc <system__bb__timing_events__set_handler+0xa0>)
 8007b4e:	6943      	ldr	r3, [r0, #20]
 8007b50:	6821      	ldr	r1, [r4, #0]
 8007b52:	4281      	cmp	r1, r0
 8007b54:	d036      	beq.n	8007bc4 <system__bb__timing_events__set_handler+0x88>
 8007b56:	6981      	ldr	r1, [r0, #24]
 8007b58:	614b      	str	r3, [r1, #20]
 8007b5a:	6943      	ldr	r3, [r0, #20]
 8007b5c:	2500      	movs	r5, #0
 8007b5e:	b10b      	cbz	r3, 8007b64 <system__bb__timing_events__set_handler+0x28>
 8007b60:	6981      	ldr	r1, [r0, #24]
 8007b62:	6199      	str	r1, [r3, #24]
 8007b64:	2300      	movs	r3, #0
 8007b66:	e9c0 2304 	strd	r2, r3, [r0, #16]
 8007b6a:	6183      	str	r3, [r0, #24]
 8007b6c:	b332      	cbz	r2, 8007bbc <system__bb__timing_events__set_handler+0x80>
 8007b6e:	6821      	ldr	r1, [r4, #0]
 8007b70:	2301      	movs	r3, #1
 8007b72:	e9c0 6702 	strd	r6, r7, [r0, #8]
 8007b76:	7703      	strb	r3, [r0, #28]
 8007b78:	2900      	cmp	r1, #0
 8007b7a:	d02c      	beq.n	8007bd6 <system__bb__timing_events__set_handler+0x9a>
 8007b7c:	e9d1 2302 	ldrd	r2, r3, [r1, #8]
 8007b80:	429f      	cmp	r7, r3
 8007b82:	bf08      	it	eq
 8007b84:	4296      	cmpeq	r6, r2
 8007b86:	d210      	bcs.n	8007baa <system__bb__timing_events__set_handler+0x6e>
 8007b88:	6141      	str	r1, [r0, #20]
 8007b8a:	6188      	str	r0, [r1, #24]
 8007b8c:	6020      	str	r0, [r4, #0]
 8007b8e:	2001      	movs	r0, #1
 8007b90:	f000 f896 	bl	8007cc0 <system__bb__time__get_next_timeout>
 8007b94:	e8bd 43f8 	ldmia.w	sp!, {r3, r4, r5, r6, r7, r8, r9, lr}
 8007b98:	f000 b8fc 	b.w	8007d94 <system__bb__time__update_alarm>
 8007b9c:	e9d3 8902 	ldrd	r8, r9, [r3, #8]
 8007ba0:	454f      	cmp	r7, r9
 8007ba2:	bf08      	it	eq
 8007ba4:	4546      	cmpeq	r6, r8
 8007ba6:	d303      	bcc.n	8007bb0 <system__bb__timing_events__set_handler+0x74>
 8007ba8:	4619      	mov	r1, r3
 8007baa:	694b      	ldr	r3, [r1, #20]
 8007bac:	2b00      	cmp	r3, #0
 8007bae:	d1f5      	bne.n	8007b9c <system__bb__timing_events__set_handler+0x60>
 8007bb0:	6143      	str	r3, [r0, #20]
 8007bb2:	694b      	ldr	r3, [r1, #20]
 8007bb4:	6181      	str	r1, [r0, #24]
 8007bb6:	b103      	cbz	r3, 8007bba <system__bb__timing_events__set_handler+0x7e>
 8007bb8:	6198      	str	r0, [r3, #24]
 8007bba:	6148      	str	r0, [r1, #20]
 8007bbc:	2d00      	cmp	r5, #0
 8007bbe:	d1e6      	bne.n	8007b8e <system__bb__timing_events__set_handler+0x52>
 8007bc0:	e8bd 83f8 	ldmia.w	sp!, {r3, r4, r5, r6, r7, r8, r9, pc}
 8007bc4:	6023      	str	r3, [r4, #0]
 8007bc6:	2501      	movs	r5, #1
 8007bc8:	e7c9      	b.n	8007b5e <system__bb__timing_events__set_handler+0x22>
 8007bca:	6102      	str	r2, [r0, #16]
 8007bcc:	2a00      	cmp	r2, #0
 8007bce:	d0f7      	beq.n	8007bc0 <system__bb__timing_events__set_handler+0x84>
 8007bd0:	4c02      	ldr	r4, [pc, #8]	; (8007bdc <system__bb__timing_events__set_handler+0xa0>)
 8007bd2:	461d      	mov	r5, r3
 8007bd4:	e7cb      	b.n	8007b6e <system__bb__timing_events__set_handler+0x32>
 8007bd6:	6141      	str	r1, [r0, #20]
 8007bd8:	e7d8      	b.n	8007b8c <system__bb__timing_events__set_handler+0x50>
 8007bda:	bf00      	nop
 8007bdc:	200000a8 	.word	0x200000a8

08007be0 <system__bb__timing_events__cancel_handler>:
 8007be0:	b508      	push	{r3, lr}
 8007be2:	6903      	ldr	r3, [r0, #16]
 8007be4:	b193      	cbz	r3, 8007c0c <system__bb__timing_events__cancel_handler+0x2c>
 8007be6:	4a14      	ldr	r2, [pc, #80]	; (8007c38 <system__bb__timing_events__cancel_handler+0x58>)
 8007be8:	6813      	ldr	r3, [r2, #0]
 8007bea:	4283      	cmp	r3, r0
 8007bec:	d010      	beq.n	8007c10 <system__bb__timing_events__cancel_handler+0x30>
 8007bee:	e9d0 3205 	ldrd	r3, r2, [r0, #20]
 8007bf2:	6153      	str	r3, [r2, #20]
 8007bf4:	6943      	ldr	r3, [r0, #20]
 8007bf6:	b133      	cbz	r3, 8007c06 <system__bb__timing_events__cancel_handler+0x26>
 8007bf8:	2100      	movs	r1, #0
 8007bfa:	619a      	str	r2, [r3, #24]
 8007bfc:	e9c0 1105 	strd	r1, r1, [r0, #20]
 8007c00:	6101      	str	r1, [r0, #16]
 8007c02:	2001      	movs	r0, #1
 8007c04:	bd08      	pop	{r3, pc}
 8007c06:	6183      	str	r3, [r0, #24]
 8007c08:	6103      	str	r3, [r0, #16]
 8007c0a:	e7fa      	b.n	8007c02 <system__bb__timing_events__cancel_handler+0x22>
 8007c0c:	4618      	mov	r0, r3
 8007c0e:	bd08      	pop	{r3, pc}
 8007c10:	6959      	ldr	r1, [r3, #20]
 8007c12:	6011      	str	r1, [r2, #0]
 8007c14:	b161      	cbz	r1, 8007c30 <system__bb__timing_events__cancel_handler+0x50>
 8007c16:	699a      	ldr	r2, [r3, #24]
 8007c18:	618a      	str	r2, [r1, #24]
 8007c1a:	2200      	movs	r2, #0
 8007c1c:	e9c3 2205 	strd	r2, r2, [r3, #20]
 8007c20:	611a      	str	r2, [r3, #16]
 8007c22:	2001      	movs	r0, #1
 8007c24:	f000 f84c 	bl	8007cc0 <system__bb__time__get_next_timeout>
 8007c28:	f000 f8b4 	bl	8007d94 <system__bb__time__update_alarm>
 8007c2c:	2001      	movs	r0, #1
 8007c2e:	bd08      	pop	{r3, pc}
 8007c30:	6199      	str	r1, [r3, #24]
 8007c32:	6119      	str	r1, [r3, #16]
 8007c34:	e7f5      	b.n	8007c22 <system__bb__timing_events__cancel_handler+0x42>
 8007c36:	bf00      	nop
 8007c38:	200000a8 	.word	0x200000a8

08007c3c <system__bb__timing_events__execute_expired_timing_events>:
 8007c3c:	e92d 47f0 	stmdb	sp!, {r4, r5, r6, r7, r8, r9, sl, lr}
 8007c40:	f8df a06c 	ldr.w	sl, [pc, #108]	; 8007cb0 <system__bb__timing_events__execute_expired_timing_events+0x74>
 8007c44:	f8da 4000 	ldr.w	r4, [sl]
 8007c48:	b374      	cbz	r4, 8007ca8 <system__bb__timing_events__execute_expired_timing_events+0x6c>
 8007c4a:	4b18      	ldr	r3, [pc, #96]	; (8007cac <system__bb__timing_events__execute_expired_timing_events+0x70>)
 8007c4c:	f8d3 8000 	ldr.w	r8, [r3]
 8007c50:	4606      	mov	r6, r0
 8007c52:	460f      	mov	r7, r1
 8007c54:	4640      	mov	r0, r8
 8007c56:	21ff      	movs	r1, #255	; 0xff
 8007c58:	f8d8 9034 	ldr.w	r9, [r8, #52]	; 0x34
 8007c5c:	f7ff fe5a 	bl	8007914 <system__bb__threads__queues__change_priority>
 8007c60:	2500      	movs	r5, #0
 8007c62:	e9d4 2302 	ldrd	r2, r3, [r4, #8]
 8007c66:	429f      	cmp	r7, r3
 8007c68:	bf08      	it	eq
 8007c6a:	4296      	cmpeq	r6, r2
 8007c6c:	d316      	bcc.n	8007c9c <system__bb__timing_events__execute_expired_timing_events+0x60>
 8007c6e:	f8da 2000 	ldr.w	r2, [sl]
 8007c72:	e9d4 1304 	ldrd	r1, r3, [r4, #16]
 8007c76:	42a2      	cmp	r2, r4
 8007c78:	bf17      	itett	ne
 8007c7a:	69a2      	ldrne	r2, [r4, #24]
 8007c7c:	f8ca 3000 	streq.w	r3, [sl]
 8007c80:	6153      	strne	r3, [r2, #20]
 8007c82:	6963      	ldrne	r3, [r4, #20]
 8007c84:	4620      	mov	r0, r4
 8007c86:	b10b      	cbz	r3, 8007c8c <system__bb__timing_events__execute_expired_timing_events+0x50>
 8007c88:	69a2      	ldr	r2, [r4, #24]
 8007c8a:	619a      	str	r2, [r3, #24]
 8007c8c:	e9c4 5505 	strd	r5, r5, [r4, #20]
 8007c90:	6125      	str	r5, [r4, #16]
 8007c92:	4788      	blx	r1
 8007c94:	f8da 4000 	ldr.w	r4, [sl]
 8007c98:	2c00      	cmp	r4, #0
 8007c9a:	d1e2      	bne.n	8007c62 <system__bb__timing_events__execute_expired_timing_events+0x26>
 8007c9c:	4649      	mov	r1, r9
 8007c9e:	4640      	mov	r0, r8
 8007ca0:	e8bd 47f0 	ldmia.w	sp!, {r4, r5, r6, r7, r8, r9, sl, lr}
 8007ca4:	f7ff be36 	b.w	8007914 <system__bb__threads__queues__change_priority>
 8007ca8:	e8bd 87f0 	ldmia.w	sp!, {r4, r5, r6, r7, r8, r9, sl, pc}
 8007cac:	20000094 	.word	0x20000094
 8007cb0:	200000a8 	.word	0x200000a8

08007cb4 <system__bb__timing_events___elabs>:
 8007cb4:	4801      	ldr	r0, [pc, #4]	; (8007cbc <system__bb__timing_events___elabs+0x8>)
 8007cb6:	f001 bb2f 	b.w	8009318 <ada__tags__register_tag>
 8007cba:	bf00      	nop
 8007cbc:	0800dd44 	.word	0x0800dd44

08007cc0 <system__bb__time__get_next_timeout>:
 8007cc0:	f100 4380 	add.w	r3, r0, #1073741824	; 0x40000000
 8007cc4:	3b01      	subs	r3, #1
 8007cc6:	4a0c      	ldr	r2, [pc, #48]	; (8007cf8 <system__bb__time__get_next_timeout+0x38>)
 8007cc8:	f852 2023 	ldr.w	r2, [r2, r3, lsl #2]
 8007ccc:	b172      	cbz	r2, 8007cec <system__bb__time__get_next_timeout+0x2c>
 8007cce:	e9d2 0112 	ldrd	r0, r1, [r2, #72]	; 0x48
 8007cd2:	4a0a      	ldr	r2, [pc, #40]	; (8007cfc <system__bb__time__get_next_timeout+0x3c>)
 8007cd4:	f852 3023 	ldr.w	r3, [r2, r3, lsl #2]
 8007cd8:	b13b      	cbz	r3, 8007cea <system__bb__time__get_next_timeout+0x2a>
 8007cda:	e9d3 2302 	ldrd	r2, r3, [r3, #8]
 8007cde:	428b      	cmp	r3, r1
 8007ce0:	bf08      	it	eq
 8007ce2:	4282      	cmpeq	r2, r0
 8007ce4:	bf3c      	itt	cc
 8007ce6:	4610      	movcc	r0, r2
 8007ce8:	4619      	movcc	r1, r3
 8007cea:	4770      	bx	lr
 8007cec:	f04f 30ff 	mov.w	r0, #4294967295	; 0xffffffff
 8007cf0:	f04f 31ff 	mov.w	r1, #4294967295	; 0xffffffff
 8007cf4:	e7ed      	b.n	8007cd2 <system__bb__time__get_next_timeout+0x12>
 8007cf6:	bf00      	nop
 8007cf8:	2000009c 	.word	0x2000009c
 8007cfc:	200000a8 	.word	0x200000a8

08007d00 <system__bb__time__initialize_timers>:
 8007d00:	e92d 43f8 	stmdb	sp!, {r3, r4, r5, r6, r7, r8, r9, lr}
 8007d04:	4a1e      	ldr	r2, [pc, #120]	; (8007d80 <system__bb__time__initialize_timers+0x80>)
 8007d06:	4f1f      	ldr	r7, [pc, #124]	; (8007d84 <system__bb__time__initialize_timers+0x84>)
 8007d08:	481f      	ldr	r0, [pc, #124]	; (8007d88 <system__bb__time__initialize_timers+0x88>)
 8007d0a:	4d20      	ldr	r5, [pc, #128]	; (8007d8c <system__bb__time__initialize_timers+0x8c>)
 8007d0c:	2300      	movs	r3, #0
 8007d0e:	e9c7 2300 	strd	r2, r3, [r7]
 8007d12:	f7ff fc67 	bl	80075e4 <system__bb__board_support__time__install_alarm_handler>
 8007d16:	f7ff fc11 	bl	800753c <system__bb__board_support__time__read_clock>
 8007d1a:	2400      	movs	r4, #0
 8007d1c:	6068      	str	r0, [r5, #4]
 8007d1e:	682e      	ldr	r6, [r5, #0]
 8007d20:	f8d5 8004 	ldr.w	r8, [r5, #4]
 8007d24:	f7ff fc0a 	bl	800753c <system__bb__board_support__time__read_clock>
 8007d28:	682b      	ldr	r3, [r5, #0]
 8007d2a:	429e      	cmp	r6, r3
 8007d2c:	eba6 0209 	sub.w	r2, r6, r9
 8007d30:	f104 0401 	add.w	r4, r4, #1
 8007d34:	d019      	beq.n	8007d6a <system__bb__time__initialize_timers+0x6a>
 8007d36:	2c01      	cmp	r4, #1
 8007d38:	d015      	beq.n	8007d66 <system__bb__time__initialize_timers+0x66>
 8007d3a:	2a01      	cmp	r2, #1
 8007d3c:	d803      	bhi.n	8007d46 <system__bb__time__initialize_timers+0x46>
 8007d3e:	2c03      	cmp	r4, #3
 8007d40:	d001      	beq.n	8007d46 <system__bb__time__initialize_timers+0x46>
 8007d42:	2402      	movs	r4, #2
 8007d44:	e7eb      	b.n	8007d1e <system__bb__time__initialize_timers+0x1e>
 8007d46:	f04f 0800 	mov.w	r8, #0
 8007d4a:	46b1      	mov	r9, r6
 8007d4c:	e9d7 0100 	ldrd	r0, r1, [r7]
 8007d50:	4c0f      	ldr	r4, [pc, #60]	; (8007d90 <system__bb__time__initialize_timers+0x90>)
 8007d52:	eb18 0200 	adds.w	r2, r8, r0
 8007d56:	eb49 0301 	adc.w	r3, r9, r1
 8007d5a:	e9c4 2300 	strd	r2, r3, [r4]
 8007d5e:	e8bd 43f8 	ldmia.w	sp!, {r3, r4, r5, r6, r7, r8, r9, lr}
 8007d62:	f7ff bc0d 	b.w	8007580 <system__bb__board_support__time__set_alarm>
 8007d66:	46b1      	mov	r9, r6
 8007d68:	e7d9      	b.n	8007d1e <system__bb__time__initialize_timers+0x1e>
 8007d6a:	2200      	movs	r2, #0
 8007d6c:	4580      	cmp	r8, r0
 8007d6e:	bf94      	ite	ls
 8007d70:	4633      	movls	r3, r6
 8007d72:	1c73      	addhi	r3, r6, #1
 8007d74:	eb12 0800 	adds.w	r8, r2, r0
 8007d78:	f143 0900 	adc.w	r9, r3, #0
 8007d7c:	e7e6      	b.n	8007d4c <system__bb__time__initialize_timers+0x4c>
 8007d7e:	bf00      	nop
 8007d80:	dffffff9 	.word	0xdffffff9
 8007d84:	200000b0 	.word	0x200000b0
 8007d88:	08007f0d 	.word	0x08007f0d
 8007d8c:	200000c4 	.word	0x200000c4
 8007d90:	200000b8 	.word	0x200000b8

08007d94 <system__bb__time__update_alarm>:
 8007d94:	e92d 47f0 	stmdb	sp!, {r4, r5, r6, r7, r8, r9, sl, lr}
 8007d98:	4e21      	ldr	r6, [pc, #132]	; (8007e20 <system__bb__time__update_alarm+0x8c>)
 8007d9a:	4680      	mov	r8, r0
 8007d9c:	4689      	mov	r9, r1
 8007d9e:	2400      	movs	r4, #0
 8007da0:	6835      	ldr	r5, [r6, #0]
 8007da2:	6877      	ldr	r7, [r6, #4]
 8007da4:	f7ff fbca 	bl	800753c <system__bb__board_support__time__read_clock>
 8007da8:	6833      	ldr	r3, [r6, #0]
 8007daa:	429d      	cmp	r5, r3
 8007dac:	eba5 020a 	sub.w	r2, r5, sl
 8007db0:	f104 0401 	add.w	r4, r4, #1
 8007db4:	d02b      	beq.n	8007e0e <system__bb__time__update_alarm+0x7a>
 8007db6:	2c01      	cmp	r4, #1
 8007db8:	d024      	beq.n	8007e04 <system__bb__time__update_alarm+0x70>
 8007dba:	2a01      	cmp	r2, #1
 8007dbc:	d803      	bhi.n	8007dc6 <system__bb__time__update_alarm+0x32>
 8007dbe:	2c03      	cmp	r4, #3
 8007dc0:	d001      	beq.n	8007dc6 <system__bb__time__update_alarm+0x32>
 8007dc2:	2402      	movs	r4, #2
 8007dc4:	e7ec      	b.n	8007da0 <system__bb__time__update_alarm+0xc>
 8007dc6:	2600      	movs	r6, #0
 8007dc8:	462f      	mov	r7, r5
 8007dca:	454f      	cmp	r7, r9
 8007dcc:	bf08      	it	eq
 8007dce:	4546      	cmpeq	r6, r8
 8007dd0:	d21a      	bcs.n	8007e08 <system__bb__time__update_alarm+0x74>
 8007dd2:	ebb8 0206 	subs.w	r2, r8, r6
 8007dd6:	eb69 0307 	sbc.w	r3, r9, r7
 8007dda:	4c12      	ldr	r4, [pc, #72]	; (8007e24 <system__bb__time__update_alarm+0x90>)
 8007ddc:	e9d4 0100 	ldrd	r0, r1, [r4]
 8007de0:	4589      	cmp	r9, r1
 8007de2:	bf08      	it	eq
 8007de4:	4580      	cmpeq	r8, r0
 8007de6:	d20b      	bcs.n	8007e00 <system__bb__time__update_alarm+0x6c>
 8007de8:	490f      	ldr	r1, [pc, #60]	; (8007e28 <system__bb__time__update_alarm+0x94>)
 8007dea:	e9d1 0100 	ldrd	r0, r1, [r1]
 8007dee:	428b      	cmp	r3, r1
 8007df0:	bf08      	it	eq
 8007df2:	4282      	cmpeq	r2, r0
 8007df4:	bf38      	it	cc
 8007df6:	4610      	movcc	r0, r2
 8007df8:	f7ff fbc2 	bl	8007580 <system__bb__board_support__time__set_alarm>
 8007dfc:	e9c4 8900 	strd	r8, r9, [r4]
 8007e00:	e8bd 87f0 	ldmia.w	sp!, {r4, r5, r6, r7, r8, r9, sl, pc}
 8007e04:	46aa      	mov	sl, r5
 8007e06:	e7cb      	b.n	8007da0 <system__bb__time__update_alarm+0xc>
 8007e08:	2201      	movs	r2, #1
 8007e0a:	2300      	movs	r3, #0
 8007e0c:	e7e5      	b.n	8007dda <system__bb__time__update_alarm+0x46>
 8007e0e:	2200      	movs	r2, #0
 8007e10:	4287      	cmp	r7, r0
 8007e12:	bf94      	ite	ls
 8007e14:	462b      	movls	r3, r5
 8007e16:	1c6b      	addhi	r3, r5, #1
 8007e18:	1816      	adds	r6, r2, r0
 8007e1a:	f143 0700 	adc.w	r7, r3, #0
 8007e1e:	e7d4      	b.n	8007dca <system__bb__time__update_alarm+0x36>
 8007e20:	200000c4 	.word	0x200000c4
 8007e24:	200000b8 	.word	0x200000b8
 8007e28:	200000b0 	.word	0x200000b0

08007e2c <system__bb__time__delay_until>:
 8007e2c:	e92d 47f0 	stmdb	sp!, {r4, r5, r6, r7, r8, r9, sl, lr}
 8007e30:	4680      	mov	r8, r0
 8007e32:	4689      	mov	r9, r1
 8007e34:	b672      	cpsid	i
 8007e36:	4e30      	ldr	r6, [pc, #192]	; (8007ef8 <system__bb__time__delay_until+0xcc>)
 8007e38:	2400      	movs	r4, #0
 8007e3a:	6835      	ldr	r5, [r6, #0]
 8007e3c:	6877      	ldr	r7, [r6, #4]
 8007e3e:	f7ff fb7d 	bl	800753c <system__bb__board_support__time__read_clock>
 8007e42:	6833      	ldr	r3, [r6, #0]
 8007e44:	429d      	cmp	r5, r3
 8007e46:	eba5 020a 	sub.w	r2, r5, sl
 8007e4a:	f104 0401 	add.w	r4, r4, #1
 8007e4e:	d044      	beq.n	8007eda <system__bb__time__delay_until+0xae>
 8007e50:	2c01      	cmp	r4, #1
 8007e52:	d039      	beq.n	8007ec8 <system__bb__time__delay_until+0x9c>
 8007e54:	2a01      	cmp	r2, #1
 8007e56:	d803      	bhi.n	8007e60 <system__bb__time__delay_until+0x34>
 8007e58:	2c03      	cmp	r4, #3
 8007e5a:	d001      	beq.n	8007e60 <system__bb__time__delay_until+0x34>
 8007e5c:	2402      	movs	r4, #2
 8007e5e:	e7ec      	b.n	8007e3a <system__bb__time__delay_until+0xe>
 8007e60:	2600      	movs	r6, #0
 8007e62:	462f      	mov	r7, r5
 8007e64:	4b25      	ldr	r3, [pc, #148]	; (8007efc <system__bb__time__delay_until+0xd0>)
 8007e66:	454f      	cmp	r7, r9
 8007e68:	bf08      	it	eq
 8007e6a:	4546      	cmpeq	r6, r8
 8007e6c:	681a      	ldr	r2, [r3, #0]
 8007e6e:	d22d      	bcs.n	8007ecc <system__bb__time__delay_until+0xa0>
 8007e70:	f992 302c 	ldrsb.w	r3, [r2, #44]	; 0x2c
 8007e74:	4c22      	ldr	r4, [pc, #136]	; (8007f00 <system__bb__time__delay_until+0xd4>)
 8007e76:	6c15      	ldr	r5, [r2, #64]	; 0x40
 8007e78:	2b00      	cmp	r3, #0
 8007e7a:	bf08      	it	eq
 8007e7c:	2301      	moveq	r3, #1
 8007e7e:	2602      	movs	r6, #2
 8007e80:	f103 4380 	add.w	r3, r3, #1073741824	; 0x40000000
 8007e84:	3b01      	subs	r3, #1
 8007e86:	f882 6054 	strb.w	r6, [r2, #84]	; 0x54
 8007e8a:	2600      	movs	r6, #0
 8007e8c:	4640      	mov	r0, r8
 8007e8e:	4649      	mov	r1, r9
 8007e90:	6416      	str	r6, [r2, #64]	; 0x40
 8007e92:	f844 5023 	str.w	r5, [r4, r3, lsl #2]
 8007e96:	f7ff fd75 	bl	8007984 <system__bb__threads__queues__insert_alarm>
 8007e9a:	b188      	cbz	r0, 8007ec0 <system__bb__time__delay_until+0x94>
 8007e9c:	4b19      	ldr	r3, [pc, #100]	; (8007f04 <system__bb__time__delay_until+0xd8>)
 8007e9e:	681b      	ldr	r3, [r3, #0]
 8007ea0:	b323      	cbz	r3, 8007eec <system__bb__time__delay_until+0xc0>
 8007ea2:	e9d3 0112 	ldrd	r0, r1, [r3, #72]	; 0x48
 8007ea6:	4b18      	ldr	r3, [pc, #96]	; (8007f08 <system__bb__time__delay_until+0xdc>)
 8007ea8:	681b      	ldr	r3, [r3, #0]
 8007eaa:	b13b      	cbz	r3, 8007ebc <system__bb__time__delay_until+0x90>
 8007eac:	e9d3 2302 	ldrd	r2, r3, [r3, #8]
 8007eb0:	428b      	cmp	r3, r1
 8007eb2:	bf08      	it	eq
 8007eb4:	4282      	cmpeq	r2, r0
 8007eb6:	bf3c      	itt	cc
 8007eb8:	4610      	movcc	r0, r2
 8007eba:	4619      	movcc	r1, r3
 8007ebc:	f7ff ff6a 	bl	8007d94 <system__bb__time__update_alarm>
 8007ec0:	e8bd 47f0 	ldmia.w	sp!, {r4, r5, r6, r7, r8, r9, sl, lr}
 8007ec4:	f000 b93a 	b.w	800813c <system__bb__protection__leave_kernel>
 8007ec8:	46aa      	mov	sl, r5
 8007eca:	e7b6      	b.n	8007e3a <system__bb__time__delay_until+0xe>
 8007ecc:	4610      	mov	r0, r2
 8007ece:	f7ff fdff 	bl	8007ad0 <system__bb__threads__queues__yield>
 8007ed2:	e8bd 47f0 	ldmia.w	sp!, {r4, r5, r6, r7, r8, r9, sl, lr}
 8007ed6:	f000 b931 	b.w	800813c <system__bb__protection__leave_kernel>
 8007eda:	2200      	movs	r2, #0
 8007edc:	4287      	cmp	r7, r0
 8007ede:	bf94      	ite	ls
 8007ee0:	462b      	movls	r3, r5
 8007ee2:	1c6b      	addhi	r3, r5, #1
 8007ee4:	1816      	adds	r6, r2, r0
 8007ee6:	f143 0700 	adc.w	r7, r3, #0
 8007eea:	e7bb      	b.n	8007e64 <system__bb__time__delay_until+0x38>
 8007eec:	f04f 30ff 	mov.w	r0, #4294967295	; 0xffffffff
 8007ef0:	f04f 31ff 	mov.w	r1, #4294967295	; 0xffffffff
 8007ef4:	e7d7      	b.n	8007ea6 <system__bb__time__delay_until+0x7a>
 8007ef6:	bf00      	nop
 8007ef8:	200000c4 	.word	0x200000c4
 8007efc:	20000094 	.word	0x20000094
 8007f00:	20000098 	.word	0x20000098
 8007f04:	2000009c 	.word	0x2000009c
 8007f08:	200000a8 	.word	0x200000a8

08007f0c <system__bb__time__alarm_handler>:
 8007f0c:	e92d 43f8 	stmdb	sp!, {r3, r4, r5, r6, r7, r8, r9, lr}
 8007f10:	4b26      	ldr	r3, [pc, #152]	; (8007fac <system__bb__time__alarm_handler+0xa0>)
 8007f12:	f04f 7200 	mov.w	r2, #33554432	; 0x2000000
 8007f16:	601a      	str	r2, [r3, #0]
 8007f18:	b672      	cpsid	i
 8007f1a:	4b25      	ldr	r3, [pc, #148]	; (8007fb0 <system__bb__time__alarm_handler+0xa4>)
 8007f1c:	4c25      	ldr	r4, [pc, #148]	; (8007fb4 <system__bb__time__alarm_handler+0xa8>)
 8007f1e:	f04f 30ff 	mov.w	r0, #4294967295	; 0xffffffff
 8007f22:	f04f 31ff 	mov.w	r1, #4294967295	; 0xffffffff
 8007f26:	e9c3 0100 	strd	r0, r1, [r3]
 8007f2a:	6826      	ldr	r6, [r4, #0]
 8007f2c:	6865      	ldr	r5, [r4, #4]
 8007f2e:	f7ff fb05 	bl	800753c <system__bb__board_support__time__read_clock>
 8007f32:	4285      	cmp	r5, r0
 8007f34:	d833      	bhi.n	8007f9e <system__bb__time__alarm_handler+0x92>
 8007f36:	6060      	str	r0, [r4, #4]
 8007f38:	4b1f      	ldr	r3, [pc, #124]	; (8007fb8 <system__bb__time__alarm_handler+0xac>)
 8007f3a:	4635      	mov	r5, r6
 8007f3c:	2400      	movs	r4, #0
 8007f3e:	e9d3 6700 	ldrd	r6, r7, [r3]
 8007f42:	eb14 0800 	adds.w	r8, r4, r0
 8007f46:	f145 0900 	adc.w	r9, r5, #0
 8007f4a:	4640      	mov	r0, r8
 8007f4c:	eb16 0408 	adds.w	r4, r6, r8
 8007f50:	4649      	mov	r1, r9
 8007f52:	eb47 0509 	adc.w	r5, r7, r9
 8007f56:	f7ff fe71 	bl	8007c3c <system__bb__timing_events__execute_expired_timing_events>
 8007f5a:	4640      	mov	r0, r8
 8007f5c:	4649      	mov	r1, r9
 8007f5e:	f7ff fd3d 	bl	80079dc <system__bb__threads__queues__wakeup_expired_alarms>
 8007f62:	4b16      	ldr	r3, [pc, #88]	; (8007fbc <system__bb__time__alarm_handler+0xb0>)
 8007f64:	681b      	ldr	r3, [r3, #0]
 8007f66:	b13b      	cbz	r3, 8007f78 <system__bb__time__alarm_handler+0x6c>
 8007f68:	e9d3 2312 	ldrd	r2, r3, [r3, #72]	; 0x48
 8007f6c:	42ab      	cmp	r3, r5
 8007f6e:	bf08      	it	eq
 8007f70:	42a2      	cmpeq	r2, r4
 8007f72:	bf3c      	itt	cc
 8007f74:	4614      	movcc	r4, r2
 8007f76:	461d      	movcc	r5, r3
 8007f78:	4b11      	ldr	r3, [pc, #68]	; (8007fc0 <system__bb__time__alarm_handler+0xb4>)
 8007f7a:	681b      	ldr	r3, [r3, #0]
 8007f7c:	b13b      	cbz	r3, 8007f8e <system__bb__time__alarm_handler+0x82>
 8007f7e:	e9d3 2302 	ldrd	r2, r3, [r3, #8]
 8007f82:	42ab      	cmp	r3, r5
 8007f84:	bf08      	it	eq
 8007f86:	42a2      	cmpeq	r2, r4
 8007f88:	bf3c      	itt	cc
 8007f8a:	4614      	movcc	r4, r2
 8007f8c:	461d      	movcc	r5, r3
 8007f8e:	4620      	mov	r0, r4
 8007f90:	4629      	mov	r1, r5
 8007f92:	f7ff feff 	bl	8007d94 <system__bb__time__update_alarm>
 8007f96:	e8bd 43f8 	ldmia.w	sp!, {r3, r4, r5, r6, r7, r8, r9, lr}
 8007f9a:	f000 b8cf 	b.w	800813c <system__bb__protection__leave_kernel>
 8007f9e:	3601      	adds	r6, #1
 8007fa0:	2300      	movs	r3, #0
 8007fa2:	6023      	str	r3, [r4, #0]
 8007fa4:	6060      	str	r0, [r4, #4]
 8007fa6:	6026      	str	r6, [r4, #0]
 8007fa8:	e7c6      	b.n	8007f38 <system__bb__time__alarm_handler+0x2c>
 8007faa:	bf00      	nop
 8007fac:	e000ed04 	.word	0xe000ed04
 8007fb0:	200000b8 	.word	0x200000b8
 8007fb4:	200000c4 	.word	0x200000c4
 8007fb8:	200000b0 	.word	0x200000b0
 8007fbc:	2000009c 	.word	0x2000009c
 8007fc0:	200000a8 	.word	0x200000a8

08007fc4 <__gnat_get_secondary_stack>:
 8007fc4:	4b02      	ldr	r3, [pc, #8]	; (8007fd0 <__gnat_get_secondary_stack+0xc>)
 8007fc6:	681b      	ldr	r3, [r3, #0]
 8007fc8:	6a9b      	ldr	r3, [r3, #40]	; 0x28
 8007fca:	f8d3 0098 	ldr.w	r0, [r3, #152]	; 0x98
 8007fce:	4770      	bx	lr
 8007fd0:	20000094 	.word	0x20000094

08007fd4 <system__tasking__initialize_atcb>:
 8007fd4:	b5f8      	push	{r3, r4, r5, r6, r7, lr}
 8007fd6:	9c09      	ldr	r4, [sp, #36]	; 0x24
 8007fd8:	f89d 7018 	ldrb.w	r7, [sp, #24]
 8007fdc:	9e07      	ldr	r6, [sp, #28]
 8007fde:	2500      	movs	r5, #0
 8007fe0:	7225      	strb	r5, [r4, #8]
 8007fe2:	60e2      	str	r2, [r4, #12]
 8007fe4:	7263      	strb	r3, [r4, #9]
 8007fe6:	6125      	str	r5, [r4, #16]
 8007fe8:	e9c4 1022 	strd	r1, r0, [r4, #136]	; 0x88
 8007fec:	f884 7248 	strb.w	r7, [r4, #584]	; 0x248
 8007ff0:	f8c4 6090 	str.w	r6, [r4, #144]	; 0x90
 8007ff4:	9808      	ldr	r0, [sp, #32]
 8007ff6:	f002 fa01 	bl	800a3fc <system__parameters__adjust_storage_size>
 8007ffa:	f8c4 0094 	str.w	r0, [r4, #148]	; 0x94
 8007ffe:	2001      	movs	r0, #1
 8008000:	bdf8      	pop	{r3, r4, r5, r6, r7, pc}
 8008002:	bf00      	nop

08008004 <system__tasking__initialize>:
 8008004:	4b3d      	ldr	r3, [pc, #244]	; (80080fc <system__tasking__initialize+0xf8>)
 8008006:	781a      	ldrb	r2, [r3, #0]
 8008008:	2a00      	cmp	r2, #0
 800800a:	d16d      	bne.n	80080e8 <system__tasking__initialize+0xe4>
 800800c:	b5f0      	push	{r4, r5, r6, r7, lr}
 800800e:	4a3c      	ldr	r2, [pc, #240]	; (8008100 <system__tasking__initialize+0xfc>)
 8008010:	4c3c      	ldr	r4, [pc, #240]	; (8008104 <system__tasking__initialize+0x100>)
 8008012:	6811      	ldr	r1, [r2, #0]
 8008014:	b085      	sub	sp, #20
 8008016:	2001      	movs	r0, #1
 8008018:	7018      	strb	r0, [r3, #0]
 800801a:	3101      	adds	r1, #1
 800801c:	f04f 0500 	mov.w	r5, #0
 8008020:	f04f 0302 	mov.w	r3, #2
 8008024:	bf18      	it	ne
 8008026:	6812      	ldrne	r2, [r2, #0]
 8008028:	9300      	str	r3, [sp, #0]
 800802a:	bf08      	it	eq
 800802c:	2278      	moveq	r2, #120	; 0x78
 800802e:	4629      	mov	r1, r5
 8008030:	2301      	movs	r3, #1
 8008032:	9403      	str	r4, [sp, #12]
 8008034:	e9cd 5501 	strd	r5, r5, [sp, #4]
 8008038:	4628      	mov	r0, r5
 800803a:	f7ff ffcb 	bl	8007fd4 <system__tasking__initialize_atcb>
 800803e:	f104 0318 	add.w	r3, r4, #24
 8008042:	f8c4 3080 	str.w	r3, [r4, #128]	; 0x80
 8008046:	68e1      	ldr	r1, [r4, #12]
 8008048:	f8d4 0080 	ldr.w	r0, [r4, #128]	; 0x80
 800804c:	f8c4 5244 	str.w	r5, [r4, #580]	; 0x244
 8008050:	f000 f8a4 	bl	800819c <system__bb__threads__initialize>
 8008054:	4b2c      	ldr	r3, [pc, #176]	; (8008108 <system__tasking__initialize+0x104>)
 8008056:	f8d4 1080 	ldr.w	r1, [r4, #128]	; 0x80
 800805a:	681a      	ldr	r2, [r3, #0]
 800805c:	628c      	str	r4, [r1, #40]	; 0x28
 800805e:	f8c4 5084 	str.w	r5, [r4, #132]	; 0x84
 8008062:	2a00      	cmp	r2, #0
 8008064:	d041      	beq.n	80080ea <system__tasking__initialize+0xe6>
 8008066:	f8c2 4244 	str.w	r4, [r2, #580]	; 0x244
 800806a:	601c      	str	r4, [r3, #0]
 800806c:	b672      	cpsid	i
 800806e:	4b27      	ldr	r3, [pc, #156]	; (800810c <system__tasking__initialize+0x108>)
 8008070:	68e1      	ldr	r1, [r4, #12]
 8008072:	6818      	ldr	r0, [r3, #0]
 8008074:	4e26      	ldr	r6, [pc, #152]	; (8008110 <system__tasking__initialize+0x10c>)
 8008076:	f7ff fc4d 	bl	8007914 <system__bb__threads__queues__change_priority>
 800807a:	f000 f85f 	bl	800813c <system__bb__protection__leave_kernel>
 800807e:	4925      	ldr	r1, [pc, #148]	; (8008114 <system__tasking__initialize+0x110>)
 8008080:	4b25      	ldr	r3, [pc, #148]	; (8008118 <system__tasking__initialize+0x114>)
 8008082:	4a26      	ldr	r2, [pc, #152]	; (800811c <system__tasking__initialize+0x118>)
 8008084:	601a      	str	r2, [r3, #0]
 8008086:	2001      	movs	r0, #1
 8008088:	4635      	mov	r5, r6
 800808a:	600c      	str	r4, [r1, #0]
 800808c:	f000 f9f8 	bl	8008480 <system__task_primitives__operations__initialize_idle>
 8008090:	f1a6 0368 	sub.w	r3, r6, #104	; 0x68
 8008094:	6033      	str	r3, [r6, #0]
 8008096:	f855 0980 	ldr.w	r0, [r5], #-128
 800809a:	4921      	ldr	r1, [pc, #132]	; (8008120 <system__tasking__initialize+0x11c>)
 800809c:	e9d5 3224 	ldrd	r3, r2, [r5, #144]	; 0x90
 80080a0:	2701      	movs	r7, #1
 80080a2:	9202      	str	r2, [sp, #8]
 80080a4:	9301      	str	r3, [sp, #4]
 80080a6:	462a      	mov	r2, r5
 80080a8:	f04f 33ff 	mov.w	r3, #4294967295	; 0xffffffff
 80080ac:	9700      	str	r7, [sp, #0]
 80080ae:	f000 f93f 	bl	8008330 <system__bb__threads__thread_create>
 80080b2:	6833      	ldr	r3, [r6, #0]
 80080b4:	2600      	movs	r6, #0
 80080b6:	629d      	str	r5, [r3, #40]	; 0x28
 80080b8:	f04f 4100 	mov.w	r1, #2147483648	; 0x80000000
 80080bc:	7227      	strb	r7, [r4, #8]
 80080be:	4630      	mov	r0, r6
 80080c0:	f8c4 4250 	str.w	r4, [r4, #592]	; 0x250
 80080c4:	f8c4 6098 	str.w	r6, [r4, #152]	; 0x98
 80080c8:	f002 fa12 	bl	800a4f0 <system__secondary_stack__ss_init>
 80080cc:	4a15      	ldr	r2, [pc, #84]	; (8008124 <system__tasking__initialize+0x120>)
 80080ce:	4b16      	ldr	r3, [pc, #88]	; (8008128 <system__tasking__initialize+0x124>)
 80080d0:	6811      	ldr	r1, [r2, #0]
 80080d2:	f8c4 0098 	str.w	r0, [r4, #152]	; 0x98
 80080d6:	3101      	adds	r1, #1
 80080d8:	e9c3 6600 	strd	r6, r6, [r3]
 80080dc:	d002      	beq.n	80080e4 <system__tasking__initialize+0xe0>
 80080de:	6813      	ldr	r3, [r2, #0]
 80080e0:	42bb      	cmp	r3, r7
 80080e2:	d105      	bne.n	80080f0 <system__tasking__initialize+0xec>
 80080e4:	b005      	add	sp, #20
 80080e6:	bdf0      	pop	{r4, r5, r6, r7, pc}
 80080e8:	4770      	bx	lr
 80080ea:	4a10      	ldr	r2, [pc, #64]	; (800812c <system__tasking__initialize+0x128>)
 80080ec:	6014      	str	r4, [r2, #0]
 80080ee:	e7bc      	b.n	800806a <system__tasking__initialize+0x66>
 80080f0:	490f      	ldr	r1, [pc, #60]	; (8008130 <system__tasking__initialize+0x12c>)
 80080f2:	4a10      	ldr	r2, [pc, #64]	; (8008134 <system__tasking__initialize+0x130>)
 80080f4:	4810      	ldr	r0, [pc, #64]	; (8008138 <system__tasking__initialize+0x134>)
 80080f6:	f000 ff47 	bl	8008f88 <__gnat_raise_exception>
 80080fa:	bf00      	nop
 80080fc:	200000dc 	.word	0x200000dc
 8008100:	200000d0 	.word	0x200000d0
 8008104:	20000dc0 	.word	0x20000dc0
 8008108:	200000e8 	.word	0x200000e8
 800810c:	20000094 	.word	0x20000094
 8008110:	200018b0 	.word	0x200018b0
 8008114:	200000e0 	.word	0x200000e0
 8008118:	20001028 	.word	0x20001028
 800811c:	20001830 	.word	0x20001830
 8008120:	0800846d 	.word	0x0800846d
 8008124:	200000cc 	.word	0x200000cc
 8008128:	200000d4 	.word	0x200000d4
 800812c:	200000e4 	.word	0x200000e4
 8008130:	0800dd58 	.word	0x0800dd58
 8008134:	0800dd50 	.word	0x0800dd50
 8008138:	20000224 	.word	0x20000224

0800813c <system__bb__protection__leave_kernel>:
 800813c:	b538      	push	{r3, r4, r5, lr}
 800813e:	4d13      	ldr	r5, [pc, #76]	; (800818c <system__bb__protection__leave_kernel+0x50>)
 8008140:	4c13      	ldr	r4, [pc, #76]	; (8008190 <system__bb__protection__leave_kernel+0x54>)
 8008142:	682a      	ldr	r2, [r5, #0]
 8008144:	6823      	ldr	r3, [r4, #0]
 8008146:	429a      	cmp	r2, r3
 8008148:	d007      	beq.n	800815a <system__bb__protection__leave_kernel+0x1e>
 800814a:	4b12      	ldr	r3, [pc, #72]	; (8008194 <system__bb__protection__leave_kernel+0x58>)
 800814c:	681b      	ldr	r3, [r3, #0]
 800814e:	b103      	cbz	r3, 8008152 <system__bb__protection__leave_kernel+0x16>
 8008150:	4798      	blx	r3
 8008152:	4b11      	ldr	r3, [pc, #68]	; (8008198 <system__bb__protection__leave_kernel+0x5c>)
 8008154:	682a      	ldr	r2, [r5, #0]
 8008156:	781b      	ldrb	r3, [r3, #0]
 8008158:	b193      	cbz	r3, 8008180 <system__bb__protection__leave_kernel+0x44>
 800815a:	6823      	ldr	r3, [r4, #0]
 800815c:	6b5b      	ldr	r3, [r3, #52]	; 0x34
 800815e:	f1a3 02f1 	sub.w	r2, r3, #241	; 0xf1
 8008162:	2a0e      	cmp	r2, #14
 8008164:	bf9d      	ittte	ls
 8008166:	ebc3 1303 	rsbls	r3, r3, r3, lsl #4
 800816a:	011b      	lslls	r3, r3, #4
 800816c:	b2db      	uxtbls	r3, r3
 800816e:	2300      	movhi	r3, #0
 8008170:	f383 8811 	msr	BASEPRI, r3
 8008174:	b662      	cpsie	i
 8008176:	f3bf 8f4f 	dsb	sy
 800817a:	f3bf 8f6f 	isb	sy
 800817e:	bd38      	pop	{r3, r4, r5, pc}
 8008180:	2a00      	cmp	r2, #0
 8008182:	d0ea      	beq.n	800815a <system__bb__protection__leave_kernel+0x1e>
 8008184:	f001 fc90 	bl	8009aa8 <system__bb__cpu_primitives__context_switch_trigger__trigger_context_switch>
 8008188:	e7e7      	b.n	800815a <system__bb__protection__leave_kernel+0x1e>
 800818a:	bf00      	nop
 800818c:	20000098 	.word	0x20000098
 8008190:	20000094 	.word	0x20000094
 8008194:	200000c0 	.word	0x200000c0
 8008198:	2000008e 	.word	0x2000008e

0800819c <system__bb__threads__initialize>:
 800819c:	b5f8      	push	{r3, r4, r5, r6, r7, lr}
 800819e:	4604      	mov	r4, r0
 80081a0:	460d      	mov	r5, r1
 80081a2:	f7ff fbaf 	bl	8007904 <system__bb__interrupts__initialize_interrupts>
 80081a6:	f3ef 8008 	mrs	r0, MSP
 80081aa:	f380 8809 	msr	PSP, r0
 80081ae:	f3ef 8014 	mrs	r0, CONTROL
 80081b2:	2102      	movs	r1, #2
 80081b4:	ea40 0001 	orr.w	r0, r0, r1
 80081b8:	f380 8814 	msr	CONTROL, r0
 80081bc:	f3ef 8014 	mrs	r0, CONTROL
 80081c0:	4b3a      	ldr	r3, [pc, #232]	; (80082ac <system__bb__threads__initialize+0x110>)
 80081c2:	681b      	ldr	r3, [r3, #0]
 80081c4:	f383 8808 	msr	MSP, r3
 80081c8:	4b39      	ldr	r3, [pc, #228]	; (80082b0 <system__bb__threads__initialize+0x114>)
 80081ca:	4a3a      	ldr	r2, [pc, #232]	; (80082b4 <system__bb__threads__initialize+0x118>)
 80081cc:	493a      	ldr	r1, [pc, #232]	; (80082b8 <system__bb__threads__initialize+0x11c>)
 80081ce:	6019      	str	r1, [r3, #0]
 80081d0:	6813      	ldr	r3, [r2, #0]
 80081d2:	493a      	ldr	r1, [pc, #232]	; (80082bc <system__bb__threads__initialize+0x120>)
 80081d4:	483a      	ldr	r0, [pc, #232]	; (80082c0 <system__bb__threads__initialize+0x124>)
 80081d6:	4e3b      	ldr	r6, [pc, #236]	; (80082c4 <system__bb__threads__initialize+0x128>)
 80081d8:	f443 7304 	orr.w	r3, r3, #528	; 0x210
 80081dc:	f043 0301 	orr.w	r3, r3, #1
 80081e0:	6013      	str	r3, [r2, #0]
 80081e2:	2300      	movs	r3, #0
 80081e4:	f44f 027f 	mov.w	r2, #16711680	; 0xff0000
 80081e8:	600b      	str	r3, [r1, #0]
 80081ea:	6033      	str	r3, [r6, #0]
 80081ec:	6002      	str	r2, [r0, #0]
 80081ee:	4b36      	ldr	r3, [pc, #216]	; (80082c8 <system__bb__threads__initialize+0x12c>)
 80081f0:	4a36      	ldr	r2, [pc, #216]	; (80082cc <system__bb__threads__initialize+0x130>)
 80081f2:	f841 3c0c 	str.w	r3, [r1, #-12]
 80081f6:	6813      	ldr	r3, [r2, #0]
 80081f8:	f443 23e0 	orr.w	r3, r3, #458752	; 0x70000
 80081fc:	6013      	str	r3, [r2, #0]
 80081fe:	f001 fc51 	bl	8009aa4 <system__bb__cpu_primitives__context_switch_trigger__initialize_context_switch>
 8008202:	b661      	cpsie	f
 8008204:	f7ff f9f4 	bl	80075f0 <system__bb__board_support__initialize_board>
 8008208:	f7ff fd7a 	bl	8007d00 <system__bb__time__initialize_timers>
 800820c:	b672      	cpsid	i
 800820e:	4b30      	ldr	r3, [pc, #192]	; (80082d0 <system__bb__threads__initialize+0x134>)
 8008210:	6365      	str	r5, [r4, #52]	; 0x34
 8008212:	4a30      	ldr	r2, [pc, #192]	; (80082d4 <system__bb__threads__initialize+0x138>)
 8008214:	6819      	ldr	r1, [r3, #0]
 8008216:	6810      	ldr	r0, [r2, #0]
 8008218:	6325      	str	r5, [r4, #48]	; 0x30
 800821a:	428c      	cmp	r4, r1
 800821c:	f04f 0501 	mov.w	r5, #1
 8008220:	f884 502c 	strb.w	r5, [r4, #44]	; 0x2c
 8008224:	65a0      	str	r0, [r4, #88]	; 0x58
 8008226:	6014      	str	r4, [r2, #0]
 8008228:	4d2b      	ldr	r5, [pc, #172]	; (80082d8 <system__bb__threads__initialize+0x13c>)
 800822a:	4e2c      	ldr	r6, [pc, #176]	; (80082dc <system__bb__threads__initialize+0x140>)
 800822c:	d014      	beq.n	8008258 <system__bb__threads__initialize+0xbc>
 800822e:	681a      	ldr	r2, [r3, #0]
 8008230:	b36a      	cbz	r2, 800828e <system__bb__threads__initialize+0xf2>
 8008232:	6b61      	ldr	r1, [r4, #52]	; 0x34
 8008234:	681a      	ldr	r2, [r3, #0]
 8008236:	6b52      	ldr	r2, [r2, #52]	; 0x34
 8008238:	4291      	cmp	r1, r2
 800823a:	dc28      	bgt.n	800828e <system__bb__threads__initialize+0xf2>
 800823c:	681a      	ldr	r2, [r3, #0]
 800823e:	e006      	b.n	800824e <system__bb__threads__initialize+0xb2>
 8008240:	429c      	cmp	r4, r3
 8008242:	d028      	beq.n	8008296 <system__bb__threads__initialize+0xfa>
 8008244:	6b58      	ldr	r0, [r3, #52]	; 0x34
 8008246:	6b61      	ldr	r1, [r4, #52]	; 0x34
 8008248:	4288      	cmp	r0, r1
 800824a:	db03      	blt.n	8008254 <system__bb__threads__initialize+0xb8>
 800824c:	461a      	mov	r2, r3
 800824e:	6c13      	ldr	r3, [r2, #64]	; 0x40
 8008250:	2b00      	cmp	r3, #0
 8008252:	d1f5      	bne.n	8008240 <system__bb__threads__initialize+0xa4>
 8008254:	6423      	str	r3, [r4, #64]	; 0x40
 8008256:	6414      	str	r4, [r2, #64]	; 0x40
 8008258:	2300      	movs	r3, #0
 800825a:	4921      	ldr	r1, [pc, #132]	; (80082e0 <system__bb__threads__initialize+0x144>)
 800825c:	4a21      	ldr	r2, [pc, #132]	; (80082e4 <system__bb__threads__initialize+0x148>)
 800825e:	f884 3055 	strb.w	r3, [r4, #85]	; 0x55
 8008262:	e9c4 560e 	strd	r5, r6, [r4, #56]	; 0x38
 8008266:	f04f 37ff 	mov.w	r7, #4294967295	; 0xffffffff
 800826a:	f04f 36ff 	mov.w	r6, #4294967295	; 0xffffffff
 800826e:	f884 3054 	strb.w	r3, [r4, #84]	; 0x54
 8008272:	f884 3056 	strb.w	r3, [r4, #86]	; 0x56
 8008276:	6523      	str	r3, [r4, #80]	; 0x50
 8008278:	e9c4 3317 	strd	r3, r3, [r4, #92]	; 0x5c
 800827c:	2301      	movs	r3, #1
 800827e:	e9c4 6712 	strd	r6, r7, [r4, #72]	; 0x48
 8008282:	600c      	str	r4, [r1, #0]
 8008284:	7013      	strb	r3, [r2, #0]
 8008286:	e8bd 40f8 	ldmia.w	sp!, {r3, r4, r5, r6, r7, lr}
 800828a:	f7ff bf57 	b.w	800813c <system__bb__protection__leave_kernel>
 800828e:	681a      	ldr	r2, [r3, #0]
 8008290:	6422      	str	r2, [r4, #64]	; 0x40
 8008292:	601c      	str	r4, [r3, #0]
 8008294:	e7e0      	b.n	8008258 <system__bb__threads__initialize+0xbc>
 8008296:	6c23      	ldr	r3, [r4, #64]	; 0x40
 8008298:	6413      	str	r3, [r2, #64]	; 0x40
 800829a:	2b00      	cmp	r3, #0
 800829c:	d0da      	beq.n	8008254 <system__bb__threads__initialize+0xb8>
 800829e:	6b58      	ldr	r0, [r3, #52]	; 0x34
 80082a0:	6b61      	ldr	r1, [r4, #52]	; 0x34
 80082a2:	4288      	cmp	r0, r1
 80082a4:	dbd6      	blt.n	8008254 <system__bb__threads__initialize+0xb8>
 80082a6:	461a      	mov	r2, r3
 80082a8:	6c1b      	ldr	r3, [r3, #64]	; 0x40
 80082aa:	e7f6      	b.n	800829a <system__bb__threads__initialize+0xfe>
 80082ac:	20000c08 	.word	0x20000c08
 80082b0:	e000ed08 	.word	0xe000ed08
 80082b4:	e000ed14 	.word	0xe000ed14
 80082b8:	08009400 	.word	0x08009400
 80082bc:	e000ed18 	.word	0xe000ed18
 80082c0:	e000ed20 	.word	0xe000ed20
 80082c4:	e000ed1c 	.word	0xe000ed1c
 80082c8:	05fa0300 	.word	0x05fa0300
 80082cc:	e000ed24 	.word	0xe000ed24
 80082d0:	20000098 	.word	0x20000098
 80082d4:	200000a0 	.word	0x200000a0
 80082d8:	200127e8 	.word	0x200127e8
 80082dc:	200027e8 	.word	0x200027e8
 80082e0:	20000094 	.word	0x20000094
 80082e4:	200000dd 	.word	0x200000dd

080082e8 <system__bb__threads__sleep>:
 80082e8:	4b0f      	ldr	r3, [pc, #60]	; (8008328 <system__bb__threads__sleep+0x40>)
 80082ea:	681a      	ldr	r2, [r3, #0]
 80082ec:	b672      	cpsid	i
 80082ee:	f892 1056 	ldrb.w	r1, [r2, #86]	; 0x56
 80082f2:	b9a1      	cbnz	r1, 800831e <system__bb__threads__sleep+0x36>
 80082f4:	f992 302c 	ldrsb.w	r3, [r2, #44]	; 0x2c
 80082f8:	480c      	ldr	r0, [pc, #48]	; (800832c <system__bb__threads__sleep+0x44>)
 80082fa:	2b00      	cmp	r3, #0
 80082fc:	bf08      	it	eq
 80082fe:	2301      	moveq	r3, #1
 8008300:	f103 4380 	add.w	r3, r3, #1073741824	; 0x40000000
 8008304:	3b01      	subs	r3, #1
 8008306:	b410      	push	{r4}
 8008308:	6c14      	ldr	r4, [r2, #64]	; 0x40
 800830a:	6411      	str	r1, [r2, #64]	; 0x40
 800830c:	2101      	movs	r1, #1
 800830e:	f840 4023 	str.w	r4, [r0, r3, lsl #2]
 8008312:	f882 1054 	strb.w	r1, [r2, #84]	; 0x54
 8008316:	f85d 4b04 	ldr.w	r4, [sp], #4
 800831a:	f7ff bf0f 	b.w	800813c <system__bb__protection__leave_kernel>
 800831e:	2300      	movs	r3, #0
 8008320:	f882 3056 	strb.w	r3, [r2, #86]	; 0x56
 8008324:	f7ff bf0a 	b.w	800813c <system__bb__protection__leave_kernel>
 8008328:	20000094 	.word	0x20000094
 800832c:	20000098 	.word	0x20000098

08008330 <system__bb__threads__thread_create>:
 8008330:	e92d 41f0 	stmdb	sp!, {r4, r5, r6, r7, r8, lr}
 8008334:	b088      	sub	sp, #32
 8008336:	e9dd c50f 	ldrd	ip, r5, [sp, #60]	; 0x3c
 800833a:	f99d 4038 	ldrsb.w	r4, [sp, #56]	; 0x38
 800833e:	b672      	cpsid	i
 8008340:	2c00      	cmp	r4, #0
 8008342:	f880 402c 	strb.w	r4, [r0, #44]	; 0x2c
 8008346:	bf08      	it	eq
 8008348:	2401      	moveq	r4, #1
 800834a:	4f37      	ldr	r7, [pc, #220]	; (8008428 <system__bb__threads__thread_create+0xf8>)
 800834c:	4e37      	ldr	r6, [pc, #220]	; (800842c <system__bb__threads__thread_create+0xfc>)
 800834e:	6343      	str	r3, [r0, #52]	; 0x34
 8008350:	f104 4480 	add.w	r4, r4, #1073741824	; 0x40000000
 8008354:	3c01      	subs	r4, #1
 8008356:	6303      	str	r3, [r0, #48]	; 0x30
 8008358:	683b      	ldr	r3, [r7, #0]
 800835a:	6583      	str	r3, [r0, #88]	; 0x58
 800835c:	f856 3024 	ldr.w	r3, [r6, r4, lsl #2]
 8008360:	6038      	str	r0, [r7, #0]
 8008362:	4465      	add	r5, ip
 8008364:	4298      	cmp	r0, r3
 8008366:	f025 0507 	bic.w	r5, r5, #7
 800836a:	d018      	beq.n	800839e <system__bb__threads__thread_create+0x6e>
 800836c:	f856 3024 	ldr.w	r3, [r6, r4, lsl #2]
 8008370:	2b00      	cmp	r3, #0
 8008372:	d047      	beq.n	8008404 <system__bb__threads__thread_create+0xd4>
 8008374:	6b47      	ldr	r7, [r0, #52]	; 0x34
 8008376:	f856 3024 	ldr.w	r3, [r6, r4, lsl #2]
 800837a:	6b5b      	ldr	r3, [r3, #52]	; 0x34
 800837c:	429f      	cmp	r7, r3
 800837e:	dc41      	bgt.n	8008404 <system__bb__threads__thread_create+0xd4>
 8008380:	f856 4024 	ldr.w	r4, [r6, r4, lsl #2]
 8008384:	e006      	b.n	8008394 <system__bb__threads__thread_create+0x64>
 8008386:	4298      	cmp	r0, r3
 8008388:	d042      	beq.n	8008410 <system__bb__threads__thread_create+0xe0>
 800838a:	6b5f      	ldr	r7, [r3, #52]	; 0x34
 800838c:	6b46      	ldr	r6, [r0, #52]	; 0x34
 800838e:	42b7      	cmp	r7, r6
 8008390:	db03      	blt.n	800839a <system__bb__threads__thread_create+0x6a>
 8008392:	461c      	mov	r4, r3
 8008394:	6c23      	ldr	r3, [r4, #64]	; 0x40
 8008396:	2b00      	cmp	r3, #0
 8008398:	d1f5      	bne.n	8008386 <system__bb__threads__thread_create+0x56>
 800839a:	6403      	str	r3, [r0, #64]	; 0x40
 800839c:	6420      	str	r0, [r4, #64]	; 0x40
 800839e:	2400      	movs	r4, #0
 80083a0:	f04f 36ff 	mov.w	r6, #4294967295	; 0xffffffff
 80083a4:	f04f 37ff 	mov.w	r7, #4294967295	; 0xffffffff
 80083a8:	e9c0 5c0e 	strd	r5, ip, [r0, #56]	; 0x38
 80083ac:	f880 4054 	strb.w	r4, [r0, #84]	; 0x54
 80083b0:	f880 4055 	strb.w	r4, [r0, #85]	; 0x55
 80083b4:	f880 4056 	strb.w	r4, [r0, #86]	; 0x56
 80083b8:	6504      	str	r4, [r0, #80]	; 0x50
 80083ba:	e9c0 4417 	strd	r4, r4, [r0, #92]	; 0x5c
 80083be:	e9c0 6712 	strd	r6, r7, [r0, #72]	; 0x48
 80083c2:	b1d1      	cbz	r1, 80083fa <system__bb__threads__thread_create+0xca>
 80083c4:	f04f 7380 	mov.w	r3, #16777216	; 0x1000000
 80083c8:	e9cd 4404 	strd	r4, r4, [sp, #16]
 80083cc:	e9cd 1306 	strd	r1, r3, [sp, #24]
 80083d0:	e9cd 2400 	strd	r2, r4, [sp]
 80083d4:	e9cd 4402 	strd	r4, r4, [sp, #8]
 80083d8:	466f      	mov	r7, sp
 80083da:	4680      	mov	r8, r0
 80083dc:	cf0f      	ldmia	r7!, {r0, r1, r2, r3}
 80083de:	3d20      	subs	r5, #32
 80083e0:	462e      	mov	r6, r5
 80083e2:	c60f      	stmia	r6!, {r0, r1, r2, r3}
 80083e4:	e897 000f 	ldmia.w	r7, {r0, r1, r2, r3}
 80083e8:	e886 000f 	stmia.w	r6, {r0, r1, r2, r3}
 80083ec:	4621      	mov	r1, r4
 80083ee:	2228      	movs	r2, #40	; 0x28
 80083f0:	4640      	mov	r0, r8
 80083f2:	f001 fff9 	bl	800a3e8 <memset>
 80083f6:	f8c8 5020 	str.w	r5, [r8, #32]
 80083fa:	b008      	add	sp, #32
 80083fc:	e8bd 41f0 	ldmia.w	sp!, {r4, r5, r6, r7, r8, lr}
 8008400:	f7ff be9c 	b.w	800813c <system__bb__protection__leave_kernel>
 8008404:	f856 3024 	ldr.w	r3, [r6, r4, lsl #2]
 8008408:	6403      	str	r3, [r0, #64]	; 0x40
 800840a:	f846 0024 	str.w	r0, [r6, r4, lsl #2]
 800840e:	e7c6      	b.n	800839e <system__bb__threads__thread_create+0x6e>
 8008410:	6c03      	ldr	r3, [r0, #64]	; 0x40
 8008412:	6423      	str	r3, [r4, #64]	; 0x40
 8008414:	2b00      	cmp	r3, #0
 8008416:	d0c0      	beq.n	800839a <system__bb__threads__thread_create+0x6a>
 8008418:	6b5f      	ldr	r7, [r3, #52]	; 0x34
 800841a:	6b46      	ldr	r6, [r0, #52]	; 0x34
 800841c:	42b7      	cmp	r7, r6
 800841e:	dbbc      	blt.n	800839a <system__bb__threads__thread_create+0x6a>
 8008420:	461c      	mov	r4, r3
 8008422:	6c1b      	ldr	r3, [r3, #64]	; 0x40
 8008424:	e7f6      	b.n	8008414 <system__bb__threads__thread_create+0xe4>
 8008426:	bf00      	nop
 8008428:	200000a0 	.word	0x200000a0
 800842c:	20000098 	.word	0x20000098

08008430 <system__task_primitives__operations__enter_task>:
 8008430:	b508      	push	{r3, lr}
 8008432:	4b0b      	ldr	r3, [pc, #44]	; (8008460 <system__task_primitives__operations__enter_task+0x30>)
 8008434:	681a      	ldr	r2, [r3, #0]
 8008436:	2100      	movs	r1, #0
 8008438:	f8c0 1084 	str.w	r1, [r0, #132]	; 0x84
 800843c:	b162      	cbz	r2, 8008458 <system__task_primitives__operations__enter_task+0x28>
 800843e:	f8c2 0244 	str.w	r0, [r2, #580]	; 0x244
 8008442:	6018      	str	r0, [r3, #0]
 8008444:	b672      	cpsid	i
 8008446:	4b07      	ldr	r3, [pc, #28]	; (8008464 <system__task_primitives__operations__enter_task+0x34>)
 8008448:	68c1      	ldr	r1, [r0, #12]
 800844a:	6818      	ldr	r0, [r3, #0]
 800844c:	f7ff fa62 	bl	8007914 <system__bb__threads__queues__change_priority>
 8008450:	e8bd 4008 	ldmia.w	sp!, {r3, lr}
 8008454:	f7ff be72 	b.w	800813c <system__bb__protection__leave_kernel>
 8008458:	4a03      	ldr	r2, [pc, #12]	; (8008468 <system__task_primitives__operations__enter_task+0x38>)
 800845a:	6010      	str	r0, [r2, #0]
 800845c:	e7f1      	b.n	8008442 <system__task_primitives__operations__enter_task+0x12>
 800845e:	bf00      	nop
 8008460:	200000e8 	.word	0x200000e8
 8008464:	20000094 	.word	0x20000094
 8008468:	200000e4 	.word	0x200000e4

0800846c <system__task_primitives__operations__idle>:
 800846c:	b508      	push	{r3, lr}
 800846e:	4b03      	ldr	r3, [pc, #12]	; (800847c <system__task_primitives__operations__idle+0x10>)
 8008470:	681b      	ldr	r3, [r3, #0]
 8008472:	6a98      	ldr	r0, [r3, #40]	; 0x28
 8008474:	f7ff ffdc 	bl	8008430 <system__task_primitives__operations__enter_task>
 8008478:	bf30      	wfi
 800847a:	e7fd      	b.n	8008478 <system__task_primitives__operations__idle+0xc>
 800847c:	20000094 	.word	0x20000094

08008480 <system__task_primitives__operations__initialize_idle>:
 8008480:	b5f0      	push	{r4, r5, r6, r7, lr}
 8008482:	4603      	mov	r3, r0
 8008484:	f44f 741a 	mov.w	r4, #616	; 0x268
 8008488:	4913      	ldr	r1, [pc, #76]	; (80084d8 <system__task_primitives__operations__initialize_idle+0x58>)
 800848a:	4d14      	ldr	r5, [pc, #80]	; (80084dc <system__task_primitives__operations__initialize_idle+0x5c>)
 800848c:	4a14      	ldr	r2, [pc, #80]	; (80084e0 <system__task_primitives__operations__initialize_idle+0x60>)
 800848e:	4815      	ldr	r0, [pc, #84]	; (80084e4 <system__task_primitives__operations__initialize_idle+0x64>)
 8008490:	fb04 f403 	mul.w	r4, r4, r3
 8008494:	b085      	sub	sp, #20
 8008496:	4419      	add	r1, r3
 8008498:	f5a4 761a 	sub.w	r6, r4, #616	; 0x268
 800849c:	442e      	add	r6, r5
 800849e:	eb02 22c1 	add.w	r2, r2, r1, lsl #11
 80084a2:	f44f 6700 	mov.w	r7, #2048	; 0x800
 80084a6:	2102      	movs	r1, #2
 80084a8:	e9cd 2701 	strd	r2, r7, [sp, #4]
 80084ac:	9100      	str	r1, [sp, #0]
 80084ae:	9603      	str	r6, [sp, #12]
 80084b0:	f04f 32ff 	mov.w	r2, #4294967295	; 0xffffffff
 80084b4:	2100      	movs	r1, #0
 80084b6:	f7ff fd8d 	bl	8007fd4 <system__tasking__initialize_atcb>
 80084ba:	192b      	adds	r3, r5, r4
 80084bc:	f5a3 70f4 	sub.w	r0, r3, #488	; 0x1e8
 80084c0:	f5a3 7218 	sub.w	r2, r3, #608	; 0x260
 80084c4:	f5a4 7414 	sub.w	r4, r4, #592	; 0x250
 80084c8:	442c      	add	r4, r5
 80084ca:	2101      	movs	r1, #1
 80084cc:	6004      	str	r4, [r0, #0]
 80084ce:	f843 6c18 	str.w	r6, [r3, #-24]
 80084d2:	7011      	strb	r1, [r2, #0]
 80084d4:	b005      	add	sp, #20
 80084d6:	bdf0      	pop	{r4, r5, r6, r7, pc}
 80084d8:	001fffff 	.word	0x001fffff
 80084dc:	20001830 	.word	0x20001830
 80084e0:	20001030 	.word	0x20001030
 80084e4:	0800846d 	.word	0x0800846d

080084e8 <ada__exceptions__exception_occurrenceIP>:
 80084e8:	2300      	movs	r3, #0
 80084ea:	6003      	str	r3, [r0, #0]
 80084ec:	6083      	str	r3, [r0, #8]
 80084ee:	f880 30d4 	strb.w	r3, [r0, #212]	; 0xd4
 80084f2:	f8c0 30d8 	str.w	r3, [r0, #216]	; 0xd8
 80084f6:	f8c0 30dc 	str.w	r3, [r0, #220]	; 0xdc
 80084fa:	4770      	bx	lr

080084fc <ada__exceptions__exception_data__append_info_addressXn>:
 80084fc:	b5f0      	push	{r4, r5, r6, r7, lr}
 80084fe:	b08b      	sub	sp, #44	; 0x2c
 8008500:	f10d 061e 	add.w	r6, sp, #30
 8008504:	2412      	movs	r4, #18
 8008506:	4f13      	ldr	r7, [pc, #76]	; (8008554 <ada__exceptions__exception_data__append_info_addressXn+0x58>)
 8008508:	e000      	b.n	800850c <ada__exceptions__exception_data__append_info_addressXn+0x10>
 800850a:	462c      	mov	r4, r5
 800850c:	f000 050f 	and.w	r5, r0, #15
 8008510:	5d7d      	ldrb	r5, [r7, r5]
 8008512:	f806 5d01 	strb.w	r5, [r6, #-1]!
 8008516:	1e65      	subs	r5, r4, #1
 8008518:	0900      	lsrs	r0, r0, #4
 800851a:	d1f6      	bne.n	800850a <ada__exceptions__exception_data__append_info_addressXn+0xe>
 800851c:	a80a      	add	r0, sp, #40	; 0x28
 800851e:	4405      	add	r5, r0
 8008520:	2030      	movs	r0, #48	; 0x30
 8008522:	f805 0c1e 	strb.w	r0, [r5, #-30]
 8008526:	2078      	movs	r0, #120	; 0x78
 8008528:	f805 0c1d 	strb.w	r0, [r5, #-29]
 800852c:	3c02      	subs	r4, #2
 800852e:	2c12      	cmp	r4, #18
 8008530:	bfd4      	ite	le
 8008532:	4620      	movle	r0, r4
 8008534:	2013      	movgt	r0, #19
 8008536:	ad0a      	add	r5, sp, #40	; 0x28
 8008538:	4428      	add	r0, r5
 800853a:	9408      	str	r4, [sp, #32]
 800853c:	2412      	movs	r4, #18
 800853e:	9409      	str	r4, [sp, #36]	; 0x24
 8008540:	9300      	str	r3, [sp, #0]
 8008542:	4613      	mov	r3, r2
 8008544:	460a      	mov	r2, r1
 8008546:	381d      	subs	r0, #29
 8008548:	a908      	add	r1, sp, #32
 800854a:	f000 f91d 	bl	8008788 <ada__exceptions__exception_data__append_info_stringXn>
 800854e:	b00b      	add	sp, #44	; 0x2c
 8008550:	bdf0      	pop	{r4, r5, r6, r7, pc}
 8008552:	bf00      	nop
 8008554:	0800e2cc 	.word	0x0800e2cc

08008558 <ada__exceptions__exception_data__append_info_basic_exception_informationXn>:
 8008558:	e92d 47f0 	stmdb	sp!, {r4, r5, r6, r7, r8, r9, sl, lr}
 800855c:	b086      	sub	sp, #24
 800855e:	af02      	add	r7, sp, #8
 8008560:	4604      	mov	r4, r0
 8008562:	4688      	mov	r8, r1
 8008564:	4691      	mov	r9, r2
 8008566:	461d      	mov	r5, r3
 8008568:	f000 fa04 	bl	8008974 <ada__exceptions__exception_data__exception_name_length__2Xn>
 800856c:	4606      	mov	r6, r0
 800856e:	1dc3      	adds	r3, r0, #7
 8008570:	f023 0307 	bic.w	r3, r3, #7
 8008574:	ebad 0d03 	sub.w	sp, sp, r3
 8008578:	f10d 0a08 	add.w	sl, sp, #8
 800857c:	2301      	movs	r3, #1
 800857e:	603b      	str	r3, [r7, #0]
 8008580:	6078      	str	r0, [r7, #4]
 8008582:	2300      	movs	r3, #0
 8008584:	4651      	mov	r1, sl
 8008586:	463a      	mov	r2, r7
 8008588:	4620      	mov	r0, r4
 800858a:	f000 f8cb 	bl	8008724 <ada__exceptions__exception_data__append_info_exception_name__2Xn>
 800858e:	f89d 3008 	ldrb.w	r3, [sp, #8]
 8008592:	2b5f      	cmp	r3, #95	; 0x5f
 8008594:	d107      	bne.n	80085a6 <ada__exceptions__exception_data__append_info_basic_exception_informationXn+0x4e>
 8008596:	f8d4 30d8 	ldr.w	r3, [r4, #216]	; 0xd8
 800859a:	bb8b      	cbnz	r3, 8008600 <ada__exceptions__exception_data__append_info_basic_exception_informationXn+0xa8>
 800859c:	4628      	mov	r0, r5
 800859e:	3710      	adds	r7, #16
 80085a0:	46bd      	mov	sp, r7
 80085a2:	e8bd 87f0 	ldmia.w	sp!, {r4, r5, r6, r7, r8, r9, sl, pc}
 80085a6:	9500      	str	r5, [sp, #0]
 80085a8:	4642      	mov	r2, r8
 80085aa:	464b      	mov	r3, r9
 80085ac:	481f      	ldr	r0, [pc, #124]	; (800862c <ada__exceptions__exception_data__append_info_basic_exception_informationXn+0xd4>)
 80085ae:	4920      	ldr	r1, [pc, #128]	; (8008630 <ada__exceptions__exception_data__append_info_basic_exception_informationXn+0xd8>)
 80085b0:	f000 f8ea 	bl	8008788 <ada__exceptions__exception_data__append_info_stringXn>
 80085b4:	2301      	movs	r3, #1
 80085b6:	60bb      	str	r3, [r7, #8]
 80085b8:	60fe      	str	r6, [r7, #12]
 80085ba:	9000      	str	r0, [sp, #0]
 80085bc:	4642      	mov	r2, r8
 80085be:	464b      	mov	r3, r9
 80085c0:	4650      	mov	r0, sl
 80085c2:	f107 0108 	add.w	r1, r7, #8
 80085c6:	f000 f8df 	bl	8008788 <ada__exceptions__exception_data__append_info_stringXn>
 80085ca:	4605      	mov	r5, r0
 80085cc:	4620      	mov	r0, r4
 80085ce:	f000 f9cb 	bl	8008968 <__gnat_exception_msg_len>
 80085d2:	b930      	cbnz	r0, 80085e2 <ada__exceptions__exception_data__append_info_basic_exception_informationXn+0x8a>
 80085d4:	462a      	mov	r2, r5
 80085d6:	4640      	mov	r0, r8
 80085d8:	4649      	mov	r1, r9
 80085da:	f000 f8cd 	bl	8008778 <ada__exceptions__exception_data__append_info_nlXn>
 80085de:	4605      	mov	r5, r0
 80085e0:	e7d9      	b.n	8008596 <ada__exceptions__exception_data__append_info_basic_exception_informationXn+0x3e>
 80085e2:	9500      	str	r5, [sp, #0]
 80085e4:	4642      	mov	r2, r8
 80085e6:	464b      	mov	r3, r9
 80085e8:	4812      	ldr	r0, [pc, #72]	; (8008634 <ada__exceptions__exception_data__append_info_basic_exception_informationXn+0xdc>)
 80085ea:	4913      	ldr	r1, [pc, #76]	; (8008638 <ada__exceptions__exception_data__append_info_basic_exception_informationXn+0xe0>)
 80085ec:	f000 f8cc 	bl	8008788 <ada__exceptions__exception_data__append_info_stringXn>
 80085f0:	4603      	mov	r3, r0
 80085f2:	4641      	mov	r1, r8
 80085f4:	464a      	mov	r2, r9
 80085f6:	4620      	mov	r0, r4
 80085f8:	f000 f836 	bl	8008668 <__gnat_append_info_e_msg>
 80085fc:	4605      	mov	r5, r0
 80085fe:	e7e9      	b.n	80085d4 <ada__exceptions__exception_data__append_info_basic_exception_informationXn+0x7c>
 8008600:	9500      	str	r5, [sp, #0]
 8008602:	4642      	mov	r2, r8
 8008604:	464b      	mov	r3, r9
 8008606:	480d      	ldr	r0, [pc, #52]	; (800863c <ada__exceptions__exception_data__append_info_basic_exception_informationXn+0xe4>)
 8008608:	490d      	ldr	r1, [pc, #52]	; (8008640 <ada__exceptions__exception_data__append_info_basic_exception_informationXn+0xe8>)
 800860a:	f000 f8bd 	bl	8008788 <ada__exceptions__exception_data__append_info_stringXn>
 800860e:	4603      	mov	r3, r0
 8008610:	4641      	mov	r1, r8
 8008612:	464a      	mov	r2, r9
 8008614:	f8d4 00d8 	ldr.w	r0, [r4, #216]	; 0xd8
 8008618:	f000 f88a 	bl	8008730 <ada__exceptions__exception_data__append_info_natXn>
 800861c:	4602      	mov	r2, r0
 800861e:	4640      	mov	r0, r8
 8008620:	4649      	mov	r1, r9
 8008622:	f000 f8a9 	bl	8008778 <ada__exceptions__exception_data__append_info_nlXn>
 8008626:	4605      	mov	r5, r0
 8008628:	e7b8      	b.n	800859c <ada__exceptions__exception_data__append_info_basic_exception_informationXn+0x44>
 800862a:	bf00      	nop
 800862c:	0800e288 	.word	0x0800e288
 8008630:	0800dd94 	.word	0x0800dd94
 8008634:	0800e638 	.word	0x0800e638
 8008638:	0800dd9c 	.word	0x0800dd9c
 800863c:	0800e290 	.word	0x0800e290
 8008640:	0800dda4 	.word	0x0800dda4

08008644 <ada__exceptions__exception_data__append_info_characterXn>:
 8008644:	b510      	push	{r4, lr}
 8008646:	6814      	ldr	r4, [r2, #0]
 8008648:	6852      	ldr	r2, [r2, #4]
 800864a:	4294      	cmp	r4, r2
 800864c:	dc06      	bgt.n	800865c <ada__exceptions__exception_data__append_info_characterXn+0x18>
 800864e:	429a      	cmp	r2, r3
 8008650:	dd02      	ble.n	8008658 <ada__exceptions__exception_data__append_info_characterXn+0x14>
 8008652:	3301      	adds	r3, #1
 8008654:	1b1c      	subs	r4, r3, r4
 8008656:	5508      	strb	r0, [r1, r4]
 8008658:	4618      	mov	r0, r3
 800865a:	bd10      	pop	{r4, pc}
 800865c:	461c      	mov	r4, r3
 800865e:	f000 fd61 	bl	8009124 <__gnat_to_stderr_char>
 8008662:	4623      	mov	r3, r4
 8008664:	e7f8      	b.n	8008658 <ada__exceptions__exception_data__append_info_characterXn+0x14>
 8008666:	bf00      	nop

08008668 <__gnat_append_info_e_msg>:
 8008668:	e92d 47f0 	stmdb	sp!, {r4, r5, r6, r7, r8, r9, sl, lr}
 800866c:	b084      	sub	sp, #16
 800866e:	af02      	add	r7, sp, #8
 8008670:	461e      	mov	r6, r3
 8008672:	6803      	ldr	r3, [r0, #0]
 8008674:	b303      	cbz	r3, 80086b8 <__gnat_append_info_e_msg+0x50>
 8008676:	4604      	mov	r4, r0
 8008678:	4688      	mov	r8, r1
 800867a:	4691      	mov	r9, r2
 800867c:	f000 f974 	bl	8008968 <__gnat_exception_msg_len>
 8008680:	4605      	mov	r5, r0
 8008682:	1dc3      	adds	r3, r0, #7
 8008684:	f023 0307 	bic.w	r3, r3, #7
 8008688:	ebad 0d03 	sub.w	sp, sp, r3
 800868c:	f10d 0a08 	add.w	sl, sp, #8
 8008690:	4602      	mov	r2, r0
 8008692:	f104 010c 	add.w	r1, r4, #12
 8008696:	4650      	mov	r0, sl
 8008698:	f001 fe0e 	bl	800a2b8 <memcpy>
 800869c:	2301      	movs	r3, #1
 800869e:	603b      	str	r3, [r7, #0]
 80086a0:	607d      	str	r5, [r7, #4]
 80086a2:	9600      	str	r6, [sp, #0]
 80086a4:	4642      	mov	r2, r8
 80086a6:	464b      	mov	r3, r9
 80086a8:	4650      	mov	r0, sl
 80086aa:	4639      	mov	r1, r7
 80086ac:	f000 f86c 	bl	8008788 <ada__exceptions__exception_data__append_info_stringXn>
 80086b0:	3708      	adds	r7, #8
 80086b2:	46bd      	mov	sp, r7
 80086b4:	e8bd 87f0 	ldmia.w	sp!, {r4, r5, r6, r7, r8, r9, sl, pc}
 80086b8:	f240 1145 	movw	r1, #325	; 0x145
 80086bc:	4801      	ldr	r0, [pc, #4]	; (80086c4 <__gnat_append_info_e_msg+0x5c>)
 80086be:	f000 fcb1 	bl	8009024 <__gnat_rcheck_CE_Explicit_Raise>
 80086c2:	bf00      	nop
 80086c4:	0800ddac 	.word	0x0800ddac

080086c8 <ada__exceptions__exception_data__append_info_exception_nameXn>:
 80086c8:	e92d 47f0 	stmdb	sp!, {r4, r5, r6, r7, r8, r9, sl, lr}
 80086cc:	b084      	sub	sp, #16
 80086ce:	af02      	add	r7, sp, #8
 80086d0:	b300      	cbz	r0, 8008714 <ada__exceptions__exception_data__append_info_exception_nameXn+0x4c>
 80086d2:	4688      	mov	r8, r1
 80086d4:	4691      	mov	r9, r2
 80086d6:	461e      	mov	r6, r3
 80086d8:	4605      	mov	r5, r0
 80086da:	f000 f947 	bl	800896c <ada__exceptions__exception_data__exception_name_lengthXn>
 80086de:	4604      	mov	r4, r0
 80086e0:	1dc3      	adds	r3, r0, #7
 80086e2:	f023 0307 	bic.w	r3, r3, #7
 80086e6:	ebad 0d03 	sub.w	sp, sp, r3
 80086ea:	f10d 0a08 	add.w	sl, sp, #8
 80086ee:	4602      	mov	r2, r0
 80086f0:	68a9      	ldr	r1, [r5, #8]
 80086f2:	4650      	mov	r0, sl
 80086f4:	f001 fde0 	bl	800a2b8 <memcpy>
 80086f8:	2301      	movs	r3, #1
 80086fa:	603b      	str	r3, [r7, #0]
 80086fc:	607c      	str	r4, [r7, #4]
 80086fe:	9600      	str	r6, [sp, #0]
 8008700:	4642      	mov	r2, r8
 8008702:	464b      	mov	r3, r9
 8008704:	4650      	mov	r0, sl
 8008706:	4639      	mov	r1, r7
 8008708:	f000 f83e 	bl	8008788 <ada__exceptions__exception_data__append_info_stringXn>
 800870c:	3708      	adds	r7, #8
 800870e:	46bd      	mov	sp, r7
 8008710:	e8bd 87f0 	ldmia.w	sp!, {r4, r5, r6, r7, r8, r9, sl, pc}
 8008714:	f240 115b 	movw	r1, #347	; 0x15b
 8008718:	4801      	ldr	r0, [pc, #4]	; (8008720 <ada__exceptions__exception_data__append_info_exception_nameXn+0x58>)
 800871a:	f000 fc83 	bl	8009024 <__gnat_rcheck_CE_Explicit_Raise>
 800871e:	bf00      	nop
 8008720:	0800ddac 	.word	0x0800ddac

08008724 <ada__exceptions__exception_data__append_info_exception_name__2Xn>:
 8008724:	b508      	push	{r3, lr}
 8008726:	6800      	ldr	r0, [r0, #0]
 8008728:	f7ff ffce 	bl	80086c8 <ada__exceptions__exception_data__append_info_exception_nameXn>
 800872c:	bd08      	pop	{r3, pc}
 800872e:	bf00      	nop

08008730 <ada__exceptions__exception_data__append_info_natXn>:
 8008730:	b5f8      	push	{r3, r4, r5, r6, r7, lr}
 8008732:	4604      	mov	r4, r0
 8008734:	460e      	mov	r6, r1
 8008736:	4617      	mov	r7, r2
 8008738:	2809      	cmp	r0, #9
 800873a:	dc10      	bgt.n	800875e <ada__exceptions__exception_data__append_info_natXn+0x2e>
 800873c:	490d      	ldr	r1, [pc, #52]	; (8008774 <ada__exceptions__exception_data__append_info_natXn+0x44>)
 800873e:	fb81 2104 	smull	r2, r1, r1, r4
 8008742:	17e2      	asrs	r2, r4, #31
 8008744:	ebc2 02a1 	rsb	r2, r2, r1, asr #2
 8008748:	eb02 0282 	add.w	r2, r2, r2, lsl #2
 800874c:	eba4 0442 	sub.w	r4, r4, r2, lsl #1
 8008750:	3430      	adds	r4, #48	; 0x30
 8008752:	4631      	mov	r1, r6
 8008754:	463a      	mov	r2, r7
 8008756:	b2e0      	uxtb	r0, r4
 8008758:	f7ff ff74 	bl	8008644 <ada__exceptions__exception_data__append_info_characterXn>
 800875c:	bdf8      	pop	{r3, r4, r5, r6, r7, pc}
 800875e:	4d05      	ldr	r5, [pc, #20]	; (8008774 <ada__exceptions__exception_data__append_info_natXn+0x44>)
 8008760:	fb85 2500 	smull	r2, r5, r5, r0
 8008764:	17c0      	asrs	r0, r0, #31
 8008766:	463a      	mov	r2, r7
 8008768:	ebc0 00a5 	rsb	r0, r0, r5, asr #2
 800876c:	f7ff ffe0 	bl	8008730 <ada__exceptions__exception_data__append_info_natXn>
 8008770:	4603      	mov	r3, r0
 8008772:	e7e3      	b.n	800873c <ada__exceptions__exception_data__append_info_natXn+0xc>
 8008774:	66666667 	.word	0x66666667

08008778 <ada__exceptions__exception_data__append_info_nlXn>:
 8008778:	b508      	push	{r3, lr}
 800877a:	4613      	mov	r3, r2
 800877c:	460a      	mov	r2, r1
 800877e:	4601      	mov	r1, r0
 8008780:	200a      	movs	r0, #10
 8008782:	f7ff ff5f 	bl	8008644 <ada__exceptions__exception_data__append_info_characterXn>
 8008786:	bd08      	pop	{r3, pc}

08008788 <ada__exceptions__exception_data__append_info_stringXn>:
 8008788:	b5f8      	push	{r3, r4, r5, r6, r7, lr}
 800878a:	9d06      	ldr	r5, [sp, #24]
 800878c:	681e      	ldr	r6, [r3, #0]
 800878e:	685f      	ldr	r7, [r3, #4]
 8008790:	42b7      	cmp	r7, r6
 8008792:	db19      	blt.n	80087c8 <ada__exceptions__exception_data__append_info_stringXn+0x40>
 8008794:	680c      	ldr	r4, [r1, #0]
 8008796:	684b      	ldr	r3, [r1, #4]
 8008798:	429c      	cmp	r4, r3
 800879a:	bfda      	itte	le
 800879c:	1b1b      	suble	r3, r3, r4
 800879e:	1c5c      	addle	r4, r3, #1
 80087a0:	2400      	movgt	r4, #0
 80087a2:	442c      	add	r4, r5
 80087a4:	42bc      	cmp	r4, r7
 80087a6:	bfa8      	it	ge
 80087a8:	463c      	movge	r4, r7
 80087aa:	3501      	adds	r5, #1
 80087ac:	1bae      	subs	r6, r5, r6
 80087ae:	4416      	add	r6, r2
 80087b0:	42ac      	cmp	r4, r5
 80087b2:	bfa6      	itte	ge
 80087b4:	f1c5 0501 	rsbge	r5, r5, #1
 80087b8:	192a      	addge	r2, r5, r4
 80087ba:	2200      	movlt	r2, #0
 80087bc:	4601      	mov	r1, r0
 80087be:	4630      	mov	r0, r6
 80087c0:	f001 fd9e 	bl	800a300 <memmove>
 80087c4:	4620      	mov	r0, r4
 80087c6:	bdf8      	pop	{r3, r4, r5, r6, r7, pc}
 80087c8:	f000 fcb0 	bl	800912c <__gnat_to_stderr>
 80087cc:	462c      	mov	r4, r5
 80087ce:	e7f9      	b.n	80087c4 <ada__exceptions__exception_data__append_info_stringXn+0x3c>

080087d0 <ada__exceptions__exception_data__append_info_untailored_exception_tracebackXn>:
 80087d0:	e92d 4ff0 	stmdb	sp!, {r4, r5, r6, r7, r8, r9, sl, fp, lr}
 80087d4:	b083      	sub	sp, #12
 80087d6:	461c      	mov	r4, r3
 80087d8:	f8d0 30dc 	ldr.w	r3, [r0, #220]	; 0xdc
 80087dc:	b91b      	cbnz	r3, 80087e6 <ada__exceptions__exception_data__append_info_untailored_exception_tracebackXn+0x16>
 80087de:	4620      	mov	r0, r4
 80087e0:	b003      	add	sp, #12
 80087e2:	e8bd 8ff0 	ldmia.w	sp!, {r4, r5, r6, r7, r8, r9, sl, fp, pc}
 80087e6:	4607      	mov	r7, r0
 80087e8:	460e      	mov	r6, r1
 80087ea:	4615      	mov	r5, r2
 80087ec:	4690      	mov	r8, r2
 80087ee:	f000 fda1 	bl	8009334 <__gnat_get_executable_load_address>
 80087f2:	4681      	mov	r9, r0
 80087f4:	b190      	cbz	r0, 800881c <ada__exceptions__exception_data__append_info_untailored_exception_tracebackXn+0x4c>
 80087f6:	9400      	str	r4, [sp, #0]
 80087f8:	4632      	mov	r2, r6
 80087fa:	462b      	mov	r3, r5
 80087fc:	4822      	ldr	r0, [pc, #136]	; (8008888 <ada__exceptions__exception_data__append_info_untailored_exception_tracebackXn+0xb8>)
 80087fe:	4923      	ldr	r1, [pc, #140]	; (800888c <ada__exceptions__exception_data__append_info_untailored_exception_tracebackXn+0xbc>)
 8008800:	f7ff ffc2 	bl	8008788 <ada__exceptions__exception_data__append_info_stringXn>
 8008804:	4603      	mov	r3, r0
 8008806:	4631      	mov	r1, r6
 8008808:	462a      	mov	r2, r5
 800880a:	4648      	mov	r0, r9
 800880c:	f7ff fe76 	bl	80084fc <ada__exceptions__exception_data__append_info_addressXn>
 8008810:	4602      	mov	r2, r0
 8008812:	4630      	mov	r0, r6
 8008814:	4629      	mov	r1, r5
 8008816:	f7ff ffaf 	bl	8008778 <ada__exceptions__exception_data__append_info_nlXn>
 800881a:	4604      	mov	r4, r0
 800881c:	9400      	str	r4, [sp, #0]
 800881e:	4632      	mov	r2, r6
 8008820:	462b      	mov	r3, r5
 8008822:	481b      	ldr	r0, [pc, #108]	; (8008890 <ada__exceptions__exception_data__append_info_untailored_exception_tracebackXn+0xc0>)
 8008824:	491b      	ldr	r1, [pc, #108]	; (8008894 <ada__exceptions__exception_data__append_info_untailored_exception_tracebackXn+0xc4>)
 8008826:	f7ff ffaf 	bl	8008788 <ada__exceptions__exception_data__append_info_stringXn>
 800882a:	4602      	mov	r2, r0
 800882c:	4630      	mov	r0, r6
 800882e:	4629      	mov	r1, r5
 8008830:	f7ff ffa2 	bl	8008778 <ada__exceptions__exception_data__append_info_nlXn>
 8008834:	4604      	mov	r4, r0
 8008836:	f8d7 a0dc 	ldr.w	sl, [r7, #220]	; 0xdc
 800883a:	f1ba 0f00 	cmp.w	sl, #0
 800883e:	dd1c      	ble.n	800887a <ada__exceptions__exception_data__append_info_untailored_exception_tracebackXn+0xaa>
 8008840:	f107 09dc 	add.w	r9, r7, #220	; 0xdc
 8008844:	2500      	movs	r5, #0
 8008846:	f04f 0b20 	mov.w	fp, #32
 800884a:	3501      	adds	r5, #1
 800884c:	f859 0f04 	ldr.w	r0, [r9, #4]!
 8008850:	f002 f862 	bl	800a918 <system__traceback_entries__pc_for>
 8008854:	4623      	mov	r3, r4
 8008856:	4631      	mov	r1, r6
 8008858:	4642      	mov	r2, r8
 800885a:	f7ff fe4f 	bl	80084fc <ada__exceptions__exception_data__append_info_addressXn>
 800885e:	4604      	mov	r4, r0
 8008860:	f8d7 30dc 	ldr.w	r3, [r7, #220]	; 0xdc
 8008864:	42ab      	cmp	r3, r5
 8008866:	d008      	beq.n	800887a <ada__exceptions__exception_data__append_info_untailored_exception_tracebackXn+0xaa>
 8008868:	4603      	mov	r3, r0
 800886a:	4631      	mov	r1, r6
 800886c:	4642      	mov	r2, r8
 800886e:	4658      	mov	r0, fp
 8008870:	f7ff fee8 	bl	8008644 <ada__exceptions__exception_data__append_info_characterXn>
 8008874:	4604      	mov	r4, r0
 8008876:	45aa      	cmp	sl, r5
 8008878:	d1e7      	bne.n	800884a <ada__exceptions__exception_data__append_info_untailored_exception_tracebackXn+0x7a>
 800887a:	4622      	mov	r2, r4
 800887c:	4630      	mov	r0, r6
 800887e:	4641      	mov	r1, r8
 8008880:	f7ff ff7a 	bl	8008778 <ada__exceptions__exception_data__append_info_nlXn>
 8008884:	4604      	mov	r4, r0
 8008886:	e7aa      	b.n	80087de <ada__exceptions__exception_data__append_info_untailored_exception_tracebackXn+0xe>
 8008888:	0800e2b8 	.word	0x0800e2b8
 800888c:	0800ddbc 	.word	0x0800ddbc
 8008890:	0800e298 	.word	0x0800e298
 8008894:	0800ddc4 	.word	0x0800ddc4

08008898 <ada__exceptions__exception_data__basic_exception_info_maxlengthXn>:
 8008898:	b538      	push	{r3, r4, r5, lr}
 800889a:	4605      	mov	r5, r0
 800889c:	f000 f86a 	bl	8008974 <ada__exceptions__exception_data__exception_name_length__2Xn>
 80088a0:	4604      	mov	r4, r0
 80088a2:	4628      	mov	r0, r5
 80088a4:	f000 f860 	bl	8008968 <__gnat_exception_msg_len>
 80088a8:	4420      	add	r0, r4
 80088aa:	301f      	adds	r0, #31
 80088ac:	bd38      	pop	{r3, r4, r5, pc}
 80088ae:	bf00      	nop

080088b0 <ada__exceptions__exception_data__exception_informationXn>:
 80088b0:	e92d 4ff0 	stmdb	sp!, {r4, r5, r6, r7, r8, r9, sl, fp, lr}
 80088b4:	b08d      	sub	sp, #52	; 0x34
 80088b6:	af02      	add	r7, sp, #8
 80088b8:	4605      	mov	r5, r0
 80088ba:	6079      	str	r1, [r7, #4]
 80088bc:	f107 0008 	add.w	r0, r7, #8
 80088c0:	f000 f944 	bl	8008b4c <ada__exceptions__exception_data__tailored_exception_tracebackXn>
 80088c4:	f8d7 b008 	ldr.w	fp, [r7, #8]
 80088c8:	68fb      	ldr	r3, [r7, #12]
 80088ca:	f8d3 a000 	ldr.w	sl, [r3]
 80088ce:	f8d3 9004 	ldr.w	r9, [r3, #4]
 80088d2:	45d1      	cmp	r9, sl
 80088d4:	bfa6      	itte	ge
 80088d6:	eba9 040a 	subge.w	r4, r9, sl
 80088da:	3401      	addge	r4, #1
 80088dc:	2400      	movlt	r4, #0
 80088de:	6878      	ldr	r0, [r7, #4]
 80088e0:	f7ff ffda 	bl	8008898 <ada__exceptions__exception_data__basic_exception_info_maxlengthXn>
 80088e4:	4404      	add	r4, r0
 80088e6:	ea24 73e4 	bic.w	r3, r4, r4, asr #31
 80088ea:	3307      	adds	r3, #7
 80088ec:	f023 0307 	bic.w	r3, r3, #7
 80088f0:	ebad 0d03 	sub.w	sp, sp, r3
 80088f4:	ae02      	add	r6, sp, #8
 80088f6:	f04f 0801 	mov.w	r8, #1
 80088fa:	f8c7 8010 	str.w	r8, [r7, #16]
 80088fe:	617c      	str	r4, [r7, #20]
 8008900:	2300      	movs	r3, #0
 8008902:	4631      	mov	r1, r6
 8008904:	f107 0210 	add.w	r2, r7, #16
 8008908:	6878      	ldr	r0, [r7, #4]
 800890a:	f7ff fe25 	bl	8008558 <ada__exceptions__exception_data__append_info_basic_exception_informationXn>
 800890e:	f8c7 a018 	str.w	sl, [r7, #24]
 8008912:	f8c7 901c 	str.w	r9, [r7, #28]
 8008916:	f8c7 8020 	str.w	r8, [r7, #32]
 800891a:	627c      	str	r4, [r7, #36]	; 0x24
 800891c:	9000      	str	r0, [sp, #0]
 800891e:	4632      	mov	r2, r6
 8008920:	f107 0320 	add.w	r3, r7, #32
 8008924:	4658      	mov	r0, fp
 8008926:	f107 0118 	add.w	r1, r7, #24
 800892a:	f7ff ff2d 	bl	8008788 <ada__exceptions__exception_data__append_info_stringXn>
 800892e:	4682      	mov	sl, r0
 8008930:	ea20 79e0 	bic.w	r9, r0, r0, asr #31
 8008934:	f109 000b 	add.w	r0, r9, #11
 8008938:	f020 0003 	bic.w	r0, r0, #3
 800893c:	f001 fda8 	bl	800a490 <system__secondary_stack__ss_allocate>
 8008940:	4604      	mov	r4, r0
 8008942:	f8c0 8000 	str.w	r8, [r0]
 8008946:	f8c0 a004 	str.w	sl, [r0, #4]
 800894a:	f100 0808 	add.w	r8, r0, #8
 800894e:	464a      	mov	r2, r9
 8008950:	4631      	mov	r1, r6
 8008952:	4640      	mov	r0, r8
 8008954:	f001 fcb0 	bl	800a2b8 <memcpy>
 8008958:	f8c5 8000 	str.w	r8, [r5]
 800895c:	606c      	str	r4, [r5, #4]
 800895e:	4628      	mov	r0, r5
 8008960:	372c      	adds	r7, #44	; 0x2c
 8008962:	46bd      	mov	sp, r7
 8008964:	e8bd 8ff0 	ldmia.w	sp!, {r4, r5, r6, r7, r8, r9, sl, fp, pc}

08008968 <__gnat_exception_msg_len>:
 8008968:	6880      	ldr	r0, [r0, #8]
 800896a:	4770      	bx	lr

0800896c <ada__exceptions__exception_data__exception_name_lengthXn>:
 800896c:	6840      	ldr	r0, [r0, #4]
 800896e:	3801      	subs	r0, #1
 8008970:	4770      	bx	lr
 8008972:	bf00      	nop

08008974 <ada__exceptions__exception_data__exception_name_length__2Xn>:
 8008974:	b508      	push	{r3, lr}
 8008976:	6800      	ldr	r0, [r0, #0]
 8008978:	f7ff fff8 	bl	800896c <ada__exceptions__exception_data__exception_name_lengthXn>
 800897c:	bd08      	pop	{r3, pc}
 800897e:	bf00      	nop

08008980 <ada__exceptions__exception_data__untailored_exception_tracebackXn>:
 8008980:	e92d 43f0 	stmdb	sp!, {r4, r5, r6, r7, r8, r9, lr}
 8008984:	b083      	sub	sp, #12
 8008986:	af00      	add	r7, sp, #0
 8008988:	4605      	mov	r5, r0
 800898a:	460c      	mov	r4, r1
 800898c:	4608      	mov	r0, r1
 800898e:	f000 f8f9 	bl	8008b84 <ada__exceptions__exception_data__untailored_exception_traceback_maxlengthXn>
 8008992:	1dc3      	adds	r3, r0, #7
 8008994:	f023 0307 	bic.w	r3, r3, #7
 8008998:	ebad 0d03 	sub.w	sp, sp, r3
 800899c:	f04f 0901 	mov.w	r9, #1
 80089a0:	f8c7 9000 	str.w	r9, [r7]
 80089a4:	6078      	str	r0, [r7, #4]
 80089a6:	2300      	movs	r3, #0
 80089a8:	4669      	mov	r1, sp
 80089aa:	463a      	mov	r2, r7
 80089ac:	4620      	mov	r0, r4
 80089ae:	f7ff ff0f 	bl	80087d0 <ada__exceptions__exception_data__append_info_untailored_exception_tracebackXn>
 80089b2:	4606      	mov	r6, r0
 80089b4:	ea20 78e0 	bic.w	r8, r0, r0, asr #31
 80089b8:	f108 000b 	add.w	r0, r8, #11
 80089bc:	f020 0003 	bic.w	r0, r0, #3
 80089c0:	f001 fd66 	bl	800a490 <system__secondary_stack__ss_allocate>
 80089c4:	4604      	mov	r4, r0
 80089c6:	f8c0 9000 	str.w	r9, [r0]
 80089ca:	6046      	str	r6, [r0, #4]
 80089cc:	f100 0608 	add.w	r6, r0, #8
 80089d0:	4642      	mov	r2, r8
 80089d2:	4669      	mov	r1, sp
 80089d4:	4630      	mov	r0, r6
 80089d6:	f001 fc6f 	bl	800a2b8 <memcpy>
 80089da:	602e      	str	r6, [r5, #0]
 80089dc:	606c      	str	r4, [r5, #4]
 80089de:	4628      	mov	r0, r5
 80089e0:	370c      	adds	r7, #12
 80089e2:	46bd      	mov	sp, r7
 80089e4:	e8bd 83f0 	ldmia.w	sp!, {r4, r5, r6, r7, r8, r9, pc}

080089e8 <ada__exceptions__exception_data__set_exception_c_msg__append_number.6681>:
 80089e8:	2800      	cmp	r0, #0
 80089ea:	dd35      	ble.n	8008a58 <ada__exceptions__exception_data__set_exception_c_msg__append_number.6681+0x70>
 80089ec:	b470      	push	{r4, r5, r6}
 80089ee:	4603      	mov	r3, r0
 80089f0:	2201      	movs	r2, #1
 80089f2:	4c1a      	ldr	r4, [pc, #104]	; (8008a5c <ada__exceptions__exception_data__set_exception_c_msg__append_number.6681+0x74>)
 80089f4:	fb84 5103 	smull	r5, r1, r4, r3
 80089f8:	17db      	asrs	r3, r3, #31
 80089fa:	ebc3 03a1 	rsb	r3, r3, r1, asr #2
 80089fe:	3201      	adds	r2, #1
 8008a00:	2b00      	cmp	r3, #0
 8008a02:	dcf7      	bgt.n	80089f4 <ada__exceptions__exception_data__set_exception_c_msg__append_number.6681+0xc>
 8008a04:	f8dc 3004 	ldr.w	r3, [ip, #4]
 8008a08:	6899      	ldr	r1, [r3, #8]
 8008a0a:	f1c2 04c8 	rsb	r4, r2, #200	; 0xc8
 8008a0e:	42a1      	cmp	r1, r4
 8008a10:	dc20      	bgt.n	8008a54 <ada__exceptions__exception_data__set_exception_c_msg__append_number.6681+0x6c>
 8008a12:	440b      	add	r3, r1
 8008a14:	213a      	movs	r1, #58	; 0x3a
 8008a16:	7319      	strb	r1, [r3, #12]
 8008a18:	f8dc 1004 	ldr.w	r1, [ip, #4]
 8008a1c:	688b      	ldr	r3, [r1, #8]
 8008a1e:	441a      	add	r2, r3
 8008a20:	608a      	str	r2, [r1, #8]
 8008a22:	2400      	movs	r4, #0
 8008a24:	4e0d      	ldr	r6, [pc, #52]	; (8008a5c <ada__exceptions__exception_data__set_exception_c_msg__append_number.6681+0x74>)
 8008a26:	fb86 3200 	smull	r3, r2, r6, r0
 8008a2a:	17c3      	asrs	r3, r0, #31
 8008a2c:	ebc3 03a2 	rsb	r3, r3, r2, asr #2
 8008a30:	461d      	mov	r5, r3
 8008a32:	eb03 0383 	add.w	r3, r3, r3, lsl #2
 8008a36:	eba0 0343 	sub.w	r3, r0, r3, lsl #1
 8008a3a:	f8cc 3000 	str.w	r3, [ip]
 8008a3e:	4628      	mov	r0, r5
 8008a40:	f8dc 2004 	ldr.w	r2, [ip, #4]
 8008a44:	6891      	ldr	r1, [r2, #8]
 8008a46:	1b09      	subs	r1, r1, r4
 8008a48:	440a      	add	r2, r1
 8008a4a:	3330      	adds	r3, #48	; 0x30
 8008a4c:	72d3      	strb	r3, [r2, #11]
 8008a4e:	3401      	adds	r4, #1
 8008a50:	2d00      	cmp	r5, #0
 8008a52:	dce8      	bgt.n	8008a26 <ada__exceptions__exception_data__set_exception_c_msg__append_number.6681+0x3e>
 8008a54:	bc70      	pop	{r4, r5, r6}
 8008a56:	4770      	bx	lr
 8008a58:	4770      	bx	lr
 8008a5a:	bf00      	nop
 8008a5c:	66666667 	.word	0x66666667

08008a60 <ada__exceptions__exception_data__set_exception_c_msgXn>:
 8008a60:	b5f0      	push	{r4, r5, r6, r7, lr}
 8008a62:	b085      	sub	sp, #20
 8008a64:	9d0b      	ldr	r5, [sp, #44]	; 0x2c
 8008a66:	ac0a      	add	r4, sp, #40	; 0x28
 8008a68:	9403      	str	r4, [sp, #12]
 8008a6a:	9002      	str	r0, [sp, #8]
 8008a6c:	2400      	movs	r4, #0
 8008a6e:	f880 40d4 	strb.w	r4, [r0, #212]	; 0xd4
 8008a72:	6001      	str	r1, [r0, #0]
 8008a74:	f8c0 40dc 	str.w	r4, [r0, #220]	; 0xdc
 8008a78:	4921      	ldr	r1, [pc, #132]	; (8008b00 <ada__exceptions__exception_data__set_exception_c_msgXn+0xa0>)
 8008a7a:	6809      	ldr	r1, [r1, #0]
 8008a7c:	f8c0 10d8 	str.w	r1, [r0, #216]	; 0xd8
 8008a80:	6084      	str	r4, [r0, #8]
 8008a82:	7811      	ldrb	r1, [r2, #0]
 8008a84:	b181      	cbz	r1, 8008aa8 <ada__exceptions__exception_data__set_exception_c_msgXn+0x48>
 8008a86:	f100 010b 	add.w	r1, r0, #11
 8008a8a:	f100 07d3 	add.w	r7, r0, #211	; 0xd3
 8008a8e:	f06f 0609 	mvn.w	r6, #9
 8008a92:	1a36      	subs	r6, r6, r0
 8008a94:	1874      	adds	r4, r6, r1
 8008a96:	6084      	str	r4, [r0, #8]
 8008a98:	7814      	ldrb	r4, [r2, #0]
 8008a9a:	f801 4f01 	strb.w	r4, [r1, #1]!
 8008a9e:	f812 4f01 	ldrb.w	r4, [r2, #1]!
 8008aa2:	b10c      	cbz	r4, 8008aa8 <ada__exceptions__exception_data__set_exception_c_msgXn+0x48>
 8008aa4:	42b9      	cmp	r1, r7
 8008aa6:	d1f5      	bne.n	8008a94 <ada__exceptions__exception_data__set_exception_c_msgXn+0x34>
 8008aa8:	f10d 0c04 	add.w	ip, sp, #4
 8008aac:	4618      	mov	r0, r3
 8008aae:	f7ff ff9b 	bl	80089e8 <ada__exceptions__exception_data__set_exception_c_msg__append_number.6681>
 8008ab2:	f10d 0c04 	add.w	ip, sp, #4
 8008ab6:	980a      	ldr	r0, [sp, #40]	; 0x28
 8008ab8:	f7ff ff96 	bl	80089e8 <ada__exceptions__exception_data__set_exception_c_msg__append_number.6681>
 8008abc:	b1ed      	cbz	r5, 8008afa <ada__exceptions__exception_data__set_exception_c_msgXn+0x9a>
 8008abe:	9a02      	ldr	r2, [sp, #8]
 8008ac0:	6893      	ldr	r3, [r2, #8]
 8008ac2:	2bc6      	cmp	r3, #198	; 0xc6
 8008ac4:	dc19      	bgt.n	8008afa <ada__exceptions__exception_data__set_exception_c_msgXn+0x9a>
 8008ac6:	1c59      	adds	r1, r3, #1
 8008ac8:	6091      	str	r1, [r2, #8]
 8008aca:	1850      	adds	r0, r2, r1
 8008acc:	2420      	movs	r4, #32
 8008ace:	72c4      	strb	r4, [r0, #11]
 8008ad0:	7828      	ldrb	r0, [r5, #0]
 8008ad2:	b190      	cbz	r0, 8008afa <ada__exceptions__exception_data__set_exception_c_msgXn+0x9a>
 8008ad4:	29c7      	cmp	r1, #199	; 0xc7
 8008ad6:	dc10      	bgt.n	8008afa <ada__exceptions__exception_data__set_exception_c_msgXn+0x9a>
 8008ad8:	330d      	adds	r3, #13
 8008ada:	4413      	add	r3, r2
 8008adc:	f102 04d4 	add.w	r4, r2, #212	; 0xd4
 8008ae0:	f06f 000a 	mvn.w	r0, #10
 8008ae4:	1a80      	subs	r0, r0, r2
 8008ae6:	18c1      	adds	r1, r0, r3
 8008ae8:	6091      	str	r1, [r2, #8]
 8008aea:	7829      	ldrb	r1, [r5, #0]
 8008aec:	f803 1b01 	strb.w	r1, [r3], #1
 8008af0:	f815 1f01 	ldrb.w	r1, [r5, #1]!
 8008af4:	b109      	cbz	r1, 8008afa <ada__exceptions__exception_data__set_exception_c_msgXn+0x9a>
 8008af6:	42a3      	cmp	r3, r4
 8008af8:	d1f5      	bne.n	8008ae6 <ada__exceptions__exception_data__set_exception_c_msgXn+0x86>
 8008afa:	b005      	add	sp, #20
 8008afc:	bdf0      	pop	{r4, r5, r6, r7, pc}
 8008afe:	bf00      	nop
 8008b00:	2000021c 	.word	0x2000021c

08008b04 <ada__exceptions__exception_data__set_exception_msgXn>:
 8008b04:	b570      	push	{r4, r5, r6, lr}
 8008b06:	4604      	mov	r4, r0
 8008b08:	460e      	mov	r6, r1
 8008b0a:	4611      	mov	r1, r2
 8008b0c:	6818      	ldr	r0, [r3, #0]
 8008b0e:	685a      	ldr	r2, [r3, #4]
 8008b10:	4282      	cmp	r2, r0
 8008b12:	db16      	blt.n	8008b42 <ada__exceptions__exception_data__set_exception_msgXn+0x3e>
 8008b14:	1a12      	subs	r2, r2, r0
 8008b16:	3201      	adds	r2, #1
 8008b18:	2ac8      	cmp	r2, #200	; 0xc8
 8008b1a:	bfa8      	it	ge
 8008b1c:	22c8      	movge	r2, #200	; 0xc8
 8008b1e:	2500      	movs	r5, #0
 8008b20:	f884 50d4 	strb.w	r5, [r4, #212]	; 0xd4
 8008b24:	60a2      	str	r2, [r4, #8]
 8008b26:	ea22 72e2 	bic.w	r2, r2, r2, asr #31
 8008b2a:	f104 000c 	add.w	r0, r4, #12
 8008b2e:	f001 fbe7 	bl	800a300 <memmove>
 8008b32:	6026      	str	r6, [r4, #0]
 8008b34:	f8c4 50dc 	str.w	r5, [r4, #220]	; 0xdc
 8008b38:	4b03      	ldr	r3, [pc, #12]	; (8008b48 <ada__exceptions__exception_data__set_exception_msgXn+0x44>)
 8008b3a:	681b      	ldr	r3, [r3, #0]
 8008b3c:	f8c4 30d8 	str.w	r3, [r4, #216]	; 0xd8
 8008b40:	bd70      	pop	{r4, r5, r6, pc}
 8008b42:	2200      	movs	r2, #0
 8008b44:	e7eb      	b.n	8008b1e <ada__exceptions__exception_data__set_exception_msgXn+0x1a>
 8008b46:	bf00      	nop
 8008b48:	2000021c 	.word	0x2000021c

08008b4c <ada__exceptions__exception_data__tailored_exception_tracebackXn>:
 8008b4c:	b510      	push	{r4, lr}
 8008b4e:	b082      	sub	sp, #8
 8008b50:	4604      	mov	r4, r0
 8008b52:	4b0b      	ldr	r3, [pc, #44]	; (8008b80 <ada__exceptions__exception_data__tailored_exception_tracebackXn+0x34>)
 8008b54:	681b      	ldr	r3, [r3, #0]
 8008b56:	b15b      	cbz	r3, 8008b70 <ada__exceptions__exception_data__tailored_exception_tracebackXn+0x24>
 8008b58:	f8d1 20dc 	ldr.w	r2, [r1, #220]	; 0xdc
 8008b5c:	31e0      	adds	r1, #224	; 0xe0
 8008b5e:	4668      	mov	r0, sp
 8008b60:	4798      	blx	r3
 8008b62:	e9dd 2300 	ldrd	r2, r3, [sp]
 8008b66:	e9c4 2300 	strd	r2, r3, [r4]
 8008b6a:	4620      	mov	r0, r4
 8008b6c:	b002      	add	sp, #8
 8008b6e:	bd10      	pop	{r4, pc}
 8008b70:	4668      	mov	r0, sp
 8008b72:	f7ff ff05 	bl	8008980 <ada__exceptions__exception_data__untailored_exception_tracebackXn>
 8008b76:	e9dd 2300 	ldrd	r2, r3, [sp]
 8008b7a:	e9c4 2300 	strd	r2, r3, [r4]
 8008b7e:	e7f4      	b.n	8008b6a <ada__exceptions__exception_data__tailored_exception_tracebackXn+0x1e>
 8008b80:	20000198 	.word	0x20000198

08008b84 <ada__exceptions__exception_data__untailored_exception_traceback_maxlengthXn>:
 8008b84:	f8d0 00dc 	ldr.w	r0, [r0, #220]	; 0xdc
 8008b88:	eb00 03c0 	add.w	r3, r0, r0, lsl #3
 8008b8c:	eb00 0043 	add.w	r0, r0, r3, lsl #1
 8008b90:	3042      	adds	r0, #66	; 0x42
 8008b92:	4770      	bx	lr

08008b94 <ada__exceptions__exception_propagation__allocate_occurrenceXn>:
 8008b94:	b508      	push	{r3, lr}
 8008b96:	f000 ffd3 	bl	8009b40 <system__exceptions__machine__new_occurrence>
 8008b9a:	4b02      	ldr	r3, [pc, #8]	; (8008ba4 <ada__exceptions__exception_propagation__allocate_occurrenceXn+0x10>)
 8008b9c:	6083      	str	r3, [r0, #8]
 8008b9e:	65c0      	str	r0, [r0, #92]	; 0x5c
 8008ba0:	3058      	adds	r0, #88	; 0x58
 8008ba2:	bd08      	pop	{r3, pc}
 8008ba4:	08008ba9 	.word	0x08008ba9

08008ba8 <ada__exceptions__exception_propagation__gnat_gcc_exception_cleanupXn>:
 8008ba8:	b121      	cbz	r1, 8008bb4 <ada__exceptions__exception_propagation__gnat_gcc_exception_cleanupXn+0xc>
 8008baa:	b508      	push	{r3, lr}
 8008bac:	4608      	mov	r0, r1
 8008bae:	f001 fc09 	bl	800a3c4 <__gnat_free>
 8008bb2:	bd08      	pop	{r3, pc}
 8008bb4:	4770      	bx	lr
 8008bb6:	bf00      	nop

08008bb8 <ada__exceptions__exception_propagation__set_foreign_occurrenceXn>:
 8008bb8:	4b07      	ldr	r3, [pc, #28]	; (8008bd8 <ada__exceptions__exception_propagation__set_foreign_occurrenceXn+0x20>)
 8008bba:	681a      	ldr	r2, [r3, #0]
 8008bbc:	4b07      	ldr	r3, [pc, #28]	; (8008bdc <ada__exceptions__exception_propagation__set_foreign_occurrenceXn+0x24>)
 8008bbe:	6003      	str	r3, [r0, #0]
 8008bc0:	6041      	str	r1, [r0, #4]
 8008bc2:	2300      	movs	r3, #0
 8008bc4:	6083      	str	r3, [r0, #8]
 8008bc6:	2101      	movs	r1, #1
 8008bc8:	f880 10d4 	strb.w	r1, [r0, #212]	; 0xd4
 8008bcc:	f8c0 20d8 	str.w	r2, [r0, #216]	; 0xd8
 8008bd0:	f8c0 30dc 	str.w	r3, [r0, #220]	; 0xdc
 8008bd4:	4770      	bx	lr
 8008bd6:	bf00      	nop
 8008bd8:	2000021c 	.word	0x2000021c
 8008bdc:	20000120 	.word	0x20000120

08008be0 <__gnat_setup_current_excep>:
 8008be0:	b538      	push	{r3, r4, r5, lr}
 8008be2:	4604      	mov	r4, r0
 8008be4:	f001 fcc6 	bl	800a574 <system__soft_links__get_current_excep_soft>
 8008be8:	4605      	mov	r5, r0
 8008bea:	2208      	movs	r2, #8
 8008bec:	4909      	ldr	r1, [pc, #36]	; (8008c14 <__gnat_setup_current_excep+0x34>)
 8008bee:	4620      	mov	r0, r4
 8008bf0:	f001 fb44 	bl	800a27c <memcmp>
 8008bf4:	b948      	cbnz	r0, 8008c0a <__gnat_setup_current_excep+0x2a>
 8008bf6:	3458      	adds	r4, #88	; 0x58
 8008bf8:	f44f 72d4 	mov.w	r2, #424	; 0x1a8
 8008bfc:	4621      	mov	r1, r4
 8008bfe:	4628      	mov	r0, r5
 8008c00:	f001 fb5a 	bl	800a2b8 <memcpy>
 8008c04:	4625      	mov	r5, r4
 8008c06:	4628      	mov	r0, r5
 8008c08:	bd38      	pop	{r3, r4, r5, pc}
 8008c0a:	4621      	mov	r1, r4
 8008c0c:	4628      	mov	r0, r5
 8008c0e:	f7ff ffd3 	bl	8008bb8 <ada__exceptions__exception_propagation__set_foreign_occurrenceXn>
 8008c12:	e7f8      	b.n	8008c06 <__gnat_setup_current_excep+0x26>
 8008c14:	0800dfd0 	.word	0x0800dfd0

08008c18 <__gnat_begin_handler>:
 8008c18:	4770      	bx	lr
 8008c1a:	bf00      	nop

08008c1c <__gnat_end_handler>:
 8008c1c:	b118      	cbz	r0, 8008c26 <__gnat_end_handler+0xa>
 8008c1e:	b508      	push	{r3, lr}
 8008c20:	f002 fd08 	bl	800b634 <_Unwind_DeleteException>
 8008c24:	bd08      	pop	{r3, pc}
 8008c26:	4770      	bx	lr

08008c28 <ada__exceptions__exception_propagation__propagate_gcc_exceptionXn>:
 8008c28:	b510      	push	{r4, lr}
 8008c2a:	4604      	mov	r4, r0
 8008c2c:	f000 ff2a 	bl	8009a84 <__gnat_Unwind_RaiseException>
 8008c30:	4620      	mov	r0, r4
 8008c32:	f7ff ffd5 	bl	8008be0 <__gnat_setup_current_excep>
 8008c36:	f000 f8c5 	bl	8008dc4 <__gnat_notify_unhandled_exception>
 8008c3a:	2200      	movs	r2, #0
 8008c3c:	4903      	ldr	r1, [pc, #12]	; (8008c4c <ada__exceptions__exception_propagation__propagate_gcc_exceptionXn+0x24>)
 8008c3e:	4620      	mov	r0, r4
 8008c40:	f000 ff22 	bl	8009a88 <__gnat_Unwind_ForcedUnwind>
 8008c44:	4620      	mov	r0, r4
 8008c46:	f000 f81d 	bl	8008c84 <__gnat_unhandled_except_handler>
 8008c4a:	bf00      	nop
 8008c4c:	08009a71 	.word	0x08009a71

08008c50 <ada__exceptions__exception_propagation__propagate_exceptionXn>:
 8008c50:	b508      	push	{r3, lr}
 8008c52:	6840      	ldr	r0, [r0, #4]
 8008c54:	f7ff ffe8 	bl	8008c28 <ada__exceptions__exception_propagation__propagate_gcc_exceptionXn>

08008c58 <__gnat_set_exception_parameter>:
 8008c58:	b538      	push	{r3, r4, r5, lr}
 8008c5a:	4605      	mov	r5, r0
 8008c5c:	460c      	mov	r4, r1
 8008c5e:	2208      	movs	r2, #8
 8008c60:	4907      	ldr	r1, [pc, #28]	; (8008c80 <__gnat_set_exception_parameter+0x28>)
 8008c62:	4620      	mov	r0, r4
 8008c64:	f001 fb0a 	bl	800a27c <memcmp>
 8008c68:	b120      	cbz	r0, 8008c74 <__gnat_set_exception_parameter+0x1c>
 8008c6a:	4621      	mov	r1, r4
 8008c6c:	4628      	mov	r0, r5
 8008c6e:	f7ff ffa3 	bl	8008bb8 <ada__exceptions__exception_propagation__set_foreign_occurrenceXn>
 8008c72:	bd38      	pop	{r3, r4, r5, pc}
 8008c74:	f104 0158 	add.w	r1, r4, #88	; 0x58
 8008c78:	4628      	mov	r0, r5
 8008c7a:	f000 fa2f 	bl	80090dc <ada__exceptions__save_occurrence>
 8008c7e:	e7f8      	b.n	8008c72 <__gnat_set_exception_parameter+0x1a>
 8008c80:	0800dfd0 	.word	0x0800dfd0

08008c84 <__gnat_unhandled_except_handler>:
 8008c84:	b508      	push	{r3, lr}
 8008c86:	f7ff ffab 	bl	8008be0 <__gnat_setup_current_excep>
 8008c8a:	f000 f8ab 	bl	8008de4 <ada__exceptions__exception_traces__unhandled_exception_terminateXn>
 8008c8e:	bf00      	nop

08008c90 <__gnat_eid_for>:
 8008c90:	6d80      	ldr	r0, [r0, #88]	; 0x58
 8008c92:	4770      	bx	lr

08008c94 <__gnat_foreign_data_for>:
 8008c94:	6900      	ldr	r0, [r0, #16]
 8008c96:	4770      	bx	lr

08008c98 <__gnat_is_handled_by_others>:
 8008c98:	7800      	ldrb	r0, [r0, #0]
 8008c9a:	f080 0001 	eor.w	r0, r0, #1
 8008c9e:	4770      	bx	lr

08008ca0 <__gnat_language_for>:
 8008ca0:	7840      	ldrb	r0, [r0, #1]
 8008ca2:	4770      	bx	lr

08008ca4 <ada__exceptions__exception_traces__notify_exception__B281b___finalizerXn.6942>:
 8008ca4:	b508      	push	{r3, lr}
 8008ca6:	f8dc 0000 	ldr.w	r0, [ip]
 8008caa:	f001 fc5d 	bl	800a568 <system__secondary_stack__ss_release>
 8008cae:	bd08      	pop	{r3, pc}

08008cb0 <ada__exceptions__exception_traces__notify_exceptionXn>:
 8008cb0:	b530      	push	{r4, r5, lr}
 8008cb2:	b085      	sub	sp, #20
 8008cb4:	4604      	mov	r4, r0
 8008cb6:	ab08      	add	r3, sp, #32
 8008cb8:	9303      	str	r3, [sp, #12]
 8008cba:	6803      	ldr	r3, [r0, #0]
 8008cbc:	781b      	ldrb	r3, [r3, #0]
 8008cbe:	b183      	cbz	r3, 8008ce2 <ada__exceptions__exception_traces__notify_exceptionXn+0x32>
 8008cc0:	4b32      	ldr	r3, [pc, #200]	; (8008d8c <ada__exceptions__exception_traces__notify_exceptionXn+0xdc>)
 8008cc2:	781b      	ldrb	r3, [r3, #0]
 8008cc4:	b123      	cbz	r3, 8008cd0 <ada__exceptions__exception_traces__notify_exceptionXn+0x20>
 8008cc6:	6823      	ldr	r3, [r4, #0]
 8008cc8:	695b      	ldr	r3, [r3, #20]
 8008cca:	b10b      	cbz	r3, 8008cd0 <ada__exceptions__exception_traces__notify_exceptionXn+0x20>
 8008ccc:	4620      	mov	r0, r4
 8008cce:	4798      	blx	r3
 8008cd0:	4b2f      	ldr	r3, [pc, #188]	; (8008d90 <ada__exceptions__exception_traces__notify_exceptionXn+0xe0>)
 8008cd2:	681b      	ldr	r3, [r3, #0]
 8008cd4:	b11b      	cbz	r3, 8008cde <ada__exceptions__exception_traces__notify_exceptionXn+0x2e>
 8008cd6:	4b2e      	ldr	r3, [pc, #184]	; (8008d90 <ada__exceptions__exception_traces__notify_exceptionXn+0xe0>)
 8008cd8:	681b      	ldr	r3, [r3, #0]
 8008cda:	4620      	mov	r0, r4
 8008cdc:	4798      	blx	r3
 8008cde:	b005      	add	sp, #20
 8008ce0:	bd30      	pop	{r4, r5, pc}
 8008ce2:	460d      	mov	r5, r1
 8008ce4:	4b2b      	ldr	r3, [pc, #172]	; (8008d94 <ada__exceptions__exception_traces__notify_exceptionXn+0xe4>)
 8008ce6:	781b      	ldrb	r3, [r3, #0]
 8008ce8:	b2db      	uxtb	r3, r3
 8008cea:	2b01      	cmp	r3, #1
 8008cec:	d11c      	bne.n	8008d28 <ada__exceptions__exception_traces__notify_exceptionXn+0x78>
 8008cee:	4b2a      	ldr	r3, [pc, #168]	; (8008d98 <ada__exceptions__exception_traces__notify_exceptionXn+0xe8>)
 8008cf0:	681b      	ldr	r3, [r3, #0]
 8008cf2:	4798      	blx	r3
 8008cf4:	4829      	ldr	r0, [pc, #164]	; (8008d9c <ada__exceptions__exception_traces__notify_exceptionXn+0xec>)
 8008cf6:	492a      	ldr	r1, [pc, #168]	; (8008da0 <ada__exceptions__exception_traces__notify_exceptionXn+0xf0>)
 8008cf8:	f000 fa18 	bl	800912c <__gnat_to_stderr>
 8008cfc:	4b25      	ldr	r3, [pc, #148]	; (8008d94 <ada__exceptions__exception_traces__notify_exceptionXn+0xe4>)
 8008cfe:	781b      	ldrb	r3, [r3, #0]
 8008d00:	b2db      	uxtb	r3, r3
 8008d02:	2b03      	cmp	r3, #3
 8008d04:	d008      	beq.n	8008d18 <ada__exceptions__exception_traces__notify_exceptionXn+0x68>
 8008d06:	bb15      	cbnz	r5, 8008d4e <ada__exceptions__exception_traces__notify_exceptionXn+0x9e>
 8008d08:	4826      	ldr	r0, [pc, #152]	; (8008da4 <ada__exceptions__exception_traces__notify_exceptionXn+0xf4>)
 8008d0a:	4927      	ldr	r1, [pc, #156]	; (8008da8 <ada__exceptions__exception_traces__notify_exceptionXn+0xf8>)
 8008d0c:	f000 fa0e 	bl	800912c <__gnat_to_stderr>
 8008d10:	4822      	ldr	r0, [pc, #136]	; (8008d9c <ada__exceptions__exception_traces__notify_exceptionXn+0xec>)
 8008d12:	4923      	ldr	r1, [pc, #140]	; (8008da0 <ada__exceptions__exception_traces__notify_exceptionXn+0xf0>)
 8008d14:	f000 fa0a 	bl	800912c <__gnat_to_stderr>
 8008d18:	f001 fc20 	bl	800a55c <system__secondary_stack__ss_mark>
 8008d1c:	9002      	str	r0, [sp, #8]
 8008d1e:	4621      	mov	r1, r4
 8008d20:	4668      	mov	r0, sp
 8008d22:	f000 f897 	bl	8008e54 <ada__exceptions__exception_information>
 8008d26:	e01d      	b.n	8008d64 <ada__exceptions__exception_traces__notify_exceptionXn+0xb4>
 8008d28:	2900      	cmp	r1, #0
 8008d2a:	d0c9      	beq.n	8008cc0 <ada__exceptions__exception_traces__notify_exceptionXn+0x10>
 8008d2c:	4b19      	ldr	r3, [pc, #100]	; (8008d94 <ada__exceptions__exception_traces__notify_exceptionXn+0xe4>)
 8008d2e:	781b      	ldrb	r3, [r3, #0]
 8008d30:	b2db      	uxtb	r3, r3
 8008d32:	2b02      	cmp	r3, #2
 8008d34:	d110      	bne.n	8008d58 <ada__exceptions__exception_traces__notify_exceptionXn+0xa8>
 8008d36:	4b18      	ldr	r3, [pc, #96]	; (8008d98 <ada__exceptions__exception_traces__notify_exceptionXn+0xe8>)
 8008d38:	681b      	ldr	r3, [r3, #0]
 8008d3a:	4798      	blx	r3
 8008d3c:	4817      	ldr	r0, [pc, #92]	; (8008d9c <ada__exceptions__exception_traces__notify_exceptionXn+0xec>)
 8008d3e:	4918      	ldr	r1, [pc, #96]	; (8008da0 <ada__exceptions__exception_traces__notify_exceptionXn+0xf0>)
 8008d40:	f000 f9f4 	bl	800912c <__gnat_to_stderr>
 8008d44:	4b13      	ldr	r3, [pc, #76]	; (8008d94 <ada__exceptions__exception_traces__notify_exceptionXn+0xe4>)
 8008d46:	781b      	ldrb	r3, [r3, #0]
 8008d48:	b2db      	uxtb	r3, r3
 8008d4a:	2b03      	cmp	r3, #3
 8008d4c:	d0e4      	beq.n	8008d18 <ada__exceptions__exception_traces__notify_exceptionXn+0x68>
 8008d4e:	4817      	ldr	r0, [pc, #92]	; (8008dac <ada__exceptions__exception_traces__notify_exceptionXn+0xfc>)
 8008d50:	4917      	ldr	r1, [pc, #92]	; (8008db0 <ada__exceptions__exception_traces__notify_exceptionXn+0x100>)
 8008d52:	f000 f9eb 	bl	800912c <__gnat_to_stderr>
 8008d56:	e7d7      	b.n	8008d08 <ada__exceptions__exception_traces__notify_exceptionXn+0x58>
 8008d58:	4b0e      	ldr	r3, [pc, #56]	; (8008d94 <ada__exceptions__exception_traces__notify_exceptionXn+0xe4>)
 8008d5a:	781b      	ldrb	r3, [r3, #0]
 8008d5c:	b2db      	uxtb	r3, r3
 8008d5e:	2b03      	cmp	r3, #3
 8008d60:	d1ae      	bne.n	8008cc0 <ada__exceptions__exception_traces__notify_exceptionXn+0x10>
 8008d62:	e7e8      	b.n	8008d36 <ada__exceptions__exception_traces__notify_exceptionXn+0x86>
 8008d64:	e9dd 0100 	ldrd	r0, r1, [sp]
 8008d68:	f000 f9e0 	bl	800912c <__gnat_to_stderr>
 8008d6c:	f10d 0c08 	add.w	ip, sp, #8
 8008d70:	f7ff ff98 	bl	8008ca4 <ada__exceptions__exception_traces__notify_exception__B281b___finalizerXn.6942>
 8008d74:	4b0f      	ldr	r3, [pc, #60]	; (8008db4 <ada__exceptions__exception_traces__notify_exceptionXn+0x104>)
 8008d76:	681b      	ldr	r3, [r3, #0]
 8008d78:	4798      	blx	r3
 8008d7a:	e7a1      	b.n	8008cc0 <ada__exceptions__exception_traces__notify_exceptionXn+0x10>
 8008d7c:	4604      	mov	r4, r0
 8008d7e:	f10d 0c08 	add.w	ip, sp, #8
 8008d82:	f7ff ff8f 	bl	8008ca4 <ada__exceptions__exception_traces__notify_exception__B281b___finalizerXn.6942>
 8008d86:	4620      	mov	r0, r4
 8008d88:	f003 f814 	bl	800bdb4 <_Unwind_Resume>
 8008d8c:	200000f0 	.word	0x200000f0
 8008d90:	200000ec 	.word	0x200000ec
 8008d94:	20000218 	.word	0x20000218
 8008d98:	20000190 	.word	0x20000190
 8008d9c:	0800ddcc 	.word	0x0800ddcc
 8008da0:	0800ddd0 	.word	0x0800ddd0
 8008da4:	0800dfe4 	.word	0x0800dfe4
 8008da8:	0800ddd8 	.word	0x0800ddd8
 8008dac:	0800dfd8 	.word	0x0800dfd8
 8008db0:	0800dde0 	.word	0x0800dde0
 8008db4:	2000019c 	.word	0x2000019c

08008db8 <__gnat_notify_handled_exception>:
 8008db8:	b508      	push	{r3, lr}
 8008dba:	2100      	movs	r1, #0
 8008dbc:	f7ff ff78 	bl	8008cb0 <ada__exceptions__exception_traces__notify_exceptionXn>
 8008dc0:	bd08      	pop	{r3, pc}
 8008dc2:	bf00      	nop

08008dc4 <__gnat_notify_unhandled_exception>:
 8008dc4:	b510      	push	{r4, lr}
 8008dc6:	4604      	mov	r4, r0
 8008dc8:	4b05      	ldr	r3, [pc, #20]	; (8008de0 <__gnat_notify_unhandled_exception+0x1c>)
 8008dca:	681b      	ldr	r3, [r3, #0]
 8008dcc:	4798      	blx	r3
 8008dce:	2101      	movs	r1, #1
 8008dd0:	4620      	mov	r0, r4
 8008dd2:	f7ff ff6d 	bl	8008cb0 <ada__exceptions__exception_traces__notify_exceptionXn>
 8008dd6:	6820      	ldr	r0, [r4, #0]
 8008dd8:	f000 fea0 	bl	8009b1c <__gnat_unhandled_exception>
 8008ddc:	bd10      	pop	{r4, pc}
 8008dde:	bf00      	nop
 8008de0:	20000194 	.word	0x20000194

08008de4 <ada__exceptions__exception_traces__unhandled_exception_terminateXn>:
 8008de4:	b510      	push	{r4, lr}
 8008de6:	b0ea      	sub	sp, #424	; 0x1a8
 8008de8:	4604      	mov	r4, r0
 8008dea:	4668      	mov	r0, sp
 8008dec:	f7ff fb7c 	bl	80084e8 <ada__exceptions__exception_occurrenceIP>
 8008df0:	4621      	mov	r1, r4
 8008df2:	4668      	mov	r0, sp
 8008df4:	f000 f972 	bl	80090dc <ada__exceptions__save_occurrence>
 8008df8:	4668      	mov	r0, sp
 8008dfa:	f001 fdc5 	bl	800a988 <__gnat_last_chance_handler>
 8008dfe:	bf00      	nop

08008e00 <ada__exceptions__code_address_for_aaa>:
 8008e00:	4800      	ldr	r0, [pc, #0]	; (8008e04 <ada__exceptions__code_address_for_aaa+0x4>)
 8008e02:	4770      	bx	lr
 8008e04:	08008e00 	.word	0x08008e00

08008e08 <ada__exceptions__call_chain>:
 8008e08:	4b10      	ldr	r3, [pc, #64]	; (8008e4c <ada__exceptions__call_chain+0x44>)
 8008e0a:	681b      	ldr	r3, [r3, #0]
 8008e0c:	b113      	cbz	r3, 8008e14 <ada__exceptions__call_chain+0xc>
 8008e0e:	f8d0 30dc 	ldr.w	r3, [r0, #220]	; 0xdc
 8008e12:	b103      	cbz	r3, 8008e16 <ada__exceptions__call_chain+0xe>
 8008e14:	4770      	bx	lr
 8008e16:	b530      	push	{r4, r5, lr}
 8008e18:	b0b5      	sub	sp, #212	; 0xd4
 8008e1a:	4604      	mov	r4, r0
 8008e1c:	f7ff fff0 	bl	8008e00 <ada__exceptions__code_address_for_aaa>
 8008e20:	4605      	mov	r5, r0
 8008e22:	f000 f997 	bl	8009154 <ada__exceptions__code_address_for_zzz>
 8008e26:	2305      	movs	r3, #5
 8008e28:	9301      	str	r3, [sp, #4]
 8008e2a:	9000      	str	r0, [sp, #0]
 8008e2c:	462b      	mov	r3, r5
 8008e2e:	2232      	movs	r2, #50	; 0x32
 8008e30:	a802      	add	r0, sp, #8
 8008e32:	4907      	ldr	r1, [pc, #28]	; (8008e50 <ada__exceptions__call_chain+0x48>)
 8008e34:	f001 fd5a 	bl	800a8ec <system__traceback__call_chain>
 8008e38:	f8c4 00dc 	str.w	r0, [r4, #220]	; 0xdc
 8008e3c:	22c8      	movs	r2, #200	; 0xc8
 8008e3e:	a902      	add	r1, sp, #8
 8008e40:	f104 00e0 	add.w	r0, r4, #224	; 0xe0
 8008e44:	f001 fa38 	bl	800a2b8 <memcpy>
 8008e48:	b035      	add	sp, #212	; 0xd4
 8008e4a:	bd30      	pop	{r4, r5, pc}
 8008e4c:	20000150 	.word	0x20000150
 8008e50:	0800dfa8 	.word	0x0800dfa8

08008e54 <ada__exceptions__exception_information>:
 8008e54:	b510      	push	{r4, lr}
 8008e56:	b082      	sub	sp, #8
 8008e58:	680b      	ldr	r3, [r1, #0]
 8008e5a:	b153      	cbz	r3, 8008e72 <ada__exceptions__exception_information+0x1e>
 8008e5c:	4604      	mov	r4, r0
 8008e5e:	4668      	mov	r0, sp
 8008e60:	f7ff fd26 	bl	80088b0 <ada__exceptions__exception_data__exception_informationXn>
 8008e64:	e9dd 2300 	ldrd	r2, r3, [sp]
 8008e68:	e9c4 2300 	strd	r2, r3, [r4]
 8008e6c:	4620      	mov	r0, r4
 8008e6e:	b002      	add	sp, #8
 8008e70:	bd10      	pop	{r4, pc}
 8008e72:	f44f 713d 	mov.w	r1, #756	; 0x2f4
 8008e76:	4801      	ldr	r0, [pc, #4]	; (8008e7c <ada__exceptions__exception_information+0x28>)
 8008e78:	f000 f8d4 	bl	8009024 <__gnat_rcheck_CE_Explicit_Raise>
 8008e7c:	0800dfb0 	.word	0x0800dfb0

08008e80 <ada__exceptions__exception_message>:
 8008e80:	e92d 41f0 	stmdb	sp!, {r4, r5, r6, r7, r8, lr}
 8008e84:	680b      	ldr	r3, [r1, #0]
 8008e86:	b1eb      	cbz	r3, 8008ec4 <ada__exceptions__exception_message+0x44>
 8008e88:	4607      	mov	r7, r0
 8008e8a:	460c      	mov	r4, r1
 8008e8c:	688e      	ldr	r6, [r1, #8]
 8008e8e:	ea26 76e6 	bic.w	r6, r6, r6, asr #31
 8008e92:	f106 000b 	add.w	r0, r6, #11
 8008e96:	f020 0003 	bic.w	r0, r0, #3
 8008e9a:	f001 faf9 	bl	800a490 <system__secondary_stack__ss_allocate>
 8008e9e:	4605      	mov	r5, r0
 8008ea0:	2301      	movs	r3, #1
 8008ea2:	6003      	str	r3, [r0, #0]
 8008ea4:	68a3      	ldr	r3, [r4, #8]
 8008ea6:	6043      	str	r3, [r0, #4]
 8008ea8:	f100 0808 	add.w	r8, r0, #8
 8008eac:	4632      	mov	r2, r6
 8008eae:	f104 010c 	add.w	r1, r4, #12
 8008eb2:	4640      	mov	r0, r8
 8008eb4:	f001 fa00 	bl	800a2b8 <memcpy>
 8008eb8:	f8c7 8000 	str.w	r8, [r7]
 8008ebc:	607d      	str	r5, [r7, #4]
 8008ebe:	4638      	mov	r0, r7
 8008ec0:	e8bd 81f0 	ldmia.w	sp!, {r4, r5, r6, r7, r8, pc}
 8008ec4:	f240 3101 	movw	r1, #769	; 0x301
 8008ec8:	4801      	ldr	r0, [pc, #4]	; (8008ed0 <ada__exceptions__exception_message+0x50>)
 8008eca:	f000 f8ab 	bl	8009024 <__gnat_rcheck_CE_Explicit_Raise>
 8008ece:	bf00      	nop
 8008ed0:	0800dfb0 	.word	0x0800dfb0

08008ed4 <ada__exceptions__exception_name>:
 8008ed4:	e92d 41f0 	stmdb	sp!, {r4, r5, r6, r7, r8, lr}
 8008ed8:	b1d9      	cbz	r1, 8008f12 <ada__exceptions__exception_name+0x3e>
 8008eda:	4606      	mov	r6, r0
 8008edc:	460f      	mov	r7, r1
 8008ede:	684d      	ldr	r5, [r1, #4]
 8008ee0:	3d01      	subs	r5, #1
 8008ee2:	ea25 78e5 	bic.w	r8, r5, r5, asr #31
 8008ee6:	f108 000b 	add.w	r0, r8, #11
 8008eea:	f020 0003 	bic.w	r0, r0, #3
 8008eee:	f001 facf 	bl	800a490 <system__secondary_stack__ss_allocate>
 8008ef2:	4604      	mov	r4, r0
 8008ef4:	2301      	movs	r3, #1
 8008ef6:	6003      	str	r3, [r0, #0]
 8008ef8:	6045      	str	r5, [r0, #4]
 8008efa:	f100 0508 	add.w	r5, r0, #8
 8008efe:	4642      	mov	r2, r8
 8008f00:	68b9      	ldr	r1, [r7, #8]
 8008f02:	4628      	mov	r0, r5
 8008f04:	f001 f9d8 	bl	800a2b8 <memcpy>
 8008f08:	6035      	str	r5, [r6, #0]
 8008f0a:	6074      	str	r4, [r6, #4]
 8008f0c:	4630      	mov	r0, r6
 8008f0e:	e8bd 81f0 	ldmia.w	sp!, {r4, r5, r6, r7, r8, pc}
 8008f12:	f240 310e 	movw	r1, #782	; 0x30e
 8008f16:	4801      	ldr	r0, [pc, #4]	; (8008f1c <ada__exceptions__exception_name+0x48>)
 8008f18:	f000 f884 	bl	8009024 <__gnat_rcheck_CE_Explicit_Raise>
 8008f1c:	0800dfb0 	.word	0x0800dfb0

08008f20 <ada__exceptions__exception_name__2>:
 8008f20:	b510      	push	{r4, lr}
 8008f22:	b082      	sub	sp, #8
 8008f24:	4604      	mov	r4, r0
 8008f26:	6809      	ldr	r1, [r1, #0]
 8008f28:	4668      	mov	r0, sp
 8008f2a:	f7ff ffd3 	bl	8008ed4 <ada__exceptions__exception_name>
 8008f2e:	e9dd 2300 	ldrd	r2, r3, [sp]
 8008f32:	e9c4 2300 	strd	r2, r3, [r4]
 8008f36:	4620      	mov	r0, r4
 8008f38:	b002      	add	sp, #8
 8008f3a:	bd10      	pop	{r4, pc}

08008f3c <__gnat_raise_constraint_error_msg>:
 8008f3c:	b500      	push	{lr}
 8008f3e:	b083      	sub	sp, #12
 8008f40:	9300      	str	r3, [sp, #0]
 8008f42:	4613      	mov	r3, r2
 8008f44:	460a      	mov	r2, r1
 8008f46:	4601      	mov	r1, r0
 8008f48:	4801      	ldr	r0, [pc, #4]	; (8008f50 <__gnat_raise_constraint_error_msg+0x14>)
 8008f4a:	f000 f845 	bl	8008fd8 <ada__exceptions__raise_with_location_and_msg>
 8008f4e:	bf00      	nop
 8008f50:	200001b8 	.word	0x200001b8

08008f54 <ada__exceptions__complete_occurrence>:
 8008f54:	b510      	push	{r4, lr}
 8008f56:	b082      	sub	sp, #8
 8008f58:	4604      	mov	r4, r0
 8008f5a:	f7ff ff55 	bl	8008e08 <ada__exceptions__call_chain>
 8008f5e:	68a3      	ldr	r3, [r4, #8]
 8008f60:	4621      	mov	r1, r4
 8008f62:	f851 0b0c 	ldr.w	r0, [r1], #12
 8008f66:	2201      	movs	r2, #1
 8008f68:	9200      	str	r2, [sp, #0]
 8008f6a:	9301      	str	r3, [sp, #4]
 8008f6c:	466a      	mov	r2, sp
 8008f6e:	f000 fdc7 	bl	8009b00 <__gnat_debug_raise_exception>
 8008f72:	b002      	add	sp, #8
 8008f74:	bd10      	pop	{r4, pc}
 8008f76:	bf00      	nop

08008f78 <ada__exceptions__complete_and_propagate_occurrence>:
 8008f78:	b510      	push	{r4, lr}
 8008f7a:	4604      	mov	r4, r0
 8008f7c:	f7ff ffea 	bl	8008f54 <ada__exceptions__complete_occurrence>
 8008f80:	4620      	mov	r0, r4
 8008f82:	f7ff fe65 	bl	8008c50 <ada__exceptions__exception_propagation__propagate_exceptionXn>
 8008f86:	bf00      	nop

08008f88 <__gnat_raise_exception>:
 8008f88:	b5f8      	push	{r3, r4, r5, r6, r7, lr}
 8008f8a:	4605      	mov	r5, r0
 8008f8c:	460e      	mov	r6, r1
 8008f8e:	4617      	mov	r7, r2
 8008f90:	f7ff fe00 	bl	8008b94 <ada__exceptions__exception_propagation__allocate_occurrenceXn>
 8008f94:	4604      	mov	r4, r0
 8008f96:	4632      	mov	r2, r6
 8008f98:	463b      	mov	r3, r7
 8008f9a:	4629      	mov	r1, r5
 8008f9c:	f7ff fdb2 	bl	8008b04 <ada__exceptions__exception_data__set_exception_msgXn>
 8008fa0:	4620      	mov	r0, r4
 8008fa2:	f7ff ffe9 	bl	8008f78 <ada__exceptions__complete_and_propagate_occurrence>
 8008fa6:	bf00      	nop

08008fa8 <__gnat_raise_program_error_msg>:
 8008fa8:	b500      	push	{lr}
 8008faa:	b083      	sub	sp, #12
 8008fac:	9200      	str	r2, [sp, #0]
 8008fae:	2300      	movs	r3, #0
 8008fb0:	460a      	mov	r2, r1
 8008fb2:	4601      	mov	r1, r0
 8008fb4:	4801      	ldr	r0, [pc, #4]	; (8008fbc <__gnat_raise_program_error_msg+0x14>)
 8008fb6:	f000 f80f 	bl	8008fd8 <ada__exceptions__raise_with_location_and_msg>
 8008fba:	bf00      	nop
 8008fbc:	200001e8 	.word	0x200001e8

08008fc0 <__gnat_raise_storage_error_msg>:
 8008fc0:	b500      	push	{lr}
 8008fc2:	b083      	sub	sp, #12
 8008fc4:	9200      	str	r2, [sp, #0]
 8008fc6:	2300      	movs	r3, #0
 8008fc8:	460a      	mov	r2, r1
 8008fca:	4601      	mov	r1, r0
 8008fcc:	4801      	ldr	r0, [pc, #4]	; (8008fd4 <__gnat_raise_storage_error_msg+0x14>)
 8008fce:	f000 f803 	bl	8008fd8 <ada__exceptions__raise_with_location_and_msg>
 8008fd2:	bf00      	nop
 8008fd4:	20000200 	.word	0x20000200

08008fd8 <ada__exceptions__raise_with_location_and_msg>:
 8008fd8:	e92d 41f0 	stmdb	sp!, {r4, r5, r6, r7, r8, lr}
 8008fdc:	b082      	sub	sp, #8
 8008fde:	4605      	mov	r5, r0
 8008fe0:	460e      	mov	r6, r1
 8008fe2:	4617      	mov	r7, r2
 8008fe4:	4698      	mov	r8, r3
 8008fe6:	f7ff fdd5 	bl	8008b94 <ada__exceptions__exception_propagation__allocate_occurrenceXn>
 8008fea:	4604      	mov	r4, r0
 8008fec:	9b08      	ldr	r3, [sp, #32]
 8008fee:	9301      	str	r3, [sp, #4]
 8008ff0:	f8cd 8000 	str.w	r8, [sp]
 8008ff4:	463b      	mov	r3, r7
 8008ff6:	4632      	mov	r2, r6
 8008ff8:	4629      	mov	r1, r5
 8008ffa:	f7ff fd31 	bl	8008a60 <ada__exceptions__exception_data__set_exception_c_msgXn>
 8008ffe:	4620      	mov	r0, r4
 8009000:	f7ff ffba 	bl	8008f78 <ada__exceptions__complete_and_propagate_occurrence>

08009004 <__gnat_rcheck_CE_Access_Check>:
 8009004:	b508      	push	{r3, lr}
 8009006:	4b02      	ldr	r3, [pc, #8]	; (8009010 <__gnat_rcheck_CE_Access_Check+0xc>)
 8009008:	2200      	movs	r2, #0
 800900a:	f7ff ff97 	bl	8008f3c <__gnat_raise_constraint_error_msg>
 800900e:	bf00      	nop
 8009010:	0800e1a0 	.word	0x0800e1a0

08009014 <__gnat_rcheck_CE_Discriminant_Check>:
 8009014:	b508      	push	{r3, lr}
 8009016:	4b02      	ldr	r3, [pc, #8]	; (8009020 <__gnat_rcheck_CE_Discriminant_Check+0xc>)
 8009018:	2200      	movs	r2, #0
 800901a:	f7ff ff8f 	bl	8008f3c <__gnat_raise_constraint_error_msg>
 800901e:	bf00      	nop
 8009020:	0800e1b4 	.word	0x0800e1b4

08009024 <__gnat_rcheck_CE_Explicit_Raise>:
 8009024:	b508      	push	{r3, lr}
 8009026:	4b02      	ldr	r3, [pc, #8]	; (8009030 <__gnat_rcheck_CE_Explicit_Raise+0xc>)
 8009028:	2200      	movs	r2, #0
 800902a:	f7ff ff87 	bl	8008f3c <__gnat_raise_constraint_error_msg>
 800902e:	bf00      	nop
 8009030:	0800e1d0 	.word	0x0800e1d0

08009034 <__gnat_rcheck_CE_Index_Check>:
 8009034:	b508      	push	{r3, lr}
 8009036:	4b02      	ldr	r3, [pc, #8]	; (8009040 <__gnat_rcheck_CE_Index_Check+0xc>)
 8009038:	2200      	movs	r2, #0
 800903a:	f7ff ff7f 	bl	8008f3c <__gnat_raise_constraint_error_msg>
 800903e:	bf00      	nop
 8009040:	0800e1e0 	.word	0x0800e1e0

08009044 <__gnat_rcheck_CE_Invalid_Data>:
 8009044:	b508      	push	{r3, lr}
 8009046:	4b02      	ldr	r3, [pc, #8]	; (8009050 <__gnat_rcheck_CE_Invalid_Data+0xc>)
 8009048:	2200      	movs	r2, #0
 800904a:	f7ff ff77 	bl	8008f3c <__gnat_raise_constraint_error_msg>
 800904e:	bf00      	nop
 8009050:	0800e1f4 	.word	0x0800e1f4

08009054 <__gnat_rcheck_CE_Overflow_Check>:
 8009054:	b508      	push	{r3, lr}
 8009056:	4b02      	ldr	r3, [pc, #8]	; (8009060 <__gnat_rcheck_CE_Overflow_Check+0xc>)
 8009058:	2200      	movs	r2, #0
 800905a:	f7ff ff6f 	bl	8008f3c <__gnat_raise_constraint_error_msg>
 800905e:	bf00      	nop
 8009060:	0800e204 	.word	0x0800e204

08009064 <__gnat_rcheck_CE_Range_Check>:
 8009064:	b508      	push	{r3, lr}
 8009066:	4b02      	ldr	r3, [pc, #8]	; (8009070 <__gnat_rcheck_CE_Range_Check+0xc>)
 8009068:	2200      	movs	r2, #0
 800906a:	f7ff ff67 	bl	8008f3c <__gnat_raise_constraint_error_msg>
 800906e:	bf00      	nop
 8009070:	0800e21c 	.word	0x0800e21c

08009074 <__gnat_rcheck_PE_Access_Before_Elaboration>:
 8009074:	b508      	push	{r3, lr}
 8009076:	4a01      	ldr	r2, [pc, #4]	; (800907c <__gnat_rcheck_PE_Access_Before_Elaboration+0x8>)
 8009078:	f7ff ff96 	bl	8008fa8 <__gnat_raise_program_error_msg>
 800907c:	0800e230 	.word	0x0800e230

08009080 <__gnat_rcheck_PE_Explicit_Raise>:
 8009080:	b508      	push	{r3, lr}
 8009082:	4a01      	ldr	r2, [pc, #4]	; (8009088 <__gnat_rcheck_PE_Explicit_Raise+0x8>)
 8009084:	f7ff ff90 	bl	8008fa8 <__gnat_raise_program_error_msg>
 8009088:	0800e24c 	.word	0x0800e24c

0800908c <__gnat_rcheck_PE_Misaligned_Address_Value>:
 800908c:	b508      	push	{r3, lr}
 800908e:	4a01      	ldr	r2, [pc, #4]	; (8009094 <__gnat_rcheck_PE_Misaligned_Address_Value+0x8>)
 8009090:	f7ff ff8a 	bl	8008fa8 <__gnat_raise_program_error_msg>
 8009094:	0800e25c 	.word	0x0800e25c

08009098 <__gnat_rcheck_SE_Explicit_Raise>:
 8009098:	b508      	push	{r3, lr}
 800909a:	4a01      	ldr	r2, [pc, #4]	; (80090a0 <__gnat_rcheck_SE_Explicit_Raise+0x8>)
 800909c:	f7ff ff90 	bl	8008fc0 <__gnat_raise_storage_error_msg>
 80090a0:	0800e278 	.word	0x0800e278

080090a4 <ada__exceptions__reraise_occurrence>:
 80090a4:	b508      	push	{r3, lr}
 80090a6:	6803      	ldr	r3, [r0, #0]
 80090a8:	b903      	cbnz	r3, 80090ac <ada__exceptions__reraise_occurrence+0x8>
 80090aa:	bd08      	pop	{r3, pc}
 80090ac:	f000 f800 	bl	80090b0 <ada__exceptions__reraise_occurrence_always>

080090b0 <ada__exceptions__reraise_occurrence_always>:
 80090b0:	b508      	push	{r3, lr}
 80090b2:	f000 f801 	bl	80090b8 <ada__exceptions__reraise_occurrence_no_defer>
 80090b6:	bf00      	nop

080090b8 <ada__exceptions__reraise_occurrence_no_defer>:
 80090b8:	b570      	push	{r4, r5, r6, lr}
 80090ba:	4604      	mov	r4, r0
 80090bc:	6843      	ldr	r3, [r0, #4]
 80090be:	b10b      	cbz	r3, 80090c4 <ada__exceptions__reraise_occurrence_no_defer+0xc>
 80090c0:	f7ff fdc6 	bl	8008c50 <ada__exceptions__exception_propagation__propagate_exceptionXn>
 80090c4:	f7ff fd66 	bl	8008b94 <ada__exceptions__exception_propagation__allocate_occurrenceXn>
 80090c8:	4605      	mov	r5, r0
 80090ca:	6846      	ldr	r6, [r0, #4]
 80090cc:	4621      	mov	r1, r4
 80090ce:	f000 f805 	bl	80090dc <ada__exceptions__save_occurrence>
 80090d2:	606e      	str	r6, [r5, #4]
 80090d4:	4628      	mov	r0, r5
 80090d6:	f7ff ff4f 	bl	8008f78 <ada__exceptions__complete_and_propagate_occurrence>
 80090da:	bf00      	nop

080090dc <ada__exceptions__save_occurrence>:
 80090dc:	b538      	push	{r3, r4, r5, lr}
 80090de:	4604      	mov	r4, r0
 80090e0:	460d      	mov	r5, r1
 80090e2:	680b      	ldr	r3, [r1, #0]
 80090e4:	6003      	str	r3, [r0, #0]
 80090e6:	2300      	movs	r3, #0
 80090e8:	6043      	str	r3, [r0, #4]
 80090ea:	688a      	ldr	r2, [r1, #8]
 80090ec:	6082      	str	r2, [r0, #8]
 80090ee:	f8d1 30dc 	ldr.w	r3, [r1, #220]	; 0xdc
 80090f2:	f8c0 30dc 	str.w	r3, [r0, #220]	; 0xdc
 80090f6:	f8d1 30d8 	ldr.w	r3, [r1, #216]	; 0xd8
 80090fa:	f8c0 30d8 	str.w	r3, [r0, #216]	; 0xd8
 80090fe:	ea22 72e2 	bic.w	r2, r2, r2, asr #31
 8009102:	310c      	adds	r1, #12
 8009104:	300c      	adds	r0, #12
 8009106:	f001 f8fb 	bl	800a300 <memmove>
 800910a:	f8d4 20dc 	ldr.w	r2, [r4, #220]	; 0xdc
 800910e:	ea22 72e2 	bic.w	r2, r2, r2, asr #31
 8009112:	0092      	lsls	r2, r2, #2
 8009114:	f105 01e0 	add.w	r1, r5, #224	; 0xe0
 8009118:	f104 00e0 	add.w	r0, r4, #224	; 0xe0
 800911c:	f001 f8f0 	bl	800a300 <memmove>
 8009120:	bd38      	pop	{r3, r4, r5, pc}
 8009122:	bf00      	nop

08009124 <__gnat_to_stderr_char>:
 8009124:	b508      	push	{r3, lr}
 8009126:	f001 f88f 	bl	800a248 <put_char_stderr>
 800912a:	bd08      	pop	{r3, pc}

0800912c <__gnat_to_stderr>:
 800912c:	b538      	push	{r3, r4, r5, lr}
 800912e:	680b      	ldr	r3, [r1, #0]
 8009130:	684d      	ldr	r5, [r1, #4]
 8009132:	42ab      	cmp	r3, r5
 8009134:	dc0d      	bgt.n	8009152 <__gnat_to_stderr+0x26>
 8009136:	4604      	mov	r4, r0
 8009138:	3001      	adds	r0, #1
 800913a:	4405      	add	r5, r0
 800913c:	1aed      	subs	r5, r5, r3
 800913e:	e001      	b.n	8009144 <__gnat_to_stderr+0x18>
 8009140:	42ac      	cmp	r4, r5
 8009142:	d006      	beq.n	8009152 <__gnat_to_stderr+0x26>
 8009144:	f814 0b01 	ldrb.w	r0, [r4], #1
 8009148:	280d      	cmp	r0, #13
 800914a:	d0f9      	beq.n	8009140 <__gnat_to_stderr+0x14>
 800914c:	f7ff ffea 	bl	8009124 <__gnat_to_stderr_char>
 8009150:	e7f6      	b.n	8009140 <__gnat_to_stderr+0x14>
 8009152:	bd38      	pop	{r3, r4, r5, pc}

08009154 <ada__exceptions__code_address_for_zzz>:
 8009154:	4800      	ldr	r0, [pc, #0]	; (8009158 <ada__exceptions__code_address_for_zzz+0x4>)
 8009156:	4770      	bx	lr
 8009158:	08009154 	.word	0x08009154

0800915c <ada__finalization__adjust>:
 800915c:	4770      	bx	lr
 800915e:	bf00      	nop

08009160 <ada__finalization___size__3>:
 8009160:	2020      	movs	r0, #32
 8009162:	2100      	movs	r1, #0
 8009164:	4770      	bx	lr
 8009166:	bf00      	nop

08009168 <ada__finalization___assign__3>:
 8009168:	4770      	bx	lr
 800916a:	bf00      	nop

0800916c <ada__finalization__controlledDA__2>:
 800916c:	4770      	bx	lr
 800916e:	bf00      	nop

08009170 <ada__finalization__controlledSR__2>:
 8009170:	f000 bfb6 	b.w	800a0e0 <system__finalization_root__root_controlledSR>

08009174 <ada__finalization__controlledSW__2>:
 8009174:	f000 bfd4 	b.w	800a120 <system__finalization_root__root_controlledSW>

08009178 <ada__finalization__Oeq__3>:
 8009178:	f000 bfb4 	b.w	800a0e4 <system__finalization_root__Oeq>

0800917c <ada__finalization__controlledDF__2>:
 800917c:	4770      	bx	lr
 800917e:	bf00      	nop

08009180 <ada__finalization__finalize__2>:
 8009180:	4770      	bx	lr
 8009182:	bf00      	nop

08009184 <ada__finalization___size__4>:
 8009184:	2020      	movs	r0, #32
 8009186:	2100      	movs	r1, #0
 8009188:	4770      	bx	lr
 800918a:	bf00      	nop

0800918c <ada__finalization__limited_controlledDF__2>:
 800918c:	4770      	bx	lr
 800918e:	bf00      	nop

08009190 <ada__finalization__finalize>:
 8009190:	4770      	bx	lr
 8009192:	bf00      	nop

08009194 <ada__finalization__initialize>:
 8009194:	4770      	bx	lr
 8009196:	bf00      	nop

08009198 <ada__finalization__initialize__2>:
 8009198:	4770      	bx	lr
 800919a:	bf00      	nop

0800919c <ada__finalization__controlledSO__2>:
 800919c:	f000 bfc0 	b.w	800a120 <system__finalization_root__root_controlledSW>

080091a0 <ada__finalization___elabs>:
 80091a0:	b508      	push	{r3, lr}
 80091a2:	4804      	ldr	r0, [pc, #16]	; (80091b4 <ada__finalization___elabs+0x14>)
 80091a4:	f000 f8b8 	bl	8009318 <ada__tags__register_tag>
 80091a8:	4803      	ldr	r0, [pc, #12]	; (80091b8 <ada__finalization___elabs+0x18>)
 80091aa:	e8bd 4008 	ldmia.w	sp!, {r3, lr}
 80091ae:	f000 b8b3 	b.w	8009318 <ada__tags__register_tag>
 80091b2:	bf00      	nop
 80091b4:	0800e368 	.word	0x0800e368
 80091b8:	0800e408 	.word	0x0800e408

080091bc <ada__streams___size>:
 80091bc:	2020      	movs	r0, #32
 80091be:	2100      	movs	r1, #0
 80091c0:	4770      	bx	lr
 80091c2:	bf00      	nop

080091c4 <ada__streams__root_stream_typeDF>:
 80091c4:	4770      	bx	lr
 80091c6:	bf00      	nop

080091c8 <ada__streams___elabs>:
 80091c8:	4801      	ldr	r0, [pc, #4]	; (80091d0 <ada__streams___elabs+0x8>)
 80091ca:	f000 b8a5 	b.w	8009318 <ada__tags__register_tag>
 80091ce:	bf00      	nop
 80091d0:	0800e4a0 	.word	0x0800e4a0

080091d4 <ada__tags__htable_subprograms__hashXn>:
 80091d4:	b470      	push	{r4, r5, r6}
 80091d6:	7806      	ldrb	r6, [r0, #0]
 80091d8:	b1d6      	cbz	r6, 8009210 <ada__tags__htable_subprograms__hashXn+0x3c>
 80091da:	4601      	mov	r1, r0
 80091dc:	2401      	movs	r4, #1
 80091de:	e000      	b.n	80091e2 <ada__tags__htable_subprograms__hashXn+0xe>
 80091e0:	462c      	mov	r4, r5
 80091e2:	f811 3f01 	ldrb.w	r3, [r1, #1]!
 80091e6:	1c65      	adds	r5, r4, #1
 80091e8:	2b00      	cmp	r3, #0
 80091ea:	d1f9      	bne.n	80091e0 <ada__tags__htable_subprograms__hashXn+0xc>
 80091ec:	1e42      	subs	r2, r0, #1
 80091ee:	4414      	add	r4, r2
 80091f0:	e001      	b.n	80091f6 <ada__tags__htable_subprograms__hashXn+0x22>
 80091f2:	f810 6f01 	ldrb.w	r6, [r0, #1]!
 80091f6:	041a      	lsls	r2, r3, #16
 80091f8:	eb02 1283 	add.w	r2, r2, r3, lsl #6
 80091fc:	4432      	add	r2, r6
 80091fe:	42a0      	cmp	r0, r4
 8009200:	eba2 0303 	sub.w	r3, r2, r3
 8009204:	d1f5      	bne.n	80091f2 <ada__tags__htable_subprograms__hashXn+0x1e>
 8009206:	f003 003f 	and.w	r0, r3, #63	; 0x3f
 800920a:	3001      	adds	r0, #1
 800920c:	bc70      	pop	{r4, r5, r6}
 800920e:	4770      	bx	lr
 8009210:	2001      	movs	r0, #1
 8009212:	bc70      	pop	{r4, r5, r6}
 8009214:	4770      	bx	lr
 8009216:	bf00      	nop

08009218 <ada__tags__external_tag_htable__getXn>:
 8009218:	b5f8      	push	{r3, r4, r5, r6, r7, lr}
 800921a:	4607      	mov	r7, r0
 800921c:	f7ff ffda 	bl	80091d4 <ada__tags__htable_subprograms__hashXn>
 8009220:	f100 4080 	add.w	r0, r0, #1073741824	; 0x40000000
 8009224:	3801      	subs	r0, #1
 8009226:	4b0d      	ldr	r3, [pc, #52]	; (800925c <ada__tags__external_tag_htable__getXn+0x44>)
 8009228:	f853 0020 	ldr.w	r0, [r3, r0, lsl #2]
 800922c:	b1a0      	cbz	r0, 8009258 <ada__tags__external_tag_htable__getXn+0x40>
 800922e:	783e      	ldrb	r6, [r7, #0]
 8009230:	f850 5c04 	ldr.w	r5, [r0, #-4]
 8009234:	692a      	ldr	r2, [r5, #16]
 8009236:	7813      	ldrb	r3, [r2, #0]
 8009238:	42b3      	cmp	r3, r6
 800923a:	d109      	bne.n	8009250 <ada__tags__external_tag_htable__getXn+0x38>
 800923c:	b166      	cbz	r6, 8009258 <ada__tags__external_tag_htable__getXn+0x40>
 800923e:	4639      	mov	r1, r7
 8009240:	e000      	b.n	8009244 <ada__tags__external_tag_htable__getXn+0x2c>
 8009242:	b14b      	cbz	r3, 8009258 <ada__tags__external_tag_htable__getXn+0x40>
 8009244:	f812 4f01 	ldrb.w	r4, [r2, #1]!
 8009248:	f811 3f01 	ldrb.w	r3, [r1, #1]!
 800924c:	42a3      	cmp	r3, r4
 800924e:	d0f8      	beq.n	8009242 <ada__tags__external_tag_htable__getXn+0x2a>
 8009250:	696b      	ldr	r3, [r5, #20]
 8009252:	6818      	ldr	r0, [r3, #0]
 8009254:	2800      	cmp	r0, #0
 8009256:	d1eb      	bne.n	8009230 <ada__tags__external_tag_htable__getXn+0x18>
 8009258:	bdf8      	pop	{r3, r4, r5, r6, r7, pc}
 800925a:	bf00      	nop
 800925c:	20001a98 	.word	0x20001a98

08009260 <ada__tags__external_tag_htable__setXn>:
 8009260:	b538      	push	{r3, r4, r5, lr}
 8009262:	f850 5c04 	ldr.w	r5, [r0, #-4]
 8009266:	4604      	mov	r4, r0
 8009268:	6928      	ldr	r0, [r5, #16]
 800926a:	f7ff ffb3 	bl	80091d4 <ada__tags__htable_subprograms__hashXn>
 800926e:	f100 4080 	add.w	r0, r0, #1073741824	; 0x40000000
 8009272:	3801      	subs	r0, #1
 8009274:	4b03      	ldr	r3, [pc, #12]	; (8009284 <ada__tags__external_tag_htable__setXn+0x24>)
 8009276:	696a      	ldr	r2, [r5, #20]
 8009278:	f853 1020 	ldr.w	r1, [r3, r0, lsl #2]
 800927c:	6011      	str	r1, [r2, #0]
 800927e:	f843 4020 	str.w	r4, [r3, r0, lsl #2]
 8009282:	bd38      	pop	{r3, r4, r5, pc}
 8009284:	20001a98 	.word	0x20001a98

08009288 <ada__tags__check_tsd>:
 8009288:	b5f0      	push	{r4, r5, r6, r7, lr}
 800928a:	b083      	sub	sp, #12
 800928c:	6906      	ldr	r6, [r0, #16]
 800928e:	7834      	ldrb	r4, [r6, #0]
 8009290:	af00      	add	r7, sp, #0
 8009292:	b184      	cbz	r4, 80092b6 <ada__tags__check_tsd+0x2e>
 8009294:	4632      	mov	r2, r6
 8009296:	2301      	movs	r3, #1
 8009298:	e000      	b.n	800929c <ada__tags__check_tsd+0x14>
 800929a:	462b      	mov	r3, r5
 800929c:	f812 1f01 	ldrb.w	r1, [r2, #1]!
 80092a0:	1c5d      	adds	r5, r3, #1
 80092a2:	2900      	cmp	r1, #0
 80092a4:	d1f9      	bne.n	800929a <ada__tags__check_tsd+0x12>
 80092a6:	461c      	mov	r4, r3
 80092a8:	4630      	mov	r0, r6
 80092aa:	f7ff ffb5 	bl	8009218 <ada__tags__external_tag_htable__getXn>
 80092ae:	b920      	cbnz	r0, 80092ba <ada__tags__check_tsd+0x32>
 80092b0:	370c      	adds	r7, #12
 80092b2:	46bd      	mov	sp, r7
 80092b4:	bdf0      	pop	{r4, r5, r6, r7, pc}
 80092b6:	2501      	movs	r5, #1
 80092b8:	e7f6      	b.n	80092a8 <ada__tags__check_tsd+0x20>
 80092ba:	f8df c058 	ldr.w	ip, [pc, #88]	; 8009314 <ada__tags__check_tsd+0x8c>
 80092be:	e8bc 000f 	ldmia.w	ip!, {r0, r1, r2, r3}
 80092c2:	f105 0e20 	add.w	lr, r5, #32
 80092c6:	f02e 0e07 	bic.w	lr, lr, #7
 80092ca:	ebad 0d0e 	sub.w	sp, sp, lr
 80092ce:	3519      	adds	r5, #25
 80092d0:	9000      	str	r0, [sp, #0]
 80092d2:	9101      	str	r1, [sp, #4]
 80092d4:	e8bc 0003 	ldmia.w	ip!, {r0, r1}
 80092d8:	9202      	str	r2, [sp, #8]
 80092da:	4622      	mov	r2, r4
 80092dc:	f89c 4000 	ldrb.w	r4, [ip]
 80092e0:	f88d 4018 	strb.w	r4, [sp, #24]
 80092e4:	eb0d 0405 	add.w	r4, sp, r5
 80092e8:	9004      	str	r0, [sp, #16]
 80092ea:	9105      	str	r1, [sp, #20]
 80092ec:	f10d 0019 	add.w	r0, sp, #25
 80092f0:	4631      	mov	r1, r6
 80092f2:	2622      	movs	r6, #34	; 0x22
 80092f4:	9303      	str	r3, [sp, #12]
 80092f6:	f001 f803 	bl	800a300 <memmove>
 80092fa:	2301      	movs	r3, #1
 80092fc:	4669      	mov	r1, sp
 80092fe:	463a      	mov	r2, r7
 8009300:	4803      	ldr	r0, [pc, #12]	; (8009310 <ada__tags__check_tsd+0x88>)
 8009302:	f804 6c01 	strb.w	r6, [r4, #-1]
 8009306:	607d      	str	r5, [r7, #4]
 8009308:	603b      	str	r3, [r7, #0]
 800930a:	f7ff fe3d 	bl	8008f88 <__gnat_raise_exception>
 800930e:	bf00      	nop
 8009310:	200001e8 	.word	0x200001e8
 8009314:	0800e4a8 	.word	0x0800e4a8

08009318 <ada__tags__register_tag>:
 8009318:	f7ff bfa2 	b.w	8009260 <ada__tags__external_tag_htable__setXn>

0800931c <ada__tags___elabb>:
 800931c:	4b04      	ldr	r3, [pc, #16]	; (8009330 <ada__tags___elabb+0x14>)
 800931e:	2100      	movs	r1, #0
 8009320:	f503 7280 	add.w	r2, r3, #256	; 0x100
 8009324:	f843 1f04 	str.w	r1, [r3, #4]!
 8009328:	4293      	cmp	r3, r2
 800932a:	d1fb      	bne.n	8009324 <ada__tags___elabb+0x8>
 800932c:	4770      	bx	lr
 800932e:	bf00      	nop
 8009330:	20001a94 	.word	0x20001a94

08009334 <__gnat_get_executable_load_address>:
 8009334:	2000      	movs	r0, #0
 8009336:	4770      	bx	lr
	...

08009400 <__vectors>:
 8009400:	00000000 	.word	0x00000000
 8009404:	0800959d 	.word	0x0800959d
 8009408:	0800959d 	.word	0x0800959d
 800940c:	0800959d 	.word	0x0800959d
 8009410:	0800959d 	.word	0x0800959d
 8009414:	0800959d 	.word	0x0800959d
 8009418:	0800959d 	.word	0x0800959d
 800941c:	0800959d 	.word	0x0800959d
 8009420:	0800959d 	.word	0x0800959d
 8009424:	0800959d 	.word	0x0800959d
 8009428:	0800959d 	.word	0x0800959d
 800942c:	0800777d 	.word	0x0800777d
 8009430:	0800959d 	.word	0x0800959d
 8009434:	0800959d 	.word	0x0800959d
 8009438:	08009ab9 	.word	0x08009ab9
 800943c:	08007785 	.word	0x08007785
 8009440:	08007715 	.word	0x08007715
 8009444:	08007715 	.word	0x08007715
 8009448:	08007715 	.word	0x08007715
 800944c:	08007715 	.word	0x08007715
 8009450:	08007715 	.word	0x08007715
 8009454:	08007715 	.word	0x08007715
 8009458:	08007715 	.word	0x08007715
 800945c:	08007715 	.word	0x08007715
 8009460:	08007715 	.word	0x08007715
 8009464:	08007715 	.word	0x08007715
 8009468:	08007715 	.word	0x08007715
 800946c:	08007715 	.word	0x08007715
 8009470:	08007715 	.word	0x08007715
 8009474:	08007715 	.word	0x08007715
 8009478:	08007715 	.word	0x08007715
 800947c:	08007715 	.word	0x08007715
 8009480:	08007715 	.word	0x08007715
 8009484:	08007715 	.word	0x08007715
 8009488:	08007715 	.word	0x08007715
 800948c:	08007715 	.word	0x08007715
 8009490:	08007715 	.word	0x08007715
 8009494:	08007715 	.word	0x08007715
 8009498:	08007715 	.word	0x08007715
 800949c:	08007715 	.word	0x08007715
 80094a0:	08007715 	.word	0x08007715
 80094a4:	08007715 	.word	0x08007715
 80094a8:	08007715 	.word	0x08007715
 80094ac:	08007715 	.word	0x08007715
 80094b0:	08007715 	.word	0x08007715
 80094b4:	08007715 	.word	0x08007715
 80094b8:	08007715 	.word	0x08007715
 80094bc:	08007715 	.word	0x08007715
 80094c0:	08007715 	.word	0x08007715
 80094c4:	08007715 	.word	0x08007715
 80094c8:	08007715 	.word	0x08007715
 80094cc:	08007715 	.word	0x08007715
 80094d0:	08007715 	.word	0x08007715
 80094d4:	08007715 	.word	0x08007715
 80094d8:	08007715 	.word	0x08007715
 80094dc:	08007715 	.word	0x08007715
 80094e0:	08007715 	.word	0x08007715
 80094e4:	08007715 	.word	0x08007715
 80094e8:	08007715 	.word	0x08007715
 80094ec:	08007715 	.word	0x08007715
 80094f0:	08007715 	.word	0x08007715
 80094f4:	08007715 	.word	0x08007715
 80094f8:	08007715 	.word	0x08007715
 80094fc:	08007715 	.word	0x08007715
 8009500:	08007715 	.word	0x08007715
 8009504:	08007715 	.word	0x08007715
 8009508:	08007715 	.word	0x08007715
 800950c:	08007715 	.word	0x08007715
 8009510:	08007715 	.word	0x08007715
 8009514:	08007715 	.word	0x08007715
 8009518:	08007715 	.word	0x08007715
 800951c:	08007715 	.word	0x08007715
 8009520:	08007715 	.word	0x08007715
 8009524:	08007715 	.word	0x08007715
 8009528:	08007715 	.word	0x08007715
 800952c:	08007715 	.word	0x08007715
 8009530:	08007715 	.word	0x08007715
 8009534:	08007715 	.word	0x08007715
 8009538:	08007715 	.word	0x08007715
 800953c:	08007715 	.word	0x08007715
 8009540:	08007715 	.word	0x08007715
 8009544:	08007715 	.word	0x08007715
 8009548:	08007715 	.word	0x08007715
 800954c:	08007715 	.word	0x08007715
 8009550:	08007715 	.word	0x08007715
 8009554:	08007715 	.word	0x08007715
 8009558:	08007715 	.word	0x08007715
 800955c:	08007715 	.word	0x08007715
 8009560:	08007715 	.word	0x08007715
 8009564:	08007715 	.word	0x08007715
 8009568:	08007715 	.word	0x08007715
 800956c:	08007715 	.word	0x08007715
 8009570:	08007715 	.word	0x08007715
 8009574:	08007715 	.word	0x08007715
 8009578:	08007715 	.word	0x08007715
 800957c:	08007715 	.word	0x08007715
 8009580:	08007715 	.word	0x08007715
 8009584:	08007715 	.word	0x08007715
 8009588:	08007715 	.word	0x08007715
 800958c:	08007715 	.word	0x08007715
 8009590:	08007715 	.word	0x08007715
 8009594:	e7fe      	b.n	8009594 <__vectors+0x194>
 8009596:	e7fe      	b.n	8009596 <__vectors+0x196>
 8009598:	e7fe      	b.n	8009598 <__vectors+0x198>
 800959a:	e7fe      	b.n	800959a <__vectors+0x19a>

0800959c <fault>:
 800959c:	e7fe      	b.n	800959c <fault>
 800959e:	bf00      	nop

080095a0 <read_encoded_value_with_base>:
 80095a0:	2850      	cmp	r0, #80	; 0x50
 80095a2:	b5f8      	push	{r3, r4, r5, r6, r7, lr}
 80095a4:	d01c      	beq.n	80095e0 <read_encoded_value_with_base+0x40>
 80095a6:	f000 040f 	and.w	r4, r0, #15
 80095aa:	2c0c      	cmp	r4, #12
 80095ac:	d856      	bhi.n	800965c <read_encoded_value_with_base+0xbc>
 80095ae:	e8df f004 	tbb	[pc, r4]
 80095b2:	4107      	.short	0x4107
 80095b4:	551f0751 	.word	0x551f0751
 80095b8:	27555555 	.word	0x27555555
 80095bc:	0723      	.short	0x0723
 80095be:	1f          	.byte	0x1f
 80095bf:	00          	.byte	0x00
 80095c0:	4614      	mov	r4, r2
 80095c2:	f854 5b04 	ldr.w	r5, [r4], #4
 80095c6:	b145      	cbz	r5, 80095da <read_encoded_value_with_base+0x3a>
 80095c8:	f000 0670 	and.w	r6, r0, #112	; 0x70
 80095cc:	2e10      	cmp	r6, #16
 80095ce:	bf08      	it	eq
 80095d0:	4611      	moveq	r1, r2
 80095d2:	440d      	add	r5, r1
 80095d4:	0602      	lsls	r2, r0, #24
 80095d6:	bf48      	it	mi
 80095d8:	682d      	ldrmi	r5, [r5, #0]
 80095da:	601d      	str	r5, [r3, #0]
 80095dc:	4620      	mov	r0, r4
 80095de:	bdf8      	pop	{r3, r4, r5, r6, r7, pc}
 80095e0:	3203      	adds	r2, #3
 80095e2:	f022 0403 	bic.w	r4, r2, #3
 80095e6:	f854 5b04 	ldr.w	r5, [r4], #4
 80095ea:	601d      	str	r5, [r3, #0]
 80095ec:	4620      	mov	r0, r4
 80095ee:	bdf8      	pop	{r3, r4, r5, r6, r7, pc}
 80095f0:	4614      	mov	r4, r2
 80095f2:	f854 5b08 	ldr.w	r5, [r4], #8
 80095f6:	e7e6      	b.n	80095c6 <read_encoded_value_with_base+0x26>
 80095f8:	4614      	mov	r4, r2
 80095fa:	f934 5b02 	ldrsh.w	r5, [r4], #2
 80095fe:	e7e2      	b.n	80095c6 <read_encoded_value_with_base+0x26>
 8009600:	2500      	movs	r5, #0
 8009602:	462f      	mov	r7, r5
 8009604:	4614      	mov	r4, r2
 8009606:	f814 cb01 	ldrb.w	ip, [r4], #1
 800960a:	f00c 067f 	and.w	r6, ip, #127	; 0x7f
 800960e:	40be      	lsls	r6, r7
 8009610:	f01c 0f80 	tst.w	ip, #128	; 0x80
 8009614:	ea45 0506 	orr.w	r5, r5, r6
 8009618:	f107 0707 	add.w	r7, r7, #7
 800961c:	d1f3      	bne.n	8009606 <read_encoded_value_with_base+0x66>
 800961e:	2f1f      	cmp	r7, #31
 8009620:	d8d1      	bhi.n	80095c6 <read_encoded_value_with_base+0x26>
 8009622:	f01c 0f40 	tst.w	ip, #64	; 0x40
 8009626:	d0ce      	beq.n	80095c6 <read_encoded_value_with_base+0x26>
 8009628:	f04f 36ff 	mov.w	r6, #4294967295	; 0xffffffff
 800962c:	fa06 f707 	lsl.w	r7, r6, r7
 8009630:	433d      	orrs	r5, r7
 8009632:	e7c9      	b.n	80095c8 <read_encoded_value_with_base+0x28>
 8009634:	2500      	movs	r5, #0
 8009636:	462f      	mov	r7, r5
 8009638:	4614      	mov	r4, r2
 800963a:	f814 cb01 	ldrb.w	ip, [r4], #1
 800963e:	f00c 067f 	and.w	r6, ip, #127	; 0x7f
 8009642:	40be      	lsls	r6, r7
 8009644:	f01c 0f80 	tst.w	ip, #128	; 0x80
 8009648:	ea45 0506 	orr.w	r5, r5, r6
 800964c:	f107 0707 	add.w	r7, r7, #7
 8009650:	d1f3      	bne.n	800963a <read_encoded_value_with_base+0x9a>
 8009652:	e7b8      	b.n	80095c6 <read_encoded_value_with_base+0x26>
 8009654:	4614      	mov	r4, r2
 8009656:	f834 5b02 	ldrh.w	r5, [r4], #2
 800965a:	e7b4      	b.n	80095c6 <read_encoded_value_with_base+0x26>
 800965c:	f000 fdfe 	bl	800a25c <abort>

08009660 <base_of_encoded_value.part.2>:
 8009660:	f000 0070 	and.w	r0, r0, #112	; 0x70
 8009664:	2820      	cmp	r0, #32
 8009666:	d011      	beq.n	800968c <base_of_encoded_value.part.2+0x2c>
 8009668:	d90b      	bls.n	8009682 <base_of_encoded_value.part.2+0x22>
 800966a:	2840      	cmp	r0, #64	; 0x40
 800966c:	d006      	beq.n	800967c <base_of_encoded_value.part.2+0x1c>
 800966e:	2850      	cmp	r0, #80	; 0x50
 8009670:	d00a      	beq.n	8009688 <base_of_encoded_value.part.2+0x28>
 8009672:	2830      	cmp	r0, #48	; 0x30
 8009674:	d10d      	bne.n	8009692 <base_of_encoded_value.part.2+0x32>
 8009676:	4608      	mov	r0, r1
 8009678:	f002 bd96 	b.w	800c1a8 <_Unwind_GetDataRelBase>
 800967c:	4608      	mov	r0, r1
 800967e:	f002 bd83 	b.w	800c188 <_Unwind_GetRegionStart>
 8009682:	b108      	cbz	r0, 8009688 <base_of_encoded_value.part.2+0x28>
 8009684:	2810      	cmp	r0, #16
 8009686:	d104      	bne.n	8009692 <base_of_encoded_value.part.2+0x32>
 8009688:	2000      	movs	r0, #0
 800968a:	4770      	bx	lr
 800968c:	4608      	mov	r0, r1
 800968e:	f002 bd8f 	b.w	800c1b0 <_Unwind_GetTextRelBase>
 8009692:	b508      	push	{r3, lr}
 8009694:	f000 fde2 	bl	800a25c <abort>

08009698 <__gnat_personality_v0>:
 8009698:	e92d 4ff0 	stmdb	sp!, {r4, r5, r6, r7, r8, r9, sl, fp, lr}
 800969c:	f000 0303 	and.w	r3, r0, #3
 80096a0:	2b01      	cmp	r3, #1
 80096a2:	b093      	sub	sp, #76	; 0x4c
 80096a4:	4605      	mov	r5, r0
 80096a6:	4688      	mov	r8, r1
 80096a8:	4616      	mov	r6, r2
 80096aa:	f000 80d9 	beq.w	8009860 <__gnat_personality_v0+0x1c8>
 80096ae:	d310      	bcc.n	80096d2 <__gnat_personality_v0+0x3a>
 80096b0:	2b02      	cmp	r3, #2
 80096b2:	d003      	beq.n	80096bc <__gnat_personality_v0+0x24>
 80096b4:	2009      	movs	r0, #9
 80096b6:	b013      	add	sp, #76	; 0x4c
 80096b8:	e8bd 8ff0 	ldmia.w	sp!, {r4, r5, r6, r7, r8, r9, sl, fp, pc}
 80096bc:	4611      	mov	r1, r2
 80096be:	4640      	mov	r0, r8
 80096c0:	f002 fd4e 	bl	800c160 <__gnu_unwind_frame>
 80096c4:	2800      	cmp	r0, #0
 80096c6:	bf0c      	ite	eq
 80096c8:	2008      	moveq	r0, #8
 80096ca:	2009      	movne	r0, #9
 80096cc:	b013      	add	sp, #76	; 0x4c
 80096ce:	e8bd 8ff0 	ldmia.w	sp!, {r4, r5, r6, r7, r8, r9, sl, fp, pc}
 80096d2:	f04f 0901 	mov.w	r9, #1
 80096d6:	aa12      	add	r2, sp, #72	; 0x48
 80096d8:	2300      	movs	r3, #0
 80096da:	f842 8d34 	str.w	r8, [r2, #-52]!
 80096de:	4619      	mov	r1, r3
 80096e0:	9200      	str	r2, [sp, #0]
 80096e2:	4630      	mov	r0, r6
 80096e4:	220c      	movs	r2, #12
 80096e6:	f001 ffcd 	bl	800b684 <_Unwind_VRS_Set>
 80096ea:	2e00      	cmp	r6, #0
 80096ec:	f000 80bb 	beq.w	8009866 <__gnat_personality_v0+0x1ce>
 80096f0:	4630      	mov	r0, r6
 80096f2:	f002 fd4f 	bl	800c194 <_Unwind_GetLanguageSpecificData>
 80096f6:	4604      	mov	r4, r0
 80096f8:	900a      	str	r0, [sp, #40]	; 0x28
 80096fa:	2800      	cmp	r0, #0
 80096fc:	f000 80a5 	beq.w	800984a <__gnat_personality_v0+0x1b2>
 8009700:	4630      	mov	r0, r6
 8009702:	f002 fd41 	bl	800c188 <_Unwind_GetRegionStart>
 8009706:	9009      	str	r0, [sp, #36]	; 0x24
 8009708:	7827      	ldrb	r7, [r4, #0]
 800970a:	2fff      	cmp	r7, #255	; 0xff
 800970c:	f104 0401 	add.w	r4, r4, #1
 8009710:	f000 80ab 	beq.w	800986a <__gnat_personality_v0+0x1d2>
 8009714:	4631      	mov	r1, r6
 8009716:	4638      	mov	r0, r7
 8009718:	f7ff ffa2 	bl	8009660 <base_of_encoded_value.part.2>
 800971c:	4622      	mov	r2, r4
 800971e:	4601      	mov	r1, r0
 8009720:	ab0d      	add	r3, sp, #52	; 0x34
 8009722:	4638      	mov	r0, r7
 8009724:	f7ff ff3c 	bl	80095a0 <read_encoded_value_with_base>
 8009728:	4604      	mov	r4, r0
 800972a:	7820      	ldrb	r0, [r4, #0]
 800972c:	f88d 003c 	strb.w	r0, [sp, #60]	; 0x3c
 8009730:	28ff      	cmp	r0, #255	; 0xff
 8009732:	f104 0401 	add.w	r4, r4, #1
 8009736:	f000 80d8 	beq.w	80098ea <__gnat_personality_v0+0x252>
 800973a:	2700      	movs	r7, #0
 800973c:	463a      	mov	r2, r7
 800973e:	f814 1b01 	ldrb.w	r1, [r4], #1
 8009742:	f001 037f 	and.w	r3, r1, #127	; 0x7f
 8009746:	4093      	lsls	r3, r2
 8009748:	431f      	orrs	r7, r3
 800974a:	060b      	lsls	r3, r1, #24
 800974c:	f102 0207 	add.w	r2, r2, #7
 8009750:	d4f5      	bmi.n	800973e <__gnat_personality_v0+0xa6>
 8009752:	4427      	add	r7, r4
 8009754:	4631      	mov	r1, r6
 8009756:	9710      	str	r7, [sp, #64]	; 0x40
 8009758:	f7ff ff82 	bl	8009660 <base_of_encoded_value.part.2>
 800975c:	9011      	str	r0, [sp, #68]	; 0x44
 800975e:	7823      	ldrb	r3, [r4, #0]
 8009760:	f88d 302c 	strb.w	r3, [sp, #44]	; 0x2c
 8009764:	2700      	movs	r7, #0
 8009766:	1c63      	adds	r3, r4, #1
 8009768:	4639      	mov	r1, r7
 800976a:	f813 0b01 	ldrb.w	r0, [r3], #1
 800976e:	f000 027f 	and.w	r2, r0, #127	; 0x7f
 8009772:	408a      	lsls	r2, r1
 8009774:	0604      	lsls	r4, r0, #24
 8009776:	ea47 0702 	orr.w	r7, r7, r2
 800977a:	f101 0107 	add.w	r1, r1, #7
 800977e:	d4f4      	bmi.n	800976a <__gnat_personality_v0+0xd2>
 8009780:	9a0a      	ldr	r2, [sp, #40]	; 0x28
 8009782:	930c      	str	r3, [sp, #48]	; 0x30
 8009784:	443b      	add	r3, r7
 8009786:	930e      	str	r3, [sp, #56]	; 0x38
 8009788:	2a00      	cmp	r2, #0
 800978a:	d05e      	beq.n	800984a <__gnat_personality_v0+0x1b2>
 800978c:	2300      	movs	r3, #0
 800978e:	aa08      	add	r2, sp, #32
 8009790:	9200      	str	r2, [sp, #0]
 8009792:	4619      	mov	r1, r3
 8009794:	220f      	movs	r2, #15
 8009796:	4630      	mov	r0, r6
 8009798:	f001 ff52 	bl	800b640 <_Unwind_VRS_Get>
 800979c:	f005 0708 	and.w	r7, r5, #8
 80097a0:	9c08      	ldr	r4, [sp, #32]
 80097a2:	9d0c      	ldr	r5, [sp, #48]	; 0x30
 80097a4:	9b0e      	ldr	r3, [sp, #56]	; 0x38
 80097a6:	f024 0401 	bic.w	r4, r4, #1
 80097aa:	429d      	cmp	r5, r3
 80097ac:	ea47 0709 	orr.w	r7, r7, r9
 80097b0:	f104 34ff 	add.w	r4, r4, #4294967295	; 0xffffffff
 80097b4:	d249      	bcs.n	800984a <__gnat_personality_v0+0x1b2>
 80097b6:	f89d 902c 	ldrb.w	r9, [sp, #44]	; 0x2c
 80097ba:	f1b9 0fff 	cmp.w	r9, #255	; 0xff
 80097be:	f04f 0100 	mov.w	r1, #0
 80097c2:	d003      	beq.n	80097cc <__gnat_personality_v0+0x134>
 80097c4:	4648      	mov	r0, r9
 80097c6:	f7ff ff4b 	bl	8009660 <base_of_encoded_value.part.2>
 80097ca:	4601      	mov	r1, r0
 80097cc:	462a      	mov	r2, r5
 80097ce:	4648      	mov	r0, r9
 80097d0:	ab06      	add	r3, sp, #24
 80097d2:	f7ff fee5 	bl	80095a0 <read_encoded_value_with_base>
 80097d6:	f89d 502c 	ldrb.w	r5, [sp, #44]	; 0x2c
 80097da:	2dff      	cmp	r5, #255	; 0xff
 80097dc:	4681      	mov	r9, r0
 80097de:	f04f 0100 	mov.w	r1, #0
 80097e2:	d003      	beq.n	80097ec <__gnat_personality_v0+0x154>
 80097e4:	4628      	mov	r0, r5
 80097e6:	f7ff ff3b 	bl	8009660 <base_of_encoded_value.part.2>
 80097ea:	4601      	mov	r1, r0
 80097ec:	464a      	mov	r2, r9
 80097ee:	4628      	mov	r0, r5
 80097f0:	ab07      	add	r3, sp, #28
 80097f2:	f7ff fed5 	bl	80095a0 <read_encoded_value_with_base>
 80097f6:	f89d 502c 	ldrb.w	r5, [sp, #44]	; 0x2c
 80097fa:	2dff      	cmp	r5, #255	; 0xff
 80097fc:	4681      	mov	r9, r0
 80097fe:	f04f 0100 	mov.w	r1, #0
 8009802:	d003      	beq.n	800980c <__gnat_personality_v0+0x174>
 8009804:	4628      	mov	r0, r5
 8009806:	f7ff ff2b 	bl	8009660 <base_of_encoded_value.part.2>
 800980a:	4601      	mov	r1, r0
 800980c:	464a      	mov	r2, r9
 800980e:	4628      	mov	r0, r5
 8009810:	ab08      	add	r3, sp, #32
 8009812:	f7ff fec5 	bl	80095a0 <read_encoded_value_with_base>
 8009816:	2200      	movs	r2, #0
 8009818:	4605      	mov	r5, r0
 800981a:	4611      	mov	r1, r2
 800981c:	f815 0b01 	ldrb.w	r0, [r5], #1
 8009820:	f000 037f 	and.w	r3, r0, #127	; 0x7f
 8009824:	408b      	lsls	r3, r1
 8009826:	0600      	lsls	r0, r0, #24
 8009828:	ea42 0203 	orr.w	r2, r2, r3
 800982c:	f101 0107 	add.w	r1, r1, #7
 8009830:	d4f4      	bmi.n	800981c <__gnat_personality_v0+0x184>
 8009832:	9b09      	ldr	r3, [sp, #36]	; 0x24
 8009834:	9906      	ldr	r1, [sp, #24]
 8009836:	440b      	add	r3, r1
 8009838:	429c      	cmp	r4, r3
 800983a:	d306      	bcc.n	800984a <__gnat_personality_v0+0x1b2>
 800983c:	9907      	ldr	r1, [sp, #28]
 800983e:	440b      	add	r3, r1
 8009840:	429c      	cmp	r4, r3
 8009842:	d314      	bcc.n	800986e <__gnat_personality_v0+0x1d6>
 8009844:	9b0e      	ldr	r3, [sp, #56]	; 0x38
 8009846:	429d      	cmp	r5, r3
 8009848:	d3b5      	bcc.n	80097b6 <__gnat_personality_v0+0x11e>
 800984a:	4631      	mov	r1, r6
 800984c:	4640      	mov	r0, r8
 800984e:	f002 fc87 	bl	800c160 <__gnu_unwind_frame>
 8009852:	2800      	cmp	r0, #0
 8009854:	f47f af2e 	bne.w	80096b4 <__gnat_personality_v0+0x1c>
 8009858:	2008      	movs	r0, #8
 800985a:	b013      	add	sp, #76	; 0x4c
 800985c:	e8bd 8ff0 	ldmia.w	sp!, {r4, r5, r6, r7, r8, r9, sl, fp, pc}
 8009860:	f04f 0902 	mov.w	r9, #2
 8009864:	e737      	b.n	80096d6 <__gnat_personality_v0+0x3e>
 8009866:	960a      	str	r6, [sp, #40]	; 0x28
 8009868:	e7ef      	b.n	800984a <__gnat_personality_v0+0x1b2>
 800986a:	900d      	str	r0, [sp, #52]	; 0x34
 800986c:	e75d      	b.n	800972a <__gnat_personality_v0+0x92>
 800986e:	9b08      	ldr	r3, [sp, #32]
 8009870:	2b00      	cmp	r3, #0
 8009872:	d0ea      	beq.n	800984a <__gnat_personality_v0+0x1b2>
 8009874:	990d      	ldr	r1, [sp, #52]	; 0x34
 8009876:	440b      	add	r3, r1
 8009878:	4619      	mov	r1, r3
 800987a:	9303      	str	r3, [sp, #12]
 800987c:	2a00      	cmp	r2, #0
 800987e:	d137      	bne.n	80098f0 <__gnat_personality_v0+0x258>
 8009880:	9b03      	ldr	r3, [sp, #12]
 8009882:	2b00      	cmp	r3, #0
 8009884:	d0e1      	beq.n	800984a <__gnat_personality_v0+0x1b2>
 8009886:	f017 0901 	ands.w	r9, r7, #1
 800988a:	d1de      	bne.n	800984a <__gnat_personality_v0+0x1b2>
 800988c:	2300      	movs	r3, #0
 800988e:	aa06      	add	r2, sp, #24
 8009890:	4619      	mov	r1, r3
 8009892:	9200      	str	r2, [sp, #0]
 8009894:	4630      	mov	r0, r6
 8009896:	461a      	mov	r2, r3
 8009898:	f8cd 8018 	str.w	r8, [sp, #24]
 800989c:	f001 fef2 	bl	800b684 <_Unwind_VRS_Set>
 80098a0:	2300      	movs	r3, #0
 80098a2:	aa07      	add	r2, sp, #28
 80098a4:	4619      	mov	r1, r3
 80098a6:	9200      	str	r2, [sp, #0]
 80098a8:	4630      	mov	r0, r6
 80098aa:	2201      	movs	r2, #1
 80098ac:	f8cd 901c 	str.w	r9, [sp, #28]
 80098b0:	f001 fee8 	bl	800b684 <_Unwind_VRS_Set>
 80098b4:	2300      	movs	r3, #0
 80098b6:	aa08      	add	r2, sp, #32
 80098b8:	4619      	mov	r1, r3
 80098ba:	9200      	str	r2, [sp, #0]
 80098bc:	4630      	mov	r0, r6
 80098be:	220f      	movs	r2, #15
 80098c0:	f001 febe 	bl	800b640 <_Unwind_VRS_Get>
 80098c4:	9b08      	ldr	r3, [sp, #32]
 80098c6:	aa08      	add	r2, sp, #32
 80098c8:	9200      	str	r2, [sp, #0]
 80098ca:	9a03      	ldr	r2, [sp, #12]
 80098cc:	f003 0401 	and.w	r4, r3, #1
 80098d0:	2300      	movs	r3, #0
 80098d2:	4314      	orrs	r4, r2
 80098d4:	4619      	mov	r1, r3
 80098d6:	220f      	movs	r2, #15
 80098d8:	4630      	mov	r0, r6
 80098da:	9408      	str	r4, [sp, #32]
 80098dc:	f001 fed2 	bl	800b684 <_Unwind_VRS_Set>
 80098e0:	4640      	mov	r0, r8
 80098e2:	f7ff f97d 	bl	8008be0 <__gnat_setup_current_excep>
 80098e6:	2007      	movs	r0, #7
 80098e8:	e6e5      	b.n	80096b6 <__gnat_personality_v0+0x1e>
 80098ea:	2000      	movs	r0, #0
 80098ec:	9010      	str	r0, [sp, #64]	; 0x40
 80098ee:	e735      	b.n	800975c <__gnat_personality_v0+0xc4>
 80098f0:	9b0e      	ldr	r3, [sp, #56]	; 0x38
 80098f2:	2900      	cmp	r1, #0
 80098f4:	d0a9      	beq.n	800984a <__gnat_personality_v0+0x1b2>
 80098f6:	3a01      	subs	r2, #1
 80098f8:	189a      	adds	r2, r3, r2
 80098fa:	d0c4      	beq.n	8009886 <__gnat_personality_v0+0x1ee>
 80098fc:	f04f 0a01 	mov.w	sl, #1
 8009900:	4613      	mov	r3, r2
 8009902:	2100      	movs	r1, #0
 8009904:	4608      	mov	r0, r1
 8009906:	e000      	b.n	800990a <__gnat_personality_v0+0x272>
 8009908:	4623      	mov	r3, r4
 800990a:	461c      	mov	r4, r3
 800990c:	f814 5b01 	ldrb.w	r5, [r4], #1
 8009910:	f005 027f 	and.w	r2, r5, #127	; 0x7f
 8009914:	4082      	lsls	r2, r0
 8009916:	4311      	orrs	r1, r2
 8009918:	062a      	lsls	r2, r5, #24
 800991a:	f100 0007 	add.w	r0, r0, #7
 800991e:	d4f3      	bmi.n	8009908 <__gnat_personality_v0+0x270>
 8009920:	281f      	cmp	r0, #31
 8009922:	d806      	bhi.n	8009932 <__gnat_personality_v0+0x29a>
 8009924:	066d      	lsls	r5, r5, #25
 8009926:	d504      	bpl.n	8009932 <__gnat_personality_v0+0x29a>
 8009928:	f04f 32ff 	mov.w	r2, #4294967295	; 0xffffffff
 800992c:	fa02 f000 	lsl.w	r0, r2, r0
 8009930:	4301      	orrs	r1, r0
 8009932:	2500      	movs	r5, #0
 8009934:	4628      	mov	r0, r5
 8009936:	4689      	mov	r9, r1
 8009938:	f813 cf01 	ldrb.w	ip, [r3, #1]!
 800993c:	f00c 027f 	and.w	r2, ip, #127	; 0x7f
 8009940:	4082      	lsls	r2, r0
 8009942:	f01c 0f80 	tst.w	ip, #128	; 0x80
 8009946:	ea45 0502 	orr.w	r5, r5, r2
 800994a:	f100 0007 	add.w	r0, r0, #7
 800994e:	d1f3      	bne.n	8009938 <__gnat_personality_v0+0x2a0>
 8009950:	281f      	cmp	r0, #31
 8009952:	d807      	bhi.n	8009964 <__gnat_personality_v0+0x2cc>
 8009954:	f01c 0f40 	tst.w	ip, #64	; 0x40
 8009958:	d004      	beq.n	8009964 <__gnat_personality_v0+0x2cc>
 800995a:	f04f 33ff 	mov.w	r3, #4294967295	; 0xffffffff
 800995e:	fa03 f000 	lsl.w	r0, r3, r0
 8009962:	4305      	orrs	r5, r0
 8009964:	2900      	cmp	r1, #0
 8009966:	d050      	beq.n	8009a0a <__gnat_personality_v0+0x372>
 8009968:	dd02      	ble.n	8009970 <__gnat_personality_v0+0x2d8>
 800996a:	f017 0208 	ands.w	r2, r7, #8
 800996e:	d003      	beq.n	8009978 <__gnat_personality_v0+0x2e0>
 8009970:	2d00      	cmp	r5, #0
 8009972:	d060      	beq.n	8009a36 <__gnat_personality_v0+0x39e>
 8009974:	1963      	adds	r3, r4, r5
 8009976:	e7c4      	b.n	8009902 <__gnat_personality_v0+0x26a>
 8009978:	f89d 003c 	ldrb.w	r0, [sp, #60]	; 0x3c
 800997c:	28ff      	cmp	r0, #255	; 0xff
 800997e:	d00a      	beq.n	8009996 <__gnat_personality_v0+0x2fe>
 8009980:	f000 0307 	and.w	r3, r0, #7
 8009984:	2b04      	cmp	r3, #4
 8009986:	d85b      	bhi.n	8009a40 <__gnat_personality_v0+0x3a8>
 8009988:	e8df f003 	tbb	[pc, r3]
 800998c:	3c395a3c 	.word	0x3c395a3c
 8009990:	03          	.byte	0x03
 8009991:	00          	.byte	0x00
 8009992:	00c9      	lsls	r1, r1, #3
 8009994:	424a      	negs	r2, r1
 8009996:	e9dd 3110 	ldrd	r3, r1, [sp, #64]	; 0x40
 800999a:	441a      	add	r2, r3
 800999c:	ab08      	add	r3, sp, #32
 800999e:	f7ff fdff 	bl	80095a0 <read_encoded_value_with_base>
 80099a2:	f8dd b020 	ldr.w	fp, [sp, #32]
 80099a6:	4b2c      	ldr	r3, [pc, #176]	; (8009a58 <__gnat_personality_v0+0x3c0>)
 80099a8:	459b      	cmp	fp, r3
 80099aa:	d01e      	beq.n	80099ea <__gnat_personality_v0+0x352>
 80099ac:	2208      	movs	r2, #8
 80099ae:	492b      	ldr	r1, [pc, #172]	; (8009a5c <__gnat_personality_v0+0x3c4>)
 80099b0:	4640      	mov	r0, r8
 80099b2:	f000 fc63 	bl	800a27c <memcmp>
 80099b6:	b358      	cbz	r0, 8009a10 <__gnat_personality_v0+0x378>
 80099b8:	4b29      	ldr	r3, [pc, #164]	; (8009a60 <__gnat_personality_v0+0x3c8>)
 80099ba:	459b      	cmp	fp, r3
 80099bc:	d015      	beq.n	80099ea <__gnat_personality_v0+0x352>
 80099be:	4b29      	ldr	r3, [pc, #164]	; (8009a64 <__gnat_personality_v0+0x3cc>)
 80099c0:	459b      	cmp	fp, r3
 80099c2:	d012      	beq.n	80099ea <__gnat_personality_v0+0x352>
 80099c4:	2208      	movs	r2, #8
 80099c6:	4928      	ldr	r1, [pc, #160]	; (8009a68 <__gnat_personality_v0+0x3d0>)
 80099c8:	4640      	mov	r0, r8
 80099ca:	f000 fc57 	bl	800a27c <memcmp>
 80099ce:	2800      	cmp	r0, #0
 80099d0:	d1ce      	bne.n	8009970 <__gnat_personality_v0+0x2d8>
 80099d2:	4658      	mov	r0, fp
 80099d4:	f7ff f964 	bl	8008ca0 <__gnat_language_for>
 80099d8:	2843      	cmp	r0, #67	; 0x43
 80099da:	d1c9      	bne.n	8009970 <__gnat_personality_v0+0x2d8>
 80099dc:	4658      	mov	r0, fp
 80099de:	f7ff f959 	bl	8008c94 <__gnat_foreign_data_for>
 80099e2:	f858 3c20 	ldr.w	r3, [r8, #-32]
 80099e6:	4283      	cmp	r3, r0
 80099e8:	d1c2      	bne.n	8009970 <__gnat_personality_v0+0x2d8>
 80099ea:	07fa      	lsls	r2, r7, #31
 80099ec:	f57f af4e 	bpl.w	800988c <__gnat_personality_v0+0x1f4>
 80099f0:	4640      	mov	r0, r8
 80099f2:	f7ff f8f5 	bl	8008be0 <__gnat_setup_current_excep>
 80099f6:	f7ff f9df 	bl	8008db8 <__gnat_notify_handled_exception>
 80099fa:	2006      	movs	r0, #6
 80099fc:	e65b      	b.n	80096b6 <__gnat_personality_v0+0x1e>
 80099fe:	004a      	lsls	r2, r1, #1
 8009a00:	4252      	negs	r2, r2
 8009a02:	e7c8      	b.n	8009996 <__gnat_personality_v0+0x2fe>
 8009a04:	008a      	lsls	r2, r1, #2
 8009a06:	4252      	negs	r2, r2
 8009a08:	e7c5      	b.n	8009996 <__gnat_personality_v0+0x2fe>
 8009a0a:	f04f 0a02 	mov.w	sl, #2
 8009a0e:	e7af      	b.n	8009970 <__gnat_personality_v0+0x2d8>
 8009a10:	4640      	mov	r0, r8
 8009a12:	f7ff f93d 	bl	8008c90 <__gnat_eid_for>
 8009a16:	4b15      	ldr	r3, [pc, #84]	; (8009a6c <__gnat_personality_v0+0x3d4>)
 8009a18:	459b      	cmp	fp, r3
 8009a1a:	d013      	beq.n	8009a44 <__gnat_personality_v0+0x3ac>
 8009a1c:	4640      	mov	r0, r8
 8009a1e:	f7ff f937 	bl	8008c90 <__gnat_eid_for>
 8009a22:	4558      	cmp	r0, fp
 8009a24:	d0e1      	beq.n	80099ea <__gnat_personality_v0+0x352>
 8009a26:	4b0e      	ldr	r3, [pc, #56]	; (8009a60 <__gnat_personality_v0+0x3c8>)
 8009a28:	459b      	cmp	fp, r3
 8009a2a:	d1a1      	bne.n	8009970 <__gnat_personality_v0+0x2d8>
 8009a2c:	f7ff f934 	bl	8008c98 <__gnat_is_handled_by_others>
 8009a30:	2800      	cmp	r0, #0
 8009a32:	d09d      	beq.n	8009970 <__gnat_personality_v0+0x2d8>
 8009a34:	e7d9      	b.n	80099ea <__gnat_personality_v0+0x352>
 8009a36:	f1ba 0f01 	cmp.w	sl, #1
 8009a3a:	f47f af24 	bne.w	8009886 <__gnat_personality_v0+0x1ee>
 8009a3e:	e704      	b.n	800984a <__gnat_personality_v0+0x1b2>
 8009a40:	f000 fc0c 	bl	800a25c <abort>
 8009a44:	07fb      	lsls	r3, r7, #31
 8009a46:	f57f af21 	bpl.w	800988c <__gnat_personality_v0+0x1f4>
 8009a4a:	4640      	mov	r0, r8
 8009a4c:	f7ff f8c8 	bl	8008be0 <__gnat_setup_current_excep>
 8009a50:	f7ff f9b8 	bl	8008dc4 <__gnat_notify_unhandled_exception>
 8009a54:	e7d1      	b.n	80099fa <__gnat_personality_v0+0x362>
 8009a56:	bf00      	nop
 8009a58:	0800e2c7 	.word	0x0800e2c7
 8009a5c:	0800dfd0 	.word	0x0800dfd0
 8009a60:	0800e2c6 	.word	0x0800e2c6
 8009a64:	20000120 	.word	0x20000120
 8009a68:	0800e4c4 	.word	0x0800e4c4
 8009a6c:	0800e2c8 	.word	0x0800e2c8

08009a70 <__gnat_cleanupunwind_handler>:
 8009a70:	06ca      	lsls	r2, r1, #27
 8009a72:	d401      	bmi.n	8009a78 <__gnat_cleanupunwind_handler+0x8>
 8009a74:	2000      	movs	r0, #0
 8009a76:	4770      	bx	lr
 8009a78:	b508      	push	{r3, lr}
 8009a7a:	4618      	mov	r0, r3
 8009a7c:	f7ff f902 	bl	8008c84 <__gnat_unhandled_except_handler>
 8009a80:	2000      	movs	r0, #0
 8009a82:	bd08      	pop	{r3, pc}

08009a84 <__gnat_Unwind_RaiseException>:
 8009a84:	f002 b984 	b.w	800bd90 <_Unwind_RaiseException>

08009a88 <__gnat_Unwind_ForcedUnwind>:
 8009a88:	f002 b9b8 	b.w	800bdfc <_Unwind_ForcedUnwind>

08009a8c <system__assertions__raise_assert_failure>:
 8009a8c:	b538      	push	{r3, r4, r5, lr}
 8009a8e:	4604      	mov	r4, r0
 8009a90:	460d      	mov	r5, r1
 8009a92:	f000 f84d 	bl	8009b30 <__gnat_debug_raise_assert_failure>
 8009a96:	4621      	mov	r1, r4
 8009a98:	462a      	mov	r2, r5
 8009a9a:	4801      	ldr	r0, [pc, #4]	; (8009aa0 <system__assertions__raise_assert_failure+0x14>)
 8009a9c:	f7ff fa74 	bl	8008f88 <__gnat_raise_exception>
 8009aa0:	20000108 	.word	0x20000108

08009aa4 <system__bb__cpu_primitives__context_switch_trigger__initialize_context_switch>:
 8009aa4:	4770      	bx	lr
 8009aa6:	bf00      	nop

08009aa8 <system__bb__cpu_primitives__context_switch_trigger__trigger_context_switch>:
 8009aa8:	4b02      	ldr	r3, [pc, #8]	; (8009ab4 <system__bb__cpu_primitives__context_switch_trigger__trigger_context_switch+0xc>)
 8009aaa:	f04f 5280 	mov.w	r2, #268435456	; 0x10000000
 8009aae:	601a      	str	r2, [r3, #0]
 8009ab0:	4770      	bx	lr
 8009ab2:	bf00      	nop
 8009ab4:	e000ed04 	.word	0xe000ed04

08009ab8 <__gnat_pend_sv_trap>:
 8009ab8:	4a0f      	ldr	r2, [pc, #60]	; (8009af8 <__gnat_pend_sv_trap+0x40>)
 8009aba:	f3ef 8c09 	mrs	ip, PSP
 8009abe:	6813      	ldr	r3, [r2, #0]
 8009ac0:	f01e 0f10 	tst.w	lr, #16
 8009ac4:	bf06      	itte	eq
 8009ac6:	ed2c 8a10 	vstmdbeq	ip!, {s16-s31}
 8009aca:	f10c 0c01 	addeq.w	ip, ip, #1
 8009ace:	f1ae 0e10 	subne.w	lr, lr, #16
 8009ad2:	e883 1ff0 	stmia.w	r3, {r4, r5, r6, r7, r8, r9, sl, fp, ip}
 8009ad6:	4b09      	ldr	r3, [pc, #36]	; (8009afc <__gnat_pend_sv_trap+0x44>)
 8009ad8:	681b      	ldr	r3, [r3, #0]
 8009ada:	6013      	str	r3, [r2, #0]
 8009adc:	e893 1ff0 	ldmia.w	r3, {r4, r5, r6, r7, r8, r9, sl, fp, ip}
 8009ae0:	f01c 0f01 	tst.w	ip, #1
 8009ae4:	bf1a      	itte	ne
 8009ae6:	f1ac 0c01 	subne.w	ip, ip, #1
 8009aea:	ecbc 8a10 	vldmiane	ip!, {s16-s31}
 8009aee:	f10e 0e10 	addeq.w	lr, lr, #16
 8009af2:	f38c 8809 	msr	PSP, ip
 8009af6:	4770      	bx	lr
 8009af8:	20000094 	.word	0x20000094
 8009afc:	20000098 	.word	0x20000098

08009b00 <__gnat_debug_raise_exception>:
 8009b00:	b480      	push	{r7}
 8009b02:	b085      	sub	sp, #20
 8009b04:	af00      	add	r7, sp, #0
 8009b06:	60f8      	str	r0, [r7, #12]
 8009b08:	e9c7 1200 	strd	r1, r2, [r7]
 8009b0c:	683b      	ldr	r3, [r7, #0]
 8009b0e:	bf00      	nop
 8009b10:	3714      	adds	r7, #20
 8009b12:	46bd      	mov	sp, r7
 8009b14:	f85d 7b04 	ldr.w	r7, [sp], #4
 8009b18:	4770      	bx	lr
 8009b1a:	bf00      	nop

08009b1c <__gnat_unhandled_exception>:
 8009b1c:	b480      	push	{r7}
 8009b1e:	b083      	sub	sp, #12
 8009b20:	af00      	add	r7, sp, #0
 8009b22:	6078      	str	r0, [r7, #4]
 8009b24:	bf00      	nop
 8009b26:	370c      	adds	r7, #12
 8009b28:	46bd      	mov	sp, r7
 8009b2a:	f85d 7b04 	ldr.w	r7, [sp], #4
 8009b2e:	4770      	bx	lr

08009b30 <__gnat_debug_raise_assert_failure>:
 8009b30:	b480      	push	{r7}
 8009b32:	af00      	add	r7, sp, #0
 8009b34:	bf00      	nop
 8009b36:	46bd      	mov	sp, r7
 8009b38:	f85d 7b04 	ldr.w	r7, [sp], #4
 8009b3c:	4770      	bx	lr
 8009b3e:	bf00      	nop

08009b40 <system__exceptions__machine__new_occurrence>:
 8009b40:	b508      	push	{r3, lr}
 8009b42:	f44f 7000 	mov.w	r0, #512	; 0x200
 8009b46:	f000 fc11 	bl	800a36c <__gnat_malloc>
 8009b4a:	4a09      	ldr	r2, [pc, #36]	; (8009b70 <system__exceptions__machine__new_occurrence+0x30>)
 8009b4c:	4603      	mov	r3, r0
 8009b4e:	e892 0003 	ldmia.w	r2, {r0, r1}
 8009b52:	e883 0003 	stmia.w	r3, {r0, r1}
 8009b56:	2200      	movs	r2, #0
 8009b58:	60da      	str	r2, [r3, #12]
 8009b5a:	659a      	str	r2, [r3, #88]	; 0x58
 8009b5c:	661a      	str	r2, [r3, #96]	; 0x60
 8009b5e:	f883 212c 	strb.w	r2, [r3, #300]	; 0x12c
 8009b62:	f8c3 2130 	str.w	r2, [r3, #304]	; 0x130
 8009b66:	f8c3 2134 	str.w	r2, [r3, #308]	; 0x134
 8009b6a:	4618      	mov	r0, r3
 8009b6c:	bd08      	pop	{r3, pc}
 8009b6e:	bf00      	nop
 8009b70:	0800dfd0 	.word	0x0800dfd0

08009b74 <system__exception_table__register.part.1>:
 8009b74:	6883      	ldr	r3, [r0, #8]
 8009b76:	b410      	push	{r4}
 8009b78:	f103 4400 	add.w	r4, r3, #2147483648	; 0x80000000
 8009b7c:	2100      	movs	r1, #0
 8009b7e:	3c02      	subs	r4, #2
 8009b80:	3b01      	subs	r3, #1
 8009b82:	e003      	b.n	8009b8c <system__exception_table__register.part.1+0x18>
 8009b84:	42a3      	cmp	r3, r4
 8009b86:	ea81 0102 	eor.w	r1, r1, r2
 8009b8a:	d003      	beq.n	8009b94 <system__exception_table__register.part.1+0x20>
 8009b8c:	f813 2f01 	ldrb.w	r2, [r3, #1]!
 8009b90:	2a00      	cmp	r2, #0
 8009b92:	d1f7      	bne.n	8009b84 <system__exception_table__register.part.1+0x10>
 8009b94:	4b0e      	ldr	r3, [pc, #56]	; (8009bd0 <system__exception_table__register.part.1+0x5c>)
 8009b96:	4a0f      	ldr	r2, [pc, #60]	; (8009bd4 <system__exception_table__register.part.1+0x60>)
 8009b98:	fba3 4301 	umull	r4, r3, r3, r1
 8009b9c:	1acc      	subs	r4, r1, r3
 8009b9e:	eb03 0354 	add.w	r3, r3, r4, lsr #1
 8009ba2:	095b      	lsrs	r3, r3, #5
 8009ba4:	eb03 04c3 	add.w	r4, r3, r3, lsl #3
 8009ba8:	eb03 0384 	add.w	r3, r3, r4, lsl #2
 8009bac:	1ac9      	subs	r1, r1, r3
 8009bae:	3101      	adds	r1, #1
 8009bb0:	f06f 4340 	mvn.w	r3, #3221225472	; 0xc0000000
 8009bb4:	fa53 f181 	uxtab	r1, r3, r1
 8009bb8:	f85d 4b04 	ldr.w	r4, [sp], #4
 8009bbc:	f852 3021 	ldr.w	r3, [r2, r1, lsl #2]
 8009bc0:	2b00      	cmp	r3, #0
 8009bc2:	bf08      	it	eq
 8009bc4:	4603      	moveq	r3, r0
 8009bc6:	60c3      	str	r3, [r0, #12]
 8009bc8:	f842 0021 	str.w	r0, [r2, r1, lsl #2]
 8009bcc:	4770      	bx	lr
 8009bce:	bf00      	nop
 8009bd0:	bacf914d 	.word	0xbacf914d
 8009bd4:	20001b98 	.word	0x20001b98

08009bd8 <system__exception_table___elabb>:
 8009bd8:	b508      	push	{r3, lr}
 8009bda:	4b1b      	ldr	r3, [pc, #108]	; (8009c48 <system__exception_table___elabb+0x70>)
 8009bdc:	2100      	movs	r1, #0
 8009bde:	f103 0294 	add.w	r2, r3, #148	; 0x94
 8009be2:	f843 1f04 	str.w	r1, [r3, #4]!
 8009be6:	4293      	cmp	r3, r2
 8009be8:	d1fb      	bne.n	8009be2 <system__exception_table___elabb+0xa>
 8009bea:	4818      	ldr	r0, [pc, #96]	; (8009c4c <system__exception_table___elabb+0x74>)
 8009bec:	68c3      	ldr	r3, [r0, #12]
 8009bee:	b1b3      	cbz	r3, 8009c1e <system__exception_table___elabb+0x46>
 8009bf0:	4817      	ldr	r0, [pc, #92]	; (8009c50 <system__exception_table___elabb+0x78>)
 8009bf2:	68c3      	ldr	r3, [r0, #12]
 8009bf4:	b1cb      	cbz	r3, 8009c2a <system__exception_table___elabb+0x52>
 8009bf6:	4817      	ldr	r0, [pc, #92]	; (8009c54 <system__exception_table___elabb+0x7c>)
 8009bf8:	68c3      	ldr	r3, [r0, #12]
 8009bfa:	b1e3      	cbz	r3, 8009c36 <system__exception_table___elabb+0x5e>
 8009bfc:	4816      	ldr	r0, [pc, #88]	; (8009c58 <system__exception_table___elabb+0x80>)
 8009bfe:	68c3      	ldr	r3, [r0, #12]
 8009c00:	b1fb      	cbz	r3, 8009c42 <system__exception_table___elabb+0x6a>
 8009c02:	4816      	ldr	r0, [pc, #88]	; (8009c5c <system__exception_table___elabb+0x84>)
 8009c04:	68c3      	ldr	r3, [r0, #12]
 8009c06:	b13b      	cbz	r3, 8009c18 <system__exception_table___elabb+0x40>
 8009c08:	4815      	ldr	r0, [pc, #84]	; (8009c60 <system__exception_table___elabb+0x88>)
 8009c0a:	68c3      	ldr	r3, [r0, #12]
 8009c0c:	b103      	cbz	r3, 8009c10 <system__exception_table___elabb+0x38>
 8009c0e:	bd08      	pop	{r3, pc}
 8009c10:	e8bd 4008 	ldmia.w	sp!, {r3, lr}
 8009c14:	f7ff bfae 	b.w	8009b74 <system__exception_table__register.part.1>
 8009c18:	f7ff ffac 	bl	8009b74 <system__exception_table__register.part.1>
 8009c1c:	e7f4      	b.n	8009c08 <system__exception_table___elabb+0x30>
 8009c1e:	f7ff ffa9 	bl	8009b74 <system__exception_table__register.part.1>
 8009c22:	480b      	ldr	r0, [pc, #44]	; (8009c50 <system__exception_table___elabb+0x78>)
 8009c24:	68c3      	ldr	r3, [r0, #12]
 8009c26:	2b00      	cmp	r3, #0
 8009c28:	d1e5      	bne.n	8009bf6 <system__exception_table___elabb+0x1e>
 8009c2a:	f7ff ffa3 	bl	8009b74 <system__exception_table__register.part.1>
 8009c2e:	4809      	ldr	r0, [pc, #36]	; (8009c54 <system__exception_table___elabb+0x7c>)
 8009c30:	68c3      	ldr	r3, [r0, #12]
 8009c32:	2b00      	cmp	r3, #0
 8009c34:	d1e2      	bne.n	8009bfc <system__exception_table___elabb+0x24>
 8009c36:	f7ff ff9d 	bl	8009b74 <system__exception_table__register.part.1>
 8009c3a:	4807      	ldr	r0, [pc, #28]	; (8009c58 <system__exception_table___elabb+0x80>)
 8009c3c:	68c3      	ldr	r3, [r0, #12]
 8009c3e:	2b00      	cmp	r3, #0
 8009c40:	d1df      	bne.n	8009c02 <system__exception_table___elabb+0x2a>
 8009c42:	f7ff ff97 	bl	8009b74 <system__exception_table__register.part.1>
 8009c46:	e7dc      	b.n	8009c02 <system__exception_table___elabb+0x2a>
 8009c48:	20001b94 	.word	0x20001b94
 8009c4c:	200001a0 	.word	0x200001a0
 8009c50:	20000224 	.word	0x20000224
 8009c54:	20000200 	.word	0x20000200
 8009c58:	200001e8 	.word	0x200001e8
 8009c5c:	200001d0 	.word	0x200001d0
 8009c60:	200001b8 	.word	0x200001b8

08009c64 <system__finalization_masters___size__2>:
 8009c64:	20e0      	movs	r0, #224	; 0xe0
 8009c66:	2100      	movs	r1, #0
 8009c68:	4770      	bx	lr
 8009c6a:	bf00      	nop

08009c6c <system__finalization_masters__base_pool>:
 8009c6c:	6880      	ldr	r0, [r0, #8]
 8009c6e:	4770      	bx	lr

08009c70 <system__finalization_masters__finalize_address>:
 8009c70:	6940      	ldr	r0, [r0, #20]
 8009c72:	4770      	bx	lr

08009c74 <system__finalization_masters__finalization_started>:
 8009c74:	7e00      	ldrb	r0, [r0, #24]
 8009c76:	4770      	bx	lr

08009c78 <system__finalization_masters__initialize__2>:
 8009c78:	f100 030c 	add.w	r3, r0, #12
 8009c7c:	e9c0 3303 	strd	r3, r3, [r0, #12]
 8009c80:	4770      	bx	lr
 8009c82:	bf00      	nop

08009c84 <system__finalization_masters__is_homogeneous>:
 8009c84:	7900      	ldrb	r0, [r0, #4]
 8009c86:	4770      	bx	lr

08009c88 <system__finalization_masters__objects>:
 8009c88:	300c      	adds	r0, #12
 8009c8a:	4770      	bx	lr

08009c8c <system__finalization_masters__set_base_pool>:
 8009c8c:	6081      	str	r1, [r0, #8]
 8009c8e:	4770      	bx	lr

08009c90 <system__finalization_masters__set_finalize_address>:
 8009c90:	4b06      	ldr	r3, [pc, #24]	; (8009cac <system__finalization_masters__set_finalize_address+0x1c>)
 8009c92:	b570      	push	{r4, r5, r6, lr}
 8009c94:	4604      	mov	r4, r0
 8009c96:	681b      	ldr	r3, [r3, #0]
 8009c98:	460d      	mov	r5, r1
 8009c9a:	4798      	blx	r3
 8009c9c:	6963      	ldr	r3, [r4, #20]
 8009c9e:	b903      	cbnz	r3, 8009ca2 <system__finalization_masters__set_finalize_address+0x12>
 8009ca0:	6165      	str	r5, [r4, #20]
 8009ca2:	4b03      	ldr	r3, [pc, #12]	; (8009cb0 <system__finalization_masters__set_finalize_address+0x20>)
 8009ca4:	e8bd 4070 	ldmia.w	sp!, {r4, r5, r6, lr}
 8009ca8:	681b      	ldr	r3, [r3, #0]
 8009caa:	4718      	bx	r3
 8009cac:	20000190 	.word	0x20000190
 8009cb0:	2000019c 	.word	0x2000019c

08009cb4 <system__finalization_masters__set_finalize_address_unprotected>:
 8009cb4:	6943      	ldr	r3, [r0, #20]
 8009cb6:	b903      	cbnz	r3, 8009cba <system__finalization_masters__set_finalize_address_unprotected+0x6>
 8009cb8:	6141      	str	r1, [r0, #20]
 8009cba:	4770      	bx	lr

08009cbc <system__finalization_masters__set_is_heterogeneous>:
 8009cbc:	b510      	push	{r4, lr}
 8009cbe:	4b05      	ldr	r3, [pc, #20]	; (8009cd4 <system__finalization_masters__set_is_heterogeneous+0x18>)
 8009cc0:	681b      	ldr	r3, [r3, #0]
 8009cc2:	4604      	mov	r4, r0
 8009cc4:	4798      	blx	r3
 8009cc6:	4b04      	ldr	r3, [pc, #16]	; (8009cd8 <system__finalization_masters__set_is_heterogeneous+0x1c>)
 8009cc8:	2200      	movs	r2, #0
 8009cca:	7122      	strb	r2, [r4, #4]
 8009ccc:	681b      	ldr	r3, [r3, #0]
 8009cce:	e8bd 4010 	ldmia.w	sp!, {r4, lr}
 8009cd2:	4718      	bx	r3
 8009cd4:	20000190 	.word	0x20000190
 8009cd8:	2000019c 	.word	0x2000019c

08009cdc <system__finalization_masters__print_master>:
 8009cdc:	e92d 47f0 	stmdb	sp!, {r4, r5, r6, r7, r8, r9, sl, lr}
 8009ce0:	497b      	ldr	r1, [pc, #492]	; (8009ed0 <system__finalization_masters__print_master+0x1f4>)
 8009ce2:	b08a      	sub	sp, #40	; 0x28
 8009ce4:	4604      	mov	r4, r0
 8009ce6:	487b      	ldr	r0, [pc, #492]	; (8009ed4 <system__finalization_masters__print_master+0x1f8>)
 8009ce8:	f000 fa9e 	bl	800a228 <system__io__put__3>
 8009cec:	f000 fc36 	bl	800a55c <system__secondary_stack__ss_mark>
 8009cf0:	4621      	mov	r1, r4
 8009cf2:	4606      	mov	r6, r0
 8009cf4:	4668      	mov	r0, sp
 8009cf6:	f000 ff1d 	bl	800ab34 <_ada_system__address_image>
 8009cfa:	e9dd 0100 	ldrd	r0, r1, [sp]
 8009cfe:	f000 faa5 	bl	800a24c <system__io__put_line>
 8009d02:	4630      	mov	r0, r6
 8009d04:	f000 fc30 	bl	800a568 <system__secondary_stack__ss_release>
 8009d08:	4873      	ldr	r0, [pc, #460]	; (8009ed8 <system__finalization_masters__print_master+0x1fc>)
 8009d0a:	4971      	ldr	r1, [pc, #452]	; (8009ed0 <system__finalization_masters__print_master+0x1f4>)
 8009d0c:	f000 fa8c 	bl	800a228 <system__io__put__3>
 8009d10:	4a72      	ldr	r2, [pc, #456]	; (8009edc <system__finalization_masters__print_master+0x200>)
 8009d12:	7920      	ldrb	r0, [r4, #4]
 8009d14:	a902      	add	r1, sp, #8
 8009d16:	f000 fa0f 	bl	800a138 <system__img_bool__image_boolean>
 8009d1a:	2301      	movs	r3, #1
 8009d1c:	9007      	str	r0, [sp, #28]
 8009d1e:	a906      	add	r1, sp, #24
 8009d20:	a802      	add	r0, sp, #8
 8009d22:	9306      	str	r3, [sp, #24]
 8009d24:	f000 fa92 	bl	800a24c <system__io__put_line>
 8009d28:	486d      	ldr	r0, [pc, #436]	; (8009ee0 <system__finalization_masters__print_master+0x204>)
 8009d2a:	4969      	ldr	r1, [pc, #420]	; (8009ed0 <system__finalization_masters__print_master+0x1f4>)
 8009d2c:	f000 fa7c 	bl	800a228 <system__io__put__3>
 8009d30:	68a3      	ldr	r3, [r4, #8]
 8009d32:	f104 050c 	add.w	r5, r4, #12
 8009d36:	2b00      	cmp	r3, #0
 8009d38:	f000 80b4 	beq.w	8009ea4 <system__finalization_masters__print_master+0x1c8>
 8009d3c:	f000 fc0e 	bl	800a55c <system__secondary_stack__ss_mark>
 8009d40:	f104 0108 	add.w	r1, r4, #8
 8009d44:	4606      	mov	r6, r0
 8009d46:	4668      	mov	r0, sp
 8009d48:	f000 fef4 	bl	800ab34 <_ada_system__address_image>
 8009d4c:	e9dd 0100 	ldrd	r0, r1, [sp]
 8009d50:	f000 fa7c 	bl	800a24c <system__io__put_line>
 8009d54:	4630      	mov	r0, r6
 8009d56:	f000 fc07 	bl	800a568 <system__secondary_stack__ss_release>
 8009d5a:	4862      	ldr	r0, [pc, #392]	; (8009ee4 <system__finalization_masters__print_master+0x208>)
 8009d5c:	495c      	ldr	r1, [pc, #368]	; (8009ed0 <system__finalization_masters__print_master+0x1f4>)
 8009d5e:	f000 fa63 	bl	800a228 <system__io__put__3>
 8009d62:	6963      	ldr	r3, [r4, #20]
 8009d64:	2b00      	cmp	r3, #0
 8009d66:	f000 80a2 	beq.w	8009eae <system__finalization_masters__print_master+0x1d2>
 8009d6a:	f000 fbf7 	bl	800a55c <system__secondary_stack__ss_mark>
 8009d6e:	f104 0114 	add.w	r1, r4, #20
 8009d72:	4606      	mov	r6, r0
 8009d74:	4668      	mov	r0, sp
 8009d76:	f000 fedd 	bl	800ab34 <_ada_system__address_image>
 8009d7a:	e9dd 0100 	ldrd	r0, r1, [sp]
 8009d7e:	f000 fa65 	bl	800a24c <system__io__put_line>
 8009d82:	4630      	mov	r0, r6
 8009d84:	f000 fbf0 	bl	800a568 <system__secondary_stack__ss_release>
 8009d88:	4857      	ldr	r0, [pc, #348]	; (8009ee8 <system__finalization_masters__print_master+0x20c>)
 8009d8a:	4951      	ldr	r1, [pc, #324]	; (8009ed0 <system__finalization_masters__print_master+0x1f4>)
 8009d8c:	f000 fa4c 	bl	800a228 <system__io__put__3>
 8009d90:	a904      	add	r1, sp, #16
 8009d92:	7e20      	ldrb	r0, [r4, #24]
 8009d94:	4a51      	ldr	r2, [pc, #324]	; (8009edc <system__finalization_masters__print_master+0x200>)
 8009d96:	f000 f9cf 	bl	800a138 <system__img_bool__image_boolean>
 8009d9a:	2301      	movs	r3, #1
 8009d9c:	9009      	str	r0, [sp, #36]	; 0x24
 8009d9e:	a908      	add	r1, sp, #32
 8009da0:	a804      	add	r0, sp, #16
 8009da2:	9308      	str	r3, [sp, #32]
 8009da4:	f000 fa52 	bl	800a24c <system__io__put_line>
 8009da8:	2d00      	cmp	r5, #0
 8009daa:	d073      	beq.n	8009e94 <system__finalization_masters__print_master+0x1b8>
 8009dac:	f8df 8170 	ldr.w	r8, [pc, #368]	; 8009f20 <system__finalization_masters__print_master+0x244>
 8009db0:	4f4e      	ldr	r7, [pc, #312]	; (8009eec <system__finalization_masters__print_master+0x210>)
 8009db2:	f8df a170 	ldr.w	sl, [pc, #368]	; 8009f24 <system__finalization_masters__print_master+0x248>
 8009db6:	462c      	mov	r4, r5
 8009db8:	f04f 0900 	mov.w	r9, #0
 8009dbc:	e050      	b.n	8009e60 <system__finalization_masters__print_master+0x184>
 8009dbe:	6823      	ldr	r3, [r4, #0]
 8009dc0:	2b00      	cmp	r3, #0
 8009dc2:	d05b      	beq.n	8009e7c <system__finalization_masters__print_master+0x1a0>
 8009dc4:	685b      	ldr	r3, [r3, #4]
 8009dc6:	42a3      	cmp	r3, r4
 8009dc8:	bf0b      	itete	eq
 8009dca:	4849      	ldreq	r0, [pc, #292]	; (8009ef0 <system__finalization_masters__print_master+0x214>)
 8009dcc:	4949      	ldrne	r1, [pc, #292]	; (8009ef4 <system__finalization_masters__print_master+0x218>)
 8009dce:	4639      	moveq	r1, r7
 8009dd0:	4650      	movne	r0, sl
 8009dd2:	f000 fa3b 	bl	800a24c <system__io__put_line>
 8009dd6:	4947      	ldr	r1, [pc, #284]	; (8009ef4 <system__finalization_masters__print_master+0x218>)
 8009dd8:	4847      	ldr	r0, [pc, #284]	; (8009ef8 <system__finalization_masters__print_master+0x21c>)
 8009dda:	f000 fa25 	bl	800a228 <system__io__put__3>
 8009dde:	f000 fbbd 	bl	800a55c <system__secondary_stack__ss_mark>
 8009de2:	4621      	mov	r1, r4
 8009de4:	4606      	mov	r6, r0
 8009de6:	4668      	mov	r0, sp
 8009de8:	f000 fea4 	bl	800ab34 <_ada_system__address_image>
 8009dec:	e9dd 0100 	ldrd	r0, r1, [sp]
 8009df0:	f000 fa1a 	bl	800a228 <system__io__put__3>
 8009df4:	4630      	mov	r0, r6
 8009df6:	f000 fbb7 	bl	800a568 <system__secondary_stack__ss_release>
 8009dfa:	42a5      	cmp	r5, r4
 8009dfc:	bf13      	iteet	ne
 8009dfe:	483f      	ldrne	r0, [pc, #252]	; (8009efc <system__finalization_masters__print_master+0x220>)
 8009e00:	483f      	ldreq	r0, [pc, #252]	; (8009f00 <system__finalization_masters__print_master+0x224>)
 8009e02:	4940      	ldreq	r1, [pc, #256]	; (8009f04 <system__finalization_masters__print_master+0x228>)
 8009e04:	1d01      	addne	r1, r0, #4
 8009e06:	f000 fa21 	bl	800a24c <system__io__put_line>
 8009e0a:	483f      	ldr	r0, [pc, #252]	; (8009f08 <system__finalization_masters__print_master+0x22c>)
 8009e0c:	4939      	ldr	r1, [pc, #228]	; (8009ef4 <system__finalization_masters__print_master+0x218>)
 8009e0e:	f000 fa0b 	bl	800a228 <system__io__put__3>
 8009e12:	6823      	ldr	r3, [r4, #0]
 8009e14:	2b00      	cmp	r3, #0
 8009e16:	d040      	beq.n	8009e9a <system__finalization_masters__print_master+0x1be>
 8009e18:	f000 fba0 	bl	800a55c <system__secondary_stack__ss_mark>
 8009e1c:	6821      	ldr	r1, [r4, #0]
 8009e1e:	4606      	mov	r6, r0
 8009e20:	4668      	mov	r0, sp
 8009e22:	f000 fe87 	bl	800ab34 <_ada_system__address_image>
 8009e26:	e9dd 0100 	ldrd	r0, r1, [sp]
 8009e2a:	f000 fa0f 	bl	800a24c <system__io__put_line>
 8009e2e:	4630      	mov	r0, r6
 8009e30:	f000 fb9a 	bl	800a568 <system__secondary_stack__ss_release>
 8009e34:	4835      	ldr	r0, [pc, #212]	; (8009f0c <system__finalization_masters__print_master+0x230>)
 8009e36:	492f      	ldr	r1, [pc, #188]	; (8009ef4 <system__finalization_masters__print_master+0x218>)
 8009e38:	f000 f9f6 	bl	800a228 <system__io__put__3>
 8009e3c:	6863      	ldr	r3, [r4, #4]
 8009e3e:	b313      	cbz	r3, 8009e86 <system__finalization_masters__print_master+0x1aa>
 8009e40:	f000 fb8c 	bl	800a55c <system__secondary_stack__ss_mark>
 8009e44:	6861      	ldr	r1, [r4, #4]
 8009e46:	4606      	mov	r6, r0
 8009e48:	4668      	mov	r0, sp
 8009e4a:	f000 fe73 	bl	800ab34 <_ada_system__address_image>
 8009e4e:	e9dd 0100 	ldrd	r0, r1, [sp]
 8009e52:	f000 f9fb 	bl	800a24c <system__io__put_line>
 8009e56:	4630      	mov	r0, r6
 8009e58:	f000 fb86 	bl	800a568 <system__secondary_stack__ss_release>
 8009e5c:	6864      	ldr	r4, [r4, #4]
 8009e5e:	b1cc      	cbz	r4, 8009e94 <system__finalization_masters__print_master+0x1b8>
 8009e60:	4640      	mov	r0, r8
 8009e62:	4639      	mov	r1, r7
 8009e64:	f000 f9f2 	bl	800a24c <system__io__put_line>
 8009e68:	42a5      	cmp	r5, r4
 8009e6a:	d1a8      	bne.n	8009dbe <system__finalization_masters__print_master+0xe2>
 8009e6c:	f1b9 0f00 	cmp.w	r9, #0
 8009e70:	d110      	bne.n	8009e94 <system__finalization_masters__print_master+0x1b8>
 8009e72:	6823      	ldr	r3, [r4, #0]
 8009e74:	f04f 0901 	mov.w	r9, #1
 8009e78:	2b00      	cmp	r3, #0
 8009e7a:	d1a3      	bne.n	8009dc4 <system__finalization_masters__print_master+0xe8>
 8009e7c:	4824      	ldr	r0, [pc, #144]	; (8009f10 <system__finalization_masters__print_master+0x234>)
 8009e7e:	4925      	ldr	r1, [pc, #148]	; (8009f14 <system__finalization_masters__print_master+0x238>)
 8009e80:	f000 f9e4 	bl	800a24c <system__io__put_line>
 8009e84:	e7a7      	b.n	8009dd6 <system__finalization_masters__print_master+0xfa>
 8009e86:	4824      	ldr	r0, [pc, #144]	; (8009f18 <system__finalization_masters__print_master+0x23c>)
 8009e88:	4924      	ldr	r1, [pc, #144]	; (8009f1c <system__finalization_masters__print_master+0x240>)
 8009e8a:	f000 f9df 	bl	800a24c <system__io__put_line>
 8009e8e:	6864      	ldr	r4, [r4, #4]
 8009e90:	2c00      	cmp	r4, #0
 8009e92:	d1e5      	bne.n	8009e60 <system__finalization_masters__print_master+0x184>
 8009e94:	b00a      	add	sp, #40	; 0x28
 8009e96:	e8bd 87f0 	ldmia.w	sp!, {r4, r5, r6, r7, r8, r9, sl, pc}
 8009e9a:	481f      	ldr	r0, [pc, #124]	; (8009f18 <system__finalization_masters__print_master+0x23c>)
 8009e9c:	491f      	ldr	r1, [pc, #124]	; (8009f1c <system__finalization_masters__print_master+0x240>)
 8009e9e:	f000 f9d5 	bl	800a24c <system__io__put_line>
 8009ea2:	e7c7      	b.n	8009e34 <system__finalization_masters__print_master+0x158>
 8009ea4:	481c      	ldr	r0, [pc, #112]	; (8009f18 <system__finalization_masters__print_master+0x23c>)
 8009ea6:	491d      	ldr	r1, [pc, #116]	; (8009f1c <system__finalization_masters__print_master+0x240>)
 8009ea8:	f000 f9d0 	bl	800a24c <system__io__put_line>
 8009eac:	e755      	b.n	8009d5a <system__finalization_masters__print_master+0x7e>
 8009eae:	481a      	ldr	r0, [pc, #104]	; (8009f18 <system__finalization_masters__print_master+0x23c>)
 8009eb0:	491a      	ldr	r1, [pc, #104]	; (8009f1c <system__finalization_masters__print_master+0x240>)
 8009eb2:	f000 f9cb 	bl	800a24c <system__io__put_line>
 8009eb6:	e767      	b.n	8009d88 <system__finalization_masters__print_master+0xac>
 8009eb8:	4604      	mov	r4, r0
 8009eba:	4630      	mov	r0, r6
 8009ebc:	f000 fb54 	bl	800a568 <system__secondary_stack__ss_release>
 8009ec0:	4620      	mov	r0, r4
 8009ec2:	f001 ff77 	bl	800bdb4 <_Unwind_Resume>
 8009ec6:	e7f7      	b.n	8009eb8 <system__finalization_masters__print_master+0x1dc>
 8009ec8:	e7f6      	b.n	8009eb8 <system__finalization_masters__print_master+0x1dc>
 8009eca:	e7f5      	b.n	8009eb8 <system__finalization_masters__print_master+0x1dc>
 8009ecc:	e7f4      	b.n	8009eb8 <system__finalization_masters__print_master+0x1dc>
 8009ece:	e7f3      	b.n	8009eb8 <system__finalization_masters__print_master+0x1dc>
 8009ed0:	0800e514 	.word	0x0800e514
 8009ed4:	0800e630 	.word	0x0800e630
 8009ed8:	0800e63c 	.word	0x0800e63c
 8009edc:	0800e51c 	.word	0x0800e51c
 8009ee0:	0800e648 	.word	0x0800e648
 8009ee4:	0800e65c 	.word	0x0800e65c
 8009ee8:	0800e668 	.word	0x0800e668
 8009eec:	0800e52c 	.word	0x0800e52c
 8009ef0:	0800e688 	.word	0x0800e688
 8009ef4:	0800e53c 	.word	0x0800e53c
 8009ef8:	0800e698 	.word	0x0800e698
 8009efc:	0800e54c 	.word	0x0800e54c
 8009f00:	0800e6a4 	.word	0x0800e6a4
 8009f04:	0800e544 	.word	0x0800e544
 8009f08:	0800e6b4 	.word	0x0800e6b4
 8009f0c:	0800e6c0 	.word	0x0800e6c0
 8009f10:	0800e678 	.word	0x0800e678
 8009f14:	0800e534 	.word	0x0800e534
 8009f18:	0800e654 	.word	0x0800e654
 8009f1c:	0800e524 	.word	0x0800e524
 8009f20:	0800e674 	.word	0x0800e674
 8009f24:	0800e68c 	.word	0x0800e68c

08009f28 <system__finalization_masters__finalization_masterIP>:
 8009f28:	b109      	cbz	r1, 8009f2e <system__finalization_masters__finalization_masterIP+0x6>
 8009f2a:	4b05      	ldr	r3, [pc, #20]	; (8009f40 <system__finalization_masters__finalization_masterIP+0x18>)
 8009f2c:	6003      	str	r3, [r0, #0]
 8009f2e:	2300      	movs	r3, #0
 8009f30:	2201      	movs	r2, #1
 8009f32:	7102      	strb	r2, [r0, #4]
 8009f34:	e9c0 3302 	strd	r3, r3, [r0, #8]
 8009f38:	e9c0 3304 	strd	r3, r3, [r0, #16]
 8009f3c:	7603      	strb	r3, [r0, #24]
 8009f3e:	4770      	bx	lr
 8009f40:	0800e5fc 	.word	0x0800e5fc

08009f44 <system__finalization_masters__finalize_address_table__tab__removeXnb>:
 8009f44:	b430      	push	{r4, r5}
 8009f46:	490e      	ldr	r1, [pc, #56]	; (8009f80 <system__finalization_masters__finalize_address_table__tab__removeXnb+0x3c>)
 8009f48:	f000 047f 	and.w	r4, r0, #127	; 0x7f
 8009f4c:	f851 2024 	ldr.w	r2, [r1, r4, lsl #2]
 8009f50:	b162      	cbz	r2, 8009f6c <system__finalization_masters__finalize_address_table__tab__removeXnb+0x28>
 8009f52:	6815      	ldr	r5, [r2, #0]
 8009f54:	6893      	ldr	r3, [r2, #8]
 8009f56:	42a8      	cmp	r0, r5
 8009f58:	d00a      	beq.n	8009f70 <system__finalization_masters__finalize_address_table__tab__removeXnb+0x2c>
 8009f5a:	b13b      	cbz	r3, 8009f6c <system__finalization_masters__finalize_address_table__tab__removeXnb+0x28>
 8009f5c:	6819      	ldr	r1, [r3, #0]
 8009f5e:	689c      	ldr	r4, [r3, #8]
 8009f60:	4288      	cmp	r0, r1
 8009f62:	d009      	beq.n	8009f78 <system__finalization_masters__finalize_address_table__tab__removeXnb+0x34>
 8009f64:	461a      	mov	r2, r3
 8009f66:	4623      	mov	r3, r4
 8009f68:	2b00      	cmp	r3, #0
 8009f6a:	d1f7      	bne.n	8009f5c <system__finalization_masters__finalize_address_table__tab__removeXnb+0x18>
 8009f6c:	bc30      	pop	{r4, r5}
 8009f6e:	4770      	bx	lr
 8009f70:	f841 3024 	str.w	r3, [r1, r4, lsl #2]
 8009f74:	bc30      	pop	{r4, r5}
 8009f76:	4770      	bx	lr
 8009f78:	6094      	str	r4, [r2, #8]
 8009f7a:	bc30      	pop	{r4, r5}
 8009f7c:	4770      	bx	lr
 8009f7e:	bf00      	nop
 8009f80:	20001c2c 	.word	0x20001c2c

08009f84 <system__finalization_masters__finalize_address_table__removeXn>:
 8009f84:	f000 027f 	and.w	r2, r0, #127	; 0x7f
 8009f88:	4b09      	ldr	r3, [pc, #36]	; (8009fb0 <system__finalization_masters__finalize_address_table__removeXn+0x2c>)
 8009f8a:	b510      	push	{r4, lr}
 8009f8c:	f853 4022 	ldr.w	r4, [r3, r2, lsl #2]
 8009f90:	b914      	cbnz	r4, 8009f98 <system__finalization_masters__finalize_address_table__removeXn+0x14>
 8009f92:	e00b      	b.n	8009fac <system__finalization_masters__finalize_address_table__removeXn+0x28>
 8009f94:	68a4      	ldr	r4, [r4, #8]
 8009f96:	b14c      	cbz	r4, 8009fac <system__finalization_masters__finalize_address_table__removeXn+0x28>
 8009f98:	6823      	ldr	r3, [r4, #0]
 8009f9a:	4298      	cmp	r0, r3
 8009f9c:	d1fa      	bne.n	8009f94 <system__finalization_masters__finalize_address_table__removeXn+0x10>
 8009f9e:	f7ff ffd1 	bl	8009f44 <system__finalization_masters__finalize_address_table__tab__removeXnb>
 8009fa2:	4620      	mov	r0, r4
 8009fa4:	e8bd 4010 	ldmia.w	sp!, {r4, lr}
 8009fa8:	f000 ba0c 	b.w	800a3c4 <__gnat_free>
 8009fac:	bd10      	pop	{r4, pc}
 8009fae:	bf00      	nop
 8009fb0:	20001c2c 	.word	0x20001c2c

08009fb4 <system__finalization_masters__finalize>:
 8009fb4:	e92d 47f0 	stmdb	sp!, {r4, r5, r6, r7, r8, r9, sl, lr}
 8009fb8:	4a3a      	ldr	r2, [pc, #232]	; (800a0a4 <system__finalization_masters__finalize+0xf0>)
 8009fba:	f5ad 7d54 	sub.w	sp, sp, #848	; 0x350
 8009fbe:	2300      	movs	r3, #0
 8009fc0:	4605      	mov	r5, r0
 8009fc2:	9300      	str	r3, [sp, #0]
 8009fc4:	9302      	str	r3, [sp, #8]
 8009fc6:	f88d 30d4 	strb.w	r3, [sp, #212]	; 0xd4
 8009fca:	e9cd 3336 	strd	r3, r3, [sp, #216]	; 0xd8
 8009fce:	6813      	ldr	r3, [r2, #0]
 8009fd0:	4798      	blx	r3
 8009fd2:	f895 9018 	ldrb.w	r9, [r5, #24]
 8009fd6:	f1b9 0f00 	cmp.w	r9, #0
 8009fda:	d006      	beq.n	8009fea <system__finalization_masters__finalize+0x36>
 8009fdc:	4b32      	ldr	r3, [pc, #200]	; (800a0a8 <system__finalization_masters__finalize+0xf4>)
 8009fde:	681b      	ldr	r3, [r3, #0]
 8009fe0:	4798      	blx	r3
 8009fe2:	f50d 7d54 	add.w	sp, sp, #848	; 0x350
 8009fe6:	e8bd 87f0 	ldmia.w	sp!, {r4, r5, r6, r7, r8, r9, sl, pc}
 8009fea:	2301      	movs	r3, #1
 8009fec:	f8df 80bc 	ldr.w	r8, [pc, #188]	; 800a0ac <system__finalization_masters__finalize+0xf8>
 8009ff0:	762b      	strb	r3, [r5, #24]
 8009ff2:	f105 060c 	add.w	r6, r5, #12
 8009ff6:	464f      	mov	r7, r9
 8009ff8:	692c      	ldr	r4, [r5, #16]
 8009ffa:	42a6      	cmp	r6, r4
 8009ffc:	d018      	beq.n	800a030 <system__finalization_masters__finalize+0x7c>
 8009ffe:	6823      	ldr	r3, [r4, #0]
 800a000:	b13b      	cbz	r3, 800a012 <system__finalization_masters__finalize+0x5e>
 800a002:	6862      	ldr	r2, [r4, #4]
 800a004:	b12a      	cbz	r2, 800a012 <system__finalization_masters__finalize+0x5e>
 800a006:	605a      	str	r2, [r3, #4]
 800a008:	e9d4 2300 	ldrd	r2, r3, [r4]
 800a00c:	601a      	str	r2, [r3, #0]
 800a00e:	e9c4 7700 	strd	r7, r7, [r4]
 800a012:	792b      	ldrb	r3, [r5, #4]
 800a014:	3408      	adds	r4, #8
 800a016:	b1c3      	cbz	r3, 800a04a <system__finalization_masters__finalize+0x96>
 800a018:	696b      	ldr	r3, [r5, #20]
 800a01a:	4620      	mov	r0, r4
 800a01c:	4798      	blx	r3
 800a01e:	792b      	ldrb	r3, [r5, #4]
 800a020:	2b00      	cmp	r3, #0
 800a022:	d1e9      	bne.n	8009ff8 <system__finalization_masters__finalize+0x44>
 800a024:	4620      	mov	r0, r4
 800a026:	f7ff ffad 	bl	8009f84 <system__finalization_masters__finalize_address_table__removeXn>
 800a02a:	692c      	ldr	r4, [r5, #16]
 800a02c:	42a6      	cmp	r6, r4
 800a02e:	d1e6      	bne.n	8009ffe <system__finalization_masters__finalize+0x4a>
 800a030:	68eb      	ldr	r3, [r5, #12]
 800a032:	429e      	cmp	r6, r3
 800a034:	d1e3      	bne.n	8009ffe <system__finalization_masters__finalize+0x4a>
 800a036:	4b1c      	ldr	r3, [pc, #112]	; (800a0a8 <system__finalization_masters__finalize+0xf4>)
 800a038:	681b      	ldr	r3, [r3, #0]
 800a03a:	4798      	blx	r3
 800a03c:	f1b9 0f00 	cmp.w	r9, #0
 800a040:	d0cf      	beq.n	8009fe2 <system__finalization_masters__finalize+0x2e>
 800a042:	4668      	mov	r0, sp
 800a044:	f7ff f82e 	bl	80090a4 <ada__exceptions__reraise_occurrence>
 800a048:	e7cb      	b.n	8009fe2 <system__finalization_masters__finalize+0x2e>
 800a04a:	f004 037f 	and.w	r3, r4, #127	; 0x7f
 800a04e:	f858 3023 	ldr.w	r3, [r8, r3, lsl #2]
 800a052:	b913      	cbnz	r3, 800a05a <system__finalization_masters__finalize+0xa6>
 800a054:	e006      	b.n	800a064 <system__finalization_masters__finalize+0xb0>
 800a056:	689b      	ldr	r3, [r3, #8]
 800a058:	b123      	cbz	r3, 800a064 <system__finalization_masters__finalize+0xb0>
 800a05a:	681a      	ldr	r2, [r3, #0]
 800a05c:	4294      	cmp	r4, r2
 800a05e:	d1fa      	bne.n	800a056 <system__finalization_masters__finalize+0xa2>
 800a060:	685b      	ldr	r3, [r3, #4]
 800a062:	e7da      	b.n	800a01a <system__finalization_masters__finalize+0x66>
 800a064:	2300      	movs	r3, #0
 800a066:	e7d8      	b.n	800a01a <system__finalization_masters__finalize+0x66>
 800a068:	2901      	cmp	r1, #1
 800a06a:	4682      	mov	sl, r0
 800a06c:	d113      	bne.n	800a096 <system__finalization_masters__finalize+0xe2>
 800a06e:	f7fe fdd3 	bl	8008c18 <__gnat_begin_handler>
 800a072:	4651      	mov	r1, sl
 800a074:	a86a      	add	r0, sp, #424	; 0x1a8
 800a076:	f7fe fdef 	bl	8008c58 <__gnat_set_exception_parameter>
 800a07a:	f1b9 0f00 	cmp.w	r9, #0
 800a07e:	d00c      	beq.n	800a09a <system__finalization_masters__finalize+0xe6>
 800a080:	4650      	mov	r0, sl
 800a082:	f7fe fdcb 	bl	8008c1c <__gnat_end_handler>
 800a086:	f04f 0901 	mov.w	r9, #1
 800a08a:	e7c8      	b.n	800a01e <system__finalization_masters__finalize+0x6a>
 800a08c:	4604      	mov	r4, r0
 800a08e:	4650      	mov	r0, sl
 800a090:	f7fe fdc4 	bl	8008c1c <__gnat_end_handler>
 800a094:	4620      	mov	r0, r4
 800a096:	f001 fe8d 	bl	800bdb4 <_Unwind_Resume>
 800a09a:	a96a      	add	r1, sp, #424	; 0x1a8
 800a09c:	4668      	mov	r0, sp
 800a09e:	f7ff f81d 	bl	80090dc <ada__exceptions__save_occurrence>
 800a0a2:	e7ed      	b.n	800a080 <system__finalization_masters__finalize+0xcc>
 800a0a4:	20000190 	.word	0x20000190
 800a0a8:	2000019c 	.word	0x2000019c
 800a0ac:	20001c2c 	.word	0x20001c2c

0800a0b0 <system__finalization_masters__finalization_masterDF__2>:
 800a0b0:	f7ff bf80 	b.w	8009fb4 <system__finalization_masters__finalize>

0800a0b4 <system__finalization_masters___elabb>:
 800a0b4:	4b04      	ldr	r3, [pc, #16]	; (800a0c8 <system__finalization_masters___elabb+0x14>)
 800a0b6:	2100      	movs	r1, #0
 800a0b8:	f503 7200 	add.w	r2, r3, #512	; 0x200
 800a0bc:	f843 1f04 	str.w	r1, [r3, #4]!
 800a0c0:	4293      	cmp	r3, r2
 800a0c2:	d1fb      	bne.n	800a0bc <system__finalization_masters___elabb+0x8>
 800a0c4:	4770      	bx	lr
 800a0c6:	bf00      	nop
 800a0c8:	20001c28 	.word	0x20001c28

0800a0cc <system__finalization_masters___elabs>:
 800a0cc:	4801      	ldr	r0, [pc, #4]	; (800a0d4 <system__finalization_masters___elabs+0x8>)
 800a0ce:	f7ff b923 	b.w	8009318 <ada__tags__register_tag>
 800a0d2:	bf00      	nop
 800a0d4:	0800e5fc 	.word	0x0800e5fc

0800a0d8 <system__finalization_root___size>:
 800a0d8:	2020      	movs	r0, #32
 800a0da:	2100      	movs	r1, #0
 800a0dc:	4770      	bx	lr
 800a0de:	bf00      	nop

0800a0e0 <system__finalization_root__root_controlledSR>:
 800a0e0:	4770      	bx	lr
 800a0e2:	bf00      	nop

0800a0e4 <system__finalization_root__Oeq>:
 800a0e4:	2001      	movs	r0, #1
 800a0e6:	4770      	bx	lr

0800a0e8 <system__finalization_root___assign>:
 800a0e8:	4770      	bx	lr
 800a0ea:	bf00      	nop

0800a0ec <system__finalization_root__root_controlledDA>:
 800a0ec:	4770      	bx	lr
 800a0ee:	bf00      	nop

0800a0f0 <system__finalization_root__adjust>:
 800a0f0:	b508      	push	{r3, lr}
 800a0f2:	212a      	movs	r1, #42	; 0x2a
 800a0f4:	4801      	ldr	r0, [pc, #4]	; (800a0fc <system__finalization_root__adjust+0xc>)
 800a0f6:	f7fe ffc3 	bl	8009080 <__gnat_rcheck_PE_Explicit_Raise>
 800a0fa:	bf00      	nop
 800a0fc:	0800e6cc 	.word	0x0800e6cc

0800a100 <system__finalization_root__finalize>:
 800a100:	b508      	push	{r3, lr}
 800a102:	2133      	movs	r1, #51	; 0x33
 800a104:	4801      	ldr	r0, [pc, #4]	; (800a10c <system__finalization_root__finalize+0xc>)
 800a106:	f7fe ffbb 	bl	8009080 <__gnat_rcheck_PE_Explicit_Raise>
 800a10a:	bf00      	nop
 800a10c:	0800e6cc 	.word	0x0800e6cc

0800a110 <system__finalization_root__initialize>:
 800a110:	b508      	push	{r3, lr}
 800a112:	213c      	movs	r1, #60	; 0x3c
 800a114:	4801      	ldr	r0, [pc, #4]	; (800a11c <system__finalization_root__initialize+0xc>)
 800a116:	f7fe ffb3 	bl	8009080 <__gnat_rcheck_PE_Explicit_Raise>
 800a11a:	bf00      	nop
 800a11c:	0800e6cc 	.word	0x0800e6cc

0800a120 <system__finalization_root__root_controlledSW>:
 800a120:	4770      	bx	lr
 800a122:	bf00      	nop

0800a124 <system__finalization_root__root_controlledSO>:
 800a124:	4770      	bx	lr
 800a126:	bf00      	nop

0800a128 <system__finalization_root__root_controlledDF>:
 800a128:	4770      	bx	lr
 800a12a:	bf00      	nop

0800a12c <system__finalization_root___elabs>:
 800a12c:	4801      	ldr	r0, [pc, #4]	; (800a134 <system__finalization_root___elabs+0x8>)
 800a12e:	f7ff b8f3 	b.w	8009318 <ada__tags__register_tag>
 800a132:	bf00      	nop
 800a134:	0800e774 	.word	0x0800e774

0800a138 <system__img_bool__image_boolean>:
 800a138:	6813      	ldr	r3, [r2, #0]
 800a13a:	f1c3 0301 	rsb	r3, r3, #1
 800a13e:	b410      	push	{r4}
 800a140:	185c      	adds	r4, r3, r1
 800a142:	b940      	cbnz	r0, 800a156 <system__img_bool__image_boolean+0x1e>
 800a144:	4a07      	ldr	r2, [pc, #28]	; (800a164 <system__img_bool__image_boolean+0x2c>)
 800a146:	6810      	ldr	r0, [r2, #0]
 800a148:	5058      	str	r0, [r3, r1]
 800a14a:	7913      	ldrb	r3, [r2, #4]
 800a14c:	7123      	strb	r3, [r4, #4]
 800a14e:	2005      	movs	r0, #5
 800a150:	f85d 4b04 	ldr.w	r4, [sp], #4
 800a154:	4770      	bx	lr
 800a156:	4a04      	ldr	r2, [pc, #16]	; (800a168 <system__img_bool__image_boolean+0x30>)
 800a158:	6810      	ldr	r0, [r2, #0]
 800a15a:	5058      	str	r0, [r3, r1]
 800a15c:	f85d 4b04 	ldr.w	r4, [sp], #4
 800a160:	2004      	movs	r0, #4
 800a162:	4770      	bx	lr
 800a164:	0800e788 	.word	0x0800e788
 800a168:	0800e780 	.word	0x0800e780

0800a16c <__gnat_finalize>:
 800a16c:	4770      	bx	lr
 800a16e:	bf00      	nop

0800a170 <__gnat_initialize>:
 800a170:	4770      	bx	lr
 800a172:	bf00      	nop

0800a174 <__gnat_runtime_initialize>:
 800a174:	b510      	push	{r4, lr}
 800a176:	4c14      	ldr	r4, [pc, #80]	; (800a1c8 <__gnat_runtime_initialize+0x54>)
 800a178:	f7fd ff44 	bl	8008004 <system__tasking__initialize>
 800a17c:	4620      	mov	r0, r4
 800a17e:	2200      	movs	r2, #0
 800a180:	2101      	movs	r1, #1
 800a182:	f7fd fb3f 	bl	8007804 <system__bb__cpu_primitives__install_trap_handler>
 800a186:	4620      	mov	r0, r4
 800a188:	2200      	movs	r2, #0
 800a18a:	2102      	movs	r1, #2
 800a18c:	f7fd fb3a 	bl	8007804 <system__bb__cpu_primitives__install_trap_handler>
 800a190:	4620      	mov	r0, r4
 800a192:	2200      	movs	r2, #0
 800a194:	2103      	movs	r1, #3
 800a196:	f7fd fb35 	bl	8007804 <system__bb__cpu_primitives__install_trap_handler>
 800a19a:	4620      	mov	r0, r4
 800a19c:	2200      	movs	r2, #0
 800a19e:	2105      	movs	r1, #5
 800a1a0:	f7fd fb30 	bl	8007804 <system__bb__cpu_primitives__install_trap_handler>
 800a1a4:	4620      	mov	r0, r4
 800a1a6:	2200      	movs	r2, #0
 800a1a8:	2106      	movs	r1, #6
 800a1aa:	f7fd fb2b 	bl	8007804 <system__bb__cpu_primitives__install_trap_handler>
 800a1ae:	4620      	mov	r0, r4
 800a1b0:	2200      	movs	r2, #0
 800a1b2:	210e      	movs	r1, #14
 800a1b4:	f7fd fb26 	bl	8007804 <system__bb__cpu_primitives__install_trap_handler>
 800a1b8:	4620      	mov	r0, r4
 800a1ba:	2200      	movs	r2, #0
 800a1bc:	210b      	movs	r1, #11
 800a1be:	e8bd 4010 	ldmia.w	sp!, {r4, lr}
 800a1c2:	f7fd bb1f 	b.w	8007804 <system__bb__cpu_primitives__install_trap_handler>
 800a1c6:	bf00      	nop
 800a1c8:	0800768d 	.word	0x0800768d

0800a1cc <__gnat_runtime_finalize>:
 800a1cc:	4770      	bx	lr
 800a1ce:	bf00      	nop

0800a1d0 <system__io__put__2>:
 800a1d0:	4b08      	ldr	r3, [pc, #32]	; (800a1f4 <system__io__put__2+0x24>)
 800a1d2:	781b      	ldrb	r3, [r3, #0]
 800a1d4:	b510      	push	{r4, lr}
 800a1d6:	4604      	mov	r4, r0
 800a1d8:	b143      	cbz	r3, 800a1ec <system__io__put__2+0x1c>
 800a1da:	f000 fb4b 	bl	800a874 <system__text_io__is_tx_ready>
 800a1de:	2800      	cmp	r0, #0
 800a1e0:	d0fb      	beq.n	800a1da <system__io__put__2+0xa>
 800a1e2:	4620      	mov	r0, r4
 800a1e4:	e8bd 4010 	ldmia.w	sp!, {r4, lr}
 800a1e8:	f000 bb4c 	b.w	800a884 <system__text_io__put>
 800a1ec:	f000 fb40 	bl	800a870 <system__text_io__initialize>
 800a1f0:	e7f3      	b.n	800a1da <system__io__put__2+0xa>
 800a1f2:	bf00      	nop
 800a1f4:	20000244 	.word	0x20000244

0800a1f8 <system__io__new_line>:
 800a1f8:	b538      	push	{r3, r4, r5, lr}
 800a1fa:	4605      	mov	r5, r0
 800a1fc:	2400      	movs	r4, #0
 800a1fe:	e004      	b.n	800a20a <system__io__new_line+0x12>
 800a200:	200a      	movs	r0, #10
 800a202:	f7ff ffe5 	bl	800a1d0 <system__io__put__2>
 800a206:	42a5      	cmp	r5, r4
 800a208:	d00c      	beq.n	800a224 <system__io__new_line+0x2c>
 800a20a:	3401      	adds	r4, #1
 800a20c:	f000 fb42 	bl	800a894 <system__text_io__use_cr_lf_for_new_line>
 800a210:	2800      	cmp	r0, #0
 800a212:	d0f5      	beq.n	800a200 <system__io__new_line+0x8>
 800a214:	200d      	movs	r0, #13
 800a216:	f7ff ffdb 	bl	800a1d0 <system__io__put__2>
 800a21a:	200a      	movs	r0, #10
 800a21c:	f7ff ffd8 	bl	800a1d0 <system__io__put__2>
 800a220:	42a5      	cmp	r5, r4
 800a222:	d1f2      	bne.n	800a20a <system__io__new_line+0x12>
 800a224:	bd38      	pop	{r3, r4, r5, pc}
 800a226:	bf00      	nop

0800a228 <system__io__put__3>:
 800a228:	b538      	push	{r3, r4, r5, lr}
 800a22a:	e9d1 3200 	ldrd	r3, r2, [r1]
 800a22e:	4293      	cmp	r3, r2
 800a230:	dc09      	bgt.n	800a246 <system__io__put__3+0x1e>
 800a232:	1c45      	adds	r5, r0, #1
 800a234:	4415      	add	r5, r2
 800a236:	4604      	mov	r4, r0
 800a238:	1aed      	subs	r5, r5, r3
 800a23a:	f814 0b01 	ldrb.w	r0, [r4], #1
 800a23e:	f7ff ffc7 	bl	800a1d0 <system__io__put__2>
 800a242:	42ac      	cmp	r4, r5
 800a244:	d1f9      	bne.n	800a23a <system__io__put__3+0x12>
 800a246:	bd38      	pop	{r3, r4, r5, pc}

0800a248 <put_char_stderr>:
 800a248:	f7ff bfc2 	b.w	800a1d0 <system__io__put__2>

0800a24c <system__io__put_line>:
 800a24c:	b508      	push	{r3, lr}
 800a24e:	f7ff ffeb 	bl	800a228 <system__io__put__3>
 800a252:	2001      	movs	r0, #1
 800a254:	e8bd 4008 	ldmia.w	sp!, {r3, lr}
 800a258:	f7ff bfce 	b.w	800a1f8 <system__io__new_line>

0800a25c <abort>:
 800a25c:	4b01      	ldr	r3, [pc, #4]	; (800a264 <abort+0x8>)
 800a25e:	4a02      	ldr	r2, [pc, #8]	; (800a268 <abort+0xc>)
 800a260:	601a      	str	r2, [r3, #0]
 800a262:	e7fe      	b.n	800a262 <abort+0x6>
 800a264:	e000ed0c 	.word	0xe000ed0c
 800a268:	05fa0004 	.word	0x05fa0004

0800a26c <_exit>:
 800a26c:	4b01      	ldr	r3, [pc, #4]	; (800a274 <_exit+0x8>)
 800a26e:	4a02      	ldr	r2, [pc, #8]	; (800a278 <_exit+0xc>)
 800a270:	601a      	str	r2, [r3, #0]
 800a272:	e7fe      	b.n	800a272 <_exit+0x6>
 800a274:	e000ed0c 	.word	0xe000ed0c
 800a278:	05fa0004 	.word	0x05fa0004

0800a27c <memcmp>:
 800a27c:	b1ca      	cbz	r2, 800a2b2 <memcmp+0x36>
 800a27e:	3a01      	subs	r2, #1
 800a280:	b410      	push	{r4}
 800a282:	3901      	subs	r1, #1
 800a284:	1884      	adds	r4, r0, r2
 800a286:	3801      	subs	r0, #1
 800a288:	e002      	b.n	800a290 <memcmp+0x14>
 800a28a:	d80c      	bhi.n	800a2a6 <memcmp+0x2a>
 800a28c:	42a0      	cmp	r0, r4
 800a28e:	d00e      	beq.n	800a2ae <memcmp+0x32>
 800a290:	f810 2f01 	ldrb.w	r2, [r0, #1]!
 800a294:	f811 3f01 	ldrb.w	r3, [r1, #1]!
 800a298:	429a      	cmp	r2, r3
 800a29a:	d2f6      	bcs.n	800a28a <memcmp+0xe>
 800a29c:	f04f 30ff 	mov.w	r0, #4294967295	; 0xffffffff
 800a2a0:	f85d 4b04 	ldr.w	r4, [sp], #4
 800a2a4:	4770      	bx	lr
 800a2a6:	2001      	movs	r0, #1
 800a2a8:	f85d 4b04 	ldr.w	r4, [sp], #4
 800a2ac:	4770      	bx	lr
 800a2ae:	2000      	movs	r0, #0
 800a2b0:	e7f6      	b.n	800a2a0 <memcmp+0x24>
 800a2b2:	2000      	movs	r0, #0
 800a2b4:	4770      	bx	lr
 800a2b6:	bf00      	nop

0800a2b8 <memcpy>:
 800a2b8:	ea40 0301 	orr.w	r3, r0, r1
 800a2bc:	079b      	lsls	r3, r3, #30
 800a2be:	b4f0      	push	{r4, r5, r6, r7}
 800a2c0:	4604      	mov	r4, r0
 800a2c2:	460d      	mov	r5, r1
 800a2c4:	d111      	bne.n	800a2ea <memcpy+0x32>
 800a2c6:	2a03      	cmp	r2, #3
 800a2c8:	d90f      	bls.n	800a2ea <memcpy+0x32>
 800a2ca:	1f15      	subs	r5, r2, #4
 800a2cc:	f025 0603 	bic.w	r6, r5, #3
 800a2d0:	1987      	adds	r7, r0, r6
 800a2d2:	3704      	adds	r7, #4
 800a2d4:	1f0b      	subs	r3, r1, #4
 800a2d6:	f853 5f04 	ldr.w	r5, [r3, #4]!
 800a2da:	f844 5b04 	str.w	r5, [r4], #4
 800a2de:	42bc      	cmp	r4, r7
 800a2e0:	d1f9      	bne.n	800a2d6 <memcpy+0x1e>
 800a2e2:	3104      	adds	r1, #4
 800a2e4:	198d      	adds	r5, r1, r6
 800a2e6:	f002 0203 	and.w	r2, r2, #3
 800a2ea:	b13a      	cbz	r2, 800a2fc <memcpy+0x44>
 800a2ec:	462b      	mov	r3, r5
 800a2ee:	442a      	add	r2, r5
 800a2f0:	1b64      	subs	r4, r4, r5
 800a2f2:	7819      	ldrb	r1, [r3, #0]
 800a2f4:	54e1      	strb	r1, [r4, r3]
 800a2f6:	3301      	adds	r3, #1
 800a2f8:	429a      	cmp	r2, r3
 800a2fa:	d1fa      	bne.n	800a2f2 <memcpy+0x3a>
 800a2fc:	bcf0      	pop	{r4, r5, r6, r7}
 800a2fe:	4770      	bx	lr

0800a300 <memmove>:
 800a300:	b392      	cbz	r2, 800a368 <memmove+0x68>
 800a302:	4288      	cmp	r0, r1
 800a304:	b4f0      	push	{r4, r5, r6, r7}
 800a306:	4604      	mov	r4, r0
 800a308:	460d      	mov	r5, r1
 800a30a:	d821      	bhi.n	800a350 <memmove+0x50>
 800a30c:	ea41 0300 	orr.w	r3, r1, r0
 800a310:	079b      	lsls	r3, r3, #30
 800a312:	d113      	bne.n	800a33c <memmove+0x3c>
 800a314:	2a03      	cmp	r2, #3
 800a316:	d911      	bls.n	800a33c <memmove+0x3c>
 800a318:	1f15      	subs	r5, r2, #4
 800a31a:	f025 0503 	bic.w	r5, r5, #3
 800a31e:	1d2f      	adds	r7, r5, #4
 800a320:	4407      	add	r7, r0
 800a322:	1f0b      	subs	r3, r1, #4
 800a324:	f853 6f04 	ldr.w	r6, [r3, #4]!
 800a328:	f844 6b04 	str.w	r6, [r4], #4
 800a32c:	42bc      	cmp	r4, r7
 800a32e:	d1f9      	bne.n	800a324 <memmove+0x24>
 800a330:	440d      	add	r5, r1
 800a332:	f012 0203 	ands.w	r2, r2, #3
 800a336:	f105 0504 	add.w	r5, r5, #4
 800a33a:	d007      	beq.n	800a34c <memmove+0x4c>
 800a33c:	462b      	mov	r3, r5
 800a33e:	442a      	add	r2, r5
 800a340:	1b64      	subs	r4, r4, r5
 800a342:	7819      	ldrb	r1, [r3, #0]
 800a344:	54e1      	strb	r1, [r4, r3]
 800a346:	3301      	adds	r3, #1
 800a348:	4293      	cmp	r3, r2
 800a34a:	d1fa      	bne.n	800a342 <memmove+0x42>
 800a34c:	bcf0      	pop	{r4, r5, r6, r7}
 800a34e:	4770      	bx	lr
 800a350:	188b      	adds	r3, r1, r2
 800a352:	4283      	cmp	r3, r0
 800a354:	d9da      	bls.n	800a30c <memmove+0xc>
 800a356:	4402      	add	r2, r0
 800a358:	1ad2      	subs	r2, r2, r3
 800a35a:	f813 4d01 	ldrb.w	r4, [r3, #-1]!
 800a35e:	54d4      	strb	r4, [r2, r3]
 800a360:	4299      	cmp	r1, r3
 800a362:	d1fa      	bne.n	800a35a <memmove+0x5a>
 800a364:	bcf0      	pop	{r4, r5, r6, r7}
 800a366:	4770      	bx	lr
 800a368:	4770      	bx	lr
 800a36a:	bf00      	nop

0800a36c <__gnat_malloc>:
 800a36c:	1c43      	adds	r3, r0, #1
 800a36e:	b510      	push	{r4, lr}
 800a370:	d010      	beq.n	800a394 <__gnat_malloc+0x28>
 800a372:	4b0d      	ldr	r3, [pc, #52]	; (800a3a8 <__gnat_malloc+0x3c>)
 800a374:	2800      	cmp	r0, #0
 800a376:	4604      	mov	r4, r0
 800a378:	681b      	ldr	r3, [r3, #0]
 800a37a:	bf08      	it	eq
 800a37c:	2401      	moveq	r4, #1
 800a37e:	4798      	blx	r3
 800a380:	4620      	mov	r0, r4
 800a382:	f000 fc2b 	bl	800abdc <malloc>
 800a386:	4b09      	ldr	r3, [pc, #36]	; (800a3ac <__gnat_malloc+0x40>)
 800a388:	4604      	mov	r4, r0
 800a38a:	681b      	ldr	r3, [r3, #0]
 800a38c:	4798      	blx	r3
 800a38e:	b134      	cbz	r4, 800a39e <__gnat_malloc+0x32>
 800a390:	4620      	mov	r0, r4
 800a392:	bd10      	pop	{r4, pc}
 800a394:	4906      	ldr	r1, [pc, #24]	; (800a3b0 <__gnat_malloc+0x44>)
 800a396:	4a07      	ldr	r2, [pc, #28]	; (800a3b4 <__gnat_malloc+0x48>)
 800a398:	4807      	ldr	r0, [pc, #28]	; (800a3b8 <__gnat_malloc+0x4c>)
 800a39a:	f7fe fdf5 	bl	8008f88 <__gnat_raise_exception>
 800a39e:	4907      	ldr	r1, [pc, #28]	; (800a3bc <__gnat_malloc+0x50>)
 800a3a0:	4a07      	ldr	r2, [pc, #28]	; (800a3c0 <__gnat_malloc+0x54>)
 800a3a2:	4805      	ldr	r0, [pc, #20]	; (800a3b8 <__gnat_malloc+0x4c>)
 800a3a4:	f7fe fdf0 	bl	8008f88 <__gnat_raise_exception>
 800a3a8:	20000190 	.word	0x20000190
 800a3ac:	2000019c 	.word	0x2000019c
 800a3b0:	0800e7a0 	.word	0x0800e7a0
 800a3b4:	0800e790 	.word	0x0800e790
 800a3b8:	20000200 	.word	0x20000200
 800a3bc:	0800e7b4 	.word	0x0800e7b4
 800a3c0:	0800e798 	.word	0x0800e798

0800a3c4 <__gnat_free>:
 800a3c4:	4b06      	ldr	r3, [pc, #24]	; (800a3e0 <__gnat_free+0x1c>)
 800a3c6:	b510      	push	{r4, lr}
 800a3c8:	681b      	ldr	r3, [r3, #0]
 800a3ca:	4604      	mov	r4, r0
 800a3cc:	4798      	blx	r3
 800a3ce:	4620      	mov	r0, r4
 800a3d0:	f000 fc68 	bl	800aca4 <free>
 800a3d4:	4b03      	ldr	r3, [pc, #12]	; (800a3e4 <__gnat_free+0x20>)
 800a3d6:	e8bd 4010 	ldmia.w	sp!, {r4, lr}
 800a3da:	681b      	ldr	r3, [r3, #0]
 800a3dc:	4718      	bx	r3
 800a3de:	bf00      	nop
 800a3e0:	20000190 	.word	0x20000190
 800a3e4:	2000019c 	.word	0x2000019c

0800a3e8 <memset>:
 800a3e8:	b13a      	cbz	r2, 800a3fa <memset+0x12>
 800a3ea:	3a01      	subs	r2, #1
 800a3ec:	4402      	add	r2, r0
 800a3ee:	b2c9      	uxtb	r1, r1
 800a3f0:	1e43      	subs	r3, r0, #1
 800a3f2:	f803 1f01 	strb.w	r1, [r3, #1]!
 800a3f6:	4293      	cmp	r3, r2
 800a3f8:	d1fb      	bne.n	800a3f2 <memset+0xa>
 800a3fa:	4770      	bx	lr

0800a3fc <system__parameters__adjust_storage_size>:
 800a3fc:	f1b0 4f00 	cmp.w	r0, #2147483648	; 0x80000000
 800a400:	bf08      	it	eq
 800a402:	f44f 5080 	moveq.w	r0, #4096	; 0x1000
 800a406:	4770      	bx	lr

0800a408 <system__pool_global___size>:
 800a408:	2020      	movs	r0, #32
 800a40a:	2100      	movs	r1, #0
 800a40c:	4770      	bx	lr
 800a40e:	bf00      	nop

0800a410 <system__pool_global__unbounded_no_reclaim_poolDF>:
 800a410:	4770      	bx	lr
 800a412:	bf00      	nop

0800a414 <system__pool_global__storage_size>:
 800a414:	f06f 4000 	mvn.w	r0, #2147483648	; 0x80000000
 800a418:	4770      	bx	lr
 800a41a:	bf00      	nop

0800a41c <system__pool_global__allocate>:
 800a41c:	2a08      	cmp	r2, #8
 800a41e:	b510      	push	{r4, lr}
 800a420:	dd0c      	ble.n	800a43c <system__pool_global__allocate+0x20>
 800a422:	1888      	adds	r0, r1, r2
 800a424:	4614      	mov	r4, r2
 800a426:	f7ff ffa1 	bl	800a36c <__gnat_malloc>
 800a42a:	4603      	mov	r3, r0
 800a42c:	b158      	cbz	r0, 800a446 <system__pool_global__allocate+0x2a>
 800a42e:	fbb0 f0f4 	udiv	r0, r0, r4
 800a432:	fb04 4000 	mla	r0, r4, r0, r4
 800a436:	f840 3c04 	str.w	r3, [r0, #-4]
 800a43a:	bd10      	pop	{r4, pc}
 800a43c:	4608      	mov	r0, r1
 800a43e:	f7ff ff95 	bl	800a36c <__gnat_malloc>
 800a442:	2800      	cmp	r0, #0
 800a444:	d1f9      	bne.n	800a43a <system__pool_global__allocate+0x1e>
 800a446:	2144      	movs	r1, #68	; 0x44
 800a448:	4801      	ldr	r0, [pc, #4]	; (800a450 <system__pool_global__allocate+0x34>)
 800a44a:	f7fe fe25 	bl	8009098 <__gnat_rcheck_SE_Explicit_Raise>
 800a44e:	bf00      	nop
 800a450:	0800e7c4 	.word	0x0800e7c4

0800a454 <system__pool_global__deallocate>:
 800a454:	2b08      	cmp	r3, #8
 800a456:	dc02      	bgt.n	800a45e <system__pool_global__deallocate+0xa>
 800a458:	4608      	mov	r0, r1
 800a45a:	f7ff bfb3 	b.w	800a3c4 <__gnat_free>
 800a45e:	f851 0c04 	ldr.w	r0, [r1, #-4]
 800a462:	f7ff bfaf 	b.w	800a3c4 <__gnat_free>
 800a466:	bf00      	nop

0800a468 <system__pool_global___elabs>:
 800a468:	b510      	push	{r4, lr}
 800a46a:	4c05      	ldr	r4, [pc, #20]	; (800a480 <system__pool_global___elabs+0x18>)
 800a46c:	4620      	mov	r0, r4
 800a46e:	f7fe ff53 	bl	8009318 <ada__tags__register_tag>
 800a472:	4a04      	ldr	r2, [pc, #16]	; (800a484 <system__pool_global___elabs+0x1c>)
 800a474:	4b04      	ldr	r3, [pc, #16]	; (800a488 <system__pool_global___elabs+0x20>)
 800a476:	6014      	str	r4, [r2, #0]
 800a478:	2201      	movs	r2, #1
 800a47a:	601a      	str	r2, [r3, #0]
 800a47c:	bd10      	pop	{r4, pc}
 800a47e:	bf00      	nop
 800a480:	0800e87c 	.word	0x0800e87c
 800a484:	20001e2c 	.word	0x20001e2c
 800a488:	2000017c 	.word	0x2000017c

0800a48c <system__secondary_stack__ss_stackIP>:
 800a48c:	6001      	str	r1, [r0, #0]
 800a48e:	4770      	bx	lr

0800a490 <system__secondary_stack__ss_allocate>:
 800a490:	b510      	push	{r4, lr}
 800a492:	4604      	mov	r4, r0
 800a494:	f7fd fd96 	bl	8007fc4 <__gnat_get_secondary_stack>
 800a498:	4b13      	ldr	r3, [pc, #76]	; (800a4e8 <system__secondary_stack__ss_allocate+0x58>)
 800a49a:	429c      	cmp	r4, r3
 800a49c:	dc1c      	bgt.n	800a4d8 <system__secondary_stack__ss_allocate+0x48>
 800a49e:	4601      	mov	r1, r0
 800a4a0:	e9d0 0201 	ldrd	r0, r2, [r0, #4]
 800a4a4:	1de3      	adds	r3, r4, #7
 800a4a6:	bf48      	it	mi
 800a4a8:	f104 030e 	addmi.w	r3, r4, #14
 800a4ac:	f023 0307 	bic.w	r3, r3, #7
 800a4b0:	1a12      	subs	r2, r2, r0
 800a4b2:	1ad2      	subs	r2, r2, r3
 800a4b4:	2a00      	cmp	r2, #0
 800a4b6:	db04      	blt.n	800a4c2 <system__secondary_stack__ss_allocate+0x32>
 800a4b8:	4403      	add	r3, r0
 800a4ba:	300f      	adds	r0, #15
 800a4bc:	4408      	add	r0, r1
 800a4be:	604b      	str	r3, [r1, #4]
 800a4c0:	bd10      	pop	{r4, pc}
 800a4c2:	680a      	ldr	r2, [r1, #0]
 800a4c4:	1a12      	subs	r2, r2, r0
 800a4c6:	1ad2      	subs	r2, r2, r3
 800a4c8:	3201      	adds	r2, #1
 800a4ca:	db09      	blt.n	800a4e0 <system__secondary_stack__ss_allocate+0x50>
 800a4cc:	4403      	add	r3, r0
 800a4ce:	300f      	adds	r0, #15
 800a4d0:	608b      	str	r3, [r1, #8]
 800a4d2:	4408      	add	r0, r1
 800a4d4:	604b      	str	r3, [r1, #4]
 800a4d6:	bd10      	pop	{r4, pc}
 800a4d8:	2174      	movs	r1, #116	; 0x74
 800a4da:	4804      	ldr	r0, [pc, #16]	; (800a4ec <system__secondary_stack__ss_allocate+0x5c>)
 800a4dc:	f7fe fddc 	bl	8009098 <__gnat_rcheck_SE_Explicit_Raise>
 800a4e0:	2183      	movs	r1, #131	; 0x83
 800a4e2:	4802      	ldr	r0, [pc, #8]	; (800a4ec <system__secondary_stack__ss_allocate+0x5c>)
 800a4e4:	f7fe fdd8 	bl	8009098 <__gnat_rcheck_SE_Explicit_Raise>
 800a4e8:	7ffffff7 	.word	0x7ffffff7
 800a4ec:	0800e894 	.word	0x0800e894

0800a4f0 <system__secondary_stack__ss_init>:
 800a4f0:	b118      	cbz	r0, 800a4fa <system__secondary_stack__ss_init+0xa>
 800a4f2:	2301      	movs	r3, #1
 800a4f4:	e9c0 3301 	strd	r3, r3, [r0, #4]
 800a4f8:	4770      	bx	lr
 800a4fa:	f1b1 4f00 	cmp.w	r1, #2147483648	; 0x80000000
 800a4fe:	b510      	push	{r4, lr}
 800a500:	4b11      	ldr	r3, [pc, #68]	; (800a548 <system__secondary_stack__ss_init+0x58>)
 800a502:	d002      	beq.n	800a50a <system__secondary_stack__ss_init+0x1a>
 800a504:	681b      	ldr	r3, [r3, #0]
 800a506:	b9db      	cbnz	r3, 800a540 <system__secondary_stack__ss_init+0x50>
 800a508:	bd10      	pop	{r4, pc}
 800a50a:	681a      	ldr	r2, [r3, #0]
 800a50c:	2a00      	cmp	r2, #0
 800a50e:	ddf9      	ble.n	800a504 <system__secondary_stack__ss_init+0x14>
 800a510:	490e      	ldr	r1, [pc, #56]	; (800a54c <system__secondary_stack__ss_init+0x5c>)
 800a512:	681c      	ldr	r4, [r3, #0]
 800a514:	680a      	ldr	r2, [r1, #0]
 800a516:	42a2      	cmp	r2, r4
 800a518:	daf4      	bge.n	800a504 <system__secondary_stack__ss_init+0x14>
 800a51a:	480d      	ldr	r0, [pc, #52]	; (800a550 <system__secondary_stack__ss_init+0x60>)
 800a51c:	681b      	ldr	r3, [r3, #0]
 800a51e:	6800      	ldr	r0, [r0, #0]
 800a520:	4b0c      	ldr	r3, [pc, #48]	; (800a554 <system__secondary_stack__ss_init+0x64>)
 800a522:	ea20 70e0 	bic.w	r0, r0, r0, asr #31
 800a526:	3007      	adds	r0, #7
 800a528:	681c      	ldr	r4, [r3, #0]
 800a52a:	f020 0007 	bic.w	r0, r0, #7
 800a52e:	1c53      	adds	r3, r2, #1
 800a530:	3010      	adds	r0, #16
 800a532:	fb02 4000 	mla	r0, r2, r0, r4
 800a536:	600b      	str	r3, [r1, #0]
 800a538:	2301      	movs	r3, #1
 800a53a:	e9c0 3301 	strd	r3, r3, [r0, #4]
 800a53e:	bd10      	pop	{r4, pc}
 800a540:	21ea      	movs	r1, #234	; 0xea
 800a542:	4805      	ldr	r0, [pc, #20]	; (800a558 <system__secondary_stack__ss_init+0x68>)
 800a544:	f7fe fd9c 	bl	8009080 <__gnat_rcheck_PE_Explicit_Raise>
 800a548:	20001e30 	.word	0x20001e30
 800a54c:	20000184 	.word	0x20000184
 800a550:	20001e38 	.word	0x20001e38
 800a554:	20001e34 	.word	0x20001e34
 800a558:	0800e894 	.word	0x0800e894

0800a55c <system__secondary_stack__ss_mark>:
 800a55c:	b508      	push	{r3, lr}
 800a55e:	f7fd fd31 	bl	8007fc4 <__gnat_get_secondary_stack>
 800a562:	6840      	ldr	r0, [r0, #4]
 800a564:	bd08      	pop	{r3, pc}
 800a566:	bf00      	nop

0800a568 <system__secondary_stack__ss_release>:
 800a568:	b510      	push	{r4, lr}
 800a56a:	4604      	mov	r4, r0
 800a56c:	f7fd fd2a 	bl	8007fc4 <__gnat_get_secondary_stack>
 800a570:	6044      	str	r4, [r0, #4]
 800a572:	bd10      	pop	{r4, pc}

0800a574 <system__soft_links__get_current_excep_soft>:
 800a574:	4b02      	ldr	r3, [pc, #8]	; (800a580 <system__soft_links__get_current_excep_soft+0xc>)
 800a576:	681b      	ldr	r3, [r3, #0]
 800a578:	6a98      	ldr	r0, [r3, #40]	; 0x28
 800a57a:	309c      	adds	r0, #156	; 0x9c
 800a57c:	4770      	bx	lr
 800a57e:	bf00      	nop
 800a580:	20000094 	.word	0x20000094

0800a584 <system__soft_links__adafinal_soft>:
 800a584:	4b01      	ldr	r3, [pc, #4]	; (800a58c <system__soft_links__adafinal_soft+0x8>)
 800a586:	4802      	ldr	r0, [pc, #8]	; (800a590 <system__soft_links__adafinal_soft+0xc>)
 800a588:	681b      	ldr	r3, [r3, #0]
 800a58a:	4718      	bx	r3
 800a58c:	20000194 	.word	0x20000194
 800a590:	0800dff8 	.word	0x0800dff8

0800a594 <system__soft_links__task_lock_soft>:
 800a594:	490c      	ldr	r1, [pc, #48]	; (800a5c8 <system__soft_links__task_lock_soft+0x34>)
 800a596:	680b      	ldr	r3, [r1, #0]
 800a598:	6a9a      	ldr	r2, [r3, #40]	; 0x28
 800a59a:	f8d2 324c 	ldr.w	r3, [r2, #588]	; 0x24c
 800a59e:	3301      	adds	r3, #1
 800a5a0:	2b01      	cmp	r3, #1
 800a5a2:	f8c2 324c 	str.w	r3, [r2, #588]	; 0x24c
 800a5a6:	d000      	beq.n	800a5aa <system__soft_links__task_lock_soft+0x16>
 800a5a8:	4770      	bx	lr
 800a5aa:	b510      	push	{r4, lr}
 800a5ac:	f8d2 3080 	ldr.w	r3, [r2, #128]	; 0x80
 800a5b0:	6b5c      	ldr	r4, [r3, #52]	; 0x34
 800a5b2:	b672      	cpsid	i
 800a5b4:	6808      	ldr	r0, [r1, #0]
 800a5b6:	21ff      	movs	r1, #255	; 0xff
 800a5b8:	f7fd f9ac 	bl	8007914 <system__bb__threads__queues__change_priority>
 800a5bc:	f7fd fdbe 	bl	800813c <system__bb__protection__leave_kernel>
 800a5c0:	4b02      	ldr	r3, [pc, #8]	; (800a5cc <system__soft_links__task_lock_soft+0x38>)
 800a5c2:	601c      	str	r4, [r3, #0]
 800a5c4:	bd10      	pop	{r4, pc}
 800a5c6:	bf00      	nop
 800a5c8:	20000094 	.word	0x20000094
 800a5cc:	20001e3c 	.word	0x20001e3c

0800a5d0 <system__soft_links__task_termination_soft>:
 800a5d0:	b570      	push	{r4, r5, r6, lr}
 800a5d2:	4c15      	ldr	r4, [pc, #84]	; (800a628 <system__soft_links__task_termination_soft+0x58>)
 800a5d4:	6823      	ldr	r3, [r4, #0]
 800a5d6:	b082      	sub	sp, #8
 800a5d8:	6a9e      	ldr	r6, [r3, #40]	; 0x28
 800a5da:	b672      	cpsid	i
 800a5dc:	21ff      	movs	r1, #255	; 0xff
 800a5de:	6820      	ldr	r0, [r4, #0]
 800a5e0:	f7fd f998 	bl	8007914 <system__bb__threads__queues__change_priority>
 800a5e4:	f7fd fdaa 	bl	800813c <system__bb__protection__leave_kernel>
 800a5e8:	4b10      	ldr	r3, [pc, #64]	; (800a62c <system__soft_links__task_termination_soft+0x5c>)
 800a5ea:	e893 0003 	ldmia.w	r3, {r0, r1}
 800a5ee:	466d      	mov	r5, sp
 800a5f0:	e885 0003 	stmia.w	r5, {r0, r1}
 800a5f4:	b672      	cpsid	i
 800a5f6:	68f1      	ldr	r1, [r6, #12]
 800a5f8:	6820      	ldr	r0, [r4, #0]
 800a5fa:	f7fd f98b 	bl	8007914 <system__bb__threads__queues__change_priority>
 800a5fe:	f7fd fd9d 	bl	800813c <system__bb__protection__leave_kernel>
 800a602:	4b0b      	ldr	r3, [pc, #44]	; (800a630 <system__soft_links__task_termination_soft+0x60>)
 800a604:	9900      	ldr	r1, [sp, #0]
 800a606:	681a      	ldr	r2, [r3, #0]
 800a608:	4291      	cmp	r1, r2
 800a60a:	d006      	beq.n	800a61a <system__soft_links__task_termination_soft+0x4a>
 800a60c:	e9dd 0300 	ldrd	r0, r3, [sp]
 800a610:	4631      	mov	r1, r6
 800a612:	b002      	add	sp, #8
 800a614:	e8bd 4070 	ldmia.w	sp!, {r4, r5, r6, lr}
 800a618:	4718      	bx	r3
 800a61a:	686a      	ldr	r2, [r5, #4]
 800a61c:	685b      	ldr	r3, [r3, #4]
 800a61e:	429a      	cmp	r2, r3
 800a620:	d1f4      	bne.n	800a60c <system__soft_links__task_termination_soft+0x3c>
 800a622:	b002      	add	sp, #8
 800a624:	bd70      	pop	{r4, r5, r6, pc}
 800a626:	bf00      	nop
 800a628:	20000094 	.word	0x20000094
 800a62c:	200000d4 	.word	0x200000d4
 800a630:	0800e8a4 	.word	0x0800e8a4

0800a634 <system__soft_links__task_unlock_soft>:
 800a634:	490a      	ldr	r1, [pc, #40]	; (800a660 <system__soft_links__task_unlock_soft+0x2c>)
 800a636:	b508      	push	{r3, lr}
 800a638:	680b      	ldr	r3, [r1, #0]
 800a63a:	6a9a      	ldr	r2, [r3, #40]	; 0x28
 800a63c:	f8d2 324c 	ldr.w	r3, [r2, #588]	; 0x24c
 800a640:	3b01      	subs	r3, #1
 800a642:	f8c2 324c 	str.w	r3, [r2, #588]	; 0x24c
 800a646:	b103      	cbz	r3, 800a64a <system__soft_links__task_unlock_soft+0x16>
 800a648:	bd08      	pop	{r3, pc}
 800a64a:	b672      	cpsid	i
 800a64c:	4b05      	ldr	r3, [pc, #20]	; (800a664 <system__soft_links__task_unlock_soft+0x30>)
 800a64e:	6808      	ldr	r0, [r1, #0]
 800a650:	6819      	ldr	r1, [r3, #0]
 800a652:	f7fd f95f 	bl	8007914 <system__bb__threads__queues__change_priority>
 800a656:	e8bd 4008 	ldmia.w	sp!, {r3, lr}
 800a65a:	f7fd bd6f 	b.w	800813c <system__bb__protection__leave_kernel>
 800a65e:	bf00      	nop
 800a660:	20000094 	.word	0x20000094
 800a664:	20001e3c 	.word	0x20001e3c

0800a668 <system__soft_links___elabs>:
 800a668:	4b04      	ldr	r3, [pc, #16]	; (800a67c <system__soft_links___elabs+0x14>)
 800a66a:	2200      	movs	r2, #0
 800a66c:	601a      	str	r2, [r3, #0]
 800a66e:	609a      	str	r2, [r3, #8]
 800a670:	f883 20d4 	strb.w	r2, [r3, #212]	; 0xd4
 800a674:	e9c3 2236 	strd	r2, r2, [r3, #216]	; 0xd8
 800a678:	4770      	bx	lr
 800a67a:	bf00      	nop
 800a67c:	20001e40 	.word	0x20001e40

0800a680 <system__standard_library__adafinal>:
 800a680:	4b04      	ldr	r3, [pc, #16]	; (800a694 <system__standard_library__adafinal+0x14>)
 800a682:	781a      	ldrb	r2, [r3, #0]
 800a684:	b922      	cbnz	r2, 800a690 <system__standard_library__adafinal+0x10>
 800a686:	4a04      	ldr	r2, [pc, #16]	; (800a698 <system__standard_library__adafinal+0x18>)
 800a688:	2101      	movs	r1, #1
 800a68a:	6812      	ldr	r2, [r2, #0]
 800a68c:	7019      	strb	r1, [r3, #0]
 800a68e:	4710      	bx	r2
 800a690:	4770      	bx	lr
 800a692:	bf00      	nop
 800a694:	20000220 	.word	0x20000220
 800a698:	2000018c 	.word	0x2000018c

0800a69c <system__storage_pools___size__2>:
 800a69c:	2020      	movs	r0, #32
 800a69e:	2100      	movs	r1, #0
 800a6a0:	4770      	bx	lr
 800a6a2:	bf00      	nop

0800a6a4 <system__storage_pools__root_storage_poolDF__2>:
 800a6a4:	4770      	bx	lr
 800a6a6:	bf00      	nop

0800a6a8 <system__storage_pools___elabs>:
 800a6a8:	4801      	ldr	r0, [pc, #4]	; (800a6b0 <system__storage_pools___elabs+0x8>)
 800a6aa:	f7fe be35 	b.w	8009318 <ada__tags__register_tag>
 800a6ae:	bf00      	nop
 800a6b0:	0800e9ac 	.word	0x0800e9ac

0800a6b4 <system__stream_attributes__i_as>:
 800a6b4:	b500      	push	{lr}
 800a6b6:	6803      	ldr	r3, [r0, #0]
 800a6b8:	4a08      	ldr	r2, [pc, #32]	; (800a6dc <system__stream_attributes__i_as+0x28>)
 800a6ba:	681b      	ldr	r3, [r3, #0]
 800a6bc:	b083      	sub	sp, #12
 800a6be:	a901      	add	r1, sp, #4
 800a6c0:	4798      	blx	r3
 800a6c2:	2804      	cmp	r0, #4
 800a6c4:	f171 0300 	sbcs.w	r3, r1, #0
 800a6c8:	db03      	blt.n	800a6d2 <system__stream_attributes__i_as+0x1e>
 800a6ca:	9801      	ldr	r0, [sp, #4]
 800a6cc:	b003      	add	sp, #12
 800a6ce:	f85d fb04 	ldr.w	pc, [sp], #4
 800a6d2:	4903      	ldr	r1, [pc, #12]	; (800a6e0 <system__stream_attributes__i_as+0x2c>)
 800a6d4:	4a03      	ldr	r2, [pc, #12]	; (800a6e4 <system__stream_attributes__i_as+0x30>)
 800a6d6:	4804      	ldr	r0, [pc, #16]	; (800a6e8 <system__stream_attributes__i_as+0x34>)
 800a6d8:	f7fe fc56 	bl	8008f88 <__gnat_raise_exception>
 800a6dc:	0800e9e0 	.word	0x0800e9e0
 800a6e0:	0800ea10 	.word	0x0800ea10
 800a6e4:	0800e9d8 	.word	0x0800e9d8
 800a6e8:	20000248 	.word	0x20000248

0800a6ec <system__stream_attributes__i_b>:
 800a6ec:	b500      	push	{lr}
 800a6ee:	6803      	ldr	r3, [r0, #0]
 800a6f0:	4a09      	ldr	r2, [pc, #36]	; (800a718 <system__stream_attributes__i_b+0x2c>)
 800a6f2:	681b      	ldr	r3, [r3, #0]
 800a6f4:	b083      	sub	sp, #12
 800a6f6:	a901      	add	r1, sp, #4
 800a6f8:	4798      	blx	r3
 800a6fa:	2801      	cmp	r0, #1
 800a6fc:	f171 0300 	sbcs.w	r3, r1, #0
 800a700:	db04      	blt.n	800a70c <system__stream_attributes__i_b+0x20>
 800a702:	f89d 0004 	ldrb.w	r0, [sp, #4]
 800a706:	b003      	add	sp, #12
 800a708:	f85d fb04 	ldr.w	pc, [sp], #4
 800a70c:	4903      	ldr	r1, [pc, #12]	; (800a71c <system__stream_attributes__i_b+0x30>)
 800a70e:	4a04      	ldr	r2, [pc, #16]	; (800a720 <system__stream_attributes__i_b+0x34>)
 800a710:	4804      	ldr	r0, [pc, #16]	; (800a724 <system__stream_attributes__i_b+0x38>)
 800a712:	f7fe fc39 	bl	8008f88 <__gnat_raise_exception>
 800a716:	bf00      	nop
 800a718:	0800e9f0 	.word	0x0800e9f0
 800a71c:	0800ea24 	.word	0x0800ea24
 800a720:	0800e9d8 	.word	0x0800e9d8
 800a724:	20000248 	.word	0x20000248

0800a728 <system__stream_attributes__i_ssu>:
 800a728:	b500      	push	{lr}
 800a72a:	6803      	ldr	r3, [r0, #0]
 800a72c:	4a09      	ldr	r2, [pc, #36]	; (800a754 <system__stream_attributes__i_ssu+0x2c>)
 800a72e:	681b      	ldr	r3, [r3, #0]
 800a730:	b083      	sub	sp, #12
 800a732:	a901      	add	r1, sp, #4
 800a734:	4798      	blx	r3
 800a736:	2801      	cmp	r0, #1
 800a738:	f171 0300 	sbcs.w	r3, r1, #0
 800a73c:	db04      	blt.n	800a748 <system__stream_attributes__i_ssu+0x20>
 800a73e:	f89d 0004 	ldrb.w	r0, [sp, #4]
 800a742:	b003      	add	sp, #12
 800a744:	f85d fb04 	ldr.w	pc, [sp], #4
 800a748:	4903      	ldr	r1, [pc, #12]	; (800a758 <system__stream_attributes__i_ssu+0x30>)
 800a74a:	4a04      	ldr	r2, [pc, #16]	; (800a75c <system__stream_attributes__i_ssu+0x34>)
 800a74c:	4804      	ldr	r0, [pc, #16]	; (800a760 <system__stream_attributes__i_ssu+0x38>)
 800a74e:	f7fe fc1b 	bl	8008f88 <__gnat_raise_exception>
 800a752:	bf00      	nop
 800a754:	0800e9f0 	.word	0x0800e9f0
 800a758:	0800ea38 	.word	0x0800ea38
 800a75c:	0800e9d8 	.word	0x0800e9d8
 800a760:	20000248 	.word	0x20000248

0800a764 <system__stream_attributes__i_su>:
 800a764:	b500      	push	{lr}
 800a766:	6803      	ldr	r3, [r0, #0]
 800a768:	4a09      	ldr	r2, [pc, #36]	; (800a790 <system__stream_attributes__i_su+0x2c>)
 800a76a:	681b      	ldr	r3, [r3, #0]
 800a76c:	b083      	sub	sp, #12
 800a76e:	a901      	add	r1, sp, #4
 800a770:	4798      	blx	r3
 800a772:	2802      	cmp	r0, #2
 800a774:	f171 0300 	sbcs.w	r3, r1, #0
 800a778:	db04      	blt.n	800a784 <system__stream_attributes__i_su+0x20>
 800a77a:	f8bd 0004 	ldrh.w	r0, [sp, #4]
 800a77e:	b003      	add	sp, #12
 800a780:	f85d fb04 	ldr.w	pc, [sp], #4
 800a784:	4903      	ldr	r1, [pc, #12]	; (800a794 <system__stream_attributes__i_su+0x30>)
 800a786:	4a04      	ldr	r2, [pc, #16]	; (800a798 <system__stream_attributes__i_su+0x34>)
 800a788:	4804      	ldr	r0, [pc, #16]	; (800a79c <system__stream_attributes__i_su+0x38>)
 800a78a:	f7fe fbfd 	bl	8008f88 <__gnat_raise_exception>
 800a78e:	bf00      	nop
 800a790:	0800ea00 	.word	0x0800ea00
 800a794:	0800ea4c 	.word	0x0800ea4c
 800a798:	0800e9d8 	.word	0x0800e9d8
 800a79c:	20000248 	.word	0x20000248

0800a7a0 <system__stream_attributes__i_u>:
 800a7a0:	b500      	push	{lr}
 800a7a2:	6803      	ldr	r3, [r0, #0]
 800a7a4:	4a08      	ldr	r2, [pc, #32]	; (800a7c8 <system__stream_attributes__i_u+0x28>)
 800a7a6:	681b      	ldr	r3, [r3, #0]
 800a7a8:	b083      	sub	sp, #12
 800a7aa:	a901      	add	r1, sp, #4
 800a7ac:	4798      	blx	r3
 800a7ae:	2804      	cmp	r0, #4
 800a7b0:	f171 0300 	sbcs.w	r3, r1, #0
 800a7b4:	db03      	blt.n	800a7be <system__stream_attributes__i_u+0x1e>
 800a7b6:	9801      	ldr	r0, [sp, #4]
 800a7b8:	b003      	add	sp, #12
 800a7ba:	f85d fb04 	ldr.w	pc, [sp], #4
 800a7be:	4903      	ldr	r1, [pc, #12]	; (800a7cc <system__stream_attributes__i_u+0x2c>)
 800a7c0:	4a03      	ldr	r2, [pc, #12]	; (800a7d0 <system__stream_attributes__i_u+0x30>)
 800a7c2:	4804      	ldr	r0, [pc, #16]	; (800a7d4 <system__stream_attributes__i_u+0x34>)
 800a7c4:	f7fe fbe0 	bl	8008f88 <__gnat_raise_exception>
 800a7c8:	0800e9e0 	.word	0x0800e9e0
 800a7cc:	0800ea60 	.word	0x0800ea60
 800a7d0:	0800e9d8 	.word	0x0800e9d8
 800a7d4:	20000248 	.word	0x20000248

0800a7d8 <system__stream_attributes__w_as>:
 800a7d8:	b510      	push	{r4, lr}
 800a7da:	b084      	sub	sp, #16
 800a7dc:	ab04      	add	r3, sp, #16
 800a7de:	9101      	str	r1, [sp, #4]
 800a7e0:	6802      	ldr	r2, [r0, #0]
 800a7e2:	f843 1d04 	str.w	r1, [r3, #-4]!
 800a7e6:	6854      	ldr	r4, [r2, #4]
 800a7e8:	4a02      	ldr	r2, [pc, #8]	; (800a7f4 <system__stream_attributes__w_as+0x1c>)
 800a7ea:	4619      	mov	r1, r3
 800a7ec:	47a0      	blx	r4
 800a7ee:	b004      	add	sp, #16
 800a7f0:	bd10      	pop	{r4, pc}
 800a7f2:	bf00      	nop
 800a7f4:	0800e9e0 	.word	0x0800e9e0

0800a7f8 <system__stream_attributes__w_b>:
 800a7f8:	b510      	push	{r4, lr}
 800a7fa:	b082      	sub	sp, #8
 800a7fc:	ab02      	add	r3, sp, #8
 800a7fe:	6802      	ldr	r2, [r0, #0]
 800a800:	f803 1d04 	strb.w	r1, [r3, #-4]!
 800a804:	6854      	ldr	r4, [r2, #4]
 800a806:	4a02      	ldr	r2, [pc, #8]	; (800a810 <system__stream_attributes__w_b+0x18>)
 800a808:	4619      	mov	r1, r3
 800a80a:	47a0      	blx	r4
 800a80c:	b002      	add	sp, #8
 800a80e:	bd10      	pop	{r4, pc}
 800a810:	0800e9f0 	.word	0x0800e9f0

0800a814 <system__stream_attributes__w_ssu>:
 800a814:	b510      	push	{r4, lr}
 800a816:	b082      	sub	sp, #8
 800a818:	ab02      	add	r3, sp, #8
 800a81a:	6802      	ldr	r2, [r0, #0]
 800a81c:	f803 1d04 	strb.w	r1, [r3, #-4]!
 800a820:	6854      	ldr	r4, [r2, #4]
 800a822:	4a02      	ldr	r2, [pc, #8]	; (800a82c <system__stream_attributes__w_ssu+0x18>)
 800a824:	4619      	mov	r1, r3
 800a826:	47a0      	blx	r4
 800a828:	b002      	add	sp, #8
 800a82a:	bd10      	pop	{r4, pc}
 800a82c:	0800e9f0 	.word	0x0800e9f0

0800a830 <system__stream_attributes__w_su>:
 800a830:	b510      	push	{r4, lr}
 800a832:	b084      	sub	sp, #16
 800a834:	ab04      	add	r3, sp, #16
 800a836:	f8ad 1006 	strh.w	r1, [sp, #6]
 800a83a:	6802      	ldr	r2, [r0, #0]
 800a83c:	f823 1d04 	strh.w	r1, [r3, #-4]!
 800a840:	6854      	ldr	r4, [r2, #4]
 800a842:	4a02      	ldr	r2, [pc, #8]	; (800a84c <system__stream_attributes__w_su+0x1c>)
 800a844:	4619      	mov	r1, r3
 800a846:	47a0      	blx	r4
 800a848:	b004      	add	sp, #16
 800a84a:	bd10      	pop	{r4, pc}
 800a84c:	0800ea00 	.word	0x0800ea00

0800a850 <system__stream_attributes__w_u>:
 800a850:	b510      	push	{r4, lr}
 800a852:	b084      	sub	sp, #16
 800a854:	ab04      	add	r3, sp, #16
 800a856:	9101      	str	r1, [sp, #4]
 800a858:	6802      	ldr	r2, [r0, #0]
 800a85a:	f843 1d04 	str.w	r1, [r3, #-4]!
 800a85e:	6854      	ldr	r4, [r2, #4]
 800a860:	4a02      	ldr	r2, [pc, #8]	; (800a86c <system__stream_attributes__w_u+0x1c>)
 800a862:	4619      	mov	r1, r3
 800a864:	47a0      	blx	r4
 800a866:	b004      	add	sp, #16
 800a868:	bd10      	pop	{r4, pc}
 800a86a:	bf00      	nop
 800a86c:	0800e9e0 	.word	0x0800e9e0

0800a870 <system__text_io__initialize>:
 800a870:	4770      	bx	lr
 800a872:	bf00      	nop

0800a874 <system__text_io__is_tx_ready>:
 800a874:	4b02      	ldr	r3, [pc, #8]	; (800a880 <system__text_io__is_tx_ready+0xc>)
 800a876:	6818      	ldr	r0, [r3, #0]
 800a878:	f3c0 1080 	ubfx	r0, r0, #6, #1
 800a87c:	4770      	bx	lr
 800a87e:	bf00      	nop
 800a880:	4001381c 	.word	0x4001381c

0800a884 <system__text_io__put>:
 800a884:	4a02      	ldr	r2, [pc, #8]	; (800a890 <system__text_io__put+0xc>)
 800a886:	6813      	ldr	r3, [r2, #0]
 800a888:	f360 0308 	bfi	r3, r0, #0, #9
 800a88c:	6013      	str	r3, [r2, #0]
 800a88e:	4770      	bx	lr
 800a890:	40013828 	.word	0x40013828

0800a894 <system__text_io__use_cr_lf_for_new_line>:
 800a894:	2001      	movs	r0, #1
 800a896:	4770      	bx	lr

0800a898 <system__traceback__backtrace_callback>:
 800a898:	694b      	ldr	r3, [r1, #20]
 800a89a:	2b00      	cmp	r3, #0
 800a89c:	dd03      	ble.n	800a8a6 <system__traceback__backtrace_callback+0xe>
 800a89e:	3b01      	subs	r3, #1
 800a8a0:	614b      	str	r3, [r1, #20]
 800a8a2:	2000      	movs	r0, #0
 800a8a4:	4770      	bx	lr
 800a8a6:	e9d1 3201 	ldrd	r3, r2, [r1, #4]
 800a8aa:	429a      	cmp	r2, r3
 800a8ac:	db01      	blt.n	800a8b2 <system__traceback__backtrace_callback+0x1a>
 800a8ae:	2000      	movs	r0, #0
 800a8b0:	4770      	bx	lr
 800a8b2:	b510      	push	{r4, lr}
 800a8b4:	b084      	sub	sp, #16
 800a8b6:	aa03      	add	r2, sp, #12
 800a8b8:	2300      	movs	r3, #0
 800a8ba:	460c      	mov	r4, r1
 800a8bc:	9200      	str	r2, [sp, #0]
 800a8be:	4619      	mov	r1, r3
 800a8c0:	220f      	movs	r2, #15
 800a8c2:	f000 febd 	bl	800b640 <_Unwind_VRS_Get>
 800a8c6:	b978      	cbnz	r0, 800a8e8 <system__traceback__backtrace_callback+0x50>
 800a8c8:	9b03      	ldr	r3, [sp, #12]
 800a8ca:	68e2      	ldr	r2, [r4, #12]
 800a8cc:	429a      	cmp	r2, r3
 800a8ce:	d802      	bhi.n	800a8d6 <system__traceback__backtrace_callback+0x3e>
 800a8d0:	6922      	ldr	r2, [r4, #16]
 800a8d2:	4293      	cmp	r3, r2
 800a8d4:	d906      	bls.n	800a8e4 <system__traceback__backtrace_callback+0x4c>
 800a8d6:	68a2      	ldr	r2, [r4, #8]
 800a8d8:	6821      	ldr	r1, [r4, #0]
 800a8da:	1c50      	adds	r0, r2, #1
 800a8dc:	60a0      	str	r0, [r4, #8]
 800a8de:	f841 3022 	str.w	r3, [r1, r2, lsl #2]
 800a8e2:	2000      	movs	r0, #0
 800a8e4:	b004      	add	sp, #16
 800a8e6:	bd10      	pop	{r4, pc}
 800a8e8:	2006      	movs	r0, #6
 800a8ea:	e7fb      	b.n	800a8e4 <system__traceback__backtrace_callback+0x4c>

0800a8ec <system__traceback__call_chain>:
 800a8ec:	b530      	push	{r4, r5, lr}
 800a8ee:	b087      	sub	sp, #28
 800a8f0:	990b      	ldr	r1, [sp, #44]	; 0x2c
 800a8f2:	9d0a      	ldr	r5, [sp, #40]	; 0x28
 800a8f4:	9000      	str	r0, [sp, #0]
 800a8f6:	1c4c      	adds	r4, r1, #1
 800a8f8:	9201      	str	r2, [sp, #4]
 800a8fa:	4669      	mov	r1, sp
 800a8fc:	2200      	movs	r2, #0
 800a8fe:	4805      	ldr	r0, [pc, #20]	; (800a914 <system__traceback__call_chain+0x28>)
 800a900:	9303      	str	r3, [sp, #12]
 800a902:	e9cd 5404 	strd	r5, r4, [sp, #16]
 800a906:	9202      	str	r2, [sp, #8]
 800a908:	f001 fa8a 	bl	800be20 <_Unwind_Backtrace>
 800a90c:	9802      	ldr	r0, [sp, #8]
 800a90e:	b007      	add	sp, #28
 800a910:	bd30      	pop	{r4, r5, pc}
 800a912:	bf00      	nop
 800a914:	0800a899 	.word	0x0800a899

0800a918 <system__traceback_entries__pc_for>:
 800a918:	4770      	bx	lr
 800a91a:	bf00      	nop

0800a91c <_stm32_start_common>:
 800a91c:	f64e 5088 	movw	r0, #60808	; 0xed88
 800a920:	f2ce 0000 	movt	r0, #57344	; 0xe000
 800a924:	6801      	ldr	r1, [r0, #0]
 800a926:	f441 0170 	orr.w	r1, r1, #15728640	; 0xf00000
 800a92a:	6001      	str	r1, [r0, #0]
 800a92c:	f3bf 8f4f 	dsb	sy
 800a930:	f3bf 8f6f 	isb	sy
 800a934:	4770      	bx	lr

0800a936 <secure_code>:
 800a936:	0000      	.short	0x0000
	...

0800a93a <_start_rom>:
 800a93a:	f7ff ffef 	bl	800a91c <_stm32_start_common>
 800a93e:	f240 0000 	movw	r0, #0
 800a942:	f2c2 0000 	movt	r0, #8192	; 0x2000
 800a946:	f240 019a 	movw	r1, #154	; 0x9a
 800a94a:	f64e 3244 	movw	r2, #60228	; 0xeb44
 800a94e:	f6c0 0200 	movt	r2, #2048	; 0x800
 800a952:	b129      	cbz	r1, 800a960 <_start_rom+0x26>
 800a954:	f852 4b04 	ldr.w	r4, [r2], #4
 800a958:	f840 4b04 	str.w	r4, [r0], #4
 800a95c:	3901      	subs	r1, #1
 800a95e:	d1f9      	bne.n	800a954 <_start_rom+0x1a>
 800a960:	f240 2068 	movw	r0, #616	; 0x268
 800a964:	f2c2 0000 	movt	r0, #8192	; 0x2000
 800a968:	f240 7160 	movw	r1, #1888	; 0x760
 800a96c:	f04f 0200 	mov.w	r2, #0
 800a970:	b119      	cbz	r1, 800a97a <_start_rom+0x40>
 800a972:	f840 2b04 	str.w	r2, [r0], #4
 800a976:	3901      	subs	r1, #1
 800a978:	d1fb      	bne.n	800a972 <_start_rom+0x38>
 800a97a:	f000 fa09 	bl	800ad90 <_ada_setup_pll>
 800a97e:	f7f5 ff91 	bl	80008a4 <main>
 800a982:	f7ff fc73 	bl	800a26c <_exit>

0800a986 <hang>:
 800a986:	e7fe      	b.n	800a986 <hang>

0800a988 <__gnat_last_chance_handler>:
 800a988:	e92d 47f0 	stmdb	sp!, {r4, r5, r6, r7, r8, r9, sl, lr}
 800a98c:	b08a      	sub	sp, #40	; 0x28
 800a98e:	4955      	ldr	r1, [pc, #340]	; (800aae4 <__gnat_last_chance_handler+0x15c>)
 800a990:	4604      	mov	r4, r0
 800a992:	af00      	add	r7, sp, #0
 800a994:	4854      	ldr	r0, [pc, #336]	; (800aae8 <__gnat_last_chance_handler+0x160>)
 800a996:	f7ff fc59 	bl	800a24c <system__io__put_line>
 800a99a:	f7ff fddf 	bl	800a55c <system__secondary_stack__ss_mark>
 800a99e:	4621      	mov	r1, r4
 800a9a0:	4680      	mov	r8, r0
 800a9a2:	4638      	mov	r0, r7
 800a9a4:	f7fe fabc 	bl	8008f20 <ada__exceptions__exception_name__2>
 800a9a8:	e9d7 e300 	ldrd	lr, r3, [r7]
 800a9ac:	e9d3 3600 	ldrd	r3, r6, [r3]
 800a9b0:	4d4e      	ldr	r5, [pc, #312]	; (800aaec <__gnat_last_chance_handler+0x164>)
 800a9b2:	429e      	cmp	r6, r3
 800a9b4:	bfa4      	itt	ge
 800a9b6:	1af6      	subge	r6, r6, r3
 800a9b8:	3601      	addge	r6, #1
 800a9ba:	cd0f      	ldmia	r5!, {r0, r1, r2, r3}
 800a9bc:	bfb8      	it	lt
 800a9be:	2600      	movlt	r6, #0
 800a9c0:	f106 0c20 	add.w	ip, r6, #32
 800a9c4:	f02c 0c07 	bic.w	ip, ip, #7
 800a9c8:	46e9      	mov	r9, sp
 800a9ca:	ebad 0d0c 	sub.w	sp, sp, ip
 800a9ce:	f106 0a19 	add.w	sl, r6, #25
 800a9d2:	9000      	str	r0, [sp, #0]
 800a9d4:	9101      	str	r1, [sp, #4]
 800a9d6:	cd03      	ldmia	r5!, {r0, r1}
 800a9d8:	782d      	ldrb	r5, [r5, #0]
 800a9da:	9202      	str	r2, [sp, #8]
 800a9dc:	9303      	str	r3, [sp, #12]
 800a9de:	9004      	str	r0, [sp, #16]
 800a9e0:	9105      	str	r1, [sp, #20]
 800a9e2:	f88d 5018 	strb.w	r5, [sp, #24]
 800a9e6:	4671      	mov	r1, lr
 800a9e8:	f10d 0019 	add.w	r0, sp, #25
 800a9ec:	4632      	mov	r2, r6
 800a9ee:	f7ff fc63 	bl	800a2b8 <memcpy>
 800a9f2:	2301      	movs	r3, #1
 800a9f4:	4668      	mov	r0, sp
 800a9f6:	f107 010c 	add.w	r1, r7, #12
 800a9fa:	e9c7 3a03 	strd	r3, sl, [r7, #12]
 800a9fe:	f7ff fc25 	bl	800a24c <system__io__put_line>
 800aa02:	4640      	mov	r0, r8
 800aa04:	f7ff fdb0 	bl	800a568 <system__secondary_stack__ss_release>
 800aa08:	46cd      	mov	sp, r9
 800aa0a:	f7ff fda7 	bl	800a55c <system__secondary_stack__ss_mark>
 800aa0e:	4621      	mov	r1, r4
 800aa10:	4606      	mov	r6, r0
 800aa12:	4638      	mov	r0, r7
 800aa14:	46e8      	mov	r8, sp
 800aa16:	f7fe fa33 	bl	8008e80 <ada__exceptions__exception_message>
 800aa1a:	e9d7 c200 	ldrd	ip, r2, [r7]
 800aa1e:	e9d2 2300 	ldrd	r2, r3, [r2]
 800aa22:	4293      	cmp	r3, r2
 800aa24:	bfa8      	it	ge
 800aa26:	1a9b      	subge	r3, r3, r2
 800aa28:	4a31      	ldr	r2, [pc, #196]	; (800aaf0 <__gnat_last_chance_handler+0x168>)
 800aa2a:	bfac      	ite	ge
 800aa2c:	3301      	addge	r3, #1
 800aa2e:	2300      	movlt	r3, #0
 800aa30:	ca03      	ldmia	r2!, {r0, r1}
 800aa32:	f103 0510 	add.w	r5, r3, #16
 800aa36:	f025 0507 	bic.w	r5, r5, #7
 800aa3a:	ebad 0d05 	sub.w	sp, sp, r5
 800aa3e:	7812      	ldrb	r2, [r2, #0]
 800aa40:	9000      	str	r0, [sp, #0]
 800aa42:	9101      	str	r1, [sp, #4]
 800aa44:	f88d 2008 	strb.w	r2, [sp, #8]
 800aa48:	4661      	mov	r1, ip
 800aa4a:	461a      	mov	r2, r3
 800aa4c:	f10d 0009 	add.w	r0, sp, #9
 800aa50:	f103 0509 	add.w	r5, r3, #9
 800aa54:	f7ff fc30 	bl	800a2b8 <memcpy>
 800aa58:	2301      	movs	r3, #1
 800aa5a:	4668      	mov	r0, sp
 800aa5c:	f107 0114 	add.w	r1, r7, #20
 800aa60:	e9c7 3505 	strd	r3, r5, [r7, #20]
 800aa64:	f7ff fbf2 	bl	800a24c <system__io__put_line>
 800aa68:	4630      	mov	r0, r6
 800aa6a:	f7ff fd7d 	bl	800a568 <system__secondary_stack__ss_release>
 800aa6e:	4821      	ldr	r0, [pc, #132]	; (800aaf4 <__gnat_last_chance_handler+0x16c>)
 800aa70:	4921      	ldr	r1, [pc, #132]	; (800aaf8 <__gnat_last_chance_handler+0x170>)
 800aa72:	46c5      	mov	sp, r8
 800aa74:	f7ff fbea 	bl	800a24c <system__io__put_line>
 800aa78:	f8d4 60dc 	ldr.w	r6, [r4, #220]	; 0xdc
 800aa7c:	2e00      	cmp	r6, #0
 800aa7e:	dd19      	ble.n	800aab4 <__gnat_last_chance_handler+0x12c>
 800aa80:	f8df 807c 	ldr.w	r8, [pc, #124]	; 800ab00 <__gnat_last_chance_handler+0x178>
 800aa84:	f8df a07c 	ldr.w	sl, [pc, #124]	; 800ab04 <__gnat_last_chance_handler+0x17c>
 800aa88:	34dc      	adds	r4, #220	; 0xdc
 800aa8a:	f108 0908 	add.w	r9, r8, #8
 800aa8e:	2500      	movs	r5, #0
 800aa90:	f854 1f04 	ldr.w	r1, [r4, #4]!
 800aa94:	f107 001c 	add.w	r0, r7, #28
 800aa98:	f000 f836 	bl	800ab08 <gnat__debug_utilities__image_c>
 800aa9c:	f107 001c 	add.w	r0, r7, #28
 800aaa0:	4641      	mov	r1, r8
 800aaa2:	f7ff fbc1 	bl	800a228 <system__io__put__3>
 800aaa6:	3501      	adds	r5, #1
 800aaa8:	4650      	mov	r0, sl
 800aaaa:	4649      	mov	r1, r9
 800aaac:	f7ff fbbc 	bl	800a228 <system__io__put__3>
 800aab0:	42ae      	cmp	r6, r5
 800aab2:	d1ed      	bne.n	800aa90 <__gnat_last_chance_handler+0x108>
 800aab4:	2001      	movs	r0, #1
 800aab6:	f7ff fb9f 	bl	800a1f8 <system__io__new_line>
 800aaba:	f7fd fc15 	bl	80082e8 <system__bb__threads__sleep>
 800aabe:	2143      	movs	r1, #67	; 0x43
 800aac0:	480e      	ldr	r0, [pc, #56]	; (800aafc <__gnat_last_chance_handler+0x174>)
 800aac2:	f7fe fadd 	bl	8009080 <__gnat_rcheck_PE_Explicit_Raise>
 800aac6:	4604      	mov	r4, r0
 800aac8:	4640      	mov	r0, r8
 800aaca:	f7ff fd4d 	bl	800a568 <system__secondary_stack__ss_release>
 800aace:	4620      	mov	r0, r4
 800aad0:	f001 f970 	bl	800bdb4 <_Unwind_Resume>
 800aad4:	4604      	mov	r4, r0
 800aad6:	4630      	mov	r0, r6
 800aad8:	f7ff fd46 	bl	800a568 <system__secondary_stack__ss_release>
 800aadc:	4620      	mov	r0, r4
 800aade:	f001 f969 	bl	800bdb4 <_Unwind_Resume>
 800aae2:	bf00      	nop
 800aae4:	0800ea74 	.word	0x0800ea74
 800aae8:	0800eaa4 	.word	0x0800eaa4
 800aaec:	0800eadc 	.word	0x0800eadc
 800aaf0:	0800eaf8 	.word	0x0800eaf8
 800aaf4:	0800eabc 	.word	0x0800eabc
 800aaf8:	0800ea7c 	.word	0x0800ea7c
 800aafc:	0800ea94 	.word	0x0800ea94
 800ab00:	0800ea84 	.word	0x0800ea84
 800ab04:	0800eb00 	.word	0x0800eb00

0800ab08 <gnat__debug_utilities__image_c>:
 800ab08:	b430      	push	{r4, r5}
 800ab0a:	4d08      	ldr	r5, [pc, #32]	; (800ab2c <gnat__debug_utilities__image_c+0x24>)
 800ab0c:	f100 0309 	add.w	r3, r0, #9
 800ab10:	1c44      	adds	r4, r0, #1
 800ab12:	f001 020f 	and.w	r2, r1, #15
 800ab16:	0909      	lsrs	r1, r1, #4
 800ab18:	5caa      	ldrb	r2, [r5, r2]
 800ab1a:	f803 2901 	strb.w	r2, [r3], #-1
 800ab1e:	42a3      	cmp	r3, r4
 800ab20:	d1f7      	bne.n	800ab12 <gnat__debug_utilities__image_c+0xa>
 800ab22:	4b03      	ldr	r3, [pc, #12]	; (800ab30 <gnat__debug_utilities__image_c+0x28>)
 800ab24:	881b      	ldrh	r3, [r3, #0]
 800ab26:	8003      	strh	r3, [r0, #0]
 800ab28:	bc30      	pop	{r4, r5}
 800ab2a:	4770      	bx	lr
 800ab2c:	0800eb20 	.word	0x0800eb20
 800ab30:	0800eb30 	.word	0x0800eb30

0800ab34 <_ada_system__address_image>:
 800ab34:	b5f0      	push	{r4, r5, r6, r7, lr}
 800ab36:	4606      	mov	r6, r0
 800ab38:	b085      	sub	sp, #20
 800ab3a:	2010      	movs	r0, #16
 800ab3c:	460d      	mov	r5, r1
 800ab3e:	f7ff fca7 	bl	800a490 <system__secondary_stack__ss_allocate>
 800ab42:	4c0e      	ldr	r4, [pc, #56]	; (800ab7c <_ada_system__address_image+0x48>)
 800ab44:	9503      	str	r5, [sp, #12]
 800ab46:	2201      	movs	r2, #1
 800ab48:	2308      	movs	r3, #8
 800ab4a:	e9c0 2300 	strd	r2, r3, [r0]
 800ab4e:	4607      	mov	r7, r0
 800ab50:	9501      	str	r5, [sp, #4]
 800ab52:	f10d 020f 	add.w	r2, sp, #15
 800ab56:	18c5      	adds	r5, r0, r3
 800ab58:	f812 3901 	ldrb.w	r3, [r2], #-1
 800ab5c:	0919      	lsrs	r1, r3, #4
 800ab5e:	f003 030f 	and.w	r3, r3, #15
 800ab62:	5c61      	ldrb	r1, [r4, r1]
 800ab64:	5ce3      	ldrb	r3, [r4, r3]
 800ab66:	7201      	strb	r1, [r0, #8]
 800ab68:	7243      	strb	r3, [r0, #9]
 800ab6a:	3002      	adds	r0, #2
 800ab6c:	4285      	cmp	r5, r0
 800ab6e:	d1f3      	bne.n	800ab58 <_ada_system__address_image+0x24>
 800ab70:	4630      	mov	r0, r6
 800ab72:	e9c6 5700 	strd	r5, r7, [r6]
 800ab76:	b005      	add	sp, #20
 800ab78:	bdf0      	pop	{r4, r5, r6, r7, pc}
 800ab7a:	bf00      	nop
 800ab7c:	0800eb34 	.word	0x0800eb34

0800ab80 <system__c__malloc__add_free_cell>:
 800ab80:	4a15      	ldr	r2, [pc, #84]	; (800abd8 <system__c__malloc__add_free_cell+0x58>)
 800ab82:	6811      	ldr	r1, [r2, #0]
 800ab84:	b321      	cbz	r1, 800abd0 <system__c__malloc__add_free_cell+0x50>
 800ab86:	b410      	push	{r4}
 800ab88:	6844      	ldr	r4, [r0, #4]
 800ab8a:	684b      	ldr	r3, [r1, #4]
 800ab8c:	f3c4 041e 	ubfx	r4, r4, #0, #31
 800ab90:	f3c3 031e 	ubfx	r3, r3, #0, #31
 800ab94:	42a3      	cmp	r3, r4
 800ab96:	d306      	bcc.n	800aba6 <system__c__malloc__add_free_cell+0x26>
 800ab98:	e012      	b.n	800abc0 <system__c__malloc__add_free_cell+0x40>
 800ab9a:	685a      	ldr	r2, [r3, #4]
 800ab9c:	f3c2 021e 	ubfx	r2, r2, #0, #31
 800aba0:	42a2      	cmp	r2, r4
 800aba2:	d209      	bcs.n	800abb8 <system__c__malloc__add_free_cell+0x38>
 800aba4:	4619      	mov	r1, r3
 800aba6:	68cb      	ldr	r3, [r1, #12]
 800aba8:	2b00      	cmp	r3, #0
 800abaa:	d1f6      	bne.n	800ab9a <system__c__malloc__add_free_cell+0x1a>
 800abac:	e9c0 1302 	strd	r1, r3, [r0, #8]
 800abb0:	60c8      	str	r0, [r1, #12]
 800abb2:	f85d 4b04 	ldr.w	r4, [sp], #4
 800abb6:	4770      	bx	lr
 800abb8:	e9c0 1302 	strd	r1, r3, [r0, #8]
 800abbc:	6098      	str	r0, [r3, #8]
 800abbe:	e7f7      	b.n	800abb0 <system__c__malloc__add_free_cell+0x30>
 800abc0:	2300      	movs	r3, #0
 800abc2:	e9c0 3102 	strd	r3, r1, [r0, #8]
 800abc6:	6088      	str	r0, [r1, #8]
 800abc8:	6010      	str	r0, [r2, #0]
 800abca:	f85d 4b04 	ldr.w	r4, [sp], #4
 800abce:	4770      	bx	lr
 800abd0:	e9c0 1102 	strd	r1, r1, [r0, #8]
 800abd4:	6010      	str	r0, [r2, #0]
 800abd6:	4770      	bx	lr
 800abd8:	20000260 	.word	0x20000260

0800abdc <malloc>:
 800abdc:	2800      	cmp	r0, #0
 800abde:	d057      	beq.n	800ac90 <malloc+0xb4>
 800abe0:	b538      	push	{r3, r4, r5, lr}
 800abe2:	4d2c      	ldr	r5, [pc, #176]	; (800ac94 <malloc+0xb8>)
 800abe4:	682c      	ldr	r4, [r5, #0]
 800abe6:	3008      	adds	r0, #8
 800abe8:	f020 0207 	bic.w	r2, r0, #7
 800abec:	b16c      	cbz	r4, 800ac0a <malloc+0x2e>
 800abee:	6861      	ldr	r1, [r4, #4]
 800abf0:	f3c1 011e 	ubfx	r1, r1, #0, #31
 800abf4:	428a      	cmp	r2, r1
 800abf6:	d805      	bhi.n	800ac04 <malloc+0x28>
 800abf8:	e021      	b.n	800ac3e <malloc+0x62>
 800abfa:	6863      	ldr	r3, [r4, #4]
 800abfc:	f3c3 031e 	ubfx	r3, r3, #0, #31
 800ac00:	4293      	cmp	r3, r2
 800ac02:	d21c      	bcs.n	800ac3e <malloc+0x62>
 800ac04:	68e4      	ldr	r4, [r4, #12]
 800ac06:	2c00      	cmp	r4, #0
 800ac08:	d1f7      	bne.n	800abfa <malloc+0x1e>
 800ac0a:	4c23      	ldr	r4, [pc, #140]	; (800ac98 <malloc+0xbc>)
 800ac0c:	6823      	ldr	r3, [r4, #0]
 800ac0e:	2b00      	cmp	r3, #0
 800ac10:	d038      	beq.n	800ac84 <malloc+0xa8>
 800ac12:	685d      	ldr	r5, [r3, #4]
 800ac14:	f103 0108 	add.w	r1, r3, #8
 800ac18:	f3c5 051e 	ubfx	r5, r5, #0, #31
 800ac1c:	4429      	add	r1, r5
 800ac1e:	600b      	str	r3, [r1, #0]
 800ac20:	f020 4300 	bic.w	r3, r0, #2147483648	; 0x80000000
 800ac24:	f023 0307 	bic.w	r3, r3, #7
 800ac28:	f101 0008 	add.w	r0, r1, #8
 800ac2c:	4d1b      	ldr	r5, [pc, #108]	; (800ac9c <malloc+0xc0>)
 800ac2e:	4403      	add	r3, r0
 800ac30:	f022 4200 	bic.w	r2, r2, #2147483648	; 0x80000000
 800ac34:	42ab      	cmp	r3, r5
 800ac36:	604a      	str	r2, [r1, #4]
 800ac38:	d828      	bhi.n	800ac8c <malloc+0xb0>
 800ac3a:	6021      	str	r1, [r4, #0]
 800ac3c:	bd38      	pop	{r3, r4, r5, pc}
 800ac3e:	e9d4 1302 	ldrd	r1, r3, [r4, #8]
 800ac42:	b113      	cbz	r3, 800ac4a <malloc+0x6e>
 800ac44:	6099      	str	r1, [r3, #8]
 800ac46:	e9d4 1302 	ldrd	r1, r3, [r4, #8]
 800ac4a:	b1e9      	cbz	r1, 800ac88 <malloc+0xac>
 800ac4c:	60cb      	str	r3, [r1, #12]
 800ac4e:	6863      	ldr	r3, [r4, #4]
 800ac50:	f3c3 031e 	ubfx	r3, r3, #0, #31
 800ac54:	1a99      	subs	r1, r3, r2
 800ac56:	290f      	cmp	r1, #15
 800ac58:	f104 0508 	add.w	r5, r4, #8
 800ac5c:	d90c      	bls.n	800ac78 <malloc+0x9c>
 800ac5e:	1950      	adds	r0, r2, r5
 800ac60:	3908      	subs	r1, #8
 800ac62:	f041 4100 	orr.w	r1, r1, #2147483648	; 0x80000000
 800ac66:	5154      	str	r4, [r2, r5]
 800ac68:	6041      	str	r1, [r0, #4]
 800ac6a:	5158      	str	r0, [r3, r5]
 800ac6c:	6863      	ldr	r3, [r4, #4]
 800ac6e:	f362 031e 	bfi	r3, r2, #0, #31
 800ac72:	6063      	str	r3, [r4, #4]
 800ac74:	f7ff ff84 	bl	800ab80 <system__c__malloc__add_free_cell>
 800ac78:	79e3      	ldrb	r3, [r4, #7]
 800ac7a:	f36f 13c7 	bfc	r3, #7, #1
 800ac7e:	71e3      	strb	r3, [r4, #7]
 800ac80:	4628      	mov	r0, r5
 800ac82:	bd38      	pop	{r3, r4, r5, pc}
 800ac84:	4906      	ldr	r1, [pc, #24]	; (800aca0 <malloc+0xc4>)
 800ac86:	e7ca      	b.n	800ac1e <malloc+0x42>
 800ac88:	602b      	str	r3, [r5, #0]
 800ac8a:	e7e0      	b.n	800ac4e <malloc+0x72>
 800ac8c:	2000      	movs	r0, #0
 800ac8e:	bd38      	pop	{r3, r4, r5, pc}
 800ac90:	2000      	movs	r0, #0
 800ac92:	4770      	bx	lr
 800ac94:	20000260 	.word	0x20000260
 800ac98:	20000264 	.word	0x20000264
 800ac9c:	200c4800 	.word	0x200c4800
 800aca0:	200127e8 	.word	0x200127e8

0800aca4 <free>:
 800aca4:	2800      	cmp	r0, #0
 800aca6:	d067      	beq.n	800ad78 <free+0xd4>
 800aca8:	b470      	push	{r4, r5, r6}
 800acaa:	f1a0 0308 	sub.w	r3, r0, #8
 800acae:	4c36      	ldr	r4, [pc, #216]	; (800ad88 <free+0xe4>)
 800acb0:	79da      	ldrb	r2, [r3, #7]
 800acb2:	6825      	ldr	r5, [r4, #0]
 800acb4:	f042 0280 	orr.w	r2, r2, #128	; 0x80
 800acb8:	429d      	cmp	r5, r3
 800acba:	71da      	strb	r2, [r3, #7]
 800acbc:	d047      	beq.n	800ad4e <free+0xaa>
 800acbe:	685a      	ldr	r2, [r3, #4]
 800acc0:	f3c2 021e 	ubfx	r2, r2, #0, #31
 800acc4:	4402      	add	r2, r0
 800acc6:	79d1      	ldrb	r1, [r2, #7]
 800acc8:	09c9      	lsrs	r1, r1, #7
 800acca:	d01a      	beq.n	800ad02 <free+0x5e>
 800accc:	e9d2 6102 	ldrd	r6, r1, [r2, #8]
 800acd0:	b111      	cbz	r1, 800acd8 <free+0x34>
 800acd2:	608e      	str	r6, [r1, #8]
 800acd4:	e9d2 6102 	ldrd	r6, r1, [r2, #8]
 800acd8:	2e00      	cmp	r6, #0
 800acda:	d04a      	beq.n	800ad72 <free+0xce>
 800acdc:	60f1      	str	r1, [r6, #12]
 800acde:	6851      	ldr	r1, [r2, #4]
 800ace0:	4295      	cmp	r5, r2
 800ace2:	f3c1 011e 	ubfx	r1, r1, #0, #31
 800ace6:	d004      	beq.n	800acf2 <free+0x4e>
 800ace8:	4411      	add	r1, r2
 800acea:	608b      	str	r3, [r1, #8]
 800acec:	6851      	ldr	r1, [r2, #4]
 800acee:	f3c1 011e 	ubfx	r1, r1, #0, #31
 800acf2:	685a      	ldr	r2, [r3, #4]
 800acf4:	f3c2 051e 	ubfx	r5, r2, #0, #31
 800acf8:	3508      	adds	r5, #8
 800acfa:	4429      	add	r1, r5
 800acfc:	f361 021e 	bfi	r2, r1, #0, #31
 800ad00:	605a      	str	r2, [r3, #4]
 800ad02:	f850 2c08 	ldr.w	r2, [r0, #-8]
 800ad06:	b1f2      	cbz	r2, 800ad46 <free+0xa2>
 800ad08:	79d1      	ldrb	r1, [r2, #7]
 800ad0a:	09c9      	lsrs	r1, r1, #7
 800ad0c:	d01b      	beq.n	800ad46 <free+0xa2>
 800ad0e:	e9d2 5102 	ldrd	r5, r1, [r2, #8]
 800ad12:	b111      	cbz	r1, 800ad1a <free+0x76>
 800ad14:	608d      	str	r5, [r1, #8]
 800ad16:	e9d2 5102 	ldrd	r5, r1, [r2, #8]
 800ad1a:	2d00      	cmp	r5, #0
 800ad1c:	d02d      	beq.n	800ad7a <free+0xd6>
 800ad1e:	60e9      	str	r1, [r5, #12]
 800ad20:	6824      	ldr	r4, [r4, #0]
 800ad22:	6859      	ldr	r1, [r3, #4]
 800ad24:	429c      	cmp	r4, r3
 800ad26:	f3c1 011e 	ubfx	r1, r1, #0, #31
 800ad2a:	d003      	beq.n	800ad34 <free+0x90>
 800ad2c:	5042      	str	r2, [r0, r1]
 800ad2e:	6859      	ldr	r1, [r3, #4]
 800ad30:	f3c1 011e 	ubfx	r1, r1, #0, #31
 800ad34:	6853      	ldr	r3, [r2, #4]
 800ad36:	f3c3 001e 	ubfx	r0, r3, #0, #31
 800ad3a:	3008      	adds	r0, #8
 800ad3c:	4401      	add	r1, r0
 800ad3e:	f361 031e 	bfi	r3, r1, #0, #31
 800ad42:	6053      	str	r3, [r2, #4]
 800ad44:	4613      	mov	r3, r2
 800ad46:	4618      	mov	r0, r3
 800ad48:	bc70      	pop	{r4, r5, r6}
 800ad4a:	f7ff bf19 	b.w	800ab80 <system__c__malloc__add_free_cell>
 800ad4e:	682b      	ldr	r3, [r5, #0]
 800ad50:	6023      	str	r3, [r4, #0]
 800ad52:	b163      	cbz	r3, 800ad6e <free+0xca>
 800ad54:	79da      	ldrb	r2, [r3, #7]
 800ad56:	09d2      	lsrs	r2, r2, #7
 800ad58:	d009      	beq.n	800ad6e <free+0xca>
 800ad5a:	e9d3 1202 	ldrd	r1, r2, [r3, #8]
 800ad5e:	b112      	cbz	r2, 800ad66 <free+0xc2>
 800ad60:	6091      	str	r1, [r2, #8]
 800ad62:	e9d3 1202 	ldrd	r1, r2, [r3, #8]
 800ad66:	b159      	cbz	r1, 800ad80 <free+0xdc>
 800ad68:	60ca      	str	r2, [r1, #12]
 800ad6a:	681b      	ldr	r3, [r3, #0]
 800ad6c:	6023      	str	r3, [r4, #0]
 800ad6e:	bc70      	pop	{r4, r5, r6}
 800ad70:	4770      	bx	lr
 800ad72:	4e06      	ldr	r6, [pc, #24]	; (800ad8c <free+0xe8>)
 800ad74:	6031      	str	r1, [r6, #0]
 800ad76:	e7b2      	b.n	800acde <free+0x3a>
 800ad78:	4770      	bx	lr
 800ad7a:	4d04      	ldr	r5, [pc, #16]	; (800ad8c <free+0xe8>)
 800ad7c:	6029      	str	r1, [r5, #0]
 800ad7e:	e7cf      	b.n	800ad20 <free+0x7c>
 800ad80:	4902      	ldr	r1, [pc, #8]	; (800ad8c <free+0xe8>)
 800ad82:	600a      	str	r2, [r1, #0]
 800ad84:	e7f1      	b.n	800ad6a <free+0xc6>
 800ad86:	bf00      	nop
 800ad88:	20000264 	.word	0x20000264
 800ad8c:	20000260 	.word	0x20000260

0800ad90 <_ada_setup_pll>:
 800ad90:	b430      	push	{r4, r5}
 800ad92:	4c63      	ldr	r4, [pc, #396]	; (800af20 <_ada_setup_pll+0x190>)
 800ad94:	4863      	ldr	r0, [pc, #396]	; (800af24 <_ada_setup_pll+0x194>)
 800ad96:	6822      	ldr	r2, [r4, #0]
 800ad98:	4963      	ldr	r1, [pc, #396]	; (800af28 <_ada_setup_pll+0x198>)
 800ad9a:	4b64      	ldr	r3, [pc, #400]	; (800af2c <_ada_setup_pll+0x19c>)
 800ad9c:	f042 5200 	orr.w	r2, r2, #536870912	; 0x20000000
 800ada0:	6022      	str	r2, [r4, #0]
 800ada2:	6802      	ldr	r2, [r0, #0]
 800ada4:	f042 4280 	orr.w	r2, r2, #1073741824	; 0x40000000
 800ada8:	6002      	str	r2, [r0, #0]
 800adaa:	680a      	ldr	r2, [r1, #0]
 800adac:	f442 0200 	orr.w	r2, r2, #8388608	; 0x800000
 800adb0:	600a      	str	r2, [r1, #0]
 800adb2:	681a      	ldr	r2, [r3, #0]
 800adb4:	f36f 1204 	bfc	r2, #4, #1
 800adb8:	601a      	str	r2, [r3, #0]
 800adba:	681a      	ldr	r2, [r3, #0]
 800adbc:	f442 5280 	orr.w	r2, r2, #4096	; 0x1000
 800adc0:	b084      	sub	sp, #16
 800adc2:	601a      	str	r2, [r3, #0]
 800adc4:	681a      	ldr	r2, [r3, #0]
 800adc6:	0494      	lsls	r4, r2, #18
 800adc8:	d5fc      	bpl.n	800adc4 <_ada_setup_pll+0x34>
 800adca:	4a59      	ldr	r2, [pc, #356]	; (800af30 <_ada_setup_pll+0x1a0>)
 800adcc:	4c59      	ldr	r4, [pc, #356]	; (800af34 <_ada_setup_pll+0x1a4>)
 800adce:	6811      	ldr	r1, [r2, #0]
 800add0:	4859      	ldr	r0, [pc, #356]	; (800af38 <_ada_setup_pll+0x1a8>)
 800add2:	f441 7180 	orr.w	r1, r1, #256	; 0x100
 800add6:	6011      	str	r1, [r2, #0]
 800add8:	6811      	ldr	r1, [r2, #0]
 800adda:	2504      	movs	r5, #4
 800addc:	f365 0103 	bfi	r1, r5, #0, #4
 800ade0:	6011      	str	r1, [r2, #0]
 800ade2:	681a      	ldr	r2, [r3, #0]
 800ade4:	f36f 6218 	bfc	r2, #24, #1
 800ade8:	601a      	str	r2, [r3, #0]
 800adea:	9a03      	ldr	r2, [sp, #12]
 800adec:	2101      	movs	r1, #1
 800adee:	f361 0201 	bfi	r2, r1, #0, #2
 800adf2:	9203      	str	r2, [sp, #12]
 800adf4:	9a03      	ldr	r2, [sp, #12]
 800adf6:	f36f 0283 	bfc	r2, #2, #2
 800adfa:	9203      	str	r2, [sp, #12]
 800adfc:	9a03      	ldr	r2, [sp, #12]
 800adfe:	f042 0210 	orr.w	r2, r2, #16
 800ae02:	9203      	str	r2, [sp, #12]
 800ae04:	9a03      	ldr	r2, [sp, #12]
 800ae06:	f36f 1247 	bfc	r2, #5, #3
 800ae0a:	9203      	str	r2, [sp, #12]
 800ae0c:	9a03      	ldr	r2, [sp, #12]
 800ae0e:	f36f 220b 	bfc	r2, #8, #4
 800ae12:	9203      	str	r2, [sp, #12]
 800ae14:	9a03      	ldr	r2, [sp, #12]
 800ae16:	f36f 320f 	bfc	r2, #12, #4
 800ae1a:	9203      	str	r2, [sp, #12]
 800ae1c:	9a03      	ldr	r2, [sp, #12]
 800ae1e:	f36f 4210 	bfc	r2, #16, #1
 800ae22:	9203      	str	r2, [sp, #12]
 800ae24:	9a03      	ldr	r2, [sp, #12]
 800ae26:	f36f 4251 	bfc	r2, #17, #1
 800ae2a:	9203      	str	r2, [sp, #12]
 800ae2c:	9a03      	ldr	r2, [sp, #12]
 800ae2e:	f442 2280 	orr.w	r2, r2, #262144	; 0x40000
 800ae32:	9203      	str	r2, [sp, #12]
 800ae34:	9a03      	ldr	r2, [sp, #12]
 800ae36:	f36f 42df 	bfc	r2, #19, #13
 800ae3a:	9203      	str	r2, [sp, #12]
 800ae3c:	9a03      	ldr	r2, [sp, #12]
 800ae3e:	6022      	str	r2, [r4, #0]
 800ae40:	9a02      	ldr	r2, [sp, #8]
 800ae42:	244f      	movs	r4, #79	; 0x4f
 800ae44:	f364 0208 	bfi	r2, r4, #0, #9
 800ae48:	9202      	str	r2, [sp, #8]
 800ae4a:	9a02      	ldr	r2, [sp, #8]
 800ae4c:	f361 224f 	bfi	r2, r1, #9, #7
 800ae50:	9202      	str	r2, [sp, #8]
 800ae52:	9a02      	ldr	r2, [sp, #8]
 800ae54:	f361 4216 	bfi	r2, r1, #16, #7
 800ae58:	9202      	str	r2, [sp, #8]
 800ae5a:	9a02      	ldr	r2, [sp, #8]
 800ae5c:	f36f 52d7 	bfc	r2, #23, #1
 800ae60:	9202      	str	r2, [sp, #8]
 800ae62:	9a02      	ldr	r2, [sp, #8]
 800ae64:	f361 621e 	bfi	r2, r1, #24, #7
 800ae68:	9202      	str	r2, [sp, #8]
 800ae6a:	9a02      	ldr	r2, [sp, #8]
 800ae6c:	f36f 72df 	bfc	r2, #31, #1
 800ae70:	9202      	str	r2, [sp, #8]
 800ae72:	9a02      	ldr	r2, [sp, #8]
 800ae74:	6002      	str	r2, [r0, #0]
 800ae76:	681a      	ldr	r2, [r3, #0]
 800ae78:	f042 7280 	orr.w	r2, r2, #16777216	; 0x1000000
 800ae7c:	601a      	str	r2, [r3, #0]
 800ae7e:	681a      	ldr	r2, [r3, #0]
 800ae80:	0190      	lsls	r0, r2, #6
 800ae82:	d5fc      	bpl.n	800ae7e <_ada_setup_pll+0xee>
 800ae84:	492d      	ldr	r1, [pc, #180]	; (800af3c <_ada_setup_pll+0x1ac>)
 800ae86:	4b2e      	ldr	r3, [pc, #184]	; (800af40 <_ada_setup_pll+0x1b0>)
 800ae88:	680a      	ldr	r2, [r1, #0]
 800ae8a:	f042 0204 	orr.w	r2, r2, #4
 800ae8e:	600a      	str	r2, [r1, #0]
 800ae90:	681a      	ldr	r2, [r3, #0]
 800ae92:	f442 3240 	orr.w	r2, r2, #196608	; 0x30000
 800ae96:	601a      	str	r2, [r3, #0]
 800ae98:	681a      	ldr	r2, [r3, #0]
 800ae9a:	0411      	lsls	r1, r2, #16
 800ae9c:	d5fc      	bpl.n	800ae98 <_ada_setup_pll+0x108>
 800ae9e:	681a      	ldr	r2, [r3, #0]
 800aea0:	f442 2280 	orr.w	r2, r2, #262144	; 0x40000
 800aea4:	601a      	str	r2, [r3, #0]
 800aea6:	681a      	ldr	r2, [r3, #0]
 800aea8:	0452      	lsls	r2, r2, #17
 800aeaa:	d5fc      	bpl.n	800aea6 <_ada_setup_pll+0x116>
 800aeac:	9b01      	ldr	r3, [sp, #4]
 800aeae:	4a25      	ldr	r2, [pc, #148]	; (800af44 <_ada_setup_pll+0x1b4>)
 800aeb0:	f043 0303 	orr.w	r3, r3, #3
 800aeb4:	9301      	str	r3, [sp, #4]
 800aeb6:	9b01      	ldr	r3, [sp, #4]
 800aeb8:	f36f 0383 	bfc	r3, #2, #2
 800aebc:	9301      	str	r3, [sp, #4]
 800aebe:	9b01      	ldr	r3, [sp, #4]
 800aec0:	f36f 1304 	bfc	r3, #4, #1
 800aec4:	9301      	str	r3, [sp, #4]
 800aec6:	9b01      	ldr	r3, [sp, #4]
 800aec8:	f36f 1345 	bfc	r3, #5, #1
 800aecc:	9301      	str	r3, [sp, #4]
 800aece:	9b01      	ldr	r3, [sp, #4]
 800aed0:	f36f 1397 	bfc	r3, #6, #18
 800aed4:	9301      	str	r3, [sp, #4]
 800aed6:	9b01      	ldr	r3, [sp, #4]
 800aed8:	f36f 631b 	bfc	r3, #24, #4
 800aedc:	9301      	str	r3, [sp, #4]
 800aede:	9b01      	ldr	r3, [sp, #4]
 800aee0:	f36f 731e 	bfc	r3, #28, #3
 800aee4:	9301      	str	r3, [sp, #4]
 800aee6:	9b01      	ldr	r3, [sp, #4]
 800aee8:	f36f 73df 	bfc	r3, #31, #1
 800aeec:	9301      	str	r3, [sp, #4]
 800aeee:	9b01      	ldr	r3, [sp, #4]
 800aef0:	6013      	str	r3, [r2, #0]
 800aef2:	6813      	ldr	r3, [r2, #0]
 800aef4:	f003 030c 	and.w	r3, r3, #12
 800aef8:	2b0c      	cmp	r3, #12
 800aefa:	d1fa      	bne.n	800aef2 <_ada_setup_pll+0x162>
 800aefc:	4b12      	ldr	r3, [pc, #72]	; (800af48 <_ada_setup_pll+0x1b8>)
 800aefe:	4913      	ldr	r1, [pc, #76]	; (800af4c <_ada_setup_pll+0x1bc>)
 800af00:	681a      	ldr	r2, [r3, #0]
 800af02:	f042 0202 	orr.w	r2, r2, #2
 800af06:	601a      	str	r2, [r3, #0]
 800af08:	681a      	ldr	r2, [r3, #0]
 800af0a:	f042 0201 	orr.w	r2, r2, #1
 800af0e:	601a      	str	r2, [r3, #0]
 800af10:	680b      	ldr	r3, [r1, #0]
 800af12:	f043 0301 	orr.w	r3, r3, #1
 800af16:	600b      	str	r3, [r1, #0]
 800af18:	b004      	add	sp, #16
 800af1a:	bc30      	pop	{r4, r5}
 800af1c:	4770      	bx	lr
 800af1e:	bf00      	nop
 800af20:	46020cb0 	.word	0x46020cb0
 800af24:	46020c88 	.word	0x46020c88
 800af28:	46020c08 	.word	0x46020c08
 800af2c:	46020c00 	.word	0x46020c00
 800af30:	40022000 	.word	0x40022000
 800af34:	46020c28 	.word	0x46020c28
 800af38:	46020c34 	.word	0x46020c34
 800af3c:	46020c94 	.word	0x46020c94
 800af40:	4602080c 	.word	0x4602080c
 800af44:	46020c1c 	.word	0x46020c1c
 800af48:	40030400 	.word	0x40030400
 800af4c:	40031400 	.word	0x40031400

0800af50 <__aeabi_ldivmod>:
 800af50:	b97b      	cbnz	r3, 800af72 <__aeabi_ldivmod+0x22>
 800af52:	b972      	cbnz	r2, 800af72 <__aeabi_ldivmod+0x22>
 800af54:	2900      	cmp	r1, #0
 800af56:	bfbe      	ittt	lt
 800af58:	2000      	movlt	r0, #0
 800af5a:	f04f 4100 	movlt.w	r1, #2147483648	; 0x80000000
 800af5e:	e006      	blt.n	800af6e <__aeabi_ldivmod+0x1e>
 800af60:	bf08      	it	eq
 800af62:	2800      	cmpeq	r0, #0
 800af64:	bf1c      	itt	ne
 800af66:	f06f 4100 	mvnne.w	r1, #2147483648	; 0x80000000
 800af6a:	f04f 30ff 	movne.w	r0, #4294967295	; 0xffffffff
 800af6e:	f001 b923 	b.w	800c1b8 <__aeabi_idiv0>
 800af72:	f1ad 0c08 	sub.w	ip, sp, #8
 800af76:	e96d ce04 	strd	ip, lr, [sp, #-16]!
 800af7a:	2900      	cmp	r1, #0
 800af7c:	db09      	blt.n	800af92 <__aeabi_ldivmod+0x42>
 800af7e:	2b00      	cmp	r3, #0
 800af80:	db1a      	blt.n	800afb8 <__aeabi_ldivmod+0x68>
 800af82:	f000 f835 	bl	800aff0 <__udivmoddi4>
 800af86:	f8dd e004 	ldr.w	lr, [sp, #4]
 800af8a:	e9dd 2302 	ldrd	r2, r3, [sp, #8]
 800af8e:	b004      	add	sp, #16
 800af90:	4770      	bx	lr
 800af92:	4240      	negs	r0, r0
 800af94:	eb61 0141 	sbc.w	r1, r1, r1, lsl #1
 800af98:	2b00      	cmp	r3, #0
 800af9a:	db1b      	blt.n	800afd4 <__aeabi_ldivmod+0x84>
 800af9c:	f000 f828 	bl	800aff0 <__udivmoddi4>
 800afa0:	f8dd e004 	ldr.w	lr, [sp, #4]
 800afa4:	e9dd 2302 	ldrd	r2, r3, [sp, #8]
 800afa8:	b004      	add	sp, #16
 800afaa:	4240      	negs	r0, r0
 800afac:	eb61 0141 	sbc.w	r1, r1, r1, lsl #1
 800afb0:	4252      	negs	r2, r2
 800afb2:	eb63 0343 	sbc.w	r3, r3, r3, lsl #1
 800afb6:	4770      	bx	lr
 800afb8:	4252      	negs	r2, r2
 800afba:	eb63 0343 	sbc.w	r3, r3, r3, lsl #1
 800afbe:	f000 f817 	bl	800aff0 <__udivmoddi4>
 800afc2:	f8dd e004 	ldr.w	lr, [sp, #4]
 800afc6:	e9dd 2302 	ldrd	r2, r3, [sp, #8]
 800afca:	b004      	add	sp, #16
 800afcc:	4240      	negs	r0, r0
 800afce:	eb61 0141 	sbc.w	r1, r1, r1, lsl #1
 800afd2:	4770      	bx	lr
 800afd4:	4252      	negs	r2, r2
 800afd6:	eb63 0343 	sbc.w	r3, r3, r3, lsl #1
 800afda:	f000 f809 	bl	800aff0 <__udivmoddi4>
 800afde:	f8dd e004 	ldr.w	lr, [sp, #4]
 800afe2:	e9dd 2302 	ldrd	r2, r3, [sp, #8]
 800afe6:	b004      	add	sp, #16
 800afe8:	4252      	negs	r2, r2
 800afea:	eb63 0343 	sbc.w	r3, r3, r3, lsl #1
 800afee:	4770      	bx	lr

0800aff0 <__udivmoddi4>:
 800aff0:	e92d 47f0 	stmdb	sp!, {r4, r5, r6, r7, r8, r9, sl, lr}
 800aff4:	9e08      	ldr	r6, [sp, #32]
 800aff6:	4604      	mov	r4, r0
 800aff8:	4688      	mov	r8, r1
 800affa:	2b00      	cmp	r3, #0
 800affc:	d14b      	bne.n	800b096 <__udivmoddi4+0xa6>
 800affe:	428a      	cmp	r2, r1
 800b000:	4615      	mov	r5, r2
 800b002:	d967      	bls.n	800b0d4 <__udivmoddi4+0xe4>
 800b004:	fab2 f282 	clz	r2, r2
 800b008:	b14a      	cbz	r2, 800b01e <__udivmoddi4+0x2e>
 800b00a:	f1c2 0720 	rsb	r7, r2, #32
 800b00e:	fa01 f302 	lsl.w	r3, r1, r2
 800b012:	fa20 f707 	lsr.w	r7, r0, r7
 800b016:	4095      	lsls	r5, r2
 800b018:	ea47 0803 	orr.w	r8, r7, r3
 800b01c:	4094      	lsls	r4, r2
 800b01e:	ea4f 4e15 	mov.w	lr, r5, lsr #16
 800b022:	0c23      	lsrs	r3, r4, #16
 800b024:	fbb8 f7fe 	udiv	r7, r8, lr
 800b028:	fa1f fc85 	uxth.w	ip, r5
 800b02c:	fb0e 8817 	mls	r8, lr, r7, r8
 800b030:	ea43 4308 	orr.w	r3, r3, r8, lsl #16
 800b034:	fb07 f10c 	mul.w	r1, r7, ip
 800b038:	4299      	cmp	r1, r3
 800b03a:	d909      	bls.n	800b050 <__udivmoddi4+0x60>
 800b03c:	18eb      	adds	r3, r5, r3
 800b03e:	f107 30ff 	add.w	r0, r7, #4294967295	; 0xffffffff
 800b042:	f080 811b 	bcs.w	800b27c <__udivmoddi4+0x28c>
 800b046:	4299      	cmp	r1, r3
 800b048:	f240 8118 	bls.w	800b27c <__udivmoddi4+0x28c>
 800b04c:	3f02      	subs	r7, #2
 800b04e:	442b      	add	r3, r5
 800b050:	1a5b      	subs	r3, r3, r1
 800b052:	b2a4      	uxth	r4, r4
 800b054:	fbb3 f0fe 	udiv	r0, r3, lr
 800b058:	fb0e 3310 	mls	r3, lr, r0, r3
 800b05c:	ea44 4403 	orr.w	r4, r4, r3, lsl #16
 800b060:	fb00 fc0c 	mul.w	ip, r0, ip
 800b064:	45a4      	cmp	ip, r4
 800b066:	d909      	bls.n	800b07c <__udivmoddi4+0x8c>
 800b068:	192c      	adds	r4, r5, r4
 800b06a:	f100 33ff 	add.w	r3, r0, #4294967295	; 0xffffffff
 800b06e:	f080 8107 	bcs.w	800b280 <__udivmoddi4+0x290>
 800b072:	45a4      	cmp	ip, r4
 800b074:	f240 8104 	bls.w	800b280 <__udivmoddi4+0x290>
 800b078:	3802      	subs	r0, #2
 800b07a:	442c      	add	r4, r5
 800b07c:	ea40 4007 	orr.w	r0, r0, r7, lsl #16
 800b080:	eba4 040c 	sub.w	r4, r4, ip
 800b084:	2700      	movs	r7, #0
 800b086:	b11e      	cbz	r6, 800b090 <__udivmoddi4+0xa0>
 800b088:	40d4      	lsrs	r4, r2
 800b08a:	2300      	movs	r3, #0
 800b08c:	e9c6 4300 	strd	r4, r3, [r6]
 800b090:	4639      	mov	r1, r7
 800b092:	e8bd 87f0 	ldmia.w	sp!, {r4, r5, r6, r7, r8, r9, sl, pc}
 800b096:	428b      	cmp	r3, r1
 800b098:	d909      	bls.n	800b0ae <__udivmoddi4+0xbe>
 800b09a:	2e00      	cmp	r6, #0
 800b09c:	f000 80eb 	beq.w	800b276 <__udivmoddi4+0x286>
 800b0a0:	2700      	movs	r7, #0
 800b0a2:	e9c6 0100 	strd	r0, r1, [r6]
 800b0a6:	4638      	mov	r0, r7
 800b0a8:	4639      	mov	r1, r7
 800b0aa:	e8bd 87f0 	ldmia.w	sp!, {r4, r5, r6, r7, r8, r9, sl, pc}
 800b0ae:	fab3 f783 	clz	r7, r3
 800b0b2:	2f00      	cmp	r7, #0
 800b0b4:	d147      	bne.n	800b146 <__udivmoddi4+0x156>
 800b0b6:	428b      	cmp	r3, r1
 800b0b8:	d302      	bcc.n	800b0c0 <__udivmoddi4+0xd0>
 800b0ba:	4282      	cmp	r2, r0
 800b0bc:	f200 80f8 	bhi.w	800b2b0 <__udivmoddi4+0x2c0>
 800b0c0:	1a84      	subs	r4, r0, r2
 800b0c2:	eb61 0303 	sbc.w	r3, r1, r3
 800b0c6:	2001      	movs	r0, #1
 800b0c8:	4698      	mov	r8, r3
 800b0ca:	2e00      	cmp	r6, #0
 800b0cc:	d0e0      	beq.n	800b090 <__udivmoddi4+0xa0>
 800b0ce:	e9c6 4800 	strd	r4, r8, [r6]
 800b0d2:	e7dd      	b.n	800b090 <__udivmoddi4+0xa0>
 800b0d4:	b902      	cbnz	r2, 800b0d8 <__udivmoddi4+0xe8>
 800b0d6:	deff      	udf	#255	; 0xff
 800b0d8:	fab2 f282 	clz	r2, r2
 800b0dc:	2a00      	cmp	r2, #0
 800b0de:	f040 808f 	bne.w	800b200 <__udivmoddi4+0x210>
 800b0e2:	1b49      	subs	r1, r1, r5
 800b0e4:	ea4f 4e15 	mov.w	lr, r5, lsr #16
 800b0e8:	fa1f f885 	uxth.w	r8, r5
 800b0ec:	2701      	movs	r7, #1
 800b0ee:	fbb1 fcfe 	udiv	ip, r1, lr
 800b0f2:	0c23      	lsrs	r3, r4, #16
 800b0f4:	fb0e 111c 	mls	r1, lr, ip, r1
 800b0f8:	ea43 4301 	orr.w	r3, r3, r1, lsl #16
 800b0fc:	fb08 f10c 	mul.w	r1, r8, ip
 800b100:	4299      	cmp	r1, r3
 800b102:	d907      	bls.n	800b114 <__udivmoddi4+0x124>
 800b104:	18eb      	adds	r3, r5, r3
 800b106:	f10c 30ff 	add.w	r0, ip, #4294967295	; 0xffffffff
 800b10a:	d202      	bcs.n	800b112 <__udivmoddi4+0x122>
 800b10c:	4299      	cmp	r1, r3
 800b10e:	f200 80cb 	bhi.w	800b2a8 <__udivmoddi4+0x2b8>
 800b112:	4684      	mov	ip, r0
 800b114:	1a59      	subs	r1, r3, r1
 800b116:	b2a3      	uxth	r3, r4
 800b118:	fbb1 f0fe 	udiv	r0, r1, lr
 800b11c:	fb0e 1410 	mls	r4, lr, r0, r1
 800b120:	ea43 4404 	orr.w	r4, r3, r4, lsl #16
 800b124:	fb08 f800 	mul.w	r8, r8, r0
 800b128:	45a0      	cmp	r8, r4
 800b12a:	d907      	bls.n	800b13c <__udivmoddi4+0x14c>
 800b12c:	192c      	adds	r4, r5, r4
 800b12e:	f100 33ff 	add.w	r3, r0, #4294967295	; 0xffffffff
 800b132:	d202      	bcs.n	800b13a <__udivmoddi4+0x14a>
 800b134:	45a0      	cmp	r8, r4
 800b136:	f200 80b2 	bhi.w	800b29e <__udivmoddi4+0x2ae>
 800b13a:	4618      	mov	r0, r3
 800b13c:	eba4 0408 	sub.w	r4, r4, r8
 800b140:	ea40 400c 	orr.w	r0, r0, ip, lsl #16
 800b144:	e79f      	b.n	800b086 <__udivmoddi4+0x96>
 800b146:	f1c7 0c20 	rsb	ip, r7, #32
 800b14a:	40bb      	lsls	r3, r7
 800b14c:	fa22 fe0c 	lsr.w	lr, r2, ip
 800b150:	ea4e 0e03 	orr.w	lr, lr, r3
 800b154:	fa01 f407 	lsl.w	r4, r1, r7
 800b158:	fa20 f50c 	lsr.w	r5, r0, ip
 800b15c:	fa21 f30c 	lsr.w	r3, r1, ip
 800b160:	ea4f 481e 	mov.w	r8, lr, lsr #16
 800b164:	4325      	orrs	r5, r4
 800b166:	fbb3 f9f8 	udiv	r9, r3, r8
 800b16a:	0c2c      	lsrs	r4, r5, #16
 800b16c:	fb08 3319 	mls	r3, r8, r9, r3
 800b170:	fa1f fa8e 	uxth.w	sl, lr
 800b174:	ea44 4303 	orr.w	r3, r4, r3, lsl #16
 800b178:	fb09 f40a 	mul.w	r4, r9, sl
 800b17c:	429c      	cmp	r4, r3
 800b17e:	fa02 f207 	lsl.w	r2, r2, r7
 800b182:	fa00 f107 	lsl.w	r1, r0, r7
 800b186:	d90b      	bls.n	800b1a0 <__udivmoddi4+0x1b0>
 800b188:	eb1e 0303 	adds.w	r3, lr, r3
 800b18c:	f109 30ff 	add.w	r0, r9, #4294967295	; 0xffffffff
 800b190:	f080 8090 	bcs.w	800b2b4 <__udivmoddi4+0x2c4>
 800b194:	429c      	cmp	r4, r3
 800b196:	f240 808d 	bls.w	800b2b4 <__udivmoddi4+0x2c4>
 800b19a:	f1a9 0902 	sub.w	r9, r9, #2
 800b19e:	4473      	add	r3, lr
 800b1a0:	1b1b      	subs	r3, r3, r4
 800b1a2:	b2ad      	uxth	r5, r5
 800b1a4:	fbb3 f0f8 	udiv	r0, r3, r8
 800b1a8:	fb08 3310 	mls	r3, r8, r0, r3
 800b1ac:	ea45 4403 	orr.w	r4, r5, r3, lsl #16
 800b1b0:	fb00 fa0a 	mul.w	sl, r0, sl
 800b1b4:	45a2      	cmp	sl, r4
 800b1b6:	d908      	bls.n	800b1ca <__udivmoddi4+0x1da>
 800b1b8:	eb1e 0404 	adds.w	r4, lr, r4
 800b1bc:	f100 33ff 	add.w	r3, r0, #4294967295	; 0xffffffff
 800b1c0:	d269      	bcs.n	800b296 <__udivmoddi4+0x2a6>
 800b1c2:	45a2      	cmp	sl, r4
 800b1c4:	d967      	bls.n	800b296 <__udivmoddi4+0x2a6>
 800b1c6:	3802      	subs	r0, #2
 800b1c8:	4474      	add	r4, lr
 800b1ca:	ea40 4009 	orr.w	r0, r0, r9, lsl #16
 800b1ce:	fba0 8902 	umull	r8, r9, r0, r2
 800b1d2:	eba4 040a 	sub.w	r4, r4, sl
 800b1d6:	454c      	cmp	r4, r9
 800b1d8:	46c2      	mov	sl, r8
 800b1da:	464b      	mov	r3, r9
 800b1dc:	d354      	bcc.n	800b288 <__udivmoddi4+0x298>
 800b1de:	d051      	beq.n	800b284 <__udivmoddi4+0x294>
 800b1e0:	2e00      	cmp	r6, #0
 800b1e2:	d069      	beq.n	800b2b8 <__udivmoddi4+0x2c8>
 800b1e4:	ebb1 050a 	subs.w	r5, r1, sl
 800b1e8:	eb64 0403 	sbc.w	r4, r4, r3
 800b1ec:	fa04 fc0c 	lsl.w	ip, r4, ip
 800b1f0:	40fd      	lsrs	r5, r7
 800b1f2:	40fc      	lsrs	r4, r7
 800b1f4:	ea4c 0505 	orr.w	r5, ip, r5
 800b1f8:	e9c6 5400 	strd	r5, r4, [r6]
 800b1fc:	2700      	movs	r7, #0
 800b1fe:	e747      	b.n	800b090 <__udivmoddi4+0xa0>
 800b200:	f1c2 0320 	rsb	r3, r2, #32
 800b204:	fa20 f703 	lsr.w	r7, r0, r3
 800b208:	4095      	lsls	r5, r2
 800b20a:	fa01 f002 	lsl.w	r0, r1, r2
 800b20e:	fa21 f303 	lsr.w	r3, r1, r3
 800b212:	ea4f 4e15 	mov.w	lr, r5, lsr #16
 800b216:	4338      	orrs	r0, r7
 800b218:	0c01      	lsrs	r1, r0, #16
 800b21a:	fbb3 f7fe 	udiv	r7, r3, lr
 800b21e:	fa1f f885 	uxth.w	r8, r5
 800b222:	fb0e 3317 	mls	r3, lr, r7, r3
 800b226:	ea41 4103 	orr.w	r1, r1, r3, lsl #16
 800b22a:	fb07 f308 	mul.w	r3, r7, r8
 800b22e:	428b      	cmp	r3, r1
 800b230:	fa04 f402 	lsl.w	r4, r4, r2
 800b234:	d907      	bls.n	800b246 <__udivmoddi4+0x256>
 800b236:	1869      	adds	r1, r5, r1
 800b238:	f107 3cff 	add.w	ip, r7, #4294967295	; 0xffffffff
 800b23c:	d232      	bcs.n	800b2a4 <__udivmoddi4+0x2b4>
 800b23e:	428b      	cmp	r3, r1
 800b240:	d930      	bls.n	800b2a4 <__udivmoddi4+0x2b4>
 800b242:	3f02      	subs	r7, #2
 800b244:	4429      	add	r1, r5
 800b246:	1acb      	subs	r3, r1, r3
 800b248:	b281      	uxth	r1, r0
 800b24a:	fbb3 f0fe 	udiv	r0, r3, lr
 800b24e:	fb0e 3310 	mls	r3, lr, r0, r3
 800b252:	ea41 4103 	orr.w	r1, r1, r3, lsl #16
 800b256:	fb00 f308 	mul.w	r3, r0, r8
 800b25a:	428b      	cmp	r3, r1
 800b25c:	d907      	bls.n	800b26e <__udivmoddi4+0x27e>
 800b25e:	1869      	adds	r1, r5, r1
 800b260:	f100 3cff 	add.w	ip, r0, #4294967295	; 0xffffffff
 800b264:	d219      	bcs.n	800b29a <__udivmoddi4+0x2aa>
 800b266:	428b      	cmp	r3, r1
 800b268:	d917      	bls.n	800b29a <__udivmoddi4+0x2aa>
 800b26a:	3802      	subs	r0, #2
 800b26c:	4429      	add	r1, r5
 800b26e:	1ac9      	subs	r1, r1, r3
 800b270:	ea40 4707 	orr.w	r7, r0, r7, lsl #16
 800b274:	e73b      	b.n	800b0ee <__udivmoddi4+0xfe>
 800b276:	4637      	mov	r7, r6
 800b278:	4630      	mov	r0, r6
 800b27a:	e709      	b.n	800b090 <__udivmoddi4+0xa0>
 800b27c:	4607      	mov	r7, r0
 800b27e:	e6e7      	b.n	800b050 <__udivmoddi4+0x60>
 800b280:	4618      	mov	r0, r3
 800b282:	e6fb      	b.n	800b07c <__udivmoddi4+0x8c>
 800b284:	4541      	cmp	r1, r8
 800b286:	d2ab      	bcs.n	800b1e0 <__udivmoddi4+0x1f0>
 800b288:	ebb8 0a02 	subs.w	sl, r8, r2
 800b28c:	eb69 020e 	sbc.w	r2, r9, lr
 800b290:	3801      	subs	r0, #1
 800b292:	4613      	mov	r3, r2
 800b294:	e7a4      	b.n	800b1e0 <__udivmoddi4+0x1f0>
 800b296:	4618      	mov	r0, r3
 800b298:	e797      	b.n	800b1ca <__udivmoddi4+0x1da>
 800b29a:	4660      	mov	r0, ip
 800b29c:	e7e7      	b.n	800b26e <__udivmoddi4+0x27e>
 800b29e:	3802      	subs	r0, #2
 800b2a0:	442c      	add	r4, r5
 800b2a2:	e74b      	b.n	800b13c <__udivmoddi4+0x14c>
 800b2a4:	4667      	mov	r7, ip
 800b2a6:	e7ce      	b.n	800b246 <__udivmoddi4+0x256>
 800b2a8:	f1ac 0c02 	sub.w	ip, ip, #2
 800b2ac:	442b      	add	r3, r5
 800b2ae:	e731      	b.n	800b114 <__udivmoddi4+0x124>
 800b2b0:	4638      	mov	r0, r7
 800b2b2:	e70a      	b.n	800b0ca <__udivmoddi4+0xda>
 800b2b4:	4681      	mov	r9, r0
 800b2b6:	e773      	b.n	800b1a0 <__udivmoddi4+0x1b0>
 800b2b8:	4637      	mov	r7, r6
 800b2ba:	e6e9      	b.n	800b090 <__udivmoddi4+0xa0>

0800b2bc <selfrel_offset31>:
 800b2bc:	6803      	ldr	r3, [r0, #0]
 800b2be:	005a      	lsls	r2, r3, #1
 800b2c0:	bf4c      	ite	mi
 800b2c2:	f043 4300 	orrmi.w	r3, r3, #2147483648	; 0x80000000
 800b2c6:	f023 4300 	bicpl.w	r3, r3, #2147483648	; 0x80000000
 800b2ca:	4418      	add	r0, r3
 800b2cc:	4770      	bx	lr
 800b2ce:	bf00      	nop

0800b2d0 <search_EIT_table>:
 800b2d0:	e92d 4ff8 	stmdb	sp!, {r3, r4, r5, r6, r7, r8, r9, sl, fp, lr}
 800b2d4:	b339      	cbz	r1, 800b326 <search_EIT_table+0x56>
 800b2d6:	f101 38ff 	add.w	r8, r1, #4294967295	; 0xffffffff
 800b2da:	4617      	mov	r7, r2
 800b2dc:	4605      	mov	r5, r0
 800b2de:	46c1      	mov	r9, r8
 800b2e0:	2600      	movs	r6, #0
 800b2e2:	eb06 0109 	add.w	r1, r6, r9
 800b2e6:	eb01 71d1 	add.w	r1, r1, r1, lsr #31
 800b2ea:	1049      	asrs	r1, r1, #1
 800b2ec:	00cc      	lsls	r4, r1, #3
 800b2ee:	eb05 0a04 	add.w	sl, r5, r4
 800b2f2:	4650      	mov	r0, sl
 800b2f4:	f7ff ffe2 	bl	800b2bc <selfrel_offset31>
 800b2f8:	4683      	mov	fp, r0
 800b2fa:	4588      	cmp	r8, r1
 800b2fc:	f104 0008 	add.w	r0, r4, #8
 800b300:	4428      	add	r0, r5
 800b302:	d009      	beq.n	800b318 <search_EIT_table+0x48>
 800b304:	f7ff ffda 	bl	800b2bc <selfrel_offset31>
 800b308:	45bb      	cmp	fp, r7
 800b30a:	f100 30ff 	add.w	r0, r0, #4294967295	; 0xffffffff
 800b30e:	d805      	bhi.n	800b31c <search_EIT_table+0x4c>
 800b310:	42b8      	cmp	r0, r7
 800b312:	d20a      	bcs.n	800b32a <search_EIT_table+0x5a>
 800b314:	1c4e      	adds	r6, r1, #1
 800b316:	e7e4      	b.n	800b2e2 <search_EIT_table+0x12>
 800b318:	45bb      	cmp	fp, r7
 800b31a:	d906      	bls.n	800b32a <search_EIT_table+0x5a>
 800b31c:	428e      	cmp	r6, r1
 800b31e:	d002      	beq.n	800b326 <search_EIT_table+0x56>
 800b320:	f101 39ff 	add.w	r9, r1, #4294967295	; 0xffffffff
 800b324:	e7dd      	b.n	800b2e2 <search_EIT_table+0x12>
 800b326:	f04f 0a00 	mov.w	sl, #0
 800b32a:	4650      	mov	r0, sl
 800b32c:	e8bd 8ff8 	ldmia.w	sp!, {r3, r4, r5, r6, r7, r8, r9, sl, fp, pc}

0800b330 <__gnu_unwind_get_pr_addr>:
 800b330:	2801      	cmp	r0, #1
 800b332:	d007      	beq.n	800b344 <__gnu_unwind_get_pr_addr+0x14>
 800b334:	2802      	cmp	r0, #2
 800b336:	d007      	beq.n	800b348 <__gnu_unwind_get_pr_addr+0x18>
 800b338:	4b04      	ldr	r3, [pc, #16]	; (800b34c <__gnu_unwind_get_pr_addr+0x1c>)
 800b33a:	2800      	cmp	r0, #0
 800b33c:	bf0c      	ite	eq
 800b33e:	4618      	moveq	r0, r3
 800b340:	2000      	movne	r0, #0
 800b342:	4770      	bx	lr
 800b344:	4802      	ldr	r0, [pc, #8]	; (800b350 <__gnu_unwind_get_pr_addr+0x20>)
 800b346:	4770      	bx	lr
 800b348:	4802      	ldr	r0, [pc, #8]	; (800b354 <__gnu_unwind_get_pr_addr+0x24>)
 800b34a:	4770      	bx	lr
 800b34c:	0800ba11 	.word	0x0800ba11
 800b350:	0800ba15 	.word	0x0800ba15
 800b354:	0800ba19 	.word	0x0800ba19

0800b358 <get_eit_entry>:
 800b358:	b530      	push	{r4, r5, lr}
 800b35a:	4b22      	ldr	r3, [pc, #136]	; (800b3e4 <get_eit_entry+0x8c>)
 800b35c:	b083      	sub	sp, #12
 800b35e:	4604      	mov	r4, r0
 800b360:	1e8d      	subs	r5, r1, #2
 800b362:	b33b      	cbz	r3, 800b3b4 <get_eit_entry+0x5c>
 800b364:	a901      	add	r1, sp, #4
 800b366:	4628      	mov	r0, r5
 800b368:	f3af 8000 	nop.w
 800b36c:	b1e8      	cbz	r0, 800b3aa <get_eit_entry+0x52>
 800b36e:	9901      	ldr	r1, [sp, #4]
 800b370:	462a      	mov	r2, r5
 800b372:	f7ff ffad 	bl	800b2d0 <search_EIT_table>
 800b376:	4601      	mov	r1, r0
 800b378:	b1b8      	cbz	r0, 800b3aa <get_eit_entry+0x52>
 800b37a:	f7ff ff9f 	bl	800b2bc <selfrel_offset31>
 800b37e:	684b      	ldr	r3, [r1, #4]
 800b380:	64a0      	str	r0, [r4, #72]	; 0x48
 800b382:	2b01      	cmp	r3, #1
 800b384:	d029      	beq.n	800b3da <get_eit_entry+0x82>
 800b386:	2b00      	cmp	r3, #0
 800b388:	f101 0004 	add.w	r0, r1, #4
 800b38c:	db21      	blt.n	800b3d2 <get_eit_entry+0x7a>
 800b38e:	f7ff ff95 	bl	800b2bc <selfrel_offset31>
 800b392:	2300      	movs	r3, #0
 800b394:	e9c4 0313 	strd	r0, r3, [r4, #76]	; 0x4c
 800b398:	6803      	ldr	r3, [r0, #0]
 800b39a:	2b00      	cmp	r3, #0
 800b39c:	db10      	blt.n	800b3c0 <get_eit_entry+0x68>
 800b39e:	f7ff ff8d 	bl	800b2bc <selfrel_offset31>
 800b3a2:	6120      	str	r0, [r4, #16]
 800b3a4:	2000      	movs	r0, #0
 800b3a6:	b003      	add	sp, #12
 800b3a8:	bd30      	pop	{r4, r5, pc}
 800b3aa:	2300      	movs	r3, #0
 800b3ac:	6123      	str	r3, [r4, #16]
 800b3ae:	2009      	movs	r0, #9
 800b3b0:	b003      	add	sp, #12
 800b3b2:	bd30      	pop	{r4, r5, pc}
 800b3b4:	490c      	ldr	r1, [pc, #48]	; (800b3e8 <get_eit_entry+0x90>)
 800b3b6:	480d      	ldr	r0, [pc, #52]	; (800b3ec <get_eit_entry+0x94>)
 800b3b8:	1a09      	subs	r1, r1, r0
 800b3ba:	10c9      	asrs	r1, r1, #3
 800b3bc:	9101      	str	r1, [sp, #4]
 800b3be:	e7d7      	b.n	800b370 <get_eit_entry+0x18>
 800b3c0:	f3c3 6003 	ubfx	r0, r3, #24, #4
 800b3c4:	f7ff ffb4 	bl	800b330 <__gnu_unwind_get_pr_addr>
 800b3c8:	6120      	str	r0, [r4, #16]
 800b3ca:	2800      	cmp	r0, #0
 800b3cc:	d1ea      	bne.n	800b3a4 <get_eit_entry+0x4c>
 800b3ce:	2009      	movs	r0, #9
 800b3d0:	e7ee      	b.n	800b3b0 <get_eit_entry+0x58>
 800b3d2:	2301      	movs	r3, #1
 800b3d4:	e9c4 0313 	strd	r0, r3, [r4, #76]	; 0x4c
 800b3d8:	e7de      	b.n	800b398 <get_eit_entry+0x40>
 800b3da:	2300      	movs	r3, #0
 800b3dc:	2005      	movs	r0, #5
 800b3de:	6123      	str	r3, [r4, #16]
 800b3e0:	b003      	add	sp, #12
 800b3e2:	bd30      	pop	{r4, r5, pc}
 800b3e4:	00000000 	.word	0x00000000
 800b3e8:	0800d26c 	.word	0x0800d26c
 800b3ec:	0800c93c 	.word	0x0800c93c

0800b3f0 <restore_non_core_regs>:
 800b3f0:	6803      	ldr	r3, [r0, #0]
 800b3f2:	07da      	lsls	r2, r3, #31
 800b3f4:	b510      	push	{r4, lr}
 800b3f6:	4604      	mov	r4, r0
 800b3f8:	d406      	bmi.n	800b408 <restore_non_core_regs+0x18>
 800b3fa:	079b      	lsls	r3, r3, #30
 800b3fc:	f100 0048 	add.w	r0, r0, #72	; 0x48
 800b400:	d509      	bpl.n	800b416 <restore_non_core_regs+0x26>
 800b402:	f000 fc5d 	bl	800bcc0 <__gnu_Unwind_Restore_VFP_D>
 800b406:	6823      	ldr	r3, [r4, #0]
 800b408:	0759      	lsls	r1, r3, #29
 800b40a:	d509      	bpl.n	800b420 <restore_non_core_regs+0x30>
 800b40c:	071a      	lsls	r2, r3, #28
 800b40e:	d50e      	bpl.n	800b42e <restore_non_core_regs+0x3e>
 800b410:	06db      	lsls	r3, r3, #27
 800b412:	d513      	bpl.n	800b43c <restore_non_core_regs+0x4c>
 800b414:	bd10      	pop	{r4, pc}
 800b416:	f000 fc4b 	bl	800bcb0 <__gnu_Unwind_Restore_VFP>
 800b41a:	6823      	ldr	r3, [r4, #0]
 800b41c:	0759      	lsls	r1, r3, #29
 800b41e:	d4f5      	bmi.n	800b40c <restore_non_core_regs+0x1c>
 800b420:	f104 00d0 	add.w	r0, r4, #208	; 0xd0
 800b424:	f000 fc54 	bl	800bcd0 <__gnu_Unwind_Restore_VFP_D_16_to_31>
 800b428:	6823      	ldr	r3, [r4, #0]
 800b42a:	071a      	lsls	r2, r3, #28
 800b42c:	d4f0      	bmi.n	800b410 <restore_non_core_regs+0x20>
 800b42e:	f504 70a8 	add.w	r0, r4, #336	; 0x150
 800b432:	f000 fc55 	bl	800bce0 <__gnu_Unwind_Restore_WMMXD>
 800b436:	6823      	ldr	r3, [r4, #0]
 800b438:	06db      	lsls	r3, r3, #27
 800b43a:	d4eb      	bmi.n	800b414 <restore_non_core_regs+0x24>
 800b43c:	f504 70e8 	add.w	r0, r4, #464	; 0x1d0
 800b440:	e8bd 4010 	ldmia.w	sp!, {r4, lr}
 800b444:	f000 bc90 	b.w	800bd68 <__gnu_Unwind_Restore_WMMXC>

0800b448 <_Unwind_decode_typeinfo_ptr.isra.0>:
 800b448:	6803      	ldr	r3, [r0, #0]
 800b44a:	b103      	cbz	r3, 800b44e <_Unwind_decode_typeinfo_ptr.isra.0+0x6>
 800b44c:	4403      	add	r3, r0
 800b44e:	4618      	mov	r0, r3
 800b450:	4770      	bx	lr
 800b452:	bf00      	nop

0800b454 <__gnu_unwind_24bit.isra.1>:
 800b454:	2009      	movs	r0, #9
 800b456:	4770      	bx	lr

0800b458 <_Unwind_DebugHook>:
 800b458:	4770      	bx	lr
 800b45a:	bf00      	nop

0800b45c <unwind_phase2>:
 800b45c:	b570      	push	{r4, r5, r6, lr}
 800b45e:	4604      	mov	r4, r0
 800b460:	460d      	mov	r5, r1
 800b462:	e008      	b.n	800b476 <unwind_phase2+0x1a>
 800b464:	6c2b      	ldr	r3, [r5, #64]	; 0x40
 800b466:	6163      	str	r3, [r4, #20]
 800b468:	462a      	mov	r2, r5
 800b46a:	6923      	ldr	r3, [r4, #16]
 800b46c:	4621      	mov	r1, r4
 800b46e:	2001      	movs	r0, #1
 800b470:	4798      	blx	r3
 800b472:	2808      	cmp	r0, #8
 800b474:	d108      	bne.n	800b488 <unwind_phase2+0x2c>
 800b476:	6c29      	ldr	r1, [r5, #64]	; 0x40
 800b478:	4620      	mov	r0, r4
 800b47a:	f7ff ff6d 	bl	800b358 <get_eit_entry>
 800b47e:	4606      	mov	r6, r0
 800b480:	2800      	cmp	r0, #0
 800b482:	d0ef      	beq.n	800b464 <unwind_phase2+0x8>
 800b484:	f7fe feea 	bl	800a25c <abort>
 800b488:	2807      	cmp	r0, #7
 800b48a:	d1fb      	bne.n	800b484 <unwind_phase2+0x28>
 800b48c:	4630      	mov	r0, r6
 800b48e:	6c29      	ldr	r1, [r5, #64]	; 0x40
 800b490:	f7ff ffe2 	bl	800b458 <_Unwind_DebugHook>
 800b494:	1d28      	adds	r0, r5, #4
 800b496:	f000 fbff 	bl	800bc98 <__restore_core_regs>
 800b49a:	bf00      	nop

0800b49c <unwind_phase2_forced>:
 800b49c:	e92d 47f0 	stmdb	sp!, {r4, r5, r6, r7, r8, r9, sl, lr}
 800b4a0:	1d0c      	adds	r4, r1, #4
 800b4a2:	4605      	mov	r5, r0
 800b4a4:	4617      	mov	r7, r2
 800b4a6:	cc0f      	ldmia	r4!, {r0, r1, r2, r3}
 800b4a8:	f5ad 7d72 	sub.w	sp, sp, #968	; 0x3c8
 800b4ac:	ae03      	add	r6, sp, #12
 800b4ae:	c60f      	stmia	r6!, {r0, r1, r2, r3}
 800b4b0:	cc0f      	ldmia	r4!, {r0, r1, r2, r3}
 800b4b2:	c60f      	stmia	r6!, {r0, r1, r2, r3}
 800b4b4:	cc0f      	ldmia	r4!, {r0, r1, r2, r3}
 800b4b6:	c60f      	stmia	r6!, {r0, r1, r2, r3}
 800b4b8:	e894 000f 	ldmia.w	r4, {r0, r1, r2, r3}
 800b4bc:	ac02      	add	r4, sp, #8
 800b4be:	f8d5 800c 	ldr.w	r8, [r5, #12]
 800b4c2:	f8d5 9018 	ldr.w	r9, [r5, #24]
 800b4c6:	e886 000f 	stmia.w	r6, {r0, r1, r2, r3}
 800b4ca:	2300      	movs	r3, #0
 800b4cc:	6023      	str	r3, [r4, #0]
 800b4ce:	e021      	b.n	800b514 <unwind_phase2_forced+0x78>
 800b4d0:	6c23      	ldr	r3, [r4, #64]	; 0x40
 800b4d2:	616b      	str	r3, [r5, #20]
 800b4d4:	f44f 72f0 	mov.w	r2, #480	; 0x1e0
 800b4d8:	4621      	mov	r1, r4
 800b4da:	a87a      	add	r0, sp, #488	; 0x1e8
 800b4dc:	f7fe feec 	bl	800a2b8 <memcpy>
 800b4e0:	692b      	ldr	r3, [r5, #16]
 800b4e2:	aa7a      	add	r2, sp, #488	; 0x1e8
 800b4e4:	4629      	mov	r1, r5
 800b4e6:	4630      	mov	r0, r6
 800b4e8:	4798      	blx	r3
 800b4ea:	9b88      	ldr	r3, [sp, #544]	; 0x220
 800b4ec:	e9cd 4900 	strd	r4, r9, [sp]
 800b4f0:	4682      	mov	sl, r0
 800b4f2:	6463      	str	r3, [r4, #68]	; 0x44
 800b4f4:	4631      	mov	r1, r6
 800b4f6:	462b      	mov	r3, r5
 800b4f8:	462a      	mov	r2, r5
 800b4fa:	2001      	movs	r0, #1
 800b4fc:	47c0      	blx	r8
 800b4fe:	4607      	mov	r7, r0
 800b500:	b9f8      	cbnz	r0, 800b542 <unwind_phase2_forced+0xa6>
 800b502:	f44f 72f0 	mov.w	r2, #480	; 0x1e0
 800b506:	a97a      	add	r1, sp, #488	; 0x1e8
 800b508:	4620      	mov	r0, r4
 800b50a:	f7fe fed5 	bl	800a2b8 <memcpy>
 800b50e:	f1ba 0f08 	cmp.w	sl, #8
 800b512:	d11c      	bne.n	800b54e <unwind_phase2_forced+0xb2>
 800b514:	6c21      	ldr	r1, [r4, #64]	; 0x40
 800b516:	4628      	mov	r0, r5
 800b518:	f7ff ff1e 	bl	800b358 <get_eit_entry>
 800b51c:	2f00      	cmp	r7, #0
 800b51e:	bf08      	it	eq
 800b520:	2609      	moveq	r6, #9
 800b522:	4607      	mov	r7, r0
 800b524:	bf18      	it	ne
 800b526:	260a      	movne	r6, #10
 800b528:	2800      	cmp	r0, #0
 800b52a:	d0d1      	beq.n	800b4d0 <unwind_phase2_forced+0x34>
 800b52c:	6ba3      	ldr	r3, [r4, #56]	; 0x38
 800b52e:	f046 0110 	orr.w	r1, r6, #16
 800b532:	e9cd 4900 	strd	r4, r9, [sp]
 800b536:	462a      	mov	r2, r5
 800b538:	6463      	str	r3, [r4, #68]	; 0x44
 800b53a:	2001      	movs	r0, #1
 800b53c:	462b      	mov	r3, r5
 800b53e:	47c0      	blx	r8
 800b540:	b100      	cbz	r0, 800b544 <unwind_phase2_forced+0xa8>
 800b542:	2709      	movs	r7, #9
 800b544:	4638      	mov	r0, r7
 800b546:	f50d 7d72 	add.w	sp, sp, #968	; 0x3c8
 800b54a:	e8bd 87f0 	ldmia.w	sp!, {r4, r5, r6, r7, r8, r9, sl, pc}
 800b54e:	f1ba 0f07 	cmp.w	sl, #7
 800b552:	d1f6      	bne.n	800b542 <unwind_phase2_forced+0xa6>
 800b554:	4638      	mov	r0, r7
 800b556:	6c21      	ldr	r1, [r4, #64]	; 0x40
 800b558:	f7ff ff7e 	bl	800b458 <_Unwind_DebugHook>
 800b55c:	a803      	add	r0, sp, #12
 800b55e:	f000 fb9b 	bl	800bc98 <__restore_core_regs>
 800b562:	bf00      	nop

0800b564 <_Unwind_GetCFA>:
 800b564:	6c40      	ldr	r0, [r0, #68]	; 0x44
 800b566:	4770      	bx	lr

0800b568 <__gnu_Unwind_RaiseException>:
 800b568:	b5f0      	push	{r4, r5, r6, r7, lr}
 800b56a:	6bcb      	ldr	r3, [r1, #60]	; 0x3c
 800b56c:	640b      	str	r3, [r1, #64]	; 0x40
 800b56e:	1d0d      	adds	r5, r1, #4
 800b570:	460f      	mov	r7, r1
 800b572:	4606      	mov	r6, r0
 800b574:	cd0f      	ldmia	r5!, {r0, r1, r2, r3}
 800b576:	b0f9      	sub	sp, #484	; 0x1e4
 800b578:	ac01      	add	r4, sp, #4
 800b57a:	c40f      	stmia	r4!, {r0, r1, r2, r3}
 800b57c:	cd0f      	ldmia	r5!, {r0, r1, r2, r3}
 800b57e:	c40f      	stmia	r4!, {r0, r1, r2, r3}
 800b580:	cd0f      	ldmia	r5!, {r0, r1, r2, r3}
 800b582:	c40f      	stmia	r4!, {r0, r1, r2, r3}
 800b584:	e895 000f 	ldmia.w	r5, {r0, r1, r2, r3}
 800b588:	f04f 35ff 	mov.w	r5, #4294967295	; 0xffffffff
 800b58c:	e884 000f 	stmia.w	r4, {r0, r1, r2, r3}
 800b590:	9500      	str	r5, [sp, #0]
 800b592:	e006      	b.n	800b5a2 <__gnu_Unwind_RaiseException+0x3a>
 800b594:	6933      	ldr	r3, [r6, #16]
 800b596:	466a      	mov	r2, sp
 800b598:	4631      	mov	r1, r6
 800b59a:	4798      	blx	r3
 800b59c:	2808      	cmp	r0, #8
 800b59e:	4604      	mov	r4, r0
 800b5a0:	d108      	bne.n	800b5b4 <__gnu_Unwind_RaiseException+0x4c>
 800b5a2:	9910      	ldr	r1, [sp, #64]	; 0x40
 800b5a4:	4630      	mov	r0, r6
 800b5a6:	f7ff fed7 	bl	800b358 <get_eit_entry>
 800b5aa:	2800      	cmp	r0, #0
 800b5ac:	d0f2      	beq.n	800b594 <__gnu_Unwind_RaiseException+0x2c>
 800b5ae:	2009      	movs	r0, #9
 800b5b0:	b079      	add	sp, #484	; 0x1e4
 800b5b2:	bdf0      	pop	{r4, r5, r6, r7, pc}
 800b5b4:	4668      	mov	r0, sp
 800b5b6:	f7ff ff1b 	bl	800b3f0 <restore_non_core_regs>
 800b5ba:	2c06      	cmp	r4, #6
 800b5bc:	d1f7      	bne.n	800b5ae <__gnu_Unwind_RaiseException+0x46>
 800b5be:	4639      	mov	r1, r7
 800b5c0:	4630      	mov	r0, r6
 800b5c2:	f7ff ff4b 	bl	800b45c <unwind_phase2>
 800b5c6:	bf00      	nop

0800b5c8 <__gnu_Unwind_ForcedUnwind>:
 800b5c8:	b430      	push	{r4, r5}
 800b5ca:	6bdd      	ldr	r5, [r3, #60]	; 0x3c
 800b5cc:	60c1      	str	r1, [r0, #12]
 800b5ce:	6182      	str	r2, [r0, #24]
 800b5d0:	4619      	mov	r1, r3
 800b5d2:	641d      	str	r5, [r3, #64]	; 0x40
 800b5d4:	2200      	movs	r2, #0
 800b5d6:	bc30      	pop	{r4, r5}
 800b5d8:	e760      	b.n	800b49c <unwind_phase2_forced>
 800b5da:	bf00      	nop

0800b5dc <__gnu_Unwind_Resume>:
 800b5dc:	b570      	push	{r4, r5, r6, lr}
 800b5de:	68c6      	ldr	r6, [r0, #12]
 800b5e0:	6943      	ldr	r3, [r0, #20]
 800b5e2:	640b      	str	r3, [r1, #64]	; 0x40
 800b5e4:	b9be      	cbnz	r6, 800b616 <__gnu_Unwind_Resume+0x3a>
 800b5e6:	6903      	ldr	r3, [r0, #16]
 800b5e8:	460a      	mov	r2, r1
 800b5ea:	4604      	mov	r4, r0
 800b5ec:	460d      	mov	r5, r1
 800b5ee:	4601      	mov	r1, r0
 800b5f0:	2002      	movs	r0, #2
 800b5f2:	4798      	blx	r3
 800b5f4:	2807      	cmp	r0, #7
 800b5f6:	d007      	beq.n	800b608 <__gnu_Unwind_Resume+0x2c>
 800b5f8:	2808      	cmp	r0, #8
 800b5fa:	d103      	bne.n	800b604 <__gnu_Unwind_Resume+0x28>
 800b5fc:	4629      	mov	r1, r5
 800b5fe:	4620      	mov	r0, r4
 800b600:	f7ff ff2c 	bl	800b45c <unwind_phase2>
 800b604:	f7fe fe2a 	bl	800a25c <abort>
 800b608:	4630      	mov	r0, r6
 800b60a:	6c29      	ldr	r1, [r5, #64]	; 0x40
 800b60c:	f7ff ff24 	bl	800b458 <_Unwind_DebugHook>
 800b610:	1d28      	adds	r0, r5, #4
 800b612:	f000 fb41 	bl	800bc98 <__restore_core_regs>
 800b616:	2201      	movs	r2, #1
 800b618:	f7ff ff40 	bl	800b49c <unwind_phase2_forced>
 800b61c:	f7fe fe1e 	bl	800a25c <abort>

0800b620 <__gnu_Unwind_Resume_or_Rethrow>:
 800b620:	68c2      	ldr	r2, [r0, #12]
 800b622:	b11a      	cbz	r2, 800b62c <__gnu_Unwind_Resume_or_Rethrow+0xc>
 800b624:	6bca      	ldr	r2, [r1, #60]	; 0x3c
 800b626:	640a      	str	r2, [r1, #64]	; 0x40
 800b628:	2200      	movs	r2, #0
 800b62a:	e737      	b.n	800b49c <unwind_phase2_forced>
 800b62c:	e79c      	b.n	800b568 <__gnu_Unwind_RaiseException>
 800b62e:	bf00      	nop

0800b630 <_Unwind_Complete>:
 800b630:	4770      	bx	lr
 800b632:	bf00      	nop

0800b634 <_Unwind_DeleteException>:
 800b634:	6883      	ldr	r3, [r0, #8]
 800b636:	b113      	cbz	r3, 800b63e <_Unwind_DeleteException+0xa>
 800b638:	4601      	mov	r1, r0
 800b63a:	2001      	movs	r0, #1
 800b63c:	4718      	bx	r3
 800b63e:	4770      	bx	lr

0800b640 <_Unwind_VRS_Get>:
 800b640:	2904      	cmp	r1, #4
 800b642:	d810      	bhi.n	800b666 <_Unwind_VRS_Get+0x26>
 800b644:	e8df f001 	tbb	[pc, r1]
 800b648:	030f0305 	.word	0x030f0305
 800b64c:	03          	.byte	0x03
 800b64d:	00          	.byte	0x00
 800b64e:	2001      	movs	r0, #1
 800b650:	4770      	bx	lr
 800b652:	b943      	cbnz	r3, 800b666 <_Unwind_VRS_Get+0x26>
 800b654:	2a0f      	cmp	r2, #15
 800b656:	d806      	bhi.n	800b666 <_Unwind_VRS_Get+0x26>
 800b658:	eb00 0282 	add.w	r2, r0, r2, lsl #2
 800b65c:	4618      	mov	r0, r3
 800b65e:	6853      	ldr	r3, [r2, #4]
 800b660:	9a00      	ldr	r2, [sp, #0]
 800b662:	6013      	str	r3, [r2, #0]
 800b664:	4770      	bx	lr
 800b666:	2002      	movs	r0, #2
 800b668:	4770      	bx	lr
 800b66a:	bf00      	nop

0800b66c <_Unwind_GetGR>:
 800b66c:	b510      	push	{r4, lr}
 800b66e:	b084      	sub	sp, #16
 800b670:	2300      	movs	r3, #0
 800b672:	ac03      	add	r4, sp, #12
 800b674:	460a      	mov	r2, r1
 800b676:	9400      	str	r4, [sp, #0]
 800b678:	4619      	mov	r1, r3
 800b67a:	f7ff ffe1 	bl	800b640 <_Unwind_VRS_Get>
 800b67e:	9803      	ldr	r0, [sp, #12]
 800b680:	b004      	add	sp, #16
 800b682:	bd10      	pop	{r4, pc}

0800b684 <_Unwind_VRS_Set>:
 800b684:	2904      	cmp	r1, #4
 800b686:	d810      	bhi.n	800b6aa <_Unwind_VRS_Set+0x26>
 800b688:	e8df f001 	tbb	[pc, r1]
 800b68c:	030f0305 	.word	0x030f0305
 800b690:	03          	.byte	0x03
 800b691:	00          	.byte	0x00
 800b692:	2001      	movs	r0, #1
 800b694:	4770      	bx	lr
 800b696:	b943      	cbnz	r3, 800b6aa <_Unwind_VRS_Set+0x26>
 800b698:	2a0f      	cmp	r2, #15
 800b69a:	d806      	bhi.n	800b6aa <_Unwind_VRS_Set+0x26>
 800b69c:	eb00 0082 	add.w	r0, r0, r2, lsl #2
 800b6a0:	9a00      	ldr	r2, [sp, #0]
 800b6a2:	6812      	ldr	r2, [r2, #0]
 800b6a4:	6042      	str	r2, [r0, #4]
 800b6a6:	4618      	mov	r0, r3
 800b6a8:	4770      	bx	lr
 800b6aa:	2002      	movs	r0, #2
 800b6ac:	4770      	bx	lr
 800b6ae:	bf00      	nop

0800b6b0 <_Unwind_SetGR>:
 800b6b0:	b510      	push	{r4, lr}
 800b6b2:	b084      	sub	sp, #16
 800b6b4:	ac04      	add	r4, sp, #16
 800b6b6:	2300      	movs	r3, #0
 800b6b8:	f844 2d04 	str.w	r2, [r4, #-4]!
 800b6bc:	460a      	mov	r2, r1
 800b6be:	9400      	str	r4, [sp, #0]
 800b6c0:	4619      	mov	r1, r3
 800b6c2:	f7ff ffdf 	bl	800b684 <_Unwind_VRS_Set>
 800b6c6:	b004      	add	sp, #16
 800b6c8:	bd10      	pop	{r4, pc}
 800b6ca:	bf00      	nop

0800b6cc <__gnu_Unwind_Backtrace>:
 800b6cc:	b5f0      	push	{r4, r5, r6, r7, lr}
 800b6ce:	6bd3      	ldr	r3, [r2, #60]	; 0x3c
 800b6d0:	6413      	str	r3, [r2, #64]	; 0x40
 800b6d2:	1d15      	adds	r5, r2, #4
 800b6d4:	4607      	mov	r7, r0
 800b6d6:	460e      	mov	r6, r1
 800b6d8:	cd0f      	ldmia	r5!, {r0, r1, r2, r3}
 800b6da:	f5ad 7d0f 	sub.w	sp, sp, #572	; 0x23c
 800b6de:	ac17      	add	r4, sp, #92	; 0x5c
 800b6e0:	c40f      	stmia	r4!, {r0, r1, r2, r3}
 800b6e2:	cd0f      	ldmia	r5!, {r0, r1, r2, r3}
 800b6e4:	c40f      	stmia	r4!, {r0, r1, r2, r3}
 800b6e6:	cd0f      	ldmia	r5!, {r0, r1, r2, r3}
 800b6e8:	c40f      	stmia	r4!, {r0, r1, r2, r3}
 800b6ea:	e895 000f 	ldmia.w	r5, {r0, r1, r2, r3}
 800b6ee:	f04f 35ff 	mov.w	r5, #4294967295	; 0xffffffff
 800b6f2:	e884 000f 	stmia.w	r4, {r0, r1, r2, r3}
 800b6f6:	9516      	str	r5, [sp, #88]	; 0x58
 800b6f8:	e010      	b.n	800b71c <__gnu_Unwind_Backtrace+0x50>
 800b6fa:	a816      	add	r0, sp, #88	; 0x58
 800b6fc:	f7ff ffd8 	bl	800b6b0 <_Unwind_SetGR>
 800b700:	4631      	mov	r1, r6
 800b702:	a816      	add	r0, sp, #88	; 0x58
 800b704:	47b8      	blx	r7
 800b706:	aa16      	add	r2, sp, #88	; 0x58
 800b708:	4669      	mov	r1, sp
 800b70a:	b978      	cbnz	r0, 800b72c <__gnu_Unwind_Backtrace+0x60>
 800b70c:	9b04      	ldr	r3, [sp, #16]
 800b70e:	2008      	movs	r0, #8
 800b710:	4798      	blx	r3
 800b712:	2805      	cmp	r0, #5
 800b714:	4604      	mov	r4, r0
 800b716:	d00a      	beq.n	800b72e <__gnu_Unwind_Backtrace+0x62>
 800b718:	2809      	cmp	r0, #9
 800b71a:	d007      	beq.n	800b72c <__gnu_Unwind_Backtrace+0x60>
 800b71c:	9926      	ldr	r1, [sp, #152]	; 0x98
 800b71e:	4668      	mov	r0, sp
 800b720:	f7ff fe1a 	bl	800b358 <get_eit_entry>
 800b724:	466a      	mov	r2, sp
 800b726:	210c      	movs	r1, #12
 800b728:	2800      	cmp	r0, #0
 800b72a:	d0e6      	beq.n	800b6fa <__gnu_Unwind_Backtrace+0x2e>
 800b72c:	2409      	movs	r4, #9
 800b72e:	a816      	add	r0, sp, #88	; 0x58
 800b730:	f7ff fe5e 	bl	800b3f0 <restore_non_core_regs>
 800b734:	4620      	mov	r0, r4
 800b736:	f50d 7d0f 	add.w	sp, sp, #572	; 0x23c
 800b73a:	bdf0      	pop	{r4, r5, r6, r7, pc}

0800b73c <__gnu_unwind_pr_common>:
 800b73c:	e92d 4ff0 	stmdb	sp!, {r4, r5, r6, r7, r8, r9, sl, fp, lr}
 800b740:	460d      	mov	r5, r1
 800b742:	6cc9      	ldr	r1, [r1, #76]	; 0x4c
 800b744:	b089      	sub	sp, #36	; 0x24
 800b746:	1d0c      	adds	r4, r1, #4
 800b748:	4616      	mov	r6, r2
 800b74a:	f000 0b03 	and.w	fp, r0, #3
 800b74e:	680a      	ldr	r2, [r1, #0]
 800b750:	9406      	str	r4, [sp, #24]
 800b752:	461f      	mov	r7, r3
 800b754:	2b00      	cmp	r3, #0
 800b756:	d068      	beq.n	800b82a <__gnu_unwind_pr_common+0xee>
 800b758:	0c13      	lsrs	r3, r2, #16
 800b75a:	b2d9      	uxtb	r1, r3
 800b75c:	0412      	lsls	r2, r2, #16
 800b75e:	f88d 301d 	strb.w	r3, [sp, #29]
 800b762:	2302      	movs	r3, #2
 800b764:	eb04 0481 	add.w	r4, r4, r1, lsl #2
 800b768:	9205      	str	r2, [sp, #20]
 800b76a:	f88d 301c 	strb.w	r3, [sp, #28]
 800b76e:	6d2b      	ldr	r3, [r5, #80]	; 0x50
 800b770:	f1bb 0f02 	cmp.w	fp, #2
 800b774:	bf08      	it	eq
 800b776:	6bac      	ldreq	r4, [r5, #56]	; 0x38
 800b778:	f013 0301 	ands.w	r3, r3, #1
 800b77c:	d146      	bne.n	800b80c <__gnu_unwind_pr_common+0xd0>
 800b77e:	9301      	str	r3, [sp, #4]
 800b780:	f000 0308 	and.w	r3, r0, #8
 800b784:	9300      	str	r3, [sp, #0]
 800b786:	f8d4 9000 	ldr.w	r9, [r4]
 800b78a:	f1b9 0f00 	cmp.w	r9, #0
 800b78e:	f000 80f3 	beq.w	800b978 <__gnu_unwind_pr_common+0x23c>
 800b792:	2f02      	cmp	r7, #2
 800b794:	d045      	beq.n	800b822 <__gnu_unwind_pr_common+0xe6>
 800b796:	f8b4 9000 	ldrh.w	r9, [r4]
 800b79a:	f8b4 8002 	ldrh.w	r8, [r4, #2]
 800b79e:	3404      	adds	r4, #4
 800b7a0:	6cab      	ldr	r3, [r5, #72]	; 0x48
 800b7a2:	f028 0a01 	bic.w	sl, r8, #1
 800b7a6:	210f      	movs	r1, #15
 800b7a8:	4630      	mov	r0, r6
 800b7aa:	449a      	add	sl, r3
 800b7ac:	f7ff ff5e 	bl	800b66c <_Unwind_GetGR>
 800b7b0:	4582      	cmp	sl, r0
 800b7b2:	d834      	bhi.n	800b81e <__gnu_unwind_pr_common+0xe2>
 800b7b4:	f029 0301 	bic.w	r3, r9, #1
 800b7b8:	4453      	add	r3, sl
 800b7ba:	4283      	cmp	r3, r0
 800b7bc:	bf94      	ite	ls
 800b7be:	2000      	movls	r0, #0
 800b7c0:	2001      	movhi	r0, #1
 800b7c2:	ea4f 0848 	mov.w	r8, r8, lsl #1
 800b7c6:	f008 0802 	and.w	r8, r8, #2
 800b7ca:	f009 0901 	and.w	r9, r9, #1
 800b7ce:	ea48 0809 	orr.w	r8, r8, r9
 800b7d2:	f1b8 0f01 	cmp.w	r8, #1
 800b7d6:	d03a      	beq.n	800b84e <__gnu_unwind_pr_common+0x112>
 800b7d8:	d331      	bcc.n	800b83e <__gnu_unwind_pr_common+0x102>
 800b7da:	f1b8 0f02 	cmp.w	r8, #2
 800b7de:	d11a      	bne.n	800b816 <__gnu_unwind_pr_common+0xda>
 800b7e0:	6823      	ldr	r3, [r4, #0]
 800b7e2:	f023 4a00 	bic.w	sl, r3, #2147483648	; 0x80000000
 800b7e6:	f1bb 0f00 	cmp.w	fp, #0
 800b7ea:	d166      	bne.n	800b8ba <__gnu_unwind_pr_common+0x17e>
 800b7ec:	b130      	cbz	r0, 800b7fc <__gnu_unwind_pr_common+0xc0>
 800b7ee:	9a00      	ldr	r2, [sp, #0]
 800b7f0:	2a00      	cmp	r2, #0
 800b7f2:	d06c      	beq.n	800b8ce <__gnu_unwind_pr_common+0x192>
 800b7f4:	f1ba 0f00 	cmp.w	sl, #0
 800b7f8:	f000 8090 	beq.w	800b91c <__gnu_unwind_pr_common+0x1e0>
 800b7fc:	2b00      	cmp	r3, #0
 800b7fe:	da00      	bge.n	800b802 <__gnu_unwind_pr_common+0xc6>
 800b800:	3404      	adds	r4, #4
 800b802:	f10a 0301 	add.w	r3, sl, #1
 800b806:	eb04 0483 	add.w	r4, r4, r3, lsl #2
 800b80a:	e7bc      	b.n	800b786 <__gnu_unwind_pr_common+0x4a>
 800b80c:	4630      	mov	r0, r6
 800b80e:	a905      	add	r1, sp, #20
 800b810:	f000 fb44 	bl	800be9c <__gnu_unwind_execute>
 800b814:	b178      	cbz	r0, 800b836 <__gnu_unwind_pr_common+0xfa>
 800b816:	2009      	movs	r0, #9
 800b818:	b009      	add	sp, #36	; 0x24
 800b81a:	e8bd 8ff0 	ldmia.w	sp!, {r4, r5, r6, r7, r8, r9, sl, fp, pc}
 800b81e:	2000      	movs	r0, #0
 800b820:	e7cf      	b.n	800b7c2 <__gnu_unwind_pr_common+0x86>
 800b822:	f8d4 8004 	ldr.w	r8, [r4, #4]
 800b826:	3408      	adds	r4, #8
 800b828:	e7ba      	b.n	800b7a0 <__gnu_unwind_pr_common+0x64>
 800b82a:	0212      	lsls	r2, r2, #8
 800b82c:	2303      	movs	r3, #3
 800b82e:	9205      	str	r2, [sp, #20]
 800b830:	f8ad 301c 	strh.w	r3, [sp, #28]
 800b834:	e79b      	b.n	800b76e <__gnu_unwind_pr_common+0x32>
 800b836:	2008      	movs	r0, #8
 800b838:	b009      	add	sp, #36	; 0x24
 800b83a:	e8bd 8ff0 	ldmia.w	sp!, {r4, r5, r6, r7, r8, r9, sl, fp, pc}
 800b83e:	f1bb 0f00 	cmp.w	fp, #0
 800b842:	d002      	beq.n	800b84a <__gnu_unwind_pr_common+0x10e>
 800b844:	2800      	cmp	r0, #0
 800b846:	f040 80b4 	bne.w	800b9b2 <__gnu_unwind_pr_common+0x276>
 800b84a:	3404      	adds	r4, #4
 800b84c:	e79b      	b.n	800b786 <__gnu_unwind_pr_common+0x4a>
 800b84e:	f1bb 0f00 	cmp.w	fp, #0
 800b852:	d118      	bne.n	800b886 <__gnu_unwind_pr_common+0x14a>
 800b854:	b1a8      	cbz	r0, 800b882 <__gnu_unwind_pr_common+0x146>
 800b856:	e9d4 2300 	ldrd	r2, r3, [r4]
 800b85a:	1c99      	adds	r1, r3, #2
 800b85c:	ea4f 72d2 	mov.w	r2, r2, lsr #31
 800b860:	d0d9      	beq.n	800b816 <__gnu_unwind_pr_common+0xda>
 800b862:	f105 0158 	add.w	r1, r5, #88	; 0x58
 800b866:	3301      	adds	r3, #1
 800b868:	9104      	str	r1, [sp, #16]
 800b86a:	f000 80b5 	beq.w	800b9d8 <__gnu_unwind_pr_common+0x29c>
 800b86e:	1d20      	adds	r0, r4, #4
 800b870:	f7ff fdea 	bl	800b448 <_Unwind_decode_typeinfo_ptr.isra.0>
 800b874:	ab04      	add	r3, sp, #16
 800b876:	4601      	mov	r1, r0
 800b878:	4628      	mov	r0, r5
 800b87a:	f3af 8000 	nop.w
 800b87e:	2800      	cmp	r0, #0
 800b880:	d167      	bne.n	800b952 <__gnu_unwind_pr_common+0x216>
 800b882:	3408      	adds	r4, #8
 800b884:	e77f      	b.n	800b786 <__gnu_unwind_pr_common+0x4a>
 800b886:	210d      	movs	r1, #13
 800b888:	4630      	mov	r0, r6
 800b88a:	f8d5 8020 	ldr.w	r8, [r5, #32]
 800b88e:	f7ff feed 	bl	800b66c <_Unwind_GetGR>
 800b892:	4580      	cmp	r8, r0
 800b894:	d1f5      	bne.n	800b882 <__gnu_unwind_pr_common+0x146>
 800b896:	6aab      	ldr	r3, [r5, #40]	; 0x28
 800b898:	429c      	cmp	r4, r3
 800b89a:	d1f2      	bne.n	800b882 <__gnu_unwind_pr_common+0x146>
 800b89c:	4620      	mov	r0, r4
 800b89e:	f7ff fd0d 	bl	800b2bc <selfrel_offset31>
 800b8a2:	210f      	movs	r1, #15
 800b8a4:	4602      	mov	r2, r0
 800b8a6:	4630      	mov	r0, r6
 800b8a8:	f7ff ff02 	bl	800b6b0 <_Unwind_SetGR>
 800b8ac:	4630      	mov	r0, r6
 800b8ae:	462a      	mov	r2, r5
 800b8b0:	2100      	movs	r1, #0
 800b8b2:	f7ff fefd 	bl	800b6b0 <_Unwind_SetGR>
 800b8b6:	2007      	movs	r0, #7
 800b8b8:	e7ae      	b.n	800b818 <__gnu_unwind_pr_common+0xdc>
 800b8ba:	210d      	movs	r1, #13
 800b8bc:	4630      	mov	r0, r6
 800b8be:	f8d5 8020 	ldr.w	r8, [r5, #32]
 800b8c2:	f7ff fed3 	bl	800b66c <_Unwind_GetGR>
 800b8c6:	4580      	cmp	r8, r0
 800b8c8:	d032      	beq.n	800b930 <__gnu_unwind_pr_common+0x1f4>
 800b8ca:	6823      	ldr	r3, [r4, #0]
 800b8cc:	e796      	b.n	800b7fc <__gnu_unwind_pr_common+0xc0>
 800b8ce:	f1ba 0f00 	cmp.w	sl, #0
 800b8d2:	d023      	beq.n	800b91c <__gnu_unwind_pr_common+0x1e0>
 800b8d4:	f105 0358 	add.w	r3, r5, #88	; 0x58
 800b8d8:	f104 0804 	add.w	r8, r4, #4
 800b8dc:	f8cd b008 	str.w	fp, [sp, #8]
 800b8e0:	f8dd 9000 	ldr.w	r9, [sp]
 800b8e4:	9703      	str	r7, [sp, #12]
 800b8e6:	46a3      	mov	fp, r4
 800b8e8:	461c      	mov	r4, r3
 800b8ea:	e002      	b.n	800b8f2 <__gnu_unwind_pr_common+0x1b6>
 800b8ec:	4557      	cmp	r7, sl
 800b8ee:	46b9      	mov	r9, r7
 800b8f0:	d040      	beq.n	800b974 <__gnu_unwind_pr_common+0x238>
 800b8f2:	4640      	mov	r0, r8
 800b8f4:	9404      	str	r4, [sp, #16]
 800b8f6:	f7ff fda7 	bl	800b448 <_Unwind_decode_typeinfo_ptr.isra.0>
 800b8fa:	ab04      	add	r3, sp, #16
 800b8fc:	4601      	mov	r1, r0
 800b8fe:	2200      	movs	r2, #0
 800b900:	4628      	mov	r0, r5
 800b902:	f3af 8000 	nop.w
 800b906:	f109 0701 	add.w	r7, r9, #1
 800b90a:	f108 0804 	add.w	r8, r8, #4
 800b90e:	2800      	cmp	r0, #0
 800b910:	d0ec      	beq.n	800b8ec <__gnu_unwind_pr_common+0x1b0>
 800b912:	45d1      	cmp	r9, sl
 800b914:	465c      	mov	r4, fp
 800b916:	e9dd b702 	ldrd	fp, r7, [sp, #8]
 800b91a:	d1d6      	bne.n	800b8ca <__gnu_unwind_pr_common+0x18e>
 800b91c:	4630      	mov	r0, r6
 800b91e:	210d      	movs	r1, #13
 800b920:	f7ff fea4 	bl	800b66c <_Unwind_GetGR>
 800b924:	9b04      	ldr	r3, [sp, #16]
 800b926:	6228      	str	r0, [r5, #32]
 800b928:	e9c5 3409 	strd	r3, r4, [r5, #36]	; 0x24
 800b92c:	2006      	movs	r0, #6
 800b92e:	e773      	b.n	800b818 <__gnu_unwind_pr_common+0xdc>
 800b930:	6aab      	ldr	r3, [r5, #40]	; 0x28
 800b932:	429c      	cmp	r4, r3
 800b934:	d1c9      	bne.n	800b8ca <__gnu_unwind_pr_common+0x18e>
 800b936:	2204      	movs	r2, #4
 800b938:	f04f 0800 	mov.w	r8, #0
 800b93c:	18a3      	adds	r3, r4, r2
 800b93e:	e9c5 a80a 	strd	sl, r8, [r5, #40]	; 0x28
 800b942:	e9c5 230c 	strd	r2, r3, [r5, #48]	; 0x30
 800b946:	6823      	ldr	r3, [r4, #0]
 800b948:	4543      	cmp	r3, r8
 800b94a:	db4d      	blt.n	800b9e8 <__gnu_unwind_pr_common+0x2ac>
 800b94c:	2301      	movs	r3, #1
 800b94e:	9301      	str	r3, [sp, #4]
 800b950:	e757      	b.n	800b802 <__gnu_unwind_pr_common+0xc6>
 800b952:	4680      	mov	r8, r0
 800b954:	210d      	movs	r1, #13
 800b956:	4630      	mov	r0, r6
 800b958:	f7ff fe88 	bl	800b66c <_Unwind_GetGR>
 800b95c:	f1b8 0f02 	cmp.w	r8, #2
 800b960:	6228      	str	r0, [r5, #32]
 800b962:	d13e      	bne.n	800b9e2 <__gnu_unwind_pr_common+0x2a6>
 800b964:	462b      	mov	r3, r5
 800b966:	9a04      	ldr	r2, [sp, #16]
 800b968:	f843 2f2c 	str.w	r2, [r3, #44]!
 800b96c:	626b      	str	r3, [r5, #36]	; 0x24
 800b96e:	62ac      	str	r4, [r5, #40]	; 0x28
 800b970:	2006      	movs	r0, #6
 800b972:	e751      	b.n	800b818 <__gnu_unwind_pr_common+0xdc>
 800b974:	465c      	mov	r4, fp
 800b976:	e7d1      	b.n	800b91c <__gnu_unwind_pr_common+0x1e0>
 800b978:	a905      	add	r1, sp, #20
 800b97a:	4630      	mov	r0, r6
 800b97c:	f000 fa8e 	bl	800be9c <__gnu_unwind_execute>
 800b980:	2800      	cmp	r0, #0
 800b982:	f47f af48 	bne.w	800b816 <__gnu_unwind_pr_common+0xda>
 800b986:	9b01      	ldr	r3, [sp, #4]
 800b988:	2b00      	cmp	r3, #0
 800b98a:	f43f af54 	beq.w	800b836 <__gnu_unwind_pr_common+0xfa>
 800b98e:	210f      	movs	r1, #15
 800b990:	4630      	mov	r0, r6
 800b992:	f7ff fe6b 	bl	800b66c <_Unwind_GetGR>
 800b996:	210e      	movs	r1, #14
 800b998:	4602      	mov	r2, r0
 800b99a:	4630      	mov	r0, r6
 800b99c:	f7ff fe88 	bl	800b6b0 <_Unwind_SetGR>
 800b9a0:	4630      	mov	r0, r6
 800b9a2:	4a1a      	ldr	r2, [pc, #104]	; (800ba0c <__gnu_unwind_pr_common+0x2d0>)
 800b9a4:	210f      	movs	r1, #15
 800b9a6:	f7ff fe83 	bl	800b6b0 <_Unwind_SetGR>
 800b9aa:	2007      	movs	r0, #7
 800b9ac:	b009      	add	sp, #36	; 0x24
 800b9ae:	e8bd 8ff0 	ldmia.w	sp!, {r4, r5, r6, r7, r8, r9, sl, fp, pc}
 800b9b2:	4620      	mov	r0, r4
 800b9b4:	f7ff fc82 	bl	800b2bc <selfrel_offset31>
 800b9b8:	3404      	adds	r4, #4
 800b9ba:	4607      	mov	r7, r0
 800b9bc:	63ac      	str	r4, [r5, #56]	; 0x38
 800b9be:	4628      	mov	r0, r5
 800b9c0:	f3af 8000 	nop.w
 800b9c4:	2800      	cmp	r0, #0
 800b9c6:	f43f af26 	beq.w	800b816 <__gnu_unwind_pr_common+0xda>
 800b9ca:	4630      	mov	r0, r6
 800b9cc:	463a      	mov	r2, r7
 800b9ce:	210f      	movs	r1, #15
 800b9d0:	f7ff fe6e 	bl	800b6b0 <_Unwind_SetGR>
 800b9d4:	2007      	movs	r0, #7
 800b9d6:	e71f      	b.n	800b818 <__gnu_unwind_pr_common+0xdc>
 800b9d8:	4630      	mov	r0, r6
 800b9da:	210d      	movs	r1, #13
 800b9dc:	f7ff fe46 	bl	800b66c <_Unwind_GetGR>
 800b9e0:	6228      	str	r0, [r5, #32]
 800b9e2:	9b04      	ldr	r3, [sp, #16]
 800b9e4:	626b      	str	r3, [r5, #36]	; 0x24
 800b9e6:	e7c2      	b.n	800b96e <__gnu_unwind_pr_common+0x232>
 800b9e8:	f10a 0001 	add.w	r0, sl, #1
 800b9ec:	eb04 0080 	add.w	r0, r4, r0, lsl #2
 800b9f0:	f7ff fc64 	bl	800b2bc <selfrel_offset31>
 800b9f4:	210f      	movs	r1, #15
 800b9f6:	4602      	mov	r2, r0
 800b9f8:	4630      	mov	r0, r6
 800b9fa:	f7ff fe59 	bl	800b6b0 <_Unwind_SetGR>
 800b9fe:	4630      	mov	r0, r6
 800ba00:	462a      	mov	r2, r5
 800ba02:	4641      	mov	r1, r8
 800ba04:	f7ff fe54 	bl	800b6b0 <_Unwind_SetGR>
 800ba08:	2007      	movs	r0, #7
 800ba0a:	e705      	b.n	800b818 <__gnu_unwind_pr_common+0xdc>
 800ba0c:	00000000 	.word	0x00000000

0800ba10 <__aeabi_unwind_cpp_pr0>:
 800ba10:	2300      	movs	r3, #0
 800ba12:	e693      	b.n	800b73c <__gnu_unwind_pr_common>

0800ba14 <__aeabi_unwind_cpp_pr1>:
 800ba14:	2301      	movs	r3, #1
 800ba16:	e691      	b.n	800b73c <__gnu_unwind_pr_common>

0800ba18 <__aeabi_unwind_cpp_pr2>:
 800ba18:	2302      	movs	r3, #2
 800ba1a:	e68f      	b.n	800b73c <__gnu_unwind_pr_common>

0800ba1c <_Unwind_VRS_Pop>:
 800ba1c:	e92d 41f0 	stmdb	sp!, {r4, r5, r6, r7, r8, lr}
 800ba20:	4605      	mov	r5, r0
 800ba22:	b0c4      	sub	sp, #272	; 0x110
 800ba24:	2904      	cmp	r1, #4
 800ba26:	d806      	bhi.n	800ba36 <_Unwind_VRS_Pop+0x1a>
 800ba28:	e8df f001 	tbb	[pc, r1]
 800ba2c:	03052b4a 	.word	0x03052b4a
 800ba30:	09          	.byte	0x09
 800ba31:	00          	.byte	0x00
 800ba32:	2b03      	cmp	r3, #3
 800ba34:	d05e      	beq.n	800baf4 <_Unwind_VRS_Pop+0xd8>
 800ba36:	2002      	movs	r0, #2
 800ba38:	b044      	add	sp, #272	; 0x110
 800ba3a:	e8bd 81f0 	ldmia.w	sp!, {r4, r5, r6, r7, r8, pc}
 800ba3e:	2b00      	cmp	r3, #0
 800ba40:	d1f9      	bne.n	800ba36 <_Unwind_VRS_Pop+0x1a>
 800ba42:	2a10      	cmp	r2, #16
 800ba44:	d8f7      	bhi.n	800ba36 <_Unwind_VRS_Pop+0x1a>
 800ba46:	682b      	ldr	r3, [r5, #0]
 800ba48:	06dc      	lsls	r4, r3, #27
 800ba4a:	f100 80f3 	bmi.w	800bc34 <_Unwind_VRS_Pop+0x218>
 800ba4e:	ac22      	add	r4, sp, #136	; 0x88
 800ba50:	4620      	mov	r0, r4
 800ba52:	9201      	str	r2, [sp, #4]
 800ba54:	f000 f992 	bl	800bd7c <__gnu_Unwind_Save_WMMXC>
 800ba58:	6ba8      	ldr	r0, [r5, #56]	; 0x38
 800ba5a:	9a01      	ldr	r2, [sp, #4]
 800ba5c:	2300      	movs	r3, #0
 800ba5e:	2601      	movs	r6, #1
 800ba60:	fa06 f103 	lsl.w	r1, r6, r3
 800ba64:	4211      	tst	r1, r2
 800ba66:	d003      	beq.n	800ba70 <_Unwind_VRS_Pop+0x54>
 800ba68:	6801      	ldr	r1, [r0, #0]
 800ba6a:	f844 1023 	str.w	r1, [r4, r3, lsl #2]
 800ba6e:	3004      	adds	r0, #4
 800ba70:	3301      	adds	r3, #1
 800ba72:	2b04      	cmp	r3, #4
 800ba74:	d1f4      	bne.n	800ba60 <_Unwind_VRS_Pop+0x44>
 800ba76:	63a8      	str	r0, [r5, #56]	; 0x38
 800ba78:	4620      	mov	r0, r4
 800ba7a:	f000 f975 	bl	800bd68 <__gnu_Unwind_Restore_WMMXC>
 800ba7e:	2000      	movs	r0, #0
 800ba80:	e7da      	b.n	800ba38 <_Unwind_VRS_Pop+0x1c>
 800ba82:	2b01      	cmp	r3, #1
 800ba84:	ea4f 4612 	mov.w	r6, r2, lsr #16
 800ba88:	b297      	uxth	r7, r2
 800ba8a:	d051      	beq.n	800bb30 <_Unwind_VRS_Pop+0x114>
 800ba8c:	2b05      	cmp	r3, #5
 800ba8e:	d1d2      	bne.n	800ba36 <_Unwind_VRS_Pop+0x1a>
 800ba90:	eb06 0807 	add.w	r8, r6, r7
 800ba94:	f1b8 0f20 	cmp.w	r8, #32
 800ba98:	d8cd      	bhi.n	800ba36 <_Unwind_VRS_Pop+0x1a>
 800ba9a:	2e0f      	cmp	r6, #15
 800ba9c:	f240 8098 	bls.w	800bbd0 <_Unwind_VRS_Pop+0x1b4>
 800baa0:	46b8      	mov	r8, r7
 800baa2:	2f00      	cmp	r7, #0
 800baa4:	f040 80da 	bne.w	800bc5c <_Unwind_VRS_Pop+0x240>
 800baa8:	6baa      	ldr	r2, [r5, #56]	; 0x38
 800baaa:	63aa      	str	r2, [r5, #56]	; 0x38
 800baac:	2e0f      	cmp	r6, #15
 800baae:	f240 80bd 	bls.w	800bc2c <_Unwind_VRS_Pop+0x210>
 800bab2:	f1b8 0f00 	cmp.w	r8, #0
 800bab6:	d019      	beq.n	800baec <_Unwind_VRS_Pop+0xd0>
 800bab8:	a802      	add	r0, sp, #8
 800baba:	f000 f909 	bl	800bcd0 <__gnu_Unwind_Restore_VFP_D_16_to_31>
 800babe:	e015      	b.n	800baec <_Unwind_VRS_Pop+0xd0>
 800bac0:	2b00      	cmp	r3, #0
 800bac2:	d1b8      	bne.n	800ba36 <_Unwind_VRS_Pop+0x1a>
 800bac4:	6bac      	ldr	r4, [r5, #56]	; 0x38
 800bac6:	b297      	uxth	r7, r2
 800bac8:	1d28      	adds	r0, r5, #4
 800baca:	2601      	movs	r6, #1
 800bacc:	fa06 f103 	lsl.w	r1, r6, r3
 800bad0:	4239      	tst	r1, r7
 800bad2:	f103 0301 	add.w	r3, r3, #1
 800bad6:	d002      	beq.n	800bade <_Unwind_VRS_Pop+0xc2>
 800bad8:	6821      	ldr	r1, [r4, #0]
 800bada:	6001      	str	r1, [r0, #0]
 800badc:	3404      	adds	r4, #4
 800bade:	2b10      	cmp	r3, #16
 800bae0:	f100 0004 	add.w	r0, r0, #4
 800bae4:	d1f2      	bne.n	800bacc <_Unwind_VRS_Pop+0xb0>
 800bae6:	0496      	lsls	r6, r2, #18
 800bae8:	d400      	bmi.n	800baec <_Unwind_VRS_Pop+0xd0>
 800baea:	63ac      	str	r4, [r5, #56]	; 0x38
 800baec:	2000      	movs	r0, #0
 800baee:	b044      	add	sp, #272	; 0x110
 800baf0:	e8bd 81f0 	ldmia.w	sp!, {r4, r5, r6, r7, r8, pc}
 800baf4:	0c16      	lsrs	r6, r2, #16
 800baf6:	b297      	uxth	r7, r2
 800baf8:	19f3      	adds	r3, r6, r7
 800bafa:	2b10      	cmp	r3, #16
 800bafc:	d89b      	bhi.n	800ba36 <_Unwind_VRS_Pop+0x1a>
 800bafe:	682b      	ldr	r3, [r5, #0]
 800bb00:	071a      	lsls	r2, r3, #28
 800bb02:	d45d      	bmi.n	800bbc0 <_Unwind_VRS_Pop+0x1a4>
 800bb04:	ac22      	add	r4, sp, #136	; 0x88
 800bb06:	4620      	mov	r0, r4
 800bb08:	f000 f90c 	bl	800bd24 <__gnu_Unwind_Save_WMMXD>
 800bb0c:	eb04 01c6 	add.w	r1, r4, r6, lsl #3
 800bb10:	6bab      	ldr	r3, [r5, #56]	; 0x38
 800bb12:	b13f      	cbz	r7, 800bb24 <_Unwind_VRS_Pop+0x108>
 800bb14:	eb03 02c7 	add.w	r2, r3, r7, lsl #3
 800bb18:	6818      	ldr	r0, [r3, #0]
 800bb1a:	f841 0b04 	str.w	r0, [r1], #4
 800bb1e:	3304      	adds	r3, #4
 800bb20:	4293      	cmp	r3, r2
 800bb22:	d1f9      	bne.n	800bb18 <_Unwind_VRS_Pop+0xfc>
 800bb24:	4620      	mov	r0, r4
 800bb26:	63ab      	str	r3, [r5, #56]	; 0x38
 800bb28:	f000 f8da 	bl	800bce0 <__gnu_Unwind_Restore_WMMXD>
 800bb2c:	2000      	movs	r0, #0
 800bb2e:	e783      	b.n	800ba38 <_Unwind_VRS_Pop+0x1c>
 800bb30:	19f2      	adds	r2, r6, r7
 800bb32:	2a10      	cmp	r2, #16
 800bb34:	f63f af7f 	bhi.w	800ba36 <_Unwind_VRS_Pop+0x1a>
 800bb38:	2e0f      	cmp	r6, #15
 800bb3a:	f63f af7c 	bhi.w	800ba36 <_Unwind_VRS_Pop+0x1a>
 800bb3e:	682a      	ldr	r2, [r5, #0]
 800bb40:	07d1      	lsls	r1, r2, #31
 800bb42:	d508      	bpl.n	800bb56 <_Unwind_VRS_Pop+0x13a>
 800bb44:	4628      	mov	r0, r5
 800bb46:	f022 0203 	bic.w	r2, r2, #3
 800bb4a:	f840 2b48 	str.w	r2, [r0], #72
 800bb4e:	9301      	str	r3, [sp, #4]
 800bb50:	f000 f8b2 	bl	800bcb8 <__gnu_Unwind_Save_VFP>
 800bb54:	9b01      	ldr	r3, [sp, #4]
 800bb56:	9301      	str	r3, [sp, #4]
 800bb58:	ac22      	add	r4, sp, #136	; 0x88
 800bb5a:	4620      	mov	r0, r4
 800bb5c:	f000 f8ac 	bl	800bcb8 <__gnu_Unwind_Save_VFP>
 800bb60:	6ba9      	ldr	r1, [r5, #56]	; 0x38
 800bb62:	9b01      	ldr	r3, [sp, #4]
 800bb64:	2f00      	cmp	r7, #0
 800bb66:	f000 8095 	beq.w	800bc94 <_Unwind_VRS_Pop+0x278>
 800bb6a:	007f      	lsls	r7, r7, #1
 800bb6c:	eb04 04c6 	add.w	r4, r4, r6, lsl #3
 800bb70:	f04f 0800 	mov.w	r8, #0
 800bb74:	3c04      	subs	r4, #4
 800bb76:	eb01 0287 	add.w	r2, r1, r7, lsl #2
 800bb7a:	f851 0b04 	ldr.w	r0, [r1], #4
 800bb7e:	f844 0f04 	str.w	r0, [r4, #4]!
 800bb82:	4291      	cmp	r1, r2
 800bb84:	d1f9      	bne.n	800bb7a <_Unwind_VRS_Pop+0x15e>
 800bb86:	f1b8 0f00 	cmp.w	r8, #0
 800bb8a:	d00f      	beq.n	800bbac <_Unwind_VRS_Pop+0x190>
 800bb8c:	ac02      	add	r4, sp, #8
 800bb8e:	2e10      	cmp	r6, #16
 800bb90:	4631      	mov	r1, r6
 800bb92:	bf38      	it	cc
 800bb94:	2110      	movcc	r1, #16
 800bb96:	eb04 01c1 	add.w	r1, r4, r1, lsl #3
 800bb9a:	3984      	subs	r1, #132	; 0x84
 800bb9c:	eb02 04c8 	add.w	r4, r2, r8, lsl #3
 800bba0:	f852 0b04 	ldr.w	r0, [r2], #4
 800bba4:	f841 0f04 	str.w	r0, [r1, #4]!
 800bba8:	4294      	cmp	r4, r2
 800bbaa:	d1f9      	bne.n	800bba0 <_Unwind_VRS_Pop+0x184>
 800bbac:	2b01      	cmp	r3, #1
 800bbae:	f47f af7c 	bne.w	800baaa <_Unwind_VRS_Pop+0x8e>
 800bbb2:	ac22      	add	r4, sp, #136	; 0x88
 800bbb4:	3204      	adds	r2, #4
 800bbb6:	63aa      	str	r2, [r5, #56]	; 0x38
 800bbb8:	4620      	mov	r0, r4
 800bbba:	f000 f879 	bl	800bcb0 <__gnu_Unwind_Restore_VFP>
 800bbbe:	e795      	b.n	800baec <_Unwind_VRS_Pop+0xd0>
 800bbc0:	f023 0308 	bic.w	r3, r3, #8
 800bbc4:	602b      	str	r3, [r5, #0]
 800bbc6:	f505 70a8 	add.w	r0, r5, #336	; 0x150
 800bbca:	f000 f8ab 	bl	800bd24 <__gnu_Unwind_Save_WMMXD>
 800bbce:	e799      	b.n	800bb04 <_Unwind_VRS_Pop+0xe8>
 800bbd0:	f1b8 0f10 	cmp.w	r8, #16
 800bbd4:	682a      	ldr	r2, [r5, #0]
 800bbd6:	d943      	bls.n	800bc60 <_Unwind_VRS_Pop+0x244>
 800bbd8:	07d0      	lsls	r0, r2, #31
 800bbda:	f1a8 0810 	sub.w	r8, r8, #16
 800bbde:	d50b      	bpl.n	800bbf8 <_Unwind_VRS_Pop+0x1dc>
 800bbe0:	4628      	mov	r0, r5
 800bbe2:	f022 0201 	bic.w	r2, r2, #1
 800bbe6:	f042 0202 	orr.w	r2, r2, #2
 800bbea:	f840 2b48 	str.w	r2, [r0], #72
 800bbee:	9301      	str	r3, [sp, #4]
 800bbf0:	f000 f86a 	bl	800bcc8 <__gnu_Unwind_Save_VFP_D>
 800bbf4:	682a      	ldr	r2, [r5, #0]
 800bbf6:	9b01      	ldr	r3, [sp, #4]
 800bbf8:	0751      	lsls	r1, r2, #29
 800bbfa:	d425      	bmi.n	800bc48 <_Unwind_VRS_Pop+0x22c>
 800bbfc:	2e0f      	cmp	r6, #15
 800bbfe:	d804      	bhi.n	800bc0a <_Unwind_VRS_Pop+0x1ee>
 800bc00:	a822      	add	r0, sp, #136	; 0x88
 800bc02:	9301      	str	r3, [sp, #4]
 800bc04:	f000 f860 	bl	800bcc8 <__gnu_Unwind_Save_VFP_D>
 800bc08:	9b01      	ldr	r3, [sp, #4]
 800bc0a:	9301      	str	r3, [sp, #4]
 800bc0c:	ac02      	add	r4, sp, #8
 800bc0e:	4620      	mov	r0, r4
 800bc10:	f000 f862 	bl	800bcd8 <__gnu_Unwind_Save_VFP_D_16_to_31>
 800bc14:	f1c6 0110 	rsb	r1, r6, #16
 800bc18:	2900      	cmp	r1, #0
 800bc1a:	6baa      	ldr	r2, [r5, #56]	; 0x38
 800bc1c:	9b01      	ldr	r3, [sp, #4]
 800bc1e:	ddb6      	ble.n	800bb8e <_Unwind_VRS_Pop+0x172>
 800bc20:	ac22      	add	r4, sp, #136	; 0x88
 800bc22:	004f      	lsls	r7, r1, #1
 800bc24:	eb04 04c6 	add.w	r4, r4, r6, lsl #3
 800bc28:	4611      	mov	r1, r2
 800bc2a:	e7a3      	b.n	800bb74 <_Unwind_VRS_Pop+0x158>
 800bc2c:	a822      	add	r0, sp, #136	; 0x88
 800bc2e:	f000 f847 	bl	800bcc0 <__gnu_Unwind_Restore_VFP_D>
 800bc32:	e73e      	b.n	800bab2 <_Unwind_VRS_Pop+0x96>
 800bc34:	f023 0310 	bic.w	r3, r3, #16
 800bc38:	602b      	str	r3, [r5, #0]
 800bc3a:	f505 70e8 	add.w	r0, r5, #464	; 0x1d0
 800bc3e:	9201      	str	r2, [sp, #4]
 800bc40:	f000 f89c 	bl	800bd7c <__gnu_Unwind_Save_WMMXC>
 800bc44:	9a01      	ldr	r2, [sp, #4]
 800bc46:	e702      	b.n	800ba4e <_Unwind_VRS_Pop+0x32>
 800bc48:	4628      	mov	r0, r5
 800bc4a:	f022 0204 	bic.w	r2, r2, #4
 800bc4e:	f840 2bd0 	str.w	r2, [r0], #208
 800bc52:	9301      	str	r3, [sp, #4]
 800bc54:	f000 f840 	bl	800bcd8 <__gnu_Unwind_Save_VFP_D_16_to_31>
 800bc58:	9b01      	ldr	r3, [sp, #4]
 800bc5a:	e7cf      	b.n	800bbfc <_Unwind_VRS_Pop+0x1e0>
 800bc5c:	682a      	ldr	r2, [r5, #0]
 800bc5e:	e7cb      	b.n	800bbf8 <_Unwind_VRS_Pop+0x1dc>
 800bc60:	07d0      	lsls	r0, r2, #31
 800bc62:	d50a      	bpl.n	800bc7a <_Unwind_VRS_Pop+0x25e>
 800bc64:	4628      	mov	r0, r5
 800bc66:	f022 0201 	bic.w	r2, r2, #1
 800bc6a:	f042 0202 	orr.w	r2, r2, #2
 800bc6e:	f840 2b48 	str.w	r2, [r0], #72
 800bc72:	9301      	str	r3, [sp, #4]
 800bc74:	f000 f828 	bl	800bcc8 <__gnu_Unwind_Save_VFP_D>
 800bc78:	9b01      	ldr	r3, [sp, #4]
 800bc7a:	9301      	str	r3, [sp, #4]
 800bc7c:	ac22      	add	r4, sp, #136	; 0x88
 800bc7e:	4620      	mov	r0, r4
 800bc80:	f000 f822 	bl	800bcc8 <__gnu_Unwind_Save_VFP_D>
 800bc84:	46b8      	mov	r8, r7
 800bc86:	6ba9      	ldr	r1, [r5, #56]	; 0x38
 800bc88:	9b01      	ldr	r3, [sp, #4]
 800bc8a:	2f00      	cmp	r7, #0
 800bc8c:	f47f af6d 	bne.w	800bb6a <_Unwind_VRS_Pop+0x14e>
 800bc90:	460a      	mov	r2, r1
 800bc92:	e70a      	b.n	800baaa <_Unwind_VRS_Pop+0x8e>
 800bc94:	460a      	mov	r2, r1
 800bc96:	e78d      	b.n	800bbb4 <_Unwind_VRS_Pop+0x198>

0800bc98 <__restore_core_regs>:
 800bc98:	f100 0134 	add.w	r1, r0, #52	; 0x34
 800bc9c:	e891 0038 	ldmia.w	r1, {r3, r4, r5}
 800bca0:	469c      	mov	ip, r3
 800bca2:	46a6      	mov	lr, r4
 800bca4:	f84c 5d04 	str.w	r5, [ip, #-4]!
 800bca8:	e890 0fff 	ldmia.w	r0, {r0, r1, r2, r3, r4, r5, r6, r7, r8, r9, sl, fp}
 800bcac:	46e5      	mov	sp, ip
 800bcae:	bd00      	pop	{pc}

0800bcb0 <__gnu_Unwind_Restore_VFP>:
 800bcb0:	ec90 0b21 	fldmiax	r0, {d0-d15}	;@ Deprecated
 800bcb4:	4770      	bx	lr
 800bcb6:	bf00      	nop

0800bcb8 <__gnu_Unwind_Save_VFP>:
 800bcb8:	ec80 0b21 	fstmiax	r0, {d0-d15}	;@ Deprecated
 800bcbc:	4770      	bx	lr
 800bcbe:	bf00      	nop

0800bcc0 <__gnu_Unwind_Restore_VFP_D>:
 800bcc0:	ec90 0b20 	vldmia	r0, {d0-d15}
 800bcc4:	4770      	bx	lr
 800bcc6:	bf00      	nop

0800bcc8 <__gnu_Unwind_Save_VFP_D>:
 800bcc8:	ec80 0b20 	vstmia	r0, {d0-d15}
 800bccc:	4770      	bx	lr
 800bcce:	bf00      	nop

0800bcd0 <__gnu_Unwind_Restore_VFP_D_16_to_31>:
 800bcd0:	ecd0 0b20 	vldmia	r0, {d16-d31}
 800bcd4:	4770      	bx	lr
 800bcd6:	bf00      	nop

0800bcd8 <__gnu_Unwind_Save_VFP_D_16_to_31>:
 800bcd8:	ecc0 0b20 	vstmia	r0, {d16-d31}
 800bcdc:	4770      	bx	lr
 800bcde:	bf00      	nop

0800bce0 <__gnu_Unwind_Restore_WMMXD>:
 800bce0:	ecf0 0102 	ldfe	f0, [r0], #8
 800bce4:	ecf0 1102 	ldfe	f1, [r0], #8
 800bce8:	ecf0 2102 	ldfe	f2, [r0], #8
 800bcec:	ecf0 3102 	ldfe	f3, [r0], #8
 800bcf0:	ecf0 4102 	ldfe	f4, [r0], #8
 800bcf4:	ecf0 5102 	ldfe	f5, [r0], #8
 800bcf8:	ecf0 6102 	ldfe	f6, [r0], #8
 800bcfc:	ecf0 7102 	ldfe	f7, [r0], #8
 800bd00:	ecf0 8102 	ldfp	f0, [r0], #8
 800bd04:	ecf0 9102 	ldfp	f1, [r0], #8
 800bd08:	ecf0 a102 	ldfp	f2, [r0], #8
 800bd0c:	ecf0 b102 	ldfp	f3, [r0], #8
 800bd10:	ecf0 c102 	ldfp	f4, [r0], #8
 800bd14:	ecf0 d102 	ldfp	f5, [r0], #8
 800bd18:	ecf0 e102 	ldfp	f6, [r0], #8
 800bd1c:	ecf0 f102 	ldfp	f7, [r0], #8
 800bd20:	4770      	bx	lr
 800bd22:	bf00      	nop

0800bd24 <__gnu_Unwind_Save_WMMXD>:
 800bd24:	ece0 0102 	stfe	f0, [r0], #8
 800bd28:	ece0 1102 	stfe	f1, [r0], #8
 800bd2c:	ece0 2102 	stfe	f2, [r0], #8
 800bd30:	ece0 3102 	stfe	f3, [r0], #8
 800bd34:	ece0 4102 	stfe	f4, [r0], #8
 800bd38:	ece0 5102 	stfe	f5, [r0], #8
 800bd3c:	ece0 6102 	stfe	f6, [r0], #8
 800bd40:	ece0 7102 	stfe	f7, [r0], #8
 800bd44:	ece0 8102 	stfp	f0, [r0], #8
 800bd48:	ece0 9102 	stfp	f1, [r0], #8
 800bd4c:	ece0 a102 	stfp	f2, [r0], #8
 800bd50:	ece0 b102 	stfp	f3, [r0], #8
 800bd54:	ece0 c102 	stfp	f4, [r0], #8
 800bd58:	ece0 d102 	stfp	f5, [r0], #8
 800bd5c:	ece0 e102 	stfp	f6, [r0], #8
 800bd60:	ece0 f102 	stfp	f7, [r0], #8
 800bd64:	4770      	bx	lr
 800bd66:	bf00      	nop

0800bd68 <__gnu_Unwind_Restore_WMMXC>:
 800bd68:	fcb0 8101 	ldc2	1, cr8, [r0], #4
 800bd6c:	fcb0 9101 	ldc2	1, cr9, [r0], #4
 800bd70:	fcb0 a101 	ldc2	1, cr10, [r0], #4
 800bd74:	fcb0 b101 	ldc2	1, cr11, [r0], #4
 800bd78:	4770      	bx	lr
 800bd7a:	bf00      	nop

0800bd7c <__gnu_Unwind_Save_WMMXC>:
 800bd7c:	fca0 8101 	stc2	1, cr8, [r0], #4
 800bd80:	fca0 9101 	stc2	1, cr9, [r0], #4
 800bd84:	fca0 a101 	stc2	1, cr10, [r0], #4
 800bd88:	fca0 b101 	stc2	1, cr11, [r0], #4
 800bd8c:	4770      	bx	lr
 800bd8e:	bf00      	nop

0800bd90 <_Unwind_RaiseException>:
 800bd90:	46ec      	mov	ip, sp
 800bd92:	b500      	push	{lr}
 800bd94:	e92d 5000 	stmdb	sp!, {ip, lr}
 800bd98:	e92d 1fff 	stmdb	sp!, {r0, r1, r2, r3, r4, r5, r6, r7, r8, r9, sl, fp, ip}
 800bd9c:	f04f 0300 	mov.w	r3, #0
 800bda0:	e92d 000c 	stmdb	sp!, {r2, r3}
 800bda4:	a901      	add	r1, sp, #4
 800bda6:	f7ff fbdf 	bl	800b568 <__gnu_Unwind_RaiseException>
 800bdaa:	f8dd e040 	ldr.w	lr, [sp, #64]	; 0x40
 800bdae:	b012      	add	sp, #72	; 0x48
 800bdb0:	4770      	bx	lr
 800bdb2:	bf00      	nop

0800bdb4 <_Unwind_Resume>:
 800bdb4:	46ec      	mov	ip, sp
 800bdb6:	b500      	push	{lr}
 800bdb8:	e92d 5000 	stmdb	sp!, {ip, lr}
 800bdbc:	e92d 1fff 	stmdb	sp!, {r0, r1, r2, r3, r4, r5, r6, r7, r8, r9, sl, fp, ip}
 800bdc0:	f04f 0300 	mov.w	r3, #0
 800bdc4:	e92d 000c 	stmdb	sp!, {r2, r3}
 800bdc8:	a901      	add	r1, sp, #4
 800bdca:	f7ff fc07 	bl	800b5dc <__gnu_Unwind_Resume>
 800bdce:	f8dd e040 	ldr.w	lr, [sp, #64]	; 0x40
 800bdd2:	b012      	add	sp, #72	; 0x48
 800bdd4:	4770      	bx	lr
 800bdd6:	bf00      	nop

0800bdd8 <_Unwind_Resume_or_Rethrow>:
 800bdd8:	46ec      	mov	ip, sp
 800bdda:	b500      	push	{lr}
 800bddc:	e92d 5000 	stmdb	sp!, {ip, lr}
 800bde0:	e92d 1fff 	stmdb	sp!, {r0, r1, r2, r3, r4, r5, r6, r7, r8, r9, sl, fp, ip}
 800bde4:	f04f 0300 	mov.w	r3, #0
 800bde8:	e92d 000c 	stmdb	sp!, {r2, r3}
 800bdec:	a901      	add	r1, sp, #4
 800bdee:	f7ff fc17 	bl	800b620 <__gnu_Unwind_Resume_or_Rethrow>
 800bdf2:	f8dd e040 	ldr.w	lr, [sp, #64]	; 0x40
 800bdf6:	b012      	add	sp, #72	; 0x48
 800bdf8:	4770      	bx	lr
 800bdfa:	bf00      	nop

0800bdfc <_Unwind_ForcedUnwind>:
 800bdfc:	46ec      	mov	ip, sp
 800bdfe:	b500      	push	{lr}
 800be00:	e92d 5000 	stmdb	sp!, {ip, lr}
 800be04:	e92d 1fff 	stmdb	sp!, {r0, r1, r2, r3, r4, r5, r6, r7, r8, r9, sl, fp, ip}
 800be08:	f04f 0300 	mov.w	r3, #0
 800be0c:	e92d 000c 	stmdb	sp!, {r2, r3}
 800be10:	ab01      	add	r3, sp, #4
 800be12:	f7ff fbd9 	bl	800b5c8 <__gnu_Unwind_ForcedUnwind>
 800be16:	f8dd e040 	ldr.w	lr, [sp, #64]	; 0x40
 800be1a:	b012      	add	sp, #72	; 0x48
 800be1c:	4770      	bx	lr
 800be1e:	bf00      	nop

0800be20 <_Unwind_Backtrace>:
 800be20:	46ec      	mov	ip, sp
 800be22:	b500      	push	{lr}
 800be24:	e92d 5000 	stmdb	sp!, {ip, lr}
 800be28:	e92d 1fff 	stmdb	sp!, {r0, r1, r2, r3, r4, r5, r6, r7, r8, r9, sl, fp, ip}
 800be2c:	f04f 0300 	mov.w	r3, #0
 800be30:	e92d 000c 	stmdb	sp!, {r2, r3}
 800be34:	aa01      	add	r2, sp, #4
 800be36:	f7ff fc49 	bl	800b6cc <__gnu_Unwind_Backtrace>
 800be3a:	f8dd e040 	ldr.w	lr, [sp, #64]	; 0x40
 800be3e:	b012      	add	sp, #72	; 0x48
 800be40:	4770      	bx	lr
 800be42:	bf00      	nop

0800be44 <next_unwind_byte>:
 800be44:	7a02      	ldrb	r2, [r0, #8]
 800be46:	b982      	cbnz	r2, 800be6a <next_unwind_byte+0x26>
 800be48:	7a43      	ldrb	r3, [r0, #9]
 800be4a:	b1ab      	cbz	r3, 800be78 <next_unwind_byte+0x34>
 800be4c:	6842      	ldr	r2, [r0, #4]
 800be4e:	3b01      	subs	r3, #1
 800be50:	b410      	push	{r4}
 800be52:	7243      	strb	r3, [r0, #9]
 800be54:	6813      	ldr	r3, [r2, #0]
 800be56:	2103      	movs	r1, #3
 800be58:	1d14      	adds	r4, r2, #4
 800be5a:	7201      	strb	r1, [r0, #8]
 800be5c:	021a      	lsls	r2, r3, #8
 800be5e:	6044      	str	r4, [r0, #4]
 800be60:	6002      	str	r2, [r0, #0]
 800be62:	f85d 4b04 	ldr.w	r4, [sp], #4
 800be66:	0e18      	lsrs	r0, r3, #24
 800be68:	4770      	bx	lr
 800be6a:	6803      	ldr	r3, [r0, #0]
 800be6c:	3a01      	subs	r2, #1
 800be6e:	7202      	strb	r2, [r0, #8]
 800be70:	021a      	lsls	r2, r3, #8
 800be72:	6002      	str	r2, [r0, #0]
 800be74:	0e18      	lsrs	r0, r3, #24
 800be76:	4770      	bx	lr
 800be78:	20b0      	movs	r0, #176	; 0xb0
 800be7a:	4770      	bx	lr

0800be7c <_Unwind_GetGR.constprop.0>:
 800be7c:	b500      	push	{lr}
 800be7e:	b085      	sub	sp, #20
 800be80:	aa03      	add	r2, sp, #12
 800be82:	2300      	movs	r3, #0
 800be84:	9200      	str	r2, [sp, #0]
 800be86:	4619      	mov	r1, r3
 800be88:	220c      	movs	r2, #12
 800be8a:	f7ff fbd9 	bl	800b640 <_Unwind_VRS_Get>
 800be8e:	9803      	ldr	r0, [sp, #12]
 800be90:	b005      	add	sp, #20
 800be92:	f85d fb04 	ldr.w	pc, [sp], #4
 800be96:	bf00      	nop

0800be98 <unwind_UCB_from_context>:
 800be98:	e7f0      	b.n	800be7c <_Unwind_GetGR.constprop.0>
 800be9a:	bf00      	nop

0800be9c <__gnu_unwind_execute>:
 800be9c:	e92d 43f0 	stmdb	sp!, {r4, r5, r6, r7, r8, r9, lr}
 800bea0:	4605      	mov	r5, r0
 800bea2:	b085      	sub	sp, #20
 800bea4:	460e      	mov	r6, r1
 800bea6:	f04f 0800 	mov.w	r8, #0
 800beaa:	4630      	mov	r0, r6
 800beac:	f7ff ffca 	bl	800be44 <next_unwind_byte>
 800beb0:	28b0      	cmp	r0, #176	; 0xb0
 800beb2:	4604      	mov	r4, r0
 800beb4:	f000 80b1 	beq.w	800c01a <__gnu_unwind_execute+0x17e>
 800beb8:	0607      	lsls	r7, r0, #24
 800beba:	d520      	bpl.n	800befe <__gnu_unwind_execute+0x62>
 800bebc:	f000 03f0 	and.w	r3, r0, #240	; 0xf0
 800bec0:	2b80      	cmp	r3, #128	; 0x80
 800bec2:	d065      	beq.n	800bf90 <__gnu_unwind_execute+0xf4>
 800bec4:	2b90      	cmp	r3, #144	; 0x90
 800bec6:	d036      	beq.n	800bf36 <__gnu_unwind_execute+0x9a>
 800bec8:	2ba0      	cmp	r3, #160	; 0xa0
 800beca:	d078      	beq.n	800bfbe <__gnu_unwind_execute+0x122>
 800becc:	2bb0      	cmp	r3, #176	; 0xb0
 800bece:	d047      	beq.n	800bf60 <__gnu_unwind_execute+0xc4>
 800bed0:	2bc0      	cmp	r3, #192	; 0xc0
 800bed2:	f000 808a 	beq.w	800bfea <__gnu_unwind_execute+0x14e>
 800bed6:	f000 03f8 	and.w	r3, r0, #248	; 0xf8
 800beda:	2bd0      	cmp	r3, #208	; 0xd0
 800bedc:	d10b      	bne.n	800bef6 <__gnu_unwind_execute+0x5a>
 800bede:	f000 0207 	and.w	r2, r0, #7
 800bee2:	3201      	adds	r2, #1
 800bee4:	f442 2200 	orr.w	r2, r2, #524288	; 0x80000
 800bee8:	2305      	movs	r3, #5
 800beea:	2101      	movs	r1, #1
 800beec:	4628      	mov	r0, r5
 800beee:	f7ff fd95 	bl	800ba1c <_Unwind_VRS_Pop>
 800bef2:	2800      	cmp	r0, #0
 800bef4:	d0d9      	beq.n	800beaa <__gnu_unwind_execute+0xe>
 800bef6:	2009      	movs	r0, #9
 800bef8:	b005      	add	sp, #20
 800befa:	e8bd 83f0 	ldmia.w	sp!, {r4, r5, r6, r7, r8, r9, pc}
 800befe:	f10d 090c 	add.w	r9, sp, #12
 800bf02:	2300      	movs	r3, #0
 800bf04:	4619      	mov	r1, r3
 800bf06:	0087      	lsls	r7, r0, #2
 800bf08:	f8cd 9000 	str.w	r9, [sp]
 800bf0c:	220d      	movs	r2, #13
 800bf0e:	4628      	mov	r0, r5
 800bf10:	f7ff fb96 	bl	800b640 <_Unwind_VRS_Get>
 800bf14:	b2ff      	uxtb	r7, r7
 800bf16:	9b03      	ldr	r3, [sp, #12]
 800bf18:	f8cd 9000 	str.w	r9, [sp]
 800bf1c:	3704      	adds	r7, #4
 800bf1e:	0660      	lsls	r0, r4, #25
 800bf20:	bf4c      	ite	mi
 800bf22:	1bdf      	submi	r7, r3, r7
 800bf24:	18ff      	addpl	r7, r7, r3
 800bf26:	2300      	movs	r3, #0
 800bf28:	4619      	mov	r1, r3
 800bf2a:	220d      	movs	r2, #13
 800bf2c:	4628      	mov	r0, r5
 800bf2e:	9703      	str	r7, [sp, #12]
 800bf30:	f7ff fba8 	bl	800b684 <_Unwind_VRS_Set>
 800bf34:	e7b9      	b.n	800beaa <__gnu_unwind_execute+0xe>
 800bf36:	f000 030d 	and.w	r3, r0, #13
 800bf3a:	2b0d      	cmp	r3, #13
 800bf3c:	d0db      	beq.n	800bef6 <__gnu_unwind_execute+0x5a>
 800bf3e:	af03      	add	r7, sp, #12
 800bf40:	2300      	movs	r3, #0
 800bf42:	f000 020f 	and.w	r2, r0, #15
 800bf46:	4619      	mov	r1, r3
 800bf48:	9700      	str	r7, [sp, #0]
 800bf4a:	4628      	mov	r0, r5
 800bf4c:	f7ff fb78 	bl	800b640 <_Unwind_VRS_Get>
 800bf50:	2300      	movs	r3, #0
 800bf52:	9700      	str	r7, [sp, #0]
 800bf54:	4619      	mov	r1, r3
 800bf56:	220d      	movs	r2, #13
 800bf58:	4628      	mov	r0, r5
 800bf5a:	f7ff fb93 	bl	800b684 <_Unwind_VRS_Set>
 800bf5e:	e7a4      	b.n	800beaa <__gnu_unwind_execute+0xe>
 800bf60:	28b1      	cmp	r0, #177	; 0xb1
 800bf62:	d05f      	beq.n	800c024 <__gnu_unwind_execute+0x188>
 800bf64:	28b2      	cmp	r0, #178	; 0xb2
 800bf66:	f000 80cb 	beq.w	800c100 <__gnu_unwind_execute+0x264>
 800bf6a:	28b3      	cmp	r0, #179	; 0xb3
 800bf6c:	d07d      	beq.n	800c06a <__gnu_unwind_execute+0x1ce>
 800bf6e:	f000 03fc 	and.w	r3, r0, #252	; 0xfc
 800bf72:	2bb4      	cmp	r3, #180	; 0xb4
 800bf74:	d0bf      	beq.n	800bef6 <__gnu_unwind_execute+0x5a>
 800bf76:	f000 0207 	and.w	r2, r0, #7
 800bf7a:	3201      	adds	r2, #1
 800bf7c:	2301      	movs	r3, #1
 800bf7e:	f442 2200 	orr.w	r2, r2, #524288	; 0x80000
 800bf82:	4619      	mov	r1, r3
 800bf84:	4628      	mov	r0, r5
 800bf86:	f7ff fd49 	bl	800ba1c <_Unwind_VRS_Pop>
 800bf8a:	2800      	cmp	r0, #0
 800bf8c:	d08d      	beq.n	800beaa <__gnu_unwind_execute+0xe>
 800bf8e:	e7b2      	b.n	800bef6 <__gnu_unwind_execute+0x5a>
 800bf90:	4630      	mov	r0, r6
 800bf92:	f7ff ff57 	bl	800be44 <next_unwind_byte>
 800bf96:	0224      	lsls	r4, r4, #8
 800bf98:	4304      	orrs	r4, r0
 800bf9a:	f5b4 4f00 	cmp.w	r4, #32768	; 0x8000
 800bf9e:	d0aa      	beq.n	800bef6 <__gnu_unwind_execute+0x5a>
 800bfa0:	0124      	lsls	r4, r4, #4
 800bfa2:	2300      	movs	r3, #0
 800bfa4:	b2a2      	uxth	r2, r4
 800bfa6:	4619      	mov	r1, r3
 800bfa8:	4628      	mov	r0, r5
 800bfaa:	f7ff fd37 	bl	800ba1c <_Unwind_VRS_Pop>
 800bfae:	2800      	cmp	r0, #0
 800bfb0:	d1a1      	bne.n	800bef6 <__gnu_unwind_execute+0x5a>
 800bfb2:	f414 4f00 	tst.w	r4, #32768	; 0x8000
 800bfb6:	bf18      	it	ne
 800bfb8:	f04f 0801 	movne.w	r8, #1
 800bfbc:	e775      	b.n	800beaa <__gnu_unwind_execute+0xe>
 800bfbe:	43c2      	mvns	r2, r0
 800bfc0:	f002 0307 	and.w	r3, r2, #7
 800bfc4:	f44f 627f 	mov.w	r2, #4080	; 0xff0
 800bfc8:	411a      	asrs	r2, r3
 800bfca:	0701      	lsls	r1, r0, #28
 800bfcc:	f402 627f 	and.w	r2, r2, #4080	; 0xff0
 800bfd0:	f04f 0300 	mov.w	r3, #0
 800bfd4:	bf48      	it	mi
 800bfd6:	f442 4280 	orrmi.w	r2, r2, #16384	; 0x4000
 800bfda:	4619      	mov	r1, r3
 800bfdc:	4628      	mov	r0, r5
 800bfde:	f7ff fd1d 	bl	800ba1c <_Unwind_VRS_Pop>
 800bfe2:	2800      	cmp	r0, #0
 800bfe4:	f43f af61 	beq.w	800beaa <__gnu_unwind_execute+0xe>
 800bfe8:	e785      	b.n	800bef6 <__gnu_unwind_execute+0x5a>
 800bfea:	28c6      	cmp	r0, #198	; 0xc6
 800bfec:	d050      	beq.n	800c090 <__gnu_unwind_execute+0x1f4>
 800bfee:	28c7      	cmp	r0, #199	; 0xc7
 800bff0:	d059      	beq.n	800c0a6 <__gnu_unwind_execute+0x20a>
 800bff2:	f000 03f8 	and.w	r3, r0, #248	; 0xf8
 800bff6:	2bc0      	cmp	r3, #192	; 0xc0
 800bff8:	d068      	beq.n	800c0cc <__gnu_unwind_execute+0x230>
 800bffa:	28c8      	cmp	r0, #200	; 0xc8
 800bffc:	d074      	beq.n	800c0e8 <__gnu_unwind_execute+0x24c>
 800bffe:	28c9      	cmp	r0, #201	; 0xc9
 800c000:	f47f af79 	bne.w	800bef6 <__gnu_unwind_execute+0x5a>
 800c004:	4630      	mov	r0, r6
 800c006:	f7ff ff1d 	bl	800be44 <next_unwind_byte>
 800c00a:	0302      	lsls	r2, r0, #12
 800c00c:	f000 000f 	and.w	r0, r0, #15
 800c010:	f402 2270 	and.w	r2, r2, #983040	; 0xf0000
 800c014:	3001      	adds	r0, #1
 800c016:	4302      	orrs	r2, r0
 800c018:	e766      	b.n	800bee8 <__gnu_unwind_execute+0x4c>
 800c01a:	f1b8 0f00 	cmp.w	r8, #0
 800c01e:	d014      	beq.n	800c04a <__gnu_unwind_execute+0x1ae>
 800c020:	2000      	movs	r0, #0
 800c022:	e769      	b.n	800bef8 <__gnu_unwind_execute+0x5c>
 800c024:	4630      	mov	r0, r6
 800c026:	f7ff ff0d 	bl	800be44 <next_unwind_byte>
 800c02a:	2800      	cmp	r0, #0
 800c02c:	f43f af63 	beq.w	800bef6 <__gnu_unwind_execute+0x5a>
 800c030:	f010 03f0 	ands.w	r3, r0, #240	; 0xf0
 800c034:	f47f af5f 	bne.w	800bef6 <__gnu_unwind_execute+0x5a>
 800c038:	4602      	mov	r2, r0
 800c03a:	4619      	mov	r1, r3
 800c03c:	4628      	mov	r0, r5
 800c03e:	f7ff fced 	bl	800ba1c <_Unwind_VRS_Pop>
 800c042:	2800      	cmp	r0, #0
 800c044:	f43f af31 	beq.w	800beaa <__gnu_unwind_execute+0xe>
 800c048:	e755      	b.n	800bef6 <__gnu_unwind_execute+0x5a>
 800c04a:	ac03      	add	r4, sp, #12
 800c04c:	4643      	mov	r3, r8
 800c04e:	4641      	mov	r1, r8
 800c050:	9400      	str	r4, [sp, #0]
 800c052:	220e      	movs	r2, #14
 800c054:	4628      	mov	r0, r5
 800c056:	f7ff faf3 	bl	800b640 <_Unwind_VRS_Get>
 800c05a:	9400      	str	r4, [sp, #0]
 800c05c:	4628      	mov	r0, r5
 800c05e:	4643      	mov	r3, r8
 800c060:	4641      	mov	r1, r8
 800c062:	220f      	movs	r2, #15
 800c064:	f7ff fb0e 	bl	800b684 <_Unwind_VRS_Set>
 800c068:	e7da      	b.n	800c020 <__gnu_unwind_execute+0x184>
 800c06a:	4630      	mov	r0, r6
 800c06c:	f7ff feea 	bl	800be44 <next_unwind_byte>
 800c070:	0301      	lsls	r1, r0, #12
 800c072:	f000 000f 	and.w	r0, r0, #15
 800c076:	f401 2170 	and.w	r1, r1, #983040	; 0xf0000
 800c07a:	1c42      	adds	r2, r0, #1
 800c07c:	2301      	movs	r3, #1
 800c07e:	430a      	orrs	r2, r1
 800c080:	4628      	mov	r0, r5
 800c082:	4619      	mov	r1, r3
 800c084:	f7ff fcca 	bl	800ba1c <_Unwind_VRS_Pop>
 800c088:	2800      	cmp	r0, #0
 800c08a:	f43f af0e 	beq.w	800beaa <__gnu_unwind_execute+0xe>
 800c08e:	e732      	b.n	800bef6 <__gnu_unwind_execute+0x5a>
 800c090:	4630      	mov	r0, r6
 800c092:	f7ff fed7 	bl	800be44 <next_unwind_byte>
 800c096:	0301      	lsls	r1, r0, #12
 800c098:	f000 000f 	and.w	r0, r0, #15
 800c09c:	f401 2170 	and.w	r1, r1, #983040	; 0xf0000
 800c0a0:	1c42      	adds	r2, r0, #1
 800c0a2:	2303      	movs	r3, #3
 800c0a4:	e7eb      	b.n	800c07e <__gnu_unwind_execute+0x1e2>
 800c0a6:	4630      	mov	r0, r6
 800c0a8:	f7ff fecc 	bl	800be44 <next_unwind_byte>
 800c0ac:	4602      	mov	r2, r0
 800c0ae:	2800      	cmp	r0, #0
 800c0b0:	f43f af21 	beq.w	800bef6 <__gnu_unwind_execute+0x5a>
 800c0b4:	f010 03f0 	ands.w	r3, r0, #240	; 0xf0
 800c0b8:	f47f af1d 	bne.w	800bef6 <__gnu_unwind_execute+0x5a>
 800c0bc:	2104      	movs	r1, #4
 800c0be:	4628      	mov	r0, r5
 800c0c0:	f7ff fcac 	bl	800ba1c <_Unwind_VRS_Pop>
 800c0c4:	2800      	cmp	r0, #0
 800c0c6:	f43f aef0 	beq.w	800beaa <__gnu_unwind_execute+0xe>
 800c0ca:	e714      	b.n	800bef6 <__gnu_unwind_execute+0x5a>
 800c0cc:	f000 020f 	and.w	r2, r0, #15
 800c0d0:	3201      	adds	r2, #1
 800c0d2:	2303      	movs	r3, #3
 800c0d4:	f442 2220 	orr.w	r2, r2, #655360	; 0xa0000
 800c0d8:	4619      	mov	r1, r3
 800c0da:	4628      	mov	r0, r5
 800c0dc:	f7ff fc9e 	bl	800ba1c <_Unwind_VRS_Pop>
 800c0e0:	2800      	cmp	r0, #0
 800c0e2:	f43f aee2 	beq.w	800beaa <__gnu_unwind_execute+0xe>
 800c0e6:	e706      	b.n	800bef6 <__gnu_unwind_execute+0x5a>
 800c0e8:	4630      	mov	r0, r6
 800c0ea:	f7ff feab 	bl	800be44 <next_unwind_byte>
 800c0ee:	f000 02f0 	and.w	r2, r0, #240	; 0xf0
 800c0f2:	f000 030f 	and.w	r3, r0, #15
 800c0f6:	3210      	adds	r2, #16
 800c0f8:	3301      	adds	r3, #1
 800c0fa:	ea43 3202 	orr.w	r2, r3, r2, lsl #12
 800c0fe:	e6f3      	b.n	800bee8 <__gnu_unwind_execute+0x4c>
 800c100:	2300      	movs	r3, #0
 800c102:	f10d 090c 	add.w	r9, sp, #12
 800c106:	220d      	movs	r2, #13
 800c108:	4619      	mov	r1, r3
 800c10a:	f8cd 9000 	str.w	r9, [sp]
 800c10e:	4628      	mov	r0, r5
 800c110:	f7ff fa96 	bl	800b640 <_Unwind_VRS_Get>
 800c114:	4630      	mov	r0, r6
 800c116:	f7ff fe95 	bl	800be44 <next_unwind_byte>
 800c11a:	0602      	lsls	r2, r0, #24
 800c11c:	f04f 0702 	mov.w	r7, #2
 800c120:	d50c      	bpl.n	800c13c <__gnu_unwind_execute+0x2a0>
 800c122:	9b03      	ldr	r3, [sp, #12]
 800c124:	f000 007f 	and.w	r0, r0, #127	; 0x7f
 800c128:	40b8      	lsls	r0, r7
 800c12a:	4403      	add	r3, r0
 800c12c:	4630      	mov	r0, r6
 800c12e:	9303      	str	r3, [sp, #12]
 800c130:	f7ff fe88 	bl	800be44 <next_unwind_byte>
 800c134:	0603      	lsls	r3, r0, #24
 800c136:	f107 0707 	add.w	r7, r7, #7
 800c13a:	d4f2      	bmi.n	800c122 <__gnu_unwind_execute+0x286>
 800c13c:	9b03      	ldr	r3, [sp, #12]
 800c13e:	f8cd 9000 	str.w	r9, [sp]
 800c142:	f000 047f 	and.w	r4, r0, #127	; 0x7f
 800c146:	f503 7201 	add.w	r2, r3, #516	; 0x204
 800c14a:	40bc      	lsls	r4, r7
 800c14c:	2300      	movs	r3, #0
 800c14e:	4414      	add	r4, r2
 800c150:	4619      	mov	r1, r3
 800c152:	220d      	movs	r2, #13
 800c154:	4628      	mov	r0, r5
 800c156:	9403      	str	r4, [sp, #12]
 800c158:	f7ff fa94 	bl	800b684 <_Unwind_VRS_Set>
 800c15c:	e6a5      	b.n	800beaa <__gnu_unwind_execute+0xe>
 800c15e:	bf00      	nop

0800c160 <__gnu_unwind_frame>:
 800c160:	b510      	push	{r4, lr}
 800c162:	6cc3      	ldr	r3, [r0, #76]	; 0x4c
 800c164:	b084      	sub	sp, #16
 800c166:	685a      	ldr	r2, [r3, #4]
 800c168:	2003      	movs	r0, #3
 800c16a:	f88d 000c 	strb.w	r0, [sp, #12]
 800c16e:	79dc      	ldrb	r4, [r3, #7]
 800c170:	f88d 400d 	strb.w	r4, [sp, #13]
 800c174:	0212      	lsls	r2, r2, #8
 800c176:	3308      	adds	r3, #8
 800c178:	4608      	mov	r0, r1
 800c17a:	a901      	add	r1, sp, #4
 800c17c:	9201      	str	r2, [sp, #4]
 800c17e:	9302      	str	r3, [sp, #8]
 800c180:	f7ff fe8c 	bl	800be9c <__gnu_unwind_execute>
 800c184:	b004      	add	sp, #16
 800c186:	bd10      	pop	{r4, pc}

0800c188 <_Unwind_GetRegionStart>:
 800c188:	b508      	push	{r3, lr}
 800c18a:	f7ff fe85 	bl	800be98 <unwind_UCB_from_context>
 800c18e:	6c80      	ldr	r0, [r0, #72]	; 0x48
 800c190:	bd08      	pop	{r3, pc}
 800c192:	bf00      	nop

0800c194 <_Unwind_GetLanguageSpecificData>:
 800c194:	b508      	push	{r3, lr}
 800c196:	f7ff fe7f 	bl	800be98 <unwind_UCB_from_context>
 800c19a:	6cc0      	ldr	r0, [r0, #76]	; 0x4c
 800c19c:	79c3      	ldrb	r3, [r0, #7]
 800c19e:	eb00 0083 	add.w	r0, r0, r3, lsl #2
 800c1a2:	3008      	adds	r0, #8
 800c1a4:	bd08      	pop	{r3, pc}
 800c1a6:	bf00      	nop

0800c1a8 <_Unwind_GetDataRelBase>:
 800c1a8:	b508      	push	{r3, lr}
 800c1aa:	f7fe f857 	bl	800a25c <abort>
 800c1ae:	bf00      	nop

0800c1b0 <_Unwind_GetTextRelBase>:
 800c1b0:	b508      	push	{r3, lr}
 800c1b2:	f7ff fff9 	bl	800c1a8 <_Unwind_GetDataRelBase>
 800c1b6:	bf00      	nop

0800c1b8 <__aeabi_idiv0>:
 800c1b8:	4770      	bx	lr
 800c1ba:	bf00      	nop
