Archive member included to satisfy reference by file (symbol)

/.share/CACHEDEV1_DATA/Ada/STM32/L/L522/test/Ada_Drivers_Library/boards/lib/stm32l5nucleo_s/ravenscar-sfp/Debug/libstm32l5nucleo_s.a(stm32-board.o)
                              test_s.o (stm32__board__initialize_board)
/.share/CACHEDEV1_DATA/Ada/STM32/L/L522/test/Ada_Drivers_Library/arch/ARM/STM32/lib/stm32l5nucleo_s/ravenscar-sfp/Debug/libstm32l5xx.a(stm32-device.o)
                              /.share/CACHEDEV1_DATA/Ada/STM32/L/L522/test/Ada_Drivers_Library/boards/lib/stm32l5nucleo_s/ravenscar-sfp/Debug/libstm32l5nucleo_s.a(stm32-board.o) (stm32__device__enable_clock__3)
/.share/CACHEDEV1_DATA/Ada/STM32/L/L522/test/Ada_Drivers_Library/arch/ARM/STM32/lib/stm32l5nucleo_s/ravenscar-sfp/Debug/libstm32l5xx.a(stm32-exti.o)
                              b__test_s.o (stm32__exti_E)
/.share/CACHEDEV1_DATA/Ada/STM32/L/L522/test/Ada_Drivers_Library/arch/ARM/STM32/lib/stm32l5nucleo_s/ravenscar-sfp/Debug/libstm32l5xx.a(stm32-gpio.o)
                              /.share/CACHEDEV1_DATA/Ada/STM32/L/L522/test/Ada_Drivers_Library/arch/ARM/STM32/lib/stm32l5nucleo_s/ravenscar-sfp/Debug/libstm32l5xx.a(stm32-device.o) (stm32__gpio__gpio_pointT)
/.share/CACHEDEV1_DATA/Ada/STM32/L/L522/test/Ada_Drivers_Library/arch/ARM/STM32/lib/stm32l5nucleo_s/ravenscar-sfp/Debug/libstm32l5xx.a(stm32-mpu.o)
                              test_s.o (stm32__mpu__add_region)
/.share/CACHEDEV1_DATA/Ada/STM32/L/L522/test/Ada_Drivers_Library/arch/ARM/STM32/lib/stm32l5nucleo_s/ravenscar-sfp/Debug/libstm32l5xx.a(stm32-sau.o)
                              test_s.o (stm32__sau__all_ns)
/.share/CACHEDEV1_DATA/Ada/STM32/L/L522/test/Ada_Drivers_Library/arch/ARM/STM32/lib/stm32l5nucleo_s/ravenscar-sfp/Debug/libstm32l5xx.a(stm32_svd-mpu.o)
                              /.share/CACHEDEV1_DATA/Ada/STM32/L/L522/test/Ada_Drivers_Library/arch/ARM/STM32/lib/stm32l5nucleo_s/ravenscar-sfp/Debug/libstm32l5xx.a(stm32-mpu.o) (stm32_svd__mpu__mpu_rbar_registerIP)
/.share/CACHEDEV1_DATA/Ada/STM32/L/L522/test/Ada_Drivers_Library/arch/ARM/STM32/lib/stm32l5nucleo_s/ravenscar-sfp/Debug/libstm32l5xx.a(stm32_svd-sau.o)
                              /.share/CACHEDEV1_DATA/Ada/STM32/L/L522/test/Ada_Drivers_Library/arch/ARM/STM32/lib/stm32l5nucleo_s/ravenscar-sfp/Debug/libstm32l5xx.a(stm32-sau.o) (stm32_svd__sau__sau_rbar_registerIP)
/.share/CACHEDEV1_DATA/Ada/Ada_Drivers_Library/hal/lib/stm32l5nucleo_s/ravenscar-sfp/Debug/libHAL.a(hal-gpio.o)
                              /.share/CACHEDEV1_DATA/Ada/STM32/L/L522/test/Ada_Drivers_Library/arch/ARM/STM32/lib/stm32l5nucleo_s/ravenscar-sfp/Debug/libstm32l5xx.a(stm32-gpio.o) (hal__gpio__gpio_pointT)
/.share/CACHEDEV1_DATA/Ada/STM32/L/L522/test/Ada_Drivers_Library/embedded-runtimes/ravenscar-stm32l5nucleo_s/sfp/adalib/libgnarl.a(a-reatim.o)
                              b__test_s.o (ada__real_time___elabb)
/.share/CACHEDEV1_DATA/Ada/STM32/L/L522/test/Ada_Drivers_Library/embedded-runtimes/ravenscar-stm32l5nucleo_s/sfp/adalib/libgnarl.a(s-bbbosu.o)
                              /.share/CACHEDEV1_DATA/Ada/STM32/L/L522/test/Ada_Drivers_Library/embedded-runtimes/ravenscar-stm32l5nucleo_s/sfp/adalib/libgnarl.a(a-reatim.o) (system__bb__board_support__time__read_clock)
/.share/CACHEDEV1_DATA/Ada/STM32/L/L522/test/Ada_Drivers_Library/embedded-runtimes/ravenscar-stm32l5nucleo_s/sfp/adalib/libgnarl.a(s-bbcppr.o)
                              /.share/CACHEDEV1_DATA/Ada/STM32/L/L522/test/Ada_Drivers_Library/embedded-runtimes/ravenscar-stm32l5nucleo_s/sfp/adalib/libgnarl.a(s-bbbosu.o) (system__bb__cpu_primitives__install_trap_handler)
/.share/CACHEDEV1_DATA/Ada/STM32/L/L522/test/Ada_Drivers_Library/embedded-runtimes/ravenscar-stm32l5nucleo_s/sfp/adalib/libgnarl.a(s-bbinte.o)
                              /.share/CACHEDEV1_DATA/Ada/STM32/L/L522/test/Ada_Drivers_Library/embedded-runtimes/ravenscar-stm32l5nucleo_s/sfp/adalib/libgnarl.a(s-bbbosu.o) (system__bb__interrupts__interrupt_wrapper)
/.share/CACHEDEV1_DATA/Ada/STM32/L/L522/test/Ada_Drivers_Library/embedded-runtimes/ravenscar-stm32l5nucleo_s/sfp/adalib/libgnarl.a(s-bbthqu.o)
                              /.share/CACHEDEV1_DATA/Ada/STM32/L/L522/test/Ada_Drivers_Library/embedded-runtimes/ravenscar-stm32l5nucleo_s/sfp/adalib/libgnarl.a(s-bbinte.o) (system__bb__threads__queues__change_priority)
/.share/CACHEDEV1_DATA/Ada/STM32/L/L522/test/Ada_Drivers_Library/embedded-runtimes/ravenscar-stm32l5nucleo_s/sfp/adalib/libgnarl.a(s-bbtime.o)
                              /.share/CACHEDEV1_DATA/Ada/STM32/L/L522/test/Ada_Drivers_Library/embedded-runtimes/ravenscar-stm32l5nucleo_s/sfp/adalib/libgnarl.a(a-reatim.o) (system__bb__time__software_clock)
/.share/CACHEDEV1_DATA/Ada/STM32/L/L522/test/Ada_Drivers_Library/embedded-runtimes/ravenscar-stm32l5nucleo_s/sfp/adalib/libgnarl.a(s-bcpcst.o)
                              /.share/CACHEDEV1_DATA/Ada/STM32/L/L522/test/Ada_Drivers_Library/embedded-runtimes/ravenscar-stm32l5nucleo_s/sfp/adalib/libgnarl.a(s-bbcppr.o) (system__bb__cpu_primitives__context_switch_trigger__initialize_context_switch)
/.share/CACHEDEV1_DATA/Ada/STM32/L/L522/test/Ada_Drivers_Library/embedded-runtimes/ravenscar-stm32l5nucleo_s/sfp/adalib/libgnarl.a(s-taprob.o)
                              b__test_s.o (system__tasking__protected_objects___elabb)
/.share/CACHEDEV1_DATA/Ada/STM32/L/L522/test/Ada_Drivers_Library/embedded-runtimes/ravenscar-stm32l5nucleo_s/sfp/adalib/libgnarl.a(s-tarest.o)
                              b__test_s.o (__gnat_activate_all_tasks)
/.share/CACHEDEV1_DATA/Ada/STM32/L/L522/test/Ada_Drivers_Library/embedded-runtimes/ravenscar-stm32l5nucleo_s/sfp/adalib/libgnarl.a(s-tasdeb.o)
                              /.share/CACHEDEV1_DATA/Ada/STM32/L/L522/test/Ada_Drivers_Library/embedded-runtimes/ravenscar-stm32l5nucleo_s/sfp/adalib/libgnarl.a(s-tarest.o) (system__tasking__debug__last_task)
/.share/CACHEDEV1_DATA/Ada/STM32/L/L522/test/Ada_Drivers_Library/embedded-runtimes/ravenscar-stm32l5nucleo_s/sfp/adalib/libgnarl.a(s-taskin.o)
                              /.share/CACHEDEV1_DATA/Ada/STM32/L/L522/test/Ada_Drivers_Library/embedded-runtimes/ravenscar-stm32l5nucleo_s/sfp/adalib/libgnarl.a(s-tarest.o) (system__tasking__initialize_atcb)
/.share/CACHEDEV1_DATA/Ada/STM32/L/L522/test/Ada_Drivers_Library/embedded-runtimes/ravenscar-stm32l5nucleo_s/sfp/adalib/libgnarl.a(s-tpobmu.o)
                              b__test_s.o (system__tasking__protected_objects__multiprocessors___elabb)
/.share/CACHEDEV1_DATA/Ada/STM32/L/L522/test/Ada_Drivers_Library/embedded-runtimes/ravenscar-stm32l5nucleo_s/sfp/adalib/libgnarl.a(s-bbprot.o)
                              /.share/CACHEDEV1_DATA/Ada/STM32/L/L522/test/Ada_Drivers_Library/embedded-runtimes/ravenscar-stm32l5nucleo_s/sfp/adalib/libgnarl.a(s-bbtime.o) (system__bb__protection__leave_kernel)
/.share/CACHEDEV1_DATA/Ada/STM32/L/L522/test/Ada_Drivers_Library/embedded-runtimes/ravenscar-stm32l5nucleo_s/sfp/adalib/libgnarl.a(s-bbthre.o)
                              /.share/CACHEDEV1_DATA/Ada/STM32/L/L522/test/Ada_Drivers_Library/embedded-runtimes/ravenscar-stm32l5nucleo_s/sfp/adalib/libgnarl.a(s-taskin.o) (system__bb__threads__initialize)
/.share/CACHEDEV1_DATA/Ada/STM32/L/L522/test/Ada_Drivers_Library/embedded-runtimes/ravenscar-stm32l5nucleo_s/sfp/adalib/libgnarl.a(s-bbtiev.o)
                              /.share/CACHEDEV1_DATA/Ada/STM32/L/L522/test/Ada_Drivers_Library/embedded-runtimes/ravenscar-stm32l5nucleo_s/sfp/adalib/libgnarl.a(s-bbtime.o) (system__bb__timing_events__execute_expired_timing_events)
/.share/CACHEDEV1_DATA/Ada/STM32/L/L522/test/Ada_Drivers_Library/embedded-runtimes/ravenscar-stm32l5nucleo_s/sfp/adalib/libgnarl.a(s-taprop.o)
                              /.share/CACHEDEV1_DATA/Ada/STM32/L/L522/test/Ada_Drivers_Library/embedded-runtimes/ravenscar-stm32l5nucleo_s/sfp/adalib/libgnarl.a(s-tpobmu.o) (system__task_primitives__operations__get_cpu)
/.share/CACHEDEV1_DATA/Ada/STM32/L/L522/test/Ada_Drivers_Library/embedded-runtimes/ravenscar-stm32l5nucleo_s/sfp/adalib/libgnat.a(a-elchha.o)
                              /.share/CACHEDEV1_DATA/Ada/STM32/L/L522/test/test_s/obj/Debug/ns_api.o (__gnat_last_chance_handler)
/.share/CACHEDEV1_DATA/Ada/STM32/L/L522/test/Ada_Drivers_Library/embedded-runtimes/ravenscar-stm32l5nucleo_s/sfp/adalib/libgnat.a(a-except.o)
                              /.share/CACHEDEV1_DATA/Ada/STM32/L/L522/test/Ada_Drivers_Library/arch/ARM/STM32/lib/stm32l5nucleo_s/ravenscar-sfp/Debug/libstm32l5xx.a(stm32-device.o) (ada__exceptions__empty_c_string___UNC)
/.share/CACHEDEV1_DATA/Ada/STM32/L/L522/test/Ada_Drivers_Library/embedded-runtimes/ravenscar-stm32l5nucleo_s/sfp/adalib/libgnat.a(g-io.o)
                              /.share/CACHEDEV1_DATA/Ada/STM32/L/L522/test/Ada_Drivers_Library/embedded-runtimes/ravenscar-stm32l5nucleo_s/sfp/adalib/libgnat.a(a-elchha.o) (gnat__io__put__2)
/.share/CACHEDEV1_DATA/Ada/STM32/L/L522/test/Ada_Drivers_Library/embedded-runtimes/ravenscar-stm32l5nucleo_s/sfp/adalib/libgnat.a(handler.o)
                              /.share/CACHEDEV1_DATA/Ada/STM32/L/L522/test/Ada_Drivers_Library/embedded-runtimes/ravenscar-stm32l5nucleo_s/sfp/adalib/libgnarl.a(s-bbcppr.o) (__vectors)
/.share/CACHEDEV1_DATA/Ada/STM32/L/L522/test/Ada_Drivers_Library/embedded-runtimes/ravenscar-stm32l5nucleo_s/sfp/adalib/libgnat.a(s-assert.o)
                              /.share/CACHEDEV1_DATA/Ada/STM32/L/L522/test/Ada_Drivers_Library/arch/ARM/STM32/lib/stm32l5nucleo_s/ravenscar-sfp/Debug/libstm32l5xx.a(stm32-gpio.o) (system__assertions__raise_assert_failure)
/.share/CACHEDEV1_DATA/Ada/STM32/L/L522/test/Ada_Drivers_Library/embedded-runtimes/ravenscar-stm32l5nucleo_s/sfp/adalib/libgnat.a(s-macres.o)
                              /.share/CACHEDEV1_DATA/Ada/STM32/L/L522/test/Ada_Drivers_Library/embedded-runtimes/ravenscar-stm32l5nucleo_s/sfp/adalib/libgnat.a(a-elchha.o) (system__machine_reset__stop)
/.share/CACHEDEV1_DATA/Ada/STM32/L/L522/test/Ada_Drivers_Library/embedded-runtimes/ravenscar-stm32l5nucleo_s/sfp/adalib/libgnat.a(s-memcom.o)
                              /.share/CACHEDEV1_DATA/Ada/STM32/L/L522/test/Ada_Drivers_Library/arch/ARM/STM32/lib/stm32l5nucleo_s/ravenscar-sfp/Debug/libstm32l5xx.a(stm32_svd-mpu.o) (memcmp)
/.share/CACHEDEV1_DATA/Ada/STM32/L/L522/test/Ada_Drivers_Library/embedded-runtimes/ravenscar-stm32l5nucleo_s/sfp/adalib/libgnat.a(s-memcop.o)
                              /.share/CACHEDEV1_DATA/Ada/STM32/L/L522/test/Ada_Drivers_Library/arch/ARM/STM32/lib/stm32l5nucleo_s/ravenscar-sfp/Debug/libstm32l5xx.a(stm32-device.o) (memcpy)
/.share/CACHEDEV1_DATA/Ada/STM32/L/L522/test/Ada_Drivers_Library/embedded-runtimes/ravenscar-stm32l5nucleo_s/sfp/adalib/libgnat.a(s-memset.o)
                              /.share/CACHEDEV1_DATA/Ada/STM32/L/L522/test/Ada_Drivers_Library/embedded-runtimes/ravenscar-stm32l5nucleo_s/sfp/adalib/libgnarl.a(s-bbcppr.o) (memset)
/.share/CACHEDEV1_DATA/Ada/STM32/L/L522/test/Ada_Drivers_Library/embedded-runtimes/ravenscar-stm32l5nucleo_s/sfp/adalib/libgnat.a(s-parame.o)
                              /.share/CACHEDEV1_DATA/Ada/STM32/L/L522/test/Ada_Drivers_Library/embedded-runtimes/ravenscar-stm32l5nucleo_s/sfp/adalib/libgnarl.a(s-taskin.o) (system__parameters__adjust_storage_size)
/.share/CACHEDEV1_DATA/Ada/STM32/L/L522/test/Ada_Drivers_Library/embedded-runtimes/ravenscar-stm32l5nucleo_s/sfp/adalib/libgnat.a(s-secsta.o)
                              b__test_s.o (system__secondary_stack__ss_stackIP)
/.share/CACHEDEV1_DATA/Ada/STM32/L/L522/test/Ada_Drivers_Library/embedded-runtimes/ravenscar-stm32l5nucleo_s/sfp/adalib/libgnat.a(s-textio.o)
                              /.share/CACHEDEV1_DATA/Ada/STM32/L/L522/test/Ada_Drivers_Library/embedded-runtimes/ravenscar-stm32l5nucleo_s/sfp/adalib/libgnat.a(g-io.o) (system__text_io__initialize)
/.share/CACHEDEV1_DATA/Ada/STM32/L/L522/test/Ada_Drivers_Library/embedded-runtimes/ravenscar-stm32l5nucleo_s/sfp/adalib/libgnat.a(start-common.o)
                              /.share/CACHEDEV1_DATA/Ada/STM32/L/L522/test/Ada_Drivers_Library/arch/ARM/STM32/lib/stm32l5nucleo_s/ravenscar-sfp/Debug/libstm32l5xx.a(stm32-device.o) (secure_code)
/.share/CACHEDEV1_DATA/Ada/STM32/L/L522/test/Ada_Drivers_Library/embedded-runtimes/ravenscar-stm32l5nucleo_s/sfp/adalib/libgnat.a(start-ram.o)
                              (_start_ram)
/.share/CACHEDEV1_DATA/Ada/STM32/L/L522/test/Ada_Drivers_Library/embedded-runtimes/ravenscar-stm32l5nucleo_s/sfp/adalib/libgnat.a(setup_pll.o)
                              /.share/CACHEDEV1_DATA/Ada/STM32/L/L522/test/Ada_Drivers_Library/embedded-runtimes/ravenscar-stm32l5nucleo_s/sfp/adalib/libgnat.a(start-ram.o) (_ada_setup_pll)
/.share/CACHEDEV1_DATA/Ada/STM32/L/L522/test/Ada_Drivers_Library/embedded-runtimes/ravenscar-stm32l5nucleo_s/sfp/adalib/libgnat.a(s-bbmcpa.o)
                              /.share/CACHEDEV1_DATA/Ada/STM32/L/L522/test/Ada_Drivers_Library/embedded-runtimes/ravenscar-stm32l5nucleo_s/sfp/adalib/libgnat.a(setup_pll.o) (system__bb__mcu_parameters__pwr_initialize)
/usr/gnat/gnat2019/bin/../lib/gcc/arm-eabi/7.4.1/thumb/v7e-m/fpv4-sp/hard/libgcc.a(_aeabi_ldivmod.o)
                              /.share/CACHEDEV1_DATA/Ada/STM32/L/L522/test/Ada_Drivers_Library/embedded-runtimes/ravenscar-stm32l5nucleo_s/sfp/adalib/libgnarl.a(a-reatim.o) (__aeabi_ldivmod)
/usr/gnat/gnat2019/bin/../lib/gcc/arm-eabi/7.4.1/thumb/v7e-m/fpv4-sp/hard/libgcc.a(_aeabi_uldivmod.o)
                              /.share/CACHEDEV1_DATA/Ada/STM32/L/L522/test/Ada_Drivers_Library/embedded-runtimes/ravenscar-stm32l5nucleo_s/sfp/adalib/libgnarl.a(a-reatim.o) (__aeabi_uldivmod)
/usr/gnat/gnat2019/bin/../lib/gcc/arm-eabi/7.4.1/thumb/v7e-m/fpv4-sp/hard/libgcc.a(_udivmoddi4.o)
                              /usr/gnat/gnat2019/bin/../lib/gcc/arm-eabi/7.4.1/thumb/v7e-m/fpv4-sp/hard/libgcc.a(_aeabi_ldivmod.o) (__udivmoddi4)
/usr/gnat/gnat2019/bin/../lib/gcc/arm-eabi/7.4.1/thumb/v7e-m/fpv4-sp/hard/libgcc.a(_dvmd_tls.o)
                              /usr/gnat/gnat2019/bin/../lib/gcc/arm-eabi/7.4.1/thumb/v7e-m/fpv4-sp/hard/libgcc.a(_aeabi_ldivmod.o) (__aeabi_ldiv0)

Discarded input sections

 .text          0x0000000000000000        0x0 test_s.o
 .data          0x0000000000000000        0x0 test_s.o
 .bss           0x0000000000000000        0x0 test_s.o
 .rodata.dev.6080
                0x0000000000000000        0x1 test_s.o
 .rodata.ram.6079
                0x0000000000000000        0x1 test_s.o
 .text          0x0000000000000000        0x0 b__test_s.o
 .data          0x0000000000000000        0x0 b__test_s.o
 .bss           0x0000000000000000        0x0 b__test_s.o
 .data.ada_main_E
                0x0000000000000000        0x2 b__test_s.o
 .rodata.__gnat_version
                0x0000000000000000       0x2b b__test_s.o
 .text          0x0000000000000000        0x0 /.share/CACHEDEV1_DATA/Ada/STM32/L/L522/test/test_s/obj/Debug/ns_api.o
 .data          0x0000000000000000        0x0 /.share/CACHEDEV1_DATA/Ada/STM32/L/L522/test/test_s/obj/Debug/ns_api.o
 .bss           0x0000000000000000        0x0 /.share/CACHEDEV1_DATA/Ada/STM32/L/L522/test/test_s/obj/Debug/ns_api.o
 .text          0x0000000000000000        0x0 /.share/CACHEDEV1_DATA/Ada/STM32/L/L522/test/test_s/obj/Debug/trace.o
 .data          0x0000000000000000        0x0 /.share/CACHEDEV1_DATA/Ada/STM32/L/L522/test/test_s/obj/Debug/trace.o
 .bss           0x0000000000000000        0x0 /.share/CACHEDEV1_DATA/Ada/STM32/L/L522/test/test_s/obj/Debug/trace.o
 .text.trace__tpi_peripheralIP
                0x0000000000000000       0x14 /.share/CACHEDEV1_DATA/Ada/STM32/L/L522/test/test_s/obj/Debug/trace.o
 .text.trace__Tport_tBIP
                0x0000000000000000       0x14 /.share/CACHEDEV1_DATA/Ada/STM32/L/L522/test/test_s/obj/Debug/trace.o
 .text.trace__itm_peripheralIP
                0x0000000000000000       0x14 /.share/CACHEDEV1_DATA/Ada/STM32/L/L522/test/test_s/obj/Debug/trace.o
 .text.trace__Tu32of16BIP
                0x0000000000000000       0x14 /.share/CACHEDEV1_DATA/Ada/STM32/L/L522/test/test_s/obj/Debug/trace.o
 .text.trace__Tu32of4BIP
                0x0000000000000000       0x14 /.share/CACHEDEV1_DATA/Ada/STM32/L/L522/test/test_s/obj/Debug/trace.o
 .text.trace__Tu32of6BIP
                0x0000000000000000       0x14 /.share/CACHEDEV1_DATA/Ada/STM32/L/L522/test/test_s/obj/Debug/trace.o
 .text.trace__Tu32of3BIP
                0x0000000000000000       0x14 /.share/CACHEDEV1_DATA/Ada/STM32/L/L522/test/test_s/obj/Debug/trace.o
 .text.trace__Tu32of8BIP
                0x0000000000000000       0x14 /.share/CACHEDEV1_DATA/Ada/STM32/L/L522/test/test_s/obj/Debug/trace.o
 .text.trace__etm_peripheralIP
                0x0000000000000000       0x14 /.share/CACHEDEV1_DATA/Ada/STM32/L/L522/test/test_s/obj/Debug/trace.o
 .text.trace__tcr_fieldsIP
                0x0000000000000000       0x14 /.share/CACHEDEV1_DATA/Ada/STM32/L/L522/test/test_s/obj/Debug/trace.o
 .text.trace__tcr_registerEQ
                0x0000000000000000      0x218 /.share/CACHEDEV1_DATA/Ada/STM32/L/L522/test/test_s/obj/Debug/trace.o
 .text.trace__tcr_registerIP
                0x0000000000000000       0x18 /.share/CACHEDEV1_DATA/Ada/STM32/L/L522/test/test_s/obj/Debug/trace.o
 .text.trace__configure_tracing
                0x0000000000000000      0x164 /.share/CACHEDEV1_DATA/Ada/STM32/L/L522/test/test_s/obj/Debug/trace.o
 .rodata        0x0000000000000000        0xa /.share/CACHEDEV1_DATA/Ada/STM32/L/L522/test/test_s/obj/Debug/trace.o
 .text.trace__itm_sendvalue
                0x0000000000000000       0x98 /.share/CACHEDEV1_DATA/Ada/STM32/L/L522/test/test_s/obj/Debug/trace.o
 .text.trace__itm_sendvalue__2
                0x0000000000000000       0xa8 /.share/CACHEDEV1_DATA/Ada/STM32/L/L522/test/test_s/obj/Debug/trace.o
 .text.trace__itm_sendvalue__3
                0x0000000000000000       0x90 /.share/CACHEDEV1_DATA/Ada/STM32/L/L522/test/test_s/obj/Debug/trace.o
 .text.trace__itm_print
                0x0000000000000000       0x54 /.share/CACHEDEV1_DATA/Ada/STM32/L/L522/test/test_s/obj/Debug/trace.o
 .rodata.trace__tpi
                0x0000000000000000        0x4 /.share/CACHEDEV1_DATA/Ada/STM32/L/L522/test/test_s/obj/Debug/trace.o
 .rodata.trace__itm
                0x0000000000000000        0x4 /.share/CACHEDEV1_DATA/Ada/STM32/L/L522/test/test_s/obj/Debug/trace.o
 .rodata.trace__etm
                0x0000000000000000        0x4 /.share/CACHEDEV1_DATA/Ada/STM32/L/L522/test/test_s/obj/Debug/trace.o
 .rodata.trace__dbg
                0x0000000000000000        0x4 /.share/CACHEDEV1_DATA/Ada/STM32/L/L522/test/test_s/obj/Debug/trace.o
 .rodata.trace__debug
                0x0000000000000000        0x4 /.share/CACHEDEV1_DATA/Ada/STM32/L/L522/test/test_s/obj/Debug/trace.o
 .rodata.trace__dwt
                0x0000000000000000        0x4 /.share/CACHEDEV1_DATA/Ada/STM32/L/L522/test/test_s/obj/Debug/trace.o
 .text          0x0000000000000000        0x0 /.share/CACHEDEV1_DATA/Ada/STM32/L/L522/test/Ada_Drivers_Library/boards/lib/stm32l5nucleo_s/ravenscar-sfp/Debug/libstm32l5nucleo_s.a(stm32-board.o)
 .data          0x0000000000000000        0x0 /.share/CACHEDEV1_DATA/Ada/STM32/L/L522/test/Ada_Drivers_Library/boards/lib/stm32l5nucleo_s/ravenscar-sfp/Debug/libstm32l5nucleo_s.a(stm32-board.o)
 .bss           0x0000000000000000        0x0 /.share/CACHEDEV1_DATA/Ada/STM32/L/L522/test/Ada_Drivers_Library/boards/lib/stm32l5nucleo_s/ravenscar-sfp/Debug/libstm32l5nucleo_s.a(stm32-board.o)
 .text.stm32__board__all_leds_off
                0x0000000000000000       0x10 /.share/CACHEDEV1_DATA/Ada/STM32/L/L522/test/Ada_Drivers_Library/boards/lib/stm32l5nucleo_s/ravenscar-sfp/Debug/libstm32l5nucleo_s.a(stm32-board.o)
 .rodata.stm32__board__red_led
                0x0000000000000000        0x4 /.share/CACHEDEV1_DATA/Ada/STM32/L/L522/test/Ada_Drivers_Library/boards/lib/stm32l5nucleo_s/ravenscar-sfp/Debug/libstm32l5nucleo_s.a(stm32-board.o)
 .rodata.stm32__board__green_led
                0x0000000000000000        0x4 /.share/CACHEDEV1_DATA/Ada/STM32/L/L522/test/Ada_Drivers_Library/boards/lib/stm32l5nucleo_s/ravenscar-sfp/Debug/libstm32l5nucleo_s.a(stm32-board.o)
 .rodata.stm32__board__blue_led
                0x0000000000000000        0x4 /.share/CACHEDEV1_DATA/Ada/STM32/L/L522/test/Ada_Drivers_Library/boards/lib/stm32l5nucleo_s/ravenscar-sfp/Debug/libstm32l5nucleo_s.a(stm32-board.o)
 .rodata.stm32__board__leds
                0x0000000000000000        0x4 /.share/CACHEDEV1_DATA/Ada/STM32/L/L522/test/Ada_Drivers_Library/boards/lib/stm32l5nucleo_s/ravenscar-sfp/Debug/libstm32l5nucleo_s.a(stm32-board.o)
 .rodata.stm32__board__lch_led
                0x0000000000000000        0x4 /.share/CACHEDEV1_DATA/Ada/STM32/L/L522/test/Ada_Drivers_Library/boards/lib/stm32l5nucleo_s/ravenscar-sfp/Debug/libstm32l5nucleo_s.a(stm32-board.o)
 .text          0x0000000000000000        0x0 /.share/CACHEDEV1_DATA/Ada/STM32/L/L522/test/Ada_Drivers_Library/arch/ARM/STM32/lib/stm32l5nucleo_s/ravenscar-sfp/Debug/libstm32l5xx.a(stm32-device.o)
 .data          0x0000000000000000        0x0 /.share/CACHEDEV1_DATA/Ada/STM32/L/L522/test/Ada_Drivers_Library/arch/ARM/STM32/lib/stm32l5nucleo_s/ravenscar-sfp/Debug/libstm32l5xx.a(stm32-device.o)
 .bss           0x0000000000000000        0x0 /.share/CACHEDEV1_DATA/Ada/STM32/L/L522/test/Ada_Drivers_Library/arch/ARM/STM32/lib/stm32l5nucleo_s/ravenscar-sfp/Debug/libstm32l5xx.a(stm32-device.o)
 .text.stm32__device__disable_clock
                0x0000000000000000      0x244 /.share/CACHEDEV1_DATA/Ada/STM32/L/L522/test/Ada_Drivers_Library/arch/ARM/STM32/lib/stm32l5nucleo_s/ravenscar-sfp/Debug/libstm32l5xx.a(stm32-device.o)
 .text.stm32__device__enable_clock__2
                0x0000000000000000       0x2c /.share/CACHEDEV1_DATA/Ada/STM32/L/L522/test/Ada_Drivers_Library/arch/ARM/STM32/lib/stm32l5nucleo_s/ravenscar-sfp/Debug/libstm32l5xx.a(stm32-device.o)
 .text.stm32__device__disable_clock__2
                0x0000000000000000       0x2c /.share/CACHEDEV1_DATA/Ada/STM32/L/L522/test/Ada_Drivers_Library/arch/ARM/STM32/lib/stm32l5nucleo_s/ravenscar-sfp/Debug/libstm32l5xx.a(stm32-device.o)
 .text.stm32__device__disable_clock__3
                0x0000000000000000       0x78 /.share/CACHEDEV1_DATA/Ada/STM32/L/L522/test/Ada_Drivers_Library/arch/ARM/STM32/lib/stm32l5nucleo_s/ravenscar-sfp/Debug/libstm32l5xx.a(stm32-device.o)
 .text.stm32__device__reset
                0x0000000000000000      0x2bc /.share/CACHEDEV1_DATA/Ada/STM32/L/L522/test/Ada_Drivers_Library/arch/ARM/STM32/lib/stm32l5nucleo_s/ravenscar-sfp/Debug/libstm32l5xx.a(stm32-device.o)
 .text.stm32__device__reset__2
                0x0000000000000000       0x2c /.share/CACHEDEV1_DATA/Ada/STM32/L/L522/test/Ada_Drivers_Library/arch/ARM/STM32/lib/stm32l5nucleo_s/ravenscar-sfp/Debug/libstm32l5xx.a(stm32-device.o)
 .text.stm32__device__reset__3
                0x0000000000000000      0x104 /.share/CACHEDEV1_DATA/Ada/STM32/L/L522/test/Ada_Drivers_Library/arch/ARM/STM32/lib/stm32l5nucleo_s/ravenscar-sfp/Debug/libstm32l5xx.a(stm32-device.o)
 .text.stm32__device__gpio_port_representation
                0x0000000000000000       0x8c /.share/CACHEDEV1_DATA/Ada/STM32/L/L522/test/Ada_Drivers_Library/arch/ARM/STM32/lib/stm32l5nucleo_s/ravenscar-sfp/Debug/libstm32l5xx.a(stm32-device.o)
 .rodata.stm32__device__unknown_deviceE
                0x0000000000000000       0x1c /.share/CACHEDEV1_DATA/Ada/STM32/L/L522/test/Ada_Drivers_Library/arch/ARM/STM32/lib/stm32l5nucleo_s/ravenscar-sfp/Debug/libstm32l5xx.a(stm32-device.o)
 .rodata.stm32__device__R2s
                0x0000000000000000        0x4 /.share/CACHEDEV1_DATA/Ada/STM32/L/L522/test/Ada_Drivers_Library/arch/ARM/STM32/lib/stm32l5nucleo_s/ravenscar-sfp/Debug/libstm32l5xx.a(stm32-device.o)
 .data.stm32__device__unknown_device
                0x0000000000000000       0x18 /.share/CACHEDEV1_DATA/Ada/STM32/L/L522/test/Ada_Drivers_Library/arch/ARM/STM32/lib/stm32l5nucleo_s/ravenscar-sfp/Debug/libstm32l5xx.a(stm32-device.o)
 .rodata.stm32__device__gpio_af_rtc_50hz_0
                0x0000000000000000        0x1 /.share/CACHEDEV1_DATA/Ada/STM32/L/L522/test/Ada_Drivers_Library/arch/ARM/STM32/lib/stm32l5nucleo_s/ravenscar-sfp/Debug/libstm32l5xx.a(stm32-device.o)
 .rodata.stm32__device__gpio_af_mco_0
                0x0000000000000000        0x1 /.share/CACHEDEV1_DATA/Ada/STM32/L/L522/test/Ada_Drivers_Library/arch/ARM/STM32/lib/stm32l5nucleo_s/ravenscar-sfp/Debug/libstm32l5xx.a(stm32-device.o)
 .rodata.stm32__device__gpio_af_tamper_0
                0x0000000000000000        0x1 /.share/CACHEDEV1_DATA/Ada/STM32/L/L522/test/Ada_Drivers_Library/arch/ARM/STM32/lib/stm32l5nucleo_s/ravenscar-sfp/Debug/libstm32l5xx.a(stm32-device.o)
 .rodata.stm32__device__gpio_af_swj_0
                0x0000000000000000        0x1 /.share/CACHEDEV1_DATA/Ada/STM32/L/L522/test/Ada_Drivers_Library/arch/ARM/STM32/lib/stm32l5nucleo_s/ravenscar-sfp/Debug/libstm32l5xx.a(stm32-device.o)
 .rodata.stm32__device__gpio_af_trace_0
                0x0000000000000000        0x1 /.share/CACHEDEV1_DATA/Ada/STM32/L/L522/test/Ada_Drivers_Library/arch/ARM/STM32/lib/stm32l5nucleo_s/ravenscar-sfp/Debug/libstm32l5xx.a(stm32-device.o)
 .rodata.stm32__device__gpio_af_tim1_1
                0x0000000000000000        0x1 /.share/CACHEDEV1_DATA/Ada/STM32/L/L522/test/Ada_Drivers_Library/arch/ARM/STM32/lib/stm32l5nucleo_s/ravenscar-sfp/Debug/libstm32l5xx.a(stm32-device.o)
 .rodata.stm32__device__gpio_af_tim2_1
                0x0000000000000000        0x1 /.share/CACHEDEV1_DATA/Ada/STM32/L/L522/test/Ada_Drivers_Library/arch/ARM/STM32/lib/stm32l5nucleo_s/ravenscar-sfp/Debug/libstm32l5xx.a(stm32-device.o)
 .rodata.stm32__device__gpio_af_tim3_2
                0x0000000000000000        0x1 /.share/CACHEDEV1_DATA/Ada/STM32/L/L522/test/Ada_Drivers_Library/arch/ARM/STM32/lib/stm32l5nucleo_s/ravenscar-sfp/Debug/libstm32l5xx.a(stm32-device.o)
 .rodata.stm32__device__gpio_af_tim4_2
                0x0000000000000000        0x1 /.share/CACHEDEV1_DATA/Ada/STM32/L/L522/test/Ada_Drivers_Library/arch/ARM/STM32/lib/stm32l5nucleo_s/ravenscar-sfp/Debug/libstm32l5xx.a(stm32-device.o)
 .rodata.stm32__device__gpio_af_tim5_2
                0x0000000000000000        0x1 /.share/CACHEDEV1_DATA/Ada/STM32/L/L522/test/Ada_Drivers_Library/arch/ARM/STM32/lib/stm32l5nucleo_s/ravenscar-sfp/Debug/libstm32l5xx.a(stm32-device.o)
 .rodata.stm32__device__gpio_af_tim8_3
                0x0000000000000000        0x1 /.share/CACHEDEV1_DATA/Ada/STM32/L/L522/test/Ada_Drivers_Library/arch/ARM/STM32/lib/stm32l5nucleo_s/ravenscar-sfp/Debug/libstm32l5xx.a(stm32-device.o)
 .rodata.stm32__device__gpio_af_tim9_3
                0x0000000000000000        0x1 /.share/CACHEDEV1_DATA/Ada/STM32/L/L522/test/Ada_Drivers_Library/arch/ARM/STM32/lib/stm32l5nucleo_s/ravenscar-sfp/Debug/libstm32l5xx.a(stm32-device.o)
 .rodata.stm32__device__gpio_af_tim10_3
                0x0000000000000000        0x1 /.share/CACHEDEV1_DATA/Ada/STM32/L/L522/test/Ada_Drivers_Library/arch/ARM/STM32/lib/stm32l5nucleo_s/ravenscar-sfp/Debug/libstm32l5xx.a(stm32-device.o)
 .rodata.stm32__device__gpio_af_tim11_3
                0x0000000000000000        0x1 /.share/CACHEDEV1_DATA/Ada/STM32/L/L522/test/Ada_Drivers_Library/arch/ARM/STM32/lib/stm32l5nucleo_s/ravenscar-sfp/Debug/libstm32l5xx.a(stm32-device.o)
 .rodata.stm32__device__gpio_af_i2c1_4
                0x0000000000000000        0x1 /.share/CACHEDEV1_DATA/Ada/STM32/L/L522/test/Ada_Drivers_Library/arch/ARM/STM32/lib/stm32l5nucleo_s/ravenscar-sfp/Debug/libstm32l5xx.a(stm32-device.o)
 .rodata.stm32__device__gpio_af_i2c2_4
                0x0000000000000000        0x1 /.share/CACHEDEV1_DATA/Ada/STM32/L/L522/test/Ada_Drivers_Library/arch/ARM/STM32/lib/stm32l5nucleo_s/ravenscar-sfp/Debug/libstm32l5xx.a(stm32-device.o)
 .rodata.stm32__device__gpio_af_i2c3_4
                0x0000000000000000        0x1 /.share/CACHEDEV1_DATA/Ada/STM32/L/L522/test/Ada_Drivers_Library/arch/ARM/STM32/lib/stm32l5nucleo_s/ravenscar-sfp/Debug/libstm32l5xx.a(stm32-device.o)
 .rodata.stm32__device__gpio_af_spi1_5
                0x0000000000000000        0x1 /.share/CACHEDEV1_DATA/Ada/STM32/L/L522/test/Ada_Drivers_Library/arch/ARM/STM32/lib/stm32l5nucleo_s/ravenscar-sfp/Debug/libstm32l5xx.a(stm32-device.o)
 .rodata.stm32__device__gpio_af_spi2_5
                0x0000000000000000        0x1 /.share/CACHEDEV1_DATA/Ada/STM32/L/L522/test/Ada_Drivers_Library/arch/ARM/STM32/lib/stm32l5nucleo_s/ravenscar-sfp/Debug/libstm32l5xx.a(stm32-device.o)
 .rodata.stm32__device__gpio_af_i2s2_5
                0x0000000000000000        0x1 /.share/CACHEDEV1_DATA/Ada/STM32/L/L522/test/Ada_Drivers_Library/arch/ARM/STM32/lib/stm32l5nucleo_s/ravenscar-sfp/Debug/libstm32l5xx.a(stm32-device.o)
 .rodata.stm32__device__gpio_af_i2s2ext_5
                0x0000000000000000        0x1 /.share/CACHEDEV1_DATA/Ada/STM32/L/L522/test/Ada_Drivers_Library/arch/ARM/STM32/lib/stm32l5nucleo_s/ravenscar-sfp/Debug/libstm32l5xx.a(stm32-device.o)
 .rodata.stm32__device__gpio_af_spi3_6
                0x0000000000000000        0x1 /.share/CACHEDEV1_DATA/Ada/STM32/L/L522/test/Ada_Drivers_Library/arch/ARM/STM32/lib/stm32l5nucleo_s/ravenscar-sfp/Debug/libstm32l5xx.a(stm32-device.o)
 .rodata.stm32__device__gpio_af_i2s3_6
                0x0000000000000000        0x1 /.share/CACHEDEV1_DATA/Ada/STM32/L/L522/test/Ada_Drivers_Library/arch/ARM/STM32/lib/stm32l5nucleo_s/ravenscar-sfp/Debug/libstm32l5xx.a(stm32-device.o)
 .rodata.stm32__device__gpio_af_i2sext_6
                0x0000000000000000        0x1 /.share/CACHEDEV1_DATA/Ada/STM32/L/L522/test/Ada_Drivers_Library/arch/ARM/STM32/lib/stm32l5nucleo_s/ravenscar-sfp/Debug/libstm32l5xx.a(stm32-device.o)
 .rodata.stm32__device__gpio_af_i2s3ext_7
                0x0000000000000000        0x1 /.share/CACHEDEV1_DATA/Ada/STM32/L/L522/test/Ada_Drivers_Library/arch/ARM/STM32/lib/stm32l5nucleo_s/ravenscar-sfp/Debug/libstm32l5xx.a(stm32-device.o)
 .rodata.stm32__device__gpio_af_usart1_7
                0x0000000000000000        0x1 /.share/CACHEDEV1_DATA/Ada/STM32/L/L522/test/Ada_Drivers_Library/arch/ARM/STM32/lib/stm32l5nucleo_s/ravenscar-sfp/Debug/libstm32l5xx.a(stm32-device.o)
 .rodata.stm32__device__gpio_af_usart2_7
                0x0000000000000000        0x1 /.share/CACHEDEV1_DATA/Ada/STM32/L/L522/test/Ada_Drivers_Library/arch/ARM/STM32/lib/stm32l5nucleo_s/ravenscar-sfp/Debug/libstm32l5xx.a(stm32-device.o)
 .rodata.stm32__device__gpio_af_usart3_7
                0x0000000000000000        0x1 /.share/CACHEDEV1_DATA/Ada/STM32/L/L522/test/Ada_Drivers_Library/arch/ARM/STM32/lib/stm32l5nucleo_s/ravenscar-sfp/Debug/libstm32l5xx.a(stm32-device.o)
 .rodata.stm32__device__gpio_af_uart4_8
                0x0000000000000000        0x1 /.share/CACHEDEV1_DATA/Ada/STM32/L/L522/test/Ada_Drivers_Library/arch/ARM/STM32/lib/stm32l5nucleo_s/ravenscar-sfp/Debug/libstm32l5xx.a(stm32-device.o)
 .rodata.stm32__device__gpio_af_uart5_8
                0x0000000000000000        0x1 /.share/CACHEDEV1_DATA/Ada/STM32/L/L522/test/Ada_Drivers_Library/arch/ARM/STM32/lib/stm32l5nucleo_s/ravenscar-sfp/Debug/libstm32l5xx.a(stm32-device.o)
 .rodata.stm32__device__gpio_af_usart6_8
                0x0000000000000000        0x1 /.share/CACHEDEV1_DATA/Ada/STM32/L/L522/test/Ada_Drivers_Library/arch/ARM/STM32/lib/stm32l5nucleo_s/ravenscar-sfp/Debug/libstm32l5xx.a(stm32-device.o)
 .rodata.stm32__device__gpio_af_can1_9
                0x0000000000000000        0x1 /.share/CACHEDEV1_DATA/Ada/STM32/L/L522/test/Ada_Drivers_Library/arch/ARM/STM32/lib/stm32l5nucleo_s/ravenscar-sfp/Debug/libstm32l5xx.a(stm32-device.o)
 .rodata.stm32__device__gpio_af_can2_9
                0x0000000000000000        0x1 /.share/CACHEDEV1_DATA/Ada/STM32/L/L522/test/Ada_Drivers_Library/arch/ARM/STM32/lib/stm32l5nucleo_s/ravenscar-sfp/Debug/libstm32l5xx.a(stm32-device.o)
 .rodata.stm32__device__gpio_af_tim12_9
                0x0000000000000000        0x1 /.share/CACHEDEV1_DATA/Ada/STM32/L/L522/test/Ada_Drivers_Library/arch/ARM/STM32/lib/stm32l5nucleo_s/ravenscar-sfp/Debug/libstm32l5xx.a(stm32-device.o)
 .rodata.stm32__device__gpio_af_tim13_9
                0x0000000000000000        0x1 /.share/CACHEDEV1_DATA/Ada/STM32/L/L522/test/Ada_Drivers_Library/arch/ARM/STM32/lib/stm32l5nucleo_s/ravenscar-sfp/Debug/libstm32l5xx.a(stm32-device.o)
 .rodata.stm32__device__gpio_af_tim14_9
                0x0000000000000000        0x1 /.share/CACHEDEV1_DATA/Ada/STM32/L/L522/test/Ada_Drivers_Library/arch/ARM/STM32/lib/stm32l5nucleo_s/ravenscar-sfp/Debug/libstm32l5xx.a(stm32-device.o)
 .rodata.stm32__device__gpio_af_otg_fs_10
                0x0000000000000000        0x1 /.share/CACHEDEV1_DATA/Ada/STM32/L/L522/test/Ada_Drivers_Library/arch/ARM/STM32/lib/stm32l5nucleo_s/ravenscar-sfp/Debug/libstm32l5xx.a(stm32-device.o)
 .rodata.stm32__device__gpio_af_otg_hs_10
                0x0000000000000000        0x1 /.share/CACHEDEV1_DATA/Ada/STM32/L/L522/test/Ada_Drivers_Library/arch/ARM/STM32/lib/stm32l5nucleo_s/ravenscar-sfp/Debug/libstm32l5xx.a(stm32-device.o)
 .rodata.stm32__device__gpio_af_eth_11
                0x0000000000000000        0x1 /.share/CACHEDEV1_DATA/Ada/STM32/L/L522/test/Ada_Drivers_Library/arch/ARM/STM32/lib/stm32l5nucleo_s/ravenscar-sfp/Debug/libstm32l5xx.a(stm32-device.o)
 .rodata.stm32__device__gpio_af_fmc_12
                0x0000000000000000        0x1 /.share/CACHEDEV1_DATA/Ada/STM32/L/L522/test/Ada_Drivers_Library/arch/ARM/STM32/lib/stm32l5nucleo_s/ravenscar-sfp/Debug/libstm32l5xx.a(stm32-device.o)
 .rodata.stm32__device__gpio_af_otg_fs_12
                0x0000000000000000        0x1 /.share/CACHEDEV1_DATA/Ada/STM32/L/L522/test/Ada_Drivers_Library/arch/ARM/STM32/lib/stm32l5nucleo_s/ravenscar-sfp/Debug/libstm32l5xx.a(stm32-device.o)
 .rodata.stm32__device__gpio_af_dcmi_13
                0x0000000000000000        0x1 /.share/CACHEDEV1_DATA/Ada/STM32/L/L522/test/Ada_Drivers_Library/arch/ARM/STM32/lib/stm32l5nucleo_s/ravenscar-sfp/Debug/libstm32l5xx.a(stm32-device.o)
 .rodata.stm32__device__gpio_af_eventout_15
                0x0000000000000000        0x1 /.share/CACHEDEV1_DATA/Ada/STM32/L/L522/test/Ada_Drivers_Library/arch/ARM/STM32/lib/stm32l5nucleo_s/ravenscar-sfp/Debug/libstm32l5xx.a(stm32-device.o)
 .text          0x0000000000000000        0x0 /.share/CACHEDEV1_DATA/Ada/STM32/L/L522/test/Ada_Drivers_Library/arch/ARM/STM32/lib/stm32l5nucleo_s/ravenscar-sfp/Debug/libstm32l5xx.a(stm32-exti.o)
 .data          0x0000000000000000        0x0 /.share/CACHEDEV1_DATA/Ada/STM32/L/L522/test/Ada_Drivers_Library/arch/ARM/STM32/lib/stm32l5nucleo_s/ravenscar-sfp/Debug/libstm32l5xx.a(stm32-exti.o)
 .bss           0x0000000000000000        0x0 /.share/CACHEDEV1_DATA/Ada/STM32/L/L522/test/Ada_Drivers_Library/arch/ARM/STM32/lib/stm32l5nucleo_s/ravenscar-sfp/Debug/libstm32l5xx.a(stm32-exti.o)
 .text.stm32__exti__disable_external_interrupt
                0x0000000000000000      0x198 /.share/CACHEDEV1_DATA/Ada/STM32/L/L522/test/Ada_Drivers_Library/arch/ARM/STM32/lib/stm32l5nucleo_s/ravenscar-sfp/Debug/libstm32l5xx.a(stm32-exti.o)
 .text.stm32__exti__disable_external_event
                0x0000000000000000       0xe0 /.share/CACHEDEV1_DATA/Ada/STM32/L/L522/test/Ada_Drivers_Library/arch/ARM/STM32/lib/stm32l5nucleo_s/ravenscar-sfp/Debug/libstm32l5xx.a(stm32-exti.o)
 .text.stm32__exti__generate_swi
                0x0000000000000000       0x60 /.share/CACHEDEV1_DATA/Ada/STM32/L/L522/test/Ada_Drivers_Library/arch/ARM/STM32/lib/stm32l5nucleo_s/ravenscar-sfp/Debug/libstm32l5xx.a(stm32-exti.o)
 .text.stm32__exti__external_interrupt_pending
                0x0000000000000000       0x7c /.share/CACHEDEV1_DATA/Ada/STM32/L/L522/test/Ada_Drivers_Library/arch/ARM/STM32/lib/stm32l5nucleo_s/ravenscar-sfp/Debug/libstm32l5xx.a(stm32-exti.o)
 .text.stm32__exti__clear_external_interrupt
                0x0000000000000000       0xbc /.share/CACHEDEV1_DATA/Ada/STM32/L/L522/test/Ada_Drivers_Library/arch/ARM/STM32/lib/stm32l5nucleo_s/ravenscar-sfp/Debug/libstm32l5xx.a(stm32-exti.o)
 .rodata.stm32__exti__external_triggersS
                0x0000000000000000       0x84 /.share/CACHEDEV1_DATA/Ada/STM32/L/L522/test/Ada_Drivers_Library/arch/ARM/STM32/lib/stm32l5nucleo_s/ravenscar-sfp/Debug/libstm32l5xx.a(stm32-exti.o)
 .rodata.stm32__exti__external_triggersN
                0x0000000000000000        0xe /.share/CACHEDEV1_DATA/Ada/STM32/L/L522/test/Ada_Drivers_Library/arch/ARM/STM32/lib/stm32l5nucleo_s/ravenscar-sfp/Debug/libstm32l5xx.a(stm32-exti.o)
 .rodata.stm32__exti__external_line_numberS
                0x0000000000000000      0x10a /.share/CACHEDEV1_DATA/Ada/STM32/L/L522/test/Ada_Drivers_Library/arch/ARM/STM32/lib/stm32l5nucleo_s/ravenscar-sfp/Debug/libstm32l5xx.a(stm32-exti.o)
 .rodata.stm32__exti__external_line_numberN
                0x0000000000000000       0x30 /.share/CACHEDEV1_DATA/Ada/STM32/L/L522/test/Ada_Drivers_Library/arch/ARM/STM32/lib/stm32l5nucleo_s/ravenscar-sfp/Debug/libstm32l5xx.a(stm32-exti.o)
 .text          0x0000000000000000        0x0 /.share/CACHEDEV1_DATA/Ada/STM32/L/L522/test/Ada_Drivers_Library/arch/ARM/STM32/lib/stm32l5nucleo_s/ravenscar-sfp/Debug/libstm32l5xx.a(stm32-gpio.o)
 .data          0x0000000000000000        0x0 /.share/CACHEDEV1_DATA/Ada/STM32/L/L522/test/Ada_Drivers_Library/arch/ARM/STM32/lib/stm32l5nucleo_s/ravenscar-sfp/Debug/libstm32l5xx.a(stm32-gpio.o)
 .bss           0x0000000000000000        0x0 /.share/CACHEDEV1_DATA/Ada/STM32/L/L522/test/Ada_Drivers_Library/arch/ARM/STM32/lib/stm32l5nucleo_s/ravenscar-sfp/Debug/libstm32l5xx.a(stm32-gpio.o)
 .text.stm32__gpio__gpio_pinsIP
                0x0000000000000000       0x14 /.share/CACHEDEV1_DATA/Ada/STM32/L/L522/test/Ada_Drivers_Library/arch/ARM/STM32/lib/stm32l5nucleo_s/ravenscar-sfp/Debug/libstm32l5xx.a(stm32-gpio.o)
 .text.stm32__gpio__gpio_portEQ
                0x0000000000000000       0x18 /.share/CACHEDEV1_DATA/Ada/STM32/L/L522/test/Ada_Drivers_Library/arch/ARM/STM32/lib/stm32l5nucleo_s/ravenscar-sfp/Debug/libstm32l5xx.a(stm32-gpio.o)
 .text.stm32__gpio__gpio_port_configurationIP
                0x0000000000000000       0x30 /.share/CACHEDEV1_DATA/Ada/STM32/L/L522/test/Ada_Drivers_Library/arch/ARM/STM32/lib/stm32l5nucleo_s/ravenscar-sfp/Debug/libstm32l5xx.a(stm32-gpio.o)
 .text.stm32__gpio__any_set
                0x0000000000000000       0x60 /.share/CACHEDEV1_DATA/Ada/STM32/L/L522/test/Ada_Drivers_Library/arch/ARM/STM32/lib/stm32l5nucleo_s/ravenscar-sfp/Debug/libstm32l5xx.a(stm32-gpio.o)
 .text.stm32__gpio__all_set
                0x0000000000000000       0x68 /.share/CACHEDEV1_DATA/Ada/STM32/L/L522/test/Ada_Drivers_Library/arch/ARM/STM32/lib/stm32l5nucleo_s/ravenscar-sfp/Debug/libstm32l5xx.a(stm32-gpio.o)
 .text.stm32__gpio__set__4
                0x0000000000000000       0x50 /.share/CACHEDEV1_DATA/Ada/STM32/L/L522/test/Ada_Drivers_Library/arch/ARM/STM32/lib/stm32l5nucleo_s/ravenscar-sfp/Debug/libstm32l5xx.a(stm32-gpio.o)
 .text.stm32__gpio__clear__2
                0x0000000000000000       0x50 /.share/CACHEDEV1_DATA/Ada/STM32/L/L522/test/Ada_Drivers_Library/arch/ARM/STM32/lib/stm32l5nucleo_s/ravenscar-sfp/Debug/libstm32l5xx.a(stm32-gpio.o)
 .text.stm32__gpio__toggle__2
                0x0000000000000000       0x50 /.share/CACHEDEV1_DATA/Ada/STM32/L/L522/test/Ada_Drivers_Library/arch/ARM/STM32/lib/stm32l5nucleo_s/ravenscar-sfp/Debug/libstm32l5xx.a(stm32-gpio.o)
 .text.stm32__gpio__lock__2
                0x0000000000000000       0x74 /.share/CACHEDEV1_DATA/Ada/STM32/L/L522/test/Ada_Drivers_Library/arch/ARM/STM32/lib/stm32l5nucleo_s/ravenscar-sfp/Debug/libstm32l5xx.a(stm32-gpio.o)
 .text.stm32__gpio__configure_alternate_function__2
                0x0000000000000000       0x58 /.share/CACHEDEV1_DATA/Ada/STM32/L/L522/test/Ada_Drivers_Library/arch/ARM/STM32/lib/stm32l5nucleo_s/ravenscar-sfp/Debug/libstm32l5xx.a(stm32-gpio.o)
 .text.stm32__gpio__configure_trigger__2
                0x0000000000000000       0x58 /.share/CACHEDEV1_DATA/Ada/STM32/L/L522/test/Ada_Drivers_Library/arch/ARM/STM32/lib/stm32l5nucleo_s/ravenscar-sfp/Debug/libstm32l5xx.a(stm32-gpio.o)
 .rodata.stm32__gpio__gpio_pinS
                0x0000000000000000       0x56 /.share/CACHEDEV1_DATA/Ada/STM32/L/L522/test/Ada_Drivers_Library/arch/ARM/STM32/lib/stm32l5nucleo_s/ravenscar-sfp/Debug/libstm32l5xx.a(stm32-gpio.o)
 .rodata.stm32__gpio__gpio_pinN
                0x0000000000000000       0x11 /.share/CACHEDEV1_DATA/Ada/STM32/L/L522/test/Ada_Drivers_Library/arch/ARM/STM32/lib/stm32l5nucleo_s/ravenscar-sfp/Debug/libstm32l5xx.a(stm32-gpio.o)
 .rodata.stm32__gpio__gpio_pinA
                0x0000000000000000       0x20 /.share/CACHEDEV1_DATA/Ada/STM32/L/L522/test/Ada_Drivers_Library/arch/ARM/STM32/lib/stm32l5nucleo_s/ravenscar-sfp/Debug/libstm32l5xx.a(stm32-gpio.o)
 .rodata.stm32__gpio__all_pins
                0x0000000000000000       0x20 /.share/CACHEDEV1_DATA/Ada/STM32/L/L522/test/Ada_Drivers_Library/arch/ARM/STM32/lib/stm32l5nucleo_s/ravenscar-sfp/Debug/libstm32l5xx.a(stm32-gpio.o)
 .rodata.stm32__gpio__pin_output_speedsS
                0x0000000000000000       0x2c /.share/CACHEDEV1_DATA/Ada/STM32/L/L522/test/Ada_Drivers_Library/arch/ARM/STM32/lib/stm32l5nucleo_s/ravenscar-sfp/Debug/libstm32l5xx.a(stm32-gpio.o)
 .rodata.stm32__gpio__pin_output_speedsN
                0x0000000000000000        0x8 /.share/CACHEDEV1_DATA/Ada/STM32/L/L522/test/Ada_Drivers_Library/arch/ARM/STM32/lib/stm32l5nucleo_s/ravenscar-sfp/Debug/libstm32l5xx.a(stm32-gpio.o)
 .rodata.stm32__gpio__speed_low
                0x0000000000000000        0x1 /.share/CACHEDEV1_DATA/Ada/STM32/L/L522/test/Ada_Drivers_Library/arch/ARM/STM32/lib/stm32l5nucleo_s/ravenscar-sfp/Debug/libstm32l5xx.a(stm32-gpio.o)
 .rodata.stm32__gpio__speed_medium
                0x0000000000000000        0x1 /.share/CACHEDEV1_DATA/Ada/STM32/L/L522/test/Ada_Drivers_Library/arch/ARM/STM32/lib/stm32l5nucleo_s/ravenscar-sfp/Debug/libstm32l5xx.a(stm32-gpio.o)
 .rodata.stm32__gpio__speed_high
                0x0000000000000000        0x1 /.share/CACHEDEV1_DATA/Ada/STM32/L/L522/test/Ada_Drivers_Library/arch/ARM/STM32/lib/stm32l5nucleo_s/ravenscar-sfp/Debug/libstm32l5xx.a(stm32-gpio.o)
 .rodata.stm32__gpio__speed_very_high
                0x0000000000000000        0x1 /.share/CACHEDEV1_DATA/Ada/STM32/L/L522/test/Ada_Drivers_Library/arch/ARM/STM32/lib/stm32l5nucleo_s/ravenscar-sfp/Debug/libstm32l5xx.a(stm32-gpio.o)
 .rodata.stm32__gpio__lcck
                0x0000000000000000        0x4 /.share/CACHEDEV1_DATA/Ada/STM32/L/L522/test/Ada_Drivers_Library/arch/ARM/STM32/lib/stm32l5nucleo_s/ravenscar-sfp/Debug/libstm32l5xx.a(stm32-gpio.o)
 .rodata.stm32__gpio__pin_io_modesS
                0x0000000000000000       0x21 /.share/CACHEDEV1_DATA/Ada/STM32/L/L522/test/Ada_Drivers_Library/arch/ARM/STM32/lib/stm32l5nucleo_s/ravenscar-sfp/Debug/libstm32l5xx.a(stm32-gpio.o)
 .rodata.stm32__gpio__pin_io_modesN
                0x0000000000000000        0x8 /.share/CACHEDEV1_DATA/Ada/STM32/L/L522/test/Ada_Drivers_Library/arch/ARM/STM32/lib/stm32l5nucleo_s/ravenscar-sfp/Debug/libstm32l5xx.a(stm32-gpio.o)
 .rodata.stm32__gpio__pin_output_typesS
                0x0000000000000000       0x13 /.share/CACHEDEV1_DATA/Ada/STM32/L/L522/test/Ada_Drivers_Library/arch/ARM/STM32/lib/stm32l5nucleo_s/ravenscar-sfp/Debug/libstm32l5xx.a(stm32-gpio.o)
 .rodata.stm32__gpio__pin_output_typesN
                0x0000000000000000        0x4 /.share/CACHEDEV1_DATA/Ada/STM32/L/L522/test/Ada_Drivers_Library/arch/ARM/STM32/lib/stm32l5nucleo_s/ravenscar-sfp/Debug/libstm32l5xx.a(stm32-gpio.o)
 .rodata.stm32__gpio__internal_pin_resistorsS
                0x0000000000000000       0x18 /.share/CACHEDEV1_DATA/Ada/STM32/L/L522/test/Ada_Drivers_Library/arch/ARM/STM32/lib/stm32l5nucleo_s/ravenscar-sfp/Debug/libstm32l5xx.a(stm32-gpio.o)
 .rodata.stm32__gpio__internal_pin_resistorsN
                0x0000000000000000        0x4 /.share/CACHEDEV1_DATA/Ada/STM32/L/L522/test/Ada_Drivers_Library/arch/ARM/STM32/lib/stm32l5nucleo_s/ravenscar-sfp/Debug/libstm32l5xx.a(stm32-gpio.o)
 .rodata.stm32__gpio__gpio_pointP
                0x0000000000000000        0x4 /.share/CACHEDEV1_DATA/Ada/STM32/L/L522/test/Ada_Drivers_Library/arch/ARM/STM32/lib/stm32l5nucleo_s/ravenscar-sfp/Debug/libstm32l5xx.a(stm32-gpio.o)
 .rodata.stm32__gpio__gpio_pointY
                0x0000000000000000        0x4 /.share/CACHEDEV1_DATA/Ada/STM32/L/L522/test/Ada_Drivers_Library/arch/ARM/STM32/lib/stm32l5nucleo_s/ravenscar-sfp/Debug/libstm32l5xx.a(stm32-gpio.o)
 .rodata.stm32__gpio__gpio_pointR72s
                0x0000000000000000        0x4 /.share/CACHEDEV1_DATA/Ada/STM32/L/L522/test/Ada_Drivers_Library/arch/ARM/STM32/lib/stm32l5nucleo_s/ravenscar-sfp/Debug/libstm32l5xx.a(stm32-gpio.o)
 .text          0x0000000000000000        0x0 /.share/CACHEDEV1_DATA/Ada/STM32/L/L522/test/Ada_Drivers_Library/arch/ARM/STM32/lib/stm32l5nucleo_s/ravenscar-sfp/Debug/libstm32l5xx.a(stm32-mpu.o)
 .data          0x0000000000000000        0x0 /.share/CACHEDEV1_DATA/Ada/STM32/L/L522/test/Ada_Drivers_Library/arch/ARM/STM32/lib/stm32l5nucleo_s/ravenscar-sfp/Debug/libstm32l5xx.a(stm32-mpu.o)
 .bss           0x0000000000000000        0x0 /.share/CACHEDEV1_DATA/Ada/STM32/L/L522/test/Ada_Drivers_Library/arch/ARM/STM32/lib/stm32l5nucleo_s/ravenscar-sfp/Debug/libstm32l5xx.a(stm32-mpu.o)
 .text.stm32__mpu__attr_typeIP
                0x0000000000000000       0x14 /.share/CACHEDEV1_DATA/Ada/STM32/L/L522/test/Ada_Drivers_Library/arch/ARM/STM32/lib/stm32l5nucleo_s/ravenscar-sfp/Debug/libstm32l5xx.a(stm32-mpu.o)
 .text.stm32__mpu__rlar_overlayEQ
                0x0000000000000000       0xe4 /.share/CACHEDEV1_DATA/Ada/STM32/L/L522/test/Ada_Drivers_Library/arch/ARM/STM32/lib/stm32l5nucleo_s/ravenscar-sfp/Debug/libstm32l5xx.a(stm32-mpu.o)
 .text          0x0000000000000000        0x0 /.share/CACHEDEV1_DATA/Ada/STM32/L/L522/test/Ada_Drivers_Library/arch/ARM/STM32/lib/stm32l5nucleo_s/ravenscar-sfp/Debug/libstm32l5xx.a(stm32-sau.o)
 .data          0x0000000000000000        0x0 /.share/CACHEDEV1_DATA/Ada/STM32/L/L522/test/Ada_Drivers_Library/arch/ARM/STM32/lib/stm32l5nucleo_s/ravenscar-sfp/Debug/libstm32l5xx.a(stm32-sau.o)
 .bss           0x0000000000000000        0x0 /.share/CACHEDEV1_DATA/Ada/STM32/L/L522/test/Ada_Drivers_Library/arch/ARM/STM32/lib/stm32l5nucleo_s/ravenscar-sfp/Debug/libstm32l5xx.a(stm32-sau.o)
 .text.stm32__sau__rlar_overlayEQ
                0x0000000000000000       0xe4 /.share/CACHEDEV1_DATA/Ada/STM32/L/L522/test/Ada_Drivers_Library/arch/ARM/STM32/lib/stm32l5nucleo_s/ravenscar-sfp/Debug/libstm32l5xx.a(stm32-sau.o)
 .text.stm32__sau__rlar_overlayIP
                0x0000000000000000       0x20 /.share/CACHEDEV1_DATA/Ada/STM32/L/L522/test/Ada_Drivers_Library/arch/ARM/STM32/lib/stm32l5nucleo_s/ravenscar-sfp/Debug/libstm32l5xx.a(stm32-sau.o)
 .text.stm32__sau__add_region
                0x0000000000000000       0x90 /.share/CACHEDEV1_DATA/Ada/STM32/L/L522/test/Ada_Drivers_Library/arch/ARM/STM32/lib/stm32l5nucleo_s/ravenscar-sfp/Debug/libstm32l5xx.a(stm32-sau.o)
 .text.stm32__sau__enable_sau
                0x0000000000000000       0x1c /.share/CACHEDEV1_DATA/Ada/STM32/L/L522/test/Ada_Drivers_Library/arch/ARM/STM32/lib/stm32l5nucleo_s/ravenscar-sfp/Debug/libstm32l5xx.a(stm32-sau.o)
 .text          0x0000000000000000        0x0 /.share/CACHEDEV1_DATA/Ada/STM32/L/L522/test/Ada_Drivers_Library/arch/ARM/STM32/lib/stm32l5nucleo_s/ravenscar-sfp/Debug/libstm32l5xx.a(stm32_svd-mpu.o)
 .data          0x0000000000000000        0x0 /.share/CACHEDEV1_DATA/Ada/STM32/L/L522/test/Ada_Drivers_Library/arch/ARM/STM32/lib/stm32l5nucleo_s/ravenscar-sfp/Debug/libstm32l5xx.a(stm32_svd-mpu.o)
 .bss           0x0000000000000000        0x0 /.share/CACHEDEV1_DATA/Ada/STM32/L/L522/test/Ada_Drivers_Library/arch/ARM/STM32/lib/stm32l5nucleo_s/ravenscar-sfp/Debug/libstm32l5xx.a(stm32_svd-mpu.o)
 .text.stm32_svd__mpu__mpu_type_registerIP
                0x0000000000000000       0x4c /.share/CACHEDEV1_DATA/Ada/STM32/L/L522/test/Ada_Drivers_Library/arch/ARM/STM32/lib/stm32l5nucleo_s/ravenscar-sfp/Debug/libstm32l5xx.a(stm32_svd-mpu.o)
 .text.stm32_svd__mpu__mpu_ctrl_registerIP
                0x0000000000000000       0x4c /.share/CACHEDEV1_DATA/Ada/STM32/L/L522/test/Ada_Drivers_Library/arch/ARM/STM32/lib/stm32l5nucleo_s/ravenscar-sfp/Debug/libstm32l5xx.a(stm32_svd-mpu.o)
 .text.stm32_svd__mpu__mpu_rnr_registerIP
                0x0000000000000000       0x30 /.share/CACHEDEV1_DATA/Ada/STM32/L/L522/test/Ada_Drivers_Library/arch/ARM/STM32/lib/stm32l5nucleo_s/ravenscar-sfp/Debug/libstm32l5xx.a(stm32_svd-mpu.o)
 .text.stm32_svd__mpu__mpu_rbar_alias_registerIP
                0x0000000000000000       0x4c /.share/CACHEDEV1_DATA/Ada/STM32/L/L522/test/Ada_Drivers_Library/arch/ARM/STM32/lib/stm32l5nucleo_s/ravenscar-sfp/Debug/libstm32l5xx.a(stm32_svd-mpu.o)
 .text.stm32_svd__mpu__mpu_rlar_alias_registerIP
                0x0000000000000000       0x4c /.share/CACHEDEV1_DATA/Ada/STM32/L/L522/test/Ada_Drivers_Library/arch/ARM/STM32/lib/stm32l5nucleo_s/ravenscar-sfp/Debug/libstm32l5xx.a(stm32_svd-mpu.o)
 .text.stm32_svd__mpu__Tmpu_mair0_attr_field_arrayBIP
                0x0000000000000000       0x14 /.share/CACHEDEV1_DATA/Ada/STM32/L/L522/test/Ada_Drivers_Library/arch/ARM/STM32/lib/stm32l5nucleo_s/ravenscar-sfp/Debug/libstm32l5xx.a(stm32_svd-mpu.o)
 .text.stm32_svd__mpu__mpu_mair0_registerEQ
                0x0000000000000000       0x60 /.share/CACHEDEV1_DATA/Ada/STM32/L/L522/test/Ada_Drivers_Library/arch/ARM/STM32/lib/stm32l5nucleo_s/ravenscar-sfp/Debug/libstm32l5xx.a(stm32_svd-mpu.o)
 .text.stm32_svd__mpu__mpu_mair0_registerIP
                0x0000000000000000       0x18 /.share/CACHEDEV1_DATA/Ada/STM32/L/L522/test/Ada_Drivers_Library/arch/ARM/STM32/lib/stm32l5nucleo_s/ravenscar-sfp/Debug/libstm32l5xx.a(stm32_svd-mpu.o)
 .text.stm32_svd__mpu__Tmpu_mair1_attr_field_arrayBIP
                0x0000000000000000       0x14 /.share/CACHEDEV1_DATA/Ada/STM32/L/L522/test/Ada_Drivers_Library/arch/ARM/STM32/lib/stm32l5nucleo_s/ravenscar-sfp/Debug/libstm32l5xx.a(stm32_svd-mpu.o)
 .text.stm32_svd__mpu__mpu_mair1_registerEQ
                0x0000000000000000       0x60 /.share/CACHEDEV1_DATA/Ada/STM32/L/L522/test/Ada_Drivers_Library/arch/ARM/STM32/lib/stm32l5nucleo_s/ravenscar-sfp/Debug/libstm32l5xx.a(stm32_svd-mpu.o)
 .text.stm32_svd__mpu__mpu_mair1_registerIP
                0x0000000000000000       0x18 /.share/CACHEDEV1_DATA/Ada/STM32/L/L522/test/Ada_Drivers_Library/arch/ARM/STM32/lib/stm32l5nucleo_s/ravenscar-sfp/Debug/libstm32l5xx.a(stm32_svd-mpu.o)
 .rodata        0x0000000000000000       0x12 /.share/CACHEDEV1_DATA/Ada/STM32/L/L522/test/Ada_Drivers_Library/arch/ARM/STM32/lib/stm32l5nucleo_s/ravenscar-sfp/Debug/libstm32l5xx.a(stm32_svd-mpu.o)
 .text.stm32_svd__mpu__mpu_peripheralEQ
                0x0000000000000000       0x18 /.share/CACHEDEV1_DATA/Ada/STM32/L/L522/test/Ada_Drivers_Library/arch/ARM/STM32/lib/stm32l5nucleo_s/ravenscar-sfp/Debug/libstm32l5xx.a(stm32_svd-mpu.o)
 .text.stm32_svd__mpu__mpu_peripheralIP
                0x0000000000000000       0x7c /.share/CACHEDEV1_DATA/Ada/STM32/L/L522/test/Ada_Drivers_Library/arch/ARM/STM32/lib/stm32l5nucleo_s/ravenscar-sfp/Debug/libstm32l5xx.a(stm32_svd-mpu.o)
 .rodata.stm32_svd__mpu__mpu_periph
                0x0000000000000000        0x4 /.share/CACHEDEV1_DATA/Ada/STM32/L/L522/test/Ada_Drivers_Library/arch/ARM/STM32/lib/stm32l5nucleo_s/ravenscar-sfp/Debug/libstm32l5xx.a(stm32_svd-mpu.o)
 .text          0x0000000000000000        0x0 /.share/CACHEDEV1_DATA/Ada/STM32/L/L522/test/Ada_Drivers_Library/arch/ARM/STM32/lib/stm32l5nucleo_s/ravenscar-sfp/Debug/libstm32l5xx.a(stm32_svd-sau.o)
 .data          0x0000000000000000        0x0 /.share/CACHEDEV1_DATA/Ada/STM32/L/L522/test/Ada_Drivers_Library/arch/ARM/STM32/lib/stm32l5nucleo_s/ravenscar-sfp/Debug/libstm32l5xx.a(stm32_svd-sau.o)
 .bss           0x0000000000000000        0x0 /.share/CACHEDEV1_DATA/Ada/STM32/L/L522/test/Ada_Drivers_Library/arch/ARM/STM32/lib/stm32l5nucleo_s/ravenscar-sfp/Debug/libstm32l5xx.a(stm32_svd-sau.o)
 .text.stm32_svd__sau__sau_ctrl_registerIP
                0x0000000000000000       0x3c /.share/CACHEDEV1_DATA/Ada/STM32/L/L522/test/Ada_Drivers_Library/arch/ARM/STM32/lib/stm32l5nucleo_s/ravenscar-sfp/Debug/libstm32l5xx.a(stm32_svd-sau.o)
 .text.stm32_svd__sau__sau_type_registerIP
                0x0000000000000000       0x30 /.share/CACHEDEV1_DATA/Ada/STM32/L/L522/test/Ada_Drivers_Library/arch/ARM/STM32/lib/stm32l5nucleo_s/ravenscar-sfp/Debug/libstm32l5xx.a(stm32_svd-sau.o)
 .text.stm32_svd__sau__sau_rnr_registerIP
                0x0000000000000000       0x30 /.share/CACHEDEV1_DATA/Ada/STM32/L/L522/test/Ada_Drivers_Library/arch/ARM/STM32/lib/stm32l5nucleo_s/ravenscar-sfp/Debug/libstm32l5xx.a(stm32_svd-sau.o)
 .text.stm32_svd__sau__sau_rbar_registerIP
                0x0000000000000000       0x30 /.share/CACHEDEV1_DATA/Ada/STM32/L/L522/test/Ada_Drivers_Library/arch/ARM/STM32/lib/stm32l5nucleo_s/ravenscar-sfp/Debug/libstm32l5xx.a(stm32_svd-sau.o)
 .text.stm32_svd__sau__sau_rlar_registerIP
                0x0000000000000000       0x4c /.share/CACHEDEV1_DATA/Ada/STM32/L/L522/test/Ada_Drivers_Library/arch/ARM/STM32/lib/stm32l5nucleo_s/ravenscar-sfp/Debug/libstm32l5xx.a(stm32_svd-sau.o)
 .text.stm32_svd__sau__sfsr_registerIP
                0x0000000000000000       0x90 /.share/CACHEDEV1_DATA/Ada/STM32/L/L522/test/Ada_Drivers_Library/arch/ARM/STM32/lib/stm32l5nucleo_s/ravenscar-sfp/Debug/libstm32l5xx.a(stm32_svd-sau.o)
 .text.stm32_svd__sau__sau_peripheralIP
                0x0000000000000000       0x48 /.share/CACHEDEV1_DATA/Ada/STM32/L/L522/test/Ada_Drivers_Library/arch/ARM/STM32/lib/stm32l5nucleo_s/ravenscar-sfp/Debug/libstm32l5xx.a(stm32_svd-sau.o)
 .rodata.stm32_svd__sau__sau_periph
                0x0000000000000000        0x4 /.share/CACHEDEV1_DATA/Ada/STM32/L/L522/test/Ada_Drivers_Library/arch/ARM/STM32/lib/stm32l5nucleo_s/ravenscar-sfp/Debug/libstm32l5xx.a(stm32_svd-sau.o)
 .debug_info    0x0000000000000000      0x371 /.share/CACHEDEV1_DATA/Ada/STM32/L/L522/test/Ada_Drivers_Library/arch/ARM/STM32/lib/stm32l5nucleo_s/ravenscar-sfp/Debug/libstm32l5xx.a(stm32_svd-sau.o)
 .debug_abbrev  0x0000000000000000       0xcc /.share/CACHEDEV1_DATA/Ada/STM32/L/L522/test/Ada_Drivers_Library/arch/ARM/STM32/lib/stm32l5nucleo_s/ravenscar-sfp/Debug/libstm32l5xx.a(stm32_svd-sau.o)
 .debug_aranges
                0x0000000000000000       0x18 /.share/CACHEDEV1_DATA/Ada/STM32/L/L522/test/Ada_Drivers_Library/arch/ARM/STM32/lib/stm32l5nucleo_s/ravenscar-sfp/Debug/libstm32l5xx.a(stm32_svd-sau.o)
 .debug_line    0x0000000000000000      0x158 /.share/CACHEDEV1_DATA/Ada/STM32/L/L522/test/Ada_Drivers_Library/arch/ARM/STM32/lib/stm32l5nucleo_s/ravenscar-sfp/Debug/libstm32l5xx.a(stm32_svd-sau.o)
 .debug_str     0x0000000000000000      0x5af /.share/CACHEDEV1_DATA/Ada/STM32/L/L522/test/Ada_Drivers_Library/arch/ARM/STM32/lib/stm32l5nucleo_s/ravenscar-sfp/Debug/libstm32l5xx.a(stm32_svd-sau.o)
 .comment       0x0000000000000000       0x3e /.share/CACHEDEV1_DATA/Ada/STM32/L/L522/test/Ada_Drivers_Library/arch/ARM/STM32/lib/stm32l5nucleo_s/ravenscar-sfp/Debug/libstm32l5xx.a(stm32_svd-sau.o)
 .debug_frame   0x0000000000000000      0x124 /.share/CACHEDEV1_DATA/Ada/STM32/L/L522/test/Ada_Drivers_Library/arch/ARM/STM32/lib/stm32l5nucleo_s/ravenscar-sfp/Debug/libstm32l5xx.a(stm32_svd-sau.o)
 .ARM.attributes
                0x0000000000000000       0x37 /.share/CACHEDEV1_DATA/Ada/STM32/L/L522/test/Ada_Drivers_Library/arch/ARM/STM32/lib/stm32l5nucleo_s/ravenscar-sfp/Debug/libstm32l5xx.a(stm32_svd-sau.o)
 .text          0x0000000000000000        0x0 /.share/CACHEDEV1_DATA/Ada/Ada_Drivers_Library/hal/lib/stm32l5nucleo_s/ravenscar-sfp/Debug/libHAL.a(hal-gpio.o)
 .data          0x0000000000000000        0x0 /.share/CACHEDEV1_DATA/Ada/Ada_Drivers_Library/hal/lib/stm32l5nucleo_s/ravenscar-sfp/Debug/libHAL.a(hal-gpio.o)
 .bss           0x0000000000000000        0x0 /.share/CACHEDEV1_DATA/Ada/Ada_Drivers_Library/hal/lib/stm32l5nucleo_s/ravenscar-sfp/Debug/libHAL.a(hal-gpio.o)
 .data.hal__gpio_E
                0x0000000000000000        0x2 /.share/CACHEDEV1_DATA/Ada/Ada_Drivers_Library/hal/lib/stm32l5nucleo_s/ravenscar-sfp/Debug/libHAL.a(hal-gpio.o)
 .rodata.hal__gpio__gpio_modeS
                0x0000000000000000       0x12 /.share/CACHEDEV1_DATA/Ada/Ada_Drivers_Library/hal/lib/stm32l5nucleo_s/ravenscar-sfp/Debug/libHAL.a(hal-gpio.o)
 .rodata.hal__gpio__gpio_modeN
                0x0000000000000000        0x4 /.share/CACHEDEV1_DATA/Ada/Ada_Drivers_Library/hal/lib/stm32l5nucleo_s/ravenscar-sfp/Debug/libHAL.a(hal-gpio.o)
 .rodata.hal__gpio__gpio_pull_resistorS
                0x0000000000000000       0x18 /.share/CACHEDEV1_DATA/Ada/Ada_Drivers_Library/hal/lib/stm32l5nucleo_s/ravenscar-sfp/Debug/libHAL.a(hal-gpio.o)
 .rodata.hal__gpio__gpio_pull_resistorN
                0x0000000000000000        0x4 /.share/CACHEDEV1_DATA/Ada/Ada_Drivers_Library/hal/lib/stm32l5nucleo_s/ravenscar-sfp/Debug/libHAL.a(hal-gpio.o)
 .rodata.hal__gpio__gpio_pointP
                0x0000000000000000        0x4 /.share/CACHEDEV1_DATA/Ada/Ada_Drivers_Library/hal/lib/stm32l5nucleo_s/ravenscar-sfp/Debug/libHAL.a(hal-gpio.o)
 .text          0x0000000000000000        0x0 /.share/CACHEDEV1_DATA/Ada/STM32/L/L522/test/Ada_Drivers_Library/embedded-runtimes/ravenscar-stm32l5nucleo_s/sfp/adalib/libgnarl.a(a-reatim.o)
 .data          0x0000000000000000        0x0 /.share/CACHEDEV1_DATA/Ada/STM32/L/L522/test/Ada_Drivers_Library/embedded-runtimes/ravenscar-stm32l5nucleo_s/sfp/adalib/libgnarl.a(a-reatim.o)
 .bss           0x0000000000000000        0x0 /.share/CACHEDEV1_DATA/Ada/STM32/L/L522/test/Ada_Drivers_Library/embedded-runtimes/ravenscar-stm32l5nucleo_s/sfp/adalib/libgnarl.a(a-reatim.o)
 .text.ada__real_time__Oadd__2
                0x0000000000000000       0x14 /.share/CACHEDEV1_DATA/Ada/STM32/L/L522/test/Ada_Drivers_Library/embedded-runtimes/ravenscar-stm32l5nucleo_s/sfp/adalib/libgnarl.a(a-reatim.o)
 .text.ada__real_time__Omultiply
                0x0000000000000000       0xac /.share/CACHEDEV1_DATA/Ada/STM32/L/L522/test/Ada_Drivers_Library/embedded-runtimes/ravenscar-stm32l5nucleo_s/sfp/adalib/libgnarl.a(a-reatim.o)
 .text.ada__real_time__Omultiply__2
                0x0000000000000000       0x10 /.share/CACHEDEV1_DATA/Ada/STM32/L/L522/test/Ada_Drivers_Library/embedded-runtimes/ravenscar-stm32l5nucleo_s/sfp/adalib/libgnarl.a(a-reatim.o)
 .text.ada__real_time__Oadd
                0x0000000000000000       0x68 /.share/CACHEDEV1_DATA/Ada/STM32/L/L522/test/Ada_Drivers_Library/embedded-runtimes/ravenscar-stm32l5nucleo_s/sfp/adalib/libgnarl.a(a-reatim.o)
 .text.ada__real_time__Oadd__3
                0x0000000000000000       0x30 /.share/CACHEDEV1_DATA/Ada/STM32/L/L522/test/Ada_Drivers_Library/embedded-runtimes/ravenscar-stm32l5nucleo_s/sfp/adalib/libgnarl.a(a-reatim.o)
 .text.ada__real_time__Osubtract
                0x0000000000000000       0x6c /.share/CACHEDEV1_DATA/Ada/STM32/L/L522/test/Ada_Drivers_Library/embedded-runtimes/ravenscar-stm32l5nucleo_s/sfp/adalib/libgnarl.a(a-reatim.o)
 .text.ada__real_time__Osubtract__2
                0x0000000000000000       0x48 /.share/CACHEDEV1_DATA/Ada/STM32/L/L522/test/Ada_Drivers_Library/embedded-runtimes/ravenscar-stm32l5nucleo_s/sfp/adalib/libgnarl.a(a-reatim.o)
 .text.ada__real_time__Osubtract__3
                0x0000000000000000       0x30 /.share/CACHEDEV1_DATA/Ada/STM32/L/L522/test/Ada_Drivers_Library/embedded-runtimes/ravenscar-stm32l5nucleo_s/sfp/adalib/libgnarl.a(a-reatim.o)
 .text.ada__real_time__Osubtract__4
                0x0000000000000000       0x24 /.share/CACHEDEV1_DATA/Ada/STM32/L/L522/test/Ada_Drivers_Library/embedded-runtimes/ravenscar-stm32l5nucleo_s/sfp/adalib/libgnarl.a(a-reatim.o)
 .text.ada__real_time__Odivide
                0x0000000000000000       0x44 /.share/CACHEDEV1_DATA/Ada/STM32/L/L522/test/Ada_Drivers_Library/embedded-runtimes/ravenscar-stm32l5nucleo_s/sfp/adalib/libgnarl.a(a-reatim.o)
 .text.ada__real_time__Odivide__2
                0x0000000000000000       0x34 /.share/CACHEDEV1_DATA/Ada/STM32/L/L522/test/Ada_Drivers_Library/embedded-runtimes/ravenscar-stm32l5nucleo_s/sfp/adalib/libgnarl.a(a-reatim.o)
 .text.ada__real_time__clock
                0x0000000000000000       0x60 /.share/CACHEDEV1_DATA/Ada/STM32/L/L522/test/Ada_Drivers_Library/embedded-runtimes/ravenscar-stm32l5nucleo_s/sfp/adalib/libgnarl.a(a-reatim.o)
 .text.ada__real_time__microseconds
                0x0000000000000000       0x44 /.share/CACHEDEV1_DATA/Ada/STM32/L/L522/test/Ada_Drivers_Library/embedded-runtimes/ravenscar-stm32l5nucleo_s/sfp/adalib/libgnarl.a(a-reatim.o)
 .text.ada__real_time__milliseconds
                0x0000000000000000       0x44 /.share/CACHEDEV1_DATA/Ada/STM32/L/L522/test/Ada_Drivers_Library/embedded-runtimes/ravenscar-stm32l5nucleo_s/sfp/adalib/libgnarl.a(a-reatim.o)
 .text.ada__real_time__minutes
                0x0000000000000000       0x50 /.share/CACHEDEV1_DATA/Ada/STM32/L/L522/test/Ada_Drivers_Library/embedded-runtimes/ravenscar-stm32l5nucleo_s/sfp/adalib/libgnarl.a(a-reatim.o)
 .text.ada__real_time__mul_div
                0x0000000000000000      0x11c /.share/CACHEDEV1_DATA/Ada/STM32/L/L522/test/Ada_Drivers_Library/embedded-runtimes/ravenscar-stm32l5nucleo_s/sfp/adalib/libgnarl.a(a-reatim.o)
 .text.ada__real_time__nanoseconds
                0x0000000000000000       0x6c /.share/CACHEDEV1_DATA/Ada/STM32/L/L522/test/Ada_Drivers_Library/embedded-runtimes/ravenscar-stm32l5nucleo_s/sfp/adalib/libgnarl.a(a-reatim.o)
 .text.ada__real_time__rounded_div
                0x0000000000000000       0x48 /.share/CACHEDEV1_DATA/Ada/STM32/L/L522/test/Ada_Drivers_Library/embedded-runtimes/ravenscar-stm32l5nucleo_s/sfp/adalib/libgnarl.a(a-reatim.o)
 .text.ada__real_time__seconds
                0x0000000000000000        0xc /.share/CACHEDEV1_DATA/Ada/STM32/L/L522/test/Ada_Drivers_Library/embedded-runtimes/ravenscar-stm32l5nucleo_s/sfp/adalib/libgnarl.a(a-reatim.o)
 .text.ada__real_time__split
                0x0000000000000000       0x80 /.share/CACHEDEV1_DATA/Ada/STM32/L/L522/test/Ada_Drivers_Library/embedded-runtimes/ravenscar-stm32l5nucleo_s/sfp/adalib/libgnarl.a(a-reatim.o)
 .text.ada__real_time__time_of
                0x0000000000000000      0x110 /.share/CACHEDEV1_DATA/Ada/STM32/L/L522/test/Ada_Drivers_Library/embedded-runtimes/ravenscar-stm32l5nucleo_s/sfp/adalib/libgnarl.a(a-reatim.o)
 .text.ada__real_time__to_duration
                0x0000000000000000       0x10 /.share/CACHEDEV1_DATA/Ada/STM32/L/L522/test/Ada_Drivers_Library/embedded-runtimes/ravenscar-stm32l5nucleo_s/sfp/adalib/libgnarl.a(a-reatim.o)
 .text.ada__real_time__to_time_span
                0x0000000000000000       0x10 /.share/CACHEDEV1_DATA/Ada/STM32/L/L522/test/Ada_Drivers_Library/embedded-runtimes/ravenscar-stm32l5nucleo_s/sfp/adalib/libgnarl.a(a-reatim.o)
 .rodata        0x0000000000000000        0xd /.share/CACHEDEV1_DATA/Ada/STM32/L/L522/test/Ada_Drivers_Library/embedded-runtimes/ravenscar-stm32l5nucleo_s/sfp/adalib/libgnarl.a(a-reatim.o)
 .rodata.ada__real_time__duration_units
                0x0000000000000000        0x4 /.share/CACHEDEV1_DATA/Ada/STM32/L/L522/test/Ada_Drivers_Library/embedded-runtimes/ravenscar-stm32l5nucleo_s/sfp/adalib/libgnarl.a(a-reatim.o)
 .rodata.ada__real_time__tick
                0x0000000000000000        0x8 /.share/CACHEDEV1_DATA/Ada/STM32/L/L522/test/Ada_Drivers_Library/embedded-runtimes/ravenscar-stm32l5nucleo_s/sfp/adalib/libgnarl.a(a-reatim.o)
 .rodata.ada__real_time__time_first
                0x0000000000000000        0x8 /.share/CACHEDEV1_DATA/Ada/STM32/L/L522/test/Ada_Drivers_Library/embedded-runtimes/ravenscar-stm32l5nucleo_s/sfp/adalib/libgnarl.a(a-reatim.o)
 .rodata.ada__real_time__time_last
                0x0000000000000000        0x8 /.share/CACHEDEV1_DATA/Ada/STM32/L/L522/test/Ada_Drivers_Library/embedded-runtimes/ravenscar-stm32l5nucleo_s/sfp/adalib/libgnarl.a(a-reatim.o)
 .rodata.ada__real_time__time_span_first
                0x0000000000000000        0x8 /.share/CACHEDEV1_DATA/Ada/STM32/L/L522/test/Ada_Drivers_Library/embedded-runtimes/ravenscar-stm32l5nucleo_s/sfp/adalib/libgnarl.a(a-reatim.o)
 .rodata.ada__real_time__time_span_last
                0x0000000000000000        0x8 /.share/CACHEDEV1_DATA/Ada/STM32/L/L522/test/Ada_Drivers_Library/embedded-runtimes/ravenscar-stm32l5nucleo_s/sfp/adalib/libgnarl.a(a-reatim.o)
 .rodata.ada__real_time__time_span_unit
                0x0000000000000000        0x8 /.share/CACHEDEV1_DATA/Ada/STM32/L/L522/test/Ada_Drivers_Library/embedded-runtimes/ravenscar-stm32l5nucleo_s/sfp/adalib/libgnarl.a(a-reatim.o)
 .rodata.ada__real_time__time_span_zero
                0x0000000000000000        0x8 /.share/CACHEDEV1_DATA/Ada/STM32/L/L522/test/Ada_Drivers_Library/embedded-runtimes/ravenscar-stm32l5nucleo_s/sfp/adalib/libgnarl.a(a-reatim.o)
 .text          0x0000000000000000        0x0 /.share/CACHEDEV1_DATA/Ada/STM32/L/L522/test/Ada_Drivers_Library/embedded-runtimes/ravenscar-stm32l5nucleo_s/sfp/adalib/libgnarl.a(s-bbbosu.o)
 .data          0x0000000000000000        0x0 /.share/CACHEDEV1_DATA/Ada/STM32/L/L522/test/Ada_Drivers_Library/embedded-runtimes/ravenscar-stm32l5nucleo_s/sfp/adalib/libgnarl.a(s-bbbosu.o)
 .bss           0x0000000000000000        0x0 /.share/CACHEDEV1_DATA/Ada/STM32/L/L522/test/Ada_Drivers_Library/embedded-runtimes/ravenscar-stm32l5nucleo_s/sfp/adalib/libgnarl.a(s-bbbosu.o)
 .text.system__bb__board_support__time__max_timer_interval
                0x0000000000000000        0x8 /.share/CACHEDEV1_DATA/Ada/STM32/L/L522/test/Ada_Drivers_Library/embedded-runtimes/ravenscar-stm32l5nucleo_s/sfp/adalib/libgnarl.a(s-bbbosu.o)
 .text.system__bb__board_support__time__clear_alarm_interrupt
                0x0000000000000000       0x10 /.share/CACHEDEV1_DATA/Ada/STM32/L/L522/test/Ada_Drivers_Library/embedded-runtimes/ravenscar-stm32l5nucleo_s/sfp/adalib/libgnarl.a(s-bbbosu.o)
 .text.system__bb__board_support__multiprocessors__number_of_cpus
                0x0000000000000000        0x4 /.share/CACHEDEV1_DATA/Ada/STM32/L/L522/test/Ada_Drivers_Library/embedded-runtimes/ravenscar-stm32l5nucleo_s/sfp/adalib/libgnarl.a(s-bbbosu.o)
 .text.system__bb__board_support__multiprocessors__current_cpu
                0x0000000000000000        0x4 /.share/CACHEDEV1_DATA/Ada/STM32/L/L522/test/Ada_Drivers_Library/embedded-runtimes/ravenscar-stm32l5nucleo_s/sfp/adalib/libgnarl.a(s-bbbosu.o)
 .text.system__bb__board_support__multiprocessors__poke_cpu
                0x0000000000000000        0x4 /.share/CACHEDEV1_DATA/Ada/STM32/L/L522/test/Ada_Drivers_Library/embedded-runtimes/ravenscar-stm32l5nucleo_s/sfp/adalib/libgnarl.a(s-bbbosu.o)
 .text.system__bb__board_support__multiprocessors__start_all_cpus
                0x0000000000000000        0x4 /.share/CACHEDEV1_DATA/Ada/STM32/L/L522/test/Ada_Drivers_Library/embedded-runtimes/ravenscar-stm32l5nucleo_s/sfp/adalib/libgnarl.a(s-bbbosu.o)
 .text.system__bb__board_support__interrupts__install_interrupt_handler
                0x0000000000000000       0x5c /.share/CACHEDEV1_DATA/Ada/STM32/L/L522/test/Ada_Drivers_Library/embedded-runtimes/ravenscar-stm32l5nucleo_s/sfp/adalib/libgnarl.a(s-bbbosu.o)
 .text.system__bb__board_support__interrupts__priority_of_interrupt
                0x0000000000000000       0x20 /.share/CACHEDEV1_DATA/Ada/STM32/L/L522/test/Ada_Drivers_Library/embedded-runtimes/ravenscar-stm32l5nucleo_s/sfp/adalib/libgnarl.a(s-bbbosu.o)
 .text.system__bb__board_support__interrupts__power_down
                0x0000000000000000        0x4 /.share/CACHEDEV1_DATA/Ada/STM32/L/L522/test/Ada_Drivers_Library/embedded-runtimes/ravenscar-stm32l5nucleo_s/sfp/adalib/libgnarl.a(s-bbbosu.o)
 .text.system__bb__board_support__interrupts__set_current_priority
                0x0000000000000000       0x18 /.share/CACHEDEV1_DATA/Ada/STM32/L/L522/test/Ada_Drivers_Library/embedded-runtimes/ravenscar-stm32l5nucleo_s/sfp/adalib/libgnarl.a(s-bbbosu.o)
 .text.system__bb__board_support__sys_tick_registersIP
                0x0000000000000000        0x4 /.share/CACHEDEV1_DATA/Ada/STM32/L/L522/test/Ada_Drivers_Library/embedded-runtimes/ravenscar-stm32l5nucleo_s/sfp/adalib/libgnarl.a(s-bbbosu.o)
 .text.system__bb__board_support__TipBIP
                0x0000000000000000        0x4 /.share/CACHEDEV1_DATA/Ada/STM32/L/L522/test/Ada_Drivers_Library/embedded-runtimes/ravenscar-stm32l5nucleo_s/sfp/adalib/libgnarl.a(s-bbbosu.o)
 .text.system__bb__board_support__enable_interrupt_request
                0x0000000000000000       0x40 /.share/CACHEDEV1_DATA/Ada/STM32/L/L522/test/Ada_Drivers_Library/embedded-runtimes/ravenscar-stm32l5nucleo_s/sfp/adalib/libgnarl.a(s-bbbosu.o)
 .text.system__bb__board_support__to_pri
                0x0000000000000000       0x14 /.share/CACHEDEV1_DATA/Ada/STM32/L/L522/test/Ada_Drivers_Library/embedded-runtimes/ravenscar-stm32l5nucleo_s/sfp/adalib/libgnarl.a(s-bbbosu.o)
 .text.system__bb__board_support__to_priority
                0x0000000000000000       0x10 /.share/CACHEDEV1_DATA/Ada/STM32/L/L522/test/Ada_Drivers_Library/embedded-runtimes/ravenscar-stm32l5nucleo_s/sfp/adalib/libgnarl.a(s-bbbosu.o)
 .rodata.system__bb__board_support__alarm_interrupt_id
                0x0000000000000000        0x4 /.share/CACHEDEV1_DATA/Ada/STM32/L/L522/test/Ada_Drivers_Library/embedded-runtimes/ravenscar-stm32l5nucleo_s/sfp/adalib/libgnarl.a(s-bbbosu.o)
 .rodata.system__bb__board_support__interrupt_request_vector
                0x0000000000000000        0x1 /.share/CACHEDEV1_DATA/Ada/STM32/L/L522/test/Ada_Drivers_Library/embedded-runtimes/ravenscar-stm32l5nucleo_s/sfp/adalib/libgnarl.a(s-bbbosu.o)
 .rodata.system__bb__board_support__nvic_iser0
                0x0000000000000000        0x4 /.share/CACHEDEV1_DATA/Ada/STM32/L/L522/test/Ada_Drivers_Library/embedded-runtimes/ravenscar-stm32l5nucleo_s/sfp/adalib/libgnarl.a(s-bbbosu.o)
 .rodata.system__bb__board_support__sys_tick_vector
                0x0000000000000000        0x1 /.share/CACHEDEV1_DATA/Ada/STM32/L/L522/test/Ada_Drivers_Library/embedded-runtimes/ravenscar-stm32l5nucleo_s/sfp/adalib/libgnarl.a(s-bbbosu.o)
 .rodata.system__bb__board_support__tick_period
                0x0000000000000000        0x4 /.share/CACHEDEV1_DATA/Ada/STM32/L/L522/test/Ada_Drivers_Library/embedded-runtimes/ravenscar-stm32l5nucleo_s/sfp/adalib/libgnarl.a(s-bbbosu.o)
 .text          0x0000000000000000        0x0 /.share/CACHEDEV1_DATA/Ada/STM32/L/L522/test/Ada_Drivers_Library/embedded-runtimes/ravenscar-stm32l5nucleo_s/sfp/adalib/libgnarl.a(s-bbcppr.o)
 .data          0x0000000000000000        0x0 /.share/CACHEDEV1_DATA/Ada/STM32/L/L522/test/Ada_Drivers_Library/embedded-runtimes/ravenscar-stm32l5nucleo_s/sfp/adalib/libgnarl.a(s-bbcppr.o)
 .bss           0x0000000000000000        0x0 /.share/CACHEDEV1_DATA/Ada/STM32/L/L522/test/Ada_Drivers_Library/embedded-runtimes/ravenscar-stm32l5nucleo_s/sfp/adalib/libgnarl.a(s-bbcppr.o)
 .text.system__bb__cpu_primitives__Tcontext_bufferBIP
                0x0000000000000000        0x4 /.share/CACHEDEV1_DATA/Ada/STM32/L/L522/test/Ada_Drivers_Library/embedded-runtimes/ravenscar-stm32l5nucleo_s/sfp/adalib/libgnarl.a(s-bbcppr.o)
 .text.system__bb__cpu_primitives__hardware_contextIP
                0x0000000000000000        0x4 /.share/CACHEDEV1_DATA/Ada/STM32/L/L522/test/Ada_Drivers_Library/embedded-runtimes/ravenscar-stm32l5nucleo_s/sfp/adalib/libgnarl.a(s-bbcppr.o)
 .text.primask  0x0000000000000000        0x8 /.share/CACHEDEV1_DATA/Ada/STM32/L/L522/test/Ada_Drivers_Library/embedded-runtimes/ravenscar-stm32l5nucleo_s/sfp/adalib/libgnarl.a(s-bbcppr.o)
 .text.system__bb__cpu_primitives__initialize_cpu
                0x0000000000000000       0x84 /.share/CACHEDEV1_DATA/Ada/STM32/L/L522/test/Ada_Drivers_Library/embedded-runtimes/ravenscar-stm32l5nucleo_s/sfp/adalib/libgnarl.a(s-bbcppr.o)
 .text.system__bb__cpu_primitives__context_switch
                0x0000000000000000       0x14 /.share/CACHEDEV1_DATA/Ada/STM32/L/L522/test/Ada_Drivers_Library/embedded-runtimes/ravenscar-stm32l5nucleo_s/sfp/adalib/libgnarl.a(s-bbcppr.o)
 .text.system__bb__cpu_primitives__get_context
                0x0000000000000000        0x8 /.share/CACHEDEV1_DATA/Ada/STM32/L/L522/test/Ada_Drivers_Library/embedded-runtimes/ravenscar-stm32l5nucleo_s/sfp/adalib/libgnarl.a(s-bbcppr.o)
 .text.system__bb__cpu_primitives__set_context
                0x0000000000000000        0x8 /.share/CACHEDEV1_DATA/Ada/STM32/L/L522/test/Ada_Drivers_Library/embedded-runtimes/ravenscar-stm32l5nucleo_s/sfp/adalib/libgnarl.a(s-bbcppr.o)
 .text.system__bb__cpu_primitives__initialize_context
                0x0000000000000000       0x50 /.share/CACHEDEV1_DATA/Ada/STM32/L/L522/test/Ada_Drivers_Library/embedded-runtimes/ravenscar-stm32l5nucleo_s/sfp/adalib/libgnarl.a(s-bbcppr.o)
 .text.system__bb__cpu_primitives__install_error_handlers
                0x0000000000000000       0x1c /.share/CACHEDEV1_DATA/Ada/STM32/L/L522/test/Ada_Drivers_Library/embedded-runtimes/ravenscar-stm32l5nucleo_s/sfp/adalib/libgnarl.a(s-bbcppr.o)
 .text.system__bb__cpu_primitives__disable_interrupts
                0x0000000000000000        0x4 /.share/CACHEDEV1_DATA/Ada/STM32/L/L522/test/Ada_Drivers_Library/embedded-runtimes/ravenscar-stm32l5nucleo_s/sfp/adalib/libgnarl.a(s-bbcppr.o)
 .text.system__bb__cpu_primitives__enable_interrupts
                0x0000000000000000       0x24 /.share/CACHEDEV1_DATA/Ada/STM32/L/L522/test/Ada_Drivers_Library/embedded-runtimes/ravenscar-stm32l5nucleo_s/sfp/adalib/libgnarl.a(s-bbcppr.o)
 .rodata.system__bb__cpu_primitives__bus_fault_vector
                0x0000000000000000        0x1 /.share/CACHEDEV1_DATA/Ada/STM32/L/L522/test/Ada_Drivers_Library/embedded-runtimes/ravenscar-stm32l5nucleo_s/sfp/adalib/libgnarl.a(s-bbcppr.o)
 .rodata.system__bb__cpu_primitives__hard_fault_vector
                0x0000000000000000        0x1 /.share/CACHEDEV1_DATA/Ada/STM32/L/L522/test/Ada_Drivers_Library/embedded-runtimes/ravenscar-stm32l5nucleo_s/sfp/adalib/libgnarl.a(s-bbcppr.o)
 .rodata.system__bb__cpu_primitives__has_os_extensions
                0x0000000000000000        0x1 /.share/CACHEDEV1_DATA/Ada/STM32/L/L522/test/Ada_Drivers_Library/embedded-runtimes/ravenscar-stm32l5nucleo_s/sfp/adalib/libgnarl.a(s-bbcppr.o)
 .rodata.system__bb__cpu_primitives__has_vtor
                0x0000000000000000        0x1 /.share/CACHEDEV1_DATA/Ada/STM32/L/L522/test/Ada_Drivers_Library/embedded-runtimes/ravenscar-stm32l5nucleo_s/sfp/adalib/libgnarl.a(s-bbcppr.o)
 .rodata.system__bb__cpu_primitives__interrupt_request_vector
                0x0000000000000000        0x1 /.share/CACHEDEV1_DATA/Ada/STM32/L/L522/test/Ada_Drivers_Library/embedded-runtimes/ravenscar-stm32l5nucleo_s/sfp/adalib/libgnarl.a(s-bbcppr.o)
 .rodata.system__bb__cpu_primitives__is_armv6m
                0x0000000000000000        0x1 /.share/CACHEDEV1_DATA/Ada/STM32/L/L522/test/Ada_Drivers_Library/embedded-runtimes/ravenscar-stm32l5nucleo_s/sfp/adalib/libgnarl.a(s-bbcppr.o)
 .rodata.system__bb__cpu_primitives__nl
                0x0000000000000000        0x2 /.share/CACHEDEV1_DATA/Ada/STM32/L/L522/test/Ada_Drivers_Library/embedded-runtimes/ravenscar-stm32l5nucleo_s/sfp/adalib/libgnarl.a(s-bbcppr.o)
 .rodata.system__bb__cpu_primitives__nmi_vector
                0x0000000000000000        0x1 /.share/CACHEDEV1_DATA/Ada/STM32/L/L522/test/Ada_Drivers_Library/embedded-runtimes/ravenscar-stm32l5nucleo_s/sfp/adalib/libgnarl.a(s-bbcppr.o)
 .rodata.system__bb__cpu_primitives__pend_sv_vector
                0x0000000000000000        0x1 /.share/CACHEDEV1_DATA/Ada/STM32/L/L522/test/Ada_Drivers_Library/embedded-runtimes/ravenscar-stm32l5nucleo_s/sfp/adalib/libgnarl.a(s-bbcppr.o)
 .rodata.system__bb__cpu_primitives__reset_vector
                0x0000000000000000        0x1 /.share/CACHEDEV1_DATA/Ada/STM32/L/L522/test/Ada_Drivers_Library/embedded-runtimes/ravenscar-stm32l5nucleo_s/sfp/adalib/libgnarl.a(s-bbcppr.o)
 .rodata.system__bb__cpu_primitives__sp_process
                0x0000000000000000        0x1 /.share/CACHEDEV1_DATA/Ada/STM32/L/L522/test/Ada_Drivers_Library/embedded-runtimes/ravenscar-stm32l5nucleo_s/sfp/adalib/libgnarl.a(s-bbcppr.o)
 .rodata.system__bb__cpu_primitives__sv_call_vector
                0x0000000000000000        0x1 /.share/CACHEDEV1_DATA/Ada/STM32/L/L522/test/Ada_Drivers_Library/embedded-runtimes/ravenscar-stm32l5nucleo_s/sfp/adalib/libgnarl.a(s-bbcppr.o)
 .rodata.system__bb__cpu_primitives__sys_tick_vector
                0x0000000000000000        0x1 /.share/CACHEDEV1_DATA/Ada/STM32/L/L522/test/Ada_Drivers_Library/embedded-runtimes/ravenscar-stm32l5nucleo_s/sfp/adalib/libgnarl.a(s-bbcppr.o)
 .rodata.system__bb__cpu_primitives__usage_fault_vector
                0x0000000000000000        0x1 /.share/CACHEDEV1_DATA/Ada/STM32/L/L522/test/Ada_Drivers_Library/embedded-runtimes/ravenscar-stm32l5nucleo_s/sfp/adalib/libgnarl.a(s-bbcppr.o)
 .text          0x0000000000000000        0x0 /.share/CACHEDEV1_DATA/Ada/STM32/L/L522/test/Ada_Drivers_Library/embedded-runtimes/ravenscar-stm32l5nucleo_s/sfp/adalib/libgnarl.a(s-bbinte.o)
 .data          0x0000000000000000        0x0 /.share/CACHEDEV1_DATA/Ada/STM32/L/L522/test/Ada_Drivers_Library/embedded-runtimes/ravenscar-stm32l5nucleo_s/sfp/adalib/libgnarl.a(s-bbinte.o)
 .bss           0x0000000000000000        0x0 /.share/CACHEDEV1_DATA/Ada/STM32/L/L522/test/Ada_Drivers_Library/embedded-runtimes/ravenscar-stm32l5nucleo_s/sfp/adalib/libgnarl.a(s-bbinte.o)
 .text.system__bb__interrupts__Tinterrupt_stacksBIP
                0x0000000000000000        0x4 /.share/CACHEDEV1_DATA/Ada/STM32/L/L522/test/Ada_Drivers_Library/embedded-runtimes/ravenscar-stm32l5nucleo_s/sfp/adalib/libgnarl.a(s-bbinte.o)
 .text.system__bb__interrupts__Tinterrupt_stack_tableBIP
                0x0000000000000000        0x4 /.share/CACHEDEV1_DATA/Ada/STM32/L/L522/test/Ada_Drivers_Library/embedded-runtimes/ravenscar-stm32l5nucleo_s/sfp/adalib/libgnarl.a(s-bbinte.o)
 .text.system__bb__interrupts__attach_handler
                0x0000000000000000       0x1c /.share/CACHEDEV1_DATA/Ada/STM32/L/L522/test/Ada_Drivers_Library/embedded-runtimes/ravenscar-stm32l5nucleo_s/sfp/adalib/libgnarl.a(s-bbinte.o)
 .text.system__bb__interrupts__current_interrupt
                0x0000000000000000       0x1c /.share/CACHEDEV1_DATA/Ada/STM32/L/L522/test/Ada_Drivers_Library/embedded-runtimes/ravenscar-stm32l5nucleo_s/sfp/adalib/libgnarl.a(s-bbinte.o)
 .text.system__bb__interrupts__within_interrupt_stack
                0x0000000000000000       0x40 /.share/CACHEDEV1_DATA/Ada/STM32/L/L522/test/Ada_Drivers_Library/embedded-runtimes/ravenscar-stm32l5nucleo_s/sfp/adalib/libgnarl.a(s-bbinte.o)
 .rodata.system__bb__interrupts__no_interrupt
                0x0000000000000000        0x4 /.share/CACHEDEV1_DATA/Ada/STM32/L/L522/test/Ada_Drivers_Library/embedded-runtimes/ravenscar-stm32l5nucleo_s/sfp/adalib/libgnarl.a(s-bbinte.o)
 .text          0x0000000000000000        0x0 /.share/CACHEDEV1_DATA/Ada/STM32/L/L522/test/Ada_Drivers_Library/embedded-runtimes/ravenscar-stm32l5nucleo_s/sfp/adalib/libgnarl.a(s-bbthqu.o)
 .data          0x0000000000000000        0x0 /.share/CACHEDEV1_DATA/Ada/STM32/L/L522/test/Ada_Drivers_Library/embedded-runtimes/ravenscar-stm32l5nucleo_s/sfp/adalib/libgnarl.a(s-bbthqu.o)
 .bss           0x0000000000000000        0x0 /.share/CACHEDEV1_DATA/Ada/STM32/L/L522/test/Ada_Drivers_Library/embedded-runtimes/ravenscar-stm32l5nucleo_s/sfp/adalib/libgnarl.a(s-bbthqu.o)
 .text.__gnat_context_switch_needed
                0x0000000000000000       0x18 /.share/CACHEDEV1_DATA/Ada/STM32/L/L522/test/Ada_Drivers_Library/embedded-runtimes/ravenscar-stm32l5nucleo_s/sfp/adalib/libgnarl.a(s-bbthqu.o)
 .text.system__bb__threads__queues__current_priority
                0x0000000000000000       0x20 /.share/CACHEDEV1_DATA/Ada/STM32/L/L522/test/Ada_Drivers_Library/embedded-runtimes/ravenscar-stm32l5nucleo_s/sfp/adalib/libgnarl.a(s-bbthqu.o)
 .text.system__bb__threads__queues__extract
                0x0000000000000000       0x28 /.share/CACHEDEV1_DATA/Ada/STM32/L/L522/test/Ada_Drivers_Library/embedded-runtimes/ravenscar-stm32l5nucleo_s/sfp/adalib/libgnarl.a(s-bbthqu.o)
 .text.system__bb__threads__queues__extract_first_alarm
                0x0000000000000000       0x24 /.share/CACHEDEV1_DATA/Ada/STM32/L/L522/test/Ada_Drivers_Library/embedded-runtimes/ravenscar-stm32l5nucleo_s/sfp/adalib/libgnarl.a(s-bbthqu.o)
 .text.system__bb__threads__queues__first_thread
                0x0000000000000000        0xc /.share/CACHEDEV1_DATA/Ada/STM32/L/L522/test/Ada_Drivers_Library/embedded-runtimes/ravenscar-stm32l5nucleo_s/sfp/adalib/libgnarl.a(s-bbthqu.o)
 .text.system__bb__threads__queues__get_next_alarm_time
                0x0000000000000000       0x24 /.share/CACHEDEV1_DATA/Ada/STM32/L/L522/test/Ada_Drivers_Library/embedded-runtimes/ravenscar-stm32l5nucleo_s/sfp/adalib/libgnarl.a(s-bbthqu.o)
 .text.system__bb__threads__queues__insert
                0x0000000000000000       0x88 /.share/CACHEDEV1_DATA/Ada/STM32/L/L522/test/Ada_Drivers_Library/embedded-runtimes/ravenscar-stm32l5nucleo_s/sfp/adalib/libgnarl.a(s-bbthqu.o)
 .text.system__bb__threads__queues__insert_alarm
                0x0000000000000000       0x58 /.share/CACHEDEV1_DATA/Ada/STM32/L/L522/test/Ada_Drivers_Library/embedded-runtimes/ravenscar-stm32l5nucleo_s/sfp/adalib/libgnarl.a(s-bbthqu.o)
 .text.system__bb__threads__queues__running_thread
                0x0000000000000000        0xc /.share/CACHEDEV1_DATA/Ada/STM32/L/L522/test/Ada_Drivers_Library/embedded-runtimes/ravenscar-stm32l5nucleo_s/sfp/adalib/libgnarl.a(s-bbthqu.o)
 .text.system__bb__threads__queues__yield
                0x0000000000000000       0x50 /.share/CACHEDEV1_DATA/Ada/STM32/L/L522/test/Ada_Drivers_Library/embedded-runtimes/ravenscar-stm32l5nucleo_s/sfp/adalib/libgnarl.a(s-bbthqu.o)
 .text          0x0000000000000000        0x0 /.share/CACHEDEV1_DATA/Ada/STM32/L/L522/test/Ada_Drivers_Library/embedded-runtimes/ravenscar-stm32l5nucleo_s/sfp/adalib/libgnarl.a(s-bbtime.o)
 .data          0x0000000000000000        0x0 /.share/CACHEDEV1_DATA/Ada/STM32/L/L522/test/Ada_Drivers_Library/embedded-runtimes/ravenscar-stm32l5nucleo_s/sfp/adalib/libgnarl.a(s-bbtime.o)
 .bss           0x0000000000000000        0x0 /.share/CACHEDEV1_DATA/Ada/STM32/L/L522/test/Ada_Drivers_Library/embedded-runtimes/ravenscar-stm32l5nucleo_s/sfp/adalib/libgnarl.a(s-bbtime.o)
 .text.system__bb__time__composite_execution_timeIP
                0x0000000000000000        0x4 /.share/CACHEDEV1_DATA/Ada/STM32/L/L522/test/Ada_Drivers_Library/embedded-runtimes/ravenscar-stm32l5nucleo_s/sfp/adalib/libgnarl.a(s-bbtime.o)
 .text.system__bb__time__composite_timeIP
                0x0000000000000000        0xc /.share/CACHEDEV1_DATA/Ada/STM32/L/L522/test/Ada_Drivers_Library/embedded-runtimes/ravenscar-stm32l5nucleo_s/sfp/adalib/libgnarl.a(s-bbtime.o)
 .text.system__bb__time__clock
                0x0000000000000000       0x5c /.share/CACHEDEV1_DATA/Ada/STM32/L/L522/test/Ada_Drivers_Library/embedded-runtimes/ravenscar-stm32l5nucleo_s/sfp/adalib/libgnarl.a(s-bbtime.o)
 .text.system__bb__time__epoch
                0x0000000000000000        0x8 /.share/CACHEDEV1_DATA/Ada/STM32/L/L522/test/Ada_Drivers_Library/embedded-runtimes/ravenscar-stm32l5nucleo_s/sfp/adalib/libgnarl.a(s-bbtime.o)
 .text.system__bb__time__get_next_timeout
                0x0000000000000000       0x40 /.share/CACHEDEV1_DATA/Ada/STM32/L/L522/test/Ada_Drivers_Library/embedded-runtimes/ravenscar-stm32l5nucleo_s/sfp/adalib/libgnarl.a(s-bbtime.o)
 .text.system__bb__time__delay_until
                0x0000000000000000       0xe0 /.share/CACHEDEV1_DATA/Ada/STM32/L/L522/test/Ada_Drivers_Library/embedded-runtimes/ravenscar-stm32l5nucleo_s/sfp/adalib/libgnarl.a(s-bbtime.o)
 .text.system__bb__time__Oconcat
                0x0000000000000000       0x18 /.share/CACHEDEV1_DATA/Ada/STM32/L/L522/test/Ada_Drivers_Library/embedded-runtimes/ravenscar-stm32l5nucleo_s/sfp/adalib/libgnarl.a(s-bbtime.o)
 .data.system__bb__time__alarm_lock
                0x0000000000000000        0x2 /.share/CACHEDEV1_DATA/Ada/STM32/L/L522/test/Ada_Drivers_Library/embedded-runtimes/ravenscar-stm32l5nucleo_s/sfp/adalib/libgnarl.a(s-bbtime.o)
 .rodata.system__bb__time__initial_composite_execution_time
                0x0000000000000000        0x8 /.share/CACHEDEV1_DATA/Ada/STM32/L/L522/test/Ada_Drivers_Library/embedded-runtimes/ravenscar-stm32l5nucleo_s/sfp/adalib/libgnarl.a(s-bbtime.o)
 .rodata.system__bb__time__periods_in_epoch
                0x0000000000000000        0x4 /.share/CACHEDEV1_DATA/Ada/STM32/L/L522/test/Ada_Drivers_Library/embedded-runtimes/ravenscar-stm32l5nucleo_s/sfp/adalib/libgnarl.a(s-bbtime.o)
 .rodata.system__bb__time__update_in_progress
                0x0000000000000000        0x4 /.share/CACHEDEV1_DATA/Ada/STM32/L/L522/test/Ada_Drivers_Library/embedded-runtimes/ravenscar-stm32l5nucleo_s/sfp/adalib/libgnarl.a(s-bbtime.o)
 .text          0x0000000000000000        0x0 /.share/CACHEDEV1_DATA/Ada/STM32/L/L522/test/Ada_Drivers_Library/embedded-runtimes/ravenscar-stm32l5nucleo_s/sfp/adalib/libgnarl.a(s-bcpcst.o)
 .data          0x0000000000000000        0x0 /.share/CACHEDEV1_DATA/Ada/STM32/L/L522/test/Ada_Drivers_Library/embedded-runtimes/ravenscar-stm32l5nucleo_s/sfp/adalib/libgnarl.a(s-bcpcst.o)
 .bss           0x0000000000000000        0x0 /.share/CACHEDEV1_DATA/Ada/STM32/L/L522/test/Ada_Drivers_Library/embedded-runtimes/ravenscar-stm32l5nucleo_s/sfp/adalib/libgnarl.a(s-bcpcst.o)
 .text          0x0000000000000000        0x0 /.share/CACHEDEV1_DATA/Ada/STM32/L/L522/test/Ada_Drivers_Library/embedded-runtimes/ravenscar-stm32l5nucleo_s/sfp/adalib/libgnarl.a(s-taprob.o)
 .data          0x0000000000000000        0x0 /.share/CACHEDEV1_DATA/Ada/STM32/L/L522/test/Ada_Drivers_Library/embedded-runtimes/ravenscar-stm32l5nucleo_s/sfp/adalib/libgnarl.a(s-taprob.o)
 .bss           0x0000000000000000        0x0 /.share/CACHEDEV1_DATA/Ada/STM32/L/L522/test/Ada_Drivers_Library/embedded-runtimes/ravenscar-stm32l5nucleo_s/sfp/adalib/libgnarl.a(s-taprob.o)
 .text.system__tasking__protected_objects__entry_bodyIP
                0x0000000000000000        0x8 /.share/CACHEDEV1_DATA/Ada/STM32/L/L522/test/Ada_Drivers_Library/embedded-runtimes/ravenscar-stm32l5nucleo_s/sfp/adalib/libgnarl.a(s-taprob.o)
 .text.system__tasking__protected_objects__initialize_protection
                0x0000000000000000       0x14 /.share/CACHEDEV1_DATA/Ada/STM32/L/L522/test/Ada_Drivers_Library/embedded-runtimes/ravenscar-stm32l5nucleo_s/sfp/adalib/libgnarl.a(s-taprob.o)
 .text.system__tasking__protected_objects__lock
                0x0000000000000000       0x50 /.share/CACHEDEV1_DATA/Ada/STM32/L/L522/test/Ada_Drivers_Library/embedded-runtimes/ravenscar-stm32l5nucleo_s/sfp/adalib/libgnarl.a(s-taprob.o)
 .text.system__tasking__protected_objects__unlock
                0x0000000000000000       0x2c /.share/CACHEDEV1_DATA/Ada/STM32/L/L522/test/Ada_Drivers_Library/embedded-runtimes/ravenscar-stm32l5nucleo_s/sfp/adalib/libgnarl.a(s-taprob.o)
 .rodata        0x0000000000000000        0xd /.share/CACHEDEV1_DATA/Ada/STM32/L/L522/test/Ada_Drivers_Library/embedded-runtimes/ravenscar-stm32l5nucleo_s/sfp/adalib/libgnarl.a(s-taprob.o)
 .rodata.system__tasking__protected_objects__null_po
                0x0000000000000000        0x4 /.share/CACHEDEV1_DATA/Ada/STM32/L/L522/test/Ada_Drivers_Library/embedded-runtimes/ravenscar-stm32l5nucleo_s/sfp/adalib/libgnarl.a(s-taprob.o)
 .text          0x0000000000000000        0x0 /.share/CACHEDEV1_DATA/Ada/STM32/L/L522/test/Ada_Drivers_Library/embedded-runtimes/ravenscar-stm32l5nucleo_s/sfp/adalib/libgnarl.a(s-tarest.o)
 .data          0x0000000000000000        0x0 /.share/CACHEDEV1_DATA/Ada/STM32/L/L522/test/Ada_Drivers_Library/embedded-runtimes/ravenscar-stm32l5nucleo_s/sfp/adalib/libgnarl.a(s-tarest.o)
 .bss           0x0000000000000000        0x0 /.share/CACHEDEV1_DATA/Ada/STM32/L/L522/test/Ada_Drivers_Library/embedded-runtimes/ravenscar-stm32l5nucleo_s/sfp/adalib/libgnarl.a(s-tarest.o)
 .text.system__tasking__restricted__stages__create_restricted_task__2
                0x0000000000000000       0xb0 /.share/CACHEDEV1_DATA/Ada/STM32/L/L522/test/Ada_Drivers_Library/embedded-runtimes/ravenscar-stm32l5nucleo_s/sfp/adalib/libgnarl.a(s-tarest.o)
 .text.system__tasking__restricted__stages__activate_restricted_tasks
                0x0000000000000000       0x20 /.share/CACHEDEV1_DATA/Ada/STM32/L/L522/test/Ada_Drivers_Library/embedded-runtimes/ravenscar-stm32l5nucleo_s/sfp/adalib/libgnarl.a(s-tarest.o)
 .text.system__tasking__restricted__stages__complete_restricted_activation
                0x0000000000000000        0x4 /.share/CACHEDEV1_DATA/Ada/STM32/L/L522/test/Ada_Drivers_Library/embedded-runtimes/ravenscar-stm32l5nucleo_s/sfp/adalib/libgnarl.a(s-tarest.o)
 .text.system__tasking__restricted__stages__complete_restricted_task
                0x0000000000000000       0x10 /.share/CACHEDEV1_DATA/Ada/STM32/L/L522/test/Ada_Drivers_Library/embedded-runtimes/ravenscar-stm32l5nucleo_s/sfp/adalib/libgnarl.a(s-tarest.o)
 .text.system__tasking__restricted__stages__create_restricted_task
                0x0000000000000000       0x64 /.share/CACHEDEV1_DATA/Ada/STM32/L/L522/test/Ada_Drivers_Library/embedded-runtimes/ravenscar-stm32l5nucleo_s/sfp/adalib/libgnarl.a(s-tarest.o)
 .text.system__tasking__restricted__stages__create_restricted_task_sequential
                0x0000000000000000       0x34 /.share/CACHEDEV1_DATA/Ada/STM32/L/L522/test/Ada_Drivers_Library/embedded-runtimes/ravenscar-stm32l5nucleo_s/sfp/adalib/libgnarl.a(s-tarest.o)
 .text.system__tasking__restricted__stages__finalize_global_tasks
                0x0000000000000000       0x10 /.share/CACHEDEV1_DATA/Ada/STM32/L/L522/test/Ada_Drivers_Library/embedded-runtimes/ravenscar-stm32l5nucleo_s/sfp/adalib/libgnarl.a(s-tarest.o)
 .text.system__tasking__restricted__stages__restricted_terminated
                0x0000000000000000       0x10 /.share/CACHEDEV1_DATA/Ada/STM32/L/L522/test/Ada_Drivers_Library/embedded-runtimes/ravenscar-stm32l5nucleo_s/sfp/adalib/libgnarl.a(s-tarest.o)
 .rodata.system__tasking__restricted__stages__create_restricted_task__2.str1.4
                0x0000000000000000       0x4a /.share/CACHEDEV1_DATA/Ada/STM32/L/L522/test/Ada_Drivers_Library/embedded-runtimes/ravenscar-stm32l5nucleo_s/sfp/adalib/libgnarl.a(s-tarest.o)
 .text          0x0000000000000000        0x0 /.share/CACHEDEV1_DATA/Ada/STM32/L/L522/test/Ada_Drivers_Library/embedded-runtimes/ravenscar-stm32l5nucleo_s/sfp/adalib/libgnarl.a(s-tasdeb.o)
 .data          0x0000000000000000        0x0 /.share/CACHEDEV1_DATA/Ada/STM32/L/L522/test/Ada_Drivers_Library/embedded-runtimes/ravenscar-stm32l5nucleo_s/sfp/adalib/libgnarl.a(s-tasdeb.o)
 .bss           0x0000000000000000        0x0 /.share/CACHEDEV1_DATA/Ada/STM32/L/L522/test/Ada_Drivers_Library/embedded-runtimes/ravenscar-stm32l5nucleo_s/sfp/adalib/libgnarl.a(s-tasdeb.o)
 .text.system__tasking__debug__add_task_id
                0x0000000000000000       0x3c /.share/CACHEDEV1_DATA/Ada/STM32/L/L522/test/Ada_Drivers_Library/embedded-runtimes/ravenscar-stm32l5nucleo_s/sfp/adalib/libgnarl.a(s-tasdeb.o)
 .data.system__tasking__debug_E
                0x0000000000000000        0x2 /.share/CACHEDEV1_DATA/Ada/STM32/L/L522/test/Ada_Drivers_Library/embedded-runtimes/ravenscar-stm32l5nucleo_s/sfp/adalib/libgnarl.a(s-tasdeb.o)
 .text          0x0000000000000000        0x0 /.share/CACHEDEV1_DATA/Ada/STM32/L/L522/test/Ada_Drivers_Library/embedded-runtimes/ravenscar-stm32l5nucleo_s/sfp/adalib/libgnarl.a(s-taskin.o)
 .data          0x0000000000000000        0x0 /.share/CACHEDEV1_DATA/Ada/STM32/L/L522/test/Ada_Drivers_Library/embedded-runtimes/ravenscar-stm32l5nucleo_s/sfp/adalib/libgnarl.a(s-taskin.o)
 .bss           0x0000000000000000        0x0 /.share/CACHEDEV1_DATA/Ada/STM32/L/L522/test/Ada_Drivers_Library/embedded-runtimes/ravenscar-stm32l5nucleo_s/sfp/adalib/libgnarl.a(s-taskin.o)
 .text.system__tasking__E5sIP
                0x0000000000000000        0x8 /.share/CACHEDEV1_DATA/Ada/STM32/L/L522/test/Ada_Drivers_Library/embedded-runtimes/ravenscar-stm32l5nucleo_s/sfp/adalib/libgnarl.a(s-taskin.o)
 .text.system__tasking__activation_chainIP
                0x0000000000000000        0x8 /.share/CACHEDEV1_DATA/Ada/STM32/L/L522/test/Ada_Drivers_Library/embedded-runtimes/ravenscar-stm32l5nucleo_s/sfp/adalib/libgnarl.a(s-taskin.o)
 .text.__gnat_get_secondary_stack
                0x0000000000000000       0x10 /.share/CACHEDEV1_DATA/Ada/STM32/L/L522/test/Ada_Drivers_Library/embedded-runtimes/ravenscar-stm32l5nucleo_s/sfp/adalib/libgnarl.a(s-taskin.o)
 .text.system__tasking__self
                0x0000000000000000        0xc /.share/CACHEDEV1_DATA/Ada/STM32/L/L522/test/Ada_Drivers_Library/embedded-runtimes/ravenscar-stm32l5nucleo_s/sfp/adalib/libgnarl.a(s-taskin.o)
 .text.system__tasking__storage_size
                0x0000000000000000        0x8 /.share/CACHEDEV1_DATA/Ada/STM32/L/L522/test/Ada_Drivers_Library/embedded-runtimes/ravenscar-stm32l5nucleo_s/sfp/adalib/libgnarl.a(s-taskin.o)
 .rodata.system__tasking__idle_priority
                0x0000000000000000        0x4 /.share/CACHEDEV1_DATA/Ada/STM32/L/L522/test/Ada_Drivers_Library/embedded-runtimes/ravenscar-stm32l5nucleo_s/sfp/adalib/libgnarl.a(s-taskin.o)
 .rodata.system__tasking__library_task_level
                0x0000000000000000        0x4 /.share/CACHEDEV1_DATA/Ada/STM32/L/L522/test/Ada_Drivers_Library/embedded-runtimes/ravenscar-stm32l5nucleo_s/sfp/adalib/libgnarl.a(s-taskin.o)
 .rodata.system__tasking__null_task
                0x0000000000000000        0x4 /.share/CACHEDEV1_DATA/Ada/STM32/L/L522/test/Ada_Drivers_Library/embedded-runtimes/ravenscar-stm32l5nucleo_s/sfp/adalib/libgnarl.a(s-taskin.o)
 .rodata.system__tasking__task_statesN
                0x0000000000000000       0x22 /.share/CACHEDEV1_DATA/Ada/STM32/L/L522/test/Ada_Drivers_Library/embedded-runtimes/ravenscar-stm32l5nucleo_s/sfp/adalib/libgnarl.a(s-taskin.o)
 .rodata.system__tasking__task_statesS
                0x0000000000000000      0x130 /.share/CACHEDEV1_DATA/Ada/STM32/L/L522/test/Ada_Drivers_Library/embedded-runtimes/ravenscar-stm32l5nucleo_s/sfp/adalib/libgnarl.a(s-taskin.o)
 .text          0x0000000000000000        0x0 /.share/CACHEDEV1_DATA/Ada/STM32/L/L522/test/Ada_Drivers_Library/embedded-runtimes/ravenscar-stm32l5nucleo_s/sfp/adalib/libgnarl.a(s-tpobmu.o)
 .data          0x0000000000000000        0x0 /.share/CACHEDEV1_DATA/Ada/STM32/L/L522/test/Ada_Drivers_Library/embedded-runtimes/ravenscar-stm32l5nucleo_s/sfp/adalib/libgnarl.a(s-tpobmu.o)
 .bss           0x0000000000000000        0x0 /.share/CACHEDEV1_DATA/Ada/STM32/L/L522/test/Ada_Drivers_Library/embedded-runtimes/ravenscar-stm32l5nucleo_s/sfp/adalib/libgnarl.a(s-tpobmu.o)
 .text.system__tasking__protected_objects__multiprocessors__entry_call_listIP
                0x0000000000000000        0xc /.share/CACHEDEV1_DATA/Ada/STM32/L/L522/test/Ada_Drivers_Library/embedded-runtimes/ravenscar-stm32l5nucleo_s/sfp/adalib/libgnarl.a(s-tpobmu.o)
 .text.system__tasking__protected_objects__multiprocessors__served
                0x0000000000000000       0xd4 /.share/CACHEDEV1_DATA/Ada/STM32/L/L522/test/Ada_Drivers_Library/embedded-runtimes/ravenscar-stm32l5nucleo_s/sfp/adalib/libgnarl.a(s-tpobmu.o)
 .text          0x0000000000000000        0x0 /.share/CACHEDEV1_DATA/Ada/STM32/L/L522/test/Ada_Drivers_Library/embedded-runtimes/ravenscar-stm32l5nucleo_s/sfp/adalib/libgnarl.a(s-bbprot.o)
 .data          0x0000000000000000        0x0 /.share/CACHEDEV1_DATA/Ada/STM32/L/L522/test/Ada_Drivers_Library/embedded-runtimes/ravenscar-stm32l5nucleo_s/sfp/adalib/libgnarl.a(s-bbprot.o)
 .bss           0x0000000000000000        0x0 /.share/CACHEDEV1_DATA/Ada/STM32/L/L522/test/Ada_Drivers_Library/embedded-runtimes/ravenscar-stm32l5nucleo_s/sfp/adalib/libgnarl.a(s-bbprot.o)
 .text.system__bb__protection__enter_kernel
                0x0000000000000000        0x4 /.share/CACHEDEV1_DATA/Ada/STM32/L/L522/test/Ada_Drivers_Library/embedded-runtimes/ravenscar-stm32l5nucleo_s/sfp/adalib/libgnarl.a(s-bbprot.o)
 .text          0x0000000000000000        0x0 /.share/CACHEDEV1_DATA/Ada/STM32/L/L522/test/Ada_Drivers_Library/embedded-runtimes/ravenscar-stm32l5nucleo_s/sfp/adalib/libgnarl.a(s-bbthre.o)
 .data          0x0000000000000000        0x0 /.share/CACHEDEV1_DATA/Ada/STM32/L/L522/test/Ada_Drivers_Library/embedded-runtimes/ravenscar-stm32l5nucleo_s/sfp/adalib/libgnarl.a(s-bbthre.o)
 .bss           0x0000000000000000        0x0 /.share/CACHEDEV1_DATA/Ada/STM32/L/L522/test/Ada_Drivers_Library/embedded-runtimes/ravenscar-stm32l5nucleo_s/sfp/adalib/libgnarl.a(s-bbthre.o)
 .text.system__bb__threads__thread_descriptorIP
                0x0000000000000000        0xc /.share/CACHEDEV1_DATA/Ada/STM32/L/L522/test/Ada_Drivers_Library/embedded-runtimes/ravenscar-stm32l5nucleo_s/sfp/adalib/libgnarl.a(s-bbthre.o)
 .text.system__bb__threads__get_affinity
                0x0000000000000000        0x8 /.share/CACHEDEV1_DATA/Ada/STM32/L/L522/test/Ada_Drivers_Library/embedded-runtimes/ravenscar-stm32l5nucleo_s/sfp/adalib/libgnarl.a(s-bbthre.o)
 .text.system__bb__threads__get_cpu
                0x0000000000000000        0xc /.share/CACHEDEV1_DATA/Ada/STM32/L/L522/test/Ada_Drivers_Library/embedded-runtimes/ravenscar-stm32l5nucleo_s/sfp/adalib/libgnarl.a(s-bbthre.o)
 .text.system__bb__threads__get_atcb
                0x0000000000000000        0xc /.share/CACHEDEV1_DATA/Ada/STM32/L/L522/test/Ada_Drivers_Library/embedded-runtimes/ravenscar-stm32l5nucleo_s/sfp/adalib/libgnarl.a(s-bbthre.o)
 .text.system__bb__threads__get_priority
                0x0000000000000000        0x4 /.share/CACHEDEV1_DATA/Ada/STM32/L/L522/test/Ada_Drivers_Library/embedded-runtimes/ravenscar-stm32l5nucleo_s/sfp/adalib/libgnarl.a(s-bbthre.o)
 .text.system__bb__threads__initialize_slave
                0x0000000000000000       0xa0 /.share/CACHEDEV1_DATA/Ada/STM32/L/L522/test/Ada_Drivers_Library/embedded-runtimes/ravenscar-stm32l5nucleo_s/sfp/adalib/libgnarl.a(s-bbthre.o)
 .text.system__bb__threads__set_atcb
                0x0000000000000000        0x4 /.share/CACHEDEV1_DATA/Ada/STM32/L/L522/test/Ada_Drivers_Library/embedded-runtimes/ravenscar-stm32l5nucleo_s/sfp/adalib/libgnarl.a(s-bbthre.o)
 .text.system__bb__threads__set_priority
                0x0000000000000000       0x1c /.share/CACHEDEV1_DATA/Ada/STM32/L/L522/test/Ada_Drivers_Library/embedded-runtimes/ravenscar-stm32l5nucleo_s/sfp/adalib/libgnarl.a(s-bbthre.o)
 .text.system__bb__threads__thread_self
                0x0000000000000000        0xc /.share/CACHEDEV1_DATA/Ada/STM32/L/L522/test/Ada_Drivers_Library/embedded-runtimes/ravenscar-stm32l5nucleo_s/sfp/adalib/libgnarl.a(s-bbthre.o)
 .rodata.system__bb__threads__null_thread_id
                0x0000000000000000        0x4 /.share/CACHEDEV1_DATA/Ada/STM32/L/L522/test/Ada_Drivers_Library/embedded-runtimes/ravenscar-stm32l5nucleo_s/sfp/adalib/libgnarl.a(s-bbthre.o)
 .rodata.system__bb__threads__thread_statesN
                0x0000000000000000        0x4 /.share/CACHEDEV1_DATA/Ada/STM32/L/L522/test/Ada_Drivers_Library/embedded-runtimes/ravenscar-stm32l5nucleo_s/sfp/adalib/libgnarl.a(s-bbthre.o)
 .rodata.system__bb__threads__thread_statesS
                0x0000000000000000       0x18 /.share/CACHEDEV1_DATA/Ada/STM32/L/L522/test/Ada_Drivers_Library/embedded-runtimes/ravenscar-stm32l5nucleo_s/sfp/adalib/libgnarl.a(s-bbthre.o)
 .text          0x0000000000000000        0x0 /.share/CACHEDEV1_DATA/Ada/STM32/L/L522/test/Ada_Drivers_Library/embedded-runtimes/ravenscar-stm32l5nucleo_s/sfp/adalib/libgnarl.a(s-bbtiev.o)
 .data          0x0000000000000000        0x0 /.share/CACHEDEV1_DATA/Ada/STM32/L/L522/test/Ada_Drivers_Library/embedded-runtimes/ravenscar-stm32l5nucleo_s/sfp/adalib/libgnarl.a(s-bbtiev.o)
 .bss           0x0000000000000000        0x0 /.share/CACHEDEV1_DATA/Ada/STM32/L/L522/test/Ada_Drivers_Library/embedded-runtimes/ravenscar-stm32l5nucleo_s/sfp/adalib/libgnarl.a(s-bbtiev.o)
 .text.system__bb__timing_events___size
                0x0000000000000000        0x8 /.share/CACHEDEV1_DATA/Ada/STM32/L/L522/test/Ada_Drivers_Library/embedded-runtimes/ravenscar-stm32l5nucleo_s/sfp/adalib/libgnarl.a(s-bbtiev.o)
 .text.system__bb__timing_events__time_of_event
                0x0000000000000000       0x10 /.share/CACHEDEV1_DATA/Ada/STM32/L/L522/test/Ada_Drivers_Library/embedded-runtimes/ravenscar-stm32l5nucleo_s/sfp/adalib/libgnarl.a(s-bbtiev.o)
 .text.system__bb__timing_events__set_handler
                0x0000000000000000       0xa4 /.share/CACHEDEV1_DATA/Ada/STM32/L/L522/test/Ada_Drivers_Library/embedded-runtimes/ravenscar-stm32l5nucleo_s/sfp/adalib/libgnarl.a(s-bbtiev.o)
 .text.system__bb__timing_events__cancel_handler
                0x0000000000000000       0x5c /.share/CACHEDEV1_DATA/Ada/STM32/L/L522/test/Ada_Drivers_Library/embedded-runtimes/ravenscar-stm32l5nucleo_s/sfp/adalib/libgnarl.a(s-bbtiev.o)
 .text.system__bb__timing_events__timing_eventIP
                0x0000000000000000       0x1c /.share/CACHEDEV1_DATA/Ada/STM32/L/L522/test/Ada_Drivers_Library/embedded-runtimes/ravenscar-stm32l5nucleo_s/sfp/adalib/libgnarl.a(s-bbtiev.o)
 .text.system__bb__timing_events__get_next_timeout
                0x0000000000000000       0x24 /.share/CACHEDEV1_DATA/Ada/STM32/L/L522/test/Ada_Drivers_Library/embedded-runtimes/ravenscar-stm32l5nucleo_s/sfp/adalib/libgnarl.a(s-bbtiev.o)
 .data.system__bb__timing_events_E
                0x0000000000000000        0x2 /.share/CACHEDEV1_DATA/Ada/STM32/L/L522/test/Ada_Drivers_Library/embedded-runtimes/ravenscar-stm32l5nucleo_s/sfp/adalib/libgnarl.a(s-bbtiev.o)
 .rodata.system__bb__timing_events__timing_eventB10s
                0x0000000000000000       0x1c /.share/CACHEDEV1_DATA/Ada/STM32/L/L522/test/Ada_Drivers_Library/embedded-runtimes/ravenscar-stm32l5nucleo_s/sfp/adalib/libgnarl.a(s-bbtiev.o)
 .rodata.system__bb__timing_events__timing_eventE6s
                0x0000000000000000       0x25 /.share/CACHEDEV1_DATA/Ada/STM32/L/L522/test/Ada_Drivers_Library/embedded-runtimes/ravenscar-stm32l5nucleo_s/sfp/adalib/libgnarl.a(s-bbtiev.o)
 .rodata.system__bb__timing_events__timing_eventP
                0x0000000000000000        0x4 /.share/CACHEDEV1_DATA/Ada/STM32/L/L522/test/Ada_Drivers_Library/embedded-runtimes/ravenscar-stm32l5nucleo_s/sfp/adalib/libgnarl.a(s-bbtiev.o)
 .rodata.system__bb__timing_events__timing_eventR8s
                0x0000000000000000        0x4 /.share/CACHEDEV1_DATA/Ada/STM32/L/L522/test/Ada_Drivers_Library/embedded-runtimes/ravenscar-stm32l5nucleo_s/sfp/adalib/libgnarl.a(s-bbtiev.o)
 .rodata.system__bb__timing_events__timing_eventR8s___UNC
                0x0000000000000000        0xc /.share/CACHEDEV1_DATA/Ada/STM32/L/L522/test/Ada_Drivers_Library/embedded-runtimes/ravenscar-stm32l5nucleo_s/sfp/adalib/libgnarl.a(s-bbtiev.o)
 .rodata.system__bb__timing_events__timing_eventT
                0x0000000000000000       0x1c /.share/CACHEDEV1_DATA/Ada/STM32/L/L522/test/Ada_Drivers_Library/embedded-runtimes/ravenscar-stm32l5nucleo_s/sfp/adalib/libgnarl.a(s-bbtiev.o)
 .rodata.system__bb__timing_events__timing_eventY
                0x0000000000000000        0x4 /.share/CACHEDEV1_DATA/Ada/STM32/L/L522/test/Ada_Drivers_Library/embedded-runtimes/ravenscar-stm32l5nucleo_s/sfp/adalib/libgnarl.a(s-bbtiev.o)
 .text          0x0000000000000000        0x0 /.share/CACHEDEV1_DATA/Ada/STM32/L/L522/test/Ada_Drivers_Library/embedded-runtimes/ravenscar-stm32l5nucleo_s/sfp/adalib/libgnarl.a(s-taprop.o)
 .data          0x0000000000000000        0x0 /.share/CACHEDEV1_DATA/Ada/STM32/L/L522/test/Ada_Drivers_Library/embedded-runtimes/ravenscar-stm32l5nucleo_s/sfp/adalib/libgnarl.a(s-taprop.o)
 .bss           0x0000000000000000        0x0 /.share/CACHEDEV1_DATA/Ada/STM32/L/L522/test/Ada_Drivers_Library/embedded-runtimes/ravenscar-stm32l5nucleo_s/sfp/adalib/libgnarl.a(s-taprop.o)
 .text.system__task_primitives__operations__Tidle_stacksBIP
                0x0000000000000000        0x4 /.share/CACHEDEV1_DATA/Ada/STM32/L/L522/test/Ada_Drivers_Library/embedded-runtimes/ravenscar-stm32l5nucleo_s/sfp/adalib/libgnarl.a(s-taprop.o)
 .text.system__task_primitives__operations__Tidle_stacks_tableBIP
                0x0000000000000000        0x4 /.share/CACHEDEV1_DATA/Ada/STM32/L/L522/test/Ada_Drivers_Library/embedded-runtimes/ravenscar-stm32l5nucleo_s/sfp/adalib/libgnarl.a(s-taprop.o)
 .text.system__task_primitives__operations__Tidle_tasksBIP
                0x0000000000000000        0x4 /.share/CACHEDEV1_DATA/Ada/STM32/L/L522/test/Ada_Drivers_Library/embedded-runtimes/ravenscar-stm32l5nucleo_s/sfp/adalib/libgnarl.a(s-taprop.o)
 .text.system__task_primitives__operations__self
                0x0000000000000000        0xc /.share/CACHEDEV1_DATA/Ada/STM32/L/L522/test/Ada_Drivers_Library/embedded-runtimes/ravenscar-stm32l5nucleo_s/sfp/adalib/libgnarl.a(s-taprop.o)
 .text.system__task_primitives__operations__sleep
                0x0000000000000000        0x4 /.share/CACHEDEV1_DATA/Ada/STM32/L/L522/test/Ada_Drivers_Library/embedded-runtimes/ravenscar-stm32l5nucleo_s/sfp/adalib/libgnarl.a(s-taprop.o)
 .text.system__task_primitives__operations__delay_until
                0x0000000000000000       0x1c /.share/CACHEDEV1_DATA/Ada/STM32/L/L522/test/Ada_Drivers_Library/embedded-runtimes/ravenscar-stm32l5nucleo_s/sfp/adalib/libgnarl.a(s-taprop.o)
 .text.system__task_primitives__operations__monotonic_clock
                0x0000000000000000       0x60 /.share/CACHEDEV1_DATA/Ada/STM32/L/L522/test/Ada_Drivers_Library/embedded-runtimes/ravenscar-stm32l5nucleo_s/sfp/adalib/libgnarl.a(s-taprop.o)
 .text.system__task_primitives__operations__wakeup
                0x0000000000000000        0x8 /.share/CACHEDEV1_DATA/Ada/STM32/L/L522/test/Ada_Drivers_Library/embedded-runtimes/ravenscar-stm32l5nucleo_s/sfp/adalib/libgnarl.a(s-taprop.o)
 .text.system__task_primitives__operations__set_priority
                0x0000000000000000       0x18 /.share/CACHEDEV1_DATA/Ada/STM32/L/L522/test/Ada_Drivers_Library/embedded-runtimes/ravenscar-stm32l5nucleo_s/sfp/adalib/libgnarl.a(s-taprop.o)
 .text.system__task_primitives__operations__get_priority
                0x0000000000000000        0x8 /.share/CACHEDEV1_DATA/Ada/STM32/L/L522/test/Ada_Drivers_Library/embedded-runtimes/ravenscar-stm32l5nucleo_s/sfp/adalib/libgnarl.a(s-taprop.o)
 .text.system__task_primitives__operations__get_affinity
                0x0000000000000000        0xc /.share/CACHEDEV1_DATA/Ada/STM32/L/L522/test/Ada_Drivers_Library/embedded-runtimes/ravenscar-stm32l5nucleo_s/sfp/adalib/libgnarl.a(s-taprop.o)
 .text.system__task_primitives__operations__get_cpu
                0x0000000000000000       0x10 /.share/CACHEDEV1_DATA/Ada/STM32/L/L522/test/Ada_Drivers_Library/embedded-runtimes/ravenscar-stm32l5nucleo_s/sfp/adalib/libgnarl.a(s-taprop.o)
 .text.system__task_primitives__operations__get_thread_id
                0x0000000000000000        0x8 /.share/CACHEDEV1_DATA/Ada/STM32/L/L522/test/Ada_Drivers_Library/embedded-runtimes/ravenscar-stm32l5nucleo_s/sfp/adalib/libgnarl.a(s-taprop.o)
 .text.system__task_primitives__operations__initialize_tcb
                0x0000000000000000        0x4 /.share/CACHEDEV1_DATA/Ada/STM32/L/L522/test/Ada_Drivers_Library/embedded-runtimes/ravenscar-stm32l5nucleo_s/sfp/adalib/libgnarl.a(s-taprop.o)
 .text.system__task_primitives__operations__create_task
                0x0000000000000000       0x34 /.share/CACHEDEV1_DATA/Ada/STM32/L/L522/test/Ada_Drivers_Library/embedded-runtimes/ravenscar-stm32l5nucleo_s/sfp/adalib/libgnarl.a(s-taprop.o)
 .text.__gnat_initialize_slave
                0x0000000000000000       0x34 /.share/CACHEDEV1_DATA/Ada/STM32/L/L522/test/Ada_Drivers_Library/embedded-runtimes/ravenscar-stm32l5nucleo_s/sfp/adalib/libgnarl.a(s-taprop.o)
 .text.system__task_primitives__operations__initialize
                0x0000000000000000       0xac /.share/CACHEDEV1_DATA/Ada/STM32/L/L522/test/Ada_Drivers_Library/embedded-runtimes/ravenscar-stm32l5nucleo_s/sfp/adalib/libgnarl.a(s-taprop.o)
 .text.system__task_primitives__operations__is_task_context
                0x0000000000000000       0x14 /.share/CACHEDEV1_DATA/Ada/STM32/L/L522/test/Ada_Drivers_Library/embedded-runtimes/ravenscar-stm32l5nucleo_s/sfp/adalib/libgnarl.a(s-taprop.o)
 .rodata.system__task_primitives__operations__idle_stack_size
                0x0000000000000000        0x4 /.share/CACHEDEV1_DATA/Ada/STM32/L/L522/test/Ada_Drivers_Library/embedded-runtimes/ravenscar-stm32l5nucleo_s/sfp/adalib/libgnarl.a(s-taprop.o)
 .text          0x0000000000000000        0x0 /.share/CACHEDEV1_DATA/Ada/STM32/L/L522/test/Ada_Drivers_Library/embedded-runtimes/ravenscar-stm32l5nucleo_s/sfp/adalib/libgnat.a(a-elchha.o)
 .data          0x0000000000000000        0x0 /.share/CACHEDEV1_DATA/Ada/STM32/L/L522/test/Ada_Drivers_Library/embedded-runtimes/ravenscar-stm32l5nucleo_s/sfp/adalib/libgnat.a(a-elchha.o)
 .bss           0x0000000000000000        0x0 /.share/CACHEDEV1_DATA/Ada/STM32/L/L522/test/Ada_Drivers_Library/embedded-runtimes/ravenscar-stm32l5nucleo_s/sfp/adalib/libgnat.a(a-elchha.o)
 .data.ada__exceptions__last_chance_handler_E
                0x0000000000000000        0x2 /.share/CACHEDEV1_DATA/Ada/STM32/L/L522/test/Ada_Drivers_Library/embedded-runtimes/ravenscar-stm32l5nucleo_s/sfp/adalib/libgnat.a(a-elchha.o)
 .text          0x0000000000000000        0x0 /.share/CACHEDEV1_DATA/Ada/STM32/L/L522/test/Ada_Drivers_Library/embedded-runtimes/ravenscar-stm32l5nucleo_s/sfp/adalib/libgnat.a(a-except.o)
 .data          0x0000000000000000        0x0 /.share/CACHEDEV1_DATA/Ada/STM32/L/L522/test/Ada_Drivers_Library/embedded-runtimes/ravenscar-stm32l5nucleo_s/sfp/adalib/libgnat.a(a-except.o)
 .bss           0x0000000000000000        0x0 /.share/CACHEDEV1_DATA/Ada/STM32/L/L522/test/Ada_Drivers_Library/embedded-runtimes/ravenscar-stm32l5nucleo_s/sfp/adalib/libgnat.a(a-except.o)
 .data.ada__exceptions_E
                0x0000000000000000        0x2 /.share/CACHEDEV1_DATA/Ada/STM32/L/L522/test/Ada_Drivers_Library/embedded-runtimes/ravenscar-stm32l5nucleo_s/sfp/adalib/libgnat.a(a-except.o)
 .rodata.ada__exceptions__null_id
                0x0000000000000000        0x4 /.share/CACHEDEV1_DATA/Ada/STM32/L/L522/test/Ada_Drivers_Library/embedded-runtimes/ravenscar-stm32l5nucleo_s/sfp/adalib/libgnat.a(a-except.o)
 .rodata.ada__exceptions__empty_c_string
                0x0000000000000000        0x4 /.share/CACHEDEV1_DATA/Ada/STM32/L/L522/test/Ada_Drivers_Library/embedded-runtimes/ravenscar-stm32l5nucleo_s/sfp/adalib/libgnat.a(a-except.o)
 .text          0x0000000000000000        0x0 /.share/CACHEDEV1_DATA/Ada/STM32/L/L522/test/Ada_Drivers_Library/embedded-runtimes/ravenscar-stm32l5nucleo_s/sfp/adalib/libgnat.a(g-io.o)
 .data          0x0000000000000000        0x0 /.share/CACHEDEV1_DATA/Ada/STM32/L/L522/test/Ada_Drivers_Library/embedded-runtimes/ravenscar-stm32l5nucleo_s/sfp/adalib/libgnat.a(g-io.o)
 .bss           0x0000000000000000        0x0 /.share/CACHEDEV1_DATA/Ada/STM32/L/L522/test/Ada_Drivers_Library/embedded-runtimes/ravenscar-stm32l5nucleo_s/sfp/adalib/libgnat.a(g-io.o)
 .data.gnat__io_E
                0x0000000000000000        0x2 /.share/CACHEDEV1_DATA/Ada/STM32/L/L522/test/Ada_Drivers_Library/embedded-runtimes/ravenscar-stm32l5nucleo_s/sfp/adalib/libgnat.a(g-io.o)
 .data          0x0000000000000000        0x0 /.share/CACHEDEV1_DATA/Ada/STM32/L/L522/test/Ada_Drivers_Library/embedded-runtimes/ravenscar-stm32l5nucleo_s/sfp/adalib/libgnat.a(handler.o)
 .bss           0x0000000000000000        0x0 /.share/CACHEDEV1_DATA/Ada/STM32/L/L522/test/Ada_Drivers_Library/embedded-runtimes/ravenscar-stm32l5nucleo_s/sfp/adalib/libgnat.a(handler.o)
 .text          0x0000000000000000        0x0 /.share/CACHEDEV1_DATA/Ada/STM32/L/L522/test/Ada_Drivers_Library/embedded-runtimes/ravenscar-stm32l5nucleo_s/sfp/adalib/libgnat.a(s-assert.o)
 .data          0x0000000000000000        0x0 /.share/CACHEDEV1_DATA/Ada/STM32/L/L522/test/Ada_Drivers_Library/embedded-runtimes/ravenscar-stm32l5nucleo_s/sfp/adalib/libgnat.a(s-assert.o)
 .bss           0x0000000000000000        0x0 /.share/CACHEDEV1_DATA/Ada/STM32/L/L522/test/Ada_Drivers_Library/embedded-runtimes/ravenscar-stm32l5nucleo_s/sfp/adalib/libgnat.a(s-assert.o)
 .data.system__assertions_E
                0x0000000000000000        0x2 /.share/CACHEDEV1_DATA/Ada/STM32/L/L522/test/Ada_Drivers_Library/embedded-runtimes/ravenscar-stm32l5nucleo_s/sfp/adalib/libgnat.a(s-assert.o)
 .data.system__assertions__assert_failure
                0x0000000000000000       0x18 /.share/CACHEDEV1_DATA/Ada/STM32/L/L522/test/Ada_Drivers_Library/embedded-runtimes/ravenscar-stm32l5nucleo_s/sfp/adalib/libgnat.a(s-assert.o)
 .rodata.system__assertions__R2s
                0x0000000000000000        0x4 /.share/CACHEDEV1_DATA/Ada/STM32/L/L522/test/Ada_Drivers_Library/embedded-runtimes/ravenscar-stm32l5nucleo_s/sfp/adalib/libgnat.a(s-assert.o)
 .rodata.system__assertions__assert_failureE
                0x0000000000000000       0x21 /.share/CACHEDEV1_DATA/Ada/STM32/L/L522/test/Ada_Drivers_Library/embedded-runtimes/ravenscar-stm32l5nucleo_s/sfp/adalib/libgnat.a(s-assert.o)
 .text          0x0000000000000000        0x0 /.share/CACHEDEV1_DATA/Ada/STM32/L/L522/test/Ada_Drivers_Library/embedded-runtimes/ravenscar-stm32l5nucleo_s/sfp/adalib/libgnat.a(s-macres.o)
 .data          0x0000000000000000        0x0 /.share/CACHEDEV1_DATA/Ada/STM32/L/L522/test/Ada_Drivers_Library/embedded-runtimes/ravenscar-stm32l5nucleo_s/sfp/adalib/libgnat.a(s-macres.o)
 .bss           0x0000000000000000        0x0 /.share/CACHEDEV1_DATA/Ada/STM32/L/L522/test/Ada_Drivers_Library/embedded-runtimes/ravenscar-stm32l5nucleo_s/sfp/adalib/libgnat.a(s-macres.o)
 .text.abort    0x0000000000000000       0x10 /.share/CACHEDEV1_DATA/Ada/STM32/L/L522/test/Ada_Drivers_Library/embedded-runtimes/ravenscar-stm32l5nucleo_s/sfp/adalib/libgnat.a(s-macres.o)
 .data.system__machine_reset_E
                0x0000000000000000        0x2 /.share/CACHEDEV1_DATA/Ada/STM32/L/L522/test/Ada_Drivers_Library/embedded-runtimes/ravenscar-stm32l5nucleo_s/sfp/adalib/libgnat.a(s-macres.o)
 .text          0x0000000000000000        0x0 /.share/CACHEDEV1_DATA/Ada/STM32/L/L522/test/Ada_Drivers_Library/embedded-runtimes/ravenscar-stm32l5nucleo_s/sfp/adalib/libgnat.a(s-memcom.o)
 .data          0x0000000000000000        0x0 /.share/CACHEDEV1_DATA/Ada/STM32/L/L522/test/Ada_Drivers_Library/embedded-runtimes/ravenscar-stm32l5nucleo_s/sfp/adalib/libgnat.a(s-memcom.o)
 .bss           0x0000000000000000        0x0 /.share/CACHEDEV1_DATA/Ada/STM32/L/L522/test/Ada_Drivers_Library/embedded-runtimes/ravenscar-stm32l5nucleo_s/sfp/adalib/libgnat.a(s-memcom.o)
 .text.memcmp   0x0000000000000000       0x64 /.share/CACHEDEV1_DATA/Ada/STM32/L/L522/test/Ada_Drivers_Library/embedded-runtimes/ravenscar-stm32l5nucleo_s/sfp/adalib/libgnat.a(s-memcom.o)
 .data.system__memory_compare_E
                0x0000000000000000        0x2 /.share/CACHEDEV1_DATA/Ada/STM32/L/L522/test/Ada_Drivers_Library/embedded-runtimes/ravenscar-stm32l5nucleo_s/sfp/adalib/libgnat.a(s-memcom.o)
 .debug_info    0x0000000000000000       0xea /.share/CACHEDEV1_DATA/Ada/STM32/L/L522/test/Ada_Drivers_Library/embedded-runtimes/ravenscar-stm32l5nucleo_s/sfp/adalib/libgnat.a(s-memcom.o)
 .debug_abbrev  0x0000000000000000       0x83 /.share/CACHEDEV1_DATA/Ada/STM32/L/L522/test/Ada_Drivers_Library/embedded-runtimes/ravenscar-stm32l5nucleo_s/sfp/adalib/libgnat.a(s-memcom.o)
 .debug_loc     0x0000000000000000      0x129 /.share/CACHEDEV1_DATA/Ada/STM32/L/L522/test/Ada_Drivers_Library/embedded-runtimes/ravenscar-stm32l5nucleo_s/sfp/adalib/libgnat.a(s-memcom.o)
 .debug_aranges
                0x0000000000000000       0x20 /.share/CACHEDEV1_DATA/Ada/STM32/L/L522/test/Ada_Drivers_Library/embedded-runtimes/ravenscar-stm32l5nucleo_s/sfp/adalib/libgnat.a(s-memcom.o)
 .debug_ranges  0x0000000000000000       0x10 /.share/CACHEDEV1_DATA/Ada/STM32/L/L522/test/Ada_Drivers_Library/embedded-runtimes/ravenscar-stm32l5nucleo_s/sfp/adalib/libgnat.a(s-memcom.o)
 .debug_line    0x0000000000000000       0xf6 /.share/CACHEDEV1_DATA/Ada/STM32/L/L522/test/Ada_Drivers_Library/embedded-runtimes/ravenscar-stm32l5nucleo_s/sfp/adalib/libgnat.a(s-memcom.o)
 .debug_str     0x0000000000000000      0x36d /.share/CACHEDEV1_DATA/Ada/STM32/L/L522/test/Ada_Drivers_Library/embedded-runtimes/ravenscar-stm32l5nucleo_s/sfp/adalib/libgnat.a(s-memcom.o)
 .comment       0x0000000000000000       0x3e /.share/CACHEDEV1_DATA/Ada/STM32/L/L522/test/Ada_Drivers_Library/embedded-runtimes/ravenscar-stm32l5nucleo_s/sfp/adalib/libgnat.a(s-memcom.o)
 .debug_frame   0x0000000000000000       0x3c /.share/CACHEDEV1_DATA/Ada/STM32/L/L522/test/Ada_Drivers_Library/embedded-runtimes/ravenscar-stm32l5nucleo_s/sfp/adalib/libgnat.a(s-memcom.o)
 .ARM.attributes
                0x0000000000000000       0x37 /.share/CACHEDEV1_DATA/Ada/STM32/L/L522/test/Ada_Drivers_Library/embedded-runtimes/ravenscar-stm32l5nucleo_s/sfp/adalib/libgnat.a(s-memcom.o)
 .text          0x0000000000000000        0x0 /.share/CACHEDEV1_DATA/Ada/STM32/L/L522/test/Ada_Drivers_Library/embedded-runtimes/ravenscar-stm32l5nucleo_s/sfp/adalib/libgnat.a(s-memcop.o)
 .data          0x0000000000000000        0x0 /.share/CACHEDEV1_DATA/Ada/STM32/L/L522/test/Ada_Drivers_Library/embedded-runtimes/ravenscar-stm32l5nucleo_s/sfp/adalib/libgnat.a(s-memcop.o)
 .bss           0x0000000000000000        0x0 /.share/CACHEDEV1_DATA/Ada/STM32/L/L522/test/Ada_Drivers_Library/embedded-runtimes/ravenscar-stm32l5nucleo_s/sfp/adalib/libgnat.a(s-memcop.o)
 .data.system__memory_copy_E
                0x0000000000000000        0x2 /.share/CACHEDEV1_DATA/Ada/STM32/L/L522/test/Ada_Drivers_Library/embedded-runtimes/ravenscar-stm32l5nucleo_s/sfp/adalib/libgnat.a(s-memcop.o)
 .text          0x0000000000000000        0x0 /.share/CACHEDEV1_DATA/Ada/STM32/L/L522/test/Ada_Drivers_Library/embedded-runtimes/ravenscar-stm32l5nucleo_s/sfp/adalib/libgnat.a(s-memset.o)
 .data          0x0000000000000000        0x0 /.share/CACHEDEV1_DATA/Ada/STM32/L/L522/test/Ada_Drivers_Library/embedded-runtimes/ravenscar-stm32l5nucleo_s/sfp/adalib/libgnat.a(s-memset.o)
 .bss           0x0000000000000000        0x0 /.share/CACHEDEV1_DATA/Ada/STM32/L/L522/test/Ada_Drivers_Library/embedded-runtimes/ravenscar-stm32l5nucleo_s/sfp/adalib/libgnat.a(s-memset.o)
 .data.system__memory_set_E
                0x0000000000000000        0x2 /.share/CACHEDEV1_DATA/Ada/STM32/L/L522/test/Ada_Drivers_Library/embedded-runtimes/ravenscar-stm32l5nucleo_s/sfp/adalib/libgnat.a(s-memset.o)
 .text          0x0000000000000000        0x0 /.share/CACHEDEV1_DATA/Ada/STM32/L/L522/test/Ada_Drivers_Library/embedded-runtimes/ravenscar-stm32l5nucleo_s/sfp/adalib/libgnat.a(s-parame.o)
 .data          0x0000000000000000        0x0 /.share/CACHEDEV1_DATA/Ada/STM32/L/L522/test/Ada_Drivers_Library/embedded-runtimes/ravenscar-stm32l5nucleo_s/sfp/adalib/libgnat.a(s-parame.o)
 .bss           0x0000000000000000        0x0 /.share/CACHEDEV1_DATA/Ada/STM32/L/L522/test/Ada_Drivers_Library/embedded-runtimes/ravenscar-stm32l5nucleo_s/sfp/adalib/libgnat.a(s-parame.o)
 .data.system__parameters_E
                0x0000000000000000        0x2 /.share/CACHEDEV1_DATA/Ada/STM32/L/L522/test/Ada_Drivers_Library/embedded-runtimes/ravenscar-stm32l5nucleo_s/sfp/adalib/libgnat.a(s-parame.o)
 .rodata.system__parameters__c_malloc_linkname
                0x0000000000000000        0xd /.share/CACHEDEV1_DATA/Ada/STM32/L/L522/test/Ada_Drivers_Library/embedded-runtimes/ravenscar-stm32l5nucleo_s/sfp/adalib/libgnat.a(s-parame.o)
 .rodata.system__parameters__default_stack_size
                0x0000000000000000        0x4 /.share/CACHEDEV1_DATA/Ada/STM32/L/L522/test/Ada_Drivers_Library/embedded-runtimes/ravenscar-stm32l5nucleo_s/sfp/adalib/libgnat.a(s-parame.o)
 .rodata.system__parameters__garbage_collected
                0x0000000000000000        0x1 /.share/CACHEDEV1_DATA/Ada/STM32/L/L522/test/Ada_Drivers_Library/embedded-runtimes/ravenscar-stm32l5nucleo_s/sfp/adalib/libgnat.a(s-parame.o)
 .rodata.system__parameters__minimum_stack_size
                0x0000000000000000        0x4 /.share/CACHEDEV1_DATA/Ada/STM32/L/L522/test/Ada_Drivers_Library/embedded-runtimes/ravenscar-stm32l5nucleo_s/sfp/adalib/libgnat.a(s-parame.o)
 .rodata.system__parameters__no_abort
                0x0000000000000000        0x1 /.share/CACHEDEV1_DATA/Ada/STM32/L/L522/test/Ada_Drivers_Library/embedded-runtimes/ravenscar-stm32l5nucleo_s/sfp/adalib/libgnat.a(s-parame.o)
 .rodata.system__parameters__runtime_default_sec_stack_size
                0x0000000000000000        0x4 /.share/CACHEDEV1_DATA/Ada/STM32/L/L522/test/Ada_Drivers_Library/embedded-runtimes/ravenscar-stm32l5nucleo_s/sfp/adalib/libgnat.a(s-parame.o)
 .rodata.system__parameters__single_lock
                0x0000000000000000        0x1 /.share/CACHEDEV1_DATA/Ada/STM32/L/L522/test/Ada_Drivers_Library/embedded-runtimes/ravenscar-stm32l5nucleo_s/sfp/adalib/libgnat.a(s-parame.o)
 .rodata.system__parameters__stack_grows_down
                0x0000000000000000        0x1 /.share/CACHEDEV1_DATA/Ada/STM32/L/L522/test/Ada_Drivers_Library/embedded-runtimes/ravenscar-stm32l5nucleo_s/sfp/adalib/libgnat.a(s-parame.o)
 .rodata.system__parameters__unspecified_size
                0x0000000000000000        0x4 /.share/CACHEDEV1_DATA/Ada/STM32/L/L522/test/Ada_Drivers_Library/embedded-runtimes/ravenscar-stm32l5nucleo_s/sfp/adalib/libgnat.a(s-parame.o)
 .text          0x0000000000000000        0x0 /.share/CACHEDEV1_DATA/Ada/STM32/L/L522/test/Ada_Drivers_Library/embedded-runtimes/ravenscar-stm32l5nucleo_s/sfp/adalib/libgnat.a(s-secsta.o)
 .data          0x0000000000000000        0x0 /.share/CACHEDEV1_DATA/Ada/STM32/L/L522/test/Ada_Drivers_Library/embedded-runtimes/ravenscar-stm32l5nucleo_s/sfp/adalib/libgnat.a(s-secsta.o)
 .bss           0x0000000000000000        0x0 /.share/CACHEDEV1_DATA/Ada/STM32/L/L522/test/Ada_Drivers_Library/embedded-runtimes/ravenscar-stm32l5nucleo_s/sfp/adalib/libgnat.a(s-secsta.o)
 .text.system__secondary_stack__memoryIP
                0x0000000000000000        0x4 /.share/CACHEDEV1_DATA/Ada/STM32/L/L522/test/Ada_Drivers_Library/embedded-runtimes/ravenscar-stm32l5nucleo_s/sfp/adalib/libgnat.a(s-secsta.o)
 .text.system__secondary_stack__ss_allocate
                0x0000000000000000       0x60 /.share/CACHEDEV1_DATA/Ada/STM32/L/L522/test/Ada_Drivers_Library/embedded-runtimes/ravenscar-stm32l5nucleo_s/sfp/adalib/libgnat.a(s-secsta.o)
 .text.system__secondary_stack__ss_get_max
                0x0000000000000000       0x10 /.share/CACHEDEV1_DATA/Ada/STM32/L/L522/test/Ada_Drivers_Library/embedded-runtimes/ravenscar-stm32l5nucleo_s/sfp/adalib/libgnat.a(s-secsta.o)
 .text.system__secondary_stack__ss_mark
                0x0000000000000000        0xc /.share/CACHEDEV1_DATA/Ada/STM32/L/L522/test/Ada_Drivers_Library/embedded-runtimes/ravenscar-stm32l5nucleo_s/sfp/adalib/libgnat.a(s-secsta.o)
 .text.system__secondary_stack__ss_release
                0x0000000000000000        0xc /.share/CACHEDEV1_DATA/Ada/STM32/L/L522/test/Ada_Drivers_Library/embedded-runtimes/ravenscar-stm32l5nucleo_s/sfp/adalib/libgnat.a(s-secsta.o)
 .bss.system__secondary_stack__ss_pool
                0x0000000000000000        0x4 /.share/CACHEDEV1_DATA/Ada/STM32/L/L522/test/Ada_Drivers_Library/embedded-runtimes/ravenscar-stm32l5nucleo_s/sfp/adalib/libgnat.a(s-secsta.o)
 .data.system__secondary_stack_E
                0x0000000000000000        0x2 /.share/CACHEDEV1_DATA/Ada/STM32/L/L522/test/Ada_Drivers_Library/embedded-runtimes/ravenscar-stm32l5nucleo_s/sfp/adalib/libgnat.a(s-secsta.o)
 .text          0x0000000000000000        0x0 /.share/CACHEDEV1_DATA/Ada/STM32/L/L522/test/Ada_Drivers_Library/embedded-runtimes/ravenscar-stm32l5nucleo_s/sfp/adalib/libgnat.a(s-textio.o)
 .data          0x0000000000000000        0x0 /.share/CACHEDEV1_DATA/Ada/STM32/L/L522/test/Ada_Drivers_Library/embedded-runtimes/ravenscar-stm32l5nucleo_s/sfp/adalib/libgnat.a(s-textio.o)
 .bss           0x0000000000000000        0x0 /.share/CACHEDEV1_DATA/Ada/STM32/L/L522/test/Ada_Drivers_Library/embedded-runtimes/ravenscar-stm32l5nucleo_s/sfp/adalib/libgnat.a(s-textio.o)
 .text.system__text_io__is_rx_ready
                0x0000000000000000       0x10 /.share/CACHEDEV1_DATA/Ada/STM32/L/L522/test/Ada_Drivers_Library/embedded-runtimes/ravenscar-stm32l5nucleo_s/sfp/adalib/libgnat.a(s-textio.o)
 .text.system__text_io__get
                0x0000000000000000        0xc /.share/CACHEDEV1_DATA/Ada/STM32/L/L522/test/Ada_Drivers_Library/embedded-runtimes/ravenscar-stm32l5nucleo_s/sfp/adalib/libgnat.a(s-textio.o)
 .data.system__text_io_E
                0x0000000000000000        0x2 /.share/CACHEDEV1_DATA/Ada/STM32/L/L522/test/Ada_Drivers_Library/embedded-runtimes/ravenscar-stm32l5nucleo_s/sfp/adalib/libgnat.a(s-textio.o)
 .data          0x0000000000000000        0x0 /.share/CACHEDEV1_DATA/Ada/STM32/L/L522/test/Ada_Drivers_Library/embedded-runtimes/ravenscar-stm32l5nucleo_s/sfp/adalib/libgnat.a(start-common.o)
 .bss           0x0000000000000000        0x0 /.share/CACHEDEV1_DATA/Ada/STM32/L/L522/test/Ada_Drivers_Library/embedded-runtimes/ravenscar-stm32l5nucleo_s/sfp/adalib/libgnat.a(start-common.o)
 .data          0x0000000000000000        0x0 /.share/CACHEDEV1_DATA/Ada/STM32/L/L522/test/Ada_Drivers_Library/embedded-runtimes/ravenscar-stm32l5nucleo_s/sfp/adalib/libgnat.a(start-ram.o)
 .bss           0x0000000000000000        0x0 /.share/CACHEDEV1_DATA/Ada/STM32/L/L522/test/Ada_Drivers_Library/embedded-runtimes/ravenscar-stm32l5nucleo_s/sfp/adalib/libgnat.a(start-ram.o)
 .text          0x0000000000000000        0x0 /.share/CACHEDEV1_DATA/Ada/STM32/L/L522/test/Ada_Drivers_Library/embedded-runtimes/ravenscar-stm32l5nucleo_s/sfp/adalib/libgnat.a(setup_pll.o)
 .data          0x0000000000000000        0x0 /.share/CACHEDEV1_DATA/Ada/STM32/L/L522/test/Ada_Drivers_Library/embedded-runtimes/ravenscar-stm32l5nucleo_s/sfp/adalib/libgnat.a(setup_pll.o)
 .bss           0x0000000000000000        0x0 /.share/CACHEDEV1_DATA/Ada/STM32/L/L522/test/Ada_Drivers_Library/embedded-runtimes/ravenscar-stm32l5nucleo_s/sfp/adalib/libgnat.a(setup_pll.o)
 .text          0x0000000000000000        0x0 /.share/CACHEDEV1_DATA/Ada/STM32/L/L522/test/Ada_Drivers_Library/embedded-runtimes/ravenscar-stm32l5nucleo_s/sfp/adalib/libgnat.a(s-bbmcpa.o)
 .data          0x0000000000000000        0x0 /.share/CACHEDEV1_DATA/Ada/STM32/L/L522/test/Ada_Drivers_Library/embedded-runtimes/ravenscar-stm32l5nucleo_s/sfp/adalib/libgnat.a(s-bbmcpa.o)
 .bss           0x0000000000000000        0x0 /.share/CACHEDEV1_DATA/Ada/STM32/L/L522/test/Ada_Drivers_Library/embedded-runtimes/ravenscar-stm32l5nucleo_s/sfp/adalib/libgnat.a(s-bbmcpa.o)
 .text.system__bb__mcu_parameters__is_pwr_stabilized
                0x0000000000000000        0x4 /.share/CACHEDEV1_DATA/Ada/STM32/L/L522/test/Ada_Drivers_Library/embedded-runtimes/ravenscar-stm32l5nucleo_s/sfp/adalib/libgnat.a(s-bbmcpa.o)
 .text.system__bb__mcu_parameters__pwr_overdrive_enable
                0x0000000000000000        0x4 /.share/CACHEDEV1_DATA/Ada/STM32/L/L522/test/Ada_Drivers_Library/embedded-runtimes/ravenscar-stm32l5nucleo_s/sfp/adalib/libgnat.a(s-bbmcpa.o)
 .data.system__bb__mcu_parameters_E
                0x0000000000000000        0x2 /.share/CACHEDEV1_DATA/Ada/STM32/L/L522/test/Ada_Drivers_Library/embedded-runtimes/ravenscar-stm32l5nucleo_s/sfp/adalib/libgnat.a(s-bbmcpa.o)
 .data          0x0000000000000000        0x0 ../../../glue/veneer_s.o
 .bss           0x0000000000000000        0x0 ../../../glue/veneer_s.o
 .data          0x0000000000000000        0x0 ../../../glue/veneer_ns.o
 .bss           0x0000000000000000        0x0 ../../../glue/veneer_ns.o
 .debug_info    0x0000000000000000       0x75 ../../../glue/veneer_ns.o
 .debug_abbrev  0x0000000000000000       0x6d ../../../glue/veneer_ns.o
 .debug_aranges
                0x0000000000000000       0x20 ../../../glue/veneer_ns.o
 .debug_line    0x0000000000000000       0x3b ../../../glue/veneer_ns.o
 .debug_str     0x0000000000000000      0x100 ../../../glue/veneer_ns.o
 .comment       0x0000000000000000       0x3e ../../../glue/veneer_ns.o
 .debug_frame   0x0000000000000000       0x38 ../../../glue/veneer_ns.o
 .ARM.attributes
                0x0000000000000000       0x3c ../../../glue/veneer_ns.o
 .data          0x0000000000000000        0x0 ../../../glue/s_ns.o
 .bss           0x0000000000000000        0x0 ../../../glue/s_ns.o
 .text          0x0000000000000000       0x98 ../../../glue/led.o
 .data          0x0000000000000000        0x0 ../../../glue/led.o
 .bss           0x0000000000000000        0x0 ../../../glue/led.o
 .debug_info    0x0000000000000000       0x99 ../../../glue/led.o
 .debug_abbrev  0x0000000000000000       0x94 ../../../glue/led.o
 .debug_aranges
                0x0000000000000000       0x20 ../../../glue/led.o
 .debug_line    0x0000000000000000       0x60 ../../../glue/led.o
 .debug_str     0x0000000000000000       0xda ../../../glue/led.o
 .comment       0x0000000000000000       0x3e ../../../glue/led.o
 .debug_frame   0x0000000000000000       0x60 ../../../glue/led.o
 .ARM.attributes
                0x0000000000000000       0x3c ../../../glue/led.o
 .text          0x0000000000000000       0xa0 /usr/gnat/gnat2019/bin/../lib/gcc/arm-eabi/7.4.1/thumb/v7e-m/fpv4-sp/hard/libgcc.a(_aeabi_ldivmod.o)
 .data          0x0000000000000000        0x0 /usr/gnat/gnat2019/bin/../lib/gcc/arm-eabi/7.4.1/thumb/v7e-m/fpv4-sp/hard/libgcc.a(_aeabi_ldivmod.o)
 .bss           0x0000000000000000        0x0 /usr/gnat/gnat2019/bin/../lib/gcc/arm-eabi/7.4.1/thumb/v7e-m/fpv4-sp/hard/libgcc.a(_aeabi_ldivmod.o)
 .debug_line    0x0000000000000000       0x85 /usr/gnat/gnat2019/bin/../lib/gcc/arm-eabi/7.4.1/thumb/v7e-m/fpv4-sp/hard/libgcc.a(_aeabi_ldivmod.o)
 .debug_info    0x0000000000000000       0x26 /usr/gnat/gnat2019/bin/../lib/gcc/arm-eabi/7.4.1/thumb/v7e-m/fpv4-sp/hard/libgcc.a(_aeabi_ldivmod.o)
 .debug_abbrev  0x0000000000000000       0x14 /usr/gnat/gnat2019/bin/../lib/gcc/arm-eabi/7.4.1/thumb/v7e-m/fpv4-sp/hard/libgcc.a(_aeabi_ldivmod.o)
 .debug_aranges
                0x0000000000000000       0x20 /usr/gnat/gnat2019/bin/../lib/gcc/arm-eabi/7.4.1/thumb/v7e-m/fpv4-sp/hard/libgcc.a(_aeabi_ldivmod.o)
 .debug_str     0x0000000000000000       0x94 /usr/gnat/gnat2019/bin/../lib/gcc/arm-eabi/7.4.1/thumb/v7e-m/fpv4-sp/hard/libgcc.a(_aeabi_ldivmod.o)
 .debug_frame   0x0000000000000000       0x44 /usr/gnat/gnat2019/bin/../lib/gcc/arm-eabi/7.4.1/thumb/v7e-m/fpv4-sp/hard/libgcc.a(_aeabi_ldivmod.o)
 .ARM.attributes
                0x0000000000000000       0x22 /usr/gnat/gnat2019/bin/../lib/gcc/arm-eabi/7.4.1/thumb/v7e-m/fpv4-sp/hard/libgcc.a(_aeabi_ldivmod.o)
 .text          0x0000000000000000       0x30 /usr/gnat/gnat2019/bin/../lib/gcc/arm-eabi/7.4.1/thumb/v7e-m/fpv4-sp/hard/libgcc.a(_aeabi_uldivmod.o)
 .data          0x0000000000000000        0x0 /usr/gnat/gnat2019/bin/../lib/gcc/arm-eabi/7.4.1/thumb/v7e-m/fpv4-sp/hard/libgcc.a(_aeabi_uldivmod.o)
 .bss           0x0000000000000000        0x0 /usr/gnat/gnat2019/bin/../lib/gcc/arm-eabi/7.4.1/thumb/v7e-m/fpv4-sp/hard/libgcc.a(_aeabi_uldivmod.o)
 .debug_line    0x0000000000000000       0x67 /usr/gnat/gnat2019/bin/../lib/gcc/arm-eabi/7.4.1/thumb/v7e-m/fpv4-sp/hard/libgcc.a(_aeabi_uldivmod.o)
 .debug_info    0x0000000000000000       0x26 /usr/gnat/gnat2019/bin/../lib/gcc/arm-eabi/7.4.1/thumb/v7e-m/fpv4-sp/hard/libgcc.a(_aeabi_uldivmod.o)
 .debug_abbrev  0x0000000000000000       0x14 /usr/gnat/gnat2019/bin/../lib/gcc/arm-eabi/7.4.1/thumb/v7e-m/fpv4-sp/hard/libgcc.a(_aeabi_uldivmod.o)
 .debug_aranges
                0x0000000000000000       0x20 /usr/gnat/gnat2019/bin/../lib/gcc/arm-eabi/7.4.1/thumb/v7e-m/fpv4-sp/hard/libgcc.a(_aeabi_uldivmod.o)
 .debug_str     0x0000000000000000       0x94 /usr/gnat/gnat2019/bin/../lib/gcc/arm-eabi/7.4.1/thumb/v7e-m/fpv4-sp/hard/libgcc.a(_aeabi_uldivmod.o)
 .debug_frame   0x0000000000000000       0x2c /usr/gnat/gnat2019/bin/../lib/gcc/arm-eabi/7.4.1/thumb/v7e-m/fpv4-sp/hard/libgcc.a(_aeabi_uldivmod.o)
 .ARM.attributes
                0x0000000000000000       0x22 /usr/gnat/gnat2019/bin/../lib/gcc/arm-eabi/7.4.1/thumb/v7e-m/fpv4-sp/hard/libgcc.a(_aeabi_uldivmod.o)
 .text          0x0000000000000000      0x2cc /usr/gnat/gnat2019/bin/../lib/gcc/arm-eabi/7.4.1/thumb/v7e-m/fpv4-sp/hard/libgcc.a(_udivmoddi4.o)
 .data          0x0000000000000000        0x0 /usr/gnat/gnat2019/bin/../lib/gcc/arm-eabi/7.4.1/thumb/v7e-m/fpv4-sp/hard/libgcc.a(_udivmoddi4.o)
 .bss           0x0000000000000000        0x0 /usr/gnat/gnat2019/bin/../lib/gcc/arm-eabi/7.4.1/thumb/v7e-m/fpv4-sp/hard/libgcc.a(_udivmoddi4.o)
 .ARM.extab     0x0000000000000000        0x0 /usr/gnat/gnat2019/bin/../lib/gcc/arm-eabi/7.4.1/thumb/v7e-m/fpv4-sp/hard/libgcc.a(_udivmoddi4.o)
 .ARM.exidx     0x0000000000000000        0x8 /usr/gnat/gnat2019/bin/../lib/gcc/arm-eabi/7.4.1/thumb/v7e-m/fpv4-sp/hard/libgcc.a(_udivmoddi4.o)
 .debug_info    0x0000000000000000      0xcff /usr/gnat/gnat2019/bin/../lib/gcc/arm-eabi/7.4.1/thumb/v7e-m/fpv4-sp/hard/libgcc.a(_udivmoddi4.o)
 .debug_abbrev  0x0000000000000000      0x199 /usr/gnat/gnat2019/bin/../lib/gcc/arm-eabi/7.4.1/thumb/v7e-m/fpv4-sp/hard/libgcc.a(_udivmoddi4.o)
 .debug_loc     0x0000000000000000      0xdaa /usr/gnat/gnat2019/bin/../lib/gcc/arm-eabi/7.4.1/thumb/v7e-m/fpv4-sp/hard/libgcc.a(_udivmoddi4.o)
 .debug_aranges
                0x0000000000000000       0x20 /usr/gnat/gnat2019/bin/../lib/gcc/arm-eabi/7.4.1/thumb/v7e-m/fpv4-sp/hard/libgcc.a(_udivmoddi4.o)
 .debug_ranges  0x0000000000000000       0xd8 /usr/gnat/gnat2019/bin/../lib/gcc/arm-eabi/7.4.1/thumb/v7e-m/fpv4-sp/hard/libgcc.a(_udivmoddi4.o)
 .debug_line    0x0000000000000000      0x267 /usr/gnat/gnat2019/bin/../lib/gcc/arm-eabi/7.4.1/thumb/v7e-m/fpv4-sp/hard/libgcc.a(_udivmoddi4.o)
 .debug_str     0x0000000000000000     0x13f3 /usr/gnat/gnat2019/bin/../lib/gcc/arm-eabi/7.4.1/thumb/v7e-m/fpv4-sp/hard/libgcc.a(_udivmoddi4.o)
 .comment       0x0000000000000000       0x3e /usr/gnat/gnat2019/bin/../lib/gcc/arm-eabi/7.4.1/thumb/v7e-m/fpv4-sp/hard/libgcc.a(_udivmoddi4.o)
 .debug_frame   0x0000000000000000       0x34 /usr/gnat/gnat2019/bin/../lib/gcc/arm-eabi/7.4.1/thumb/v7e-m/fpv4-sp/hard/libgcc.a(_udivmoddi4.o)
 .ARM.attributes
                0x0000000000000000       0x34 /usr/gnat/gnat2019/bin/../lib/gcc/arm-eabi/7.4.1/thumb/v7e-m/fpv4-sp/hard/libgcc.a(_udivmoddi4.o)
 .text          0x0000000000000000        0x4 /usr/gnat/gnat2019/bin/../lib/gcc/arm-eabi/7.4.1/thumb/v7e-m/fpv4-sp/hard/libgcc.a(_dvmd_tls.o)
 .data          0x0000000000000000        0x0 /usr/gnat/gnat2019/bin/../lib/gcc/arm-eabi/7.4.1/thumb/v7e-m/fpv4-sp/hard/libgcc.a(_dvmd_tls.o)
 .bss           0x0000000000000000        0x0 /usr/gnat/gnat2019/bin/../lib/gcc/arm-eabi/7.4.1/thumb/v7e-m/fpv4-sp/hard/libgcc.a(_dvmd_tls.o)
 .debug_line    0x0000000000000000       0x67 /usr/gnat/gnat2019/bin/../lib/gcc/arm-eabi/7.4.1/thumb/v7e-m/fpv4-sp/hard/libgcc.a(_dvmd_tls.o)
 .debug_info    0x0000000000000000       0x26 /usr/gnat/gnat2019/bin/../lib/gcc/arm-eabi/7.4.1/thumb/v7e-m/fpv4-sp/hard/libgcc.a(_dvmd_tls.o)
 .debug_abbrev  0x0000000000000000       0x14 /usr/gnat/gnat2019/bin/../lib/gcc/arm-eabi/7.4.1/thumb/v7e-m/fpv4-sp/hard/libgcc.a(_dvmd_tls.o)
 .debug_aranges
                0x0000000000000000       0x20 /usr/gnat/gnat2019/bin/../lib/gcc/arm-eabi/7.4.1/thumb/v7e-m/fpv4-sp/hard/libgcc.a(_dvmd_tls.o)
 .debug_str     0x0000000000000000       0x98 /usr/gnat/gnat2019/bin/../lib/gcc/arm-eabi/7.4.1/thumb/v7e-m/fpv4-sp/hard/libgcc.a(_dvmd_tls.o)
 .ARM.attributes
                0x0000000000000000       0x22 /usr/gnat/gnat2019/bin/../lib/gcc/arm-eabi/7.4.1/thumb/v7e-m/fpv4-sp/hard/libgcc.a(_dvmd_tls.o)

Memory Configuration

Name             Origin             Length             Attributes
flash            0x0000000008000000 0x0000000000080000 xr
sram12           0x0000000030000000 0x0000000000040000 xrw
sglue            0x0000000030010000 0x000000000000f000 xrw
nsglue           0x000000003001f000 0x0000000000001000 xrw
ns               0x0000000030020000 0x0000000000020000 xrw
*default*        0x0000000000000000 0xffffffffffffffff

Linker script and memory map

LOAD test_s.o
LOAD b__test_s.o
LOAD /.share/CACHEDEV1_DATA/Ada/STM32/L/L522/test/test_s/obj/Debug/ns_api.o
LOAD /.share/CACHEDEV1_DATA/Ada/STM32/L/L522/test/test_s/obj/Debug/trace.o
LOAD /.share/CACHEDEV1_DATA/Ada/STM32/L/L522/test/Ada_Drivers_Library/boards/lib/stm32l5nucleo_s/ravenscar-sfp/Debug/libstm32l5nucleo_s.a
LOAD /.share/CACHEDEV1_DATA/Ada/STM32/L/L522/test/Ada_Drivers_Library/components/lib/stm32l5nucleo_s/ravenscar-sfp/Debug/libcomponents.a
LOAD /.share/CACHEDEV1_DATA/Ada/STM32/L/L522/test/Ada_Drivers_Library/middleware/lib/stm32l5nucleo_s/ravenscar-sfp/Debug/libservices.a
LOAD /.share/CACHEDEV1_DATA/Ada/STM32/L/L522/test/Ada_Drivers_Library/arch/ARM/STM32/lib/stm32l5nucleo_s/ravenscar-sfp/Debug/libstm32l5xx.a
LOAD /.share/CACHEDEV1_DATA/Ada/STM32/L/L522/test/Ada_Drivers_Library/arch/ARM/cortex_m/lib/cortex-m4f/stm32l5nucleo_s/ravenscar-sfp/Debug/libcortex-m4f.a
LOAD /.share/CACHEDEV1_DATA/Ada/Ada_Drivers_Library/hal/lib/stm32l5nucleo_s/ravenscar-sfp/Debug/libHAL.a
LOAD /.share/CACHEDEV1_DATA/Ada/STM32/L/L522/test/Ada_Drivers_Library/embedded-runtimes/ravenscar-stm32l5nucleo_s/sfp/adalib/libgnarl.a
LOAD /.share/CACHEDEV1_DATA/Ada/STM32/L/L522/test/Ada_Drivers_Library/embedded-runtimes/ravenscar-stm32l5nucleo_s/sfp/adalib/libgnat.a
                0x0000000000008000                __stack_size = 0x8000
LOAD ../../../glue/veneer_s.o
LOAD ../../../glue/veneer_ns.o
LOAD ../../../glue/s_ns.o
LOAD ../../../glue/led.o
LOAD /.share/CACHEDEV1_DATA/Ada/Ada_Drivers_Library/embedded-runtimes/ravenscar-stm32l5nucleo_s/sfp/adalib/libgnarl.a
LOAD /.share/CACHEDEV1_DATA/Ada/Ada_Drivers_Library/embedded-runtimes/ravenscar-stm32l5nucleo_s/sfp/adalib/libgnat.a
START GROUP
LOAD /usr/gnat/gnat2019/bin/../lib/gcc/arm-eabi/7.4.1/thumb/v7e-m/fpv4-sp/hard/libgcc.a
END GROUP
                0x0000000000000000                __DYNAMIC = 0x0
                0x0000000000001000                _DEFAULT_STACK_SIZE = 0x1000

.text           0x0000000030000000     0x3d96
 *(.vectors)
 .vectors       0x0000000030000000       0x14 /.share/CACHEDEV1_DATA/Ada/STM32/L/L522/test/Ada_Drivers_Library/embedded-runtimes/ravenscar-stm32l5nucleo_s/sfp/adalib/libgnat.a(start-ram.o)
 *(.text .text.* .gnu.linkonce.t*)
 .text._ada_test_s
                0x0000000030000014       0x38 test_s.o
                0x0000000030000014                _ada_test_s
 .text.test_s__init_mpu.5426
                0x000000003000004c       0x84 test_s.o
 .text.test_s__enable_gtzc_sram.5430
                0x00000000300000d0      0x180 test_s.o
 .text.ada_main__Tsec_default_sized_stacksBIP
                0x0000000030000250       0x44 b__test_s.o
                0x0000000030000250                ada_main__Tsec_default_sized_stacksBIP
 .text.adainit  0x0000000030000294      0x134 b__test_s.o
                0x0000000030000294                adainit
 .text.main     0x00000000300003c8       0x1c b__test_s.o
                0x00000000300003c8                main
 .text.ada_main___elabb
                0x00000000300003e4       0x1c b__test_s.o
                0x00000000300003e4                ada_main___elabb
 .text.s_from_ns
                0x0000000030000400       0x80 /.share/CACHEDEV1_DATA/Ada/STM32/L/L522/test/test_s/obj/Debug/ns_api.o
                0x0000000030000400                s_from_ns
 .text.trace___elabs
                0x0000000030000480        0xc /.share/CACHEDEV1_DATA/Ada/STM32/L/L522/test/test_s/obj/Debug/trace.o
                0x0000000030000480                trace___elabs
 .text.stm32__board__initialize_leds
                0x000000003000048c       0x40 /.share/CACHEDEV1_DATA/Ada/STM32/L/L522/test/Ada_Drivers_Library/boards/lib/stm32l5nucleo_s/ravenscar-sfp/Debug/libstm32l5nucleo_s.a(stm32-board.o)
                0x000000003000048c                stm32__board__initialize_leds
 .text.stm32__board__initialize_board
                0x00000000300004cc        0xc /.share/CACHEDEV1_DATA/Ada/STM32/L/L522/test/Ada_Drivers_Library/boards/lib/stm32l5nucleo_s/ravenscar-sfp/Debug/libstm32l5nucleo_s.a(stm32-board.o)
                0x00000000300004cc                stm32__board__initialize_board
 .text.stm32__board___elabs
                0x00000000300004d8       0x48 /.share/CACHEDEV1_DATA/Ada/STM32/L/L522/test/Ada_Drivers_Library/boards/lib/stm32l5nucleo_s/ravenscar-sfp/Debug/libstm32l5nucleo_s.a(stm32-board.o)
                0x00000000300004d8                stm32__board___elabs
 .text.stm32__device__enable_clock
                0x0000000030000520      0x258 /.share/CACHEDEV1_DATA/Ada/STM32/L/L522/test/Ada_Drivers_Library/arch/ARM/STM32/lib/stm32l5nucleo_s/ravenscar-sfp/Debug/libstm32l5xx.a(stm32-device.o)
                0x0000000030000520                stm32__device__enable_clock
 .text.stm32__device__enable_clock__3
                0x0000000030000778       0x78 /.share/CACHEDEV1_DATA/Ada/STM32/L/L522/test/Ada_Drivers_Library/arch/ARM/STM32/lib/stm32l5nucleo_s/ravenscar-sfp/Debug/libstm32l5xx.a(stm32-device.o)
                0x0000000030000778                stm32__device__enable_clock__3
 .text.stm32__device__s_ns_periph
                0x00000000300007f0       0x3c /.share/CACHEDEV1_DATA/Ada/STM32/L/L522/test/Ada_Drivers_Library/arch/ARM/STM32/lib/stm32l5nucleo_s/ravenscar-sfp/Debug/libstm32l5xx.a(stm32-device.o)
                0x00000000300007f0                stm32__device__s_ns_periph
 .text.stm32__device___elabb
                0x000000003000082c       0x50 /.share/CACHEDEV1_DATA/Ada/STM32/L/L522/test/Ada_Drivers_Library/arch/ARM/STM32/lib/stm32l5nucleo_s/ravenscar-sfp/Debug/libstm32l5xx.a(stm32-device.o)
                0x000000003000082c                stm32__device___elabb
 .text.stm32__device___elabs
                0x000000003000087c      0x950 /.share/CACHEDEV1_DATA/Ada/STM32/L/L522/test/Ada_Drivers_Library/arch/ARM/STM32/lib/stm32l5nucleo_s/ravenscar-sfp/Debug/libstm32l5xx.a(stm32-device.o)
                0x000000003000087c                stm32__device___elabs
 .text.stm32__exti__enable_external_interrupt
                0x00000000300011cc      0x228 /.share/CACHEDEV1_DATA/Ada/STM32/L/L522/test/Ada_Drivers_Library/arch/ARM/STM32/lib/stm32l5nucleo_s/ravenscar-sfp/Debug/libstm32l5xx.a(stm32-exti.o)
                0x00000000300011cc                stm32__exti__enable_external_interrupt
 .text.stm32__exti__enable_external_event
                0x00000000300013f4      0x11c /.share/CACHEDEV1_DATA/Ada/STM32/L/L522/test/Ada_Drivers_Library/arch/ARM/STM32/lib/stm32l5nucleo_s/ravenscar-sfp/Debug/libstm32l5xx.a(stm32-exti.o)
                0x00000000300013f4                stm32__exti__enable_external_event
 .text.stm32__gpio__gpio_pinRP
                0x0000000030001510       0xd0 /.share/CACHEDEV1_DATA/Ada/STM32/L/L522/test/Ada_Drivers_Library/arch/ARM/STM32/lib/stm32l5nucleo_s/ravenscar-sfp/Debug/libstm32l5xx.a(stm32-gpio.o)
                0x0000000030001510                stm32__gpio__gpio_pinRP
 .text.stm32__gpio__gpio_pointIP
                0x00000000300015e0       0x2c /.share/CACHEDEV1_DATA/Ada/STM32/L/L522/test/Ada_Drivers_Library/arch/ARM/STM32/lib/stm32l5nucleo_s/ravenscar-sfp/Debug/libstm32l5xx.a(stm32-gpio.o)
                0x00000000300015e0                stm32__gpio__gpio_pointIP
 .text.stm32__gpio___size__2
                0x000000003000160c       0x1c /.share/CACHEDEV1_DATA/Ada/STM32/L/L522/test/Ada_Drivers_Library/arch/ARM/STM32/lib/stm32l5nucleo_s/ravenscar-sfp/Debug/libstm32l5xx.a(stm32-gpio.o)
                0x000000003000160c                stm32__gpio___size__2
 .text.stm32__gpio__Oeq
                0x0000000030001628       0x34 /.share/CACHEDEV1_DATA/Ada/STM32/L/L522/test/Ada_Drivers_Library/arch/ARM/STM32/lib/stm32l5nucleo_s/ravenscar-sfp/Debug/libstm32l5xx.a(stm32-gpio.o)
                0x0000000030001628                stm32__gpio__Oeq
 .text.stm32__gpio___assign
                0x000000003000165c       0x24 /.share/CACHEDEV1_DATA/Ada/STM32/L/L522/test/Ada_Drivers_Library/arch/ARM/STM32/lib/stm32l5nucleo_s/ravenscar-sfp/Debug/libstm32l5xx.a(stm32-gpio.o)
                0x000000003000165c                stm32__gpio___assign
 .text.stm32__gpio__gpio_pointsIP
                0x0000000030001680       0x44 /.share/CACHEDEV1_DATA/Ada/STM32/L/L522/test/Ada_Drivers_Library/arch/ARM/STM32/lib/stm32l5nucleo_s/ravenscar-sfp/Debug/libstm32l5xx.a(stm32-gpio.o)
                0x0000000030001680                stm32__gpio__gpio_pointsIP
 .text.stm32__gpio__mode
                0x00000000300016c4       0x7c /.share/CACHEDEV1_DATA/Ada/STM32/L/L522/test/Ada_Drivers_Library/arch/ARM/STM32/lib/stm32l5nucleo_s/ravenscar-sfp/Debug/libstm32l5xx.a(stm32-gpio.o)
                0x00000000300016c4                stm32__gpio__mode
 .text.stm32__gpio__set_mode
                0x0000000030001740       0xd0 /.share/CACHEDEV1_DATA/Ada/STM32/L/L522/test/Ada_Drivers_Library/arch/ARM/STM32/lib/stm32l5nucleo_s/ravenscar-sfp/Debug/libstm32l5xx.a(stm32-gpio.o)
                0x0000000030001740                stm32__gpio__set_mode
 .text.stm32__gpio__pull_resistor
                0x0000000030001810       0x9c /.share/CACHEDEV1_DATA/Ada/STM32/L/L522/test/Ada_Drivers_Library/arch/ARM/STM32/lib/stm32l5nucleo_s/ravenscar-sfp/Debug/libstm32l5xx.a(stm32-gpio.o)
                0x0000000030001810                stm32__gpio__pull_resistor
 .text.stm32__gpio__set_pull_resistor
                0x00000000300018ac      0x124 /.share/CACHEDEV1_DATA/Ada/STM32/L/L522/test/Ada_Drivers_Library/arch/ARM/STM32/lib/stm32l5nucleo_s/ravenscar-sfp/Debug/libstm32l5xx.a(stm32-gpio.o)
                0x00000000300018ac                stm32__gpio__set_pull_resistor
 .text.stm32__gpio__set
                0x00000000300019d0       0x48 /.share/CACHEDEV1_DATA/Ada/STM32/L/L522/test/Ada_Drivers_Library/arch/ARM/STM32/lib/stm32l5nucleo_s/ravenscar-sfp/Debug/libstm32l5xx.a(stm32-gpio.o)
                0x00000000300019d0                stm32__gpio__set
 .text.stm32__gpio__set__2
                0x0000000030001a18       0x5c /.share/CACHEDEV1_DATA/Ada/STM32/L/L522/test/Ada_Drivers_Library/arch/ARM/STM32/lib/stm32l5nucleo_s/ravenscar-sfp/Debug/libstm32l5xx.a(stm32-gpio.o)
                0x0000000030001a18                stm32__gpio__set__2
 .text.stm32__gpio__clear
                0x0000000030001a74       0x5c /.share/CACHEDEV1_DATA/Ada/STM32/L/L522/test/Ada_Drivers_Library/arch/ARM/STM32/lib/stm32l5nucleo_s/ravenscar-sfp/Debug/libstm32l5xx.a(stm32-gpio.o)
                0x0000000030001a74                stm32__gpio__clear
 .text.stm32__gpio__toggle
                0x0000000030001ad0       0x78 /.share/CACHEDEV1_DATA/Ada/STM32/L/L522/test/Ada_Drivers_Library/arch/ARM/STM32/lib/stm32l5nucleo_s/ravenscar-sfp/Debug/libstm32l5xx.a(stm32-gpio.o)
                0x0000000030001ad0                stm32__gpio__toggle
 .text.stm32__gpio__locked
                0x0000000030001b48       0x4c /.share/CACHEDEV1_DATA/Ada/STM32/L/L522/test/Ada_Drivers_Library/arch/ARM/STM32/lib/stm32l5nucleo_s/ravenscar-sfp/Debug/libstm32l5xx.a(stm32-gpio.o)
                0x0000000030001b48                stm32__gpio__locked
 .text.stm32__gpio__lock_the_pin
                0x0000000030001b94       0x34 /.share/CACHEDEV1_DATA/Ada/STM32/L/L522/test/Ada_Drivers_Library/arch/ARM/STM32/lib/stm32l5nucleo_s/ravenscar-sfp/Debug/libstm32l5xx.a(stm32-gpio.o)
 .text.stm32__gpio__lock___postconditions.6822
                0x0000000030001bc8       0x3c /.share/CACHEDEV1_DATA/Ada/STM32/L/L522/test/Ada_Drivers_Library/arch/ARM/STM32/lib/stm32l5nucleo_s/ravenscar-sfp/Debug/libstm32l5xx.a(stm32-gpio.o)
 .text.stm32__gpio__lock
                0x0000000030001c04       0x6c /.share/CACHEDEV1_DATA/Ada/STM32/L/L522/test/Ada_Drivers_Library/arch/ARM/STM32/lib/stm32l5nucleo_s/ravenscar-sfp/Debug/libstm32l5xx.a(stm32-gpio.o)
                0x0000000030001c04                stm32__gpio__lock
 .text.stm32__gpio__configure_io
                0x0000000030001c70      0x17c /.share/CACHEDEV1_DATA/Ada/STM32/L/L522/test/Ada_Drivers_Library/arch/ARM/STM32/lib/stm32l5nucleo_s/ravenscar-sfp/Debug/libstm32l5xx.a(stm32-gpio.o)
                0x0000000030001c70                stm32__gpio__configure_io
 .text.stm32__gpio__configure_io__2
                0x0000000030001dec       0x54 /.share/CACHEDEV1_DATA/Ada/STM32/L/L522/test/Ada_Drivers_Library/arch/ARM/STM32/lib/stm32l5nucleo_s/ravenscar-sfp/Debug/libstm32l5xx.a(stm32-gpio.o)
                0x0000000030001dec                stm32__gpio__configure_io__2
 .text.stm32__gpio__configure_alternate_function
                0x0000000030001e40       0xf8 /.share/CACHEDEV1_DATA/Ada/STM32/L/L522/test/Ada_Drivers_Library/arch/ARM/STM32/lib/stm32l5nucleo_s/ravenscar-sfp/Debug/libstm32l5xx.a(stm32-gpio.o)
                0x0000000030001e40                stm32__gpio__configure_alternate_function
 .text.stm32__gpio__interrupt_line_number
                0x0000000030001f38       0x44 /.share/CACHEDEV1_DATA/Ada/STM32/L/L522/test/Ada_Drivers_Library/arch/ARM/STM32/lib/stm32l5nucleo_s/ravenscar-sfp/Debug/libstm32l5xx.a(stm32-gpio.o)
                0x0000000030001f38                stm32__gpio__interrupt_line_number
 .text.stm32__gpio__configure_trigger
                0x0000000030001f7c       0x74 /.share/CACHEDEV1_DATA/Ada/STM32/L/L522/test/Ada_Drivers_Library/arch/ARM/STM32/lib/stm32l5nucleo_s/ravenscar-sfp/Debug/libstm32l5xx.a(stm32-gpio.o)
                0x0000000030001f7c                stm32__gpio__configure_trigger
 .text.stm32__mpu__rlar_overlayIP
                0x0000000030001ff0       0x20 /.share/CACHEDEV1_DATA/Ada/STM32/L/L522/test/Ada_Drivers_Library/arch/ARM/STM32/lib/stm32l5nucleo_s/ravenscar-sfp/Debug/libstm32l5xx.a(stm32-mpu.o)
                0x0000000030001ff0                stm32__mpu__rlar_overlayIP
 .text.stm32__mpu__add_region
                0x0000000030002010       0x90 /.share/CACHEDEV1_DATA/Ada/STM32/L/L522/test/Ada_Drivers_Library/arch/ARM/STM32/lib/stm32l5nucleo_s/ravenscar-sfp/Debug/libstm32l5xx.a(stm32-mpu.o)
                0x0000000030002010                stm32__mpu__add_region
 .text.stm32__mpu__add_attrib
                0x00000000300020a0       0x88 /.share/CACHEDEV1_DATA/Ada/STM32/L/L522/test/Ada_Drivers_Library/arch/ARM/STM32/lib/stm32l5nucleo_s/ravenscar-sfp/Debug/libstm32l5xx.a(stm32-mpu.o)
                0x00000000300020a0                stm32__mpu__add_attrib
 .text.stm32__mpu__enable_mpu
                0x0000000030002128       0x24 /.share/CACHEDEV1_DATA/Ada/STM32/L/L522/test/Ada_Drivers_Library/arch/ARM/STM32/lib/stm32l5nucleo_s/ravenscar-sfp/Debug/libstm32l5xx.a(stm32-mpu.o)
                0x0000000030002128                stm32__mpu__enable_mpu
 .text.stm32__sau__all_ns
                0x000000003000214c       0x28 /.share/CACHEDEV1_DATA/Ada/STM32/L/L522/test/Ada_Drivers_Library/arch/ARM/STM32/lib/stm32l5nucleo_s/ravenscar-sfp/Debug/libstm32l5xx.a(stm32-sau.o)
                0x000000003000214c                stm32__sau__all_ns
 .text.stm32_svd__mpu__mpu_rbar_registerIP
                0x0000000030002174       0x4c /.share/CACHEDEV1_DATA/Ada/STM32/L/L522/test/Ada_Drivers_Library/arch/ARM/STM32/lib/stm32l5nucleo_s/ravenscar-sfp/Debug/libstm32l5xx.a(stm32_svd-mpu.o)
                0x0000000030002174                stm32_svd__mpu__mpu_rbar_registerIP
 .text.stm32_svd__mpu__mpu_rlar_registerIP
                0x00000000300021c0       0x4c /.share/CACHEDEV1_DATA/Ada/STM32/L/L522/test/Ada_Drivers_Library/arch/ARM/STM32/lib/stm32l5nucleo_s/ravenscar-sfp/Debug/libstm32l5xx.a(stm32_svd-mpu.o)
                0x00000000300021c0                stm32_svd__mpu__mpu_rlar_registerIP
 .text.ada__real_time___elabb
                0x000000003000220c        0x4 /.share/CACHEDEV1_DATA/Ada/STM32/L/L522/test/Ada_Drivers_Library/embedded-runtimes/ravenscar-stm32l5nucleo_s/sfp/adalib/libgnarl.a(a-reatim.o)
                0x000000003000220c                ada__real_time___elabb
 .text.system__bb__board_support__timer_interrupt_handler
                0x0000000030002210        0x8 /.share/CACHEDEV1_DATA/Ada/STM32/L/L522/test/Ada_Drivers_Library/embedded-runtimes/ravenscar-stm32l5nucleo_s/sfp/adalib/libgnarl.a(s-bbbosu.o)
                0x0000000030002210                system__bb__board_support__timer_interrupt_handler
 .text.system__bb__board_support__interrupt_handler
                0x0000000030002218        0xc /.share/CACHEDEV1_DATA/Ada/STM32/L/L522/test/Ada_Drivers_Library/embedded-runtimes/ravenscar-stm32l5nucleo_s/sfp/adalib/libgnarl.a(s-bbbosu.o)
                0x0000000030002218                system__bb__board_support__interrupt_handler
 .text.system__bb__board_support__enable_interrupt_request.part.0
                0x0000000030002224       0x1c /.share/CACHEDEV1_DATA/Ada/STM32/L/L522/test/Ada_Drivers_Library/embedded-runtimes/ravenscar-stm32l5nucleo_s/sfp/adalib/libgnarl.a(s-bbbosu.o)
 .text.system__bb__board_support__time__read_clock
                0x0000000030002240       0x48 /.share/CACHEDEV1_DATA/Ada/STM32/L/L522/test/Ada_Drivers_Library/embedded-runtimes/ravenscar-stm32l5nucleo_s/sfp/adalib/libgnarl.a(s-bbbosu.o)
                0x0000000030002240                system__bb__board_support__time__read_clock
 .text.system__bb__board_support__time__set_alarm
                0x0000000030002288       0x8c /.share/CACHEDEV1_DATA/Ada/STM32/L/L522/test/Ada_Drivers_Library/embedded-runtimes/ravenscar-stm32l5nucleo_s/sfp/adalib/libgnarl.a(s-bbbosu.o)
                0x0000000030002288                system__bb__board_support__time__set_alarm
 .text.system__bb__board_support__time__install_alarm_handler
                0x0000000030002314        0xc /.share/CACHEDEV1_DATA/Ada/STM32/L/L522/test/Ada_Drivers_Library/embedded-runtimes/ravenscar-stm32l5nucleo_s/sfp/adalib/libgnarl.a(s-bbbosu.o)
                0x0000000030002314                system__bb__board_support__time__install_alarm_handler
 .text.system__bb__board_support__initialize_board
                0x0000000030002320       0x6c /.share/CACHEDEV1_DATA/Ada/STM32/L/L522/test/Ada_Drivers_Library/embedded-runtimes/ravenscar-stm32l5nucleo_s/sfp/adalib/libgnarl.a(s-bbbosu.o)
                0x0000000030002320                system__bb__board_support__initialize_board
 .text.system__bb__cpu_primitives__gnat_error_handler
                0x000000003000238c      0x1b8 /.share/CACHEDEV1_DATA/Ada/STM32/L/L522/test/Ada_Drivers_Library/embedded-runtimes/ravenscar-stm32l5nucleo_s/sfp/adalib/libgnarl.a(s-bbcppr.o)
                0x000000003000238c                system__bb__cpu_primitives__gnat_error_handler
 .text.__gnat_irq_trap
                0x0000000030002544       0x58 /.share/CACHEDEV1_DATA/Ada/STM32/L/L522/test/Ada_Drivers_Library/embedded-runtimes/ravenscar-stm32l5nucleo_s/sfp/adalib/libgnarl.a(s-bbcppr.o)
                0x0000000030002544                __gnat_irq_trap
 .text.__gnat_sv_call_trap
                0x000000003000259c        0x8 /.share/CACHEDEV1_DATA/Ada/STM32/L/L522/test/Ada_Drivers_Library/embedded-runtimes/ravenscar-stm32l5nucleo_s/sfp/adalib/libgnarl.a(s-bbcppr.o)
                0x000000003000259c                __gnat_sv_call_trap
 .text.__gnat_sys_tick_trap
                0x00000000300025a4       0x80 /.share/CACHEDEV1_DATA/Ada/STM32/L/L522/test/Ada_Drivers_Library/embedded-runtimes/ravenscar-stm32l5nucleo_s/sfp/adalib/libgnarl.a(s-bbcppr.o)
                0x00000000300025a4                __gnat_sys_tick_trap
 .text.system__bb__cpu_primitives__install_trap_handler
                0x0000000030002624        0xc /.share/CACHEDEV1_DATA/Ada/STM32/L/L522/test/Ada_Drivers_Library/embedded-runtimes/ravenscar-stm32l5nucleo_s/sfp/adalib/libgnarl.a(s-bbcppr.o)
                0x0000000030002624                system__bb__cpu_primitives__install_trap_handler
 .text.system__bb__interrupts__interrupt_wrapper
                0x0000000030002630       0xf4 /.share/CACHEDEV1_DATA/Ada/STM32/L/L522/test/Ada_Drivers_Library/embedded-runtimes/ravenscar-stm32l5nucleo_s/sfp/adalib/libgnarl.a(s-bbinte.o)
                0x0000000030002630                system__bb__interrupts__interrupt_wrapper
 .text.system__bb__interrupts__initialize_interrupts
                0x0000000030002724       0x10 /.share/CACHEDEV1_DATA/Ada/STM32/L/L522/test/Ada_Drivers_Library/embedded-runtimes/ravenscar-stm32l5nucleo_s/sfp/adalib/libgnarl.a(s-bbinte.o)
                0x0000000030002724                system__bb__interrupts__initialize_interrupts
 .text.system__bb__threads__queues__change_priority
                0x0000000030002734       0x70 /.share/CACHEDEV1_DATA/Ada/STM32/L/L522/test/Ada_Drivers_Library/embedded-runtimes/ravenscar-stm32l5nucleo_s/sfp/adalib/libgnarl.a(s-bbthqu.o)
                0x0000000030002734                system__bb__threads__queues__change_priority
 .text.system__bb__threads__queues__wakeup_expired_alarms
                0x00000000300027a4       0xf4 /.share/CACHEDEV1_DATA/Ada/STM32/L/L522/test/Ada_Drivers_Library/embedded-runtimes/ravenscar-stm32l5nucleo_s/sfp/adalib/libgnarl.a(s-bbthqu.o)
                0x00000000300027a4                system__bb__threads__queues__wakeup_expired_alarms
 .text.system__bb__time__initialize_timers
                0x0000000030002898       0x94 /.share/CACHEDEV1_DATA/Ada/STM32/L/L522/test/Ada_Drivers_Library/embedded-runtimes/ravenscar-stm32l5nucleo_s/sfp/adalib/libgnarl.a(s-bbtime.o)
                0x0000000030002898                system__bb__time__initialize_timers
 .text.system__bb__time__update_alarm
                0x000000003000292c       0x98 /.share/CACHEDEV1_DATA/Ada/STM32/L/L522/test/Ada_Drivers_Library/embedded-runtimes/ravenscar-stm32l5nucleo_s/sfp/adalib/libgnarl.a(s-bbtime.o)
                0x000000003000292c                system__bb__time__update_alarm
 .text.system__bb__time__alarm_handler
                0x00000000300029c4       0xb8 /.share/CACHEDEV1_DATA/Ada/STM32/L/L522/test/Ada_Drivers_Library/embedded-runtimes/ravenscar-stm32l5nucleo_s/sfp/adalib/libgnarl.a(s-bbtime.o)
 .text.system__bb__cpu_primitives__context_switch_trigger__initialize_context_switch
                0x0000000030002a7c        0x4 /.share/CACHEDEV1_DATA/Ada/STM32/L/L522/test/Ada_Drivers_Library/embedded-runtimes/ravenscar-stm32l5nucleo_s/sfp/adalib/libgnarl.a(s-bcpcst.o)
                0x0000000030002a7c                system__bb__cpu_primitives__context_switch_trigger__initialize_context_switch
 .text.system__bb__cpu_primitives__context_switch_trigger__trigger_context_switch
                0x0000000030002a80       0x10 /.share/CACHEDEV1_DATA/Ada/STM32/L/L522/test/Ada_Drivers_Library/embedded-runtimes/ravenscar-stm32l5nucleo_s/sfp/adalib/libgnarl.a(s-bcpcst.o)
                0x0000000030002a80                system__bb__cpu_primitives__context_switch_trigger__trigger_context_switch
 .text.__gnat_pend_sv_trap
                0x0000000030002a90       0x50 /.share/CACHEDEV1_DATA/Ada/STM32/L/L522/test/Ada_Drivers_Library/embedded-runtimes/ravenscar-stm32l5nucleo_s/sfp/adalib/libgnarl.a(s-bcpcst.o)
                0x0000000030002a90                __gnat_pend_sv_trap
 .text.system__tasking__protected_objects___elabb
                0x0000000030002ae0        0x4 /.share/CACHEDEV1_DATA/Ada/STM32/L/L522/test/Ada_Drivers_Library/embedded-runtimes/ravenscar-stm32l5nucleo_s/sfp/adalib/libgnarl.a(s-taprob.o)
                0x0000000030002ae0                system__tasking__protected_objects___elabb
 .text.system__tasking__restricted__stages__task_wrapper
                0x0000000030002ae4       0xa0 /.share/CACHEDEV1_DATA/Ada/STM32/L/L522/test/Ada_Drivers_Library/embedded-runtimes/ravenscar-stm32l5nucleo_s/sfp/adalib/libgnarl.a(s-tarest.o)
 .text.system__tasking__restricted__stages__activate_tasks
                0x0000000030002b84       0x94 /.share/CACHEDEV1_DATA/Ada/STM32/L/L522/test/Ada_Drivers_Library/embedded-runtimes/ravenscar-stm32l5nucleo_s/sfp/adalib/libgnarl.a(s-tarest.o)
 .text.__gnat_activate_all_tasks
                0x0000000030002c18       0x14 /.share/CACHEDEV1_DATA/Ada/STM32/L/L522/test/Ada_Drivers_Library/embedded-runtimes/ravenscar-stm32l5nucleo_s/sfp/adalib/libgnarl.a(s-tarest.o)
                0x0000000030002c18                __gnat_activate_all_tasks
 .text.system__tasking__restricted__stages___elabb
                0x0000000030002c2c        0x4 /.share/CACHEDEV1_DATA/Ada/STM32/L/L522/test/Ada_Drivers_Library/embedded-runtimes/ravenscar-stm32l5nucleo_s/sfp/adalib/libgnarl.a(s-tarest.o)
                0x0000000030002c2c                system__tasking__restricted__stages___elabb
 .text.system__tasking__initialize_atcb
                0x0000000030002c30       0x30 /.share/CACHEDEV1_DATA/Ada/STM32/L/L522/test/Ada_Drivers_Library/embedded-runtimes/ravenscar-stm32l5nucleo_s/sfp/adalib/libgnarl.a(s-taskin.o)
                0x0000000030002c30                system__tasking__initialize_atcb
 .text.system__tasking__initialize
                0x0000000030002c60      0x174 /.share/CACHEDEV1_DATA/Ada/STM32/L/L522/test/Ada_Drivers_Library/embedded-runtimes/ravenscar-stm32l5nucleo_s/sfp/adalib/libgnarl.a(s-taskin.o)
                0x0000000030002c60                system__tasking__initialize
 .text.system__tasking__protected_objects__multiprocessors__wakeup_served_entry
                0x0000000030002dd4       0x58 /.share/CACHEDEV1_DATA/Ada/STM32/L/L522/test/Ada_Drivers_Library/embedded-runtimes/ravenscar-stm32l5nucleo_s/sfp/adalib/libgnarl.a(s-tpobmu.o)
                0x0000000030002dd4                system__tasking__protected_objects__multiprocessors__wakeup_served_entry
 .text.system__tasking__protected_objects__multiprocessors___elabb
                0x0000000030002e2c       0x20 /.share/CACHEDEV1_DATA/Ada/STM32/L/L522/test/Ada_Drivers_Library/embedded-runtimes/ravenscar-stm32l5nucleo_s/sfp/adalib/libgnarl.a(s-tpobmu.o)
                0x0000000030002e2c                system__tasking__protected_objects__multiprocessors___elabb
 .text.system__bb__protection__leave_kernel
                0x0000000030002e4c       0x58 /.share/CACHEDEV1_DATA/Ada/STM32/L/L522/test/Ada_Drivers_Library/embedded-runtimes/ravenscar-stm32l5nucleo_s/sfp/adalib/libgnarl.a(s-bbprot.o)
                0x0000000030002e4c                system__bb__protection__leave_kernel
 .text.system__bb__threads__initialize
                0x0000000030002ea4      0x14c /.share/CACHEDEV1_DATA/Ada/STM32/L/L522/test/Ada_Drivers_Library/embedded-runtimes/ravenscar-stm32l5nucleo_s/sfp/adalib/libgnarl.a(s-bbthre.o)
                0x0000000030002ea4                system__bb__threads__initialize
 .text.system__bb__threads__sleep
                0x0000000030002ff0       0x48 /.share/CACHEDEV1_DATA/Ada/STM32/L/L522/test/Ada_Drivers_Library/embedded-runtimes/ravenscar-stm32l5nucleo_s/sfp/adalib/libgnarl.a(s-bbthre.o)
                0x0000000030002ff0                system__bb__threads(short, long,...)(...)( *)
 .text.system__bb__threads__thread_create
                0x0000000030003038      0x100 /.share/CACHEDEV1_DATA/Ada/STM32/L/L522/test/Ada_Drivers_Library/embedded-runtimes/ravenscar-stm32l5nucleo_s/sfp/adalib/libgnarl.a(s-bbthre.o)
                0x0000000030003038                system__bb__threads__thread_create
 .text.system__bb__threads__wakeup
                0x0000000030003138       0x94 /.share/CACHEDEV1_DATA/Ada/STM32/L/L522/test/Ada_Drivers_Library/embedded-runtimes/ravenscar-stm32l5nucleo_s/sfp/adalib/libgnarl.a(s-bbthre.o)
                0x0000000030003138                system__bb__threads__wakeup
 .text.system__bb__timing_events__execute_expired_timing_events
                0x00000000300031cc       0x78 /.share/CACHEDEV1_DATA/Ada/STM32/L/L522/test/Ada_Drivers_Library/embedded-runtimes/ravenscar-stm32l5nucleo_s/sfp/adalib/libgnarl.a(s-bbtiev.o)
                0x00000000300031cc                system__bb__timing_events__execute_expired_timing_events
 .text.system__task_primitives__operations__enter_task
                0x0000000030003244       0x3c /.share/CACHEDEV1_DATA/Ada/STM32/L/L522/test/Ada_Drivers_Library/embedded-runtimes/ravenscar-stm32l5nucleo_s/sfp/adalib/libgnarl.a(s-taprop.o)
                0x0000000030003244                system__task_primitives__operations__enter_task
 .text.system__task_primitives__operations__idle
                0x0000000030003280       0x14 /.share/CACHEDEV1_DATA/Ada/STM32/L/L522/test/Ada_Drivers_Library/embedded-runtimes/ravenscar-stm32l5nucleo_s/sfp/adalib/libgnarl.a(s-taprop.o)
                0x0000000030003280                system__task_primitives__operations(int, double, long,...)
 .text.system__task_primitives__operations__initialize_idle
                0x0000000030003294       0x60 /.share/CACHEDEV1_DATA/Ada/STM32/L/L522/test/Ada_Drivers_Library/embedded-runtimes/ravenscar-stm32l5nucleo_s/sfp/adalib/libgnarl.a(s-taprop.o)
                0x0000000030003294                system__task_primitives__operations__initialize_idle
 .text.__gnat_last_chance_handler
                0x00000000300032f4       0x84 /.share/CACHEDEV1_DATA/Ada/STM32/L/L522/test/Ada_Drivers_Library/embedded-runtimes/ravenscar-stm32l5nucleo_s/sfp/adalib/libgnat.a(a-elchha.o)
                0x00000000300032f4                __gnat_last_chance_handler
 .text.gnat__io__put__2
                0x0000000030003378       0x44 /.share/CACHEDEV1_DATA/Ada/STM32/L/L522/test/Ada_Drivers_Library/embedded-runtimes/ravenscar-stm32l5nucleo_s/sfp/adalib/libgnat.a(g-io.o)
                0x0000000030003378                gnat__io__put__2
 .text.gnat__io__new_line
                0x00000000300033bc       0x14 /.share/CACHEDEV1_DATA/Ada/STM32/L/L522/test/Ada_Drivers_Library/embedded-runtimes/ravenscar-stm32l5nucleo_s/sfp/adalib/libgnat.a(g-io.o)
                0x00000000300033bc                gnat__io__new_line
 .text.gnat__io__put__3
                0x00000000300033d0       0x20 /.share/CACHEDEV1_DATA/Ada/STM32/L/L522/test/Ada_Drivers_Library/embedded-runtimes/ravenscar-stm32l5nucleo_s/sfp/adalib/libgnat.a(g-io.o)
                0x00000000300033d0                gnat__io__put__3
 .text.gnat__io__put
                0x00000000300033f0       0x70 /.share/CACHEDEV1_DATA/Ada/STM32/L/L522/test/Ada_Drivers_Library/embedded-runtimes/ravenscar-stm32l5nucleo_s/sfp/adalib/libgnat.a(g-io.o)
                0x00000000300033f0                gnat__io__put
 .text.gnat__io__put_line
                0x0000000030003460       0x10 /.share/CACHEDEV1_DATA/Ada/STM32/L/L522/test/Ada_Drivers_Library/embedded-runtimes/ravenscar-stm32l5nucleo_s/sfp/adalib/libgnat.a(g-io.o)
                0x0000000030003460                gnat__io__put_line
 *fill*         0x0000000030003470      0x190 
 .text          0x0000000030003600      0x1a0 /.share/CACHEDEV1_DATA/Ada/STM32/L/L522/test/Ada_Drivers_Library/embedded-runtimes/ravenscar-stm32l5nucleo_s/sfp/adalib/libgnat.a(handler.o)
                0x0000000030003600                __vectors
 .text.system__assertions__raise_assert_failure
                0x00000000300037a0       0x68 /.share/CACHEDEV1_DATA/Ada/STM32/L/L522/test/Ada_Drivers_Library/embedded-runtimes/ravenscar-stm32l5nucleo_s/sfp/adalib/libgnat.a(s-assert.o)
                0x00000000300037a0                system__assertions__raise_assert_failure
 .text._exit    0x0000000030003808       0x10 /.share/CACHEDEV1_DATA/Ada/STM32/L/L522/test/Ada_Drivers_Library/embedded-runtimes/ravenscar-stm32l5nucleo_s/sfp/adalib/libgnat.a(s-macres.o)
                0x0000000030003808                _exit
 .text.system__machine_reset__stop
                0x0000000030003818       0x10 /.share/CACHEDEV1_DATA/Ada/STM32/L/L522/test/Ada_Drivers_Library/embedded-runtimes/ravenscar-stm32l5nucleo_s/sfp/adalib/libgnat.a(s-macres.o)
                0x0000000030003818                system__machine_reset__stop
 .text.memcpy   0x0000000030003828       0x48 /.share/CACHEDEV1_DATA/Ada/STM32/L/L522/test/Ada_Drivers_Library/embedded-runtimes/ravenscar-stm32l5nucleo_s/sfp/adalib/libgnat.a(s-memcop.o)
                0x0000000030003828                memcpy
 .text.memset   0x0000000030003870       0x50 /.share/CACHEDEV1_DATA/Ada/STM32/L/L522/test/Ada_Drivers_Library/embedded-runtimes/ravenscar-stm32l5nucleo_s/sfp/adalib/libgnat.a(s-memset.o)
                0x0000000030003870                memset
 .text.system__parameters__adjust_storage_size
                0x00000000300038c0        0xc /.share/CACHEDEV1_DATA/Ada/STM32/L/L522/test/Ada_Drivers_Library/embedded-runtimes/ravenscar-stm32l5nucleo_s/sfp/adalib/libgnat.a(s-parame.o)
                0x00000000300038c0                system__parameters__adjust_storage_size
 .text.system__secondary_stack__ss_stackIP
                0x00000000300038cc        0x4 /.share/CACHEDEV1_DATA/Ada/STM32/L/L522/test/Ada_Drivers_Library/embedded-runtimes/ravenscar-stm32l5nucleo_s/sfp/adalib/libgnat.a(s-secsta.o)
                0x00000000300038cc                system__secondary_stack__ss_stackIP
 .text.system__secondary_stack__ss_init
                0x00000000300038d0       0x6c /.share/CACHEDEV1_DATA/Ada/STM32/L/L522/test/Ada_Drivers_Library/embedded-runtimes/ravenscar-stm32l5nucleo_s/sfp/adalib/libgnat.a(s-secsta.o)
                0x00000000300038d0                system__secondary_stack__ss_init
 .text.system__text_io__initialize
                0x000000003000393c        0x4 /.share/CACHEDEV1_DATA/Ada/STM32/L/L522/test/Ada_Drivers_Library/embedded-runtimes/ravenscar-stm32l5nucleo_s/sfp/adalib/libgnat.a(s-textio.o)
                0x000000003000393c                system__text_io__initialize
 .text.system__text_io__is_tx_ready
                0x0000000030003940       0x10 /.share/CACHEDEV1_DATA/Ada/STM32/L/L522/test/Ada_Drivers_Library/embedded-runtimes/ravenscar-stm32l5nucleo_s/sfp/adalib/libgnat.a(s-textio.o)
                0x0000000030003940                system__text_io__is_tx_ready
 .text.system__text_io__put
                0x0000000030003950       0x10 /.share/CACHEDEV1_DATA/Ada/STM32/L/L522/test/Ada_Drivers_Library/embedded-runtimes/ravenscar-stm32l5nucleo_s/sfp/adalib/libgnat.a(s-textio.o)
                0x0000000030003950                system__text_io__put
 .text.system__text_io__use_cr_lf_for_new_line
                0x0000000030003960        0x4 /.share/CACHEDEV1_DATA/Ada/STM32/L/L522/test/Ada_Drivers_Library/embedded-runtimes/ravenscar-stm32l5nucleo_s/sfp/adalib/libgnat.a(s-textio.o)
                0x0000000030003960                system__text_io__use_cr_lf_for_new_line
 .text          0x0000000030003964       0x34 /.share/CACHEDEV1_DATA/Ada/STM32/L/L522/test/Ada_Drivers_Library/embedded-runtimes/ravenscar-stm32l5nucleo_s/sfp/adalib/libgnat.a(start-common.o)
                0x0000000030003964                _stm32_start_common
                0x000000003000397e                is_secure
                0x0000000030003994                secure_code
 *fill*         0x0000000030003998        0x8 
 .text          0x00000000300039a0       0x34 /.share/CACHEDEV1_DATA/Ada/STM32/L/L522/test/Ada_Drivers_Library/embedded-runtimes/ravenscar-stm32l5nucleo_s/sfp/adalib/libgnat.a(start-ram.o)
                0x00000000300039a0                _start_ram
 .text._ada_setup_pll
                0x00000000300039d4      0x154 /.share/CACHEDEV1_DATA/Ada/STM32/L/L522/test/Ada_Drivers_Library/embedded-runtimes/ravenscar-stm32l5nucleo_s/sfp/adalib/libgnat.a(setup_pll.o)
                0x00000000300039d4                _ada_setup_pll
 .text.system__bb__mcu_parameters__pwr_initialize
                0x0000000030003b28        0x4 /.share/CACHEDEV1_DATA/Ada/STM32/L/L522/test/Ada_Drivers_Library/embedded-runtimes/ravenscar-stm32l5nucleo_s/sfp/adalib/libgnat.a(s-bbmcpa.o)
                0x0000000030003b28                system__bb__mcu_parameters__pwr_initialize
 .text          0x0000000030003b2c      0x18c ../../../glue/veneer_s.o
                0x0000000030003b2c                __TZ_set_MSP_NS
                0x0000000030003b44                s_to_ns
                0x0000000030003c0c                init_idau
 .text          0x0000000030003cb8       0x82 ../../../glue/veneer_ns.o
                0x0000000030003cb8                __acle_se_s_from_ns_veneer
 .text          0x0000000030003d3a       0x5c ../../../glue/s_ns.o
                0x0000000030003d3a                __gnu_cmse_nonsecure_call
 *(.gnu.warning)

.glue_7         0x0000000030003d98        0x0
 .glue_7        0x0000000030003d98        0x0 linker stubs

.glue_7t        0x0000000030003d98        0x0
 .glue_7t       0x0000000030003d98        0x0 linker stubs

.vfp11_veneer   0x0000000030003d98        0x0
 .vfp11_veneer  0x0000000030003d98        0x0 linker stubs

.v4_bx          0x0000000030003d98        0x0
 .v4_bx         0x0000000030003d98        0x0 linker stubs

.iplt           0x0000000030003d98        0x0
 .iplt          0x0000000030003d98        0x0 test_s.o

.ARM.extab
 *(.ARM.extab* .gnu.linkonce.armextab.*)
                [!provide]                        PROVIDE (__exidx_start = .)

.ARM.exidx
 *(.ARM.exidx* .gnu.linkonce.armexidx.*)
                [!provide]                        PROVIDE (__exidx_end = .)

.gnu.sgstubs    0x000000003001f000       0x20
                0x000000003001f000                . = ALIGN (0x20)
                0x000000003001f000                _start_sg = .
 *(.gnu.sgstubs*)
                0x000000003001f000                . = ALIGN (0x20)
                0x000000003001f000                _end_sg = .
 .gnu.sgstubs.__stub
                0x000000003001f000        0x8 linker stubs
                0x000000003001f000                s_from_ns_veneer

.rodata         0x0000000030003d98      0x530
 *(.lit)
 *(.rodata .rodata.* .gnu.linkonce.r*)
 .rodata        0x0000000030003d98        0x1 test_s.o
 *fill*         0x0000000030003d99        0x3 
 .rodata        0x0000000030003d9c        0x8 b__test_s.o
 .rodata.__gnat_ada_main_program_name
                0x0000000030003da4        0xc b__test_s.o
                0x0000000030003da4                __gnat_ada_main_program_name
 .rodata        0x0000000030003db0        0xb /.share/CACHEDEV1_DATA/Ada/STM32/L/L522/test/test_s/obj/Debug/ns_api.o
 *fill*         0x0000000030003dbb        0x1 
 .rodata        0x0000000030003dbc        0x8 /.share/CACHEDEV1_DATA/Ada/STM32/L/L522/test/Ada_Drivers_Library/boards/lib/stm32l5nucleo_s/ravenscar-sfp/Debug/libstm32l5nucleo_s.a(stm32-board.o)
 .rodata        0x0000000030003dc4       0x85 /.share/CACHEDEV1_DATA/Ada/STM32/L/L522/test/Ada_Drivers_Library/arch/ARM/STM32/lib/stm32l5nucleo_s/ravenscar-sfp/Debug/libstm32l5xx.a(stm32-device.o)
 *fill*         0x0000000030003e49        0x3 
 .rodata        0x0000000030003e4c        0xf /.share/CACHEDEV1_DATA/Ada/STM32/L/L522/test/Ada_Drivers_Library/arch/ARM/STM32/lib/stm32l5nucleo_s/ravenscar-sfp/Debug/libstm32l5xx.a(stm32-exti.o)
 *fill*         0x0000000030003e5b        0x1 
 .rodata        0x0000000030003e5c      0x130 /.share/CACHEDEV1_DATA/Ada/STM32/L/L522/test/Ada_Drivers_Library/arch/ARM/STM32/lib/stm32l5nucleo_s/ravenscar-sfp/Debug/libstm32l5xx.a(stm32-gpio.o)
 .rodata.stm32__gpio__gpio_pointE70s
                0x0000000030003f8c       0x16 /.share/CACHEDEV1_DATA/Ada/STM32/L/L522/test/Ada_Drivers_Library/arch/ARM/STM32/lib/stm32l5nucleo_s/ravenscar-sfp/Debug/libstm32l5xx.a(stm32-gpio.o)
                0x0000000030003f8c                stm32__gpio__gpio_pointE70s
 *fill*         0x0000000030003fa2        0x2 
 .rodata.stm32__gpio__gpio_pointB74s
                0x0000000030003fa4       0x20 /.share/CACHEDEV1_DATA/Ada/STM32/L/L522/test/Ada_Drivers_Library/arch/ARM/STM32/lib/stm32l5nucleo_s/ravenscar-sfp/Debug/libstm32l5xx.a(stm32-gpio.o)
                0x0000000030003fa4                stm32__gpio__gpio_pointB74s
 .rodata.stm32__gpio__gpio_pointR72s___UNC
                0x0000000030003fc4       0x24 /.share/CACHEDEV1_DATA/Ada/STM32/L/L522/test/Ada_Drivers_Library/arch/ARM/STM32/lib/stm32l5nucleo_s/ravenscar-sfp/Debug/libstm32l5xx.a(stm32-gpio.o)
                0x0000000030003fc4                stm32__gpio__gpio_pointR72s___UNC
 .rodata.stm32__gpio__gpio_pointT
                0x0000000030003fe8       0x48 /.share/CACHEDEV1_DATA/Ada/STM32/L/L522/test/Ada_Drivers_Library/arch/ARM/STM32/lib/stm32l5nucleo_s/ravenscar-sfp/Debug/libstm32l5xx.a(stm32-gpio.o)
                0x0000000030003fe8                stm32__gpio__gpio_pointT
 .rodata        0x0000000030004030        0xe /.share/CACHEDEV1_DATA/Ada/STM32/L/L522/test/Ada_Drivers_Library/arch/ARM/STM32/lib/stm32l5nucleo_s/ravenscar-sfp/Debug/libstm32l5xx.a(stm32-mpu.o)
 *fill*         0x000000003000403e        0x2 
 .rodata.hal__gpio__gpio_pointE15s
                0x0000000030004040       0x14 /.share/CACHEDEV1_DATA/Ada/Ada_Drivers_Library/hal/lib/stm32l5nucleo_s/ravenscar-sfp/Debug/libHAL.a(hal-gpio.o)
                0x0000000030004040                hal__gpio__gpio_pointE15s
 .rodata.hal__gpio__gpio_pointB19s
                0x0000000030004054       0x1c /.share/CACHEDEV1_DATA/Ada/Ada_Drivers_Library/hal/lib/stm32l5nucleo_s/ravenscar-sfp/Debug/libHAL.a(hal-gpio.o)
                0x0000000030004054                hal__gpio__gpio_pointB19s
 .rodata.hal__gpio__gpio_pointT
                0x0000000030004070        0x8 /.share/CACHEDEV1_DATA/Ada/Ada_Drivers_Library/hal/lib/stm32l5nucleo_s/ravenscar-sfp/Debug/libHAL.a(hal-gpio.o)
                0x0000000030004070                hal__gpio__gpio_pointT
 .rodata.system__bb__cpu_primitives__gnat_error_handler.str1.4
                0x0000000030004078      0x16c /.share/CACHEDEV1_DATA/Ada/STM32/L/L522/test/Ada_Drivers_Library/embedded-runtimes/ravenscar-stm32l5nucleo_s/sfp/adalib/libgnarl.a(s-bbcppr.o)
 .rodata        0x00000000300041e4       0x15 /.share/CACHEDEV1_DATA/Ada/STM32/L/L522/test/Ada_Drivers_Library/embedded-runtimes/ravenscar-stm32l5nucleo_s/sfp/adalib/libgnarl.a(s-tarest.o)
 *fill*         0x00000000300041f9        0x3 
 .rodata.system__tasking__initialize.str1.4
                0x00000000300041fc       0x3a /.share/CACHEDEV1_DATA/Ada/STM32/L/L522/test/Ada_Drivers_Library/embedded-runtimes/ravenscar-stm32l5nucleo_s/sfp/adalib/libgnarl.a(s-taskin.o)
 *fill*         0x0000000030004236        0x2 
 .rodata        0x0000000030004238       0x18 /.share/CACHEDEV1_DATA/Ada/STM32/L/L522/test/Ada_Drivers_Library/embedded-runtimes/ravenscar-stm32l5nucleo_s/sfp/adalib/libgnat.a(a-elchha.o)
 .rodata.__gnat_last_chance_handler.str1.4
                0x0000000030004250       0x5c /.share/CACHEDEV1_DATA/Ada/STM32/L/L522/test/Ada_Drivers_Library/embedded-runtimes/ravenscar-stm32l5nucleo_s/sfp/adalib/libgnat.a(a-elchha.o)
                                         0x5a (size before relaxing)
 .rodata.ada__exceptions__empty_c_string___UNC
                0x00000000300042ac        0xc /.share/CACHEDEV1_DATA/Ada/STM32/L/L522/test/Ada_Drivers_Library/embedded-runtimes/ravenscar-stm32l5nucleo_s/sfp/adalib/libgnat.a(a-except.o)
                0x00000000300042ac                ada__exceptions__empty_c_string___UNC
 .rodata        0x00000000300042b8        0xd /.share/CACHEDEV1_DATA/Ada/STM32/L/L522/test/Ada_Drivers_Library/embedded-runtimes/ravenscar-stm32l5nucleo_s/sfp/adalib/libgnat.a(s-secsta.o)
                0x00000000300042c8                . = ALIGN (0x4)
 *fill*         0x00000000300042c5        0x3 

.rel.dyn        0x00000000300042c8        0x0
 .rel.iplt      0x00000000300042c8        0x0 test_s.o

.data           0x00000000300042c8       0x84
                0x00000000300042c8                __data_start = .
 *(.data .data.* .gnu.linkonce.d*)
 .data.ns_api_E
                0x00000000300042c8        0x2 /.share/CACHEDEV1_DATA/Ada/STM32/L/L522/test/test_s/obj/Debug/ns_api.o
                0x00000000300042c8                ns_api_E
 .data.trace_E  0x00000000300042ca        0x2 /.share/CACHEDEV1_DATA/Ada/STM32/L/L522/test/test_s/obj/Debug/trace.o
                0x00000000300042ca                trace_E
 .data.stm32__board_E
                0x00000000300042cc        0x2 /.share/CACHEDEV1_DATA/Ada/STM32/L/L522/test/Ada_Drivers_Library/boards/lib/stm32l5nucleo_s/ravenscar-sfp/Debug/libstm32l5nucleo_s.a(stm32-board.o)
                0x00000000300042cc                stm32__board_E
 .data.stm32__device_E
                0x00000000300042ce        0x2 /.share/CACHEDEV1_DATA/Ada/STM32/L/L522/test/Ada_Drivers_Library/arch/ARM/STM32/lib/stm32l5nucleo_s/ravenscar-sfp/Debug/libstm32l5xx.a(stm32-device.o)
                0x00000000300042ce                stm32__device_E
 .data.stm32__exti_E
                0x00000000300042d0        0x2 /.share/CACHEDEV1_DATA/Ada/STM32/L/L522/test/Ada_Drivers_Library/arch/ARM/STM32/lib/stm32l5nucleo_s/ravenscar-sfp/Debug/libstm32l5xx.a(stm32-exti.o)
                0x00000000300042d0                stm32__exti_E
 .data.stm32__gpio_E
                0x00000000300042d2        0x2 /.share/CACHEDEV1_DATA/Ada/STM32/L/L522/test/Ada_Drivers_Library/arch/ARM/STM32/lib/stm32l5nucleo_s/ravenscar-sfp/Debug/libstm32l5xx.a(stm32-gpio.o)
                0x00000000300042d2                stm32__gpio_E
 .data.stm32__mpu_E
                0x00000000300042d4        0x2 /.share/CACHEDEV1_DATA/Ada/STM32/L/L522/test/Ada_Drivers_Library/arch/ARM/STM32/lib/stm32l5nucleo_s/ravenscar-sfp/Debug/libstm32l5xx.a(stm32-mpu.o)
                0x00000000300042d4                stm32__mpu_E
 .data.stm32__sau_E
                0x00000000300042d6        0x2 /.share/CACHEDEV1_DATA/Ada/STM32/L/L522/test/Ada_Drivers_Library/arch/ARM/STM32/lib/stm32l5nucleo_s/ravenscar-sfp/Debug/libstm32l5xx.a(stm32-sau.o)
                0x00000000300042d6                stm32__sau_E
 .data.ada__real_time_E
                0x00000000300042d8        0x2 /.share/CACHEDEV1_DATA/Ada/STM32/L/L522/test/Ada_Drivers_Library/embedded-runtimes/ravenscar-stm32l5nucleo_s/sfp/adalib/libgnarl.a(a-reatim.o)
                0x00000000300042d8                ada__real_time_E
 .data.system__bb__cpu_primitives__defer_context_switch
                0x00000000300042da        0x1 /.share/CACHEDEV1_DATA/Ada/STM32/L/L522/test/Ada_Drivers_Library/embedded-runtimes/ravenscar-stm32l5nucleo_s/sfp/adalib/libgnarl.a(s-bbcppr.o)
                0x00000000300042da                system__bb__cpu_primitives__defer_context_switch
 *fill*         0x00000000300042db        0x1 
 .data.system__bb__interrupts__interrupt_being_handled
                0x00000000300042dc        0x4 /.share/CACHEDEV1_DATA/Ada/STM32/L/L522/test/Ada_Drivers_Library/embedded-runtimes/ravenscar-stm32l5nucleo_s/sfp/adalib/libgnarl.a(s-bbinte.o)
                0x00000000300042dc                system__bb__interrupts__interrupt_being_handled
 .data.__gnat_running_thread_table
                0x00000000300042e0        0x4 /.share/CACHEDEV1_DATA/Ada/STM32/L/L522/test/Ada_Drivers_Library/embedded-runtimes/ravenscar-stm32l5nucleo_s/sfp/adalib/libgnarl.a(s-bbthqu.o)
                0x00000000300042e0                __gnat_running_thread_table
 .data.first_thread_table
                0x00000000300042e4        0x4 /.share/CACHEDEV1_DATA/Ada/STM32/L/L522/test/Ada_Drivers_Library/embedded-runtimes/ravenscar-stm32l5nucleo_s/sfp/adalib/libgnarl.a(s-bbthqu.o)
                0x00000000300042e4                first_thread_table
 .data.system__bb__threads__queues__alarms_table
                0x00000000300042e8        0x4 /.share/CACHEDEV1_DATA/Ada/STM32/L/L522/test/Ada_Drivers_Library/embedded-runtimes/ravenscar-stm32l5nucleo_s/sfp/adalib/libgnarl.a(s-bbthqu.o)
                0x00000000300042e8                system__bb__threads__queues__alarms_table
 .data.system__bb__threads__queues__global_list
                0x00000000300042ec        0x4 /.share/CACHEDEV1_DATA/Ada/STM32/L/L522/test/Ada_Drivers_Library/embedded-runtimes/ravenscar-stm32l5nucleo_s/sfp/adalib/libgnarl.a(s-bbthqu.o)
                0x00000000300042ec                system__bb__threads__queues__global_list
 .data.system__bb__time__max_sleep
                0x00000000300042f0        0x8 /.share/CACHEDEV1_DATA/Ada/STM32/L/L522/test/Ada_Drivers_Library/embedded-runtimes/ravenscar-stm32l5nucleo_s/sfp/adalib/libgnarl.a(s-bbtime.o)
                0x00000000300042f0                system__bb__time__max_sleep
 .data.system__bb__time__pending_alarm
                0x00000000300042f8        0x8 /.share/CACHEDEV1_DATA/Ada/STM32/L/L522/test/Ada_Drivers_Library/embedded-runtimes/ravenscar-stm32l5nucleo_s/sfp/adalib/libgnarl.a(s-bbtime.o)
                0x00000000300042f8                system__bb__time__pending_alarm
 .data.system__bb__time__scheduling_event_hook
                0x0000000030004300        0x4 /.share/CACHEDEV1_DATA/Ada/STM32/L/L522/test/Ada_Drivers_Library/embedded-runtimes/ravenscar-stm32l5nucleo_s/sfp/adalib/libgnarl.a(s-bbtime.o)
                0x0000000030004300                system__bb__time__scheduling_event_hook
 .data.system__bb__time__software_clock
                0x0000000030004304        0x8 /.share/CACHEDEV1_DATA/Ada/STM32/L/L522/test/Ada_Drivers_Library/embedded-runtimes/ravenscar-stm32l5nucleo_s/sfp/adalib/libgnarl.a(s-bbtime.o)
                0x0000000030004304                system__bb__time__software_clock
 .data.system__tasking__protected_objects_E
                0x000000003000430c        0x2 /.share/CACHEDEV1_DATA/Ada/STM32/L/L522/test/Ada_Drivers_Library/embedded-runtimes/ravenscar-stm32l5nucleo_s/sfp/adalib/libgnarl.a(s-taprob.o)
                0x000000003000430c                system__tasking__protected_objects_E
 .data.__gnat_partition_elaboration_policy
                0x000000003000430e        0x1 /.share/CACHEDEV1_DATA/Ada/STM32/L/L522/test/Ada_Drivers_Library/embedded-runtimes/ravenscar-stm32l5nucleo_s/sfp/adalib/libgnarl.a(s-tarest.o)
                0x000000003000430e                __gnat_partition_elaboration_policy
 *fill*         0x000000003000430f        0x1 
 .data.system__tasking__restricted__stages_E
                0x0000000030004310        0x2 /.share/CACHEDEV1_DATA/Ada/STM32/L/L522/test/Ada_Drivers_Library/embedded-runtimes/ravenscar-stm32l5nucleo_s/sfp/adalib/libgnarl.a(s-tarest.o)
                0x0000000030004310                system__tasking__restricted__stages_E
 *fill*         0x0000000030004312        0x2 
 .data.system__tasking__restricted__stages__tasks_activation_chain
                0x0000000030004314        0x4 /.share/CACHEDEV1_DATA/Ada/STM32/L/L522/test/Ada_Drivers_Library/embedded-runtimes/ravenscar-stm32l5nucleo_s/sfp/adalib/libgnarl.a(s-tarest.o)
 .data.system__tasking__debug__first_task
                0x0000000030004318        0x4 /.share/CACHEDEV1_DATA/Ada/STM32/L/L522/test/Ada_Drivers_Library/embedded-runtimes/ravenscar-stm32l5nucleo_s/sfp/adalib/libgnarl.a(s-tasdeb.o)
                0x0000000030004318                system__tasking__debug__first_task
 .data.system__tasking__debug__last_task
                0x000000003000431c        0x4 /.share/CACHEDEV1_DATA/Ada/STM32/L/L522/test/Ada_Drivers_Library/embedded-runtimes/ravenscar-stm32l5nucleo_s/sfp/adalib/libgnarl.a(s-tasdeb.o)
                0x000000003000431c                system__tasking__debug__last_task
 .data.__gl_main_cpu
                0x0000000030004320        0x4 /.share/CACHEDEV1_DATA/Ada/STM32/L/L522/test/Ada_Drivers_Library/embedded-runtimes/ravenscar-stm32l5nucleo_s/sfp/adalib/libgnarl.a(s-taskin.o)
                0x0000000030004320                __gl_main_cpu
 .data.__gl_main_priority
                0x0000000030004324        0x4 /.share/CACHEDEV1_DATA/Ada/STM32/L/L522/test/Ada_Drivers_Library/embedded-runtimes/ravenscar-stm32l5nucleo_s/sfp/adalib/libgnarl.a(s-taskin.o)
                0x0000000030004324                __gl_main_priority
 .data.system__tasking__fall_back_handler
                0x0000000030004328        0x8 /.share/CACHEDEV1_DATA/Ada/STM32/L/L522/test/Ada_Drivers_Library/embedded-runtimes/ravenscar-stm32l5nucleo_s/sfp/adalib/libgnarl.a(s-taskin.o)
                0x0000000030004328                system__tasking__fall_back_handler
 .data.system__tasking__initialized
                0x0000000030004330        0x1 /.share/CACHEDEV1_DATA/Ada/STM32/L/L522/test/Ada_Drivers_Library/embedded-runtimes/ravenscar-stm32l5nucleo_s/sfp/adalib/libgnarl.a(s-taskin.o)
 *fill*         0x0000000030004331        0x1 
 .data.system__tasking__protected_objects__multiprocessors_E
                0x0000000030004332        0x2 /.share/CACHEDEV1_DATA/Ada/STM32/L/L522/test/Ada_Drivers_Library/embedded-runtimes/ravenscar-stm32l5nucleo_s/sfp/adalib/libgnarl.a(s-tpobmu.o)
                0x0000000030004332                system__tasking__protected_objects__multiprocessors_E
 .data.system__bb__protection__wakeup_served_entry_callback
                0x0000000030004334        0x4 /.share/CACHEDEV1_DATA/Ada/STM32/L/L522/test/Ada_Drivers_Library/embedded-runtimes/ravenscar-stm32l5nucleo_s/sfp/adalib/libgnarl.a(s-bbprot.o)
                0x0000000030004334                system__bb__protection__wakeup_served_entry_callback
 .data.system__bb__threads__initialized
                0x0000000030004338        0x1 /.share/CACHEDEV1_DATA/Ada/STM32/L/L522/test/Ada_Drivers_Library/embedded-runtimes/ravenscar-stm32l5nucleo_s/sfp/adalib/libgnarl.a(s-bbthre.o)
                0x0000000030004338                system__bb__threads__initialized
 *fill*         0x0000000030004339        0x3 
 .data.system__bb__timing_events__events_table
                0x000000003000433c        0x4 /.share/CACHEDEV1_DATA/Ada/STM32/L/L522/test/Ada_Drivers_Library/embedded-runtimes/ravenscar-stm32l5nucleo_s/sfp/adalib/libgnarl.a(s-bbtiev.o)
                0x000000003000433c                system__bb__timing_events__events_table
 .data.system__task_primitives__operations__environment_task
                0x0000000030004340        0x4 /.share/CACHEDEV1_DATA/Ada/STM32/L/L522/test/Ada_Drivers_Library/embedded-runtimes/ravenscar-stm32l5nucleo_s/sfp/adalib/libgnarl.a(s-taprop.o)
                0x0000000030004340                system__task_primitives__operations__environment_task
 .data.system__secondary_stack__num_of_assigned_stacks
                0x0000000030004344        0x4 /.share/CACHEDEV1_DATA/Ada/STM32/L/L522/test/Ada_Drivers_Library/embedded-runtimes/ravenscar-stm32l5nucleo_s/sfp/adalib/libgnat.a(s-secsta.o)
                0x0000000030004344                system__secondary_stack__num_of_assigned_stacks
 .data.system__text_io__initialized
                0x0000000030004348        0x1 /.share/CACHEDEV1_DATA/Ada/STM32/L/L522/test/Ada_Drivers_Library/embedded-runtimes/ravenscar-stm32l5nucleo_s/sfp/adalib/libgnat.a(s-textio.o)
                0x0000000030004348                system__text_io__initialized
                0x000000003000434c                . = ALIGN (0x4)
 *fill*         0x0000000030004349        0x3 
                0x000000003000434c                __data_end = .

.igot.plt       0x000000003000434c        0x0
 .igot.plt      0x000000003000434c        0x0 test_s.o

.bss            0x0000000030004350     0x9970
                0x0000000030004350                . = ALIGN (0x8)
                0x0000000030004350                __bss_start = .
 *(.bss .bss.*)
 .bss.ada_main__sec_default_sized_stacks
                0x0000000030004350      0x210 b__test_s.o
 .bss.ns_api__count
                0x0000000030004560        0x1 /.share/CACHEDEV1_DATA/Ada/STM32/L/L522/test/test_s/obj/Debug/ns_api.o
 *fill*         0x0000000030004561        0x3 
 .bss.stm32__board__S1s
                0x0000000030004564       0x24 /.share/CACHEDEV1_DATA/Ada/STM32/L/L522/test/Ada_Drivers_Library/boards/lib/stm32l5nucleo_s/ravenscar-sfp/Debug/libstm32l5nucleo_s.a(stm32-board.o)
                0x0000000030004564                s::stm32__board(void) static
 .bss.stm32__device__R4s
                0x0000000030004588        0x4 /.share/CACHEDEV1_DATA/Ada/STM32/L/L522/test/Ada_Drivers_Library/arch/ARM/STM32/lib/stm32l5nucleo_s/ravenscar-sfp/Debug/libstm32l5xx.a(stm32-device.o)
                0x0000000030004588                stm32__device__R4s
 .bss.stm32__device__gpio_a
                0x000000003000458c        0x4 /.share/CACHEDEV1_DATA/Ada/STM32/L/L522/test/Ada_Drivers_Library/arch/ARM/STM32/lib/stm32l5nucleo_s/ravenscar-sfp/Debug/libstm32l5xx.a(stm32-device.o)
                0x000000003000458c                stm32__device__gpio_a
 .bss.stm32__device__pa0
                0x0000000030004590        0xc /.share/CACHEDEV1_DATA/Ada/STM32/L/L522/test/Ada_Drivers_Library/arch/ARM/STM32/lib/stm32l5nucleo_s/ravenscar-sfp/Debug/libstm32l5xx.a(stm32-device.o)
                0x0000000030004590                stm32__device__pa0
 .bss.stm32__device__pa1
                0x000000003000459c        0xc /.share/CACHEDEV1_DATA/Ada/STM32/L/L522/test/Ada_Drivers_Library/arch/ARM/STM32/lib/stm32l5nucleo_s/ravenscar-sfp/Debug/libstm32l5xx.a(stm32-device.o)
                0x000000003000459c                stm32__device__pa1
 .bss.stm32__device__pa2
                0x00000000300045a8        0xc /.share/CACHEDEV1_DATA/Ada/STM32/L/L522/test/Ada_Drivers_Library/arch/ARM/STM32/lib/stm32l5nucleo_s/ravenscar-sfp/Debug/libstm32l5xx.a(stm32-device.o)
                0x00000000300045a8                stm32__device__pa2
 .bss.stm32__device__pa3
                0x00000000300045b4        0xc /.share/CACHEDEV1_DATA/Ada/STM32/L/L522/test/Ada_Drivers_Library/arch/ARM/STM32/lib/stm32l5nucleo_s/ravenscar-sfp/Debug/libstm32l5xx.a(stm32-device.o)
                0x00000000300045b4                stm32__device__pa3
 .bss.stm32__device__pa4
                0x00000000300045c0        0xc /.share/CACHEDEV1_DATA/Ada/STM32/L/L522/test/Ada_Drivers_Library/arch/ARM/STM32/lib/stm32l5nucleo_s/ravenscar-sfp/Debug/libstm32l5xx.a(stm32-device.o)
                0x00000000300045c0                stm32__device__pa4
 .bss.stm32__device__pa5
                0x00000000300045cc        0xc /.share/CACHEDEV1_DATA/Ada/STM32/L/L522/test/Ada_Drivers_Library/arch/ARM/STM32/lib/stm32l5nucleo_s/ravenscar-sfp/Debug/libstm32l5xx.a(stm32-device.o)
                0x00000000300045cc                stm32__device__pa5
 .bss.stm32__device__pa6
                0x00000000300045d8        0xc /.share/CACHEDEV1_DATA/Ada/STM32/L/L522/test/Ada_Drivers_Library/arch/ARM/STM32/lib/stm32l5nucleo_s/ravenscar-sfp/Debug/libstm32l5xx.a(stm32-device.o)
                0x00000000300045d8                stm32__device__pa6
 .bss.stm32__device__pa7
                0x00000000300045e4        0xc /.share/CACHEDEV1_DATA/Ada/STM32/L/L522/test/Ada_Drivers_Library/arch/ARM/STM32/lib/stm32l5nucleo_s/ravenscar-sfp/Debug/libstm32l5xx.a(stm32-device.o)
                0x00000000300045e4                stm32__device__pa7
 .bss.stm32__device__pa8
                0x00000000300045f0        0xc /.share/CACHEDEV1_DATA/Ada/STM32/L/L522/test/Ada_Drivers_Library/arch/ARM/STM32/lib/stm32l5nucleo_s/ravenscar-sfp/Debug/libstm32l5xx.a(stm32-device.o)
                0x00000000300045f0                stm32__device__pa8
 .bss.stm32__device__pa9
                0x00000000300045fc        0xc /.share/CACHEDEV1_DATA/Ada/STM32/L/L522/test/Ada_Drivers_Library/arch/ARM/STM32/lib/stm32l5nucleo_s/ravenscar-sfp/Debug/libstm32l5xx.a(stm32-device.o)
                0x00000000300045fc                stm32__device__pa9
 .bss.stm32__device__pa10
                0x0000000030004608        0xc /.share/CACHEDEV1_DATA/Ada/STM32/L/L522/test/Ada_Drivers_Library/arch/ARM/STM32/lib/stm32l5nucleo_s/ravenscar-sfp/Debug/libstm32l5xx.a(stm32-device.o)
                0x0000000030004608                stm32__device__pa10
 .bss.stm32__device__pa11
                0x0000000030004614        0xc /.share/CACHEDEV1_DATA/Ada/STM32/L/L522/test/Ada_Drivers_Library/arch/ARM/STM32/lib/stm32l5nucleo_s/ravenscar-sfp/Debug/libstm32l5xx.a(stm32-device.o)
                0x0000000030004614                stm32__device__pa11
 .bss.stm32__device__pa12
                0x0000000030004620        0xc /.share/CACHEDEV1_DATA/Ada/STM32/L/L522/test/Ada_Drivers_Library/arch/ARM/STM32/lib/stm32l5nucleo_s/ravenscar-sfp/Debug/libstm32l5xx.a(stm32-device.o)
                0x0000000030004620                stm32__device__pa12
 .bss.stm32__device__pa13
                0x000000003000462c        0xc /.share/CACHEDEV1_DATA/Ada/STM32/L/L522/test/Ada_Drivers_Library/arch/ARM/STM32/lib/stm32l5nucleo_s/ravenscar-sfp/Debug/libstm32l5xx.a(stm32-device.o)
                0x000000003000462c                stm32__device__pa13
 .bss.stm32__device__pa14
                0x0000000030004638        0xc /.share/CACHEDEV1_DATA/Ada/STM32/L/L522/test/Ada_Drivers_Library/arch/ARM/STM32/lib/stm32l5nucleo_s/ravenscar-sfp/Debug/libstm32l5xx.a(stm32-device.o)
                0x0000000030004638                stm32__device__pa14
 .bss.stm32__device__pa15
                0x0000000030004644        0xc /.share/CACHEDEV1_DATA/Ada/STM32/L/L522/test/Ada_Drivers_Library/arch/ARM/STM32/lib/stm32l5nucleo_s/ravenscar-sfp/Debug/libstm32l5xx.a(stm32-device.o)
                0x0000000030004644                stm32__device__pa15
 .bss.stm32__device__R39s
                0x0000000030004650        0x4 /.share/CACHEDEV1_DATA/Ada/STM32/L/L522/test/Ada_Drivers_Library/arch/ARM/STM32/lib/stm32l5nucleo_s/ravenscar-sfp/Debug/libstm32l5xx.a(stm32-device.o)
                0x0000000030004650                stm32__device__R39s
 .bss.stm32__device__gpio_b
                0x0000000030004654        0x4 /.share/CACHEDEV1_DATA/Ada/STM32/L/L522/test/Ada_Drivers_Library/arch/ARM/STM32/lib/stm32l5nucleo_s/ravenscar-sfp/Debug/libstm32l5xx.a(stm32-device.o)
                0x0000000030004654                stm32__device__gpio_b
 .bss.stm32__device__pb0
                0x0000000030004658        0xc /.share/CACHEDEV1_DATA/Ada/STM32/L/L522/test/Ada_Drivers_Library/arch/ARM/STM32/lib/stm32l5nucleo_s/ravenscar-sfp/Debug/libstm32l5xx.a(stm32-device.o)
                0x0000000030004658                stm32__device(bool *, )
 .bss.stm32__device__pb1
                0x0000000030004664        0xc /.share/CACHEDEV1_DATA/Ada/STM32/L/L522/test/Ada_Drivers_Library/arch/ARM/STM32/lib/stm32l5nucleo_s/ravenscar-sfp/Debug/libstm32l5xx.a(stm32-device.o)
                0x0000000030004664                stm32__device__pb1
 .bss.stm32__device__pb2
                0x0000000030004670        0xc /.share/CACHEDEV1_DATA/Ada/STM32/L/L522/test/Ada_Drivers_Library/arch/ARM/STM32/lib/stm32l5nucleo_s/ravenscar-sfp/Debug/libstm32l5xx.a(stm32-device.o)
                0x0000000030004670                stm32__device__pb2
 .bss.stm32__device__pb3
                0x000000003000467c        0xc /.share/CACHEDEV1_DATA/Ada/STM32/L/L522/test/Ada_Drivers_Library/arch/ARM/STM32/lib/stm32l5nucleo_s/ravenscar-sfp/Debug/libstm32l5xx.a(stm32-device.o)
                0x000000003000467c                stm32__device__pb3
 .bss.stm32__device__pb4
                0x0000000030004688        0xc /.share/CACHEDEV1_DATA/Ada/STM32/L/L522/test/Ada_Drivers_Library/arch/ARM/STM32/lib/stm32l5nucleo_s/ravenscar-sfp/Debug/libstm32l5xx.a(stm32-device.o)
                0x0000000030004688                stm32__device__pb4
 .bss.stm32__device__pb5
                0x0000000030004694        0xc /.share/CACHEDEV1_DATA/Ada/STM32/L/L522/test/Ada_Drivers_Library/arch/ARM/STM32/lib/stm32l5nucleo_s/ravenscar-sfp/Debug/libstm32l5xx.a(stm32-device.o)
                0x0000000030004694                stm32__device__pb5
 .bss.stm32__device__pb6
                0x00000000300046a0        0xc /.share/CACHEDEV1_DATA/Ada/STM32/L/L522/test/Ada_Drivers_Library/arch/ARM/STM32/lib/stm32l5nucleo_s/ravenscar-sfp/Debug/libstm32l5xx.a(stm32-device.o)
                0x00000000300046a0                stm32__device__pb6
 .bss.stm32__device__pb7
                0x00000000300046ac        0xc /.share/CACHEDEV1_DATA/Ada/STM32/L/L522/test/Ada_Drivers_Library/arch/ARM/STM32/lib/stm32l5nucleo_s/ravenscar-sfp/Debug/libstm32l5xx.a(stm32-device.o)
                0x00000000300046ac                stm32__device__pb7
 .bss.stm32__device__pb8
                0x00000000300046b8        0xc /.share/CACHEDEV1_DATA/Ada/STM32/L/L522/test/Ada_Drivers_Library/arch/ARM/STM32/lib/stm32l5nucleo_s/ravenscar-sfp/Debug/libstm32l5xx.a(stm32-device.o)
                0x00000000300046b8                stm32__device__pb8
 .bss.stm32__device__pb9
                0x00000000300046c4        0xc /.share/CACHEDEV1_DATA/Ada/STM32/L/L522/test/Ada_Drivers_Library/arch/ARM/STM32/lib/stm32l5nucleo_s/ravenscar-sfp/Debug/libstm32l5xx.a(stm32-device.o)
                0x00000000300046c4                stm32__device__pb9
 .bss.stm32__device__pb10
                0x00000000300046d0        0xc /.share/CACHEDEV1_DATA/Ada/STM32/L/L522/test/Ada_Drivers_Library/arch/ARM/STM32/lib/stm32l5nucleo_s/ravenscar-sfp/Debug/libstm32l5xx.a(stm32-device.o)
                0x00000000300046d0                stm32__device__pb10
 .bss.stm32__device__pb11
                0x00000000300046dc        0xc /.share/CACHEDEV1_DATA/Ada/STM32/L/L522/test/Ada_Drivers_Library/arch/ARM/STM32/lib/stm32l5nucleo_s/ravenscar-sfp/Debug/libstm32l5xx.a(stm32-device.o)
                0x00000000300046dc                stm32__device__pb11
 .bss.stm32__device__pb12
                0x00000000300046e8        0xc /.share/CACHEDEV1_DATA/Ada/STM32/L/L522/test/Ada_Drivers_Library/arch/ARM/STM32/lib/stm32l5nucleo_s/ravenscar-sfp/Debug/libstm32l5xx.a(stm32-device.o)
                0x00000000300046e8                stm32__device__pb12
 .bss.stm32__device__pb13
                0x00000000300046f4        0xc /.share/CACHEDEV1_DATA/Ada/STM32/L/L522/test/Ada_Drivers_Library/arch/ARM/STM32/lib/stm32l5nucleo_s/ravenscar-sfp/Debug/libstm32l5xx.a(stm32-device.o)
                0x00000000300046f4                stm32__device__pb13
 .bss.stm32__device__pb14
                0x0000000030004700        0xc /.share/CACHEDEV1_DATA/Ada/STM32/L/L522/test/Ada_Drivers_Library/arch/ARM/STM32/lib/stm32l5nucleo_s/ravenscar-sfp/Debug/libstm32l5xx.a(stm32-device.o)
                0x0000000030004700                stm32__device__pb14
 .bss.stm32__device__pb15
                0x000000003000470c        0xc /.share/CACHEDEV1_DATA/Ada/STM32/L/L522/test/Ada_Drivers_Library/arch/ARM/STM32/lib/stm32l5nucleo_s/ravenscar-sfp/Debug/libstm32l5xx.a(stm32-device.o)
                0x000000003000470c                stm32__device__pb15
 .bss.stm32__device__R74s
                0x0000000030004718        0x4 /.share/CACHEDEV1_DATA/Ada/STM32/L/L522/test/Ada_Drivers_Library/arch/ARM/STM32/lib/stm32l5nucleo_s/ravenscar-sfp/Debug/libstm32l5xx.a(stm32-device.o)
                0x0000000030004718                stm32__device__R74s
 .bss.stm32__device__gpio_c
                0x000000003000471c        0x4 /.share/CACHEDEV1_DATA/Ada/STM32/L/L522/test/Ada_Drivers_Library/arch/ARM/STM32/lib/stm32l5nucleo_s/ravenscar-sfp/Debug/libstm32l5xx.a(stm32-device.o)
                0x000000003000471c                stm32__device__gpio_c
 .bss.stm32__device__pc0
                0x0000000030004720        0xc /.share/CACHEDEV1_DATA/Ada/STM32/L/L522/test/Ada_Drivers_Library/arch/ARM/STM32/lib/stm32l5nucleo_s/ravenscar-sfp/Debug/libstm32l5xx.a(stm32-device.o)
                0x0000000030004720                stm32__device(char *, )
 .bss.stm32__device__pc1
                0x000000003000472c        0xc /.share/CACHEDEV1_DATA/Ada/STM32/L/L522/test/Ada_Drivers_Library/arch/ARM/STM32/lib/stm32l5nucleo_s/ravenscar-sfp/Debug/libstm32l5xx.a(stm32-device.o)
                0x000000003000472c                stm32__device__pc1
 .bss.stm32__device__pc2
                0x0000000030004738        0xc /.share/CACHEDEV1_DATA/Ada/STM32/L/L522/test/Ada_Drivers_Library/arch/ARM/STM32/lib/stm32l5nucleo_s/ravenscar-sfp/Debug/libstm32l5xx.a(stm32-device.o)
                0x0000000030004738                stm32__device__pc2
 .bss.stm32__device__pc3
                0x0000000030004744        0xc /.share/CACHEDEV1_DATA/Ada/STM32/L/L522/test/Ada_Drivers_Library/arch/ARM/STM32/lib/stm32l5nucleo_s/ravenscar-sfp/Debug/libstm32l5xx.a(stm32-device.o)
                0x0000000030004744                stm32__device__pc3
 .bss.stm32__device__pc4
                0x0000000030004750        0xc /.share/CACHEDEV1_DATA/Ada/STM32/L/L522/test/Ada_Drivers_Library/arch/ARM/STM32/lib/stm32l5nucleo_s/ravenscar-sfp/Debug/libstm32l5xx.a(stm32-device.o)
                0x0000000030004750                stm32__device__pc4
 .bss.stm32__device__pc5
                0x000000003000475c        0xc /.share/CACHEDEV1_DATA/Ada/STM32/L/L522/test/Ada_Drivers_Library/arch/ARM/STM32/lib/stm32l5nucleo_s/ravenscar-sfp/Debug/libstm32l5xx.a(stm32-device.o)
                0x000000003000475c                stm32__device__pc5
 .bss.stm32__device__pc6
                0x0000000030004768        0xc /.share/CACHEDEV1_DATA/Ada/STM32/L/L522/test/Ada_Drivers_Library/arch/ARM/STM32/lib/stm32l5nucleo_s/ravenscar-sfp/Debug/libstm32l5xx.a(stm32-device.o)
                0x0000000030004768                stm32__device__pc6
 .bss.stm32__device__pc7
                0x0000000030004774        0xc /.share/CACHEDEV1_DATA/Ada/STM32/L/L522/test/Ada_Drivers_Library/arch/ARM/STM32/lib/stm32l5nucleo_s/ravenscar-sfp/Debug/libstm32l5xx.a(stm32-device.o)
                0x0000000030004774                stm32__device__pc7
 .bss.stm32__device__pc8
                0x0000000030004780        0xc /.share/CACHEDEV1_DATA/Ada/STM32/L/L522/test/Ada_Drivers_Library/arch/ARM/STM32/lib/stm32l5nucleo_s/ravenscar-sfp/Debug/libstm32l5xx.a(stm32-device.o)
                0x0000000030004780                stm32__device__pc8
 .bss.stm32__device__pc9
                0x000000003000478c        0xc /.share/CACHEDEV1_DATA/Ada/STM32/L/L522/test/Ada_Drivers_Library/arch/ARM/STM32/lib/stm32l5nucleo_s/ravenscar-sfp/Debug/libstm32l5xx.a(stm32-device.o)
                0x000000003000478c                stm32__device__pc9
 .bss.stm32__device__pc10
                0x0000000030004798        0xc /.share/CACHEDEV1_DATA/Ada/STM32/L/L522/test/Ada_Drivers_Library/arch/ARM/STM32/lib/stm32l5nucleo_s/ravenscar-sfp/Debug/libstm32l5xx.a(stm32-device.o)
                0x0000000030004798                stm32__device__pc10
 .bss.stm32__device__pc11
                0x00000000300047a4        0xc /.share/CACHEDEV1_DATA/Ada/STM32/L/L522/test/Ada_Drivers_Library/arch/ARM/STM32/lib/stm32l5nucleo_s/ravenscar-sfp/Debug/libstm32l5xx.a(stm32-device.o)
                0x00000000300047a4                stm32__device__pc11
 .bss.stm32__device__pc12
                0x00000000300047b0        0xc /.share/CACHEDEV1_DATA/Ada/STM32/L/L522/test/Ada_Drivers_Library/arch/ARM/STM32/lib/stm32l5nucleo_s/ravenscar-sfp/Debug/libstm32l5xx.a(stm32-device.o)
                0x00000000300047b0                stm32__device__pc12
 .bss.stm32__device__pc13
                0x00000000300047bc        0xc /.share/CACHEDEV1_DATA/Ada/STM32/L/L522/test/Ada_Drivers_Library/arch/ARM/STM32/lib/stm32l5nucleo_s/ravenscar-sfp/Debug/libstm32l5xx.a(stm32-device.o)
                0x00000000300047bc                stm32__device__pc13
 .bss.stm32__device__pc14
                0x00000000300047c8        0xc /.share/CACHEDEV1_DATA/Ada/STM32/L/L522/test/Ada_Drivers_Library/arch/ARM/STM32/lib/stm32l5nucleo_s/ravenscar-sfp/Debug/libstm32l5xx.a(stm32-device.o)
                0x00000000300047c8                stm32__device__pc14
 .bss.stm32__device__pc15
                0x00000000300047d4        0xc /.share/CACHEDEV1_DATA/Ada/STM32/L/L522/test/Ada_Drivers_Library/arch/ARM/STM32/lib/stm32l5nucleo_s/ravenscar-sfp/Debug/libstm32l5xx.a(stm32-device.o)
                0x00000000300047d4                stm32__device__pc15
 .bss.stm32__device__R109s
                0x00000000300047e0        0x4 /.share/CACHEDEV1_DATA/Ada/STM32/L/L522/test/Ada_Drivers_Library/arch/ARM/STM32/lib/stm32l5nucleo_s/ravenscar-sfp/Debug/libstm32l5xx.a(stm32-device.o)
                0x00000000300047e0                stm32__device__R109s
 .bss.stm32__device__gpio_d
                0x00000000300047e4        0x4 /.share/CACHEDEV1_DATA/Ada/STM32/L/L522/test/Ada_Drivers_Library/arch/ARM/STM32/lib/stm32l5nucleo_s/ravenscar-sfp/Debug/libstm32l5xx.a(stm32-device.o)
                0x00000000300047e4                stm32__device__gpio_d
 .bss.stm32__device__pd0
                0x00000000300047e8        0xc /.share/CACHEDEV1_DATA/Ada/STM32/L/L522/test/Ada_Drivers_Library/arch/ARM/STM32/lib/stm32l5nucleo_s/ravenscar-sfp/Debug/libstm32l5xx.a(stm32-device.o)
                0x00000000300047e8                stm32__device(double *, )
 .bss.stm32__device__pd1
                0x00000000300047f4        0xc /.share/CACHEDEV1_DATA/Ada/STM32/L/L522/test/Ada_Drivers_Library/arch/ARM/STM32/lib/stm32l5nucleo_s/ravenscar-sfp/Debug/libstm32l5xx.a(stm32-device.o)
                0x00000000300047f4                stm32__device__pd1
 .bss.stm32__device__pd2
                0x0000000030004800        0xc /.share/CACHEDEV1_DATA/Ada/STM32/L/L522/test/Ada_Drivers_Library/arch/ARM/STM32/lib/stm32l5nucleo_s/ravenscar-sfp/Debug/libstm32l5xx.a(stm32-device.o)
                0x0000000030004800                stm32__device__pd2
 .bss.stm32__device__pd3
                0x000000003000480c        0xc /.share/CACHEDEV1_DATA/Ada/STM32/L/L522/test/Ada_Drivers_Library/arch/ARM/STM32/lib/stm32l5nucleo_s/ravenscar-sfp/Debug/libstm32l5xx.a(stm32-device.o)
                0x000000003000480c                stm32__device__pd3
 .bss.stm32__device__pd4
                0x0000000030004818        0xc /.share/CACHEDEV1_DATA/Ada/STM32/L/L522/test/Ada_Drivers_Library/arch/ARM/STM32/lib/stm32l5nucleo_s/ravenscar-sfp/Debug/libstm32l5xx.a(stm32-device.o)
                0x0000000030004818                stm32__device__pd4
 .bss.stm32__device__pd5
                0x0000000030004824        0xc /.share/CACHEDEV1_DATA/Ada/STM32/L/L522/test/Ada_Drivers_Library/arch/ARM/STM32/lib/stm32l5nucleo_s/ravenscar-sfp/Debug/libstm32l5xx.a(stm32-device.o)
                0x0000000030004824                stm32__device__pd5
 .bss.stm32__device__pd6
                0x0000000030004830        0xc /.share/CACHEDEV1_DATA/Ada/STM32/L/L522/test/Ada_Drivers_Library/arch/ARM/STM32/lib/stm32l5nucleo_s/ravenscar-sfp/Debug/libstm32l5xx.a(stm32-device.o)
                0x0000000030004830                stm32__device__pd6
 .bss.stm32__device__pd7
                0x000000003000483c        0xc /.share/CACHEDEV1_DATA/Ada/STM32/L/L522/test/Ada_Drivers_Library/arch/ARM/STM32/lib/stm32l5nucleo_s/ravenscar-sfp/Debug/libstm32l5xx.a(stm32-device.o)
                0x000000003000483c                stm32__device__pd7
 .bss.stm32__device__pd8
                0x0000000030004848        0xc /.share/CACHEDEV1_DATA/Ada/STM32/L/L522/test/Ada_Drivers_Library/arch/ARM/STM32/lib/stm32l5nucleo_s/ravenscar-sfp/Debug/libstm32l5xx.a(stm32-device.o)
                0x0000000030004848                stm32__device__pd8
 .bss.stm32__device__pd9
                0x0000000030004854        0xc /.share/CACHEDEV1_DATA/Ada/STM32/L/L522/test/Ada_Drivers_Library/arch/ARM/STM32/lib/stm32l5nucleo_s/ravenscar-sfp/Debug/libstm32l5xx.a(stm32-device.o)
                0x0000000030004854                stm32__device__pd9
 .bss.stm32__device__pd10
                0x0000000030004860        0xc /.share/CACHEDEV1_DATA/Ada/STM32/L/L522/test/Ada_Drivers_Library/arch/ARM/STM32/lib/stm32l5nucleo_s/ravenscar-sfp/Debug/libstm32l5xx.a(stm32-device.o)
                0x0000000030004860                stm32__device__pd10
 .bss.stm32__device__pd11
                0x000000003000486c        0xc /.share/CACHEDEV1_DATA/Ada/STM32/L/L522/test/Ada_Drivers_Library/arch/ARM/STM32/lib/stm32l5nucleo_s/ravenscar-sfp/Debug/libstm32l5xx.a(stm32-device.o)
                0x000000003000486c                stm32__device__pd11
 .bss.stm32__device__pd12
                0x0000000030004878        0xc /.share/CACHEDEV1_DATA/Ada/STM32/L/L522/test/Ada_Drivers_Library/arch/ARM/STM32/lib/stm32l5nucleo_s/ravenscar-sfp/Debug/libstm32l5xx.a(stm32-device.o)
                0x0000000030004878                stm32__device__pd12
 .bss.stm32__device__pd13
                0x0000000030004884        0xc /.share/CACHEDEV1_DATA/Ada/STM32/L/L522/test/Ada_Drivers_Library/arch/ARM/STM32/lib/stm32l5nucleo_s/ravenscar-sfp/Debug/libstm32l5xx.a(stm32-device.o)
                0x0000000030004884                stm32__device__pd13
 .bss.stm32__device__pd14
                0x0000000030004890        0xc /.share/CACHEDEV1_DATA/Ada/STM32/L/L522/test/Ada_Drivers_Library/arch/ARM/STM32/lib/stm32l5nucleo_s/ravenscar-sfp/Debug/libstm32l5xx.a(stm32-device.o)
                0x0000000030004890                stm32__device__pd14
 .bss.stm32__device__pd15
                0x000000003000489c        0xc /.share/CACHEDEV1_DATA/Ada/STM32/L/L522/test/Ada_Drivers_Library/arch/ARM/STM32/lib/stm32l5nucleo_s/ravenscar-sfp/Debug/libstm32l5xx.a(stm32-device.o)
                0x000000003000489c                stm32__device__pd15
 .bss.stm32__device__R144s
                0x00000000300048a8        0x4 /.share/CACHEDEV1_DATA/Ada/STM32/L/L522/test/Ada_Drivers_Library/arch/ARM/STM32/lib/stm32l5nucleo_s/ravenscar-sfp/Debug/libstm32l5xx.a(stm32-device.o)
                0x00000000300048a8                stm32__device__R144s
 .bss.stm32__device__gpio_e
                0x00000000300048ac        0x4 /.share/CACHEDEV1_DATA/Ada/STM32/L/L522/test/Ada_Drivers_Library/arch/ARM/STM32/lib/stm32l5nucleo_s/ravenscar-sfp/Debug/libstm32l5xx.a(stm32-device.o)
                0x00000000300048ac                stm32__device__gpio_e
 .bss.stm32__device__pe0
                0x00000000300048b0        0xc /.share/CACHEDEV1_DATA/Ada/STM32/L/L522/test/Ada_Drivers_Library/arch/ARM/STM32/lib/stm32l5nucleo_s/ravenscar-sfp/Debug/libstm32l5xx.a(stm32-device.o)
                0x00000000300048b0                stm32__device__pe0
 .bss.stm32__device__pe1
                0x00000000300048bc        0xc /.share/CACHEDEV1_DATA/Ada/STM32/L/L522/test/Ada_Drivers_Library/arch/ARM/STM32/lib/stm32l5nucleo_s/ravenscar-sfp/Debug/libstm32l5xx.a(stm32-device.o)
                0x00000000300048bc                stm32__device__pe1
 .bss.stm32__device__pe2
                0x00000000300048c8        0xc /.share/CACHEDEV1_DATA/Ada/STM32/L/L522/test/Ada_Drivers_Library/arch/ARM/STM32/lib/stm32l5nucleo_s/ravenscar-sfp/Debug/libstm32l5xx.a(stm32-device.o)
                0x00000000300048c8                stm32__device__pe2
 .bss.stm32__device__pe3
                0x00000000300048d4        0xc /.share/CACHEDEV1_DATA/Ada/STM32/L/L522/test/Ada_Drivers_Library/arch/ARM/STM32/lib/stm32l5nucleo_s/ravenscar-sfp/Debug/libstm32l5xx.a(stm32-device.o)
                0x00000000300048d4                stm32__device__pe3
 .bss.stm32__device__pe4
                0x00000000300048e0        0xc /.share/CACHEDEV1_DATA/Ada/STM32/L/L522/test/Ada_Drivers_Library/arch/ARM/STM32/lib/stm32l5nucleo_s/ravenscar-sfp/Debug/libstm32l5xx.a(stm32-device.o)
                0x00000000300048e0                stm32__device__pe4
 .bss.stm32__device__pe5
                0x00000000300048ec        0xc /.share/CACHEDEV1_DATA/Ada/STM32/L/L522/test/Ada_Drivers_Library/arch/ARM/STM32/lib/stm32l5nucleo_s/ravenscar-sfp/Debug/libstm32l5xx.a(stm32-device.o)
                0x00000000300048ec                stm32__device__pe5
 .bss.stm32__device__pe6
                0x00000000300048f8        0xc /.share/CACHEDEV1_DATA/Ada/STM32/L/L522/test/Ada_Drivers_Library/arch/ARM/STM32/lib/stm32l5nucleo_s/ravenscar-sfp/Debug/libstm32l5xx.a(stm32-device.o)
                0x00000000300048f8                stm32__device__pe6
 .bss.stm32__device__pe7
                0x0000000030004904        0xc /.share/CACHEDEV1_DATA/Ada/STM32/L/L522/test/Ada_Drivers_Library/arch/ARM/STM32/lib/stm32l5nucleo_s/ravenscar-sfp/Debug/libstm32l5xx.a(stm32-device.o)
                0x0000000030004904                stm32__device__pe7
 .bss.stm32__device__pe8
                0x0000000030004910        0xc /.share/CACHEDEV1_DATA/Ada/STM32/L/L522/test/Ada_Drivers_Library/arch/ARM/STM32/lib/stm32l5nucleo_s/ravenscar-sfp/Debug/libstm32l5xx.a(stm32-device.o)
                0x0000000030004910                stm32__device__pe8
 .bss.stm32__device__pe9
                0x000000003000491c        0xc /.share/CACHEDEV1_DATA/Ada/STM32/L/L522/test/Ada_Drivers_Library/arch/ARM/STM32/lib/stm32l5nucleo_s/ravenscar-sfp/Debug/libstm32l5xx.a(stm32-device.o)
                0x000000003000491c                stm32__device__pe9
 .bss.stm32__device__pe10
                0x0000000030004928        0xc /.share/CACHEDEV1_DATA/Ada/STM32/L/L522/test/Ada_Drivers_Library/arch/ARM/STM32/lib/stm32l5nucleo_s/ravenscar-sfp/Debug/libstm32l5xx.a(stm32-device.o)
                0x0000000030004928                stm32__device__pe10
 .bss.stm32__device__pe11
                0x0000000030004934        0xc /.share/CACHEDEV1_DATA/Ada/STM32/L/L522/test/Ada_Drivers_Library/arch/ARM/STM32/lib/stm32l5nucleo_s/ravenscar-sfp/Debug/libstm32l5xx.a(stm32-device.o)
                0x0000000030004934                stm32__device__pe11
 .bss.stm32__device__pe12
                0x0000000030004940        0xc /.share/CACHEDEV1_DATA/Ada/STM32/L/L522/test/Ada_Drivers_Library/arch/ARM/STM32/lib/stm32l5nucleo_s/ravenscar-sfp/Debug/libstm32l5xx.a(stm32-device.o)
                0x0000000030004940                stm32__device__pe12
 .bss.stm32__device__pe13
                0x000000003000494c        0xc /.share/CACHEDEV1_DATA/Ada/STM32/L/L522/test/Ada_Drivers_Library/arch/ARM/STM32/lib/stm32l5nucleo_s/ravenscar-sfp/Debug/libstm32l5xx.a(stm32-device.o)
                0x000000003000494c                stm32__device__pe13
 .bss.stm32__device__pe14
                0x0000000030004958        0xc /.share/CACHEDEV1_DATA/Ada/STM32/L/L522/test/Ada_Drivers_Library/arch/ARM/STM32/lib/stm32l5nucleo_s/ravenscar-sfp/Debug/libstm32l5xx.a(stm32-device.o)
                0x0000000030004958                stm32__device__pe14
 .bss.stm32__device__pe15
                0x0000000030004964        0xc /.share/CACHEDEV1_DATA/Ada/STM32/L/L522/test/Ada_Drivers_Library/arch/ARM/STM32/lib/stm32l5nucleo_s/ravenscar-sfp/Debug/libstm32l5xx.a(stm32-device.o)
                0x0000000030004964                stm32__device__pe15
 .bss.stm32__device__R4b
                0x0000000030004970        0x4 /.share/CACHEDEV1_DATA/Ada/STM32/L/L522/test/Ada_Drivers_Library/arch/ARM/STM32/lib/stm32l5nucleo_s/ravenscar-sfp/Debug/libstm32l5xx.a(stm32-device.o)
                0x0000000030004970                stm32__device__R4b
 .bss.stm32__device__rcc
                0x0000000030004974        0x4 /.share/CACHEDEV1_DATA/Ada/STM32/L/L522/test/Ada_Drivers_Library/arch/ARM/STM32/lib/stm32l5nucleo_s/ravenscar-sfp/Debug/libstm32l5xx.a(stm32-device.o)
                0x0000000030004974                stm32__device(long double, char, char)
 .bss.__gnat_alarm_time
                0x0000000030004978        0x4 /.share/CACHEDEV1_DATA/Ada/STM32/L/L522/test/Ada_Drivers_Library/embedded-runtimes/ravenscar-stm32l5nucleo_s/sfp/adalib/libgnarl.a(s-bbbosu.o)
                0x0000000030004978                __gnat_alarm_time
 .bss.system__bb__board_support__lalarm_time
                0x000000003000497c        0x4 /.share/CACHEDEV1_DATA/Ada/STM32/L/L522/test/Ada_Drivers_Library/embedded-runtimes/ravenscar-stm32l5nucleo_s/sfp/adalib/libgnarl.a(s-bbbosu.o)
                0x000000003000497c                system__bb__board_support__lalarm_time
 .bss.system__bb__board_support__lnow
                0x0000000030004980        0x4 /.share/CACHEDEV1_DATA/Ada/STM32/L/L522/test/Ada_Drivers_Library/embedded-runtimes/ravenscar-stm32l5nucleo_s/sfp/adalib/libgnarl.a(s-bbbosu.o)
                0x0000000030004980                system__bb__board_support__lnow
 .bss.system__bb__board_support__lres
                0x0000000030004984        0x4 /.share/CACHEDEV1_DATA/Ada/STM32/L/L522/test/Ada_Drivers_Library/embedded-runtimes/ravenscar-stm32l5nucleo_s/sfp/adalib/libgnarl.a(s-bbbosu.o)
                0x0000000030004984                system__bb__board_support(long, long double,...)(short)
 .bss.system__bb__board_support__lticks
                0x0000000030004988        0x4 /.share/CACHEDEV1_DATA/Ada/STM32/L/L522/test/Ada_Drivers_Library/embedded-runtimes/ravenscar-stm32l5nucleo_s/sfp/adalib/libgnarl.a(s-bbbosu.o)
                0x0000000030004988                system__bb__board_support__lticks
 .bss.system__bb__board_support__ltil
                0x000000003000498c        0x4 /.share/CACHEDEV1_DATA/Ada/STM32/L/L522/test/Ada_Drivers_Library/embedded-runtimes/ravenscar-stm32l5nucleo_s/sfp/adalib/libgnarl.a(s-bbbosu.o)
                0x000000003000498c                system__bb__board_support__ltil
 .bss.system__bb__board_support__next_tick_time
                0x0000000030004990        0x4 /.share/CACHEDEV1_DATA/Ada/STM32/L/L522/test/Ada_Drivers_Library/embedded-runtimes/ravenscar-stm32l5nucleo_s/sfp/adalib/libgnarl.a(s-bbbosu.o)
                0x0000000030004990                system__bb__board_support__next_tick_time
 .bss.__gnat_bb_exception_handlers
                0x0000000030004994       0x44 /.share/CACHEDEV1_DATA/Ada/STM32/L/L522/test/Ada_Drivers_Library/embedded-runtimes/ravenscar-stm32l5nucleo_s/sfp/adalib/libgnarl.a(s-bbcppr.o)
                0x0000000030004994                __gnat_bb_exception_handlers
 .bss.interrupt_stack_table
                0x00000000300049d8        0x4 /.share/CACHEDEV1_DATA/Ada/STM32/L/L522/test/Ada_Drivers_Library/embedded-runtimes/ravenscar-stm32l5nucleo_s/sfp/adalib/libgnarl.a(s-bbinte.o)
                0x00000000300049d8                interrupt_stack_table
 .bss.system__bb__interrupts__interrupt_handlers_table
                0x00000000300049dc      0x154 /.share/CACHEDEV1_DATA/Ada/STM32/L/L522/test/Ada_Drivers_Library/embedded-runtimes/ravenscar-stm32l5nucleo_s/sfp/adalib/libgnarl.a(s-bbinte.o)
                0x00000000300049dc                system__bb__interrupts__interrupt_handlers_table
 .bss.system__tasking__environment_task
                0x0000000030004b30       0xb8 /.share/CACHEDEV1_DATA/Ada/STM32/L/L522/test/Ada_Drivers_Library/embedded-runtimes/ravenscar-stm32l5nucleo_s/sfp/adalib/libgnarl.a(s-taskin.o)
 .bss.system__tasking__protected_objects__multiprocessors__served_entry_call
                0x0000000030004be8        0x8 /.share/CACHEDEV1_DATA/Ada/STM32/L/L522/test/Ada_Drivers_Library/embedded-runtimes/ravenscar-stm32l5nucleo_s/sfp/adalib/libgnarl.a(s-tpobmu.o)
 .bss.__gnat_idle_stack_table
                0x0000000030004bf0        0x4 /.share/CACHEDEV1_DATA/Ada/STM32/L/L522/test/Ada_Drivers_Library/embedded-runtimes/ravenscar-stm32l5nucleo_s/sfp/adalib/libgnarl.a(s-taprop.o)
                0x0000000030004bf0                __gnat_idle_stack_table
 *fill*         0x0000000030004bf4        0x4 
 .bss.system__task_primitives__operations__idle_stacks
                0x0000000030004bf8      0x800 /.share/CACHEDEV1_DATA/Ada/STM32/L/L522/test/Ada_Drivers_Library/embedded-runtimes/ravenscar-stm32l5nucleo_s/sfp/adalib/libgnarl.a(s-taprop.o)
                0x0000000030004bf8                system__task_primitives__operations__idle_stacks
 .bss.system__task_primitives__operations__idle_tasks
                0x00000000300053f8       0xb8 /.share/CACHEDEV1_DATA/Ada/STM32/L/L522/test/Ada_Drivers_Library/embedded-runtimes/ravenscar-stm32l5nucleo_s/sfp/adalib/libgnarl.a(s-taprop.o)
                0x00000000300053f8                system__task_primitives__operations__idle_tasks
 .bss.__gnat_binder_ss_count
                0x00000000300054b0        0x4 /.share/CACHEDEV1_DATA/Ada/STM32/L/L522/test/Ada_Drivers_Library/embedded-runtimes/ravenscar-stm32l5nucleo_s/sfp/adalib/libgnat.a(s-secsta.o)
                0x00000000300054b0                __gnat_binder_ss_count
 .bss.__gnat_default_ss_pool
                0x00000000300054b4        0x4 /.share/CACHEDEV1_DATA/Ada/STM32/L/L522/test/Ada_Drivers_Library/embedded-runtimes/ravenscar-stm32l5nucleo_s/sfp/adalib/libgnat.a(s-secsta.o)
                0x00000000300054b4                __gnat_default_ss_pool
 .bss.__gnat_default_ss_size
                0x00000000300054b8        0x4 /.share/CACHEDEV1_DATA/Ada/STM32/L/L522/test/Ada_Drivers_Library/embedded-runtimes/ravenscar-stm32l5nucleo_s/sfp/adalib/libgnat.a(s-secsta.o)
                0x00000000300054b8                __gnat_default_ss_size
 *(COMMON)
                0x00000000300054c0                . = ALIGN (0x8)
 *fill*         0x00000000300054bc        0x4 
                0x00000000300054c0                __bss_end = .
                0x00000000300054c0                __interrupt_stack_start = .
 *(.interrupt_stacks)
 .interrupt_stacks
                0x00000000300054c0      0x800 /.share/CACHEDEV1_DATA/Ada/STM32/L/L522/test/Ada_Drivers_Library/embedded-runtimes/ravenscar-stm32l5nucleo_s/sfp/adalib/libgnarl.a(s-bbinte.o)
                0x00000000300054c0                system__bb__interrupts__interrupt_stacks
                0x0000000030005cc0                . = ALIGN (0x8)
                0x0000000030005cc0                __interrupt_stack_end = .
                0x0000000030005cc0                __stack_start = .
                0x0000000030006cc0                . = (. + DEFINED (__stack_size)?__stack_size:_DEFAULT_STACK_SIZE)
 *fill*         0x0000000030005cc0     0x8000 
                0x000000003000dcc0                . = ALIGN (0x8)
                0x000000003000dcc0                __stack_end = .
                0x000000003000dcc0                _end = .
                0x000000003000dcc0                __heap_start = .
                0x0000000030040000                __heap_end = (ORIGIN (sram_bs) + LENGTH (sram_bs))
                0x000000000000045c                __bss_words = ((__bss_end - __bss_start) >> 0x2)

.debug
 *(.debug)

.line
 *(.line)

.debug_srcinfo
 *(.debug_srcinfo)

.debug_sfnames
 *(.debug_sfnames)

.debug_aranges  0x0000000000000000      0xb88
 *(.debug_aranges)
 .debug_aranges
                0x0000000000000000       0x30 test_s.o
 .debug_aranges
                0x0000000000000030       0x30 b__test_s.o
 .debug_aranges
                0x0000000000000060       0x20 /.share/CACHEDEV1_DATA/Ada/STM32/L/L522/test/test_s/obj/Debug/ns_api.o
 .debug_aranges
                0x0000000000000080       0x48 /.share/CACHEDEV1_DATA/Ada/STM32/L/L522/test/test_s/obj/Debug/trace.o
 .debug_aranges
                0x00000000000000c8       0x38 /.share/CACHEDEV1_DATA/Ada/STM32/L/L522/test/Ada_Drivers_Library/boards/lib/stm32l5nucleo_s/ravenscar-sfp/Debug/libstm32l5nucleo_s.a(stm32-board.o)
 .debug_aranges
                0x0000000000000100       0x80 /.share/CACHEDEV1_DATA/Ada/STM32/L/L522/test/Ada_Drivers_Library/arch/ARM/STM32/lib/stm32l5nucleo_s/ravenscar-sfp/Debug/libstm32l5xx.a(stm32-device.o)
 .debug_aranges
                0x0000000000000180       0x50 /.share/CACHEDEV1_DATA/Ada/STM32/L/L522/test/Ada_Drivers_Library/arch/ARM/STM32/lib/stm32l5nucleo_s/ravenscar-sfp/Debug/libstm32l5xx.a(stm32-exti.o)
 .debug_aranges
                0x00000000000001d0       0xe0 /.share/CACHEDEV1_DATA/Ada/STM32/L/L522/test/Ada_Drivers_Library/arch/ARM/STM32/lib/stm32l5nucleo_s/ravenscar-sfp/Debug/libstm32l5xx.a(stm32-gpio.o)
 .debug_aranges
                0x00000000000002b0       0x30 /.share/CACHEDEV1_DATA/Ada/STM32/L/L522/test/Ada_Drivers_Library/arch/ARM/STM32/lib/stm32l5nucleo_s/ravenscar-sfp/Debug/libstm32l5xx.a(stm32-mpu.o)
 .debug_aranges
                0x00000000000002e0       0x30 /.share/CACHEDEV1_DATA/Ada/STM32/L/L522/test/Ada_Drivers_Library/arch/ARM/STM32/lib/stm32l5nucleo_s/ravenscar-sfp/Debug/libstm32l5xx.a(stm32-sau.o)
 .debug_aranges
                0x0000000000000310       0x18 /.share/CACHEDEV1_DATA/Ada/STM32/L/L522/test/Ada_Drivers_Library/arch/ARM/STM32/lib/stm32l5nucleo_s/ravenscar-sfp/Debug/libstm32l5xx.a(stm32_svd-mpu.o)
 .debug_aranges
                0x0000000000000328       0x18 /.share/CACHEDEV1_DATA/Ada/Ada_Drivers_Library/hal/lib/stm32l5nucleo_s/ravenscar-sfp/Debug/libHAL.a(hal-gpio.o)
 .debug_aranges
                0x0000000000000340       0xd8 /.share/CACHEDEV1_DATA/Ada/STM32/L/L522/test/Ada_Drivers_Library/embedded-runtimes/ravenscar-stm32l5nucleo_s/sfp/adalib/libgnarl.a(a-reatim.o)
 .debug_aranges
                0x0000000000000418       0xb0 /.share/CACHEDEV1_DATA/Ada/STM32/L/L522/test/Ada_Drivers_Library/embedded-runtimes/ravenscar-stm32l5nucleo_s/sfp/adalib/libgnarl.a(s-bbbosu.o)
 .debug_aranges
                0x00000000000004c8       0x88 /.share/CACHEDEV1_DATA/Ada/STM32/L/L522/test/Ada_Drivers_Library/embedded-runtimes/ravenscar-stm32l5nucleo_s/sfp/adalib/libgnarl.a(s-bbcppr.o)
 .debug_aranges
                0x0000000000000550       0x40 /.share/CACHEDEV1_DATA/Ada/STM32/L/L522/test/Ada_Drivers_Library/embedded-runtimes/ravenscar-stm32l5nucleo_s/sfp/adalib/libgnarl.a(s-bbinte.o)
 .debug_aranges
                0x0000000000000590       0x78 /.share/CACHEDEV1_DATA/Ada/STM32/L/L522/test/Ada_Drivers_Library/embedded-runtimes/ravenscar-stm32l5nucleo_s/sfp/adalib/libgnarl.a(s-bbthqu.o)
 .debug_aranges
                0x0000000000000608       0x58 /.share/CACHEDEV1_DATA/Ada/STM32/L/L522/test/Ada_Drivers_Library/embedded-runtimes/ravenscar-stm32l5nucleo_s/sfp/adalib/libgnarl.a(s-bbtime.o)
 .debug_aranges
                0x0000000000000660       0x30 /.share/CACHEDEV1_DATA/Ada/STM32/L/L522/test/Ada_Drivers_Library/embedded-runtimes/ravenscar-stm32l5nucleo_s/sfp/adalib/libgnarl.a(s-bcpcst.o)
 .debug_aranges
                0x0000000000000690       0x38 /.share/CACHEDEV1_DATA/Ada/STM32/L/L522/test/Ada_Drivers_Library/embedded-runtimes/ravenscar-stm32l5nucleo_s/sfp/adalib/libgnarl.a(s-taprob.o)
 .debug_aranges
                0x00000000000006c8       0x78 /.share/CACHEDEV1_DATA/Ada/STM32/L/L522/test/Ada_Drivers_Library/embedded-runtimes/ravenscar-stm32l5nucleo_s/sfp/adalib/libgnarl.a(s-tarest.o)
 .debug_aranges
                0x0000000000000740       0x20 /.share/CACHEDEV1_DATA/Ada/STM32/L/L522/test/Ada_Drivers_Library/embedded-runtimes/ravenscar-stm32l5nucleo_s/sfp/adalib/libgnarl.a(s-tasdeb.o)
 .debug_aranges
                0x0000000000000760       0x40 /.share/CACHEDEV1_DATA/Ada/STM32/L/L522/test/Ada_Drivers_Library/embedded-runtimes/ravenscar-stm32l5nucleo_s/sfp/adalib/libgnarl.a(s-taskin.o)
 .debug_aranges
                0x00000000000007a0       0x30 /.share/CACHEDEV1_DATA/Ada/STM32/L/L522/test/Ada_Drivers_Library/embedded-runtimes/ravenscar-stm32l5nucleo_s/sfp/adalib/libgnarl.a(s-tpobmu.o)
 .debug_aranges
                0x00000000000007d0       0x28 /.share/CACHEDEV1_DATA/Ada/STM32/L/L522/test/Ada_Drivers_Library/embedded-runtimes/ravenscar-stm32l5nucleo_s/sfp/adalib/libgnarl.a(s-bbprot.o)
 .debug_aranges
                0x00000000000007f8       0x78 /.share/CACHEDEV1_DATA/Ada/STM32/L/L522/test/Ada_Drivers_Library/embedded-runtimes/ravenscar-stm32l5nucleo_s/sfp/adalib/libgnarl.a(s-bbthre.o)
 .debug_aranges
                0x0000000000000870       0x40 /.share/CACHEDEV1_DATA/Ada/STM32/L/L522/test/Ada_Drivers_Library/embedded-runtimes/ravenscar-stm32l5nucleo_s/sfp/adalib/libgnarl.a(s-bbtiev.o)
 .debug_aranges
                0x00000000000008b0       0xa8 /.share/CACHEDEV1_DATA/Ada/STM32/L/L522/test/Ada_Drivers_Library/embedded-runtimes/ravenscar-stm32l5nucleo_s/sfp/adalib/libgnarl.a(s-taprop.o)
 .debug_aranges
                0x0000000000000958       0x20 /.share/CACHEDEV1_DATA/Ada/STM32/L/L522/test/Ada_Drivers_Library/embedded-runtimes/ravenscar-stm32l5nucleo_s/sfp/adalib/libgnat.a(a-elchha.o)
 .debug_aranges
                0x0000000000000978       0x18 /.share/CACHEDEV1_DATA/Ada/STM32/L/L522/test/Ada_Drivers_Library/embedded-runtimes/ravenscar-stm32l5nucleo_s/sfp/adalib/libgnat.a(a-except.o)
 .debug_aranges
                0x0000000000000990       0x40 /.share/CACHEDEV1_DATA/Ada/STM32/L/L522/test/Ada_Drivers_Library/embedded-runtimes/ravenscar-stm32l5nucleo_s/sfp/adalib/libgnat.a(g-io.o)
 .debug_aranges
                0x00000000000009d0       0x20 /.share/CACHEDEV1_DATA/Ada/STM32/L/L522/test/Ada_Drivers_Library/embedded-runtimes/ravenscar-stm32l5nucleo_s/sfp/adalib/libgnat.a(s-assert.o)
 .debug_aranges
                0x00000000000009f0       0x28 /.share/CACHEDEV1_DATA/Ada/STM32/L/L522/test/Ada_Drivers_Library/embedded-runtimes/ravenscar-stm32l5nucleo_s/sfp/adalib/libgnat.a(s-macres.o)
 .debug_aranges
                0x0000000000000a18       0x20 /.share/CACHEDEV1_DATA/Ada/STM32/L/L522/test/Ada_Drivers_Library/embedded-runtimes/ravenscar-stm32l5nucleo_s/sfp/adalib/libgnat.a(s-memcop.o)
 .debug_aranges
                0x0000000000000a38       0x20 /.share/CACHEDEV1_DATA/Ada/STM32/L/L522/test/Ada_Drivers_Library/embedded-runtimes/ravenscar-stm32l5nucleo_s/sfp/adalib/libgnat.a(s-memset.o)
 .debug_aranges
                0x0000000000000a58       0x20 /.share/CACHEDEV1_DATA/Ada/STM32/L/L522/test/Ada_Drivers_Library/embedded-runtimes/ravenscar-stm32l5nucleo_s/sfp/adalib/libgnat.a(s-parame.o)
 .debug_aranges
                0x0000000000000a78       0x40 /.share/CACHEDEV1_DATA/Ada/STM32/L/L522/test/Ada_Drivers_Library/embedded-runtimes/ravenscar-stm32l5nucleo_s/sfp/adalib/libgnat.a(s-secsta.o)
 .debug_aranges
                0x0000000000000ab8       0x48 /.share/CACHEDEV1_DATA/Ada/STM32/L/L522/test/Ada_Drivers_Library/embedded-runtimes/ravenscar-stm32l5nucleo_s/sfp/adalib/libgnat.a(s-textio.o)
 .debug_aranges
                0x0000000000000b00       0x20 /.share/CACHEDEV1_DATA/Ada/STM32/L/L522/test/Ada_Drivers_Library/embedded-runtimes/ravenscar-stm32l5nucleo_s/sfp/adalib/libgnat.a(setup_pll.o)
 .debug_aranges
                0x0000000000000b20       0x28 /.share/CACHEDEV1_DATA/Ada/STM32/L/L522/test/Ada_Drivers_Library/embedded-runtimes/ravenscar-stm32l5nucleo_s/sfp/adalib/libgnat.a(s-bbmcpa.o)
 .debug_aranges
                0x0000000000000b48       0x20 ../../../glue/veneer_s.o
 .debug_aranges
                0x0000000000000b68       0x20 ../../../glue/s_ns.o

.debug_pubnames
 *(.debug_pubnames)

.debug_info     0x0000000000000000    0x16da2
 *(.debug_info .gnu.linkonce.wi.*)
 .debug_info    0x0000000000000000      0xa35 test_s.o
 .debug_info    0x0000000000000a35      0x4a2 b__test_s.o
 .debug_info    0x0000000000000ed7       0xd1 /.share/CACHEDEV1_DATA/Ada/STM32/L/L522/test/test_s/obj/Debug/ns_api.o
 .debug_info    0x0000000000000fa8     0x18c8 /.share/CACHEDEV1_DATA/Ada/STM32/L/L522/test/test_s/obj/Debug/trace.o
 .debug_info    0x0000000000002870      0xb77 /.share/CACHEDEV1_DATA/Ada/STM32/L/L522/test/Ada_Drivers_Library/boards/lib/stm32l5nucleo_s/ravenscar-sfp/Debug/libstm32l5nucleo_s.a(stm32-board.o)
 .debug_info    0x00000000000033e7     0x5035 /.share/CACHEDEV1_DATA/Ada/STM32/L/L522/test/Ada_Drivers_Library/arch/ARM/STM32/lib/stm32l5nucleo_s/ravenscar-sfp/Debug/libstm32l5xx.a(stm32-device.o)
 .debug_info    0x000000000000841c      0x326 /.share/CACHEDEV1_DATA/Ada/STM32/L/L522/test/Ada_Drivers_Library/arch/ARM/STM32/lib/stm32l5nucleo_s/ravenscar-sfp/Debug/libstm32l5xx.a(stm32-exti.o)
 .debug_info    0x0000000000008742     0x14bb /.share/CACHEDEV1_DATA/Ada/STM32/L/L522/test/Ada_Drivers_Library/arch/ARM/STM32/lib/stm32l5nucleo_s/ravenscar-sfp/Debug/libstm32l5xx.a(stm32-gpio.o)
 .debug_info    0x0000000000009bfd      0x306 /.share/CACHEDEV1_DATA/Ada/STM32/L/L522/test/Ada_Drivers_Library/arch/ARM/STM32/lib/stm32l5nucleo_s/ravenscar-sfp/Debug/libstm32l5xx.a(stm32-mpu.o)
 .debug_info    0x0000000000009f03      0x21b /.share/CACHEDEV1_DATA/Ada/STM32/L/L522/test/Ada_Drivers_Library/arch/ARM/STM32/lib/stm32l5nucleo_s/ravenscar-sfp/Debug/libstm32l5xx.a(stm32-sau.o)
 .debug_info    0x000000000000a11e      0x4f0 /.share/CACHEDEV1_DATA/Ada/STM32/L/L522/test/Ada_Drivers_Library/arch/ARM/STM32/lib/stm32l5nucleo_s/ravenscar-sfp/Debug/libstm32l5xx.a(stm32_svd-mpu.o)
 .debug_info    0x000000000000a60e       0x41 /.share/CACHEDEV1_DATA/Ada/Ada_Drivers_Library/hal/lib/stm32l5nucleo_s/ravenscar-sfp/Debug/libHAL.a(hal-gpio.o)
 .debug_info    0x000000000000a64f     0x1137 /.share/CACHEDEV1_DATA/Ada/STM32/L/L522/test/Ada_Drivers_Library/embedded-runtimes/ravenscar-stm32l5nucleo_s/sfp/adalib/libgnarl.a(a-reatim.o)
 .debug_info    0x000000000000b786      0x87c /.share/CACHEDEV1_DATA/Ada/STM32/L/L522/test/Ada_Drivers_Library/embedded-runtimes/ravenscar-stm32l5nucleo_s/sfp/adalib/libgnarl.a(s-bbbosu.o)
 .debug_info    0x000000000000c002      0xc0a /.share/CACHEDEV1_DATA/Ada/STM32/L/L522/test/Ada_Drivers_Library/embedded-runtimes/ravenscar-stm32l5nucleo_s/sfp/adalib/libgnarl.a(s-bbcppr.o)
 .debug_info    0x000000000000cc0c      0x742 /.share/CACHEDEV1_DATA/Ada/STM32/L/L522/test/Ada_Drivers_Library/embedded-runtimes/ravenscar-stm32l5nucleo_s/sfp/adalib/libgnarl.a(s-bbinte.o)
 .debug_info    0x000000000000d34e      0x6c6 /.share/CACHEDEV1_DATA/Ada/STM32/L/L522/test/Ada_Drivers_Library/embedded-runtimes/ravenscar-stm32l5nucleo_s/sfp/adalib/libgnarl.a(s-bbthqu.o)
 .debug_info    0x000000000000da14      0xdc1 /.share/CACHEDEV1_DATA/Ada/STM32/L/L522/test/Ada_Drivers_Library/embedded-runtimes/ravenscar-stm32l5nucleo_s/sfp/adalib/libgnarl.a(s-bbtime.o)
 .debug_info    0x000000000000e7d5       0xb7 /.share/CACHEDEV1_DATA/Ada/STM32/L/L522/test/Ada_Drivers_Library/embedded-runtimes/ravenscar-stm32l5nucleo_s/sfp/adalib/libgnarl.a(s-bcpcst.o)
 .debug_info    0x000000000000e88c      0xa5e /.share/CACHEDEV1_DATA/Ada/STM32/L/L522/test/Ada_Drivers_Library/embedded-runtimes/ravenscar-stm32l5nucleo_s/sfp/adalib/libgnarl.a(s-taprob.o)
 .debug_info    0x000000000000f2ea     0x1469 /.share/CACHEDEV1_DATA/Ada/STM32/L/L522/test/Ada_Drivers_Library/embedded-runtimes/ravenscar-stm32l5nucleo_s/sfp/adalib/libgnarl.a(s-tarest.o)
 .debug_info    0x0000000000010753      0x65b /.share/CACHEDEV1_DATA/Ada/STM32/L/L522/test/Ada_Drivers_Library/embedded-runtimes/ravenscar-stm32l5nucleo_s/sfp/adalib/libgnarl.a(s-tasdeb.o)
 .debug_info    0x0000000000010dae      0xdd1 /.share/CACHEDEV1_DATA/Ada/STM32/L/L522/test/Ada_Drivers_Library/embedded-runtimes/ravenscar-stm32l5nucleo_s/sfp/adalib/libgnarl.a(s-taskin.o)
 .debug_info    0x0000000000011b7f      0xc52 /.share/CACHEDEV1_DATA/Ada/STM32/L/L522/test/Ada_Drivers_Library/embedded-runtimes/ravenscar-stm32l5nucleo_s/sfp/adalib/libgnarl.a(s-tpobmu.o)
 .debug_info    0x00000000000127d1      0x373 /.share/CACHEDEV1_DATA/Ada/STM32/L/L522/test/Ada_Drivers_Library/embedded-runtimes/ravenscar-stm32l5nucleo_s/sfp/adalib/libgnarl.a(s-bbprot.o)
 .debug_info    0x0000000000012b44      0xbc6 /.share/CACHEDEV1_DATA/Ada/STM32/L/L522/test/Ada_Drivers_Library/embedded-runtimes/ravenscar-stm32l5nucleo_s/sfp/adalib/libgnarl.a(s-bbthre.o)
 .debug_info    0x000000000001370a      0x85e /.share/CACHEDEV1_DATA/Ada/STM32/L/L522/test/Ada_Drivers_Library/embedded-runtimes/ravenscar-stm32l5nucleo_s/sfp/adalib/libgnarl.a(s-bbtiev.o)
 .debug_info    0x0000000000013f68     0x12f1 /.share/CACHEDEV1_DATA/Ada/STM32/L/L522/test/Ada_Drivers_Library/embedded-runtimes/ravenscar-stm32l5nucleo_s/sfp/adalib/libgnarl.a(s-taprop.o)
 .debug_info    0x0000000000015259      0x2be /.share/CACHEDEV1_DATA/Ada/STM32/L/L522/test/Ada_Drivers_Library/embedded-runtimes/ravenscar-stm32l5nucleo_s/sfp/adalib/libgnat.a(a-elchha.o)
 .debug_info    0x0000000000015517      0x157 /.share/CACHEDEV1_DATA/Ada/STM32/L/L522/test/Ada_Drivers_Library/embedded-runtimes/ravenscar-stm32l5nucleo_s/sfp/adalib/libgnat.a(a-except.o)
 .debug_info    0x000000000001566e      0x31f /.share/CACHEDEV1_DATA/Ada/STM32/L/L522/test/Ada_Drivers_Library/embedded-runtimes/ravenscar-stm32l5nucleo_s/sfp/adalib/libgnat.a(g-io.o)
 .debug_info    0x000000000001598d      0x1b8 /.share/CACHEDEV1_DATA/Ada/STM32/L/L522/test/Ada_Drivers_Library/embedded-runtimes/ravenscar-stm32l5nucleo_s/sfp/adalib/libgnat.a(s-assert.o)
 .debug_info    0x0000000000015b45       0xee /.share/CACHEDEV1_DATA/Ada/STM32/L/L522/test/Ada_Drivers_Library/embedded-runtimes/ravenscar-stm32l5nucleo_s/sfp/adalib/libgnat.a(s-macres.o)
 .debug_info    0x0000000000015c33       0xc3 /.share/CACHEDEV1_DATA/Ada/STM32/L/L522/test/Ada_Drivers_Library/embedded-runtimes/ravenscar-stm32l5nucleo_s/sfp/adalib/libgnat.a(s-memcop.o)
 .debug_info    0x0000000000015cf6      0x122 /.share/CACHEDEV1_DATA/Ada/STM32/L/L522/test/Ada_Drivers_Library/embedded-runtimes/ravenscar-stm32l5nucleo_s/sfp/adalib/libgnat.a(s-memset.o)
 .debug_info    0x0000000000015e18      0x13d /.share/CACHEDEV1_DATA/Ada/STM32/L/L522/test/Ada_Drivers_Library/embedded-runtimes/ravenscar-stm32l5nucleo_s/sfp/adalib/libgnat.a(s-parame.o)
 .debug_info    0x0000000000015f55      0x661 /.share/CACHEDEV1_DATA/Ada/STM32/L/L522/test/Ada_Drivers_Library/embedded-runtimes/ravenscar-stm32l5nucleo_s/sfp/adalib/libgnat.a(s-secsta.o)
 .debug_info    0x00000000000165b6      0x140 /.share/CACHEDEV1_DATA/Ada/STM32/L/L522/test/Ada_Drivers_Library/embedded-runtimes/ravenscar-stm32l5nucleo_s/sfp/adalib/libgnat.a(s-textio.o)
 .debug_info    0x00000000000166f6      0x53b /.share/CACHEDEV1_DATA/Ada/STM32/L/L522/test/Ada_Drivers_Library/embedded-runtimes/ravenscar-stm32l5nucleo_s/sfp/adalib/libgnat.a(setup_pll.o)
 .debug_info    0x0000000000016c31       0x60 /.share/CACHEDEV1_DATA/Ada/STM32/L/L522/test/Ada_Drivers_Library/embedded-runtimes/ravenscar-stm32l5nucleo_s/sfp/adalib/libgnat.a(s-bbmcpa.o)
 .debug_info    0x0000000000016c91       0xeb ../../../glue/veneer_s.o
 .debug_info    0x0000000000016d7c       0x26 ../../../glue/s_ns.o

.debug_abbrev   0x0000000000000000     0x618e
 *(.debug_abbrev)
 .debug_abbrev  0x0000000000000000      0x2bb test_s.o
 .debug_abbrev  0x00000000000002bb      0x213 b__test_s.o
 .debug_abbrev  0x00000000000004ce       0x8e /.share/CACHEDEV1_DATA/Ada/STM32/L/L522/test/test_s/obj/Debug/ns_api.o
 .debug_abbrev  0x000000000000055c      0x2d0 /.share/CACHEDEV1_DATA/Ada/STM32/L/L522/test/test_s/obj/Debug/trace.o
 .debug_abbrev  0x000000000000082c      0x2eb /.share/CACHEDEV1_DATA/Ada/STM32/L/L522/test/Ada_Drivers_Library/boards/lib/stm32l5nucleo_s/ravenscar-sfp/Debug/libstm32l5nucleo_s.a(stm32-board.o)
 .debug_abbrev  0x0000000000000b17      0x429 /.share/CACHEDEV1_DATA/Ada/STM32/L/L522/test/Ada_Drivers_Library/arch/ARM/STM32/lib/stm32l5nucleo_s/ravenscar-sfp/Debug/libstm32l5xx.a(stm32-device.o)
 .debug_abbrev  0x0000000000000f40       0xc2 /.share/CACHEDEV1_DATA/Ada/STM32/L/L522/test/Ada_Drivers_Library/arch/ARM/STM32/lib/stm32l5nucleo_s/ravenscar-sfp/Debug/libstm32l5xx.a(stm32-exti.o)
 .debug_abbrev  0x0000000000001002      0x3e0 /.share/CACHEDEV1_DATA/Ada/STM32/L/L522/test/Ada_Drivers_Library/arch/ARM/STM32/lib/stm32l5nucleo_s/ravenscar-sfp/Debug/libstm32l5xx.a(stm32-gpio.o)
 .debug_abbrev  0x00000000000013e2      0x141 /.share/CACHEDEV1_DATA/Ada/STM32/L/L522/test/Ada_Drivers_Library/arch/ARM/STM32/lib/stm32l5nucleo_s/ravenscar-sfp/Debug/libstm32l5xx.a(stm32-mpu.o)
 .debug_abbrev  0x0000000000001523      0x125 /.share/CACHEDEV1_DATA/Ada/STM32/L/L522/test/Ada_Drivers_Library/arch/ARM/STM32/lib/stm32l5nucleo_s/ravenscar-sfp/Debug/libstm32l5xx.a(stm32-sau.o)
 .debug_abbrev  0x0000000000001648      0x11a /.share/CACHEDEV1_DATA/Ada/STM32/L/L522/test/Ada_Drivers_Library/arch/ARM/STM32/lib/stm32l5nucleo_s/ravenscar-sfp/Debug/libstm32l5xx.a(stm32_svd-mpu.o)
 .debug_abbrev  0x0000000000001762       0x28 /.share/CACHEDEV1_DATA/Ada/Ada_Drivers_Library/hal/lib/stm32l5nucleo_s/ravenscar-sfp/Debug/libHAL.a(hal-gpio.o)
 .debug_abbrev  0x000000000000178a      0x34c /.share/CACHEDEV1_DATA/Ada/STM32/L/L522/test/Ada_Drivers_Library/embedded-runtimes/ravenscar-stm32l5nucleo_s/sfp/adalib/libgnarl.a(a-reatim.o)
 .debug_abbrev  0x0000000000001ad6      0x3ad /.share/CACHEDEV1_DATA/Ada/STM32/L/L522/test/Ada_Drivers_Library/embedded-runtimes/ravenscar-stm32l5nucleo_s/sfp/adalib/libgnarl.a(s-bbbosu.o)
 .debug_abbrev  0x0000000000001e83      0x42d /.share/CACHEDEV1_DATA/Ada/STM32/L/L522/test/Ada_Drivers_Library/embedded-runtimes/ravenscar-stm32l5nucleo_s/sfp/adalib/libgnarl.a(s-bbcppr.o)
 .debug_abbrev  0x00000000000022b0      0x397 /.share/CACHEDEV1_DATA/Ada/STM32/L/L522/test/Ada_Drivers_Library/embedded-runtimes/ravenscar-stm32l5nucleo_s/sfp/adalib/libgnarl.a(s-bbinte.o)
 .debug_abbrev  0x0000000000002647      0x375 /.share/CACHEDEV1_DATA/Ada/STM32/L/L522/test/Ada_Drivers_Library/embedded-runtimes/ravenscar-stm32l5nucleo_s/sfp/adalib/libgnarl.a(s-bbthqu.o)
 .debug_abbrev  0x00000000000029bc      0x405 /.share/CACHEDEV1_DATA/Ada/STM32/L/L522/test/Ada_Drivers_Library/embedded-runtimes/ravenscar-stm32l5nucleo_s/sfp/adalib/libgnarl.a(s-bbtime.o)
 .debug_abbrev  0x0000000000002dc1       0x99 /.share/CACHEDEV1_DATA/Ada/STM32/L/L522/test/Ada_Drivers_Library/embedded-runtimes/ravenscar-stm32l5nucleo_s/sfp/adalib/libgnarl.a(s-bcpcst.o)
 .debug_abbrev  0x0000000000002e5a      0x421 /.share/CACHEDEV1_DATA/Ada/STM32/L/L522/test/Ada_Drivers_Library/embedded-runtimes/ravenscar-stm32l5nucleo_s/sfp/adalib/libgnarl.a(s-taprob.o)
 .debug_abbrev  0x000000000000327b      0x5c6 /.share/CACHEDEV1_DATA/Ada/STM32/L/L522/test/Ada_Drivers_Library/embedded-runtimes/ravenscar-stm32l5nucleo_s/sfp/adalib/libgnarl.a(s-tarest.o)
 .debug_abbrev  0x0000000000003841      0x232 /.share/CACHEDEV1_DATA/Ada/STM32/L/L522/test/Ada_Drivers_Library/embedded-runtimes/ravenscar-stm32l5nucleo_s/sfp/adalib/libgnarl.a(s-tasdeb.o)
 .debug_abbrev  0x0000000000003a73      0x4f2 /.share/CACHEDEV1_DATA/Ada/STM32/L/L522/test/Ada_Drivers_Library/embedded-runtimes/ravenscar-stm32l5nucleo_s/sfp/adalib/libgnarl.a(s-taskin.o)
 .debug_abbrev  0x0000000000003f65      0x3d7 /.share/CACHEDEV1_DATA/Ada/STM32/L/L522/test/Ada_Drivers_Library/embedded-runtimes/ravenscar-stm32l5nucleo_s/sfp/adalib/libgnarl.a(s-tpobmu.o)
 .debug_abbrev  0x000000000000433c      0x24a /.share/CACHEDEV1_DATA/Ada/STM32/L/L522/test/Ada_Drivers_Library/embedded-runtimes/ravenscar-stm32l5nucleo_s/sfp/adalib/libgnarl.a(s-bbprot.o)
 .debug_abbrev  0x0000000000004586      0x43a /.share/CACHEDEV1_DATA/Ada/STM32/L/L522/test/Ada_Drivers_Library/embedded-runtimes/ravenscar-stm32l5nucleo_s/sfp/adalib/libgnarl.a(s-bbthre.o)
 .debug_abbrev  0x00000000000049c0      0x35b /.share/CACHEDEV1_DATA/Ada/STM32/L/L522/test/Ada_Drivers_Library/embedded-runtimes/ravenscar-stm32l5nucleo_s/sfp/adalib/libgnarl.a(s-bbtiev.o)
 .debug_abbrev  0x0000000000004d1b      0x5a1 /.share/CACHEDEV1_DATA/Ada/STM32/L/L522/test/Ada_Drivers_Library/embedded-runtimes/ravenscar-stm32l5nucleo_s/sfp/adalib/libgnarl.a(s-taprop.o)
 .debug_abbrev  0x00000000000052bc      0x1a9 /.share/CACHEDEV1_DATA/Ada/STM32/L/L522/test/Ada_Drivers_Library/embedded-runtimes/ravenscar-stm32l5nucleo_s/sfp/adalib/libgnat.a(a-elchha.o)
 .debug_abbrev  0x0000000000005465       0xd3 /.share/CACHEDEV1_DATA/Ada/STM32/L/L522/test/Ada_Drivers_Library/embedded-runtimes/ravenscar-stm32l5nucleo_s/sfp/adalib/libgnat.a(a-except.o)
 .debug_abbrev  0x0000000000005538      0x1f4 /.share/CACHEDEV1_DATA/Ada/STM32/L/L522/test/Ada_Drivers_Library/embedded-runtimes/ravenscar-stm32l5nucleo_s/sfp/adalib/libgnat.a(g-io.o)
 .debug_abbrev  0x000000000000572c      0x118 /.share/CACHEDEV1_DATA/Ada/STM32/L/L522/test/Ada_Drivers_Library/embedded-runtimes/ravenscar-stm32l5nucleo_s/sfp/adalib/libgnat.a(s-assert.o)
 .debug_abbrev  0x0000000000005844       0xff /.share/CACHEDEV1_DATA/Ada/STM32/L/L522/test/Ada_Drivers_Library/embedded-runtimes/ravenscar-stm32l5nucleo_s/sfp/adalib/libgnat.a(s-macres.o)
 .debug_abbrev  0x0000000000005943       0x76 /.share/CACHEDEV1_DATA/Ada/STM32/L/L522/test/Ada_Drivers_Library/embedded-runtimes/ravenscar-stm32l5nucleo_s/sfp/adalib/libgnat.a(s-memcop.o)
 .debug_abbrev  0x00000000000059b9       0xe4 /.share/CACHEDEV1_DATA/Ada/STM32/L/L522/test/Ada_Drivers_Library/embedded-runtimes/ravenscar-stm32l5nucleo_s/sfp/adalib/libgnat.a(s-memset.o)
 .debug_abbrev  0x0000000000005a9d       0x95 /.share/CACHEDEV1_DATA/Ada/STM32/L/L522/test/Ada_Drivers_Library/embedded-runtimes/ravenscar-stm32l5nucleo_s/sfp/adalib/libgnat.a(s-parame.o)
 .debug_abbrev  0x0000000000005b32      0x2e9 /.share/CACHEDEV1_DATA/Ada/STM32/L/L522/test/Ada_Drivers_Library/embedded-runtimes/ravenscar-stm32l5nucleo_s/sfp/adalib/libgnat.a(s-secsta.o)
 .debug_abbrev  0x0000000000005e1b       0x8c /.share/CACHEDEV1_DATA/Ada/STM32/L/L522/test/Ada_Drivers_Library/embedded-runtimes/ravenscar-stm32l5nucleo_s/sfp/adalib/libgnat.a(s-textio.o)
 .debug_abbrev  0x0000000000005ea7      0x18e /.share/CACHEDEV1_DATA/Ada/STM32/L/L522/test/Ada_Drivers_Library/embedded-runtimes/ravenscar-stm32l5nucleo_s/sfp/adalib/libgnat.a(setup_pll.o)
 .debug_abbrev  0x0000000000006035       0x63 /.share/CACHEDEV1_DATA/Ada/STM32/L/L522/test/Ada_Drivers_Library/embedded-runtimes/ravenscar-stm32l5nucleo_s/sfp/adalib/libgnat.a(s-bbmcpa.o)
 .debug_abbrev  0x0000000000006098       0xe2 ../../../glue/veneer_s.o
 .debug_abbrev  0x000000000000617a       0x14 ../../../glue/s_ns.o

.debug_line     0x0000000000000000     0x64ca
 *(.debug_line)
 .debug_line    0x0000000000000000      0x27e test_s.o
 .debug_line    0x000000000000027e      0x14b b__test_s.o
 .debug_line    0x00000000000003c9       0x99 /.share/CACHEDEV1_DATA/Ada/STM32/L/L522/test/test_s/obj/Debug/ns_api.o
 .debug_line    0x0000000000000462      0x2c7 /.share/CACHEDEV1_DATA/Ada/STM32/L/L522/test/test_s/obj/Debug/trace.o
 .debug_line    0x0000000000000729      0x2a4 /.share/CACHEDEV1_DATA/Ada/STM32/L/L522/test/Ada_Drivers_Library/boards/lib/stm32l5nucleo_s/ravenscar-sfp/Debug/libstm32l5nucleo_s.a(stm32-board.o)
 .debug_line    0x00000000000009cd      0x68d /.share/CACHEDEV1_DATA/Ada/STM32/L/L522/test/Ada_Drivers_Library/arch/ARM/STM32/lib/stm32l5nucleo_s/ravenscar-sfp/Debug/libstm32l5xx.a(stm32-device.o)
 .debug_line    0x000000000000105a      0x347 /.share/CACHEDEV1_DATA/Ada/STM32/L/L522/test/Ada_Drivers_Library/arch/ARM/STM32/lib/stm32l5nucleo_s/ravenscar-sfp/Debug/libstm32l5xx.a(stm32-exti.o)
 .debug_line    0x00000000000013a1      0x72e /.share/CACHEDEV1_DATA/Ada/STM32/L/L522/test/Ada_Drivers_Library/arch/ARM/STM32/lib/stm32l5nucleo_s/ravenscar-sfp/Debug/libstm32l5xx.a(stm32-gpio.o)
 .debug_line    0x0000000000001acf      0x1a7 /.share/CACHEDEV1_DATA/Ada/STM32/L/L522/test/Ada_Drivers_Library/arch/ARM/STM32/lib/stm32l5nucleo_s/ravenscar-sfp/Debug/libstm32l5xx.a(stm32-mpu.o)
 .debug_line    0x0000000000001c76      0x18b /.share/CACHEDEV1_DATA/Ada/STM32/L/L522/test/Ada_Drivers_Library/arch/ARM/STM32/lib/stm32l5nucleo_s/ravenscar-sfp/Debug/libstm32l5xx.a(stm32-sau.o)
 .debug_line    0x0000000000001e01      0x158 /.share/CACHEDEV1_DATA/Ada/STM32/L/L522/test/Ada_Drivers_Library/arch/ARM/STM32/lib/stm32l5nucleo_s/ravenscar-sfp/Debug/libstm32l5xx.a(stm32_svd-mpu.o)
 .debug_line    0x0000000000001f59       0x1d /.share/CACHEDEV1_DATA/Ada/Ada_Drivers_Library/hal/lib/stm32l5nucleo_s/ravenscar-sfp/Debug/libHAL.a(hal-gpio.o)
 .debug_line    0x0000000000001f76      0x4ef /.share/CACHEDEV1_DATA/Ada/STM32/L/L522/test/Ada_Drivers_Library/embedded-runtimes/ravenscar-stm32l5nucleo_s/sfp/adalib/libgnarl.a(a-reatim.o)
 .debug_line    0x0000000000002465      0x332 /.share/CACHEDEV1_DATA/Ada/STM32/L/L522/test/Ada_Drivers_Library/embedded-runtimes/ravenscar-stm32l5nucleo_s/sfp/adalib/libgnarl.a(s-bbbosu.o)
 .debug_line    0x0000000000002797      0x3b3 /.share/CACHEDEV1_DATA/Ada/STM32/L/L522/test/Ada_Drivers_Library/embedded-runtimes/ravenscar-stm32l5nucleo_s/sfp/adalib/libgnarl.a(s-bbcppr.o)
 .debug_line    0x0000000000002b4a      0x2b5 /.share/CACHEDEV1_DATA/Ada/STM32/L/L522/test/Ada_Drivers_Library/embedded-runtimes/ravenscar-stm32l5nucleo_s/sfp/adalib/libgnarl.a(s-bbinte.o)
 .debug_line    0x0000000000002dff      0x332 /.share/CACHEDEV1_DATA/Ada/STM32/L/L522/test/Ada_Drivers_Library/embedded-runtimes/ravenscar-stm32l5nucleo_s/sfp/adalib/libgnarl.a(s-bbthqu.o)
 .debug_line    0x0000000000003131      0x4f9 /.share/CACHEDEV1_DATA/Ada/STM32/L/L522/test/Ada_Drivers_Library/embedded-runtimes/ravenscar-stm32l5nucleo_s/sfp/adalib/libgnarl.a(s-bbtime.o)
 .debug_line    0x000000000000362a       0xdd /.share/CACHEDEV1_DATA/Ada/STM32/L/L522/test/Ada_Drivers_Library/embedded-runtimes/ravenscar-stm32l5nucleo_s/sfp/adalib/libgnarl.a(s-bcpcst.o)
 .debug_line    0x0000000000003707      0x30d /.share/CACHEDEV1_DATA/Ada/STM32/L/L522/test/Ada_Drivers_Library/embedded-runtimes/ravenscar-stm32l5nucleo_s/sfp/adalib/libgnarl.a(s-taprob.o)
 .debug_line    0x0000000000003a14      0x4d7 /.share/CACHEDEV1_DATA/Ada/STM32/L/L522/test/Ada_Drivers_Library/embedded-runtimes/ravenscar-stm32l5nucleo_s/sfp/adalib/libgnarl.a(s-tarest.o)
 .debug_line    0x0000000000003eeb      0x1c3 /.share/CACHEDEV1_DATA/Ada/STM32/L/L522/test/Ada_Drivers_Library/embedded-runtimes/ravenscar-stm32l5nucleo_s/sfp/adalib/libgnarl.a(s-tasdeb.o)
 .debug_line    0x00000000000040ae      0x3c0 /.share/CACHEDEV1_DATA/Ada/STM32/L/L522/test/Ada_Drivers_Library/embedded-runtimes/ravenscar-stm32l5nucleo_s/sfp/adalib/libgnarl.a(s-taskin.o)
 .debug_line    0x000000000000446e      0x3e7 /.share/CACHEDEV1_DATA/Ada/STM32/L/L522/test/Ada_Drivers_Library/embedded-runtimes/ravenscar-stm32l5nucleo_s/sfp/adalib/libgnarl.a(s-tpobmu.o)
 .debug_line    0x0000000000004855      0x1c6 /.share/CACHEDEV1_DATA/Ada/STM32/L/L522/test/Ada_Drivers_Library/embedded-runtimes/ravenscar-stm32l5nucleo_s/sfp/adalib/libgnarl.a(s-bbprot.o)
 .debug_line    0x0000000000004a1b      0x55b /.share/CACHEDEV1_DATA/Ada/STM32/L/L522/test/Ada_Drivers_Library/embedded-runtimes/ravenscar-stm32l5nucleo_s/sfp/adalib/libgnarl.a(s-bbthre.o)
 .debug_line    0x0000000000004f76      0x2dd /.share/CACHEDEV1_DATA/Ada/STM32/L/L522/test/Ada_Drivers_Library/embedded-runtimes/ravenscar-stm32l5nucleo_s/sfp/adalib/libgnarl.a(s-bbtiev.o)
 .debug_line    0x0000000000005253      0x57f /.share/CACHEDEV1_DATA/Ada/STM32/L/L522/test/Ada_Drivers_Library/embedded-runtimes/ravenscar-stm32l5nucleo_s/sfp/adalib/libgnarl.a(s-taprop.o)
 .debug_line    0x00000000000057d2       0xfd /.share/CACHEDEV1_DATA/Ada/STM32/L/L522/test/Ada_Drivers_Library/embedded-runtimes/ravenscar-stm32l5nucleo_s/sfp/adalib/libgnat.a(a-elchha.o)
 .debug_line    0x00000000000058cf       0xc1 /.share/CACHEDEV1_DATA/Ada/STM32/L/L522/test/Ada_Drivers_Library/embedded-runtimes/ravenscar-stm32l5nucleo_s/sfp/adalib/libgnat.a(a-except.o)
 .debug_line    0x0000000000005990      0x181 /.share/CACHEDEV1_DATA/Ada/STM32/L/L522/test/Ada_Drivers_Library/embedded-runtimes/ravenscar-stm32l5nucleo_s/sfp/adalib/libgnat.a(g-io.o)
 .debug_line    0x0000000000005b11       0xf0 /.share/CACHEDEV1_DATA/Ada/STM32/L/L522/test/Ada_Drivers_Library/embedded-runtimes/ravenscar-stm32l5nucleo_s/sfp/adalib/libgnat.a(s-assert.o)
 .debug_line    0x0000000000005c01       0xc6 /.share/CACHEDEV1_DATA/Ada/STM32/L/L522/test/Ada_Drivers_Library/embedded-runtimes/ravenscar-stm32l5nucleo_s/sfp/adalib/libgnat.a(s-macres.o)
 .debug_line    0x0000000000005cc7       0xd5 /.share/CACHEDEV1_DATA/Ada/STM32/L/L522/test/Ada_Drivers_Library/embedded-runtimes/ravenscar-stm32l5nucleo_s/sfp/adalib/libgnat.a(s-memcop.o)
 .debug_line    0x0000000000005d9c       0xe4 /.share/CACHEDEV1_DATA/Ada/STM32/L/L522/test/Ada_Drivers_Library/embedded-runtimes/ravenscar-stm32l5nucleo_s/sfp/adalib/libgnat.a(s-memset.o)
 .debug_line    0x0000000000005e80       0xc3 /.share/CACHEDEV1_DATA/Ada/STM32/L/L522/test/Ada_Drivers_Library/embedded-runtimes/ravenscar-stm32l5nucleo_s/sfp/adalib/libgnat.a(s-parame.o)
 .debug_line    0x0000000000005f43      0x176 /.share/CACHEDEV1_DATA/Ada/STM32/L/L522/test/Ada_Drivers_Library/embedded-runtimes/ravenscar-stm32l5nucleo_s/sfp/adalib/libgnat.a(s-secsta.o)
 .debug_line    0x00000000000060b9      0x181 /.share/CACHEDEV1_DATA/Ada/STM32/L/L522/test/Ada_Drivers_Library/embedded-runtimes/ravenscar-stm32l5nucleo_s/sfp/adalib/libgnat.a(s-textio.o)
 .debug_line    0x000000000000623a       0xf2 /.share/CACHEDEV1_DATA/Ada/STM32/L/L522/test/Ada_Drivers_Library/embedded-runtimes/ravenscar-stm32l5nucleo_s/sfp/adalib/libgnat.a(setup_pll.o)
 .debug_line    0x000000000000632c       0xc7 /.share/CACHEDEV1_DATA/Ada/STM32/L/L522/test/Ada_Drivers_Library/embedded-runtimes/ravenscar-stm32l5nucleo_s/sfp/adalib/libgnat.a(s-bbmcpa.o)
 .debug_line    0x00000000000063f3       0x88 ../../../glue/veneer_s.o
 .debug_line    0x000000000000647b       0x4f ../../../glue/s_ns.o

.debug_frame    0x0000000000000000     0x263c
 *(.debug_frame)
 .debug_frame   0x0000000000000000       0x84 test_s.o
 .debug_frame   0x0000000000000084       0x9c b__test_s.o
 .debug_frame   0x0000000000000120       0x34 /.share/CACHEDEV1_DATA/Ada/STM32/L/L522/test/test_s/obj/Debug/ns_api.o
 .debug_frame   0x0000000000000154      0x2d0 /.share/CACHEDEV1_DATA/Ada/STM32/L/L522/test/test_s/obj/Debug/trace.o
 .debug_frame   0x0000000000000424       0x94 /.share/CACHEDEV1_DATA/Ada/STM32/L/L522/test/Ada_Drivers_Library/boards/lib/stm32l5nucleo_s/ravenscar-sfp/Debug/libstm32l5nucleo_s.a(stm32-board.o)
 .debug_frame   0x00000000000004b8      0x21c /.share/CACHEDEV1_DATA/Ada/STM32/L/L522/test/Ada_Drivers_Library/arch/ARM/STM32/lib/stm32l5nucleo_s/ravenscar-sfp/Debug/libstm32l5xx.a(stm32-device.o)
 .debug_frame   0x00000000000006d4      0x110 /.share/CACHEDEV1_DATA/Ada/STM32/L/L522/test/Ada_Drivers_Library/arch/ARM/STM32/lib/stm32l5nucleo_s/ravenscar-sfp/Debug/libstm32l5xx.a(stm32-exti.o)
 .debug_frame   0x00000000000007e4      0x560 /.share/CACHEDEV1_DATA/Ada/STM32/L/L522/test/Ada_Drivers_Library/arch/ARM/STM32/lib/stm32l5nucleo_s/ravenscar-sfp/Debug/libstm32l5xx.a(stm32-gpio.o)
 .debug_frame   0x0000000000000d44       0xec /.share/CACHEDEV1_DATA/Ada/STM32/L/L522/test/Ada_Drivers_Library/arch/ARM/STM32/lib/stm32l5nucleo_s/ravenscar-sfp/Debug/libstm32l5xx.a(stm32-mpu.o)
 .debug_frame   0x0000000000000e30       0xc0 /.share/CACHEDEV1_DATA/Ada/STM32/L/L522/test/Ada_Drivers_Library/arch/ARM/STM32/lib/stm32l5nucleo_s/ravenscar-sfp/Debug/libstm32l5xx.a(stm32-sau.o)
 .debug_frame   0x0000000000000ef0      0x254 /.share/CACHEDEV1_DATA/Ada/STM32/L/L522/test/Ada_Drivers_Library/arch/ARM/STM32/lib/stm32l5nucleo_s/ravenscar-sfp/Debug/libstm32l5xx.a(stm32_svd-mpu.o)
 .debug_frame   0x0000000000001144      0x2bc /.share/CACHEDEV1_DATA/Ada/STM32/L/L522/test/Ada_Drivers_Library/embedded-runtimes/ravenscar-stm32l5nucleo_s/sfp/adalib/libgnarl.a(a-reatim.o)
 .debug_frame   0x0000000000001400      0x190 /.share/CACHEDEV1_DATA/Ada/STM32/L/L522/test/Ada_Drivers_Library/embedded-runtimes/ravenscar-stm32l5nucleo_s/sfp/adalib/libgnarl.a(s-bbbosu.o)
 .debug_frame   0x0000000000001590      0x16c /.share/CACHEDEV1_DATA/Ada/STM32/L/L522/test/Ada_Drivers_Library/embedded-runtimes/ravenscar-stm32l5nucleo_s/sfp/adalib/libgnarl.a(s-bbcppr.o)
 .debug_frame   0x00000000000016fc       0xa4 /.share/CACHEDEV1_DATA/Ada/STM32/L/L522/test/Ada_Drivers_Library/embedded-runtimes/ravenscar-stm32l5nucleo_s/sfp/adalib/libgnarl.a(s-bbinte.o)
 .debug_frame   0x00000000000017a0      0x178 /.share/CACHEDEV1_DATA/Ada/STM32/L/L522/test/Ada_Drivers_Library/embedded-runtimes/ravenscar-stm32l5nucleo_s/sfp/adalib/libgnarl.a(s-bbthqu.o)
 .debug_frame   0x0000000000001918      0x158 /.share/CACHEDEV1_DATA/Ada/STM32/L/L522/test/Ada_Drivers_Library/embedded-runtimes/ravenscar-stm32l5nucleo_s/sfp/adalib/libgnarl.a(s-bbtime.o)
 .debug_frame   0x0000000000001a70       0x40 /.share/CACHEDEV1_DATA/Ada/STM32/L/L522/test/Ada_Drivers_Library/embedded-runtimes/ravenscar-stm32l5nucleo_s/sfp/adalib/libgnarl.a(s-bcpcst.o)
 .debug_frame   0x0000000000001ab0       0x78 /.share/CACHEDEV1_DATA/Ada/STM32/L/L522/test/Ada_Drivers_Library/embedded-runtimes/ravenscar-stm32l5nucleo_s/sfp/adalib/libgnarl.a(s-taprob.o)
 .debug_frame   0x0000000000001b28      0x188 /.share/CACHEDEV1_DATA/Ada/STM32/L/L522/test/Ada_Drivers_Library/embedded-runtimes/ravenscar-stm32l5nucleo_s/sfp/adalib/libgnarl.a(s-tarest.o)
 .debug_frame   0x0000000000001cb0       0x38 /.share/CACHEDEV1_DATA/Ada/STM32/L/L522/test/Ada_Drivers_Library/embedded-runtimes/ravenscar-stm32l5nucleo_s/sfp/adalib/libgnarl.a(s-tasdeb.o)
 .debug_frame   0x0000000000001ce8       0xcc /.share/CACHEDEV1_DATA/Ada/STM32/L/L522/test/Ada_Drivers_Library/embedded-runtimes/ravenscar-stm32l5nucleo_s/sfp/adalib/libgnarl.a(s-taskin.o)
 .debug_frame   0x0000000000001db4       0x74 /.share/CACHEDEV1_DATA/Ada/STM32/L/L522/test/Ada_Drivers_Library/embedded-runtimes/ravenscar-stm32l5nucleo_s/sfp/adalib/libgnarl.a(s-tpobmu.o)
 .debug_frame   0x0000000000001e28       0x38 /.share/CACHEDEV1_DATA/Ada/STM32/L/L522/test/Ada_Drivers_Library/embedded-runtimes/ravenscar-stm32l5nucleo_s/sfp/adalib/libgnarl.a(s-bbprot.o)
 .debug_frame   0x0000000000001e60      0x158 /.share/CACHEDEV1_DATA/Ada/STM32/L/L522/test/Ada_Drivers_Library/embedded-runtimes/ravenscar-stm32l5nucleo_s/sfp/adalib/libgnarl.a(s-bbthre.o)
 .debug_frame   0x0000000000001fb8       0xd0 /.share/CACHEDEV1_DATA/Ada/STM32/L/L522/test/Ada_Drivers_Library/embedded-runtimes/ravenscar-stm32l5nucleo_s/sfp/adalib/libgnarl.a(s-bbtiev.o)
 .debug_frame   0x0000000000002088      0x1ec /.share/CACHEDEV1_DATA/Ada/STM32/L/L522/test/Ada_Drivers_Library/embedded-runtimes/ravenscar-stm32l5nucleo_s/sfp/adalib/libgnarl.a(s-taprop.o)
 .debug_frame   0x0000000000002274       0x28 /.share/CACHEDEV1_DATA/Ada/STM32/L/L522/test/Ada_Drivers_Library/embedded-runtimes/ravenscar-stm32l5nucleo_s/sfp/adalib/libgnat.a(a-elchha.o)
 .debug_frame   0x000000000000229c       0xa8 /.share/CACHEDEV1_DATA/Ada/STM32/L/L522/test/Ada_Drivers_Library/embedded-runtimes/ravenscar-stm32l5nucleo_s/sfp/adalib/libgnat.a(g-io.o)
 .debug_frame   0x0000000000002344       0x2c /.share/CACHEDEV1_DATA/Ada/STM32/L/L522/test/Ada_Drivers_Library/embedded-runtimes/ravenscar-stm32l5nucleo_s/sfp/adalib/libgnat.a(s-assert.o)
 .debug_frame   0x0000000000002370       0x40 /.share/CACHEDEV1_DATA/Ada/STM32/L/L522/test/Ada_Drivers_Library/embedded-runtimes/ravenscar-stm32l5nucleo_s/sfp/adalib/libgnat.a(s-macres.o)
 .debug_frame   0x00000000000023b0       0x34 /.share/CACHEDEV1_DATA/Ada/STM32/L/L522/test/Ada_Drivers_Library/embedded-runtimes/ravenscar-stm32l5nucleo_s/sfp/adalib/libgnat.a(s-memcop.o)
 .debug_frame   0x00000000000023e4       0x30 /.share/CACHEDEV1_DATA/Ada/STM32/L/L522/test/Ada_Drivers_Library/embedded-runtimes/ravenscar-stm32l5nucleo_s/sfp/adalib/libgnat.a(s-memset.o)
 .debug_frame   0x0000000000002414       0x20 /.share/CACHEDEV1_DATA/Ada/STM32/L/L522/test/Ada_Drivers_Library/embedded-runtimes/ravenscar-stm32l5nucleo_s/sfp/adalib/libgnat.a(s-parame.o)
 .debug_frame   0x0000000000002434       0xa8 /.share/CACHEDEV1_DATA/Ada/STM32/L/L522/test/Ada_Drivers_Library/embedded-runtimes/ravenscar-stm32l5nucleo_s/sfp/adalib/libgnat.a(s-secsta.o)
 .debug_frame   0x00000000000024dc       0x70 /.share/CACHEDEV1_DATA/Ada/STM32/L/L522/test/Ada_Drivers_Library/embedded-runtimes/ravenscar-stm32l5nucleo_s/sfp/adalib/libgnat.a(s-textio.o)
 .debug_frame   0x000000000000254c       0x2c /.share/CACHEDEV1_DATA/Ada/STM32/L/L522/test/Ada_Drivers_Library/embedded-runtimes/ravenscar-stm32l5nucleo_s/sfp/adalib/libgnat.a(setup_pll.o)
 .debug_frame   0x0000000000002578       0x40 /.share/CACHEDEV1_DATA/Ada/STM32/L/L522/test/Ada_Drivers_Library/embedded-runtimes/ravenscar-stm32l5nucleo_s/sfp/adalib/libgnat.a(s-bbmcpa.o)
 .debug_frame   0x00000000000025b8       0x84 ../../../glue/veneer_s.o

.debug_str      0x0000000000000000     0xe575
 *(.debug_str)
 .debug_str     0x0000000000000000      0xf94 test_s.o
                                        0xfbf (size before relaxing)
 .debug_str     0x0000000000000f94      0x8ab b__test_s.o
                                        0x977 (size before relaxing)
 .debug_str     0x000000000000183f       0x63 /.share/CACHEDEV1_DATA/Ada/STM32/L/L522/test/test_s/obj/Debug/ns_api.o
                                        0x388 (size before relaxing)
 .debug_str     0x00000000000018a2     0x10ce /.share/CACHEDEV1_DATA/Ada/STM32/L/L522/test/test_s/obj/Debug/trace.o
                                       0x14f1 (size before relaxing)
 .debug_str     0x0000000000002970      0x6fb /.share/CACHEDEV1_DATA/Ada/STM32/L/L522/test/Ada_Drivers_Library/boards/lib/stm32l5nucleo_s/ravenscar-sfp/Debug/libstm32l5nucleo_s.a(stm32-board.o)
                                       0x1220 (size before relaxing)
 .debug_str     0x000000000000306b     0x2aac /.share/CACHEDEV1_DATA/Ada/STM32/L/L522/test/Ada_Drivers_Library/arch/ARM/STM32/lib/stm32l5nucleo_s/ravenscar-sfp/Debug/libstm32l5xx.a(stm32-device.o)
                                       0x3925 (size before relaxing)
 .debug_str     0x0000000000005b17      0x743 /.share/CACHEDEV1_DATA/Ada/STM32/L/L522/test/Ada_Drivers_Library/arch/ARM/STM32/lib/stm32l5nucleo_s/ravenscar-sfp/Debug/libstm32l5xx.a(stm32-exti.o)
                                        0x94c (size before relaxing)
 .debug_str     0x000000000000625a      0x4ba /.share/CACHEDEV1_DATA/Ada/STM32/L/L522/test/Ada_Drivers_Library/arch/ARM/STM32/lib/stm32l5nucleo_s/ravenscar-sfp/Debug/libstm32l5xx.a(stm32-gpio.o)
                                       0x1900 (size before relaxing)
 .debug_str     0x0000000000006714      0x16f /.share/CACHEDEV1_DATA/Ada/STM32/L/L522/test/Ada_Drivers_Library/arch/ARM/STM32/lib/stm32l5nucleo_s/ravenscar-sfp/Debug/libstm32l5xx.a(stm32-mpu.o)
                                        0x547 (size before relaxing)
 .debug_str     0x0000000000006883      0x163 /.share/CACHEDEV1_DATA/Ada/STM32/L/L522/test/Ada_Drivers_Library/arch/ARM/STM32/lib/stm32l5nucleo_s/ravenscar-sfp/Debug/libstm32l5xx.a(stm32-sau.o)
                                        0x4ac (size before relaxing)
 .debug_str     0x00000000000069e6      0x35f /.share/CACHEDEV1_DATA/Ada/STM32/L/L522/test/Ada_Drivers_Library/arch/ARM/STM32/lib/stm32l5nucleo_s/ravenscar-sfp/Debug/libstm32l5xx.a(stm32_svd-mpu.o)
                                        0x777 (size before relaxing)
 .debug_str     0x0000000000006d45      0x2d1 /.share/CACHEDEV1_DATA/Ada/Ada_Drivers_Library/hal/lib/stm32l5nucleo_s/ravenscar-sfp/Debug/libHAL.a(hal-gpio.o)
                                        0x305 (size before relaxing)
 .debug_str     0x0000000000007016      0xae1 /.share/CACHEDEV1_DATA/Ada/STM32/L/L522/test/Ada_Drivers_Library/embedded-runtimes/ravenscar-stm32l5nucleo_s/sfp/adalib/libgnarl.a(a-reatim.o)
                                        0xb7e (size before relaxing)
 .debug_str     0x0000000000007af7      0x8bc /.share/CACHEDEV1_DATA/Ada/STM32/L/L522/test/Ada_Drivers_Library/embedded-runtimes/ravenscar-stm32l5nucleo_s/sfp/adalib/libgnarl.a(s-bbbosu.o)
                                        0xc10 (size before relaxing)
 .debug_str     0x00000000000083b3      0xb6a /.share/CACHEDEV1_DATA/Ada/STM32/L/L522/test/Ada_Drivers_Library/embedded-runtimes/ravenscar-stm32l5nucleo_s/sfp/adalib/libgnarl.a(s-bbcppr.o)
                                       0x1126 (size before relaxing)
 .debug_str     0x0000000000008f1d      0x3e3 /.share/CACHEDEV1_DATA/Ada/STM32/L/L522/test/Ada_Drivers_Library/embedded-runtimes/ravenscar-stm32l5nucleo_s/sfp/adalib/libgnarl.a(s-bbinte.o)
                                        0xc8b (size before relaxing)
 .debug_str     0x0000000000009300      0x3fe /.share/CACHEDEV1_DATA/Ada/STM32/L/L522/test/Ada_Drivers_Library/embedded-runtimes/ravenscar-stm32l5nucleo_s/sfp/adalib/libgnarl.a(s-bbthqu.o)
                                        0xa89 (size before relaxing)
 .debug_str     0x00000000000096fe      0x542 /.share/CACHEDEV1_DATA/Ada/STM32/L/L522/test/Ada_Drivers_Library/embedded-runtimes/ravenscar-stm32l5nucleo_s/sfp/adalib/libgnarl.a(s-bbtime.o)
                                        0xf69 (size before relaxing)
 .debug_str     0x0000000000009c40      0x18e /.share/CACHEDEV1_DATA/Ada/STM32/L/L522/test/Ada_Drivers_Library/embedded-runtimes/ravenscar-stm32l5nucleo_s/sfp/adalib/libgnarl.a(s-bcpcst.o)
                                        0x4a0 (size before relaxing)
 .debug_str     0x0000000000009dce      0x8c4 /.share/CACHEDEV1_DATA/Ada/STM32/L/L522/test/Ada_Drivers_Library/embedded-runtimes/ravenscar-stm32l5nucleo_s/sfp/adalib/libgnarl.a(s-taprob.o)
                                       0x1359 (size before relaxing)
 .debug_str     0x000000000000a692      0x69b /.share/CACHEDEV1_DATA/Ada/STM32/L/L522/test/Ada_Drivers_Library/embedded-runtimes/ravenscar-stm32l5nucleo_s/sfp/adalib/libgnarl.a(s-tarest.o)
                                       0x17a2 (size before relaxing)
 .debug_str     0x000000000000ad2d      0x2a8 /.share/CACHEDEV1_DATA/Ada/STM32/L/L522/test/Ada_Drivers_Library/embedded-runtimes/ravenscar-stm32l5nucleo_s/sfp/adalib/libgnarl.a(s-tasdeb.o)
                                        0xe95 (size before relaxing)
 .debug_str     0x000000000000afd5      0x41f /.share/CACHEDEV1_DATA/Ada/STM32/L/L522/test/Ada_Drivers_Library/embedded-runtimes/ravenscar-stm32l5nucleo_s/sfp/adalib/libgnarl.a(s-taskin.o)
                                       0x15c2 (size before relaxing)
 .debug_str     0x000000000000b3f4      0x423 /.share/CACHEDEV1_DATA/Ada/STM32/L/L522/test/Ada_Drivers_Library/embedded-runtimes/ravenscar-stm32l5nucleo_s/sfp/adalib/libgnarl.a(s-tpobmu.o)
                                       0x14fa (size before relaxing)
 .debug_str     0x000000000000b817       0xda /.share/CACHEDEV1_DATA/Ada/STM32/L/L522/test/Ada_Drivers_Library/embedded-runtimes/ravenscar-stm32l5nucleo_s/sfp/adalib/libgnarl.a(s-bbprot.o)
                                        0x8a5 (size before relaxing)
 .debug_str     0x000000000000b8f1      0x17c /.share/CACHEDEV1_DATA/Ada/STM32/L/L522/test/Ada_Drivers_Library/embedded-runtimes/ravenscar-stm32l5nucleo_s/sfp/adalib/libgnarl.a(s-bbthre.o)
                                        0xd0c (size before relaxing)
 .debug_str     0x000000000000ba6d      0x1b6 /.share/CACHEDEV1_DATA/Ada/STM32/L/L522/test/Ada_Drivers_Library/embedded-runtimes/ravenscar-stm32l5nucleo_s/sfp/adalib/libgnarl.a(s-bbtiev.o)
                                        0xa39 (size before relaxing)
 .debug_str     0x000000000000bc23      0x4cf /.share/CACHEDEV1_DATA/Ada/STM32/L/L522/test/Ada_Drivers_Library/embedded-runtimes/ravenscar-stm32l5nucleo_s/sfp/adalib/libgnarl.a(s-taprop.o)
                                       0x1b06 (size before relaxing)
 .debug_str     0x000000000000c0f2      0x49a /.share/CACHEDEV1_DATA/Ada/STM32/L/L522/test/Ada_Drivers_Library/embedded-runtimes/ravenscar-stm32l5nucleo_s/sfp/adalib/libgnat.a(a-elchha.o)
                                        0x53f (size before relaxing)
 .debug_str     0x000000000000c58c      0x33d /.share/CACHEDEV1_DATA/Ada/STM32/L/L522/test/Ada_Drivers_Library/embedded-runtimes/ravenscar-stm32l5nucleo_s/sfp/adalib/libgnat.a(a-except.o)
                                        0x407 (size before relaxing)
 .debug_str     0x000000000000c8c9      0x16f /.share/CACHEDEV1_DATA/Ada/STM32/L/L522/test/Ada_Drivers_Library/embedded-runtimes/ravenscar-stm32l5nucleo_s/sfp/adalib/libgnat.a(g-io.o)
                                        0x486 (size before relaxing)
 .debug_str     0x000000000000ca38      0x2a5 /.share/CACHEDEV1_DATA/Ada/STM32/L/L522/test/Ada_Drivers_Library/embedded-runtimes/ravenscar-stm32l5nucleo_s/sfp/adalib/libgnat.a(s-assert.o)
                                        0x47d (size before relaxing)
 .debug_str     0x000000000000ccdd       0xc6 /.share/CACHEDEV1_DATA/Ada/STM32/L/L522/test/Ada_Drivers_Library/embedded-runtimes/ravenscar-stm32l5nucleo_s/sfp/adalib/libgnat.a(s-macres.o)
                                        0x35b (size before relaxing)
 .debug_str     0x000000000000cda3      0x110 /.share/CACHEDEV1_DATA/Ada/STM32/L/L522/test/Ada_Drivers_Library/embedded-runtimes/ravenscar-stm32l5nucleo_s/sfp/adalib/libgnat.a(s-memcop.o)
                                        0x35d (size before relaxing)
 .debug_str     0x000000000000ceb3       0xc4 /.share/CACHEDEV1_DATA/Ada/STM32/L/L522/test/Ada_Drivers_Library/embedded-runtimes/ravenscar-stm32l5nucleo_s/sfp/adalib/libgnat.a(s-memset.o)
                                        0x3a7 (size before relaxing)
 .debug_str     0x000000000000cf77      0x1ff /.share/CACHEDEV1_DATA/Ada/STM32/L/L522/test/Ada_Drivers_Library/embedded-runtimes/ravenscar-stm32l5nucleo_s/sfp/adalib/libgnat.a(s-parame.o)
                                        0x4ca (size before relaxing)
 .debug_str     0x000000000000d176      0x791 /.share/CACHEDEV1_DATA/Ada/STM32/L/L522/test/Ada_Drivers_Library/embedded-runtimes/ravenscar-stm32l5nucleo_s/sfp/adalib/libgnat.a(s-secsta.o)
                                        0xde9 (size before relaxing)
 .debug_str     0x000000000000d907      0x248 /.share/CACHEDEV1_DATA/Ada/STM32/L/L522/test/Ada_Drivers_Library/embedded-runtimes/ravenscar-stm32l5nucleo_s/sfp/adalib/libgnat.a(s-textio.o)
                                        0x57a (size before relaxing)
 .debug_str     0x000000000000db4f      0x80a /.share/CACHEDEV1_DATA/Ada/STM32/L/L522/test/Ada_Drivers_Library/embedded-runtimes/ravenscar-stm32l5nucleo_s/sfp/adalib/libgnat.a(setup_pll.o)
                                        0xa45 (size before relaxing)
 .debug_str     0x000000000000e359       0xd4 /.share/CACHEDEV1_DATA/Ada/STM32/L/L522/test/Ada_Drivers_Library/embedded-runtimes/ravenscar-stm32l5nucleo_s/sfp/adalib/libgnat.a(s-bbmcpa.o)
                                        0x33d (size before relaxing)
 .debug_str     0x000000000000e42d      0x132 ../../../glue/veneer_s.o
                                        0x13a (size before relaxing)
 .debug_str     0x000000000000e55f       0x16 ../../../glue/s_ns.o
                                         0x48 (size before relaxing)

.debug_loc      0x0000000000000000     0x4c97
 *(.debug_loc)
 .debug_loc     0x0000000000000000      0xd3b /.share/CACHEDEV1_DATA/Ada/STM32/L/L522/test/Ada_Drivers_Library/embedded-runtimes/ravenscar-stm32l5nucleo_s/sfp/adalib/libgnarl.a(a-reatim.o)
 .debug_loc     0x0000000000000d3b      0x3a4 /.share/CACHEDEV1_DATA/Ada/STM32/L/L522/test/Ada_Drivers_Library/embedded-runtimes/ravenscar-stm32l5nucleo_s/sfp/adalib/libgnarl.a(s-bbbosu.o)
 .debug_loc     0x00000000000010df      0x500 /.share/CACHEDEV1_DATA/Ada/STM32/L/L522/test/Ada_Drivers_Library/embedded-runtimes/ravenscar-stm32l5nucleo_s/sfp/adalib/libgnarl.a(s-bbcppr.o)
 .debug_loc     0x00000000000015df      0x1a1 /.share/CACHEDEV1_DATA/Ada/STM32/L/L522/test/Ada_Drivers_Library/embedded-runtimes/ravenscar-stm32l5nucleo_s/sfp/adalib/libgnarl.a(s-bbinte.o)
 .debug_loc     0x0000000000001780      0x30f /.share/CACHEDEV1_DATA/Ada/STM32/L/L522/test/Ada_Drivers_Library/embedded-runtimes/ravenscar-stm32l5nucleo_s/sfp/adalib/libgnarl.a(s-bbthqu.o)
 .debug_loc     0x0000000000001a8f      0x58e /.share/CACHEDEV1_DATA/Ada/STM32/L/L522/test/Ada_Drivers_Library/embedded-runtimes/ravenscar-stm32l5nucleo_s/sfp/adalib/libgnarl.a(s-bbtime.o)
 .debug_loc     0x000000000000201d      0x142 /.share/CACHEDEV1_DATA/Ada/STM32/L/L522/test/Ada_Drivers_Library/embedded-runtimes/ravenscar-stm32l5nucleo_s/sfp/adalib/libgnarl.a(s-taprob.o)
 .debug_loc     0x000000000000215f      0xae9 /.share/CACHEDEV1_DATA/Ada/STM32/L/L522/test/Ada_Drivers_Library/embedded-runtimes/ravenscar-stm32l5nucleo_s/sfp/adalib/libgnarl.a(s-tarest.o)
 .debug_loc     0x0000000000002c48      0x286 /.share/CACHEDEV1_DATA/Ada/STM32/L/L522/test/Ada_Drivers_Library/embedded-runtimes/ravenscar-stm32l5nucleo_s/sfp/adalib/libgnarl.a(s-taskin.o)
 .debug_loc     0x0000000000002ece      0x251 /.share/CACHEDEV1_DATA/Ada/STM32/L/L522/test/Ada_Drivers_Library/embedded-runtimes/ravenscar-stm32l5nucleo_s/sfp/adalib/libgnarl.a(s-tpobmu.o)
 .debug_loc     0x000000000000311f       0x63 /.share/CACHEDEV1_DATA/Ada/STM32/L/L522/test/Ada_Drivers_Library/embedded-runtimes/ravenscar-stm32l5nucleo_s/sfp/adalib/libgnarl.a(s-bbprot.o)
 .debug_loc     0x0000000000003182      0x8b8 /.share/CACHEDEV1_DATA/Ada/STM32/L/L522/test/Ada_Drivers_Library/embedded-runtimes/ravenscar-stm32l5nucleo_s/sfp/adalib/libgnarl.a(s-bbthre.o)
 .debug_loc     0x0000000000003a3a      0x437 /.share/CACHEDEV1_DATA/Ada/STM32/L/L522/test/Ada_Drivers_Library/embedded-runtimes/ravenscar-stm32l5nucleo_s/sfp/adalib/libgnarl.a(s-bbtiev.o)
 .debug_loc     0x0000000000003e71      0x63a /.share/CACHEDEV1_DATA/Ada/STM32/L/L522/test/Ada_Drivers_Library/embedded-runtimes/ravenscar-stm32l5nucleo_s/sfp/adalib/libgnarl.a(s-taprop.o)
 .debug_loc     0x00000000000044ab      0x19b /.share/CACHEDEV1_DATA/Ada/STM32/L/L522/test/Ada_Drivers_Library/embedded-runtimes/ravenscar-stm32l5nucleo_s/sfp/adalib/libgnat.a(a-elchha.o)
 .debug_loc     0x0000000000004646      0x1a4 /.share/CACHEDEV1_DATA/Ada/STM32/L/L522/test/Ada_Drivers_Library/embedded-runtimes/ravenscar-stm32l5nucleo_s/sfp/adalib/libgnat.a(g-io.o)
 .debug_loc     0x00000000000047ea       0x38 /.share/CACHEDEV1_DATA/Ada/STM32/L/L522/test/Ada_Drivers_Library/embedded-runtimes/ravenscar-stm32l5nucleo_s/sfp/adalib/libgnat.a(s-assert.o)
 .debug_loc     0x0000000000004822      0x14f /.share/CACHEDEV1_DATA/Ada/STM32/L/L522/test/Ada_Drivers_Library/embedded-runtimes/ravenscar-stm32l5nucleo_s/sfp/adalib/libgnat.a(s-memcop.o)
 .debug_loc     0x0000000000004971      0x131 /.share/CACHEDEV1_DATA/Ada/STM32/L/L522/test/Ada_Drivers_Library/embedded-runtimes/ravenscar-stm32l5nucleo_s/sfp/adalib/libgnat.a(s-memset.o)
 .debug_loc     0x0000000000004aa2       0x21 /.share/CACHEDEV1_DATA/Ada/STM32/L/L522/test/Ada_Drivers_Library/embedded-runtimes/ravenscar-stm32l5nucleo_s/sfp/adalib/libgnat.a(s-parame.o)
 .debug_loc     0x0000000000004ac3      0x1d4 /.share/CACHEDEV1_DATA/Ada/STM32/L/L522/test/Ada_Drivers_Library/embedded-runtimes/ravenscar-stm32l5nucleo_s/sfp/adalib/libgnat.a(s-secsta.o)

.debug_macinfo
 *(.debug_macinfo)

.debug_pubtypes
 *(.debug_pubtypes)

.debug_ranges   0x0000000000000000     0x1570
 *(.debug_ranges)
 .debug_ranges  0x0000000000000000       0x20 test_s.o
 .debug_ranges  0x0000000000000020       0x20 b__test_s.o
 .debug_ranges  0x0000000000000040       0x10 /.share/CACHEDEV1_DATA/Ada/STM32/L/L522/test/test_s/obj/Debug/ns_api.o
 .debug_ranges  0x0000000000000050       0x38 /.share/CACHEDEV1_DATA/Ada/STM32/L/L522/test/test_s/obj/Debug/trace.o
 .debug_ranges  0x0000000000000088       0x28 /.share/CACHEDEV1_DATA/Ada/STM32/L/L522/test/Ada_Drivers_Library/boards/lib/stm32l5nucleo_s/ravenscar-sfp/Debug/libstm32l5nucleo_s.a(stm32-board.o)
 .debug_ranges  0x00000000000000b0       0x70 /.share/CACHEDEV1_DATA/Ada/STM32/L/L522/test/Ada_Drivers_Library/arch/ARM/STM32/lib/stm32l5nucleo_s/ravenscar-sfp/Debug/libstm32l5xx.a(stm32-device.o)
 .debug_ranges  0x0000000000000120       0x40 /.share/CACHEDEV1_DATA/Ada/STM32/L/L522/test/Ada_Drivers_Library/arch/ARM/STM32/lib/stm32l5nucleo_s/ravenscar-sfp/Debug/libstm32l5xx.a(stm32-exti.o)
 .debug_ranges  0x0000000000000160       0xd0 /.share/CACHEDEV1_DATA/Ada/STM32/L/L522/test/Ada_Drivers_Library/arch/ARM/STM32/lib/stm32l5nucleo_s/ravenscar-sfp/Debug/libstm32l5xx.a(stm32-gpio.o)
 .debug_ranges  0x0000000000000230       0x20 /.share/CACHEDEV1_DATA/Ada/STM32/L/L522/test/Ada_Drivers_Library/arch/ARM/STM32/lib/stm32l5nucleo_s/ravenscar-sfp/Debug/libstm32l5xx.a(stm32-mpu.o)
 .debug_ranges  0x0000000000000250       0x20 /.share/CACHEDEV1_DATA/Ada/STM32/L/L522/test/Ada_Drivers_Library/arch/ARM/STM32/lib/stm32l5nucleo_s/ravenscar-sfp/Debug/libstm32l5xx.a(stm32-sau.o)
 .debug_ranges  0x0000000000000270      0x190 /.share/CACHEDEV1_DATA/Ada/STM32/L/L522/test/Ada_Drivers_Library/embedded-runtimes/ravenscar-stm32l5nucleo_s/sfp/adalib/libgnarl.a(a-reatim.o)
 .debug_ranges  0x0000000000000400      0x140 /.share/CACHEDEV1_DATA/Ada/STM32/L/L522/test/Ada_Drivers_Library/embedded-runtimes/ravenscar-stm32l5nucleo_s/sfp/adalib/libgnarl.a(s-bbbosu.o)
 .debug_ranges  0x0000000000000540      0x108 /.share/CACHEDEV1_DATA/Ada/STM32/L/L522/test/Ada_Drivers_Library/embedded-runtimes/ravenscar-stm32l5nucleo_s/sfp/adalib/libgnarl.a(s-bbcppr.o)
 .debug_ranges  0x0000000000000648       0xd0 /.share/CACHEDEV1_DATA/Ada/STM32/L/L522/test/Ada_Drivers_Library/embedded-runtimes/ravenscar-stm32l5nucleo_s/sfp/adalib/libgnarl.a(s-bbinte.o)
 .debug_ranges  0x0000000000000718      0x180 /.share/CACHEDEV1_DATA/Ada/STM32/L/L522/test/Ada_Drivers_Library/embedded-runtimes/ravenscar-stm32l5nucleo_s/sfp/adalib/libgnarl.a(s-bbthqu.o)
 .debug_ranges  0x0000000000000898      0x208 /.share/CACHEDEV1_DATA/Ada/STM32/L/L522/test/Ada_Drivers_Library/embedded-runtimes/ravenscar-stm32l5nucleo_s/sfp/adalib/libgnarl.a(s-bbtime.o)
 .debug_ranges  0x0000000000000aa0       0x20 /.share/CACHEDEV1_DATA/Ada/STM32/L/L522/test/Ada_Drivers_Library/embedded-runtimes/ravenscar-stm32l5nucleo_s/sfp/adalib/libgnarl.a(s-bcpcst.o)
 .debug_ranges  0x0000000000000ac0       0x58 /.share/CACHEDEV1_DATA/Ada/STM32/L/L522/test/Ada_Drivers_Library/embedded-runtimes/ravenscar-stm32l5nucleo_s/sfp/adalib/libgnarl.a(s-taprob.o)
 .debug_ranges  0x0000000000000b18      0x138 /.share/CACHEDEV1_DATA/Ada/STM32/L/L522/test/Ada_Drivers_Library/embedded-runtimes/ravenscar-stm32l5nucleo_s/sfp/adalib/libgnarl.a(s-tarest.o)
 .debug_ranges  0x0000000000000c50       0x10 /.share/CACHEDEV1_DATA/Ada/STM32/L/L522/test/Ada_Drivers_Library/embedded-runtimes/ravenscar-stm32l5nucleo_s/sfp/adalib/libgnarl.a(s-tasdeb.o)
 .debug_ranges  0x0000000000000c60      0x128 /.share/CACHEDEV1_DATA/Ada/STM32/L/L522/test/Ada_Drivers_Library/embedded-runtimes/ravenscar-stm32l5nucleo_s/sfp/adalib/libgnarl.a(s-taskin.o)
 .debug_ranges  0x0000000000000d88       0xc8 /.share/CACHEDEV1_DATA/Ada/STM32/L/L522/test/Ada_Drivers_Library/embedded-runtimes/ravenscar-stm32l5nucleo_s/sfp/adalib/libgnarl.a(s-tpobmu.o)
 .debug_ranges  0x0000000000000e50       0x78 /.share/CACHEDEV1_DATA/Ada/STM32/L/L522/test/Ada_Drivers_Library/embedded-runtimes/ravenscar-stm32l5nucleo_s/sfp/adalib/libgnarl.a(s-bbprot.o)
 .debug_ranges  0x0000000000000ec8      0x228 /.share/CACHEDEV1_DATA/Ada/STM32/L/L522/test/Ada_Drivers_Library/embedded-runtimes/ravenscar-stm32l5nucleo_s/sfp/adalib/libgnarl.a(s-bbthre.o)
 .debug_ranges  0x00000000000010f0       0xf0 /.share/CACHEDEV1_DATA/Ada/STM32/L/L522/test/Ada_Drivers_Library/embedded-runtimes/ravenscar-stm32l5nucleo_s/sfp/adalib/libgnarl.a(s-bbtiev.o)
 .debug_ranges  0x00000000000011e0      0x208 /.share/CACHEDEV1_DATA/Ada/STM32/L/L522/test/Ada_Drivers_Library/embedded-runtimes/ravenscar-stm32l5nucleo_s/sfp/adalib/libgnarl.a(s-taprop.o)
 .debug_ranges  0x00000000000013e8       0x10 /.share/CACHEDEV1_DATA/Ada/STM32/L/L522/test/Ada_Drivers_Library/embedded-runtimes/ravenscar-stm32l5nucleo_s/sfp/adalib/libgnat.a(a-elchha.o)
 .debug_ranges  0x00000000000013f8       0x48 /.share/CACHEDEV1_DATA/Ada/STM32/L/L522/test/Ada_Drivers_Library/embedded-runtimes/ravenscar-stm32l5nucleo_s/sfp/adalib/libgnat.a(g-io.o)
 .debug_ranges  0x0000000000001440       0x10 /.share/CACHEDEV1_DATA/Ada/STM32/L/L522/test/Ada_Drivers_Library/embedded-runtimes/ravenscar-stm32l5nucleo_s/sfp/adalib/libgnat.a(s-assert.o)
 .debug_ranges  0x0000000000001450       0x18 /.share/CACHEDEV1_DATA/Ada/STM32/L/L522/test/Ada_Drivers_Library/embedded-runtimes/ravenscar-stm32l5nucleo_s/sfp/adalib/libgnat.a(s-macres.o)
 .debug_ranges  0x0000000000001468       0x10 /.share/CACHEDEV1_DATA/Ada/STM32/L/L522/test/Ada_Drivers_Library/embedded-runtimes/ravenscar-stm32l5nucleo_s/sfp/adalib/libgnat.a(s-memcop.o)
 .debug_ranges  0x0000000000001478       0x10 /.share/CACHEDEV1_DATA/Ada/STM32/L/L522/test/Ada_Drivers_Library/embedded-runtimes/ravenscar-stm32l5nucleo_s/sfp/adalib/libgnat.a(s-memset.o)
 .debug_ranges  0x0000000000001488       0x10 /.share/CACHEDEV1_DATA/Ada/STM32/L/L522/test/Ada_Drivers_Library/embedded-runtimes/ravenscar-stm32l5nucleo_s/sfp/adalib/libgnat.a(s-parame.o)
 .debug_ranges  0x0000000000001498       0x60 /.share/CACHEDEV1_DATA/Ada/STM32/L/L522/test/Ada_Drivers_Library/embedded-runtimes/ravenscar-stm32l5nucleo_s/sfp/adalib/libgnat.a(s-secsta.o)
 .debug_ranges  0x00000000000014f8       0x38 /.share/CACHEDEV1_DATA/Ada/STM32/L/L522/test/Ada_Drivers_Library/embedded-runtimes/ravenscar-stm32l5nucleo_s/sfp/adalib/libgnat.a(s-textio.o)
 .debug_ranges  0x0000000000001530       0x28 /.share/CACHEDEV1_DATA/Ada/STM32/L/L522/test/Ada_Drivers_Library/embedded-runtimes/ravenscar-stm32l5nucleo_s/sfp/adalib/libgnat.a(setup_pll.o)
 .debug_ranges  0x0000000000001558       0x18 /.share/CACHEDEV1_DATA/Ada/STM32/L/L522/test/Ada_Drivers_Library/embedded-runtimes/ravenscar-stm32l5nucleo_s/sfp/adalib/libgnat.a(s-bbmcpa.o)

.comment        0x0000000000000000       0x3d
 .comment       0x0000000000000000       0x3d test_s.o
                                         0x3e (size before relaxing)
 .comment       0x000000000000003d       0x3e b__test_s.o
 .comment       0x000000000000003d       0x3e /.share/CACHEDEV1_DATA/Ada/STM32/L/L522/test/test_s/obj/Debug/ns_api.o
 .comment       0x000000000000003d       0x3e /.share/CACHEDEV1_DATA/Ada/STM32/L/L522/test/test_s/obj/Debug/trace.o
 .comment       0x000000000000003d       0x3e /.share/CACHEDEV1_DATA/Ada/STM32/L/L522/test/Ada_Drivers_Library/boards/lib/stm32l5nucleo_s/ravenscar-sfp/Debug/libstm32l5nucleo_s.a(stm32-board.o)
 .comment       0x000000000000003d       0x3e /.share/CACHEDEV1_DATA/Ada/STM32/L/L522/test/Ada_Drivers_Library/arch/ARM/STM32/lib/stm32l5nucleo_s/ravenscar-sfp/Debug/libstm32l5xx.a(stm32-device.o)
 .comment       0x000000000000003d       0x3e /.share/CACHEDEV1_DATA/Ada/STM32/L/L522/test/Ada_Drivers_Library/arch/ARM/STM32/lib/stm32l5nucleo_s/ravenscar-sfp/Debug/libstm32l5xx.a(stm32-exti.o)
 .comment       0x000000000000003d       0x3e /.share/CACHEDEV1_DATA/Ada/STM32/L/L522/test/Ada_Drivers_Library/arch/ARM/STM32/lib/stm32l5nucleo_s/ravenscar-sfp/Debug/libstm32l5xx.a(stm32-gpio.o)
 .comment       0x000000000000003d       0x3e /.share/CACHEDEV1_DATA/Ada/STM32/L/L522/test/Ada_Drivers_Library/arch/ARM/STM32/lib/stm32l5nucleo_s/ravenscar-sfp/Debug/libstm32l5xx.a(stm32-mpu.o)
 .comment       0x000000000000003d       0x3e /.share/CACHEDEV1_DATA/Ada/STM32/L/L522/test/Ada_Drivers_Library/arch/ARM/STM32/lib/stm32l5nucleo_s/ravenscar-sfp/Debug/libstm32l5xx.a(stm32-sau.o)
 .comment       0x000000000000003d       0x3e /.share/CACHEDEV1_DATA/Ada/STM32/L/L522/test/Ada_Drivers_Library/arch/ARM/STM32/lib/stm32l5nucleo_s/ravenscar-sfp/Debug/libstm32l5xx.a(stm32_svd-mpu.o)
 .comment       0x000000000000003d       0x3e /.share/CACHEDEV1_DATA/Ada/Ada_Drivers_Library/hal/lib/stm32l5nucleo_s/ravenscar-sfp/Debug/libHAL.a(hal-gpio.o)
 .comment       0x000000000000003d       0x3e /.share/CACHEDEV1_DATA/Ada/STM32/L/L522/test/Ada_Drivers_Library/embedded-runtimes/ravenscar-stm32l5nucleo_s/sfp/adalib/libgnarl.a(a-reatim.o)
 .comment       0x000000000000003d       0x3e /.share/CACHEDEV1_DATA/Ada/STM32/L/L522/test/Ada_Drivers_Library/embedded-runtimes/ravenscar-stm32l5nucleo_s/sfp/adalib/libgnarl.a(s-bbbosu.o)
 .comment       0x000000000000003d       0x3e /.share/CACHEDEV1_DATA/Ada/STM32/L/L522/test/Ada_Drivers_Library/embedded-runtimes/ravenscar-stm32l5nucleo_s/sfp/adalib/libgnarl.a(s-bbcppr.o)
 .comment       0x000000000000003d       0x3e /.share/CACHEDEV1_DATA/Ada/STM32/L/L522/test/Ada_Drivers_Library/embedded-runtimes/ravenscar-stm32l5nucleo_s/sfp/adalib/libgnarl.a(s-bbinte.o)
 .comment       0x000000000000003d       0x3e /.share/CACHEDEV1_DATA/Ada/STM32/L/L522/test/Ada_Drivers_Library/embedded-runtimes/ravenscar-stm32l5nucleo_s/sfp/adalib/libgnarl.a(s-bbthqu.o)
 .comment       0x000000000000003d       0x3e /.share/CACHEDEV1_DATA/Ada/STM32/L/L522/test/Ada_Drivers_Library/embedded-runtimes/ravenscar-stm32l5nucleo_s/sfp/adalib/libgnarl.a(s-bbtime.o)
 .comment       0x000000000000003d       0x3e /.share/CACHEDEV1_DATA/Ada/STM32/L/L522/test/Ada_Drivers_Library/embedded-runtimes/ravenscar-stm32l5nucleo_s/sfp/adalib/libgnarl.a(s-bcpcst.o)
 .comment       0x000000000000003d       0x3e /.share/CACHEDEV1_DATA/Ada/STM32/L/L522/test/Ada_Drivers_Library/embedded-runtimes/ravenscar-stm32l5nucleo_s/sfp/adalib/libgnarl.a(s-taprob.o)
 .comment       0x000000000000003d       0x3e /.share/CACHEDEV1_DATA/Ada/STM32/L/L522/test/Ada_Drivers_Library/embedded-runtimes/ravenscar-stm32l5nucleo_s/sfp/adalib/libgnarl.a(s-tarest.o)
 .comment       0x000000000000003d       0x3e /.share/CACHEDEV1_DATA/Ada/STM32/L/L522/test/Ada_Drivers_Library/embedded-runtimes/ravenscar-stm32l5nucleo_s/sfp/adalib/libgnarl.a(s-tasdeb.o)
 .comment       0x000000000000003d       0x3e /.share/CACHEDEV1_DATA/Ada/STM32/L/L522/test/Ada_Drivers_Library/embedded-runtimes/ravenscar-stm32l5nucleo_s/sfp/adalib/libgnarl.a(s-taskin.o)
 .comment       0x000000000000003d       0x3e /.share/CACHEDEV1_DATA/Ada/STM32/L/L522/test/Ada_Drivers_Library/embedded-runtimes/ravenscar-stm32l5nucleo_s/sfp/adalib/libgnarl.a(s-tpobmu.o)
 .comment       0x000000000000003d       0x3e /.share/CACHEDEV1_DATA/Ada/STM32/L/L522/test/Ada_Drivers_Library/embedded-runtimes/ravenscar-stm32l5nucleo_s/sfp/adalib/libgnarl.a(s-bbprot.o)
 .comment       0x000000000000003d       0x3e /.share/CACHEDEV1_DATA/Ada/STM32/L/L522/test/Ada_Drivers_Library/embedded-runtimes/ravenscar-stm32l5nucleo_s/sfp/adalib/libgnarl.a(s-bbthre.o)
 .comment       0x000000000000003d       0x3e /.share/CACHEDEV1_DATA/Ada/STM32/L/L522/test/Ada_Drivers_Library/embedded-runtimes/ravenscar-stm32l5nucleo_s/sfp/adalib/libgnarl.a(s-bbtiev.o)
 .comment       0x000000000000003d       0x3e /.share/CACHEDEV1_DATA/Ada/STM32/L/L522/test/Ada_Drivers_Library/embedded-runtimes/ravenscar-stm32l5nucleo_s/sfp/adalib/libgnarl.a(s-taprop.o)
 .comment       0x000000000000003d       0x3e /.share/CACHEDEV1_DATA/Ada/STM32/L/L522/test/Ada_Drivers_Library/embedded-runtimes/ravenscar-stm32l5nucleo_s/sfp/adalib/libgnat.a(a-elchha.o)
 .comment       0x000000000000003d       0x3e /.share/CACHEDEV1_DATA/Ada/STM32/L/L522/test/Ada_Drivers_Library/embedded-runtimes/ravenscar-stm32l5nucleo_s/sfp/adalib/libgnat.a(a-except.o)
 .comment       0x000000000000003d       0x3e /.share/CACHEDEV1_DATA/Ada/STM32/L/L522/test/Ada_Drivers_Library/embedded-runtimes/ravenscar-stm32l5nucleo_s/sfp/adalib/libgnat.a(g-io.o)
 .comment       0x000000000000003d       0x3e /.share/CACHEDEV1_DATA/Ada/STM32/L/L522/test/Ada_Drivers_Library/embedded-runtimes/ravenscar-stm32l5nucleo_s/sfp/adalib/libgnat.a(s-assert.o)
 .comment       0x000000000000003d       0x3e /.share/CACHEDEV1_DATA/Ada/STM32/L/L522/test/Ada_Drivers_Library/embedded-runtimes/ravenscar-stm32l5nucleo_s/sfp/adalib/libgnat.a(s-macres.o)
 .comment       0x000000000000003d       0x3e /.share/CACHEDEV1_DATA/Ada/STM32/L/L522/test/Ada_Drivers_Library/embedded-runtimes/ravenscar-stm32l5nucleo_s/sfp/adalib/libgnat.a(s-memcop.o)
 .comment       0x000000000000003d       0x3e /.share/CACHEDEV1_DATA/Ada/STM32/L/L522/test/Ada_Drivers_Library/embedded-runtimes/ravenscar-stm32l5nucleo_s/sfp/adalib/libgnat.a(s-memset.o)
 .comment       0x000000000000003d       0x3e /.share/CACHEDEV1_DATA/Ada/STM32/L/L522/test/Ada_Drivers_Library/embedded-runtimes/ravenscar-stm32l5nucleo_s/sfp/adalib/libgnat.a(s-parame.o)
 .comment       0x000000000000003d       0x3e /.share/CACHEDEV1_DATA/Ada/STM32/L/L522/test/Ada_Drivers_Library/embedded-runtimes/ravenscar-stm32l5nucleo_s/sfp/adalib/libgnat.a(s-secsta.o)
 .comment       0x000000000000003d       0x3e /.share/CACHEDEV1_DATA/Ada/STM32/L/L522/test/Ada_Drivers_Library/embedded-runtimes/ravenscar-stm32l5nucleo_s/sfp/adalib/libgnat.a(s-textio.o)
 .comment       0x000000000000003d       0x3e /.share/CACHEDEV1_DATA/Ada/STM32/L/L522/test/Ada_Drivers_Library/embedded-runtimes/ravenscar-stm32l5nucleo_s/sfp/adalib/libgnat.a(setup_pll.o)
 .comment       0x000000000000003d       0x3e /.share/CACHEDEV1_DATA/Ada/STM32/L/L522/test/Ada_Drivers_Library/embedded-runtimes/ravenscar-stm32l5nucleo_s/sfp/adalib/libgnat.a(s-bbmcpa.o)
 .comment       0x000000000000003d       0x3e ../../../glue/veneer_s.o

.ARM.attributes
                0x0000000000000000       0x3a
 .ARM.attributes
                0x0000000000000000       0x37 test_s.o
 .ARM.attributes
                0x0000000000000037       0x37 b__test_s.o
 .ARM.attributes
                0x000000000000006e       0x37 /.share/CACHEDEV1_DATA/Ada/STM32/L/L522/test/test_s/obj/Debug/ns_api.o
 .ARM.attributes
                0x00000000000000a5       0x37 /.share/CACHEDEV1_DATA/Ada/STM32/L/L522/test/test_s/obj/Debug/trace.o
 .ARM.attributes
                0x00000000000000dc       0x37 /.share/CACHEDEV1_DATA/Ada/STM32/L/L522/test/Ada_Drivers_Library/boards/lib/stm32l5nucleo_s/ravenscar-sfp/Debug/libstm32l5nucleo_s.a(stm32-board.o)
 .ARM.attributes
                0x0000000000000113       0x37 /.share/CACHEDEV1_DATA/Ada/STM32/L/L522/test/Ada_Drivers_Library/arch/ARM/STM32/lib/stm32l5nucleo_s/ravenscar-sfp/Debug/libstm32l5xx.a(stm32-device.o)
 .ARM.attributes
                0x000000000000014a       0x37 /.share/CACHEDEV1_DATA/Ada/STM32/L/L522/test/Ada_Drivers_Library/arch/ARM/STM32/lib/stm32l5nucleo_s/ravenscar-sfp/Debug/libstm32l5xx.a(stm32-exti.o)
 .ARM.attributes
                0x0000000000000181       0x37 /.share/CACHEDEV1_DATA/Ada/STM32/L/L522/test/Ada_Drivers_Library/arch/ARM/STM32/lib/stm32l5nucleo_s/ravenscar-sfp/Debug/libstm32l5xx.a(stm32-gpio.o)
 .ARM.attributes
                0x00000000000001b8       0x37 /.share/CACHEDEV1_DATA/Ada/STM32/L/L522/test/Ada_Drivers_Library/arch/ARM/STM32/lib/stm32l5nucleo_s/ravenscar-sfp/Debug/libstm32l5xx.a(stm32-mpu.o)
 .ARM.attributes
                0x00000000000001ef       0x37 /.share/CACHEDEV1_DATA/Ada/STM32/L/L522/test/Ada_Drivers_Library/arch/ARM/STM32/lib/stm32l5nucleo_s/ravenscar-sfp/Debug/libstm32l5xx.a(stm32-sau.o)
 .ARM.attributes
                0x0000000000000226       0x37 /.share/CACHEDEV1_DATA/Ada/STM32/L/L522/test/Ada_Drivers_Library/arch/ARM/STM32/lib/stm32l5nucleo_s/ravenscar-sfp/Debug/libstm32l5xx.a(stm32_svd-mpu.o)
 .ARM.attributes
                0x000000000000025d       0x37 /.share/CACHEDEV1_DATA/Ada/Ada_Drivers_Library/hal/lib/stm32l5nucleo_s/ravenscar-sfp/Debug/libHAL.a(hal-gpio.o)
 .ARM.attributes
                0x0000000000000294       0x37 /.share/CACHEDEV1_DATA/Ada/STM32/L/L522/test/Ada_Drivers_Library/embedded-runtimes/ravenscar-stm32l5nucleo_s/sfp/adalib/libgnarl.a(a-reatim.o)
 .ARM.attributes
                0x00000000000002cb       0x37 /.share/CACHEDEV1_DATA/Ada/STM32/L/L522/test/Ada_Drivers_Library/embedded-runtimes/ravenscar-stm32l5nucleo_s/sfp/adalib/libgnarl.a(s-bbbosu.o)
 .ARM.attributes
                0x0000000000000302       0x37 /.share/CACHEDEV1_DATA/Ada/STM32/L/L522/test/Ada_Drivers_Library/embedded-runtimes/ravenscar-stm32l5nucleo_s/sfp/adalib/libgnarl.a(s-bbcppr.o)
 .ARM.attributes
                0x0000000000000339       0x37 /.share/CACHEDEV1_DATA/Ada/STM32/L/L522/test/Ada_Drivers_Library/embedded-runtimes/ravenscar-stm32l5nucleo_s/sfp/adalib/libgnarl.a(s-bbinte.o)
 .ARM.attributes
                0x0000000000000370       0x37 /.share/CACHEDEV1_DATA/Ada/STM32/L/L522/test/Ada_Drivers_Library/embedded-runtimes/ravenscar-stm32l5nucleo_s/sfp/adalib/libgnarl.a(s-bbthqu.o)
 .ARM.attributes
                0x00000000000003a7       0x37 /.share/CACHEDEV1_DATA/Ada/STM32/L/L522/test/Ada_Drivers_Library/embedded-runtimes/ravenscar-stm32l5nucleo_s/sfp/adalib/libgnarl.a(s-bbtime.o)
 .ARM.attributes
                0x00000000000003de       0x37 /.share/CACHEDEV1_DATA/Ada/STM32/L/L522/test/Ada_Drivers_Library/embedded-runtimes/ravenscar-stm32l5nucleo_s/sfp/adalib/libgnarl.a(s-bcpcst.o)
 .ARM.attributes
                0x0000000000000415       0x37 /.share/CACHEDEV1_DATA/Ada/STM32/L/L522/test/Ada_Drivers_Library/embedded-runtimes/ravenscar-stm32l5nucleo_s/sfp/adalib/libgnarl.a(s-taprob.o)
 .ARM.attributes
                0x000000000000044c       0x37 /.share/CACHEDEV1_DATA/Ada/STM32/L/L522/test/Ada_Drivers_Library/embedded-runtimes/ravenscar-stm32l5nucleo_s/sfp/adalib/libgnarl.a(s-tarest.o)
 .ARM.attributes
                0x0000000000000483       0x37 /.share/CACHEDEV1_DATA/Ada/STM32/L/L522/test/Ada_Drivers_Library/embedded-runtimes/ravenscar-stm32l5nucleo_s/sfp/adalib/libgnarl.a(s-tasdeb.o)
 .ARM.attributes
                0x00000000000004ba       0x37 /.share/CACHEDEV1_DATA/Ada/STM32/L/L522/test/Ada_Drivers_Library/embedded-runtimes/ravenscar-stm32l5nucleo_s/sfp/adalib/libgnarl.a(s-taskin.o)
 .ARM.attributes
                0x00000000000004f1       0x37 /.share/CACHEDEV1_DATA/Ada/STM32/L/L522/test/Ada_Drivers_Library/embedded-runtimes/ravenscar-stm32l5nucleo_s/sfp/adalib/libgnarl.a(s-tpobmu.o)
 .ARM.attributes
                0x0000000000000528       0x37 /.share/CACHEDEV1_DATA/Ada/STM32/L/L522/test/Ada_Drivers_Library/embedded-runtimes/ravenscar-stm32l5nucleo_s/sfp/adalib/libgnarl.a(s-bbprot.o)
 .ARM.attributes
                0x000000000000055f       0x37 /.share/CACHEDEV1_DATA/Ada/STM32/L/L522/test/Ada_Drivers_Library/embedded-runtimes/ravenscar-stm32l5nucleo_s/sfp/adalib/libgnarl.a(s-bbthre.o)
 .ARM.attributes
                0x0000000000000596       0x37 /.share/CACHEDEV1_DATA/Ada/STM32/L/L522/test/Ada_Drivers_Library/embedded-runtimes/ravenscar-stm32l5nucleo_s/sfp/adalib/libgnarl.a(s-bbtiev.o)
 .ARM.attributes
                0x00000000000005cd       0x37 /.share/CACHEDEV1_DATA/Ada/STM32/L/L522/test/Ada_Drivers_Library/embedded-runtimes/ravenscar-stm32l5nucleo_s/sfp/adalib/libgnarl.a(s-taprop.o)
 .ARM.attributes
                0x0000000000000604       0x37 /.share/CACHEDEV1_DATA/Ada/STM32/L/L522/test/Ada_Drivers_Library/embedded-runtimes/ravenscar-stm32l5nucleo_s/sfp/adalib/libgnat.a(a-elchha.o)
 .ARM.attributes
                0x000000000000063b       0x37 /.share/CACHEDEV1_DATA/Ada/STM32/L/L522/test/Ada_Drivers_Library/embedded-runtimes/ravenscar-stm32l5nucleo_s/sfp/adalib/libgnat.a(a-except.o)
 .ARM.attributes
                0x0000000000000672       0x37 /.share/CACHEDEV1_DATA/Ada/STM32/L/L522/test/Ada_Drivers_Library/embedded-runtimes/ravenscar-stm32l5nucleo_s/sfp/adalib/libgnat.a(g-io.o)
 .ARM.attributes
                0x00000000000006a9       0x21 /.share/CACHEDEV1_DATA/Ada/STM32/L/L522/test/Ada_Drivers_Library/embedded-runtimes/ravenscar-stm32l5nucleo_s/sfp/adalib/libgnat.a(handler.o)
 .ARM.attributes
                0x00000000000006ca       0x37 /.share/CACHEDEV1_DATA/Ada/STM32/L/L522/test/Ada_Drivers_Library/embedded-runtimes/ravenscar-stm32l5nucleo_s/sfp/adalib/libgnat.a(s-assert.o)
 .ARM.attributes
                0x0000000000000701       0x37 /.share/CACHEDEV1_DATA/Ada/STM32/L/L522/test/Ada_Drivers_Library/embedded-runtimes/ravenscar-stm32l5nucleo_s/sfp/adalib/libgnat.a(s-macres.o)
 .ARM.attributes
                0x0000000000000738       0x37 /.share/CACHEDEV1_DATA/Ada/STM32/L/L522/test/Ada_Drivers_Library/embedded-runtimes/ravenscar-stm32l5nucleo_s/sfp/adalib/libgnat.a(s-memcop.o)
 .ARM.attributes
                0x000000000000076f       0x37 /.share/CACHEDEV1_DATA/Ada/STM32/L/L522/test/Ada_Drivers_Library/embedded-runtimes/ravenscar-stm32l5nucleo_s/sfp/adalib/libgnat.a(s-memset.o)
 .ARM.attributes
                0x00000000000007a6       0x37 /.share/CACHEDEV1_DATA/Ada/STM32/L/L522/test/Ada_Drivers_Library/embedded-runtimes/ravenscar-stm32l5nucleo_s/sfp/adalib/libgnat.a(s-parame.o)
 .ARM.attributes
                0x00000000000007dd       0x37 /.share/CACHEDEV1_DATA/Ada/STM32/L/L522/test/Ada_Drivers_Library/embedded-runtimes/ravenscar-stm32l5nucleo_s/sfp/adalib/libgnat.a(s-secsta.o)
 .ARM.attributes
                0x0000000000000814       0x37 /.share/CACHEDEV1_DATA/Ada/STM32/L/L522/test/Ada_Drivers_Library/embedded-runtimes/ravenscar-stm32l5nucleo_s/sfp/adalib/libgnat.a(s-textio.o)
 .ARM.attributes
                0x000000000000084b       0x24 /.share/CACHEDEV1_DATA/Ada/STM32/L/L522/test/Ada_Drivers_Library/embedded-runtimes/ravenscar-stm32l5nucleo_s/sfp/adalib/libgnat.a(start-common.o)
 .ARM.attributes
                0x000000000000086f       0x21 /.share/CACHEDEV1_DATA/Ada/STM32/L/L522/test/Ada_Drivers_Library/embedded-runtimes/ravenscar-stm32l5nucleo_s/sfp/adalib/libgnat.a(start-ram.o)
 .ARM.attributes
                0x0000000000000890       0x37 /.share/CACHEDEV1_DATA/Ada/STM32/L/L522/test/Ada_Drivers_Library/embedded-runtimes/ravenscar-stm32l5nucleo_s/sfp/adalib/libgnat.a(setup_pll.o)
 .ARM.attributes
                0x00000000000008c7       0x37 /.share/CACHEDEV1_DATA/Ada/STM32/L/L522/test/Ada_Drivers_Library/embedded-runtimes/ravenscar-stm32l5nucleo_s/sfp/adalib/libgnat.a(s-bbmcpa.o)
 .ARM.attributes
                0x00000000000008fe       0x3c ../../../glue/veneer_s.o
 .ARM.attributes
                0x000000000000093a       0x28 ../../../glue/s_ns.o

.gnu.attributes
 *(.gnu.attributes)

/DISCARD/
 *(.note.GNU-stack)
 *(.gnu_debuglink)
 *(.gnu.lto_*)
OUTPUT(test_s elf32-littlearm)
