
bno_f103:     file format elf32-littlearm


Disassembly of section .text:

08000000 <__vectors0>:
 8000000:	200021d0 	.word	0x200021d0
 8000004:	08009995 	.word	0x08009995
 8000008:	08009a02 	.word	0x08009a02
 800000c:	08009a02 	.word	0x08009a02
 8000010:	08009a02 	.word	0x08009a02

08000014 <bno_f103__initialize_imu_io_hardware.4721>:
 8000014:	b580      	push	{r7, lr}
 8000016:	b08a      	sub	sp, #40	; 0x28
 8000018:	af00      	add	r7, sp, #0
 800001a:	6178      	str	r0, [r7, #20]
 800001c:	6139      	str	r1, [r7, #16]
 800001e:	60fa      	str	r2, [r7, #12]
 8000020:	60bb      	str	r3, [r7, #8]
 8000022:	f8c7 c004 	str.w	ip, [r7, #4]
 8000026:	6938      	ldr	r0, [r7, #16]
 8000028:	f001 fd8c 	bl	8001b44 <stm32__device__enable_clock__2>
 800002c:	68f8      	ldr	r0, [r7, #12]
 800002e:	f001 fd89 	bl	8001b44 <stm32__device__enable_clock__2>
 8000032:	68b8      	ldr	r0, [r7, #8]
 8000034:	f001 fd86 	bl	8001b44 <stm32__device__enable_clock__2>
 8000038:	697b      	ldr	r3, [r7, #20]
 800003a:	2b00      	cmp	r3, #0
 800003c:	d103      	bne.n	8000046 <bno_f103__initialize_imu_io_hardware.4721+0x32>
 800003e:	482a      	ldr	r0, [pc, #168]	; (80000e8 <bno_f103__initialize_imu_io_hardware.4721+0xd4>)
 8000040:	2136      	movs	r1, #54	; 0x36
 8000042:	f001 fa9b 	bl	800157c <__gnat_last_chance_handler>
 8000046:	6978      	ldr	r0, [r7, #20]
 8000048:	f001 fdbc 	bl	8001bc4 <stm32__device__enable_clock__5>
 800004c:	697b      	ldr	r3, [r7, #20]
 800004e:	2b00      	cmp	r3, #0
 8000050:	d103      	bne.n	800005a <bno_f103__initialize_imu_io_hardware.4721+0x46>
 8000052:	4825      	ldr	r0, [pc, #148]	; (80000e8 <bno_f103__initialize_imu_io_hardware.4721+0xd4>)
 8000054:	2138      	movs	r1, #56	; 0x38
 8000056:	f001 fa91 	bl	800157c <__gnat_last_chance_handler>
 800005a:	6978      	ldr	r0, [r7, #20]
 800005c:	f001 fdec 	bl	8001c38 <stm32__device__reset__5>
 8000060:	2302      	movs	r3, #2
 8000062:	f887 3026 	strb.w	r3, [r7, #38]	; 0x26
 8000066:	2301      	movs	r3, #1
 8000068:	f887 3024 	strb.w	r3, [r7, #36]	; 0x24
 800006c:	2300      	movs	r3, #0
 800006e:	f887 3025 	strb.w	r3, [r7, #37]	; 0x25
 8000072:	2300      	movs	r3, #0
 8000074:	f887 3027 	strb.w	r3, [r7, #39]	; 0x27
 8000078:	68b8      	ldr	r0, [r7, #8]
 800007a:	6a79      	ldr	r1, [r7, #36]	; 0x24
 800007c:	f006 f984 	bl	8006388 <stm32__gpio__configure_io>
 8000080:	2302      	movs	r3, #2
 8000082:	f887 3026 	strb.w	r3, [r7, #38]	; 0x26
 8000086:	2302      	movs	r3, #2
 8000088:	f887 3024 	strb.w	r3, [r7, #36]	; 0x24
 800008c:	2301      	movs	r3, #1
 800008e:	f887 3025 	strb.w	r3, [r7, #37]	; 0x25
 8000092:	2301      	movs	r3, #1
 8000094:	f887 3027 	strb.w	r3, [r7, #39]	; 0x27
 8000098:	6938      	ldr	r0, [r7, #16]
 800009a:	6a79      	ldr	r1, [r7, #36]	; 0x24
 800009c:	f006 f974 	bl	8006388 <stm32__gpio__configure_io>
 80000a0:	68f8      	ldr	r0, [r7, #12]
 80000a2:	6a79      	ldr	r1, [r7, #36]	; 0x24
 80000a4:	f006 f970 	bl	8006388 <stm32__gpio__configure_io>
 80000a8:	697b      	ldr	r3, [r7, #20]
 80000aa:	2b00      	cmp	r3, #0
 80000ac:	d103      	bne.n	80000b6 <bno_f103__initialize_imu_io_hardware.4721+0xa2>
 80000ae:	480e      	ldr	r0, [pc, #56]	; (80000e8 <bno_f103__initialize_imu_io_hardware.4721+0xd4>)
 80000b0:	214b      	movs	r1, #75	; 0x4b
 80000b2:	f001 fa63 	bl	800157c <__gnat_last_chance_handler>
 80000b6:	4b0d      	ldr	r3, [pc, #52]	; (80000ec <bno_f103__initialize_imu_io_hardware.4721+0xd8>)
 80000b8:	61bb      	str	r3, [r7, #24]
 80000ba:	2300      	movs	r3, #0
 80000bc:	773b      	strb	r3, [r7, #28]
 80000be:	2301      	movs	r3, #1
 80000c0:	777b      	strb	r3, [r7, #29]
 80000c2:	2300      	movs	r3, #0
 80000c4:	77bb      	strb	r3, [r7, #30]
 80000c6:	2300      	movs	r3, #0
 80000c8:	843b      	strh	r3, [r7, #32]
 80000ca:	2300      	movs	r3, #0
 80000cc:	f887 3022 	strb.w	r3, [r7, #34]	; 0x22
 80000d0:	2301      	movs	r3, #1
 80000d2:	f887 3023 	strb.w	r3, [r7, #35]	; 0x23
 80000d6:	f107 0318 	add.w	r3, r7, #24
 80000da:	6978      	ldr	r0, [r7, #20]
 80000dc:	4619      	mov	r1, r3
 80000de:	f003 fe15 	bl	8003d0c <stm32__i2c__configure>
 80000e2:	3728      	adds	r7, #40	; 0x28
 80000e4:	46bd      	mov	sp, r7
 80000e6:	bd80      	pop	{r7, pc}
 80000e8:	0800a998 	.word	0x0800a998
 80000ec:	00061a80 	.word	0x00061a80

080000f0 <_ada_bno_f103>:
 80000f0:	b5f0      	push	{r4, r5, r6, r7, lr}
 80000f2:	b089      	sub	sp, #36	; 0x24
 80000f4:	af00      	add	r7, sp, #0
 80000f6:	f107 0338 	add.w	r3, r7, #56	; 0x38
 80000fa:	613b      	str	r3, [r7, #16]
 80000fc:	1d3b      	adds	r3, r7, #4
 80000fe:	4618      	mov	r0, r3
 8000100:	4916      	ldr	r1, [pc, #88]	; (800015c <_ada_bno_f103+0x6c>)
 8000102:	2201      	movs	r2, #1
 8000104:	f000 f91c 	bl	8000340 <bno055_i2c__bno055_9dof_imuIP>
 8000108:	1d3b      	adds	r3, r7, #4
 800010a:	469c      	mov	ip, r3
 800010c:	f000 f828 	bl	8000160 <bno_f103__set_up_imu.4194>
 8000110:	1d3b      	adds	r3, r7, #4
 8000112:	4618      	mov	r0, r3
 8000114:	210c      	movs	r1, #12
 8000116:	2200      	movs	r2, #0
 8000118:	2301      	movs	r3, #1
 800011a:	f000 f969 	bl	80003f0 <bno055_i2c__configure>
 800011e:	f107 0214 	add.w	r2, r7, #20
 8000122:	1d3b      	adds	r3, r7, #4
 8000124:	4610      	mov	r0, r2
 8000126:	4619      	mov	r1, r3
 8000128:	2200      	movs	r2, #0
 800012a:	f000 fca9 	bl	8000a80 <bno055_i2c__output>
 800012e:	f008 fb65 	bl	80087fc <ada__real_time__clock>
 8000132:	4605      	mov	r5, r0
 8000134:	460e      	mov	r6, r1
 8000136:	200a      	movs	r0, #10
 8000138:	f008 fba8 	bl	800888c <ada__real_time__milliseconds>
 800013c:	4603      	mov	r3, r0
 800013e:	460c      	mov	r4, r1
 8000140:	4628      	mov	r0, r5
 8000142:	4631      	mov	r1, r6
 8000144:	461a      	mov	r2, r3
 8000146:	4623      	mov	r3, r4
 8000148:	f008 fafe 	bl	8008748 <ada__real_time__Oadd>
 800014c:	4603      	mov	r3, r0
 800014e:	460c      	mov	r4, r1
 8000150:	4618      	mov	r0, r3
 8000152:	4621      	mov	r1, r4
 8000154:	f008 ff66 	bl	8009024 <ada__real_time__delays__delay_until>
 8000158:	e7e1      	b.n	800011e <_ada_bno_f103+0x2e>
 800015a:	bf00      	nop
 800015c:	20000004 	.word	0x20000004

08000160 <bno_f103__set_up_imu.4194>:
 8000160:	b5f0      	push	{r4, r5, r6, r7, lr}
 8000162:	b087      	sub	sp, #28
 8000164:	af02      	add	r7, sp, #8
 8000166:	4666      	mov	r6, ip
 8000168:	f8c7 c004 	str.w	ip, [r7, #4]
 800016c:	2300      	movs	r3, #0
 800016e:	9300      	str	r3, [sp, #0]
 8000170:	46b4      	mov	ip, r6
 8000172:	480c      	ldr	r0, [pc, #48]	; (80001a4 <bno_f103__set_up_imu.4194+0x44>)
 8000174:	490c      	ldr	r1, [pc, #48]	; (80001a8 <bno_f103__set_up_imu.4194+0x48>)
 8000176:	4a0d      	ldr	r2, [pc, #52]	; (80001ac <bno_f103__set_up_imu.4194+0x4c>)
 8000178:	4b0d      	ldr	r3, [pc, #52]	; (80001b0 <bno_f103__set_up_imu.4194+0x50>)
 800017a:	f7ff ff4b 	bl	8000014 <bno_f103__initialize_imu_io_hardware.4721>
 800017e:	4633      	mov	r3, r6
 8000180:	4618      	mov	r0, r3
 8000182:	f000 fa9d 	bl	80006c0 <bno055_i2c__device_id>
 8000186:	4603      	mov	r3, r0
 8000188:	2ba0      	cmp	r3, #160	; 0xa0
 800018a:	d008      	beq.n	800019e <bno_f103__set_up_imu.4194+0x3e>
 800018c:	4c09      	ldr	r4, [pc, #36]	; (80001b4 <bno_f103__set_up_imu.4194+0x54>)
 800018e:	4d0a      	ldr	r5, [pc, #40]	; (80001b8 <bno_f103__set_up_imu.4194+0x58>)
 8000190:	e9c7 4502 	strd	r4, r5, [r7, #8]
 8000194:	68bb      	ldr	r3, [r7, #8]
 8000196:	4618      	mov	r0, r3
 8000198:	2100      	movs	r1, #0
 800019a:	f001 f9ef 	bl	800157c <__gnat_last_chance_handler>
 800019e:	3714      	adds	r7, #20
 80001a0:	46bd      	mov	sp, r7
 80001a2:	bdf0      	pop	{r4, r5, r6, r7, pc}
 80001a4:	20000648 	.word	0x20000648
 80001a8:	200001e8 	.word	0x200001e8
 80001ac:	200001f4 	.word	0x200001f4
 80001b0:	200001dc 	.word	0x200001dc
 80001b4:	0800a9a8 	.word	0x0800a9a8
 80001b8:	0800a9b4 	.word	0x0800a9b4

080001bc <adainit>:
 80001bc:	b580      	push	{r7, lr}
 80001be:	af00      	add	r7, sp, #0
 80001c0:	bf00      	nop
 80001c2:	f009 fc8f 	bl	8009ae4 <ada__text_io___elabb>
 80001c6:	4b39      	ldr	r3, [pc, #228]	; (80002ac <adainit+0xf0>)
 80001c8:	881b      	ldrh	r3, [r3, #0]
 80001ca:	b29b      	uxth	r3, r3
 80001cc:	3301      	adds	r3, #1
 80001ce:	b29a      	uxth	r2, r3
 80001d0:	4b36      	ldr	r3, [pc, #216]	; (80002ac <adainit+0xf0>)
 80001d2:	801a      	strh	r2, [r3, #0]
 80001d4:	f008 fb78 	bl	80088c8 <ada__real_time___elabb>
 80001d8:	4b35      	ldr	r3, [pc, #212]	; (80002b0 <adainit+0xf4>)
 80001da:	881b      	ldrh	r3, [r3, #0]
 80001dc:	b29b      	uxth	r3, r3
 80001de:	3301      	adds	r3, #1
 80001e0:	b29a      	uxth	r2, r3
 80001e2:	4b33      	ldr	r3, [pc, #204]	; (80002b0 <adainit+0xf4>)
 80001e4:	801a      	strh	r2, [r3, #0]
 80001e6:	4b33      	ldr	r3, [pc, #204]	; (80002b4 <adainit+0xf8>)
 80001e8:	881b      	ldrh	r3, [r3, #0]
 80001ea:	b29b      	uxth	r3, r3
 80001ec:	3301      	adds	r3, #1
 80001ee:	b29a      	uxth	r2, r3
 80001f0:	4b30      	ldr	r3, [pc, #192]	; (80002b4 <adainit+0xf8>)
 80001f2:	801a      	strh	r2, [r3, #0]
 80001f4:	4b30      	ldr	r3, [pc, #192]	; (80002b8 <adainit+0xfc>)
 80001f6:	881b      	ldrh	r3, [r3, #0]
 80001f8:	b29b      	uxth	r3, r3
 80001fa:	3301      	adds	r3, #1
 80001fc:	b29a      	uxth	r2, r3
 80001fe:	4b2e      	ldr	r3, [pc, #184]	; (80002b8 <adainit+0xfc>)
 8000200:	801a      	strh	r2, [r3, #0]
 8000202:	4b2e      	ldr	r3, [pc, #184]	; (80002bc <adainit+0x100>)
 8000204:	881b      	ldrh	r3, [r3, #0]
 8000206:	b29b      	uxth	r3, r3
 8000208:	3301      	adds	r3, #1
 800020a:	b29a      	uxth	r2, r3
 800020c:	4b2b      	ldr	r3, [pc, #172]	; (80002bc <adainit+0x100>)
 800020e:	801a      	strh	r2, [r3, #0]
 8000210:	f008 f9a8 	bl	8008564 <stm32__adc___elabs>
 8000214:	4b2a      	ldr	r3, [pc, #168]	; (80002c0 <adainit+0x104>)
 8000216:	881b      	ldrh	r3, [r3, #0]
 8000218:	b29b      	uxth	r3, r3
 800021a:	3301      	adds	r3, #1
 800021c:	b29a      	uxth	r2, r3
 800021e:	4b28      	ldr	r3, [pc, #160]	; (80002c0 <adainit+0x104>)
 8000220:	801a      	strh	r2, [r3, #0]
 8000222:	4b28      	ldr	r3, [pc, #160]	; (80002c4 <adainit+0x108>)
 8000224:	881b      	ldrh	r3, [r3, #0]
 8000226:	b29b      	uxth	r3, r3
 8000228:	3301      	adds	r3, #1
 800022a:	b29a      	uxth	r2, r3
 800022c:	4b25      	ldr	r3, [pc, #148]	; (80002c4 <adainit+0x108>)
 800022e:	801a      	strh	r2, [r3, #0]
 8000230:	4b25      	ldr	r3, [pc, #148]	; (80002c8 <adainit+0x10c>)
 8000232:	881b      	ldrh	r3, [r3, #0]
 8000234:	b29b      	uxth	r3, r3
 8000236:	3301      	adds	r3, #1
 8000238:	b29a      	uxth	r2, r3
 800023a:	4b23      	ldr	r3, [pc, #140]	; (80002c8 <adainit+0x10c>)
 800023c:	801a      	strh	r2, [r3, #0]
 800023e:	4b23      	ldr	r3, [pc, #140]	; (80002cc <adainit+0x110>)
 8000240:	881b      	ldrh	r3, [r3, #0]
 8000242:	b29b      	uxth	r3, r3
 8000244:	3301      	adds	r3, #1
 8000246:	b29a      	uxth	r2, r3
 8000248:	4b20      	ldr	r3, [pc, #128]	; (80002cc <adainit+0x110>)
 800024a:	801a      	strh	r2, [r3, #0]
 800024c:	4b20      	ldr	r3, [pc, #128]	; (80002d0 <adainit+0x114>)
 800024e:	881b      	ldrh	r3, [r3, #0]
 8000250:	b29b      	uxth	r3, r3
 8000252:	3301      	adds	r3, #1
 8000254:	b29a      	uxth	r2, r3
 8000256:	4b1e      	ldr	r3, [pc, #120]	; (80002d0 <adainit+0x114>)
 8000258:	801a      	strh	r2, [r3, #0]
 800025a:	f001 fe2b 	bl	8001eb4 <stm32__device___elabs>
 800025e:	4b1d      	ldr	r3, [pc, #116]	; (80002d4 <adainit+0x118>)
 8000260:	881b      	ldrh	r3, [r3, #0]
 8000262:	b29b      	uxth	r3, r3
 8000264:	3301      	adds	r3, #1
 8000266:	b29a      	uxth	r2, r3
 8000268:	4b1a      	ldr	r3, [pc, #104]	; (80002d4 <adainit+0x118>)
 800026a:	801a      	strh	r2, [r3, #0]
 800026c:	4b1a      	ldr	r3, [pc, #104]	; (80002d8 <adainit+0x11c>)
 800026e:	881b      	ldrh	r3, [r3, #0]
 8000270:	b29b      	uxth	r3, r3
 8000272:	3301      	adds	r3, #1
 8000274:	b29a      	uxth	r2, r3
 8000276:	4b18      	ldr	r3, [pc, #96]	; (80002d8 <adainit+0x11c>)
 8000278:	801a      	strh	r2, [r3, #0]
 800027a:	4b18      	ldr	r3, [pc, #96]	; (80002dc <adainit+0x120>)
 800027c:	881b      	ldrh	r3, [r3, #0]
 800027e:	b29b      	uxth	r3, r3
 8000280:	3301      	adds	r3, #1
 8000282:	b29a      	uxth	r2, r3
 8000284:	4b15      	ldr	r3, [pc, #84]	; (80002dc <adainit+0x120>)
 8000286:	801a      	strh	r2, [r3, #0]
 8000288:	4b15      	ldr	r3, [pc, #84]	; (80002e0 <adainit+0x124>)
 800028a:	881b      	ldrh	r3, [r3, #0]
 800028c:	b29b      	uxth	r3, r3
 800028e:	3301      	adds	r3, #1
 8000290:	b29a      	uxth	r2, r3
 8000292:	4b13      	ldr	r3, [pc, #76]	; (80002e0 <adainit+0x124>)
 8000294:	801a      	strh	r2, [r3, #0]
 8000296:	4b13      	ldr	r3, [pc, #76]	; (80002e4 <adainit+0x128>)
 8000298:	881b      	ldrh	r3, [r3, #0]
 800029a:	b29b      	uxth	r3, r3
 800029c:	3301      	adds	r3, #1
 800029e:	b29a      	uxth	r2, r3
 80002a0:	4b10      	ldr	r3, [pc, #64]	; (80002e4 <adainit+0x128>)
 80002a2:	801a      	strh	r2, [r3, #0]
 80002a4:	f008 fb12 	bl	80088cc <__gnat_start_slave_cpus>
 80002a8:	bd80      	pop	{r7, pc}
 80002aa:	bf00      	nop
 80002ac:	200000d8 	.word	0x200000d8
 80002b0:	20000078 	.word	0x20000078
 80002b4:	20000000 	.word	0x20000000
 80002b8:	20000012 	.word	0x20000012
 80002bc:	20000014 	.word	0x20000014
 80002c0:	20000072 	.word	0x20000072
 80002c4:	20000076 	.word	0x20000076
 80002c8:	20000074 	.word	0x20000074
 80002cc:	2000006e 	.word	0x2000006e
 80002d0:	2000006c 	.word	0x2000006c
 80002d4:	20000016 	.word	0x20000016
 80002d8:	20000068 	.word	0x20000068
 80002dc:	20000070 	.word	0x20000070
 80002e0:	2000006a 	.word	0x2000006a
 80002e4:	20000010 	.word	0x20000010

080002e8 <main>:
 80002e8:	b580      	push	{r7, lr}
 80002ea:	b082      	sub	sp, #8
 80002ec:	af00      	add	r7, sp, #0
 80002ee:	4b04      	ldr	r3, [pc, #16]	; (8000300 <main+0x18>)
 80002f0:	607b      	str	r3, [r7, #4]
 80002f2:	f7ff ff63 	bl	80001bc <adainit>
 80002f6:	f7ff fefb 	bl	80000f0 <_ada_bno_f103>
 80002fa:	3708      	adds	r7, #8
 80002fc:	46bd      	mov	sp, r7
 80002fe:	bd80      	pop	{r7, pc}
 8000300:	0800a9bc 	.word	0x0800a9bc

08000304 <_ada_delay_milliseconds>:
 8000304:	b5f0      	push	{r4, r5, r6, r7, lr}
 8000306:	b083      	sub	sp, #12
 8000308:	af00      	add	r7, sp, #0
 800030a:	6078      	str	r0, [r7, #4]
 800030c:	f008 fa76 	bl	80087fc <ada__real_time__clock>
 8000310:	4605      	mov	r5, r0
 8000312:	460e      	mov	r6, r1
 8000314:	687b      	ldr	r3, [r7, #4]
 8000316:	4618      	mov	r0, r3
 8000318:	f008 fab8 	bl	800888c <ada__real_time__milliseconds>
 800031c:	4603      	mov	r3, r0
 800031e:	460c      	mov	r4, r1
 8000320:	4628      	mov	r0, r5
 8000322:	4631      	mov	r1, r6
 8000324:	461a      	mov	r2, r3
 8000326:	4623      	mov	r3, r4
 8000328:	f008 fa0e 	bl	8008748 <ada__real_time__Oadd>
 800032c:	4603      	mov	r3, r0
 800032e:	460c      	mov	r4, r1
 8000330:	4618      	mov	r0, r3
 8000332:	4621      	mov	r1, r4
 8000334:	f008 fe76 	bl	8009024 <ada__real_time__delays__delay_until>
 8000338:	370c      	adds	r7, #12
 800033a:	46bd      	mov	sp, r7
 800033c:	bdf0      	pop	{r4, r5, r6, r7, pc}
 800033e:	bf00      	nop

08000340 <bno055_i2c__bno055_9dof_imuIP>:
 8000340:	b480      	push	{r7}
 8000342:	b085      	sub	sp, #20
 8000344:	af00      	add	r7, sp, #0
 8000346:	60f8      	str	r0, [r7, #12]
 8000348:	60b9      	str	r1, [r7, #8]
 800034a:	4613      	mov	r3, r2
 800034c:	71fb      	strb	r3, [r7, #7]
 800034e:	79fb      	ldrb	r3, [r7, #7]
 8000350:	2b00      	cmp	r3, #0
 8000352:	d002      	beq.n	800035a <bno055_i2c__bno055_9dof_imuIP+0x1a>
 8000354:	68fb      	ldr	r3, [r7, #12]
 8000356:	4a06      	ldr	r2, [pc, #24]	; (8000370 <bno055_i2c__bno055_9dof_imuIP+0x30>)
 8000358:	601a      	str	r2, [r3, #0]
 800035a:	68fb      	ldr	r3, [r7, #12]
 800035c:	68ba      	ldr	r2, [r7, #8]
 800035e:	605a      	str	r2, [r3, #4]
 8000360:	68fb      	ldr	r3, [r7, #12]
 8000362:	2200      	movs	r2, #0
 8000364:	721a      	strb	r2, [r3, #8]
 8000366:	3714      	adds	r7, #20
 8000368:	46bd      	mov	sp, r7
 800036a:	f85d 7b04 	ldr.w	r7, [sp], #4
 800036e:	4770      	bx	lr
 8000370:	0800aa24 	.word	0x0800aa24

08000374 <bno055_i2c___size>:
 8000374:	b490      	push	{r4, r7}
 8000376:	b082      	sub	sp, #8
 8000378:	af00      	add	r7, sp, #0
 800037a:	6078      	str	r0, [r7, #4]
 800037c:	f04f 0360 	mov.w	r3, #96	; 0x60
 8000380:	f04f 0400 	mov.w	r4, #0
 8000384:	4618      	mov	r0, r3
 8000386:	4621      	mov	r1, r4
 8000388:	3708      	adds	r7, #8
 800038a:	46bd      	mov	sp, r7
 800038c:	bc90      	pop	{r4, r7}
 800038e:	4770      	bx	lr

08000390 <bno055_i2c__reset>:
 8000390:	b580      	push	{r7, lr}
 8000392:	b084      	sub	sp, #16
 8000394:	af00      	add	r7, sp, #0
 8000396:	6078      	str	r0, [r7, #4]
 8000398:	2320      	movs	r3, #32
 800039a:	73fb      	strb	r3, [r7, #15]
 800039c:	687b      	ldr	r3, [r7, #4]
 800039e:	685b      	ldr	r3, [r3, #4]
 80003a0:	4618      	mov	r0, r3
 80003a2:	213f      	movs	r1, #63	; 0x3f
 80003a4:	2220      	movs	r2, #32
 80003a6:	f001 fa0b 	bl	80017c0 <bno055_i2c_io__write>
 80003aa:	f240 208a 	movw	r0, #650	; 0x28a
 80003ae:	f7ff ffa9 	bl	8000304 <_ada_delay_milliseconds>
 80003b2:	3710      	adds	r7, #16
 80003b4:	46bd      	mov	sp, r7
 80003b6:	bd80      	pop	{r7, pc}

080003b8 <bno055_i2c__configure___postconditions.4982>:
 80003b8:	b5f0      	push	{r4, r5, r6, r7, lr}
 80003ba:	b083      	sub	sp, #12
 80003bc:	af00      	add	r7, sp, #0
 80003be:	4664      	mov	r4, ip
 80003c0:	f8c7 c004 	str.w	ip, [r7, #4]
 80003c4:	6823      	ldr	r3, [r4, #0]
 80003c6:	4618      	mov	r0, r3
 80003c8:	f000 f9e6 	bl	8000798 <bno055_i2c__current_mode>
 80003cc:	4603      	mov	r3, r0
 80003ce:	461a      	mov	r2, r3
 80003d0:	7923      	ldrb	r3, [r4, #4]
 80003d2:	429a      	cmp	r2, r3
 80003d4:	d005      	beq.n	80003e2 <bno055_i2c__configure___postconditions.4982+0x2a>
 80003d6:	4d04      	ldr	r5, [pc, #16]	; (80003e8 <bno055_i2c__configure___postconditions.4982+0x30>)
 80003d8:	4e04      	ldr	r6, [pc, #16]	; (80003ec <bno055_i2c__configure___postconditions.4982+0x34>)
 80003da:	4628      	mov	r0, r5
 80003dc:	4631      	mov	r1, r6
 80003de:	f009 fc4f 	bl	8009c80 <system__assertions__raise_assert_failure>
 80003e2:	370c      	adds	r7, #12
 80003e4:	46bd      	mov	sp, r7
 80003e6:	bdf0      	pop	{r4, r5, r6, r7, pc}
 80003e8:	0800aa84 	.word	0x0800aa84
 80003ec:	0800aad4 	.word	0x0800aad4

080003f0 <bno055_i2c__configure>:
 80003f0:	b580      	push	{r7, lr}
 80003f2:	b086      	sub	sp, #24
 80003f4:	af00      	add	r7, sp, #0
 80003f6:	6078      	str	r0, [r7, #4]
 80003f8:	4608      	mov	r0, r1
 80003fa:	4611      	mov	r1, r2
 80003fc:	461a      	mov	r2, r3
 80003fe:	4603      	mov	r3, r0
 8000400:	70fb      	strb	r3, [r7, #3]
 8000402:	460b      	mov	r3, r1
 8000404:	70bb      	strb	r3, [r7, #2]
 8000406:	4613      	mov	r3, r2
 8000408:	707b      	strb	r3, [r7, #1]
 800040a:	f107 0320 	add.w	r3, r7, #32
 800040e:	617b      	str	r3, [r7, #20]
 8000410:	687b      	ldr	r3, [r7, #4]
 8000412:	60fb      	str	r3, [r7, #12]
 8000414:	78fb      	ldrb	r3, [r7, #3]
 8000416:	743b      	strb	r3, [r7, #16]
 8000418:	68fb      	ldr	r3, [r7, #12]
 800041a:	4618      	mov	r0, r3
 800041c:	2100      	movs	r1, #0
 800041e:	f000 f97d 	bl	800071c <bno055_i2c__set_mode>
 8000422:	68fb      	ldr	r3, [r7, #12]
 8000424:	685b      	ldr	r3, [r3, #4]
 8000426:	4618      	mov	r0, r3
 8000428:	2107      	movs	r1, #7
 800042a:	2200      	movs	r2, #0
 800042c:	f001 f9c8 	bl	80017c0 <bno055_i2c_io__write>
 8000430:	200a      	movs	r0, #10
 8000432:	f7ff ff67 	bl	8000304 <_ada_delay_milliseconds>
 8000436:	68fb      	ldr	r3, [r7, #12]
 8000438:	685a      	ldr	r2, [r3, #4]
 800043a:	78bb      	ldrb	r3, [r7, #2]
 800043c:	4610      	mov	r0, r2
 800043e:	213e      	movs	r1, #62	; 0x3e
 8000440:	461a      	mov	r2, r3
 8000442:	f001 f9bd 	bl	80017c0 <bno055_i2c_io__write>
 8000446:	200a      	movs	r0, #10
 8000448:	f7ff ff5c 	bl	8000304 <_ada_delay_milliseconds>
 800044c:	787b      	ldrb	r3, [r7, #1]
 800044e:	2b00      	cmp	r3, #0
 8000450:	d007      	beq.n	8000462 <bno055_i2c__configure+0x72>
 8000452:	68fb      	ldr	r3, [r7, #12]
 8000454:	685b      	ldr	r3, [r3, #4]
 8000456:	4618      	mov	r0, r3
 8000458:	213f      	movs	r1, #63	; 0x3f
 800045a:	2280      	movs	r2, #128	; 0x80
 800045c:	f001 f9b0 	bl	80017c0 <bno055_i2c_io__write>
 8000460:	e006      	b.n	8000470 <bno055_i2c__configure+0x80>
 8000462:	68fb      	ldr	r3, [r7, #12]
 8000464:	685b      	ldr	r3, [r3, #4]
 8000466:	4618      	mov	r0, r3
 8000468:	213f      	movs	r1, #63	; 0x3f
 800046a:	2200      	movs	r2, #0
 800046c:	f001 f9a8 	bl	80017c0 <bno055_i2c_io__write>
 8000470:	200a      	movs	r0, #10
 8000472:	f7ff ff47 	bl	8000304 <_ada_delay_milliseconds>
 8000476:	68fa      	ldr	r2, [r7, #12]
 8000478:	7c3b      	ldrb	r3, [r7, #16]
 800047a:	4610      	mov	r0, r2
 800047c:	4619      	mov	r1, r3
 800047e:	f000 f94d 	bl	800071c <bno055_i2c__set_mode>
 8000482:	f107 030c 	add.w	r3, r7, #12
 8000486:	469c      	mov	ip, r3
 8000488:	f7ff ff96 	bl	80003b8 <bno055_i2c__configure___postconditions.4982>
 800048c:	3718      	adds	r7, #24
 800048e:	46bd      	mov	sp, r7
 8000490:	bd80      	pop	{r7, pc}
 8000492:	bf00      	nop

08000494 <bno055_i2c__set_acceleration_units___postconditions.4989>:
 8000494:	b5f0      	push	{r4, r5, r6, r7, lr}
 8000496:	b083      	sub	sp, #12
 8000498:	af00      	add	r7, sp, #0
 800049a:	4664      	mov	r4, ip
 800049c:	f8c7 c004 	str.w	ip, [r7, #4]
 80004a0:	6823      	ldr	r3, [r4, #0]
 80004a2:	4618      	mov	r0, r3
 80004a4:	f000 f8d8 	bl	8000658 <bno055_i2c__selected_acceleration_units>
 80004a8:	4603      	mov	r3, r0
 80004aa:	461a      	mov	r2, r3
 80004ac:	7923      	ldrb	r3, [r4, #4]
 80004ae:	429a      	cmp	r2, r3
 80004b0:	d005      	beq.n	80004be <bno055_i2c__set_acceleration_units___postconditions.4989+0x2a>
 80004b2:	4d04      	ldr	r5, [pc, #16]	; (80004c4 <bno055_i2c__set_acceleration_units___postconditions.4989+0x30>)
 80004b4:	4e04      	ldr	r6, [pc, #16]	; (80004c8 <bno055_i2c__set_acceleration_units___postconditions.4989+0x34>)
 80004b6:	4628      	mov	r0, r5
 80004b8:	4631      	mov	r1, r6
 80004ba:	f009 fbe1 	bl	8009c80 <system__assertions__raise_assert_failure>
 80004be:	370c      	adds	r7, #12
 80004c0:	46bd      	mov	sp, r7
 80004c2:	bdf0      	pop	{r4, r5, r6, r7, pc}
 80004c4:	0800aadc 	.word	0x0800aadc
 80004c8:	0800aad4 	.word	0x0800aad4

080004cc <bno055_i2c__set_acceleration_units>:
 80004cc:	b580      	push	{r7, lr}
 80004ce:	b086      	sub	sp, #24
 80004d0:	af00      	add	r7, sp, #0
 80004d2:	6078      	str	r0, [r7, #4]
 80004d4:	460b      	mov	r3, r1
 80004d6:	70fb      	strb	r3, [r7, #3]
 80004d8:	f107 0320 	add.w	r3, r7, #32
 80004dc:	617b      	str	r3, [r7, #20]
 80004de:	687b      	ldr	r3, [r7, #4]
 80004e0:	60fb      	str	r3, [r7, #12]
 80004e2:	78fb      	ldrb	r3, [r7, #3]
 80004e4:	743b      	strb	r3, [r7, #16]
 80004e6:	68fa      	ldr	r2, [r7, #12]
 80004e8:	7c3b      	ldrb	r3, [r7, #16]
 80004ea:	4610      	mov	r0, r2
 80004ec:	4619      	mov	r1, r3
 80004ee:	2201      	movs	r2, #1
 80004f0:	f000 ff04 	bl	80012fc <bno055_i2c__set_units_register>
 80004f4:	f107 030c 	add.w	r3, r7, #12
 80004f8:	469c      	mov	ip, r3
 80004fa:	f7ff ffcb 	bl	8000494 <bno055_i2c__set_acceleration_units___postconditions.4989>
 80004fe:	3718      	adds	r7, #24
 8000500:	46bd      	mov	sp, r7
 8000502:	bd80      	pop	{r7, pc}

08000504 <bno055_i2c__set_angular_rate_units>:
 8000504:	b580      	push	{r7, lr}
 8000506:	b082      	sub	sp, #8
 8000508:	af00      	add	r7, sp, #0
 800050a:	6078      	str	r0, [r7, #4]
 800050c:	460b      	mov	r3, r1
 800050e:	70fb      	strb	r3, [r7, #3]
 8000510:	78fb      	ldrb	r3, [r7, #3]
 8000512:	6878      	ldr	r0, [r7, #4]
 8000514:	4619      	mov	r1, r3
 8000516:	2202      	movs	r2, #2
 8000518:	f000 fef0 	bl	80012fc <bno055_i2c__set_units_register>
 800051c:	3708      	adds	r7, #8
 800051e:	46bd      	mov	sp, r7
 8000520:	bd80      	pop	{r7, pc}
 8000522:	bf00      	nop

08000524 <bno055_i2c__set_euler_angle_units___postconditions.4993>:
 8000524:	b5f0      	push	{r4, r5, r6, r7, lr}
 8000526:	b083      	sub	sp, #12
 8000528:	af00      	add	r7, sp, #0
 800052a:	4664      	mov	r4, ip
 800052c:	f8c7 c004 	str.w	ip, [r7, #4]
 8000530:	6823      	ldr	r3, [r4, #0]
 8000532:	4618      	mov	r0, r3
 8000534:	f000 f876 	bl	8000624 <bno055_i2c__selected_euler_units>
 8000538:	4603      	mov	r3, r0
 800053a:	461a      	mov	r2, r3
 800053c:	7923      	ldrb	r3, [r4, #4]
 800053e:	429a      	cmp	r2, r3
 8000540:	d005      	beq.n	800054e <bno055_i2c__set_euler_angle_units___postconditions.4993+0x2a>
 8000542:	4d04      	ldr	r5, [pc, #16]	; (8000554 <bno055_i2c__set_euler_angle_units___postconditions.4993+0x30>)
 8000544:	4e04      	ldr	r6, [pc, #16]	; (8000558 <bno055_i2c__set_euler_angle_units___postconditions.4993+0x34>)
 8000546:	4628      	mov	r0, r5
 8000548:	4631      	mov	r1, r6
 800054a:	f009 fb99 	bl	8009c80 <system__assertions__raise_assert_failure>
 800054e:	370c      	adds	r7, #12
 8000550:	46bd      	mov	sp, r7
 8000552:	bdf0      	pop	{r4, r5, r6, r7, pc}
 8000554:	0800ab2c 	.word	0x0800ab2c
 8000558:	0800aad4 	.word	0x0800aad4

0800055c <bno055_i2c__set_euler_angle_units>:
 800055c:	b580      	push	{r7, lr}
 800055e:	b086      	sub	sp, #24
 8000560:	af00      	add	r7, sp, #0
 8000562:	6078      	str	r0, [r7, #4]
 8000564:	460b      	mov	r3, r1
 8000566:	70fb      	strb	r3, [r7, #3]
 8000568:	f107 0320 	add.w	r3, r7, #32
 800056c:	617b      	str	r3, [r7, #20]
 800056e:	687b      	ldr	r3, [r7, #4]
 8000570:	60fb      	str	r3, [r7, #12]
 8000572:	78fb      	ldrb	r3, [r7, #3]
 8000574:	743b      	strb	r3, [r7, #16]
 8000576:	68fa      	ldr	r2, [r7, #12]
 8000578:	7c3b      	ldrb	r3, [r7, #16]
 800057a:	4610      	mov	r0, r2
 800057c:	4619      	mov	r1, r3
 800057e:	2204      	movs	r2, #4
 8000580:	f000 febc 	bl	80012fc <bno055_i2c__set_units_register>
 8000584:	f107 030c 	add.w	r3, r7, #12
 8000588:	469c      	mov	ip, r3
 800058a:	f7ff ffcb 	bl	8000524 <bno055_i2c__set_euler_angle_units___postconditions.4993>
 800058e:	3718      	adds	r7, #24
 8000590:	46bd      	mov	sp, r7
 8000592:	bd80      	pop	{r7, pc}

08000594 <bno055_i2c__set_temperature_units___postconditions.4997>:
 8000594:	b5f0      	push	{r4, r5, r6, r7, lr}
 8000596:	b083      	sub	sp, #12
 8000598:	af00      	add	r7, sp, #0
 800059a:	4664      	mov	r4, ip
 800059c:	f8c7 c004 	str.w	ip, [r7, #4]
 80005a0:	6823      	ldr	r3, [r4, #0]
 80005a2:	4618      	mov	r0, r3
 80005a4:	f000 f872 	bl	800068c <bno055_i2c__selected_temperature_units>
 80005a8:	4603      	mov	r3, r0
 80005aa:	461a      	mov	r2, r3
 80005ac:	7923      	ldrb	r3, [r4, #4]
 80005ae:	429a      	cmp	r2, r3
 80005b0:	d005      	beq.n	80005be <bno055_i2c__set_temperature_units___postconditions.4997+0x2a>
 80005b2:	4d04      	ldr	r5, [pc, #16]	; (80005c4 <bno055_i2c__set_temperature_units___postconditions.4997+0x30>)
 80005b4:	4e04      	ldr	r6, [pc, #16]	; (80005c8 <bno055_i2c__set_temperature_units___postconditions.4997+0x34>)
 80005b6:	4628      	mov	r0, r5
 80005b8:	4631      	mov	r1, r6
 80005ba:	f009 fb61 	bl	8009c80 <system__assertions__raise_assert_failure>
 80005be:	370c      	adds	r7, #12
 80005c0:	46bd      	mov	sp, r7
 80005c2:	bdf0      	pop	{r4, r5, r6, r7, pc}
 80005c4:	0800ab7c 	.word	0x0800ab7c
 80005c8:	0800aad4 	.word	0x0800aad4

080005cc <bno055_i2c__set_temperature_units>:
 80005cc:	b580      	push	{r7, lr}
 80005ce:	b086      	sub	sp, #24
 80005d0:	af00      	add	r7, sp, #0
 80005d2:	6078      	str	r0, [r7, #4]
 80005d4:	460b      	mov	r3, r1
 80005d6:	70fb      	strb	r3, [r7, #3]
 80005d8:	f107 0320 	add.w	r3, r7, #32
 80005dc:	617b      	str	r3, [r7, #20]
 80005de:	687b      	ldr	r3, [r7, #4]
 80005e0:	60fb      	str	r3, [r7, #12]
 80005e2:	78fb      	ldrb	r3, [r7, #3]
 80005e4:	743b      	strb	r3, [r7, #16]
 80005e6:	68fa      	ldr	r2, [r7, #12]
 80005e8:	7c3b      	ldrb	r3, [r7, #16]
 80005ea:	4610      	mov	r0, r2
 80005ec:	4619      	mov	r1, r3
 80005ee:	2210      	movs	r2, #16
 80005f0:	f000 fe84 	bl	80012fc <bno055_i2c__set_units_register>
 80005f4:	f107 030c 	add.w	r3, r7, #12
 80005f8:	469c      	mov	ip, r3
 80005fa:	f7ff ffcb 	bl	8000594 <bno055_i2c__set_temperature_units___postconditions.4997>
 80005fe:	3718      	adds	r7, #24
 8000600:	46bd      	mov	sp, r7
 8000602:	bd80      	pop	{r7, pc}

08000604 <bno055_i2c__set_pitch_rotation>:
 8000604:	b580      	push	{r7, lr}
 8000606:	b082      	sub	sp, #8
 8000608:	af00      	add	r7, sp, #0
 800060a:	6078      	str	r0, [r7, #4]
 800060c:	460b      	mov	r3, r1
 800060e:	70fb      	strb	r3, [r7, #3]
 8000610:	78fb      	ldrb	r3, [r7, #3]
 8000612:	6878      	ldr	r0, [r7, #4]
 8000614:	4619      	mov	r1, r3
 8000616:	2280      	movs	r2, #128	; 0x80
 8000618:	f000 fe70 	bl	80012fc <bno055_i2c__set_units_register>
 800061c:	3708      	adds	r7, #8
 800061e:	46bd      	mov	sp, r7
 8000620:	bd80      	pop	{r7, pc}
 8000622:	bf00      	nop

08000624 <bno055_i2c__selected_euler_units>:
 8000624:	b580      	push	{r7, lr}
 8000626:	b084      	sub	sp, #16
 8000628:	af00      	add	r7, sp, #0
 800062a:	6078      	str	r0, [r7, #4]
 800062c:	687b      	ldr	r3, [r7, #4]
 800062e:	685b      	ldr	r3, [r3, #4]
 8000630:	4618      	mov	r0, r3
 8000632:	213b      	movs	r1, #59	; 0x3b
 8000634:	f001 f822 	bl	800167c <bno055_i2c_io__read>
 8000638:	4603      	mov	r3, r0
 800063a:	73fb      	strb	r3, [r7, #15]
 800063c:	7bfb      	ldrb	r3, [r7, #15]
 800063e:	f003 0304 	and.w	r3, r3, #4
 8000642:	b2db      	uxtb	r3, r3
 8000644:	2b00      	cmp	r3, #0
 8000646:	d101      	bne.n	800064c <bno055_i2c__selected_euler_units+0x28>
 8000648:	2300      	movs	r3, #0
 800064a:	e000      	b.n	800064e <bno055_i2c__selected_euler_units+0x2a>
 800064c:	2304      	movs	r3, #4
 800064e:	bf00      	nop
 8000650:	4618      	mov	r0, r3
 8000652:	3710      	adds	r7, #16
 8000654:	46bd      	mov	sp, r7
 8000656:	bd80      	pop	{r7, pc}

08000658 <bno055_i2c__selected_acceleration_units>:
 8000658:	b580      	push	{r7, lr}
 800065a:	b084      	sub	sp, #16
 800065c:	af00      	add	r7, sp, #0
 800065e:	6078      	str	r0, [r7, #4]
 8000660:	687b      	ldr	r3, [r7, #4]
 8000662:	685b      	ldr	r3, [r3, #4]
 8000664:	4618      	mov	r0, r3
 8000666:	213b      	movs	r1, #59	; 0x3b
 8000668:	f001 f808 	bl	800167c <bno055_i2c_io__read>
 800066c:	4603      	mov	r3, r0
 800066e:	73fb      	strb	r3, [r7, #15]
 8000670:	7bfb      	ldrb	r3, [r7, #15]
 8000672:	f003 0301 	and.w	r3, r3, #1
 8000676:	b2db      	uxtb	r3, r3
 8000678:	2b00      	cmp	r3, #0
 800067a:	d101      	bne.n	8000680 <bno055_i2c__selected_acceleration_units+0x28>
 800067c:	2300      	movs	r3, #0
 800067e:	e000      	b.n	8000682 <bno055_i2c__selected_acceleration_units+0x2a>
 8000680:	2301      	movs	r3, #1
 8000682:	bf00      	nop
 8000684:	4618      	mov	r0, r3
 8000686:	3710      	adds	r7, #16
 8000688:	46bd      	mov	sp, r7
 800068a:	bd80      	pop	{r7, pc}

0800068c <bno055_i2c__selected_temperature_units>:
 800068c:	b580      	push	{r7, lr}
 800068e:	b084      	sub	sp, #16
 8000690:	af00      	add	r7, sp, #0
 8000692:	6078      	str	r0, [r7, #4]
 8000694:	687b      	ldr	r3, [r7, #4]
 8000696:	685b      	ldr	r3, [r3, #4]
 8000698:	4618      	mov	r0, r3
 800069a:	213b      	movs	r1, #59	; 0x3b
 800069c:	f000 ffee 	bl	800167c <bno055_i2c_io__read>
 80006a0:	4603      	mov	r3, r0
 80006a2:	73fb      	strb	r3, [r7, #15]
 80006a4:	7bfb      	ldrb	r3, [r7, #15]
 80006a6:	f003 0310 	and.w	r3, r3, #16
 80006aa:	b2db      	uxtb	r3, r3
 80006ac:	2b00      	cmp	r3, #0
 80006ae:	d001      	beq.n	80006b4 <bno055_i2c__selected_temperature_units+0x28>
 80006b0:	2310      	movs	r3, #16
 80006b2:	e000      	b.n	80006b6 <bno055_i2c__selected_temperature_units+0x2a>
 80006b4:	2300      	movs	r3, #0
 80006b6:	bf00      	nop
 80006b8:	4618      	mov	r0, r3
 80006ba:	3710      	adds	r7, #16
 80006bc:	46bd      	mov	sp, r7
 80006be:	bd80      	pop	{r7, pc}

080006c0 <bno055_i2c__device_id>:
 80006c0:	b580      	push	{r7, lr}
 80006c2:	b084      	sub	sp, #16
 80006c4:	af00      	add	r7, sp, #0
 80006c6:	6078      	str	r0, [r7, #4]
 80006c8:	687b      	ldr	r3, [r7, #4]
 80006ca:	685b      	ldr	r3, [r3, #4]
 80006cc:	4618      	mov	r0, r3
 80006ce:	2100      	movs	r1, #0
 80006d0:	f000 ffd4 	bl	800167c <bno055_i2c_io__read>
 80006d4:	4603      	mov	r3, r0
 80006d6:	73fb      	strb	r3, [r7, #15]
 80006d8:	7bfb      	ldrb	r3, [r7, #15]
 80006da:	bf00      	nop
 80006dc:	4618      	mov	r0, r3
 80006de:	3710      	adds	r7, #16
 80006e0:	46bd      	mov	sp, r7
 80006e2:	bd80      	pop	{r7, pc}

080006e4 <bno055_i2c__set_mode___postconditions.5010>:
 80006e4:	b5f0      	push	{r4, r5, r6, r7, lr}
 80006e6:	b083      	sub	sp, #12
 80006e8:	af00      	add	r7, sp, #0
 80006ea:	4664      	mov	r4, ip
 80006ec:	f8c7 c004 	str.w	ip, [r7, #4]
 80006f0:	6823      	ldr	r3, [r4, #0]
 80006f2:	4618      	mov	r0, r3
 80006f4:	f000 f850 	bl	8000798 <bno055_i2c__current_mode>
 80006f8:	4603      	mov	r3, r0
 80006fa:	461a      	mov	r2, r3
 80006fc:	7923      	ldrb	r3, [r4, #4]
 80006fe:	429a      	cmp	r2, r3
 8000700:	d005      	beq.n	800070e <bno055_i2c__set_mode___postconditions.5010+0x2a>
 8000702:	4d04      	ldr	r5, [pc, #16]	; (8000714 <bno055_i2c__set_mode___postconditions.5010+0x30>)
 8000704:	4e04      	ldr	r6, [pc, #16]	; (8000718 <bno055_i2c__set_mode___postconditions.5010+0x34>)
 8000706:	4628      	mov	r0, r5
 8000708:	4631      	mov	r1, r6
 800070a:	f009 fab9 	bl	8009c80 <system__assertions__raise_assert_failure>
 800070e:	370c      	adds	r7, #12
 8000710:	46bd      	mov	sp, r7
 8000712:	bdf0      	pop	{r4, r5, r6, r7, pc}
 8000714:	0800abcc 	.word	0x0800abcc
 8000718:	0800aad4 	.word	0x0800aad4

0800071c <bno055_i2c__set_mode>:
 800071c:	b580      	push	{r7, lr}
 800071e:	b086      	sub	sp, #24
 8000720:	af00      	add	r7, sp, #0
 8000722:	6078      	str	r0, [r7, #4]
 8000724:	460b      	mov	r3, r1
 8000726:	70fb      	strb	r3, [r7, #3]
 8000728:	f107 0320 	add.w	r3, r7, #32
 800072c:	617b      	str	r3, [r7, #20]
 800072e:	687b      	ldr	r3, [r7, #4]
 8000730:	60fb      	str	r3, [r7, #12]
 8000732:	78fb      	ldrb	r3, [r7, #3]
 8000734:	743b      	strb	r3, [r7, #16]
 8000736:	68fb      	ldr	r3, [r7, #12]
 8000738:	7a1b      	ldrb	r3, [r3, #8]
 800073a:	2b00      	cmp	r3, #0
 800073c:	d10b      	bne.n	8000756 <bno055_i2c__set_mode+0x3a>
 800073e:	68fb      	ldr	r3, [r7, #12]
 8000740:	685a      	ldr	r2, [r3, #4]
 8000742:	7c3b      	ldrb	r3, [r7, #16]
 8000744:	4610      	mov	r0, r2
 8000746:	213d      	movs	r1, #61	; 0x3d
 8000748:	461a      	mov	r2, r3
 800074a:	f001 f839 	bl	80017c0 <bno055_i2c_io__write>
 800074e:	2008      	movs	r0, #8
 8000750:	f7ff fdd8 	bl	8000304 <_ada_delay_milliseconds>
 8000754:	e014      	b.n	8000780 <bno055_i2c__set_mode+0x64>
 8000756:	68fb      	ldr	r3, [r7, #12]
 8000758:	685b      	ldr	r3, [r3, #4]
 800075a:	4618      	mov	r0, r3
 800075c:	213d      	movs	r1, #61	; 0x3d
 800075e:	2200      	movs	r2, #0
 8000760:	f001 f82e 	bl	80017c0 <bno055_i2c_io__write>
 8000764:	2014      	movs	r0, #20
 8000766:	f7ff fdcd 	bl	8000304 <_ada_delay_milliseconds>
 800076a:	68fb      	ldr	r3, [r7, #12]
 800076c:	685a      	ldr	r2, [r3, #4]
 800076e:	7c3b      	ldrb	r3, [r7, #16]
 8000770:	4610      	mov	r0, r2
 8000772:	213d      	movs	r1, #61	; 0x3d
 8000774:	461a      	mov	r2, r3
 8000776:	f001 f823 	bl	80017c0 <bno055_i2c_io__write>
 800077a:	2008      	movs	r0, #8
 800077c:	f7ff fdc2 	bl	8000304 <_ada_delay_milliseconds>
 8000780:	7c3a      	ldrb	r2, [r7, #16]
 8000782:	68fb      	ldr	r3, [r7, #12]
 8000784:	721a      	strb	r2, [r3, #8]
 8000786:	f107 030c 	add.w	r3, r7, #12
 800078a:	469c      	mov	ip, r3
 800078c:	f7ff ffaa 	bl	80006e4 <bno055_i2c__set_mode___postconditions.5010>
 8000790:	3718      	adds	r7, #24
 8000792:	46bd      	mov	sp, r7
 8000794:	bd80      	pop	{r7, pc}
 8000796:	bf00      	nop

08000798 <bno055_i2c__current_mode>:
 8000798:	b580      	push	{r7, lr}
 800079a:	b084      	sub	sp, #16
 800079c:	af00      	add	r7, sp, #0
 800079e:	6078      	str	r0, [r7, #4]
 80007a0:	2300      	movs	r3, #0
 80007a2:	73fb      	strb	r3, [r7, #15]
 80007a4:	687b      	ldr	r3, [r7, #4]
 80007a6:	685b      	ldr	r3, [r3, #4]
 80007a8:	4618      	mov	r0, r3
 80007aa:	2107      	movs	r1, #7
 80007ac:	2200      	movs	r2, #0
 80007ae:	f001 f807 	bl	80017c0 <bno055_i2c_io__write>
 80007b2:	200a      	movs	r0, #10
 80007b4:	f7ff fda6 	bl	8000304 <_ada_delay_milliseconds>
 80007b8:	687b      	ldr	r3, [r7, #4]
 80007ba:	685b      	ldr	r3, [r3, #4]
 80007bc:	4618      	mov	r0, r3
 80007be:	213d      	movs	r1, #61	; 0x3d
 80007c0:	f000 ff5c 	bl	800167c <bno055_i2c_io__read>
 80007c4:	4603      	mov	r3, r0
 80007c6:	73fb      	strb	r3, [r7, #15]
 80007c8:	7bfb      	ldrb	r3, [r7, #15]
 80007ca:	f003 030f 	and.w	r3, r3, #15
 80007ce:	b2db      	uxtb	r3, r3
 80007d0:	2b0c      	cmp	r3, #12
 80007d2:	d904      	bls.n	80007de <bno055_i2c__current_mode+0x46>
 80007d4:	4804      	ldr	r0, [pc, #16]	; (80007e8 <bno055_i2c__current_mode+0x50>)
 80007d6:	f44f 7188 	mov.w	r1, #272	; 0x110
 80007da:	f000 fecf 	bl	800157c <__gnat_last_chance_handler>
 80007de:	bf00      	nop
 80007e0:	4618      	mov	r0, r3
 80007e2:	3710      	adds	r7, #16
 80007e4:	46bd      	mov	sp, r7
 80007e6:	bd80      	pop	{r7, pc}
 80007e8:	0800ac1c 	.word	0x0800ac1c

080007ec <bno055_i2c__get_revision_info>:
 80007ec:	b580      	push	{r7, lr}
 80007ee:	b082      	sub	sp, #8
 80007f0:	af00      	add	r7, sp, #0
 80007f2:	6078      	str	r0, [r7, #4]
 80007f4:	6039      	str	r1, [r7, #0]
 80007f6:	687b      	ldr	r3, [r7, #4]
 80007f8:	685b      	ldr	r3, [r3, #4]
 80007fa:	4618      	mov	r0, r3
 80007fc:	2101      	movs	r1, #1
 80007fe:	f000 ff3d 	bl	800167c <bno055_i2c_io__read>
 8000802:	4603      	mov	r3, r0
 8000804:	461a      	mov	r2, r3
 8000806:	683b      	ldr	r3, [r7, #0]
 8000808:	701a      	strb	r2, [r3, #0]
 800080a:	687b      	ldr	r3, [r7, #4]
 800080c:	685b      	ldr	r3, [r3, #4]
 800080e:	4618      	mov	r0, r3
 8000810:	2102      	movs	r1, #2
 8000812:	f000 ff33 	bl	800167c <bno055_i2c_io__read>
 8000816:	4603      	mov	r3, r0
 8000818:	461a      	mov	r2, r3
 800081a:	683b      	ldr	r3, [r7, #0]
 800081c:	705a      	strb	r2, [r3, #1]
 800081e:	687b      	ldr	r3, [r7, #4]
 8000820:	685b      	ldr	r3, [r3, #4]
 8000822:	4618      	mov	r0, r3
 8000824:	2103      	movs	r1, #3
 8000826:	f000 ff29 	bl	800167c <bno055_i2c_io__read>
 800082a:	4603      	mov	r3, r0
 800082c:	461a      	mov	r2, r3
 800082e:	683b      	ldr	r3, [r7, #0]
 8000830:	709a      	strb	r2, [r3, #2]
 8000832:	687b      	ldr	r3, [r7, #4]
 8000834:	685b      	ldr	r3, [r3, #4]
 8000836:	4618      	mov	r0, r3
 8000838:	2106      	movs	r1, #6
 800083a:	f000 ff1f 	bl	800167c <bno055_i2c_io__read>
 800083e:	4603      	mov	r3, r0
 8000840:	461a      	mov	r2, r3
 8000842:	683b      	ldr	r3, [r7, #0]
 8000844:	719a      	strb	r2, [r3, #6]
 8000846:	6878      	ldr	r0, [r7, #4]
 8000848:	2105      	movs	r1, #5
 800084a:	2204      	movs	r2, #4
 800084c:	f000 fe02 	bl	8001454 <bno055_i2c__value_at>
 8000850:	4603      	mov	r3, r0
 8000852:	461a      	mov	r2, r3
 8000854:	683b      	ldr	r3, [r7, #0]
 8000856:	809a      	strh	r2, [r3, #4]
 8000858:	3708      	adds	r7, #8
 800085a:	46bd      	mov	sp, r7
 800085c:	bd80      	pop	{r7, pc}
 800085e:	bf00      	nop

08000860 <bno055_i2c__get_status>:
 8000860:	b590      	push	{r4, r7, lr}
 8000862:	b085      	sub	sp, #20
 8000864:	af00      	add	r7, sp, #0
 8000866:	6078      	str	r0, [r7, #4]
 8000868:	7039      	strb	r1, [r7, #0]
 800086a:	687b      	ldr	r3, [r7, #4]
 800086c:	685b      	ldr	r3, [r3, #4]
 800086e:	4618      	mov	r0, r3
 8000870:	2139      	movs	r1, #57	; 0x39
 8000872:	f000 ff03 	bl	800167c <bno055_i2c_io__read>
 8000876:	4603      	mov	r3, r0
 8000878:	73fb      	strb	r3, [r7, #15]
 800087a:	7bfb      	ldrb	r3, [r7, #15]
 800087c:	2b06      	cmp	r3, #6
 800087e:	d904      	bls.n	800088a <bno055_i2c__get_status+0x2a>
 8000880:	4818      	ldr	r0, [pc, #96]	; (80008e4 <bno055_i2c__get_status+0x84>)
 8000882:	f44f 7198 	mov.w	r1, #304	; 0x130
 8000886:	f000 fe79 	bl	800157c <__gnat_last_chance_handler>
 800088a:	7bfb      	ldrb	r3, [r7, #15]
 800088c:	73bb      	strb	r3, [r7, #14]
 800088e:	687b      	ldr	r3, [r7, #4]
 8000890:	685b      	ldr	r3, [r3, #4]
 8000892:	4618      	mov	r0, r3
 8000894:	2136      	movs	r1, #54	; 0x36
 8000896:	f000 fef1 	bl	800167c <bno055_i2c_io__read>
 800089a:	4603      	mov	r3, r0
 800089c:	73fb      	strb	r3, [r7, #15]
 800089e:	7bfb      	ldrb	r3, [r7, #15]
 80008a0:	703b      	strb	r3, [r7, #0]
 80008a2:	687b      	ldr	r3, [r7, #4]
 80008a4:	685b      	ldr	r3, [r3, #4]
 80008a6:	4618      	mov	r0, r3
 80008a8:	213a      	movs	r1, #58	; 0x3a
 80008aa:	f000 fee7 	bl	800167c <bno055_i2c_io__read>
 80008ae:	4603      	mov	r3, r0
 80008b0:	73fb      	strb	r3, [r7, #15]
 80008b2:	7bfb      	ldrb	r3, [r7, #15]
 80008b4:	2b0a      	cmp	r3, #10
 80008b6:	d904      	bls.n	80008c2 <bno055_i2c__get_status+0x62>
 80008b8:	480a      	ldr	r0, [pc, #40]	; (80008e4 <bno055_i2c__get_status+0x84>)
 80008ba:	f44f 719a 	mov.w	r1, #308	; 0x134
 80008be:	f000 fe5d 	bl	800157c <__gnat_last_chance_handler>
 80008c2:	7bfb      	ldrb	r3, [r7, #15]
 80008c4:	737b      	strb	r3, [r7, #13]
 80008c6:	7bbb      	ldrb	r3, [r7, #14]
 80008c8:	f363 0407 	bfi	r4, r3, #0, #8
 80008cc:	783b      	ldrb	r3, [r7, #0]
 80008ce:	f363 240f 	bfi	r4, r3, #8, #8
 80008d2:	7b7b      	ldrb	r3, [r7, #13]
 80008d4:	f363 4417 	bfi	r4, r3, #16, #8
 80008d8:	4623      	mov	r3, r4
 80008da:	4618      	mov	r0, r3
 80008dc:	3714      	adds	r7, #20
 80008de:	46bd      	mov	sp, r7
 80008e0:	bd90      	pop	{r4, r7, pc}
 80008e2:	bf00      	nop
 80008e4:	0800ac1c 	.word	0x0800ac1c

080008e8 <bno055_i2c__sensor_calibration>:
 80008e8:	b580      	push	{r7, lr}
 80008ea:	b086      	sub	sp, #24
 80008ec:	af00      	add	r7, sp, #0
 80008ee:	6078      	str	r0, [r7, #4]
 80008f0:	687b      	ldr	r3, [r7, #4]
 80008f2:	685b      	ldr	r3, [r3, #4]
 80008f4:	4618      	mov	r0, r3
 80008f6:	2135      	movs	r1, #53	; 0x35
 80008f8:	f000 fec0 	bl	800167c <bno055_i2c_io__read>
 80008fc:	4603      	mov	r3, r0
 80008fe:	75fb      	strb	r3, [r7, #23]
 8000900:	7dfb      	ldrb	r3, [r7, #23]
 8000902:	099b      	lsrs	r3, r3, #6
 8000904:	b2db      	uxtb	r3, r3
 8000906:	2b03      	cmp	r3, #3
 8000908:	d904      	bls.n	8000914 <bno055_i2c__sensor_calibration+0x2c>
 800090a:	4821      	ldr	r0, [pc, #132]	; (8000990 <bno055_i2c__sensor_calibration+0xa8>)
 800090c:	f240 1141 	movw	r1, #321	; 0x141
 8000910:	f000 fe34 	bl	800157c <__gnat_last_chance_handler>
 8000914:	733b      	strb	r3, [r7, #12]
 8000916:	7dfb      	ldrb	r3, [r7, #23]
 8000918:	091b      	lsrs	r3, r3, #4
 800091a:	b2db      	uxtb	r3, r3
 800091c:	f003 0303 	and.w	r3, r3, #3
 8000920:	b2db      	uxtb	r3, r3
 8000922:	2b03      	cmp	r3, #3
 8000924:	d904      	bls.n	8000930 <bno055_i2c__sensor_calibration+0x48>
 8000926:	481a      	ldr	r0, [pc, #104]	; (8000990 <bno055_i2c__sensor_calibration+0xa8>)
 8000928:	f44f 71a1 	mov.w	r1, #322	; 0x142
 800092c:	f000 fe26 	bl	800157c <__gnat_last_chance_handler>
 8000930:	737b      	strb	r3, [r7, #13]
 8000932:	7dfb      	ldrb	r3, [r7, #23]
 8000934:	089b      	lsrs	r3, r3, #2
 8000936:	b2db      	uxtb	r3, r3
 8000938:	f003 0303 	and.w	r3, r3, #3
 800093c:	b2db      	uxtb	r3, r3
 800093e:	2b03      	cmp	r3, #3
 8000940:	d904      	bls.n	800094c <bno055_i2c__sensor_calibration+0x64>
 8000942:	4813      	ldr	r0, [pc, #76]	; (8000990 <bno055_i2c__sensor_calibration+0xa8>)
 8000944:	f240 1143 	movw	r1, #323	; 0x143
 8000948:	f000 fe18 	bl	800157c <__gnat_last_chance_handler>
 800094c:	73bb      	strb	r3, [r7, #14]
 800094e:	7dfb      	ldrb	r3, [r7, #23]
 8000950:	f003 0303 	and.w	r3, r3, #3
 8000954:	b2db      	uxtb	r3, r3
 8000956:	2b03      	cmp	r3, #3
 8000958:	d904      	bls.n	8000964 <bno055_i2c__sensor_calibration+0x7c>
 800095a:	480d      	ldr	r0, [pc, #52]	; (8000990 <bno055_i2c__sensor_calibration+0xa8>)
 800095c:	f44f 71a2 	mov.w	r1, #324	; 0x144
 8000960:	f000 fe0c 	bl	800157c <__gnat_last_chance_handler>
 8000964:	73fb      	strb	r3, [r7, #15]
 8000966:	68fb      	ldr	r3, [r7, #12]
 8000968:	613b      	str	r3, [r7, #16]
 800096a:	2300      	movs	r3, #0
 800096c:	7c3a      	ldrb	r2, [r7, #16]
 800096e:	f362 0307 	bfi	r3, r2, #0, #8
 8000972:	7c7a      	ldrb	r2, [r7, #17]
 8000974:	f362 230f 	bfi	r3, r2, #8, #8
 8000978:	7cba      	ldrb	r2, [r7, #18]
 800097a:	f362 4317 	bfi	r3, r2, #16, #8
 800097e:	7cfa      	ldrb	r2, [r7, #19]
 8000980:	f362 631f 	bfi	r3, r2, #24, #8
 8000984:	bf00      	nop
 8000986:	4618      	mov	r0, r3
 8000988:	3718      	adds	r7, #24
 800098a:	46bd      	mov	sp, r7
 800098c:	bd80      	pop	{r7, pc}
 800098e:	bf00      	nop
 8000990:	0800ac1c 	.word	0x0800ac1c

08000994 <bno055_i2c__calibration_complete>:
 8000994:	e92d 43f0 	stmdb	sp!, {r4, r5, r6, r7, r8, r9, lr}
 8000998:	b089      	sub	sp, #36	; 0x24
 800099a:	af00      	add	r7, sp, #0
 800099c:	60f8      	str	r0, [r7, #12]
 800099e:	e9c7 2300 	strd	r2, r3, [r7]
 80009a2:	687b      	ldr	r3, [r7, #4]
 80009a4:	681d      	ldr	r5, [r3, #0]
 80009a6:	687b      	ldr	r3, [r7, #4]
 80009a8:	685e      	ldr	r6, [r3, #4]
 80009aa:	687b      	ldr	r3, [r7, #4]
 80009ac:	685a      	ldr	r2, [r3, #4]
 80009ae:	687b      	ldr	r3, [r7, #4]
 80009b0:	681b      	ldr	r3, [r3, #0]
 80009b2:	429a      	cmp	r2, r3
 80009b4:	db0f      	blt.n	80009d6 <bno055_i2c__calibration_complete+0x42>
 80009b6:	687b      	ldr	r3, [r7, #4]
 80009b8:	685b      	ldr	r3, [r3, #4]
 80009ba:	4619      	mov	r1, r3
 80009bc:	ea4f 72e1 	mov.w	r2, r1, asr #31
 80009c0:	687b      	ldr	r3, [r7, #4]
 80009c2:	681b      	ldr	r3, [r3, #0]
 80009c4:	ea4f 74e3 	mov.w	r4, r3, asr #31
 80009c8:	1acb      	subs	r3, r1, r3
 80009ca:	eb62 0404 	sbc.w	r4, r2, r4
 80009ce:	3301      	adds	r3, #1
 80009d0:	f144 0400 	adc.w	r4, r4, #0
 80009d4:	e003      	b.n	80009de <bno055_i2c__calibration_complete+0x4a>
 80009d6:	f04f 0300 	mov.w	r3, #0
 80009da:	f04f 0400 	mov.w	r4, #0
 80009de:	2b01      	cmp	r3, #1
 80009e0:	f174 0200 	sbcs.w	r2, r4, #0
 80009e4:	db03      	blt.n	80009ee <bno055_i2c__calibration_complete+0x5a>
 80009e6:	2b04      	cmp	r3, #4
 80009e8:	f174 0300 	sbcs.w	r3, r4, #0
 80009ec:	db07      	blt.n	80009fe <bno055_i2c__calibration_complete+0x6a>
 80009ee:	f8df 8088 	ldr.w	r8, [pc, #136]	; 8000a78 <bno055_i2c__calibration_complete+0xe4>
 80009f2:	f8df 9088 	ldr.w	r9, [pc, #136]	; 8000a7c <bno055_i2c__calibration_complete+0xe8>
 80009f6:	4640      	mov	r0, r8
 80009f8:	4649      	mov	r1, r9
 80009fa:	f009 f941 	bl	8009c80 <system__assertions__raise_assert_failure>
 80009fe:	462c      	mov	r4, r5
 8000a00:	68f8      	ldr	r0, [r7, #12]
 8000a02:	f7ff ff71 	bl	80008e8 <bno055_i2c__sensor_calibration>
 8000a06:	4603      	mov	r3, r0
 8000a08:	61bb      	str	r3, [r7, #24]
 8000a0a:	69bb      	ldr	r3, [r7, #24]
 8000a0c:	617b      	str	r3, [r7, #20]
 8000a0e:	42b5      	cmp	r5, r6
 8000a10:	dc29      	bgt.n	8000a66 <bno055_i2c__calibration_complete+0xd2>
 8000a12:	6839      	ldr	r1, [r7, #0]
 8000a14:	462b      	mov	r3, r5
 8000a16:	1b1a      	subs	r2, r3, r4
 8000a18:	440a      	add	r2, r1
 8000a1a:	61fa      	str	r2, [r7, #28]
 8000a1c:	6839      	ldr	r1, [r7, #0]
 8000a1e:	1b1a      	subs	r2, r3, r4
 8000a20:	5c8a      	ldrb	r2, [r1, r2]
 8000a22:	2a02      	cmp	r2, #2
 8000a24:	d904      	bls.n	8000a30 <bno055_i2c__calibration_complete+0x9c>
 8000a26:	4813      	ldr	r0, [pc, #76]	; (8000a74 <bno055_i2c__calibration_complete+0xe0>)
 8000a28:	f44f 71aa 	mov.w	r1, #340	; 0x154
 8000a2c:	f000 fda6 	bl	800157c <__gnat_last_chance_handler>
 8000a30:	683a      	ldr	r2, [r7, #0]
 8000a32:	1b1b      	subs	r3, r3, r4
 8000a34:	5cd3      	ldrb	r3, [r2, r3]
 8000a36:	2b00      	cmp	r3, #0
 8000a38:	d006      	beq.n	8000a48 <bno055_i2c__calibration_complete+0xb4>
 8000a3a:	2b01      	cmp	r3, #1
 8000a3c:	d109      	bne.n	8000a52 <bno055_i2c__calibration_complete+0xbe>
 8000a3e:	7d7b      	ldrb	r3, [r7, #21]
 8000a40:	2b03      	cmp	r3, #3
 8000a42:	d00b      	beq.n	8000a5c <bno055_i2c__calibration_complete+0xc8>
 8000a44:	2300      	movs	r3, #0
 8000a46:	e00f      	b.n	8000a68 <bno055_i2c__calibration_complete+0xd4>
 8000a48:	7dbb      	ldrb	r3, [r7, #22]
 8000a4a:	2b03      	cmp	r3, #3
 8000a4c:	d006      	beq.n	8000a5c <bno055_i2c__calibration_complete+0xc8>
 8000a4e:	2300      	movs	r3, #0
 8000a50:	e00a      	b.n	8000a68 <bno055_i2c__calibration_complete+0xd4>
 8000a52:	7dfb      	ldrb	r3, [r7, #23]
 8000a54:	2b03      	cmp	r3, #3
 8000a56:	d001      	beq.n	8000a5c <bno055_i2c__calibration_complete+0xc8>
 8000a58:	2300      	movs	r3, #0
 8000a5a:	e005      	b.n	8000a68 <bno055_i2c__calibration_complete+0xd4>
 8000a5c:	bf00      	nop
 8000a5e:	42b5      	cmp	r5, r6
 8000a60:	d001      	beq.n	8000a66 <bno055_i2c__calibration_complete+0xd2>
 8000a62:	3501      	adds	r5, #1
 8000a64:	e7d5      	b.n	8000a12 <bno055_i2c__calibration_complete+0x7e>
 8000a66:	2301      	movs	r3, #1
 8000a68:	bf00      	nop
 8000a6a:	4618      	mov	r0, r3
 8000a6c:	3724      	adds	r7, #36	; 0x24
 8000a6e:	46bd      	mov	sp, r7
 8000a70:	e8bd 83f0 	ldmia.w	sp!, {r4, r5, r6, r7, r8, r9, pc}
 8000a74:	0800ac1c 	.word	0x0800ac1c
 8000a78:	0800ac30 	.word	0x0800ac30
 8000a7c:	0800ac80 	.word	0x0800ac80

08000a80 <bno055_i2c__output>:
 8000a80:	b5b0      	push	{r4, r5, r7, lr}
 8000a82:	b08c      	sub	sp, #48	; 0x30
 8000a84:	af00      	add	r7, sp, #0
 8000a86:	60f8      	str	r0, [r7, #12]
 8000a88:	60b9      	str	r1, [r7, #8]
 8000a8a:	4613      	mov	r3, r2
 8000a8c:	71fb      	strb	r3, [r7, #7]
 8000a8e:	79fb      	ldrb	r3, [r7, #7]
 8000a90:	2b05      	cmp	r3, #5
 8000a92:	d904      	bls.n	8000a9e <bno055_i2c__output+0x1e>
 8000a94:	485e      	ldr	r0, [pc, #376]	; (8000c10 <bno055_i2c__output+0x190>)
 8000a96:	f44f 71bc 	mov.w	r1, #376	; 0x178
 8000a9a:	f000 fd6f 	bl	800157c <__gnat_last_chance_handler>
 8000a9e:	79fb      	ldrb	r3, [r7, #7]
 8000aa0:	2b04      	cmp	r3, #4
 8000aa2:	d821      	bhi.n	8000ae8 <bno055_i2c__output+0x68>
 8000aa4:	a201      	add	r2, pc, #4	; (adr r2, 8000aac <bno055_i2c__output+0x2c>)
 8000aa6:	f852 f023 	ldr.w	pc, [r2, r3, lsl #2]
 8000aaa:	bf00      	nop
 8000aac:	08000ac1 	.word	0x08000ac1
 8000ab0:	08000ac9 	.word	0x08000ac9
 8000ab4:	08000ad1 	.word	0x08000ad1
 8000ab8:	08000ad9 	.word	0x08000ad9
 8000abc:	08000ae1 	.word	0x08000ae1
 8000ac0:	2308      	movs	r3, #8
 8000ac2:	f887 302b 	strb.w	r3, [r7, #43]	; 0x2b
 8000ac6:	e012      	b.n	8000aee <bno055_i2c__output+0x6e>
 8000ac8:	230e      	movs	r3, #14
 8000aca:	f887 302b 	strb.w	r3, [r7, #43]	; 0x2b
 8000ace:	e00e      	b.n	8000aee <bno055_i2c__output+0x6e>
 8000ad0:	2314      	movs	r3, #20
 8000ad2:	f887 302b 	strb.w	r3, [r7, #43]	; 0x2b
 8000ad6:	e00a      	b.n	8000aee <bno055_i2c__output+0x6e>
 8000ad8:	231a      	movs	r3, #26
 8000ada:	f887 302b 	strb.w	r3, [r7, #43]	; 0x2b
 8000ade:	e006      	b.n	8000aee <bno055_i2c__output+0x6e>
 8000ae0:	2328      	movs	r3, #40	; 0x28
 8000ae2:	f887 302b 	strb.w	r3, [r7, #43]	; 0x2b
 8000ae6:	e002      	b.n	8000aee <bno055_i2c__output+0x6e>
 8000ae8:	232e      	movs	r3, #46	; 0x2e
 8000aea:	f887 302b 	strb.w	r3, [r7, #43]	; 0x2b
 8000aee:	bf00      	nop
 8000af0:	68bb      	ldr	r3, [r7, #8]
 8000af2:	685a      	ldr	r2, [r3, #4]
 8000af4:	f107 0310 	add.w	r3, r7, #16
 8000af8:	461c      	mov	r4, r3
 8000afa:	4d46      	ldr	r5, [pc, #280]	; (8000c14 <bno055_i2c__output+0x194>)
 8000afc:	f897 302b 	ldrb.w	r3, [r7, #43]	; 0x2b
 8000b00:	4610      	mov	r0, r2
 8000b02:	4619      	mov	r1, r3
 8000b04:	4622      	mov	r2, r4
 8000b06:	462b      	mov	r3, r5
 8000b08:	f000 fef8 	bl	80018fc <bno055_i2c_io__read_buffer>
 8000b0c:	7c3a      	ldrb	r2, [r7, #16]
 8000b0e:	7c7b      	ldrb	r3, [r7, #17]
 8000b10:	4610      	mov	r0, r2
 8000b12:	4619      	mov	r1, r3
 8000b14:	f000 fcc8 	bl	80014a8 <bno055_i2c__to_integer_16>
 8000b18:	4603      	mov	r3, r0
 8000b1a:	853b      	strh	r3, [r7, #40]	; 0x28
 8000b1c:	7cba      	ldrb	r2, [r7, #18]
 8000b1e:	7cfb      	ldrb	r3, [r7, #19]
 8000b20:	4610      	mov	r0, r2
 8000b22:	4619      	mov	r1, r3
 8000b24:	f000 fcc0 	bl	80014a8 <bno055_i2c__to_integer_16>
 8000b28:	4603      	mov	r3, r0
 8000b2a:	84fb      	strh	r3, [r7, #38]	; 0x26
 8000b2c:	7d3a      	ldrb	r2, [r7, #20]
 8000b2e:	7d7b      	ldrb	r3, [r7, #21]
 8000b30:	4610      	mov	r0, r2
 8000b32:	4619      	mov	r1, r3
 8000b34:	f000 fcb8 	bl	80014a8 <bno055_i2c__to_integer_16>
 8000b38:	4603      	mov	r3, r0
 8000b3a:	84bb      	strh	r3, [r7, #36]	; 0x24
 8000b3c:	79fb      	ldrb	r3, [r7, #7]
 8000b3e:	2b05      	cmp	r3, #5
 8000b40:	d904      	bls.n	8000b4c <bno055_i2c__output+0xcc>
 8000b42:	4833      	ldr	r0, [pc, #204]	; (8000c10 <bno055_i2c__output+0x190>)
 8000b44:	f240 1195 	movw	r1, #405	; 0x195
 8000b48:	f000 fd18 	bl	800157c <__gnat_last_chance_handler>
 8000b4c:	79fb      	ldrb	r3, [r7, #7]
 8000b4e:	2b03      	cmp	r3, #3
 8000b50:	d82b      	bhi.n	8000baa <bno055_i2c__output+0x12a>
 8000b52:	a201      	add	r2, pc, #4	; (adr r2, 8000b58 <bno055_i2c__output+0xd8>)
 8000b54:	f852 f023 	ldr.w	pc, [r2, r3, lsl #2]
 8000b58:	08000b91 	.word	0x08000b91
 8000b5c:	08000b69 	.word	0x08000b69
 8000b60:	08000b8b 	.word	0x08000b8b
 8000b64:	08000b71 	.word	0x08000b71
 8000b68:	f04f 4383 	mov.w	r3, #1098907648	; 0x41800000
 8000b6c:	62fb      	str	r3, [r7, #44]	; 0x2c
 8000b6e:	e01e      	b.n	8000bae <bno055_i2c__output+0x12e>
 8000b70:	68b8      	ldr	r0, [r7, #8]
 8000b72:	f7ff fd57 	bl	8000624 <bno055_i2c__selected_euler_units>
 8000b76:	4603      	mov	r3, r0
 8000b78:	2b00      	cmp	r3, #0
 8000b7a:	d103      	bne.n	8000b84 <bno055_i2c__output+0x104>
 8000b7c:	f04f 4383 	mov.w	r3, #1098907648	; 0x41800000
 8000b80:	62fb      	str	r3, [r7, #44]	; 0x2c
 8000b82:	e014      	b.n	8000bae <bno055_i2c__output+0x12e>
 8000b84:	4b24      	ldr	r3, [pc, #144]	; (8000c18 <bno055_i2c__output+0x198>)
 8000b86:	62fb      	str	r3, [r7, #44]	; 0x2c
 8000b88:	e011      	b.n	8000bae <bno055_i2c__output+0x12e>
 8000b8a:	4b23      	ldr	r3, [pc, #140]	; (8000c18 <bno055_i2c__output+0x198>)
 8000b8c:	62fb      	str	r3, [r7, #44]	; 0x2c
 8000b8e:	e00e      	b.n	8000bae <bno055_i2c__output+0x12e>
 8000b90:	68b8      	ldr	r0, [r7, #8]
 8000b92:	f7ff fd61 	bl	8000658 <bno055_i2c__selected_acceleration_units>
 8000b96:	4603      	mov	r3, r0
 8000b98:	2b01      	cmp	r3, #1
 8000b9a:	d103      	bne.n	8000ba4 <bno055_i2c__output+0x124>
 8000b9c:	f04f 537e 	mov.w	r3, #1065353216	; 0x3f800000
 8000ba0:	62fb      	str	r3, [r7, #44]	; 0x2c
 8000ba2:	e004      	b.n	8000bae <bno055_i2c__output+0x12e>
 8000ba4:	4b1d      	ldr	r3, [pc, #116]	; (8000c1c <bno055_i2c__output+0x19c>)
 8000ba6:	62fb      	str	r3, [r7, #44]	; 0x2c
 8000ba8:	e001      	b.n	8000bae <bno055_i2c__output+0x12e>
 8000baa:	4b1c      	ldr	r3, [pc, #112]	; (8000c1c <bno055_i2c__output+0x19c>)
 8000bac:	62fb      	str	r3, [r7, #44]	; 0x2c
 8000bae:	bf00      	nop
 8000bb0:	f9b7 3028 	ldrsh.w	r3, [r7, #40]	; 0x28
 8000bb4:	4618      	mov	r0, r3
 8000bb6:	f009 fa6d 	bl	800a094 <__aeabi_i2f>
 8000bba:	4603      	mov	r3, r0
 8000bbc:	4618      	mov	r0, r3
 8000bbe:	6af9      	ldr	r1, [r7, #44]	; 0x2c
 8000bc0:	f009 fb70 	bl	800a2a4 <__aeabi_fdiv>
 8000bc4:	4603      	mov	r3, r0
 8000bc6:	61bb      	str	r3, [r7, #24]
 8000bc8:	f9b7 3026 	ldrsh.w	r3, [r7, #38]	; 0x26
 8000bcc:	4618      	mov	r0, r3
 8000bce:	f009 fa61 	bl	800a094 <__aeabi_i2f>
 8000bd2:	4603      	mov	r3, r0
 8000bd4:	4618      	mov	r0, r3
 8000bd6:	6af9      	ldr	r1, [r7, #44]	; 0x2c
 8000bd8:	f009 fb64 	bl	800a2a4 <__aeabi_fdiv>
 8000bdc:	4603      	mov	r3, r0
 8000bde:	61fb      	str	r3, [r7, #28]
 8000be0:	f9b7 3024 	ldrsh.w	r3, [r7, #36]	; 0x24
 8000be4:	4618      	mov	r0, r3
 8000be6:	f009 fa55 	bl	800a094 <__aeabi_i2f>
 8000bea:	4603      	mov	r3, r0
 8000bec:	4618      	mov	r0, r3
 8000bee:	6af9      	ldr	r1, [r7, #44]	; 0x2c
 8000bf0:	f009 fb58 	bl	800a2a4 <__aeabi_fdiv>
 8000bf4:	4603      	mov	r3, r0
 8000bf6:	623b      	str	r3, [r7, #32]
 8000bf8:	68fb      	ldr	r3, [r7, #12]
 8000bfa:	461c      	mov	r4, r3
 8000bfc:	f107 0318 	add.w	r3, r7, #24
 8000c00:	e893 0007 	ldmia.w	r3, {r0, r1, r2}
 8000c04:	e884 0007 	stmia.w	r4, {r0, r1, r2}
 8000c08:	68f8      	ldr	r0, [r7, #12]
 8000c0a:	3730      	adds	r7, #48	; 0x30
 8000c0c:	46bd      	mov	sp, r7
 8000c0e:	bdb0      	pop	{r4, r5, r7, pc}
 8000c10:	0800ac1c 	.word	0x0800ac1c
 8000c14:	0800ac88 	.word	0x0800ac88
 8000c18:	44610000 	.word	0x44610000
 8000c1c:	42c80000 	.word	0x42c80000

08000c20 <bno055_i2c__quaternion_orientation>:
 8000c20:	b5b0      	push	{r4, r5, r7, lr}
 8000c22:	b08c      	sub	sp, #48	; 0x30
 8000c24:	af00      	add	r7, sp, #0
 8000c26:	6078      	str	r0, [r7, #4]
 8000c28:	6039      	str	r1, [r7, #0]
 8000c2a:	f04f 5362 	mov.w	r3, #947912704	; 0x38800000
 8000c2e:	62fb      	str	r3, [r7, #44]	; 0x2c
 8000c30:	683b      	ldr	r3, [r7, #0]
 8000c32:	685b      	ldr	r3, [r3, #4]
 8000c34:	f107 021c 	add.w	r2, r7, #28
 8000c38:	4614      	mov	r4, r2
 8000c3a:	4d35      	ldr	r5, [pc, #212]	; (8000d10 <bno055_i2c__quaternion_orientation+0xf0>)
 8000c3c:	4618      	mov	r0, r3
 8000c3e:	2120      	movs	r1, #32
 8000c40:	4622      	mov	r2, r4
 8000c42:	462b      	mov	r3, r5
 8000c44:	f000 fe5a 	bl	80018fc <bno055_i2c_io__read_buffer>
 8000c48:	7f3a      	ldrb	r2, [r7, #28]
 8000c4a:	7f7b      	ldrb	r3, [r7, #29]
 8000c4c:	4610      	mov	r0, r2
 8000c4e:	4619      	mov	r1, r3
 8000c50:	f000 fc2a 	bl	80014a8 <bno055_i2c__to_integer_16>
 8000c54:	4603      	mov	r3, r0
 8000c56:	857b      	strh	r3, [r7, #42]	; 0x2a
 8000c58:	7fba      	ldrb	r2, [r7, #30]
 8000c5a:	7ffb      	ldrb	r3, [r7, #31]
 8000c5c:	4610      	mov	r0, r2
 8000c5e:	4619      	mov	r1, r3
 8000c60:	f000 fc22 	bl	80014a8 <bno055_i2c__to_integer_16>
 8000c64:	4603      	mov	r3, r0
 8000c66:	853b      	strh	r3, [r7, #40]	; 0x28
 8000c68:	f897 2020 	ldrb.w	r2, [r7, #32]
 8000c6c:	f897 3021 	ldrb.w	r3, [r7, #33]	; 0x21
 8000c70:	4610      	mov	r0, r2
 8000c72:	4619      	mov	r1, r3
 8000c74:	f000 fc18 	bl	80014a8 <bno055_i2c__to_integer_16>
 8000c78:	4603      	mov	r3, r0
 8000c7a:	84fb      	strh	r3, [r7, #38]	; 0x26
 8000c7c:	f897 2022 	ldrb.w	r2, [r7, #34]	; 0x22
 8000c80:	f897 3023 	ldrb.w	r3, [r7, #35]	; 0x23
 8000c84:	4610      	mov	r0, r2
 8000c86:	4619      	mov	r1, r3
 8000c88:	f000 fc0e 	bl	80014a8 <bno055_i2c__to_integer_16>
 8000c8c:	4603      	mov	r3, r0
 8000c8e:	84bb      	strh	r3, [r7, #36]	; 0x24
 8000c90:	f9b7 302a 	ldrsh.w	r3, [r7, #42]	; 0x2a
 8000c94:	4618      	mov	r0, r3
 8000c96:	f009 f9fd 	bl	800a094 <__aeabi_i2f>
 8000c9a:	4603      	mov	r3, r0
 8000c9c:	4618      	mov	r0, r3
 8000c9e:	f04f 5162 	mov.w	r1, #947912704	; 0x38800000
 8000ca2:	f009 fa4b 	bl	800a13c <__aeabi_fmul>
 8000ca6:	4603      	mov	r3, r0
 8000ca8:	60fb      	str	r3, [r7, #12]
 8000caa:	f9b7 3028 	ldrsh.w	r3, [r7, #40]	; 0x28
 8000cae:	4618      	mov	r0, r3
 8000cb0:	f009 f9f0 	bl	800a094 <__aeabi_i2f>
 8000cb4:	4603      	mov	r3, r0
 8000cb6:	4618      	mov	r0, r3
 8000cb8:	f04f 5162 	mov.w	r1, #947912704	; 0x38800000
 8000cbc:	f009 fa3e 	bl	800a13c <__aeabi_fmul>
 8000cc0:	4603      	mov	r3, r0
 8000cc2:	613b      	str	r3, [r7, #16]
 8000cc4:	f9b7 3026 	ldrsh.w	r3, [r7, #38]	; 0x26
 8000cc8:	4618      	mov	r0, r3
 8000cca:	f009 f9e3 	bl	800a094 <__aeabi_i2f>
 8000cce:	4603      	mov	r3, r0
 8000cd0:	4618      	mov	r0, r3
 8000cd2:	f04f 5162 	mov.w	r1, #947912704	; 0x38800000
 8000cd6:	f009 fa31 	bl	800a13c <__aeabi_fmul>
 8000cda:	4603      	mov	r3, r0
 8000cdc:	617b      	str	r3, [r7, #20]
 8000cde:	f9b7 3024 	ldrsh.w	r3, [r7, #36]	; 0x24
 8000ce2:	4618      	mov	r0, r3
 8000ce4:	f009 f9d6 	bl	800a094 <__aeabi_i2f>
 8000ce8:	4603      	mov	r3, r0
 8000cea:	4618      	mov	r0, r3
 8000cec:	f04f 5162 	mov.w	r1, #947912704	; 0x38800000
 8000cf0:	f009 fa24 	bl	800a13c <__aeabi_fmul>
 8000cf4:	4603      	mov	r3, r0
 8000cf6:	61bb      	str	r3, [r7, #24]
 8000cf8:	687b      	ldr	r3, [r7, #4]
 8000cfa:	461c      	mov	r4, r3
 8000cfc:	f107 030c 	add.w	r3, r7, #12
 8000d00:	cb0f      	ldmia	r3, {r0, r1, r2, r3}
 8000d02:	e884 000f 	stmia.w	r4, {r0, r1, r2, r3}
 8000d06:	6878      	ldr	r0, [r7, #4]
 8000d08:	3730      	adds	r7, #48	; 0x30
 8000d0a:	46bd      	mov	sp, r7
 8000d0c:	bdb0      	pop	{r4, r5, r7, pc}
 8000d0e:	bf00      	nop
 8000d10:	0800ac90 	.word	0x0800ac90

08000d14 <bno055_i2c__sensor_temperature>:
 8000d14:	b580      	push	{r7, lr}
 8000d16:	b084      	sub	sp, #16
 8000d18:	af00      	add	r7, sp, #0
 8000d1a:	6078      	str	r0, [r7, #4]
 8000d1c:	460b      	mov	r3, r1
 8000d1e:	70fb      	strb	r3, [r7, #3]
 8000d20:	687b      	ldr	r3, [r7, #4]
 8000d22:	685a      	ldr	r2, [r3, #4]
 8000d24:	78fb      	ldrb	r3, [r7, #3]
 8000d26:	4610      	mov	r0, r2
 8000d28:	2140      	movs	r1, #64	; 0x40
 8000d2a:	461a      	mov	r2, r3
 8000d2c:	f000 fd48 	bl	80017c0 <bno055_i2c_io__write>
 8000d30:	687b      	ldr	r3, [r7, #4]
 8000d32:	685b      	ldr	r3, [r3, #4]
 8000d34:	4618      	mov	r0, r3
 8000d36:	2134      	movs	r1, #52	; 0x34
 8000d38:	f000 fca0 	bl	800167c <bno055_i2c_io__read>
 8000d3c:	4603      	mov	r3, r0
 8000d3e:	73fb      	strb	r3, [r7, #15]
 8000d40:	6878      	ldr	r0, [r7, #4]
 8000d42:	f7ff fca3 	bl	800068c <bno055_i2c__selected_temperature_units>
 8000d46:	4603      	mov	r3, r0
 8000d48:	2b10      	cmp	r3, #16
 8000d4a:	d102      	bne.n	8000d52 <bno055_i2c__sensor_temperature+0x3e>
 8000d4c:	7bfb      	ldrb	r3, [r7, #15]
 8000d4e:	005b      	lsls	r3, r3, #1
 8000d50:	73fb      	strb	r3, [r7, #15]
 8000d52:	7bfb      	ldrb	r3, [r7, #15]
 8000d54:	b25b      	sxtb	r3, r3
 8000d56:	2b00      	cmp	r3, #0
 8000d58:	da04      	bge.n	8000d64 <bno055_i2c__sensor_temperature+0x50>
 8000d5a:	4806      	ldr	r0, [pc, #24]	; (8000d74 <bno055_i2c__sensor_temperature+0x60>)
 8000d5c:	f44f 71f1 	mov.w	r1, #482	; 0x1e2
 8000d60:	f000 fc0c 	bl	800157c <__gnat_last_chance_handler>
 8000d64:	7bfb      	ldrb	r3, [r7, #15]
 8000d66:	b25b      	sxtb	r3, r3
 8000d68:	bf00      	nop
 8000d6a:	4618      	mov	r0, r3
 8000d6c:	3710      	adds	r7, #16
 8000d6e:	46bd      	mov	sp, r7
 8000d70:	bd80      	pop	{r7, pc}
 8000d72:	bf00      	nop
 8000d74:	0800ac1c 	.word	0x0800ac1c

08000d78 <bno055_i2c__sensor_offsets>:
 8000d78:	b5b0      	push	{r4, r5, r7, lr}
 8000d7a:	b088      	sub	sp, #32
 8000d7c:	af00      	add	r7, sp, #0
 8000d7e:	6078      	str	r0, [r7, #4]
 8000d80:	6039      	str	r1, [r7, #0]
 8000d82:	4a3f      	ldr	r2, [pc, #252]	; (8000e80 <bno055_i2c__sensor_offsets+0x108>)
 8000d84:	4b3f      	ldr	r3, [pc, #252]	; (8000e84 <bno055_i2c__sensor_offsets+0x10c>)
 8000d86:	6838      	ldr	r0, [r7, #0]
 8000d88:	f7ff fe04 	bl	8000994 <bno055_i2c__calibration_complete>
 8000d8c:	4603      	mov	r3, r0
 8000d8e:	f083 0301 	eor.w	r3, r3, #1
 8000d92:	b2db      	uxtb	r3, r3
 8000d94:	2b00      	cmp	r3, #0
 8000d96:	d005      	beq.n	8000da4 <bno055_i2c__sensor_offsets+0x2c>
 8000d98:	4c3b      	ldr	r4, [pc, #236]	; (8000e88 <bno055_i2c__sensor_offsets+0x110>)
 8000d9a:	4d3c      	ldr	r5, [pc, #240]	; (8000e8c <bno055_i2c__sensor_offsets+0x114>)
 8000d9c:	4620      	mov	r0, r4
 8000d9e:	4629      	mov	r1, r5
 8000da0:	f008 ff6e 	bl	8009c80 <system__assertions__raise_assert_failure>
 8000da4:	683b      	ldr	r3, [r7, #0]
 8000da6:	7a1b      	ldrb	r3, [r3, #8]
 8000da8:	77fb      	strb	r3, [r7, #31]
 8000daa:	6838      	ldr	r0, [r7, #0]
 8000dac:	2100      	movs	r1, #0
 8000dae:	f7ff fcb5 	bl	800071c <bno055_i2c__set_mode>
 8000db2:	2019      	movs	r0, #25
 8000db4:	f7ff faa6 	bl	8000304 <_ada_delay_milliseconds>
 8000db8:	6838      	ldr	r0, [r7, #0]
 8000dba:	2156      	movs	r1, #86	; 0x56
 8000dbc:	2255      	movs	r2, #85	; 0x55
 8000dbe:	f000 fb23 	bl	8001408 <bno055_i2c__value_at__2>
 8000dc2:	4603      	mov	r3, r0
 8000dc4:	813b      	strh	r3, [r7, #8]
 8000dc6:	6838      	ldr	r0, [r7, #0]
 8000dc8:	2158      	movs	r1, #88	; 0x58
 8000dca:	2257      	movs	r2, #87	; 0x57
 8000dcc:	f000 fb1c 	bl	8001408 <bno055_i2c__value_at__2>
 8000dd0:	4603      	mov	r3, r0
 8000dd2:	817b      	strh	r3, [r7, #10]
 8000dd4:	6838      	ldr	r0, [r7, #0]
 8000dd6:	215a      	movs	r1, #90	; 0x5a
 8000dd8:	2259      	movs	r2, #89	; 0x59
 8000dda:	f000 fb15 	bl	8001408 <bno055_i2c__value_at__2>
 8000dde:	4603      	mov	r3, r0
 8000de0:	81bb      	strh	r3, [r7, #12]
 8000de2:	6838      	ldr	r0, [r7, #0]
 8000de4:	2162      	movs	r1, #98	; 0x62
 8000de6:	2261      	movs	r2, #97	; 0x61
 8000de8:	f000 fb0e 	bl	8001408 <bno055_i2c__value_at__2>
 8000dec:	4603      	mov	r3, r0
 8000dee:	81fb      	strh	r3, [r7, #14]
 8000df0:	6838      	ldr	r0, [r7, #0]
 8000df2:	2164      	movs	r1, #100	; 0x64
 8000df4:	2263      	movs	r2, #99	; 0x63
 8000df6:	f000 fb07 	bl	8001408 <bno055_i2c__value_at__2>
 8000dfa:	4603      	mov	r3, r0
 8000dfc:	823b      	strh	r3, [r7, #16]
 8000dfe:	6838      	ldr	r0, [r7, #0]
 8000e00:	2166      	movs	r1, #102	; 0x66
 8000e02:	2265      	movs	r2, #101	; 0x65
 8000e04:	f000 fb00 	bl	8001408 <bno055_i2c__value_at__2>
 8000e08:	4603      	mov	r3, r0
 8000e0a:	827b      	strh	r3, [r7, #18]
 8000e0c:	6838      	ldr	r0, [r7, #0]
 8000e0e:	215c      	movs	r1, #92	; 0x5c
 8000e10:	225b      	movs	r2, #91	; 0x5b
 8000e12:	f000 faf9 	bl	8001408 <bno055_i2c__value_at__2>
 8000e16:	4603      	mov	r3, r0
 8000e18:	82bb      	strh	r3, [r7, #20]
 8000e1a:	6838      	ldr	r0, [r7, #0]
 8000e1c:	215e      	movs	r1, #94	; 0x5e
 8000e1e:	225d      	movs	r2, #93	; 0x5d
 8000e20:	f000 faf2 	bl	8001408 <bno055_i2c__value_at__2>
 8000e24:	4603      	mov	r3, r0
 8000e26:	82fb      	strh	r3, [r7, #22]
 8000e28:	6838      	ldr	r0, [r7, #0]
 8000e2a:	2160      	movs	r1, #96	; 0x60
 8000e2c:	225f      	movs	r2, #95	; 0x5f
 8000e2e:	f000 faeb 	bl	8001408 <bno055_i2c__value_at__2>
 8000e32:	4603      	mov	r3, r0
 8000e34:	833b      	strh	r3, [r7, #24]
 8000e36:	6838      	ldr	r0, [r7, #0]
 8000e38:	2168      	movs	r1, #104	; 0x68
 8000e3a:	2267      	movs	r2, #103	; 0x67
 8000e3c:	f000 fae4 	bl	8001408 <bno055_i2c__value_at__2>
 8000e40:	4603      	mov	r3, r0
 8000e42:	837b      	strh	r3, [r7, #26]
 8000e44:	6838      	ldr	r0, [r7, #0]
 8000e46:	216a      	movs	r1, #106	; 0x6a
 8000e48:	2269      	movs	r2, #105	; 0x69
 8000e4a:	f000 fadd 	bl	8001408 <bno055_i2c__value_at__2>
 8000e4e:	4603      	mov	r3, r0
 8000e50:	83bb      	strh	r3, [r7, #28]
 8000e52:	7ffb      	ldrb	r3, [r7, #31]
 8000e54:	6838      	ldr	r0, [r7, #0]
 8000e56:	4619      	mov	r1, r3
 8000e58:	f7ff fc60 	bl	800071c <bno055_i2c__set_mode>
 8000e5c:	687b      	ldr	r3, [r7, #4]
 8000e5e:	461d      	mov	r5, r3
 8000e60:	f107 0408 	add.w	r4, r7, #8
 8000e64:	cc0f      	ldmia	r4!, {r0, r1, r2, r3}
 8000e66:	6028      	str	r0, [r5, #0]
 8000e68:	6069      	str	r1, [r5, #4]
 8000e6a:	60aa      	str	r2, [r5, #8]
 8000e6c:	60eb      	str	r3, [r5, #12]
 8000e6e:	6820      	ldr	r0, [r4, #0]
 8000e70:	6128      	str	r0, [r5, #16]
 8000e72:	88a3      	ldrh	r3, [r4, #4]
 8000e74:	82ab      	strh	r3, [r5, #20]
 8000e76:	6878      	ldr	r0, [r7, #4]
 8000e78:	3720      	adds	r7, #32
 8000e7a:	46bd      	mov	sp, r7
 8000e7c:	bdb0      	pop	{r4, r5, r7, pc}
 8000e7e:	bf00      	nop
 8000e80:	0800ace8 	.word	0x0800ace8
 8000e84:	0800acec 	.word	0x0800acec
 8000e88:	0800ac98 	.word	0x0800ac98
 8000e8c:	0800ac80 	.word	0x0800ac80

08000e90 <bno055_i2c__set_sensor_offsets>:
 8000e90:	b580      	push	{r7, lr}
 8000e92:	b084      	sub	sp, #16
 8000e94:	af00      	add	r7, sp, #0
 8000e96:	6078      	str	r0, [r7, #4]
 8000e98:	6039      	str	r1, [r7, #0]
 8000e9a:	687b      	ldr	r3, [r7, #4]
 8000e9c:	7a1b      	ldrb	r3, [r3, #8]
 8000e9e:	73fb      	strb	r3, [r7, #15]
 8000ea0:	6878      	ldr	r0, [r7, #4]
 8000ea2:	2100      	movs	r1, #0
 8000ea4:	f7ff fc3a 	bl	800071c <bno055_i2c__set_mode>
 8000ea8:	2019      	movs	r0, #25
 8000eaa:	f7ff fa2b 	bl	8000304 <_ada_delay_milliseconds>
 8000eae:	683b      	ldr	r3, [r7, #0]
 8000eb0:	881b      	ldrh	r3, [r3, #0]
 8000eb2:	b21b      	sxth	r3, r3
 8000eb4:	2b00      	cmp	r3, #0
 8000eb6:	db03      	blt.n	8000ec0 <bno055_i2c__set_sensor_offsets+0x30>
 8000eb8:	683b      	ldr	r3, [r7, #0]
 8000eba:	881b      	ldrh	r3, [r3, #0]
 8000ebc:	b29b      	uxth	r3, r3
 8000ebe:	e002      	b.n	8000ec6 <bno055_i2c__set_sensor_offsets+0x36>
 8000ec0:	683b      	ldr	r3, [r7, #0]
 8000ec2:	881b      	ldrh	r3, [r3, #0]
 8000ec4:	b29b      	uxth	r3, r3
 8000ec6:	81bb      	strh	r3, [r7, #12]
 8000ec8:	89bb      	ldrh	r3, [r7, #12]
 8000eca:	b2db      	uxtb	r3, r3
 8000ecc:	b29b      	uxth	r3, r3
 8000ece:	2bff      	cmp	r3, #255	; 0xff
 8000ed0:	d904      	bls.n	8000edc <bno055_i2c__set_sensor_offsets+0x4c>
 8000ed2:	489e      	ldr	r0, [pc, #632]	; (800114c <bno055_i2c__set_sensor_offsets+0x2bc>)
 8000ed4:	f44f 7105 	mov.w	r1, #532	; 0x214
 8000ed8:	f000 fb50 	bl	800157c <__gnat_last_chance_handler>
 8000edc:	687a      	ldr	r2, [r7, #4]
 8000ede:	6852      	ldr	r2, [r2, #4]
 8000ee0:	b2db      	uxtb	r3, r3
 8000ee2:	4610      	mov	r0, r2
 8000ee4:	2155      	movs	r1, #85	; 0x55
 8000ee6:	461a      	mov	r2, r3
 8000ee8:	f000 fc6a 	bl	80017c0 <bno055_i2c_io__write>
 8000eec:	89bb      	ldrh	r3, [r7, #12]
 8000eee:	0a1b      	lsrs	r3, r3, #8
 8000ef0:	b29b      	uxth	r3, r3
 8000ef2:	2bff      	cmp	r3, #255	; 0xff
 8000ef4:	d904      	bls.n	8000f00 <bno055_i2c__set_sensor_offsets+0x70>
 8000ef6:	4895      	ldr	r0, [pc, #596]	; (800114c <bno055_i2c__set_sensor_offsets+0x2bc>)
 8000ef8:	f240 2115 	movw	r1, #533	; 0x215
 8000efc:	f000 fb3e 	bl	800157c <__gnat_last_chance_handler>
 8000f00:	687a      	ldr	r2, [r7, #4]
 8000f02:	6852      	ldr	r2, [r2, #4]
 8000f04:	b2db      	uxtb	r3, r3
 8000f06:	4610      	mov	r0, r2
 8000f08:	2156      	movs	r1, #86	; 0x56
 8000f0a:	461a      	mov	r2, r3
 8000f0c:	f000 fc58 	bl	80017c0 <bno055_i2c_io__write>
 8000f10:	683b      	ldr	r3, [r7, #0]
 8000f12:	885b      	ldrh	r3, [r3, #2]
 8000f14:	b21b      	sxth	r3, r3
 8000f16:	2b00      	cmp	r3, #0
 8000f18:	db03      	blt.n	8000f22 <bno055_i2c__set_sensor_offsets+0x92>
 8000f1a:	683b      	ldr	r3, [r7, #0]
 8000f1c:	885b      	ldrh	r3, [r3, #2]
 8000f1e:	b29b      	uxth	r3, r3
 8000f20:	e002      	b.n	8000f28 <bno055_i2c__set_sensor_offsets+0x98>
 8000f22:	683b      	ldr	r3, [r7, #0]
 8000f24:	885b      	ldrh	r3, [r3, #2]
 8000f26:	b29b      	uxth	r3, r3
 8000f28:	81bb      	strh	r3, [r7, #12]
 8000f2a:	89bb      	ldrh	r3, [r7, #12]
 8000f2c:	b2db      	uxtb	r3, r3
 8000f2e:	b29b      	uxth	r3, r3
 8000f30:	2bff      	cmp	r3, #255	; 0xff
 8000f32:	d904      	bls.n	8000f3e <bno055_i2c__set_sensor_offsets+0xae>
 8000f34:	4885      	ldr	r0, [pc, #532]	; (800114c <bno055_i2c__set_sensor_offsets+0x2bc>)
 8000f36:	f44f 7106 	mov.w	r1, #536	; 0x218
 8000f3a:	f000 fb1f 	bl	800157c <__gnat_last_chance_handler>
 8000f3e:	687a      	ldr	r2, [r7, #4]
 8000f40:	6852      	ldr	r2, [r2, #4]
 8000f42:	b2db      	uxtb	r3, r3
 8000f44:	4610      	mov	r0, r2
 8000f46:	2157      	movs	r1, #87	; 0x57
 8000f48:	461a      	mov	r2, r3
 8000f4a:	f000 fc39 	bl	80017c0 <bno055_i2c_io__write>
 8000f4e:	89bb      	ldrh	r3, [r7, #12]
 8000f50:	0a1b      	lsrs	r3, r3, #8
 8000f52:	b29b      	uxth	r3, r3
 8000f54:	2bff      	cmp	r3, #255	; 0xff
 8000f56:	d904      	bls.n	8000f62 <bno055_i2c__set_sensor_offsets+0xd2>
 8000f58:	487c      	ldr	r0, [pc, #496]	; (800114c <bno055_i2c__set_sensor_offsets+0x2bc>)
 8000f5a:	f240 2119 	movw	r1, #537	; 0x219
 8000f5e:	f000 fb0d 	bl	800157c <__gnat_last_chance_handler>
 8000f62:	687a      	ldr	r2, [r7, #4]
 8000f64:	6852      	ldr	r2, [r2, #4]
 8000f66:	b2db      	uxtb	r3, r3
 8000f68:	4610      	mov	r0, r2
 8000f6a:	2158      	movs	r1, #88	; 0x58
 8000f6c:	461a      	mov	r2, r3
 8000f6e:	f000 fc27 	bl	80017c0 <bno055_i2c_io__write>
 8000f72:	683b      	ldr	r3, [r7, #0]
 8000f74:	889b      	ldrh	r3, [r3, #4]
 8000f76:	b21b      	sxth	r3, r3
 8000f78:	2b00      	cmp	r3, #0
 8000f7a:	db03      	blt.n	8000f84 <bno055_i2c__set_sensor_offsets+0xf4>
 8000f7c:	683b      	ldr	r3, [r7, #0]
 8000f7e:	889b      	ldrh	r3, [r3, #4]
 8000f80:	b29b      	uxth	r3, r3
 8000f82:	e002      	b.n	8000f8a <bno055_i2c__set_sensor_offsets+0xfa>
 8000f84:	683b      	ldr	r3, [r7, #0]
 8000f86:	889b      	ldrh	r3, [r3, #4]
 8000f88:	b29b      	uxth	r3, r3
 8000f8a:	81bb      	strh	r3, [r7, #12]
 8000f8c:	89bb      	ldrh	r3, [r7, #12]
 8000f8e:	b2db      	uxtb	r3, r3
 8000f90:	b29b      	uxth	r3, r3
 8000f92:	2bff      	cmp	r3, #255	; 0xff
 8000f94:	d904      	bls.n	8000fa0 <bno055_i2c__set_sensor_offsets+0x110>
 8000f96:	486d      	ldr	r0, [pc, #436]	; (800114c <bno055_i2c__set_sensor_offsets+0x2bc>)
 8000f98:	f44f 7107 	mov.w	r1, #540	; 0x21c
 8000f9c:	f000 faee 	bl	800157c <__gnat_last_chance_handler>
 8000fa0:	687a      	ldr	r2, [r7, #4]
 8000fa2:	6852      	ldr	r2, [r2, #4]
 8000fa4:	b2db      	uxtb	r3, r3
 8000fa6:	4610      	mov	r0, r2
 8000fa8:	2159      	movs	r1, #89	; 0x59
 8000faa:	461a      	mov	r2, r3
 8000fac:	f000 fc08 	bl	80017c0 <bno055_i2c_io__write>
 8000fb0:	89bb      	ldrh	r3, [r7, #12]
 8000fb2:	0a1b      	lsrs	r3, r3, #8
 8000fb4:	b29b      	uxth	r3, r3
 8000fb6:	2bff      	cmp	r3, #255	; 0xff
 8000fb8:	d904      	bls.n	8000fc4 <bno055_i2c__set_sensor_offsets+0x134>
 8000fba:	4864      	ldr	r0, [pc, #400]	; (800114c <bno055_i2c__set_sensor_offsets+0x2bc>)
 8000fbc:	f240 211d 	movw	r1, #541	; 0x21d
 8000fc0:	f000 fadc 	bl	800157c <__gnat_last_chance_handler>
 8000fc4:	687a      	ldr	r2, [r7, #4]
 8000fc6:	6852      	ldr	r2, [r2, #4]
 8000fc8:	b2db      	uxtb	r3, r3
 8000fca:	4610      	mov	r0, r2
 8000fcc:	215a      	movs	r1, #90	; 0x5a
 8000fce:	461a      	mov	r2, r3
 8000fd0:	f000 fbf6 	bl	80017c0 <bno055_i2c_io__write>
 8000fd4:	683b      	ldr	r3, [r7, #0]
 8000fd6:	88db      	ldrh	r3, [r3, #6]
 8000fd8:	b21b      	sxth	r3, r3
 8000fda:	2b00      	cmp	r3, #0
 8000fdc:	db03      	blt.n	8000fe6 <bno055_i2c__set_sensor_offsets+0x156>
 8000fde:	683b      	ldr	r3, [r7, #0]
 8000fe0:	88db      	ldrh	r3, [r3, #6]
 8000fe2:	b29b      	uxth	r3, r3
 8000fe4:	e002      	b.n	8000fec <bno055_i2c__set_sensor_offsets+0x15c>
 8000fe6:	683b      	ldr	r3, [r7, #0]
 8000fe8:	88db      	ldrh	r3, [r3, #6]
 8000fea:	b29b      	uxth	r3, r3
 8000fec:	81bb      	strh	r3, [r7, #12]
 8000fee:	89bb      	ldrh	r3, [r7, #12]
 8000ff0:	b2db      	uxtb	r3, r3
 8000ff2:	b29b      	uxth	r3, r3
 8000ff4:	2bff      	cmp	r3, #255	; 0xff
 8000ff6:	d904      	bls.n	8001002 <bno055_i2c__set_sensor_offsets+0x172>
 8000ff8:	4854      	ldr	r0, [pc, #336]	; (800114c <bno055_i2c__set_sensor_offsets+0x2bc>)
 8000ffa:	f240 2122 	movw	r1, #546	; 0x222
 8000ffe:	f000 fabd 	bl	800157c <__gnat_last_chance_handler>
 8001002:	687a      	ldr	r2, [r7, #4]
 8001004:	6852      	ldr	r2, [r2, #4]
 8001006:	b2db      	uxtb	r3, r3
 8001008:	4610      	mov	r0, r2
 800100a:	2161      	movs	r1, #97	; 0x61
 800100c:	461a      	mov	r2, r3
 800100e:	f000 fbd7 	bl	80017c0 <bno055_i2c_io__write>
 8001012:	89bb      	ldrh	r3, [r7, #12]
 8001014:	0a1b      	lsrs	r3, r3, #8
 8001016:	b29b      	uxth	r3, r3
 8001018:	2bff      	cmp	r3, #255	; 0xff
 800101a:	d904      	bls.n	8001026 <bno055_i2c__set_sensor_offsets+0x196>
 800101c:	484b      	ldr	r0, [pc, #300]	; (800114c <bno055_i2c__set_sensor_offsets+0x2bc>)
 800101e:	f240 2123 	movw	r1, #547	; 0x223
 8001022:	f000 faab 	bl	800157c <__gnat_last_chance_handler>
 8001026:	687a      	ldr	r2, [r7, #4]
 8001028:	6852      	ldr	r2, [r2, #4]
 800102a:	b2db      	uxtb	r3, r3
 800102c:	4610      	mov	r0, r2
 800102e:	2162      	movs	r1, #98	; 0x62
 8001030:	461a      	mov	r2, r3
 8001032:	f000 fbc5 	bl	80017c0 <bno055_i2c_io__write>
 8001036:	683b      	ldr	r3, [r7, #0]
 8001038:	891b      	ldrh	r3, [r3, #8]
 800103a:	b21b      	sxth	r3, r3
 800103c:	2b00      	cmp	r3, #0
 800103e:	db03      	blt.n	8001048 <bno055_i2c__set_sensor_offsets+0x1b8>
 8001040:	683b      	ldr	r3, [r7, #0]
 8001042:	891b      	ldrh	r3, [r3, #8]
 8001044:	b29b      	uxth	r3, r3
 8001046:	e002      	b.n	800104e <bno055_i2c__set_sensor_offsets+0x1be>
 8001048:	683b      	ldr	r3, [r7, #0]
 800104a:	891b      	ldrh	r3, [r3, #8]
 800104c:	b29b      	uxth	r3, r3
 800104e:	81bb      	strh	r3, [r7, #12]
 8001050:	89bb      	ldrh	r3, [r7, #12]
 8001052:	b2db      	uxtb	r3, r3
 8001054:	b29b      	uxth	r3, r3
 8001056:	2bff      	cmp	r3, #255	; 0xff
 8001058:	d904      	bls.n	8001064 <bno055_i2c__set_sensor_offsets+0x1d4>
 800105a:	483c      	ldr	r0, [pc, #240]	; (800114c <bno055_i2c__set_sensor_offsets+0x2bc>)
 800105c:	f240 2126 	movw	r1, #550	; 0x226
 8001060:	f000 fa8c 	bl	800157c <__gnat_last_chance_handler>
 8001064:	687a      	ldr	r2, [r7, #4]
 8001066:	6852      	ldr	r2, [r2, #4]
 8001068:	b2db      	uxtb	r3, r3
 800106a:	4610      	mov	r0, r2
 800106c:	2163      	movs	r1, #99	; 0x63
 800106e:	461a      	mov	r2, r3
 8001070:	f000 fba6 	bl	80017c0 <bno055_i2c_io__write>
 8001074:	89bb      	ldrh	r3, [r7, #12]
 8001076:	0a1b      	lsrs	r3, r3, #8
 8001078:	b29b      	uxth	r3, r3
 800107a:	2bff      	cmp	r3, #255	; 0xff
 800107c:	d904      	bls.n	8001088 <bno055_i2c__set_sensor_offsets+0x1f8>
 800107e:	4833      	ldr	r0, [pc, #204]	; (800114c <bno055_i2c__set_sensor_offsets+0x2bc>)
 8001080:	f240 2127 	movw	r1, #551	; 0x227
 8001084:	f000 fa7a 	bl	800157c <__gnat_last_chance_handler>
 8001088:	687a      	ldr	r2, [r7, #4]
 800108a:	6852      	ldr	r2, [r2, #4]
 800108c:	b2db      	uxtb	r3, r3
 800108e:	4610      	mov	r0, r2
 8001090:	2164      	movs	r1, #100	; 0x64
 8001092:	461a      	mov	r2, r3
 8001094:	f000 fb94 	bl	80017c0 <bno055_i2c_io__write>
 8001098:	683b      	ldr	r3, [r7, #0]
 800109a:	895b      	ldrh	r3, [r3, #10]
 800109c:	b21b      	sxth	r3, r3
 800109e:	2b00      	cmp	r3, #0
 80010a0:	db03      	blt.n	80010aa <bno055_i2c__set_sensor_offsets+0x21a>
 80010a2:	683b      	ldr	r3, [r7, #0]
 80010a4:	895b      	ldrh	r3, [r3, #10]
 80010a6:	b29b      	uxth	r3, r3
 80010a8:	e002      	b.n	80010b0 <bno055_i2c__set_sensor_offsets+0x220>
 80010aa:	683b      	ldr	r3, [r7, #0]
 80010ac:	895b      	ldrh	r3, [r3, #10]
 80010ae:	b29b      	uxth	r3, r3
 80010b0:	81bb      	strh	r3, [r7, #12]
 80010b2:	89bb      	ldrh	r3, [r7, #12]
 80010b4:	b2db      	uxtb	r3, r3
 80010b6:	b29b      	uxth	r3, r3
 80010b8:	2bff      	cmp	r3, #255	; 0xff
 80010ba:	d904      	bls.n	80010c6 <bno055_i2c__set_sensor_offsets+0x236>
 80010bc:	4823      	ldr	r0, [pc, #140]	; (800114c <bno055_i2c__set_sensor_offsets+0x2bc>)
 80010be:	f240 212a 	movw	r1, #554	; 0x22a
 80010c2:	f000 fa5b 	bl	800157c <__gnat_last_chance_handler>
 80010c6:	687a      	ldr	r2, [r7, #4]
 80010c8:	6852      	ldr	r2, [r2, #4]
 80010ca:	b2db      	uxtb	r3, r3
 80010cc:	4610      	mov	r0, r2
 80010ce:	2165      	movs	r1, #101	; 0x65
 80010d0:	461a      	mov	r2, r3
 80010d2:	f000 fb75 	bl	80017c0 <bno055_i2c_io__write>
 80010d6:	89bb      	ldrh	r3, [r7, #12]
 80010d8:	0a1b      	lsrs	r3, r3, #8
 80010da:	b29b      	uxth	r3, r3
 80010dc:	2bff      	cmp	r3, #255	; 0xff
 80010de:	d904      	bls.n	80010ea <bno055_i2c__set_sensor_offsets+0x25a>
 80010e0:	481a      	ldr	r0, [pc, #104]	; (800114c <bno055_i2c__set_sensor_offsets+0x2bc>)
 80010e2:	f240 212b 	movw	r1, #555	; 0x22b
 80010e6:	f000 fa49 	bl	800157c <__gnat_last_chance_handler>
 80010ea:	687a      	ldr	r2, [r7, #4]
 80010ec:	6852      	ldr	r2, [r2, #4]
 80010ee:	b2db      	uxtb	r3, r3
 80010f0:	4610      	mov	r0, r2
 80010f2:	2166      	movs	r1, #102	; 0x66
 80010f4:	461a      	mov	r2, r3
 80010f6:	f000 fb63 	bl	80017c0 <bno055_i2c_io__write>
 80010fa:	683b      	ldr	r3, [r7, #0]
 80010fc:	899b      	ldrh	r3, [r3, #12]
 80010fe:	b21b      	sxth	r3, r3
 8001100:	2b00      	cmp	r3, #0
 8001102:	db03      	blt.n	800110c <bno055_i2c__set_sensor_offsets+0x27c>
 8001104:	683b      	ldr	r3, [r7, #0]
 8001106:	899b      	ldrh	r3, [r3, #12]
 8001108:	b29b      	uxth	r3, r3
 800110a:	e002      	b.n	8001112 <bno055_i2c__set_sensor_offsets+0x282>
 800110c:	683b      	ldr	r3, [r7, #0]
 800110e:	899b      	ldrh	r3, [r3, #12]
 8001110:	b29b      	uxth	r3, r3
 8001112:	81bb      	strh	r3, [r7, #12]
 8001114:	89bb      	ldrh	r3, [r7, #12]
 8001116:	b2db      	uxtb	r3, r3
 8001118:	b29b      	uxth	r3, r3
 800111a:	2bff      	cmp	r3, #255	; 0xff
 800111c:	d904      	bls.n	8001128 <bno055_i2c__set_sensor_offsets+0x298>
 800111e:	480b      	ldr	r0, [pc, #44]	; (800114c <bno055_i2c__set_sensor_offsets+0x2bc>)
 8001120:	f44f 710c 	mov.w	r1, #560	; 0x230
 8001124:	f000 fa2a 	bl	800157c <__gnat_last_chance_handler>
 8001128:	687a      	ldr	r2, [r7, #4]
 800112a:	6852      	ldr	r2, [r2, #4]
 800112c:	b2db      	uxtb	r3, r3
 800112e:	4610      	mov	r0, r2
 8001130:	215b      	movs	r1, #91	; 0x5b
 8001132:	461a      	mov	r2, r3
 8001134:	f000 fb44 	bl	80017c0 <bno055_i2c_io__write>
 8001138:	89bb      	ldrh	r3, [r7, #12]
 800113a:	0a1b      	lsrs	r3, r3, #8
 800113c:	b29b      	uxth	r3, r3
 800113e:	2bff      	cmp	r3, #255	; 0xff
 8001140:	d906      	bls.n	8001150 <bno055_i2c__set_sensor_offsets+0x2c0>
 8001142:	4802      	ldr	r0, [pc, #8]	; (800114c <bno055_i2c__set_sensor_offsets+0x2bc>)
 8001144:	f240 2131 	movw	r1, #561	; 0x231
 8001148:	f000 fa18 	bl	800157c <__gnat_last_chance_handler>
 800114c:	0800ac1c 	.word	0x0800ac1c
 8001150:	687a      	ldr	r2, [r7, #4]
 8001152:	6852      	ldr	r2, [r2, #4]
 8001154:	b2db      	uxtb	r3, r3
 8001156:	4610      	mov	r0, r2
 8001158:	215c      	movs	r1, #92	; 0x5c
 800115a:	461a      	mov	r2, r3
 800115c:	f000 fb30 	bl	80017c0 <bno055_i2c_io__write>
 8001160:	683b      	ldr	r3, [r7, #0]
 8001162:	89db      	ldrh	r3, [r3, #14]
 8001164:	b21b      	sxth	r3, r3
 8001166:	2b00      	cmp	r3, #0
 8001168:	db03      	blt.n	8001172 <bno055_i2c__set_sensor_offsets+0x2e2>
 800116a:	683b      	ldr	r3, [r7, #0]
 800116c:	89db      	ldrh	r3, [r3, #14]
 800116e:	b29b      	uxth	r3, r3
 8001170:	e002      	b.n	8001178 <bno055_i2c__set_sensor_offsets+0x2e8>
 8001172:	683b      	ldr	r3, [r7, #0]
 8001174:	89db      	ldrh	r3, [r3, #14]
 8001176:	b29b      	uxth	r3, r3
 8001178:	81bb      	strh	r3, [r7, #12]
 800117a:	89bb      	ldrh	r3, [r7, #12]
 800117c:	b2db      	uxtb	r3, r3
 800117e:	b29b      	uxth	r3, r3
 8001180:	2bff      	cmp	r3, #255	; 0xff
 8001182:	d904      	bls.n	800118e <bno055_i2c__set_sensor_offsets+0x2fe>
 8001184:	485c      	ldr	r0, [pc, #368]	; (80012f8 <bno055_i2c__set_sensor_offsets+0x468>)
 8001186:	f44f 710d 	mov.w	r1, #564	; 0x234
 800118a:	f000 f9f7 	bl	800157c <__gnat_last_chance_handler>
 800118e:	687a      	ldr	r2, [r7, #4]
 8001190:	6852      	ldr	r2, [r2, #4]
 8001192:	b2db      	uxtb	r3, r3
 8001194:	4610      	mov	r0, r2
 8001196:	215d      	movs	r1, #93	; 0x5d
 8001198:	461a      	mov	r2, r3
 800119a:	f000 fb11 	bl	80017c0 <bno055_i2c_io__write>
 800119e:	89bb      	ldrh	r3, [r7, #12]
 80011a0:	0a1b      	lsrs	r3, r3, #8
 80011a2:	b29b      	uxth	r3, r3
 80011a4:	2bff      	cmp	r3, #255	; 0xff
 80011a6:	d904      	bls.n	80011b2 <bno055_i2c__set_sensor_offsets+0x322>
 80011a8:	4853      	ldr	r0, [pc, #332]	; (80012f8 <bno055_i2c__set_sensor_offsets+0x468>)
 80011aa:	f240 2135 	movw	r1, #565	; 0x235
 80011ae:	f000 f9e5 	bl	800157c <__gnat_last_chance_handler>
 80011b2:	687a      	ldr	r2, [r7, #4]
 80011b4:	6852      	ldr	r2, [r2, #4]
 80011b6:	b2db      	uxtb	r3, r3
 80011b8:	4610      	mov	r0, r2
 80011ba:	215e      	movs	r1, #94	; 0x5e
 80011bc:	461a      	mov	r2, r3
 80011be:	f000 faff 	bl	80017c0 <bno055_i2c_io__write>
 80011c2:	683b      	ldr	r3, [r7, #0]
 80011c4:	8a1b      	ldrh	r3, [r3, #16]
 80011c6:	b21b      	sxth	r3, r3
 80011c8:	2b00      	cmp	r3, #0
 80011ca:	db03      	blt.n	80011d4 <bno055_i2c__set_sensor_offsets+0x344>
 80011cc:	683b      	ldr	r3, [r7, #0]
 80011ce:	8a1b      	ldrh	r3, [r3, #16]
 80011d0:	b29b      	uxth	r3, r3
 80011d2:	e002      	b.n	80011da <bno055_i2c__set_sensor_offsets+0x34a>
 80011d4:	683b      	ldr	r3, [r7, #0]
 80011d6:	8a1b      	ldrh	r3, [r3, #16]
 80011d8:	b29b      	uxth	r3, r3
 80011da:	81bb      	strh	r3, [r7, #12]
 80011dc:	89bb      	ldrh	r3, [r7, #12]
 80011de:	b2db      	uxtb	r3, r3
 80011e0:	b29b      	uxth	r3, r3
 80011e2:	2bff      	cmp	r3, #255	; 0xff
 80011e4:	d904      	bls.n	80011f0 <bno055_i2c__set_sensor_offsets+0x360>
 80011e6:	4844      	ldr	r0, [pc, #272]	; (80012f8 <bno055_i2c__set_sensor_offsets+0x468>)
 80011e8:	f44f 710e 	mov.w	r1, #568	; 0x238
 80011ec:	f000 f9c6 	bl	800157c <__gnat_last_chance_handler>
 80011f0:	687a      	ldr	r2, [r7, #4]
 80011f2:	6852      	ldr	r2, [r2, #4]
 80011f4:	b2db      	uxtb	r3, r3
 80011f6:	4610      	mov	r0, r2
 80011f8:	215f      	movs	r1, #95	; 0x5f
 80011fa:	461a      	mov	r2, r3
 80011fc:	f000 fae0 	bl	80017c0 <bno055_i2c_io__write>
 8001200:	89bb      	ldrh	r3, [r7, #12]
 8001202:	0a1b      	lsrs	r3, r3, #8
 8001204:	b29b      	uxth	r3, r3
 8001206:	2bff      	cmp	r3, #255	; 0xff
 8001208:	d904      	bls.n	8001214 <bno055_i2c__set_sensor_offsets+0x384>
 800120a:	483b      	ldr	r0, [pc, #236]	; (80012f8 <bno055_i2c__set_sensor_offsets+0x468>)
 800120c:	f240 2139 	movw	r1, #569	; 0x239
 8001210:	f000 f9b4 	bl	800157c <__gnat_last_chance_handler>
 8001214:	687a      	ldr	r2, [r7, #4]
 8001216:	6852      	ldr	r2, [r2, #4]
 8001218:	b2db      	uxtb	r3, r3
 800121a:	4610      	mov	r0, r2
 800121c:	2160      	movs	r1, #96	; 0x60
 800121e:	461a      	mov	r2, r3
 8001220:	f000 face 	bl	80017c0 <bno055_i2c_io__write>
 8001224:	683b      	ldr	r3, [r7, #0]
 8001226:	8a5b      	ldrh	r3, [r3, #18]
 8001228:	b21b      	sxth	r3, r3
 800122a:	2b00      	cmp	r3, #0
 800122c:	db03      	blt.n	8001236 <bno055_i2c__set_sensor_offsets+0x3a6>
 800122e:	683b      	ldr	r3, [r7, #0]
 8001230:	8a5b      	ldrh	r3, [r3, #18]
 8001232:	b29b      	uxth	r3, r3
 8001234:	e002      	b.n	800123c <bno055_i2c__set_sensor_offsets+0x3ac>
 8001236:	683b      	ldr	r3, [r7, #0]
 8001238:	8a5b      	ldrh	r3, [r3, #18]
 800123a:	b29b      	uxth	r3, r3
 800123c:	81bb      	strh	r3, [r7, #12]
 800123e:	89bb      	ldrh	r3, [r7, #12]
 8001240:	b2db      	uxtb	r3, r3
 8001242:	b29b      	uxth	r3, r3
 8001244:	2bff      	cmp	r3, #255	; 0xff
 8001246:	d904      	bls.n	8001252 <bno055_i2c__set_sensor_offsets+0x3c2>
 8001248:	482b      	ldr	r0, [pc, #172]	; (80012f8 <bno055_i2c__set_sensor_offsets+0x468>)
 800124a:	f240 213e 	movw	r1, #574	; 0x23e
 800124e:	f000 f995 	bl	800157c <__gnat_last_chance_handler>
 8001252:	687a      	ldr	r2, [r7, #4]
 8001254:	6852      	ldr	r2, [r2, #4]
 8001256:	b2db      	uxtb	r3, r3
 8001258:	4610      	mov	r0, r2
 800125a:	2167      	movs	r1, #103	; 0x67
 800125c:	461a      	mov	r2, r3
 800125e:	f000 faaf 	bl	80017c0 <bno055_i2c_io__write>
 8001262:	89bb      	ldrh	r3, [r7, #12]
 8001264:	0a1b      	lsrs	r3, r3, #8
 8001266:	b29b      	uxth	r3, r3
 8001268:	2bff      	cmp	r3, #255	; 0xff
 800126a:	d904      	bls.n	8001276 <bno055_i2c__set_sensor_offsets+0x3e6>
 800126c:	4822      	ldr	r0, [pc, #136]	; (80012f8 <bno055_i2c__set_sensor_offsets+0x468>)
 800126e:	f240 213f 	movw	r1, #575	; 0x23f
 8001272:	f000 f983 	bl	800157c <__gnat_last_chance_handler>
 8001276:	687a      	ldr	r2, [r7, #4]
 8001278:	6852      	ldr	r2, [r2, #4]
 800127a:	b2db      	uxtb	r3, r3
 800127c:	4610      	mov	r0, r2
 800127e:	2168      	movs	r1, #104	; 0x68
 8001280:	461a      	mov	r2, r3
 8001282:	f000 fa9d 	bl	80017c0 <bno055_i2c_io__write>
 8001286:	683b      	ldr	r3, [r7, #0]
 8001288:	8a9b      	ldrh	r3, [r3, #20]
 800128a:	b21b      	sxth	r3, r3
 800128c:	2b00      	cmp	r3, #0
 800128e:	db03      	blt.n	8001298 <bno055_i2c__set_sensor_offsets+0x408>
 8001290:	683b      	ldr	r3, [r7, #0]
 8001292:	8a9b      	ldrh	r3, [r3, #20]
 8001294:	b29b      	uxth	r3, r3
 8001296:	e002      	b.n	800129e <bno055_i2c__set_sensor_offsets+0x40e>
 8001298:	683b      	ldr	r3, [r7, #0]
 800129a:	8a9b      	ldrh	r3, [r3, #20]
 800129c:	b29b      	uxth	r3, r3
 800129e:	81bb      	strh	r3, [r7, #12]
 80012a0:	89bb      	ldrh	r3, [r7, #12]
 80012a2:	b2db      	uxtb	r3, r3
 80012a4:	b29b      	uxth	r3, r3
 80012a6:	2bff      	cmp	r3, #255	; 0xff
 80012a8:	d904      	bls.n	80012b4 <bno055_i2c__set_sensor_offsets+0x424>
 80012aa:	4813      	ldr	r0, [pc, #76]	; (80012f8 <bno055_i2c__set_sensor_offsets+0x468>)
 80012ac:	f44f 7111 	mov.w	r1, #580	; 0x244
 80012b0:	f000 f964 	bl	800157c <__gnat_last_chance_handler>
 80012b4:	687a      	ldr	r2, [r7, #4]
 80012b6:	6852      	ldr	r2, [r2, #4]
 80012b8:	b2db      	uxtb	r3, r3
 80012ba:	4610      	mov	r0, r2
 80012bc:	2169      	movs	r1, #105	; 0x69
 80012be:	461a      	mov	r2, r3
 80012c0:	f000 fa7e 	bl	80017c0 <bno055_i2c_io__write>
 80012c4:	89bb      	ldrh	r3, [r7, #12]
 80012c6:	0a1b      	lsrs	r3, r3, #8
 80012c8:	b29b      	uxth	r3, r3
 80012ca:	2bff      	cmp	r3, #255	; 0xff
 80012cc:	d904      	bls.n	80012d8 <bno055_i2c__set_sensor_offsets+0x448>
 80012ce:	480a      	ldr	r0, [pc, #40]	; (80012f8 <bno055_i2c__set_sensor_offsets+0x468>)
 80012d0:	f240 2145 	movw	r1, #581	; 0x245
 80012d4:	f000 f952 	bl	800157c <__gnat_last_chance_handler>
 80012d8:	687a      	ldr	r2, [r7, #4]
 80012da:	6852      	ldr	r2, [r2, #4]
 80012dc:	b2db      	uxtb	r3, r3
 80012de:	4610      	mov	r0, r2
 80012e0:	216a      	movs	r1, #106	; 0x6a
 80012e2:	461a      	mov	r2, r3
 80012e4:	f000 fa6c 	bl	80017c0 <bno055_i2c_io__write>
 80012e8:	7bfb      	ldrb	r3, [r7, #15]
 80012ea:	6878      	ldr	r0, [r7, #4]
 80012ec:	4619      	mov	r1, r3
 80012ee:	f7ff fa15 	bl	800071c <bno055_i2c__set_mode>
 80012f2:	3710      	adds	r7, #16
 80012f4:	46bd      	mov	sp, r7
 80012f6:	bd80      	pop	{r7, pc}
 80012f8:	0800ac1c 	.word	0x0800ac1c

080012fc <bno055_i2c__set_units_register>:
 80012fc:	b580      	push	{r7, lr}
 80012fe:	b084      	sub	sp, #16
 8001300:	af00      	add	r7, sp, #0
 8001302:	6078      	str	r0, [r7, #4]
 8001304:	460b      	mov	r3, r1
 8001306:	70fb      	strb	r3, [r7, #3]
 8001308:	4613      	mov	r3, r2
 800130a:	70bb      	strb	r3, [r7, #2]
 800130c:	687b      	ldr	r3, [r7, #4]
 800130e:	7a1b      	ldrb	r3, [r3, #8]
 8001310:	73fb      	strb	r3, [r7, #15]
 8001312:	7bfb      	ldrb	r3, [r7, #15]
 8001314:	2b00      	cmp	r3, #0
 8001316:	d003      	beq.n	8001320 <bno055_i2c__set_units_register+0x24>
 8001318:	6878      	ldr	r0, [r7, #4]
 800131a:	2100      	movs	r1, #0
 800131c:	f7ff f9fe 	bl	800071c <bno055_i2c__set_mode>
 8001320:	687b      	ldr	r3, [r7, #4]
 8001322:	685b      	ldr	r3, [r3, #4]
 8001324:	4618      	mov	r0, r3
 8001326:	213b      	movs	r1, #59	; 0x3b
 8001328:	f000 f9a8 	bl	800167c <bno055_i2c_io__read>
 800132c:	4603      	mov	r3, r0
 800132e:	73bb      	strb	r3, [r7, #14]
 8001330:	78bb      	ldrb	r3, [r7, #2]
 8001332:	43db      	mvns	r3, r3
 8001334:	b2da      	uxtb	r2, r3
 8001336:	7bbb      	ldrb	r3, [r7, #14]
 8001338:	4013      	ands	r3, r2
 800133a:	73bb      	strb	r3, [r7, #14]
 800133c:	7bba      	ldrb	r2, [r7, #14]
 800133e:	78fb      	ldrb	r3, [r7, #3]
 8001340:	4313      	orrs	r3, r2
 8001342:	73bb      	strb	r3, [r7, #14]
 8001344:	687b      	ldr	r3, [r7, #4]
 8001346:	685a      	ldr	r2, [r3, #4]
 8001348:	7bbb      	ldrb	r3, [r7, #14]
 800134a:	4610      	mov	r0, r2
 800134c:	213b      	movs	r1, #59	; 0x3b
 800134e:	461a      	mov	r2, r3
 8001350:	f000 fa36 	bl	80017c0 <bno055_i2c_io__write>
 8001354:	200a      	movs	r0, #10
 8001356:	f7fe ffd5 	bl	8000304 <_ada_delay_milliseconds>
 800135a:	7bfb      	ldrb	r3, [r7, #15]
 800135c:	2b00      	cmp	r3, #0
 800135e:	d004      	beq.n	800136a <bno055_i2c__set_units_register+0x6e>
 8001360:	7bfb      	ldrb	r3, [r7, #15]
 8001362:	6878      	ldr	r0, [r7, #4]
 8001364:	4619      	mov	r1, r3
 8001366:	f7ff f9d9 	bl	800071c <bno055_i2c__set_mode>
 800136a:	3710      	adds	r7, #16
 800136c:	46bd      	mov	sp, r7
 800136e:	bd80      	pop	{r7, pc}

08001370 <bno055_i2c__remap_axes>:
 8001370:	b580      	push	{r7, lr}
 8001372:	b084      	sub	sp, #16
 8001374:	af00      	add	r7, sp, #0
 8001376:	6078      	str	r0, [r7, #4]
 8001378:	6039      	str	r1, [r7, #0]
 800137a:	2300      	movs	r3, #0
 800137c:	73fb      	strb	r3, [r7, #15]
 800137e:	78bb      	ldrb	r3, [r7, #2]
 8001380:	73fb      	strb	r3, [r7, #15]
 8001382:	7bfb      	ldrb	r3, [r7, #15]
 8001384:	009b      	lsls	r3, r3, #2
 8001386:	73fb      	strb	r3, [r7, #15]
 8001388:	787a      	ldrb	r2, [r7, #1]
 800138a:	7bfb      	ldrb	r3, [r7, #15]
 800138c:	4313      	orrs	r3, r2
 800138e:	73fb      	strb	r3, [r7, #15]
 8001390:	7bfb      	ldrb	r3, [r7, #15]
 8001392:	009b      	lsls	r3, r3, #2
 8001394:	73fb      	strb	r3, [r7, #15]
 8001396:	783a      	ldrb	r2, [r7, #0]
 8001398:	7bfb      	ldrb	r3, [r7, #15]
 800139a:	4313      	orrs	r3, r2
 800139c:	73fb      	strb	r3, [r7, #15]
 800139e:	687b      	ldr	r3, [r7, #4]
 80013a0:	685a      	ldr	r2, [r3, #4]
 80013a2:	7bfb      	ldrb	r3, [r7, #15]
 80013a4:	4610      	mov	r0, r2
 80013a6:	2141      	movs	r1, #65	; 0x41
 80013a8:	461a      	mov	r2, r3
 80013aa:	f000 fa09 	bl	80017c0 <bno055_i2c_io__write>
 80013ae:	200a      	movs	r0, #10
 80013b0:	f7fe ffa8 	bl	8000304 <_ada_delay_milliseconds>
 80013b4:	3710      	adds	r7, #16
 80013b6:	46bd      	mov	sp, r7
 80013b8:	bd80      	pop	{r7, pc}
 80013ba:	bf00      	nop

080013bc <bno055_i2c__remap_axes_signs>:
 80013bc:	b580      	push	{r7, lr}
 80013be:	b084      	sub	sp, #16
 80013c0:	af00      	add	r7, sp, #0
 80013c2:	6078      	str	r0, [r7, #4]
 80013c4:	6039      	str	r1, [r7, #0]
 80013c6:	2300      	movs	r3, #0
 80013c8:	73fb      	strb	r3, [r7, #15]
 80013ca:	783b      	ldrb	r3, [r7, #0]
 80013cc:	73fb      	strb	r3, [r7, #15]
 80013ce:	7bfb      	ldrb	r3, [r7, #15]
 80013d0:	005b      	lsls	r3, r3, #1
 80013d2:	73fb      	strb	r3, [r7, #15]
 80013d4:	787a      	ldrb	r2, [r7, #1]
 80013d6:	7bfb      	ldrb	r3, [r7, #15]
 80013d8:	4313      	orrs	r3, r2
 80013da:	73fb      	strb	r3, [r7, #15]
 80013dc:	7bfb      	ldrb	r3, [r7, #15]
 80013de:	005b      	lsls	r3, r3, #1
 80013e0:	73fb      	strb	r3, [r7, #15]
 80013e2:	78ba      	ldrb	r2, [r7, #2]
 80013e4:	7bfb      	ldrb	r3, [r7, #15]
 80013e6:	4313      	orrs	r3, r2
 80013e8:	73fb      	strb	r3, [r7, #15]
 80013ea:	687b      	ldr	r3, [r7, #4]
 80013ec:	685a      	ldr	r2, [r3, #4]
 80013ee:	7bfb      	ldrb	r3, [r7, #15]
 80013f0:	4610      	mov	r0, r2
 80013f2:	2142      	movs	r1, #66	; 0x42
 80013f4:	461a      	mov	r2, r3
 80013f6:	f000 f9e3 	bl	80017c0 <bno055_i2c_io__write>
 80013fa:	200a      	movs	r0, #10
 80013fc:	f7fe ff82 	bl	8000304 <_ada_delay_milliseconds>
 8001400:	3710      	adds	r7, #16
 8001402:	46bd      	mov	sp, r7
 8001404:	bd80      	pop	{r7, pc}
 8001406:	bf00      	nop

08001408 <bno055_i2c__value_at__2>:
 8001408:	b580      	push	{r7, lr}
 800140a:	b084      	sub	sp, #16
 800140c:	af00      	add	r7, sp, #0
 800140e:	6078      	str	r0, [r7, #4]
 8001410:	460b      	mov	r3, r1
 8001412:	70fb      	strb	r3, [r7, #3]
 8001414:	4613      	mov	r3, r2
 8001416:	70bb      	strb	r3, [r7, #2]
 8001418:	687b      	ldr	r3, [r7, #4]
 800141a:	685a      	ldr	r2, [r3, #4]
 800141c:	78fb      	ldrb	r3, [r7, #3]
 800141e:	4610      	mov	r0, r2
 8001420:	4619      	mov	r1, r3
 8001422:	f000 f92b 	bl	800167c <bno055_i2c_io__read>
 8001426:	4603      	mov	r3, r0
 8001428:	73fb      	strb	r3, [r7, #15]
 800142a:	687b      	ldr	r3, [r7, #4]
 800142c:	685a      	ldr	r2, [r3, #4]
 800142e:	78bb      	ldrb	r3, [r7, #2]
 8001430:	4610      	mov	r0, r2
 8001432:	4619      	mov	r1, r3
 8001434:	f000 f922 	bl	800167c <bno055_i2c_io__read>
 8001438:	4603      	mov	r3, r0
 800143a:	73bb      	strb	r3, [r7, #14]
 800143c:	7bba      	ldrb	r2, [r7, #14]
 800143e:	7bfb      	ldrb	r3, [r7, #15]
 8001440:	4610      	mov	r0, r2
 8001442:	4619      	mov	r1, r3
 8001444:	f000 f830 	bl	80014a8 <bno055_i2c__to_integer_16>
 8001448:	4603      	mov	r3, r0
 800144a:	bf00      	nop
 800144c:	4618      	mov	r0, r3
 800144e:	3710      	adds	r7, #16
 8001450:	46bd      	mov	sp, r7
 8001452:	bd80      	pop	{r7, pc}

08001454 <bno055_i2c__value_at>:
 8001454:	b580      	push	{r7, lr}
 8001456:	b084      	sub	sp, #16
 8001458:	af00      	add	r7, sp, #0
 800145a:	6078      	str	r0, [r7, #4]
 800145c:	460b      	mov	r3, r1
 800145e:	70fb      	strb	r3, [r7, #3]
 8001460:	4613      	mov	r3, r2
 8001462:	70bb      	strb	r3, [r7, #2]
 8001464:	687b      	ldr	r3, [r7, #4]
 8001466:	685a      	ldr	r2, [r3, #4]
 8001468:	78fb      	ldrb	r3, [r7, #3]
 800146a:	4610      	mov	r0, r2
 800146c:	4619      	mov	r1, r3
 800146e:	f000 f905 	bl	800167c <bno055_i2c_io__read>
 8001472:	4603      	mov	r3, r0
 8001474:	73fb      	strb	r3, [r7, #15]
 8001476:	687b      	ldr	r3, [r7, #4]
 8001478:	685a      	ldr	r2, [r3, #4]
 800147a:	78bb      	ldrb	r3, [r7, #2]
 800147c:	4610      	mov	r0, r2
 800147e:	4619      	mov	r1, r3
 8001480:	f000 f8fc 	bl	800167c <bno055_i2c_io__read>
 8001484:	4603      	mov	r3, r0
 8001486:	73bb      	strb	r3, [r7, #14]
 8001488:	7bfb      	ldrb	r3, [r7, #15]
 800148a:	81bb      	strh	r3, [r7, #12]
 800148c:	89bb      	ldrh	r3, [r7, #12]
 800148e:	021b      	lsls	r3, r3, #8
 8001490:	81bb      	strh	r3, [r7, #12]
 8001492:	7bbb      	ldrb	r3, [r7, #14]
 8001494:	b29a      	uxth	r2, r3
 8001496:	89bb      	ldrh	r3, [r7, #12]
 8001498:	4313      	orrs	r3, r2
 800149a:	81bb      	strh	r3, [r7, #12]
 800149c:	89bb      	ldrh	r3, [r7, #12]
 800149e:	bf00      	nop
 80014a0:	4618      	mov	r0, r3
 80014a2:	3710      	adds	r7, #16
 80014a4:	46bd      	mov	sp, r7
 80014a6:	bd80      	pop	{r7, pc}

080014a8 <bno055_i2c__to_integer_16>:
 80014a8:	b580      	push	{r7, lr}
 80014aa:	b084      	sub	sp, #16
 80014ac:	af00      	add	r7, sp, #0
 80014ae:	4603      	mov	r3, r0
 80014b0:	460a      	mov	r2, r1
 80014b2:	71fb      	strb	r3, [r7, #7]
 80014b4:	4613      	mov	r3, r2
 80014b6:	71bb      	strb	r3, [r7, #6]
 80014b8:	79bb      	ldrb	r3, [r7, #6]
 80014ba:	f5b3 0f00 	cmp.w	r3, #8388608	; 0x800000
 80014be:	da03      	bge.n	80014c8 <bno055_i2c__to_integer_16+0x20>
 80014c0:	79bb      	ldrb	r3, [r7, #6]
 80014c2:	f513 0f00 	cmn.w	r3, #8388608	; 0x800000
 80014c6:	da04      	bge.n	80014d2 <bno055_i2c__to_integer_16+0x2a>
 80014c8:	482b      	ldr	r0, [pc, #172]	; (8001578 <bno055_i2c__to_integer_16+0xd0>)
 80014ca:	f240 21b6 	movw	r1, #694	; 0x2b6
 80014ce:	f000 f855 	bl	800157c <__gnat_last_chance_handler>
 80014d2:	79bb      	ldrb	r3, [r7, #6]
 80014d4:	021b      	lsls	r3, r3, #8
 80014d6:	60fb      	str	r3, [r7, #12]
 80014d8:	79fa      	ldrb	r2, [r7, #7]
 80014da:	68fb      	ldr	r3, [r7, #12]
 80014dc:	4413      	add	r3, r2
 80014de:	461a      	mov	r2, r3
 80014e0:	68fb      	ldr	r3, [r7, #12]
 80014e2:	429a      	cmp	r2, r3
 80014e4:	da04      	bge.n	80014f0 <bno055_i2c__to_integer_16+0x48>
 80014e6:	4824      	ldr	r0, [pc, #144]	; (8001578 <bno055_i2c__to_integer_16+0xd0>)
 80014e8:	f240 21b7 	movw	r1, #695	; 0x2b7
 80014ec:	f000 f846 	bl	800157c <__gnat_last_chance_handler>
 80014f0:	79fa      	ldrb	r2, [r7, #7]
 80014f2:	68fb      	ldr	r3, [r7, #12]
 80014f4:	4413      	add	r3, r2
 80014f6:	60fb      	str	r3, [r7, #12]
 80014f8:	79bb      	ldrb	r3, [r7, #6]
 80014fa:	b25b      	sxtb	r3, r3
 80014fc:	2b00      	cmp	r3, #0
 80014fe:	da26      	bge.n	800154e <bno055_i2c__to_integer_16+0xa6>
 8001500:	68fb      	ldr	r3, [r7, #12]
 8001502:	0fdb      	lsrs	r3, r3, #31
 8001504:	b2da      	uxtb	r2, r3
 8001506:	68fb      	ldr	r3, [r7, #12]
 8001508:	f5c3 437f 	rsb	r3, r3, #65280	; 0xff00
 800150c:	33ff      	adds	r3, #255	; 0xff
 800150e:	4619      	mov	r1, r3
 8001510:	f64f 73ff 	movw	r3, #65535	; 0xffff
 8001514:	4299      	cmp	r1, r3
 8001516:	bfcc      	ite	gt
 8001518:	2301      	movgt	r3, #1
 800151a:	2300      	movle	r3, #0
 800151c:	b2db      	uxtb	r3, r3
 800151e:	4053      	eors	r3, r2
 8001520:	b2db      	uxtb	r3, r3
 8001522:	2b00      	cmp	r3, #0
 8001524:	d004      	beq.n	8001530 <bno055_i2c__to_integer_16+0x88>
 8001526:	4814      	ldr	r0, [pc, #80]	; (8001578 <bno055_i2c__to_integer_16+0xd0>)
 8001528:	f240 21b9 	movw	r1, #697	; 0x2b9
 800152c:	f000 f826 	bl	800157c <__gnat_last_chance_handler>
 8001530:	68fb      	ldr	r3, [r7, #12]
 8001532:	f5c3 437f 	rsb	r3, r3, #65280	; 0xff00
 8001536:	33ff      	adds	r3, #255	; 0xff
 8001538:	f06f 4200 	mvn.w	r2, #2147483648	; 0x80000000
 800153c:	4293      	cmp	r3, r2
 800153e:	d104      	bne.n	800154a <bno055_i2c__to_integer_16+0xa2>
 8001540:	480d      	ldr	r0, [pc, #52]	; (8001578 <bno055_i2c__to_integer_16+0xd0>)
 8001542:	f240 21b9 	movw	r1, #697	; 0x2b9
 8001546:	f000 f819 	bl	800157c <__gnat_last_chance_handler>
 800154a:	43db      	mvns	r3, r3
 800154c:	60fb      	str	r3, [r7, #12]
 800154e:	68fb      	ldr	r3, [r7, #12]
 8001550:	f513 4f00 	cmn.w	r3, #32768	; 0x8000
 8001554:	db03      	blt.n	800155e <bno055_i2c__to_integer_16+0xb6>
 8001556:	68fb      	ldr	r3, [r7, #12]
 8001558:	f5b3 4f00 	cmp.w	r3, #32768	; 0x8000
 800155c:	db04      	blt.n	8001568 <bno055_i2c__to_integer_16+0xc0>
 800155e:	4806      	ldr	r0, [pc, #24]	; (8001578 <bno055_i2c__to_integer_16+0xd0>)
 8001560:	f240 21bb 	movw	r1, #699	; 0x2bb
 8001564:	f000 f80a 	bl	800157c <__gnat_last_chance_handler>
 8001568:	68fb      	ldr	r3, [r7, #12]
 800156a:	b29b      	uxth	r3, r3
 800156c:	b21b      	sxth	r3, r3
 800156e:	bf00      	nop
 8001570:	4618      	mov	r0, r3
 8001572:	3710      	adds	r7, #16
 8001574:	46bd      	mov	sp, r7
 8001576:	bd80      	pop	{r7, pc}
 8001578:	0800ac1c 	.word	0x0800ac1c

0800157c <__gnat_last_chance_handler>:
 800157c:	b5f0      	push	{r4, r5, r6, r7, lr}
 800157e:	b083      	sub	sp, #12
 8001580:	af00      	add	r7, sp, #0
 8001582:	6078      	str	r0, [r7, #4]
 8001584:	6039      	str	r1, [r7, #0]
 8001586:	f000 f81f 	bl	80015c8 <stm32__board__initialize_leds>
 800158a:	f000 f835 	bl	80015f8 <stm32__board__all_leds_off>
 800158e:	480d      	ldr	r0, [pc, #52]	; (80015c4 <__gnat_last_chance_handler+0x48>)
 8001590:	f004 fe3e 	bl	8006210 <stm32__gpio__toggle>
 8001594:	f007 f932 	bl	80087fc <ada__real_time__clock>
 8001598:	4605      	mov	r5, r0
 800159a:	460e      	mov	r6, r1
 800159c:	f44f 70fa 	mov.w	r0, #500	; 0x1f4
 80015a0:	f007 f974 	bl	800888c <ada__real_time__milliseconds>
 80015a4:	4603      	mov	r3, r0
 80015a6:	460c      	mov	r4, r1
 80015a8:	4628      	mov	r0, r5
 80015aa:	4631      	mov	r1, r6
 80015ac:	461a      	mov	r2, r3
 80015ae:	4623      	mov	r3, r4
 80015b0:	f007 f8ca 	bl	8008748 <ada__real_time__Oadd>
 80015b4:	4603      	mov	r3, r0
 80015b6:	460c      	mov	r4, r1
 80015b8:	4618      	mov	r0, r3
 80015ba:	4621      	mov	r1, r4
 80015bc:	f007 fd32 	bl	8009024 <ada__real_time__delays__delay_until>
 80015c0:	e7e5      	b.n	800158e <__gnat_last_chance_handler+0x12>
 80015c2:	bf00      	nop
 80015c4:	200002fc 	.word	0x200002fc

080015c8 <stm32__board__initialize_leds>:
 80015c8:	b580      	push	{r7, lr}
 80015ca:	b082      	sub	sp, #8
 80015cc:	af00      	add	r7, sp, #0
 80015ce:	4809      	ldr	r0, [pc, #36]	; (80015f4 <stm32__board__initialize_leds+0x2c>)
 80015d0:	f000 fab8 	bl	8001b44 <stm32__device__enable_clock__2>
 80015d4:	2301      	movs	r3, #1
 80015d6:	713b      	strb	r3, [r7, #4]
 80015d8:	2300      	movs	r3, #0
 80015da:	717b      	strb	r3, [r7, #5]
 80015dc:	2300      	movs	r3, #0
 80015de:	71bb      	strb	r3, [r7, #6]
 80015e0:	2300      	movs	r3, #0
 80015e2:	71fb      	strb	r3, [r7, #7]
 80015e4:	4803      	ldr	r0, [pc, #12]	; (80015f4 <stm32__board__initialize_leds+0x2c>)
 80015e6:	6879      	ldr	r1, [r7, #4]
 80015e8:	f004 fece 	bl	8006388 <stm32__gpio__configure_io>
 80015ec:	3708      	adds	r7, #8
 80015ee:	46bd      	mov	sp, r7
 80015f0:	bd80      	pop	{r7, pc}
 80015f2:	bf00      	nop
 80015f4:	200002fc 	.word	0x200002fc

080015f8 <stm32__board__all_leds_off>:
 80015f8:	b580      	push	{r7, lr}
 80015fa:	af00      	add	r7, sp, #0
 80015fc:	4801      	ldr	r0, [pc, #4]	; (8001604 <stm32__board__all_leds_off+0xc>)
 80015fe:	f004 fdab 	bl	8006158 <stm32__gpio__set__2>
 8001602:	bd80      	pop	{r7, pc}
 8001604:	200002fc 	.word	0x200002fc

08001608 <bno055_i2c_io___size>:
 8001608:	b490      	push	{r4, r7}
 800160a:	b082      	sub	sp, #8
 800160c:	af00      	add	r7, sp, #0
 800160e:	6078      	str	r0, [r7, #4]
 8001610:	f04f 0360 	mov.w	r3, #96	; 0x60
 8001614:	f04f 0400 	mov.w	r4, #0
 8001618:	4618      	mov	r0, r3
 800161a:	4621      	mov	r1, r4
 800161c:	3708      	adds	r7, #8
 800161e:	46bd      	mov	sp, r7
 8001620:	bc90      	pop	{r4, r7}
 8001622:	4770      	bx	lr

08001624 <bno055_i2c_io__Oeq>:
 8001624:	b480      	push	{r7}
 8001626:	b083      	sub	sp, #12
 8001628:	af00      	add	r7, sp, #0
 800162a:	6078      	str	r0, [r7, #4]
 800162c:	6039      	str	r1, [r7, #0]
 800162e:	687b      	ldr	r3, [r7, #4]
 8001630:	685a      	ldr	r2, [r3, #4]
 8001632:	683b      	ldr	r3, [r7, #0]
 8001634:	685b      	ldr	r3, [r3, #4]
 8001636:	429a      	cmp	r2, r3
 8001638:	d107      	bne.n	800164a <bno055_i2c_io__Oeq+0x26>
 800163a:	687b      	ldr	r3, [r7, #4]
 800163c:	891a      	ldrh	r2, [r3, #8]
 800163e:	683b      	ldr	r3, [r7, #0]
 8001640:	891b      	ldrh	r3, [r3, #8]
 8001642:	429a      	cmp	r2, r3
 8001644:	d101      	bne.n	800164a <bno055_i2c_io__Oeq+0x26>
 8001646:	2301      	movs	r3, #1
 8001648:	e000      	b.n	800164c <bno055_i2c_io__Oeq+0x28>
 800164a:	2300      	movs	r3, #0
 800164c:	4618      	mov	r0, r3
 800164e:	370c      	adds	r7, #12
 8001650:	46bd      	mov	sp, r7
 8001652:	f85d 7b04 	ldr.w	r7, [sp], #4
 8001656:	4770      	bx	lr

08001658 <bno055_i2c_io___assign>:
 8001658:	b490      	push	{r4, r7}
 800165a:	b082      	sub	sp, #8
 800165c:	af00      	add	r7, sp, #0
 800165e:	6078      	str	r0, [r7, #4]
 8001660:	6039      	str	r1, [r7, #0]
 8001662:	687b      	ldr	r3, [r7, #4]
 8001664:	681c      	ldr	r4, [r3, #0]
 8001666:	687b      	ldr	r3, [r7, #4]
 8001668:	683a      	ldr	r2, [r7, #0]
 800166a:	ca07      	ldmia	r2, {r0, r1, r2}
 800166c:	e883 0007 	stmia.w	r3, {r0, r1, r2}
 8001670:	687b      	ldr	r3, [r7, #4]
 8001672:	601c      	str	r4, [r3, #0]
 8001674:	3708      	adds	r7, #8
 8001676:	46bd      	mov	sp, r7
 8001678:	bc90      	pop	{r4, r7}
 800167a:	4770      	bx	lr

0800167c <bno055_i2c_io__read>:
 800167c:	e92d 4ff0 	stmdb	sp!, {r4, r5, r6, r7, r8, r9, sl, fp, lr}
 8001680:	b097      	sub	sp, #92	; 0x5c
 8001682:	af04      	add	r7, sp, #16
 8001684:	60f8      	str	r0, [r7, #12]
 8001686:	460a      	mov	r2, r1
 8001688:	72fa      	strb	r2, [r7, #11]
 800168a:	466a      	mov	r2, sp
 800168c:	607a      	str	r2, [r7, #4]
 800168e:	68fa      	ldr	r2, [r7, #12]
 8001690:	2a00      	cmp	r2, #0
 8001692:	d103      	bne.n	800169c <bno055_i2c_io__read+0x20>
 8001694:	4846      	ldr	r0, [pc, #280]	; (80017b0 <bno055_i2c_io__read+0x134>)
 8001696:	212f      	movs	r1, #47	; 0x2f
 8001698:	f7ff ff70 	bl	800157c <__gnat_last_chance_handler>
 800169c:	68fa      	ldr	r2, [r7, #12]
 800169e:	6852      	ldr	r2, [r2, #4]
 80016a0:	2a00      	cmp	r2, #0
 80016a2:	d103      	bne.n	80016ac <bno055_i2c_io__read+0x30>
 80016a4:	4842      	ldr	r0, [pc, #264]	; (80017b0 <bno055_i2c_io__read+0x134>)
 80016a6:	212f      	movs	r1, #47	; 0x2f
 80016a8:	f7ff ff68 	bl	800157c <__gnat_last_chance_handler>
 80016ac:	68fa      	ldr	r2, [r7, #12]
 80016ae:	2a00      	cmp	r2, #0
 80016b0:	d103      	bne.n	80016ba <bno055_i2c_io__read+0x3e>
 80016b2:	483f      	ldr	r0, [pc, #252]	; (80017b0 <bno055_i2c_io__read+0x134>)
 80016b4:	2130      	movs	r1, #48	; 0x30
 80016b6:	f7ff ff61 	bl	800157c <__gnat_last_chance_handler>
 80016ba:	68fa      	ldr	r2, [r7, #12]
 80016bc:	6852      	ldr	r2, [r2, #4]
 80016be:	6812      	ldr	r2, [r2, #0]
 80016c0:	68d5      	ldr	r5, [r2, #12]
 80016c2:	68fa      	ldr	r2, [r7, #12]
 80016c4:	6850      	ldr	r0, [r2, #4]
 80016c6:	68fa      	ldr	r2, [r7, #12]
 80016c8:	8911      	ldrh	r1, [r2, #8]
 80016ca:	7afa      	ldrb	r2, [r7, #11]
 80016cc:	b292      	uxth	r2, r2
 80016ce:	f107 062c 	add.w	r6, r7, #44	; 0x2c
 80016d2:	4633      	mov	r3, r6
 80016d4:	4c37      	ldr	r4, [pc, #220]	; (80017b4 <bno055_i2c_io__read+0x138>)
 80016d6:	e9cd 3400 	strd	r3, r4, [sp]
 80016da:	f44f 737a 	mov.w	r3, #1000	; 0x3e8
 80016de:	9302      	str	r3, [sp, #8]
 80016e0:	2300      	movs	r3, #0
 80016e2:	47a8      	blx	r5
 80016e4:	4603      	mov	r3, r0
 80016e6:	f887 3047 	strb.w	r3, [r7, #71]	; 0x47
 80016ea:	f897 3047 	ldrb.w	r3, [r7, #71]	; 0x47
 80016ee:	2b00      	cmp	r3, #0
 80016f0:	d050      	beq.n	8001794 <bno055_i2c_io__read+0x118>
 80016f2:	f897 3047 	ldrb.w	r3, [r7, #71]	; 0x47
 80016f6:	f04f 0400 	mov.w	r4, #0
 80016fa:	f107 0218 	add.w	r2, r7, #24
 80016fe:	4692      	mov	sl, r2
 8001700:	f8df b0b8 	ldr.w	fp, [pc, #184]	; 80017bc <bno055_i2c_io__read+0x140>
 8001704:	4618      	mov	r0, r3
 8001706:	4621      	mov	r1, r4
 8001708:	4652      	mov	r2, sl
 800170a:	465b      	mov	r3, fp
 800170c:	f008 fa94 	bl	8009c38 <system__img_lli__image_long_long_integer>
 8001710:	4603      	mov	r3, r0
 8001712:	ea23 73e3 	bic.w	r3, r3, r3, asr #31
 8001716:	f103 050f 	add.w	r5, r3, #15
 800171a:	643d      	str	r5, [r7, #64]	; 0x40
 800171c:	6c3b      	ldr	r3, [r7, #64]	; 0x40
 800171e:	ea23 73e3 	bic.w	r3, r3, r3, asr #31
 8001722:	63fb      	str	r3, [r7, #60]	; 0x3c
 8001724:	6c3b      	ldr	r3, [r7, #64]	; 0x40
 8001726:	ea23 73e3 	bic.w	r3, r3, r3, asr #31
 800172a:	3307      	adds	r3, #7
 800172c:	08db      	lsrs	r3, r3, #3
 800172e:	00db      	lsls	r3, r3, #3
 8001730:	ebad 0d03 	sub.w	sp, sp, r3
 8001734:	ab04      	add	r3, sp, #16
 8001736:	3300      	adds	r3, #0
 8001738:	63bb      	str	r3, [r7, #56]	; 0x38
 800173a:	6bbb      	ldr	r3, [r7, #56]	; 0x38
 800173c:	4a1e      	ldr	r2, [pc, #120]	; (80017b8 <bno055_i2c_io__read+0x13c>)
 800173e:	461c      	mov	r4, r3
 8001740:	4613      	mov	r3, r2
 8001742:	cb07      	ldmia	r3!, {r0, r1, r2}
 8001744:	6020      	str	r0, [r4, #0]
 8001746:	6061      	str	r1, [r4, #4]
 8001748:	60a2      	str	r2, [r4, #8]
 800174a:	881a      	ldrh	r2, [r3, #0]
 800174c:	789b      	ldrb	r3, [r3, #2]
 800174e:	81a2      	strh	r2, [r4, #12]
 8001750:	73a3      	strb	r3, [r4, #14]
 8001752:	462b      	mov	r3, r5
 8001754:	2b0f      	cmp	r3, #15
 8001756:	bfb8      	it	lt
 8001758:	230f      	movlt	r3, #15
 800175a:	f1a3 020f 	sub.w	r2, r3, #15
 800175e:	6bbb      	ldr	r3, [r7, #56]	; 0x38
 8001760:	f103 010f 	add.w	r1, r3, #15
 8001764:	f107 0318 	add.w	r3, r7, #24
 8001768:	4608      	mov	r0, r1
 800176a:	4619      	mov	r1, r3
 800176c:	4613      	mov	r3, r2
 800176e:	461a      	mov	r2, r3
 8001770:	f008 f9f2 	bl	8009b58 <memcpy>
 8001774:	6bbb      	ldr	r3, [r7, #56]	; 0x38
 8001776:	4698      	mov	r8, r3
 8001778:	2301      	movs	r3, #1
 800177a:	633b      	str	r3, [r7, #48]	; 0x30
 800177c:	6c3b      	ldr	r3, [r7, #64]	; 0x40
 800177e:	637b      	str	r3, [r7, #52]	; 0x34
 8001780:	f107 0330 	add.w	r3, r7, #48	; 0x30
 8001784:	4699      	mov	r9, r3
 8001786:	e9c7 8904 	strd	r8, r9, [r7, #16]
 800178a:	693b      	ldr	r3, [r7, #16]
 800178c:	4618      	mov	r0, r3
 800178e:	2100      	movs	r1, #0
 8001790:	f7ff fef4 	bl	800157c <__gnat_last_chance_handler>
 8001794:	f897 302c 	ldrb.w	r3, [r7, #44]	; 0x2c
 8001798:	f887 302f 	strb.w	r3, [r7, #47]	; 0x2f
 800179c:	f8d7 d004 	ldr.w	sp, [r7, #4]
 80017a0:	f897 302f 	ldrb.w	r3, [r7, #47]	; 0x2f
 80017a4:	bf00      	nop
 80017a6:	4618      	mov	r0, r3
 80017a8:	374c      	adds	r7, #76	; 0x4c
 80017aa:	46bd      	mov	sp, r7
 80017ac:	e8bd 8ff0 	ldmia.w	sp!, {r4, r5, r6, r7, r8, r9, sl, fp, pc}
 80017b0:	0800ad64 	.word	0x0800ad64
 80017b4:	0800ad78 	.word	0x0800ad78
 80017b8:	0800ad80 	.word	0x0800ad80
 80017bc:	0800ad90 	.word	0x0800ad90

080017c0 <bno055_i2c_io__write>:
 80017c0:	e92d 4ff0 	stmdb	sp!, {r4, r5, r6, r7, r8, r9, sl, fp, lr}
 80017c4:	b097      	sub	sp, #92	; 0x5c
 80017c6:	af04      	add	r7, sp, #16
 80017c8:	60f8      	str	r0, [r7, #12]
 80017ca:	4608      	mov	r0, r1
 80017cc:	4611      	mov	r1, r2
 80017ce:	4602      	mov	r2, r0
 80017d0:	72fa      	strb	r2, [r7, #11]
 80017d2:	460a      	mov	r2, r1
 80017d4:	72ba      	strb	r2, [r7, #10]
 80017d6:	466a      	mov	r2, sp
 80017d8:	607a      	str	r2, [r7, #4]
 80017da:	7aba      	ldrb	r2, [r7, #10]
 80017dc:	f887 202c 	strb.w	r2, [r7, #44]	; 0x2c
 80017e0:	68fa      	ldr	r2, [r7, #12]
 80017e2:	2a00      	cmp	r2, #0
 80017e4:	d103      	bne.n	80017ee <bno055_i2c_io__write+0x2e>
 80017e6:	4841      	ldr	r0, [pc, #260]	; (80018ec <bno055_i2c_io__write+0x12c>)
 80017e8:	2148      	movs	r1, #72	; 0x48
 80017ea:	f7ff fec7 	bl	800157c <__gnat_last_chance_handler>
 80017ee:	68fa      	ldr	r2, [r7, #12]
 80017f0:	6852      	ldr	r2, [r2, #4]
 80017f2:	2a00      	cmp	r2, #0
 80017f4:	d103      	bne.n	80017fe <bno055_i2c_io__write+0x3e>
 80017f6:	483d      	ldr	r0, [pc, #244]	; (80018ec <bno055_i2c_io__write+0x12c>)
 80017f8:	2148      	movs	r1, #72	; 0x48
 80017fa:	f7ff febf 	bl	800157c <__gnat_last_chance_handler>
 80017fe:	68fa      	ldr	r2, [r7, #12]
 8001800:	2a00      	cmp	r2, #0
 8001802:	d103      	bne.n	800180c <bno055_i2c_io__write+0x4c>
 8001804:	4839      	ldr	r0, [pc, #228]	; (80018ec <bno055_i2c_io__write+0x12c>)
 8001806:	2149      	movs	r1, #73	; 0x49
 8001808:	f7ff feb8 	bl	800157c <__gnat_last_chance_handler>
 800180c:	68fa      	ldr	r2, [r7, #12]
 800180e:	6852      	ldr	r2, [r2, #4]
 8001810:	6812      	ldr	r2, [r2, #0]
 8001812:	6895      	ldr	r5, [r2, #8]
 8001814:	68fa      	ldr	r2, [r7, #12]
 8001816:	6850      	ldr	r0, [r2, #4]
 8001818:	68fa      	ldr	r2, [r7, #12]
 800181a:	8911      	ldrh	r1, [r2, #8]
 800181c:	7afa      	ldrb	r2, [r7, #11]
 800181e:	b292      	uxth	r2, r2
 8001820:	f107 062c 	add.w	r6, r7, #44	; 0x2c
 8001824:	4633      	mov	r3, r6
 8001826:	4c32      	ldr	r4, [pc, #200]	; (80018f0 <bno055_i2c_io__write+0x130>)
 8001828:	e9cd 3400 	strd	r3, r4, [sp]
 800182c:	f44f 737a 	mov.w	r3, #1000	; 0x3e8
 8001830:	9302      	str	r3, [sp, #8]
 8001832:	2300      	movs	r3, #0
 8001834:	47a8      	blx	r5
 8001836:	4603      	mov	r3, r0
 8001838:	f887 3047 	strb.w	r3, [r7, #71]	; 0x47
 800183c:	f897 3047 	ldrb.w	r3, [r7, #71]	; 0x47
 8001840:	2b00      	cmp	r3, #0
 8001842:	d04d      	beq.n	80018e0 <bno055_i2c_io__write+0x120>
 8001844:	f897 3047 	ldrb.w	r3, [r7, #71]	; 0x47
 8001848:	f04f 0400 	mov.w	r4, #0
 800184c:	f107 0218 	add.w	r2, r7, #24
 8001850:	4692      	mov	sl, r2
 8001852:	f8df b0a4 	ldr.w	fp, [pc, #164]	; 80018f8 <bno055_i2c_io__write+0x138>
 8001856:	4618      	mov	r0, r3
 8001858:	4621      	mov	r1, r4
 800185a:	4652      	mov	r2, sl
 800185c:	465b      	mov	r3, fp
 800185e:	f008 f9eb 	bl	8009c38 <system__img_lli__image_long_long_integer>
 8001862:	4603      	mov	r3, r0
 8001864:	ea23 73e3 	bic.w	r3, r3, r3, asr #31
 8001868:	f103 0610 	add.w	r6, r3, #16
 800186c:	643e      	str	r6, [r7, #64]	; 0x40
 800186e:	6c3b      	ldr	r3, [r7, #64]	; 0x40
 8001870:	ea23 73e3 	bic.w	r3, r3, r3, asr #31
 8001874:	63fb      	str	r3, [r7, #60]	; 0x3c
 8001876:	6c3b      	ldr	r3, [r7, #64]	; 0x40
 8001878:	ea23 73e3 	bic.w	r3, r3, r3, asr #31
 800187c:	3307      	adds	r3, #7
 800187e:	08db      	lsrs	r3, r3, #3
 8001880:	00db      	lsls	r3, r3, #3
 8001882:	ebad 0d03 	sub.w	sp, sp, r3
 8001886:	ab04      	add	r3, sp, #16
 8001888:	3300      	adds	r3, #0
 800188a:	63bb      	str	r3, [r7, #56]	; 0x38
 800188c:	6bbb      	ldr	r3, [r7, #56]	; 0x38
 800188e:	4a19      	ldr	r2, [pc, #100]	; (80018f4 <bno055_i2c_io__write+0x134>)
 8001890:	461c      	mov	r4, r3
 8001892:	4615      	mov	r5, r2
 8001894:	cd0f      	ldmia	r5!, {r0, r1, r2, r3}
 8001896:	6020      	str	r0, [r4, #0]
 8001898:	6061      	str	r1, [r4, #4]
 800189a:	60a2      	str	r2, [r4, #8]
 800189c:	60e3      	str	r3, [r4, #12]
 800189e:	4633      	mov	r3, r6
 80018a0:	2b10      	cmp	r3, #16
 80018a2:	bfb8      	it	lt
 80018a4:	2310      	movlt	r3, #16
 80018a6:	f1a3 0210 	sub.w	r2, r3, #16
 80018aa:	6bbb      	ldr	r3, [r7, #56]	; 0x38
 80018ac:	f103 0110 	add.w	r1, r3, #16
 80018b0:	f107 0318 	add.w	r3, r7, #24
 80018b4:	4608      	mov	r0, r1
 80018b6:	4619      	mov	r1, r3
 80018b8:	4613      	mov	r3, r2
 80018ba:	461a      	mov	r2, r3
 80018bc:	f008 f94c 	bl	8009b58 <memcpy>
 80018c0:	6bbb      	ldr	r3, [r7, #56]	; 0x38
 80018c2:	4698      	mov	r8, r3
 80018c4:	2301      	movs	r3, #1
 80018c6:	633b      	str	r3, [r7, #48]	; 0x30
 80018c8:	6c3b      	ldr	r3, [r7, #64]	; 0x40
 80018ca:	637b      	str	r3, [r7, #52]	; 0x34
 80018cc:	f107 0330 	add.w	r3, r7, #48	; 0x30
 80018d0:	4699      	mov	r9, r3
 80018d2:	e9c7 8904 	strd	r8, r9, [r7, #16]
 80018d6:	693b      	ldr	r3, [r7, #16]
 80018d8:	4618      	mov	r0, r3
 80018da:	2100      	movs	r1, #0
 80018dc:	f7ff fe4e 	bl	800157c <__gnat_last_chance_handler>
 80018e0:	f8d7 d004 	ldr.w	sp, [r7, #4]
 80018e4:	374c      	adds	r7, #76	; 0x4c
 80018e6:	46bd      	mov	sp, r7
 80018e8:	e8bd 8ff0 	ldmia.w	sp!, {r4, r5, r6, r7, r8, r9, sl, fp, pc}
 80018ec:	0800ad64 	.word	0x0800ad64
 80018f0:	0800ad78 	.word	0x0800ad78
 80018f4:	0800ad98 	.word	0x0800ad98
 80018f8:	0800ad90 	.word	0x0800ad90

080018fc <bno055_i2c_io__read_buffer>:
 80018fc:	e92d 4ff0 	stmdb	sp!, {r4, r5, r6, r7, r8, r9, sl, fp, lr}
 8001900:	b097      	sub	sp, #92	; 0x5c
 8001902:	af04      	add	r7, sp, #16
 8001904:	60f8      	str	r0, [r7, #12]
 8001906:	e9c7 2300 	strd	r2, r3, [r7]
 800190a:	460b      	mov	r3, r1
 800190c:	72fb      	strb	r3, [r7, #11]
 800190e:	466b      	mov	r3, sp
 8001910:	461e      	mov	r6, r3
 8001912:	68fb      	ldr	r3, [r7, #12]
 8001914:	2b00      	cmp	r3, #0
 8001916:	d103      	bne.n	8001920 <bno055_i2c_io__read_buffer+0x24>
 8001918:	4840      	ldr	r0, [pc, #256]	; (8001a1c <bno055_i2c_io__read_buffer+0x120>)
 800191a:	215f      	movs	r1, #95	; 0x5f
 800191c:	f7ff fe2e 	bl	800157c <__gnat_last_chance_handler>
 8001920:	68fb      	ldr	r3, [r7, #12]
 8001922:	685b      	ldr	r3, [r3, #4]
 8001924:	2b00      	cmp	r3, #0
 8001926:	d103      	bne.n	8001930 <bno055_i2c_io__read_buffer+0x34>
 8001928:	483c      	ldr	r0, [pc, #240]	; (8001a1c <bno055_i2c_io__read_buffer+0x120>)
 800192a:	215f      	movs	r1, #95	; 0x5f
 800192c:	f7ff fe26 	bl	800157c <__gnat_last_chance_handler>
 8001930:	68fb      	ldr	r3, [r7, #12]
 8001932:	2b00      	cmp	r3, #0
 8001934:	d103      	bne.n	800193e <bno055_i2c_io__read_buffer+0x42>
 8001936:	4839      	ldr	r0, [pc, #228]	; (8001a1c <bno055_i2c_io__read_buffer+0x120>)
 8001938:	2160      	movs	r1, #96	; 0x60
 800193a:	f7ff fe1f 	bl	800157c <__gnat_last_chance_handler>
 800193e:	68fb      	ldr	r3, [r7, #12]
 8001940:	685b      	ldr	r3, [r3, #4]
 8001942:	681b      	ldr	r3, [r3, #0]
 8001944:	68dd      	ldr	r5, [r3, #12]
 8001946:	68fb      	ldr	r3, [r7, #12]
 8001948:	6858      	ldr	r0, [r3, #4]
 800194a:	68fb      	ldr	r3, [r7, #12]
 800194c:	8919      	ldrh	r1, [r3, #8]
 800194e:	7afb      	ldrb	r3, [r7, #11]
 8001950:	b29a      	uxth	r2, r3
 8001952:	e9d7 3400 	ldrd	r3, r4, [r7]
 8001956:	e9cd 3400 	strd	r3, r4, [sp]
 800195a:	f44f 737a 	mov.w	r3, #1000	; 0x3e8
 800195e:	9302      	str	r3, [sp, #8]
 8001960:	2300      	movs	r3, #0
 8001962:	47a8      	blx	r5
 8001964:	4603      	mov	r3, r0
 8001966:	f887 3047 	strb.w	r3, [r7, #71]	; 0x47
 800196a:	f897 3047 	ldrb.w	r3, [r7, #71]	; 0x47
 800196e:	2b00      	cmp	r3, #0
 8001970:	d04f      	beq.n	8001a12 <bno055_i2c_io__read_buffer+0x116>
 8001972:	f897 3047 	ldrb.w	r3, [r7, #71]	; 0x47
 8001976:	f04f 0400 	mov.w	r4, #0
 800197a:	f107 021c 	add.w	r2, r7, #28
 800197e:	4692      	mov	sl, r2
 8001980:	f8df b0a0 	ldr.w	fp, [pc, #160]	; 8001a24 <bno055_i2c_io__read_buffer+0x128>
 8001984:	4618      	mov	r0, r3
 8001986:	4621      	mov	r1, r4
 8001988:	4652      	mov	r2, sl
 800198a:	465b      	mov	r3, fp
 800198c:	f008 f954 	bl	8009c38 <system__img_lli__image_long_long_integer>
 8001990:	4603      	mov	r3, r0
 8001992:	ea23 73e3 	bic.w	r3, r3, r3, asr #31
 8001996:	f103 0614 	add.w	r6, r3, #20
 800199a:	643e      	str	r6, [r7, #64]	; 0x40
 800199c:	6c3b      	ldr	r3, [r7, #64]	; 0x40
 800199e:	ea23 73e3 	bic.w	r3, r3, r3, asr #31
 80019a2:	63fb      	str	r3, [r7, #60]	; 0x3c
 80019a4:	6c3b      	ldr	r3, [r7, #64]	; 0x40
 80019a6:	ea23 73e3 	bic.w	r3, r3, r3, asr #31
 80019aa:	3307      	adds	r3, #7
 80019ac:	08db      	lsrs	r3, r3, #3
 80019ae:	00db      	lsls	r3, r3, #3
 80019b0:	ebad 0d03 	sub.w	sp, sp, r3
 80019b4:	ab04      	add	r3, sp, #16
 80019b6:	3300      	adds	r3, #0
 80019b8:	63bb      	str	r3, [r7, #56]	; 0x38
 80019ba:	6bbb      	ldr	r3, [r7, #56]	; 0x38
 80019bc:	4a18      	ldr	r2, [pc, #96]	; (8001a20 <bno055_i2c_io__read_buffer+0x124>)
 80019be:	461d      	mov	r5, r3
 80019c0:	4614      	mov	r4, r2
 80019c2:	cc0f      	ldmia	r4!, {r0, r1, r2, r3}
 80019c4:	6028      	str	r0, [r5, #0]
 80019c6:	6069      	str	r1, [r5, #4]
 80019c8:	60aa      	str	r2, [r5, #8]
 80019ca:	60eb      	str	r3, [r5, #12]
 80019cc:	6820      	ldr	r0, [r4, #0]
 80019ce:	6128      	str	r0, [r5, #16]
 80019d0:	4633      	mov	r3, r6
 80019d2:	2b14      	cmp	r3, #20
 80019d4:	bfb8      	it	lt
 80019d6:	2314      	movlt	r3, #20
 80019d8:	f1a3 0214 	sub.w	r2, r3, #20
 80019dc:	6bbb      	ldr	r3, [r7, #56]	; 0x38
 80019de:	f103 0114 	add.w	r1, r3, #20
 80019e2:	f107 031c 	add.w	r3, r7, #28
 80019e6:	4608      	mov	r0, r1
 80019e8:	4619      	mov	r1, r3
 80019ea:	4613      	mov	r3, r2
 80019ec:	461a      	mov	r2, r3
 80019ee:	f008 f8b3 	bl	8009b58 <memcpy>
 80019f2:	6bbb      	ldr	r3, [r7, #56]	; 0x38
 80019f4:	4698      	mov	r8, r3
 80019f6:	2301      	movs	r3, #1
 80019f8:	633b      	str	r3, [r7, #48]	; 0x30
 80019fa:	6c3b      	ldr	r3, [r7, #64]	; 0x40
 80019fc:	637b      	str	r3, [r7, #52]	; 0x34
 80019fe:	f107 0330 	add.w	r3, r7, #48	; 0x30
 8001a02:	4699      	mov	r9, r3
 8001a04:	e9c7 8904 	strd	r8, r9, [r7, #16]
 8001a08:	693b      	ldr	r3, [r7, #16]
 8001a0a:	4618      	mov	r0, r3
 8001a0c:	2100      	movs	r1, #0
 8001a0e:	f7ff fdb5 	bl	800157c <__gnat_last_chance_handler>
 8001a12:	46b5      	mov	sp, r6
 8001a14:	374c      	adds	r7, #76	; 0x4c
 8001a16:	46bd      	mov	sp, r7
 8001a18:	e8bd 8ff0 	ldmia.w	sp!, {r4, r5, r6, r7, r8, r9, sl, fp, pc}
 8001a1c:	0800ad64 	.word	0x0800ad64
 8001a20:	0800ada8 	.word	0x0800ada8
 8001a24:	0800ad90 	.word	0x0800ad90

08001a28 <stm32__device__enable_clock>:
 8001a28:	b590      	push	{r4, r7, lr}
 8001a2a:	b085      	sub	sp, #20
 8001a2c:	af00      	add	r7, sp, #0
 8001a2e:	6078      	str	r0, [r7, #4]
 8001a30:	687a      	ldr	r2, [r7, #4]
 8001a32:	493a      	ldr	r1, [pc, #232]	; (8001b1c <stm32__device__enable_clock+0xf4>)
 8001a34:	428a      	cmp	r2, r1
 8001a36:	d10a      	bne.n	8001a4e <stm32__device__enable_clock+0x26>
 8001a38:	4b39      	ldr	r3, [pc, #228]	; (8001b20 <stm32__device__enable_clock+0xf8>)
 8001a3a:	3318      	adds	r3, #24
 8001a3c:	681b      	ldr	r3, [r3, #0]
 8001a3e:	461a      	mov	r2, r3
 8001a40:	4613      	mov	r3, r2
 8001a42:	f043 0204 	orr.w	r2, r3, #4
 8001a46:	4b36      	ldr	r3, [pc, #216]	; (8001b20 <stm32__device__enable_clock+0xf8>)
 8001a48:	3318      	adds	r3, #24
 8001a4a:	601a      	str	r2, [r3, #0]
 8001a4c:	e062      	b.n	8001b14 <stm32__device__enable_clock+0xec>
 8001a4e:	687a      	ldr	r2, [r7, #4]
 8001a50:	4934      	ldr	r1, [pc, #208]	; (8001b24 <stm32__device__enable_clock+0xfc>)
 8001a52:	428a      	cmp	r2, r1
 8001a54:	d10a      	bne.n	8001a6c <stm32__device__enable_clock+0x44>
 8001a56:	4b32      	ldr	r3, [pc, #200]	; (8001b20 <stm32__device__enable_clock+0xf8>)
 8001a58:	3318      	adds	r3, #24
 8001a5a:	681b      	ldr	r3, [r3, #0]
 8001a5c:	461a      	mov	r2, r3
 8001a5e:	4613      	mov	r3, r2
 8001a60:	f043 0208 	orr.w	r2, r3, #8
 8001a64:	4b2e      	ldr	r3, [pc, #184]	; (8001b20 <stm32__device__enable_clock+0xf8>)
 8001a66:	3318      	adds	r3, #24
 8001a68:	601a      	str	r2, [r3, #0]
 8001a6a:	e053      	b.n	8001b14 <stm32__device__enable_clock+0xec>
 8001a6c:	687a      	ldr	r2, [r7, #4]
 8001a6e:	492e      	ldr	r1, [pc, #184]	; (8001b28 <stm32__device__enable_clock+0x100>)
 8001a70:	428a      	cmp	r2, r1
 8001a72:	d10a      	bne.n	8001a8a <stm32__device__enable_clock+0x62>
 8001a74:	4b2a      	ldr	r3, [pc, #168]	; (8001b20 <stm32__device__enable_clock+0xf8>)
 8001a76:	3318      	adds	r3, #24
 8001a78:	681b      	ldr	r3, [r3, #0]
 8001a7a:	461a      	mov	r2, r3
 8001a7c:	4613      	mov	r3, r2
 8001a7e:	f043 0210 	orr.w	r2, r3, #16
 8001a82:	4b27      	ldr	r3, [pc, #156]	; (8001b20 <stm32__device__enable_clock+0xf8>)
 8001a84:	3318      	adds	r3, #24
 8001a86:	601a      	str	r2, [r3, #0]
 8001a88:	e044      	b.n	8001b14 <stm32__device__enable_clock+0xec>
 8001a8a:	687a      	ldr	r2, [r7, #4]
 8001a8c:	4927      	ldr	r1, [pc, #156]	; (8001b2c <stm32__device__enable_clock+0x104>)
 8001a8e:	428a      	cmp	r2, r1
 8001a90:	d10a      	bne.n	8001aa8 <stm32__device__enable_clock+0x80>
 8001a92:	4b23      	ldr	r3, [pc, #140]	; (8001b20 <stm32__device__enable_clock+0xf8>)
 8001a94:	3318      	adds	r3, #24
 8001a96:	681b      	ldr	r3, [r3, #0]
 8001a98:	461a      	mov	r2, r3
 8001a9a:	4613      	mov	r3, r2
 8001a9c:	f043 0220 	orr.w	r2, r3, #32
 8001aa0:	4b1f      	ldr	r3, [pc, #124]	; (8001b20 <stm32__device__enable_clock+0xf8>)
 8001aa2:	3318      	adds	r3, #24
 8001aa4:	601a      	str	r2, [r3, #0]
 8001aa6:	e035      	b.n	8001b14 <stm32__device__enable_clock+0xec>
 8001aa8:	687a      	ldr	r2, [r7, #4]
 8001aaa:	4921      	ldr	r1, [pc, #132]	; (8001b30 <stm32__device__enable_clock+0x108>)
 8001aac:	428a      	cmp	r2, r1
 8001aae:	d10a      	bne.n	8001ac6 <stm32__device__enable_clock+0x9e>
 8001ab0:	4b1b      	ldr	r3, [pc, #108]	; (8001b20 <stm32__device__enable_clock+0xf8>)
 8001ab2:	3318      	adds	r3, #24
 8001ab4:	681b      	ldr	r3, [r3, #0]
 8001ab6:	461a      	mov	r2, r3
 8001ab8:	4613      	mov	r3, r2
 8001aba:	f043 0240 	orr.w	r2, r3, #64	; 0x40
 8001abe:	4b18      	ldr	r3, [pc, #96]	; (8001b20 <stm32__device__enable_clock+0xf8>)
 8001ac0:	3318      	adds	r3, #24
 8001ac2:	601a      	str	r2, [r3, #0]
 8001ac4:	e026      	b.n	8001b14 <stm32__device__enable_clock+0xec>
 8001ac6:	687a      	ldr	r2, [r7, #4]
 8001ac8:	491a      	ldr	r1, [pc, #104]	; (8001b34 <stm32__device__enable_clock+0x10c>)
 8001aca:	428a      	cmp	r2, r1
 8001acc:	d10a      	bne.n	8001ae4 <stm32__device__enable_clock+0xbc>
 8001ace:	4b14      	ldr	r3, [pc, #80]	; (8001b20 <stm32__device__enable_clock+0xf8>)
 8001ad0:	3318      	adds	r3, #24
 8001ad2:	681b      	ldr	r3, [r3, #0]
 8001ad4:	461a      	mov	r2, r3
 8001ad6:	4613      	mov	r3, r2
 8001ad8:	f043 0280 	orr.w	r2, r3, #128	; 0x80
 8001adc:	4b10      	ldr	r3, [pc, #64]	; (8001b20 <stm32__device__enable_clock+0xf8>)
 8001ade:	3318      	adds	r3, #24
 8001ae0:	601a      	str	r2, [r3, #0]
 8001ae2:	e017      	b.n	8001b14 <stm32__device__enable_clock+0xec>
 8001ae4:	687a      	ldr	r2, [r7, #4]
 8001ae6:	4914      	ldr	r1, [pc, #80]	; (8001b38 <stm32__device__enable_clock+0x110>)
 8001ae8:	428a      	cmp	r2, r1
 8001aea:	d10a      	bne.n	8001b02 <stm32__device__enable_clock+0xda>
 8001aec:	4b0c      	ldr	r3, [pc, #48]	; (8001b20 <stm32__device__enable_clock+0xf8>)
 8001aee:	3318      	adds	r3, #24
 8001af0:	681b      	ldr	r3, [r3, #0]
 8001af2:	461a      	mov	r2, r3
 8001af4:	4613      	mov	r3, r2
 8001af6:	f443 7280 	orr.w	r2, r3, #256	; 0x100
 8001afa:	4b09      	ldr	r3, [pc, #36]	; (8001b20 <stm32__device__enable_clock+0xf8>)
 8001afc:	3318      	adds	r3, #24
 8001afe:	601a      	str	r2, [r3, #0]
 8001b00:	e008      	b.n	8001b14 <stm32__device__enable_clock+0xec>
 8001b02:	4b0e      	ldr	r3, [pc, #56]	; (8001b3c <stm32__device__enable_clock+0x114>)
 8001b04:	4c0e      	ldr	r4, [pc, #56]	; (8001b40 <stm32__device__enable_clock+0x118>)
 8001b06:	e9c7 3402 	strd	r3, r4, [r7, #8]
 8001b0a:	68bb      	ldr	r3, [r7, #8]
 8001b0c:	4618      	mov	r0, r3
 8001b0e:	2100      	movs	r1, #0
 8001b10:	f7ff fd34 	bl	800157c <__gnat_last_chance_handler>
 8001b14:	3714      	adds	r7, #20
 8001b16:	46bd      	mov	sp, r7
 8001b18:	bd90      	pop	{r4, r7, pc}
 8001b1a:	bf00      	nop
 8001b1c:	40010800 	.word	0x40010800
 8001b20:	40021000 	.word	0x40021000
 8001b24:	40010c00 	.word	0x40010c00
 8001b28:	40011000 	.word	0x40011000
 8001b2c:	40011400 	.word	0x40011400
 8001b30:	40011800 	.word	0x40011800
 8001b34:	40011c00 	.word	0x40011c00
 8001b38:	40012000 	.word	0x40012000
 8001b3c:	0800ae1c 	.word	0x0800ae1c
 8001b40:	0800ae30 	.word	0x0800ae30

08001b44 <stm32__device__enable_clock__2>:
 8001b44:	b580      	push	{r7, lr}
 8001b46:	b082      	sub	sp, #8
 8001b48:	af00      	add	r7, sp, #0
 8001b4a:	6078      	str	r0, [r7, #4]
 8001b4c:	687b      	ldr	r3, [r7, #4]
 8001b4e:	685b      	ldr	r3, [r3, #4]
 8001b50:	2b00      	cmp	r3, #0
 8001b52:	d103      	bne.n	8001b5c <stm32__device__enable_clock__2+0x18>
 8001b54:	4805      	ldr	r0, [pc, #20]	; (8001b6c <stm32__device__enable_clock__2+0x28>)
 8001b56:	2155      	movs	r1, #85	; 0x55
 8001b58:	f7ff fd10 	bl	800157c <__gnat_last_chance_handler>
 8001b5c:	687b      	ldr	r3, [r7, #4]
 8001b5e:	685b      	ldr	r3, [r3, #4]
 8001b60:	4618      	mov	r0, r3
 8001b62:	f7ff ff61 	bl	8001a28 <stm32__device__enable_clock>
 8001b66:	3708      	adds	r7, #8
 8001b68:	46bd      	mov	sp, r7
 8001b6a:	bd80      	pop	{r7, pc}
 8001b6c:	0800ae38 	.word	0x0800ae38

08001b70 <stm32__device__as_port_id>:
 8001b70:	b590      	push	{r4, r7, lr}
 8001b72:	b085      	sub	sp, #20
 8001b74:	af00      	add	r7, sp, #0
 8001b76:	6078      	str	r0, [r7, #4]
 8001b78:	687a      	ldr	r2, [r7, #4]
 8001b7a:	6852      	ldr	r2, [r2, #4]
 8001b7c:	4611      	mov	r1, r2
 8001b7e:	4a0d      	ldr	r2, [pc, #52]	; (8001bb4 <stm32__device__as_port_id+0x44>)
 8001b80:	4291      	cmp	r1, r2
 8001b82:	d101      	bne.n	8001b88 <stm32__device__as_port_id+0x18>
 8001b84:	2300      	movs	r3, #0
 8001b86:	e010      	b.n	8001baa <stm32__device__as_port_id+0x3a>
 8001b88:	687a      	ldr	r2, [r7, #4]
 8001b8a:	6852      	ldr	r2, [r2, #4]
 8001b8c:	4611      	mov	r1, r2
 8001b8e:	4a0a      	ldr	r2, [pc, #40]	; (8001bb8 <stm32__device__as_port_id+0x48>)
 8001b90:	4291      	cmp	r1, r2
 8001b92:	d101      	bne.n	8001b98 <stm32__device__as_port_id+0x28>
 8001b94:	2301      	movs	r3, #1
 8001b96:	e008      	b.n	8001baa <stm32__device__as_port_id+0x3a>
 8001b98:	4b08      	ldr	r3, [pc, #32]	; (8001bbc <stm32__device__as_port_id+0x4c>)
 8001b9a:	4c09      	ldr	r4, [pc, #36]	; (8001bc0 <stm32__device__as_port_id+0x50>)
 8001b9c:	e9c7 3402 	strd	r3, r4, [r7, #8]
 8001ba0:	68bb      	ldr	r3, [r7, #8]
 8001ba2:	4618      	mov	r0, r3
 8001ba4:	2100      	movs	r1, #0
 8001ba6:	f7ff fce9 	bl	800157c <__gnat_last_chance_handler>
 8001baa:	bf00      	nop
 8001bac:	4618      	mov	r0, r3
 8001bae:	3714      	adds	r7, #20
 8001bb0:	46bd      	mov	sp, r7
 8001bb2:	bd90      	pop	{r4, r7, pc}
 8001bb4:	40005400 	.word	0x40005400
 8001bb8:	40005800 	.word	0x40005800
 8001bbc:	0800ae9c 	.word	0x0800ae9c
 8001bc0:	0800ae64 	.word	0x0800ae64

08001bc4 <stm32__device__enable_clock__5>:
 8001bc4:	b580      	push	{r7, lr}
 8001bc6:	b082      	sub	sp, #8
 8001bc8:	af00      	add	r7, sp, #0
 8001bca:	6078      	str	r0, [r7, #4]
 8001bcc:	6878      	ldr	r0, [r7, #4]
 8001bce:	f7ff ffcf 	bl	8001b70 <stm32__device__as_port_id>
 8001bd2:	4603      	mov	r3, r0
 8001bd4:	4618      	mov	r0, r3
 8001bd6:	f000 f803 	bl	8001be0 <stm32__device__enable_clock__6>
 8001bda:	3708      	adds	r7, #8
 8001bdc:	46bd      	mov	sp, r7
 8001bde:	bd80      	pop	{r7, pc}

08001be0 <stm32__device__enable_clock__6>:
 8001be0:	b580      	push	{r7, lr}
 8001be2:	b082      	sub	sp, #8
 8001be4:	af00      	add	r7, sp, #0
 8001be6:	4603      	mov	r3, r0
 8001be8:	71fb      	strb	r3, [r7, #7]
 8001bea:	79fb      	ldrb	r3, [r7, #7]
 8001bec:	2b01      	cmp	r3, #1
 8001bee:	d904      	bls.n	8001bfa <stm32__device__enable_clock__6+0x1a>
 8001bf0:	480f      	ldr	r0, [pc, #60]	; (8001c30 <stm32__device__enable_clock__6+0x50>)
 8001bf2:	f240 1159 	movw	r1, #345	; 0x159
 8001bf6:	f7ff fcc1 	bl	800157c <__gnat_last_chance_handler>
 8001bfa:	79fb      	ldrb	r3, [r7, #7]
 8001bfc:	2b00      	cmp	r3, #0
 8001bfe:	d10a      	bne.n	8001c16 <stm32__device__enable_clock__6+0x36>
 8001c00:	4b0c      	ldr	r3, [pc, #48]	; (8001c34 <stm32__device__enable_clock__6+0x54>)
 8001c02:	331c      	adds	r3, #28
 8001c04:	681b      	ldr	r3, [r3, #0]
 8001c06:	461a      	mov	r2, r3
 8001c08:	4613      	mov	r3, r2
 8001c0a:	f443 1200 	orr.w	r2, r3, #2097152	; 0x200000
 8001c0e:	4b09      	ldr	r3, [pc, #36]	; (8001c34 <stm32__device__enable_clock__6+0x54>)
 8001c10:	331c      	adds	r3, #28
 8001c12:	601a      	str	r2, [r3, #0]
 8001c14:	e009      	b.n	8001c2a <stm32__device__enable_clock__6+0x4a>
 8001c16:	4b07      	ldr	r3, [pc, #28]	; (8001c34 <stm32__device__enable_clock__6+0x54>)
 8001c18:	331c      	adds	r3, #28
 8001c1a:	681b      	ldr	r3, [r3, #0]
 8001c1c:	461a      	mov	r2, r3
 8001c1e:	4613      	mov	r3, r2
 8001c20:	f443 0280 	orr.w	r2, r3, #4194304	; 0x400000
 8001c24:	4b03      	ldr	r3, [pc, #12]	; (8001c34 <stm32__device__enable_clock__6+0x54>)
 8001c26:	331c      	adds	r3, #28
 8001c28:	601a      	str	r2, [r3, #0]
 8001c2a:	3708      	adds	r7, #8
 8001c2c:	46bd      	mov	sp, r7
 8001c2e:	bd80      	pop	{r7, pc}
 8001c30:	0800ae38 	.word	0x0800ae38
 8001c34:	40021000 	.word	0x40021000

08001c38 <stm32__device__reset__5>:
 8001c38:	b580      	push	{r7, lr}
 8001c3a:	b082      	sub	sp, #8
 8001c3c:	af00      	add	r7, sp, #0
 8001c3e:	6078      	str	r0, [r7, #4]
 8001c40:	6878      	ldr	r0, [r7, #4]
 8001c42:	f7ff ff95 	bl	8001b70 <stm32__device__as_port_id>
 8001c46:	4603      	mov	r3, r0
 8001c48:	4618      	mov	r0, r3
 8001c4a:	f000 f803 	bl	8001c54 <stm32__device__reset__6>
 8001c4e:	3708      	adds	r7, #8
 8001c50:	46bd      	mov	sp, r7
 8001c52:	bd80      	pop	{r7, pc}

08001c54 <stm32__device__reset__6>:
 8001c54:	b580      	push	{r7, lr}
 8001c56:	b082      	sub	sp, #8
 8001c58:	af00      	add	r7, sp, #0
 8001c5a:	4603      	mov	r3, r0
 8001c5c:	71fb      	strb	r3, [r7, #7]
 8001c5e:	79fb      	ldrb	r3, [r7, #7]
 8001c60:	2b01      	cmp	r3, #1
 8001c62:	d904      	bls.n	8001c6e <stm32__device__reset__6+0x1a>
 8001c64:	4817      	ldr	r0, [pc, #92]	; (8001cc4 <stm32__device__reset__6+0x70>)
 8001c66:	f44f 71b8 	mov.w	r1, #368	; 0x170
 8001c6a:	f7ff fc87 	bl	800157c <__gnat_last_chance_handler>
 8001c6e:	79fb      	ldrb	r3, [r7, #7]
 8001c70:	2b00      	cmp	r3, #0
 8001c72:	d112      	bne.n	8001c9a <stm32__device__reset__6+0x46>
 8001c74:	4b14      	ldr	r3, [pc, #80]	; (8001cc8 <stm32__device__reset__6+0x74>)
 8001c76:	3310      	adds	r3, #16
 8001c78:	681b      	ldr	r3, [r3, #0]
 8001c7a:	461a      	mov	r2, r3
 8001c7c:	4613      	mov	r3, r2
 8001c7e:	f443 1200 	orr.w	r2, r3, #2097152	; 0x200000
 8001c82:	4b11      	ldr	r3, [pc, #68]	; (8001cc8 <stm32__device__reset__6+0x74>)
 8001c84:	3310      	adds	r3, #16
 8001c86:	601a      	str	r2, [r3, #0]
 8001c88:	4b0f      	ldr	r3, [pc, #60]	; (8001cc8 <stm32__device__reset__6+0x74>)
 8001c8a:	3310      	adds	r3, #16
 8001c8c:	681b      	ldr	r3, [r3, #0]
 8001c8e:	f36f 5355 	bfc	r3, #21, #1
 8001c92:	4a0d      	ldr	r2, [pc, #52]	; (8001cc8 <stm32__device__reset__6+0x74>)
 8001c94:	3210      	adds	r2, #16
 8001c96:	6013      	str	r3, [r2, #0]
 8001c98:	e011      	b.n	8001cbe <stm32__device__reset__6+0x6a>
 8001c9a:	4b0b      	ldr	r3, [pc, #44]	; (8001cc8 <stm32__device__reset__6+0x74>)
 8001c9c:	3310      	adds	r3, #16
 8001c9e:	681b      	ldr	r3, [r3, #0]
 8001ca0:	461a      	mov	r2, r3
 8001ca2:	4613      	mov	r3, r2
 8001ca4:	f443 0280 	orr.w	r2, r3, #4194304	; 0x400000
 8001ca8:	4b07      	ldr	r3, [pc, #28]	; (8001cc8 <stm32__device__reset__6+0x74>)
 8001caa:	3310      	adds	r3, #16
 8001cac:	601a      	str	r2, [r3, #0]
 8001cae:	4b06      	ldr	r3, [pc, #24]	; (8001cc8 <stm32__device__reset__6+0x74>)
 8001cb0:	3310      	adds	r3, #16
 8001cb2:	681b      	ldr	r3, [r3, #0]
 8001cb4:	f36f 5396 	bfc	r3, #22, #1
 8001cb8:	4a03      	ldr	r2, [pc, #12]	; (8001cc8 <stm32__device__reset__6+0x74>)
 8001cba:	3210      	adds	r2, #16
 8001cbc:	6013      	str	r3, [r2, #0]
 8001cbe:	3708      	adds	r7, #8
 8001cc0:	46bd      	mov	sp, r7
 8001cc2:	bd80      	pop	{r7, pc}
 8001cc4:	0800ae38 	.word	0x0800ae38
 8001cc8:	40021000 	.word	0x40021000

08001ccc <stm32__device__system_clock_frequencies>:
 8001ccc:	b5b0      	push	{r4, r5, r7, lr}
 8001cce:	b08e      	sub	sp, #56	; 0x38
 8001cd0:	af00      	add	r7, sp, #0
 8001cd2:	6078      	str	r0, [r7, #4]
 8001cd4:	4b71      	ldr	r3, [pc, #452]	; (8001e9c <stm32__device__system_clock_frequencies+0x1d0>)
 8001cd6:	3304      	adds	r3, #4
 8001cd8:	681b      	ldr	r3, [r3, #0]
 8001cda:	f3c3 0381 	ubfx	r3, r3, #2, #2
 8001cde:	b2db      	uxtb	r3, r3
 8001ce0:	f887 302f 	strb.w	r3, [r7, #47]	; 0x2f
 8001ce4:	f897 302f 	ldrb.w	r3, [r7, #47]	; 0x2f
 8001ce8:	2b03      	cmp	r3, #3
 8001cea:	d904      	bls.n	8001cf6 <stm32__device__system_clock_frequencies+0x2a>
 8001cec:	486c      	ldr	r0, [pc, #432]	; (8001ea0 <stm32__device__system_clock_frequencies+0x1d4>)
 8001cee:	f240 2129 	movw	r1, #553	; 0x229
 8001cf2:	f7ff fc43 	bl	800157c <__gnat_last_chance_handler>
 8001cf6:	f897 302f 	ldrb.w	r3, [r7, #47]	; 0x2f
 8001cfa:	2b01      	cmp	r3, #1
 8001cfc:	d007      	beq.n	8001d0e <stm32__device__system_clock_frequencies+0x42>
 8001cfe:	2b01      	cmp	r3, #1
 8001d00:	d302      	bcc.n	8001d08 <stm32__device__system_clock_frequencies+0x3c>
 8001d02:	2b02      	cmp	r3, #2
 8001d04:	d006      	beq.n	8001d14 <stm32__device__system_clock_frequencies+0x48>
 8001d06:	e041      	b.n	8001d8c <stm32__device__system_clock_frequencies+0xc0>
 8001d08:	4b66      	ldr	r3, [pc, #408]	; (8001ea4 <stm32__device__system_clock_frequencies+0x1d8>)
 8001d0a:	60fb      	str	r3, [r7, #12]
 8001d0c:	e040      	b.n	8001d90 <stm32__device__system_clock_frequencies+0xc4>
 8001d0e:	4b66      	ldr	r3, [pc, #408]	; (8001ea8 <stm32__device__system_clock_frequencies+0x1dc>)
 8001d10:	60fb      	str	r3, [r7, #12]
 8001d12:	e03d      	b.n	8001d90 <stm32__device__system_clock_frequencies+0xc4>
 8001d14:	4b61      	ldr	r3, [pc, #388]	; (8001e9c <stm32__device__system_clock_frequencies+0x1d0>)
 8001d16:	3304      	adds	r3, #4
 8001d18:	681b      	ldr	r3, [r3, #0]
 8001d1a:	f3c3 4300 	ubfx	r3, r3, #16, #1
 8001d1e:	b2db      	uxtb	r3, r3
 8001d20:	f887 302e 	strb.w	r3, [r7, #46]	; 0x2e
 8001d24:	4b5d      	ldr	r3, [pc, #372]	; (8001e9c <stm32__device__system_clock_frequencies+0x1d0>)
 8001d26:	3304      	adds	r3, #4
 8001d28:	681b      	ldr	r3, [r3, #0]
 8001d2a:	f3c3 4340 	ubfx	r3, r3, #17, #1
 8001d2e:	b2db      	uxtb	r3, r3
 8001d30:	f887 302d 	strb.w	r3, [r7, #45]	; 0x2d
 8001d34:	4b59      	ldr	r3, [pc, #356]	; (8001e9c <stm32__device__system_clock_frequencies+0x1d0>)
 8001d36:	3304      	adds	r3, #4
 8001d38:	681b      	ldr	r3, [r3, #0]
 8001d3a:	f3c3 4383 	ubfx	r3, r3, #18, #4
 8001d3e:	b2db      	uxtb	r3, r3
 8001d40:	f887 302c 	strb.w	r3, [r7, #44]	; 0x2c
 8001d44:	f897 302e 	ldrb.w	r3, [r7, #46]	; 0x2e
 8001d48:	f083 0301 	eor.w	r3, r3, #1
 8001d4c:	b2db      	uxtb	r3, r3
 8001d4e:	2b00      	cmp	r3, #0
 8001d50:	d002      	beq.n	8001d58 <stm32__device__system_clock_frequencies+0x8c>
 8001d52:	4b55      	ldr	r3, [pc, #340]	; (8001ea8 <stm32__device__system_clock_frequencies+0x1dc>)
 8001d54:	637b      	str	r3, [r7, #52]	; 0x34
 8001d56:	e008      	b.n	8001d6a <stm32__device__system_clock_frequencies+0x9e>
 8001d58:	4b53      	ldr	r3, [pc, #332]	; (8001ea8 <stm32__device__system_clock_frequencies+0x1dc>)
 8001d5a:	637b      	str	r3, [r7, #52]	; 0x34
 8001d5c:	f897 302d 	ldrb.w	r3, [r7, #45]	; 0x2d
 8001d60:	2b00      	cmp	r3, #0
 8001d62:	d002      	beq.n	8001d6a <stm32__device__system_clock_frequencies+0x9e>
 8001d64:	6b7b      	ldr	r3, [r7, #52]	; 0x34
 8001d66:	085b      	lsrs	r3, r3, #1
 8001d68:	637b      	str	r3, [r7, #52]	; 0x34
 8001d6a:	f897 302c 	ldrb.w	r3, [r7, #44]	; 0x2c
 8001d6e:	2b0d      	cmp	r3, #13
 8001d70:	d804      	bhi.n	8001d7c <stm32__device__system_clock_frequencies+0xb0>
 8001d72:	f897 302c 	ldrb.w	r3, [r7, #44]	; 0x2c
 8001d76:	3302      	adds	r3, #2
 8001d78:	633b      	str	r3, [r7, #48]	; 0x30
 8001d7a:	e001      	b.n	8001d80 <stm32__device__system_clock_frequencies+0xb4>
 8001d7c:	2310      	movs	r3, #16
 8001d7e:	633b      	str	r3, [r7, #48]	; 0x30
 8001d80:	6b7b      	ldr	r3, [r7, #52]	; 0x34
 8001d82:	6b3a      	ldr	r2, [r7, #48]	; 0x30
 8001d84:	fb02 f303 	mul.w	r3, r2, r3
 8001d88:	60fb      	str	r3, [r7, #12]
 8001d8a:	e001      	b.n	8001d90 <stm32__device__system_clock_frequencies+0xc4>
 8001d8c:	4b45      	ldr	r3, [pc, #276]	; (8001ea4 <stm32__device__system_clock_frequencies+0x1d8>)
 8001d8e:	60fb      	str	r3, [r7, #12]
 8001d90:	bf00      	nop
 8001d92:	4b42      	ldr	r3, [pc, #264]	; (8001e9c <stm32__device__system_clock_frequencies+0x1d0>)
 8001d94:	3304      	adds	r3, #4
 8001d96:	681b      	ldr	r3, [r3, #0]
 8001d98:	f3c3 1303 	ubfx	r3, r3, #4, #4
 8001d9c:	b2db      	uxtb	r3, r3
 8001d9e:	f887 302b 	strb.w	r3, [r7, #43]	; 0x2b
 8001da2:	4b3e      	ldr	r3, [pc, #248]	; (8001e9c <stm32__device__system_clock_frequencies+0x1d0>)
 8001da4:	3304      	adds	r3, #4
 8001da6:	681b      	ldr	r3, [r3, #0]
 8001da8:	f3c3 2305 	ubfx	r3, r3, #8, #6
 8001dac:	b2db      	uxtb	r3, r3
 8001dae:	f003 0307 	and.w	r3, r3, #7
 8001db2:	f887 302a 	strb.w	r3, [r7, #42]	; 0x2a
 8001db6:	4b39      	ldr	r3, [pc, #228]	; (8001e9c <stm32__device__system_clock_frequencies+0x1d0>)
 8001db8:	3304      	adds	r3, #4
 8001dba:	681b      	ldr	r3, [r3, #0]
 8001dbc:	f3c3 2305 	ubfx	r3, r3, #8, #6
 8001dc0:	b2db      	uxtb	r3, r3
 8001dc2:	08db      	lsrs	r3, r3, #3
 8001dc4:	b2db      	uxtb	r3, r3
 8001dc6:	f003 0307 	and.w	r3, r3, #7
 8001dca:	f887 3029 	strb.w	r3, [r7, #41]	; 0x29
 8001dce:	f897 302b 	ldrb.w	r3, [r7, #43]	; 0x2b
 8001dd2:	4a36      	ldr	r2, [pc, #216]	; (8001eac <stm32__device__system_clock_frequencies+0x1e0>)
 8001dd4:	f852 3023 	ldr.w	r3, [r2, r3, lsl #2]
 8001dd8:	2b00      	cmp	r3, #0
 8001dda:	d104      	bne.n	8001de6 <stm32__device__system_clock_frequencies+0x11a>
 8001ddc:	4830      	ldr	r0, [pc, #192]	; (8001ea0 <stm32__device__system_clock_frequencies+0x1d4>)
 8001dde:	f240 2153 	movw	r1, #595	; 0x253
 8001de2:	f7ff fbcb 	bl	800157c <__gnat_last_chance_handler>
 8001de6:	68fa      	ldr	r2, [r7, #12]
 8001de8:	f897 302b 	ldrb.w	r3, [r7, #43]	; 0x2b
 8001dec:	492f      	ldr	r1, [pc, #188]	; (8001eac <stm32__device__system_clock_frequencies+0x1e0>)
 8001dee:	f851 3023 	ldr.w	r3, [r1, r3, lsl #2]
 8001df2:	fbb2 f3f3 	udiv	r3, r2, r3
 8001df6:	613b      	str	r3, [r7, #16]
 8001df8:	f897 302a 	ldrb.w	r3, [r7, #42]	; 0x2a
 8001dfc:	4a2c      	ldr	r2, [pc, #176]	; (8001eb0 <stm32__device__system_clock_frequencies+0x1e4>)
 8001dfe:	f852 3023 	ldr.w	r3, [r2, r3, lsl #2]
 8001e02:	2b00      	cmp	r3, #0
 8001e04:	d104      	bne.n	8001e10 <stm32__device__system_clock_frequencies+0x144>
 8001e06:	4826      	ldr	r0, [pc, #152]	; (8001ea0 <stm32__device__system_clock_frequencies+0x1d4>)
 8001e08:	f44f 7115 	mov.w	r1, #596	; 0x254
 8001e0c:	f7ff fbb6 	bl	800157c <__gnat_last_chance_handler>
 8001e10:	693a      	ldr	r2, [r7, #16]
 8001e12:	f897 302a 	ldrb.w	r3, [r7, #42]	; 0x2a
 8001e16:	4926      	ldr	r1, [pc, #152]	; (8001eb0 <stm32__device__system_clock_frequencies+0x1e4>)
 8001e18:	f851 3023 	ldr.w	r3, [r1, r3, lsl #2]
 8001e1c:	fbb2 f3f3 	udiv	r3, r2, r3
 8001e20:	617b      	str	r3, [r7, #20]
 8001e22:	f897 3029 	ldrb.w	r3, [r7, #41]	; 0x29
 8001e26:	4a22      	ldr	r2, [pc, #136]	; (8001eb0 <stm32__device__system_clock_frequencies+0x1e4>)
 8001e28:	f852 3023 	ldr.w	r3, [r2, r3, lsl #2]
 8001e2c:	2b00      	cmp	r3, #0
 8001e2e:	d104      	bne.n	8001e3a <stm32__device__system_clock_frequencies+0x16e>
 8001e30:	481b      	ldr	r0, [pc, #108]	; (8001ea0 <stm32__device__system_clock_frequencies+0x1d4>)
 8001e32:	f240 2155 	movw	r1, #597	; 0x255
 8001e36:	f7ff fba1 	bl	800157c <__gnat_last_chance_handler>
 8001e3a:	693a      	ldr	r2, [r7, #16]
 8001e3c:	f897 3029 	ldrb.w	r3, [r7, #41]	; 0x29
 8001e40:	491b      	ldr	r1, [pc, #108]	; (8001eb0 <stm32__device__system_clock_frequencies+0x1e4>)
 8001e42:	f851 3023 	ldr.w	r3, [r1, r3, lsl #2]
 8001e46:	fbb2 f3f3 	udiv	r3, r2, r3
 8001e4a:	61bb      	str	r3, [r7, #24]
 8001e4c:	f897 302a 	ldrb.w	r3, [r7, #42]	; 0x2a
 8001e50:	4a17      	ldr	r2, [pc, #92]	; (8001eb0 <stm32__device__system_clock_frequencies+0x1e4>)
 8001e52:	f852 3023 	ldr.w	r3, [r2, r3, lsl #2]
 8001e56:	2b01      	cmp	r3, #1
 8001e58:	d102      	bne.n	8001e60 <stm32__device__system_clock_frequencies+0x194>
 8001e5a:	697b      	ldr	r3, [r7, #20]
 8001e5c:	61fb      	str	r3, [r7, #28]
 8001e5e:	e002      	b.n	8001e66 <stm32__device__system_clock_frequencies+0x19a>
 8001e60:	697b      	ldr	r3, [r7, #20]
 8001e62:	005b      	lsls	r3, r3, #1
 8001e64:	61fb      	str	r3, [r7, #28]
 8001e66:	f897 3029 	ldrb.w	r3, [r7, #41]	; 0x29
 8001e6a:	4a11      	ldr	r2, [pc, #68]	; (8001eb0 <stm32__device__system_clock_frequencies+0x1e4>)
 8001e6c:	f852 3023 	ldr.w	r3, [r2, r3, lsl #2]
 8001e70:	2b01      	cmp	r3, #1
 8001e72:	d102      	bne.n	8001e7a <stm32__device__system_clock_frequencies+0x1ae>
 8001e74:	69bb      	ldr	r3, [r7, #24]
 8001e76:	623b      	str	r3, [r7, #32]
 8001e78:	e002      	b.n	8001e80 <stm32__device__system_clock_frequencies+0x1b4>
 8001e7a:	69bb      	ldr	r3, [r7, #24]
 8001e7c:	005b      	lsls	r3, r3, #1
 8001e7e:	623b      	str	r3, [r7, #32]
 8001e80:	687b      	ldr	r3, [r7, #4]
 8001e82:	461d      	mov	r5, r3
 8001e84:	f107 040c 	add.w	r4, r7, #12
 8001e88:	cc0f      	ldmia	r4!, {r0, r1, r2, r3}
 8001e8a:	c50f      	stmia	r5!, {r0, r1, r2, r3}
 8001e8c:	e894 0007 	ldmia.w	r4, {r0, r1, r2}
 8001e90:	e885 0007 	stmia.w	r5, {r0, r1, r2}
 8001e94:	6878      	ldr	r0, [r7, #4]
 8001e96:	3738      	adds	r7, #56	; 0x38
 8001e98:	46bd      	mov	sp, r7
 8001e9a:	bdb0      	pop	{r4, r5, r7, pc}
 8001e9c:	40021000 	.word	0x40021000
 8001ea0:	0800ae38 	.word	0x0800ae38
 8001ea4:	00f42400 	.word	0x00f42400
 8001ea8:	007a1200 	.word	0x007a1200
 8001eac:	0800adbc 	.word	0x0800adbc
 8001eb0:	0800adfc 	.word	0x0800adfc

08001eb4 <stm32__device___elabs>:
 8001eb4:	b580      	push	{r7, lr}
 8001eb6:	af00      	add	r7, sp, #0
 8001eb8:	4b88      	ldr	r3, [pc, #544]	; (80020dc <stm32__device___elabs+0x228>)
 8001eba:	681b      	ldr	r3, [r3, #0]
 8001ebc:	4a88      	ldr	r2, [pc, #544]	; (80020e0 <stm32__device___elabs+0x22c>)
 8001ebe:	6053      	str	r3, [r2, #4]
 8001ec0:	4b87      	ldr	r3, [pc, #540]	; (80020e0 <stm32__device___elabs+0x22c>)
 8001ec2:	2201      	movs	r2, #1
 8001ec4:	811a      	strh	r2, [r3, #8]
 8001ec6:	4b86      	ldr	r3, [pc, #536]	; (80020e0 <stm32__device___elabs+0x22c>)
 8001ec8:	4a86      	ldr	r2, [pc, #536]	; (80020e4 <stm32__device___elabs+0x230>)
 8001eca:	601a      	str	r2, [r3, #0]
 8001ecc:	4b83      	ldr	r3, [pc, #524]	; (80020dc <stm32__device___elabs+0x228>)
 8001ece:	681b      	ldr	r3, [r3, #0]
 8001ed0:	4a85      	ldr	r2, [pc, #532]	; (80020e8 <stm32__device___elabs+0x234>)
 8001ed2:	6053      	str	r3, [r2, #4]
 8001ed4:	4b84      	ldr	r3, [pc, #528]	; (80020e8 <stm32__device___elabs+0x234>)
 8001ed6:	2202      	movs	r2, #2
 8001ed8:	811a      	strh	r2, [r3, #8]
 8001eda:	4b83      	ldr	r3, [pc, #524]	; (80020e8 <stm32__device___elabs+0x234>)
 8001edc:	4a81      	ldr	r2, [pc, #516]	; (80020e4 <stm32__device___elabs+0x230>)
 8001ede:	601a      	str	r2, [r3, #0]
 8001ee0:	4b7e      	ldr	r3, [pc, #504]	; (80020dc <stm32__device___elabs+0x228>)
 8001ee2:	681b      	ldr	r3, [r3, #0]
 8001ee4:	4a81      	ldr	r2, [pc, #516]	; (80020ec <stm32__device___elabs+0x238>)
 8001ee6:	6053      	str	r3, [r2, #4]
 8001ee8:	4b80      	ldr	r3, [pc, #512]	; (80020ec <stm32__device___elabs+0x238>)
 8001eea:	2204      	movs	r2, #4
 8001eec:	811a      	strh	r2, [r3, #8]
 8001eee:	4b7f      	ldr	r3, [pc, #508]	; (80020ec <stm32__device___elabs+0x238>)
 8001ef0:	4a7c      	ldr	r2, [pc, #496]	; (80020e4 <stm32__device___elabs+0x230>)
 8001ef2:	601a      	str	r2, [r3, #0]
 8001ef4:	4b79      	ldr	r3, [pc, #484]	; (80020dc <stm32__device___elabs+0x228>)
 8001ef6:	681b      	ldr	r3, [r3, #0]
 8001ef8:	4a7d      	ldr	r2, [pc, #500]	; (80020f0 <stm32__device___elabs+0x23c>)
 8001efa:	6053      	str	r3, [r2, #4]
 8001efc:	4b7c      	ldr	r3, [pc, #496]	; (80020f0 <stm32__device___elabs+0x23c>)
 8001efe:	2208      	movs	r2, #8
 8001f00:	811a      	strh	r2, [r3, #8]
 8001f02:	4b7b      	ldr	r3, [pc, #492]	; (80020f0 <stm32__device___elabs+0x23c>)
 8001f04:	4a77      	ldr	r2, [pc, #476]	; (80020e4 <stm32__device___elabs+0x230>)
 8001f06:	601a      	str	r2, [r3, #0]
 8001f08:	4b74      	ldr	r3, [pc, #464]	; (80020dc <stm32__device___elabs+0x228>)
 8001f0a:	681b      	ldr	r3, [r3, #0]
 8001f0c:	4a79      	ldr	r2, [pc, #484]	; (80020f4 <stm32__device___elabs+0x240>)
 8001f0e:	6053      	str	r3, [r2, #4]
 8001f10:	4b78      	ldr	r3, [pc, #480]	; (80020f4 <stm32__device___elabs+0x240>)
 8001f12:	2210      	movs	r2, #16
 8001f14:	811a      	strh	r2, [r3, #8]
 8001f16:	4b77      	ldr	r3, [pc, #476]	; (80020f4 <stm32__device___elabs+0x240>)
 8001f18:	4a72      	ldr	r2, [pc, #456]	; (80020e4 <stm32__device___elabs+0x230>)
 8001f1a:	601a      	str	r2, [r3, #0]
 8001f1c:	4b6f      	ldr	r3, [pc, #444]	; (80020dc <stm32__device___elabs+0x228>)
 8001f1e:	681b      	ldr	r3, [r3, #0]
 8001f20:	4a75      	ldr	r2, [pc, #468]	; (80020f8 <stm32__device___elabs+0x244>)
 8001f22:	6053      	str	r3, [r2, #4]
 8001f24:	4b74      	ldr	r3, [pc, #464]	; (80020f8 <stm32__device___elabs+0x244>)
 8001f26:	2220      	movs	r2, #32
 8001f28:	811a      	strh	r2, [r3, #8]
 8001f2a:	4b73      	ldr	r3, [pc, #460]	; (80020f8 <stm32__device___elabs+0x244>)
 8001f2c:	4a6d      	ldr	r2, [pc, #436]	; (80020e4 <stm32__device___elabs+0x230>)
 8001f2e:	601a      	str	r2, [r3, #0]
 8001f30:	4b6a      	ldr	r3, [pc, #424]	; (80020dc <stm32__device___elabs+0x228>)
 8001f32:	681b      	ldr	r3, [r3, #0]
 8001f34:	4a71      	ldr	r2, [pc, #452]	; (80020fc <stm32__device___elabs+0x248>)
 8001f36:	6053      	str	r3, [r2, #4]
 8001f38:	4b70      	ldr	r3, [pc, #448]	; (80020fc <stm32__device___elabs+0x248>)
 8001f3a:	2240      	movs	r2, #64	; 0x40
 8001f3c:	811a      	strh	r2, [r3, #8]
 8001f3e:	4b6f      	ldr	r3, [pc, #444]	; (80020fc <stm32__device___elabs+0x248>)
 8001f40:	4a68      	ldr	r2, [pc, #416]	; (80020e4 <stm32__device___elabs+0x230>)
 8001f42:	601a      	str	r2, [r3, #0]
 8001f44:	4b65      	ldr	r3, [pc, #404]	; (80020dc <stm32__device___elabs+0x228>)
 8001f46:	681b      	ldr	r3, [r3, #0]
 8001f48:	4a6d      	ldr	r2, [pc, #436]	; (8002100 <stm32__device___elabs+0x24c>)
 8001f4a:	6053      	str	r3, [r2, #4]
 8001f4c:	4b6c      	ldr	r3, [pc, #432]	; (8002100 <stm32__device___elabs+0x24c>)
 8001f4e:	2280      	movs	r2, #128	; 0x80
 8001f50:	811a      	strh	r2, [r3, #8]
 8001f52:	4b6b      	ldr	r3, [pc, #428]	; (8002100 <stm32__device___elabs+0x24c>)
 8001f54:	4a63      	ldr	r2, [pc, #396]	; (80020e4 <stm32__device___elabs+0x230>)
 8001f56:	601a      	str	r2, [r3, #0]
 8001f58:	4b60      	ldr	r3, [pc, #384]	; (80020dc <stm32__device___elabs+0x228>)
 8001f5a:	681b      	ldr	r3, [r3, #0]
 8001f5c:	4a69      	ldr	r2, [pc, #420]	; (8002104 <stm32__device___elabs+0x250>)
 8001f5e:	6053      	str	r3, [r2, #4]
 8001f60:	4b68      	ldr	r3, [pc, #416]	; (8002104 <stm32__device___elabs+0x250>)
 8001f62:	f44f 7280 	mov.w	r2, #256	; 0x100
 8001f66:	811a      	strh	r2, [r3, #8]
 8001f68:	4b66      	ldr	r3, [pc, #408]	; (8002104 <stm32__device___elabs+0x250>)
 8001f6a:	4a5e      	ldr	r2, [pc, #376]	; (80020e4 <stm32__device___elabs+0x230>)
 8001f6c:	601a      	str	r2, [r3, #0]
 8001f6e:	4b5b      	ldr	r3, [pc, #364]	; (80020dc <stm32__device___elabs+0x228>)
 8001f70:	681b      	ldr	r3, [r3, #0]
 8001f72:	4a65      	ldr	r2, [pc, #404]	; (8002108 <stm32__device___elabs+0x254>)
 8001f74:	6053      	str	r3, [r2, #4]
 8001f76:	4b64      	ldr	r3, [pc, #400]	; (8002108 <stm32__device___elabs+0x254>)
 8001f78:	f44f 7200 	mov.w	r2, #512	; 0x200
 8001f7c:	811a      	strh	r2, [r3, #8]
 8001f7e:	4b62      	ldr	r3, [pc, #392]	; (8002108 <stm32__device___elabs+0x254>)
 8001f80:	4a58      	ldr	r2, [pc, #352]	; (80020e4 <stm32__device___elabs+0x230>)
 8001f82:	601a      	str	r2, [r3, #0]
 8001f84:	4b55      	ldr	r3, [pc, #340]	; (80020dc <stm32__device___elabs+0x228>)
 8001f86:	681b      	ldr	r3, [r3, #0]
 8001f88:	4a60      	ldr	r2, [pc, #384]	; (800210c <stm32__device___elabs+0x258>)
 8001f8a:	6053      	str	r3, [r2, #4]
 8001f8c:	4b5f      	ldr	r3, [pc, #380]	; (800210c <stm32__device___elabs+0x258>)
 8001f8e:	f44f 6280 	mov.w	r2, #1024	; 0x400
 8001f92:	811a      	strh	r2, [r3, #8]
 8001f94:	4b5d      	ldr	r3, [pc, #372]	; (800210c <stm32__device___elabs+0x258>)
 8001f96:	4a53      	ldr	r2, [pc, #332]	; (80020e4 <stm32__device___elabs+0x230>)
 8001f98:	601a      	str	r2, [r3, #0]
 8001f9a:	4b50      	ldr	r3, [pc, #320]	; (80020dc <stm32__device___elabs+0x228>)
 8001f9c:	681b      	ldr	r3, [r3, #0]
 8001f9e:	4a5c      	ldr	r2, [pc, #368]	; (8002110 <stm32__device___elabs+0x25c>)
 8001fa0:	6053      	str	r3, [r2, #4]
 8001fa2:	4b5b      	ldr	r3, [pc, #364]	; (8002110 <stm32__device___elabs+0x25c>)
 8001fa4:	f44f 6200 	mov.w	r2, #2048	; 0x800
 8001fa8:	811a      	strh	r2, [r3, #8]
 8001faa:	4b59      	ldr	r3, [pc, #356]	; (8002110 <stm32__device___elabs+0x25c>)
 8001fac:	4a4d      	ldr	r2, [pc, #308]	; (80020e4 <stm32__device___elabs+0x230>)
 8001fae:	601a      	str	r2, [r3, #0]
 8001fb0:	4b4a      	ldr	r3, [pc, #296]	; (80020dc <stm32__device___elabs+0x228>)
 8001fb2:	681b      	ldr	r3, [r3, #0]
 8001fb4:	4a57      	ldr	r2, [pc, #348]	; (8002114 <stm32__device___elabs+0x260>)
 8001fb6:	6053      	str	r3, [r2, #4]
 8001fb8:	4b56      	ldr	r3, [pc, #344]	; (8002114 <stm32__device___elabs+0x260>)
 8001fba:	f44f 5280 	mov.w	r2, #4096	; 0x1000
 8001fbe:	811a      	strh	r2, [r3, #8]
 8001fc0:	4b54      	ldr	r3, [pc, #336]	; (8002114 <stm32__device___elabs+0x260>)
 8001fc2:	4a48      	ldr	r2, [pc, #288]	; (80020e4 <stm32__device___elabs+0x230>)
 8001fc4:	601a      	str	r2, [r3, #0]
 8001fc6:	4b45      	ldr	r3, [pc, #276]	; (80020dc <stm32__device___elabs+0x228>)
 8001fc8:	681b      	ldr	r3, [r3, #0]
 8001fca:	4a53      	ldr	r2, [pc, #332]	; (8002118 <stm32__device___elabs+0x264>)
 8001fcc:	6053      	str	r3, [r2, #4]
 8001fce:	4b52      	ldr	r3, [pc, #328]	; (8002118 <stm32__device___elabs+0x264>)
 8001fd0:	f44f 5200 	mov.w	r2, #8192	; 0x2000
 8001fd4:	811a      	strh	r2, [r3, #8]
 8001fd6:	4b50      	ldr	r3, [pc, #320]	; (8002118 <stm32__device___elabs+0x264>)
 8001fd8:	4a42      	ldr	r2, [pc, #264]	; (80020e4 <stm32__device___elabs+0x230>)
 8001fda:	601a      	str	r2, [r3, #0]
 8001fdc:	4b3f      	ldr	r3, [pc, #252]	; (80020dc <stm32__device___elabs+0x228>)
 8001fde:	681b      	ldr	r3, [r3, #0]
 8001fe0:	4a4e      	ldr	r2, [pc, #312]	; (800211c <stm32__device___elabs+0x268>)
 8001fe2:	6053      	str	r3, [r2, #4]
 8001fe4:	4b4d      	ldr	r3, [pc, #308]	; (800211c <stm32__device___elabs+0x268>)
 8001fe6:	f44f 4280 	mov.w	r2, #16384	; 0x4000
 8001fea:	811a      	strh	r2, [r3, #8]
 8001fec:	4b4b      	ldr	r3, [pc, #300]	; (800211c <stm32__device___elabs+0x268>)
 8001fee:	4a3d      	ldr	r2, [pc, #244]	; (80020e4 <stm32__device___elabs+0x230>)
 8001ff0:	601a      	str	r2, [r3, #0]
 8001ff2:	4b3a      	ldr	r3, [pc, #232]	; (80020dc <stm32__device___elabs+0x228>)
 8001ff4:	681b      	ldr	r3, [r3, #0]
 8001ff6:	4a4a      	ldr	r2, [pc, #296]	; (8002120 <stm32__device___elabs+0x26c>)
 8001ff8:	6053      	str	r3, [r2, #4]
 8001ffa:	4b49      	ldr	r3, [pc, #292]	; (8002120 <stm32__device___elabs+0x26c>)
 8001ffc:	f44f 4200 	mov.w	r2, #32768	; 0x8000
 8002000:	811a      	strh	r2, [r3, #8]
 8002002:	4b47      	ldr	r3, [pc, #284]	; (8002120 <stm32__device___elabs+0x26c>)
 8002004:	4a37      	ldr	r2, [pc, #220]	; (80020e4 <stm32__device___elabs+0x230>)
 8002006:	601a      	str	r2, [r3, #0]
 8002008:	4b46      	ldr	r3, [pc, #280]	; (8002124 <stm32__device___elabs+0x270>)
 800200a:	681b      	ldr	r3, [r3, #0]
 800200c:	4a46      	ldr	r2, [pc, #280]	; (8002128 <stm32__device___elabs+0x274>)
 800200e:	6053      	str	r3, [r2, #4]
 8002010:	4b45      	ldr	r3, [pc, #276]	; (8002128 <stm32__device___elabs+0x274>)
 8002012:	2201      	movs	r2, #1
 8002014:	811a      	strh	r2, [r3, #8]
 8002016:	4b44      	ldr	r3, [pc, #272]	; (8002128 <stm32__device___elabs+0x274>)
 8002018:	4a32      	ldr	r2, [pc, #200]	; (80020e4 <stm32__device___elabs+0x230>)
 800201a:	601a      	str	r2, [r3, #0]
 800201c:	4b41      	ldr	r3, [pc, #260]	; (8002124 <stm32__device___elabs+0x270>)
 800201e:	681b      	ldr	r3, [r3, #0]
 8002020:	4a42      	ldr	r2, [pc, #264]	; (800212c <stm32__device___elabs+0x278>)
 8002022:	6053      	str	r3, [r2, #4]
 8002024:	4b41      	ldr	r3, [pc, #260]	; (800212c <stm32__device___elabs+0x278>)
 8002026:	2202      	movs	r2, #2
 8002028:	811a      	strh	r2, [r3, #8]
 800202a:	4b40      	ldr	r3, [pc, #256]	; (800212c <stm32__device___elabs+0x278>)
 800202c:	4a2d      	ldr	r2, [pc, #180]	; (80020e4 <stm32__device___elabs+0x230>)
 800202e:	601a      	str	r2, [r3, #0]
 8002030:	4b3c      	ldr	r3, [pc, #240]	; (8002124 <stm32__device___elabs+0x270>)
 8002032:	681b      	ldr	r3, [r3, #0]
 8002034:	4a3e      	ldr	r2, [pc, #248]	; (8002130 <stm32__device___elabs+0x27c>)
 8002036:	6053      	str	r3, [r2, #4]
 8002038:	4b3d      	ldr	r3, [pc, #244]	; (8002130 <stm32__device___elabs+0x27c>)
 800203a:	2204      	movs	r2, #4
 800203c:	811a      	strh	r2, [r3, #8]
 800203e:	4b3c      	ldr	r3, [pc, #240]	; (8002130 <stm32__device___elabs+0x27c>)
 8002040:	4a28      	ldr	r2, [pc, #160]	; (80020e4 <stm32__device___elabs+0x230>)
 8002042:	601a      	str	r2, [r3, #0]
 8002044:	4b37      	ldr	r3, [pc, #220]	; (8002124 <stm32__device___elabs+0x270>)
 8002046:	681b      	ldr	r3, [r3, #0]
 8002048:	4a3a      	ldr	r2, [pc, #232]	; (8002134 <stm32__device___elabs+0x280>)
 800204a:	6053      	str	r3, [r2, #4]
 800204c:	4b39      	ldr	r3, [pc, #228]	; (8002134 <stm32__device___elabs+0x280>)
 800204e:	2208      	movs	r2, #8
 8002050:	811a      	strh	r2, [r3, #8]
 8002052:	4b38      	ldr	r3, [pc, #224]	; (8002134 <stm32__device___elabs+0x280>)
 8002054:	4a23      	ldr	r2, [pc, #140]	; (80020e4 <stm32__device___elabs+0x230>)
 8002056:	601a      	str	r2, [r3, #0]
 8002058:	4b32      	ldr	r3, [pc, #200]	; (8002124 <stm32__device___elabs+0x270>)
 800205a:	681b      	ldr	r3, [r3, #0]
 800205c:	4a36      	ldr	r2, [pc, #216]	; (8002138 <stm32__device___elabs+0x284>)
 800205e:	6053      	str	r3, [r2, #4]
 8002060:	4b35      	ldr	r3, [pc, #212]	; (8002138 <stm32__device___elabs+0x284>)
 8002062:	2210      	movs	r2, #16
 8002064:	811a      	strh	r2, [r3, #8]
 8002066:	4b34      	ldr	r3, [pc, #208]	; (8002138 <stm32__device___elabs+0x284>)
 8002068:	4a1e      	ldr	r2, [pc, #120]	; (80020e4 <stm32__device___elabs+0x230>)
 800206a:	601a      	str	r2, [r3, #0]
 800206c:	4b2d      	ldr	r3, [pc, #180]	; (8002124 <stm32__device___elabs+0x270>)
 800206e:	681b      	ldr	r3, [r3, #0]
 8002070:	4a32      	ldr	r2, [pc, #200]	; (800213c <stm32__device___elabs+0x288>)
 8002072:	6053      	str	r3, [r2, #4]
 8002074:	4b31      	ldr	r3, [pc, #196]	; (800213c <stm32__device___elabs+0x288>)
 8002076:	2220      	movs	r2, #32
 8002078:	811a      	strh	r2, [r3, #8]
 800207a:	4b30      	ldr	r3, [pc, #192]	; (800213c <stm32__device___elabs+0x288>)
 800207c:	4a19      	ldr	r2, [pc, #100]	; (80020e4 <stm32__device___elabs+0x230>)
 800207e:	601a      	str	r2, [r3, #0]
 8002080:	4b28      	ldr	r3, [pc, #160]	; (8002124 <stm32__device___elabs+0x270>)
 8002082:	681b      	ldr	r3, [r3, #0]
 8002084:	4a2e      	ldr	r2, [pc, #184]	; (8002140 <stm32__device___elabs+0x28c>)
 8002086:	6053      	str	r3, [r2, #4]
 8002088:	4b2d      	ldr	r3, [pc, #180]	; (8002140 <stm32__device___elabs+0x28c>)
 800208a:	2240      	movs	r2, #64	; 0x40
 800208c:	811a      	strh	r2, [r3, #8]
 800208e:	4b2c      	ldr	r3, [pc, #176]	; (8002140 <stm32__device___elabs+0x28c>)
 8002090:	4a14      	ldr	r2, [pc, #80]	; (80020e4 <stm32__device___elabs+0x230>)
 8002092:	601a      	str	r2, [r3, #0]
 8002094:	4b23      	ldr	r3, [pc, #140]	; (8002124 <stm32__device___elabs+0x270>)
 8002096:	681b      	ldr	r3, [r3, #0]
 8002098:	4a2a      	ldr	r2, [pc, #168]	; (8002144 <stm32__device___elabs+0x290>)
 800209a:	6053      	str	r3, [r2, #4]
 800209c:	4b29      	ldr	r3, [pc, #164]	; (8002144 <stm32__device___elabs+0x290>)
 800209e:	2280      	movs	r2, #128	; 0x80
 80020a0:	811a      	strh	r2, [r3, #8]
 80020a2:	4b28      	ldr	r3, [pc, #160]	; (8002144 <stm32__device___elabs+0x290>)
 80020a4:	4a0f      	ldr	r2, [pc, #60]	; (80020e4 <stm32__device___elabs+0x230>)
 80020a6:	601a      	str	r2, [r3, #0]
 80020a8:	4b1e      	ldr	r3, [pc, #120]	; (8002124 <stm32__device___elabs+0x270>)
 80020aa:	681b      	ldr	r3, [r3, #0]
 80020ac:	4a26      	ldr	r2, [pc, #152]	; (8002148 <stm32__device___elabs+0x294>)
 80020ae:	6053      	str	r3, [r2, #4]
 80020b0:	4b25      	ldr	r3, [pc, #148]	; (8002148 <stm32__device___elabs+0x294>)
 80020b2:	f44f 7280 	mov.w	r2, #256	; 0x100
 80020b6:	811a      	strh	r2, [r3, #8]
 80020b8:	4b23      	ldr	r3, [pc, #140]	; (8002148 <stm32__device___elabs+0x294>)
 80020ba:	4a0a      	ldr	r2, [pc, #40]	; (80020e4 <stm32__device___elabs+0x230>)
 80020bc:	601a      	str	r2, [r3, #0]
 80020be:	4b19      	ldr	r3, [pc, #100]	; (8002124 <stm32__device___elabs+0x270>)
 80020c0:	681b      	ldr	r3, [r3, #0]
 80020c2:	4a22      	ldr	r2, [pc, #136]	; (800214c <stm32__device___elabs+0x298>)
 80020c4:	6053      	str	r3, [r2, #4]
 80020c6:	4b21      	ldr	r3, [pc, #132]	; (800214c <stm32__device___elabs+0x298>)
 80020c8:	f44f 7200 	mov.w	r2, #512	; 0x200
 80020cc:	811a      	strh	r2, [r3, #8]
 80020ce:	4b1f      	ldr	r3, [pc, #124]	; (800214c <stm32__device___elabs+0x298>)
 80020d0:	4a04      	ldr	r2, [pc, #16]	; (80020e4 <stm32__device___elabs+0x230>)
 80020d2:	601a      	str	r2, [r3, #0]
 80020d4:	4b13      	ldr	r3, [pc, #76]	; (8002124 <stm32__device___elabs+0x270>)
 80020d6:	681b      	ldr	r3, [r3, #0]
 80020d8:	e03a      	b.n	8002150 <stm32__device___elabs+0x29c>
 80020da:	bf00      	nop
 80020dc:	20000018 	.word	0x20000018
 80020e0:	200000e0 	.word	0x200000e0
 80020e4:	0800b614 	.word	0x0800b614
 80020e8:	200000ec 	.word	0x200000ec
 80020ec:	200000f8 	.word	0x200000f8
 80020f0:	20000104 	.word	0x20000104
 80020f4:	20000110 	.word	0x20000110
 80020f8:	2000011c 	.word	0x2000011c
 80020fc:	20000128 	.word	0x20000128
 8002100:	20000134 	.word	0x20000134
 8002104:	20000140 	.word	0x20000140
 8002108:	2000014c 	.word	0x2000014c
 800210c:	20000158 	.word	0x20000158
 8002110:	20000164 	.word	0x20000164
 8002114:	20000170 	.word	0x20000170
 8002118:	2000017c 	.word	0x2000017c
 800211c:	20000188 	.word	0x20000188
 8002120:	20000194 	.word	0x20000194
 8002124:	2000001c 	.word	0x2000001c
 8002128:	200001a0 	.word	0x200001a0
 800212c:	200001ac 	.word	0x200001ac
 8002130:	200001b8 	.word	0x200001b8
 8002134:	200001c4 	.word	0x200001c4
 8002138:	200001d0 	.word	0x200001d0
 800213c:	200001dc 	.word	0x200001dc
 8002140:	200001e8 	.word	0x200001e8
 8002144:	200001f4 	.word	0x200001f4
 8002148:	20000200 	.word	0x20000200
 800214c:	2000020c 	.word	0x2000020c
 8002150:	4a89      	ldr	r2, [pc, #548]	; (8002378 <stm32__device___elabs+0x4c4>)
 8002152:	6053      	str	r3, [r2, #4]
 8002154:	4b88      	ldr	r3, [pc, #544]	; (8002378 <stm32__device___elabs+0x4c4>)
 8002156:	f44f 6280 	mov.w	r2, #1024	; 0x400
 800215a:	811a      	strh	r2, [r3, #8]
 800215c:	4b86      	ldr	r3, [pc, #536]	; (8002378 <stm32__device___elabs+0x4c4>)
 800215e:	4a87      	ldr	r2, [pc, #540]	; (800237c <stm32__device___elabs+0x4c8>)
 8002160:	601a      	str	r2, [r3, #0]
 8002162:	4b87      	ldr	r3, [pc, #540]	; (8002380 <stm32__device___elabs+0x4cc>)
 8002164:	681b      	ldr	r3, [r3, #0]
 8002166:	4a87      	ldr	r2, [pc, #540]	; (8002384 <stm32__device___elabs+0x4d0>)
 8002168:	6053      	str	r3, [r2, #4]
 800216a:	4b86      	ldr	r3, [pc, #536]	; (8002384 <stm32__device___elabs+0x4d0>)
 800216c:	f44f 6200 	mov.w	r2, #2048	; 0x800
 8002170:	811a      	strh	r2, [r3, #8]
 8002172:	4b84      	ldr	r3, [pc, #528]	; (8002384 <stm32__device___elabs+0x4d0>)
 8002174:	4a81      	ldr	r2, [pc, #516]	; (800237c <stm32__device___elabs+0x4c8>)
 8002176:	601a      	str	r2, [r3, #0]
 8002178:	4b81      	ldr	r3, [pc, #516]	; (8002380 <stm32__device___elabs+0x4cc>)
 800217a:	681b      	ldr	r3, [r3, #0]
 800217c:	4a82      	ldr	r2, [pc, #520]	; (8002388 <stm32__device___elabs+0x4d4>)
 800217e:	6053      	str	r3, [r2, #4]
 8002180:	4b81      	ldr	r3, [pc, #516]	; (8002388 <stm32__device___elabs+0x4d4>)
 8002182:	f44f 5280 	mov.w	r2, #4096	; 0x1000
 8002186:	811a      	strh	r2, [r3, #8]
 8002188:	4b7f      	ldr	r3, [pc, #508]	; (8002388 <stm32__device___elabs+0x4d4>)
 800218a:	4a7c      	ldr	r2, [pc, #496]	; (800237c <stm32__device___elabs+0x4c8>)
 800218c:	601a      	str	r2, [r3, #0]
 800218e:	4b7c      	ldr	r3, [pc, #496]	; (8002380 <stm32__device___elabs+0x4cc>)
 8002190:	681b      	ldr	r3, [r3, #0]
 8002192:	4a7e      	ldr	r2, [pc, #504]	; (800238c <stm32__device___elabs+0x4d8>)
 8002194:	6053      	str	r3, [r2, #4]
 8002196:	4b7d      	ldr	r3, [pc, #500]	; (800238c <stm32__device___elabs+0x4d8>)
 8002198:	f44f 5200 	mov.w	r2, #8192	; 0x2000
 800219c:	811a      	strh	r2, [r3, #8]
 800219e:	4b7b      	ldr	r3, [pc, #492]	; (800238c <stm32__device___elabs+0x4d8>)
 80021a0:	4a76      	ldr	r2, [pc, #472]	; (800237c <stm32__device___elabs+0x4c8>)
 80021a2:	601a      	str	r2, [r3, #0]
 80021a4:	4b76      	ldr	r3, [pc, #472]	; (8002380 <stm32__device___elabs+0x4cc>)
 80021a6:	681b      	ldr	r3, [r3, #0]
 80021a8:	4a79      	ldr	r2, [pc, #484]	; (8002390 <stm32__device___elabs+0x4dc>)
 80021aa:	6053      	str	r3, [r2, #4]
 80021ac:	4b78      	ldr	r3, [pc, #480]	; (8002390 <stm32__device___elabs+0x4dc>)
 80021ae:	f44f 4280 	mov.w	r2, #16384	; 0x4000
 80021b2:	811a      	strh	r2, [r3, #8]
 80021b4:	4b76      	ldr	r3, [pc, #472]	; (8002390 <stm32__device___elabs+0x4dc>)
 80021b6:	4a71      	ldr	r2, [pc, #452]	; (800237c <stm32__device___elabs+0x4c8>)
 80021b8:	601a      	str	r2, [r3, #0]
 80021ba:	4b71      	ldr	r3, [pc, #452]	; (8002380 <stm32__device___elabs+0x4cc>)
 80021bc:	681b      	ldr	r3, [r3, #0]
 80021be:	4a75      	ldr	r2, [pc, #468]	; (8002394 <stm32__device___elabs+0x4e0>)
 80021c0:	6053      	str	r3, [r2, #4]
 80021c2:	4b74      	ldr	r3, [pc, #464]	; (8002394 <stm32__device___elabs+0x4e0>)
 80021c4:	f44f 4200 	mov.w	r2, #32768	; 0x8000
 80021c8:	811a      	strh	r2, [r3, #8]
 80021ca:	4b72      	ldr	r3, [pc, #456]	; (8002394 <stm32__device___elabs+0x4e0>)
 80021cc:	4a6b      	ldr	r2, [pc, #428]	; (800237c <stm32__device___elabs+0x4c8>)
 80021ce:	601a      	str	r2, [r3, #0]
 80021d0:	4b71      	ldr	r3, [pc, #452]	; (8002398 <stm32__device___elabs+0x4e4>)
 80021d2:	681b      	ldr	r3, [r3, #0]
 80021d4:	4a71      	ldr	r2, [pc, #452]	; (800239c <stm32__device___elabs+0x4e8>)
 80021d6:	6053      	str	r3, [r2, #4]
 80021d8:	4b70      	ldr	r3, [pc, #448]	; (800239c <stm32__device___elabs+0x4e8>)
 80021da:	2201      	movs	r2, #1
 80021dc:	811a      	strh	r2, [r3, #8]
 80021de:	4b6f      	ldr	r3, [pc, #444]	; (800239c <stm32__device___elabs+0x4e8>)
 80021e0:	4a66      	ldr	r2, [pc, #408]	; (800237c <stm32__device___elabs+0x4c8>)
 80021e2:	601a      	str	r2, [r3, #0]
 80021e4:	4b6c      	ldr	r3, [pc, #432]	; (8002398 <stm32__device___elabs+0x4e4>)
 80021e6:	681b      	ldr	r3, [r3, #0]
 80021e8:	4a6d      	ldr	r2, [pc, #436]	; (80023a0 <stm32__device___elabs+0x4ec>)
 80021ea:	6053      	str	r3, [r2, #4]
 80021ec:	4b6c      	ldr	r3, [pc, #432]	; (80023a0 <stm32__device___elabs+0x4ec>)
 80021ee:	2202      	movs	r2, #2
 80021f0:	811a      	strh	r2, [r3, #8]
 80021f2:	4b6b      	ldr	r3, [pc, #428]	; (80023a0 <stm32__device___elabs+0x4ec>)
 80021f4:	4a61      	ldr	r2, [pc, #388]	; (800237c <stm32__device___elabs+0x4c8>)
 80021f6:	601a      	str	r2, [r3, #0]
 80021f8:	4b67      	ldr	r3, [pc, #412]	; (8002398 <stm32__device___elabs+0x4e4>)
 80021fa:	681b      	ldr	r3, [r3, #0]
 80021fc:	4a69      	ldr	r2, [pc, #420]	; (80023a4 <stm32__device___elabs+0x4f0>)
 80021fe:	6053      	str	r3, [r2, #4]
 8002200:	4b68      	ldr	r3, [pc, #416]	; (80023a4 <stm32__device___elabs+0x4f0>)
 8002202:	2204      	movs	r2, #4
 8002204:	811a      	strh	r2, [r3, #8]
 8002206:	4b67      	ldr	r3, [pc, #412]	; (80023a4 <stm32__device___elabs+0x4f0>)
 8002208:	4a5c      	ldr	r2, [pc, #368]	; (800237c <stm32__device___elabs+0x4c8>)
 800220a:	601a      	str	r2, [r3, #0]
 800220c:	4b62      	ldr	r3, [pc, #392]	; (8002398 <stm32__device___elabs+0x4e4>)
 800220e:	681b      	ldr	r3, [r3, #0]
 8002210:	4a65      	ldr	r2, [pc, #404]	; (80023a8 <stm32__device___elabs+0x4f4>)
 8002212:	6053      	str	r3, [r2, #4]
 8002214:	4b64      	ldr	r3, [pc, #400]	; (80023a8 <stm32__device___elabs+0x4f4>)
 8002216:	2208      	movs	r2, #8
 8002218:	811a      	strh	r2, [r3, #8]
 800221a:	4b63      	ldr	r3, [pc, #396]	; (80023a8 <stm32__device___elabs+0x4f4>)
 800221c:	4a57      	ldr	r2, [pc, #348]	; (800237c <stm32__device___elabs+0x4c8>)
 800221e:	601a      	str	r2, [r3, #0]
 8002220:	4b5d      	ldr	r3, [pc, #372]	; (8002398 <stm32__device___elabs+0x4e4>)
 8002222:	681b      	ldr	r3, [r3, #0]
 8002224:	4a61      	ldr	r2, [pc, #388]	; (80023ac <stm32__device___elabs+0x4f8>)
 8002226:	6053      	str	r3, [r2, #4]
 8002228:	4b60      	ldr	r3, [pc, #384]	; (80023ac <stm32__device___elabs+0x4f8>)
 800222a:	2210      	movs	r2, #16
 800222c:	811a      	strh	r2, [r3, #8]
 800222e:	4b5f      	ldr	r3, [pc, #380]	; (80023ac <stm32__device___elabs+0x4f8>)
 8002230:	4a52      	ldr	r2, [pc, #328]	; (800237c <stm32__device___elabs+0x4c8>)
 8002232:	601a      	str	r2, [r3, #0]
 8002234:	4b58      	ldr	r3, [pc, #352]	; (8002398 <stm32__device___elabs+0x4e4>)
 8002236:	681b      	ldr	r3, [r3, #0]
 8002238:	4a5d      	ldr	r2, [pc, #372]	; (80023b0 <stm32__device___elabs+0x4fc>)
 800223a:	6053      	str	r3, [r2, #4]
 800223c:	4b5c      	ldr	r3, [pc, #368]	; (80023b0 <stm32__device___elabs+0x4fc>)
 800223e:	2220      	movs	r2, #32
 8002240:	811a      	strh	r2, [r3, #8]
 8002242:	4b5b      	ldr	r3, [pc, #364]	; (80023b0 <stm32__device___elabs+0x4fc>)
 8002244:	4a4d      	ldr	r2, [pc, #308]	; (800237c <stm32__device___elabs+0x4c8>)
 8002246:	601a      	str	r2, [r3, #0]
 8002248:	4b53      	ldr	r3, [pc, #332]	; (8002398 <stm32__device___elabs+0x4e4>)
 800224a:	681b      	ldr	r3, [r3, #0]
 800224c:	4a59      	ldr	r2, [pc, #356]	; (80023b4 <stm32__device___elabs+0x500>)
 800224e:	6053      	str	r3, [r2, #4]
 8002250:	4b58      	ldr	r3, [pc, #352]	; (80023b4 <stm32__device___elabs+0x500>)
 8002252:	2240      	movs	r2, #64	; 0x40
 8002254:	811a      	strh	r2, [r3, #8]
 8002256:	4b57      	ldr	r3, [pc, #348]	; (80023b4 <stm32__device___elabs+0x500>)
 8002258:	4a48      	ldr	r2, [pc, #288]	; (800237c <stm32__device___elabs+0x4c8>)
 800225a:	601a      	str	r2, [r3, #0]
 800225c:	4b4e      	ldr	r3, [pc, #312]	; (8002398 <stm32__device___elabs+0x4e4>)
 800225e:	681b      	ldr	r3, [r3, #0]
 8002260:	4a55      	ldr	r2, [pc, #340]	; (80023b8 <stm32__device___elabs+0x504>)
 8002262:	6053      	str	r3, [r2, #4]
 8002264:	4b54      	ldr	r3, [pc, #336]	; (80023b8 <stm32__device___elabs+0x504>)
 8002266:	2280      	movs	r2, #128	; 0x80
 8002268:	811a      	strh	r2, [r3, #8]
 800226a:	4b53      	ldr	r3, [pc, #332]	; (80023b8 <stm32__device___elabs+0x504>)
 800226c:	4a43      	ldr	r2, [pc, #268]	; (800237c <stm32__device___elabs+0x4c8>)
 800226e:	601a      	str	r2, [r3, #0]
 8002270:	4b49      	ldr	r3, [pc, #292]	; (8002398 <stm32__device___elabs+0x4e4>)
 8002272:	681b      	ldr	r3, [r3, #0]
 8002274:	4a51      	ldr	r2, [pc, #324]	; (80023bc <stm32__device___elabs+0x508>)
 8002276:	6053      	str	r3, [r2, #4]
 8002278:	4b50      	ldr	r3, [pc, #320]	; (80023bc <stm32__device___elabs+0x508>)
 800227a:	f44f 7280 	mov.w	r2, #256	; 0x100
 800227e:	811a      	strh	r2, [r3, #8]
 8002280:	4b4e      	ldr	r3, [pc, #312]	; (80023bc <stm32__device___elabs+0x508>)
 8002282:	4a3e      	ldr	r2, [pc, #248]	; (800237c <stm32__device___elabs+0x4c8>)
 8002284:	601a      	str	r2, [r3, #0]
 8002286:	4b44      	ldr	r3, [pc, #272]	; (8002398 <stm32__device___elabs+0x4e4>)
 8002288:	681b      	ldr	r3, [r3, #0]
 800228a:	4a4d      	ldr	r2, [pc, #308]	; (80023c0 <stm32__device___elabs+0x50c>)
 800228c:	6053      	str	r3, [r2, #4]
 800228e:	4b4c      	ldr	r3, [pc, #304]	; (80023c0 <stm32__device___elabs+0x50c>)
 8002290:	f44f 7200 	mov.w	r2, #512	; 0x200
 8002294:	811a      	strh	r2, [r3, #8]
 8002296:	4b4a      	ldr	r3, [pc, #296]	; (80023c0 <stm32__device___elabs+0x50c>)
 8002298:	4a38      	ldr	r2, [pc, #224]	; (800237c <stm32__device___elabs+0x4c8>)
 800229a:	601a      	str	r2, [r3, #0]
 800229c:	4b3e      	ldr	r3, [pc, #248]	; (8002398 <stm32__device___elabs+0x4e4>)
 800229e:	681b      	ldr	r3, [r3, #0]
 80022a0:	4a48      	ldr	r2, [pc, #288]	; (80023c4 <stm32__device___elabs+0x510>)
 80022a2:	6053      	str	r3, [r2, #4]
 80022a4:	4b47      	ldr	r3, [pc, #284]	; (80023c4 <stm32__device___elabs+0x510>)
 80022a6:	f44f 6280 	mov.w	r2, #1024	; 0x400
 80022aa:	811a      	strh	r2, [r3, #8]
 80022ac:	4b45      	ldr	r3, [pc, #276]	; (80023c4 <stm32__device___elabs+0x510>)
 80022ae:	4a33      	ldr	r2, [pc, #204]	; (800237c <stm32__device___elabs+0x4c8>)
 80022b0:	601a      	str	r2, [r3, #0]
 80022b2:	4b39      	ldr	r3, [pc, #228]	; (8002398 <stm32__device___elabs+0x4e4>)
 80022b4:	681b      	ldr	r3, [r3, #0]
 80022b6:	4a44      	ldr	r2, [pc, #272]	; (80023c8 <stm32__device___elabs+0x514>)
 80022b8:	6053      	str	r3, [r2, #4]
 80022ba:	4b43      	ldr	r3, [pc, #268]	; (80023c8 <stm32__device___elabs+0x514>)
 80022bc:	f44f 6200 	mov.w	r2, #2048	; 0x800
 80022c0:	811a      	strh	r2, [r3, #8]
 80022c2:	4b41      	ldr	r3, [pc, #260]	; (80023c8 <stm32__device___elabs+0x514>)
 80022c4:	4a2d      	ldr	r2, [pc, #180]	; (800237c <stm32__device___elabs+0x4c8>)
 80022c6:	601a      	str	r2, [r3, #0]
 80022c8:	4b33      	ldr	r3, [pc, #204]	; (8002398 <stm32__device___elabs+0x4e4>)
 80022ca:	681b      	ldr	r3, [r3, #0]
 80022cc:	4a3f      	ldr	r2, [pc, #252]	; (80023cc <stm32__device___elabs+0x518>)
 80022ce:	6053      	str	r3, [r2, #4]
 80022d0:	4b3e      	ldr	r3, [pc, #248]	; (80023cc <stm32__device___elabs+0x518>)
 80022d2:	f44f 5280 	mov.w	r2, #4096	; 0x1000
 80022d6:	811a      	strh	r2, [r3, #8]
 80022d8:	4b3c      	ldr	r3, [pc, #240]	; (80023cc <stm32__device___elabs+0x518>)
 80022da:	4a28      	ldr	r2, [pc, #160]	; (800237c <stm32__device___elabs+0x4c8>)
 80022dc:	601a      	str	r2, [r3, #0]
 80022de:	4b2e      	ldr	r3, [pc, #184]	; (8002398 <stm32__device___elabs+0x4e4>)
 80022e0:	681b      	ldr	r3, [r3, #0]
 80022e2:	4a3b      	ldr	r2, [pc, #236]	; (80023d0 <stm32__device___elabs+0x51c>)
 80022e4:	6053      	str	r3, [r2, #4]
 80022e6:	4b3a      	ldr	r3, [pc, #232]	; (80023d0 <stm32__device___elabs+0x51c>)
 80022e8:	f44f 5200 	mov.w	r2, #8192	; 0x2000
 80022ec:	811a      	strh	r2, [r3, #8]
 80022ee:	4b38      	ldr	r3, [pc, #224]	; (80023d0 <stm32__device___elabs+0x51c>)
 80022f0:	4a22      	ldr	r2, [pc, #136]	; (800237c <stm32__device___elabs+0x4c8>)
 80022f2:	601a      	str	r2, [r3, #0]
 80022f4:	4b28      	ldr	r3, [pc, #160]	; (8002398 <stm32__device___elabs+0x4e4>)
 80022f6:	681b      	ldr	r3, [r3, #0]
 80022f8:	4a36      	ldr	r2, [pc, #216]	; (80023d4 <stm32__device___elabs+0x520>)
 80022fa:	6053      	str	r3, [r2, #4]
 80022fc:	4b35      	ldr	r3, [pc, #212]	; (80023d4 <stm32__device___elabs+0x520>)
 80022fe:	f44f 4280 	mov.w	r2, #16384	; 0x4000
 8002302:	811a      	strh	r2, [r3, #8]
 8002304:	4b33      	ldr	r3, [pc, #204]	; (80023d4 <stm32__device___elabs+0x520>)
 8002306:	4a1d      	ldr	r2, [pc, #116]	; (800237c <stm32__device___elabs+0x4c8>)
 8002308:	601a      	str	r2, [r3, #0]
 800230a:	4b23      	ldr	r3, [pc, #140]	; (8002398 <stm32__device___elabs+0x4e4>)
 800230c:	681b      	ldr	r3, [r3, #0]
 800230e:	4a32      	ldr	r2, [pc, #200]	; (80023d8 <stm32__device___elabs+0x524>)
 8002310:	6053      	str	r3, [r2, #4]
 8002312:	4b31      	ldr	r3, [pc, #196]	; (80023d8 <stm32__device___elabs+0x524>)
 8002314:	f44f 4200 	mov.w	r2, #32768	; 0x8000
 8002318:	811a      	strh	r2, [r3, #8]
 800231a:	4b2f      	ldr	r3, [pc, #188]	; (80023d8 <stm32__device___elabs+0x524>)
 800231c:	4a17      	ldr	r2, [pc, #92]	; (800237c <stm32__device___elabs+0x4c8>)
 800231e:	601a      	str	r2, [r3, #0]
 8002320:	4b2e      	ldr	r3, [pc, #184]	; (80023dc <stm32__device___elabs+0x528>)
 8002322:	681b      	ldr	r3, [r3, #0]
 8002324:	4a2e      	ldr	r2, [pc, #184]	; (80023e0 <stm32__device___elabs+0x52c>)
 8002326:	6053      	str	r3, [r2, #4]
 8002328:	4b2d      	ldr	r3, [pc, #180]	; (80023e0 <stm32__device___elabs+0x52c>)
 800232a:	2201      	movs	r2, #1
 800232c:	811a      	strh	r2, [r3, #8]
 800232e:	4b2c      	ldr	r3, [pc, #176]	; (80023e0 <stm32__device___elabs+0x52c>)
 8002330:	4a12      	ldr	r2, [pc, #72]	; (800237c <stm32__device___elabs+0x4c8>)
 8002332:	601a      	str	r2, [r3, #0]
 8002334:	4b29      	ldr	r3, [pc, #164]	; (80023dc <stm32__device___elabs+0x528>)
 8002336:	681b      	ldr	r3, [r3, #0]
 8002338:	4a2a      	ldr	r2, [pc, #168]	; (80023e4 <stm32__device___elabs+0x530>)
 800233a:	6053      	str	r3, [r2, #4]
 800233c:	4b29      	ldr	r3, [pc, #164]	; (80023e4 <stm32__device___elabs+0x530>)
 800233e:	2202      	movs	r2, #2
 8002340:	811a      	strh	r2, [r3, #8]
 8002342:	4b28      	ldr	r3, [pc, #160]	; (80023e4 <stm32__device___elabs+0x530>)
 8002344:	4a0d      	ldr	r2, [pc, #52]	; (800237c <stm32__device___elabs+0x4c8>)
 8002346:	601a      	str	r2, [r3, #0]
 8002348:	4b24      	ldr	r3, [pc, #144]	; (80023dc <stm32__device___elabs+0x528>)
 800234a:	681b      	ldr	r3, [r3, #0]
 800234c:	4a26      	ldr	r2, [pc, #152]	; (80023e8 <stm32__device___elabs+0x534>)
 800234e:	6053      	str	r3, [r2, #4]
 8002350:	4b25      	ldr	r3, [pc, #148]	; (80023e8 <stm32__device___elabs+0x534>)
 8002352:	2204      	movs	r2, #4
 8002354:	811a      	strh	r2, [r3, #8]
 8002356:	4b24      	ldr	r3, [pc, #144]	; (80023e8 <stm32__device___elabs+0x534>)
 8002358:	4a08      	ldr	r2, [pc, #32]	; (800237c <stm32__device___elabs+0x4c8>)
 800235a:	601a      	str	r2, [r3, #0]
 800235c:	4b1f      	ldr	r3, [pc, #124]	; (80023dc <stm32__device___elabs+0x528>)
 800235e:	681b      	ldr	r3, [r3, #0]
 8002360:	4a22      	ldr	r2, [pc, #136]	; (80023ec <stm32__device___elabs+0x538>)
 8002362:	6053      	str	r3, [r2, #4]
 8002364:	4b21      	ldr	r3, [pc, #132]	; (80023ec <stm32__device___elabs+0x538>)
 8002366:	2208      	movs	r2, #8
 8002368:	811a      	strh	r2, [r3, #8]
 800236a:	4b20      	ldr	r3, [pc, #128]	; (80023ec <stm32__device___elabs+0x538>)
 800236c:	4a03      	ldr	r2, [pc, #12]	; (800237c <stm32__device___elabs+0x4c8>)
 800236e:	601a      	str	r2, [r3, #0]
 8002370:	4b1a      	ldr	r3, [pc, #104]	; (80023dc <stm32__device___elabs+0x528>)
 8002372:	681b      	ldr	r3, [r3, #0]
 8002374:	e03c      	b.n	80023f0 <stm32__device___elabs+0x53c>
 8002376:	bf00      	nop
 8002378:	20000218 	.word	0x20000218
 800237c:	0800b614 	.word	0x0800b614
 8002380:	2000001c 	.word	0x2000001c
 8002384:	20000224 	.word	0x20000224
 8002388:	20000230 	.word	0x20000230
 800238c:	2000023c 	.word	0x2000023c
 8002390:	20000248 	.word	0x20000248
 8002394:	20000254 	.word	0x20000254
 8002398:	20000020 	.word	0x20000020
 800239c:	20000260 	.word	0x20000260
 80023a0:	2000026c 	.word	0x2000026c
 80023a4:	20000278 	.word	0x20000278
 80023a8:	20000284 	.word	0x20000284
 80023ac:	20000290 	.word	0x20000290
 80023b0:	2000029c 	.word	0x2000029c
 80023b4:	200002a8 	.word	0x200002a8
 80023b8:	200002b4 	.word	0x200002b4
 80023bc:	200002c0 	.word	0x200002c0
 80023c0:	200002cc 	.word	0x200002cc
 80023c4:	200002d8 	.word	0x200002d8
 80023c8:	200002e4 	.word	0x200002e4
 80023cc:	200002f0 	.word	0x200002f0
 80023d0:	200002fc 	.word	0x200002fc
 80023d4:	20000308 	.word	0x20000308
 80023d8:	20000314 	.word	0x20000314
 80023dc:	20000024 	.word	0x20000024
 80023e0:	20000320 	.word	0x20000320
 80023e4:	2000032c 	.word	0x2000032c
 80023e8:	20000338 	.word	0x20000338
 80023ec:	20000344 	.word	0x20000344
 80023f0:	4a89      	ldr	r2, [pc, #548]	; (8002618 <stm32__device___elabs+0x764>)
 80023f2:	6053      	str	r3, [r2, #4]
 80023f4:	4b88      	ldr	r3, [pc, #544]	; (8002618 <stm32__device___elabs+0x764>)
 80023f6:	2210      	movs	r2, #16
 80023f8:	811a      	strh	r2, [r3, #8]
 80023fa:	4b87      	ldr	r3, [pc, #540]	; (8002618 <stm32__device___elabs+0x764>)
 80023fc:	4a87      	ldr	r2, [pc, #540]	; (800261c <stm32__device___elabs+0x768>)
 80023fe:	601a      	str	r2, [r3, #0]
 8002400:	4b87      	ldr	r3, [pc, #540]	; (8002620 <stm32__device___elabs+0x76c>)
 8002402:	681b      	ldr	r3, [r3, #0]
 8002404:	4a87      	ldr	r2, [pc, #540]	; (8002624 <stm32__device___elabs+0x770>)
 8002406:	6053      	str	r3, [r2, #4]
 8002408:	4b86      	ldr	r3, [pc, #536]	; (8002624 <stm32__device___elabs+0x770>)
 800240a:	2220      	movs	r2, #32
 800240c:	811a      	strh	r2, [r3, #8]
 800240e:	4b85      	ldr	r3, [pc, #532]	; (8002624 <stm32__device___elabs+0x770>)
 8002410:	4a82      	ldr	r2, [pc, #520]	; (800261c <stm32__device___elabs+0x768>)
 8002412:	601a      	str	r2, [r3, #0]
 8002414:	4b82      	ldr	r3, [pc, #520]	; (8002620 <stm32__device___elabs+0x76c>)
 8002416:	681b      	ldr	r3, [r3, #0]
 8002418:	4a83      	ldr	r2, [pc, #524]	; (8002628 <stm32__device___elabs+0x774>)
 800241a:	6053      	str	r3, [r2, #4]
 800241c:	4b82      	ldr	r3, [pc, #520]	; (8002628 <stm32__device___elabs+0x774>)
 800241e:	2240      	movs	r2, #64	; 0x40
 8002420:	811a      	strh	r2, [r3, #8]
 8002422:	4b81      	ldr	r3, [pc, #516]	; (8002628 <stm32__device___elabs+0x774>)
 8002424:	4a7d      	ldr	r2, [pc, #500]	; (800261c <stm32__device___elabs+0x768>)
 8002426:	601a      	str	r2, [r3, #0]
 8002428:	4b7d      	ldr	r3, [pc, #500]	; (8002620 <stm32__device___elabs+0x76c>)
 800242a:	681b      	ldr	r3, [r3, #0]
 800242c:	4a7f      	ldr	r2, [pc, #508]	; (800262c <stm32__device___elabs+0x778>)
 800242e:	6053      	str	r3, [r2, #4]
 8002430:	4b7e      	ldr	r3, [pc, #504]	; (800262c <stm32__device___elabs+0x778>)
 8002432:	2280      	movs	r2, #128	; 0x80
 8002434:	811a      	strh	r2, [r3, #8]
 8002436:	4b7d      	ldr	r3, [pc, #500]	; (800262c <stm32__device___elabs+0x778>)
 8002438:	4a78      	ldr	r2, [pc, #480]	; (800261c <stm32__device___elabs+0x768>)
 800243a:	601a      	str	r2, [r3, #0]
 800243c:	4b78      	ldr	r3, [pc, #480]	; (8002620 <stm32__device___elabs+0x76c>)
 800243e:	681b      	ldr	r3, [r3, #0]
 8002440:	4a7b      	ldr	r2, [pc, #492]	; (8002630 <stm32__device___elabs+0x77c>)
 8002442:	6053      	str	r3, [r2, #4]
 8002444:	4b7a      	ldr	r3, [pc, #488]	; (8002630 <stm32__device___elabs+0x77c>)
 8002446:	f44f 7280 	mov.w	r2, #256	; 0x100
 800244a:	811a      	strh	r2, [r3, #8]
 800244c:	4b78      	ldr	r3, [pc, #480]	; (8002630 <stm32__device___elabs+0x77c>)
 800244e:	4a73      	ldr	r2, [pc, #460]	; (800261c <stm32__device___elabs+0x768>)
 8002450:	601a      	str	r2, [r3, #0]
 8002452:	4b73      	ldr	r3, [pc, #460]	; (8002620 <stm32__device___elabs+0x76c>)
 8002454:	681b      	ldr	r3, [r3, #0]
 8002456:	4a77      	ldr	r2, [pc, #476]	; (8002634 <stm32__device___elabs+0x780>)
 8002458:	6053      	str	r3, [r2, #4]
 800245a:	4b76      	ldr	r3, [pc, #472]	; (8002634 <stm32__device___elabs+0x780>)
 800245c:	f44f 7200 	mov.w	r2, #512	; 0x200
 8002460:	811a      	strh	r2, [r3, #8]
 8002462:	4b74      	ldr	r3, [pc, #464]	; (8002634 <stm32__device___elabs+0x780>)
 8002464:	4a6d      	ldr	r2, [pc, #436]	; (800261c <stm32__device___elabs+0x768>)
 8002466:	601a      	str	r2, [r3, #0]
 8002468:	4b6d      	ldr	r3, [pc, #436]	; (8002620 <stm32__device___elabs+0x76c>)
 800246a:	681b      	ldr	r3, [r3, #0]
 800246c:	4a72      	ldr	r2, [pc, #456]	; (8002638 <stm32__device___elabs+0x784>)
 800246e:	6053      	str	r3, [r2, #4]
 8002470:	4b71      	ldr	r3, [pc, #452]	; (8002638 <stm32__device___elabs+0x784>)
 8002472:	f44f 6280 	mov.w	r2, #1024	; 0x400
 8002476:	811a      	strh	r2, [r3, #8]
 8002478:	4b6f      	ldr	r3, [pc, #444]	; (8002638 <stm32__device___elabs+0x784>)
 800247a:	4a68      	ldr	r2, [pc, #416]	; (800261c <stm32__device___elabs+0x768>)
 800247c:	601a      	str	r2, [r3, #0]
 800247e:	4b68      	ldr	r3, [pc, #416]	; (8002620 <stm32__device___elabs+0x76c>)
 8002480:	681b      	ldr	r3, [r3, #0]
 8002482:	4a6e      	ldr	r2, [pc, #440]	; (800263c <stm32__device___elabs+0x788>)
 8002484:	6053      	str	r3, [r2, #4]
 8002486:	4b6d      	ldr	r3, [pc, #436]	; (800263c <stm32__device___elabs+0x788>)
 8002488:	f44f 6200 	mov.w	r2, #2048	; 0x800
 800248c:	811a      	strh	r2, [r3, #8]
 800248e:	4b6b      	ldr	r3, [pc, #428]	; (800263c <stm32__device___elabs+0x788>)
 8002490:	4a62      	ldr	r2, [pc, #392]	; (800261c <stm32__device___elabs+0x768>)
 8002492:	601a      	str	r2, [r3, #0]
 8002494:	4b62      	ldr	r3, [pc, #392]	; (8002620 <stm32__device___elabs+0x76c>)
 8002496:	681b      	ldr	r3, [r3, #0]
 8002498:	4a69      	ldr	r2, [pc, #420]	; (8002640 <stm32__device___elabs+0x78c>)
 800249a:	6053      	str	r3, [r2, #4]
 800249c:	4b68      	ldr	r3, [pc, #416]	; (8002640 <stm32__device___elabs+0x78c>)
 800249e:	f44f 5280 	mov.w	r2, #4096	; 0x1000
 80024a2:	811a      	strh	r2, [r3, #8]
 80024a4:	4b66      	ldr	r3, [pc, #408]	; (8002640 <stm32__device___elabs+0x78c>)
 80024a6:	4a5d      	ldr	r2, [pc, #372]	; (800261c <stm32__device___elabs+0x768>)
 80024a8:	601a      	str	r2, [r3, #0]
 80024aa:	4b5d      	ldr	r3, [pc, #372]	; (8002620 <stm32__device___elabs+0x76c>)
 80024ac:	681b      	ldr	r3, [r3, #0]
 80024ae:	4a65      	ldr	r2, [pc, #404]	; (8002644 <stm32__device___elabs+0x790>)
 80024b0:	6053      	str	r3, [r2, #4]
 80024b2:	4b64      	ldr	r3, [pc, #400]	; (8002644 <stm32__device___elabs+0x790>)
 80024b4:	f44f 5200 	mov.w	r2, #8192	; 0x2000
 80024b8:	811a      	strh	r2, [r3, #8]
 80024ba:	4b62      	ldr	r3, [pc, #392]	; (8002644 <stm32__device___elabs+0x790>)
 80024bc:	4a57      	ldr	r2, [pc, #348]	; (800261c <stm32__device___elabs+0x768>)
 80024be:	601a      	str	r2, [r3, #0]
 80024c0:	4b57      	ldr	r3, [pc, #348]	; (8002620 <stm32__device___elabs+0x76c>)
 80024c2:	681b      	ldr	r3, [r3, #0]
 80024c4:	4a60      	ldr	r2, [pc, #384]	; (8002648 <stm32__device___elabs+0x794>)
 80024c6:	6053      	str	r3, [r2, #4]
 80024c8:	4b5f      	ldr	r3, [pc, #380]	; (8002648 <stm32__device___elabs+0x794>)
 80024ca:	f44f 4280 	mov.w	r2, #16384	; 0x4000
 80024ce:	811a      	strh	r2, [r3, #8]
 80024d0:	4b5d      	ldr	r3, [pc, #372]	; (8002648 <stm32__device___elabs+0x794>)
 80024d2:	4a52      	ldr	r2, [pc, #328]	; (800261c <stm32__device___elabs+0x768>)
 80024d4:	601a      	str	r2, [r3, #0]
 80024d6:	4b52      	ldr	r3, [pc, #328]	; (8002620 <stm32__device___elabs+0x76c>)
 80024d8:	681b      	ldr	r3, [r3, #0]
 80024da:	4a5c      	ldr	r2, [pc, #368]	; (800264c <stm32__device___elabs+0x798>)
 80024dc:	6053      	str	r3, [r2, #4]
 80024de:	4b5b      	ldr	r3, [pc, #364]	; (800264c <stm32__device___elabs+0x798>)
 80024e0:	f44f 4200 	mov.w	r2, #32768	; 0x8000
 80024e4:	811a      	strh	r2, [r3, #8]
 80024e6:	4b59      	ldr	r3, [pc, #356]	; (800264c <stm32__device___elabs+0x798>)
 80024e8:	4a4c      	ldr	r2, [pc, #304]	; (800261c <stm32__device___elabs+0x768>)
 80024ea:	601a      	str	r2, [r3, #0]
 80024ec:	4b58      	ldr	r3, [pc, #352]	; (8002650 <stm32__device___elabs+0x79c>)
 80024ee:	681b      	ldr	r3, [r3, #0]
 80024f0:	4a58      	ldr	r2, [pc, #352]	; (8002654 <stm32__device___elabs+0x7a0>)
 80024f2:	6053      	str	r3, [r2, #4]
 80024f4:	4b57      	ldr	r3, [pc, #348]	; (8002654 <stm32__device___elabs+0x7a0>)
 80024f6:	2201      	movs	r2, #1
 80024f8:	811a      	strh	r2, [r3, #8]
 80024fa:	4b56      	ldr	r3, [pc, #344]	; (8002654 <stm32__device___elabs+0x7a0>)
 80024fc:	4a47      	ldr	r2, [pc, #284]	; (800261c <stm32__device___elabs+0x768>)
 80024fe:	601a      	str	r2, [r3, #0]
 8002500:	4b53      	ldr	r3, [pc, #332]	; (8002650 <stm32__device___elabs+0x79c>)
 8002502:	681b      	ldr	r3, [r3, #0]
 8002504:	4a54      	ldr	r2, [pc, #336]	; (8002658 <stm32__device___elabs+0x7a4>)
 8002506:	6053      	str	r3, [r2, #4]
 8002508:	4b53      	ldr	r3, [pc, #332]	; (8002658 <stm32__device___elabs+0x7a4>)
 800250a:	2202      	movs	r2, #2
 800250c:	811a      	strh	r2, [r3, #8]
 800250e:	4b52      	ldr	r3, [pc, #328]	; (8002658 <stm32__device___elabs+0x7a4>)
 8002510:	4a42      	ldr	r2, [pc, #264]	; (800261c <stm32__device___elabs+0x768>)
 8002512:	601a      	str	r2, [r3, #0]
 8002514:	4b4e      	ldr	r3, [pc, #312]	; (8002650 <stm32__device___elabs+0x79c>)
 8002516:	681b      	ldr	r3, [r3, #0]
 8002518:	4a50      	ldr	r2, [pc, #320]	; (800265c <stm32__device___elabs+0x7a8>)
 800251a:	6053      	str	r3, [r2, #4]
 800251c:	4b4f      	ldr	r3, [pc, #316]	; (800265c <stm32__device___elabs+0x7a8>)
 800251e:	2204      	movs	r2, #4
 8002520:	811a      	strh	r2, [r3, #8]
 8002522:	4b4e      	ldr	r3, [pc, #312]	; (800265c <stm32__device___elabs+0x7a8>)
 8002524:	4a3d      	ldr	r2, [pc, #244]	; (800261c <stm32__device___elabs+0x768>)
 8002526:	601a      	str	r2, [r3, #0]
 8002528:	4b49      	ldr	r3, [pc, #292]	; (8002650 <stm32__device___elabs+0x79c>)
 800252a:	681b      	ldr	r3, [r3, #0]
 800252c:	4a4c      	ldr	r2, [pc, #304]	; (8002660 <stm32__device___elabs+0x7ac>)
 800252e:	6053      	str	r3, [r2, #4]
 8002530:	4b4b      	ldr	r3, [pc, #300]	; (8002660 <stm32__device___elabs+0x7ac>)
 8002532:	2208      	movs	r2, #8
 8002534:	811a      	strh	r2, [r3, #8]
 8002536:	4b4a      	ldr	r3, [pc, #296]	; (8002660 <stm32__device___elabs+0x7ac>)
 8002538:	4a38      	ldr	r2, [pc, #224]	; (800261c <stm32__device___elabs+0x768>)
 800253a:	601a      	str	r2, [r3, #0]
 800253c:	4b44      	ldr	r3, [pc, #272]	; (8002650 <stm32__device___elabs+0x79c>)
 800253e:	681b      	ldr	r3, [r3, #0]
 8002540:	4a48      	ldr	r2, [pc, #288]	; (8002664 <stm32__device___elabs+0x7b0>)
 8002542:	6053      	str	r3, [r2, #4]
 8002544:	4b47      	ldr	r3, [pc, #284]	; (8002664 <stm32__device___elabs+0x7b0>)
 8002546:	2210      	movs	r2, #16
 8002548:	811a      	strh	r2, [r3, #8]
 800254a:	4b46      	ldr	r3, [pc, #280]	; (8002664 <stm32__device___elabs+0x7b0>)
 800254c:	4a33      	ldr	r2, [pc, #204]	; (800261c <stm32__device___elabs+0x768>)
 800254e:	601a      	str	r2, [r3, #0]
 8002550:	4b3f      	ldr	r3, [pc, #252]	; (8002650 <stm32__device___elabs+0x79c>)
 8002552:	681b      	ldr	r3, [r3, #0]
 8002554:	4a44      	ldr	r2, [pc, #272]	; (8002668 <stm32__device___elabs+0x7b4>)
 8002556:	6053      	str	r3, [r2, #4]
 8002558:	4b43      	ldr	r3, [pc, #268]	; (8002668 <stm32__device___elabs+0x7b4>)
 800255a:	2220      	movs	r2, #32
 800255c:	811a      	strh	r2, [r3, #8]
 800255e:	4b42      	ldr	r3, [pc, #264]	; (8002668 <stm32__device___elabs+0x7b4>)
 8002560:	4a2e      	ldr	r2, [pc, #184]	; (800261c <stm32__device___elabs+0x768>)
 8002562:	601a      	str	r2, [r3, #0]
 8002564:	4b3a      	ldr	r3, [pc, #232]	; (8002650 <stm32__device___elabs+0x79c>)
 8002566:	681b      	ldr	r3, [r3, #0]
 8002568:	4a40      	ldr	r2, [pc, #256]	; (800266c <stm32__device___elabs+0x7b8>)
 800256a:	6053      	str	r3, [r2, #4]
 800256c:	4b3f      	ldr	r3, [pc, #252]	; (800266c <stm32__device___elabs+0x7b8>)
 800256e:	2240      	movs	r2, #64	; 0x40
 8002570:	811a      	strh	r2, [r3, #8]
 8002572:	4b3e      	ldr	r3, [pc, #248]	; (800266c <stm32__device___elabs+0x7b8>)
 8002574:	4a29      	ldr	r2, [pc, #164]	; (800261c <stm32__device___elabs+0x768>)
 8002576:	601a      	str	r2, [r3, #0]
 8002578:	4b35      	ldr	r3, [pc, #212]	; (8002650 <stm32__device___elabs+0x79c>)
 800257a:	681b      	ldr	r3, [r3, #0]
 800257c:	4a3c      	ldr	r2, [pc, #240]	; (8002670 <stm32__device___elabs+0x7bc>)
 800257e:	6053      	str	r3, [r2, #4]
 8002580:	4b3b      	ldr	r3, [pc, #236]	; (8002670 <stm32__device___elabs+0x7bc>)
 8002582:	2280      	movs	r2, #128	; 0x80
 8002584:	811a      	strh	r2, [r3, #8]
 8002586:	4b3a      	ldr	r3, [pc, #232]	; (8002670 <stm32__device___elabs+0x7bc>)
 8002588:	4a24      	ldr	r2, [pc, #144]	; (800261c <stm32__device___elabs+0x768>)
 800258a:	601a      	str	r2, [r3, #0]
 800258c:	4b30      	ldr	r3, [pc, #192]	; (8002650 <stm32__device___elabs+0x79c>)
 800258e:	681b      	ldr	r3, [r3, #0]
 8002590:	4a38      	ldr	r2, [pc, #224]	; (8002674 <stm32__device___elabs+0x7c0>)
 8002592:	6053      	str	r3, [r2, #4]
 8002594:	4b37      	ldr	r3, [pc, #220]	; (8002674 <stm32__device___elabs+0x7c0>)
 8002596:	f44f 7280 	mov.w	r2, #256	; 0x100
 800259a:	811a      	strh	r2, [r3, #8]
 800259c:	4b35      	ldr	r3, [pc, #212]	; (8002674 <stm32__device___elabs+0x7c0>)
 800259e:	4a1f      	ldr	r2, [pc, #124]	; (800261c <stm32__device___elabs+0x768>)
 80025a0:	601a      	str	r2, [r3, #0]
 80025a2:	4b2b      	ldr	r3, [pc, #172]	; (8002650 <stm32__device___elabs+0x79c>)
 80025a4:	681b      	ldr	r3, [r3, #0]
 80025a6:	4a34      	ldr	r2, [pc, #208]	; (8002678 <stm32__device___elabs+0x7c4>)
 80025a8:	6053      	str	r3, [r2, #4]
 80025aa:	4b33      	ldr	r3, [pc, #204]	; (8002678 <stm32__device___elabs+0x7c4>)
 80025ac:	f44f 7200 	mov.w	r2, #512	; 0x200
 80025b0:	811a      	strh	r2, [r3, #8]
 80025b2:	4b31      	ldr	r3, [pc, #196]	; (8002678 <stm32__device___elabs+0x7c4>)
 80025b4:	4a19      	ldr	r2, [pc, #100]	; (800261c <stm32__device___elabs+0x768>)
 80025b6:	601a      	str	r2, [r3, #0]
 80025b8:	4b25      	ldr	r3, [pc, #148]	; (8002650 <stm32__device___elabs+0x79c>)
 80025ba:	681b      	ldr	r3, [r3, #0]
 80025bc:	4a2f      	ldr	r2, [pc, #188]	; (800267c <stm32__device___elabs+0x7c8>)
 80025be:	6053      	str	r3, [r2, #4]
 80025c0:	4b2e      	ldr	r3, [pc, #184]	; (800267c <stm32__device___elabs+0x7c8>)
 80025c2:	f44f 6280 	mov.w	r2, #1024	; 0x400
 80025c6:	811a      	strh	r2, [r3, #8]
 80025c8:	4b2c      	ldr	r3, [pc, #176]	; (800267c <stm32__device___elabs+0x7c8>)
 80025ca:	4a14      	ldr	r2, [pc, #80]	; (800261c <stm32__device___elabs+0x768>)
 80025cc:	601a      	str	r2, [r3, #0]
 80025ce:	4b20      	ldr	r3, [pc, #128]	; (8002650 <stm32__device___elabs+0x79c>)
 80025d0:	681b      	ldr	r3, [r3, #0]
 80025d2:	4a2b      	ldr	r2, [pc, #172]	; (8002680 <stm32__device___elabs+0x7cc>)
 80025d4:	6053      	str	r3, [r2, #4]
 80025d6:	4b2a      	ldr	r3, [pc, #168]	; (8002680 <stm32__device___elabs+0x7cc>)
 80025d8:	f44f 6200 	mov.w	r2, #2048	; 0x800
 80025dc:	811a      	strh	r2, [r3, #8]
 80025de:	4b28      	ldr	r3, [pc, #160]	; (8002680 <stm32__device___elabs+0x7cc>)
 80025e0:	4a0e      	ldr	r2, [pc, #56]	; (800261c <stm32__device___elabs+0x768>)
 80025e2:	601a      	str	r2, [r3, #0]
 80025e4:	4b1a      	ldr	r3, [pc, #104]	; (8002650 <stm32__device___elabs+0x79c>)
 80025e6:	681b      	ldr	r3, [r3, #0]
 80025e8:	4a26      	ldr	r2, [pc, #152]	; (8002684 <stm32__device___elabs+0x7d0>)
 80025ea:	6053      	str	r3, [r2, #4]
 80025ec:	4b25      	ldr	r3, [pc, #148]	; (8002684 <stm32__device___elabs+0x7d0>)
 80025ee:	f44f 5280 	mov.w	r2, #4096	; 0x1000
 80025f2:	811a      	strh	r2, [r3, #8]
 80025f4:	4b23      	ldr	r3, [pc, #140]	; (8002684 <stm32__device___elabs+0x7d0>)
 80025f6:	4a09      	ldr	r2, [pc, #36]	; (800261c <stm32__device___elabs+0x768>)
 80025f8:	601a      	str	r2, [r3, #0]
 80025fa:	4b15      	ldr	r3, [pc, #84]	; (8002650 <stm32__device___elabs+0x79c>)
 80025fc:	681b      	ldr	r3, [r3, #0]
 80025fe:	4a22      	ldr	r2, [pc, #136]	; (8002688 <stm32__device___elabs+0x7d4>)
 8002600:	6053      	str	r3, [r2, #4]
 8002602:	4b21      	ldr	r3, [pc, #132]	; (8002688 <stm32__device___elabs+0x7d4>)
 8002604:	f44f 5200 	mov.w	r2, #8192	; 0x2000
 8002608:	811a      	strh	r2, [r3, #8]
 800260a:	4b1f      	ldr	r3, [pc, #124]	; (8002688 <stm32__device___elabs+0x7d4>)
 800260c:	4a03      	ldr	r2, [pc, #12]	; (800261c <stm32__device___elabs+0x768>)
 800260e:	601a      	str	r2, [r3, #0]
 8002610:	4b0f      	ldr	r3, [pc, #60]	; (8002650 <stm32__device___elabs+0x79c>)
 8002612:	681b      	ldr	r3, [r3, #0]
 8002614:	e03a      	b.n	800268c <stm32__device___elabs+0x7d8>
 8002616:	bf00      	nop
 8002618:	20000350 	.word	0x20000350
 800261c:	0800b614 	.word	0x0800b614
 8002620:	20000024 	.word	0x20000024
 8002624:	2000035c 	.word	0x2000035c
 8002628:	20000368 	.word	0x20000368
 800262c:	20000374 	.word	0x20000374
 8002630:	20000380 	.word	0x20000380
 8002634:	2000038c 	.word	0x2000038c
 8002638:	20000398 	.word	0x20000398
 800263c:	200003a4 	.word	0x200003a4
 8002640:	200003b0 	.word	0x200003b0
 8002644:	200003bc 	.word	0x200003bc
 8002648:	200003c8 	.word	0x200003c8
 800264c:	200003d4 	.word	0x200003d4
 8002650:	20000028 	.word	0x20000028
 8002654:	200003e0 	.word	0x200003e0
 8002658:	200003ec 	.word	0x200003ec
 800265c:	200003f8 	.word	0x200003f8
 8002660:	20000404 	.word	0x20000404
 8002664:	20000410 	.word	0x20000410
 8002668:	2000041c 	.word	0x2000041c
 800266c:	20000428 	.word	0x20000428
 8002670:	20000434 	.word	0x20000434
 8002674:	20000440 	.word	0x20000440
 8002678:	2000044c 	.word	0x2000044c
 800267c:	20000458 	.word	0x20000458
 8002680:	20000464 	.word	0x20000464
 8002684:	20000470 	.word	0x20000470
 8002688:	2000047c 	.word	0x2000047c
 800268c:	4a88      	ldr	r2, [pc, #544]	; (80028b0 <stm32__device___elabs+0x9fc>)
 800268e:	6053      	str	r3, [r2, #4]
 8002690:	4b87      	ldr	r3, [pc, #540]	; (80028b0 <stm32__device___elabs+0x9fc>)
 8002692:	f44f 4280 	mov.w	r2, #16384	; 0x4000
 8002696:	811a      	strh	r2, [r3, #8]
 8002698:	4b85      	ldr	r3, [pc, #532]	; (80028b0 <stm32__device___elabs+0x9fc>)
 800269a:	4a86      	ldr	r2, [pc, #536]	; (80028b4 <stm32__device___elabs+0xa00>)
 800269c:	601a      	str	r2, [r3, #0]
 800269e:	4b86      	ldr	r3, [pc, #536]	; (80028b8 <stm32__device___elabs+0xa04>)
 80026a0:	681b      	ldr	r3, [r3, #0]
 80026a2:	4a86      	ldr	r2, [pc, #536]	; (80028bc <stm32__device___elabs+0xa08>)
 80026a4:	6053      	str	r3, [r2, #4]
 80026a6:	4b85      	ldr	r3, [pc, #532]	; (80028bc <stm32__device___elabs+0xa08>)
 80026a8:	f44f 4200 	mov.w	r2, #32768	; 0x8000
 80026ac:	811a      	strh	r2, [r3, #8]
 80026ae:	4b83      	ldr	r3, [pc, #524]	; (80028bc <stm32__device___elabs+0xa08>)
 80026b0:	4a80      	ldr	r2, [pc, #512]	; (80028b4 <stm32__device___elabs+0xa00>)
 80026b2:	601a      	str	r2, [r3, #0]
 80026b4:	4b82      	ldr	r3, [pc, #520]	; (80028c0 <stm32__device___elabs+0xa0c>)
 80026b6:	681b      	ldr	r3, [r3, #0]
 80026b8:	4a82      	ldr	r2, [pc, #520]	; (80028c4 <stm32__device___elabs+0xa10>)
 80026ba:	6053      	str	r3, [r2, #4]
 80026bc:	4b81      	ldr	r3, [pc, #516]	; (80028c4 <stm32__device___elabs+0xa10>)
 80026be:	2201      	movs	r2, #1
 80026c0:	811a      	strh	r2, [r3, #8]
 80026c2:	4b80      	ldr	r3, [pc, #512]	; (80028c4 <stm32__device___elabs+0xa10>)
 80026c4:	4a7b      	ldr	r2, [pc, #492]	; (80028b4 <stm32__device___elabs+0xa00>)
 80026c6:	601a      	str	r2, [r3, #0]
 80026c8:	4b7d      	ldr	r3, [pc, #500]	; (80028c0 <stm32__device___elabs+0xa0c>)
 80026ca:	681b      	ldr	r3, [r3, #0]
 80026cc:	4a7e      	ldr	r2, [pc, #504]	; (80028c8 <stm32__device___elabs+0xa14>)
 80026ce:	6053      	str	r3, [r2, #4]
 80026d0:	4b7d      	ldr	r3, [pc, #500]	; (80028c8 <stm32__device___elabs+0xa14>)
 80026d2:	2202      	movs	r2, #2
 80026d4:	811a      	strh	r2, [r3, #8]
 80026d6:	4b7c      	ldr	r3, [pc, #496]	; (80028c8 <stm32__device___elabs+0xa14>)
 80026d8:	4a76      	ldr	r2, [pc, #472]	; (80028b4 <stm32__device___elabs+0xa00>)
 80026da:	601a      	str	r2, [r3, #0]
 80026dc:	4b78      	ldr	r3, [pc, #480]	; (80028c0 <stm32__device___elabs+0xa0c>)
 80026de:	681b      	ldr	r3, [r3, #0]
 80026e0:	4a7a      	ldr	r2, [pc, #488]	; (80028cc <stm32__device___elabs+0xa18>)
 80026e2:	6053      	str	r3, [r2, #4]
 80026e4:	4b79      	ldr	r3, [pc, #484]	; (80028cc <stm32__device___elabs+0xa18>)
 80026e6:	2204      	movs	r2, #4
 80026e8:	811a      	strh	r2, [r3, #8]
 80026ea:	4b78      	ldr	r3, [pc, #480]	; (80028cc <stm32__device___elabs+0xa18>)
 80026ec:	4a71      	ldr	r2, [pc, #452]	; (80028b4 <stm32__device___elabs+0xa00>)
 80026ee:	601a      	str	r2, [r3, #0]
 80026f0:	4b73      	ldr	r3, [pc, #460]	; (80028c0 <stm32__device___elabs+0xa0c>)
 80026f2:	681b      	ldr	r3, [r3, #0]
 80026f4:	4a76      	ldr	r2, [pc, #472]	; (80028d0 <stm32__device___elabs+0xa1c>)
 80026f6:	6053      	str	r3, [r2, #4]
 80026f8:	4b75      	ldr	r3, [pc, #468]	; (80028d0 <stm32__device___elabs+0xa1c>)
 80026fa:	2208      	movs	r2, #8
 80026fc:	811a      	strh	r2, [r3, #8]
 80026fe:	4b74      	ldr	r3, [pc, #464]	; (80028d0 <stm32__device___elabs+0xa1c>)
 8002700:	4a6c      	ldr	r2, [pc, #432]	; (80028b4 <stm32__device___elabs+0xa00>)
 8002702:	601a      	str	r2, [r3, #0]
 8002704:	4b6e      	ldr	r3, [pc, #440]	; (80028c0 <stm32__device___elabs+0xa0c>)
 8002706:	681b      	ldr	r3, [r3, #0]
 8002708:	4a72      	ldr	r2, [pc, #456]	; (80028d4 <stm32__device___elabs+0xa20>)
 800270a:	6053      	str	r3, [r2, #4]
 800270c:	4b71      	ldr	r3, [pc, #452]	; (80028d4 <stm32__device___elabs+0xa20>)
 800270e:	2210      	movs	r2, #16
 8002710:	811a      	strh	r2, [r3, #8]
 8002712:	4b70      	ldr	r3, [pc, #448]	; (80028d4 <stm32__device___elabs+0xa20>)
 8002714:	4a67      	ldr	r2, [pc, #412]	; (80028b4 <stm32__device___elabs+0xa00>)
 8002716:	601a      	str	r2, [r3, #0]
 8002718:	4b69      	ldr	r3, [pc, #420]	; (80028c0 <stm32__device___elabs+0xa0c>)
 800271a:	681b      	ldr	r3, [r3, #0]
 800271c:	4a6e      	ldr	r2, [pc, #440]	; (80028d8 <stm32__device___elabs+0xa24>)
 800271e:	6053      	str	r3, [r2, #4]
 8002720:	4b6d      	ldr	r3, [pc, #436]	; (80028d8 <stm32__device___elabs+0xa24>)
 8002722:	2220      	movs	r2, #32
 8002724:	811a      	strh	r2, [r3, #8]
 8002726:	4b6c      	ldr	r3, [pc, #432]	; (80028d8 <stm32__device___elabs+0xa24>)
 8002728:	4a62      	ldr	r2, [pc, #392]	; (80028b4 <stm32__device___elabs+0xa00>)
 800272a:	601a      	str	r2, [r3, #0]
 800272c:	4b64      	ldr	r3, [pc, #400]	; (80028c0 <stm32__device___elabs+0xa0c>)
 800272e:	681b      	ldr	r3, [r3, #0]
 8002730:	4a6a      	ldr	r2, [pc, #424]	; (80028dc <stm32__device___elabs+0xa28>)
 8002732:	6053      	str	r3, [r2, #4]
 8002734:	4b69      	ldr	r3, [pc, #420]	; (80028dc <stm32__device___elabs+0xa28>)
 8002736:	2240      	movs	r2, #64	; 0x40
 8002738:	811a      	strh	r2, [r3, #8]
 800273a:	4b68      	ldr	r3, [pc, #416]	; (80028dc <stm32__device___elabs+0xa28>)
 800273c:	4a5d      	ldr	r2, [pc, #372]	; (80028b4 <stm32__device___elabs+0xa00>)
 800273e:	601a      	str	r2, [r3, #0]
 8002740:	4b5f      	ldr	r3, [pc, #380]	; (80028c0 <stm32__device___elabs+0xa0c>)
 8002742:	681b      	ldr	r3, [r3, #0]
 8002744:	4a66      	ldr	r2, [pc, #408]	; (80028e0 <stm32__device___elabs+0xa2c>)
 8002746:	6053      	str	r3, [r2, #4]
 8002748:	4b65      	ldr	r3, [pc, #404]	; (80028e0 <stm32__device___elabs+0xa2c>)
 800274a:	2280      	movs	r2, #128	; 0x80
 800274c:	811a      	strh	r2, [r3, #8]
 800274e:	4b64      	ldr	r3, [pc, #400]	; (80028e0 <stm32__device___elabs+0xa2c>)
 8002750:	4a58      	ldr	r2, [pc, #352]	; (80028b4 <stm32__device___elabs+0xa00>)
 8002752:	601a      	str	r2, [r3, #0]
 8002754:	4b5a      	ldr	r3, [pc, #360]	; (80028c0 <stm32__device___elabs+0xa0c>)
 8002756:	681b      	ldr	r3, [r3, #0]
 8002758:	4a62      	ldr	r2, [pc, #392]	; (80028e4 <stm32__device___elabs+0xa30>)
 800275a:	6053      	str	r3, [r2, #4]
 800275c:	4b61      	ldr	r3, [pc, #388]	; (80028e4 <stm32__device___elabs+0xa30>)
 800275e:	f44f 7280 	mov.w	r2, #256	; 0x100
 8002762:	811a      	strh	r2, [r3, #8]
 8002764:	4b5f      	ldr	r3, [pc, #380]	; (80028e4 <stm32__device___elabs+0xa30>)
 8002766:	4a53      	ldr	r2, [pc, #332]	; (80028b4 <stm32__device___elabs+0xa00>)
 8002768:	601a      	str	r2, [r3, #0]
 800276a:	4b55      	ldr	r3, [pc, #340]	; (80028c0 <stm32__device___elabs+0xa0c>)
 800276c:	681b      	ldr	r3, [r3, #0]
 800276e:	4a5e      	ldr	r2, [pc, #376]	; (80028e8 <stm32__device___elabs+0xa34>)
 8002770:	6053      	str	r3, [r2, #4]
 8002772:	4b5d      	ldr	r3, [pc, #372]	; (80028e8 <stm32__device___elabs+0xa34>)
 8002774:	f44f 7200 	mov.w	r2, #512	; 0x200
 8002778:	811a      	strh	r2, [r3, #8]
 800277a:	4b5b      	ldr	r3, [pc, #364]	; (80028e8 <stm32__device___elabs+0xa34>)
 800277c:	4a4d      	ldr	r2, [pc, #308]	; (80028b4 <stm32__device___elabs+0xa00>)
 800277e:	601a      	str	r2, [r3, #0]
 8002780:	4b4f      	ldr	r3, [pc, #316]	; (80028c0 <stm32__device___elabs+0xa0c>)
 8002782:	681b      	ldr	r3, [r3, #0]
 8002784:	4a59      	ldr	r2, [pc, #356]	; (80028ec <stm32__device___elabs+0xa38>)
 8002786:	6053      	str	r3, [r2, #4]
 8002788:	4b58      	ldr	r3, [pc, #352]	; (80028ec <stm32__device___elabs+0xa38>)
 800278a:	f44f 6280 	mov.w	r2, #1024	; 0x400
 800278e:	811a      	strh	r2, [r3, #8]
 8002790:	4b56      	ldr	r3, [pc, #344]	; (80028ec <stm32__device___elabs+0xa38>)
 8002792:	4a48      	ldr	r2, [pc, #288]	; (80028b4 <stm32__device___elabs+0xa00>)
 8002794:	601a      	str	r2, [r3, #0]
 8002796:	4b4a      	ldr	r3, [pc, #296]	; (80028c0 <stm32__device___elabs+0xa0c>)
 8002798:	681b      	ldr	r3, [r3, #0]
 800279a:	4a55      	ldr	r2, [pc, #340]	; (80028f0 <stm32__device___elabs+0xa3c>)
 800279c:	6053      	str	r3, [r2, #4]
 800279e:	4b54      	ldr	r3, [pc, #336]	; (80028f0 <stm32__device___elabs+0xa3c>)
 80027a0:	f44f 6200 	mov.w	r2, #2048	; 0x800
 80027a4:	811a      	strh	r2, [r3, #8]
 80027a6:	4b52      	ldr	r3, [pc, #328]	; (80028f0 <stm32__device___elabs+0xa3c>)
 80027a8:	4a42      	ldr	r2, [pc, #264]	; (80028b4 <stm32__device___elabs+0xa00>)
 80027aa:	601a      	str	r2, [r3, #0]
 80027ac:	4b44      	ldr	r3, [pc, #272]	; (80028c0 <stm32__device___elabs+0xa0c>)
 80027ae:	681b      	ldr	r3, [r3, #0]
 80027b0:	4a50      	ldr	r2, [pc, #320]	; (80028f4 <stm32__device___elabs+0xa40>)
 80027b2:	6053      	str	r3, [r2, #4]
 80027b4:	4b4f      	ldr	r3, [pc, #316]	; (80028f4 <stm32__device___elabs+0xa40>)
 80027b6:	f44f 5280 	mov.w	r2, #4096	; 0x1000
 80027ba:	811a      	strh	r2, [r3, #8]
 80027bc:	4b4d      	ldr	r3, [pc, #308]	; (80028f4 <stm32__device___elabs+0xa40>)
 80027be:	4a3d      	ldr	r2, [pc, #244]	; (80028b4 <stm32__device___elabs+0xa00>)
 80027c0:	601a      	str	r2, [r3, #0]
 80027c2:	4b3f      	ldr	r3, [pc, #252]	; (80028c0 <stm32__device___elabs+0xa0c>)
 80027c4:	681b      	ldr	r3, [r3, #0]
 80027c6:	4a4c      	ldr	r2, [pc, #304]	; (80028f8 <stm32__device___elabs+0xa44>)
 80027c8:	6053      	str	r3, [r2, #4]
 80027ca:	4b4b      	ldr	r3, [pc, #300]	; (80028f8 <stm32__device___elabs+0xa44>)
 80027cc:	f44f 5200 	mov.w	r2, #8192	; 0x2000
 80027d0:	811a      	strh	r2, [r3, #8]
 80027d2:	4b49      	ldr	r3, [pc, #292]	; (80028f8 <stm32__device___elabs+0xa44>)
 80027d4:	4a37      	ldr	r2, [pc, #220]	; (80028b4 <stm32__device___elabs+0xa00>)
 80027d6:	601a      	str	r2, [r3, #0]
 80027d8:	4b39      	ldr	r3, [pc, #228]	; (80028c0 <stm32__device___elabs+0xa0c>)
 80027da:	681b      	ldr	r3, [r3, #0]
 80027dc:	4a47      	ldr	r2, [pc, #284]	; (80028fc <stm32__device___elabs+0xa48>)
 80027de:	6053      	str	r3, [r2, #4]
 80027e0:	4b46      	ldr	r3, [pc, #280]	; (80028fc <stm32__device___elabs+0xa48>)
 80027e2:	f44f 4280 	mov.w	r2, #16384	; 0x4000
 80027e6:	811a      	strh	r2, [r3, #8]
 80027e8:	4b44      	ldr	r3, [pc, #272]	; (80028fc <stm32__device___elabs+0xa48>)
 80027ea:	4a32      	ldr	r2, [pc, #200]	; (80028b4 <stm32__device___elabs+0xa00>)
 80027ec:	601a      	str	r2, [r3, #0]
 80027ee:	4b34      	ldr	r3, [pc, #208]	; (80028c0 <stm32__device___elabs+0xa0c>)
 80027f0:	681b      	ldr	r3, [r3, #0]
 80027f2:	4a43      	ldr	r2, [pc, #268]	; (8002900 <stm32__device___elabs+0xa4c>)
 80027f4:	6053      	str	r3, [r2, #4]
 80027f6:	4b42      	ldr	r3, [pc, #264]	; (8002900 <stm32__device___elabs+0xa4c>)
 80027f8:	f44f 4200 	mov.w	r2, #32768	; 0x8000
 80027fc:	811a      	strh	r2, [r3, #8]
 80027fe:	4b40      	ldr	r3, [pc, #256]	; (8002900 <stm32__device___elabs+0xa4c>)
 8002800:	4a2c      	ldr	r2, [pc, #176]	; (80028b4 <stm32__device___elabs+0xa00>)
 8002802:	601a      	str	r2, [r3, #0]
 8002804:	4b3f      	ldr	r3, [pc, #252]	; (8002904 <stm32__device___elabs+0xa50>)
 8002806:	681b      	ldr	r3, [r3, #0]
 8002808:	4a3f      	ldr	r2, [pc, #252]	; (8002908 <stm32__device___elabs+0xa54>)
 800280a:	6053      	str	r3, [r2, #4]
 800280c:	4b3e      	ldr	r3, [pc, #248]	; (8002908 <stm32__device___elabs+0xa54>)
 800280e:	2201      	movs	r2, #1
 8002810:	811a      	strh	r2, [r3, #8]
 8002812:	4b3d      	ldr	r3, [pc, #244]	; (8002908 <stm32__device___elabs+0xa54>)
 8002814:	4a27      	ldr	r2, [pc, #156]	; (80028b4 <stm32__device___elabs+0xa00>)
 8002816:	601a      	str	r2, [r3, #0]
 8002818:	4b3a      	ldr	r3, [pc, #232]	; (8002904 <stm32__device___elabs+0xa50>)
 800281a:	681b      	ldr	r3, [r3, #0]
 800281c:	4a3b      	ldr	r2, [pc, #236]	; (800290c <stm32__device___elabs+0xa58>)
 800281e:	6053      	str	r3, [r2, #4]
 8002820:	4b3a      	ldr	r3, [pc, #232]	; (800290c <stm32__device___elabs+0xa58>)
 8002822:	2202      	movs	r2, #2
 8002824:	811a      	strh	r2, [r3, #8]
 8002826:	4b39      	ldr	r3, [pc, #228]	; (800290c <stm32__device___elabs+0xa58>)
 8002828:	4a22      	ldr	r2, [pc, #136]	; (80028b4 <stm32__device___elabs+0xa00>)
 800282a:	601a      	str	r2, [r3, #0]
 800282c:	4b35      	ldr	r3, [pc, #212]	; (8002904 <stm32__device___elabs+0xa50>)
 800282e:	681b      	ldr	r3, [r3, #0]
 8002830:	4a37      	ldr	r2, [pc, #220]	; (8002910 <stm32__device___elabs+0xa5c>)
 8002832:	6053      	str	r3, [r2, #4]
 8002834:	4b36      	ldr	r3, [pc, #216]	; (8002910 <stm32__device___elabs+0xa5c>)
 8002836:	2204      	movs	r2, #4
 8002838:	811a      	strh	r2, [r3, #8]
 800283a:	4b35      	ldr	r3, [pc, #212]	; (8002910 <stm32__device___elabs+0xa5c>)
 800283c:	4a1d      	ldr	r2, [pc, #116]	; (80028b4 <stm32__device___elabs+0xa00>)
 800283e:	601a      	str	r2, [r3, #0]
 8002840:	4b30      	ldr	r3, [pc, #192]	; (8002904 <stm32__device___elabs+0xa50>)
 8002842:	681b      	ldr	r3, [r3, #0]
 8002844:	4a33      	ldr	r2, [pc, #204]	; (8002914 <stm32__device___elabs+0xa60>)
 8002846:	6053      	str	r3, [r2, #4]
 8002848:	4b32      	ldr	r3, [pc, #200]	; (8002914 <stm32__device___elabs+0xa60>)
 800284a:	2208      	movs	r2, #8
 800284c:	811a      	strh	r2, [r3, #8]
 800284e:	4b31      	ldr	r3, [pc, #196]	; (8002914 <stm32__device___elabs+0xa60>)
 8002850:	4a18      	ldr	r2, [pc, #96]	; (80028b4 <stm32__device___elabs+0xa00>)
 8002852:	601a      	str	r2, [r3, #0]
 8002854:	4b2b      	ldr	r3, [pc, #172]	; (8002904 <stm32__device___elabs+0xa50>)
 8002856:	681b      	ldr	r3, [r3, #0]
 8002858:	4a2f      	ldr	r2, [pc, #188]	; (8002918 <stm32__device___elabs+0xa64>)
 800285a:	6053      	str	r3, [r2, #4]
 800285c:	4b2e      	ldr	r3, [pc, #184]	; (8002918 <stm32__device___elabs+0xa64>)
 800285e:	2210      	movs	r2, #16
 8002860:	811a      	strh	r2, [r3, #8]
 8002862:	4b2d      	ldr	r3, [pc, #180]	; (8002918 <stm32__device___elabs+0xa64>)
 8002864:	4a13      	ldr	r2, [pc, #76]	; (80028b4 <stm32__device___elabs+0xa00>)
 8002866:	601a      	str	r2, [r3, #0]
 8002868:	4b26      	ldr	r3, [pc, #152]	; (8002904 <stm32__device___elabs+0xa50>)
 800286a:	681b      	ldr	r3, [r3, #0]
 800286c:	4a2b      	ldr	r2, [pc, #172]	; (800291c <stm32__device___elabs+0xa68>)
 800286e:	6053      	str	r3, [r2, #4]
 8002870:	4b2a      	ldr	r3, [pc, #168]	; (800291c <stm32__device___elabs+0xa68>)
 8002872:	2220      	movs	r2, #32
 8002874:	811a      	strh	r2, [r3, #8]
 8002876:	4b29      	ldr	r3, [pc, #164]	; (800291c <stm32__device___elabs+0xa68>)
 8002878:	4a0e      	ldr	r2, [pc, #56]	; (80028b4 <stm32__device___elabs+0xa00>)
 800287a:	601a      	str	r2, [r3, #0]
 800287c:	4b21      	ldr	r3, [pc, #132]	; (8002904 <stm32__device___elabs+0xa50>)
 800287e:	681b      	ldr	r3, [r3, #0]
 8002880:	4a27      	ldr	r2, [pc, #156]	; (8002920 <stm32__device___elabs+0xa6c>)
 8002882:	6053      	str	r3, [r2, #4]
 8002884:	4b26      	ldr	r3, [pc, #152]	; (8002920 <stm32__device___elabs+0xa6c>)
 8002886:	2240      	movs	r2, #64	; 0x40
 8002888:	811a      	strh	r2, [r3, #8]
 800288a:	4b25      	ldr	r3, [pc, #148]	; (8002920 <stm32__device___elabs+0xa6c>)
 800288c:	4a09      	ldr	r2, [pc, #36]	; (80028b4 <stm32__device___elabs+0xa00>)
 800288e:	601a      	str	r2, [r3, #0]
 8002890:	4b1c      	ldr	r3, [pc, #112]	; (8002904 <stm32__device___elabs+0xa50>)
 8002892:	681b      	ldr	r3, [r3, #0]
 8002894:	4a23      	ldr	r2, [pc, #140]	; (8002924 <stm32__device___elabs+0xa70>)
 8002896:	6053      	str	r3, [r2, #4]
 8002898:	4b22      	ldr	r3, [pc, #136]	; (8002924 <stm32__device___elabs+0xa70>)
 800289a:	2280      	movs	r2, #128	; 0x80
 800289c:	811a      	strh	r2, [r3, #8]
 800289e:	4b21      	ldr	r3, [pc, #132]	; (8002924 <stm32__device___elabs+0xa70>)
 80028a0:	4a04      	ldr	r2, [pc, #16]	; (80028b4 <stm32__device___elabs+0xa00>)
 80028a2:	601a      	str	r2, [r3, #0]
 80028a4:	4b17      	ldr	r3, [pc, #92]	; (8002904 <stm32__device___elabs+0xa50>)
 80028a6:	681b      	ldr	r3, [r3, #0]
 80028a8:	4a1f      	ldr	r2, [pc, #124]	; (8002928 <stm32__device___elabs+0xa74>)
 80028aa:	6053      	str	r3, [r2, #4]
 80028ac:	e03e      	b.n	800292c <stm32__device___elabs+0xa78>
 80028ae:	bf00      	nop
 80028b0:	20000488 	.word	0x20000488
 80028b4:	0800b614 	.word	0x0800b614
 80028b8:	20000028 	.word	0x20000028
 80028bc:	20000494 	.word	0x20000494
 80028c0:	2000002c 	.word	0x2000002c
 80028c4:	200004a0 	.word	0x200004a0
 80028c8:	200004ac 	.word	0x200004ac
 80028cc:	200004b8 	.word	0x200004b8
 80028d0:	200004c4 	.word	0x200004c4
 80028d4:	200004d0 	.word	0x200004d0
 80028d8:	200004dc 	.word	0x200004dc
 80028dc:	200004e8 	.word	0x200004e8
 80028e0:	200004f4 	.word	0x200004f4
 80028e4:	20000500 	.word	0x20000500
 80028e8:	2000050c 	.word	0x2000050c
 80028ec:	20000518 	.word	0x20000518
 80028f0:	20000524 	.word	0x20000524
 80028f4:	20000530 	.word	0x20000530
 80028f8:	2000053c 	.word	0x2000053c
 80028fc:	20000548 	.word	0x20000548
 8002900:	20000554 	.word	0x20000554
 8002904:	20000030 	.word	0x20000030
 8002908:	20000560 	.word	0x20000560
 800290c:	2000056c 	.word	0x2000056c
 8002910:	20000578 	.word	0x20000578
 8002914:	20000584 	.word	0x20000584
 8002918:	20000590 	.word	0x20000590
 800291c:	2000059c 	.word	0x2000059c
 8002920:	200005a8 	.word	0x200005a8
 8002924:	200005b4 	.word	0x200005b4
 8002928:	200005c0 	.word	0x200005c0
 800292c:	4b57      	ldr	r3, [pc, #348]	; (8002a8c <stm32__device___elabs+0xbd8>)
 800292e:	f44f 7280 	mov.w	r2, #256	; 0x100
 8002932:	811a      	strh	r2, [r3, #8]
 8002934:	4b55      	ldr	r3, [pc, #340]	; (8002a8c <stm32__device___elabs+0xbd8>)
 8002936:	4a56      	ldr	r2, [pc, #344]	; (8002a90 <stm32__device___elabs+0xbdc>)
 8002938:	601a      	str	r2, [r3, #0]
 800293a:	4b56      	ldr	r3, [pc, #344]	; (8002a94 <stm32__device___elabs+0xbe0>)
 800293c:	681b      	ldr	r3, [r3, #0]
 800293e:	4a56      	ldr	r2, [pc, #344]	; (8002a98 <stm32__device___elabs+0xbe4>)
 8002940:	6053      	str	r3, [r2, #4]
 8002942:	4b55      	ldr	r3, [pc, #340]	; (8002a98 <stm32__device___elabs+0xbe4>)
 8002944:	f44f 7200 	mov.w	r2, #512	; 0x200
 8002948:	811a      	strh	r2, [r3, #8]
 800294a:	4b53      	ldr	r3, [pc, #332]	; (8002a98 <stm32__device___elabs+0xbe4>)
 800294c:	4a50      	ldr	r2, [pc, #320]	; (8002a90 <stm32__device___elabs+0xbdc>)
 800294e:	601a      	str	r2, [r3, #0]
 8002950:	4b50      	ldr	r3, [pc, #320]	; (8002a94 <stm32__device___elabs+0xbe0>)
 8002952:	681b      	ldr	r3, [r3, #0]
 8002954:	4a51      	ldr	r2, [pc, #324]	; (8002a9c <stm32__device___elabs+0xbe8>)
 8002956:	6053      	str	r3, [r2, #4]
 8002958:	4b50      	ldr	r3, [pc, #320]	; (8002a9c <stm32__device___elabs+0xbe8>)
 800295a:	f44f 6280 	mov.w	r2, #1024	; 0x400
 800295e:	811a      	strh	r2, [r3, #8]
 8002960:	4b4e      	ldr	r3, [pc, #312]	; (8002a9c <stm32__device___elabs+0xbe8>)
 8002962:	4a4b      	ldr	r2, [pc, #300]	; (8002a90 <stm32__device___elabs+0xbdc>)
 8002964:	601a      	str	r2, [r3, #0]
 8002966:	4b4b      	ldr	r3, [pc, #300]	; (8002a94 <stm32__device___elabs+0xbe0>)
 8002968:	681b      	ldr	r3, [r3, #0]
 800296a:	4a4d      	ldr	r2, [pc, #308]	; (8002aa0 <stm32__device___elabs+0xbec>)
 800296c:	6053      	str	r3, [r2, #4]
 800296e:	4b4c      	ldr	r3, [pc, #304]	; (8002aa0 <stm32__device___elabs+0xbec>)
 8002970:	f44f 6200 	mov.w	r2, #2048	; 0x800
 8002974:	811a      	strh	r2, [r3, #8]
 8002976:	4b4a      	ldr	r3, [pc, #296]	; (8002aa0 <stm32__device___elabs+0xbec>)
 8002978:	4a45      	ldr	r2, [pc, #276]	; (8002a90 <stm32__device___elabs+0xbdc>)
 800297a:	601a      	str	r2, [r3, #0]
 800297c:	4b45      	ldr	r3, [pc, #276]	; (8002a94 <stm32__device___elabs+0xbe0>)
 800297e:	681b      	ldr	r3, [r3, #0]
 8002980:	4a48      	ldr	r2, [pc, #288]	; (8002aa4 <stm32__device___elabs+0xbf0>)
 8002982:	6053      	str	r3, [r2, #4]
 8002984:	4b47      	ldr	r3, [pc, #284]	; (8002aa4 <stm32__device___elabs+0xbf0>)
 8002986:	f44f 5280 	mov.w	r2, #4096	; 0x1000
 800298a:	811a      	strh	r2, [r3, #8]
 800298c:	4b45      	ldr	r3, [pc, #276]	; (8002aa4 <stm32__device___elabs+0xbf0>)
 800298e:	4a40      	ldr	r2, [pc, #256]	; (8002a90 <stm32__device___elabs+0xbdc>)
 8002990:	601a      	str	r2, [r3, #0]
 8002992:	4b40      	ldr	r3, [pc, #256]	; (8002a94 <stm32__device___elabs+0xbe0>)
 8002994:	681b      	ldr	r3, [r3, #0]
 8002996:	4a44      	ldr	r2, [pc, #272]	; (8002aa8 <stm32__device___elabs+0xbf4>)
 8002998:	6053      	str	r3, [r2, #4]
 800299a:	4b43      	ldr	r3, [pc, #268]	; (8002aa8 <stm32__device___elabs+0xbf4>)
 800299c:	f44f 5200 	mov.w	r2, #8192	; 0x2000
 80029a0:	811a      	strh	r2, [r3, #8]
 80029a2:	4b41      	ldr	r3, [pc, #260]	; (8002aa8 <stm32__device___elabs+0xbf4>)
 80029a4:	4a3a      	ldr	r2, [pc, #232]	; (8002a90 <stm32__device___elabs+0xbdc>)
 80029a6:	601a      	str	r2, [r3, #0]
 80029a8:	4b3a      	ldr	r3, [pc, #232]	; (8002a94 <stm32__device___elabs+0xbe0>)
 80029aa:	681b      	ldr	r3, [r3, #0]
 80029ac:	4a3f      	ldr	r2, [pc, #252]	; (8002aac <stm32__device___elabs+0xbf8>)
 80029ae:	6053      	str	r3, [r2, #4]
 80029b0:	4b3e      	ldr	r3, [pc, #248]	; (8002aac <stm32__device___elabs+0xbf8>)
 80029b2:	f44f 4280 	mov.w	r2, #16384	; 0x4000
 80029b6:	811a      	strh	r2, [r3, #8]
 80029b8:	4b3c      	ldr	r3, [pc, #240]	; (8002aac <stm32__device___elabs+0xbf8>)
 80029ba:	4a35      	ldr	r2, [pc, #212]	; (8002a90 <stm32__device___elabs+0xbdc>)
 80029bc:	601a      	str	r2, [r3, #0]
 80029be:	4b35      	ldr	r3, [pc, #212]	; (8002a94 <stm32__device___elabs+0xbe0>)
 80029c0:	681b      	ldr	r3, [r3, #0]
 80029c2:	4a3b      	ldr	r2, [pc, #236]	; (8002ab0 <stm32__device___elabs+0xbfc>)
 80029c4:	6053      	str	r3, [r2, #4]
 80029c6:	4b3a      	ldr	r3, [pc, #232]	; (8002ab0 <stm32__device___elabs+0xbfc>)
 80029c8:	f44f 4200 	mov.w	r2, #32768	; 0x8000
 80029cc:	811a      	strh	r2, [r3, #8]
 80029ce:	4b38      	ldr	r3, [pc, #224]	; (8002ab0 <stm32__device___elabs+0xbfc>)
 80029d0:	4a2f      	ldr	r2, [pc, #188]	; (8002a90 <stm32__device___elabs+0xbdc>)
 80029d2:	601a      	str	r2, [r3, #0]
 80029d4:	4b37      	ldr	r3, [pc, #220]	; (8002ab4 <stm32__device___elabs+0xc00>)
 80029d6:	681b      	ldr	r3, [r3, #0]
 80029d8:	4837      	ldr	r0, [pc, #220]	; (8002ab8 <stm32__device___elabs+0xc04>)
 80029da:	4619      	mov	r1, r3
 80029dc:	2201      	movs	r2, #1
 80029de:	f000 f89d 	bl	8002b1c <stm32__usarts__usartIP>
 80029e2:	4b36      	ldr	r3, [pc, #216]	; (8002abc <stm32__device___elabs+0xc08>)
 80029e4:	681b      	ldr	r3, [r3, #0]
 80029e6:	4836      	ldr	r0, [pc, #216]	; (8002ac0 <stm32__device___elabs+0xc0c>)
 80029e8:	4619      	mov	r1, r3
 80029ea:	2201      	movs	r2, #1
 80029ec:	f000 f896 	bl	8002b1c <stm32__usarts__usartIP>
 80029f0:	4b34      	ldr	r3, [pc, #208]	; (8002ac4 <stm32__device___elabs+0xc10>)
 80029f2:	681b      	ldr	r3, [r3, #0]
 80029f4:	4834      	ldr	r0, [pc, #208]	; (8002ac8 <stm32__device___elabs+0xc14>)
 80029f6:	4619      	mov	r1, r3
 80029f8:	2201      	movs	r2, #1
 80029fa:	f000 f88f 	bl	8002b1c <stm32__usarts__usartIP>
 80029fe:	4b33      	ldr	r3, [pc, #204]	; (8002acc <stm32__device___elabs+0xc18>)
 8002a00:	681b      	ldr	r3, [r3, #0]
 8002a02:	4833      	ldr	r0, [pc, #204]	; (8002ad0 <stm32__device___elabs+0xc1c>)
 8002a04:	4619      	mov	r1, r3
 8002a06:	2201      	movs	r2, #1
 8002a08:	f000 f888 	bl	8002b1c <stm32__usarts__usartIP>
 8002a0c:	4b31      	ldr	r3, [pc, #196]	; (8002ad4 <stm32__device___elabs+0xc20>)
 8002a0e:	681b      	ldr	r3, [r3, #0]
 8002a10:	4831      	ldr	r0, [pc, #196]	; (8002ad8 <stm32__device___elabs+0xc24>)
 8002a12:	4619      	mov	r1, r3
 8002a14:	2201      	movs	r2, #1
 8002a16:	f000 f881 	bl	8002b1c <stm32__usarts__usartIP>
 8002a1a:	4b30      	ldr	r3, [pc, #192]	; (8002adc <stm32__device___elabs+0xc28>)
 8002a1c:	681b      	ldr	r3, [r3, #0]
 8002a1e:	4830      	ldr	r0, [pc, #192]	; (8002ae0 <stm32__device___elabs+0xc2c>)
 8002a20:	4619      	mov	r1, r3
 8002a22:	2201      	movs	r2, #1
 8002a24:	f001 f928 	bl	8003c78 <stm32__i2c__i2c_portIP>
 8002a28:	4b2e      	ldr	r3, [pc, #184]	; (8002ae4 <stm32__device___elabs+0xc30>)
 8002a2a:	681b      	ldr	r3, [r3, #0]
 8002a2c:	482e      	ldr	r0, [pc, #184]	; (8002ae8 <stm32__device___elabs+0xc34>)
 8002a2e:	4619      	mov	r1, r3
 8002a30:	2201      	movs	r2, #1
 8002a32:	f001 f921 	bl	8003c78 <stm32__i2c__i2c_portIP>
 8002a36:	4b2d      	ldr	r3, [pc, #180]	; (8002aec <stm32__device___elabs+0xc38>)
 8002a38:	681b      	ldr	r3, [r3, #0]
 8002a3a:	482d      	ldr	r0, [pc, #180]	; (8002af0 <stm32__device___elabs+0xc3c>)
 8002a3c:	4619      	mov	r1, r3
 8002a3e:	2201      	movs	r2, #1
 8002a40:	f003 fe00 	bl	8006644 <stm32__spi__spi_portIP>
 8002a44:	4b2b      	ldr	r3, [pc, #172]	; (8002af4 <stm32__device___elabs+0xc40>)
 8002a46:	681b      	ldr	r3, [r3, #0]
 8002a48:	482b      	ldr	r0, [pc, #172]	; (8002af8 <stm32__device___elabs+0xc44>)
 8002a4a:	4619      	mov	r1, r3
 8002a4c:	2201      	movs	r2, #1
 8002a4e:	f003 fdf9 	bl	8006644 <stm32__spi__spi_portIP>
 8002a52:	4b2a      	ldr	r3, [pc, #168]	; (8002afc <stm32__device___elabs+0xc48>)
 8002a54:	681b      	ldr	r3, [r3, #0]
 8002a56:	482a      	ldr	r0, [pc, #168]	; (8002b00 <stm32__device___elabs+0xc4c>)
 8002a58:	4619      	mov	r1, r3
 8002a5a:	2201      	movs	r2, #1
 8002a5c:	f003 fdf2 	bl	8006644 <stm32__spi__spi_portIP>
 8002a60:	4b28      	ldr	r3, [pc, #160]	; (8002b04 <stm32__device___elabs+0xc50>)
 8002a62:	681b      	ldr	r3, [r3, #0]
 8002a64:	4828      	ldr	r0, [pc, #160]	; (8002b08 <stm32__device___elabs+0xc54>)
 8002a66:	4619      	mov	r1, r3
 8002a68:	2201      	movs	r2, #1
 8002a6a:	f005 fa27 	bl	8007ebc <stm32__i2s__i2s_portIP>
 8002a6e:	4b27      	ldr	r3, [pc, #156]	; (8002b0c <stm32__device___elabs+0xc58>)
 8002a70:	681b      	ldr	r3, [r3, #0]
 8002a72:	4827      	ldr	r0, [pc, #156]	; (8002b10 <stm32__device___elabs+0xc5c>)
 8002a74:	4619      	mov	r1, r3
 8002a76:	2201      	movs	r2, #1
 8002a78:	f005 fa20 	bl	8007ebc <stm32__i2s__i2s_portIP>
 8002a7c:	4b25      	ldr	r3, [pc, #148]	; (8002b14 <stm32__device___elabs+0xc60>)
 8002a7e:	681b      	ldr	r3, [r3, #0]
 8002a80:	4825      	ldr	r0, [pc, #148]	; (8002b18 <stm32__device___elabs+0xc64>)
 8002a82:	4619      	mov	r1, r3
 8002a84:	2201      	movs	r2, #1
 8002a86:	f005 fa19 	bl	8007ebc <stm32__i2s__i2s_portIP>
 8002a8a:	bd80      	pop	{r7, pc}
 8002a8c:	200005c0 	.word	0x200005c0
 8002a90:	0800b614 	.word	0x0800b614
 8002a94:	20000030 	.word	0x20000030
 8002a98:	200005cc 	.word	0x200005cc
 8002a9c:	200005d8 	.word	0x200005d8
 8002aa0:	200005e4 	.word	0x200005e4
 8002aa4:	200005f0 	.word	0x200005f0
 8002aa8:	200005fc 	.word	0x200005fc
 8002aac:	20000608 	.word	0x20000608
 8002ab0:	20000614 	.word	0x20000614
 8002ab4:	20000034 	.word	0x20000034
 8002ab8:	20000620 	.word	0x20000620
 8002abc:	20000038 	.word	0x20000038
 8002ac0:	20000628 	.word	0x20000628
 8002ac4:	2000003c 	.word	0x2000003c
 8002ac8:	20000630 	.word	0x20000630
 8002acc:	20000040 	.word	0x20000040
 8002ad0:	20000638 	.word	0x20000638
 8002ad4:	20000044 	.word	0x20000044
 8002ad8:	20000640 	.word	0x20000640
 8002adc:	20000048 	.word	0x20000048
 8002ae0:	20000648 	.word	0x20000648
 8002ae4:	2000004c 	.word	0x2000004c
 8002ae8:	20000660 	.word	0x20000660
 8002aec:	20000050 	.word	0x20000050
 8002af0:	20000678 	.word	0x20000678
 8002af4:	20000054 	.word	0x20000054
 8002af8:	20000680 	.word	0x20000680
 8002afc:	20000058 	.word	0x20000058
 8002b00:	20000688 	.word	0x20000688
 8002b04:	2000005c 	.word	0x2000005c
 8002b08:	20000690 	.word	0x20000690
 8002b0c:	20000060 	.word	0x20000060
 8002b10:	20000698 	.word	0x20000698
 8002b14:	20000064 	.word	0x20000064
 8002b18:	200006a0 	.word	0x200006a0

08002b1c <stm32__usarts__usartIP>:
 8002b1c:	b480      	push	{r7}
 8002b1e:	b085      	sub	sp, #20
 8002b20:	af00      	add	r7, sp, #0
 8002b22:	60f8      	str	r0, [r7, #12]
 8002b24:	60b9      	str	r1, [r7, #8]
 8002b26:	4613      	mov	r3, r2
 8002b28:	71fb      	strb	r3, [r7, #7]
 8002b2a:	79fb      	ldrb	r3, [r7, #7]
 8002b2c:	2b00      	cmp	r3, #0
 8002b2e:	d002      	beq.n	8002b36 <stm32__usarts__usartIP+0x1a>
 8002b30:	68fb      	ldr	r3, [r7, #12]
 8002b32:	4a05      	ldr	r2, [pc, #20]	; (8002b48 <stm32__usarts__usartIP+0x2c>)
 8002b34:	601a      	str	r2, [r3, #0]
 8002b36:	68fb      	ldr	r3, [r7, #12]
 8002b38:	68ba      	ldr	r2, [r7, #8]
 8002b3a:	605a      	str	r2, [r3, #4]
 8002b3c:	3714      	adds	r7, #20
 8002b3e:	46bd      	mov	sp, r7
 8002b40:	f85d 7b04 	ldr.w	r7, [sp], #4
 8002b44:	4770      	bx	lr
 8002b46:	bf00      	nop
 8002b48:	0800b000 	.word	0x0800b000

08002b4c <stm32__usarts___size__2>:
 8002b4c:	b490      	push	{r4, r7}
 8002b4e:	b082      	sub	sp, #8
 8002b50:	af00      	add	r7, sp, #0
 8002b52:	6078      	str	r0, [r7, #4]
 8002b54:	f04f 0340 	mov.w	r3, #64	; 0x40
 8002b58:	f04f 0400 	mov.w	r4, #0
 8002b5c:	4618      	mov	r0, r3
 8002b5e:	4621      	mov	r1, r4
 8002b60:	3708      	adds	r7, #8
 8002b62:	46bd      	mov	sp, r7
 8002b64:	bc90      	pop	{r4, r7}
 8002b66:	4770      	bx	lr

08002b68 <stm32__usarts__apb_clock>:
 8002b68:	b580      	push	{r7, lr}
 8002b6a:	b08a      	sub	sp, #40	; 0x28
 8002b6c:	af00      	add	r7, sp, #0
 8002b6e:	6078      	str	r0, [r7, #4]
 8002b70:	f107 030c 	add.w	r3, r7, #12
 8002b74:	4618      	mov	r0, r3
 8002b76:	f7ff f8a9 	bl	8001ccc <stm32__device__system_clock_frequencies>
 8002b7a:	687b      	ldr	r3, [r7, #4]
 8002b7c:	685b      	ldr	r3, [r3, #4]
 8002b7e:	461a      	mov	r2, r3
 8002b80:	4b05      	ldr	r3, [pc, #20]	; (8002b98 <stm32__usarts__apb_clock+0x30>)
 8002b82:	429a      	cmp	r2, r3
 8002b84:	d101      	bne.n	8002b8a <stm32__usarts__apb_clock+0x22>
 8002b86:	69bb      	ldr	r3, [r7, #24]
 8002b88:	e000      	b.n	8002b8c <stm32__usarts__apb_clock+0x24>
 8002b8a:	697b      	ldr	r3, [r7, #20]
 8002b8c:	bf00      	nop
 8002b8e:	4618      	mov	r0, r3
 8002b90:	3728      	adds	r7, #40	; 0x28
 8002b92:	46bd      	mov	sp, r7
 8002b94:	bd80      	pop	{r7, pc}
 8002b96:	bf00      	nop
 8002b98:	40013800 	.word	0x40013800

08002b9c <stm32__usarts__enable___postconditions.4760>:
 8002b9c:	b5b0      	push	{r4, r5, r7, lr}
 8002b9e:	b082      	sub	sp, #8
 8002ba0:	af00      	add	r7, sp, #0
 8002ba2:	4663      	mov	r3, ip
 8002ba4:	f8c7 c004 	str.w	ip, [r7, #4]
 8002ba8:	681b      	ldr	r3, [r3, #0]
 8002baa:	4618      	mov	r0, r3
 8002bac:	f000 f868 	bl	8002c80 <stm32__usarts__enabled>
 8002bb0:	4603      	mov	r3, r0
 8002bb2:	f083 0301 	eor.w	r3, r3, #1
 8002bb6:	b2db      	uxtb	r3, r3
 8002bb8:	2b00      	cmp	r3, #0
 8002bba:	d005      	beq.n	8002bc8 <stm32__usarts__enable___postconditions.4760+0x2c>
 8002bbc:	4c04      	ldr	r4, [pc, #16]	; (8002bd0 <stm32__usarts__enable___postconditions.4760+0x34>)
 8002bbe:	4d05      	ldr	r5, [pc, #20]	; (8002bd4 <stm32__usarts__enable___postconditions.4760+0x38>)
 8002bc0:	4620      	mov	r0, r4
 8002bc2:	4629      	mov	r1, r5
 8002bc4:	f007 f85c 	bl	8009c80 <system__assertions__raise_assert_failure>
 8002bc8:	3708      	adds	r7, #8
 8002bca:	46bd      	mov	sp, r7
 8002bcc:	bdb0      	pop	{r4, r5, r7, pc}
 8002bce:	bf00      	nop
 8002bd0:	0800b094 	.word	0x0800b094
 8002bd4:	0800b0c4 	.word	0x0800b0c4

08002bd8 <stm32__usarts__enable>:
 8002bd8:	b580      	push	{r7, lr}
 8002bda:	b084      	sub	sp, #16
 8002bdc:	af00      	add	r7, sp, #0
 8002bde:	6078      	str	r0, [r7, #4]
 8002be0:	f107 0318 	add.w	r3, r7, #24
 8002be4:	60fb      	str	r3, [r7, #12]
 8002be6:	687b      	ldr	r3, [r7, #4]
 8002be8:	60bb      	str	r3, [r7, #8]
 8002bea:	68bb      	ldr	r3, [r7, #8]
 8002bec:	685b      	ldr	r3, [r3, #4]
 8002bee:	330c      	adds	r3, #12
 8002bf0:	681b      	ldr	r3, [r3, #0]
 8002bf2:	461a      	mov	r2, r3
 8002bf4:	4613      	mov	r3, r2
 8002bf6:	f443 5200 	orr.w	r2, r3, #8192	; 0x2000
 8002bfa:	68bb      	ldr	r3, [r7, #8]
 8002bfc:	685b      	ldr	r3, [r3, #4]
 8002bfe:	330c      	adds	r3, #12
 8002c00:	601a      	str	r2, [r3, #0]
 8002c02:	f107 0308 	add.w	r3, r7, #8
 8002c06:	469c      	mov	ip, r3
 8002c08:	f7ff ffc8 	bl	8002b9c <stm32__usarts__enable___postconditions.4760>
 8002c0c:	3710      	adds	r7, #16
 8002c0e:	46bd      	mov	sp, r7
 8002c10:	bd80      	pop	{r7, pc}
 8002c12:	bf00      	nop

08002c14 <stm32__usarts__disable___postconditions.4767>:
 8002c14:	b5b0      	push	{r4, r5, r7, lr}
 8002c16:	b082      	sub	sp, #8
 8002c18:	af00      	add	r7, sp, #0
 8002c1a:	4663      	mov	r3, ip
 8002c1c:	f8c7 c004 	str.w	ip, [r7, #4]
 8002c20:	681b      	ldr	r3, [r3, #0]
 8002c22:	4618      	mov	r0, r3
 8002c24:	f000 f82c 	bl	8002c80 <stm32__usarts__enabled>
 8002c28:	4603      	mov	r3, r0
 8002c2a:	2b00      	cmp	r3, #0
 8002c2c:	d005      	beq.n	8002c3a <stm32__usarts__disable___postconditions.4767+0x26>
 8002c2e:	4c04      	ldr	r4, [pc, #16]	; (8002c40 <stm32__usarts__disable___postconditions.4767+0x2c>)
 8002c30:	4d04      	ldr	r5, [pc, #16]	; (8002c44 <stm32__usarts__disable___postconditions.4767+0x30>)
 8002c32:	4620      	mov	r0, r4
 8002c34:	4629      	mov	r1, r5
 8002c36:	f007 f823 	bl	8009c80 <system__assertions__raise_assert_failure>
 8002c3a:	3708      	adds	r7, #8
 8002c3c:	46bd      	mov	sp, r7
 8002c3e:	bdb0      	pop	{r4, r5, r7, pc}
 8002c40:	0800b0cc 	.word	0x0800b0cc
 8002c44:	0800b0c4 	.word	0x0800b0c4

08002c48 <stm32__usarts__disable>:
 8002c48:	b580      	push	{r7, lr}
 8002c4a:	b084      	sub	sp, #16
 8002c4c:	af00      	add	r7, sp, #0
 8002c4e:	6078      	str	r0, [r7, #4]
 8002c50:	f107 0318 	add.w	r3, r7, #24
 8002c54:	60fb      	str	r3, [r7, #12]
 8002c56:	687b      	ldr	r3, [r7, #4]
 8002c58:	60bb      	str	r3, [r7, #8]
 8002c5a:	68bb      	ldr	r3, [r7, #8]
 8002c5c:	685b      	ldr	r3, [r3, #4]
 8002c5e:	330c      	adds	r3, #12
 8002c60:	681b      	ldr	r3, [r3, #0]
 8002c62:	f36f 334d 	bfc	r3, #13, #1
 8002c66:	68ba      	ldr	r2, [r7, #8]
 8002c68:	6852      	ldr	r2, [r2, #4]
 8002c6a:	320c      	adds	r2, #12
 8002c6c:	6013      	str	r3, [r2, #0]
 8002c6e:	f107 0308 	add.w	r3, r7, #8
 8002c72:	469c      	mov	ip, r3
 8002c74:	f7ff ffce 	bl	8002c14 <stm32__usarts__disable___postconditions.4767>
 8002c78:	3710      	adds	r7, #16
 8002c7a:	46bd      	mov	sp, r7
 8002c7c:	bd80      	pop	{r7, pc}
 8002c7e:	bf00      	nop

08002c80 <stm32__usarts__enabled>:
 8002c80:	b480      	push	{r7}
 8002c82:	b083      	sub	sp, #12
 8002c84:	af00      	add	r7, sp, #0
 8002c86:	6078      	str	r0, [r7, #4]
 8002c88:	687b      	ldr	r3, [r7, #4]
 8002c8a:	685b      	ldr	r3, [r3, #4]
 8002c8c:	330c      	adds	r3, #12
 8002c8e:	681b      	ldr	r3, [r3, #0]
 8002c90:	f3c3 3340 	ubfx	r3, r3, #13, #1
 8002c94:	b2db      	uxtb	r3, r3
 8002c96:	bf00      	nop
 8002c98:	4618      	mov	r0, r3
 8002c9a:	370c      	adds	r7, #12
 8002c9c:	46bd      	mov	sp, r7
 8002c9e:	f85d 7b04 	ldr.w	r7, [sp], #4
 8002ca2:	4770      	bx	lr

08002ca4 <stm32__usarts__set_stop_bits>:
 8002ca4:	b480      	push	{r7}
 8002ca6:	b083      	sub	sp, #12
 8002ca8:	af00      	add	r7, sp, #0
 8002caa:	6078      	str	r0, [r7, #4]
 8002cac:	460b      	mov	r3, r1
 8002cae:	70fb      	strb	r3, [r7, #3]
 8002cb0:	687b      	ldr	r3, [r7, #4]
 8002cb2:	685b      	ldr	r3, [r3, #4]
 8002cb4:	3310      	adds	r3, #16
 8002cb6:	681b      	ldr	r3, [r3, #0]
 8002cb8:	78fa      	ldrb	r2, [r7, #3]
 8002cba:	f002 0203 	and.w	r2, r2, #3
 8002cbe:	b2d2      	uxtb	r2, r2
 8002cc0:	f362 330d 	bfi	r3, r2, #12, #2
 8002cc4:	687a      	ldr	r2, [r7, #4]
 8002cc6:	6852      	ldr	r2, [r2, #4]
 8002cc8:	3210      	adds	r2, #16
 8002cca:	6013      	str	r3, [r2, #0]
 8002ccc:	370c      	adds	r7, #12
 8002cce:	46bd      	mov	sp, r7
 8002cd0:	f85d 7b04 	ldr.w	r7, [sp], #4
 8002cd4:	4770      	bx	lr
 8002cd6:	bf00      	nop

08002cd8 <stm32__usarts__set_word_length>:
 8002cd8:	b480      	push	{r7}
 8002cda:	b083      	sub	sp, #12
 8002cdc:	af00      	add	r7, sp, #0
 8002cde:	6078      	str	r0, [r7, #4]
 8002ce0:	460b      	mov	r3, r1
 8002ce2:	70fb      	strb	r3, [r7, #3]
 8002ce4:	687b      	ldr	r3, [r7, #4]
 8002ce6:	685b      	ldr	r3, [r3, #4]
 8002ce8:	330c      	adds	r3, #12
 8002cea:	681b      	ldr	r3, [r3, #0]
 8002cec:	78fa      	ldrb	r2, [r7, #3]
 8002cee:	2a01      	cmp	r2, #1
 8002cf0:	bf0c      	ite	eq
 8002cf2:	2201      	moveq	r2, #1
 8002cf4:	2200      	movne	r2, #0
 8002cf6:	b2d2      	uxtb	r2, r2
 8002cf8:	f002 0201 	and.w	r2, r2, #1
 8002cfc:	b2d2      	uxtb	r2, r2
 8002cfe:	f362 330c 	bfi	r3, r2, #12, #1
 8002d02:	687a      	ldr	r2, [r7, #4]
 8002d04:	6852      	ldr	r2, [r2, #4]
 8002d06:	320c      	adds	r2, #12
 8002d08:	6013      	str	r3, [r2, #0]
 8002d0a:	370c      	adds	r7, #12
 8002d0c:	46bd      	mov	sp, r7
 8002d0e:	f85d 7b04 	ldr.w	r7, [sp], #4
 8002d12:	4770      	bx	lr

08002d14 <stm32__usarts__set_parity>:
 8002d14:	b580      	push	{r7, lr}
 8002d16:	b082      	sub	sp, #8
 8002d18:	af00      	add	r7, sp, #0
 8002d1a:	6078      	str	r0, [r7, #4]
 8002d1c:	460b      	mov	r3, r1
 8002d1e:	70fb      	strb	r3, [r7, #3]
 8002d20:	78fb      	ldrb	r3, [r7, #3]
 8002d22:	2b02      	cmp	r3, #2
 8002d24:	d903      	bls.n	8002d2e <stm32__usarts__set_parity+0x1a>
 8002d26:	4829      	ldr	r0, [pc, #164]	; (8002dcc <stm32__usarts__set_parity+0xb8>)
 8002d28:	2175      	movs	r1, #117	; 0x75
 8002d2a:	f7fe fc27 	bl	800157c <__gnat_last_chance_handler>
 8002d2e:	78fb      	ldrb	r3, [r7, #3]
 8002d30:	2b00      	cmp	r3, #0
 8002d32:	d002      	beq.n	8002d3a <stm32__usarts__set_parity+0x26>
 8002d34:	2b01      	cmp	r3, #1
 8002d36:	d015      	beq.n	8002d64 <stm32__usarts__set_parity+0x50>
 8002d38:	e02b      	b.n	8002d92 <stm32__usarts__set_parity+0x7e>
 8002d3a:	687b      	ldr	r3, [r7, #4]
 8002d3c:	685b      	ldr	r3, [r3, #4]
 8002d3e:	330c      	adds	r3, #12
 8002d40:	681b      	ldr	r3, [r3, #0]
 8002d42:	f36f 238a 	bfc	r3, #10, #1
 8002d46:	687a      	ldr	r2, [r7, #4]
 8002d48:	6852      	ldr	r2, [r2, #4]
 8002d4a:	320c      	adds	r2, #12
 8002d4c:	6013      	str	r3, [r2, #0]
 8002d4e:	687b      	ldr	r3, [r7, #4]
 8002d50:	685b      	ldr	r3, [r3, #4]
 8002d52:	330c      	adds	r3, #12
 8002d54:	681b      	ldr	r3, [r3, #0]
 8002d56:	f36f 2349 	bfc	r3, #9, #1
 8002d5a:	687a      	ldr	r2, [r7, #4]
 8002d5c:	6852      	ldr	r2, [r2, #4]
 8002d5e:	320c      	adds	r2, #12
 8002d60:	6013      	str	r3, [r2, #0]
 8002d62:	e02e      	b.n	8002dc2 <stm32__usarts__set_parity+0xae>
 8002d64:	687b      	ldr	r3, [r7, #4]
 8002d66:	685b      	ldr	r3, [r3, #4]
 8002d68:	330c      	adds	r3, #12
 8002d6a:	681b      	ldr	r3, [r3, #0]
 8002d6c:	461a      	mov	r2, r3
 8002d6e:	4613      	mov	r3, r2
 8002d70:	f443 6280 	orr.w	r2, r3, #1024	; 0x400
 8002d74:	687b      	ldr	r3, [r7, #4]
 8002d76:	685b      	ldr	r3, [r3, #4]
 8002d78:	330c      	adds	r3, #12
 8002d7a:	601a      	str	r2, [r3, #0]
 8002d7c:	687b      	ldr	r3, [r7, #4]
 8002d7e:	685b      	ldr	r3, [r3, #4]
 8002d80:	330c      	adds	r3, #12
 8002d82:	681b      	ldr	r3, [r3, #0]
 8002d84:	f36f 2349 	bfc	r3, #9, #1
 8002d88:	687a      	ldr	r2, [r7, #4]
 8002d8a:	6852      	ldr	r2, [r2, #4]
 8002d8c:	320c      	adds	r2, #12
 8002d8e:	6013      	str	r3, [r2, #0]
 8002d90:	e017      	b.n	8002dc2 <stm32__usarts__set_parity+0xae>
 8002d92:	687b      	ldr	r3, [r7, #4]
 8002d94:	685b      	ldr	r3, [r3, #4]
 8002d96:	330c      	adds	r3, #12
 8002d98:	681b      	ldr	r3, [r3, #0]
 8002d9a:	461a      	mov	r2, r3
 8002d9c:	4613      	mov	r3, r2
 8002d9e:	f443 6280 	orr.w	r2, r3, #1024	; 0x400
 8002da2:	687b      	ldr	r3, [r7, #4]
 8002da4:	685b      	ldr	r3, [r3, #4]
 8002da6:	330c      	adds	r3, #12
 8002da8:	601a      	str	r2, [r3, #0]
 8002daa:	687b      	ldr	r3, [r7, #4]
 8002dac:	685b      	ldr	r3, [r3, #4]
 8002dae:	330c      	adds	r3, #12
 8002db0:	681b      	ldr	r3, [r3, #0]
 8002db2:	461a      	mov	r2, r3
 8002db4:	4613      	mov	r3, r2
 8002db6:	f443 7200 	orr.w	r2, r3, #512	; 0x200
 8002dba:	687b      	ldr	r3, [r7, #4]
 8002dbc:	685b      	ldr	r3, [r3, #4]
 8002dbe:	330c      	adds	r3, #12
 8002dc0:	601a      	str	r2, [r3, #0]
 8002dc2:	bf00      	nop
 8002dc4:	3708      	adds	r7, #8
 8002dc6:	46bd      	mov	sp, r7
 8002dc8:	bd80      	pop	{r7, pc}
 8002dca:	bf00      	nop
 8002dcc:	0800b0fc 	.word	0x0800b0fc

08002dd0 <stm32__usarts__set_baud_rate>:
 8002dd0:	b580      	push	{r7, lr}
 8002dd2:	b086      	sub	sp, #24
 8002dd4:	af00      	add	r7, sp, #0
 8002dd6:	6078      	str	r0, [r7, #4]
 8002dd8:	6039      	str	r1, [r7, #0]
 8002dda:	6878      	ldr	r0, [r7, #4]
 8002ddc:	f7ff fec4 	bl	8002b68 <stm32__usarts__apb_clock>
 8002de0:	6178      	str	r0, [r7, #20]
 8002de2:	2304      	movs	r3, #4
 8002de4:	613b      	str	r3, [r7, #16]
 8002de6:	683b      	ldr	r3, [r7, #0]
 8002de8:	009b      	lsls	r3, r3, #2
 8002dea:	2b00      	cmp	r3, #0
 8002dec:	d103      	bne.n	8002df6 <stm32__usarts__set_baud_rate+0x26>
 8002dee:	4832      	ldr	r0, [pc, #200]	; (8002eb8 <stm32__usarts__set_baud_rate+0xe8>)
 8002df0:	218c      	movs	r1, #140	; 0x8c
 8002df2:	f7fe fbc3 	bl	800157c <__gnat_last_chance_handler>
 8002df6:	697a      	ldr	r2, [r7, #20]
 8002df8:	4613      	mov	r3, r2
 8002dfa:	009b      	lsls	r3, r3, #2
 8002dfc:	4413      	add	r3, r2
 8002dfe:	009a      	lsls	r2, r3, #2
 8002e00:	441a      	add	r2, r3
 8002e02:	683b      	ldr	r3, [r7, #0]
 8002e04:	009b      	lsls	r3, r3, #2
 8002e06:	fbb2 f3f3 	udiv	r3, r2, r3
 8002e0a:	60fb      	str	r3, [r7, #12]
 8002e0c:	68fb      	ldr	r3, [r7, #12]
 8002e0e:	4a2b      	ldr	r2, [pc, #172]	; (8002ebc <stm32__usarts__set_baud_rate+0xec>)
 8002e10:	fba2 1203 	umull	r1, r2, r2, r3
 8002e14:	0952      	lsrs	r2, r2, #5
 8002e16:	2164      	movs	r1, #100	; 0x64
 8002e18:	fb01 f202 	mul.w	r2, r1, r2
 8002e1c:	1a9b      	subs	r3, r3, r2
 8002e1e:	60bb      	str	r3, [r7, #8]
 8002e20:	687b      	ldr	r3, [r7, #4]
 8002e22:	685b      	ldr	r3, [r3, #4]
 8002e24:	3308      	adds	r3, #8
 8002e26:	681b      	ldr	r3, [r3, #0]
 8002e28:	68ba      	ldr	r2, [r7, #8]
 8002e2a:	0112      	lsls	r2, r2, #4
 8002e2c:	3232      	adds	r2, #50	; 0x32
 8002e2e:	4923      	ldr	r1, [pc, #140]	; (8002ebc <stm32__usarts__set_baud_rate+0xec>)
 8002e30:	fba1 1202 	umull	r1, r2, r1, r2
 8002e34:	0952      	lsrs	r2, r2, #5
 8002e36:	f002 020f 	and.w	r2, r2, #15
 8002e3a:	2aff      	cmp	r2, #255	; 0xff
 8002e3c:	d903      	bls.n	8002e46 <stm32__usarts__set_baud_rate+0x76>
 8002e3e:	481e      	ldr	r0, [pc, #120]	; (8002eb8 <stm32__usarts__set_baud_rate+0xe8>)
 8002e40:	2195      	movs	r1, #149	; 0x95
 8002e42:	f7fe fb9b 	bl	800157c <__gnat_last_chance_handler>
 8002e46:	68ba      	ldr	r2, [r7, #8]
 8002e48:	0112      	lsls	r2, r2, #4
 8002e4a:	3232      	adds	r2, #50	; 0x32
 8002e4c:	491b      	ldr	r1, [pc, #108]	; (8002ebc <stm32__usarts__set_baud_rate+0xec>)
 8002e4e:	fba1 1202 	umull	r1, r2, r1, r2
 8002e52:	0952      	lsrs	r2, r2, #5
 8002e54:	b2d2      	uxtb	r2, r2
 8002e56:	f002 020f 	and.w	r2, r2, #15
 8002e5a:	b2d2      	uxtb	r2, r2
 8002e5c:	2a0f      	cmp	r2, #15
 8002e5e:	d903      	bls.n	8002e68 <stm32__usarts__set_baud_rate+0x98>
 8002e60:	4815      	ldr	r0, [pc, #84]	; (8002eb8 <stm32__usarts__set_baud_rate+0xe8>)
 8002e62:	2195      	movs	r1, #149	; 0x95
 8002e64:	f7fe fb8a 	bl	800157c <__gnat_last_chance_handler>
 8002e68:	f002 020f 	and.w	r2, r2, #15
 8002e6c:	b2d2      	uxtb	r2, r2
 8002e6e:	f362 0303 	bfi	r3, r2, #0, #4
 8002e72:	687a      	ldr	r2, [r7, #4]
 8002e74:	6852      	ldr	r2, [r2, #4]
 8002e76:	3208      	adds	r2, #8
 8002e78:	6013      	str	r3, [r2, #0]
 8002e7a:	68fb      	ldr	r3, [r7, #12]
 8002e7c:	f5b3 2fc8 	cmp.w	r3, #409600	; 0x64000
 8002e80:	d303      	bcc.n	8002e8a <stm32__usarts__set_baud_rate+0xba>
 8002e82:	480d      	ldr	r0, [pc, #52]	; (8002eb8 <stm32__usarts__set_baud_rate+0xe8>)
 8002e84:	2199      	movs	r1, #153	; 0x99
 8002e86:	f7fe fb79 	bl	800157c <__gnat_last_chance_handler>
 8002e8a:	687b      	ldr	r3, [r7, #4]
 8002e8c:	685b      	ldr	r3, [r3, #4]
 8002e8e:	3308      	adds	r3, #8
 8002e90:	681b      	ldr	r3, [r3, #0]
 8002e92:	68fa      	ldr	r2, [r7, #12]
 8002e94:	4909      	ldr	r1, [pc, #36]	; (8002ebc <stm32__usarts__set_baud_rate+0xec>)
 8002e96:	fba1 1202 	umull	r1, r2, r1, r2
 8002e9a:	0952      	lsrs	r2, r2, #5
 8002e9c:	b292      	uxth	r2, r2
 8002e9e:	f3c2 020b 	ubfx	r2, r2, #0, #12
 8002ea2:	b292      	uxth	r2, r2
 8002ea4:	f362 130f 	bfi	r3, r2, #4, #12
 8002ea8:	687a      	ldr	r2, [r7, #4]
 8002eaa:	6852      	ldr	r2, [r2, #4]
 8002eac:	3208      	adds	r2, #8
 8002eae:	6013      	str	r3, [r2, #0]
 8002eb0:	3718      	adds	r7, #24
 8002eb2:	46bd      	mov	sp, r7
 8002eb4:	bd80      	pop	{r7, pc}
 8002eb6:	bf00      	nop
 8002eb8:	0800b0fc 	.word	0x0800b0fc
 8002ebc:	51eb851f 	.word	0x51eb851f

08002ec0 <stm32__usarts__set_oversampling_mode>:
 8002ec0:	b480      	push	{r7}
 8002ec2:	b083      	sub	sp, #12
 8002ec4:	af00      	add	r7, sp, #0
 8002ec6:	6078      	str	r0, [r7, #4]
 8002ec8:	460b      	mov	r3, r1
 8002eca:	70fb      	strb	r3, [r7, #3]
 8002ecc:	bf00      	nop
 8002ece:	370c      	adds	r7, #12
 8002ed0:	46bd      	mov	sp, r7
 8002ed2:	f85d 7b04 	ldr.w	r7, [sp], #4
 8002ed6:	4770      	bx	lr

08002ed8 <stm32__usarts__set_mode>:
 8002ed8:	b480      	push	{r7}
 8002eda:	b083      	sub	sp, #12
 8002edc:	af00      	add	r7, sp, #0
 8002ede:	6078      	str	r0, [r7, #4]
 8002ee0:	460b      	mov	r3, r1
 8002ee2:	70fb      	strb	r3, [r7, #3]
 8002ee4:	687b      	ldr	r3, [r7, #4]
 8002ee6:	685b      	ldr	r3, [r3, #4]
 8002ee8:	330c      	adds	r3, #12
 8002eea:	681b      	ldr	r3, [r3, #0]
 8002eec:	78fa      	ldrb	r2, [r7, #3]
 8002eee:	2a01      	cmp	r2, #1
 8002ef0:	bf14      	ite	ne
 8002ef2:	2201      	movne	r2, #1
 8002ef4:	2200      	moveq	r2, #0
 8002ef6:	b2d2      	uxtb	r2, r2
 8002ef8:	f002 0201 	and.w	r2, r2, #1
 8002efc:	b2d2      	uxtb	r2, r2
 8002efe:	f362 0382 	bfi	r3, r2, #2, #1
 8002f02:	687a      	ldr	r2, [r7, #4]
 8002f04:	6852      	ldr	r2, [r2, #4]
 8002f06:	320c      	adds	r2, #12
 8002f08:	6013      	str	r3, [r2, #0]
 8002f0a:	687b      	ldr	r3, [r7, #4]
 8002f0c:	685b      	ldr	r3, [r3, #4]
 8002f0e:	330c      	adds	r3, #12
 8002f10:	681b      	ldr	r3, [r3, #0]
 8002f12:	78fa      	ldrb	r2, [r7, #3]
 8002f14:	2a00      	cmp	r2, #0
 8002f16:	bf14      	ite	ne
 8002f18:	2201      	movne	r2, #1
 8002f1a:	2200      	moveq	r2, #0
 8002f1c:	b2d2      	uxtb	r2, r2
 8002f1e:	f002 0201 	and.w	r2, r2, #1
 8002f22:	b2d2      	uxtb	r2, r2
 8002f24:	f362 03c3 	bfi	r3, r2, #3, #1
 8002f28:	687a      	ldr	r2, [r7, #4]
 8002f2a:	6852      	ldr	r2, [r2, #4]
 8002f2c:	320c      	adds	r2, #12
 8002f2e:	6013      	str	r3, [r2, #0]
 8002f30:	370c      	adds	r7, #12
 8002f32:	46bd      	mov	sp, r7
 8002f34:	f85d 7b04 	ldr.w	r7, [sp], #4
 8002f38:	4770      	bx	lr
 8002f3a:	bf00      	nop

08002f3c <stm32__usarts__set_flow_control>:
 8002f3c:	b580      	push	{r7, lr}
 8002f3e:	b082      	sub	sp, #8
 8002f40:	af00      	add	r7, sp, #0
 8002f42:	6078      	str	r0, [r7, #4]
 8002f44:	460b      	mov	r3, r1
 8002f46:	70fb      	strb	r3, [r7, #3]
 8002f48:	78fb      	ldrb	r3, [r7, #3]
 8002f4a:	2b03      	cmp	r3, #3
 8002f4c:	d903      	bls.n	8002f56 <stm32__usarts__set_flow_control+0x1a>
 8002f4e:	4835      	ldr	r0, [pc, #212]	; (8003024 <stm32__usarts__set_flow_control+0xe8>)
 8002f50:	21b9      	movs	r1, #185	; 0xb9
 8002f52:	f7fe fb13 	bl	800157c <__gnat_last_chance_handler>
 8002f56:	78fb      	ldrb	r3, [r7, #3]
 8002f58:	2b01      	cmp	r3, #1
 8002f5a:	d019      	beq.n	8002f90 <stm32__usarts__set_flow_control+0x54>
 8002f5c:	2b01      	cmp	r3, #1
 8002f5e:	d302      	bcc.n	8002f66 <stm32__usarts__set_flow_control+0x2a>
 8002f60:	2b02      	cmp	r3, #2
 8002f62:	d02c      	beq.n	8002fbe <stm32__usarts__set_flow_control+0x82>
 8002f64:	e042      	b.n	8002fec <stm32__usarts__set_flow_control+0xb0>
 8002f66:	687b      	ldr	r3, [r7, #4]
 8002f68:	685b      	ldr	r3, [r3, #4]
 8002f6a:	3314      	adds	r3, #20
 8002f6c:	681b      	ldr	r3, [r3, #0]
 8002f6e:	f36f 2308 	bfc	r3, #8, #1
 8002f72:	687a      	ldr	r2, [r7, #4]
 8002f74:	6852      	ldr	r2, [r2, #4]
 8002f76:	3214      	adds	r2, #20
 8002f78:	6013      	str	r3, [r2, #0]
 8002f7a:	687b      	ldr	r3, [r7, #4]
 8002f7c:	685b      	ldr	r3, [r3, #4]
 8002f7e:	3314      	adds	r3, #20
 8002f80:	681b      	ldr	r3, [r3, #0]
 8002f82:	f36f 2349 	bfc	r3, #9, #1
 8002f86:	687a      	ldr	r2, [r7, #4]
 8002f88:	6852      	ldr	r2, [r2, #4]
 8002f8a:	3214      	adds	r2, #20
 8002f8c:	6013      	str	r3, [r2, #0]
 8002f8e:	e045      	b.n	800301c <stm32__usarts__set_flow_control+0xe0>
 8002f90:	687b      	ldr	r3, [r7, #4]
 8002f92:	685b      	ldr	r3, [r3, #4]
 8002f94:	3314      	adds	r3, #20
 8002f96:	681b      	ldr	r3, [r3, #0]
 8002f98:	461a      	mov	r2, r3
 8002f9a:	4613      	mov	r3, r2
 8002f9c:	f443 7280 	orr.w	r2, r3, #256	; 0x100
 8002fa0:	687b      	ldr	r3, [r7, #4]
 8002fa2:	685b      	ldr	r3, [r3, #4]
 8002fa4:	3314      	adds	r3, #20
 8002fa6:	601a      	str	r2, [r3, #0]
 8002fa8:	687b      	ldr	r3, [r7, #4]
 8002faa:	685b      	ldr	r3, [r3, #4]
 8002fac:	3314      	adds	r3, #20
 8002fae:	681b      	ldr	r3, [r3, #0]
 8002fb0:	f36f 2349 	bfc	r3, #9, #1
 8002fb4:	687a      	ldr	r2, [r7, #4]
 8002fb6:	6852      	ldr	r2, [r2, #4]
 8002fb8:	3214      	adds	r2, #20
 8002fba:	6013      	str	r3, [r2, #0]
 8002fbc:	e02e      	b.n	800301c <stm32__usarts__set_flow_control+0xe0>
 8002fbe:	687b      	ldr	r3, [r7, #4]
 8002fc0:	685b      	ldr	r3, [r3, #4]
 8002fc2:	3314      	adds	r3, #20
 8002fc4:	681b      	ldr	r3, [r3, #0]
 8002fc6:	f36f 2308 	bfc	r3, #8, #1
 8002fca:	687a      	ldr	r2, [r7, #4]
 8002fcc:	6852      	ldr	r2, [r2, #4]
 8002fce:	3214      	adds	r2, #20
 8002fd0:	6013      	str	r3, [r2, #0]
 8002fd2:	687b      	ldr	r3, [r7, #4]
 8002fd4:	685b      	ldr	r3, [r3, #4]
 8002fd6:	3314      	adds	r3, #20
 8002fd8:	681b      	ldr	r3, [r3, #0]
 8002fda:	461a      	mov	r2, r3
 8002fdc:	4613      	mov	r3, r2
 8002fde:	f443 7200 	orr.w	r2, r3, #512	; 0x200
 8002fe2:	687b      	ldr	r3, [r7, #4]
 8002fe4:	685b      	ldr	r3, [r3, #4]
 8002fe6:	3314      	adds	r3, #20
 8002fe8:	601a      	str	r2, [r3, #0]
 8002fea:	e017      	b.n	800301c <stm32__usarts__set_flow_control+0xe0>
 8002fec:	687b      	ldr	r3, [r7, #4]
 8002fee:	685b      	ldr	r3, [r3, #4]
 8002ff0:	3314      	adds	r3, #20
 8002ff2:	681b      	ldr	r3, [r3, #0]
 8002ff4:	461a      	mov	r2, r3
 8002ff6:	4613      	mov	r3, r2
 8002ff8:	f443 7280 	orr.w	r2, r3, #256	; 0x100
 8002ffc:	687b      	ldr	r3, [r7, #4]
 8002ffe:	685b      	ldr	r3, [r3, #4]
 8003000:	3314      	adds	r3, #20
 8003002:	601a      	str	r2, [r3, #0]
 8003004:	687b      	ldr	r3, [r7, #4]
 8003006:	685b      	ldr	r3, [r3, #4]
 8003008:	3314      	adds	r3, #20
 800300a:	681b      	ldr	r3, [r3, #0]
 800300c:	461a      	mov	r2, r3
 800300e:	4613      	mov	r3, r2
 8003010:	f443 7200 	orr.w	r2, r3, #512	; 0x200
 8003014:	687b      	ldr	r3, [r7, #4]
 8003016:	685b      	ldr	r3, [r3, #4]
 8003018:	3314      	adds	r3, #20
 800301a:	601a      	str	r2, [r3, #0]
 800301c:	bf00      	nop
 800301e:	3708      	adds	r7, #8
 8003020:	46bd      	mov	sp, r7
 8003022:	bd80      	pop	{r7, pc}
 8003024:	0800b0fc 	.word	0x0800b0fc

08003028 <stm32__usarts__transmit>:
 8003028:	b480      	push	{r7}
 800302a:	b083      	sub	sp, #12
 800302c:	af00      	add	r7, sp, #0
 800302e:	6078      	str	r0, [r7, #4]
 8003030:	460b      	mov	r3, r1
 8003032:	807b      	strh	r3, [r7, #2]
 8003034:	687b      	ldr	r3, [r7, #4]
 8003036:	685b      	ldr	r3, [r3, #4]
 8003038:	3304      	adds	r3, #4
 800303a:	681b      	ldr	r3, [r3, #0]
 800303c:	887a      	ldrh	r2, [r7, #2]
 800303e:	f3c2 0208 	ubfx	r2, r2, #0, #9
 8003042:	b292      	uxth	r2, r2
 8003044:	f362 0308 	bfi	r3, r2, #0, #9
 8003048:	687a      	ldr	r2, [r7, #4]
 800304a:	6852      	ldr	r2, [r2, #4]
 800304c:	3204      	adds	r2, #4
 800304e:	6013      	str	r3, [r2, #0]
 8003050:	370c      	adds	r7, #12
 8003052:	46bd      	mov	sp, r7
 8003054:	f85d 7b04 	ldr.w	r7, [sp], #4
 8003058:	4770      	bx	lr
 800305a:	bf00      	nop

0800305c <stm32__usarts__receive>:
 800305c:	b580      	push	{r7, lr}
 800305e:	b084      	sub	sp, #16
 8003060:	af00      	add	r7, sp, #0
 8003062:	6078      	str	r0, [r7, #4]
 8003064:	6878      	ldr	r0, [r7, #4]
 8003066:	f000 f809 	bl	800307c <stm32__usarts__current_input>
 800306a:	4603      	mov	r3, r0
 800306c:	81fb      	strh	r3, [r7, #14]
 800306e:	89fb      	ldrh	r3, [r7, #14]
 8003070:	bf00      	nop
 8003072:	4618      	mov	r0, r3
 8003074:	3710      	adds	r7, #16
 8003076:	46bd      	mov	sp, r7
 8003078:	bd80      	pop	{r7, pc}
 800307a:	bf00      	nop

0800307c <stm32__usarts__current_input>:
 800307c:	b480      	push	{r7}
 800307e:	b083      	sub	sp, #12
 8003080:	af00      	add	r7, sp, #0
 8003082:	6078      	str	r0, [r7, #4]
 8003084:	687b      	ldr	r3, [r7, #4]
 8003086:	685b      	ldr	r3, [r3, #4]
 8003088:	3304      	adds	r3, #4
 800308a:	681b      	ldr	r3, [r3, #0]
 800308c:	f3c3 0308 	ubfx	r3, r3, #0, #9
 8003090:	b29b      	uxth	r3, r3
 8003092:	bf00      	nop
 8003094:	4618      	mov	r0, r3
 8003096:	370c      	adds	r7, #12
 8003098:	46bd      	mov	sp, r7
 800309a:	f85d 7b04 	ldr.w	r7, [sp], #4
 800309e:	4770      	bx	lr

080030a0 <stm32__usarts__tx_ready>:
 80030a0:	b480      	push	{r7}
 80030a2:	b083      	sub	sp, #12
 80030a4:	af00      	add	r7, sp, #0
 80030a6:	6078      	str	r0, [r7, #4]
 80030a8:	687b      	ldr	r3, [r7, #4]
 80030aa:	685b      	ldr	r3, [r3, #4]
 80030ac:	681b      	ldr	r3, [r3, #0]
 80030ae:	f3c3 13c0 	ubfx	r3, r3, #7, #1
 80030b2:	b2db      	uxtb	r3, r3
 80030b4:	bf00      	nop
 80030b6:	4618      	mov	r0, r3
 80030b8:	370c      	adds	r7, #12
 80030ba:	46bd      	mov	sp, r7
 80030bc:	f85d 7b04 	ldr.w	r7, [sp], #4
 80030c0:	4770      	bx	lr
 80030c2:	bf00      	nop

080030c4 <stm32__usarts__rx_ready>:
 80030c4:	b480      	push	{r7}
 80030c6:	b083      	sub	sp, #12
 80030c8:	af00      	add	r7, sp, #0
 80030ca:	6078      	str	r0, [r7, #4]
 80030cc:	687b      	ldr	r3, [r7, #4]
 80030ce:	685b      	ldr	r3, [r3, #4]
 80030d0:	681b      	ldr	r3, [r3, #0]
 80030d2:	f3c3 1340 	ubfx	r3, r3, #5, #1
 80030d6:	b2db      	uxtb	r3, r3
 80030d8:	bf00      	nop
 80030da:	4618      	mov	r0, r3
 80030dc:	370c      	adds	r7, #12
 80030de:	46bd      	mov	sp, r7
 80030e0:	f85d 7b04 	ldr.w	r7, [sp], #4
 80030e4:	4770      	bx	lr
 80030e6:	bf00      	nop

080030e8 <stm32__usarts__status>:
 80030e8:	b580      	push	{r7, lr}
 80030ea:	b082      	sub	sp, #8
 80030ec:	af00      	add	r7, sp, #0
 80030ee:	6078      	str	r0, [r7, #4]
 80030f0:	460b      	mov	r3, r1
 80030f2:	70fb      	strb	r3, [r7, #3]
 80030f4:	78fb      	ldrb	r3, [r7, #3]
 80030f6:	2b08      	cmp	r3, #8
 80030f8:	d903      	bls.n	8003102 <stm32__usarts__status+0x1a>
 80030fa:	482f      	ldr	r0, [pc, #188]	; (80031b8 <stm32__usarts__status+0xd0>)
 80030fc:	21f9      	movs	r1, #249	; 0xf9
 80030fe:	f7fe fa3d 	bl	800157c <__gnat_last_chance_handler>
 8003102:	78fb      	ldrb	r3, [r7, #3]
 8003104:	2b07      	cmp	r3, #7
 8003106:	d84b      	bhi.n	80031a0 <stm32__usarts__status+0xb8>
 8003108:	a201      	add	r2, pc, #4	; (adr r2, 8003110 <stm32__usarts__status+0x28>)
 800310a:	f852 f023 	ldr.w	pc, [r2, r3, lsl #2]
 800310e:	bf00      	nop
 8003110:	08003131 	.word	0x08003131
 8003114:	0800313f 	.word	0x0800313f
 8003118:	0800314d 	.word	0x0800314d
 800311c:	0800315b 	.word	0x0800315b
 8003120:	08003169 	.word	0x08003169
 8003124:	08003177 	.word	0x08003177
 8003128:	08003185 	.word	0x08003185
 800312c:	08003193 	.word	0x08003193
 8003130:	687b      	ldr	r3, [r7, #4]
 8003132:	685b      	ldr	r3, [r3, #4]
 8003134:	681b      	ldr	r3, [r3, #0]
 8003136:	f3c3 0300 	ubfx	r3, r3, #0, #1
 800313a:	b2db      	uxtb	r3, r3
 800313c:	e037      	b.n	80031ae <stm32__usarts__status+0xc6>
 800313e:	687b      	ldr	r3, [r7, #4]
 8003140:	685b      	ldr	r3, [r3, #4]
 8003142:	681b      	ldr	r3, [r3, #0]
 8003144:	f3c3 0340 	ubfx	r3, r3, #1, #1
 8003148:	b2db      	uxtb	r3, r3
 800314a:	e030      	b.n	80031ae <stm32__usarts__status+0xc6>
 800314c:	687b      	ldr	r3, [r7, #4]
 800314e:	685b      	ldr	r3, [r3, #4]
 8003150:	681b      	ldr	r3, [r3, #0]
 8003152:	f3c3 03c0 	ubfx	r3, r3, #3, #1
 8003156:	b2db      	uxtb	r3, r3
 8003158:	e029      	b.n	80031ae <stm32__usarts__status+0xc6>
 800315a:	687b      	ldr	r3, [r7, #4]
 800315c:	685b      	ldr	r3, [r3, #4]
 800315e:	681b      	ldr	r3, [r3, #0]
 8003160:	f3c3 1300 	ubfx	r3, r3, #4, #1
 8003164:	b2db      	uxtb	r3, r3
 8003166:	e022      	b.n	80031ae <stm32__usarts__status+0xc6>
 8003168:	687b      	ldr	r3, [r7, #4]
 800316a:	685b      	ldr	r3, [r3, #4]
 800316c:	681b      	ldr	r3, [r3, #0]
 800316e:	f3c3 1340 	ubfx	r3, r3, #5, #1
 8003172:	b2db      	uxtb	r3, r3
 8003174:	e01b      	b.n	80031ae <stm32__usarts__status+0xc6>
 8003176:	687b      	ldr	r3, [r7, #4]
 8003178:	685b      	ldr	r3, [r3, #4]
 800317a:	681b      	ldr	r3, [r3, #0]
 800317c:	f3c3 1380 	ubfx	r3, r3, #6, #1
 8003180:	b2db      	uxtb	r3, r3
 8003182:	e014      	b.n	80031ae <stm32__usarts__status+0xc6>
 8003184:	687b      	ldr	r3, [r7, #4]
 8003186:	685b      	ldr	r3, [r3, #4]
 8003188:	681b      	ldr	r3, [r3, #0]
 800318a:	f3c3 13c0 	ubfx	r3, r3, #7, #1
 800318e:	b2db      	uxtb	r3, r3
 8003190:	e00d      	b.n	80031ae <stm32__usarts__status+0xc6>
 8003192:	687b      	ldr	r3, [r7, #4]
 8003194:	685b      	ldr	r3, [r3, #4]
 8003196:	681b      	ldr	r3, [r3, #0]
 8003198:	f3c3 2300 	ubfx	r3, r3, #8, #1
 800319c:	b2db      	uxtb	r3, r3
 800319e:	e006      	b.n	80031ae <stm32__usarts__status+0xc6>
 80031a0:	687b      	ldr	r3, [r7, #4]
 80031a2:	685b      	ldr	r3, [r3, #4]
 80031a4:	681b      	ldr	r3, [r3, #0]
 80031a6:	f3c3 2340 	ubfx	r3, r3, #9, #1
 80031aa:	b2db      	uxtb	r3, r3
 80031ac:	bf00      	nop
 80031ae:	bf00      	nop
 80031b0:	4618      	mov	r0, r3
 80031b2:	3708      	adds	r7, #8
 80031b4:	46bd      	mov	sp, r7
 80031b6:	bd80      	pop	{r7, pc}
 80031b8:	0800b0fc 	.word	0x0800b0fc

080031bc <stm32__usarts__clear_status>:
 80031bc:	b580      	push	{r7, lr}
 80031be:	b082      	sub	sp, #8
 80031c0:	af00      	add	r7, sp, #0
 80031c2:	6078      	str	r0, [r7, #4]
 80031c4:	460b      	mov	r3, r1
 80031c6:	70fb      	strb	r3, [r7, #3]
 80031c8:	78fb      	ldrb	r3, [r7, #3]
 80031ca:	2b08      	cmp	r3, #8
 80031cc:	d904      	bls.n	80031d8 <stm32__usarts__clear_status+0x1c>
 80031ce:	4837      	ldr	r0, [pc, #220]	; (80032ac <stm32__usarts__clear_status+0xf0>)
 80031d0:	f240 1117 	movw	r1, #279	; 0x117
 80031d4:	f7fe f9d2 	bl	800157c <__gnat_last_chance_handler>
 80031d8:	78fb      	ldrb	r3, [r7, #3]
 80031da:	2b07      	cmp	r3, #7
 80031dc:	d85a      	bhi.n	8003294 <stm32__usarts__clear_status+0xd8>
 80031de:	a201      	add	r2, pc, #4	; (adr r2, 80031e4 <stm32__usarts__clear_status+0x28>)
 80031e0:	f852 f023 	ldr.w	pc, [r2, r3, lsl #2]
 80031e4:	08003205 	.word	0x08003205
 80031e8:	08003217 	.word	0x08003217
 80031ec:	08003229 	.word	0x08003229
 80031f0:	0800323b 	.word	0x0800323b
 80031f4:	0800324d 	.word	0x0800324d
 80031f8:	0800325f 	.word	0x0800325f
 80031fc:	08003271 	.word	0x08003271
 8003200:	08003283 	.word	0x08003283
 8003204:	687b      	ldr	r3, [r7, #4]
 8003206:	685b      	ldr	r3, [r3, #4]
 8003208:	681b      	ldr	r3, [r3, #0]
 800320a:	f36f 0300 	bfc	r3, #0, #1
 800320e:	687a      	ldr	r2, [r7, #4]
 8003210:	6852      	ldr	r2, [r2, #4]
 8003212:	6013      	str	r3, [r2, #0]
 8003214:	e046      	b.n	80032a4 <stm32__usarts__clear_status+0xe8>
 8003216:	687b      	ldr	r3, [r7, #4]
 8003218:	685b      	ldr	r3, [r3, #4]
 800321a:	681b      	ldr	r3, [r3, #0]
 800321c:	f36f 0341 	bfc	r3, #1, #1
 8003220:	687a      	ldr	r2, [r7, #4]
 8003222:	6852      	ldr	r2, [r2, #4]
 8003224:	6013      	str	r3, [r2, #0]
 8003226:	e03d      	b.n	80032a4 <stm32__usarts__clear_status+0xe8>
 8003228:	687b      	ldr	r3, [r7, #4]
 800322a:	685b      	ldr	r3, [r3, #4]
 800322c:	681b      	ldr	r3, [r3, #0]
 800322e:	f36f 03c3 	bfc	r3, #3, #1
 8003232:	687a      	ldr	r2, [r7, #4]
 8003234:	6852      	ldr	r2, [r2, #4]
 8003236:	6013      	str	r3, [r2, #0]
 8003238:	e034      	b.n	80032a4 <stm32__usarts__clear_status+0xe8>
 800323a:	687b      	ldr	r3, [r7, #4]
 800323c:	685b      	ldr	r3, [r3, #4]
 800323e:	681b      	ldr	r3, [r3, #0]
 8003240:	f36f 1304 	bfc	r3, #4, #1
 8003244:	687a      	ldr	r2, [r7, #4]
 8003246:	6852      	ldr	r2, [r2, #4]
 8003248:	6013      	str	r3, [r2, #0]
 800324a:	e02b      	b.n	80032a4 <stm32__usarts__clear_status+0xe8>
 800324c:	687b      	ldr	r3, [r7, #4]
 800324e:	685b      	ldr	r3, [r3, #4]
 8003250:	681b      	ldr	r3, [r3, #0]
 8003252:	f36f 1345 	bfc	r3, #5, #1
 8003256:	687a      	ldr	r2, [r7, #4]
 8003258:	6852      	ldr	r2, [r2, #4]
 800325a:	6013      	str	r3, [r2, #0]
 800325c:	e022      	b.n	80032a4 <stm32__usarts__clear_status+0xe8>
 800325e:	687b      	ldr	r3, [r7, #4]
 8003260:	685b      	ldr	r3, [r3, #4]
 8003262:	681b      	ldr	r3, [r3, #0]
 8003264:	f36f 1386 	bfc	r3, #6, #1
 8003268:	687a      	ldr	r2, [r7, #4]
 800326a:	6852      	ldr	r2, [r2, #4]
 800326c:	6013      	str	r3, [r2, #0]
 800326e:	e019      	b.n	80032a4 <stm32__usarts__clear_status+0xe8>
 8003270:	687b      	ldr	r3, [r7, #4]
 8003272:	685b      	ldr	r3, [r3, #4]
 8003274:	681b      	ldr	r3, [r3, #0]
 8003276:	f36f 13c7 	bfc	r3, #7, #1
 800327a:	687a      	ldr	r2, [r7, #4]
 800327c:	6852      	ldr	r2, [r2, #4]
 800327e:	6013      	str	r3, [r2, #0]
 8003280:	e010      	b.n	80032a4 <stm32__usarts__clear_status+0xe8>
 8003282:	687b      	ldr	r3, [r7, #4]
 8003284:	685b      	ldr	r3, [r3, #4]
 8003286:	681b      	ldr	r3, [r3, #0]
 8003288:	f36f 2308 	bfc	r3, #8, #1
 800328c:	687a      	ldr	r2, [r7, #4]
 800328e:	6852      	ldr	r2, [r2, #4]
 8003290:	6013      	str	r3, [r2, #0]
 8003292:	e007      	b.n	80032a4 <stm32__usarts__clear_status+0xe8>
 8003294:	687b      	ldr	r3, [r7, #4]
 8003296:	685b      	ldr	r3, [r3, #4]
 8003298:	681b      	ldr	r3, [r3, #0]
 800329a:	f36f 2349 	bfc	r3, #9, #1
 800329e:	687a      	ldr	r2, [r7, #4]
 80032a0:	6852      	ldr	r2, [r2, #4]
 80032a2:	6013      	str	r3, [r2, #0]
 80032a4:	bf00      	nop
 80032a6:	3708      	adds	r7, #8
 80032a8:	46bd      	mov	sp, r7
 80032aa:	bd80      	pop	{r7, pc}
 80032ac:	0800b0fc 	.word	0x0800b0fc

080032b0 <stm32__usarts__enable_interrupts___postconditions.4841>:
 80032b0:	b5b0      	push	{r4, r5, r7, lr}
 80032b2:	b082      	sub	sp, #8
 80032b4:	af00      	add	r7, sp, #0
 80032b6:	4663      	mov	r3, ip
 80032b8:	f8c7 c004 	str.w	ip, [r7, #4]
 80032bc:	681a      	ldr	r2, [r3, #0]
 80032be:	791b      	ldrb	r3, [r3, #4]
 80032c0:	4610      	mov	r0, r2
 80032c2:	4619      	mov	r1, r3
 80032c4:	f000 f958 	bl	8003578 <stm32__usarts__interrupt_enabled>
 80032c8:	4603      	mov	r3, r0
 80032ca:	f083 0301 	eor.w	r3, r3, #1
 80032ce:	b2db      	uxtb	r3, r3
 80032d0:	2b00      	cmp	r3, #0
 80032d2:	d005      	beq.n	80032e0 <stm32__usarts__enable_interrupts___postconditions.4841+0x30>
 80032d4:	4c04      	ldr	r4, [pc, #16]	; (80032e8 <stm32__usarts__enable_interrupts___postconditions.4841+0x38>)
 80032d6:	4d05      	ldr	r5, [pc, #20]	; (80032ec <stm32__usarts__enable_interrupts___postconditions.4841+0x3c>)
 80032d8:	4620      	mov	r0, r4
 80032da:	4629      	mov	r1, r5
 80032dc:	f006 fcd0 	bl	8009c80 <system__assertions__raise_assert_failure>
 80032e0:	3708      	adds	r7, #8
 80032e2:	46bd      	mov	sp, r7
 80032e4:	bdb0      	pop	{r4, r5, r7, pc}
 80032e6:	bf00      	nop
 80032e8:	0800b110 	.word	0x0800b110
 80032ec:	0800b140 	.word	0x0800b140

080032f0 <stm32__usarts__enable_interrupts>:
 80032f0:	b580      	push	{r7, lr}
 80032f2:	b086      	sub	sp, #24
 80032f4:	af00      	add	r7, sp, #0
 80032f6:	6078      	str	r0, [r7, #4]
 80032f8:	460b      	mov	r3, r1
 80032fa:	70fb      	strb	r3, [r7, #3]
 80032fc:	f107 0320 	add.w	r3, r7, #32
 8003300:	617b      	str	r3, [r7, #20]
 8003302:	687b      	ldr	r3, [r7, #4]
 8003304:	60fb      	str	r3, [r7, #12]
 8003306:	78fb      	ldrb	r3, [r7, #3]
 8003308:	743b      	strb	r3, [r7, #16]
 800330a:	7c3b      	ldrb	r3, [r7, #16]
 800330c:	2b07      	cmp	r3, #7
 800330e:	d904      	bls.n	800331a <stm32__usarts__enable_interrupts+0x2a>
 8003310:	4844      	ldr	r0, [pc, #272]	; (8003424 <stm32__usarts__enable_interrupts+0x134>)
 8003312:	f44f 719c 	mov.w	r1, #312	; 0x138
 8003316:	f7fe f931 	bl	800157c <__gnat_last_chance_handler>
 800331a:	7c3b      	ldrb	r3, [r7, #16]
 800331c:	2b06      	cmp	r3, #6
 800331e:	d86c      	bhi.n	80033fa <stm32__usarts__enable_interrupts+0x10a>
 8003320:	a201      	add	r2, pc, #4	; (adr r2, 8003328 <stm32__usarts__enable_interrupts+0x38>)
 8003322:	f852 f023 	ldr.w	pc, [r2, r3, lsl #2]
 8003326:	bf00      	nop
 8003328:	08003345 	.word	0x08003345
 800332c:	0800335f 	.word	0x0800335f
 8003330:	08003379 	.word	0x08003379
 8003334:	08003393 	.word	0x08003393
 8003338:	080033ad 	.word	0x080033ad
 800333c:	080033c7 	.word	0x080033c7
 8003340:	080033e1 	.word	0x080033e1
 8003344:	68fb      	ldr	r3, [r7, #12]
 8003346:	685b      	ldr	r3, [r3, #4]
 8003348:	330c      	adds	r3, #12
 800334a:	681b      	ldr	r3, [r3, #0]
 800334c:	461a      	mov	r2, r3
 800334e:	4613      	mov	r3, r2
 8003350:	f443 7280 	orr.w	r2, r3, #256	; 0x100
 8003354:	68fb      	ldr	r3, [r7, #12]
 8003356:	685b      	ldr	r3, [r3, #4]
 8003358:	330c      	adds	r3, #12
 800335a:	601a      	str	r2, [r3, #0]
 800335c:	e059      	b.n	8003412 <stm32__usarts__enable_interrupts+0x122>
 800335e:	68fb      	ldr	r3, [r7, #12]
 8003360:	685b      	ldr	r3, [r3, #4]
 8003362:	330c      	adds	r3, #12
 8003364:	681b      	ldr	r3, [r3, #0]
 8003366:	461a      	mov	r2, r3
 8003368:	4613      	mov	r3, r2
 800336a:	f043 0280 	orr.w	r2, r3, #128	; 0x80
 800336e:	68fb      	ldr	r3, [r7, #12]
 8003370:	685b      	ldr	r3, [r3, #4]
 8003372:	330c      	adds	r3, #12
 8003374:	601a      	str	r2, [r3, #0]
 8003376:	e04c      	b.n	8003412 <stm32__usarts__enable_interrupts+0x122>
 8003378:	68fb      	ldr	r3, [r7, #12]
 800337a:	685b      	ldr	r3, [r3, #4]
 800337c:	330c      	adds	r3, #12
 800337e:	681b      	ldr	r3, [r3, #0]
 8003380:	461a      	mov	r2, r3
 8003382:	4613      	mov	r3, r2
 8003384:	f043 0240 	orr.w	r2, r3, #64	; 0x40
 8003388:	68fb      	ldr	r3, [r7, #12]
 800338a:	685b      	ldr	r3, [r3, #4]
 800338c:	330c      	adds	r3, #12
 800338e:	601a      	str	r2, [r3, #0]
 8003390:	e03f      	b.n	8003412 <stm32__usarts__enable_interrupts+0x122>
 8003392:	68fb      	ldr	r3, [r7, #12]
 8003394:	685b      	ldr	r3, [r3, #4]
 8003396:	330c      	adds	r3, #12
 8003398:	681b      	ldr	r3, [r3, #0]
 800339a:	461a      	mov	r2, r3
 800339c:	4613      	mov	r3, r2
 800339e:	f043 0220 	orr.w	r2, r3, #32
 80033a2:	68fb      	ldr	r3, [r7, #12]
 80033a4:	685b      	ldr	r3, [r3, #4]
 80033a6:	330c      	adds	r3, #12
 80033a8:	601a      	str	r2, [r3, #0]
 80033aa:	e032      	b.n	8003412 <stm32__usarts__enable_interrupts+0x122>
 80033ac:	68fb      	ldr	r3, [r7, #12]
 80033ae:	685b      	ldr	r3, [r3, #4]
 80033b0:	330c      	adds	r3, #12
 80033b2:	681b      	ldr	r3, [r3, #0]
 80033b4:	461a      	mov	r2, r3
 80033b6:	4613      	mov	r3, r2
 80033b8:	f043 0210 	orr.w	r2, r3, #16
 80033bc:	68fb      	ldr	r3, [r7, #12]
 80033be:	685b      	ldr	r3, [r3, #4]
 80033c0:	330c      	adds	r3, #12
 80033c2:	601a      	str	r2, [r3, #0]
 80033c4:	e025      	b.n	8003412 <stm32__usarts__enable_interrupts+0x122>
 80033c6:	68fb      	ldr	r3, [r7, #12]
 80033c8:	685b      	ldr	r3, [r3, #4]
 80033ca:	3310      	adds	r3, #16
 80033cc:	681b      	ldr	r3, [r3, #0]
 80033ce:	461a      	mov	r2, r3
 80033d0:	4613      	mov	r3, r2
 80033d2:	f043 0240 	orr.w	r2, r3, #64	; 0x40
 80033d6:	68fb      	ldr	r3, [r7, #12]
 80033d8:	685b      	ldr	r3, [r3, #4]
 80033da:	3310      	adds	r3, #16
 80033dc:	601a      	str	r2, [r3, #0]
 80033de:	e018      	b.n	8003412 <stm32__usarts__enable_interrupts+0x122>
 80033e0:	68fb      	ldr	r3, [r7, #12]
 80033e2:	685b      	ldr	r3, [r3, #4]
 80033e4:	3314      	adds	r3, #20
 80033e6:	681b      	ldr	r3, [r3, #0]
 80033e8:	461a      	mov	r2, r3
 80033ea:	4613      	mov	r3, r2
 80033ec:	f443 6280 	orr.w	r2, r3, #1024	; 0x400
 80033f0:	68fb      	ldr	r3, [r7, #12]
 80033f2:	685b      	ldr	r3, [r3, #4]
 80033f4:	3314      	adds	r3, #20
 80033f6:	601a      	str	r2, [r3, #0]
 80033f8:	e00b      	b.n	8003412 <stm32__usarts__enable_interrupts+0x122>
 80033fa:	68fb      	ldr	r3, [r7, #12]
 80033fc:	685b      	ldr	r3, [r3, #4]
 80033fe:	3314      	adds	r3, #20
 8003400:	681b      	ldr	r3, [r3, #0]
 8003402:	461a      	mov	r2, r3
 8003404:	4613      	mov	r3, r2
 8003406:	f043 0201 	orr.w	r2, r3, #1
 800340a:	68fb      	ldr	r3, [r7, #12]
 800340c:	685b      	ldr	r3, [r3, #4]
 800340e:	3314      	adds	r3, #20
 8003410:	601a      	str	r2, [r3, #0]
 8003412:	bf00      	nop
 8003414:	f107 030c 	add.w	r3, r7, #12
 8003418:	469c      	mov	ip, r3
 800341a:	f7ff ff49 	bl	80032b0 <stm32__usarts__enable_interrupts___postconditions.4841>
 800341e:	3718      	adds	r7, #24
 8003420:	46bd      	mov	sp, r7
 8003422:	bd80      	pop	{r7, pc}
 8003424:	0800b0fc 	.word	0x0800b0fc

08003428 <stm32__usarts__disable_interrupts___postconditions.4854>:
 8003428:	b5b0      	push	{r4, r5, r7, lr}
 800342a:	b082      	sub	sp, #8
 800342c:	af00      	add	r7, sp, #0
 800342e:	4663      	mov	r3, ip
 8003430:	f8c7 c004 	str.w	ip, [r7, #4]
 8003434:	681a      	ldr	r2, [r3, #0]
 8003436:	791b      	ldrb	r3, [r3, #4]
 8003438:	4610      	mov	r0, r2
 800343a:	4619      	mov	r1, r3
 800343c:	f000 f89c 	bl	8003578 <stm32__usarts__interrupt_enabled>
 8003440:	4603      	mov	r3, r0
 8003442:	2b00      	cmp	r3, #0
 8003444:	d005      	beq.n	8003452 <stm32__usarts__disable_interrupts___postconditions.4854+0x2a>
 8003446:	4c04      	ldr	r4, [pc, #16]	; (8003458 <stm32__usarts__disable_interrupts___postconditions.4854+0x30>)
 8003448:	4d04      	ldr	r5, [pc, #16]	; (800345c <stm32__usarts__disable_interrupts___postconditions.4854+0x34>)
 800344a:	4620      	mov	r0, r4
 800344c:	4629      	mov	r1, r5
 800344e:	f006 fc17 	bl	8009c80 <system__assertions__raise_assert_failure>
 8003452:	3708      	adds	r7, #8
 8003454:	46bd      	mov	sp, r7
 8003456:	bdb0      	pop	{r4, r5, r7, pc}
 8003458:	0800b148 	.word	0x0800b148
 800345c:	0800b140 	.word	0x0800b140

08003460 <stm32__usarts__disable_interrupts>:
 8003460:	b580      	push	{r7, lr}
 8003462:	b086      	sub	sp, #24
 8003464:	af00      	add	r7, sp, #0
 8003466:	6078      	str	r0, [r7, #4]
 8003468:	460b      	mov	r3, r1
 800346a:	70fb      	strb	r3, [r7, #3]
 800346c:	f107 0320 	add.w	r3, r7, #32
 8003470:	617b      	str	r3, [r7, #20]
 8003472:	687b      	ldr	r3, [r7, #4]
 8003474:	60fb      	str	r3, [r7, #12]
 8003476:	78fb      	ldrb	r3, [r7, #3]
 8003478:	743b      	strb	r3, [r7, #16]
 800347a:	7c3b      	ldrb	r3, [r7, #16]
 800347c:	2b07      	cmp	r3, #7
 800347e:	d904      	bls.n	800348a <stm32__usarts__disable_interrupts+0x2a>
 8003480:	483c      	ldr	r0, [pc, #240]	; (8003574 <stm32__usarts__disable_interrupts+0x114>)
 8003482:	f240 1155 	movw	r1, #341	; 0x155
 8003486:	f7fe f879 	bl	800157c <__gnat_last_chance_handler>
 800348a:	7c3b      	ldrb	r3, [r7, #16]
 800348c:	2b06      	cmp	r3, #6
 800348e:	d85e      	bhi.n	800354e <stm32__usarts__disable_interrupts+0xee>
 8003490:	a201      	add	r2, pc, #4	; (adr r2, 8003498 <stm32__usarts__disable_interrupts+0x38>)
 8003492:	f852 f023 	ldr.w	pc, [r2, r3, lsl #2]
 8003496:	bf00      	nop
 8003498:	080034b5 	.word	0x080034b5
 800349c:	080034cb 	.word	0x080034cb
 80034a0:	080034e1 	.word	0x080034e1
 80034a4:	080034f7 	.word	0x080034f7
 80034a8:	0800350d 	.word	0x0800350d
 80034ac:	08003523 	.word	0x08003523
 80034b0:	08003539 	.word	0x08003539
 80034b4:	68fb      	ldr	r3, [r7, #12]
 80034b6:	685b      	ldr	r3, [r3, #4]
 80034b8:	330c      	adds	r3, #12
 80034ba:	681b      	ldr	r3, [r3, #0]
 80034bc:	f36f 2308 	bfc	r3, #8, #1
 80034c0:	68fa      	ldr	r2, [r7, #12]
 80034c2:	6852      	ldr	r2, [r2, #4]
 80034c4:	320c      	adds	r2, #12
 80034c6:	6013      	str	r3, [r2, #0]
 80034c8:	e04b      	b.n	8003562 <stm32__usarts__disable_interrupts+0x102>
 80034ca:	68fb      	ldr	r3, [r7, #12]
 80034cc:	685b      	ldr	r3, [r3, #4]
 80034ce:	330c      	adds	r3, #12
 80034d0:	681b      	ldr	r3, [r3, #0]
 80034d2:	f36f 13c7 	bfc	r3, #7, #1
 80034d6:	68fa      	ldr	r2, [r7, #12]
 80034d8:	6852      	ldr	r2, [r2, #4]
 80034da:	320c      	adds	r2, #12
 80034dc:	6013      	str	r3, [r2, #0]
 80034de:	e040      	b.n	8003562 <stm32__usarts__disable_interrupts+0x102>
 80034e0:	68fb      	ldr	r3, [r7, #12]
 80034e2:	685b      	ldr	r3, [r3, #4]
 80034e4:	330c      	adds	r3, #12
 80034e6:	681b      	ldr	r3, [r3, #0]
 80034e8:	f36f 1386 	bfc	r3, #6, #1
 80034ec:	68fa      	ldr	r2, [r7, #12]
 80034ee:	6852      	ldr	r2, [r2, #4]
 80034f0:	320c      	adds	r2, #12
 80034f2:	6013      	str	r3, [r2, #0]
 80034f4:	e035      	b.n	8003562 <stm32__usarts__disable_interrupts+0x102>
 80034f6:	68fb      	ldr	r3, [r7, #12]
 80034f8:	685b      	ldr	r3, [r3, #4]
 80034fa:	330c      	adds	r3, #12
 80034fc:	681b      	ldr	r3, [r3, #0]
 80034fe:	f36f 1345 	bfc	r3, #5, #1
 8003502:	68fa      	ldr	r2, [r7, #12]
 8003504:	6852      	ldr	r2, [r2, #4]
 8003506:	320c      	adds	r2, #12
 8003508:	6013      	str	r3, [r2, #0]
 800350a:	e02a      	b.n	8003562 <stm32__usarts__disable_interrupts+0x102>
 800350c:	68fb      	ldr	r3, [r7, #12]
 800350e:	685b      	ldr	r3, [r3, #4]
 8003510:	330c      	adds	r3, #12
 8003512:	681b      	ldr	r3, [r3, #0]
 8003514:	f36f 1304 	bfc	r3, #4, #1
 8003518:	68fa      	ldr	r2, [r7, #12]
 800351a:	6852      	ldr	r2, [r2, #4]
 800351c:	320c      	adds	r2, #12
 800351e:	6013      	str	r3, [r2, #0]
 8003520:	e01f      	b.n	8003562 <stm32__usarts__disable_interrupts+0x102>
 8003522:	68fb      	ldr	r3, [r7, #12]
 8003524:	685b      	ldr	r3, [r3, #4]
 8003526:	3310      	adds	r3, #16
 8003528:	681b      	ldr	r3, [r3, #0]
 800352a:	f36f 1386 	bfc	r3, #6, #1
 800352e:	68fa      	ldr	r2, [r7, #12]
 8003530:	6852      	ldr	r2, [r2, #4]
 8003532:	3210      	adds	r2, #16
 8003534:	6013      	str	r3, [r2, #0]
 8003536:	e014      	b.n	8003562 <stm32__usarts__disable_interrupts+0x102>
 8003538:	68fb      	ldr	r3, [r7, #12]
 800353a:	685b      	ldr	r3, [r3, #4]
 800353c:	3314      	adds	r3, #20
 800353e:	681b      	ldr	r3, [r3, #0]
 8003540:	f36f 238a 	bfc	r3, #10, #1
 8003544:	68fa      	ldr	r2, [r7, #12]
 8003546:	6852      	ldr	r2, [r2, #4]
 8003548:	3214      	adds	r2, #20
 800354a:	6013      	str	r3, [r2, #0]
 800354c:	e009      	b.n	8003562 <stm32__usarts__disable_interrupts+0x102>
 800354e:	68fb      	ldr	r3, [r7, #12]
 8003550:	685b      	ldr	r3, [r3, #4]
 8003552:	3314      	adds	r3, #20
 8003554:	681b      	ldr	r3, [r3, #0]
 8003556:	f36f 0300 	bfc	r3, #0, #1
 800355a:	68fa      	ldr	r2, [r7, #12]
 800355c:	6852      	ldr	r2, [r2, #4]
 800355e:	3214      	adds	r2, #20
 8003560:	6013      	str	r3, [r2, #0]
 8003562:	bf00      	nop
 8003564:	f107 030c 	add.w	r3, r7, #12
 8003568:	469c      	mov	ip, r3
 800356a:	f7ff ff5d 	bl	8003428 <stm32__usarts__disable_interrupts___postconditions.4854>
 800356e:	3718      	adds	r7, #24
 8003570:	46bd      	mov	sp, r7
 8003572:	bd80      	pop	{r7, pc}
 8003574:	0800b0fc 	.word	0x0800b0fc

08003578 <stm32__usarts__interrupt_enabled>:
 8003578:	b580      	push	{r7, lr}
 800357a:	b082      	sub	sp, #8
 800357c:	af00      	add	r7, sp, #0
 800357e:	6078      	str	r0, [r7, #4]
 8003580:	460b      	mov	r3, r1
 8003582:	70fb      	strb	r3, [r7, #3]
 8003584:	78fb      	ldrb	r3, [r7, #3]
 8003586:	2b07      	cmp	r3, #7
 8003588:	d904      	bls.n	8003594 <stm32__usarts__interrupt_enabled+0x1c>
 800358a:	482f      	ldr	r0, [pc, #188]	; (8003648 <stm32__usarts__interrupt_enabled+0xd0>)
 800358c:	f240 1173 	movw	r1, #371	; 0x173
 8003590:	f7fd fff4 	bl	800157c <__gnat_last_chance_handler>
 8003594:	78fb      	ldrb	r3, [r7, #3]
 8003596:	2b06      	cmp	r3, #6
 8003598:	d848      	bhi.n	800362c <stm32__usarts__interrupt_enabled+0xb4>
 800359a:	a201      	add	r2, pc, #4	; (adr r2, 80035a0 <stm32__usarts__interrupt_enabled+0x28>)
 800359c:	f852 f023 	ldr.w	pc, [r2, r3, lsl #2]
 80035a0:	080035bd 	.word	0x080035bd
 80035a4:	080035cd 	.word	0x080035cd
 80035a8:	080035dd 	.word	0x080035dd
 80035ac:	080035ed 	.word	0x080035ed
 80035b0:	080035fd 	.word	0x080035fd
 80035b4:	0800360d 	.word	0x0800360d
 80035b8:	0800361d 	.word	0x0800361d
 80035bc:	687b      	ldr	r3, [r7, #4]
 80035be:	685b      	ldr	r3, [r3, #4]
 80035c0:	330c      	adds	r3, #12
 80035c2:	681b      	ldr	r3, [r3, #0]
 80035c4:	f3c3 2300 	ubfx	r3, r3, #8, #1
 80035c8:	b2db      	uxtb	r3, r3
 80035ca:	e037      	b.n	800363c <stm32__usarts__interrupt_enabled+0xc4>
 80035cc:	687b      	ldr	r3, [r7, #4]
 80035ce:	685b      	ldr	r3, [r3, #4]
 80035d0:	330c      	adds	r3, #12
 80035d2:	681b      	ldr	r3, [r3, #0]
 80035d4:	f3c3 13c0 	ubfx	r3, r3, #7, #1
 80035d8:	b2db      	uxtb	r3, r3
 80035da:	e02f      	b.n	800363c <stm32__usarts__interrupt_enabled+0xc4>
 80035dc:	687b      	ldr	r3, [r7, #4]
 80035de:	685b      	ldr	r3, [r3, #4]
 80035e0:	330c      	adds	r3, #12
 80035e2:	681b      	ldr	r3, [r3, #0]
 80035e4:	f3c3 1380 	ubfx	r3, r3, #6, #1
 80035e8:	b2db      	uxtb	r3, r3
 80035ea:	e027      	b.n	800363c <stm32__usarts__interrupt_enabled+0xc4>
 80035ec:	687b      	ldr	r3, [r7, #4]
 80035ee:	685b      	ldr	r3, [r3, #4]
 80035f0:	330c      	adds	r3, #12
 80035f2:	681b      	ldr	r3, [r3, #0]
 80035f4:	f3c3 1340 	ubfx	r3, r3, #5, #1
 80035f8:	b2db      	uxtb	r3, r3
 80035fa:	e01f      	b.n	800363c <stm32__usarts__interrupt_enabled+0xc4>
 80035fc:	687b      	ldr	r3, [r7, #4]
 80035fe:	685b      	ldr	r3, [r3, #4]
 8003600:	330c      	adds	r3, #12
 8003602:	681b      	ldr	r3, [r3, #0]
 8003604:	f3c3 1300 	ubfx	r3, r3, #4, #1
 8003608:	b2db      	uxtb	r3, r3
 800360a:	e017      	b.n	800363c <stm32__usarts__interrupt_enabled+0xc4>
 800360c:	687b      	ldr	r3, [r7, #4]
 800360e:	685b      	ldr	r3, [r3, #4]
 8003610:	3310      	adds	r3, #16
 8003612:	681b      	ldr	r3, [r3, #0]
 8003614:	f3c3 1380 	ubfx	r3, r3, #6, #1
 8003618:	b2db      	uxtb	r3, r3
 800361a:	e00f      	b.n	800363c <stm32__usarts__interrupt_enabled+0xc4>
 800361c:	687b      	ldr	r3, [r7, #4]
 800361e:	685b      	ldr	r3, [r3, #4]
 8003620:	3314      	adds	r3, #20
 8003622:	681b      	ldr	r3, [r3, #0]
 8003624:	f3c3 2380 	ubfx	r3, r3, #10, #1
 8003628:	b2db      	uxtb	r3, r3
 800362a:	e007      	b.n	800363c <stm32__usarts__interrupt_enabled+0xc4>
 800362c:	687b      	ldr	r3, [r7, #4]
 800362e:	685b      	ldr	r3, [r3, #4]
 8003630:	3314      	adds	r3, #20
 8003632:	681b      	ldr	r3, [r3, #0]
 8003634:	f3c3 0300 	ubfx	r3, r3, #0, #1
 8003638:	b2db      	uxtb	r3, r3
 800363a:	bf00      	nop
 800363c:	bf00      	nop
 800363e:	4618      	mov	r0, r3
 8003640:	3708      	adds	r7, #8
 8003642:	46bd      	mov	sp, r7
 8003644:	bd80      	pop	{r7, pc}
 8003646:	bf00      	nop
 8003648:	0800b0fc 	.word	0x0800b0fc

0800364c <stm32__usarts__enable_dma_transmit_requests___postconditions.4889>:
 800364c:	b5b0      	push	{r4, r5, r7, lr}
 800364e:	b082      	sub	sp, #8
 8003650:	af00      	add	r7, sp, #0
 8003652:	4663      	mov	r3, ip
 8003654:	f8c7 c004 	str.w	ip, [r7, #4]
 8003658:	681b      	ldr	r3, [r3, #0]
 800365a:	4618      	mov	r0, r3
 800365c:	f000 f8da 	bl	8003814 <stm32__usarts__dma_transmit_requests_enabled>
 8003660:	4603      	mov	r3, r0
 8003662:	f083 0301 	eor.w	r3, r3, #1
 8003666:	b2db      	uxtb	r3, r3
 8003668:	2b00      	cmp	r3, #0
 800366a:	d005      	beq.n	8003678 <stm32__usarts__enable_dma_transmit_requests___postconditions.4889+0x2c>
 800366c:	4c04      	ldr	r4, [pc, #16]	; (8003680 <stm32__usarts__enable_dma_transmit_requests___postconditions.4889+0x34>)
 800366e:	4d05      	ldr	r5, [pc, #20]	; (8003684 <stm32__usarts__enable_dma_transmit_requests___postconditions.4889+0x38>)
 8003670:	4620      	mov	r0, r4
 8003672:	4629      	mov	r1, r5
 8003674:	f006 fb04 	bl	8009c80 <system__assertions__raise_assert_failure>
 8003678:	3708      	adds	r7, #8
 800367a:	46bd      	mov	sp, r7
 800367c:	bdb0      	pop	{r4, r5, r7, pc}
 800367e:	bf00      	nop
 8003680:	0800b178 	.word	0x0800b178
 8003684:	0800b140 	.word	0x0800b140

08003688 <stm32__usarts__enable_dma_transmit_requests>:
 8003688:	b580      	push	{r7, lr}
 800368a:	b084      	sub	sp, #16
 800368c:	af00      	add	r7, sp, #0
 800368e:	6078      	str	r0, [r7, #4]
 8003690:	f107 0318 	add.w	r3, r7, #24
 8003694:	60fb      	str	r3, [r7, #12]
 8003696:	687b      	ldr	r3, [r7, #4]
 8003698:	60bb      	str	r3, [r7, #8]
 800369a:	68bb      	ldr	r3, [r7, #8]
 800369c:	685b      	ldr	r3, [r3, #4]
 800369e:	3314      	adds	r3, #20
 80036a0:	681b      	ldr	r3, [r3, #0]
 80036a2:	461a      	mov	r2, r3
 80036a4:	4613      	mov	r3, r2
 80036a6:	f043 0280 	orr.w	r2, r3, #128	; 0x80
 80036aa:	68bb      	ldr	r3, [r7, #8]
 80036ac:	685b      	ldr	r3, [r3, #4]
 80036ae:	3314      	adds	r3, #20
 80036b0:	601a      	str	r2, [r3, #0]
 80036b2:	f107 0308 	add.w	r3, r7, #8
 80036b6:	469c      	mov	ip, r3
 80036b8:	f7ff ffc8 	bl	800364c <stm32__usarts__enable_dma_transmit_requests___postconditions.4889>
 80036bc:	3710      	adds	r7, #16
 80036be:	46bd      	mov	sp, r7
 80036c0:	bd80      	pop	{r7, pc}
 80036c2:	bf00      	nop

080036c4 <stm32__usarts__enable_dma_receive_requests___postconditions.4893>:
 80036c4:	b5b0      	push	{r4, r5, r7, lr}
 80036c6:	b082      	sub	sp, #8
 80036c8:	af00      	add	r7, sp, #0
 80036ca:	4663      	mov	r3, ip
 80036cc:	f8c7 c004 	str.w	ip, [r7, #4]
 80036d0:	681b      	ldr	r3, [r3, #0]
 80036d2:	4618      	mov	r0, r3
 80036d4:	f000 f8b0 	bl	8003838 <stm32__usarts__dma_receive_requests_enabled>
 80036d8:	4603      	mov	r3, r0
 80036da:	f083 0301 	eor.w	r3, r3, #1
 80036de:	b2db      	uxtb	r3, r3
 80036e0:	2b00      	cmp	r3, #0
 80036e2:	d005      	beq.n	80036f0 <stm32__usarts__enable_dma_receive_requests___postconditions.4893+0x2c>
 80036e4:	4c04      	ldr	r4, [pc, #16]	; (80036f8 <stm32__usarts__enable_dma_receive_requests___postconditions.4893+0x34>)
 80036e6:	4d05      	ldr	r5, [pc, #20]	; (80036fc <stm32__usarts__enable_dma_receive_requests___postconditions.4893+0x38>)
 80036e8:	4620      	mov	r0, r4
 80036ea:	4629      	mov	r1, r5
 80036ec:	f006 fac8 	bl	8009c80 <system__assertions__raise_assert_failure>
 80036f0:	3708      	adds	r7, #8
 80036f2:	46bd      	mov	sp, r7
 80036f4:	bdb0      	pop	{r4, r5, r7, pc}
 80036f6:	bf00      	nop
 80036f8:	0800b1a8 	.word	0x0800b1a8
 80036fc:	0800b140 	.word	0x0800b140

08003700 <stm32__usarts__enable_dma_receive_requests>:
 8003700:	b580      	push	{r7, lr}
 8003702:	b084      	sub	sp, #16
 8003704:	af00      	add	r7, sp, #0
 8003706:	6078      	str	r0, [r7, #4]
 8003708:	f107 0318 	add.w	r3, r7, #24
 800370c:	60fb      	str	r3, [r7, #12]
 800370e:	687b      	ldr	r3, [r7, #4]
 8003710:	60bb      	str	r3, [r7, #8]
 8003712:	68bb      	ldr	r3, [r7, #8]
 8003714:	685b      	ldr	r3, [r3, #4]
 8003716:	3314      	adds	r3, #20
 8003718:	681b      	ldr	r3, [r3, #0]
 800371a:	461a      	mov	r2, r3
 800371c:	4613      	mov	r3, r2
 800371e:	f043 0240 	orr.w	r2, r3, #64	; 0x40
 8003722:	68bb      	ldr	r3, [r7, #8]
 8003724:	685b      	ldr	r3, [r3, #4]
 8003726:	3314      	adds	r3, #20
 8003728:	601a      	str	r2, [r3, #0]
 800372a:	f107 0308 	add.w	r3, r7, #8
 800372e:	469c      	mov	ip, r3
 8003730:	f7ff ffc8 	bl	80036c4 <stm32__usarts__enable_dma_receive_requests___postconditions.4893>
 8003734:	3710      	adds	r7, #16
 8003736:	46bd      	mov	sp, r7
 8003738:	bd80      	pop	{r7, pc}
 800373a:	bf00      	nop

0800373c <stm32__usarts__disable_dma_transmit_requests___postconditions.4897>:
 800373c:	b5b0      	push	{r4, r5, r7, lr}
 800373e:	b082      	sub	sp, #8
 8003740:	af00      	add	r7, sp, #0
 8003742:	4663      	mov	r3, ip
 8003744:	f8c7 c004 	str.w	ip, [r7, #4]
 8003748:	681b      	ldr	r3, [r3, #0]
 800374a:	4618      	mov	r0, r3
 800374c:	f000 f862 	bl	8003814 <stm32__usarts__dma_transmit_requests_enabled>
 8003750:	4603      	mov	r3, r0
 8003752:	2b00      	cmp	r3, #0
 8003754:	d005      	beq.n	8003762 <stm32__usarts__disable_dma_transmit_requests___postconditions.4897+0x26>
 8003756:	4c04      	ldr	r4, [pc, #16]	; (8003768 <stm32__usarts__disable_dma_transmit_requests___postconditions.4897+0x2c>)
 8003758:	4d04      	ldr	r5, [pc, #16]	; (800376c <stm32__usarts__disable_dma_transmit_requests___postconditions.4897+0x30>)
 800375a:	4620      	mov	r0, r4
 800375c:	4629      	mov	r1, r5
 800375e:	f006 fa8f 	bl	8009c80 <system__assertions__raise_assert_failure>
 8003762:	3708      	adds	r7, #8
 8003764:	46bd      	mov	sp, r7
 8003766:	bdb0      	pop	{r4, r5, r7, pc}
 8003768:	0800b1d8 	.word	0x0800b1d8
 800376c:	0800b140 	.word	0x0800b140

08003770 <stm32__usarts__disable_dma_transmit_requests>:
 8003770:	b580      	push	{r7, lr}
 8003772:	b084      	sub	sp, #16
 8003774:	af00      	add	r7, sp, #0
 8003776:	6078      	str	r0, [r7, #4]
 8003778:	f107 0318 	add.w	r3, r7, #24
 800377c:	60fb      	str	r3, [r7, #12]
 800377e:	687b      	ldr	r3, [r7, #4]
 8003780:	60bb      	str	r3, [r7, #8]
 8003782:	68bb      	ldr	r3, [r7, #8]
 8003784:	685b      	ldr	r3, [r3, #4]
 8003786:	3314      	adds	r3, #20
 8003788:	681b      	ldr	r3, [r3, #0]
 800378a:	f36f 13c7 	bfc	r3, #7, #1
 800378e:	68ba      	ldr	r2, [r7, #8]
 8003790:	6852      	ldr	r2, [r2, #4]
 8003792:	3214      	adds	r2, #20
 8003794:	6013      	str	r3, [r2, #0]
 8003796:	f107 0308 	add.w	r3, r7, #8
 800379a:	469c      	mov	ip, r3
 800379c:	f7ff ffce 	bl	800373c <stm32__usarts__disable_dma_transmit_requests___postconditions.4897>
 80037a0:	3710      	adds	r7, #16
 80037a2:	46bd      	mov	sp, r7
 80037a4:	bd80      	pop	{r7, pc}
 80037a6:	bf00      	nop

080037a8 <stm32__usarts__disable_dma_receive_requests___postconditions.4901>:
 80037a8:	b5b0      	push	{r4, r5, r7, lr}
 80037aa:	b082      	sub	sp, #8
 80037ac:	af00      	add	r7, sp, #0
 80037ae:	4663      	mov	r3, ip
 80037b0:	f8c7 c004 	str.w	ip, [r7, #4]
 80037b4:	681b      	ldr	r3, [r3, #0]
 80037b6:	4618      	mov	r0, r3
 80037b8:	f000 f83e 	bl	8003838 <stm32__usarts__dma_receive_requests_enabled>
 80037bc:	4603      	mov	r3, r0
 80037be:	2b00      	cmp	r3, #0
 80037c0:	d005      	beq.n	80037ce <stm32__usarts__disable_dma_receive_requests___postconditions.4901+0x26>
 80037c2:	4c04      	ldr	r4, [pc, #16]	; (80037d4 <stm32__usarts__disable_dma_receive_requests___postconditions.4901+0x2c>)
 80037c4:	4d04      	ldr	r5, [pc, #16]	; (80037d8 <stm32__usarts__disable_dma_receive_requests___postconditions.4901+0x30>)
 80037c6:	4620      	mov	r0, r4
 80037c8:	4629      	mov	r1, r5
 80037ca:	f006 fa59 	bl	8009c80 <system__assertions__raise_assert_failure>
 80037ce:	3708      	adds	r7, #8
 80037d0:	46bd      	mov	sp, r7
 80037d2:	bdb0      	pop	{r4, r5, r7, pc}
 80037d4:	0800b208 	.word	0x0800b208
 80037d8:	0800b140 	.word	0x0800b140

080037dc <stm32__usarts__disable_dma_receive_requests>:
 80037dc:	b580      	push	{r7, lr}
 80037de:	b084      	sub	sp, #16
 80037e0:	af00      	add	r7, sp, #0
 80037e2:	6078      	str	r0, [r7, #4]
 80037e4:	f107 0318 	add.w	r3, r7, #24
 80037e8:	60fb      	str	r3, [r7, #12]
 80037ea:	687b      	ldr	r3, [r7, #4]
 80037ec:	60bb      	str	r3, [r7, #8]
 80037ee:	68bb      	ldr	r3, [r7, #8]
 80037f0:	685b      	ldr	r3, [r3, #4]
 80037f2:	3314      	adds	r3, #20
 80037f4:	681b      	ldr	r3, [r3, #0]
 80037f6:	f36f 1386 	bfc	r3, #6, #1
 80037fa:	68ba      	ldr	r2, [r7, #8]
 80037fc:	6852      	ldr	r2, [r2, #4]
 80037fe:	3214      	adds	r2, #20
 8003800:	6013      	str	r3, [r2, #0]
 8003802:	f107 0308 	add.w	r3, r7, #8
 8003806:	469c      	mov	ip, r3
 8003808:	f7ff ffce 	bl	80037a8 <stm32__usarts__disable_dma_receive_requests___postconditions.4901>
 800380c:	3710      	adds	r7, #16
 800380e:	46bd      	mov	sp, r7
 8003810:	bd80      	pop	{r7, pc}
 8003812:	bf00      	nop

08003814 <stm32__usarts__dma_transmit_requests_enabled>:
 8003814:	b480      	push	{r7}
 8003816:	b083      	sub	sp, #12
 8003818:	af00      	add	r7, sp, #0
 800381a:	6078      	str	r0, [r7, #4]
 800381c:	687b      	ldr	r3, [r7, #4]
 800381e:	685b      	ldr	r3, [r3, #4]
 8003820:	3314      	adds	r3, #20
 8003822:	681b      	ldr	r3, [r3, #0]
 8003824:	f3c3 13c0 	ubfx	r3, r3, #7, #1
 8003828:	b2db      	uxtb	r3, r3
 800382a:	bf00      	nop
 800382c:	4618      	mov	r0, r3
 800382e:	370c      	adds	r7, #12
 8003830:	46bd      	mov	sp, r7
 8003832:	f85d 7b04 	ldr.w	r7, [sp], #4
 8003836:	4770      	bx	lr

08003838 <stm32__usarts__dma_receive_requests_enabled>:
 8003838:	b480      	push	{r7}
 800383a:	b083      	sub	sp, #12
 800383c:	af00      	add	r7, sp, #0
 800383e:	6078      	str	r0, [r7, #4]
 8003840:	687b      	ldr	r3, [r7, #4]
 8003842:	685b      	ldr	r3, [r3, #4]
 8003844:	3314      	adds	r3, #20
 8003846:	681b      	ldr	r3, [r3, #0]
 8003848:	f3c3 1380 	ubfx	r3, r3, #6, #1
 800384c:	b2db      	uxtb	r3, r3
 800384e:	bf00      	nop
 8003850:	4618      	mov	r0, r3
 8003852:	370c      	adds	r7, #12
 8003854:	46bd      	mov	sp, r7
 8003856:	f85d 7b04 	ldr.w	r7, [sp], #4
 800385a:	4770      	bx	lr

0800385c <stm32__usarts__resume_dma_transmission___postconditions.4907>:
 800385c:	e92d 41f0 	stmdb	sp!, {r4, r5, r6, r7, r8, lr}
 8003860:	b082      	sub	sp, #8
 8003862:	af00      	add	r7, sp, #0
 8003864:	4664      	mov	r4, ip
 8003866:	f8c7 c004 	str.w	ip, [r7, #4]
 800386a:	6823      	ldr	r3, [r4, #0]
 800386c:	4618      	mov	r0, r3
 800386e:	f7ff ffd1 	bl	8003814 <stm32__usarts__dma_transmit_requests_enabled>
 8003872:	4603      	mov	r3, r0
 8003874:	f083 0301 	eor.w	r3, r3, #1
 8003878:	fa5f f883 	uxtb.w	r8, r3
 800387c:	6823      	ldr	r3, [r4, #0]
 800387e:	4618      	mov	r0, r3
 8003880:	f7ff f9fe 	bl	8002c80 <stm32__usarts__enabled>
 8003884:	4603      	mov	r3, r0
 8003886:	f083 0301 	eor.w	r3, r3, #1
 800388a:	b2db      	uxtb	r3, r3
 800388c:	ea48 0303 	orr.w	r3, r8, r3
 8003890:	b2db      	uxtb	r3, r3
 8003892:	2b00      	cmp	r3, #0
 8003894:	d005      	beq.n	80038a2 <stm32__usarts__resume_dma_transmission___postconditions.4907+0x46>
 8003896:	4d05      	ldr	r5, [pc, #20]	; (80038ac <stm32__usarts__resume_dma_transmission___postconditions.4907+0x50>)
 8003898:	4e05      	ldr	r6, [pc, #20]	; (80038b0 <stm32__usarts__resume_dma_transmission___postconditions.4907+0x54>)
 800389a:	4628      	mov	r0, r5
 800389c:	4631      	mov	r1, r6
 800389e:	f006 f9ef 	bl	8009c80 <system__assertions__raise_assert_failure>
 80038a2:	3708      	adds	r7, #8
 80038a4:	46bd      	mov	sp, r7
 80038a6:	e8bd 81f0 	ldmia.w	sp!, {r4, r5, r6, r7, r8, pc}
 80038aa:	bf00      	nop
 80038ac:	0800b238 	.word	0x0800b238
 80038b0:	0800b140 	.word	0x0800b140

080038b4 <stm32__usarts__resume_dma_transmission>:
 80038b4:	b580      	push	{r7, lr}
 80038b6:	b084      	sub	sp, #16
 80038b8:	af00      	add	r7, sp, #0
 80038ba:	6078      	str	r0, [r7, #4]
 80038bc:	f107 0318 	add.w	r3, r7, #24
 80038c0:	60fb      	str	r3, [r7, #12]
 80038c2:	687b      	ldr	r3, [r7, #4]
 80038c4:	60bb      	str	r3, [r7, #8]
 80038c6:	68bb      	ldr	r3, [r7, #8]
 80038c8:	4618      	mov	r0, r3
 80038ca:	f7ff fedd 	bl	8003688 <stm32__usarts__enable_dma_transmit_requests>
 80038ce:	68bb      	ldr	r3, [r7, #8]
 80038d0:	4618      	mov	r0, r3
 80038d2:	f7ff f9d5 	bl	8002c80 <stm32__usarts__enabled>
 80038d6:	4603      	mov	r3, r0
 80038d8:	f083 0301 	eor.w	r3, r3, #1
 80038dc:	b2db      	uxtb	r3, r3
 80038de:	2b00      	cmp	r3, #0
 80038e0:	d003      	beq.n	80038ea <stm32__usarts__resume_dma_transmission+0x36>
 80038e2:	68bb      	ldr	r3, [r7, #8]
 80038e4:	4618      	mov	r0, r3
 80038e6:	f7ff f977 	bl	8002bd8 <stm32__usarts__enable>
 80038ea:	f107 0308 	add.w	r3, r7, #8
 80038ee:	469c      	mov	ip, r3
 80038f0:	f7ff ffb4 	bl	800385c <stm32__usarts__resume_dma_transmission___postconditions.4907>
 80038f4:	3710      	adds	r7, #16
 80038f6:	46bd      	mov	sp, r7
 80038f8:	bd80      	pop	{r7, pc}
 80038fa:	bf00      	nop

080038fc <stm32__usarts__resume_dma_reception___postconditions.4911>:
 80038fc:	e92d 41f0 	stmdb	sp!, {r4, r5, r6, r7, r8, lr}
 8003900:	b082      	sub	sp, #8
 8003902:	af00      	add	r7, sp, #0
 8003904:	4664      	mov	r4, ip
 8003906:	f8c7 c004 	str.w	ip, [r7, #4]
 800390a:	6823      	ldr	r3, [r4, #0]
 800390c:	4618      	mov	r0, r3
 800390e:	f7ff ff93 	bl	8003838 <stm32__usarts__dma_receive_requests_enabled>
 8003912:	4603      	mov	r3, r0
 8003914:	f083 0301 	eor.w	r3, r3, #1
 8003918:	fa5f f883 	uxtb.w	r8, r3
 800391c:	6823      	ldr	r3, [r4, #0]
 800391e:	4618      	mov	r0, r3
 8003920:	f7ff f9ae 	bl	8002c80 <stm32__usarts__enabled>
 8003924:	4603      	mov	r3, r0
 8003926:	f083 0301 	eor.w	r3, r3, #1
 800392a:	b2db      	uxtb	r3, r3
 800392c:	ea48 0303 	orr.w	r3, r8, r3
 8003930:	b2db      	uxtb	r3, r3
 8003932:	2b00      	cmp	r3, #0
 8003934:	d005      	beq.n	8003942 <stm32__usarts__resume_dma_reception___postconditions.4911+0x46>
 8003936:	4d05      	ldr	r5, [pc, #20]	; (800394c <stm32__usarts__resume_dma_reception___postconditions.4911+0x50>)
 8003938:	4e05      	ldr	r6, [pc, #20]	; (8003950 <stm32__usarts__resume_dma_reception___postconditions.4911+0x54>)
 800393a:	4628      	mov	r0, r5
 800393c:	4631      	mov	r1, r6
 800393e:	f006 f99f 	bl	8009c80 <system__assertions__raise_assert_failure>
 8003942:	3708      	adds	r7, #8
 8003944:	46bd      	mov	sp, r7
 8003946:	e8bd 81f0 	ldmia.w	sp!, {r4, r5, r6, r7, r8, pc}
 800394a:	bf00      	nop
 800394c:	0800b268 	.word	0x0800b268
 8003950:	0800b140 	.word	0x0800b140

08003954 <stm32__usarts__resume_dma_reception>:
 8003954:	b580      	push	{r7, lr}
 8003956:	b084      	sub	sp, #16
 8003958:	af00      	add	r7, sp, #0
 800395a:	6078      	str	r0, [r7, #4]
 800395c:	f107 0318 	add.w	r3, r7, #24
 8003960:	60fb      	str	r3, [r7, #12]
 8003962:	687b      	ldr	r3, [r7, #4]
 8003964:	60bb      	str	r3, [r7, #8]
 8003966:	68bb      	ldr	r3, [r7, #8]
 8003968:	4618      	mov	r0, r3
 800396a:	f7ff fec9 	bl	8003700 <stm32__usarts__enable_dma_receive_requests>
 800396e:	68bb      	ldr	r3, [r7, #8]
 8003970:	4618      	mov	r0, r3
 8003972:	f7ff f985 	bl	8002c80 <stm32__usarts__enabled>
 8003976:	4603      	mov	r3, r0
 8003978:	f083 0301 	eor.w	r3, r3, #1
 800397c:	b2db      	uxtb	r3, r3
 800397e:	2b00      	cmp	r3, #0
 8003980:	d003      	beq.n	800398a <stm32__usarts__resume_dma_reception+0x36>
 8003982:	68bb      	ldr	r3, [r7, #8]
 8003984:	4618      	mov	r0, r3
 8003986:	f7ff f927 	bl	8002bd8 <stm32__usarts__enable>
 800398a:	f107 0308 	add.w	r3, r7, #8
 800398e:	469c      	mov	ip, r3
 8003990:	f7ff ffb4 	bl	80038fc <stm32__usarts__resume_dma_reception___postconditions.4911>
 8003994:	3710      	adds	r7, #16
 8003996:	46bd      	mov	sp, r7
 8003998:	bd80      	pop	{r7, pc}
 800399a:	bf00      	nop

0800399c <stm32__usarts__data_register_address>:
 800399c:	b480      	push	{r7}
 800399e:	b083      	sub	sp, #12
 80039a0:	af00      	add	r7, sp, #0
 80039a2:	6078      	str	r0, [r7, #4]
 80039a4:	687b      	ldr	r3, [r7, #4]
 80039a6:	685b      	ldr	r3, [r3, #4]
 80039a8:	3304      	adds	r3, #4
 80039aa:	bf00      	nop
 80039ac:	4618      	mov	r0, r3
 80039ae:	370c      	adds	r7, #12
 80039b0:	46bd      	mov	sp, r7
 80039b2:	f85d 7b04 	ldr.w	r7, [sp], #4
 80039b6:	4770      	bx	lr

080039b8 <stm32__usarts__data_size>:
 80039b8:	b480      	push	{r7}
 80039ba:	b083      	sub	sp, #12
 80039bc:	af00      	add	r7, sp, #0
 80039be:	6078      	str	r0, [r7, #4]
 80039c0:	687b      	ldr	r3, [r7, #4]
 80039c2:	685b      	ldr	r3, [r3, #4]
 80039c4:	330c      	adds	r3, #12
 80039c6:	681b      	ldr	r3, [r3, #0]
 80039c8:	f3c3 3300 	ubfx	r3, r3, #12, #1
 80039cc:	b2db      	uxtb	r3, r3
 80039ce:	2b00      	cmp	r3, #0
 80039d0:	d001      	beq.n	80039d6 <stm32__usarts__data_size+0x1e>
 80039d2:	2301      	movs	r3, #1
 80039d4:	e000      	b.n	80039d8 <stm32__usarts__data_size+0x20>
 80039d6:	2300      	movs	r3, #0
 80039d8:	bf00      	nop
 80039da:	4618      	mov	r0, r3
 80039dc:	370c      	adds	r7, #12
 80039de:	46bd      	mov	sp, r7
 80039e0:	f85d 7b04 	ldr.w	r7, [sp], #4
 80039e4:	4770      	bx	lr
 80039e6:	bf00      	nop

080039e8 <stm32__usarts__transmit__2>:
 80039e8:	e92d 43f0 	stmdb	sp!, {r4, r5, r6, r7, r8, r9, lr}
 80039ec:	b087      	sub	sp, #28
 80039ee:	af00      	add	r7, sp, #0
 80039f0:	60f8      	str	r0, [r7, #12]
 80039f2:	e9c7 2300 	strd	r2, r3, [r7]
 80039f6:	687b      	ldr	r3, [r7, #4]
 80039f8:	681c      	ldr	r4, [r3, #0]
 80039fa:	687b      	ldr	r3, [r7, #4]
 80039fc:	685d      	ldr	r5, [r3, #4]
 80039fe:	68f8      	ldr	r0, [r7, #12]
 8003a00:	f7ff ffda 	bl	80039b8 <stm32__usarts__data_size>
 8003a04:	4603      	mov	r3, r0
 8003a06:	2b00      	cmp	r3, #0
 8003a08:	d00d      	beq.n	8003a26 <stm32__usarts__transmit__2+0x3e>
 8003a0a:	68f8      	ldr	r0, [r7, #12]
 8003a0c:	f7ff ffd4 	bl	80039b8 <stm32__usarts__data_size>
 8003a10:	4603      	mov	r3, r0
 8003a12:	2b00      	cmp	r3, #0
 8003a14:	d007      	beq.n	8003a26 <stm32__usarts__transmit__2+0x3e>
 8003a16:	f8df 805c 	ldr.w	r8, [pc, #92]	; 8003a74 <stm32__usarts__transmit__2+0x8c>
 8003a1a:	f8df 905c 	ldr.w	r9, [pc, #92]	; 8003a78 <stm32__usarts__transmit__2+0x90>
 8003a1e:	4640      	mov	r0, r8
 8003a20:	4649      	mov	r1, r9
 8003a22:	f006 f92d 	bl	8009c80 <system__assertions__raise_assert_failure>
 8003a26:	4626      	mov	r6, r4
 8003a28:	42ac      	cmp	r4, r5
 8003a2a:	dc19      	bgt.n	8003a60 <stm32__usarts__transmit__2+0x78>
 8003a2c:	683a      	ldr	r2, [r7, #0]
 8003a2e:	46a0      	mov	r8, r4
 8003a30:	ebc6 0308 	rsb	r3, r6, r8
 8003a34:	4413      	add	r3, r2
 8003a36:	617b      	str	r3, [r7, #20]
 8003a38:	68f8      	ldr	r0, [r7, #12]
 8003a3a:	f7ff fb31 	bl	80030a0 <stm32__usarts__tx_ready>
 8003a3e:	4603      	mov	r3, r0
 8003a40:	2b00      	cmp	r3, #0
 8003a42:	d100      	bne.n	8003a46 <stm32__usarts__transmit__2+0x5e>
 8003a44:	e7f8      	b.n	8003a38 <stm32__usarts__transmit__2+0x50>
 8003a46:	683a      	ldr	r2, [r7, #0]
 8003a48:	ebc6 0308 	rsb	r3, r6, r8
 8003a4c:	5cd3      	ldrb	r3, [r2, r3]
 8003a4e:	b29b      	uxth	r3, r3
 8003a50:	68f8      	ldr	r0, [r7, #12]
 8003a52:	4619      	mov	r1, r3
 8003a54:	f7ff fae8 	bl	8003028 <stm32__usarts__transmit>
 8003a58:	42ac      	cmp	r4, r5
 8003a5a:	d001      	beq.n	8003a60 <stm32__usarts__transmit__2+0x78>
 8003a5c:	3401      	adds	r4, #1
 8003a5e:	e7e5      	b.n	8003a2c <stm32__usarts__transmit__2+0x44>
 8003a60:	2300      	movs	r3, #0
 8003a62:	74fb      	strb	r3, [r7, #19]
 8003a64:	7cfb      	ldrb	r3, [r7, #19]
 8003a66:	bf00      	nop
 8003a68:	4618      	mov	r0, r3
 8003a6a:	371c      	adds	r7, #28
 8003a6c:	46bd      	mov	sp, r7
 8003a6e:	e8bd 83f0 	ldmia.w	sp!, {r4, r5, r6, r7, r8, r9, pc}
 8003a72:	bf00      	nop
 8003a74:	0800b298 	.word	0x0800b298
 8003a78:	0800b300 	.word	0x0800b300

08003a7c <stm32__usarts__transmit__3>:
 8003a7c:	e92d 43f0 	stmdb	sp!, {r4, r5, r6, r7, r8, r9, lr}
 8003a80:	b087      	sub	sp, #28
 8003a82:	af00      	add	r7, sp, #0
 8003a84:	60f8      	str	r0, [r7, #12]
 8003a86:	e9c7 2300 	strd	r2, r3, [r7]
 8003a8a:	687b      	ldr	r3, [r7, #4]
 8003a8c:	681c      	ldr	r4, [r3, #0]
 8003a8e:	687b      	ldr	r3, [r7, #4]
 8003a90:	685d      	ldr	r5, [r3, #4]
 8003a92:	68f8      	ldr	r0, [r7, #12]
 8003a94:	f7ff ff90 	bl	80039b8 <stm32__usarts__data_size>
 8003a98:	4603      	mov	r3, r0
 8003a9a:	2b01      	cmp	r3, #1
 8003a9c:	d00d      	beq.n	8003aba <stm32__usarts__transmit__3+0x3e>
 8003a9e:	68f8      	ldr	r0, [r7, #12]
 8003aa0:	f7ff ff8a 	bl	80039b8 <stm32__usarts__data_size>
 8003aa4:	4603      	mov	r3, r0
 8003aa6:	2b01      	cmp	r3, #1
 8003aa8:	d007      	beq.n	8003aba <stm32__usarts__transmit__3+0x3e>
 8003aaa:	f8df 805c 	ldr.w	r8, [pc, #92]	; 8003b08 <stm32__usarts__transmit__3+0x8c>
 8003aae:	f8df 905c 	ldr.w	r9, [pc, #92]	; 8003b0c <stm32__usarts__transmit__3+0x90>
 8003ab2:	4640      	mov	r0, r8
 8003ab4:	4649      	mov	r1, r9
 8003ab6:	f006 f8e3 	bl	8009c80 <system__assertions__raise_assert_failure>
 8003aba:	4626      	mov	r6, r4
 8003abc:	42ac      	cmp	r4, r5
 8003abe:	dc1a      	bgt.n	8003af6 <stm32__usarts__transmit__3+0x7a>
 8003ac0:	683a      	ldr	r2, [r7, #0]
 8003ac2:	46a0      	mov	r8, r4
 8003ac4:	ebc6 0308 	rsb	r3, r6, r8
 8003ac8:	005b      	lsls	r3, r3, #1
 8003aca:	4413      	add	r3, r2
 8003acc:	617b      	str	r3, [r7, #20]
 8003ace:	68f8      	ldr	r0, [r7, #12]
 8003ad0:	f7ff fae6 	bl	80030a0 <stm32__usarts__tx_ready>
 8003ad4:	4603      	mov	r3, r0
 8003ad6:	2b00      	cmp	r3, #0
 8003ad8:	d100      	bne.n	8003adc <stm32__usarts__transmit__3+0x60>
 8003ada:	e7f8      	b.n	8003ace <stm32__usarts__transmit__3+0x52>
 8003adc:	683b      	ldr	r3, [r7, #0]
 8003ade:	ebc6 0208 	rsb	r2, r6, r8
 8003ae2:	f833 3012 	ldrh.w	r3, [r3, r2, lsl #1]
 8003ae6:	68f8      	ldr	r0, [r7, #12]
 8003ae8:	4619      	mov	r1, r3
 8003aea:	f7ff fa9d 	bl	8003028 <stm32__usarts__transmit>
 8003aee:	42ac      	cmp	r4, r5
 8003af0:	d001      	beq.n	8003af6 <stm32__usarts__transmit__3+0x7a>
 8003af2:	3401      	adds	r4, #1
 8003af4:	e7e4      	b.n	8003ac0 <stm32__usarts__transmit__3+0x44>
 8003af6:	2300      	movs	r3, #0
 8003af8:	74fb      	strb	r3, [r7, #19]
 8003afa:	7cfb      	ldrb	r3, [r7, #19]
 8003afc:	bf00      	nop
 8003afe:	4618      	mov	r0, r3
 8003b00:	371c      	adds	r7, #28
 8003b02:	46bd      	mov	sp, r7
 8003b04:	e8bd 83f0 	ldmia.w	sp!, {r4, r5, r6, r7, r8, r9, pc}
 8003b08:	0800b308 	.word	0x0800b308
 8003b0c:	0800b300 	.word	0x0800b300

08003b10 <stm32__usarts__receive__2>:
 8003b10:	e92d 41f0 	stmdb	sp!, {r4, r5, r6, r7, r8, lr}
 8003b14:	b086      	sub	sp, #24
 8003b16:	af00      	add	r7, sp, #0
 8003b18:	60f8      	str	r0, [r7, #12]
 8003b1a:	e9c7 2300 	strd	r2, r3, [r7]
 8003b1e:	68f8      	ldr	r0, [r7, #12]
 8003b20:	f7ff ff4a 	bl	80039b8 <stm32__usarts__data_size>
 8003b24:	4603      	mov	r3, r0
 8003b26:	2b00      	cmp	r3, #0
 8003b28:	d00b      	beq.n	8003b42 <stm32__usarts__receive__2+0x32>
 8003b2a:	68f8      	ldr	r0, [r7, #12]
 8003b2c:	f7ff ff44 	bl	80039b8 <stm32__usarts__data_size>
 8003b30:	4603      	mov	r3, r0
 8003b32:	2b00      	cmp	r3, #0
 8003b34:	d005      	beq.n	8003b42 <stm32__usarts__receive__2+0x32>
 8003b36:	4c1c      	ldr	r4, [pc, #112]	; (8003ba8 <stm32__usarts__receive__2+0x98>)
 8003b38:	4d1c      	ldr	r5, [pc, #112]	; (8003bac <stm32__usarts__receive__2+0x9c>)
 8003b3a:	4620      	mov	r0, r4
 8003b3c:	4629      	mov	r1, r5
 8003b3e:	f006 f89f 	bl	8009c80 <system__assertions__raise_assert_failure>
 8003b42:	687b      	ldr	r3, [r7, #4]
 8003b44:	681b      	ldr	r3, [r3, #0]
 8003b46:	461e      	mov	r6, r3
 8003b48:	687b      	ldr	r3, [r7, #4]
 8003b4a:	681c      	ldr	r4, [r3, #0]
 8003b4c:	687b      	ldr	r3, [r7, #4]
 8003b4e:	685d      	ldr	r5, [r3, #4]
 8003b50:	42ac      	cmp	r4, r5
 8003b52:	dc20      	bgt.n	8003b96 <stm32__usarts__receive__2+0x86>
 8003b54:	683a      	ldr	r2, [r7, #0]
 8003b56:	46a0      	mov	r8, r4
 8003b58:	ebc6 0308 	rsb	r3, r6, r8
 8003b5c:	4413      	add	r3, r2
 8003b5e:	617b      	str	r3, [r7, #20]
 8003b60:	68f8      	ldr	r0, [r7, #12]
 8003b62:	f7ff faaf 	bl	80030c4 <stm32__usarts__rx_ready>
 8003b66:	4603      	mov	r3, r0
 8003b68:	2b00      	cmp	r3, #0
 8003b6a:	d100      	bne.n	8003b6e <stm32__usarts__receive__2+0x5e>
 8003b6c:	e7f8      	b.n	8003b60 <stm32__usarts__receive__2+0x50>
 8003b6e:	68f8      	ldr	r0, [r7, #12]
 8003b70:	f7ff fa74 	bl	800305c <stm32__usarts__receive>
 8003b74:	4603      	mov	r3, r0
 8003b76:	2bff      	cmp	r3, #255	; 0xff
 8003b78:	d904      	bls.n	8003b84 <stm32__usarts__receive__2+0x74>
 8003b7a:	480d      	ldr	r0, [pc, #52]	; (8003bb0 <stm32__usarts__receive__2+0xa0>)
 8003b7c:	f240 2127 	movw	r1, #551	; 0x227
 8003b80:	f7fd fcfc 	bl	800157c <__gnat_last_chance_handler>
 8003b84:	683a      	ldr	r2, [r7, #0]
 8003b86:	b2d9      	uxtb	r1, r3
 8003b88:	ebc6 0308 	rsb	r3, r6, r8
 8003b8c:	54d1      	strb	r1, [r2, r3]
 8003b8e:	42ac      	cmp	r4, r5
 8003b90:	d001      	beq.n	8003b96 <stm32__usarts__receive__2+0x86>
 8003b92:	3401      	adds	r4, #1
 8003b94:	e7de      	b.n	8003b54 <stm32__usarts__receive__2+0x44>
 8003b96:	2300      	movs	r3, #0
 8003b98:	74fb      	strb	r3, [r7, #19]
 8003b9a:	7cfb      	ldrb	r3, [r7, #19]
 8003b9c:	bf00      	nop
 8003b9e:	4618      	mov	r0, r3
 8003ba0:	3718      	adds	r7, #24
 8003ba2:	46bd      	mov	sp, r7
 8003ba4:	e8bd 81f0 	ldmia.w	sp!, {r4, r5, r6, r7, r8, pc}
 8003ba8:	0800b370 	.word	0x0800b370
 8003bac:	0800b300 	.word	0x0800b300
 8003bb0:	0800b0fc 	.word	0x0800b0fc

08003bb4 <stm32__usarts__receive__3>:
 8003bb4:	e92d 43f0 	stmdb	sp!, {r4, r5, r6, r7, r8, r9, lr}
 8003bb8:	b087      	sub	sp, #28
 8003bba:	af00      	add	r7, sp, #0
 8003bbc:	60f8      	str	r0, [r7, #12]
 8003bbe:	e9c7 2300 	strd	r2, r3, [r7]
 8003bc2:	68f8      	ldr	r0, [r7, #12]
 8003bc4:	f7ff fef8 	bl	80039b8 <stm32__usarts__data_size>
 8003bc8:	4603      	mov	r3, r0
 8003bca:	2b01      	cmp	r3, #1
 8003bcc:	d00b      	beq.n	8003be6 <stm32__usarts__receive__3+0x32>
 8003bce:	68f8      	ldr	r0, [r7, #12]
 8003bd0:	f7ff fef2 	bl	80039b8 <stm32__usarts__data_size>
 8003bd4:	4603      	mov	r3, r0
 8003bd6:	2b01      	cmp	r3, #1
 8003bd8:	d005      	beq.n	8003be6 <stm32__usarts__receive__3+0x32>
 8003bda:	4c1a      	ldr	r4, [pc, #104]	; (8003c44 <stm32__usarts__receive__3+0x90>)
 8003bdc:	4d1a      	ldr	r5, [pc, #104]	; (8003c48 <stm32__usarts__receive__3+0x94>)
 8003bde:	4620      	mov	r0, r4
 8003be0:	4629      	mov	r1, r5
 8003be2:	f006 f84d 	bl	8009c80 <system__assertions__raise_assert_failure>
 8003be6:	687b      	ldr	r3, [r7, #4]
 8003be8:	681b      	ldr	r3, [r3, #0]
 8003bea:	461e      	mov	r6, r3
 8003bec:	687b      	ldr	r3, [r7, #4]
 8003bee:	681c      	ldr	r4, [r3, #0]
 8003bf0:	687b      	ldr	r3, [r7, #4]
 8003bf2:	685d      	ldr	r5, [r3, #4]
 8003bf4:	42ac      	cmp	r4, r5
 8003bf6:	dc1c      	bgt.n	8003c32 <stm32__usarts__receive__3+0x7e>
 8003bf8:	683a      	ldr	r2, [r7, #0]
 8003bfa:	46a0      	mov	r8, r4
 8003bfc:	ebc6 0308 	rsb	r3, r6, r8
 8003c00:	005b      	lsls	r3, r3, #1
 8003c02:	4413      	add	r3, r2
 8003c04:	617b      	str	r3, [r7, #20]
 8003c06:	68f8      	ldr	r0, [r7, #12]
 8003c08:	f7ff fa5c 	bl	80030c4 <stm32__usarts__rx_ready>
 8003c0c:	4603      	mov	r3, r0
 8003c0e:	2b00      	cmp	r3, #0
 8003c10:	d100      	bne.n	8003c14 <stm32__usarts__receive__3+0x60>
 8003c12:	e7f8      	b.n	8003c06 <stm32__usarts__receive__3+0x52>
 8003c14:	f8d7 9000 	ldr.w	r9, [r7]
 8003c18:	68f8      	ldr	r0, [r7, #12]
 8003c1a:	f7ff fa1f 	bl	800305c <stm32__usarts__receive>
 8003c1e:	4603      	mov	r3, r0
 8003c20:	461a      	mov	r2, r3
 8003c22:	ebc6 0308 	rsb	r3, r6, r8
 8003c26:	f829 2013 	strh.w	r2, [r9, r3, lsl #1]
 8003c2a:	42ac      	cmp	r4, r5
 8003c2c:	d001      	beq.n	8003c32 <stm32__usarts__receive__3+0x7e>
 8003c2e:	3401      	adds	r4, #1
 8003c30:	e7e2      	b.n	8003bf8 <stm32__usarts__receive__3+0x44>
 8003c32:	2300      	movs	r3, #0
 8003c34:	74fb      	strb	r3, [r7, #19]
 8003c36:	7cfb      	ldrb	r3, [r7, #19]
 8003c38:	bf00      	nop
 8003c3a:	4618      	mov	r0, r3
 8003c3c:	371c      	adds	r7, #28
 8003c3e:	46bd      	mov	sp, r7
 8003c40:	e8bd 83f0 	ldmia.w	sp!, {r4, r5, r6, r7, r8, r9, pc}
 8003c44:	0800b3d8 	.word	0x0800b3d8
 8003c48:	0800b300 	.word	0x0800b300

08003c4c <stm32__i2c__i2c_configurationIP>:
 8003c4c:	b480      	push	{r7}
 8003c4e:	b083      	sub	sp, #12
 8003c50:	af00      	add	r7, sp, #0
 8003c52:	6078      	str	r0, [r7, #4]
 8003c54:	687b      	ldr	r3, [r7, #4]
 8003c56:	2200      	movs	r2, #0
 8003c58:	711a      	strb	r2, [r3, #4]
 8003c5a:	687b      	ldr	r3, [r7, #4]
 8003c5c:	2201      	movs	r2, #1
 8003c5e:	715a      	strb	r2, [r3, #5]
 8003c60:	687b      	ldr	r3, [r7, #4]
 8003c62:	2200      	movs	r2, #0
 8003c64:	729a      	strb	r2, [r3, #10]
 8003c66:	687b      	ldr	r3, [r7, #4]
 8003c68:	2201      	movs	r2, #1
 8003c6a:	72da      	strb	r2, [r3, #11]
 8003c6c:	370c      	adds	r7, #12
 8003c6e:	46bd      	mov	sp, r7
 8003c70:	f85d 7b04 	ldr.w	r7, [sp], #4
 8003c74:	4770      	bx	lr
 8003c76:	bf00      	nop

08003c78 <stm32__i2c__i2c_portIP>:
 8003c78:	b580      	push	{r7, lr}
 8003c7a:	b084      	sub	sp, #16
 8003c7c:	af00      	add	r7, sp, #0
 8003c7e:	60f8      	str	r0, [r7, #12]
 8003c80:	60b9      	str	r1, [r7, #8]
 8003c82:	4613      	mov	r3, r2
 8003c84:	71fb      	strb	r3, [r7, #7]
 8003c86:	79fb      	ldrb	r3, [r7, #7]
 8003c88:	2b00      	cmp	r3, #0
 8003c8a:	d002      	beq.n	8003c92 <stm32__i2c__i2c_portIP+0x1a>
 8003c8c:	68fb      	ldr	r3, [r7, #12]
 8003c8e:	4a08      	ldr	r2, [pc, #32]	; (8003cb0 <stm32__i2c__i2c_portIP+0x38>)
 8003c90:	601a      	str	r2, [r3, #0]
 8003c92:	68fb      	ldr	r3, [r7, #12]
 8003c94:	68ba      	ldr	r2, [r7, #8]
 8003c96:	605a      	str	r2, [r3, #4]
 8003c98:	68fb      	ldr	r3, [r7, #12]
 8003c9a:	3308      	adds	r3, #8
 8003c9c:	4618      	mov	r0, r3
 8003c9e:	f7ff ffd5 	bl	8003c4c <stm32__i2c__i2c_configurationIP>
 8003ca2:	68fb      	ldr	r3, [r7, #12]
 8003ca4:	2200      	movs	r2, #0
 8003ca6:	751a      	strb	r2, [r3, #20]
 8003ca8:	3710      	adds	r7, #16
 8003caa:	46bd      	mov	sp, r7
 8003cac:	bd80      	pop	{r7, pc}
 8003cae:	bf00      	nop
 8003cb0:	0800b494 	.word	0x0800b494

08003cb4 <stm32__i2c___size__2>:
 8003cb4:	b490      	push	{r4, r7}
 8003cb6:	b082      	sub	sp, #8
 8003cb8:	af00      	add	r7, sp, #0
 8003cba:	6078      	str	r0, [r7, #4]
 8003cbc:	f04f 03c0 	mov.w	r3, #192	; 0xc0
 8003cc0:	f04f 0400 	mov.w	r4, #0
 8003cc4:	4618      	mov	r0, r3
 8003cc6:	4621      	mov	r1, r4
 8003cc8:	3708      	adds	r7, #8
 8003cca:	46bd      	mov	sp, r7
 8003ccc:	bc90      	pop	{r4, r7}
 8003cce:	4770      	bx	lr

08003cd0 <stm32__i2c__configure___postconditions.4692>:
 8003cd0:	b5b0      	push	{r4, r5, r7, lr}
 8003cd2:	b082      	sub	sp, #8
 8003cd4:	af00      	add	r7, sp, #0
 8003cd6:	4663      	mov	r3, ip
 8003cd8:	f8c7 c004 	str.w	ip, [r7, #4]
 8003cdc:	681b      	ldr	r3, [r3, #0]
 8003cde:	4618      	mov	r0, r3
 8003ce0:	f001 ff22 	bl	8005b28 <stm32__i2c__port_enabled>
 8003ce4:	4603      	mov	r3, r0
 8003ce6:	f083 0301 	eor.w	r3, r3, #1
 8003cea:	b2db      	uxtb	r3, r3
 8003cec:	2b00      	cmp	r3, #0
 8003cee:	d005      	beq.n	8003cfc <stm32__i2c__configure___postconditions.4692+0x2c>
 8003cf0:	4c04      	ldr	r4, [pc, #16]	; (8003d04 <stm32__i2c__configure___postconditions.4692+0x34>)
 8003cf2:	4d05      	ldr	r5, [pc, #20]	; (8003d08 <stm32__i2c__configure___postconditions.4692+0x38>)
 8003cf4:	4620      	mov	r0, r4
 8003cf6:	4629      	mov	r1, r5
 8003cf8:	f005 ffc2 	bl	8009c80 <system__assertions__raise_assert_failure>
 8003cfc:	3708      	adds	r7, #8
 8003cfe:	46bd      	mov	sp, r7
 8003d00:	bdb0      	pop	{r4, r5, r7, pc}
 8003d02:	bf00      	nop
 8003d04:	0800b4bc 	.word	0x0800b4bc
 8003d08:	0800b4e8 	.word	0x0800b4e8

08003d0c <stm32__i2c__configure>:
 8003d0c:	e92d 47f0 	stmdb	sp!, {r4, r5, r6, r7, r8, r9, sl, lr}
 8003d10:	b09a      	sub	sp, #104	; 0x68
 8003d12:	af00      	add	r7, sp, #0
 8003d14:	6078      	str	r0, [r7, #4]
 8003d16:	6039      	str	r1, [r7, #0]
 8003d18:	f107 0388 	add.w	r3, r7, #136	; 0x88
 8003d1c:	617b      	str	r3, [r7, #20]
 8003d1e:	687b      	ldr	r3, [r7, #4]
 8003d20:	613b      	str	r3, [r7, #16]
 8003d22:	466b      	mov	r3, sp
 8003d24:	461e      	mov	r6, r3
 8003d26:	f107 0348 	add.w	r3, r7, #72	; 0x48
 8003d2a:	4618      	mov	r0, r3
 8003d2c:	f004 fc68 	bl	8008600 <stm32_svd__i2c__cr1_registerIP>
 8003d30:	f107 0344 	add.w	r3, r7, #68	; 0x44
 8003d34:	4618      	mov	r0, r3
 8003d36:	f004 fce5 	bl	8008704 <stm32_svd__i2c__ccr_registerIP>
 8003d3a:	f107 0340 	add.w	r3, r7, #64	; 0x40
 8003d3e:	4618      	mov	r0, r3
 8003d40:	f004 fcba 	bl	80086b8 <stm32_svd__i2c__oar1_registerIP>
 8003d44:	f107 0324 	add.w	r3, r7, #36	; 0x24
 8003d48:	4618      	mov	r0, r3
 8003d4a:	f7fd ffbf 	bl	8001ccc <stm32__device__system_clock_frequencies>
 8003d4e:	6afb      	ldr	r3, [r7, #44]	; 0x2c
 8003d50:	667b      	str	r3, [r7, #100]	; 0x64
 8003d52:	6e7b      	ldr	r3, [r7, #100]	; 0x64
 8003d54:	4ab0      	ldr	r2, [pc, #704]	; (8004018 <stm32__i2c__configure+0x30c>)
 8003d56:	fba2 2303 	umull	r2, r3, r2, r3
 8003d5a:	0c9b      	lsrs	r3, r3, #18
 8003d5c:	f8a7 3062 	strh.w	r3, [r7, #98]	; 0x62
 8003d60:	693b      	ldr	r3, [r7, #16]
 8003d62:	7d1b      	ldrb	r3, [r3, #20]
 8003d64:	2b00      	cmp	r3, #0
 8003d66:	d005      	beq.n	8003d74 <stm32__i2c__configure+0x68>
 8003d68:	f107 0310 	add.w	r3, r7, #16
 8003d6c:	469c      	mov	ip, r3
 8003d6e:	f7ff ffaf 	bl	8003cd0 <stm32__i2c__configure___postconditions.4692>
 8003d72:	e27f      	b.n	8004274 <stm32__i2c__configure+0x568>
 8003d74:	693b      	ldr	r3, [r7, #16]
 8003d76:	683a      	ldr	r2, [r7, #0]
 8003d78:	3308      	adds	r3, #8
 8003d7a:	ca07      	ldmia	r2, {r0, r1, r2}
 8003d7c:	e883 0007 	stmia.w	r3, {r0, r1, r2}
 8003d80:	f8b7 3062 	ldrh.w	r3, [r7, #98]	; 0x62
 8003d84:	2b01      	cmp	r3, #1
 8003d86:	d903      	bls.n	8003d90 <stm32__i2c__configure+0x84>
 8003d88:	f8b7 3062 	ldrh.w	r3, [r7, #98]	; 0x62
 8003d8c:	2b2d      	cmp	r3, #45	; 0x2d
 8003d8e:	d963      	bls.n	8003e58 <stm32__i2c__configure+0x14c>
 8003d90:	f8b7 3062 	ldrh.w	r3, [r7, #98]	; 0x62
 8003d94:	f107 021c 	add.w	r2, r7, #28
 8003d98:	4614      	mov	r4, r2
 8003d9a:	4da0      	ldr	r5, [pc, #640]	; (800401c <stm32__i2c__configure+0x310>)
 8003d9c:	4618      	mov	r0, r3
 8003d9e:	4622      	mov	r2, r4
 8003da0:	462b      	mov	r3, r5
 8003da2:	f005 fecb 	bl	8009b3c <system__img_uns__image_unsigned>
 8003da6:	4603      	mov	r3, r0
 8003da8:	ea23 73e3 	bic.w	r3, r3, r3, asr #31
 8003dac:	f103 0835 	add.w	r8, r3, #53	; 0x35
 8003db0:	f108 0304 	add.w	r3, r8, #4
 8003db4:	65fb      	str	r3, [r7, #92]	; 0x5c
 8003db6:	6dfb      	ldr	r3, [r7, #92]	; 0x5c
 8003db8:	ea23 73e3 	bic.w	r3, r3, r3, asr #31
 8003dbc:	65bb      	str	r3, [r7, #88]	; 0x58
 8003dbe:	6dfb      	ldr	r3, [r7, #92]	; 0x5c
 8003dc0:	ea23 73e3 	bic.w	r3, r3, r3, asr #31
 8003dc4:	3307      	adds	r3, #7
 8003dc6:	08db      	lsrs	r3, r3, #3
 8003dc8:	00db      	lsls	r3, r3, #3
 8003dca:	ebad 0d03 	sub.w	sp, sp, r3
 8003dce:	466b      	mov	r3, sp
 8003dd0:	3300      	adds	r3, #0
 8003dd2:	657b      	str	r3, [r7, #84]	; 0x54
 8003dd4:	6d7b      	ldr	r3, [r7, #84]	; 0x54
 8003dd6:	4a92      	ldr	r2, [pc, #584]	; (8004020 <stm32__i2c__configure+0x314>)
 8003dd8:	4614      	mov	r4, r2
 8003dda:	469e      	mov	lr, r3
 8003ddc:	f104 0c30 	add.w	ip, r4, #48	; 0x30
 8003de0:	4675      	mov	r5, lr
 8003de2:	4626      	mov	r6, r4
 8003de4:	ce0f      	ldmia	r6!, {r0, r1, r2, r3}
 8003de6:	6028      	str	r0, [r5, #0]
 8003de8:	6069      	str	r1, [r5, #4]
 8003dea:	60aa      	str	r2, [r5, #8]
 8003dec:	60eb      	str	r3, [r5, #12]
 8003dee:	3410      	adds	r4, #16
 8003df0:	f10e 0e10 	add.w	lr, lr, #16
 8003df4:	4564      	cmp	r4, ip
 8003df6:	d1f3      	bne.n	8003de0 <stm32__i2c__configure+0xd4>
 8003df8:	4673      	mov	r3, lr
 8003dfa:	4622      	mov	r2, r4
 8003dfc:	6810      	ldr	r0, [r2, #0]
 8003dfe:	6018      	str	r0, [r3, #0]
 8003e00:	7912      	ldrb	r2, [r2, #4]
 8003e02:	711a      	strb	r2, [r3, #4]
 8003e04:	4643      	mov	r3, r8
 8003e06:	2b35      	cmp	r3, #53	; 0x35
 8003e08:	bfb8      	it	lt
 8003e0a:	2335      	movlt	r3, #53	; 0x35
 8003e0c:	f1a3 0235 	sub.w	r2, r3, #53	; 0x35
 8003e10:	6d7b      	ldr	r3, [r7, #84]	; 0x54
 8003e12:	f103 0135 	add.w	r1, r3, #53	; 0x35
 8003e16:	f107 031c 	add.w	r3, r7, #28
 8003e1a:	4608      	mov	r0, r1
 8003e1c:	4619      	mov	r1, r3
 8003e1e:	4613      	mov	r3, r2
 8003e20:	461a      	mov	r2, r3
 8003e22:	f005 fe99 	bl	8009b58 <memcpy>
 8003e26:	f108 0301 	add.w	r3, r8, #1
 8003e2a:	461a      	mov	r2, r3
 8003e2c:	6d7b      	ldr	r3, [r7, #84]	; 0x54
 8003e2e:	4413      	add	r3, r2
 8003e30:	4a7c      	ldr	r2, [pc, #496]	; (8004024 <stm32__i2c__configure+0x318>)
 8003e32:	3b01      	subs	r3, #1
 8003e34:	6810      	ldr	r0, [r2, #0]
 8003e36:	6018      	str	r0, [r3, #0]
 8003e38:	6d7b      	ldr	r3, [r7, #84]	; 0x54
 8003e3a:	4699      	mov	r9, r3
 8003e3c:	2301      	movs	r3, #1
 8003e3e:	64fb      	str	r3, [r7, #76]	; 0x4c
 8003e40:	6dfb      	ldr	r3, [r7, #92]	; 0x5c
 8003e42:	653b      	str	r3, [r7, #80]	; 0x50
 8003e44:	f107 034c 	add.w	r3, r7, #76	; 0x4c
 8003e48:	469a      	mov	sl, r3
 8003e4a:	e9c7 9a02 	strd	r9, sl, [r7, #8]
 8003e4e:	68bb      	ldr	r3, [r7, #8]
 8003e50:	4618      	mov	r0, r3
 8003e52:	2100      	movs	r1, #0
 8003e54:	f7fd fb92 	bl	800157c <__gnat_last_chance_handler>
 8003e58:	693b      	ldr	r3, [r7, #16]
 8003e5a:	4618      	mov	r0, r3
 8003e5c:	2100      	movs	r1, #0
 8003e5e:	f001 fe4b 	bl	8005af8 <stm32__i2c__set_state>
 8003e62:	f8b7 3062 	ldrh.w	r3, [r7, #98]	; 0x62
 8003e66:	2b3f      	cmp	r3, #63	; 0x3f
 8003e68:	d903      	bls.n	8003e72 <stm32__i2c__configure+0x166>
 8003e6a:	486f      	ldr	r0, [pc, #444]	; (8004028 <stm32__i2c__configure+0x31c>)
 8003e6c:	21a1      	movs	r1, #161	; 0xa1
 8003e6e:	f7fd fb85 	bl	800157c <__gnat_last_chance_handler>
 8003e72:	69bb      	ldr	r3, [r7, #24]
 8003e74:	f8b7 2062 	ldrh.w	r2, [r7, #98]	; 0x62
 8003e78:	b2d2      	uxtb	r2, r2
 8003e7a:	f002 023f 	and.w	r2, r2, #63	; 0x3f
 8003e7e:	b2d2      	uxtb	r2, r2
 8003e80:	f362 0305 	bfi	r3, r2, #0, #6
 8003e84:	61bb      	str	r3, [r7, #24]
 8003e86:	69bb      	ldr	r3, [r7, #24]
 8003e88:	f36f 1387 	bfc	r3, #6, #2
 8003e8c:	61bb      	str	r3, [r7, #24]
 8003e8e:	69bb      	ldr	r3, [r7, #24]
 8003e90:	f36f 2308 	bfc	r3, #8, #1
 8003e94:	61bb      	str	r3, [r7, #24]
 8003e96:	69bb      	ldr	r3, [r7, #24]
 8003e98:	f36f 2349 	bfc	r3, #9, #1
 8003e9c:	61bb      	str	r3, [r7, #24]
 8003e9e:	69bb      	ldr	r3, [r7, #24]
 8003ea0:	f36f 238a 	bfc	r3, #10, #1
 8003ea4:	61bb      	str	r3, [r7, #24]
 8003ea6:	69bb      	ldr	r3, [r7, #24]
 8003ea8:	f36f 23cb 	bfc	r3, #11, #1
 8003eac:	61bb      	str	r3, [r7, #24]
 8003eae:	69bb      	ldr	r3, [r7, #24]
 8003eb0:	f36f 330c 	bfc	r3, #12, #1
 8003eb4:	61bb      	str	r3, [r7, #24]
 8003eb6:	69bb      	ldr	r3, [r7, #24]
 8003eb8:	f36f 335f 	bfc	r3, #13, #19
 8003ebc:	61bb      	str	r3, [r7, #24]
 8003ebe:	693b      	ldr	r3, [r7, #16]
 8003ec0:	685b      	ldr	r3, [r3, #4]
 8003ec2:	3304      	adds	r3, #4
 8003ec4:	69ba      	ldr	r2, [r7, #24]
 8003ec6:	601a      	str	r2, [r3, #0]
 8003ec8:	683b      	ldr	r3, [r7, #0]
 8003eca:	681b      	ldr	r3, [r3, #0]
 8003ecc:	4a57      	ldr	r2, [pc, #348]	; (800402c <stm32__i2c__configure+0x320>)
 8003ece:	4293      	cmp	r3, r2
 8003ed0:	d84f      	bhi.n	8003f72 <stm32__i2c__configure+0x266>
 8003ed2:	6c7b      	ldr	r3, [r7, #68]	; 0x44
 8003ed4:	f36f 33cf 	bfc	r3, #15, #1
 8003ed8:	647b      	str	r3, [r7, #68]	; 0x44
 8003eda:	683b      	ldr	r3, [r7, #0]
 8003edc:	681b      	ldr	r3, [r3, #0]
 8003ede:	005b      	lsls	r3, r3, #1
 8003ee0:	2b00      	cmp	r3, #0
 8003ee2:	d103      	bne.n	8003eec <stm32__i2c__configure+0x1e0>
 8003ee4:	4850      	ldr	r0, [pc, #320]	; (8004028 <stm32__i2c__configure+0x31c>)
 8003ee6:	21a8      	movs	r1, #168	; 0xa8
 8003ee8:	f7fd fb48 	bl	800157c <__gnat_last_chance_handler>
 8003eec:	683b      	ldr	r3, [r7, #0]
 8003eee:	681b      	ldr	r3, [r3, #0]
 8003ef0:	005b      	lsls	r3, r3, #1
 8003ef2:	6e7a      	ldr	r2, [r7, #100]	; 0x64
 8003ef4:	fbb2 f3f3 	udiv	r3, r2, r3
 8003ef8:	f5b3 5f80 	cmp.w	r3, #4096	; 0x1000
 8003efc:	d303      	bcc.n	8003f06 <stm32__i2c__configure+0x1fa>
 8003efe:	484a      	ldr	r0, [pc, #296]	; (8004028 <stm32__i2c__configure+0x31c>)
 8003f00:	21a8      	movs	r1, #168	; 0xa8
 8003f02:	f7fd fb3b 	bl	800157c <__gnat_last_chance_handler>
 8003f06:	6c7b      	ldr	r3, [r7, #68]	; 0x44
 8003f08:	683a      	ldr	r2, [r7, #0]
 8003f0a:	6812      	ldr	r2, [r2, #0]
 8003f0c:	0052      	lsls	r2, r2, #1
 8003f0e:	6e79      	ldr	r1, [r7, #100]	; 0x64
 8003f10:	fbb1 f2f2 	udiv	r2, r1, r2
 8003f14:	b292      	uxth	r2, r2
 8003f16:	f3c2 020b 	ubfx	r2, r2, #0, #12
 8003f1a:	b292      	uxth	r2, r2
 8003f1c:	f362 030b 	bfi	r3, r2, #0, #12
 8003f20:	647b      	str	r3, [r7, #68]	; 0x44
 8003f22:	6c7b      	ldr	r3, [r7, #68]	; 0x44
 8003f24:	f3c3 030b 	ubfx	r3, r3, #0, #12
 8003f28:	b29b      	uxth	r3, r3
 8003f2a:	2b03      	cmp	r3, #3
 8003f2c:	d804      	bhi.n	8003f38 <stm32__i2c__configure+0x22c>
 8003f2e:	6c7b      	ldr	r3, [r7, #68]	; 0x44
 8003f30:	2204      	movs	r2, #4
 8003f32:	f362 030b 	bfi	r3, r2, #0, #12
 8003f36:	647b      	str	r3, [r7, #68]	; 0x44
 8003f38:	f8b7 3062 	ldrh.w	r3, [r7, #98]	; 0x62
 8003f3c:	3301      	adds	r3, #1
 8003f3e:	b29b      	uxth	r3, r3
 8003f40:	2b3f      	cmp	r3, #63	; 0x3f
 8003f42:	d903      	bls.n	8003f4c <stm32__i2c__configure+0x240>
 8003f44:	4838      	ldr	r0, [pc, #224]	; (8004028 <stm32__i2c__configure+0x31c>)
 8003f46:	21ae      	movs	r1, #174	; 0xae
 8003f48:	f7fd fb18 	bl	800157c <__gnat_last_chance_handler>
 8003f4c:	693b      	ldr	r3, [r7, #16]
 8003f4e:	685b      	ldr	r3, [r3, #4]
 8003f50:	3320      	adds	r3, #32
 8003f52:	681b      	ldr	r3, [r3, #0]
 8003f54:	f8b7 2062 	ldrh.w	r2, [r7, #98]	; 0x62
 8003f58:	b2d2      	uxtb	r2, r2
 8003f5a:	3201      	adds	r2, #1
 8003f5c:	b2d2      	uxtb	r2, r2
 8003f5e:	f002 023f 	and.w	r2, r2, #63	; 0x3f
 8003f62:	b2d2      	uxtb	r2, r2
 8003f64:	f362 0305 	bfi	r3, r2, #0, #6
 8003f68:	693a      	ldr	r2, [r7, #16]
 8003f6a:	6852      	ldr	r2, [r2, #4]
 8003f6c:	3220      	adds	r2, #32
 8003f6e:	6013      	str	r3, [r2, #0]
 8003f70:	e0ad      	b.n	80040ce <stm32__i2c__configure+0x3c2>
 8003f72:	6c7b      	ldr	r3, [r7, #68]	; 0x44
 8003f74:	f443 4300 	orr.w	r3, r3, #32768	; 0x8000
 8003f78:	647b      	str	r3, [r7, #68]	; 0x44
 8003f7a:	683b      	ldr	r3, [r7, #0]
 8003f7c:	795b      	ldrb	r3, [r3, #5]
 8003f7e:	2b01      	cmp	r3, #1
 8003f80:	d12c      	bne.n	8003fdc <stm32__i2c__configure+0x2d0>
 8003f82:	683b      	ldr	r3, [r7, #0]
 8003f84:	681a      	ldr	r2, [r3, #0]
 8003f86:	4613      	mov	r3, r2
 8003f88:	005b      	lsls	r3, r3, #1
 8003f8a:	4413      	add	r3, r2
 8003f8c:	2b00      	cmp	r3, #0
 8003f8e:	d103      	bne.n	8003f98 <stm32__i2c__configure+0x28c>
 8003f90:	4825      	ldr	r0, [pc, #148]	; (8004028 <stm32__i2c__configure+0x31c>)
 8003f92:	21b5      	movs	r1, #181	; 0xb5
 8003f94:	f7fd faf2 	bl	800157c <__gnat_last_chance_handler>
 8003f98:	683b      	ldr	r3, [r7, #0]
 8003f9a:	681a      	ldr	r2, [r3, #0]
 8003f9c:	4613      	mov	r3, r2
 8003f9e:	005b      	lsls	r3, r3, #1
 8003fa0:	4413      	add	r3, r2
 8003fa2:	6e7a      	ldr	r2, [r7, #100]	; 0x64
 8003fa4:	fbb2 f3f3 	udiv	r3, r2, r3
 8003fa8:	f5b3 5f80 	cmp.w	r3, #4096	; 0x1000
 8003fac:	d303      	bcc.n	8003fb6 <stm32__i2c__configure+0x2aa>
 8003fae:	481e      	ldr	r0, [pc, #120]	; (8004028 <stm32__i2c__configure+0x31c>)
 8003fb0:	21b5      	movs	r1, #181	; 0xb5
 8003fb2:	f7fd fae3 	bl	800157c <__gnat_last_chance_handler>
 8003fb6:	6c7b      	ldr	r3, [r7, #68]	; 0x44
 8003fb8:	461a      	mov	r2, r3
 8003fba:	683b      	ldr	r3, [r7, #0]
 8003fbc:	6819      	ldr	r1, [r3, #0]
 8003fbe:	460b      	mov	r3, r1
 8003fc0:	005b      	lsls	r3, r3, #1
 8003fc2:	440b      	add	r3, r1
 8003fc4:	6e79      	ldr	r1, [r7, #100]	; 0x64
 8003fc6:	fbb1 f3f3 	udiv	r3, r1, r3
 8003fca:	b29b      	uxth	r3, r3
 8003fcc:	f3c3 030b 	ubfx	r3, r3, #0, #12
 8003fd0:	b29b      	uxth	r3, r3
 8003fd2:	f363 020b 	bfi	r2, r3, #0, #12
 8003fd6:	4613      	mov	r3, r2
 8003fd8:	647b      	str	r3, [r7, #68]	; 0x44
 8003fda:	e041      	b.n	8004060 <stm32__i2c__configure+0x354>
 8003fdc:	683b      	ldr	r3, [r7, #0]
 8003fde:	681a      	ldr	r2, [r3, #0]
 8003fe0:	4613      	mov	r3, r2
 8003fe2:	009b      	lsls	r3, r3, #2
 8003fe4:	4413      	add	r3, r2
 8003fe6:	009a      	lsls	r2, r3, #2
 8003fe8:	4413      	add	r3, r2
 8003fea:	2b00      	cmp	r3, #0
 8003fec:	d103      	bne.n	8003ff6 <stm32__i2c__configure+0x2ea>
 8003fee:	480e      	ldr	r0, [pc, #56]	; (8004028 <stm32__i2c__configure+0x31c>)
 8003ff0:	21b7      	movs	r1, #183	; 0xb7
 8003ff2:	f7fd fac3 	bl	800157c <__gnat_last_chance_handler>
 8003ff6:	683b      	ldr	r3, [r7, #0]
 8003ff8:	681a      	ldr	r2, [r3, #0]
 8003ffa:	4613      	mov	r3, r2
 8003ffc:	009b      	lsls	r3, r3, #2
 8003ffe:	4413      	add	r3, r2
 8004000:	009a      	lsls	r2, r3, #2
 8004002:	4413      	add	r3, r2
 8004004:	6e7a      	ldr	r2, [r7, #100]	; 0x64
 8004006:	fbb2 f3f3 	udiv	r3, r2, r3
 800400a:	f5b3 5f80 	cmp.w	r3, #4096	; 0x1000
 800400e:	d30f      	bcc.n	8004030 <stm32__i2c__configure+0x324>
 8004010:	4805      	ldr	r0, [pc, #20]	; (8004028 <stm32__i2c__configure+0x31c>)
 8004012:	21b7      	movs	r1, #183	; 0xb7
 8004014:	f7fd fab2 	bl	800157c <__gnat_last_chance_handler>
 8004018:	431bde83 	.word	0x431bde83
 800401c:	0800b500 	.word	0x0800b500
 8004020:	0800b508 	.word	0x0800b508
 8004024:	0800b540 	.word	0x0800b540
 8004028:	0800b4f0 	.word	0x0800b4f0
 800402c:	000186a0 	.word	0x000186a0
 8004030:	6c7b      	ldr	r3, [r7, #68]	; 0x44
 8004032:	461a      	mov	r2, r3
 8004034:	683b      	ldr	r3, [r7, #0]
 8004036:	6819      	ldr	r1, [r3, #0]
 8004038:	460b      	mov	r3, r1
 800403a:	009b      	lsls	r3, r3, #2
 800403c:	440b      	add	r3, r1
 800403e:	0099      	lsls	r1, r3, #2
 8004040:	440b      	add	r3, r1
 8004042:	6e79      	ldr	r1, [r7, #100]	; 0x64
 8004044:	fbb1 f3f3 	udiv	r3, r1, r3
 8004048:	b29b      	uxth	r3, r3
 800404a:	f3c3 030b 	ubfx	r3, r3, #0, #12
 800404e:	b29b      	uxth	r3, r3
 8004050:	f363 020b 	bfi	r2, r3, #0, #12
 8004054:	4613      	mov	r3, r2
 8004056:	647b      	str	r3, [r7, #68]	; 0x44
 8004058:	6c7b      	ldr	r3, [r7, #68]	; 0x44
 800405a:	f443 4380 	orr.w	r3, r3, #16384	; 0x4000
 800405e:	647b      	str	r3, [r7, #68]	; 0x44
 8004060:	6c7b      	ldr	r3, [r7, #68]	; 0x44
 8004062:	b29b      	uxth	r3, r3
 8004064:	f3c3 030b 	ubfx	r3, r3, #0, #12
 8004068:	b29b      	uxth	r3, r3
 800406a:	2b00      	cmp	r3, #0
 800406c:	d104      	bne.n	8004078 <stm32__i2c__configure+0x36c>
 800406e:	6c7b      	ldr	r3, [r7, #68]	; 0x44
 8004070:	2201      	movs	r2, #1
 8004072:	f362 030b 	bfi	r3, r2, #0, #12
 8004076:	647b      	str	r3, [r7, #68]	; 0x44
 8004078:	f8b7 3062 	ldrh.w	r3, [r7, #98]	; 0x62
 800407c:	f44f 7296 	mov.w	r2, #300	; 0x12c
 8004080:	fb02 f303 	mul.w	r3, r2, r3
 8004084:	4a7e      	ldr	r2, [pc, #504]	; (8004280 <stm32__i2c__configure+0x574>)
 8004086:	fba2 2303 	umull	r2, r3, r2, r3
 800408a:	099b      	lsrs	r3, r3, #6
 800408c:	3301      	adds	r3, #1
 800408e:	2b3f      	cmp	r3, #63	; 0x3f
 8004090:	d903      	bls.n	800409a <stm32__i2c__configure+0x38e>
 8004092:	487c      	ldr	r0, [pc, #496]	; (8004284 <stm32__i2c__configure+0x578>)
 8004094:	21c0      	movs	r1, #192	; 0xc0
 8004096:	f7fd fa71 	bl	800157c <__gnat_last_chance_handler>
 800409a:	693b      	ldr	r3, [r7, #16]
 800409c:	685b      	ldr	r3, [r3, #4]
 800409e:	3320      	adds	r3, #32
 80040a0:	681b      	ldr	r3, [r3, #0]
 80040a2:	f8b7 2062 	ldrh.w	r2, [r7, #98]	; 0x62
 80040a6:	f44f 7196 	mov.w	r1, #300	; 0x12c
 80040aa:	fb01 f202 	mul.w	r2, r1, r2
 80040ae:	4974      	ldr	r1, [pc, #464]	; (8004280 <stm32__i2c__configure+0x574>)
 80040b0:	fba1 1202 	umull	r1, r2, r1, r2
 80040b4:	0992      	lsrs	r2, r2, #6
 80040b6:	b2d2      	uxtb	r2, r2
 80040b8:	3201      	adds	r2, #1
 80040ba:	b2d2      	uxtb	r2, r2
 80040bc:	f002 023f 	and.w	r2, r2, #63	; 0x3f
 80040c0:	b2d2      	uxtb	r2, r2
 80040c2:	f362 0305 	bfi	r3, r2, #0, #6
 80040c6:	693a      	ldr	r2, [r7, #16]
 80040c8:	6852      	ldr	r2, [r2, #4]
 80040ca:	3220      	adds	r2, #32
 80040cc:	6013      	str	r3, [r2, #0]
 80040ce:	693b      	ldr	r3, [r7, #16]
 80040d0:	685b      	ldr	r3, [r3, #4]
 80040d2:	331c      	adds	r3, #28
 80040d4:	6c7a      	ldr	r2, [r7, #68]	; 0x44
 80040d6:	601a      	str	r2, [r3, #0]
 80040d8:	683b      	ldr	r3, [r7, #0]
 80040da:	791b      	ldrb	r3, [r3, #4]
 80040dc:	2b02      	cmp	r3, #2
 80040de:	d903      	bls.n	80040e8 <stm32__i2c__configure+0x3dc>
 80040e0:	4868      	ldr	r0, [pc, #416]	; (8004284 <stm32__i2c__configure+0x578>)
 80040e2:	21c6      	movs	r1, #198	; 0xc6
 80040e4:	f7fd fa4a 	bl	800157c <__gnat_last_chance_handler>
 80040e8:	683b      	ldr	r3, [r7, #0]
 80040ea:	791b      	ldrb	r3, [r3, #4]
 80040ec:	2b00      	cmp	r3, #0
 80040ee:	d002      	beq.n	80040f6 <stm32__i2c__configure+0x3ea>
 80040f0:	2b01      	cmp	r3, #1
 80040f2:	d009      	beq.n	8004108 <stm32__i2c__configure+0x3fc>
 80040f4:	e011      	b.n	800411a <stm32__i2c__configure+0x40e>
 80040f6:	6cbb      	ldr	r3, [r7, #72]	; 0x48
 80040f8:	f36f 0341 	bfc	r3, #1, #1
 80040fc:	64bb      	str	r3, [r7, #72]	; 0x48
 80040fe:	6cbb      	ldr	r3, [r7, #72]	; 0x48
 8004100:	f36f 03c3 	bfc	r3, #3, #1
 8004104:	64bb      	str	r3, [r7, #72]	; 0x48
 8004106:	e010      	b.n	800412a <stm32__i2c__configure+0x41e>
 8004108:	6cbb      	ldr	r3, [r7, #72]	; 0x48
 800410a:	f043 0302 	orr.w	r3, r3, #2
 800410e:	64bb      	str	r3, [r7, #72]	; 0x48
 8004110:	6cbb      	ldr	r3, [r7, #72]	; 0x48
 8004112:	f36f 03c3 	bfc	r3, #3, #1
 8004116:	64bb      	str	r3, [r7, #72]	; 0x48
 8004118:	e007      	b.n	800412a <stm32__i2c__configure+0x41e>
 800411a:	6cbb      	ldr	r3, [r7, #72]	; 0x48
 800411c:	f043 0302 	orr.w	r3, r3, #2
 8004120:	64bb      	str	r3, [r7, #72]	; 0x48
 8004122:	6cbb      	ldr	r3, [r7, #72]	; 0x48
 8004124:	f043 0308 	orr.w	r3, r3, #8
 8004128:	64bb      	str	r3, [r7, #72]	; 0x48
 800412a:	bf00      	nop
 800412c:	6cbb      	ldr	r3, [r7, #72]	; 0x48
 800412e:	683a      	ldr	r2, [r7, #0]
 8004130:	7a92      	ldrb	r2, [r2, #10]
 8004132:	f002 0201 	and.w	r2, r2, #1
 8004136:	b2d2      	uxtb	r2, r2
 8004138:	f362 1386 	bfi	r3, r2, #6, #1
 800413c:	64bb      	str	r3, [r7, #72]	; 0x48
 800413e:	6cbb      	ldr	r3, [r7, #72]	; 0x48
 8004140:	683a      	ldr	r2, [r7, #0]
 8004142:	7ad2      	ldrb	r2, [r2, #11]
 8004144:	f082 0201 	eor.w	r2, r2, #1
 8004148:	b2d2      	uxtb	r2, r2
 800414a:	f002 0201 	and.w	r2, r2, #1
 800414e:	b2d2      	uxtb	r2, r2
 8004150:	f362 13c7 	bfi	r3, r2, #7, #1
 8004154:	64bb      	str	r3, [r7, #72]	; 0x48
 8004156:	693b      	ldr	r3, [r7, #16]
 8004158:	685b      	ldr	r3, [r3, #4]
 800415a:	461a      	mov	r2, r3
 800415c:	6cbb      	ldr	r3, [r7, #72]	; 0x48
 800415e:	6013      	str	r3, [r2, #0]
 8004160:	6c3b      	ldr	r3, [r7, #64]	; 0x40
 8004162:	683a      	ldr	r2, [r7, #0]
 8004164:	7992      	ldrb	r2, [r2, #6]
 8004166:	2a01      	cmp	r2, #1
 8004168:	bf0c      	ite	eq
 800416a:	2201      	moveq	r2, #1
 800416c:	2200      	movne	r2, #0
 800416e:	b2d2      	uxtb	r2, r2
 8004170:	f002 0201 	and.w	r2, r2, #1
 8004174:	b2d2      	uxtb	r2, r2
 8004176:	f362 33cf 	bfi	r3, r2, #15, #1
 800417a:	643b      	str	r3, [r7, #64]	; 0x40
 800417c:	683b      	ldr	r3, [r7, #0]
 800417e:	799b      	ldrb	r3, [r3, #6]
 8004180:	2b01      	cmp	r3, #1
 8004182:	d903      	bls.n	800418c <stm32__i2c__configure+0x480>
 8004184:	483f      	ldr	r0, [pc, #252]	; (8004284 <stm32__i2c__configure+0x578>)
 8004186:	21d7      	movs	r1, #215	; 0xd7
 8004188:	f7fd f9f8 	bl	800157c <__gnat_last_chance_handler>
 800418c:	683b      	ldr	r3, [r7, #0]
 800418e:	799b      	ldrb	r3, [r3, #6]
 8004190:	2b00      	cmp	r3, #0
 8004192:	d11c      	bne.n	80041ce <stm32__i2c__configure+0x4c2>
 8004194:	6c3b      	ldr	r3, [r7, #64]	; 0x40
 8004196:	f36f 0300 	bfc	r3, #0, #1
 800419a:	643b      	str	r3, [r7, #64]	; 0x40
 800419c:	683b      	ldr	r3, [r7, #0]
 800419e:	891b      	ldrh	r3, [r3, #8]
 80041a0:	2bff      	cmp	r3, #255	; 0xff
 80041a2:	d903      	bls.n	80041ac <stm32__i2c__configure+0x4a0>
 80041a4:	4837      	ldr	r0, [pc, #220]	; (8004284 <stm32__i2c__configure+0x578>)
 80041a6:	21da      	movs	r1, #218	; 0xda
 80041a8:	f7fd f9e8 	bl	800157c <__gnat_last_chance_handler>
 80041ac:	6c3b      	ldr	r3, [r7, #64]	; 0x40
 80041ae:	683a      	ldr	r2, [r7, #0]
 80041b0:	8912      	ldrh	r2, [r2, #8]
 80041b2:	0852      	lsrs	r2, r2, #1
 80041b4:	b292      	uxth	r2, r2
 80041b6:	b2d2      	uxtb	r2, r2
 80041b8:	f002 027f 	and.w	r2, r2, #127	; 0x7f
 80041bc:	b2d2      	uxtb	r2, r2
 80041be:	f362 0347 	bfi	r3, r2, #1, #7
 80041c2:	643b      	str	r3, [r7, #64]	; 0x40
 80041c4:	6c3b      	ldr	r3, [r7, #64]	; 0x40
 80041c6:	f36f 2309 	bfc	r3, #8, #2
 80041ca:	643b      	str	r3, [r7, #64]	; 0x40
 80041cc:	e040      	b.n	8004250 <stm32__i2c__configure+0x544>
 80041ce:	6c3b      	ldr	r3, [r7, #64]	; 0x40
 80041d0:	683a      	ldr	r2, [r7, #0]
 80041d2:	8912      	ldrh	r2, [r2, #8]
 80041d4:	f002 0201 	and.w	r2, r2, #1
 80041d8:	b292      	uxth	r2, r2
 80041da:	2a00      	cmp	r2, #0
 80041dc:	bf14      	ite	ne
 80041de:	2201      	movne	r2, #1
 80041e0:	2200      	moveq	r2, #0
 80041e2:	b2d2      	uxtb	r2, r2
 80041e4:	f002 0201 	and.w	r2, r2, #1
 80041e8:	b2d2      	uxtb	r2, r2
 80041ea:	f362 0300 	bfi	r3, r2, #0, #1
 80041ee:	643b      	str	r3, [r7, #64]	; 0x40
 80041f0:	683b      	ldr	r3, [r7, #0]
 80041f2:	891b      	ldrh	r3, [r3, #8]
 80041f4:	085b      	lsrs	r3, r3, #1
 80041f6:	b29b      	uxth	r3, r3
 80041f8:	f003 037f 	and.w	r3, r3, #127	; 0x7f
 80041fc:	b29b      	uxth	r3, r3
 80041fe:	2b7f      	cmp	r3, #127	; 0x7f
 8004200:	d903      	bls.n	800420a <stm32__i2c__configure+0x4fe>
 8004202:	4820      	ldr	r0, [pc, #128]	; (8004284 <stm32__i2c__configure+0x578>)
 8004204:	21de      	movs	r1, #222	; 0xde
 8004206:	f7fd f9b9 	bl	800157c <__gnat_last_chance_handler>
 800420a:	6c3b      	ldr	r3, [r7, #64]	; 0x40
 800420c:	683a      	ldr	r2, [r7, #0]
 800420e:	8912      	ldrh	r2, [r2, #8]
 8004210:	0852      	lsrs	r2, r2, #1
 8004212:	b292      	uxth	r2, r2
 8004214:	b2d2      	uxtb	r2, r2
 8004216:	f002 027f 	and.w	r2, r2, #127	; 0x7f
 800421a:	b2d2      	uxtb	r2, r2
 800421c:	f362 0347 	bfi	r3, r2, #1, #7
 8004220:	643b      	str	r3, [r7, #64]	; 0x40
 8004222:	6c3b      	ldr	r3, [r7, #64]	; 0x40
 8004224:	683a      	ldr	r2, [r7, #0]
 8004226:	8912      	ldrh	r2, [r2, #8]
 8004228:	0a12      	lsrs	r2, r2, #8
 800422a:	b292      	uxth	r2, r2
 800422c:	b2d2      	uxtb	r2, r2
 800422e:	2a03      	cmp	r2, #3
 8004230:	d903      	bls.n	800423a <stm32__i2c__configure+0x52e>
 8004232:	4814      	ldr	r0, [pc, #80]	; (8004284 <stm32__i2c__configure+0x578>)
 8004234:	21df      	movs	r1, #223	; 0xdf
 8004236:	f7fd f9a1 	bl	800157c <__gnat_last_chance_handler>
 800423a:	683a      	ldr	r2, [r7, #0]
 800423c:	8912      	ldrh	r2, [r2, #8]
 800423e:	0a12      	lsrs	r2, r2, #8
 8004240:	b292      	uxth	r2, r2
 8004242:	b2d2      	uxtb	r2, r2
 8004244:	f002 0203 	and.w	r2, r2, #3
 8004248:	b2d2      	uxtb	r2, r2
 800424a:	f362 2309 	bfi	r3, r2, #8, #2
 800424e:	643b      	str	r3, [r7, #64]	; 0x40
 8004250:	693b      	ldr	r3, [r7, #16]
 8004252:	685b      	ldr	r3, [r3, #4]
 8004254:	3308      	adds	r3, #8
 8004256:	6c3a      	ldr	r2, [r7, #64]	; 0x40
 8004258:	601a      	str	r2, [r3, #0]
 800425a:	693b      	ldr	r3, [r7, #16]
 800425c:	4618      	mov	r0, r3
 800425e:	2101      	movs	r1, #1
 8004260:	f001 fc4a 	bl	8005af8 <stm32__i2c__set_state>
 8004264:	693b      	ldr	r3, [r7, #16]
 8004266:	2201      	movs	r2, #1
 8004268:	751a      	strb	r2, [r3, #20]
 800426a:	f107 0310 	add.w	r3, r7, #16
 800426e:	469c      	mov	ip, r3
 8004270:	f7ff fd2e 	bl	8003cd0 <stm32__i2c__configure___postconditions.4692>
 8004274:	46b5      	mov	sp, r6
 8004276:	3768      	adds	r7, #104	; 0x68
 8004278:	46bd      	mov	sp, r7
 800427a:	e8bd 87f0 	ldmia.w	sp!, {r4, r5, r6, r7, r8, r9, sl, pc}
 800427e:	bf00      	nop
 8004280:	10624dd3 	.word	0x10624dd3
 8004284:	0800b4f0 	.word	0x0800b4f0

08004288 <stm32__i2c__flag_status>:
 8004288:	b580      	push	{r7, lr}
 800428a:	b082      	sub	sp, #8
 800428c:	af00      	add	r7, sp, #0
 800428e:	6078      	str	r0, [r7, #4]
 8004290:	460b      	mov	r3, r1
 8004292:	70fb      	strb	r3, [r7, #3]
 8004294:	78fb      	ldrb	r3, [r7, #3]
 8004296:	2b14      	cmp	r3, #20
 8004298:	d903      	bls.n	80042a2 <stm32__i2c__flag_status+0x1a>
 800429a:	4870      	ldr	r0, [pc, #448]	; (800445c <stm32__i2c__flag_status+0x1d4>)
 800429c:	21f0      	movs	r1, #240	; 0xf0
 800429e:	f7fd f96d 	bl	800157c <__gnat_last_chance_handler>
 80042a2:	78fb      	ldrb	r3, [r7, #3]
 80042a4:	2b13      	cmp	r3, #19
 80042a6:	f200 80cb 	bhi.w	8004440 <stm32__i2c__flag_status+0x1b8>
 80042aa:	a201      	add	r2, pc, #4	; (adr r2, 80042b0 <stm32__i2c__flag_status+0x28>)
 80042ac:	f852 f023 	ldr.w	pc, [r2, r3, lsl #2]
 80042b0:	08004301 	.word	0x08004301
 80042b4:	08004311 	.word	0x08004311
 80042b8:	08004321 	.word	0x08004321
 80042bc:	08004331 	.word	0x08004331
 80042c0:	08004341 	.word	0x08004341
 80042c4:	08004351 	.word	0x08004351
 80042c8:	08004361 	.word	0x08004361
 80042cc:	08004371 	.word	0x08004371
 80042d0:	08004381 	.word	0x08004381
 80042d4:	08004391 	.word	0x08004391
 80042d8:	080043a1 	.word	0x080043a1
 80042dc:	080043b1 	.word	0x080043b1
 80042e0:	080043c1 	.word	0x080043c1
 80042e4:	080043d1 	.word	0x080043d1
 80042e8:	080043e1 	.word	0x080043e1
 80042ec:	080043f1 	.word	0x080043f1
 80042f0:	08004401 	.word	0x08004401
 80042f4:	08004411 	.word	0x08004411
 80042f8:	08004421 	.word	0x08004421
 80042fc:	08004431 	.word	0x08004431
 8004300:	687b      	ldr	r3, [r7, #4]
 8004302:	685b      	ldr	r3, [r3, #4]
 8004304:	3314      	adds	r3, #20
 8004306:	681b      	ldr	r3, [r3, #0]
 8004308:	f3c3 0300 	ubfx	r3, r3, #0, #1
 800430c:	b2db      	uxtb	r3, r3
 800430e:	e09f      	b.n	8004450 <stm32__i2c__flag_status+0x1c8>
 8004310:	687b      	ldr	r3, [r7, #4]
 8004312:	685b      	ldr	r3, [r3, #4]
 8004314:	3314      	adds	r3, #20
 8004316:	681b      	ldr	r3, [r3, #0]
 8004318:	f3c3 0340 	ubfx	r3, r3, #1, #1
 800431c:	b2db      	uxtb	r3, r3
 800431e:	e097      	b.n	8004450 <stm32__i2c__flag_status+0x1c8>
 8004320:	687b      	ldr	r3, [r7, #4]
 8004322:	685b      	ldr	r3, [r3, #4]
 8004324:	3314      	adds	r3, #20
 8004326:	681b      	ldr	r3, [r3, #0]
 8004328:	f3c3 0380 	ubfx	r3, r3, #2, #1
 800432c:	b2db      	uxtb	r3, r3
 800432e:	e08f      	b.n	8004450 <stm32__i2c__flag_status+0x1c8>
 8004330:	687b      	ldr	r3, [r7, #4]
 8004332:	685b      	ldr	r3, [r3, #4]
 8004334:	3314      	adds	r3, #20
 8004336:	681b      	ldr	r3, [r3, #0]
 8004338:	f3c3 03c0 	ubfx	r3, r3, #3, #1
 800433c:	b2db      	uxtb	r3, r3
 800433e:	e087      	b.n	8004450 <stm32__i2c__flag_status+0x1c8>
 8004340:	687b      	ldr	r3, [r7, #4]
 8004342:	685b      	ldr	r3, [r3, #4]
 8004344:	3314      	adds	r3, #20
 8004346:	681b      	ldr	r3, [r3, #0]
 8004348:	f3c3 1300 	ubfx	r3, r3, #4, #1
 800434c:	b2db      	uxtb	r3, r3
 800434e:	e07f      	b.n	8004450 <stm32__i2c__flag_status+0x1c8>
 8004350:	687b      	ldr	r3, [r7, #4]
 8004352:	685b      	ldr	r3, [r3, #4]
 8004354:	3314      	adds	r3, #20
 8004356:	681b      	ldr	r3, [r3, #0]
 8004358:	f3c3 1380 	ubfx	r3, r3, #6, #1
 800435c:	b2db      	uxtb	r3, r3
 800435e:	e077      	b.n	8004450 <stm32__i2c__flag_status+0x1c8>
 8004360:	687b      	ldr	r3, [r7, #4]
 8004362:	685b      	ldr	r3, [r3, #4]
 8004364:	3314      	adds	r3, #20
 8004366:	681b      	ldr	r3, [r3, #0]
 8004368:	f3c3 13c0 	ubfx	r3, r3, #7, #1
 800436c:	b2db      	uxtb	r3, r3
 800436e:	e06f      	b.n	8004450 <stm32__i2c__flag_status+0x1c8>
 8004370:	687b      	ldr	r3, [r7, #4]
 8004372:	685b      	ldr	r3, [r3, #4]
 8004374:	3314      	adds	r3, #20
 8004376:	681b      	ldr	r3, [r3, #0]
 8004378:	f3c3 2300 	ubfx	r3, r3, #8, #1
 800437c:	b2db      	uxtb	r3, r3
 800437e:	e067      	b.n	8004450 <stm32__i2c__flag_status+0x1c8>
 8004380:	687b      	ldr	r3, [r7, #4]
 8004382:	685b      	ldr	r3, [r3, #4]
 8004384:	3314      	adds	r3, #20
 8004386:	681b      	ldr	r3, [r3, #0]
 8004388:	f3c3 2340 	ubfx	r3, r3, #9, #1
 800438c:	b2db      	uxtb	r3, r3
 800438e:	e05f      	b.n	8004450 <stm32__i2c__flag_status+0x1c8>
 8004390:	687b      	ldr	r3, [r7, #4]
 8004392:	685b      	ldr	r3, [r3, #4]
 8004394:	3314      	adds	r3, #20
 8004396:	681b      	ldr	r3, [r3, #0]
 8004398:	f3c3 2380 	ubfx	r3, r3, #10, #1
 800439c:	b2db      	uxtb	r3, r3
 800439e:	e057      	b.n	8004450 <stm32__i2c__flag_status+0x1c8>
 80043a0:	687b      	ldr	r3, [r7, #4]
 80043a2:	685b      	ldr	r3, [r3, #4]
 80043a4:	3314      	adds	r3, #20
 80043a6:	681b      	ldr	r3, [r3, #0]
 80043a8:	f3c3 23c0 	ubfx	r3, r3, #11, #1
 80043ac:	b2db      	uxtb	r3, r3
 80043ae:	e04f      	b.n	8004450 <stm32__i2c__flag_status+0x1c8>
 80043b0:	687b      	ldr	r3, [r7, #4]
 80043b2:	685b      	ldr	r3, [r3, #4]
 80043b4:	3314      	adds	r3, #20
 80043b6:	681b      	ldr	r3, [r3, #0]
 80043b8:	f3c3 3300 	ubfx	r3, r3, #12, #1
 80043bc:	b2db      	uxtb	r3, r3
 80043be:	e047      	b.n	8004450 <stm32__i2c__flag_status+0x1c8>
 80043c0:	687b      	ldr	r3, [r7, #4]
 80043c2:	685b      	ldr	r3, [r3, #4]
 80043c4:	3314      	adds	r3, #20
 80043c6:	681b      	ldr	r3, [r3, #0]
 80043c8:	f3c3 3380 	ubfx	r3, r3, #14, #1
 80043cc:	b2db      	uxtb	r3, r3
 80043ce:	e03f      	b.n	8004450 <stm32__i2c__flag_status+0x1c8>
 80043d0:	687b      	ldr	r3, [r7, #4]
 80043d2:	685b      	ldr	r3, [r3, #4]
 80043d4:	3314      	adds	r3, #20
 80043d6:	681b      	ldr	r3, [r3, #0]
 80043d8:	f3c3 33c0 	ubfx	r3, r3, #15, #1
 80043dc:	b2db      	uxtb	r3, r3
 80043de:	e037      	b.n	8004450 <stm32__i2c__flag_status+0x1c8>
 80043e0:	687b      	ldr	r3, [r7, #4]
 80043e2:	685b      	ldr	r3, [r3, #4]
 80043e4:	3318      	adds	r3, #24
 80043e6:	681b      	ldr	r3, [r3, #0]
 80043e8:	f3c3 0300 	ubfx	r3, r3, #0, #1
 80043ec:	b2db      	uxtb	r3, r3
 80043ee:	e02f      	b.n	8004450 <stm32__i2c__flag_status+0x1c8>
 80043f0:	687b      	ldr	r3, [r7, #4]
 80043f2:	685b      	ldr	r3, [r3, #4]
 80043f4:	3318      	adds	r3, #24
 80043f6:	681b      	ldr	r3, [r3, #0]
 80043f8:	f3c3 0340 	ubfx	r3, r3, #1, #1
 80043fc:	b2db      	uxtb	r3, r3
 80043fe:	e027      	b.n	8004450 <stm32__i2c__flag_status+0x1c8>
 8004400:	687b      	ldr	r3, [r7, #4]
 8004402:	685b      	ldr	r3, [r3, #4]
 8004404:	3318      	adds	r3, #24
 8004406:	681b      	ldr	r3, [r3, #0]
 8004408:	f3c3 0380 	ubfx	r3, r3, #2, #1
 800440c:	b2db      	uxtb	r3, r3
 800440e:	e01f      	b.n	8004450 <stm32__i2c__flag_status+0x1c8>
 8004410:	687b      	ldr	r3, [r7, #4]
 8004412:	685b      	ldr	r3, [r3, #4]
 8004414:	3318      	adds	r3, #24
 8004416:	681b      	ldr	r3, [r3, #0]
 8004418:	f3c3 1300 	ubfx	r3, r3, #4, #1
 800441c:	b2db      	uxtb	r3, r3
 800441e:	e017      	b.n	8004450 <stm32__i2c__flag_status+0x1c8>
 8004420:	687b      	ldr	r3, [r7, #4]
 8004422:	685b      	ldr	r3, [r3, #4]
 8004424:	3318      	adds	r3, #24
 8004426:	681b      	ldr	r3, [r3, #0]
 8004428:	f3c3 1340 	ubfx	r3, r3, #5, #1
 800442c:	b2db      	uxtb	r3, r3
 800442e:	e00f      	b.n	8004450 <stm32__i2c__flag_status+0x1c8>
 8004430:	687b      	ldr	r3, [r7, #4]
 8004432:	685b      	ldr	r3, [r3, #4]
 8004434:	3318      	adds	r3, #24
 8004436:	681b      	ldr	r3, [r3, #0]
 8004438:	f3c3 1380 	ubfx	r3, r3, #6, #1
 800443c:	b2db      	uxtb	r3, r3
 800443e:	e007      	b.n	8004450 <stm32__i2c__flag_status+0x1c8>
 8004440:	687b      	ldr	r3, [r7, #4]
 8004442:	685b      	ldr	r3, [r3, #4]
 8004444:	3318      	adds	r3, #24
 8004446:	681b      	ldr	r3, [r3, #0]
 8004448:	f3c3 13c0 	ubfx	r3, r3, #7, #1
 800444c:	b2db      	uxtb	r3, r3
 800444e:	bf00      	nop
 8004450:	bf00      	nop
 8004452:	4618      	mov	r0, r3
 8004454:	3708      	adds	r7, #8
 8004456:	46bd      	mov	sp, r7
 8004458:	bd80      	pop	{r7, pc}
 800445a:	bf00      	nop
 800445c:	0800b4f0 	.word	0x0800b4f0

08004460 <stm32__i2c__clear_address_sent_status>:
 8004460:	b480      	push	{r7}
 8004462:	b085      	sub	sp, #20
 8004464:	af00      	add	r7, sp, #0
 8004466:	6078      	str	r0, [r7, #4]
 8004468:	687b      	ldr	r3, [r7, #4]
 800446a:	685b      	ldr	r3, [r3, #4]
 800446c:	3314      	adds	r3, #20
 800446e:	681b      	ldr	r3, [r3, #0]
 8004470:	f3c3 0340 	ubfx	r3, r3, #1, #1
 8004474:	b2db      	uxtb	r3, r3
 8004476:	73fb      	strb	r3, [r7, #15]
 8004478:	687b      	ldr	r3, [r7, #4]
 800447a:	685b      	ldr	r3, [r3, #4]
 800447c:	3318      	adds	r3, #24
 800447e:	681b      	ldr	r3, [r3, #0]
 8004480:	f3c3 0300 	ubfx	r3, r3, #0, #1
 8004484:	b2db      	uxtb	r3, r3
 8004486:	73fb      	strb	r3, [r7, #15]
 8004488:	3714      	adds	r7, #20
 800448a:	46bd      	mov	sp, r7
 800448c:	f85d 7b04 	ldr.w	r7, [sp], #4
 8004490:	4770      	bx	lr
 8004492:	bf00      	nop

08004494 <stm32__i2c__wait_flag>:
 8004494:	b5b0      	push	{r4, r5, r7, lr}
 8004496:	b088      	sub	sp, #32
 8004498:	af00      	add	r7, sp, #0
 800449a:	60f8      	str	r0, [r7, #12]
 800449c:	607b      	str	r3, [r7, #4]
 800449e:	460b      	mov	r3, r1
 80044a0:	72fb      	strb	r3, [r7, #11]
 80044a2:	4613      	mov	r3, r2
 80044a4:	72bb      	strb	r3, [r7, #10]
 80044a6:	f004 f9a9 	bl	80087fc <ada__real_time__clock>
 80044aa:	e9c7 0106 	strd	r0, r1, [r7, #24]
 80044ae:	7afb      	ldrb	r3, [r7, #11]
 80044b0:	68f8      	ldr	r0, [r7, #12]
 80044b2:	4619      	mov	r1, r3
 80044b4:	f7ff fee8 	bl	8004288 <stm32__i2c__flag_status>
 80044b8:	4603      	mov	r3, r0
 80044ba:	461a      	mov	r2, r3
 80044bc:	7abb      	ldrb	r3, [r7, #10]
 80044be:	4293      	cmp	r3, r2
 80044c0:	d11a      	bne.n	80044f8 <stm32__i2c__wait_flag+0x64>
 80044c2:	f004 f99b 	bl	80087fc <ada__real_time__clock>
 80044c6:	4603      	mov	r3, r0
 80044c8:	460c      	mov	r4, r1
 80044ca:	4618      	mov	r0, r3
 80044cc:	4621      	mov	r1, r4
 80044ce:	e9d7 2306 	ldrd	r2, r3, [r7, #24]
 80044d2:	f004 f971 	bl	80087b8 <ada__real_time__Osubtract__2>
 80044d6:	4604      	mov	r4, r0
 80044d8:	460d      	mov	r5, r1
 80044da:	687b      	ldr	r3, [r7, #4]
 80044dc:	4618      	mov	r0, r3
 80044de:	f004 f9d5 	bl	800888c <ada__real_time__milliseconds>
 80044e2:	4602      	mov	r2, r0
 80044e4:	460b      	mov	r3, r1
 80044e6:	42a2      	cmp	r2, r4
 80044e8:	41ab      	sbcs	r3, r5
 80044ea:	dae0      	bge.n	80044ae <stm32__i2c__wait_flag+0x1a>
 80044ec:	68fb      	ldr	r3, [r7, #12]
 80044ee:	2201      	movs	r2, #1
 80044f0:	751a      	strb	r2, [r3, #20]
 80044f2:	2302      	movs	r3, #2
 80044f4:	75fb      	strb	r3, [r7, #23]
 80044f6:	e001      	b.n	80044fc <stm32__i2c__wait_flag+0x68>
 80044f8:	2300      	movs	r3, #0
 80044fa:	75fb      	strb	r3, [r7, #23]
 80044fc:	7dfb      	ldrb	r3, [r7, #23]
 80044fe:	bf00      	nop
 8004500:	4618      	mov	r0, r3
 8004502:	3720      	adds	r7, #32
 8004504:	46bd      	mov	sp, r7
 8004506:	bdb0      	pop	{r4, r5, r7, pc}

08004508 <stm32__i2c__wait_master_flag>:
 8004508:	b5b0      	push	{r4, r5, r7, lr}
 800450a:	b088      	sub	sp, #32
 800450c:	af00      	add	r7, sp, #0
 800450e:	60f8      	str	r0, [r7, #12]
 8004510:	460b      	mov	r3, r1
 8004512:	607a      	str	r2, [r7, #4]
 8004514:	72fb      	strb	r3, [r7, #11]
 8004516:	f004 f971 	bl	80087fc <ada__real_time__clock>
 800451a:	e9c7 0106 	strd	r0, r1, [r7, #24]
 800451e:	7afb      	ldrb	r3, [r7, #11]
 8004520:	68f8      	ldr	r0, [r7, #12]
 8004522:	4619      	mov	r1, r3
 8004524:	f7ff feb0 	bl	8004288 <stm32__i2c__flag_status>
 8004528:	4603      	mov	r3, r0
 800452a:	f083 0301 	eor.w	r3, r3, #1
 800452e:	b2db      	uxtb	r3, r3
 8004530:	2b00      	cmp	r3, #0
 8004532:	d03d      	beq.n	80045b0 <stm32__i2c__wait_master_flag+0xa8>
 8004534:	68fb      	ldr	r3, [r7, #12]
 8004536:	685b      	ldr	r3, [r3, #4]
 8004538:	3314      	adds	r3, #20
 800453a:	681b      	ldr	r3, [r3, #0]
 800453c:	f3c3 2380 	ubfx	r3, r3, #10, #1
 8004540:	b2db      	uxtb	r3, r3
 8004542:	2b00      	cmp	r3, #0
 8004544:	d019      	beq.n	800457a <stm32__i2c__wait_master_flag+0x72>
 8004546:	68fb      	ldr	r3, [r7, #12]
 8004548:	685b      	ldr	r3, [r3, #4]
 800454a:	681b      	ldr	r3, [r3, #0]
 800454c:	461a      	mov	r2, r3
 800454e:	4613      	mov	r3, r2
 8004550:	f443 7200 	orr.w	r2, r3, #512	; 0x200
 8004554:	68fb      	ldr	r3, [r7, #12]
 8004556:	685b      	ldr	r3, [r3, #4]
 8004558:	601a      	str	r2, [r3, #0]
 800455a:	68fb      	ldr	r3, [r7, #12]
 800455c:	685b      	ldr	r3, [r3, #4]
 800455e:	3314      	adds	r3, #20
 8004560:	681b      	ldr	r3, [r3, #0]
 8004562:	f36f 238a 	bfc	r3, #10, #1
 8004566:	68fa      	ldr	r2, [r7, #12]
 8004568:	6852      	ldr	r2, [r2, #4]
 800456a:	3214      	adds	r2, #20
 800456c:	6013      	str	r3, [r2, #0]
 800456e:	68fb      	ldr	r3, [r7, #12]
 8004570:	2201      	movs	r2, #1
 8004572:	751a      	strb	r2, [r3, #20]
 8004574:	2301      	movs	r3, #1
 8004576:	75fb      	strb	r3, [r7, #23]
 8004578:	e01c      	b.n	80045b4 <stm32__i2c__wait_master_flag+0xac>
 800457a:	f004 f93f 	bl	80087fc <ada__real_time__clock>
 800457e:	4603      	mov	r3, r0
 8004580:	460c      	mov	r4, r1
 8004582:	4618      	mov	r0, r3
 8004584:	4621      	mov	r1, r4
 8004586:	e9d7 2306 	ldrd	r2, r3, [r7, #24]
 800458a:	f004 f915 	bl	80087b8 <ada__real_time__Osubtract__2>
 800458e:	4604      	mov	r4, r0
 8004590:	460d      	mov	r5, r1
 8004592:	687b      	ldr	r3, [r7, #4]
 8004594:	4618      	mov	r0, r3
 8004596:	f004 f979 	bl	800888c <ada__real_time__milliseconds>
 800459a:	4602      	mov	r2, r0
 800459c:	460b      	mov	r3, r1
 800459e:	42a2      	cmp	r2, r4
 80045a0:	41ab      	sbcs	r3, r5
 80045a2:	dabc      	bge.n	800451e <stm32__i2c__wait_master_flag+0x16>
 80045a4:	68fb      	ldr	r3, [r7, #12]
 80045a6:	2201      	movs	r2, #1
 80045a8:	751a      	strb	r2, [r3, #20]
 80045aa:	2302      	movs	r3, #2
 80045ac:	75fb      	strb	r3, [r7, #23]
 80045ae:	e001      	b.n	80045b4 <stm32__i2c__wait_master_flag+0xac>
 80045b0:	2300      	movs	r3, #0
 80045b2:	75fb      	strb	r3, [r7, #23]
 80045b4:	7dfb      	ldrb	r3, [r7, #23]
 80045b6:	bf00      	nop
 80045b8:	4618      	mov	r0, r3
 80045ba:	3720      	adds	r7, #32
 80045bc:	46bd      	mov	sp, r7
 80045be:	bdb0      	pop	{r4, r5, r7, pc}

080045c0 <stm32__i2c__master_request_write>:
 80045c0:	b580      	push	{r7, lr}
 80045c2:	b086      	sub	sp, #24
 80045c4:	af00      	add	r7, sp, #0
 80045c6:	60f8      	str	r0, [r7, #12]
 80045c8:	460b      	mov	r3, r1
 80045ca:	607a      	str	r2, [r7, #4]
 80045cc:	817b      	strh	r3, [r7, #10]
 80045ce:	68fb      	ldr	r3, [r7, #12]
 80045d0:	685b      	ldr	r3, [r3, #4]
 80045d2:	681b      	ldr	r3, [r3, #0]
 80045d4:	461a      	mov	r2, r3
 80045d6:	4613      	mov	r3, r2
 80045d8:	f443 7280 	orr.w	r2, r3, #256	; 0x100
 80045dc:	68fb      	ldr	r3, [r7, #12]
 80045de:	685b      	ldr	r3, [r3, #4]
 80045e0:	601a      	str	r2, [r3, #0]
 80045e2:	68f8      	ldr	r0, [r7, #12]
 80045e4:	2100      	movs	r1, #0
 80045e6:	2200      	movs	r2, #0
 80045e8:	687b      	ldr	r3, [r7, #4]
 80045ea:	f7ff ff53 	bl	8004494 <stm32__i2c__wait_flag>
 80045ee:	4603      	mov	r3, r0
 80045f0:	757b      	strb	r3, [r7, #21]
 80045f2:	7d7b      	ldrb	r3, [r7, #21]
 80045f4:	2b00      	cmp	r3, #0
 80045f6:	d166      	bne.n	80046c6 <stm32__i2c__master_request_write+0x106>
 80045f8:	68fb      	ldr	r3, [r7, #12]
 80045fa:	7b9b      	ldrb	r3, [r3, #14]
 80045fc:	2b00      	cmp	r3, #0
 80045fe:	d117      	bne.n	8004630 <stm32__i2c__master_request_write+0x70>
 8004600:	897b      	ldrh	r3, [r7, #10]
 8004602:	2bff      	cmp	r3, #255	; 0xff
 8004604:	d904      	bls.n	8004610 <stm32__i2c__master_request_write+0x50>
 8004606:	4834      	ldr	r0, [pc, #208]	; (80046d8 <stm32__i2c__master_request_write+0x118>)
 8004608:	f240 11a3 	movw	r1, #419	; 0x1a3
 800460c:	f7fc ffb6 	bl	800157c <__gnat_last_chance_handler>
 8004610:	68fb      	ldr	r3, [r7, #12]
 8004612:	685b      	ldr	r3, [r3, #4]
 8004614:	3310      	adds	r3, #16
 8004616:	681b      	ldr	r3, [r3, #0]
 8004618:	897a      	ldrh	r2, [r7, #10]
 800461a:	b2d2      	uxtb	r2, r2
 800461c:	f022 0201 	bic.w	r2, r2, #1
 8004620:	b2d2      	uxtb	r2, r2
 8004622:	f362 0307 	bfi	r3, r2, #0, #8
 8004626:	68fa      	ldr	r2, [r7, #12]
 8004628:	6852      	ldr	r2, [r2, #4]
 800462a:	3210      	adds	r2, #16
 800462c:	6013      	str	r3, [r2, #0]
 800462e:	e042      	b.n	80046b6 <stm32__i2c__master_request_write+0xf6>
 8004630:	897b      	ldrh	r3, [r7, #10]
 8004632:	f403 7340 	and.w	r3, r3, #768	; 0x300
 8004636:	b29b      	uxth	r3, r3
 8004638:	09db      	lsrs	r3, r3, #7
 800463a:	b29b      	uxth	r3, r3
 800463c:	2bff      	cmp	r3, #255	; 0xff
 800463e:	d904      	bls.n	800464a <stm32__i2c__master_request_write+0x8a>
 8004640:	4825      	ldr	r0, [pc, #148]	; (80046d8 <stm32__i2c__master_request_write+0x118>)
 8004642:	f240 11a7 	movw	r1, #423	; 0x1a7
 8004646:	f7fc ff99 	bl	800157c <__gnat_last_chance_handler>
 800464a:	897b      	ldrh	r3, [r7, #10]
 800464c:	f403 7340 	and.w	r3, r3, #768	; 0x300
 8004650:	b29b      	uxth	r3, r3
 8004652:	09db      	lsrs	r3, r3, #7
 8004654:	b29b      	uxth	r3, r3
 8004656:	75fb      	strb	r3, [r7, #23]
 8004658:	897b      	ldrh	r3, [r7, #10]
 800465a:	b2db      	uxtb	r3, r3
 800465c:	b29b      	uxth	r3, r3
 800465e:	2bff      	cmp	r3, #255	; 0xff
 8004660:	d904      	bls.n	800466c <stm32__i2c__master_request_write+0xac>
 8004662:	481d      	ldr	r0, [pc, #116]	; (80046d8 <stm32__i2c__master_request_write+0x118>)
 8004664:	f240 11a9 	movw	r1, #425	; 0x1a9
 8004668:	f7fc ff88 	bl	800157c <__gnat_last_chance_handler>
 800466c:	897b      	ldrh	r3, [r7, #10]
 800466e:	75bb      	strb	r3, [r7, #22]
 8004670:	68fb      	ldr	r3, [r7, #12]
 8004672:	685b      	ldr	r3, [r3, #4]
 8004674:	3310      	adds	r3, #16
 8004676:	681b      	ldr	r3, [r3, #0]
 8004678:	7dfa      	ldrb	r2, [r7, #23]
 800467a:	f062 020f 	orn	r2, r2, #15
 800467e:	b2d2      	uxtb	r2, r2
 8004680:	f362 0307 	bfi	r3, r2, #0, #8
 8004684:	68fa      	ldr	r2, [r7, #12]
 8004686:	6852      	ldr	r2, [r2, #4]
 8004688:	3210      	adds	r2, #16
 800468a:	6013      	str	r3, [r2, #0]
 800468c:	68f8      	ldr	r0, [r7, #12]
 800468e:	2103      	movs	r1, #3
 8004690:	687a      	ldr	r2, [r7, #4]
 8004692:	f7ff ff39 	bl	8004508 <stm32__i2c__wait_master_flag>
 8004696:	4603      	mov	r3, r0
 8004698:	757b      	strb	r3, [r7, #21]
 800469a:	7d7b      	ldrb	r3, [r7, #21]
 800469c:	2b00      	cmp	r3, #0
 800469e:	d114      	bne.n	80046ca <stm32__i2c__master_request_write+0x10a>
 80046a0:	68fb      	ldr	r3, [r7, #12]
 80046a2:	685b      	ldr	r3, [r3, #4]
 80046a4:	3310      	adds	r3, #16
 80046a6:	681b      	ldr	r3, [r3, #0]
 80046a8:	7dba      	ldrb	r2, [r7, #22]
 80046aa:	f362 0307 	bfi	r3, r2, #0, #8
 80046ae:	68fa      	ldr	r2, [r7, #12]
 80046b0:	6852      	ldr	r2, [r2, #4]
 80046b2:	3210      	adds	r2, #16
 80046b4:	6013      	str	r3, [r2, #0]
 80046b6:	68f8      	ldr	r0, [r7, #12]
 80046b8:	2101      	movs	r1, #1
 80046ba:	687a      	ldr	r2, [r7, #4]
 80046bc:	f7ff ff24 	bl	8004508 <stm32__i2c__wait_master_flag>
 80046c0:	4603      	mov	r3, r0
 80046c2:	757b      	strb	r3, [r7, #21]
 80046c4:	e002      	b.n	80046cc <stm32__i2c__master_request_write+0x10c>
 80046c6:	bf00      	nop
 80046c8:	e000      	b.n	80046cc <stm32__i2c__master_request_write+0x10c>
 80046ca:	bf00      	nop
 80046cc:	7d7b      	ldrb	r3, [r7, #21]
 80046ce:	bf00      	nop
 80046d0:	4618      	mov	r0, r3
 80046d2:	3718      	adds	r7, #24
 80046d4:	46bd      	mov	sp, r7
 80046d6:	bd80      	pop	{r7, pc}
 80046d8:	0800b4f0 	.word	0x0800b4f0

080046dc <stm32__i2c__master_request_read>:
 80046dc:	b580      	push	{r7, lr}
 80046de:	b086      	sub	sp, #24
 80046e0:	af00      	add	r7, sp, #0
 80046e2:	60f8      	str	r0, [r7, #12]
 80046e4:	460b      	mov	r3, r1
 80046e6:	607a      	str	r2, [r7, #4]
 80046e8:	817b      	strh	r3, [r7, #10]
 80046ea:	68fb      	ldr	r3, [r7, #12]
 80046ec:	685b      	ldr	r3, [r3, #4]
 80046ee:	681b      	ldr	r3, [r3, #0]
 80046f0:	461a      	mov	r2, r3
 80046f2:	4613      	mov	r3, r2
 80046f4:	f443 6280 	orr.w	r2, r3, #1024	; 0x400
 80046f8:	68fb      	ldr	r3, [r7, #12]
 80046fa:	685b      	ldr	r3, [r3, #4]
 80046fc:	601a      	str	r2, [r3, #0]
 80046fe:	68fb      	ldr	r3, [r7, #12]
 8004700:	685b      	ldr	r3, [r3, #4]
 8004702:	681b      	ldr	r3, [r3, #0]
 8004704:	461a      	mov	r2, r3
 8004706:	4613      	mov	r3, r2
 8004708:	f443 7280 	orr.w	r2, r3, #256	; 0x100
 800470c:	68fb      	ldr	r3, [r7, #12]
 800470e:	685b      	ldr	r3, [r3, #4]
 8004710:	601a      	str	r2, [r3, #0]
 8004712:	68f8      	ldr	r0, [r7, #12]
 8004714:	2100      	movs	r1, #0
 8004716:	2200      	movs	r2, #0
 8004718:	687b      	ldr	r3, [r7, #4]
 800471a:	f7ff febb 	bl	8004494 <stm32__i2c__wait_flag>
 800471e:	4603      	mov	r3, r0
 8004720:	757b      	strb	r3, [r7, #21]
 8004722:	7d7b      	ldrb	r3, [r7, #21]
 8004724:	2b00      	cmp	r3, #0
 8004726:	f040 8097 	bne.w	8004858 <stm32__i2c__master_request_read+0x17c>
 800472a:	68fb      	ldr	r3, [r7, #12]
 800472c:	7b9b      	ldrb	r3, [r3, #14]
 800472e:	2b00      	cmp	r3, #0
 8004730:	d117      	bne.n	8004762 <stm32__i2c__master_request_read+0x86>
 8004732:	897b      	ldrh	r3, [r7, #10]
 8004734:	2bff      	cmp	r3, #255	; 0xff
 8004736:	d904      	bls.n	8004742 <stm32__i2c__master_request_read+0x66>
 8004738:	484e      	ldr	r0, [pc, #312]	; (8004874 <stm32__i2c__master_request_read+0x198>)
 800473a:	f240 11d1 	movw	r1, #465	; 0x1d1
 800473e:	f7fc ff1d 	bl	800157c <__gnat_last_chance_handler>
 8004742:	68fb      	ldr	r3, [r7, #12]
 8004744:	685b      	ldr	r3, [r3, #4]
 8004746:	3310      	adds	r3, #16
 8004748:	681b      	ldr	r3, [r3, #0]
 800474a:	897a      	ldrh	r2, [r7, #10]
 800474c:	b2d2      	uxtb	r2, r2
 800474e:	f042 0201 	orr.w	r2, r2, #1
 8004752:	b2d2      	uxtb	r2, r2
 8004754:	f362 0307 	bfi	r3, r2, #0, #8
 8004758:	68fa      	ldr	r2, [r7, #12]
 800475a:	6852      	ldr	r2, [r2, #4]
 800475c:	3210      	adds	r2, #16
 800475e:	6013      	str	r3, [r2, #0]
 8004760:	e072      	b.n	8004848 <stm32__i2c__master_request_read+0x16c>
 8004762:	897b      	ldrh	r3, [r7, #10]
 8004764:	f403 7340 	and.w	r3, r3, #768	; 0x300
 8004768:	b29b      	uxth	r3, r3
 800476a:	09db      	lsrs	r3, r3, #7
 800476c:	b29b      	uxth	r3, r3
 800476e:	2bff      	cmp	r3, #255	; 0xff
 8004770:	d904      	bls.n	800477c <stm32__i2c__master_request_read+0xa0>
 8004772:	4840      	ldr	r0, [pc, #256]	; (8004874 <stm32__i2c__master_request_read+0x198>)
 8004774:	f240 11d5 	movw	r1, #469	; 0x1d5
 8004778:	f7fc ff00 	bl	800157c <__gnat_last_chance_handler>
 800477c:	897b      	ldrh	r3, [r7, #10]
 800477e:	f403 7340 	and.w	r3, r3, #768	; 0x300
 8004782:	b29b      	uxth	r3, r3
 8004784:	09db      	lsrs	r3, r3, #7
 8004786:	b29b      	uxth	r3, r3
 8004788:	75fb      	strb	r3, [r7, #23]
 800478a:	897b      	ldrh	r3, [r7, #10]
 800478c:	b2db      	uxtb	r3, r3
 800478e:	b29b      	uxth	r3, r3
 8004790:	2bff      	cmp	r3, #255	; 0xff
 8004792:	d904      	bls.n	800479e <stm32__i2c__master_request_read+0xc2>
 8004794:	4837      	ldr	r0, [pc, #220]	; (8004874 <stm32__i2c__master_request_read+0x198>)
 8004796:	f240 11d7 	movw	r1, #471	; 0x1d7
 800479a:	f7fc feef 	bl	800157c <__gnat_last_chance_handler>
 800479e:	897b      	ldrh	r3, [r7, #10]
 80047a0:	75bb      	strb	r3, [r7, #22]
 80047a2:	68fb      	ldr	r3, [r7, #12]
 80047a4:	685b      	ldr	r3, [r3, #4]
 80047a6:	3310      	adds	r3, #16
 80047a8:	681b      	ldr	r3, [r3, #0]
 80047aa:	7dfa      	ldrb	r2, [r7, #23]
 80047ac:	f062 020f 	orn	r2, r2, #15
 80047b0:	b2d2      	uxtb	r2, r2
 80047b2:	f362 0307 	bfi	r3, r2, #0, #8
 80047b6:	68fa      	ldr	r2, [r7, #12]
 80047b8:	6852      	ldr	r2, [r2, #4]
 80047ba:	3210      	adds	r2, #16
 80047bc:	6013      	str	r3, [r2, #0]
 80047be:	68f8      	ldr	r0, [r7, #12]
 80047c0:	2103      	movs	r1, #3
 80047c2:	687a      	ldr	r2, [r7, #4]
 80047c4:	f7ff fea0 	bl	8004508 <stm32__i2c__wait_master_flag>
 80047c8:	4603      	mov	r3, r0
 80047ca:	757b      	strb	r3, [r7, #21]
 80047cc:	7d7b      	ldrb	r3, [r7, #21]
 80047ce:	2b00      	cmp	r3, #0
 80047d0:	d144      	bne.n	800485c <stm32__i2c__master_request_read+0x180>
 80047d2:	68fb      	ldr	r3, [r7, #12]
 80047d4:	685b      	ldr	r3, [r3, #4]
 80047d6:	3310      	adds	r3, #16
 80047d8:	681b      	ldr	r3, [r3, #0]
 80047da:	7dba      	ldrb	r2, [r7, #22]
 80047dc:	f362 0307 	bfi	r3, r2, #0, #8
 80047e0:	68fa      	ldr	r2, [r7, #12]
 80047e2:	6852      	ldr	r2, [r2, #4]
 80047e4:	3210      	adds	r2, #16
 80047e6:	6013      	str	r3, [r2, #0]
 80047e8:	68f8      	ldr	r0, [r7, #12]
 80047ea:	2101      	movs	r1, #1
 80047ec:	687a      	ldr	r2, [r7, #4]
 80047ee:	f7ff fe8b 	bl	8004508 <stm32__i2c__wait_master_flag>
 80047f2:	4603      	mov	r3, r0
 80047f4:	757b      	strb	r3, [r7, #21]
 80047f6:	7d7b      	ldrb	r3, [r7, #21]
 80047f8:	2b00      	cmp	r3, #0
 80047fa:	d131      	bne.n	8004860 <stm32__i2c__master_request_read+0x184>
 80047fc:	68f8      	ldr	r0, [r7, #12]
 80047fe:	f7ff fe2f 	bl	8004460 <stm32__i2c__clear_address_sent_status>
 8004802:	68fb      	ldr	r3, [r7, #12]
 8004804:	685b      	ldr	r3, [r3, #4]
 8004806:	681b      	ldr	r3, [r3, #0]
 8004808:	461a      	mov	r2, r3
 800480a:	4613      	mov	r3, r2
 800480c:	f443 7280 	orr.w	r2, r3, #256	; 0x100
 8004810:	68fb      	ldr	r3, [r7, #12]
 8004812:	685b      	ldr	r3, [r3, #4]
 8004814:	601a      	str	r2, [r3, #0]
 8004816:	68f8      	ldr	r0, [r7, #12]
 8004818:	2100      	movs	r1, #0
 800481a:	2200      	movs	r2, #0
 800481c:	687b      	ldr	r3, [r7, #4]
 800481e:	f7ff fe39 	bl	8004494 <stm32__i2c__wait_flag>
 8004822:	4603      	mov	r3, r0
 8004824:	757b      	strb	r3, [r7, #21]
 8004826:	7d7b      	ldrb	r3, [r7, #21]
 8004828:	2b00      	cmp	r3, #0
 800482a:	d11b      	bne.n	8004864 <stm32__i2c__master_request_read+0x188>
 800482c:	68fb      	ldr	r3, [r7, #12]
 800482e:	685b      	ldr	r3, [r3, #4]
 8004830:	3310      	adds	r3, #16
 8004832:	681b      	ldr	r3, [r3, #0]
 8004834:	7dfa      	ldrb	r2, [r7, #23]
 8004836:	f062 020e 	orn	r2, r2, #14
 800483a:	b2d2      	uxtb	r2, r2
 800483c:	f362 0307 	bfi	r3, r2, #0, #8
 8004840:	68fa      	ldr	r2, [r7, #12]
 8004842:	6852      	ldr	r2, [r2, #4]
 8004844:	3210      	adds	r2, #16
 8004846:	6013      	str	r3, [r2, #0]
 8004848:	68f8      	ldr	r0, [r7, #12]
 800484a:	2101      	movs	r1, #1
 800484c:	687a      	ldr	r2, [r7, #4]
 800484e:	f7ff fe5b 	bl	8004508 <stm32__i2c__wait_master_flag>
 8004852:	4603      	mov	r3, r0
 8004854:	757b      	strb	r3, [r7, #21]
 8004856:	e006      	b.n	8004866 <stm32__i2c__master_request_read+0x18a>
 8004858:	bf00      	nop
 800485a:	e004      	b.n	8004866 <stm32__i2c__master_request_read+0x18a>
 800485c:	bf00      	nop
 800485e:	e002      	b.n	8004866 <stm32__i2c__master_request_read+0x18a>
 8004860:	bf00      	nop
 8004862:	e000      	b.n	8004866 <stm32__i2c__master_request_read+0x18a>
 8004864:	bf00      	nop
 8004866:	7d7b      	ldrb	r3, [r7, #21]
 8004868:	bf00      	nop
 800486a:	4618      	mov	r0, r3
 800486c:	3718      	adds	r7, #24
 800486e:	46bd      	mov	sp, r7
 8004870:	bd80      	pop	{r7, pc}
 8004872:	bf00      	nop
 8004874:	0800b4f0 	.word	0x0800b4f0

08004878 <stm32__i2c__mem_request_write>:
 8004878:	b580      	push	{r7, lr}
 800487a:	b086      	sub	sp, #24
 800487c:	af00      	add	r7, sp, #0
 800487e:	60f8      	str	r0, [r7, #12]
 8004880:	4608      	mov	r0, r1
 8004882:	4611      	mov	r1, r2
 8004884:	461a      	mov	r2, r3
 8004886:	4603      	mov	r3, r0
 8004888:	817b      	strh	r3, [r7, #10]
 800488a:	460b      	mov	r3, r1
 800488c:	813b      	strh	r3, [r7, #8]
 800488e:	4613      	mov	r3, r2
 8004890:	71fb      	strb	r3, [r7, #7]
 8004892:	68fb      	ldr	r3, [r7, #12]
 8004894:	685b      	ldr	r3, [r3, #4]
 8004896:	681b      	ldr	r3, [r3, #0]
 8004898:	461a      	mov	r2, r3
 800489a:	4613      	mov	r3, r2
 800489c:	f443 7280 	orr.w	r2, r3, #256	; 0x100
 80048a0:	68fb      	ldr	r3, [r7, #12]
 80048a2:	685b      	ldr	r3, [r3, #4]
 80048a4:	601a      	str	r2, [r3, #0]
 80048a6:	68f8      	ldr	r0, [r7, #12]
 80048a8:	2100      	movs	r1, #0
 80048aa:	2200      	movs	r2, #0
 80048ac:	6a3b      	ldr	r3, [r7, #32]
 80048ae:	f7ff fdf1 	bl	8004494 <stm32__i2c__wait_flag>
 80048b2:	4603      	mov	r3, r0
 80048b4:	75fb      	strb	r3, [r7, #23]
 80048b6:	7dfb      	ldrb	r3, [r7, #23]
 80048b8:	2b00      	cmp	r3, #0
 80048ba:	f040 8091 	bne.w	80049e0 <stm32__i2c__mem_request_write+0x168>
 80048be:	897b      	ldrh	r3, [r7, #10]
 80048c0:	2bff      	cmp	r3, #255	; 0xff
 80048c2:	d904      	bls.n	80048ce <stm32__i2c__mem_request_write+0x56>
 80048c4:	484d      	ldr	r0, [pc, #308]	; (80049fc <stm32__i2c__mem_request_write+0x184>)
 80048c6:	f240 2116 	movw	r1, #534	; 0x216
 80048ca:	f7fc fe57 	bl	800157c <__gnat_last_chance_handler>
 80048ce:	68fb      	ldr	r3, [r7, #12]
 80048d0:	685b      	ldr	r3, [r3, #4]
 80048d2:	3310      	adds	r3, #16
 80048d4:	681b      	ldr	r3, [r3, #0]
 80048d6:	897a      	ldrh	r2, [r7, #10]
 80048d8:	b2d2      	uxtb	r2, r2
 80048da:	f022 0201 	bic.w	r2, r2, #1
 80048de:	b2d2      	uxtb	r2, r2
 80048e0:	f362 0307 	bfi	r3, r2, #0, #8
 80048e4:	68fa      	ldr	r2, [r7, #12]
 80048e6:	6852      	ldr	r2, [r2, #4]
 80048e8:	3210      	adds	r2, #16
 80048ea:	6013      	str	r3, [r2, #0]
 80048ec:	68f8      	ldr	r0, [r7, #12]
 80048ee:	2101      	movs	r1, #1
 80048f0:	6a3a      	ldr	r2, [r7, #32]
 80048f2:	f7ff fe09 	bl	8004508 <stm32__i2c__wait_master_flag>
 80048f6:	4603      	mov	r3, r0
 80048f8:	75fb      	strb	r3, [r7, #23]
 80048fa:	7dfb      	ldrb	r3, [r7, #23]
 80048fc:	2b00      	cmp	r3, #0
 80048fe:	d171      	bne.n	80049e4 <stm32__i2c__mem_request_write+0x16c>
 8004900:	68f8      	ldr	r0, [r7, #12]
 8004902:	f7ff fdad 	bl	8004460 <stm32__i2c__clear_address_sent_status>
 8004906:	68f8      	ldr	r0, [r7, #12]
 8004908:	2106      	movs	r1, #6
 800490a:	2200      	movs	r2, #0
 800490c:	6a3b      	ldr	r3, [r7, #32]
 800490e:	f7ff fdc1 	bl	8004494 <stm32__i2c__wait_flag>
 8004912:	4603      	mov	r3, r0
 8004914:	75fb      	strb	r3, [r7, #23]
 8004916:	7dfb      	ldrb	r3, [r7, #23]
 8004918:	2b00      	cmp	r3, #0
 800491a:	d165      	bne.n	80049e8 <stm32__i2c__mem_request_write+0x170>
 800491c:	79fb      	ldrb	r3, [r7, #7]
 800491e:	2b01      	cmp	r3, #1
 8004920:	d904      	bls.n	800492c <stm32__i2c__mem_request_write+0xb4>
 8004922:	4836      	ldr	r0, [pc, #216]	; (80049fc <stm32__i2c__mem_request_write+0x184>)
 8004924:	f240 2126 	movw	r1, #550	; 0x226
 8004928:	f7fc fe28 	bl	800157c <__gnat_last_chance_handler>
 800492c:	79fb      	ldrb	r3, [r7, #7]
 800492e:	2b00      	cmp	r3, #0
 8004930:	d114      	bne.n	800495c <stm32__i2c__mem_request_write+0xe4>
 8004932:	893b      	ldrh	r3, [r7, #8]
 8004934:	2bff      	cmp	r3, #255	; 0xff
 8004936:	d904      	bls.n	8004942 <stm32__i2c__mem_request_write+0xca>
 8004938:	4830      	ldr	r0, [pc, #192]	; (80049fc <stm32__i2c__mem_request_write+0x184>)
 800493a:	f44f 710a 	mov.w	r1, #552	; 0x228
 800493e:	f7fc fe1d 	bl	800157c <__gnat_last_chance_handler>
 8004942:	68fb      	ldr	r3, [r7, #12]
 8004944:	685b      	ldr	r3, [r3, #4]
 8004946:	3310      	adds	r3, #16
 8004948:	681b      	ldr	r3, [r3, #0]
 800494a:	893a      	ldrh	r2, [r7, #8]
 800494c:	b2d2      	uxtb	r2, r2
 800494e:	f362 0307 	bfi	r3, r2, #0, #8
 8004952:	68fa      	ldr	r2, [r7, #12]
 8004954:	6852      	ldr	r2, [r2, #4]
 8004956:	3210      	adds	r2, #16
 8004958:	6013      	str	r3, [r2, #0]
 800495a:	e038      	b.n	80049ce <stm32__i2c__mem_request_write+0x156>
 800495c:	893b      	ldrh	r3, [r7, #8]
 800495e:	0a1b      	lsrs	r3, r3, #8
 8004960:	b29b      	uxth	r3, r3
 8004962:	2bff      	cmp	r3, #255	; 0xff
 8004964:	d904      	bls.n	8004970 <stm32__i2c__mem_request_write+0xf8>
 8004966:	4825      	ldr	r0, [pc, #148]	; (80049fc <stm32__i2c__mem_request_write+0x184>)
 8004968:	f240 212a 	movw	r1, #554	; 0x22a
 800496c:	f7fc fe06 	bl	800157c <__gnat_last_chance_handler>
 8004970:	68fb      	ldr	r3, [r7, #12]
 8004972:	685b      	ldr	r3, [r3, #4]
 8004974:	3310      	adds	r3, #16
 8004976:	681b      	ldr	r3, [r3, #0]
 8004978:	893a      	ldrh	r2, [r7, #8]
 800497a:	0a12      	lsrs	r2, r2, #8
 800497c:	b292      	uxth	r2, r2
 800497e:	b2d2      	uxtb	r2, r2
 8004980:	f362 0307 	bfi	r3, r2, #0, #8
 8004984:	68fa      	ldr	r2, [r7, #12]
 8004986:	6852      	ldr	r2, [r2, #4]
 8004988:	3210      	adds	r2, #16
 800498a:	6013      	str	r3, [r2, #0]
 800498c:	68f8      	ldr	r0, [r7, #12]
 800498e:	2106      	movs	r1, #6
 8004990:	2200      	movs	r2, #0
 8004992:	6a3b      	ldr	r3, [r7, #32]
 8004994:	f7ff fd7e 	bl	8004494 <stm32__i2c__wait_flag>
 8004998:	4603      	mov	r3, r0
 800499a:	75fb      	strb	r3, [r7, #23]
 800499c:	7dfb      	ldrb	r3, [r7, #23]
 800499e:	2b00      	cmp	r3, #0
 80049a0:	d124      	bne.n	80049ec <stm32__i2c__mem_request_write+0x174>
 80049a2:	893b      	ldrh	r3, [r7, #8]
 80049a4:	b2db      	uxtb	r3, r3
 80049a6:	b29b      	uxth	r3, r3
 80049a8:	2bff      	cmp	r3, #255	; 0xff
 80049aa:	d904      	bls.n	80049b6 <stm32__i2c__mem_request_write+0x13e>
 80049ac:	4813      	ldr	r0, [pc, #76]	; (80049fc <stm32__i2c__mem_request_write+0x184>)
 80049ae:	f240 2132 	movw	r1, #562	; 0x232
 80049b2:	f7fc fde3 	bl	800157c <__gnat_last_chance_handler>
 80049b6:	68fb      	ldr	r3, [r7, #12]
 80049b8:	685b      	ldr	r3, [r3, #4]
 80049ba:	3310      	adds	r3, #16
 80049bc:	681b      	ldr	r3, [r3, #0]
 80049be:	893a      	ldrh	r2, [r7, #8]
 80049c0:	b2d2      	uxtb	r2, r2
 80049c2:	f362 0307 	bfi	r3, r2, #0, #8
 80049c6:	68fa      	ldr	r2, [r7, #12]
 80049c8:	6852      	ldr	r2, [r2, #4]
 80049ca:	3210      	adds	r2, #16
 80049cc:	6013      	str	r3, [r2, #0]
 80049ce:	68f8      	ldr	r0, [r7, #12]
 80049d0:	2106      	movs	r1, #6
 80049d2:	2200      	movs	r2, #0
 80049d4:	6a3b      	ldr	r3, [r7, #32]
 80049d6:	f7ff fd5d 	bl	8004494 <stm32__i2c__wait_flag>
 80049da:	4603      	mov	r3, r0
 80049dc:	75fb      	strb	r3, [r7, #23]
 80049de:	e006      	b.n	80049ee <stm32__i2c__mem_request_write+0x176>
 80049e0:	bf00      	nop
 80049e2:	e004      	b.n	80049ee <stm32__i2c__mem_request_write+0x176>
 80049e4:	bf00      	nop
 80049e6:	e002      	b.n	80049ee <stm32__i2c__mem_request_write+0x176>
 80049e8:	bf00      	nop
 80049ea:	e000      	b.n	80049ee <stm32__i2c__mem_request_write+0x176>
 80049ec:	bf00      	nop
 80049ee:	7dfb      	ldrb	r3, [r7, #23]
 80049f0:	bf00      	nop
 80049f2:	4618      	mov	r0, r3
 80049f4:	3718      	adds	r7, #24
 80049f6:	46bd      	mov	sp, r7
 80049f8:	bd80      	pop	{r7, pc}
 80049fa:	bf00      	nop
 80049fc:	0800b4f0 	.word	0x0800b4f0

08004a00 <stm32__i2c__mem_request_read>:
 8004a00:	b580      	push	{r7, lr}
 8004a02:	b086      	sub	sp, #24
 8004a04:	af00      	add	r7, sp, #0
 8004a06:	60f8      	str	r0, [r7, #12]
 8004a08:	4608      	mov	r0, r1
 8004a0a:	4611      	mov	r1, r2
 8004a0c:	461a      	mov	r2, r3
 8004a0e:	4603      	mov	r3, r0
 8004a10:	817b      	strh	r3, [r7, #10]
 8004a12:	460b      	mov	r3, r1
 8004a14:	813b      	strh	r3, [r7, #8]
 8004a16:	4613      	mov	r3, r2
 8004a18:	71fb      	strb	r3, [r7, #7]
 8004a1a:	68fb      	ldr	r3, [r7, #12]
 8004a1c:	685b      	ldr	r3, [r3, #4]
 8004a1e:	681b      	ldr	r3, [r3, #0]
 8004a20:	461a      	mov	r2, r3
 8004a22:	4613      	mov	r3, r2
 8004a24:	f443 6280 	orr.w	r2, r3, #1024	; 0x400
 8004a28:	68fb      	ldr	r3, [r7, #12]
 8004a2a:	685b      	ldr	r3, [r3, #4]
 8004a2c:	601a      	str	r2, [r3, #0]
 8004a2e:	68fb      	ldr	r3, [r7, #12]
 8004a30:	685b      	ldr	r3, [r3, #4]
 8004a32:	681b      	ldr	r3, [r3, #0]
 8004a34:	461a      	mov	r2, r3
 8004a36:	4613      	mov	r3, r2
 8004a38:	f443 7280 	orr.w	r2, r3, #256	; 0x100
 8004a3c:	68fb      	ldr	r3, [r7, #12]
 8004a3e:	685b      	ldr	r3, [r3, #4]
 8004a40:	601a      	str	r2, [r3, #0]
 8004a42:	68f8      	ldr	r0, [r7, #12]
 8004a44:	2100      	movs	r1, #0
 8004a46:	2200      	movs	r2, #0
 8004a48:	6a3b      	ldr	r3, [r7, #32]
 8004a4a:	f7ff fd23 	bl	8004494 <stm32__i2c__wait_flag>
 8004a4e:	4603      	mov	r3, r0
 8004a50:	75fb      	strb	r3, [r7, #23]
 8004a52:	7dfb      	ldrb	r3, [r7, #23]
 8004a54:	2b00      	cmp	r3, #0
 8004a56:	f040 80c9 	bne.w	8004bec <stm32__i2c__mem_request_read+0x1ec>
 8004a5a:	897b      	ldrh	r3, [r7, #10]
 8004a5c:	2bff      	cmp	r3, #255	; 0xff
 8004a5e:	d904      	bls.n	8004a6a <stm32__i2c__mem_request_read+0x6a>
 8004a60:	486b      	ldr	r0, [pc, #428]	; (8004c10 <stm32__i2c__mem_request_read+0x210>)
 8004a62:	f240 2151 	movw	r1, #593	; 0x251
 8004a66:	f7fc fd89 	bl	800157c <__gnat_last_chance_handler>
 8004a6a:	68fb      	ldr	r3, [r7, #12]
 8004a6c:	685b      	ldr	r3, [r3, #4]
 8004a6e:	3310      	adds	r3, #16
 8004a70:	681b      	ldr	r3, [r3, #0]
 8004a72:	897a      	ldrh	r2, [r7, #10]
 8004a74:	b2d2      	uxtb	r2, r2
 8004a76:	f022 0201 	bic.w	r2, r2, #1
 8004a7a:	b2d2      	uxtb	r2, r2
 8004a7c:	f362 0307 	bfi	r3, r2, #0, #8
 8004a80:	68fa      	ldr	r2, [r7, #12]
 8004a82:	6852      	ldr	r2, [r2, #4]
 8004a84:	3210      	adds	r2, #16
 8004a86:	6013      	str	r3, [r2, #0]
 8004a88:	68f8      	ldr	r0, [r7, #12]
 8004a8a:	2101      	movs	r1, #1
 8004a8c:	6a3a      	ldr	r2, [r7, #32]
 8004a8e:	f7ff fd3b 	bl	8004508 <stm32__i2c__wait_master_flag>
 8004a92:	4603      	mov	r3, r0
 8004a94:	75fb      	strb	r3, [r7, #23]
 8004a96:	7dfb      	ldrb	r3, [r7, #23]
 8004a98:	2b00      	cmp	r3, #0
 8004a9a:	f040 80a9 	bne.w	8004bf0 <stm32__i2c__mem_request_read+0x1f0>
 8004a9e:	68f8      	ldr	r0, [r7, #12]
 8004aa0:	f7ff fcde 	bl	8004460 <stm32__i2c__clear_address_sent_status>
 8004aa4:	68f8      	ldr	r0, [r7, #12]
 8004aa6:	2106      	movs	r1, #6
 8004aa8:	2200      	movs	r2, #0
 8004aaa:	6a3b      	ldr	r3, [r7, #32]
 8004aac:	f7ff fcf2 	bl	8004494 <stm32__i2c__wait_flag>
 8004ab0:	4603      	mov	r3, r0
 8004ab2:	75fb      	strb	r3, [r7, #23]
 8004ab4:	7dfb      	ldrb	r3, [r7, #23]
 8004ab6:	2b00      	cmp	r3, #0
 8004ab8:	f040 809c 	bne.w	8004bf4 <stm32__i2c__mem_request_read+0x1f4>
 8004abc:	79fb      	ldrb	r3, [r7, #7]
 8004abe:	2b01      	cmp	r3, #1
 8004ac0:	d904      	bls.n	8004acc <stm32__i2c__mem_request_read+0xcc>
 8004ac2:	4853      	ldr	r0, [pc, #332]	; (8004c10 <stm32__i2c__mem_request_read+0x210>)
 8004ac4:	f240 2162 	movw	r1, #610	; 0x262
 8004ac8:	f7fc fd58 	bl	800157c <__gnat_last_chance_handler>
 8004acc:	79fb      	ldrb	r3, [r7, #7]
 8004ace:	2b00      	cmp	r3, #0
 8004ad0:	d114      	bne.n	8004afc <stm32__i2c__mem_request_read+0xfc>
 8004ad2:	893b      	ldrh	r3, [r7, #8]
 8004ad4:	2bff      	cmp	r3, #255	; 0xff
 8004ad6:	d904      	bls.n	8004ae2 <stm32__i2c__mem_request_read+0xe2>
 8004ad8:	484d      	ldr	r0, [pc, #308]	; (8004c10 <stm32__i2c__mem_request_read+0x210>)
 8004ada:	f44f 7119 	mov.w	r1, #612	; 0x264
 8004ade:	f7fc fd4d 	bl	800157c <__gnat_last_chance_handler>
 8004ae2:	68fb      	ldr	r3, [r7, #12]
 8004ae4:	685b      	ldr	r3, [r3, #4]
 8004ae6:	3310      	adds	r3, #16
 8004ae8:	681b      	ldr	r3, [r3, #0]
 8004aea:	893a      	ldrh	r2, [r7, #8]
 8004aec:	b2d2      	uxtb	r2, r2
 8004aee:	f362 0307 	bfi	r3, r2, #0, #8
 8004af2:	68fa      	ldr	r2, [r7, #12]
 8004af4:	6852      	ldr	r2, [r2, #4]
 8004af6:	3210      	adds	r2, #16
 8004af8:	6013      	str	r3, [r2, #0]
 8004afa:	e038      	b.n	8004b6e <stm32__i2c__mem_request_read+0x16e>
 8004afc:	893b      	ldrh	r3, [r7, #8]
 8004afe:	0a1b      	lsrs	r3, r3, #8
 8004b00:	b29b      	uxth	r3, r3
 8004b02:	2bff      	cmp	r3, #255	; 0xff
 8004b04:	d904      	bls.n	8004b10 <stm32__i2c__mem_request_read+0x110>
 8004b06:	4842      	ldr	r0, [pc, #264]	; (8004c10 <stm32__i2c__mem_request_read+0x210>)
 8004b08:	f240 2166 	movw	r1, #614	; 0x266
 8004b0c:	f7fc fd36 	bl	800157c <__gnat_last_chance_handler>
 8004b10:	68fb      	ldr	r3, [r7, #12]
 8004b12:	685b      	ldr	r3, [r3, #4]
 8004b14:	3310      	adds	r3, #16
 8004b16:	681b      	ldr	r3, [r3, #0]
 8004b18:	893a      	ldrh	r2, [r7, #8]
 8004b1a:	0a12      	lsrs	r2, r2, #8
 8004b1c:	b292      	uxth	r2, r2
 8004b1e:	b2d2      	uxtb	r2, r2
 8004b20:	f362 0307 	bfi	r3, r2, #0, #8
 8004b24:	68fa      	ldr	r2, [r7, #12]
 8004b26:	6852      	ldr	r2, [r2, #4]
 8004b28:	3210      	adds	r2, #16
 8004b2a:	6013      	str	r3, [r2, #0]
 8004b2c:	68f8      	ldr	r0, [r7, #12]
 8004b2e:	2106      	movs	r1, #6
 8004b30:	2200      	movs	r2, #0
 8004b32:	6a3b      	ldr	r3, [r7, #32]
 8004b34:	f7ff fcae 	bl	8004494 <stm32__i2c__wait_flag>
 8004b38:	4603      	mov	r3, r0
 8004b3a:	75fb      	strb	r3, [r7, #23]
 8004b3c:	7dfb      	ldrb	r3, [r7, #23]
 8004b3e:	2b00      	cmp	r3, #0
 8004b40:	d15a      	bne.n	8004bf8 <stm32__i2c__mem_request_read+0x1f8>
 8004b42:	893b      	ldrh	r3, [r7, #8]
 8004b44:	b2db      	uxtb	r3, r3
 8004b46:	b29b      	uxth	r3, r3
 8004b48:	2bff      	cmp	r3, #255	; 0xff
 8004b4a:	d904      	bls.n	8004b56 <stm32__i2c__mem_request_read+0x156>
 8004b4c:	4830      	ldr	r0, [pc, #192]	; (8004c10 <stm32__i2c__mem_request_read+0x210>)
 8004b4e:	f240 216e 	movw	r1, #622	; 0x26e
 8004b52:	f7fc fd13 	bl	800157c <__gnat_last_chance_handler>
 8004b56:	68fb      	ldr	r3, [r7, #12]
 8004b58:	685b      	ldr	r3, [r3, #4]
 8004b5a:	3310      	adds	r3, #16
 8004b5c:	681b      	ldr	r3, [r3, #0]
 8004b5e:	893a      	ldrh	r2, [r7, #8]
 8004b60:	b2d2      	uxtb	r2, r2
 8004b62:	f362 0307 	bfi	r3, r2, #0, #8
 8004b66:	68fa      	ldr	r2, [r7, #12]
 8004b68:	6852      	ldr	r2, [r2, #4]
 8004b6a:	3210      	adds	r2, #16
 8004b6c:	6013      	str	r3, [r2, #0]
 8004b6e:	68f8      	ldr	r0, [r7, #12]
 8004b70:	2106      	movs	r1, #6
 8004b72:	2200      	movs	r2, #0
 8004b74:	6a3b      	ldr	r3, [r7, #32]
 8004b76:	f7ff fc8d 	bl	8004494 <stm32__i2c__wait_flag>
 8004b7a:	4603      	mov	r3, r0
 8004b7c:	75fb      	strb	r3, [r7, #23]
 8004b7e:	7dfb      	ldrb	r3, [r7, #23]
 8004b80:	2b00      	cmp	r3, #0
 8004b82:	d13b      	bne.n	8004bfc <stm32__i2c__mem_request_read+0x1fc>
 8004b84:	68fb      	ldr	r3, [r7, #12]
 8004b86:	685b      	ldr	r3, [r3, #4]
 8004b88:	681b      	ldr	r3, [r3, #0]
 8004b8a:	461a      	mov	r2, r3
 8004b8c:	4613      	mov	r3, r2
 8004b8e:	f443 7280 	orr.w	r2, r3, #256	; 0x100
 8004b92:	68fb      	ldr	r3, [r7, #12]
 8004b94:	685b      	ldr	r3, [r3, #4]
 8004b96:	601a      	str	r2, [r3, #0]
 8004b98:	68f8      	ldr	r0, [r7, #12]
 8004b9a:	2100      	movs	r1, #0
 8004b9c:	2200      	movs	r2, #0
 8004b9e:	6a3b      	ldr	r3, [r7, #32]
 8004ba0:	f7ff fc78 	bl	8004494 <stm32__i2c__wait_flag>
 8004ba4:	4603      	mov	r3, r0
 8004ba6:	75fb      	strb	r3, [r7, #23]
 8004ba8:	7dfb      	ldrb	r3, [r7, #23]
 8004baa:	2b00      	cmp	r3, #0
 8004bac:	d128      	bne.n	8004c00 <stm32__i2c__mem_request_read+0x200>
 8004bae:	897b      	ldrh	r3, [r7, #10]
 8004bb0:	2bff      	cmp	r3, #255	; 0xff
 8004bb2:	d904      	bls.n	8004bbe <stm32__i2c__mem_request_read+0x1be>
 8004bb4:	4816      	ldr	r0, [pc, #88]	; (8004c10 <stm32__i2c__mem_request_read+0x210>)
 8004bb6:	f240 2182 	movw	r1, #642	; 0x282
 8004bba:	f7fc fcdf 	bl	800157c <__gnat_last_chance_handler>
 8004bbe:	68fb      	ldr	r3, [r7, #12]
 8004bc0:	685b      	ldr	r3, [r3, #4]
 8004bc2:	3310      	adds	r3, #16
 8004bc4:	681b      	ldr	r3, [r3, #0]
 8004bc6:	897a      	ldrh	r2, [r7, #10]
 8004bc8:	b2d2      	uxtb	r2, r2
 8004bca:	f042 0201 	orr.w	r2, r2, #1
 8004bce:	b2d2      	uxtb	r2, r2
 8004bd0:	f362 0307 	bfi	r3, r2, #0, #8
 8004bd4:	68fa      	ldr	r2, [r7, #12]
 8004bd6:	6852      	ldr	r2, [r2, #4]
 8004bd8:	3210      	adds	r2, #16
 8004bda:	6013      	str	r3, [r2, #0]
 8004bdc:	68f8      	ldr	r0, [r7, #12]
 8004bde:	2101      	movs	r1, #1
 8004be0:	6a3a      	ldr	r2, [r7, #32]
 8004be2:	f7ff fc91 	bl	8004508 <stm32__i2c__wait_master_flag>
 8004be6:	4603      	mov	r3, r0
 8004be8:	75fb      	strb	r3, [r7, #23]
 8004bea:	e00a      	b.n	8004c02 <stm32__i2c__mem_request_read+0x202>
 8004bec:	bf00      	nop
 8004bee:	e008      	b.n	8004c02 <stm32__i2c__mem_request_read+0x202>
 8004bf0:	bf00      	nop
 8004bf2:	e006      	b.n	8004c02 <stm32__i2c__mem_request_read+0x202>
 8004bf4:	bf00      	nop
 8004bf6:	e004      	b.n	8004c02 <stm32__i2c__mem_request_read+0x202>
 8004bf8:	bf00      	nop
 8004bfa:	e002      	b.n	8004c02 <stm32__i2c__mem_request_read+0x202>
 8004bfc:	bf00      	nop
 8004bfe:	e000      	b.n	8004c02 <stm32__i2c__mem_request_read+0x202>
 8004c00:	bf00      	nop
 8004c02:	7dfb      	ldrb	r3, [r7, #23]
 8004c04:	bf00      	nop
 8004c06:	4618      	mov	r0, r3
 8004c08:	3718      	adds	r7, #24
 8004c0a:	46bd      	mov	sp, r7
 8004c0c:	bd80      	pop	{r7, pc}
 8004c0e:	bf00      	nop
 8004c10:	0800b4f0 	.word	0x0800b4f0

08004c14 <stm32__i2c__master_transmit>:
 8004c14:	b5f0      	push	{r4, r5, r6, r7, lr}
 8004c16:	b087      	sub	sp, #28
 8004c18:	af00      	add	r7, sp, #0
 8004c1a:	60f8      	str	r0, [r7, #12]
 8004c1c:	e9c7 2300 	strd	r2, r3, [r7]
 8004c20:	460b      	mov	r3, r1
 8004c22:	817b      	strh	r3, [r7, #10]
 8004c24:	687b      	ldr	r3, [r7, #4]
 8004c26:	681c      	ldr	r4, [r3, #0]
 8004c28:	687b      	ldr	r3, [r7, #4]
 8004c2a:	685d      	ldr	r5, [r3, #4]
 8004c2c:	4626      	mov	r6, r4
 8004c2e:	2c00      	cmp	r4, #0
 8004c30:	da04      	bge.n	8004c3c <stm32__i2c__master_transmit+0x28>
 8004c32:	4866      	ldr	r0, [pc, #408]	; (8004dcc <stm32__i2c__master_transmit+0x1b8>)
 8004c34:	f240 2193 	movw	r1, #659	; 0x293
 8004c38:	f7fc fca0 	bl	800157c <__gnat_last_chance_handler>
 8004c3c:	617c      	str	r4, [r7, #20]
 8004c3e:	68fb      	ldr	r3, [r7, #12]
 8004c40:	7d1b      	ldrb	r3, [r3, #20]
 8004c42:	2b00      	cmp	r3, #0
 8004c44:	d102      	bne.n	8004c4c <stm32__i2c__master_transmit+0x38>
 8004c46:	2301      	movs	r3, #1
 8004c48:	74fb      	strb	r3, [r7, #19]
 8004c4a:	e0b9      	b.n	8004dc0 <stm32__i2c__master_transmit+0x1ac>
 8004c4c:	42ac      	cmp	r4, r5
 8004c4e:	dd02      	ble.n	8004c56 <stm32__i2c__master_transmit+0x42>
 8004c50:	2301      	movs	r3, #1
 8004c52:	74fb      	strb	r3, [r7, #19]
 8004c54:	e0b4      	b.n	8004dc0 <stm32__i2c__master_transmit+0x1ac>
 8004c56:	68f8      	ldr	r0, [r7, #12]
 8004c58:	210f      	movs	r1, #15
 8004c5a:	2201      	movs	r2, #1
 8004c5c:	6b3b      	ldr	r3, [r7, #48]	; 0x30
 8004c5e:	f7ff fc19 	bl	8004494 <stm32__i2c__wait_flag>
 8004c62:	4603      	mov	r3, r0
 8004c64:	74fb      	strb	r3, [r7, #19]
 8004c66:	7cfb      	ldrb	r3, [r7, #19]
 8004c68:	2b00      	cmp	r3, #0
 8004c6a:	d002      	beq.n	8004c72 <stm32__i2c__master_transmit+0x5e>
 8004c6c:	2303      	movs	r3, #3
 8004c6e:	74fb      	strb	r3, [r7, #19]
 8004c70:	e0a6      	b.n	8004dc0 <stm32__i2c__master_transmit+0x1ac>
 8004c72:	68fb      	ldr	r3, [r7, #12]
 8004c74:	7d1b      	ldrb	r3, [r3, #20]
 8004c76:	2b01      	cmp	r3, #1
 8004c78:	d002      	beq.n	8004c80 <stm32__i2c__master_transmit+0x6c>
 8004c7a:	2303      	movs	r3, #3
 8004c7c:	74fb      	strb	r3, [r7, #19]
 8004c7e:	e09f      	b.n	8004dc0 <stm32__i2c__master_transmit+0x1ac>
 8004c80:	68fb      	ldr	r3, [r7, #12]
 8004c82:	2202      	movs	r2, #2
 8004c84:	751a      	strb	r2, [r3, #20]
 8004c86:	68fb      	ldr	r3, [r7, #12]
 8004c88:	685b      	ldr	r3, [r3, #4]
 8004c8a:	681b      	ldr	r3, [r3, #0]
 8004c8c:	f36f 23cb 	bfc	r3, #11, #1
 8004c90:	68fa      	ldr	r2, [r7, #12]
 8004c92:	6852      	ldr	r2, [r2, #4]
 8004c94:	6013      	str	r3, [r2, #0]
 8004c96:	897b      	ldrh	r3, [r7, #10]
 8004c98:	68f8      	ldr	r0, [r7, #12]
 8004c9a:	4619      	mov	r1, r3
 8004c9c:	6b3a      	ldr	r2, [r7, #48]	; 0x30
 8004c9e:	f7ff fc8f 	bl	80045c0 <stm32__i2c__master_request_write>
 8004ca2:	4603      	mov	r3, r0
 8004ca4:	74fb      	strb	r3, [r7, #19]
 8004ca6:	7cfb      	ldrb	r3, [r7, #19]
 8004ca8:	2b00      	cmp	r3, #0
 8004caa:	f040 8084 	bne.w	8004db6 <stm32__i2c__master_transmit+0x1a2>
 8004cae:	68f8      	ldr	r0, [r7, #12]
 8004cb0:	f7ff fbd6 	bl	8004460 <stm32__i2c__clear_address_sent_status>
 8004cb4:	697b      	ldr	r3, [r7, #20]
 8004cb6:	42ab      	cmp	r3, r5
 8004cb8:	dc64      	bgt.n	8004d84 <stm32__i2c__master_transmit+0x170>
 8004cba:	68f8      	ldr	r0, [r7, #12]
 8004cbc:	2106      	movs	r1, #6
 8004cbe:	2200      	movs	r2, #0
 8004cc0:	6b3b      	ldr	r3, [r7, #48]	; 0x30
 8004cc2:	f7ff fbe7 	bl	8004494 <stm32__i2c__wait_flag>
 8004cc6:	4603      	mov	r3, r0
 8004cc8:	74fb      	strb	r3, [r7, #19]
 8004cca:	7cfb      	ldrb	r3, [r7, #19]
 8004ccc:	2b00      	cmp	r3, #0
 8004cce:	d174      	bne.n	8004dba <stm32__i2c__master_transmit+0x1a6>
 8004cd0:	697b      	ldr	r3, [r7, #20]
 8004cd2:	42a3      	cmp	r3, r4
 8004cd4:	db02      	blt.n	8004cdc <stm32__i2c__master_transmit+0xc8>
 8004cd6:	697b      	ldr	r3, [r7, #20]
 8004cd8:	42ab      	cmp	r3, r5
 8004cda:	dd04      	ble.n	8004ce6 <stm32__i2c__master_transmit+0xd2>
 8004cdc:	483b      	ldr	r0, [pc, #236]	; (8004dcc <stm32__i2c__master_transmit+0x1b8>)
 8004cde:	f240 21be 	movw	r1, #702	; 0x2be
 8004ce2:	f7fc fc4b 	bl	800157c <__gnat_last_chance_handler>
 8004ce6:	68fb      	ldr	r3, [r7, #12]
 8004ce8:	685b      	ldr	r3, [r3, #4]
 8004cea:	3310      	adds	r3, #16
 8004cec:	681b      	ldr	r3, [r3, #0]
 8004cee:	6839      	ldr	r1, [r7, #0]
 8004cf0:	697a      	ldr	r2, [r7, #20]
 8004cf2:	1b92      	subs	r2, r2, r6
 8004cf4:	5c8a      	ldrb	r2, [r1, r2]
 8004cf6:	f362 0307 	bfi	r3, r2, #0, #8
 8004cfa:	68fa      	ldr	r2, [r7, #12]
 8004cfc:	6852      	ldr	r2, [r2, #4]
 8004cfe:	3210      	adds	r2, #16
 8004d00:	6013      	str	r3, [r2, #0]
 8004d02:	697b      	ldr	r3, [r7, #20]
 8004d04:	f06f 4200 	mvn.w	r2, #2147483648	; 0x80000000
 8004d08:	4293      	cmp	r3, r2
 8004d0a:	d104      	bne.n	8004d16 <stm32__i2c__master_transmit+0x102>
 8004d0c:	482f      	ldr	r0, [pc, #188]	; (8004dcc <stm32__i2c__master_transmit+0x1b8>)
 8004d0e:	f240 21bf 	movw	r1, #703	; 0x2bf
 8004d12:	f7fc fc33 	bl	800157c <__gnat_last_chance_handler>
 8004d16:	697b      	ldr	r3, [r7, #20]
 8004d18:	3301      	adds	r3, #1
 8004d1a:	617b      	str	r3, [r7, #20]
 8004d1c:	68f8      	ldr	r0, [r7, #12]
 8004d1e:	2102      	movs	r1, #2
 8004d20:	f7ff fab2 	bl	8004288 <stm32__i2c__flag_status>
 8004d24:	4603      	mov	r3, r0
 8004d26:	2b00      	cmp	r3, #0
 8004d28:	d0c4      	beq.n	8004cb4 <stm32__i2c__master_transmit+0xa0>
 8004d2a:	697b      	ldr	r3, [r7, #20]
 8004d2c:	42ab      	cmp	r3, r5
 8004d2e:	dcc1      	bgt.n	8004cb4 <stm32__i2c__master_transmit+0xa0>
 8004d30:	7cfb      	ldrb	r3, [r7, #19]
 8004d32:	2b00      	cmp	r3, #0
 8004d34:	d1be      	bne.n	8004cb4 <stm32__i2c__master_transmit+0xa0>
 8004d36:	697b      	ldr	r3, [r7, #20]
 8004d38:	42a3      	cmp	r3, r4
 8004d3a:	db02      	blt.n	8004d42 <stm32__i2c__master_transmit+0x12e>
 8004d3c:	697b      	ldr	r3, [r7, #20]
 8004d3e:	42ab      	cmp	r3, r5
 8004d40:	dd04      	ble.n	8004d4c <stm32__i2c__master_transmit+0x138>
 8004d42:	4822      	ldr	r0, [pc, #136]	; (8004dcc <stm32__i2c__master_transmit+0x1b8>)
 8004d44:	f240 21c7 	movw	r1, #711	; 0x2c7
 8004d48:	f7fc fc18 	bl	800157c <__gnat_last_chance_handler>
 8004d4c:	68fb      	ldr	r3, [r7, #12]
 8004d4e:	685b      	ldr	r3, [r3, #4]
 8004d50:	3310      	adds	r3, #16
 8004d52:	681b      	ldr	r3, [r3, #0]
 8004d54:	6839      	ldr	r1, [r7, #0]
 8004d56:	697a      	ldr	r2, [r7, #20]
 8004d58:	1b92      	subs	r2, r2, r6
 8004d5a:	5c8a      	ldrb	r2, [r1, r2]
 8004d5c:	f362 0307 	bfi	r3, r2, #0, #8
 8004d60:	68fa      	ldr	r2, [r7, #12]
 8004d62:	6852      	ldr	r2, [r2, #4]
 8004d64:	3210      	adds	r2, #16
 8004d66:	6013      	str	r3, [r2, #0]
 8004d68:	697b      	ldr	r3, [r7, #20]
 8004d6a:	f06f 4200 	mvn.w	r2, #2147483648	; 0x80000000
 8004d6e:	4293      	cmp	r3, r2
 8004d70:	d104      	bne.n	8004d7c <stm32__i2c__master_transmit+0x168>
 8004d72:	4816      	ldr	r0, [pc, #88]	; (8004dcc <stm32__i2c__master_transmit+0x1b8>)
 8004d74:	f44f 7132 	mov.w	r1, #712	; 0x2c8
 8004d78:	f7fc fc00 	bl	800157c <__gnat_last_chance_handler>
 8004d7c:	697b      	ldr	r3, [r7, #20]
 8004d7e:	3301      	adds	r3, #1
 8004d80:	617b      	str	r3, [r7, #20]
 8004d82:	e797      	b.n	8004cb4 <stm32__i2c__master_transmit+0xa0>
 8004d84:	68f8      	ldr	r0, [r7, #12]
 8004d86:	2106      	movs	r1, #6
 8004d88:	2200      	movs	r2, #0
 8004d8a:	6b3b      	ldr	r3, [r7, #48]	; 0x30
 8004d8c:	f7ff fb82 	bl	8004494 <stm32__i2c__wait_flag>
 8004d90:	4603      	mov	r3, r0
 8004d92:	74fb      	strb	r3, [r7, #19]
 8004d94:	7cfb      	ldrb	r3, [r7, #19]
 8004d96:	2b00      	cmp	r3, #0
 8004d98:	d111      	bne.n	8004dbe <stm32__i2c__master_transmit+0x1aa>
 8004d9a:	68fb      	ldr	r3, [r7, #12]
 8004d9c:	685b      	ldr	r3, [r3, #4]
 8004d9e:	681b      	ldr	r3, [r3, #0]
 8004da0:	461a      	mov	r2, r3
 8004da2:	4613      	mov	r3, r2
 8004da4:	f443 7200 	orr.w	r2, r3, #512	; 0x200
 8004da8:	68fb      	ldr	r3, [r7, #12]
 8004daa:	685b      	ldr	r3, [r3, #4]
 8004dac:	601a      	str	r2, [r3, #0]
 8004dae:	68fb      	ldr	r3, [r7, #12]
 8004db0:	2201      	movs	r2, #1
 8004db2:	751a      	strb	r2, [r3, #20]
 8004db4:	e004      	b.n	8004dc0 <stm32__i2c__master_transmit+0x1ac>
 8004db6:	bf00      	nop
 8004db8:	e002      	b.n	8004dc0 <stm32__i2c__master_transmit+0x1ac>
 8004dba:	bf00      	nop
 8004dbc:	e000      	b.n	8004dc0 <stm32__i2c__master_transmit+0x1ac>
 8004dbe:	bf00      	nop
 8004dc0:	7cfb      	ldrb	r3, [r7, #19]
 8004dc2:	bf00      	nop
 8004dc4:	4618      	mov	r0, r3
 8004dc6:	371c      	adds	r7, #28
 8004dc8:	46bd      	mov	sp, r7
 8004dca:	bdf0      	pop	{r4, r5, r6, r7, pc}
 8004dcc:	0800b4f0 	.word	0x0800b4f0

08004dd0 <stm32__i2c__master_receive>:
 8004dd0:	b590      	push	{r4, r7, lr}
 8004dd2:	b087      	sub	sp, #28
 8004dd4:	af00      	add	r7, sp, #0
 8004dd6:	60f8      	str	r0, [r7, #12]
 8004dd8:	e9c7 2300 	strd	r2, r3, [r7]
 8004ddc:	460b      	mov	r3, r1
 8004dde:	817b      	strh	r3, [r7, #10]
 8004de0:	687b      	ldr	r3, [r7, #4]
 8004de2:	681b      	ldr	r3, [r3, #0]
 8004de4:	461c      	mov	r4, r3
 8004de6:	687b      	ldr	r3, [r7, #4]
 8004de8:	681b      	ldr	r3, [r3, #0]
 8004dea:	2b00      	cmp	r3, #0
 8004dec:	da04      	bge.n	8004df8 <stm32__i2c__master_receive+0x28>
 8004dee:	48a1      	ldr	r0, [pc, #644]	; (8005074 <stm32__i2c__master_receive+0x2a4>)
 8004df0:	f240 21e3 	movw	r1, #739	; 0x2e3
 8004df4:	f7fc fbc2 	bl	800157c <__gnat_last_chance_handler>
 8004df8:	687b      	ldr	r3, [r7, #4]
 8004dfa:	681b      	ldr	r3, [r3, #0]
 8004dfc:	617b      	str	r3, [r7, #20]
 8004dfe:	68fb      	ldr	r3, [r7, #12]
 8004e00:	7d1b      	ldrb	r3, [r3, #20]
 8004e02:	2b00      	cmp	r3, #0
 8004e04:	d102      	bne.n	8004e0c <stm32__i2c__master_receive+0x3c>
 8004e06:	2301      	movs	r3, #1
 8004e08:	74fb      	strb	r3, [r7, #19]
 8004e0a:	e2ae      	b.n	800536a <stm32__i2c__master_receive+0x59a>
 8004e0c:	687b      	ldr	r3, [r7, #4]
 8004e0e:	681a      	ldr	r2, [r3, #0]
 8004e10:	687b      	ldr	r3, [r7, #4]
 8004e12:	685b      	ldr	r3, [r3, #4]
 8004e14:	429a      	cmp	r2, r3
 8004e16:	dd02      	ble.n	8004e1e <stm32__i2c__master_receive+0x4e>
 8004e18:	2301      	movs	r3, #1
 8004e1a:	74fb      	strb	r3, [r7, #19]
 8004e1c:	e2a5      	b.n	800536a <stm32__i2c__master_receive+0x59a>
 8004e1e:	68f8      	ldr	r0, [r7, #12]
 8004e20:	210f      	movs	r1, #15
 8004e22:	2201      	movs	r2, #1
 8004e24:	6abb      	ldr	r3, [r7, #40]	; 0x28
 8004e26:	f7ff fb35 	bl	8004494 <stm32__i2c__wait_flag>
 8004e2a:	4603      	mov	r3, r0
 8004e2c:	74fb      	strb	r3, [r7, #19]
 8004e2e:	7cfb      	ldrb	r3, [r7, #19]
 8004e30:	2b00      	cmp	r3, #0
 8004e32:	d002      	beq.n	8004e3a <stm32__i2c__master_receive+0x6a>
 8004e34:	2303      	movs	r3, #3
 8004e36:	74fb      	strb	r3, [r7, #19]
 8004e38:	e297      	b.n	800536a <stm32__i2c__master_receive+0x59a>
 8004e3a:	68fb      	ldr	r3, [r7, #12]
 8004e3c:	7d1b      	ldrb	r3, [r3, #20]
 8004e3e:	2b01      	cmp	r3, #1
 8004e40:	d002      	beq.n	8004e48 <stm32__i2c__master_receive+0x78>
 8004e42:	2303      	movs	r3, #3
 8004e44:	74fb      	strb	r3, [r7, #19]
 8004e46:	e290      	b.n	800536a <stm32__i2c__master_receive+0x59a>
 8004e48:	68fb      	ldr	r3, [r7, #12]
 8004e4a:	2203      	movs	r2, #3
 8004e4c:	751a      	strb	r2, [r3, #20]
 8004e4e:	68fb      	ldr	r3, [r7, #12]
 8004e50:	685b      	ldr	r3, [r3, #4]
 8004e52:	681b      	ldr	r3, [r3, #0]
 8004e54:	f36f 23cb 	bfc	r3, #11, #1
 8004e58:	68fa      	ldr	r2, [r7, #12]
 8004e5a:	6852      	ldr	r2, [r2, #4]
 8004e5c:	6013      	str	r3, [r2, #0]
 8004e5e:	897b      	ldrh	r3, [r7, #10]
 8004e60:	68f8      	ldr	r0, [r7, #12]
 8004e62:	4619      	mov	r1, r3
 8004e64:	6aba      	ldr	r2, [r7, #40]	; 0x28
 8004e66:	f7ff fc39 	bl	80046dc <stm32__i2c__master_request_read>
 8004e6a:	4603      	mov	r3, r0
 8004e6c:	74fb      	strb	r3, [r7, #19]
 8004e6e:	7cfb      	ldrb	r3, [r7, #19]
 8004e70:	2b00      	cmp	r3, #0
 8004e72:	f040 826f 	bne.w	8005354 <stm32__i2c__master_receive+0x584>
 8004e76:	687b      	ldr	r3, [r7, #4]
 8004e78:	681a      	ldr	r2, [r3, #0]
 8004e7a:	687b      	ldr	r3, [r7, #4]
 8004e7c:	685b      	ldr	r3, [r3, #4]
 8004e7e:	429a      	cmp	r2, r3
 8004e80:	d115      	bne.n	8004eae <stm32__i2c__master_receive+0xde>
 8004e82:	68fb      	ldr	r3, [r7, #12]
 8004e84:	685b      	ldr	r3, [r3, #4]
 8004e86:	681b      	ldr	r3, [r3, #0]
 8004e88:	f36f 238a 	bfc	r3, #10, #1
 8004e8c:	68fa      	ldr	r2, [r7, #12]
 8004e8e:	6852      	ldr	r2, [r2, #4]
 8004e90:	6013      	str	r3, [r2, #0]
 8004e92:	68f8      	ldr	r0, [r7, #12]
 8004e94:	f7ff fae4 	bl	8004460 <stm32__i2c__clear_address_sent_status>
 8004e98:	68fb      	ldr	r3, [r7, #12]
 8004e9a:	685b      	ldr	r3, [r3, #4]
 8004e9c:	681b      	ldr	r3, [r3, #0]
 8004e9e:	461a      	mov	r2, r3
 8004ea0:	4613      	mov	r3, r2
 8004ea2:	f443 7200 	orr.w	r2, r3, #512	; 0x200
 8004ea6:	68fb      	ldr	r3, [r7, #12]
 8004ea8:	685b      	ldr	r3, [r3, #4]
 8004eaa:	601a      	str	r2, [r3, #0]
 8004eac:	e045      	b.n	8004f3a <stm32__i2c__master_receive+0x16a>
 8004eae:	687b      	ldr	r3, [r7, #4]
 8004eb0:	681b      	ldr	r3, [r3, #0]
 8004eb2:	461a      	mov	r2, r3
 8004eb4:	ea4f 73e2 	mov.w	r3, r2, asr #31
 8004eb8:	f04f 30ff 	mov.w	r0, #4294967295
 8004ebc:	f06f 4100 	mvn.w	r1, #2147483648	; 0x80000000
 8004ec0:	428b      	cmp	r3, r1
 8004ec2:	bf08      	it	eq
 8004ec4:	4282      	cmpeq	r2, r0
 8004ec6:	d104      	bne.n	8004ed2 <stm32__i2c__master_receive+0x102>
 8004ec8:	486a      	ldr	r0, [pc, #424]	; (8005074 <stm32__i2c__master_receive+0x2a4>)
 8004eca:	f240 310b 	movw	r1, #779	; 0x30b
 8004ece:	f7fc fb55 	bl	800157c <__gnat_last_chance_handler>
 8004ed2:	687b      	ldr	r3, [r7, #4]
 8004ed4:	681b      	ldr	r3, [r3, #0]
 8004ed6:	461a      	mov	r2, r3
 8004ed8:	ea4f 73e2 	mov.w	r3, r2, asr #31
 8004edc:	1c50      	adds	r0, r2, #1
 8004ede:	f143 0100 	adc.w	r1, r3, #0
 8004ee2:	687b      	ldr	r3, [r7, #4]
 8004ee4:	685b      	ldr	r3, [r3, #4]
 8004ee6:	461a      	mov	r2, r3
 8004ee8:	ea4f 73e2 	mov.w	r3, r2, asr #31
 8004eec:	4299      	cmp	r1, r3
 8004eee:	bf08      	it	eq
 8004ef0:	4290      	cmpeq	r0, r2
 8004ef2:	d115      	bne.n	8004f20 <stm32__i2c__master_receive+0x150>
 8004ef4:	68fb      	ldr	r3, [r7, #12]
 8004ef6:	685b      	ldr	r3, [r3, #4]
 8004ef8:	681b      	ldr	r3, [r3, #0]
 8004efa:	f36f 238a 	bfc	r3, #10, #1
 8004efe:	68fa      	ldr	r2, [r7, #12]
 8004f00:	6852      	ldr	r2, [r2, #4]
 8004f02:	6013      	str	r3, [r2, #0]
 8004f04:	68fb      	ldr	r3, [r7, #12]
 8004f06:	685b      	ldr	r3, [r3, #4]
 8004f08:	681b      	ldr	r3, [r3, #0]
 8004f0a:	461a      	mov	r2, r3
 8004f0c:	4613      	mov	r3, r2
 8004f0e:	f443 6200 	orr.w	r2, r3, #2048	; 0x800
 8004f12:	68fb      	ldr	r3, [r7, #12]
 8004f14:	685b      	ldr	r3, [r3, #4]
 8004f16:	601a      	str	r2, [r3, #0]
 8004f18:	68f8      	ldr	r0, [r7, #12]
 8004f1a:	f7ff faa1 	bl	8004460 <stm32__i2c__clear_address_sent_status>
 8004f1e:	e00c      	b.n	8004f3a <stm32__i2c__master_receive+0x16a>
 8004f20:	68fb      	ldr	r3, [r7, #12]
 8004f22:	685b      	ldr	r3, [r3, #4]
 8004f24:	681b      	ldr	r3, [r3, #0]
 8004f26:	461a      	mov	r2, r3
 8004f28:	4613      	mov	r3, r2
 8004f2a:	f443 6280 	orr.w	r2, r3, #1024	; 0x400
 8004f2e:	68fb      	ldr	r3, [r7, #12]
 8004f30:	685b      	ldr	r3, [r3, #4]
 8004f32:	601a      	str	r2, [r3, #0]
 8004f34:	68f8      	ldr	r0, [r7, #12]
 8004f36:	f7ff fa93 	bl	8004460 <stm32__i2c__clear_address_sent_status>
 8004f3a:	697a      	ldr	r2, [r7, #20]
 8004f3c:	687b      	ldr	r3, [r7, #4]
 8004f3e:	685b      	ldr	r3, [r3, #4]
 8004f40:	429a      	cmp	r2, r3
 8004f42:	f300 8203 	bgt.w	800534c <stm32__i2c__master_receive+0x57c>
 8004f46:	697a      	ldr	r2, [r7, #20]
 8004f48:	687b      	ldr	r3, [r7, #4]
 8004f4a:	685b      	ldr	r3, [r3, #4]
 8004f4c:	429a      	cmp	r2, r3
 8004f4e:	d139      	bne.n	8004fc4 <stm32__i2c__master_receive+0x1f4>
 8004f50:	68f8      	ldr	r0, [r7, #12]
 8004f52:	2105      	movs	r1, #5
 8004f54:	2200      	movs	r2, #0
 8004f56:	6abb      	ldr	r3, [r7, #40]	; 0x28
 8004f58:	f7ff fa9c 	bl	8004494 <stm32__i2c__wait_flag>
 8004f5c:	4603      	mov	r3, r0
 8004f5e:	74fb      	strb	r3, [r7, #19]
 8004f60:	7cfb      	ldrb	r3, [r7, #19]
 8004f62:	2b00      	cmp	r3, #0
 8004f64:	f040 81f8 	bne.w	8005358 <stm32__i2c__master_receive+0x588>
 8004f68:	697a      	ldr	r2, [r7, #20]
 8004f6a:	687b      	ldr	r3, [r7, #4]
 8004f6c:	681b      	ldr	r3, [r3, #0]
 8004f6e:	429a      	cmp	r2, r3
 8004f70:	db04      	blt.n	8004f7c <stm32__i2c__master_receive+0x1ac>
 8004f72:	697a      	ldr	r2, [r7, #20]
 8004f74:	687b      	ldr	r3, [r7, #4]
 8004f76:	685b      	ldr	r3, [r3, #4]
 8004f78:	429a      	cmp	r2, r3
 8004f7a:	dd04      	ble.n	8004f86 <stm32__i2c__master_receive+0x1b6>
 8004f7c:	483d      	ldr	r0, [pc, #244]	; (8005074 <stm32__i2c__master_receive+0x2a4>)
 8004f7e:	f44f 7149 	mov.w	r1, #804	; 0x324
 8004f82:	f7fc fafb 	bl	800157c <__gnat_last_chance_handler>
 8004f86:	697b      	ldr	r3, [r7, #20]
 8004f88:	2b00      	cmp	r3, #0
 8004f8a:	da04      	bge.n	8004f96 <stm32__i2c__master_receive+0x1c6>
 8004f8c:	4839      	ldr	r0, [pc, #228]	; (8005074 <stm32__i2c__master_receive+0x2a4>)
 8004f8e:	f44f 7149 	mov.w	r1, #804	; 0x324
 8004f92:	f7fc faf3 	bl	800157c <__gnat_last_chance_handler>
 8004f96:	683a      	ldr	r2, [r7, #0]
 8004f98:	68fb      	ldr	r3, [r7, #12]
 8004f9a:	685b      	ldr	r3, [r3, #4]
 8004f9c:	3310      	adds	r3, #16
 8004f9e:	681b      	ldr	r3, [r3, #0]
 8004fa0:	b2d9      	uxtb	r1, r3
 8004fa2:	697b      	ldr	r3, [r7, #20]
 8004fa4:	1b1b      	subs	r3, r3, r4
 8004fa6:	54d1      	strb	r1, [r2, r3]
 8004fa8:	697b      	ldr	r3, [r7, #20]
 8004faa:	f06f 4200 	mvn.w	r2, #2147483648	; 0x80000000
 8004fae:	4293      	cmp	r3, r2
 8004fb0:	d104      	bne.n	8004fbc <stm32__i2c__master_receive+0x1ec>
 8004fb2:	4830      	ldr	r0, [pc, #192]	; (8005074 <stm32__i2c__master_receive+0x2a4>)
 8004fb4:	f240 3125 	movw	r1, #805	; 0x325
 8004fb8:	f7fc fae0 	bl	800157c <__gnat_last_chance_handler>
 8004fbc:	697b      	ldr	r3, [r7, #20]
 8004fbe:	3301      	adds	r3, #1
 8004fc0:	617b      	str	r3, [r7, #20]
 8004fc2:	e7ba      	b.n	8004f3a <stm32__i2c__master_receive+0x16a>
 8004fc4:	697b      	ldr	r3, [r7, #20]
 8004fc6:	f06f 4200 	mvn.w	r2, #2147483648	; 0x80000000
 8004fca:	4293      	cmp	r3, r2
 8004fcc:	d104      	bne.n	8004fd8 <stm32__i2c__master_receive+0x208>
 8004fce:	4829      	ldr	r0, [pc, #164]	; (8005074 <stm32__i2c__master_receive+0x2a4>)
 8004fd0:	f240 3127 	movw	r1, #807	; 0x327
 8004fd4:	f7fc fad2 	bl	800157c <__gnat_last_chance_handler>
 8004fd8:	697b      	ldr	r3, [r7, #20]
 8004fda:	1c5a      	adds	r2, r3, #1
 8004fdc:	687b      	ldr	r3, [r7, #4]
 8004fde:	685b      	ldr	r3, [r3, #4]
 8004fe0:	429a      	cmp	r2, r3
 8004fe2:	d17a      	bne.n	80050da <stm32__i2c__master_receive+0x30a>
 8004fe4:	68fb      	ldr	r3, [r7, #12]
 8004fe6:	685b      	ldr	r3, [r3, #4]
 8004fe8:	681b      	ldr	r3, [r3, #0]
 8004fea:	f36f 238a 	bfc	r3, #10, #1
 8004fee:	68fa      	ldr	r2, [r7, #12]
 8004ff0:	6852      	ldr	r2, [r2, #4]
 8004ff2:	6013      	str	r3, [r2, #0]
 8004ff4:	68f8      	ldr	r0, [r7, #12]
 8004ff6:	2102      	movs	r1, #2
 8004ff8:	2200      	movs	r2, #0
 8004ffa:	6abb      	ldr	r3, [r7, #40]	; 0x28
 8004ffc:	f7ff fa4a 	bl	8004494 <stm32__i2c__wait_flag>
 8005000:	4603      	mov	r3, r0
 8005002:	74fb      	strb	r3, [r7, #19]
 8005004:	7cfb      	ldrb	r3, [r7, #19]
 8005006:	2b00      	cmp	r3, #0
 8005008:	f040 81a8 	bne.w	800535c <stm32__i2c__master_receive+0x58c>
 800500c:	68fb      	ldr	r3, [r7, #12]
 800500e:	685b      	ldr	r3, [r3, #4]
 8005010:	681b      	ldr	r3, [r3, #0]
 8005012:	461a      	mov	r2, r3
 8005014:	4613      	mov	r3, r2
 8005016:	f443 7200 	orr.w	r2, r3, #512	; 0x200
 800501a:	68fb      	ldr	r3, [r7, #12]
 800501c:	685b      	ldr	r3, [r3, #4]
 800501e:	601a      	str	r2, [r3, #0]
 8005020:	697a      	ldr	r2, [r7, #20]
 8005022:	687b      	ldr	r3, [r7, #4]
 8005024:	681b      	ldr	r3, [r3, #0]
 8005026:	429a      	cmp	r2, r3
 8005028:	db04      	blt.n	8005034 <stm32__i2c__master_receive+0x264>
 800502a:	697a      	ldr	r2, [r7, #20]
 800502c:	687b      	ldr	r3, [r7, #4]
 800502e:	685b      	ldr	r3, [r3, #4]
 8005030:	429a      	cmp	r2, r3
 8005032:	dd04      	ble.n	800503e <stm32__i2c__master_receive+0x26e>
 8005034:	480f      	ldr	r0, [pc, #60]	; (8005074 <stm32__i2c__master_receive+0x2a4>)
 8005036:	f240 3137 	movw	r1, #823	; 0x337
 800503a:	f7fc fa9f 	bl	800157c <__gnat_last_chance_handler>
 800503e:	697b      	ldr	r3, [r7, #20]
 8005040:	2b00      	cmp	r3, #0
 8005042:	da04      	bge.n	800504e <stm32__i2c__master_receive+0x27e>
 8005044:	480b      	ldr	r0, [pc, #44]	; (8005074 <stm32__i2c__master_receive+0x2a4>)
 8005046:	f240 3137 	movw	r1, #823	; 0x337
 800504a:	f7fc fa97 	bl	800157c <__gnat_last_chance_handler>
 800504e:	683a      	ldr	r2, [r7, #0]
 8005050:	68fb      	ldr	r3, [r7, #12]
 8005052:	685b      	ldr	r3, [r3, #4]
 8005054:	3310      	adds	r3, #16
 8005056:	681b      	ldr	r3, [r3, #0]
 8005058:	b2d9      	uxtb	r1, r3
 800505a:	697b      	ldr	r3, [r7, #20]
 800505c:	1b1b      	subs	r3, r3, r4
 800505e:	54d1      	strb	r1, [r2, r3]
 8005060:	697b      	ldr	r3, [r7, #20]
 8005062:	f06f 4200 	mvn.w	r2, #2147483648	; 0x80000000
 8005066:	4293      	cmp	r3, r2
 8005068:	d106      	bne.n	8005078 <stm32__i2c__master_receive+0x2a8>
 800506a:	4802      	ldr	r0, [pc, #8]	; (8005074 <stm32__i2c__master_receive+0x2a4>)
 800506c:	f44f 714e 	mov.w	r1, #824	; 0x338
 8005070:	f7fc fa84 	bl	800157c <__gnat_last_chance_handler>
 8005074:	0800b4f0 	.word	0x0800b4f0
 8005078:	697b      	ldr	r3, [r7, #20]
 800507a:	3301      	adds	r3, #1
 800507c:	617b      	str	r3, [r7, #20]
 800507e:	697a      	ldr	r2, [r7, #20]
 8005080:	687b      	ldr	r3, [r7, #4]
 8005082:	681b      	ldr	r3, [r3, #0]
 8005084:	429a      	cmp	r2, r3
 8005086:	db04      	blt.n	8005092 <stm32__i2c__master_receive+0x2c2>
 8005088:	697a      	ldr	r2, [r7, #20]
 800508a:	687b      	ldr	r3, [r7, #4]
 800508c:	685b      	ldr	r3, [r3, #4]
 800508e:	429a      	cmp	r2, r3
 8005090:	dd04      	ble.n	800509c <stm32__i2c__master_receive+0x2cc>
 8005092:	48aa      	ldr	r0, [pc, #680]	; (800533c <stm32__i2c__master_receive+0x56c>)
 8005094:	f240 3139 	movw	r1, #825	; 0x339
 8005098:	f7fc fa70 	bl	800157c <__gnat_last_chance_handler>
 800509c:	697b      	ldr	r3, [r7, #20]
 800509e:	2b00      	cmp	r3, #0
 80050a0:	da04      	bge.n	80050ac <stm32__i2c__master_receive+0x2dc>
 80050a2:	48a6      	ldr	r0, [pc, #664]	; (800533c <stm32__i2c__master_receive+0x56c>)
 80050a4:	f240 3139 	movw	r1, #825	; 0x339
 80050a8:	f7fc fa68 	bl	800157c <__gnat_last_chance_handler>
 80050ac:	683a      	ldr	r2, [r7, #0]
 80050ae:	68fb      	ldr	r3, [r7, #12]
 80050b0:	685b      	ldr	r3, [r3, #4]
 80050b2:	3310      	adds	r3, #16
 80050b4:	681b      	ldr	r3, [r3, #0]
 80050b6:	b2d9      	uxtb	r1, r3
 80050b8:	697b      	ldr	r3, [r7, #20]
 80050ba:	1b1b      	subs	r3, r3, r4
 80050bc:	54d1      	strb	r1, [r2, r3]
 80050be:	697b      	ldr	r3, [r7, #20]
 80050c0:	f06f 4200 	mvn.w	r2, #2147483648	; 0x80000000
 80050c4:	4293      	cmp	r3, r2
 80050c6:	d104      	bne.n	80050d2 <stm32__i2c__master_receive+0x302>
 80050c8:	489c      	ldr	r0, [pc, #624]	; (800533c <stm32__i2c__master_receive+0x56c>)
 80050ca:	f240 313a 	movw	r1, #826	; 0x33a
 80050ce:	f7fc fa55 	bl	800157c <__gnat_last_chance_handler>
 80050d2:	697b      	ldr	r3, [r7, #20]
 80050d4:	3301      	adds	r3, #1
 80050d6:	617b      	str	r3, [r7, #20]
 80050d8:	e72f      	b.n	8004f3a <stm32__i2c__master_receive+0x16a>
 80050da:	697b      	ldr	r3, [r7, #20]
 80050dc:	4a98      	ldr	r2, [pc, #608]	; (8005340 <stm32__i2c__master_receive+0x570>)
 80050de:	4293      	cmp	r3, r2
 80050e0:	dd04      	ble.n	80050ec <stm32__i2c__master_receive+0x31c>
 80050e2:	4896      	ldr	r0, [pc, #600]	; (800533c <stm32__i2c__master_receive+0x56c>)
 80050e4:	f44f 714f 	mov.w	r1, #828	; 0x33c
 80050e8:	f7fc fa48 	bl	800157c <__gnat_last_chance_handler>
 80050ec:	697b      	ldr	r3, [r7, #20]
 80050ee:	1c9a      	adds	r2, r3, #2
 80050f0:	687b      	ldr	r3, [r7, #4]
 80050f2:	685b      	ldr	r3, [r3, #4]
 80050f4:	429a      	cmp	r2, r3
 80050f6:	f040 80b2 	bne.w	800525e <stm32__i2c__master_receive+0x48e>
 80050fa:	68f8      	ldr	r0, [r7, #12]
 80050fc:	2102      	movs	r1, #2
 80050fe:	2200      	movs	r2, #0
 8005100:	6abb      	ldr	r3, [r7, #40]	; 0x28
 8005102:	f7ff f9c7 	bl	8004494 <stm32__i2c__wait_flag>
 8005106:	4603      	mov	r3, r0
 8005108:	74fb      	strb	r3, [r7, #19]
 800510a:	7cfb      	ldrb	r3, [r7, #19]
 800510c:	2b00      	cmp	r3, #0
 800510e:	f040 8127 	bne.w	8005360 <stm32__i2c__master_receive+0x590>
 8005112:	68fb      	ldr	r3, [r7, #12]
 8005114:	685b      	ldr	r3, [r3, #4]
 8005116:	681b      	ldr	r3, [r3, #0]
 8005118:	f36f 238a 	bfc	r3, #10, #1
 800511c:	68fa      	ldr	r2, [r7, #12]
 800511e:	6852      	ldr	r2, [r2, #4]
 8005120:	6013      	str	r3, [r2, #0]
 8005122:	697a      	ldr	r2, [r7, #20]
 8005124:	687b      	ldr	r3, [r7, #4]
 8005126:	681b      	ldr	r3, [r3, #0]
 8005128:	429a      	cmp	r2, r3
 800512a:	db04      	blt.n	8005136 <stm32__i2c__master_receive+0x366>
 800512c:	697a      	ldr	r2, [r7, #20]
 800512e:	687b      	ldr	r3, [r7, #4]
 8005130:	685b      	ldr	r3, [r3, #4]
 8005132:	429a      	cmp	r2, r3
 8005134:	dd04      	ble.n	8005140 <stm32__i2c__master_receive+0x370>
 8005136:	4881      	ldr	r0, [pc, #516]	; (800533c <stm32__i2c__master_receive+0x56c>)
 8005138:	f240 314a 	movw	r1, #842	; 0x34a
 800513c:	f7fc fa1e 	bl	800157c <__gnat_last_chance_handler>
 8005140:	697b      	ldr	r3, [r7, #20]
 8005142:	2b00      	cmp	r3, #0
 8005144:	da04      	bge.n	8005150 <stm32__i2c__master_receive+0x380>
 8005146:	487d      	ldr	r0, [pc, #500]	; (800533c <stm32__i2c__master_receive+0x56c>)
 8005148:	f240 314a 	movw	r1, #842	; 0x34a
 800514c:	f7fc fa16 	bl	800157c <__gnat_last_chance_handler>
 8005150:	683a      	ldr	r2, [r7, #0]
 8005152:	68fb      	ldr	r3, [r7, #12]
 8005154:	685b      	ldr	r3, [r3, #4]
 8005156:	3310      	adds	r3, #16
 8005158:	681b      	ldr	r3, [r3, #0]
 800515a:	b2d9      	uxtb	r1, r3
 800515c:	697b      	ldr	r3, [r7, #20]
 800515e:	1b1b      	subs	r3, r3, r4
 8005160:	54d1      	strb	r1, [r2, r3]
 8005162:	697b      	ldr	r3, [r7, #20]
 8005164:	f06f 4200 	mvn.w	r2, #2147483648	; 0x80000000
 8005168:	4293      	cmp	r3, r2
 800516a:	d104      	bne.n	8005176 <stm32__i2c__master_receive+0x3a6>
 800516c:	4873      	ldr	r0, [pc, #460]	; (800533c <stm32__i2c__master_receive+0x56c>)
 800516e:	f240 314b 	movw	r1, #843	; 0x34b
 8005172:	f7fc fa03 	bl	800157c <__gnat_last_chance_handler>
 8005176:	697b      	ldr	r3, [r7, #20]
 8005178:	3301      	adds	r3, #1
 800517a:	617b      	str	r3, [r7, #20]
 800517c:	68f8      	ldr	r0, [r7, #12]
 800517e:	2102      	movs	r1, #2
 8005180:	2200      	movs	r2, #0
 8005182:	6abb      	ldr	r3, [r7, #40]	; 0x28
 8005184:	f7ff f986 	bl	8004494 <stm32__i2c__wait_flag>
 8005188:	4603      	mov	r3, r0
 800518a:	74fb      	strb	r3, [r7, #19]
 800518c:	7cfb      	ldrb	r3, [r7, #19]
 800518e:	2b00      	cmp	r3, #0
 8005190:	f040 80e8 	bne.w	8005364 <stm32__i2c__master_receive+0x594>
 8005194:	68fb      	ldr	r3, [r7, #12]
 8005196:	685b      	ldr	r3, [r3, #4]
 8005198:	681b      	ldr	r3, [r3, #0]
 800519a:	461a      	mov	r2, r3
 800519c:	4613      	mov	r3, r2
 800519e:	f443 7200 	orr.w	r2, r3, #512	; 0x200
 80051a2:	68fb      	ldr	r3, [r7, #12]
 80051a4:	685b      	ldr	r3, [r3, #4]
 80051a6:	601a      	str	r2, [r3, #0]
 80051a8:	697a      	ldr	r2, [r7, #20]
 80051aa:	687b      	ldr	r3, [r7, #4]
 80051ac:	681b      	ldr	r3, [r3, #0]
 80051ae:	429a      	cmp	r2, r3
 80051b0:	db04      	blt.n	80051bc <stm32__i2c__master_receive+0x3ec>
 80051b2:	697a      	ldr	r2, [r7, #20]
 80051b4:	687b      	ldr	r3, [r7, #4]
 80051b6:	685b      	ldr	r3, [r3, #4]
 80051b8:	429a      	cmp	r2, r3
 80051ba:	dd04      	ble.n	80051c6 <stm32__i2c__master_receive+0x3f6>
 80051bc:	485f      	ldr	r0, [pc, #380]	; (800533c <stm32__i2c__master_receive+0x56c>)
 80051be:	f240 3159 	movw	r1, #857	; 0x359
 80051c2:	f7fc f9db 	bl	800157c <__gnat_last_chance_handler>
 80051c6:	697b      	ldr	r3, [r7, #20]
 80051c8:	2b00      	cmp	r3, #0
 80051ca:	da04      	bge.n	80051d6 <stm32__i2c__master_receive+0x406>
 80051cc:	485b      	ldr	r0, [pc, #364]	; (800533c <stm32__i2c__master_receive+0x56c>)
 80051ce:	f240 3159 	movw	r1, #857	; 0x359
 80051d2:	f7fc f9d3 	bl	800157c <__gnat_last_chance_handler>
 80051d6:	683a      	ldr	r2, [r7, #0]
 80051d8:	68fb      	ldr	r3, [r7, #12]
 80051da:	685b      	ldr	r3, [r3, #4]
 80051dc:	3310      	adds	r3, #16
 80051de:	681b      	ldr	r3, [r3, #0]
 80051e0:	b2d9      	uxtb	r1, r3
 80051e2:	697b      	ldr	r3, [r7, #20]
 80051e4:	1b1b      	subs	r3, r3, r4
 80051e6:	54d1      	strb	r1, [r2, r3]
 80051e8:	697b      	ldr	r3, [r7, #20]
 80051ea:	f06f 4200 	mvn.w	r2, #2147483648	; 0x80000000
 80051ee:	4293      	cmp	r3, r2
 80051f0:	d104      	bne.n	80051fc <stm32__i2c__master_receive+0x42c>
 80051f2:	4852      	ldr	r0, [pc, #328]	; (800533c <stm32__i2c__master_receive+0x56c>)
 80051f4:	f240 315a 	movw	r1, #858	; 0x35a
 80051f8:	f7fc f9c0 	bl	800157c <__gnat_last_chance_handler>
 80051fc:	697b      	ldr	r3, [r7, #20]
 80051fe:	3301      	adds	r3, #1
 8005200:	617b      	str	r3, [r7, #20]
 8005202:	697a      	ldr	r2, [r7, #20]
 8005204:	687b      	ldr	r3, [r7, #4]
 8005206:	681b      	ldr	r3, [r3, #0]
 8005208:	429a      	cmp	r2, r3
 800520a:	db04      	blt.n	8005216 <stm32__i2c__master_receive+0x446>
 800520c:	697a      	ldr	r2, [r7, #20]
 800520e:	687b      	ldr	r3, [r7, #4]
 8005210:	685b      	ldr	r3, [r3, #4]
 8005212:	429a      	cmp	r2, r3
 8005214:	dd04      	ble.n	8005220 <stm32__i2c__master_receive+0x450>
 8005216:	4849      	ldr	r0, [pc, #292]	; (800533c <stm32__i2c__master_receive+0x56c>)
 8005218:	f240 315b 	movw	r1, #859	; 0x35b
 800521c:	f7fc f9ae 	bl	800157c <__gnat_last_chance_handler>
 8005220:	697b      	ldr	r3, [r7, #20]
 8005222:	2b00      	cmp	r3, #0
 8005224:	da04      	bge.n	8005230 <stm32__i2c__master_receive+0x460>
 8005226:	4845      	ldr	r0, [pc, #276]	; (800533c <stm32__i2c__master_receive+0x56c>)
 8005228:	f240 315b 	movw	r1, #859	; 0x35b
 800522c:	f7fc f9a6 	bl	800157c <__gnat_last_chance_handler>
 8005230:	683a      	ldr	r2, [r7, #0]
 8005232:	68fb      	ldr	r3, [r7, #12]
 8005234:	685b      	ldr	r3, [r3, #4]
 8005236:	3310      	adds	r3, #16
 8005238:	681b      	ldr	r3, [r3, #0]
 800523a:	b2d9      	uxtb	r1, r3
 800523c:	697b      	ldr	r3, [r7, #20]
 800523e:	1b1b      	subs	r3, r3, r4
 8005240:	54d1      	strb	r1, [r2, r3]
 8005242:	697b      	ldr	r3, [r7, #20]
 8005244:	f06f 4200 	mvn.w	r2, #2147483648	; 0x80000000
 8005248:	4293      	cmp	r3, r2
 800524a:	d104      	bne.n	8005256 <stm32__i2c__master_receive+0x486>
 800524c:	483b      	ldr	r0, [pc, #236]	; (800533c <stm32__i2c__master_receive+0x56c>)
 800524e:	f44f 7157 	mov.w	r1, #860	; 0x35c
 8005252:	f7fc f993 	bl	800157c <__gnat_last_chance_handler>
 8005256:	697b      	ldr	r3, [r7, #20]
 8005258:	3301      	adds	r3, #1
 800525a:	617b      	str	r3, [r7, #20]
 800525c:	e66d      	b.n	8004f3a <stm32__i2c__master_receive+0x16a>
 800525e:	68f8      	ldr	r0, [r7, #12]
 8005260:	2105      	movs	r1, #5
 8005262:	2200      	movs	r2, #0
 8005264:	6abb      	ldr	r3, [r7, #40]	; 0x28
 8005266:	f7ff f915 	bl	8004494 <stm32__i2c__wait_flag>
 800526a:	4603      	mov	r3, r0
 800526c:	74fb      	strb	r3, [r7, #19]
 800526e:	7cfb      	ldrb	r3, [r7, #19]
 8005270:	2b00      	cmp	r3, #0
 8005272:	d179      	bne.n	8005368 <stm32__i2c__master_receive+0x598>
 8005274:	697a      	ldr	r2, [r7, #20]
 8005276:	687b      	ldr	r3, [r7, #4]
 8005278:	681b      	ldr	r3, [r3, #0]
 800527a:	429a      	cmp	r2, r3
 800527c:	db04      	blt.n	8005288 <stm32__i2c__master_receive+0x4b8>
 800527e:	697a      	ldr	r2, [r7, #20]
 8005280:	687b      	ldr	r3, [r7, #4]
 8005282:	685b      	ldr	r3, [r3, #4]
 8005284:	429a      	cmp	r2, r3
 8005286:	dd04      	ble.n	8005292 <stm32__i2c__master_receive+0x4c2>
 8005288:	482c      	ldr	r0, [pc, #176]	; (800533c <stm32__i2c__master_receive+0x56c>)
 800528a:	f240 316a 	movw	r1, #874	; 0x36a
 800528e:	f7fc f975 	bl	800157c <__gnat_last_chance_handler>
 8005292:	697b      	ldr	r3, [r7, #20]
 8005294:	2b00      	cmp	r3, #0
 8005296:	da04      	bge.n	80052a2 <stm32__i2c__master_receive+0x4d2>
 8005298:	4828      	ldr	r0, [pc, #160]	; (800533c <stm32__i2c__master_receive+0x56c>)
 800529a:	f240 316a 	movw	r1, #874	; 0x36a
 800529e:	f7fc f96d 	bl	800157c <__gnat_last_chance_handler>
 80052a2:	683a      	ldr	r2, [r7, #0]
 80052a4:	68fb      	ldr	r3, [r7, #12]
 80052a6:	685b      	ldr	r3, [r3, #4]
 80052a8:	3310      	adds	r3, #16
 80052aa:	681b      	ldr	r3, [r3, #0]
 80052ac:	b2d9      	uxtb	r1, r3
 80052ae:	697b      	ldr	r3, [r7, #20]
 80052b0:	1b1b      	subs	r3, r3, r4
 80052b2:	54d1      	strb	r1, [r2, r3]
 80052b4:	697b      	ldr	r3, [r7, #20]
 80052b6:	f06f 4200 	mvn.w	r2, #2147483648	; 0x80000000
 80052ba:	4293      	cmp	r3, r2
 80052bc:	d104      	bne.n	80052c8 <stm32__i2c__master_receive+0x4f8>
 80052be:	481f      	ldr	r0, [pc, #124]	; (800533c <stm32__i2c__master_receive+0x56c>)
 80052c0:	f240 316b 	movw	r1, #875	; 0x36b
 80052c4:	f7fc f95a 	bl	800157c <__gnat_last_chance_handler>
 80052c8:	697b      	ldr	r3, [r7, #20]
 80052ca:	3301      	adds	r3, #1
 80052cc:	617b      	str	r3, [r7, #20]
 80052ce:	68f8      	ldr	r0, [r7, #12]
 80052d0:	2102      	movs	r1, #2
 80052d2:	2200      	movs	r2, #0
 80052d4:	6abb      	ldr	r3, [r7, #40]	; 0x28
 80052d6:	f7ff f8dd 	bl	8004494 <stm32__i2c__wait_flag>
 80052da:	4603      	mov	r3, r0
 80052dc:	74fb      	strb	r3, [r7, #19]
 80052de:	7cfb      	ldrb	r3, [r7, #19]
 80052e0:	2b00      	cmp	r3, #0
 80052e2:	f47f ae2a 	bne.w	8004f3a <stm32__i2c__master_receive+0x16a>
 80052e6:	697a      	ldr	r2, [r7, #20]
 80052e8:	687b      	ldr	r3, [r7, #4]
 80052ea:	681b      	ldr	r3, [r3, #0]
 80052ec:	429a      	cmp	r2, r3
 80052ee:	db04      	blt.n	80052fa <stm32__i2c__master_receive+0x52a>
 80052f0:	697a      	ldr	r2, [r7, #20]
 80052f2:	687b      	ldr	r3, [r7, #4]
 80052f4:	685b      	ldr	r3, [r3, #4]
 80052f6:	429a      	cmp	r2, r3
 80052f8:	dd04      	ble.n	8005304 <stm32__i2c__master_receive+0x534>
 80052fa:	4810      	ldr	r0, [pc, #64]	; (800533c <stm32__i2c__master_receive+0x56c>)
 80052fc:	f44f 715d 	mov.w	r1, #884	; 0x374
 8005300:	f7fc f93c 	bl	800157c <__gnat_last_chance_handler>
 8005304:	697b      	ldr	r3, [r7, #20]
 8005306:	2b00      	cmp	r3, #0
 8005308:	da04      	bge.n	8005314 <stm32__i2c__master_receive+0x544>
 800530a:	480c      	ldr	r0, [pc, #48]	; (800533c <stm32__i2c__master_receive+0x56c>)
 800530c:	f44f 715d 	mov.w	r1, #884	; 0x374
 8005310:	f7fc f934 	bl	800157c <__gnat_last_chance_handler>
 8005314:	683a      	ldr	r2, [r7, #0]
 8005316:	68fb      	ldr	r3, [r7, #12]
 8005318:	685b      	ldr	r3, [r3, #4]
 800531a:	3310      	adds	r3, #16
 800531c:	681b      	ldr	r3, [r3, #0]
 800531e:	b2d9      	uxtb	r1, r3
 8005320:	697b      	ldr	r3, [r7, #20]
 8005322:	1b1b      	subs	r3, r3, r4
 8005324:	54d1      	strb	r1, [r2, r3]
 8005326:	697b      	ldr	r3, [r7, #20]
 8005328:	f06f 4200 	mvn.w	r2, #2147483648	; 0x80000000
 800532c:	4293      	cmp	r3, r2
 800532e:	d109      	bne.n	8005344 <stm32__i2c__master_receive+0x574>
 8005330:	4802      	ldr	r0, [pc, #8]	; (800533c <stm32__i2c__master_receive+0x56c>)
 8005332:	f240 3175 	movw	r1, #885	; 0x375
 8005336:	f7fc f921 	bl	800157c <__gnat_last_chance_handler>
 800533a:	bf00      	nop
 800533c:	0800b4f0 	.word	0x0800b4f0
 8005340:	7ffffffd 	.word	0x7ffffffd
 8005344:	697b      	ldr	r3, [r7, #20]
 8005346:	3301      	adds	r3, #1
 8005348:	617b      	str	r3, [r7, #20]
 800534a:	e5f6      	b.n	8004f3a <stm32__i2c__master_receive+0x16a>
 800534c:	68fb      	ldr	r3, [r7, #12]
 800534e:	2201      	movs	r2, #1
 8005350:	751a      	strb	r2, [r3, #20]
 8005352:	e00a      	b.n	800536a <stm32__i2c__master_receive+0x59a>
 8005354:	bf00      	nop
 8005356:	e008      	b.n	800536a <stm32__i2c__master_receive+0x59a>
 8005358:	bf00      	nop
 800535a:	e006      	b.n	800536a <stm32__i2c__master_receive+0x59a>
 800535c:	bf00      	nop
 800535e:	e004      	b.n	800536a <stm32__i2c__master_receive+0x59a>
 8005360:	bf00      	nop
 8005362:	e002      	b.n	800536a <stm32__i2c__master_receive+0x59a>
 8005364:	bf00      	nop
 8005366:	e000      	b.n	800536a <stm32__i2c__master_receive+0x59a>
 8005368:	bf00      	nop
 800536a:	7cfb      	ldrb	r3, [r7, #19]
 800536c:	bf00      	nop
 800536e:	4618      	mov	r0, r3
 8005370:	371c      	adds	r7, #28
 8005372:	46bd      	mov	sp, r7
 8005374:	bd90      	pop	{r4, r7, pc}
 8005376:	bf00      	nop

08005378 <stm32__i2c__mem_write>:
 8005378:	b5f0      	push	{r4, r5, r6, r7, lr}
 800537a:	b089      	sub	sp, #36	; 0x24
 800537c:	af02      	add	r7, sp, #8
 800537e:	60f8      	str	r0, [r7, #12]
 8005380:	4608      	mov	r0, r1
 8005382:	4611      	mov	r1, r2
 8005384:	461a      	mov	r2, r3
 8005386:	4603      	mov	r3, r0
 8005388:	817b      	strh	r3, [r7, #10]
 800538a:	460b      	mov	r3, r1
 800538c:	813b      	strh	r3, [r7, #8]
 800538e:	4613      	mov	r3, r2
 8005390:	71fb      	strb	r3, [r7, #7]
 8005392:	6b7b      	ldr	r3, [r7, #52]	; 0x34
 8005394:	681c      	ldr	r4, [r3, #0]
 8005396:	6b7b      	ldr	r3, [r7, #52]	; 0x34
 8005398:	685d      	ldr	r5, [r3, #4]
 800539a:	4626      	mov	r6, r4
 800539c:	2c00      	cmp	r4, #0
 800539e:	da04      	bge.n	80053aa <stm32__i2c__mem_write+0x32>
 80053a0:	4866      	ldr	r0, [pc, #408]	; (800553c <stm32__i2c__mem_write+0x1c4>)
 80053a2:	f44f 7163 	mov.w	r1, #908	; 0x38c
 80053a6:	f7fc f8e9 	bl	800157c <__gnat_last_chance_handler>
 80053aa:	617c      	str	r4, [r7, #20]
 80053ac:	68fb      	ldr	r3, [r7, #12]
 80053ae:	7d1b      	ldrb	r3, [r3, #20]
 80053b0:	2b00      	cmp	r3, #0
 80053b2:	d102      	bne.n	80053ba <stm32__i2c__mem_write+0x42>
 80053b4:	2301      	movs	r3, #1
 80053b6:	74fb      	strb	r3, [r7, #19]
 80053b8:	e0ba      	b.n	8005530 <stm32__i2c__mem_write+0x1b8>
 80053ba:	42ac      	cmp	r4, r5
 80053bc:	dd02      	ble.n	80053c4 <stm32__i2c__mem_write+0x4c>
 80053be:	2301      	movs	r3, #1
 80053c0:	74fb      	strb	r3, [r7, #19]
 80053c2:	e0b5      	b.n	8005530 <stm32__i2c__mem_write+0x1b8>
 80053c4:	68f8      	ldr	r0, [r7, #12]
 80053c6:	210f      	movs	r1, #15
 80053c8:	2201      	movs	r2, #1
 80053ca:	6bbb      	ldr	r3, [r7, #56]	; 0x38
 80053cc:	f7ff f862 	bl	8004494 <stm32__i2c__wait_flag>
 80053d0:	4603      	mov	r3, r0
 80053d2:	74fb      	strb	r3, [r7, #19]
 80053d4:	7cfb      	ldrb	r3, [r7, #19]
 80053d6:	2b00      	cmp	r3, #0
 80053d8:	d002      	beq.n	80053e0 <stm32__i2c__mem_write+0x68>
 80053da:	2303      	movs	r3, #3
 80053dc:	74fb      	strb	r3, [r7, #19]
 80053de:	e0a7      	b.n	8005530 <stm32__i2c__mem_write+0x1b8>
 80053e0:	68fb      	ldr	r3, [r7, #12]
 80053e2:	7d1b      	ldrb	r3, [r3, #20]
 80053e4:	2b01      	cmp	r3, #1
 80053e6:	d002      	beq.n	80053ee <stm32__i2c__mem_write+0x76>
 80053e8:	2303      	movs	r3, #3
 80053ea:	74fb      	strb	r3, [r7, #19]
 80053ec:	e0a0      	b.n	8005530 <stm32__i2c__mem_write+0x1b8>
 80053ee:	68fb      	ldr	r3, [r7, #12]
 80053f0:	2204      	movs	r2, #4
 80053f2:	751a      	strb	r2, [r3, #20]
 80053f4:	68fb      	ldr	r3, [r7, #12]
 80053f6:	685b      	ldr	r3, [r3, #4]
 80053f8:	681b      	ldr	r3, [r3, #0]
 80053fa:	f36f 23cb 	bfc	r3, #11, #1
 80053fe:	68fa      	ldr	r2, [r7, #12]
 8005400:	6852      	ldr	r2, [r2, #4]
 8005402:	6013      	str	r3, [r2, #0]
 8005404:	8979      	ldrh	r1, [r7, #10]
 8005406:	893a      	ldrh	r2, [r7, #8]
 8005408:	f897 e007 	ldrb.w	lr, [r7, #7]
 800540c:	6bbb      	ldr	r3, [r7, #56]	; 0x38
 800540e:	9300      	str	r3, [sp, #0]
 8005410:	68f8      	ldr	r0, [r7, #12]
 8005412:	4673      	mov	r3, lr
 8005414:	f7ff fa30 	bl	8004878 <stm32__i2c__mem_request_write>
 8005418:	4603      	mov	r3, r0
 800541a:	74fb      	strb	r3, [r7, #19]
 800541c:	7cfb      	ldrb	r3, [r7, #19]
 800541e:	2b00      	cmp	r3, #0
 8005420:	f040 8081 	bne.w	8005526 <stm32__i2c__mem_write+0x1ae>
 8005424:	697b      	ldr	r3, [r7, #20]
 8005426:	42ab      	cmp	r3, r5
 8005428:	dc64      	bgt.n	80054f4 <stm32__i2c__mem_write+0x17c>
 800542a:	68f8      	ldr	r0, [r7, #12]
 800542c:	2106      	movs	r1, #6
 800542e:	2200      	movs	r2, #0
 8005430:	6bbb      	ldr	r3, [r7, #56]	; 0x38
 8005432:	f7ff f82f 	bl	8004494 <stm32__i2c__wait_flag>
 8005436:	4603      	mov	r3, r0
 8005438:	74fb      	strb	r3, [r7, #19]
 800543a:	7cfb      	ldrb	r3, [r7, #19]
 800543c:	2b00      	cmp	r3, #0
 800543e:	d174      	bne.n	800552a <stm32__i2c__mem_write+0x1b2>
 8005440:	697b      	ldr	r3, [r7, #20]
 8005442:	42a3      	cmp	r3, r4
 8005444:	db02      	blt.n	800544c <stm32__i2c__mem_write+0xd4>
 8005446:	697b      	ldr	r3, [r7, #20]
 8005448:	42ab      	cmp	r3, r5
 800544a:	dd04      	ble.n	8005456 <stm32__i2c__mem_write+0xde>
 800544c:	483b      	ldr	r0, [pc, #236]	; (800553c <stm32__i2c__mem_write+0x1c4>)
 800544e:	f240 31b9 	movw	r1, #953	; 0x3b9
 8005452:	f7fc f893 	bl	800157c <__gnat_last_chance_handler>
 8005456:	68fb      	ldr	r3, [r7, #12]
 8005458:	685b      	ldr	r3, [r3, #4]
 800545a:	3310      	adds	r3, #16
 800545c:	681b      	ldr	r3, [r3, #0]
 800545e:	6b39      	ldr	r1, [r7, #48]	; 0x30
 8005460:	697a      	ldr	r2, [r7, #20]
 8005462:	1b92      	subs	r2, r2, r6
 8005464:	5c8a      	ldrb	r2, [r1, r2]
 8005466:	f362 0307 	bfi	r3, r2, #0, #8
 800546a:	68fa      	ldr	r2, [r7, #12]
 800546c:	6852      	ldr	r2, [r2, #4]
 800546e:	3210      	adds	r2, #16
 8005470:	6013      	str	r3, [r2, #0]
 8005472:	697b      	ldr	r3, [r7, #20]
 8005474:	f06f 4200 	mvn.w	r2, #2147483648	; 0x80000000
 8005478:	4293      	cmp	r3, r2
 800547a:	d104      	bne.n	8005486 <stm32__i2c__mem_write+0x10e>
 800547c:	482f      	ldr	r0, [pc, #188]	; (800553c <stm32__i2c__mem_write+0x1c4>)
 800547e:	f240 31ba 	movw	r1, #954	; 0x3ba
 8005482:	f7fc f87b 	bl	800157c <__gnat_last_chance_handler>
 8005486:	697b      	ldr	r3, [r7, #20]
 8005488:	3301      	adds	r3, #1
 800548a:	617b      	str	r3, [r7, #20]
 800548c:	68f8      	ldr	r0, [r7, #12]
 800548e:	2102      	movs	r1, #2
 8005490:	f7fe fefa 	bl	8004288 <stm32__i2c__flag_status>
 8005494:	4603      	mov	r3, r0
 8005496:	2b00      	cmp	r3, #0
 8005498:	d0c4      	beq.n	8005424 <stm32__i2c__mem_write+0xac>
 800549a:	697b      	ldr	r3, [r7, #20]
 800549c:	42ab      	cmp	r3, r5
 800549e:	dcc1      	bgt.n	8005424 <stm32__i2c__mem_write+0xac>
 80054a0:	7cfb      	ldrb	r3, [r7, #19]
 80054a2:	2b00      	cmp	r3, #0
 80054a4:	d1be      	bne.n	8005424 <stm32__i2c__mem_write+0xac>
 80054a6:	697b      	ldr	r3, [r7, #20]
 80054a8:	42a3      	cmp	r3, r4
 80054aa:	db02      	blt.n	80054b2 <stm32__i2c__mem_write+0x13a>
 80054ac:	697b      	ldr	r3, [r7, #20]
 80054ae:	42ab      	cmp	r3, r5
 80054b0:	dd04      	ble.n	80054bc <stm32__i2c__mem_write+0x144>
 80054b2:	4822      	ldr	r0, [pc, #136]	; (800553c <stm32__i2c__mem_write+0x1c4>)
 80054b4:	f240 31c2 	movw	r1, #962	; 0x3c2
 80054b8:	f7fc f860 	bl	800157c <__gnat_last_chance_handler>
 80054bc:	68fb      	ldr	r3, [r7, #12]
 80054be:	685b      	ldr	r3, [r3, #4]
 80054c0:	3310      	adds	r3, #16
 80054c2:	681b      	ldr	r3, [r3, #0]
 80054c4:	6b39      	ldr	r1, [r7, #48]	; 0x30
 80054c6:	697a      	ldr	r2, [r7, #20]
 80054c8:	1b92      	subs	r2, r2, r6
 80054ca:	5c8a      	ldrb	r2, [r1, r2]
 80054cc:	f362 0307 	bfi	r3, r2, #0, #8
 80054d0:	68fa      	ldr	r2, [r7, #12]
 80054d2:	6852      	ldr	r2, [r2, #4]
 80054d4:	3210      	adds	r2, #16
 80054d6:	6013      	str	r3, [r2, #0]
 80054d8:	697b      	ldr	r3, [r7, #20]
 80054da:	f06f 4200 	mvn.w	r2, #2147483648	; 0x80000000
 80054de:	4293      	cmp	r3, r2
 80054e0:	d104      	bne.n	80054ec <stm32__i2c__mem_write+0x174>
 80054e2:	4816      	ldr	r0, [pc, #88]	; (800553c <stm32__i2c__mem_write+0x1c4>)
 80054e4:	f240 31c3 	movw	r1, #963	; 0x3c3
 80054e8:	f7fc f848 	bl	800157c <__gnat_last_chance_handler>
 80054ec:	697b      	ldr	r3, [r7, #20]
 80054ee:	3301      	adds	r3, #1
 80054f0:	617b      	str	r3, [r7, #20]
 80054f2:	e797      	b.n	8005424 <stm32__i2c__mem_write+0xac>
 80054f4:	68f8      	ldr	r0, [r7, #12]
 80054f6:	2106      	movs	r1, #6
 80054f8:	2200      	movs	r2, #0
 80054fa:	6bbb      	ldr	r3, [r7, #56]	; 0x38
 80054fc:	f7fe ffca 	bl	8004494 <stm32__i2c__wait_flag>
 8005500:	4603      	mov	r3, r0
 8005502:	74fb      	strb	r3, [r7, #19]
 8005504:	7cfb      	ldrb	r3, [r7, #19]
 8005506:	2b00      	cmp	r3, #0
 8005508:	d111      	bne.n	800552e <stm32__i2c__mem_write+0x1b6>
 800550a:	68fb      	ldr	r3, [r7, #12]
 800550c:	685b      	ldr	r3, [r3, #4]
 800550e:	681b      	ldr	r3, [r3, #0]
 8005510:	461a      	mov	r2, r3
 8005512:	4613      	mov	r3, r2
 8005514:	f443 7200 	orr.w	r2, r3, #512	; 0x200
 8005518:	68fb      	ldr	r3, [r7, #12]
 800551a:	685b      	ldr	r3, [r3, #4]
 800551c:	601a      	str	r2, [r3, #0]
 800551e:	68fb      	ldr	r3, [r7, #12]
 8005520:	2201      	movs	r2, #1
 8005522:	751a      	strb	r2, [r3, #20]
 8005524:	e004      	b.n	8005530 <stm32__i2c__mem_write+0x1b8>
 8005526:	bf00      	nop
 8005528:	e002      	b.n	8005530 <stm32__i2c__mem_write+0x1b8>
 800552a:	bf00      	nop
 800552c:	e000      	b.n	8005530 <stm32__i2c__mem_write+0x1b8>
 800552e:	bf00      	nop
 8005530:	7cfb      	ldrb	r3, [r7, #19]
 8005532:	bf00      	nop
 8005534:	4618      	mov	r0, r3
 8005536:	371c      	adds	r7, #28
 8005538:	46bd      	mov	sp, r7
 800553a:	bdf0      	pop	{r4, r5, r6, r7, pc}
 800553c:	0800b4f0 	.word	0x0800b4f0

08005540 <stm32__i2c__mem_read>:
 8005540:	b5b0      	push	{r4, r5, r7, lr}
 8005542:	b088      	sub	sp, #32
 8005544:	af02      	add	r7, sp, #8
 8005546:	60f8      	str	r0, [r7, #12]
 8005548:	4608      	mov	r0, r1
 800554a:	4611      	mov	r1, r2
 800554c:	461a      	mov	r2, r3
 800554e:	4603      	mov	r3, r0
 8005550:	817b      	strh	r3, [r7, #10]
 8005552:	460b      	mov	r3, r1
 8005554:	813b      	strh	r3, [r7, #8]
 8005556:	4613      	mov	r3, r2
 8005558:	71fb      	strb	r3, [r7, #7]
 800555a:	6afb      	ldr	r3, [r7, #44]	; 0x2c
 800555c:	681b      	ldr	r3, [r3, #0]
 800555e:	461c      	mov	r4, r3
 8005560:	6afb      	ldr	r3, [r7, #44]	; 0x2c
 8005562:	681b      	ldr	r3, [r3, #0]
 8005564:	2b00      	cmp	r3, #0
 8005566:	da04      	bge.n	8005572 <stm32__i2c__mem_read+0x32>
 8005568:	48a2      	ldr	r0, [pc, #648]	; (80057f4 <stm32__i2c__mem_read+0x2b4>)
 800556a:	f44f 7179 	mov.w	r1, #996	; 0x3e4
 800556e:	f7fc f805 	bl	800157c <__gnat_last_chance_handler>
 8005572:	6afb      	ldr	r3, [r7, #44]	; 0x2c
 8005574:	681b      	ldr	r3, [r3, #0]
 8005576:	617b      	str	r3, [r7, #20]
 8005578:	68fb      	ldr	r3, [r7, #12]
 800557a:	7d1b      	ldrb	r3, [r3, #20]
 800557c:	2b00      	cmp	r3, #0
 800557e:	d102      	bne.n	8005586 <stm32__i2c__mem_read+0x46>
 8005580:	2301      	movs	r3, #1
 8005582:	74fb      	strb	r3, [r7, #19]
 8005584:	e2b1      	b.n	8005aea <stm32__i2c__mem_read+0x5aa>
 8005586:	6afb      	ldr	r3, [r7, #44]	; 0x2c
 8005588:	681a      	ldr	r2, [r3, #0]
 800558a:	6afb      	ldr	r3, [r7, #44]	; 0x2c
 800558c:	685b      	ldr	r3, [r3, #4]
 800558e:	429a      	cmp	r2, r3
 8005590:	dd02      	ble.n	8005598 <stm32__i2c__mem_read+0x58>
 8005592:	2301      	movs	r3, #1
 8005594:	74fb      	strb	r3, [r7, #19]
 8005596:	e2a8      	b.n	8005aea <stm32__i2c__mem_read+0x5aa>
 8005598:	68f8      	ldr	r0, [r7, #12]
 800559a:	210f      	movs	r1, #15
 800559c:	2201      	movs	r2, #1
 800559e:	6b3b      	ldr	r3, [r7, #48]	; 0x30
 80055a0:	f7fe ff78 	bl	8004494 <stm32__i2c__wait_flag>
 80055a4:	4603      	mov	r3, r0
 80055a6:	74fb      	strb	r3, [r7, #19]
 80055a8:	7cfb      	ldrb	r3, [r7, #19]
 80055aa:	2b00      	cmp	r3, #0
 80055ac:	d002      	beq.n	80055b4 <stm32__i2c__mem_read+0x74>
 80055ae:	2303      	movs	r3, #3
 80055b0:	74fb      	strb	r3, [r7, #19]
 80055b2:	e29a      	b.n	8005aea <stm32__i2c__mem_read+0x5aa>
 80055b4:	68fb      	ldr	r3, [r7, #12]
 80055b6:	7d1b      	ldrb	r3, [r3, #20]
 80055b8:	2b01      	cmp	r3, #1
 80055ba:	d002      	beq.n	80055c2 <stm32__i2c__mem_read+0x82>
 80055bc:	2303      	movs	r3, #3
 80055be:	74fb      	strb	r3, [r7, #19]
 80055c0:	e293      	b.n	8005aea <stm32__i2c__mem_read+0x5aa>
 80055c2:	68fb      	ldr	r3, [r7, #12]
 80055c4:	2205      	movs	r2, #5
 80055c6:	751a      	strb	r2, [r3, #20]
 80055c8:	68fb      	ldr	r3, [r7, #12]
 80055ca:	685b      	ldr	r3, [r3, #4]
 80055cc:	681b      	ldr	r3, [r3, #0]
 80055ce:	f36f 23cb 	bfc	r3, #11, #1
 80055d2:	68fa      	ldr	r2, [r7, #12]
 80055d4:	6852      	ldr	r2, [r2, #4]
 80055d6:	6013      	str	r3, [r2, #0]
 80055d8:	8979      	ldrh	r1, [r7, #10]
 80055da:	893a      	ldrh	r2, [r7, #8]
 80055dc:	79fd      	ldrb	r5, [r7, #7]
 80055de:	6b3b      	ldr	r3, [r7, #48]	; 0x30
 80055e0:	9300      	str	r3, [sp, #0]
 80055e2:	68f8      	ldr	r0, [r7, #12]
 80055e4:	462b      	mov	r3, r5
 80055e6:	f7ff fa0b 	bl	8004a00 <stm32__i2c__mem_request_read>
 80055ea:	4603      	mov	r3, r0
 80055ec:	74fb      	strb	r3, [r7, #19]
 80055ee:	7cfb      	ldrb	r3, [r7, #19]
 80055f0:	2b00      	cmp	r3, #0
 80055f2:	f040 826f 	bne.w	8005ad4 <stm32__i2c__mem_read+0x594>
 80055f6:	6afb      	ldr	r3, [r7, #44]	; 0x2c
 80055f8:	681a      	ldr	r2, [r3, #0]
 80055fa:	6afb      	ldr	r3, [r7, #44]	; 0x2c
 80055fc:	685b      	ldr	r3, [r3, #4]
 80055fe:	429a      	cmp	r2, r3
 8005600:	d115      	bne.n	800562e <stm32__i2c__mem_read+0xee>
 8005602:	68fb      	ldr	r3, [r7, #12]
 8005604:	685b      	ldr	r3, [r3, #4]
 8005606:	681b      	ldr	r3, [r3, #0]
 8005608:	f36f 238a 	bfc	r3, #10, #1
 800560c:	68fa      	ldr	r2, [r7, #12]
 800560e:	6852      	ldr	r2, [r2, #4]
 8005610:	6013      	str	r3, [r2, #0]
 8005612:	68f8      	ldr	r0, [r7, #12]
 8005614:	f7fe ff24 	bl	8004460 <stm32__i2c__clear_address_sent_status>
 8005618:	68fb      	ldr	r3, [r7, #12]
 800561a:	685b      	ldr	r3, [r3, #4]
 800561c:	681b      	ldr	r3, [r3, #0]
 800561e:	461a      	mov	r2, r3
 8005620:	4613      	mov	r3, r2
 8005622:	f443 7200 	orr.w	r2, r3, #512	; 0x200
 8005626:	68fb      	ldr	r3, [r7, #12]
 8005628:	685b      	ldr	r3, [r3, #4]
 800562a:	601a      	str	r2, [r3, #0]
 800562c:	e045      	b.n	80056ba <stm32__i2c__mem_read+0x17a>
 800562e:	6afb      	ldr	r3, [r7, #44]	; 0x2c
 8005630:	681b      	ldr	r3, [r3, #0]
 8005632:	461a      	mov	r2, r3
 8005634:	ea4f 73e2 	mov.w	r3, r2, asr #31
 8005638:	f04f 30ff 	mov.w	r0, #4294967295
 800563c:	f06f 4100 	mvn.w	r1, #2147483648	; 0x80000000
 8005640:	428b      	cmp	r3, r1
 8005642:	bf08      	it	eq
 8005644:	4282      	cmpeq	r2, r0
 8005646:	d104      	bne.n	8005652 <stm32__i2c__mem_read+0x112>
 8005648:	486a      	ldr	r0, [pc, #424]	; (80057f4 <stm32__i2c__mem_read+0x2b4>)
 800564a:	f240 410c 	movw	r1, #1036	; 0x40c
 800564e:	f7fb ff95 	bl	800157c <__gnat_last_chance_handler>
 8005652:	6afb      	ldr	r3, [r7, #44]	; 0x2c
 8005654:	681b      	ldr	r3, [r3, #0]
 8005656:	461a      	mov	r2, r3
 8005658:	ea4f 73e2 	mov.w	r3, r2, asr #31
 800565c:	1c50      	adds	r0, r2, #1
 800565e:	f143 0100 	adc.w	r1, r3, #0
 8005662:	6afb      	ldr	r3, [r7, #44]	; 0x2c
 8005664:	685b      	ldr	r3, [r3, #4]
 8005666:	461a      	mov	r2, r3
 8005668:	ea4f 73e2 	mov.w	r3, r2, asr #31
 800566c:	4299      	cmp	r1, r3
 800566e:	bf08      	it	eq
 8005670:	4290      	cmpeq	r0, r2
 8005672:	d115      	bne.n	80056a0 <stm32__i2c__mem_read+0x160>
 8005674:	68fb      	ldr	r3, [r7, #12]
 8005676:	685b      	ldr	r3, [r3, #4]
 8005678:	681b      	ldr	r3, [r3, #0]
 800567a:	f36f 238a 	bfc	r3, #10, #1
 800567e:	68fa      	ldr	r2, [r7, #12]
 8005680:	6852      	ldr	r2, [r2, #4]
 8005682:	6013      	str	r3, [r2, #0]
 8005684:	68fb      	ldr	r3, [r7, #12]
 8005686:	685b      	ldr	r3, [r3, #4]
 8005688:	681b      	ldr	r3, [r3, #0]
 800568a:	461a      	mov	r2, r3
 800568c:	4613      	mov	r3, r2
 800568e:	f443 6200 	orr.w	r2, r3, #2048	; 0x800
 8005692:	68fb      	ldr	r3, [r7, #12]
 8005694:	685b      	ldr	r3, [r3, #4]
 8005696:	601a      	str	r2, [r3, #0]
 8005698:	68f8      	ldr	r0, [r7, #12]
 800569a:	f7fe fee1 	bl	8004460 <stm32__i2c__clear_address_sent_status>
 800569e:	e00c      	b.n	80056ba <stm32__i2c__mem_read+0x17a>
 80056a0:	68fb      	ldr	r3, [r7, #12]
 80056a2:	685b      	ldr	r3, [r3, #4]
 80056a4:	681b      	ldr	r3, [r3, #0]
 80056a6:	461a      	mov	r2, r3
 80056a8:	4613      	mov	r3, r2
 80056aa:	f443 6280 	orr.w	r2, r3, #1024	; 0x400
 80056ae:	68fb      	ldr	r3, [r7, #12]
 80056b0:	685b      	ldr	r3, [r3, #4]
 80056b2:	601a      	str	r2, [r3, #0]
 80056b4:	68f8      	ldr	r0, [r7, #12]
 80056b6:	f7fe fed3 	bl	8004460 <stm32__i2c__clear_address_sent_status>
 80056ba:	697a      	ldr	r2, [r7, #20]
 80056bc:	6afb      	ldr	r3, [r7, #44]	; 0x2c
 80056be:	685b      	ldr	r3, [r3, #4]
 80056c0:	429a      	cmp	r2, r3
 80056c2:	f300 8203 	bgt.w	8005acc <stm32__i2c__mem_read+0x58c>
 80056c6:	697a      	ldr	r2, [r7, #20]
 80056c8:	6afb      	ldr	r3, [r7, #44]	; 0x2c
 80056ca:	685b      	ldr	r3, [r3, #4]
 80056cc:	429a      	cmp	r2, r3
 80056ce:	d139      	bne.n	8005744 <stm32__i2c__mem_read+0x204>
 80056d0:	68f8      	ldr	r0, [r7, #12]
 80056d2:	2105      	movs	r1, #5
 80056d4:	2200      	movs	r2, #0
 80056d6:	6b3b      	ldr	r3, [r7, #48]	; 0x30
 80056d8:	f7fe fedc 	bl	8004494 <stm32__i2c__wait_flag>
 80056dc:	4603      	mov	r3, r0
 80056de:	74fb      	strb	r3, [r7, #19]
 80056e0:	7cfb      	ldrb	r3, [r7, #19]
 80056e2:	2b00      	cmp	r3, #0
 80056e4:	f040 81f8 	bne.w	8005ad8 <stm32__i2c__mem_read+0x598>
 80056e8:	697a      	ldr	r2, [r7, #20]
 80056ea:	6afb      	ldr	r3, [r7, #44]	; 0x2c
 80056ec:	681b      	ldr	r3, [r3, #0]
 80056ee:	429a      	cmp	r2, r3
 80056f0:	db04      	blt.n	80056fc <stm32__i2c__mem_read+0x1bc>
 80056f2:	697a      	ldr	r2, [r7, #20]
 80056f4:	6afb      	ldr	r3, [r7, #44]	; 0x2c
 80056f6:	685b      	ldr	r3, [r3, #4]
 80056f8:	429a      	cmp	r2, r3
 80056fa:	dd04      	ble.n	8005706 <stm32__i2c__mem_read+0x1c6>
 80056fc:	483d      	ldr	r0, [pc, #244]	; (80057f4 <stm32__i2c__mem_read+0x2b4>)
 80056fe:	f44f 6184 	mov.w	r1, #1056	; 0x420
 8005702:	f7fb ff3b 	bl	800157c <__gnat_last_chance_handler>
 8005706:	697b      	ldr	r3, [r7, #20]
 8005708:	2b00      	cmp	r3, #0
 800570a:	da04      	bge.n	8005716 <stm32__i2c__mem_read+0x1d6>
 800570c:	4839      	ldr	r0, [pc, #228]	; (80057f4 <stm32__i2c__mem_read+0x2b4>)
 800570e:	f44f 6184 	mov.w	r1, #1056	; 0x420
 8005712:	f7fb ff33 	bl	800157c <__gnat_last_chance_handler>
 8005716:	6aba      	ldr	r2, [r7, #40]	; 0x28
 8005718:	68fb      	ldr	r3, [r7, #12]
 800571a:	685b      	ldr	r3, [r3, #4]
 800571c:	3310      	adds	r3, #16
 800571e:	681b      	ldr	r3, [r3, #0]
 8005720:	b2d9      	uxtb	r1, r3
 8005722:	697b      	ldr	r3, [r7, #20]
 8005724:	1b1b      	subs	r3, r3, r4
 8005726:	54d1      	strb	r1, [r2, r3]
 8005728:	697b      	ldr	r3, [r7, #20]
 800572a:	f06f 4200 	mvn.w	r2, #2147483648	; 0x80000000
 800572e:	4293      	cmp	r3, r2
 8005730:	d104      	bne.n	800573c <stm32__i2c__mem_read+0x1fc>
 8005732:	4830      	ldr	r0, [pc, #192]	; (80057f4 <stm32__i2c__mem_read+0x2b4>)
 8005734:	f240 4121 	movw	r1, #1057	; 0x421
 8005738:	f7fb ff20 	bl	800157c <__gnat_last_chance_handler>
 800573c:	697b      	ldr	r3, [r7, #20]
 800573e:	3301      	adds	r3, #1
 8005740:	617b      	str	r3, [r7, #20]
 8005742:	e7ba      	b.n	80056ba <stm32__i2c__mem_read+0x17a>
 8005744:	697b      	ldr	r3, [r7, #20]
 8005746:	f06f 4200 	mvn.w	r2, #2147483648	; 0x80000000
 800574a:	4293      	cmp	r3, r2
 800574c:	d104      	bne.n	8005758 <stm32__i2c__mem_read+0x218>
 800574e:	4829      	ldr	r0, [pc, #164]	; (80057f4 <stm32__i2c__mem_read+0x2b4>)
 8005750:	f240 4123 	movw	r1, #1059	; 0x423
 8005754:	f7fb ff12 	bl	800157c <__gnat_last_chance_handler>
 8005758:	697b      	ldr	r3, [r7, #20]
 800575a:	1c5a      	adds	r2, r3, #1
 800575c:	6afb      	ldr	r3, [r7, #44]	; 0x2c
 800575e:	685b      	ldr	r3, [r3, #4]
 8005760:	429a      	cmp	r2, r3
 8005762:	d17a      	bne.n	800585a <stm32__i2c__mem_read+0x31a>
 8005764:	68fb      	ldr	r3, [r7, #12]
 8005766:	685b      	ldr	r3, [r3, #4]
 8005768:	681b      	ldr	r3, [r3, #0]
 800576a:	f36f 238a 	bfc	r3, #10, #1
 800576e:	68fa      	ldr	r2, [r7, #12]
 8005770:	6852      	ldr	r2, [r2, #4]
 8005772:	6013      	str	r3, [r2, #0]
 8005774:	68f8      	ldr	r0, [r7, #12]
 8005776:	2102      	movs	r1, #2
 8005778:	2200      	movs	r2, #0
 800577a:	6b3b      	ldr	r3, [r7, #48]	; 0x30
 800577c:	f7fe fe8a 	bl	8004494 <stm32__i2c__wait_flag>
 8005780:	4603      	mov	r3, r0
 8005782:	74fb      	strb	r3, [r7, #19]
 8005784:	7cfb      	ldrb	r3, [r7, #19]
 8005786:	2b00      	cmp	r3, #0
 8005788:	f040 81a8 	bne.w	8005adc <stm32__i2c__mem_read+0x59c>
 800578c:	68fb      	ldr	r3, [r7, #12]
 800578e:	685b      	ldr	r3, [r3, #4]
 8005790:	681b      	ldr	r3, [r3, #0]
 8005792:	461a      	mov	r2, r3
 8005794:	4613      	mov	r3, r2
 8005796:	f443 7200 	orr.w	r2, r3, #512	; 0x200
 800579a:	68fb      	ldr	r3, [r7, #12]
 800579c:	685b      	ldr	r3, [r3, #4]
 800579e:	601a      	str	r2, [r3, #0]
 80057a0:	697a      	ldr	r2, [r7, #20]
 80057a2:	6afb      	ldr	r3, [r7, #44]	; 0x2c
 80057a4:	681b      	ldr	r3, [r3, #0]
 80057a6:	429a      	cmp	r2, r3
 80057a8:	db04      	blt.n	80057b4 <stm32__i2c__mem_read+0x274>
 80057aa:	697a      	ldr	r2, [r7, #20]
 80057ac:	6afb      	ldr	r3, [r7, #44]	; 0x2c
 80057ae:	685b      	ldr	r3, [r3, #4]
 80057b0:	429a      	cmp	r2, r3
 80057b2:	dd04      	ble.n	80057be <stm32__i2c__mem_read+0x27e>
 80057b4:	480f      	ldr	r0, [pc, #60]	; (80057f4 <stm32__i2c__mem_read+0x2b4>)
 80057b6:	f240 412f 	movw	r1, #1071	; 0x42f
 80057ba:	f7fb fedf 	bl	800157c <__gnat_last_chance_handler>
 80057be:	697b      	ldr	r3, [r7, #20]
 80057c0:	2b00      	cmp	r3, #0
 80057c2:	da04      	bge.n	80057ce <stm32__i2c__mem_read+0x28e>
 80057c4:	480b      	ldr	r0, [pc, #44]	; (80057f4 <stm32__i2c__mem_read+0x2b4>)
 80057c6:	f240 412f 	movw	r1, #1071	; 0x42f
 80057ca:	f7fb fed7 	bl	800157c <__gnat_last_chance_handler>
 80057ce:	6aba      	ldr	r2, [r7, #40]	; 0x28
 80057d0:	68fb      	ldr	r3, [r7, #12]
 80057d2:	685b      	ldr	r3, [r3, #4]
 80057d4:	3310      	adds	r3, #16
 80057d6:	681b      	ldr	r3, [r3, #0]
 80057d8:	b2d9      	uxtb	r1, r3
 80057da:	697b      	ldr	r3, [r7, #20]
 80057dc:	1b1b      	subs	r3, r3, r4
 80057de:	54d1      	strb	r1, [r2, r3]
 80057e0:	697b      	ldr	r3, [r7, #20]
 80057e2:	f06f 4200 	mvn.w	r2, #2147483648	; 0x80000000
 80057e6:	4293      	cmp	r3, r2
 80057e8:	d106      	bne.n	80057f8 <stm32__i2c__mem_read+0x2b8>
 80057ea:	4802      	ldr	r0, [pc, #8]	; (80057f4 <stm32__i2c__mem_read+0x2b4>)
 80057ec:	f44f 6186 	mov.w	r1, #1072	; 0x430
 80057f0:	f7fb fec4 	bl	800157c <__gnat_last_chance_handler>
 80057f4:	0800b4f0 	.word	0x0800b4f0
 80057f8:	697b      	ldr	r3, [r7, #20]
 80057fa:	3301      	adds	r3, #1
 80057fc:	617b      	str	r3, [r7, #20]
 80057fe:	697a      	ldr	r2, [r7, #20]
 8005800:	6afb      	ldr	r3, [r7, #44]	; 0x2c
 8005802:	681b      	ldr	r3, [r3, #0]
 8005804:	429a      	cmp	r2, r3
 8005806:	db04      	blt.n	8005812 <stm32__i2c__mem_read+0x2d2>
 8005808:	697a      	ldr	r2, [r7, #20]
 800580a:	6afb      	ldr	r3, [r7, #44]	; 0x2c
 800580c:	685b      	ldr	r3, [r3, #4]
 800580e:	429a      	cmp	r2, r3
 8005810:	dd04      	ble.n	800581c <stm32__i2c__mem_read+0x2dc>
 8005812:	48aa      	ldr	r0, [pc, #680]	; (8005abc <stm32__i2c__mem_read+0x57c>)
 8005814:	f240 4131 	movw	r1, #1073	; 0x431
 8005818:	f7fb feb0 	bl	800157c <__gnat_last_chance_handler>
 800581c:	697b      	ldr	r3, [r7, #20]
 800581e:	2b00      	cmp	r3, #0
 8005820:	da04      	bge.n	800582c <stm32__i2c__mem_read+0x2ec>
 8005822:	48a6      	ldr	r0, [pc, #664]	; (8005abc <stm32__i2c__mem_read+0x57c>)
 8005824:	f240 4131 	movw	r1, #1073	; 0x431
 8005828:	f7fb fea8 	bl	800157c <__gnat_last_chance_handler>
 800582c:	6aba      	ldr	r2, [r7, #40]	; 0x28
 800582e:	68fb      	ldr	r3, [r7, #12]
 8005830:	685b      	ldr	r3, [r3, #4]
 8005832:	3310      	adds	r3, #16
 8005834:	681b      	ldr	r3, [r3, #0]
 8005836:	b2d9      	uxtb	r1, r3
 8005838:	697b      	ldr	r3, [r7, #20]
 800583a:	1b1b      	subs	r3, r3, r4
 800583c:	54d1      	strb	r1, [r2, r3]
 800583e:	697b      	ldr	r3, [r7, #20]
 8005840:	f06f 4200 	mvn.w	r2, #2147483648	; 0x80000000
 8005844:	4293      	cmp	r3, r2
 8005846:	d104      	bne.n	8005852 <stm32__i2c__mem_read+0x312>
 8005848:	489c      	ldr	r0, [pc, #624]	; (8005abc <stm32__i2c__mem_read+0x57c>)
 800584a:	f240 4132 	movw	r1, #1074	; 0x432
 800584e:	f7fb fe95 	bl	800157c <__gnat_last_chance_handler>
 8005852:	697b      	ldr	r3, [r7, #20]
 8005854:	3301      	adds	r3, #1
 8005856:	617b      	str	r3, [r7, #20]
 8005858:	e72f      	b.n	80056ba <stm32__i2c__mem_read+0x17a>
 800585a:	697b      	ldr	r3, [r7, #20]
 800585c:	4a98      	ldr	r2, [pc, #608]	; (8005ac0 <stm32__i2c__mem_read+0x580>)
 800585e:	4293      	cmp	r3, r2
 8005860:	dd04      	ble.n	800586c <stm32__i2c__mem_read+0x32c>
 8005862:	4896      	ldr	r0, [pc, #600]	; (8005abc <stm32__i2c__mem_read+0x57c>)
 8005864:	f240 4134 	movw	r1, #1076	; 0x434
 8005868:	f7fb fe88 	bl	800157c <__gnat_last_chance_handler>
 800586c:	697b      	ldr	r3, [r7, #20]
 800586e:	1c9a      	adds	r2, r3, #2
 8005870:	6afb      	ldr	r3, [r7, #44]	; 0x2c
 8005872:	685b      	ldr	r3, [r3, #4]
 8005874:	429a      	cmp	r2, r3
 8005876:	f040 80b2 	bne.w	80059de <stm32__i2c__mem_read+0x49e>
 800587a:	68f8      	ldr	r0, [r7, #12]
 800587c:	2102      	movs	r1, #2
 800587e:	2200      	movs	r2, #0
 8005880:	6b3b      	ldr	r3, [r7, #48]	; 0x30
 8005882:	f7fe fe07 	bl	8004494 <stm32__i2c__wait_flag>
 8005886:	4603      	mov	r3, r0
 8005888:	74fb      	strb	r3, [r7, #19]
 800588a:	7cfb      	ldrb	r3, [r7, #19]
 800588c:	2b00      	cmp	r3, #0
 800588e:	f040 8127 	bne.w	8005ae0 <stm32__i2c__mem_read+0x5a0>
 8005892:	68fb      	ldr	r3, [r7, #12]
 8005894:	685b      	ldr	r3, [r3, #4]
 8005896:	681b      	ldr	r3, [r3, #0]
 8005898:	f36f 238a 	bfc	r3, #10, #1
 800589c:	68fa      	ldr	r2, [r7, #12]
 800589e:	6852      	ldr	r2, [r2, #4]
 80058a0:	6013      	str	r3, [r2, #0]
 80058a2:	697a      	ldr	r2, [r7, #20]
 80058a4:	6afb      	ldr	r3, [r7, #44]	; 0x2c
 80058a6:	681b      	ldr	r3, [r3, #0]
 80058a8:	429a      	cmp	r2, r3
 80058aa:	db04      	blt.n	80058b6 <stm32__i2c__mem_read+0x376>
 80058ac:	697a      	ldr	r2, [r7, #20]
 80058ae:	6afb      	ldr	r3, [r7, #44]	; 0x2c
 80058b0:	685b      	ldr	r3, [r3, #4]
 80058b2:	429a      	cmp	r2, r3
 80058b4:	dd04      	ble.n	80058c0 <stm32__i2c__mem_read+0x380>
 80058b6:	4881      	ldr	r0, [pc, #516]	; (8005abc <stm32__i2c__mem_read+0x57c>)
 80058b8:	f240 413e 	movw	r1, #1086	; 0x43e
 80058bc:	f7fb fe5e 	bl	800157c <__gnat_last_chance_handler>
 80058c0:	697b      	ldr	r3, [r7, #20]
 80058c2:	2b00      	cmp	r3, #0
 80058c4:	da04      	bge.n	80058d0 <stm32__i2c__mem_read+0x390>
 80058c6:	487d      	ldr	r0, [pc, #500]	; (8005abc <stm32__i2c__mem_read+0x57c>)
 80058c8:	f240 413e 	movw	r1, #1086	; 0x43e
 80058cc:	f7fb fe56 	bl	800157c <__gnat_last_chance_handler>
 80058d0:	6aba      	ldr	r2, [r7, #40]	; 0x28
 80058d2:	68fb      	ldr	r3, [r7, #12]
 80058d4:	685b      	ldr	r3, [r3, #4]
 80058d6:	3310      	adds	r3, #16
 80058d8:	681b      	ldr	r3, [r3, #0]
 80058da:	b2d9      	uxtb	r1, r3
 80058dc:	697b      	ldr	r3, [r7, #20]
 80058de:	1b1b      	subs	r3, r3, r4
 80058e0:	54d1      	strb	r1, [r2, r3]
 80058e2:	697b      	ldr	r3, [r7, #20]
 80058e4:	f06f 4200 	mvn.w	r2, #2147483648	; 0x80000000
 80058e8:	4293      	cmp	r3, r2
 80058ea:	d104      	bne.n	80058f6 <stm32__i2c__mem_read+0x3b6>
 80058ec:	4873      	ldr	r0, [pc, #460]	; (8005abc <stm32__i2c__mem_read+0x57c>)
 80058ee:	f240 413f 	movw	r1, #1087	; 0x43f
 80058f2:	f7fb fe43 	bl	800157c <__gnat_last_chance_handler>
 80058f6:	697b      	ldr	r3, [r7, #20]
 80058f8:	3301      	adds	r3, #1
 80058fa:	617b      	str	r3, [r7, #20]
 80058fc:	68f8      	ldr	r0, [r7, #12]
 80058fe:	2102      	movs	r1, #2
 8005900:	2200      	movs	r2, #0
 8005902:	6b3b      	ldr	r3, [r7, #48]	; 0x30
 8005904:	f7fe fdc6 	bl	8004494 <stm32__i2c__wait_flag>
 8005908:	4603      	mov	r3, r0
 800590a:	74fb      	strb	r3, [r7, #19]
 800590c:	7cfb      	ldrb	r3, [r7, #19]
 800590e:	2b00      	cmp	r3, #0
 8005910:	f040 80e8 	bne.w	8005ae4 <stm32__i2c__mem_read+0x5a4>
 8005914:	68fb      	ldr	r3, [r7, #12]
 8005916:	685b      	ldr	r3, [r3, #4]
 8005918:	681b      	ldr	r3, [r3, #0]
 800591a:	461a      	mov	r2, r3
 800591c:	4613      	mov	r3, r2
 800591e:	f443 7200 	orr.w	r2, r3, #512	; 0x200
 8005922:	68fb      	ldr	r3, [r7, #12]
 8005924:	685b      	ldr	r3, [r3, #4]
 8005926:	601a      	str	r2, [r3, #0]
 8005928:	697a      	ldr	r2, [r7, #20]
 800592a:	6afb      	ldr	r3, [r7, #44]	; 0x2c
 800592c:	681b      	ldr	r3, [r3, #0]
 800592e:	429a      	cmp	r2, r3
 8005930:	db04      	blt.n	800593c <stm32__i2c__mem_read+0x3fc>
 8005932:	697a      	ldr	r2, [r7, #20]
 8005934:	6afb      	ldr	r3, [r7, #44]	; 0x2c
 8005936:	685b      	ldr	r3, [r3, #4]
 8005938:	429a      	cmp	r2, r3
 800593a:	dd04      	ble.n	8005946 <stm32__i2c__mem_read+0x406>
 800593c:	485f      	ldr	r0, [pc, #380]	; (8005abc <stm32__i2c__mem_read+0x57c>)
 800593e:	f240 4149 	movw	r1, #1097	; 0x449
 8005942:	f7fb fe1b 	bl	800157c <__gnat_last_chance_handler>
 8005946:	697b      	ldr	r3, [r7, #20]
 8005948:	2b00      	cmp	r3, #0
 800594a:	da04      	bge.n	8005956 <stm32__i2c__mem_read+0x416>
 800594c:	485b      	ldr	r0, [pc, #364]	; (8005abc <stm32__i2c__mem_read+0x57c>)
 800594e:	f240 4149 	movw	r1, #1097	; 0x449
 8005952:	f7fb fe13 	bl	800157c <__gnat_last_chance_handler>
 8005956:	6aba      	ldr	r2, [r7, #40]	; 0x28
 8005958:	68fb      	ldr	r3, [r7, #12]
 800595a:	685b      	ldr	r3, [r3, #4]
 800595c:	3310      	adds	r3, #16
 800595e:	681b      	ldr	r3, [r3, #0]
 8005960:	b2d9      	uxtb	r1, r3
 8005962:	697b      	ldr	r3, [r7, #20]
 8005964:	1b1b      	subs	r3, r3, r4
 8005966:	54d1      	strb	r1, [r2, r3]
 8005968:	697b      	ldr	r3, [r7, #20]
 800596a:	f06f 4200 	mvn.w	r2, #2147483648	; 0x80000000
 800596e:	4293      	cmp	r3, r2
 8005970:	d104      	bne.n	800597c <stm32__i2c__mem_read+0x43c>
 8005972:	4852      	ldr	r0, [pc, #328]	; (8005abc <stm32__i2c__mem_read+0x57c>)
 8005974:	f240 414a 	movw	r1, #1098	; 0x44a
 8005978:	f7fb fe00 	bl	800157c <__gnat_last_chance_handler>
 800597c:	697b      	ldr	r3, [r7, #20]
 800597e:	3301      	adds	r3, #1
 8005980:	617b      	str	r3, [r7, #20]
 8005982:	697a      	ldr	r2, [r7, #20]
 8005984:	6afb      	ldr	r3, [r7, #44]	; 0x2c
 8005986:	681b      	ldr	r3, [r3, #0]
 8005988:	429a      	cmp	r2, r3
 800598a:	db04      	blt.n	8005996 <stm32__i2c__mem_read+0x456>
 800598c:	697a      	ldr	r2, [r7, #20]
 800598e:	6afb      	ldr	r3, [r7, #44]	; 0x2c
 8005990:	685b      	ldr	r3, [r3, #4]
 8005992:	429a      	cmp	r2, r3
 8005994:	dd04      	ble.n	80059a0 <stm32__i2c__mem_read+0x460>
 8005996:	4849      	ldr	r0, [pc, #292]	; (8005abc <stm32__i2c__mem_read+0x57c>)
 8005998:	f240 414b 	movw	r1, #1099	; 0x44b
 800599c:	f7fb fdee 	bl	800157c <__gnat_last_chance_handler>
 80059a0:	697b      	ldr	r3, [r7, #20]
 80059a2:	2b00      	cmp	r3, #0
 80059a4:	da04      	bge.n	80059b0 <stm32__i2c__mem_read+0x470>
 80059a6:	4845      	ldr	r0, [pc, #276]	; (8005abc <stm32__i2c__mem_read+0x57c>)
 80059a8:	f240 414b 	movw	r1, #1099	; 0x44b
 80059ac:	f7fb fde6 	bl	800157c <__gnat_last_chance_handler>
 80059b0:	6aba      	ldr	r2, [r7, #40]	; 0x28
 80059b2:	68fb      	ldr	r3, [r7, #12]
 80059b4:	685b      	ldr	r3, [r3, #4]
 80059b6:	3310      	adds	r3, #16
 80059b8:	681b      	ldr	r3, [r3, #0]
 80059ba:	b2d9      	uxtb	r1, r3
 80059bc:	697b      	ldr	r3, [r7, #20]
 80059be:	1b1b      	subs	r3, r3, r4
 80059c0:	54d1      	strb	r1, [r2, r3]
 80059c2:	697b      	ldr	r3, [r7, #20]
 80059c4:	f06f 4200 	mvn.w	r2, #2147483648	; 0x80000000
 80059c8:	4293      	cmp	r3, r2
 80059ca:	d104      	bne.n	80059d6 <stm32__i2c__mem_read+0x496>
 80059cc:	483b      	ldr	r0, [pc, #236]	; (8005abc <stm32__i2c__mem_read+0x57c>)
 80059ce:	f240 414c 	movw	r1, #1100	; 0x44c
 80059d2:	f7fb fdd3 	bl	800157c <__gnat_last_chance_handler>
 80059d6:	697b      	ldr	r3, [r7, #20]
 80059d8:	3301      	adds	r3, #1
 80059da:	617b      	str	r3, [r7, #20]
 80059dc:	e66d      	b.n	80056ba <stm32__i2c__mem_read+0x17a>
 80059de:	68f8      	ldr	r0, [r7, #12]
 80059e0:	2105      	movs	r1, #5
 80059e2:	2200      	movs	r2, #0
 80059e4:	6b3b      	ldr	r3, [r7, #48]	; 0x30
 80059e6:	f7fe fd55 	bl	8004494 <stm32__i2c__wait_flag>
 80059ea:	4603      	mov	r3, r0
 80059ec:	74fb      	strb	r3, [r7, #19]
 80059ee:	7cfb      	ldrb	r3, [r7, #19]
 80059f0:	2b00      	cmp	r3, #0
 80059f2:	d179      	bne.n	8005ae8 <stm32__i2c__mem_read+0x5a8>
 80059f4:	697a      	ldr	r2, [r7, #20]
 80059f6:	6afb      	ldr	r3, [r7, #44]	; 0x2c
 80059f8:	681b      	ldr	r3, [r3, #0]
 80059fa:	429a      	cmp	r2, r3
 80059fc:	db04      	blt.n	8005a08 <stm32__i2c__mem_read+0x4c8>
 80059fe:	697a      	ldr	r2, [r7, #20]
 8005a00:	6afb      	ldr	r3, [r7, #44]	; 0x2c
 8005a02:	685b      	ldr	r3, [r3, #4]
 8005a04:	429a      	cmp	r2, r3
 8005a06:	dd04      	ble.n	8005a12 <stm32__i2c__mem_read+0x4d2>
 8005a08:	482c      	ldr	r0, [pc, #176]	; (8005abc <stm32__i2c__mem_read+0x57c>)
 8005a0a:	f240 4156 	movw	r1, #1110	; 0x456
 8005a0e:	f7fb fdb5 	bl	800157c <__gnat_last_chance_handler>
 8005a12:	697b      	ldr	r3, [r7, #20]
 8005a14:	2b00      	cmp	r3, #0
 8005a16:	da04      	bge.n	8005a22 <stm32__i2c__mem_read+0x4e2>
 8005a18:	4828      	ldr	r0, [pc, #160]	; (8005abc <stm32__i2c__mem_read+0x57c>)
 8005a1a:	f240 4156 	movw	r1, #1110	; 0x456
 8005a1e:	f7fb fdad 	bl	800157c <__gnat_last_chance_handler>
 8005a22:	6aba      	ldr	r2, [r7, #40]	; 0x28
 8005a24:	68fb      	ldr	r3, [r7, #12]
 8005a26:	685b      	ldr	r3, [r3, #4]
 8005a28:	3310      	adds	r3, #16
 8005a2a:	681b      	ldr	r3, [r3, #0]
 8005a2c:	b2d9      	uxtb	r1, r3
 8005a2e:	697b      	ldr	r3, [r7, #20]
 8005a30:	1b1b      	subs	r3, r3, r4
 8005a32:	54d1      	strb	r1, [r2, r3]
 8005a34:	697b      	ldr	r3, [r7, #20]
 8005a36:	f06f 4200 	mvn.w	r2, #2147483648	; 0x80000000
 8005a3a:	4293      	cmp	r3, r2
 8005a3c:	d104      	bne.n	8005a48 <stm32__i2c__mem_read+0x508>
 8005a3e:	481f      	ldr	r0, [pc, #124]	; (8005abc <stm32__i2c__mem_read+0x57c>)
 8005a40:	f240 4157 	movw	r1, #1111	; 0x457
 8005a44:	f7fb fd9a 	bl	800157c <__gnat_last_chance_handler>
 8005a48:	697b      	ldr	r3, [r7, #20]
 8005a4a:	3301      	adds	r3, #1
 8005a4c:	617b      	str	r3, [r7, #20]
 8005a4e:	68f8      	ldr	r0, [r7, #12]
 8005a50:	2102      	movs	r1, #2
 8005a52:	2200      	movs	r2, #0
 8005a54:	6b3b      	ldr	r3, [r7, #48]	; 0x30
 8005a56:	f7fe fd1d 	bl	8004494 <stm32__i2c__wait_flag>
 8005a5a:	4603      	mov	r3, r0
 8005a5c:	74fb      	strb	r3, [r7, #19]
 8005a5e:	7cfb      	ldrb	r3, [r7, #19]
 8005a60:	2b00      	cmp	r3, #0
 8005a62:	f47f ae2a 	bne.w	80056ba <stm32__i2c__mem_read+0x17a>
 8005a66:	697a      	ldr	r2, [r7, #20]
 8005a68:	6afb      	ldr	r3, [r7, #44]	; 0x2c
 8005a6a:	681b      	ldr	r3, [r3, #0]
 8005a6c:	429a      	cmp	r2, r3
 8005a6e:	db04      	blt.n	8005a7a <stm32__i2c__mem_read+0x53a>
 8005a70:	697a      	ldr	r2, [r7, #20]
 8005a72:	6afb      	ldr	r3, [r7, #44]	; 0x2c
 8005a74:	685b      	ldr	r3, [r3, #4]
 8005a76:	429a      	cmp	r2, r3
 8005a78:	dd04      	ble.n	8005a84 <stm32__i2c__mem_read+0x544>
 8005a7a:	4810      	ldr	r0, [pc, #64]	; (8005abc <stm32__i2c__mem_read+0x57c>)
 8005a7c:	f240 415c 	movw	r1, #1116	; 0x45c
 8005a80:	f7fb fd7c 	bl	800157c <__gnat_last_chance_handler>
 8005a84:	697b      	ldr	r3, [r7, #20]
 8005a86:	2b00      	cmp	r3, #0
 8005a88:	da04      	bge.n	8005a94 <stm32__i2c__mem_read+0x554>
 8005a8a:	480c      	ldr	r0, [pc, #48]	; (8005abc <stm32__i2c__mem_read+0x57c>)
 8005a8c:	f240 415c 	movw	r1, #1116	; 0x45c
 8005a90:	f7fb fd74 	bl	800157c <__gnat_last_chance_handler>
 8005a94:	6aba      	ldr	r2, [r7, #40]	; 0x28
 8005a96:	68fb      	ldr	r3, [r7, #12]
 8005a98:	685b      	ldr	r3, [r3, #4]
 8005a9a:	3310      	adds	r3, #16
 8005a9c:	681b      	ldr	r3, [r3, #0]
 8005a9e:	b2d9      	uxtb	r1, r3
 8005aa0:	697b      	ldr	r3, [r7, #20]
 8005aa2:	1b1b      	subs	r3, r3, r4
 8005aa4:	54d1      	strb	r1, [r2, r3]
 8005aa6:	697b      	ldr	r3, [r7, #20]
 8005aa8:	f06f 4200 	mvn.w	r2, #2147483648	; 0x80000000
 8005aac:	4293      	cmp	r3, r2
 8005aae:	d109      	bne.n	8005ac4 <stm32__i2c__mem_read+0x584>
 8005ab0:	4802      	ldr	r0, [pc, #8]	; (8005abc <stm32__i2c__mem_read+0x57c>)
 8005ab2:	f240 415d 	movw	r1, #1117	; 0x45d
 8005ab6:	f7fb fd61 	bl	800157c <__gnat_last_chance_handler>
 8005aba:	bf00      	nop
 8005abc:	0800b4f0 	.word	0x0800b4f0
 8005ac0:	7ffffffd 	.word	0x7ffffffd
 8005ac4:	697b      	ldr	r3, [r7, #20]
 8005ac6:	3301      	adds	r3, #1
 8005ac8:	617b      	str	r3, [r7, #20]
 8005aca:	e5f6      	b.n	80056ba <stm32__i2c__mem_read+0x17a>
 8005acc:	68fb      	ldr	r3, [r7, #12]
 8005ace:	2201      	movs	r2, #1
 8005ad0:	751a      	strb	r2, [r3, #20]
 8005ad2:	e00a      	b.n	8005aea <stm32__i2c__mem_read+0x5aa>
 8005ad4:	bf00      	nop
 8005ad6:	e008      	b.n	8005aea <stm32__i2c__mem_read+0x5aa>
 8005ad8:	bf00      	nop
 8005ada:	e006      	b.n	8005aea <stm32__i2c__mem_read+0x5aa>
 8005adc:	bf00      	nop
 8005ade:	e004      	b.n	8005aea <stm32__i2c__mem_read+0x5aa>
 8005ae0:	bf00      	nop
 8005ae2:	e002      	b.n	8005aea <stm32__i2c__mem_read+0x5aa>
 8005ae4:	bf00      	nop
 8005ae6:	e000      	b.n	8005aea <stm32__i2c__mem_read+0x5aa>
 8005ae8:	bf00      	nop
 8005aea:	7cfb      	ldrb	r3, [r7, #19]
 8005aec:	bf00      	nop
 8005aee:	4618      	mov	r0, r3
 8005af0:	3718      	adds	r7, #24
 8005af2:	46bd      	mov	sp, r7
 8005af4:	bdb0      	pop	{r4, r5, r7, pc}
 8005af6:	bf00      	nop

08005af8 <stm32__i2c__set_state>:
 8005af8:	b480      	push	{r7}
 8005afa:	b083      	sub	sp, #12
 8005afc:	af00      	add	r7, sp, #0
 8005afe:	6078      	str	r0, [r7, #4]
 8005b00:	460b      	mov	r3, r1
 8005b02:	70fb      	strb	r3, [r7, #3]
 8005b04:	687b      	ldr	r3, [r7, #4]
 8005b06:	685b      	ldr	r3, [r3, #4]
 8005b08:	681b      	ldr	r3, [r3, #0]
 8005b0a:	78fa      	ldrb	r2, [r7, #3]
 8005b0c:	f002 0201 	and.w	r2, r2, #1
 8005b10:	b2d2      	uxtb	r2, r2
 8005b12:	f362 0300 	bfi	r3, r2, #0, #1
 8005b16:	687a      	ldr	r2, [r7, #4]
 8005b18:	6852      	ldr	r2, [r2, #4]
 8005b1a:	6013      	str	r3, [r2, #0]
 8005b1c:	370c      	adds	r7, #12
 8005b1e:	46bd      	mov	sp, r7
 8005b20:	f85d 7b04 	ldr.w	r7, [sp], #4
 8005b24:	4770      	bx	lr
 8005b26:	bf00      	nop

08005b28 <stm32__i2c__port_enabled>:
 8005b28:	b480      	push	{r7}
 8005b2a:	b083      	sub	sp, #12
 8005b2c:	af00      	add	r7, sp, #0
 8005b2e:	6078      	str	r0, [r7, #4]
 8005b30:	687b      	ldr	r3, [r7, #4]
 8005b32:	685b      	ldr	r3, [r3, #4]
 8005b34:	681b      	ldr	r3, [r3, #0]
 8005b36:	f3c3 0300 	ubfx	r3, r3, #0, #1
 8005b3a:	b2db      	uxtb	r3, r3
 8005b3c:	bf00      	nop
 8005b3e:	4618      	mov	r0, r3
 8005b40:	370c      	adds	r7, #12
 8005b42:	46bd      	mov	sp, r7
 8005b44:	f85d 7b04 	ldr.w	r7, [sp], #4
 8005b48:	4770      	bx	lr
 8005b4a:	bf00      	nop

08005b4c <stm32__i2c__enable_interrupt___postconditions.4916>:
 8005b4c:	b5b0      	push	{r4, r5, r7, lr}
 8005b4e:	b082      	sub	sp, #8
 8005b50:	af00      	add	r7, sp, #0
 8005b52:	4663      	mov	r3, ip
 8005b54:	f8c7 c004 	str.w	ip, [r7, #4]
 8005b58:	681a      	ldr	r2, [r3, #0]
 8005b5a:	791b      	ldrb	r3, [r3, #4]
 8005b5c:	4610      	mov	r0, r2
 8005b5e:	4619      	mov	r1, r3
 8005b60:	f000 f8c2 	bl	8005ce8 <stm32__i2c__enabled>
 8005b64:	4603      	mov	r3, r0
 8005b66:	f083 0301 	eor.w	r3, r3, #1
 8005b6a:	b2db      	uxtb	r3, r3
 8005b6c:	2b00      	cmp	r3, #0
 8005b6e:	d005      	beq.n	8005b7c <stm32__i2c__enable_interrupt___postconditions.4916+0x30>
 8005b70:	4c04      	ldr	r4, [pc, #16]	; (8005b84 <stm32__i2c__enable_interrupt___postconditions.4916+0x38>)
 8005b72:	4d05      	ldr	r5, [pc, #20]	; (8005b88 <stm32__i2c__enable_interrupt___postconditions.4916+0x3c>)
 8005b74:	4620      	mov	r0, r4
 8005b76:	4629      	mov	r1, r5
 8005b78:	f004 f882 	bl	8009c80 <system__assertions__raise_assert_failure>
 8005b7c:	3708      	adds	r7, #8
 8005b7e:	46bd      	mov	sp, r7
 8005b80:	bdb0      	pop	{r4, r5, r7, pc}
 8005b82:	bf00      	nop
 8005b84:	0800b544 	.word	0x0800b544
 8005b88:	0800b570 	.word	0x0800b570

08005b8c <stm32__i2c__enable_interrupt>:
 8005b8c:	b580      	push	{r7, lr}
 8005b8e:	b086      	sub	sp, #24
 8005b90:	af00      	add	r7, sp, #0
 8005b92:	6078      	str	r0, [r7, #4]
 8005b94:	460b      	mov	r3, r1
 8005b96:	70fb      	strb	r3, [r7, #3]
 8005b98:	f107 0320 	add.w	r3, r7, #32
 8005b9c:	617b      	str	r3, [r7, #20]
 8005b9e:	687b      	ldr	r3, [r7, #4]
 8005ba0:	60fb      	str	r3, [r7, #12]
 8005ba2:	78fb      	ldrb	r3, [r7, #3]
 8005ba4:	743b      	strb	r3, [r7, #16]
 8005ba6:	7c3b      	ldrb	r3, [r7, #16]
 8005ba8:	2b02      	cmp	r3, #2
 8005baa:	d904      	bls.n	8005bb6 <stm32__i2c__enable_interrupt+0x2a>
 8005bac:	481c      	ldr	r0, [pc, #112]	; (8005c20 <stm32__i2c__enable_interrupt+0x94>)
 8005bae:	f240 4183 	movw	r1, #1155	; 0x483
 8005bb2:	f7fb fce3 	bl	800157c <__gnat_last_chance_handler>
 8005bb6:	7c3b      	ldrb	r3, [r7, #16]
 8005bb8:	2b00      	cmp	r3, #0
 8005bba:	d002      	beq.n	8005bc2 <stm32__i2c__enable_interrupt+0x36>
 8005bbc:	2b01      	cmp	r3, #1
 8005bbe:	d00d      	beq.n	8005bdc <stm32__i2c__enable_interrupt+0x50>
 8005bc0:	e019      	b.n	8005bf6 <stm32__i2c__enable_interrupt+0x6a>
 8005bc2:	68fb      	ldr	r3, [r7, #12]
 8005bc4:	685b      	ldr	r3, [r3, #4]
 8005bc6:	3304      	adds	r3, #4
 8005bc8:	681b      	ldr	r3, [r3, #0]
 8005bca:	461a      	mov	r2, r3
 8005bcc:	4613      	mov	r3, r2
 8005bce:	f443 7280 	orr.w	r2, r3, #256	; 0x100
 8005bd2:	68fb      	ldr	r3, [r7, #12]
 8005bd4:	685b      	ldr	r3, [r3, #4]
 8005bd6:	3304      	adds	r3, #4
 8005bd8:	601a      	str	r2, [r3, #0]
 8005bda:	e018      	b.n	8005c0e <stm32__i2c__enable_interrupt+0x82>
 8005bdc:	68fb      	ldr	r3, [r7, #12]
 8005bde:	685b      	ldr	r3, [r3, #4]
 8005be0:	3304      	adds	r3, #4
 8005be2:	681b      	ldr	r3, [r3, #0]
 8005be4:	461a      	mov	r2, r3
 8005be6:	4613      	mov	r3, r2
 8005be8:	f443 7200 	orr.w	r2, r3, #512	; 0x200
 8005bec:	68fb      	ldr	r3, [r7, #12]
 8005bee:	685b      	ldr	r3, [r3, #4]
 8005bf0:	3304      	adds	r3, #4
 8005bf2:	601a      	str	r2, [r3, #0]
 8005bf4:	e00b      	b.n	8005c0e <stm32__i2c__enable_interrupt+0x82>
 8005bf6:	68fb      	ldr	r3, [r7, #12]
 8005bf8:	685b      	ldr	r3, [r3, #4]
 8005bfa:	3304      	adds	r3, #4
 8005bfc:	681b      	ldr	r3, [r3, #0]
 8005bfe:	461a      	mov	r2, r3
 8005c00:	4613      	mov	r3, r2
 8005c02:	f443 6280 	orr.w	r2, r3, #1024	; 0x400
 8005c06:	68fb      	ldr	r3, [r7, #12]
 8005c08:	685b      	ldr	r3, [r3, #4]
 8005c0a:	3304      	adds	r3, #4
 8005c0c:	601a      	str	r2, [r3, #0]
 8005c0e:	bf00      	nop
 8005c10:	f107 030c 	add.w	r3, r7, #12
 8005c14:	469c      	mov	ip, r3
 8005c16:	f7ff ff99 	bl	8005b4c <stm32__i2c__enable_interrupt___postconditions.4916>
 8005c1a:	3718      	adds	r7, #24
 8005c1c:	46bd      	mov	sp, r7
 8005c1e:	bd80      	pop	{r7, pc}
 8005c20:	0800b4f0 	.word	0x0800b4f0

08005c24 <stm32__i2c__disable_interrupt___postconditions.4924>:
 8005c24:	b5b0      	push	{r4, r5, r7, lr}
 8005c26:	b082      	sub	sp, #8
 8005c28:	af00      	add	r7, sp, #0
 8005c2a:	4663      	mov	r3, ip
 8005c2c:	f8c7 c004 	str.w	ip, [r7, #4]
 8005c30:	681a      	ldr	r2, [r3, #0]
 8005c32:	791b      	ldrb	r3, [r3, #4]
 8005c34:	4610      	mov	r0, r2
 8005c36:	4619      	mov	r1, r3
 8005c38:	f000 f856 	bl	8005ce8 <stm32__i2c__enabled>
 8005c3c:	4603      	mov	r3, r0
 8005c3e:	2b00      	cmp	r3, #0
 8005c40:	d005      	beq.n	8005c4e <stm32__i2c__disable_interrupt___postconditions.4924+0x2a>
 8005c42:	4c04      	ldr	r4, [pc, #16]	; (8005c54 <stm32__i2c__disable_interrupt___postconditions.4924+0x30>)
 8005c44:	4d04      	ldr	r5, [pc, #16]	; (8005c58 <stm32__i2c__disable_interrupt___postconditions.4924+0x34>)
 8005c46:	4620      	mov	r0, r4
 8005c48:	4629      	mov	r1, r5
 8005c4a:	f004 f819 	bl	8009c80 <system__assertions__raise_assert_failure>
 8005c4e:	3708      	adds	r7, #8
 8005c50:	46bd      	mov	sp, r7
 8005c52:	bdb0      	pop	{r4, r5, r7, pc}
 8005c54:	0800b578 	.word	0x0800b578
 8005c58:	0800b570 	.word	0x0800b570

08005c5c <stm32__i2c__disable_interrupt>:
 8005c5c:	b580      	push	{r7, lr}
 8005c5e:	b086      	sub	sp, #24
 8005c60:	af00      	add	r7, sp, #0
 8005c62:	6078      	str	r0, [r7, #4]
 8005c64:	460b      	mov	r3, r1
 8005c66:	70fb      	strb	r3, [r7, #3]
 8005c68:	f107 0320 	add.w	r3, r7, #32
 8005c6c:	617b      	str	r3, [r7, #20]
 8005c6e:	687b      	ldr	r3, [r7, #4]
 8005c70:	60fb      	str	r3, [r7, #12]
 8005c72:	78fb      	ldrb	r3, [r7, #3]
 8005c74:	743b      	strb	r3, [r7, #16]
 8005c76:	7c3b      	ldrb	r3, [r7, #16]
 8005c78:	2b02      	cmp	r3, #2
 8005c7a:	d904      	bls.n	8005c86 <stm32__i2c__disable_interrupt+0x2a>
 8005c7c:	4819      	ldr	r0, [pc, #100]	; (8005ce4 <stm32__i2c__disable_interrupt+0x88>)
 8005c7e:	f240 4196 	movw	r1, #1174	; 0x496
 8005c82:	f7fb fc7b 	bl	800157c <__gnat_last_chance_handler>
 8005c86:	7c3b      	ldrb	r3, [r7, #16]
 8005c88:	2b00      	cmp	r3, #0
 8005c8a:	d002      	beq.n	8005c92 <stm32__i2c__disable_interrupt+0x36>
 8005c8c:	2b01      	cmp	r3, #1
 8005c8e:	d00b      	beq.n	8005ca8 <stm32__i2c__disable_interrupt+0x4c>
 8005c90:	e015      	b.n	8005cbe <stm32__i2c__disable_interrupt+0x62>
 8005c92:	68fb      	ldr	r3, [r7, #12]
 8005c94:	685b      	ldr	r3, [r3, #4]
 8005c96:	3304      	adds	r3, #4
 8005c98:	681b      	ldr	r3, [r3, #0]
 8005c9a:	f36f 2308 	bfc	r3, #8, #1
 8005c9e:	68fa      	ldr	r2, [r7, #12]
 8005ca0:	6852      	ldr	r2, [r2, #4]
 8005ca2:	3204      	adds	r2, #4
 8005ca4:	6013      	str	r3, [r2, #0]
 8005ca6:	e014      	b.n	8005cd2 <stm32__i2c__disable_interrupt+0x76>
 8005ca8:	68fb      	ldr	r3, [r7, #12]
 8005caa:	685b      	ldr	r3, [r3, #4]
 8005cac:	3304      	adds	r3, #4
 8005cae:	681b      	ldr	r3, [r3, #0]
 8005cb0:	f36f 2349 	bfc	r3, #9, #1
 8005cb4:	68fa      	ldr	r2, [r7, #12]
 8005cb6:	6852      	ldr	r2, [r2, #4]
 8005cb8:	3204      	adds	r2, #4
 8005cba:	6013      	str	r3, [r2, #0]
 8005cbc:	e009      	b.n	8005cd2 <stm32__i2c__disable_interrupt+0x76>
 8005cbe:	68fb      	ldr	r3, [r7, #12]
 8005cc0:	685b      	ldr	r3, [r3, #4]
 8005cc2:	3304      	adds	r3, #4
 8005cc4:	681b      	ldr	r3, [r3, #0]
 8005cc6:	f36f 238a 	bfc	r3, #10, #1
 8005cca:	68fa      	ldr	r2, [r7, #12]
 8005ccc:	6852      	ldr	r2, [r2, #4]
 8005cce:	3204      	adds	r2, #4
 8005cd0:	6013      	str	r3, [r2, #0]
 8005cd2:	bf00      	nop
 8005cd4:	f107 030c 	add.w	r3, r7, #12
 8005cd8:	469c      	mov	ip, r3
 8005cda:	f7ff ffa3 	bl	8005c24 <stm32__i2c__disable_interrupt___postconditions.4924>
 8005cde:	3718      	adds	r7, #24
 8005ce0:	46bd      	mov	sp, r7
 8005ce2:	bd80      	pop	{r7, pc}
 8005ce4:	0800b4f0 	.word	0x0800b4f0

08005ce8 <stm32__i2c__enabled>:
 8005ce8:	b580      	push	{r7, lr}
 8005cea:	b082      	sub	sp, #8
 8005cec:	af00      	add	r7, sp, #0
 8005cee:	6078      	str	r0, [r7, #4]
 8005cf0:	460b      	mov	r3, r1
 8005cf2:	70fb      	strb	r3, [r7, #3]
 8005cf4:	78fb      	ldrb	r3, [r7, #3]
 8005cf6:	2b02      	cmp	r3, #2
 8005cf8:	d904      	bls.n	8005d04 <stm32__i2c__enabled+0x1c>
 8005cfa:	4814      	ldr	r0, [pc, #80]	; (8005d4c <stm32__i2c__enabled+0x64>)
 8005cfc:	f240 41aa 	movw	r1, #1194	; 0x4aa
 8005d00:	f7fb fc3c 	bl	800157c <__gnat_last_chance_handler>
 8005d04:	78fb      	ldrb	r3, [r7, #3]
 8005d06:	2b00      	cmp	r3, #0
 8005d08:	d002      	beq.n	8005d10 <stm32__i2c__enabled+0x28>
 8005d0a:	2b01      	cmp	r3, #1
 8005d0c:	d008      	beq.n	8005d20 <stm32__i2c__enabled+0x38>
 8005d0e:	e00f      	b.n	8005d30 <stm32__i2c__enabled+0x48>
 8005d10:	687b      	ldr	r3, [r7, #4]
 8005d12:	685b      	ldr	r3, [r3, #4]
 8005d14:	3304      	adds	r3, #4
 8005d16:	681b      	ldr	r3, [r3, #0]
 8005d18:	f3c3 2300 	ubfx	r3, r3, #8, #1
 8005d1c:	b2db      	uxtb	r3, r3
 8005d1e:	e00f      	b.n	8005d40 <stm32__i2c__enabled+0x58>
 8005d20:	687b      	ldr	r3, [r7, #4]
 8005d22:	685b      	ldr	r3, [r3, #4]
 8005d24:	3304      	adds	r3, #4
 8005d26:	681b      	ldr	r3, [r3, #0]
 8005d28:	f3c3 2340 	ubfx	r3, r3, #9, #1
 8005d2c:	b2db      	uxtb	r3, r3
 8005d2e:	e007      	b.n	8005d40 <stm32__i2c__enabled+0x58>
 8005d30:	687b      	ldr	r3, [r7, #4]
 8005d32:	685b      	ldr	r3, [r3, #4]
 8005d34:	3304      	adds	r3, #4
 8005d36:	681b      	ldr	r3, [r3, #0]
 8005d38:	f3c3 2380 	ubfx	r3, r3, #10, #1
 8005d3c:	b2db      	uxtb	r3, r3
 8005d3e:	bf00      	nop
 8005d40:	bf00      	nop
 8005d42:	4618      	mov	r0, r3
 8005d44:	3708      	adds	r7, #8
 8005d46:	46bd      	mov	sp, r7
 8005d48:	bd80      	pop	{r7, pc}
 8005d4a:	bf00      	nop
 8005d4c:	0800b4f0 	.word	0x0800b4f0

08005d50 <stm32__gpio__gpio_pinRP>:
 8005d50:	b480      	push	{r7}
 8005d52:	b083      	sub	sp, #12
 8005d54:	af00      	add	r7, sp, #0
 8005d56:	4603      	mov	r3, r0
 8005d58:	460a      	mov	r2, r1
 8005d5a:	80fb      	strh	r3, [r7, #6]
 8005d5c:	4613      	mov	r3, r2
 8005d5e:	717b      	strb	r3, [r7, #5]
 8005d60:	88fb      	ldrh	r3, [r7, #6]
 8005d62:	2b80      	cmp	r3, #128	; 0x80
 8005d64:	d042      	beq.n	8005dec <stm32__gpio__gpio_pinRP+0x9c>
 8005d66:	2b80      	cmp	r3, #128	; 0x80
 8005d68:	d811      	bhi.n	8005d8e <stm32__gpio__gpio_pinRP+0x3e>
 8005d6a:	2b08      	cmp	r3, #8
 8005d6c:	d036      	beq.n	8005ddc <stm32__gpio__gpio_pinRP+0x8c>
 8005d6e:	2b08      	cmp	r3, #8
 8005d70:	d806      	bhi.n	8005d80 <stm32__gpio__gpio_pinRP+0x30>
 8005d72:	2b02      	cmp	r3, #2
 8005d74:	d02e      	beq.n	8005dd4 <stm32__gpio__gpio_pinRP+0x84>
 8005d76:	2b04      	cmp	r3, #4
 8005d78:	d02e      	beq.n	8005dd8 <stm32__gpio__gpio_pinRP+0x88>
 8005d7a:	2b01      	cmp	r3, #1
 8005d7c:	d028      	beq.n	8005dd0 <stm32__gpio__gpio_pinRP+0x80>
 8005d7e:	e047      	b.n	8005e10 <stm32__gpio__gpio_pinRP+0xc0>
 8005d80:	2b20      	cmp	r3, #32
 8005d82:	d02f      	beq.n	8005de4 <stm32__gpio__gpio_pinRP+0x94>
 8005d84:	2b40      	cmp	r3, #64	; 0x40
 8005d86:	d02f      	beq.n	8005de8 <stm32__gpio__gpio_pinRP+0x98>
 8005d88:	2b10      	cmp	r3, #16
 8005d8a:	d029      	beq.n	8005de0 <stm32__gpio__gpio_pinRP+0x90>
 8005d8c:	e040      	b.n	8005e10 <stm32__gpio__gpio_pinRP+0xc0>
 8005d8e:	f5b3 6f00 	cmp.w	r3, #2048	; 0x800
 8005d92:	d033      	beq.n	8005dfc <stm32__gpio__gpio_pinRP+0xac>
 8005d94:	f5b3 6f00 	cmp.w	r3, #2048	; 0x800
 8005d98:	d809      	bhi.n	8005dae <stm32__gpio__gpio_pinRP+0x5e>
 8005d9a:	f5b3 7f00 	cmp.w	r3, #512	; 0x200
 8005d9e:	d029      	beq.n	8005df4 <stm32__gpio__gpio_pinRP+0xa4>
 8005da0:	f5b3 6f80 	cmp.w	r3, #1024	; 0x400
 8005da4:	d028      	beq.n	8005df8 <stm32__gpio__gpio_pinRP+0xa8>
 8005da6:	f5b3 7f80 	cmp.w	r3, #256	; 0x100
 8005daa:	d021      	beq.n	8005df0 <stm32__gpio__gpio_pinRP+0xa0>
 8005dac:	e030      	b.n	8005e10 <stm32__gpio__gpio_pinRP+0xc0>
 8005dae:	f5b3 5f00 	cmp.w	r3, #8192	; 0x2000
 8005db2:	d027      	beq.n	8005e04 <stm32__gpio__gpio_pinRP+0xb4>
 8005db4:	f5b3 5f00 	cmp.w	r3, #8192	; 0x2000
 8005db8:	d803      	bhi.n	8005dc2 <stm32__gpio__gpio_pinRP+0x72>
 8005dba:	f5b3 5f80 	cmp.w	r3, #4096	; 0x1000
 8005dbe:	d01f      	beq.n	8005e00 <stm32__gpio__gpio_pinRP+0xb0>
 8005dc0:	e026      	b.n	8005e10 <stm32__gpio__gpio_pinRP+0xc0>
 8005dc2:	f5b3 4f80 	cmp.w	r3, #16384	; 0x4000
 8005dc6:	d01f      	beq.n	8005e08 <stm32__gpio__gpio_pinRP+0xb8>
 8005dc8:	f5b3 4f00 	cmp.w	r3, #32768	; 0x8000
 8005dcc:	d01e      	beq.n	8005e0c <stm32__gpio__gpio_pinRP+0xbc>
 8005dce:	e01f      	b.n	8005e10 <stm32__gpio__gpio_pinRP+0xc0>
 8005dd0:	2300      	movs	r3, #0
 8005dd2:	e01f      	b.n	8005e14 <stm32__gpio__gpio_pinRP+0xc4>
 8005dd4:	2301      	movs	r3, #1
 8005dd6:	e01d      	b.n	8005e14 <stm32__gpio__gpio_pinRP+0xc4>
 8005dd8:	2302      	movs	r3, #2
 8005dda:	e01b      	b.n	8005e14 <stm32__gpio__gpio_pinRP+0xc4>
 8005ddc:	2303      	movs	r3, #3
 8005dde:	e019      	b.n	8005e14 <stm32__gpio__gpio_pinRP+0xc4>
 8005de0:	2304      	movs	r3, #4
 8005de2:	e017      	b.n	8005e14 <stm32__gpio__gpio_pinRP+0xc4>
 8005de4:	2305      	movs	r3, #5
 8005de6:	e015      	b.n	8005e14 <stm32__gpio__gpio_pinRP+0xc4>
 8005de8:	2306      	movs	r3, #6
 8005dea:	e013      	b.n	8005e14 <stm32__gpio__gpio_pinRP+0xc4>
 8005dec:	2307      	movs	r3, #7
 8005dee:	e011      	b.n	8005e14 <stm32__gpio__gpio_pinRP+0xc4>
 8005df0:	2308      	movs	r3, #8
 8005df2:	e00f      	b.n	8005e14 <stm32__gpio__gpio_pinRP+0xc4>
 8005df4:	2309      	movs	r3, #9
 8005df6:	e00d      	b.n	8005e14 <stm32__gpio__gpio_pinRP+0xc4>
 8005df8:	230a      	movs	r3, #10
 8005dfa:	e00b      	b.n	8005e14 <stm32__gpio__gpio_pinRP+0xc4>
 8005dfc:	230b      	movs	r3, #11
 8005dfe:	e009      	b.n	8005e14 <stm32__gpio__gpio_pinRP+0xc4>
 8005e00:	230c      	movs	r3, #12
 8005e02:	e007      	b.n	8005e14 <stm32__gpio__gpio_pinRP+0xc4>
 8005e04:	230d      	movs	r3, #13
 8005e06:	e005      	b.n	8005e14 <stm32__gpio__gpio_pinRP+0xc4>
 8005e08:	230e      	movs	r3, #14
 8005e0a:	e003      	b.n	8005e14 <stm32__gpio__gpio_pinRP+0xc4>
 8005e0c:	230f      	movs	r3, #15
 8005e0e:	e001      	b.n	8005e14 <stm32__gpio__gpio_pinRP+0xc4>
 8005e10:	f04f 33ff 	mov.w	r3, #4294967295
 8005e14:	4618      	mov	r0, r3
 8005e16:	370c      	adds	r7, #12
 8005e18:	46bd      	mov	sp, r7
 8005e1a:	f85d 7b04 	ldr.w	r7, [sp], #4
 8005e1e:	4770      	bx	lr

08005e20 <stm32__gpio___size__2>:
 8005e20:	b490      	push	{r4, r7}
 8005e22:	b082      	sub	sp, #8
 8005e24:	af00      	add	r7, sp, #0
 8005e26:	6078      	str	r0, [r7, #4]
 8005e28:	f04f 0360 	mov.w	r3, #96	; 0x60
 8005e2c:	f04f 0400 	mov.w	r4, #0
 8005e30:	4618      	mov	r0, r3
 8005e32:	4621      	mov	r1, r4
 8005e34:	3708      	adds	r7, #8
 8005e36:	46bd      	mov	sp, r7
 8005e38:	bc90      	pop	{r4, r7}
 8005e3a:	4770      	bx	lr

08005e3c <stm32__gpio__Oeq>:
 8005e3c:	b480      	push	{r7}
 8005e3e:	b083      	sub	sp, #12
 8005e40:	af00      	add	r7, sp, #0
 8005e42:	6078      	str	r0, [r7, #4]
 8005e44:	6039      	str	r1, [r7, #0]
 8005e46:	687b      	ldr	r3, [r7, #4]
 8005e48:	685a      	ldr	r2, [r3, #4]
 8005e4a:	683b      	ldr	r3, [r7, #0]
 8005e4c:	685b      	ldr	r3, [r3, #4]
 8005e4e:	429a      	cmp	r2, r3
 8005e50:	d107      	bne.n	8005e62 <stm32__gpio__Oeq+0x26>
 8005e52:	687b      	ldr	r3, [r7, #4]
 8005e54:	891a      	ldrh	r2, [r3, #8]
 8005e56:	683b      	ldr	r3, [r7, #0]
 8005e58:	891b      	ldrh	r3, [r3, #8]
 8005e5a:	429a      	cmp	r2, r3
 8005e5c:	d101      	bne.n	8005e62 <stm32__gpio__Oeq+0x26>
 8005e5e:	2301      	movs	r3, #1
 8005e60:	e000      	b.n	8005e64 <stm32__gpio__Oeq+0x28>
 8005e62:	2300      	movs	r3, #0
 8005e64:	4618      	mov	r0, r3
 8005e66:	370c      	adds	r7, #12
 8005e68:	46bd      	mov	sp, r7
 8005e6a:	f85d 7b04 	ldr.w	r7, [sp], #4
 8005e6e:	4770      	bx	lr

08005e70 <stm32__gpio___assign>:
 8005e70:	b490      	push	{r4, r7}
 8005e72:	b082      	sub	sp, #8
 8005e74:	af00      	add	r7, sp, #0
 8005e76:	6078      	str	r0, [r7, #4]
 8005e78:	6039      	str	r1, [r7, #0]
 8005e7a:	687b      	ldr	r3, [r7, #4]
 8005e7c:	681c      	ldr	r4, [r3, #0]
 8005e7e:	687b      	ldr	r3, [r7, #4]
 8005e80:	683a      	ldr	r2, [r7, #0]
 8005e82:	ca07      	ldmia	r2, {r0, r1, r2}
 8005e84:	e883 0007 	stmia.w	r3, {r0, r1, r2}
 8005e88:	687b      	ldr	r3, [r7, #4]
 8005e8a:	601c      	str	r4, [r3, #0]
 8005e8c:	3708      	adds	r7, #8
 8005e8e:	46bd      	mov	sp, r7
 8005e90:	bc90      	pop	{r4, r7}
 8005e92:	4770      	bx	lr

08005e94 <stm32__gpio__mode>:
 8005e94:	b580      	push	{r7, lr}
 8005e96:	b086      	sub	sp, #24
 8005e98:	af00      	add	r7, sp, #0
 8005e9a:	6078      	str	r0, [r7, #4]
 8005e9c:	687b      	ldr	r3, [r7, #4]
 8005e9e:	891b      	ldrh	r3, [r3, #8]
 8005ea0:	4618      	mov	r0, r3
 8005ea2:	2101      	movs	r1, #1
 8005ea4:	f7ff ff54 	bl	8005d50 <stm32__gpio__gpio_pinRP>
 8005ea8:	4603      	mov	r3, r0
 8005eaa:	2b00      	cmp	r3, #0
 8005eac:	db01      	blt.n	8005eb2 <stm32__gpio__mode+0x1e>
 8005eae:	2b0f      	cmp	r3, #15
 8005eb0:	dd03      	ble.n	8005eba <stm32__gpio__mode+0x26>
 8005eb2:	482d      	ldr	r0, [pc, #180]	; (8005f68 <stm32__gpio__mode+0xd4>)
 8005eb4:	215d      	movs	r1, #93	; 0x5d
 8005eb6:	f7fb fb61 	bl	800157c <__gnat_last_chance_handler>
 8005eba:	687b      	ldr	r3, [r7, #4]
 8005ebc:	891b      	ldrh	r3, [r3, #8]
 8005ebe:	4618      	mov	r0, r3
 8005ec0:	2101      	movs	r1, #1
 8005ec2:	f7ff ff45 	bl	8005d50 <stm32__gpio__gpio_pinRP>
 8005ec6:	4603      	mov	r3, r0
 8005ec8:	613b      	str	r3, [r7, #16]
 8005eca:	230c      	movs	r3, #12
 8005ecc:	73fb      	strb	r3, [r7, #15]
 8005ece:	2303      	movs	r3, #3
 8005ed0:	73bb      	strb	r3, [r7, #14]
 8005ed2:	693b      	ldr	r3, [r7, #16]
 8005ed4:	2b07      	cmp	r3, #7
 8005ed6:	dc1b      	bgt.n	8005f10 <stm32__gpio__mode+0x7c>
 8005ed8:	687b      	ldr	r3, [r7, #4]
 8005eda:	685b      	ldr	r3, [r3, #4]
 8005edc:	2b00      	cmp	r3, #0
 8005ede:	d103      	bne.n	8005ee8 <stm32__gpio__mode+0x54>
 8005ee0:	4821      	ldr	r0, [pc, #132]	; (8005f68 <stm32__gpio__mode+0xd4>)
 8005ee2:	2164      	movs	r1, #100	; 0x64
 8005ee4:	f7fb fb4a 	bl	800157c <__gnat_last_chance_handler>
 8005ee8:	693b      	ldr	r3, [r7, #16]
 8005eea:	2b07      	cmp	r3, #7
 8005eec:	dd03      	ble.n	8005ef6 <stm32__gpio__mode+0x62>
 8005eee:	481e      	ldr	r0, [pc, #120]	; (8005f68 <stm32__gpio__mode+0xd4>)
 8005ef0:	2164      	movs	r1, #100	; 0x64
 8005ef2:	f7fb fb43 	bl	800157c <__gnat_last_chance_handler>
 8005ef6:	687b      	ldr	r3, [r7, #4]
 8005ef8:	685b      	ldr	r3, [r3, #4]
 8005efa:	681b      	ldr	r3, [r3, #0]
 8005efc:	461a      	mov	r2, r3
 8005efe:	693b      	ldr	r3, [r7, #16]
 8005f00:	009b      	lsls	r3, r3, #2
 8005f02:	fa22 f303 	lsr.w	r3, r2, r3
 8005f06:	b2db      	uxtb	r3, r3
 8005f08:	f003 030f 	and.w	r3, r3, #15
 8005f0c:	75fb      	strb	r3, [r7, #23]
 8005f0e:	e01c      	b.n	8005f4a <stm32__gpio__mode+0xb6>
 8005f10:	687b      	ldr	r3, [r7, #4]
 8005f12:	685b      	ldr	r3, [r3, #4]
 8005f14:	2b00      	cmp	r3, #0
 8005f16:	d103      	bne.n	8005f20 <stm32__gpio__mode+0x8c>
 8005f18:	4813      	ldr	r0, [pc, #76]	; (8005f68 <stm32__gpio__mode+0xd4>)
 8005f1a:	2166      	movs	r1, #102	; 0x66
 8005f1c:	f7fb fb2e 	bl	800157c <__gnat_last_chance_handler>
 8005f20:	693b      	ldr	r3, [r7, #16]
 8005f22:	2b07      	cmp	r3, #7
 8005f24:	dc03      	bgt.n	8005f2e <stm32__gpio__mode+0x9a>
 8005f26:	4810      	ldr	r0, [pc, #64]	; (8005f68 <stm32__gpio__mode+0xd4>)
 8005f28:	2166      	movs	r1, #102	; 0x66
 8005f2a:	f7fb fb27 	bl	800157c <__gnat_last_chance_handler>
 8005f2e:	687b      	ldr	r3, [r7, #4]
 8005f30:	685b      	ldr	r3, [r3, #4]
 8005f32:	3304      	adds	r3, #4
 8005f34:	681b      	ldr	r3, [r3, #0]
 8005f36:	461a      	mov	r2, r3
 8005f38:	693b      	ldr	r3, [r7, #16]
 8005f3a:	3b08      	subs	r3, #8
 8005f3c:	009b      	lsls	r3, r3, #2
 8005f3e:	fa22 f303 	lsr.w	r3, r2, r3
 8005f42:	b2db      	uxtb	r3, r3
 8005f44:	f003 030f 	and.w	r3, r3, #15
 8005f48:	75fb      	strb	r3, [r7, #23]
 8005f4a:	7dfb      	ldrb	r3, [r7, #23]
 8005f4c:	f003 0303 	and.w	r3, r3, #3
 8005f50:	737b      	strb	r3, [r7, #13]
 8005f52:	7b7b      	ldrb	r3, [r7, #13]
 8005f54:	2b00      	cmp	r3, #0
 8005f56:	d101      	bne.n	8005f5c <stm32__gpio__mode+0xc8>
 8005f58:	2301      	movs	r3, #1
 8005f5a:	e000      	b.n	8005f5e <stm32__gpio__mode+0xca>
 8005f5c:	2302      	movs	r3, #2
 8005f5e:	bf00      	nop
 8005f60:	4618      	mov	r0, r3
 8005f62:	3718      	adds	r7, #24
 8005f64:	46bd      	mov	sp, r7
 8005f66:	bd80      	pop	{r7, pc}
 8005f68:	0800b65c 	.word	0x0800b65c

08005f6c <stm32__gpio__set_mode>:
 8005f6c:	b580      	push	{r7, lr}
 8005f6e:	b086      	sub	sp, #24
 8005f70:	af00      	add	r7, sp, #0
 8005f72:	6078      	str	r0, [r7, #4]
 8005f74:	460b      	mov	r3, r1
 8005f76:	70fb      	strb	r3, [r7, #3]
 8005f78:	687b      	ldr	r3, [r7, #4]
 8005f7a:	891b      	ldrh	r3, [r3, #8]
 8005f7c:	4618      	mov	r0, r3
 8005f7e:	2101      	movs	r1, #1
 8005f80:	f7ff fee6 	bl	8005d50 <stm32__gpio__gpio_pinRP>
 8005f84:	4603      	mov	r3, r0
 8005f86:	2b00      	cmp	r3, #0
 8005f88:	db01      	blt.n	8005f8e <stm32__gpio__set_mode+0x22>
 8005f8a:	2b0f      	cmp	r3, #15
 8005f8c:	dd03      	ble.n	8005f96 <stm32__gpio__set_mode+0x2a>
 8005f8e:	483e      	ldr	r0, [pc, #248]	; (8006088 <stm32__gpio__set_mode+0x11c>)
 8005f90:	217a      	movs	r1, #122	; 0x7a
 8005f92:	f7fb faf3 	bl	800157c <__gnat_last_chance_handler>
 8005f96:	613b      	str	r3, [r7, #16]
 8005f98:	78fb      	ldrb	r3, [r7, #3]
 8005f9a:	2b00      	cmp	r3, #0
 8005f9c:	d002      	beq.n	8005fa4 <stm32__gpio__set_mode+0x38>
 8005f9e:	78fb      	ldrb	r3, [r7, #3]
 8005fa0:	2b02      	cmp	r3, #2
 8005fa2:	d903      	bls.n	8005fac <stm32__gpio__set_mode+0x40>
 8005fa4:	4838      	ldr	r0, [pc, #224]	; (8006088 <stm32__gpio__set_mode+0x11c>)
 8005fa6:	2180      	movs	r1, #128	; 0x80
 8005fa8:	f7fb fae8 	bl	800157c <__gnat_last_chance_handler>
 8005fac:	78fb      	ldrb	r3, [r7, #3]
 8005fae:	2b02      	cmp	r3, #2
 8005fb0:	d108      	bne.n	8005fc4 <stm32__gpio__set_mode+0x58>
 8005fb2:	2300      	movs	r3, #0
 8005fb4:	73fb      	strb	r3, [r7, #15]
 8005fb6:	2302      	movs	r3, #2
 8005fb8:	73bb      	strb	r3, [r7, #14]
 8005fba:	7bfa      	ldrb	r2, [r7, #15]
 8005fbc:	7bbb      	ldrb	r3, [r7, #14]
 8005fbe:	4313      	orrs	r3, r2
 8005fc0:	75fb      	strb	r3, [r7, #23]
 8005fc2:	e007      	b.n	8005fd4 <stm32__gpio__set_mode+0x68>
 8005fc4:	2308      	movs	r3, #8
 8005fc6:	737b      	strb	r3, [r7, #13]
 8005fc8:	2300      	movs	r3, #0
 8005fca:	73bb      	strb	r3, [r7, #14]
 8005fcc:	7b7a      	ldrb	r2, [r7, #13]
 8005fce:	7bbb      	ldrb	r3, [r7, #14]
 8005fd0:	4313      	orrs	r3, r2
 8005fd2:	75fb      	strb	r3, [r7, #23]
 8005fd4:	693b      	ldr	r3, [r7, #16]
 8005fd6:	2b07      	cmp	r3, #7
 8005fd8:	dc28      	bgt.n	800602c <stm32__gpio__set_mode+0xc0>
 8005fda:	687b      	ldr	r3, [r7, #4]
 8005fdc:	685b      	ldr	r3, [r3, #4]
 8005fde:	2b00      	cmp	r3, #0
 8005fe0:	d103      	bne.n	8005fea <stm32__gpio__set_mode+0x7e>
 8005fe2:	4829      	ldr	r0, [pc, #164]	; (8006088 <stm32__gpio__set_mode+0x11c>)
 8005fe4:	218c      	movs	r1, #140	; 0x8c
 8005fe6:	f7fb fac9 	bl	800157c <__gnat_last_chance_handler>
 8005fea:	687b      	ldr	r3, [r7, #4]
 8005fec:	6858      	ldr	r0, [r3, #4]
 8005fee:	693b      	ldr	r3, [r7, #16]
 8005ff0:	2b07      	cmp	r3, #7
 8005ff2:	dd03      	ble.n	8005ffc <stm32__gpio__set_mode+0x90>
 8005ff4:	4824      	ldr	r0, [pc, #144]	; (8006088 <stm32__gpio__set_mode+0x11c>)
 8005ff6:	218c      	movs	r1, #140	; 0x8c
 8005ff8:	f7fb fac0 	bl	800157c <__gnat_last_chance_handler>
 8005ffc:	4603      	mov	r3, r0
 8005ffe:	681b      	ldr	r3, [r3, #0]
 8006000:	461a      	mov	r2, r3
 8006002:	4603      	mov	r3, r0
 8006004:	681b      	ldr	r3, [r3, #0]
 8006006:	4619      	mov	r1, r3
 8006008:	693b      	ldr	r3, [r7, #16]
 800600a:	009b      	lsls	r3, r3, #2
 800600c:	220f      	movs	r2, #15
 800600e:	fa02 f303 	lsl.w	r3, r2, r3
 8006012:	43db      	mvns	r3, r3
 8006014:	ea01 0203 	and.w	r2, r1, r3
 8006018:	7df9      	ldrb	r1, [r7, #23]
 800601a:	693b      	ldr	r3, [r7, #16]
 800601c:	009b      	lsls	r3, r3, #2
 800601e:	fa01 f303 	lsl.w	r3, r1, r3
 8006022:	4313      	orrs	r3, r2
 8006024:	461a      	mov	r2, r3
 8006026:	4603      	mov	r3, r0
 8006028:	601a      	str	r2, [r3, #0]
 800602a:	e027      	b.n	800607c <stm32__gpio__set_mode+0x110>
 800602c:	687b      	ldr	r3, [r7, #4]
 800602e:	685b      	ldr	r3, [r3, #4]
 8006030:	2b00      	cmp	r3, #0
 8006032:	d103      	bne.n	800603c <stm32__gpio__set_mode+0xd0>
 8006034:	4814      	ldr	r0, [pc, #80]	; (8006088 <stm32__gpio__set_mode+0x11c>)
 8006036:	218e      	movs	r1, #142	; 0x8e
 8006038:	f7fb faa0 	bl	800157c <__gnat_last_chance_handler>
 800603c:	687b      	ldr	r3, [r7, #4]
 800603e:	685b      	ldr	r3, [r3, #4]
 8006040:	693a      	ldr	r2, [r7, #16]
 8006042:	2a07      	cmp	r2, #7
 8006044:	dc03      	bgt.n	800604e <stm32__gpio__set_mode+0xe2>
 8006046:	4810      	ldr	r0, [pc, #64]	; (8006088 <stm32__gpio__set_mode+0x11c>)
 8006048:	218e      	movs	r1, #142	; 0x8e
 800604a:	f7fb fa97 	bl	800157c <__gnat_last_chance_handler>
 800604e:	1d1a      	adds	r2, r3, #4
 8006050:	6812      	ldr	r2, [r2, #0]
 8006052:	1d1a      	adds	r2, r3, #4
 8006054:	6812      	ldr	r2, [r2, #0]
 8006056:	4610      	mov	r0, r2
 8006058:	693a      	ldr	r2, [r7, #16]
 800605a:	3a08      	subs	r2, #8
 800605c:	0092      	lsls	r2, r2, #2
 800605e:	210f      	movs	r1, #15
 8006060:	fa01 f202 	lsl.w	r2, r1, r2
 8006064:	43d2      	mvns	r2, r2
 8006066:	ea00 0102 	and.w	r1, r0, r2
 800606a:	7df8      	ldrb	r0, [r7, #23]
 800606c:	693a      	ldr	r2, [r7, #16]
 800606e:	3a08      	subs	r2, #8
 8006070:	0092      	lsls	r2, r2, #2
 8006072:	fa00 f202 	lsl.w	r2, r0, r2
 8006076:	430a      	orrs	r2, r1
 8006078:	3304      	adds	r3, #4
 800607a:	601a      	str	r2, [r3, #0]
 800607c:	2301      	movs	r3, #1
 800607e:	bf00      	nop
 8006080:	4618      	mov	r0, r3
 8006082:	3718      	adds	r7, #24
 8006084:	46bd      	mov	sp, r7
 8006086:	bd80      	pop	{r7, pc}
 8006088:	0800b65c 	.word	0x0800b65c

0800608c <stm32__gpio__pull_resistor>:
 800608c:	b580      	push	{r7, lr}
 800608e:	b084      	sub	sp, #16
 8006090:	af00      	add	r7, sp, #0
 8006092:	6078      	str	r0, [r7, #4]
 8006094:	687b      	ldr	r3, [r7, #4]
 8006096:	891b      	ldrh	r3, [r3, #8]
 8006098:	4618      	mov	r0, r3
 800609a:	2101      	movs	r1, #1
 800609c:	f7ff fe58 	bl	8005d50 <stm32__gpio__gpio_pinRP>
 80060a0:	4603      	mov	r3, r0
 80060a2:	2b00      	cmp	r3, #0
 80060a4:	db01      	blt.n	80060aa <stm32__gpio__pull_resistor+0x1e>
 80060a6:	2b0f      	cmp	r3, #15
 80060a8:	dd03      	ble.n	80060b2 <stm32__gpio__pull_resistor+0x26>
 80060aa:	4809      	ldr	r0, [pc, #36]	; (80060d0 <stm32__gpio__pull_resistor+0x44>)
 80060ac:	219c      	movs	r1, #156	; 0x9c
 80060ae:	f7fb fa65 	bl	800157c <__gnat_last_chance_handler>
 80060b2:	687b      	ldr	r3, [r7, #4]
 80060b4:	891b      	ldrh	r3, [r3, #8]
 80060b6:	4618      	mov	r0, r3
 80060b8:	2101      	movs	r1, #1
 80060ba:	f7ff fe49 	bl	8005d50 <stm32__gpio__gpio_pinRP>
 80060be:	4603      	mov	r3, r0
 80060c0:	60fb      	str	r3, [r7, #12]
 80060c2:	2300      	movs	r3, #0
 80060c4:	bf00      	nop
 80060c6:	4618      	mov	r0, r3
 80060c8:	3710      	adds	r7, #16
 80060ca:	46bd      	mov	sp, r7
 80060cc:	bd80      	pop	{r7, pc}
 80060ce:	bf00      	nop
 80060d0:	0800b65c 	.word	0x0800b65c

080060d4 <stm32__gpio__set_pull_resistor>:
 80060d4:	b580      	push	{r7, lr}
 80060d6:	b084      	sub	sp, #16
 80060d8:	af00      	add	r7, sp, #0
 80060da:	6078      	str	r0, [r7, #4]
 80060dc:	460b      	mov	r3, r1
 80060de:	70fb      	strb	r3, [r7, #3]
 80060e0:	687b      	ldr	r3, [r7, #4]
 80060e2:	891b      	ldrh	r3, [r3, #8]
 80060e4:	4618      	mov	r0, r3
 80060e6:	2101      	movs	r1, #1
 80060e8:	f7ff fe32 	bl	8005d50 <stm32__gpio__gpio_pinRP>
 80060ec:	4603      	mov	r3, r0
 80060ee:	2b00      	cmp	r3, #0
 80060f0:	db01      	blt.n	80060f6 <stm32__gpio__set_pull_resistor+0x22>
 80060f2:	2b0f      	cmp	r3, #15
 80060f4:	dd03      	ble.n	80060fe <stm32__gpio__set_pull_resistor+0x2a>
 80060f6:	4805      	ldr	r0, [pc, #20]	; (800610c <stm32__gpio__set_pull_resistor+0x38>)
 80060f8:	21b2      	movs	r1, #178	; 0xb2
 80060fa:	f7fb fa3f 	bl	800157c <__gnat_last_chance_handler>
 80060fe:	60fb      	str	r3, [r7, #12]
 8006100:	2301      	movs	r3, #1
 8006102:	bf00      	nop
 8006104:	4618      	mov	r0, r3
 8006106:	3710      	adds	r7, #16
 8006108:	46bd      	mov	sp, r7
 800610a:	bd80      	pop	{r7, pc}
 800610c:	0800b65c 	.word	0x0800b65c

08006110 <stm32__gpio__set>:
 8006110:	b580      	push	{r7, lr}
 8006112:	b084      	sub	sp, #16
 8006114:	af00      	add	r7, sp, #0
 8006116:	6078      	str	r0, [r7, #4]
 8006118:	687b      	ldr	r3, [r7, #4]
 800611a:	891b      	ldrh	r3, [r3, #8]
 800611c:	81fb      	strh	r3, [r7, #14]
 800611e:	687b      	ldr	r3, [r7, #4]
 8006120:	685b      	ldr	r3, [r3, #4]
 8006122:	2b00      	cmp	r3, #0
 8006124:	d103      	bne.n	800612e <stm32__gpio__set+0x1e>
 8006126:	480b      	ldr	r0, [pc, #44]	; (8006154 <stm32__gpio__set+0x44>)
 8006128:	21c7      	movs	r1, #199	; 0xc7
 800612a:	f7fb fa27 	bl	800157c <__gnat_last_chance_handler>
 800612e:	687b      	ldr	r3, [r7, #4]
 8006130:	685b      	ldr	r3, [r3, #4]
 8006132:	3308      	adds	r3, #8
 8006134:	681b      	ldr	r3, [r3, #0]
 8006136:	b29a      	uxth	r2, r3
 8006138:	89fb      	ldrh	r3, [r7, #14]
 800613a:	4013      	ands	r3, r2
 800613c:	b29b      	uxth	r3, r3
 800613e:	89fa      	ldrh	r2, [r7, #14]
 8006140:	429a      	cmp	r2, r3
 8006142:	bf0c      	ite	eq
 8006144:	2301      	moveq	r3, #1
 8006146:	2300      	movne	r3, #0
 8006148:	b2db      	uxtb	r3, r3
 800614a:	bf00      	nop
 800614c:	4618      	mov	r0, r3
 800614e:	3710      	adds	r7, #16
 8006150:	46bd      	mov	sp, r7
 8006152:	bd80      	pop	{r7, pc}
 8006154:	0800b65c 	.word	0x0800b65c

08006158 <stm32__gpio__set__2>:
 8006158:	b5b0      	push	{r4, r5, r7, lr}
 800615a:	b082      	sub	sp, #8
 800615c:	af00      	add	r7, sp, #0
 800615e:	6078      	str	r0, [r7, #4]
 8006160:	6878      	ldr	r0, [r7, #4]
 8006162:	f7ff fe97 	bl	8005e94 <stm32__gpio__mode>
 8006166:	4603      	mov	r3, r0
 8006168:	2b02      	cmp	r3, #2
 800616a:	d005      	beq.n	8006178 <stm32__gpio__set__2+0x20>
 800616c:	4c0e      	ldr	r4, [pc, #56]	; (80061a8 <stm32__gpio__set__2+0x50>)
 800616e:	4d0f      	ldr	r5, [pc, #60]	; (80061ac <stm32__gpio__set__2+0x54>)
 8006170:	4620      	mov	r0, r4
 8006172:	4629      	mov	r1, r5
 8006174:	f003 fd84 	bl	8009c80 <system__assertions__raise_assert_failure>
 8006178:	687b      	ldr	r3, [r7, #4]
 800617a:	685b      	ldr	r3, [r3, #4]
 800617c:	2b00      	cmp	r3, #0
 800617e:	d103      	bne.n	8006188 <stm32__gpio__set__2+0x30>
 8006180:	480b      	ldr	r0, [pc, #44]	; (80061b0 <stm32__gpio__set__2+0x58>)
 8006182:	21e0      	movs	r1, #224	; 0xe0
 8006184:	f7fb f9fa 	bl	800157c <__gnat_last_chance_handler>
 8006188:	687b      	ldr	r3, [r7, #4]
 800618a:	685b      	ldr	r3, [r3, #4]
 800618c:	3310      	adds	r3, #16
 800618e:	681b      	ldr	r3, [r3, #0]
 8006190:	687a      	ldr	r2, [r7, #4]
 8006192:	8912      	ldrh	r2, [r2, #8]
 8006194:	f362 030f 	bfi	r3, r2, #0, #16
 8006198:	687a      	ldr	r2, [r7, #4]
 800619a:	6852      	ldr	r2, [r2, #4]
 800619c:	3210      	adds	r2, #16
 800619e:	6013      	str	r3, [r2, #0]
 80061a0:	3708      	adds	r7, #8
 80061a2:	46bd      	mov	sp, r7
 80061a4:	bdb0      	pop	{r4, r5, r7, pc}
 80061a6:	bf00      	nop
 80061a8:	0800b66c 	.word	0x0800b66c
 80061ac:	0800b6a0 	.word	0x0800b6a0
 80061b0:	0800b65c 	.word	0x0800b65c

080061b4 <stm32__gpio__clear>:
 80061b4:	b5b0      	push	{r4, r5, r7, lr}
 80061b6:	b082      	sub	sp, #8
 80061b8:	af00      	add	r7, sp, #0
 80061ba:	6078      	str	r0, [r7, #4]
 80061bc:	6878      	ldr	r0, [r7, #4]
 80061be:	f7ff fe69 	bl	8005e94 <stm32__gpio__mode>
 80061c2:	4603      	mov	r3, r0
 80061c4:	2b02      	cmp	r3, #2
 80061c6:	d005      	beq.n	80061d4 <stm32__gpio__clear+0x20>
 80061c8:	4c0e      	ldr	r4, [pc, #56]	; (8006204 <stm32__gpio__clear+0x50>)
 80061ca:	4d0f      	ldr	r5, [pc, #60]	; (8006208 <stm32__gpio__clear+0x54>)
 80061cc:	4620      	mov	r0, r4
 80061ce:	4629      	mov	r1, r5
 80061d0:	f003 fd56 	bl	8009c80 <system__assertions__raise_assert_failure>
 80061d4:	687b      	ldr	r3, [r7, #4]
 80061d6:	685b      	ldr	r3, [r3, #4]
 80061d8:	2b00      	cmp	r3, #0
 80061da:	d103      	bne.n	80061e4 <stm32__gpio__clear+0x30>
 80061dc:	480b      	ldr	r0, [pc, #44]	; (800620c <stm32__gpio__clear+0x58>)
 80061de:	21f7      	movs	r1, #247	; 0xf7
 80061e0:	f7fb f9cc 	bl	800157c <__gnat_last_chance_handler>
 80061e4:	687b      	ldr	r3, [r7, #4]
 80061e6:	685b      	ldr	r3, [r3, #4]
 80061e8:	3310      	adds	r3, #16
 80061ea:	681b      	ldr	r3, [r3, #0]
 80061ec:	687a      	ldr	r2, [r7, #4]
 80061ee:	8912      	ldrh	r2, [r2, #8]
 80061f0:	f362 431f 	bfi	r3, r2, #16, #16
 80061f4:	687a      	ldr	r2, [r7, #4]
 80061f6:	6852      	ldr	r2, [r2, #4]
 80061f8:	3210      	adds	r2, #16
 80061fa:	6013      	str	r3, [r2, #0]
 80061fc:	3708      	adds	r7, #8
 80061fe:	46bd      	mov	sp, r7
 8006200:	bdb0      	pop	{r4, r5, r7, pc}
 8006202:	bf00      	nop
 8006204:	0800b6a8 	.word	0x0800b6a8
 8006208:	0800b6a0 	.word	0x0800b6a0
 800620c:	0800b65c 	.word	0x0800b65c

08006210 <stm32__gpio__toggle>:
 8006210:	b5b0      	push	{r4, r5, r7, lr}
 8006212:	b082      	sub	sp, #8
 8006214:	af00      	add	r7, sp, #0
 8006216:	6078      	str	r0, [r7, #4]
 8006218:	6878      	ldr	r0, [r7, #4]
 800621a:	f7ff fe3b 	bl	8005e94 <stm32__gpio__mode>
 800621e:	4603      	mov	r3, r0
 8006220:	2b02      	cmp	r3, #2
 8006222:	d005      	beq.n	8006230 <stm32__gpio__toggle+0x20>
 8006224:	4c16      	ldr	r4, [pc, #88]	; (8006280 <stm32__gpio__toggle+0x70>)
 8006226:	4d17      	ldr	r5, [pc, #92]	; (8006284 <stm32__gpio__toggle+0x74>)
 8006228:	4620      	mov	r0, r4
 800622a:	4629      	mov	r1, r5
 800622c:	f003 fd28 	bl	8009c80 <system__assertions__raise_assert_failure>
 8006230:	687b      	ldr	r3, [r7, #4]
 8006232:	685b      	ldr	r3, [r3, #4]
 8006234:	2b00      	cmp	r3, #0
 8006236:	d104      	bne.n	8006242 <stm32__gpio__toggle+0x32>
 8006238:	4813      	ldr	r0, [pc, #76]	; (8006288 <stm32__gpio__toggle+0x78>)
 800623a:	f44f 7187 	mov.w	r1, #270	; 0x10e
 800623e:	f7fb f99d 	bl	800157c <__gnat_last_chance_handler>
 8006242:	687b      	ldr	r3, [r7, #4]
 8006244:	685b      	ldr	r3, [r3, #4]
 8006246:	2b00      	cmp	r3, #0
 8006248:	d104      	bne.n	8006254 <stm32__gpio__toggle+0x44>
 800624a:	480f      	ldr	r0, [pc, #60]	; (8006288 <stm32__gpio__toggle+0x78>)
 800624c:	f44f 7187 	mov.w	r1, #270	; 0x10e
 8006250:	f7fb f994 	bl	800157c <__gnat_last_chance_handler>
 8006254:	687b      	ldr	r3, [r7, #4]
 8006256:	685b      	ldr	r3, [r3, #4]
 8006258:	330c      	adds	r3, #12
 800625a:	681b      	ldr	r3, [r3, #0]
 800625c:	687a      	ldr	r2, [r7, #4]
 800625e:	6852      	ldr	r2, [r2, #4]
 8006260:	320c      	adds	r2, #12
 8006262:	6812      	ldr	r2, [r2, #0]
 8006264:	b291      	uxth	r1, r2
 8006266:	687a      	ldr	r2, [r7, #4]
 8006268:	8912      	ldrh	r2, [r2, #8]
 800626a:	404a      	eors	r2, r1
 800626c:	b292      	uxth	r2, r2
 800626e:	f362 030f 	bfi	r3, r2, #0, #16
 8006272:	687a      	ldr	r2, [r7, #4]
 8006274:	6852      	ldr	r2, [r2, #4]
 8006276:	320c      	adds	r2, #12
 8006278:	6013      	str	r3, [r2, #0]
 800627a:	3708      	adds	r7, #8
 800627c:	46bd      	mov	sp, r7
 800627e:	bdb0      	pop	{r4, r5, r7, pc}
 8006280:	0800b6dc 	.word	0x0800b6dc
 8006284:	0800b6a0 	.word	0x0800b6a0
 8006288:	0800b65c 	.word	0x0800b65c

0800628c <stm32__gpio__locked>:
 800628c:	b480      	push	{r7}
 800628e:	b085      	sub	sp, #20
 8006290:	af00      	add	r7, sp, #0
 8006292:	6078      	str	r0, [r7, #4]
 8006294:	687b      	ldr	r3, [r7, #4]
 8006296:	891b      	ldrh	r3, [r3, #8]
 8006298:	81fb      	strh	r3, [r7, #14]
 800629a:	2301      	movs	r3, #1
 800629c:	bf00      	nop
 800629e:	4618      	mov	r0, r3
 80062a0:	3714      	adds	r7, #20
 80062a2:	46bd      	mov	sp, r7
 80062a4:	f85d 7b04 	ldr.w	r7, [sp], #4
 80062a8:	4770      	bx	lr
 80062aa:	bf00      	nop

080062ac <stm32__gpio__lock_the_pin>:
 80062ac:	b480      	push	{r7}
 80062ae:	b085      	sub	sp, #20
 80062b0:	af00      	add	r7, sp, #0
 80062b2:	6078      	str	r0, [r7, #4]
 80062b4:	460b      	mov	r3, r1
 80062b6:	807b      	strh	r3, [r7, #2]
 80062b8:	6879      	ldr	r1, [r7, #4]
 80062ba:	8878      	ldrh	r0, [r7, #2]
 80062bc:	f440 3380 	orr.w	r3, r0, #65536	; 0x10000
 80062c0:	60fb      	str	r3, [r7, #12]
 80062c2:	68fb      	ldr	r3, [r7, #12]
 80062c4:	61cb      	str	r3, [r1, #28]
 80062c6:	61c8      	str	r0, [r1, #28]
 80062c8:	68fb      	ldr	r3, [r7, #12]
 80062ca:	61cb      	str	r3, [r1, #28]
 80062cc:	69cb      	ldr	r3, [r1, #28]
 80062ce:	60fb      	str	r3, [r7, #12]
 80062d0:	69cb      	ldr	r3, [r1, #28]
 80062d2:	60fb      	str	r3, [r7, #12]
 80062d4:	3714      	adds	r7, #20
 80062d6:	46bd      	mov	sp, r7
 80062d8:	f85d 7b04 	ldr.w	r7, [sp], #4
 80062dc:	4770      	bx	lr
 80062de:	bf00      	nop

080062e0 <stm32__gpio__lock___postconditions.5255>:
 80062e0:	b5b0      	push	{r4, r5, r7, lr}
 80062e2:	b082      	sub	sp, #8
 80062e4:	af00      	add	r7, sp, #0
 80062e6:	4663      	mov	r3, ip
 80062e8:	f8c7 c004 	str.w	ip, [r7, #4]
 80062ec:	681b      	ldr	r3, [r3, #0]
 80062ee:	4618      	mov	r0, r3
 80062f0:	f7ff ffcc 	bl	800628c <stm32__gpio__locked>
 80062f4:	4603      	mov	r3, r0
 80062f6:	f083 0301 	eor.w	r3, r3, #1
 80062fa:	b2db      	uxtb	r3, r3
 80062fc:	2b00      	cmp	r3, #0
 80062fe:	d005      	beq.n	800630c <stm32__gpio__lock___postconditions.5255+0x2c>
 8006300:	4c04      	ldr	r4, [pc, #16]	; (8006314 <stm32__gpio__lock___postconditions.5255+0x34>)
 8006302:	4d05      	ldr	r5, [pc, #20]	; (8006318 <stm32__gpio__lock___postconditions.5255+0x38>)
 8006304:	4620      	mov	r0, r4
 8006306:	4629      	mov	r1, r5
 8006308:	f003 fcba 	bl	8009c80 <system__assertions__raise_assert_failure>
 800630c:	3708      	adds	r7, #8
 800630e:	46bd      	mov	sp, r7
 8006310:	bdb0      	pop	{r4, r5, r7, pc}
 8006312:	bf00      	nop
 8006314:	0800b710 	.word	0x0800b710
 8006318:	0800b73c 	.word	0x0800b73c

0800631c <stm32__gpio__lock>:
 800631c:	b5b0      	push	{r4, r5, r7, lr}
 800631e:	b084      	sub	sp, #16
 8006320:	af00      	add	r7, sp, #0
 8006322:	6078      	str	r0, [r7, #4]
 8006324:	f107 0320 	add.w	r3, r7, #32
 8006328:	60fb      	str	r3, [r7, #12]
 800632a:	687b      	ldr	r3, [r7, #4]
 800632c:	60bb      	str	r3, [r7, #8]
 800632e:	68bb      	ldr	r3, [r7, #8]
 8006330:	4618      	mov	r0, r3
 8006332:	f7ff ffab 	bl	800628c <stm32__gpio__locked>
 8006336:	4603      	mov	r3, r0
 8006338:	2b00      	cmp	r3, #0
 800633a:	d005      	beq.n	8006348 <stm32__gpio__lock+0x2c>
 800633c:	4c0f      	ldr	r4, [pc, #60]	; (800637c <stm32__gpio__lock+0x60>)
 800633e:	4d10      	ldr	r5, [pc, #64]	; (8006380 <stm32__gpio__lock+0x64>)
 8006340:	4620      	mov	r0, r4
 8006342:	4629      	mov	r1, r5
 8006344:	f003 fc9c 	bl	8009c80 <system__assertions__raise_assert_failure>
 8006348:	68bb      	ldr	r3, [r7, #8]
 800634a:	685b      	ldr	r3, [r3, #4]
 800634c:	2b00      	cmp	r3, #0
 800634e:	d104      	bne.n	800635a <stm32__gpio__lock+0x3e>
 8006350:	480c      	ldr	r0, [pc, #48]	; (8006384 <stm32__gpio__lock+0x68>)
 8006352:	f44f 71b4 	mov.w	r1, #360	; 0x168
 8006356:	f7fb f911 	bl	800157c <__gnat_last_chance_handler>
 800635a:	68bb      	ldr	r3, [r7, #8]
 800635c:	685a      	ldr	r2, [r3, #4]
 800635e:	68bb      	ldr	r3, [r7, #8]
 8006360:	891b      	ldrh	r3, [r3, #8]
 8006362:	4610      	mov	r0, r2
 8006364:	4619      	mov	r1, r3
 8006366:	f7ff ffa1 	bl	80062ac <stm32__gpio__lock_the_pin>
 800636a:	f107 0308 	add.w	r3, r7, #8
 800636e:	469c      	mov	ip, r3
 8006370:	f7ff ffb6 	bl	80062e0 <stm32__gpio__lock___postconditions.5255>
 8006374:	3710      	adds	r7, #16
 8006376:	46bd      	mov	sp, r7
 8006378:	bdb0      	pop	{r4, r5, r7, pc}
 800637a:	bf00      	nop
 800637c:	0800b744 	.word	0x0800b744
 8006380:	0800b770 	.word	0x0800b770
 8006384:	0800b65c 	.word	0x0800b65c

08006388 <stm32__gpio__configure_io>:
 8006388:	b580      	push	{r7, lr}
 800638a:	b084      	sub	sp, #16
 800638c:	af00      	add	r7, sp, #0
 800638e:	6078      	str	r0, [r7, #4]
 8006390:	6039      	str	r1, [r7, #0]
 8006392:	687b      	ldr	r3, [r7, #4]
 8006394:	891b      	ldrh	r3, [r3, #8]
 8006396:	4618      	mov	r0, r3
 8006398:	2101      	movs	r1, #1
 800639a:	f7ff fcd9 	bl	8005d50 <stm32__gpio__gpio_pinRP>
 800639e:	4603      	mov	r3, r0
 80063a0:	2b00      	cmp	r3, #0
 80063a2:	db01      	blt.n	80063a8 <stm32__gpio__configure_io+0x20>
 80063a4:	2b0f      	cmp	r3, #15
 80063a6:	dd04      	ble.n	80063b2 <stm32__gpio__configure_io+0x2a>
 80063a8:	486f      	ldr	r0, [pc, #444]	; (8006568 <stm32__gpio__configure_io+0x1e0>)
 80063aa:	f44f 71c0 	mov.w	r1, #384	; 0x180
 80063ae:	f7fb f8e5 	bl	800157c <__gnat_last_chance_handler>
 80063b2:	687b      	ldr	r3, [r7, #4]
 80063b4:	891b      	ldrh	r3, [r3, #8]
 80063b6:	4618      	mov	r0, r3
 80063b8:	2101      	movs	r1, #1
 80063ba:	f7ff fcc9 	bl	8005d50 <stm32__gpio__gpio_pinRP>
 80063be:	4603      	mov	r3, r0
 80063c0:	60bb      	str	r3, [r7, #8]
 80063c2:	787b      	ldrb	r3, [r7, #1]
 80063c4:	2b01      	cmp	r3, #1
 80063c6:	d904      	bls.n	80063d2 <stm32__gpio__configure_io+0x4a>
 80063c8:	4867      	ldr	r0, [pc, #412]	; (8006568 <stm32__gpio__configure_io+0x1e0>)
 80063ca:	f44f 71c3 	mov.w	r1, #390	; 0x186
 80063ce:	f7fb f8d5 	bl	800157c <__gnat_last_chance_handler>
 80063d2:	787b      	ldrb	r3, [r7, #1]
 80063d4:	2b00      	cmp	r3, #0
 80063d6:	d002      	beq.n	80063de <stm32__gpio__configure_io+0x56>
 80063d8:	2b01      	cmp	r3, #1
 80063da:	d003      	beq.n	80063e4 <stm32__gpio__configure_io+0x5c>
 80063dc:	e005      	b.n	80063ea <stm32__gpio__configure_io+0x62>
 80063de:	2300      	movs	r3, #0
 80063e0:	737b      	strb	r3, [r7, #13]
 80063e2:	e002      	b.n	80063ea <stm32__gpio__configure_io+0x62>
 80063e4:	2304      	movs	r3, #4
 80063e6:	737b      	strb	r3, [r7, #13]
 80063e8:	e7ff      	b.n	80063ea <stm32__gpio__configure_io+0x62>
 80063ea:	bf00      	nop
 80063ec:	78bb      	ldrb	r3, [r7, #2]
 80063ee:	2b02      	cmp	r3, #2
 80063f0:	d904      	bls.n	80063fc <stm32__gpio__configure_io+0x74>
 80063f2:	485d      	ldr	r0, [pc, #372]	; (8006568 <stm32__gpio__configure_io+0x1e0>)
 80063f4:	f44f 71c7 	mov.w	r1, #398	; 0x18e
 80063f8:	f7fb f8c0 	bl	800157c <__gnat_last_chance_handler>
 80063fc:	78bb      	ldrb	r3, [r7, #2]
 80063fe:	2b01      	cmp	r3, #1
 8006400:	d007      	beq.n	8006412 <stm32__gpio__configure_io+0x8a>
 8006402:	2b01      	cmp	r3, #1
 8006404:	d302      	bcc.n	800640c <stm32__gpio__configure_io+0x84>
 8006406:	2b02      	cmp	r3, #2
 8006408:	d006      	beq.n	8006418 <stm32__gpio__configure_io+0x90>
 800640a:	e008      	b.n	800641e <stm32__gpio__configure_io+0x96>
 800640c:	2302      	movs	r3, #2
 800640e:	73fb      	strb	r3, [r7, #15]
 8006410:	e005      	b.n	800641e <stm32__gpio__configure_io+0x96>
 8006412:	2301      	movs	r3, #1
 8006414:	73fb      	strb	r3, [r7, #15]
 8006416:	e002      	b.n	800641e <stm32__gpio__configure_io+0x96>
 8006418:	2303      	movs	r3, #3
 800641a:	73fb      	strb	r3, [r7, #15]
 800641c:	e7ff      	b.n	800641e <stm32__gpio__configure_io+0x96>
 800641e:	bf00      	nop
 8006420:	78fb      	ldrb	r3, [r7, #3]
 8006422:	2b02      	cmp	r3, #2
 8006424:	d904      	bls.n	8006430 <stm32__gpio__configure_io+0xa8>
 8006426:	4850      	ldr	r0, [pc, #320]	; (8006568 <stm32__gpio__configure_io+0x1e0>)
 8006428:	f44f 71cc 	mov.w	r1, #408	; 0x198
 800642c:	f7fb f8a6 	bl	800157c <__gnat_last_chance_handler>
 8006430:	78fb      	ldrb	r3, [r7, #3]
 8006432:	2b00      	cmp	r3, #0
 8006434:	d002      	beq.n	800643c <stm32__gpio__configure_io+0xb4>
 8006436:	2b01      	cmp	r3, #1
 8006438:	d003      	beq.n	8006442 <stm32__gpio__configure_io+0xba>
 800643a:	e005      	b.n	8006448 <stm32__gpio__configure_io+0xc0>
 800643c:	2304      	movs	r3, #4
 800643e:	73bb      	strb	r3, [r7, #14]
 8006440:	e004      	b.n	800644c <stm32__gpio__configure_io+0xc4>
 8006442:	2308      	movs	r3, #8
 8006444:	73bb      	strb	r3, [r7, #14]
 8006446:	e001      	b.n	800644c <stm32__gpio__configure_io+0xc4>
 8006448:	2308      	movs	r3, #8
 800644a:	73bb      	strb	r3, [r7, #14]
 800644c:	bf00      	nop
 800644e:	783b      	ldrb	r3, [r7, #0]
 8006450:	2b03      	cmp	r3, #3
 8006452:	d904      	bls.n	800645e <stm32__gpio__configure_io+0xd6>
 8006454:	4844      	ldr	r0, [pc, #272]	; (8006568 <stm32__gpio__configure_io+0x1e0>)
 8006456:	f44f 71d0 	mov.w	r1, #416	; 0x1a0
 800645a:	f7fb f88f 	bl	800157c <__gnat_last_chance_handler>
 800645e:	783b      	ldrb	r3, [r7, #0]
 8006460:	2b01      	cmp	r3, #1
 8006462:	d004      	beq.n	800646e <stm32__gpio__configure_io+0xe6>
 8006464:	2b01      	cmp	r3, #1
 8006466:	d307      	bcc.n	8006478 <stm32__gpio__configure_io+0xf0>
 8006468:	2b02      	cmp	r3, #2
 800646a:	d00c      	beq.n	8006486 <stm32__gpio__configure_io+0xfe>
 800646c:	e018      	b.n	80064a0 <stm32__gpio__configure_io+0x118>
 800646e:	7b7a      	ldrb	r2, [r7, #13]
 8006470:	7bfb      	ldrb	r3, [r7, #15]
 8006472:	4313      	orrs	r3, r2
 8006474:	733b      	strb	r3, [r7, #12]
 8006476:	e013      	b.n	80064a0 <stm32__gpio__configure_io+0x118>
 8006478:	2300      	movs	r3, #0
 800647a:	73fb      	strb	r3, [r7, #15]
 800647c:	7bba      	ldrb	r2, [r7, #14]
 800647e:	7bfb      	ldrb	r3, [r7, #15]
 8006480:	4313      	orrs	r3, r2
 8006482:	733b      	strb	r3, [r7, #12]
 8006484:	e00c      	b.n	80064a0 <stm32__gpio__configure_io+0x118>
 8006486:	787b      	ldrb	r3, [r7, #1]
 8006488:	2b01      	cmp	r3, #1
 800648a:	d102      	bne.n	8006492 <stm32__gpio__configure_io+0x10a>
 800648c:	230c      	movs	r3, #12
 800648e:	737b      	strb	r3, [r7, #13]
 8006490:	e001      	b.n	8006496 <stm32__gpio__configure_io+0x10e>
 8006492:	2308      	movs	r3, #8
 8006494:	737b      	strb	r3, [r7, #13]
 8006496:	7b7a      	ldrb	r2, [r7, #13]
 8006498:	7bfb      	ldrb	r3, [r7, #15]
 800649a:	4313      	orrs	r3, r2
 800649c:	733b      	strb	r3, [r7, #12]
 800649e:	e7ff      	b.n	80064a0 <stm32__gpio__configure_io+0x118>
 80064a0:	bf00      	nop
 80064a2:	68bb      	ldr	r3, [r7, #8]
 80064a4:	2b07      	cmp	r3, #7
 80064a6:	dc2b      	bgt.n	8006500 <stm32__gpio__configure_io+0x178>
 80064a8:	687b      	ldr	r3, [r7, #4]
 80064aa:	685b      	ldr	r3, [r3, #4]
 80064ac:	2b00      	cmp	r3, #0
 80064ae:	d104      	bne.n	80064ba <stm32__gpio__configure_io+0x132>
 80064b0:	482d      	ldr	r0, [pc, #180]	; (8006568 <stm32__gpio__configure_io+0x1e0>)
 80064b2:	f240 11b1 	movw	r1, #433	; 0x1b1
 80064b6:	f7fb f861 	bl	800157c <__gnat_last_chance_handler>
 80064ba:	68bb      	ldr	r3, [r7, #8]
 80064bc:	2b07      	cmp	r3, #7
 80064be:	dd04      	ble.n	80064ca <stm32__gpio__configure_io+0x142>
 80064c0:	4829      	ldr	r0, [pc, #164]	; (8006568 <stm32__gpio__configure_io+0x1e0>)
 80064c2:	f240 11b1 	movw	r1, #433	; 0x1b1
 80064c6:	f7fb f859 	bl	800157c <__gnat_last_chance_handler>
 80064ca:	687b      	ldr	r3, [r7, #4]
 80064cc:	685b      	ldr	r3, [r3, #4]
 80064ce:	681b      	ldr	r3, [r3, #0]
 80064d0:	461a      	mov	r2, r3
 80064d2:	687b      	ldr	r3, [r7, #4]
 80064d4:	685b      	ldr	r3, [r3, #4]
 80064d6:	681b      	ldr	r3, [r3, #0]
 80064d8:	4619      	mov	r1, r3
 80064da:	68bb      	ldr	r3, [r7, #8]
 80064dc:	009b      	lsls	r3, r3, #2
 80064de:	220f      	movs	r2, #15
 80064e0:	fa02 f303 	lsl.w	r3, r2, r3
 80064e4:	43db      	mvns	r3, r3
 80064e6:	ea01 0203 	and.w	r2, r1, r3
 80064ea:	7b39      	ldrb	r1, [r7, #12]
 80064ec:	68bb      	ldr	r3, [r7, #8]
 80064ee:	009b      	lsls	r3, r3, #2
 80064f0:	fa01 f303 	lsl.w	r3, r1, r3
 80064f4:	4313      	orrs	r3, r2
 80064f6:	461a      	mov	r2, r3
 80064f8:	687b      	ldr	r3, [r7, #4]
 80064fa:	685b      	ldr	r3, [r3, #4]
 80064fc:	601a      	str	r2, [r3, #0]
 80064fe:	e02f      	b.n	8006560 <stm32__gpio__configure_io+0x1d8>
 8006500:	687b      	ldr	r3, [r7, #4]
 8006502:	685b      	ldr	r3, [r3, #4]
 8006504:	2b00      	cmp	r3, #0
 8006506:	d104      	bne.n	8006512 <stm32__gpio__configure_io+0x18a>
 8006508:	4817      	ldr	r0, [pc, #92]	; (8006568 <stm32__gpio__configure_io+0x1e0>)
 800650a:	f240 11b3 	movw	r1, #435	; 0x1b3
 800650e:	f7fb f835 	bl	800157c <__gnat_last_chance_handler>
 8006512:	68bb      	ldr	r3, [r7, #8]
 8006514:	2b07      	cmp	r3, #7
 8006516:	dc04      	bgt.n	8006522 <stm32__gpio__configure_io+0x19a>
 8006518:	4813      	ldr	r0, [pc, #76]	; (8006568 <stm32__gpio__configure_io+0x1e0>)
 800651a:	f240 11b3 	movw	r1, #435	; 0x1b3
 800651e:	f7fb f82d 	bl	800157c <__gnat_last_chance_handler>
 8006522:	687b      	ldr	r3, [r7, #4]
 8006524:	685b      	ldr	r3, [r3, #4]
 8006526:	3304      	adds	r3, #4
 8006528:	681b      	ldr	r3, [r3, #0]
 800652a:	461a      	mov	r2, r3
 800652c:	687b      	ldr	r3, [r7, #4]
 800652e:	685b      	ldr	r3, [r3, #4]
 8006530:	3304      	adds	r3, #4
 8006532:	681b      	ldr	r3, [r3, #0]
 8006534:	4619      	mov	r1, r3
 8006536:	68bb      	ldr	r3, [r7, #8]
 8006538:	3b08      	subs	r3, #8
 800653a:	009b      	lsls	r3, r3, #2
 800653c:	220f      	movs	r2, #15
 800653e:	fa02 f303 	lsl.w	r3, r2, r3
 8006542:	43db      	mvns	r3, r3
 8006544:	ea01 0203 	and.w	r2, r1, r3
 8006548:	7b39      	ldrb	r1, [r7, #12]
 800654a:	68bb      	ldr	r3, [r7, #8]
 800654c:	3b08      	subs	r3, #8
 800654e:	009b      	lsls	r3, r3, #2
 8006550:	fa01 f303 	lsl.w	r3, r1, r3
 8006554:	4313      	orrs	r3, r2
 8006556:	461a      	mov	r2, r3
 8006558:	687b      	ldr	r3, [r7, #4]
 800655a:	685b      	ldr	r3, [r3, #4]
 800655c:	3304      	adds	r3, #4
 800655e:	601a      	str	r2, [r3, #0]
 8006560:	3710      	adds	r7, #16
 8006562:	46bd      	mov	sp, r7
 8006564:	bd80      	pop	{r7, pc}
 8006566:	bf00      	nop
 8006568:	0800b65c 	.word	0x0800b65c

0800656c <stm32__gpio__configure_alternate_function>:
 800656c:	b580      	push	{r7, lr}
 800656e:	b084      	sub	sp, #16
 8006570:	af00      	add	r7, sp, #0
 8006572:	6078      	str	r0, [r7, #4]
 8006574:	460b      	mov	r3, r1
 8006576:	70fb      	strb	r3, [r7, #3]
 8006578:	687b      	ldr	r3, [r7, #4]
 800657a:	891b      	ldrh	r3, [r3, #8]
 800657c:	4618      	mov	r0, r3
 800657e:	2101      	movs	r1, #1
 8006580:	f7ff fbe6 	bl	8005d50 <stm32__gpio__gpio_pinRP>
 8006584:	4603      	mov	r3, r0
 8006586:	2b00      	cmp	r3, #0
 8006588:	db01      	blt.n	800658e <stm32__gpio__configure_alternate_function+0x22>
 800658a:	2b0f      	cmp	r3, #15
 800658c:	dd04      	ble.n	8006598 <stm32__gpio__configure_alternate_function+0x2c>
 800658e:	4808      	ldr	r0, [pc, #32]	; (80065b0 <stm32__gpio__configure_alternate_function+0x44>)
 8006590:	f240 11cd 	movw	r1, #461	; 0x1cd
 8006594:	f7fa fff2 	bl	800157c <__gnat_last_chance_handler>
 8006598:	687b      	ldr	r3, [r7, #4]
 800659a:	891b      	ldrh	r3, [r3, #8]
 800659c:	4618      	mov	r0, r3
 800659e:	2101      	movs	r1, #1
 80065a0:	f7ff fbd6 	bl	8005d50 <stm32__gpio__gpio_pinRP>
 80065a4:	4603      	mov	r3, r0
 80065a6:	60fb      	str	r3, [r7, #12]
 80065a8:	bf00      	nop
 80065aa:	3710      	adds	r7, #16
 80065ac:	46bd      	mov	sp, r7
 80065ae:	bd80      	pop	{r7, pc}
 80065b0:	0800b65c 	.word	0x0800b65c

080065b4 <stm32__gpio__interrupt_line_number>:
 80065b4:	b580      	push	{r7, lr}
 80065b6:	b082      	sub	sp, #8
 80065b8:	af00      	add	r7, sp, #0
 80065ba:	6078      	str	r0, [r7, #4]
 80065bc:	687b      	ldr	r3, [r7, #4]
 80065be:	891b      	ldrh	r3, [r3, #8]
 80065c0:	4618      	mov	r0, r3
 80065c2:	2101      	movs	r1, #1
 80065c4:	f7ff fbc4 	bl	8005d50 <stm32__gpio__gpio_pinRP>
 80065c8:	4603      	mov	r3, r0
 80065ca:	2b00      	cmp	r3, #0
 80065cc:	db01      	blt.n	80065d2 <stm32__gpio__interrupt_line_number+0x1e>
 80065ce:	2b16      	cmp	r3, #22
 80065d0:	dd04      	ble.n	80065dc <stm32__gpio__interrupt_line_number+0x28>
 80065d2:	4809      	ldr	r0, [pc, #36]	; (80065f8 <stm32__gpio__interrupt_line_number+0x44>)
 80065d4:	f44f 71f9 	mov.w	r1, #498	; 0x1f2
 80065d8:	f7fa ffd0 	bl	800157c <__gnat_last_chance_handler>
 80065dc:	687b      	ldr	r3, [r7, #4]
 80065de:	891b      	ldrh	r3, [r3, #8]
 80065e0:	4618      	mov	r0, r3
 80065e2:	2101      	movs	r1, #1
 80065e4:	f7ff fbb4 	bl	8005d50 <stm32__gpio__gpio_pinRP>
 80065e8:	4603      	mov	r3, r0
 80065ea:	b2db      	uxtb	r3, r3
 80065ec:	bf00      	nop
 80065ee:	4618      	mov	r0, r3
 80065f0:	3708      	adds	r7, #8
 80065f2:	46bd      	mov	sp, r7
 80065f4:	bd80      	pop	{r7, pc}
 80065f6:	bf00      	nop
 80065f8:	0800b65c 	.word	0x0800b65c

080065fc <stm32__gpio__configure_trigger>:
 80065fc:	b580      	push	{r7, lr}
 80065fe:	b084      	sub	sp, #16
 8006600:	af00      	add	r7, sp, #0
 8006602:	6078      	str	r0, [r7, #4]
 8006604:	460b      	mov	r3, r1
 8006606:	70fb      	strb	r3, [r7, #3]
 8006608:	687b      	ldr	r3, [r7, #4]
 800660a:	891b      	ldrh	r3, [r3, #8]
 800660c:	4618      	mov	r0, r3
 800660e:	2101      	movs	r1, #1
 8006610:	f7ff fb9e 	bl	8005d50 <stm32__gpio__gpio_pinRP>
 8006614:	4603      	mov	r3, r0
 8006616:	2b00      	cmp	r3, #0
 8006618:	db01      	blt.n	800661e <stm32__gpio__configure_trigger+0x22>
 800661a:	2b16      	cmp	r3, #22
 800661c:	dd04      	ble.n	8006628 <stm32__gpio__configure_trigger+0x2c>
 800661e:	4808      	ldr	r0, [pc, #32]	; (8006640 <stm32__gpio__configure_trigger+0x44>)
 8006620:	f44f 71ff 	mov.w	r1, #510	; 0x1fe
 8006624:	f7fa ffaa 	bl	800157c <__gnat_last_chance_handler>
 8006628:	687b      	ldr	r3, [r7, #4]
 800662a:	891b      	ldrh	r3, [r3, #8]
 800662c:	4618      	mov	r0, r3
 800662e:	2101      	movs	r1, #1
 8006630:	f7ff fb8e 	bl	8005d50 <stm32__gpio__gpio_pinRP>
 8006634:	4603      	mov	r3, r0
 8006636:	73fb      	strb	r3, [r7, #15]
 8006638:	bf00      	nop
 800663a:	3710      	adds	r7, #16
 800663c:	46bd      	mov	sp, r7
 800663e:	bd80      	pop	{r7, pc}
 8006640:	0800b65c 	.word	0x0800b65c

08006644 <stm32__spi__spi_portIP>:
 8006644:	b480      	push	{r7}
 8006646:	b085      	sub	sp, #20
 8006648:	af00      	add	r7, sp, #0
 800664a:	60f8      	str	r0, [r7, #12]
 800664c:	60b9      	str	r1, [r7, #8]
 800664e:	4613      	mov	r3, r2
 8006650:	71fb      	strb	r3, [r7, #7]
 8006652:	79fb      	ldrb	r3, [r7, #7]
 8006654:	2b00      	cmp	r3, #0
 8006656:	d002      	beq.n	800665e <stm32__spi__spi_portIP+0x1a>
 8006658:	68fb      	ldr	r3, [r7, #12]
 800665a:	4a05      	ldr	r2, [pc, #20]	; (8006670 <stm32__spi__spi_portIP+0x2c>)
 800665c:	601a      	str	r2, [r3, #0]
 800665e:	68fb      	ldr	r3, [r7, #12]
 8006660:	68ba      	ldr	r2, [r7, #8]
 8006662:	605a      	str	r2, [r3, #4]
 8006664:	3714      	adds	r7, #20
 8006666:	46bd      	mov	sp, r7
 8006668:	f85d 7b04 	ldr.w	r7, [sp], #4
 800666c:	4770      	bx	lr
 800666e:	bf00      	nop
 8006670:	0800b7cc 	.word	0x0800b7cc

08006674 <stm32__spi___size__2>:
 8006674:	b490      	push	{r4, r7}
 8006676:	b082      	sub	sp, #8
 8006678:	af00      	add	r7, sp, #0
 800667a:	6078      	str	r0, [r7, #4]
 800667c:	f04f 0340 	mov.w	r3, #64	; 0x40
 8006680:	f04f 0400 	mov.w	r4, #0
 8006684:	4618      	mov	r0, r3
 8006686:	4621      	mov	r1, r4
 8006688:	3708      	adds	r7, #8
 800668a:	46bd      	mov	sp, r7
 800668c:	bc90      	pop	{r4, r7}
 800668e:	4770      	bx	lr

08006690 <stm32__spi__configure>:
 8006690:	b580      	push	{r7, lr}
 8006692:	b082      	sub	sp, #8
 8006694:	af00      	add	r7, sp, #0
 8006696:	6078      	str	r0, [r7, #4]
 8006698:	6039      	str	r1, [r7, #0]
 800669a:	683b      	ldr	r3, [r7, #0]
 800669c:	785b      	ldrb	r3, [r3, #1]
 800669e:	2b01      	cmp	r3, #1
 80066a0:	d903      	bls.n	80066aa <stm32__spi__configure+0x1a>
 80066a2:	4896      	ldr	r0, [pc, #600]	; (80068fc <stm32__spi__configure+0x26c>)
 80066a4:	214b      	movs	r1, #75	; 0x4b
 80066a6:	f7fa ff69 	bl	800157c <__gnat_last_chance_handler>
 80066aa:	683b      	ldr	r3, [r7, #0]
 80066ac:	785b      	ldrb	r3, [r3, #1]
 80066ae:	2b00      	cmp	r3, #0
 80066b0:	d114      	bne.n	80066dc <stm32__spi__configure+0x4c>
 80066b2:	687b      	ldr	r3, [r7, #4]
 80066b4:	685b      	ldr	r3, [r3, #4]
 80066b6:	681b      	ldr	r3, [r3, #0]
 80066b8:	461a      	mov	r2, r3
 80066ba:	4613      	mov	r3, r2
 80066bc:	f043 0204 	orr.w	r2, r3, #4
 80066c0:	687b      	ldr	r3, [r7, #4]
 80066c2:	685b      	ldr	r3, [r3, #4]
 80066c4:	601a      	str	r2, [r3, #0]
 80066c6:	687b      	ldr	r3, [r7, #4]
 80066c8:	685b      	ldr	r3, [r3, #4]
 80066ca:	681b      	ldr	r3, [r3, #0]
 80066cc:	461a      	mov	r2, r3
 80066ce:	4613      	mov	r3, r2
 80066d0:	f443 7280 	orr.w	r2, r3, #256	; 0x100
 80066d4:	687b      	ldr	r3, [r7, #4]
 80066d6:	685b      	ldr	r3, [r3, #4]
 80066d8:	601a      	str	r2, [r3, #0]
 80066da:	e00f      	b.n	80066fc <stm32__spi__configure+0x6c>
 80066dc:	687b      	ldr	r3, [r7, #4]
 80066de:	685b      	ldr	r3, [r3, #4]
 80066e0:	681b      	ldr	r3, [r3, #0]
 80066e2:	f36f 0382 	bfc	r3, #2, #1
 80066e6:	687a      	ldr	r2, [r7, #4]
 80066e8:	6852      	ldr	r2, [r2, #4]
 80066ea:	6013      	str	r3, [r2, #0]
 80066ec:	687b      	ldr	r3, [r7, #4]
 80066ee:	685b      	ldr	r3, [r3, #4]
 80066f0:	681b      	ldr	r3, [r3, #0]
 80066f2:	f36f 2308 	bfc	r3, #8, #1
 80066f6:	687a      	ldr	r2, [r7, #4]
 80066f8:	6852      	ldr	r2, [r2, #4]
 80066fa:	6013      	str	r3, [r2, #0]
 80066fc:	683b      	ldr	r3, [r7, #0]
 80066fe:	781b      	ldrb	r3, [r3, #0]
 8006700:	2b03      	cmp	r3, #3
 8006702:	d903      	bls.n	800670c <stm32__spi__configure+0x7c>
 8006704:	487d      	ldr	r0, [pc, #500]	; (80068fc <stm32__spi__configure+0x26c>)
 8006706:	2154      	movs	r1, #84	; 0x54
 8006708:	f7fa ff38 	bl	800157c <__gnat_last_chance_handler>
 800670c:	683b      	ldr	r3, [r7, #0]
 800670e:	781b      	ldrb	r3, [r3, #0]
 8006710:	2b01      	cmp	r3, #1
 8006712:	d01d      	beq.n	8006750 <stm32__spi__configure+0xc0>
 8006714:	2b01      	cmp	r3, #1
 8006716:	d302      	bcc.n	800671e <stm32__spi__configure+0x8e>
 8006718:	2b02      	cmp	r3, #2
 800671a:	d034      	beq.n	8006786 <stm32__spi__configure+0xf6>
 800671c:	e04e      	b.n	80067bc <stm32__spi__configure+0x12c>
 800671e:	687b      	ldr	r3, [r7, #4]
 8006720:	685b      	ldr	r3, [r3, #4]
 8006722:	681b      	ldr	r3, [r3, #0]
 8006724:	f36f 33cf 	bfc	r3, #15, #1
 8006728:	687a      	ldr	r2, [r7, #4]
 800672a:	6852      	ldr	r2, [r2, #4]
 800672c:	6013      	str	r3, [r2, #0]
 800672e:	687b      	ldr	r3, [r7, #4]
 8006730:	685b      	ldr	r3, [r3, #4]
 8006732:	681b      	ldr	r3, [r3, #0]
 8006734:	f36f 338e 	bfc	r3, #14, #1
 8006738:	687a      	ldr	r2, [r7, #4]
 800673a:	6852      	ldr	r2, [r2, #4]
 800673c:	6013      	str	r3, [r2, #0]
 800673e:	687b      	ldr	r3, [r7, #4]
 8006740:	685b      	ldr	r3, [r3, #4]
 8006742:	681b      	ldr	r3, [r3, #0]
 8006744:	f36f 238a 	bfc	r3, #10, #1
 8006748:	687a      	ldr	r2, [r7, #4]
 800674a:	6852      	ldr	r2, [r2, #4]
 800674c:	6013      	str	r3, [r2, #0]
 800674e:	e051      	b.n	80067f4 <stm32__spi__configure+0x164>
 8006750:	687b      	ldr	r3, [r7, #4]
 8006752:	685b      	ldr	r3, [r3, #4]
 8006754:	681b      	ldr	r3, [r3, #0]
 8006756:	f36f 33cf 	bfc	r3, #15, #1
 800675a:	687a      	ldr	r2, [r7, #4]
 800675c:	6852      	ldr	r2, [r2, #4]
 800675e:	6013      	str	r3, [r2, #0]
 8006760:	687b      	ldr	r3, [r7, #4]
 8006762:	685b      	ldr	r3, [r3, #4]
 8006764:	681b      	ldr	r3, [r3, #0]
 8006766:	f36f 338e 	bfc	r3, #14, #1
 800676a:	687a      	ldr	r2, [r7, #4]
 800676c:	6852      	ldr	r2, [r2, #4]
 800676e:	6013      	str	r3, [r2, #0]
 8006770:	687b      	ldr	r3, [r7, #4]
 8006772:	685b      	ldr	r3, [r3, #4]
 8006774:	681b      	ldr	r3, [r3, #0]
 8006776:	461a      	mov	r2, r3
 8006778:	4613      	mov	r3, r2
 800677a:	f443 6280 	orr.w	r2, r3, #1024	; 0x400
 800677e:	687b      	ldr	r3, [r7, #4]
 8006780:	685b      	ldr	r3, [r3, #4]
 8006782:	601a      	str	r2, [r3, #0]
 8006784:	e036      	b.n	80067f4 <stm32__spi__configure+0x164>
 8006786:	687b      	ldr	r3, [r7, #4]
 8006788:	685b      	ldr	r3, [r3, #4]
 800678a:	681b      	ldr	r3, [r3, #0]
 800678c:	461a      	mov	r2, r3
 800678e:	4613      	mov	r3, r2
 8006790:	f443 4200 	orr.w	r2, r3, #32768	; 0x8000
 8006794:	687b      	ldr	r3, [r7, #4]
 8006796:	685b      	ldr	r3, [r3, #4]
 8006798:	601a      	str	r2, [r3, #0]
 800679a:	687b      	ldr	r3, [r7, #4]
 800679c:	685b      	ldr	r3, [r3, #4]
 800679e:	681b      	ldr	r3, [r3, #0]
 80067a0:	f36f 338e 	bfc	r3, #14, #1
 80067a4:	687a      	ldr	r2, [r7, #4]
 80067a6:	6852      	ldr	r2, [r2, #4]
 80067a8:	6013      	str	r3, [r2, #0]
 80067aa:	687b      	ldr	r3, [r7, #4]
 80067ac:	685b      	ldr	r3, [r3, #4]
 80067ae:	681b      	ldr	r3, [r3, #0]
 80067b0:	f36f 238a 	bfc	r3, #10, #1
 80067b4:	687a      	ldr	r2, [r7, #4]
 80067b6:	6852      	ldr	r2, [r2, #4]
 80067b8:	6013      	str	r3, [r2, #0]
 80067ba:	e01b      	b.n	80067f4 <stm32__spi__configure+0x164>
 80067bc:	687b      	ldr	r3, [r7, #4]
 80067be:	685b      	ldr	r3, [r3, #4]
 80067c0:	681b      	ldr	r3, [r3, #0]
 80067c2:	461a      	mov	r2, r3
 80067c4:	4613      	mov	r3, r2
 80067c6:	f443 4200 	orr.w	r2, r3, #32768	; 0x8000
 80067ca:	687b      	ldr	r3, [r7, #4]
 80067cc:	685b      	ldr	r3, [r3, #4]
 80067ce:	601a      	str	r2, [r3, #0]
 80067d0:	687b      	ldr	r3, [r7, #4]
 80067d2:	685b      	ldr	r3, [r3, #4]
 80067d4:	681b      	ldr	r3, [r3, #0]
 80067d6:	461a      	mov	r2, r3
 80067d8:	4613      	mov	r3, r2
 80067da:	f443 4280 	orr.w	r2, r3, #16384	; 0x4000
 80067de:	687b      	ldr	r3, [r7, #4]
 80067e0:	685b      	ldr	r3, [r3, #4]
 80067e2:	601a      	str	r2, [r3, #0]
 80067e4:	687b      	ldr	r3, [r7, #4]
 80067e6:	685b      	ldr	r3, [r3, #4]
 80067e8:	681b      	ldr	r3, [r3, #0]
 80067ea:	f36f 238a 	bfc	r3, #10, #1
 80067ee:	687a      	ldr	r2, [r7, #4]
 80067f0:	6852      	ldr	r2, [r2, #4]
 80067f2:	6013      	str	r3, [r2, #0]
 80067f4:	bf00      	nop
 80067f6:	687b      	ldr	r3, [r7, #4]
 80067f8:	685b      	ldr	r3, [r3, #4]
 80067fa:	681b      	ldr	r3, [r3, #0]
 80067fc:	683a      	ldr	r2, [r7, #0]
 80067fe:	7892      	ldrb	r2, [r2, #2]
 8006800:	2a01      	cmp	r2, #1
 8006802:	bf0c      	ite	eq
 8006804:	2201      	moveq	r2, #1
 8006806:	2200      	movne	r2, #0
 8006808:	b2d2      	uxtb	r2, r2
 800680a:	f002 0201 	and.w	r2, r2, #1
 800680e:	b2d2      	uxtb	r2, r2
 8006810:	f362 23cb 	bfi	r3, r2, #11, #1
 8006814:	687a      	ldr	r2, [r7, #4]
 8006816:	6852      	ldr	r2, [r2, #4]
 8006818:	6013      	str	r3, [r2, #0]
 800681a:	687b      	ldr	r3, [r7, #4]
 800681c:	685b      	ldr	r3, [r3, #4]
 800681e:	681b      	ldr	r3, [r3, #0]
 8006820:	683a      	ldr	r2, [r7, #0]
 8006822:	78d2      	ldrb	r2, [r2, #3]
 8006824:	2a00      	cmp	r2, #0
 8006826:	bf0c      	ite	eq
 8006828:	2201      	moveq	r2, #1
 800682a:	2200      	movne	r2, #0
 800682c:	b2d2      	uxtb	r2, r2
 800682e:	f002 0201 	and.w	r2, r2, #1
 8006832:	b2d2      	uxtb	r2, r2
 8006834:	f362 0341 	bfi	r3, r2, #1, #1
 8006838:	687a      	ldr	r2, [r7, #4]
 800683a:	6852      	ldr	r2, [r2, #4]
 800683c:	6013      	str	r3, [r2, #0]
 800683e:	687b      	ldr	r3, [r7, #4]
 8006840:	685b      	ldr	r3, [r3, #4]
 8006842:	681b      	ldr	r3, [r3, #0]
 8006844:	683a      	ldr	r2, [r7, #0]
 8006846:	7912      	ldrb	r2, [r2, #4]
 8006848:	2a01      	cmp	r2, #1
 800684a:	bf0c      	ite	eq
 800684c:	2201      	moveq	r2, #1
 800684e:	2200      	movne	r2, #0
 8006850:	b2d2      	uxtb	r2, r2
 8006852:	f002 0201 	and.w	r2, r2, #1
 8006856:	b2d2      	uxtb	r2, r2
 8006858:	f362 0300 	bfi	r3, r2, #0, #1
 800685c:	687a      	ldr	r2, [r7, #4]
 800685e:	6852      	ldr	r2, [r2, #4]
 8006860:	6013      	str	r3, [r2, #0]
 8006862:	687b      	ldr	r3, [r7, #4]
 8006864:	685b      	ldr	r3, [r3, #4]
 8006866:	681b      	ldr	r3, [r3, #0]
 8006868:	683a      	ldr	r2, [r7, #0]
 800686a:	7952      	ldrb	r2, [r2, #5]
 800686c:	2a00      	cmp	r2, #0
 800686e:	bf0c      	ite	eq
 8006870:	2201      	moveq	r2, #1
 8006872:	2200      	movne	r2, #0
 8006874:	b2d2      	uxtb	r2, r2
 8006876:	f002 0201 	and.w	r2, r2, #1
 800687a:	b2d2      	uxtb	r2, r2
 800687c:	f362 2349 	bfi	r3, r2, #9, #1
 8006880:	687a      	ldr	r2, [r7, #4]
 8006882:	6852      	ldr	r2, [r2, #4]
 8006884:	6013      	str	r3, [r2, #0]
 8006886:	687b      	ldr	r3, [r7, #4]
 8006888:	685b      	ldr	r3, [r3, #4]
 800688a:	681b      	ldr	r3, [r3, #0]
 800688c:	683a      	ldr	r2, [r7, #0]
 800688e:	7992      	ldrb	r2, [r2, #6]
 8006890:	4611      	mov	r1, r2
 8006892:	4a1b      	ldr	r2, [pc, #108]	; (8006900 <stm32__spi__configure+0x270>)
 8006894:	5c52      	ldrb	r2, [r2, r1]
 8006896:	f002 0207 	and.w	r2, r2, #7
 800689a:	b2d2      	uxtb	r2, r2
 800689c:	f362 03c5 	bfi	r3, r2, #3, #3
 80068a0:	687a      	ldr	r2, [r7, #4]
 80068a2:	6852      	ldr	r2, [r2, #4]
 80068a4:	6013      	str	r3, [r2, #0]
 80068a6:	687b      	ldr	r3, [r7, #4]
 80068a8:	685b      	ldr	r3, [r3, #4]
 80068aa:	681b      	ldr	r3, [r3, #0]
 80068ac:	683a      	ldr	r2, [r7, #0]
 80068ae:	79d2      	ldrb	r2, [r2, #7]
 80068b0:	2a01      	cmp	r2, #1
 80068b2:	bf0c      	ite	eq
 80068b4:	2201      	moveq	r2, #1
 80068b6:	2200      	movne	r2, #0
 80068b8:	b2d2      	uxtb	r2, r2
 80068ba:	f002 0201 	and.w	r2, r2, #1
 80068be:	b2d2      	uxtb	r2, r2
 80068c0:	f362 13c7 	bfi	r3, r2, #7, #1
 80068c4:	687a      	ldr	r2, [r7, #4]
 80068c6:	6852      	ldr	r2, [r2, #4]
 80068c8:	6013      	str	r3, [r2, #0]
 80068ca:	687b      	ldr	r3, [r7, #4]
 80068cc:	685b      	ldr	r3, [r3, #4]
 80068ce:	331c      	adds	r3, #28
 80068d0:	681b      	ldr	r3, [r3, #0]
 80068d2:	f36f 23cb 	bfc	r3, #11, #1
 80068d6:	687a      	ldr	r2, [r7, #4]
 80068d8:	6852      	ldr	r2, [r2, #4]
 80068da:	321c      	adds	r2, #28
 80068dc:	6013      	str	r3, [r2, #0]
 80068de:	687b      	ldr	r3, [r7, #4]
 80068e0:	685b      	ldr	r3, [r3, #4]
 80068e2:	3310      	adds	r3, #16
 80068e4:	681b      	ldr	r3, [r3, #0]
 80068e6:	683a      	ldr	r2, [r7, #0]
 80068e8:	8912      	ldrh	r2, [r2, #8]
 80068ea:	f362 030f 	bfi	r3, r2, #0, #16
 80068ee:	687a      	ldr	r2, [r7, #4]
 80068f0:	6852      	ldr	r2, [r2, #4]
 80068f2:	3210      	adds	r2, #16
 80068f4:	6013      	str	r3, [r2, #0]
 80068f6:	3708      	adds	r7, #8
 80068f8:	46bd      	mov	sp, r7
 80068fa:	bd80      	pop	{r7, pc}
 80068fc:	0800b870 	.word	0x0800b870
 8006900:	0800b868 	.word	0x0800b868

08006904 <stm32__spi__enable>:
 8006904:	b480      	push	{r7}
 8006906:	b083      	sub	sp, #12
 8006908:	af00      	add	r7, sp, #0
 800690a:	6078      	str	r0, [r7, #4]
 800690c:	687b      	ldr	r3, [r7, #4]
 800690e:	685b      	ldr	r3, [r3, #4]
 8006910:	681b      	ldr	r3, [r3, #0]
 8006912:	461a      	mov	r2, r3
 8006914:	4613      	mov	r3, r2
 8006916:	f043 0240 	orr.w	r2, r3, #64	; 0x40
 800691a:	687b      	ldr	r3, [r7, #4]
 800691c:	685b      	ldr	r3, [r3, #4]
 800691e:	601a      	str	r2, [r3, #0]
 8006920:	370c      	adds	r7, #12
 8006922:	46bd      	mov	sp, r7
 8006924:	f85d 7b04 	ldr.w	r7, [sp], #4
 8006928:	4770      	bx	lr
 800692a:	bf00      	nop

0800692c <stm32__spi__disable>:
 800692c:	b480      	push	{r7}
 800692e:	b083      	sub	sp, #12
 8006930:	af00      	add	r7, sp, #0
 8006932:	6078      	str	r0, [r7, #4]
 8006934:	687b      	ldr	r3, [r7, #4]
 8006936:	685b      	ldr	r3, [r3, #4]
 8006938:	681b      	ldr	r3, [r3, #0]
 800693a:	f36f 1386 	bfc	r3, #6, #1
 800693e:	687a      	ldr	r2, [r7, #4]
 8006940:	6852      	ldr	r2, [r2, #4]
 8006942:	6013      	str	r3, [r2, #0]
 8006944:	370c      	adds	r7, #12
 8006946:	46bd      	mov	sp, r7
 8006948:	f85d 7b04 	ldr.w	r7, [sp], #4
 800694c:	4770      	bx	lr
 800694e:	bf00      	nop

08006950 <stm32__spi__enabled>:
 8006950:	b480      	push	{r7}
 8006952:	b083      	sub	sp, #12
 8006954:	af00      	add	r7, sp, #0
 8006956:	6078      	str	r0, [r7, #4]
 8006958:	687b      	ldr	r3, [r7, #4]
 800695a:	685b      	ldr	r3, [r3, #4]
 800695c:	681b      	ldr	r3, [r3, #0]
 800695e:	f3c3 1380 	ubfx	r3, r3, #6, #1
 8006962:	b2db      	uxtb	r3, r3
 8006964:	bf00      	nop
 8006966:	4618      	mov	r0, r3
 8006968:	370c      	adds	r7, #12
 800696a:	46bd      	mov	sp, r7
 800696c:	f85d 7b04 	ldr.w	r7, [sp], #4
 8006970:	4770      	bx	lr
 8006972:	bf00      	nop

08006974 <stm32__spi__send>:
 8006974:	b480      	push	{r7}
 8006976:	b083      	sub	sp, #12
 8006978:	af00      	add	r7, sp, #0
 800697a:	6078      	str	r0, [r7, #4]
 800697c:	460b      	mov	r3, r1
 800697e:	807b      	strh	r3, [r7, #2]
 8006980:	687b      	ldr	r3, [r7, #4]
 8006982:	685b      	ldr	r3, [r3, #4]
 8006984:	330c      	adds	r3, #12
 8006986:	681b      	ldr	r3, [r3, #0]
 8006988:	887a      	ldrh	r2, [r7, #2]
 800698a:	f362 030f 	bfi	r3, r2, #0, #16
 800698e:	687a      	ldr	r2, [r7, #4]
 8006990:	6852      	ldr	r2, [r2, #4]
 8006992:	320c      	adds	r2, #12
 8006994:	6013      	str	r3, [r2, #0]
 8006996:	370c      	adds	r7, #12
 8006998:	46bd      	mov	sp, r7
 800699a:	f85d 7b04 	ldr.w	r7, [sp], #4
 800699e:	4770      	bx	lr

080069a0 <stm32__spi__data>:
 80069a0:	b480      	push	{r7}
 80069a2:	b083      	sub	sp, #12
 80069a4:	af00      	add	r7, sp, #0
 80069a6:	6078      	str	r0, [r7, #4]
 80069a8:	687b      	ldr	r3, [r7, #4]
 80069aa:	685b      	ldr	r3, [r3, #4]
 80069ac:	330c      	adds	r3, #12
 80069ae:	681b      	ldr	r3, [r3, #0]
 80069b0:	b29b      	uxth	r3, r3
 80069b2:	bf00      	nop
 80069b4:	4618      	mov	r0, r3
 80069b6:	370c      	adds	r7, #12
 80069b8:	46bd      	mov	sp, r7
 80069ba:	f85d 7b04 	ldr.w	r7, [sp], #4
 80069be:	4770      	bx	lr

080069c0 <stm32__spi__send__2>:
 80069c0:	b580      	push	{r7, lr}
 80069c2:	b082      	sub	sp, #8
 80069c4:	af00      	add	r7, sp, #0
 80069c6:	6078      	str	r0, [r7, #4]
 80069c8:	460b      	mov	r3, r1
 80069ca:	70fb      	strb	r3, [r7, #3]
 80069cc:	78fb      	ldrb	r3, [r7, #3]
 80069ce:	b29b      	uxth	r3, r3
 80069d0:	6878      	ldr	r0, [r7, #4]
 80069d2:	4619      	mov	r1, r3
 80069d4:	f7ff ffce 	bl	8006974 <stm32__spi__send>
 80069d8:	3708      	adds	r7, #8
 80069da:	46bd      	mov	sp, r7
 80069dc:	bd80      	pop	{r7, pc}
 80069de:	bf00      	nop

080069e0 <stm32__spi__data__2>:
 80069e0:	b580      	push	{r7, lr}
 80069e2:	b082      	sub	sp, #8
 80069e4:	af00      	add	r7, sp, #0
 80069e6:	6078      	str	r0, [r7, #4]
 80069e8:	6878      	ldr	r0, [r7, #4]
 80069ea:	f7ff ffd9 	bl	80069a0 <stm32__spi__data>
 80069ee:	4603      	mov	r3, r0
 80069f0:	2bff      	cmp	r3, #255	; 0xff
 80069f2:	d903      	bls.n	80069fc <stm32__spi__data__2+0x1c>
 80069f4:	4804      	ldr	r0, [pc, #16]	; (8006a08 <stm32__spi__data__2+0x28>)
 80069f6:	21b0      	movs	r1, #176	; 0xb0
 80069f8:	f7fa fdc0 	bl	800157c <__gnat_last_chance_handler>
 80069fc:	b2db      	uxtb	r3, r3
 80069fe:	bf00      	nop
 8006a00:	4618      	mov	r0, r3
 8006a02:	3708      	adds	r7, #8
 8006a04:	46bd      	mov	sp, r7
 8006a06:	bd80      	pop	{r7, pc}
 8006a08:	0800b870 	.word	0x0800b870

08006a0c <stm32__spi__is_busy>:
 8006a0c:	b580      	push	{r7, lr}
 8006a0e:	b082      	sub	sp, #8
 8006a10:	af00      	add	r7, sp, #0
 8006a12:	6078      	str	r0, [r7, #4]
 8006a14:	6878      	ldr	r0, [r7, #4]
 8006a16:	f000 f82d 	bl	8006a74 <stm32__spi__rx_is_empty>
 8006a1a:	4603      	mov	r3, r0
 8006a1c:	2b00      	cmp	r3, #0
 8006a1e:	d008      	beq.n	8006a32 <stm32__spi__is_busy+0x26>
 8006a20:	6878      	ldr	r0, [r7, #4]
 8006a22:	f000 f815 	bl	8006a50 <stm32__spi__tx_is_empty>
 8006a26:	4603      	mov	r3, r0
 8006a28:	f083 0301 	eor.w	r3, r3, #1
 8006a2c:	b2db      	uxtb	r3, r3
 8006a2e:	2b00      	cmp	r3, #0
 8006a30:	d105      	bne.n	8006a3e <stm32__spi__is_busy+0x32>
 8006a32:	6878      	ldr	r0, [r7, #4]
 8006a34:	f000 f834 	bl	8006aa0 <stm32__spi__busy>
 8006a38:	4603      	mov	r3, r0
 8006a3a:	2b00      	cmp	r3, #0
 8006a3c:	d001      	beq.n	8006a42 <stm32__spi__is_busy+0x36>
 8006a3e:	2301      	movs	r3, #1
 8006a40:	e000      	b.n	8006a44 <stm32__spi__is_busy+0x38>
 8006a42:	2300      	movs	r3, #0
 8006a44:	bf00      	nop
 8006a46:	4618      	mov	r0, r3
 8006a48:	3708      	adds	r7, #8
 8006a4a:	46bd      	mov	sp, r7
 8006a4c:	bd80      	pop	{r7, pc}
 8006a4e:	bf00      	nop

08006a50 <stm32__spi__tx_is_empty>:
 8006a50:	b480      	push	{r7}
 8006a52:	b083      	sub	sp, #12
 8006a54:	af00      	add	r7, sp, #0
 8006a56:	6078      	str	r0, [r7, #4]
 8006a58:	687b      	ldr	r3, [r7, #4]
 8006a5a:	685b      	ldr	r3, [r3, #4]
 8006a5c:	3308      	adds	r3, #8
 8006a5e:	681b      	ldr	r3, [r3, #0]
 8006a60:	f3c3 0340 	ubfx	r3, r3, #1, #1
 8006a64:	b2db      	uxtb	r3, r3
 8006a66:	bf00      	nop
 8006a68:	4618      	mov	r0, r3
 8006a6a:	370c      	adds	r7, #12
 8006a6c:	46bd      	mov	sp, r7
 8006a6e:	f85d 7b04 	ldr.w	r7, [sp], #4
 8006a72:	4770      	bx	lr

08006a74 <stm32__spi__rx_is_empty>:
 8006a74:	b480      	push	{r7}
 8006a76:	b083      	sub	sp, #12
 8006a78:	af00      	add	r7, sp, #0
 8006a7a:	6078      	str	r0, [r7, #4]
 8006a7c:	687b      	ldr	r3, [r7, #4]
 8006a7e:	685b      	ldr	r3, [r3, #4]
 8006a80:	3308      	adds	r3, #8
 8006a82:	681b      	ldr	r3, [r3, #0]
 8006a84:	f3c3 0300 	ubfx	r3, r3, #0, #1
 8006a88:	b2db      	uxtb	r3, r3
 8006a8a:	f083 0301 	eor.w	r3, r3, #1
 8006a8e:	b2db      	uxtb	r3, r3
 8006a90:	bf00      	nop
 8006a92:	4618      	mov	r0, r3
 8006a94:	370c      	adds	r7, #12
 8006a96:	46bd      	mov	sp, r7
 8006a98:	f85d 7b04 	ldr.w	r7, [sp], #4
 8006a9c:	4770      	bx	lr
 8006a9e:	bf00      	nop

08006aa0 <stm32__spi__busy>:
 8006aa0:	b480      	push	{r7}
 8006aa2:	b083      	sub	sp, #12
 8006aa4:	af00      	add	r7, sp, #0
 8006aa6:	6078      	str	r0, [r7, #4]
 8006aa8:	687b      	ldr	r3, [r7, #4]
 8006aaa:	685b      	ldr	r3, [r3, #4]
 8006aac:	3308      	adds	r3, #8
 8006aae:	681b      	ldr	r3, [r3, #0]
 8006ab0:	f3c3 13c0 	ubfx	r3, r3, #7, #1
 8006ab4:	b2db      	uxtb	r3, r3
 8006ab6:	bf00      	nop
 8006ab8:	4618      	mov	r0, r3
 8006aba:	370c      	adds	r7, #12
 8006abc:	46bd      	mov	sp, r7
 8006abe:	f85d 7b04 	ldr.w	r7, [sp], #4
 8006ac2:	4770      	bx	lr

08006ac4 <stm32__spi__current_mode>:
 8006ac4:	b480      	push	{r7}
 8006ac6:	b083      	sub	sp, #12
 8006ac8:	af00      	add	r7, sp, #0
 8006aca:	6078      	str	r0, [r7, #4]
 8006acc:	687b      	ldr	r3, [r7, #4]
 8006ace:	685b      	ldr	r3, [r3, #4]
 8006ad0:	681b      	ldr	r3, [r3, #0]
 8006ad2:	f3c3 0380 	ubfx	r3, r3, #2, #1
 8006ad6:	b2db      	uxtb	r3, r3
 8006ad8:	461a      	mov	r2, r3
 8006ada:	687b      	ldr	r3, [r7, #4]
 8006adc:	685b      	ldr	r3, [r3, #4]
 8006ade:	681b      	ldr	r3, [r3, #0]
 8006ae0:	f3c3 2300 	ubfx	r3, r3, #8, #1
 8006ae4:	b2db      	uxtb	r3, r3
 8006ae6:	4013      	ands	r3, r2
 8006ae8:	b2db      	uxtb	r3, r3
 8006aea:	2b00      	cmp	r3, #0
 8006aec:	d001      	beq.n	8006af2 <stm32__spi__current_mode+0x2e>
 8006aee:	2300      	movs	r3, #0
 8006af0:	e000      	b.n	8006af4 <stm32__spi__current_mode+0x30>
 8006af2:	2301      	movs	r3, #1
 8006af4:	bf00      	nop
 8006af6:	4618      	mov	r0, r3
 8006af8:	370c      	adds	r7, #12
 8006afa:	46bd      	mov	sp, r7
 8006afc:	f85d 7b04 	ldr.w	r7, [sp], #4
 8006b00:	4770      	bx	lr
 8006b02:	bf00      	nop

08006b04 <stm32__spi__current_data_direction>:
 8006b04:	b480      	push	{r7}
 8006b06:	b083      	sub	sp, #12
 8006b08:	af00      	add	r7, sp, #0
 8006b0a:	6078      	str	r0, [r7, #4]
 8006b0c:	687b      	ldr	r3, [r7, #4]
 8006b0e:	685b      	ldr	r3, [r3, #4]
 8006b10:	681b      	ldr	r3, [r3, #0]
 8006b12:	f3c3 33c0 	ubfx	r3, r3, #15, #1
 8006b16:	b2db      	uxtb	r3, r3
 8006b18:	f083 0301 	eor.w	r3, r3, #1
 8006b1c:	b2db      	uxtb	r3, r3
 8006b1e:	2b00      	cmp	r3, #0
 8006b20:	d00e      	beq.n	8006b40 <stm32__spi__current_data_direction+0x3c>
 8006b22:	687b      	ldr	r3, [r7, #4]
 8006b24:	685b      	ldr	r3, [r3, #4]
 8006b26:	681b      	ldr	r3, [r3, #0]
 8006b28:	f3c3 2380 	ubfx	r3, r3, #10, #1
 8006b2c:	b2db      	uxtb	r3, r3
 8006b2e:	f083 0301 	eor.w	r3, r3, #1
 8006b32:	b2db      	uxtb	r3, r3
 8006b34:	2b00      	cmp	r3, #0
 8006b36:	d001      	beq.n	8006b3c <stm32__spi__current_data_direction+0x38>
 8006b38:	2300      	movs	r3, #0
 8006b3a:	e00f      	b.n	8006b5c <stm32__spi__current_data_direction+0x58>
 8006b3c:	2301      	movs	r3, #1
 8006b3e:	e00d      	b.n	8006b5c <stm32__spi__current_data_direction+0x58>
 8006b40:	687b      	ldr	r3, [r7, #4]
 8006b42:	685b      	ldr	r3, [r3, #4]
 8006b44:	681b      	ldr	r3, [r3, #0]
 8006b46:	f3c3 3380 	ubfx	r3, r3, #14, #1
 8006b4a:	b2db      	uxtb	r3, r3
 8006b4c:	f083 0301 	eor.w	r3, r3, #1
 8006b50:	b2db      	uxtb	r3, r3
 8006b52:	2b00      	cmp	r3, #0
 8006b54:	d001      	beq.n	8006b5a <stm32__spi__current_data_direction+0x56>
 8006b56:	2302      	movs	r3, #2
 8006b58:	e000      	b.n	8006b5c <stm32__spi__current_data_direction+0x58>
 8006b5a:	2303      	movs	r3, #3
 8006b5c:	bf00      	nop
 8006b5e:	4618      	mov	r0, r3
 8006b60:	370c      	adds	r7, #12
 8006b62:	46bd      	mov	sp, r7
 8006b64:	f85d 7b04 	ldr.w	r7, [sp], #4
 8006b68:	4770      	bx	lr
 8006b6a:	bf00      	nop

08006b6c <stm32__spi__crc_enabled>:
 8006b6c:	b480      	push	{r7}
 8006b6e:	b083      	sub	sp, #12
 8006b70:	af00      	add	r7, sp, #0
 8006b72:	6078      	str	r0, [r7, #4]
 8006b74:	687b      	ldr	r3, [r7, #4]
 8006b76:	685b      	ldr	r3, [r3, #4]
 8006b78:	681b      	ldr	r3, [r3, #0]
 8006b7a:	f3c3 3340 	ubfx	r3, r3, #13, #1
 8006b7e:	b2db      	uxtb	r3, r3
 8006b80:	bf00      	nop
 8006b82:	4618      	mov	r0, r3
 8006b84:	370c      	adds	r7, #12
 8006b86:	46bd      	mov	sp, r7
 8006b88:	f85d 7b04 	ldr.w	r7, [sp], #4
 8006b8c:	4770      	bx	lr
 8006b8e:	bf00      	nop

08006b90 <stm32__spi__channel_side_indicated>:
 8006b90:	b480      	push	{r7}
 8006b92:	b083      	sub	sp, #12
 8006b94:	af00      	add	r7, sp, #0
 8006b96:	6078      	str	r0, [r7, #4]
 8006b98:	687b      	ldr	r3, [r7, #4]
 8006b9a:	685b      	ldr	r3, [r3, #4]
 8006b9c:	3308      	adds	r3, #8
 8006b9e:	681b      	ldr	r3, [r3, #0]
 8006ba0:	f3c3 0380 	ubfx	r3, r3, #2, #1
 8006ba4:	b2db      	uxtb	r3, r3
 8006ba6:	bf00      	nop
 8006ba8:	4618      	mov	r0, r3
 8006baa:	370c      	adds	r7, #12
 8006bac:	46bd      	mov	sp, r7
 8006bae:	f85d 7b04 	ldr.w	r7, [sp], #4
 8006bb2:	4770      	bx	lr

08006bb4 <stm32__spi__underrun_indicated>:
 8006bb4:	b480      	push	{r7}
 8006bb6:	b083      	sub	sp, #12
 8006bb8:	af00      	add	r7, sp, #0
 8006bba:	6078      	str	r0, [r7, #4]
 8006bbc:	687b      	ldr	r3, [r7, #4]
 8006bbe:	685b      	ldr	r3, [r3, #4]
 8006bc0:	3308      	adds	r3, #8
 8006bc2:	681b      	ldr	r3, [r3, #0]
 8006bc4:	f3c3 03c0 	ubfx	r3, r3, #3, #1
 8006bc8:	b2db      	uxtb	r3, r3
 8006bca:	bf00      	nop
 8006bcc:	4618      	mov	r0, r3
 8006bce:	370c      	adds	r7, #12
 8006bd0:	46bd      	mov	sp, r7
 8006bd2:	f85d 7b04 	ldr.w	r7, [sp], #4
 8006bd6:	4770      	bx	lr

08006bd8 <stm32__spi__crc_error_indicated>:
 8006bd8:	b480      	push	{r7}
 8006bda:	b083      	sub	sp, #12
 8006bdc:	af00      	add	r7, sp, #0
 8006bde:	6078      	str	r0, [r7, #4]
 8006be0:	687b      	ldr	r3, [r7, #4]
 8006be2:	685b      	ldr	r3, [r3, #4]
 8006be4:	3308      	adds	r3, #8
 8006be6:	681b      	ldr	r3, [r3, #0]
 8006be8:	f3c3 1300 	ubfx	r3, r3, #4, #1
 8006bec:	b2db      	uxtb	r3, r3
 8006bee:	bf00      	nop
 8006bf0:	4618      	mov	r0, r3
 8006bf2:	370c      	adds	r7, #12
 8006bf4:	46bd      	mov	sp, r7
 8006bf6:	f85d 7b04 	ldr.w	r7, [sp], #4
 8006bfa:	4770      	bx	lr

08006bfc <stm32__spi__mode_fault_indicated>:
 8006bfc:	b480      	push	{r7}
 8006bfe:	b083      	sub	sp, #12
 8006c00:	af00      	add	r7, sp, #0
 8006c02:	6078      	str	r0, [r7, #4]
 8006c04:	687b      	ldr	r3, [r7, #4]
 8006c06:	685b      	ldr	r3, [r3, #4]
 8006c08:	3308      	adds	r3, #8
 8006c0a:	681b      	ldr	r3, [r3, #0]
 8006c0c:	f3c3 1340 	ubfx	r3, r3, #5, #1
 8006c10:	b2db      	uxtb	r3, r3
 8006c12:	bf00      	nop
 8006c14:	4618      	mov	r0, r3
 8006c16:	370c      	adds	r7, #12
 8006c18:	46bd      	mov	sp, r7
 8006c1a:	f85d 7b04 	ldr.w	r7, [sp], #4
 8006c1e:	4770      	bx	lr

08006c20 <stm32__spi__overrun_indicated>:
 8006c20:	b480      	push	{r7}
 8006c22:	b083      	sub	sp, #12
 8006c24:	af00      	add	r7, sp, #0
 8006c26:	6078      	str	r0, [r7, #4]
 8006c28:	687b      	ldr	r3, [r7, #4]
 8006c2a:	685b      	ldr	r3, [r3, #4]
 8006c2c:	3308      	adds	r3, #8
 8006c2e:	681b      	ldr	r3, [r3, #0]
 8006c30:	f3c3 1380 	ubfx	r3, r3, #6, #1
 8006c34:	b2db      	uxtb	r3, r3
 8006c36:	bf00      	nop
 8006c38:	4618      	mov	r0, r3
 8006c3a:	370c      	adds	r7, #12
 8006c3c:	46bd      	mov	sp, r7
 8006c3e:	f85d 7b04 	ldr.w	r7, [sp], #4
 8006c42:	4770      	bx	lr

08006c44 <stm32__spi__frame_fmt_error_indicated>:
 8006c44:	b480      	push	{r7}
 8006c46:	b083      	sub	sp, #12
 8006c48:	af00      	add	r7, sp, #0
 8006c4a:	6078      	str	r0, [r7, #4]
 8006c4c:	2300      	movs	r3, #0
 8006c4e:	bf00      	nop
 8006c50:	4618      	mov	r0, r3
 8006c52:	370c      	adds	r7, #12
 8006c54:	46bd      	mov	sp, r7
 8006c56:	f85d 7b04 	ldr.w	r7, [sp], #4
 8006c5a:	4770      	bx	lr

08006c5c <stm32__spi__clear_overrun>:
 8006c5c:	b580      	push	{r7, lr}
 8006c5e:	b084      	sub	sp, #16
 8006c60:	af00      	add	r7, sp, #0
 8006c62:	6078      	str	r0, [r7, #4]
 8006c64:	f107 0308 	add.w	r3, r7, #8
 8006c68:	4618      	mov	r0, r3
 8006c6a:	f001 fc93 	bl	8008594 <stm32_svd__spi__sr_registerIP>
 8006c6e:	687b      	ldr	r3, [r7, #4]
 8006c70:	685b      	ldr	r3, [r3, #4]
 8006c72:	330c      	adds	r3, #12
 8006c74:	681b      	ldr	r3, [r3, #0]
 8006c76:	81fb      	strh	r3, [r7, #14]
 8006c78:	687b      	ldr	r3, [r7, #4]
 8006c7a:	685b      	ldr	r3, [r3, #4]
 8006c7c:	3308      	adds	r3, #8
 8006c7e:	681b      	ldr	r3, [r3, #0]
 8006c80:	60bb      	str	r3, [r7, #8]
 8006c82:	3710      	adds	r7, #16
 8006c84:	46bd      	mov	sp, r7
 8006c86:	bd80      	pop	{r7, pc}

08006c88 <stm32__spi__reset_crc>:
 8006c88:	b480      	push	{r7}
 8006c8a:	b083      	sub	sp, #12
 8006c8c:	af00      	add	r7, sp, #0
 8006c8e:	6078      	str	r0, [r7, #4]
 8006c90:	687b      	ldr	r3, [r7, #4]
 8006c92:	685b      	ldr	r3, [r3, #4]
 8006c94:	681b      	ldr	r3, [r3, #0]
 8006c96:	f36f 334d 	bfc	r3, #13, #1
 8006c9a:	687a      	ldr	r2, [r7, #4]
 8006c9c:	6852      	ldr	r2, [r2, #4]
 8006c9e:	6013      	str	r3, [r2, #0]
 8006ca0:	687b      	ldr	r3, [r7, #4]
 8006ca2:	685b      	ldr	r3, [r3, #4]
 8006ca4:	681b      	ldr	r3, [r3, #0]
 8006ca6:	461a      	mov	r2, r3
 8006ca8:	4613      	mov	r3, r2
 8006caa:	f443 5200 	orr.w	r2, r3, #8192	; 0x2000
 8006cae:	687b      	ldr	r3, [r7, #4]
 8006cb0:	685b      	ldr	r3, [r3, #4]
 8006cb2:	601a      	str	r2, [r3, #0]
 8006cb4:	370c      	adds	r7, #12
 8006cb6:	46bd      	mov	sp, r7
 8006cb8:	f85d 7b04 	ldr.w	r7, [sp], #4
 8006cbc:	4770      	bx	lr
 8006cbe:	bf00      	nop

08006cc0 <stm32__spi__is_data_frame_16bit>:
 8006cc0:	b480      	push	{r7}
 8006cc2:	b083      	sub	sp, #12
 8006cc4:	af00      	add	r7, sp, #0
 8006cc6:	6078      	str	r0, [r7, #4]
 8006cc8:	687b      	ldr	r3, [r7, #4]
 8006cca:	685b      	ldr	r3, [r3, #4]
 8006ccc:	681b      	ldr	r3, [r3, #0]
 8006cce:	f3c3 23c0 	ubfx	r3, r3, #11, #1
 8006cd2:	b2db      	uxtb	r3, r3
 8006cd4:	bf00      	nop
 8006cd6:	4618      	mov	r0, r3
 8006cd8:	370c      	adds	r7, #12
 8006cda:	46bd      	mov	sp, r7
 8006cdc:	f85d 7b04 	ldr.w	r7, [sp], #4
 8006ce0:	4770      	bx	lr
 8006ce2:	bf00      	nop

08006ce4 <stm32__spi__data_size>:
 8006ce4:	b480      	push	{r7}
 8006ce6:	b083      	sub	sp, #12
 8006ce8:	af00      	add	r7, sp, #0
 8006cea:	6078      	str	r0, [r7, #4]
 8006cec:	687b      	ldr	r3, [r7, #4]
 8006cee:	685b      	ldr	r3, [r3, #4]
 8006cf0:	681b      	ldr	r3, [r3, #0]
 8006cf2:	f3c3 23c0 	ubfx	r3, r3, #11, #1
 8006cf6:	b2db      	uxtb	r3, r3
 8006cf8:	2b00      	cmp	r3, #0
 8006cfa:	d001      	beq.n	8006d00 <stm32__spi__data_size+0x1c>
 8006cfc:	2301      	movs	r3, #1
 8006cfe:	e000      	b.n	8006d02 <stm32__spi__data_size+0x1e>
 8006d00:	2300      	movs	r3, #0
 8006d02:	bf00      	nop
 8006d04:	4618      	mov	r0, r3
 8006d06:	370c      	adds	r7, #12
 8006d08:	46bd      	mov	sp, r7
 8006d0a:	f85d 7b04 	ldr.w	r7, [sp], #4
 8006d0e:	4770      	bx	lr

08006d10 <stm32__spi__transmit>:
 8006d10:	b5b0      	push	{r4, r5, r7, lr}
 8006d12:	b086      	sub	sp, #24
 8006d14:	af00      	add	r7, sp, #0
 8006d16:	60f8      	str	r0, [r7, #12]
 8006d18:	e9c7 2300 	strd	r2, r3, [r7]
 8006d1c:	68f8      	ldr	r0, [r7, #12]
 8006d1e:	f7ff ffe1 	bl	8006ce4 <stm32__spi__data_size>
 8006d22:	4603      	mov	r3, r0
 8006d24:	2b00      	cmp	r3, #0
 8006d26:	d005      	beq.n	8006d34 <stm32__spi__transmit+0x24>
 8006d28:	4c2c      	ldr	r4, [pc, #176]	; (8006ddc <stm32__spi__transmit+0xcc>)
 8006d2a:	4d2d      	ldr	r5, [pc, #180]	; (8006de0 <stm32__spi__transmit+0xd0>)
 8006d2c:	4620      	mov	r0, r4
 8006d2e:	4629      	mov	r1, r5
 8006d30:	f002 ffa6 	bl	8009c80 <system__assertions__raise_assert_failure>
 8006d34:	68f8      	ldr	r0, [r7, #12]
 8006d36:	f7ff ff19 	bl	8006b6c <stm32__spi__crc_enabled>
 8006d3a:	4603      	mov	r3, r0
 8006d3c:	2b00      	cmp	r3, #0
 8006d3e:	d002      	beq.n	8006d46 <stm32__spi__transmit+0x36>
 8006d40:	68f8      	ldr	r0, [r7, #12]
 8006d42:	f7ff ffa1 	bl	8006c88 <stm32__spi__reset_crc>
 8006d46:	68f8      	ldr	r0, [r7, #12]
 8006d48:	f7ff fedc 	bl	8006b04 <stm32__spi__current_data_direction>
 8006d4c:	4603      	mov	r3, r0
 8006d4e:	2b03      	cmp	r3, #3
 8006d50:	d109      	bne.n	8006d66 <stm32__spi__transmit+0x56>
 8006d52:	68fb      	ldr	r3, [r7, #12]
 8006d54:	685b      	ldr	r3, [r3, #4]
 8006d56:	681b      	ldr	r3, [r3, #0]
 8006d58:	461a      	mov	r2, r3
 8006d5a:	4613      	mov	r3, r2
 8006d5c:	f443 4280 	orr.w	r2, r3, #16384	; 0x4000
 8006d60:	68fb      	ldr	r3, [r7, #12]
 8006d62:	685b      	ldr	r3, [r3, #4]
 8006d64:	601a      	str	r2, [r3, #0]
 8006d66:	68f8      	ldr	r0, [r7, #12]
 8006d68:	f7ff ff78 	bl	8006c5c <stm32__spi__clear_overrun>
 8006d6c:	68f8      	ldr	r0, [r7, #12]
 8006d6e:	f7ff fdef 	bl	8006950 <stm32__spi__enabled>
 8006d72:	4603      	mov	r3, r0
 8006d74:	f083 0301 	eor.w	r3, r3, #1
 8006d78:	b2db      	uxtb	r3, r3
 8006d7a:	2b00      	cmp	r3, #0
 8006d7c:	d002      	beq.n	8006d84 <stm32__spi__transmit+0x74>
 8006d7e:	68f8      	ldr	r0, [r7, #12]
 8006d80:	f7ff fdc0 	bl	8006904 <stm32__spi__enable>
 8006d84:	68f8      	ldr	r0, [r7, #12]
 8006d86:	e9d7 2300 	ldrd	r2, r3, [r7]
 8006d8a:	f000 ff2d 	bl	8007be8 <stm32__spi__send_8bit_mode>
 8006d8e:	68f8      	ldr	r0, [r7, #12]
 8006d90:	f7ff fe5e 	bl	8006a50 <stm32__spi__tx_is_empty>
 8006d94:	4603      	mov	r3, r0
 8006d96:	f083 0301 	eor.w	r3, r3, #1
 8006d9a:	b2db      	uxtb	r3, r3
 8006d9c:	2b00      	cmp	r3, #0
 8006d9e:	d001      	beq.n	8006da4 <stm32__spi__transmit+0x94>
 8006da0:	bf00      	nop
 8006da2:	e7f4      	b.n	8006d8e <stm32__spi__transmit+0x7e>
 8006da4:	68f8      	ldr	r0, [r7, #12]
 8006da6:	f7ff fe7b 	bl	8006aa0 <stm32__spi__busy>
 8006daa:	4603      	mov	r3, r0
 8006dac:	2b00      	cmp	r3, #0
 8006dae:	d001      	beq.n	8006db4 <stm32__spi__transmit+0xa4>
 8006db0:	bf00      	nop
 8006db2:	e7f7      	b.n	8006da4 <stm32__spi__transmit+0x94>
 8006db4:	68f8      	ldr	r0, [r7, #12]
 8006db6:	f7ff fea5 	bl	8006b04 <stm32__spi__current_data_direction>
 8006dba:	4603      	mov	r3, r0
 8006dbc:	2b01      	cmp	r3, #1
 8006dbe:	d001      	beq.n	8006dc4 <stm32__spi__transmit+0xb4>
 8006dc0:	2b00      	cmp	r3, #0
 8006dc2:	d102      	bne.n	8006dca <stm32__spi__transmit+0xba>
 8006dc4:	68f8      	ldr	r0, [r7, #12]
 8006dc6:	f7ff ff49 	bl	8006c5c <stm32__spi__clear_overrun>
 8006dca:	2300      	movs	r3, #0
 8006dcc:	75fb      	strb	r3, [r7, #23]
 8006dce:	7dfb      	ldrb	r3, [r7, #23]
 8006dd0:	bf00      	nop
 8006dd2:	4618      	mov	r0, r3
 8006dd4:	3718      	adds	r7, #24
 8006dd6:	46bd      	mov	sp, r7
 8006dd8:	bdb0      	pop	{r4, r5, r7, pc}
 8006dda:	bf00      	nop
 8006ddc:	0800b880 	.word	0x0800b880
 8006de0:	0800b8b4 	.word	0x0800b8b4

08006de4 <stm32__spi__transmit__2>:
 8006de4:	b5b0      	push	{r4, r5, r7, lr}
 8006de6:	b086      	sub	sp, #24
 8006de8:	af00      	add	r7, sp, #0
 8006dea:	60f8      	str	r0, [r7, #12]
 8006dec:	e9c7 2300 	strd	r2, r3, [r7]
 8006df0:	68f8      	ldr	r0, [r7, #12]
 8006df2:	f7ff ff77 	bl	8006ce4 <stm32__spi__data_size>
 8006df6:	4603      	mov	r3, r0
 8006df8:	2b01      	cmp	r3, #1
 8006dfa:	d005      	beq.n	8006e08 <stm32__spi__transmit__2+0x24>
 8006dfc:	4c2d      	ldr	r4, [pc, #180]	; (8006eb4 <stm32__spi__transmit__2+0xd0>)
 8006dfe:	4d2e      	ldr	r5, [pc, #184]	; (8006eb8 <stm32__spi__transmit__2+0xd4>)
 8006e00:	4620      	mov	r0, r4
 8006e02:	4629      	mov	r1, r5
 8006e04:	f002 ff3c 	bl	8009c80 <system__assertions__raise_assert_failure>
 8006e08:	68f8      	ldr	r0, [r7, #12]
 8006e0a:	f7ff feaf 	bl	8006b6c <stm32__spi__crc_enabled>
 8006e0e:	4603      	mov	r3, r0
 8006e10:	2b00      	cmp	r3, #0
 8006e12:	d002      	beq.n	8006e1a <stm32__spi__transmit__2+0x36>
 8006e14:	68f8      	ldr	r0, [r7, #12]
 8006e16:	f7ff ff37 	bl	8006c88 <stm32__spi__reset_crc>
 8006e1a:	68f8      	ldr	r0, [r7, #12]
 8006e1c:	f7ff fe72 	bl	8006b04 <stm32__spi__current_data_direction>
 8006e20:	4603      	mov	r3, r0
 8006e22:	2b03      	cmp	r3, #3
 8006e24:	d109      	bne.n	8006e3a <stm32__spi__transmit__2+0x56>
 8006e26:	68fb      	ldr	r3, [r7, #12]
 8006e28:	685b      	ldr	r3, [r3, #4]
 8006e2a:	681b      	ldr	r3, [r3, #0]
 8006e2c:	461a      	mov	r2, r3
 8006e2e:	4613      	mov	r3, r2
 8006e30:	f443 4280 	orr.w	r2, r3, #16384	; 0x4000
 8006e34:	68fb      	ldr	r3, [r7, #12]
 8006e36:	685b      	ldr	r3, [r3, #4]
 8006e38:	601a      	str	r2, [r3, #0]
 8006e3a:	68f8      	ldr	r0, [r7, #12]
 8006e3c:	f7ff ff0e 	bl	8006c5c <stm32__spi__clear_overrun>
 8006e40:	68f8      	ldr	r0, [r7, #12]
 8006e42:	f7ff fd85 	bl	8006950 <stm32__spi__enabled>
 8006e46:	4603      	mov	r3, r0
 8006e48:	f083 0301 	eor.w	r3, r3, #1
 8006e4c:	b2db      	uxtb	r3, r3
 8006e4e:	2b00      	cmp	r3, #0
 8006e50:	d002      	beq.n	8006e58 <stm32__spi__transmit__2+0x74>
 8006e52:	68f8      	ldr	r0, [r7, #12]
 8006e54:	f7ff fd56 	bl	8006904 <stm32__spi__enable>
 8006e58:	68f8      	ldr	r0, [r7, #12]
 8006e5a:	e9d7 2300 	ldrd	r2, r3, [r7]
 8006e5e:	f000 fdd5 	bl	8007a0c <stm32__spi__send_16bit_mode>
 8006e62:	68f8      	ldr	r0, [r7, #12]
 8006e64:	f7ff fdf4 	bl	8006a50 <stm32__spi__tx_is_empty>
 8006e68:	4603      	mov	r3, r0
 8006e6a:	f083 0301 	eor.w	r3, r3, #1
 8006e6e:	b2db      	uxtb	r3, r3
 8006e70:	2b00      	cmp	r3, #0
 8006e72:	d001      	beq.n	8006e78 <stm32__spi__transmit__2+0x94>
 8006e74:	bf00      	nop
 8006e76:	e7f4      	b.n	8006e62 <stm32__spi__transmit__2+0x7e>
 8006e78:	68f8      	ldr	r0, [r7, #12]
 8006e7a:	f7ff fe11 	bl	8006aa0 <stm32__spi__busy>
 8006e7e:	4603      	mov	r3, r0
 8006e80:	2b00      	cmp	r3, #0
 8006e82:	d001      	beq.n	8006e88 <stm32__spi__transmit__2+0xa4>
 8006e84:	bf00      	nop
 8006e86:	e7f7      	b.n	8006e78 <stm32__spi__transmit__2+0x94>
 8006e88:	68f8      	ldr	r0, [r7, #12]
 8006e8a:	f7ff fe3b 	bl	8006b04 <stm32__spi__current_data_direction>
 8006e8e:	4603      	mov	r3, r0
 8006e90:	2b01      	cmp	r3, #1
 8006e92:	d001      	beq.n	8006e98 <stm32__spi__transmit__2+0xb4>
 8006e94:	2b00      	cmp	r3, #0
 8006e96:	d104      	bne.n	8006ea2 <stm32__spi__transmit__2+0xbe>
 8006e98:	68f8      	ldr	r0, [r7, #12]
 8006e9a:	f7ff fedf 	bl	8006c5c <stm32__spi__clear_overrun>
 8006e9e:	2301      	movs	r3, #1
 8006ea0:	75fb      	strb	r3, [r7, #23]
 8006ea2:	2300      	movs	r3, #0
 8006ea4:	75fb      	strb	r3, [r7, #23]
 8006ea6:	7dfb      	ldrb	r3, [r7, #23]
 8006ea8:	bf00      	nop
 8006eaa:	4618      	mov	r0, r3
 8006eac:	3718      	adds	r7, #24
 8006eae:	46bd      	mov	sp, r7
 8006eb0:	bdb0      	pop	{r4, r5, r7, pc}
 8006eb2:	bf00      	nop
 8006eb4:	0800b8bc 	.word	0x0800b8bc
 8006eb8:	0800b8b4 	.word	0x0800b8b4

08006ebc <stm32__spi__transmit__3>:
 8006ebc:	b580      	push	{r7, lr}
 8006ebe:	b082      	sub	sp, #8
 8006ec0:	af00      	add	r7, sp, #0
 8006ec2:	6078      	str	r0, [r7, #4]
 8006ec4:	460b      	mov	r3, r1
 8006ec6:	70fb      	strb	r3, [r7, #3]
 8006ec8:	6878      	ldr	r0, [r7, #4]
 8006eca:	f7ff fe4f 	bl	8006b6c <stm32__spi__crc_enabled>
 8006ece:	4603      	mov	r3, r0
 8006ed0:	2b00      	cmp	r3, #0
 8006ed2:	d002      	beq.n	8006eda <stm32__spi__transmit__3+0x1e>
 8006ed4:	6878      	ldr	r0, [r7, #4]
 8006ed6:	f7ff fed7 	bl	8006c88 <stm32__spi__reset_crc>
 8006eda:	6878      	ldr	r0, [r7, #4]
 8006edc:	f7ff fe12 	bl	8006b04 <stm32__spi__current_data_direction>
 8006ee0:	4603      	mov	r3, r0
 8006ee2:	2b03      	cmp	r3, #3
 8006ee4:	d109      	bne.n	8006efa <stm32__spi__transmit__3+0x3e>
 8006ee6:	687b      	ldr	r3, [r7, #4]
 8006ee8:	685b      	ldr	r3, [r3, #4]
 8006eea:	681b      	ldr	r3, [r3, #0]
 8006eec:	461a      	mov	r2, r3
 8006eee:	4613      	mov	r3, r2
 8006ef0:	f443 4280 	orr.w	r2, r3, #16384	; 0x4000
 8006ef4:	687b      	ldr	r3, [r7, #4]
 8006ef6:	685b      	ldr	r3, [r3, #4]
 8006ef8:	601a      	str	r2, [r3, #0]
 8006efa:	6878      	ldr	r0, [r7, #4]
 8006efc:	f7ff fd28 	bl	8006950 <stm32__spi__enabled>
 8006f00:	4603      	mov	r3, r0
 8006f02:	f083 0301 	eor.w	r3, r3, #1
 8006f06:	b2db      	uxtb	r3, r3
 8006f08:	2b00      	cmp	r3, #0
 8006f0a:	d002      	beq.n	8006f12 <stm32__spi__transmit__3+0x56>
 8006f0c:	6878      	ldr	r0, [r7, #4]
 8006f0e:	f7ff fcf9 	bl	8006904 <stm32__spi__enable>
 8006f12:	687b      	ldr	r3, [r7, #4]
 8006f14:	685b      	ldr	r3, [r3, #4]
 8006f16:	330c      	adds	r3, #12
 8006f18:	681b      	ldr	r3, [r3, #0]
 8006f1a:	78fa      	ldrb	r2, [r7, #3]
 8006f1c:	b292      	uxth	r2, r2
 8006f1e:	f362 030f 	bfi	r3, r2, #0, #16
 8006f22:	687a      	ldr	r2, [r7, #4]
 8006f24:	6852      	ldr	r2, [r2, #4]
 8006f26:	320c      	adds	r2, #12
 8006f28:	6013      	str	r3, [r2, #0]
 8006f2a:	6878      	ldr	r0, [r7, #4]
 8006f2c:	f7ff fd90 	bl	8006a50 <stm32__spi__tx_is_empty>
 8006f30:	4603      	mov	r3, r0
 8006f32:	f083 0301 	eor.w	r3, r3, #1
 8006f36:	b2db      	uxtb	r3, r3
 8006f38:	2b00      	cmp	r3, #0
 8006f3a:	d001      	beq.n	8006f40 <stm32__spi__transmit__3+0x84>
 8006f3c:	bf00      	nop
 8006f3e:	e7f4      	b.n	8006f2a <stm32__spi__transmit__3+0x6e>
 8006f40:	6878      	ldr	r0, [r7, #4]
 8006f42:	f7ff fdad 	bl	8006aa0 <stm32__spi__busy>
 8006f46:	4603      	mov	r3, r0
 8006f48:	2b00      	cmp	r3, #0
 8006f4a:	d001      	beq.n	8006f50 <stm32__spi__transmit__3+0x94>
 8006f4c:	bf00      	nop
 8006f4e:	e7f7      	b.n	8006f40 <stm32__spi__transmit__3+0x84>
 8006f50:	6878      	ldr	r0, [r7, #4]
 8006f52:	f7ff fdd7 	bl	8006b04 <stm32__spi__current_data_direction>
 8006f56:	4603      	mov	r3, r0
 8006f58:	2b01      	cmp	r3, #1
 8006f5a:	d001      	beq.n	8006f60 <stm32__spi__transmit__3+0xa4>
 8006f5c:	2b00      	cmp	r3, #0
 8006f5e:	d102      	bne.n	8006f66 <stm32__spi__transmit__3+0xaa>
 8006f60:	6878      	ldr	r0, [r7, #4]
 8006f62:	f7ff fe7b 	bl	8006c5c <stm32__spi__clear_overrun>
 8006f66:	3708      	adds	r7, #8
 8006f68:	46bd      	mov	sp, r7
 8006f6a:	bd80      	pop	{r7, pc}

08006f6c <stm32__spi__receive>:
 8006f6c:	b5b0      	push	{r4, r5, r7, lr}
 8006f6e:	b086      	sub	sp, #24
 8006f70:	af00      	add	r7, sp, #0
 8006f72:	60f8      	str	r0, [r7, #12]
 8006f74:	e9c7 2300 	strd	r2, r3, [r7]
 8006f78:	68f8      	ldr	r0, [r7, #12]
 8006f7a:	f7ff feb3 	bl	8006ce4 <stm32__spi__data_size>
 8006f7e:	4603      	mov	r3, r0
 8006f80:	2b00      	cmp	r3, #0
 8006f82:	d005      	beq.n	8006f90 <stm32__spi__receive+0x24>
 8006f84:	4c20      	ldr	r4, [pc, #128]	; (8007008 <stm32__spi__receive+0x9c>)
 8006f86:	4d21      	ldr	r5, [pc, #132]	; (800700c <stm32__spi__receive+0xa0>)
 8006f88:	4620      	mov	r0, r4
 8006f8a:	4629      	mov	r1, r5
 8006f8c:	f002 fe78 	bl	8009c80 <system__assertions__raise_assert_failure>
 8006f90:	68f8      	ldr	r0, [r7, #12]
 8006f92:	f7ff fdeb 	bl	8006b6c <stm32__spi__crc_enabled>
 8006f96:	4603      	mov	r3, r0
 8006f98:	2b00      	cmp	r3, #0
 8006f9a:	d002      	beq.n	8006fa2 <stm32__spi__receive+0x36>
 8006f9c:	68f8      	ldr	r0, [r7, #12]
 8006f9e:	f7ff fe73 	bl	8006c88 <stm32__spi__reset_crc>
 8006fa2:	68f8      	ldr	r0, [r7, #12]
 8006fa4:	f7ff fcd4 	bl	8006950 <stm32__spi__enabled>
 8006fa8:	4603      	mov	r3, r0
 8006faa:	f083 0301 	eor.w	r3, r3, #1
 8006fae:	b2db      	uxtb	r3, r3
 8006fb0:	2b00      	cmp	r3, #0
 8006fb2:	d002      	beq.n	8006fba <stm32__spi__receive+0x4e>
 8006fb4:	68f8      	ldr	r0, [r7, #12]
 8006fb6:	f7ff fca5 	bl	8006904 <stm32__spi__enable>
 8006fba:	68f8      	ldr	r0, [r7, #12]
 8006fbc:	e9d7 2300 	ldrd	r2, r3, [r7]
 8006fc0:	f000 ff2c 	bl	8007e1c <stm32__spi__receive_8bit_mode>
 8006fc4:	68f8      	ldr	r0, [r7, #12]
 8006fc6:	f7ff fd6b 	bl	8006aa0 <stm32__spi__busy>
 8006fca:	4603      	mov	r3, r0
 8006fcc:	2b00      	cmp	r3, #0
 8006fce:	d001      	beq.n	8006fd4 <stm32__spi__receive+0x68>
 8006fd0:	bf00      	nop
 8006fd2:	e7f7      	b.n	8006fc4 <stm32__spi__receive+0x58>
 8006fd4:	68f8      	ldr	r0, [r7, #12]
 8006fd6:	f7ff fdc9 	bl	8006b6c <stm32__spi__crc_enabled>
 8006fda:	4603      	mov	r3, r0
 8006fdc:	461c      	mov	r4, r3
 8006fde:	68f8      	ldr	r0, [r7, #12]
 8006fe0:	f7ff fdfa 	bl	8006bd8 <stm32__spi__crc_error_indicated>
 8006fe4:	4603      	mov	r3, r0
 8006fe6:	4023      	ands	r3, r4
 8006fe8:	b2db      	uxtb	r3, r3
 8006fea:	2b00      	cmp	r3, #0
 8006fec:	d004      	beq.n	8006ff8 <stm32__spi__receive+0x8c>
 8006fee:	68f8      	ldr	r0, [r7, #12]
 8006ff0:	f7ff fe4a 	bl	8006c88 <stm32__spi__reset_crc>
 8006ff4:	2301      	movs	r3, #1
 8006ff6:	75fb      	strb	r3, [r7, #23]
 8006ff8:	2300      	movs	r3, #0
 8006ffa:	75fb      	strb	r3, [r7, #23]
 8006ffc:	7dfb      	ldrb	r3, [r7, #23]
 8006ffe:	bf00      	nop
 8007000:	4618      	mov	r0, r3
 8007002:	3718      	adds	r7, #24
 8007004:	46bd      	mov	sp, r7
 8007006:	bdb0      	pop	{r4, r5, r7, pc}
 8007008:	0800b8f0 	.word	0x0800b8f0
 800700c:	0800b8b4 	.word	0x0800b8b4

08007010 <stm32__spi__receive__2>:
 8007010:	b5b0      	push	{r4, r5, r7, lr}
 8007012:	b086      	sub	sp, #24
 8007014:	af00      	add	r7, sp, #0
 8007016:	60f8      	str	r0, [r7, #12]
 8007018:	e9c7 2300 	strd	r2, r3, [r7]
 800701c:	68f8      	ldr	r0, [r7, #12]
 800701e:	f7ff fe61 	bl	8006ce4 <stm32__spi__data_size>
 8007022:	4603      	mov	r3, r0
 8007024:	2b01      	cmp	r3, #1
 8007026:	d005      	beq.n	8007034 <stm32__spi__receive__2+0x24>
 8007028:	4c20      	ldr	r4, [pc, #128]	; (80070ac <stm32__spi__receive__2+0x9c>)
 800702a:	4d21      	ldr	r5, [pc, #132]	; (80070b0 <stm32__spi__receive__2+0xa0>)
 800702c:	4620      	mov	r0, r4
 800702e:	4629      	mov	r1, r5
 8007030:	f002 fe26 	bl	8009c80 <system__assertions__raise_assert_failure>
 8007034:	68f8      	ldr	r0, [r7, #12]
 8007036:	f7ff fd99 	bl	8006b6c <stm32__spi__crc_enabled>
 800703a:	4603      	mov	r3, r0
 800703c:	2b00      	cmp	r3, #0
 800703e:	d002      	beq.n	8007046 <stm32__spi__receive__2+0x36>
 8007040:	68f8      	ldr	r0, [r7, #12]
 8007042:	f7ff fe21 	bl	8006c88 <stm32__spi__reset_crc>
 8007046:	68f8      	ldr	r0, [r7, #12]
 8007048:	f7ff fc82 	bl	8006950 <stm32__spi__enabled>
 800704c:	4603      	mov	r3, r0
 800704e:	f083 0301 	eor.w	r3, r3, #1
 8007052:	b2db      	uxtb	r3, r3
 8007054:	2b00      	cmp	r3, #0
 8007056:	d002      	beq.n	800705e <stm32__spi__receive__2+0x4e>
 8007058:	68f8      	ldr	r0, [r7, #12]
 800705a:	f7ff fc53 	bl	8006904 <stm32__spi__enable>
 800705e:	68f8      	ldr	r0, [r7, #12]
 8007060:	e9d7 2300 	ldrd	r2, r3, [r7]
 8007064:	f000 fe92 	bl	8007d8c <stm32__spi__receive_16bit_mode>
 8007068:	68f8      	ldr	r0, [r7, #12]
 800706a:	f7ff fd19 	bl	8006aa0 <stm32__spi__busy>
 800706e:	4603      	mov	r3, r0
 8007070:	2b00      	cmp	r3, #0
 8007072:	d001      	beq.n	8007078 <stm32__spi__receive__2+0x68>
 8007074:	bf00      	nop
 8007076:	e7f7      	b.n	8007068 <stm32__spi__receive__2+0x58>
 8007078:	68f8      	ldr	r0, [r7, #12]
 800707a:	f7ff fd77 	bl	8006b6c <stm32__spi__crc_enabled>
 800707e:	4603      	mov	r3, r0
 8007080:	461c      	mov	r4, r3
 8007082:	68f8      	ldr	r0, [r7, #12]
 8007084:	f7ff fda8 	bl	8006bd8 <stm32__spi__crc_error_indicated>
 8007088:	4603      	mov	r3, r0
 800708a:	4023      	ands	r3, r4
 800708c:	b2db      	uxtb	r3, r3
 800708e:	2b00      	cmp	r3, #0
 8007090:	d004      	beq.n	800709c <stm32__spi__receive__2+0x8c>
 8007092:	68f8      	ldr	r0, [r7, #12]
 8007094:	f7ff fdf8 	bl	8006c88 <stm32__spi__reset_crc>
 8007098:	2301      	movs	r3, #1
 800709a:	75fb      	strb	r3, [r7, #23]
 800709c:	2300      	movs	r3, #0
 800709e:	75fb      	strb	r3, [r7, #23]
 80070a0:	7dfb      	ldrb	r3, [r7, #23]
 80070a2:	bf00      	nop
 80070a4:	4618      	mov	r0, r3
 80070a6:	3718      	adds	r7, #24
 80070a8:	46bd      	mov	sp, r7
 80070aa:	bdb0      	pop	{r4, r5, r7, pc}
 80070ac:	0800b924 	.word	0x0800b924
 80070b0:	0800b8b4 	.word	0x0800b8b4

080070b4 <stm32__spi__receive__3>:
 80070b4:	b590      	push	{r4, r7, lr}
 80070b6:	b085      	sub	sp, #20
 80070b8:	af00      	add	r7, sp, #0
 80070ba:	6078      	str	r0, [r7, #4]
 80070bc:	6878      	ldr	r0, [r7, #4]
 80070be:	f7ff fd55 	bl	8006b6c <stm32__spi__crc_enabled>
 80070c2:	4603      	mov	r3, r0
 80070c4:	2b00      	cmp	r3, #0
 80070c6:	d002      	beq.n	80070ce <stm32__spi__receive__3+0x1a>
 80070c8:	6878      	ldr	r0, [r7, #4]
 80070ca:	f7ff fddd 	bl	8006c88 <stm32__spi__reset_crc>
 80070ce:	6878      	ldr	r0, [r7, #4]
 80070d0:	f7ff fc3e 	bl	8006950 <stm32__spi__enabled>
 80070d4:	4603      	mov	r3, r0
 80070d6:	f083 0301 	eor.w	r3, r3, #1
 80070da:	b2db      	uxtb	r3, r3
 80070dc:	2b00      	cmp	r3, #0
 80070de:	d002      	beq.n	80070e6 <stm32__spi__receive__3+0x32>
 80070e0:	6878      	ldr	r0, [r7, #4]
 80070e2:	f7ff fc0f 	bl	8006904 <stm32__spi__enable>
 80070e6:	687b      	ldr	r3, [r7, #4]
 80070e8:	685b      	ldr	r3, [r3, #4]
 80070ea:	330c      	adds	r3, #12
 80070ec:	681b      	ldr	r3, [r3, #0]
 80070ee:	f36f 030f 	bfc	r3, #0, #16
 80070f2:	687a      	ldr	r2, [r7, #4]
 80070f4:	6852      	ldr	r2, [r2, #4]
 80070f6:	320c      	adds	r2, #12
 80070f8:	6013      	str	r3, [r2, #0]
 80070fa:	6878      	ldr	r0, [r7, #4]
 80070fc:	f7ff fcba 	bl	8006a74 <stm32__spi__rx_is_empty>
 8007100:	4603      	mov	r3, r0
 8007102:	2b00      	cmp	r3, #0
 8007104:	d001      	beq.n	800710a <stm32__spi__receive__3+0x56>
 8007106:	bf00      	nop
 8007108:	e7f7      	b.n	80070fa <stm32__spi__receive__3+0x46>
 800710a:	687b      	ldr	r3, [r7, #4]
 800710c:	685b      	ldr	r3, [r3, #4]
 800710e:	330c      	adds	r3, #12
 8007110:	681b      	ldr	r3, [r3, #0]
 8007112:	b29b      	uxth	r3, r3
 8007114:	2bff      	cmp	r3, #255	; 0xff
 8007116:	d904      	bls.n	8007122 <stm32__spi__receive__3+0x6e>
 8007118:	481b      	ldr	r0, [pc, #108]	; (8007188 <stm32__spi__receive__3+0xd4>)
 800711a:	f240 2141 	movw	r1, #577	; 0x241
 800711e:	f7fa fa2d 	bl	800157c <__gnat_last_chance_handler>
 8007122:	b2db      	uxtb	r3, r3
 8007124:	737b      	strb	r3, [r7, #13]
 8007126:	6878      	ldr	r0, [r7, #4]
 8007128:	f7ff fd20 	bl	8006b6c <stm32__spi__crc_enabled>
 800712c:	4603      	mov	r3, r0
 800712e:	2b00      	cmp	r3, #0
 8007130:	d00c      	beq.n	800714c <stm32__spi__receive__3+0x98>
 8007132:	6878      	ldr	r0, [r7, #4]
 8007134:	f7ff fc9e 	bl	8006a74 <stm32__spi__rx_is_empty>
 8007138:	4603      	mov	r3, r0
 800713a:	2b00      	cmp	r3, #0
 800713c:	d001      	beq.n	8007142 <stm32__spi__receive__3+0x8e>
 800713e:	bf00      	nop
 8007140:	e7f7      	b.n	8007132 <stm32__spi__receive__3+0x7e>
 8007142:	687b      	ldr	r3, [r7, #4]
 8007144:	685b      	ldr	r3, [r3, #4]
 8007146:	330c      	adds	r3, #12
 8007148:	681b      	ldr	r3, [r3, #0]
 800714a:	81fb      	strh	r3, [r7, #14]
 800714c:	6878      	ldr	r0, [r7, #4]
 800714e:	f7ff fca7 	bl	8006aa0 <stm32__spi__busy>
 8007152:	4603      	mov	r3, r0
 8007154:	2b00      	cmp	r3, #0
 8007156:	d001      	beq.n	800715c <stm32__spi__receive__3+0xa8>
 8007158:	bf00      	nop
 800715a:	e7f7      	b.n	800714c <stm32__spi__receive__3+0x98>
 800715c:	6878      	ldr	r0, [r7, #4]
 800715e:	f7ff fd05 	bl	8006b6c <stm32__spi__crc_enabled>
 8007162:	4603      	mov	r3, r0
 8007164:	461c      	mov	r4, r3
 8007166:	6878      	ldr	r0, [r7, #4]
 8007168:	f7ff fd36 	bl	8006bd8 <stm32__spi__crc_error_indicated>
 800716c:	4603      	mov	r3, r0
 800716e:	4023      	ands	r3, r4
 8007170:	b2db      	uxtb	r3, r3
 8007172:	2b00      	cmp	r3, #0
 8007174:	d002      	beq.n	800717c <stm32__spi__receive__3+0xc8>
 8007176:	6878      	ldr	r0, [r7, #4]
 8007178:	f7ff fd86 	bl	8006c88 <stm32__spi__reset_crc>
 800717c:	7b7b      	ldrb	r3, [r7, #13]
 800717e:	bf00      	nop
 8007180:	4618      	mov	r0, r3
 8007182:	3714      	adds	r7, #20
 8007184:	46bd      	mov	sp, r7
 8007186:	bd90      	pop	{r4, r7, pc}
 8007188:	0800b870 	.word	0x0800b870

0800718c <stm32__spi__transmit_receive>:
 800718c:	b590      	push	{r4, r7, lr}
 800718e:	b08f      	sub	sp, #60	; 0x3c
 8007190:	af04      	add	r7, sp, #16
 8007192:	60f8      	str	r0, [r7, #12]
 8007194:	e9c7 2300 	strd	r2, r3, [r7]
 8007198:	687b      	ldr	r3, [r7, #4]
 800719a:	681b      	ldr	r3, [r3, #0]
 800719c:	687a      	ldr	r2, [r7, #4]
 800719e:	6852      	ldr	r2, [r2, #4]
 80071a0:	6bf9      	ldr	r1, [r7, #60]	; 0x3c
 80071a2:	6809      	ldr	r1, [r1, #0]
 80071a4:	6279      	str	r1, [r7, #36]	; 0x24
 80071a6:	6bf9      	ldr	r1, [r7, #60]	; 0x3c
 80071a8:	6848      	ldr	r0, [r1, #4]
 80071aa:	6bf9      	ldr	r1, [r7, #60]	; 0x3c
 80071ac:	6809      	ldr	r1, [r1, #0]
 80071ae:	4288      	cmp	r0, r1
 80071b0:	db03      	blt.n	80071ba <stm32__spi__transmit_receive+0x2e>
 80071b2:	6bf9      	ldr	r1, [r7, #60]	; 0x3c
 80071b4:	6849      	ldr	r1, [r1, #4]
 80071b6:	6239      	str	r1, [r7, #32]
 80071b8:	e003      	b.n	80071c2 <stm32__spi__transmit_receive+0x36>
 80071ba:	6bf9      	ldr	r1, [r7, #60]	; 0x3c
 80071bc:	6809      	ldr	r1, [r1, #0]
 80071be:	3901      	subs	r1, #1
 80071c0:	6239      	str	r1, [r7, #32]
 80071c2:	61fb      	str	r3, [r7, #28]
 80071c4:	429a      	cmp	r2, r3
 80071c6:	db01      	blt.n	80071cc <stm32__spi__transmit_receive+0x40>
 80071c8:	61ba      	str	r2, [r7, #24]
 80071ca:	e001      	b.n	80071d0 <stm32__spi__transmit_receive+0x44>
 80071cc:	3b01      	subs	r3, #1
 80071ce:	61bb      	str	r3, [r7, #24]
 80071d0:	68f8      	ldr	r0, [r7, #12]
 80071d2:	f7ff fccb 	bl	8006b6c <stm32__spi__crc_enabled>
 80071d6:	4603      	mov	r3, r0
 80071d8:	2b00      	cmp	r3, #0
 80071da:	d002      	beq.n	80071e2 <stm32__spi__transmit_receive+0x56>
 80071dc:	68f8      	ldr	r0, [r7, #12]
 80071de:	f7ff fd53 	bl	8006c88 <stm32__spi__reset_crc>
 80071e2:	68f8      	ldr	r0, [r7, #12]
 80071e4:	f7ff fbb4 	bl	8006950 <stm32__spi__enabled>
 80071e8:	4603      	mov	r3, r0
 80071ea:	f083 0301 	eor.w	r3, r3, #1
 80071ee:	b2db      	uxtb	r3, r3
 80071f0:	2b00      	cmp	r3, #0
 80071f2:	d002      	beq.n	80071fa <stm32__spi__transmit_receive+0x6e>
 80071f4:	68f8      	ldr	r0, [r7, #12]
 80071f6:	f7ff fb85 	bl	8006904 <stm32__spi__enable>
 80071fa:	68f8      	ldr	r0, [r7, #12]
 80071fc:	f7ff fd60 	bl	8006cc0 <stm32__spi__is_data_frame_16bit>
 8007200:	4603      	mov	r3, r0
 8007202:	2b00      	cmp	r3, #0
 8007204:	d00b      	beq.n	800721e <stm32__spi__transmit_receive+0x92>
 8007206:	e9d7 340e 	ldrd	r3, r4, [r7, #56]	; 0x38
 800720a:	e9cd 3400 	strd	r3, r4, [sp]
 800720e:	6c3b      	ldr	r3, [r7, #64]	; 0x40
 8007210:	9302      	str	r3, [sp, #8]
 8007212:	68f8      	ldr	r0, [r7, #12]
 8007214:	e9d7 2300 	ldrd	r2, r3, [r7]
 8007218:	f000 f8c6 	bl	80073a8 <stm32__spi__send_receive_16bit_mode>
 800721c:	e00a      	b.n	8007234 <stm32__spi__transmit_receive+0xa8>
 800721e:	e9d7 340e 	ldrd	r3, r4, [r7, #56]	; 0x38
 8007222:	e9cd 3400 	strd	r3, r4, [sp]
 8007226:	6c3b      	ldr	r3, [r7, #64]	; 0x40
 8007228:	9302      	str	r3, [sp, #8]
 800722a:	68f8      	ldr	r0, [r7, #12]
 800722c:	e9d7 2300 	ldrd	r2, r3, [r7]
 8007230:	f000 fa64 	bl	80076fc <stm32__spi__send_receive_8bit_mode>
 8007234:	68f8      	ldr	r0, [r7, #12]
 8007236:	f7ff fc99 	bl	8006b6c <stm32__spi__crc_enabled>
 800723a:	4603      	mov	r3, r0
 800723c:	2b00      	cmp	r3, #0
 800723e:	d00c      	beq.n	800725a <stm32__spi__transmit_receive+0xce>
 8007240:	68f8      	ldr	r0, [r7, #12]
 8007242:	f7ff fc17 	bl	8006a74 <stm32__spi__rx_is_empty>
 8007246:	4603      	mov	r3, r0
 8007248:	2b00      	cmp	r3, #0
 800724a:	d001      	beq.n	8007250 <stm32__spi__transmit_receive+0xc4>
 800724c:	bf00      	nop
 800724e:	e7f7      	b.n	8007240 <stm32__spi__transmit_receive+0xb4>
 8007250:	68fb      	ldr	r3, [r7, #12]
 8007252:	685b      	ldr	r3, [r3, #4]
 8007254:	330c      	adds	r3, #12
 8007256:	681b      	ldr	r3, [r3, #0]
 8007258:	82fb      	strh	r3, [r7, #22]
 800725a:	68f8      	ldr	r0, [r7, #12]
 800725c:	f7ff fc20 	bl	8006aa0 <stm32__spi__busy>
 8007260:	4603      	mov	r3, r0
 8007262:	2b00      	cmp	r3, #0
 8007264:	d001      	beq.n	800726a <stm32__spi__transmit_receive+0xde>
 8007266:	bf00      	nop
 8007268:	e7f7      	b.n	800725a <stm32__spi__transmit_receive+0xce>
 800726a:	68f8      	ldr	r0, [r7, #12]
 800726c:	f7ff fc7e 	bl	8006b6c <stm32__spi__crc_enabled>
 8007270:	4603      	mov	r3, r0
 8007272:	461c      	mov	r4, r3
 8007274:	68f8      	ldr	r0, [r7, #12]
 8007276:	f7ff fcaf 	bl	8006bd8 <stm32__spi__crc_error_indicated>
 800727a:	4603      	mov	r3, r0
 800727c:	4023      	ands	r3, r4
 800727e:	b2db      	uxtb	r3, r3
 8007280:	2b00      	cmp	r3, #0
 8007282:	d002      	beq.n	800728a <stm32__spi__transmit_receive+0xfe>
 8007284:	68f8      	ldr	r0, [r7, #12]
 8007286:	f7ff fcff 	bl	8006c88 <stm32__spi__reset_crc>
 800728a:	372c      	adds	r7, #44	; 0x2c
 800728c:	46bd      	mov	sp, r7
 800728e:	bd90      	pop	{r4, r7, pc}

08007290 <stm32__spi__transmit_receive__2>:
 8007290:	b590      	push	{r4, r7, lr}
 8007292:	b085      	sub	sp, #20
 8007294:	af00      	add	r7, sp, #0
 8007296:	6078      	str	r0, [r7, #4]
 8007298:	460b      	mov	r3, r1
 800729a:	70fb      	strb	r3, [r7, #3]
 800729c:	6878      	ldr	r0, [r7, #4]
 800729e:	f7ff fc65 	bl	8006b6c <stm32__spi__crc_enabled>
 80072a2:	4603      	mov	r3, r0
 80072a4:	2b00      	cmp	r3, #0
 80072a6:	d002      	beq.n	80072ae <stm32__spi__transmit_receive__2+0x1e>
 80072a8:	6878      	ldr	r0, [r7, #4]
 80072aa:	f7ff fced 	bl	8006c88 <stm32__spi__reset_crc>
 80072ae:	6878      	ldr	r0, [r7, #4]
 80072b0:	f7ff fb4e 	bl	8006950 <stm32__spi__enabled>
 80072b4:	4603      	mov	r3, r0
 80072b6:	f083 0301 	eor.w	r3, r3, #1
 80072ba:	b2db      	uxtb	r3, r3
 80072bc:	2b00      	cmp	r3, #0
 80072be:	d002      	beq.n	80072c6 <stm32__spi__transmit_receive__2+0x36>
 80072c0:	6878      	ldr	r0, [r7, #4]
 80072c2:	f7ff fb1f 	bl	8006904 <stm32__spi__enable>
 80072c6:	6878      	ldr	r0, [r7, #4]
 80072c8:	f7ff fcfa 	bl	8006cc0 <stm32__spi__is_data_frame_16bit>
 80072cc:	4603      	mov	r3, r0
 80072ce:	2b00      	cmp	r3, #0
 80072d0:	d004      	beq.n	80072dc <stm32__spi__transmit_receive__2+0x4c>
 80072d2:	4834      	ldr	r0, [pc, #208]	; (80073a4 <stm32__spi__transmit_receive__2+0x114>)
 80072d4:	f240 2199 	movw	r1, #665	; 0x299
 80072d8:	f7fa f950 	bl	800157c <__gnat_last_chance_handler>
 80072dc:	687b      	ldr	r3, [r7, #4]
 80072de:	685b      	ldr	r3, [r3, #4]
 80072e0:	330c      	adds	r3, #12
 80072e2:	681b      	ldr	r3, [r3, #0]
 80072e4:	78fa      	ldrb	r2, [r7, #3]
 80072e6:	b292      	uxth	r2, r2
 80072e8:	f362 030f 	bfi	r3, r2, #0, #16
 80072ec:	687a      	ldr	r2, [r7, #4]
 80072ee:	6852      	ldr	r2, [r2, #4]
 80072f0:	320c      	adds	r2, #12
 80072f2:	6013      	str	r3, [r2, #0]
 80072f4:	6878      	ldr	r0, [r7, #4]
 80072f6:	f7ff fc39 	bl	8006b6c <stm32__spi__crc_enabled>
 80072fa:	4603      	mov	r3, r0
 80072fc:	2b00      	cmp	r3, #0
 80072fe:	d009      	beq.n	8007314 <stm32__spi__transmit_receive__2+0x84>
 8007300:	687b      	ldr	r3, [r7, #4]
 8007302:	685b      	ldr	r3, [r3, #4]
 8007304:	681b      	ldr	r3, [r3, #0]
 8007306:	461a      	mov	r2, r3
 8007308:	4613      	mov	r3, r2
 800730a:	f443 5280 	orr.w	r2, r3, #4096	; 0x1000
 800730e:	687b      	ldr	r3, [r7, #4]
 8007310:	685b      	ldr	r3, [r3, #4]
 8007312:	601a      	str	r2, [r3, #0]
 8007314:	6878      	ldr	r0, [r7, #4]
 8007316:	f7ff fbad 	bl	8006a74 <stm32__spi__rx_is_empty>
 800731a:	4603      	mov	r3, r0
 800731c:	2b00      	cmp	r3, #0
 800731e:	d001      	beq.n	8007324 <stm32__spi__transmit_receive__2+0x94>
 8007320:	bf00      	nop
 8007322:	e7f7      	b.n	8007314 <stm32__spi__transmit_receive__2+0x84>
 8007324:	687b      	ldr	r3, [r7, #4]
 8007326:	685b      	ldr	r3, [r3, #4]
 8007328:	330c      	adds	r3, #12
 800732a:	681b      	ldr	r3, [r3, #0]
 800732c:	b29b      	uxth	r3, r3
 800732e:	2bff      	cmp	r3, #255	; 0xff
 8007330:	d904      	bls.n	800733c <stm32__spi__transmit_receive__2+0xac>
 8007332:	481c      	ldr	r0, [pc, #112]	; (80073a4 <stm32__spi__transmit_receive__2+0x114>)
 8007334:	f44f 712a 	mov.w	r1, #680	; 0x2a8
 8007338:	f7fa f920 	bl	800157c <__gnat_last_chance_handler>
 800733c:	b2db      	uxtb	r3, r3
 800733e:	737b      	strb	r3, [r7, #13]
 8007340:	6878      	ldr	r0, [r7, #4]
 8007342:	f7ff fc13 	bl	8006b6c <stm32__spi__crc_enabled>
 8007346:	4603      	mov	r3, r0
 8007348:	2b00      	cmp	r3, #0
 800734a:	d00c      	beq.n	8007366 <stm32__spi__transmit_receive__2+0xd6>
 800734c:	6878      	ldr	r0, [r7, #4]
 800734e:	f7ff fb91 	bl	8006a74 <stm32__spi__rx_is_empty>
 8007352:	4603      	mov	r3, r0
 8007354:	2b00      	cmp	r3, #0
 8007356:	d001      	beq.n	800735c <stm32__spi__transmit_receive__2+0xcc>
 8007358:	bf00      	nop
 800735a:	e7f7      	b.n	800734c <stm32__spi__transmit_receive__2+0xbc>
 800735c:	687b      	ldr	r3, [r7, #4]
 800735e:	685b      	ldr	r3, [r3, #4]
 8007360:	330c      	adds	r3, #12
 8007362:	681b      	ldr	r3, [r3, #0]
 8007364:	81fb      	strh	r3, [r7, #14]
 8007366:	6878      	ldr	r0, [r7, #4]
 8007368:	f7ff fb9a 	bl	8006aa0 <stm32__spi__busy>
 800736c:	4603      	mov	r3, r0
 800736e:	2b00      	cmp	r3, #0
 8007370:	d001      	beq.n	8007376 <stm32__spi__transmit_receive__2+0xe6>
 8007372:	bf00      	nop
 8007374:	e7f7      	b.n	8007366 <stm32__spi__transmit_receive__2+0xd6>
 8007376:	6878      	ldr	r0, [r7, #4]
 8007378:	f7ff fbf8 	bl	8006b6c <stm32__spi__crc_enabled>
 800737c:	4603      	mov	r3, r0
 800737e:	461c      	mov	r4, r3
 8007380:	6878      	ldr	r0, [r7, #4]
 8007382:	f7ff fc29 	bl	8006bd8 <stm32__spi__crc_error_indicated>
 8007386:	4603      	mov	r3, r0
 8007388:	4023      	ands	r3, r4
 800738a:	b2db      	uxtb	r3, r3
 800738c:	2b00      	cmp	r3, #0
 800738e:	d002      	beq.n	8007396 <stm32__spi__transmit_receive__2+0x106>
 8007390:	6878      	ldr	r0, [r7, #4]
 8007392:	f7ff fc79 	bl	8006c88 <stm32__spi__reset_crc>
 8007396:	7b7b      	ldrb	r3, [r7, #13]
 8007398:	bf00      	nop
 800739a:	4618      	mov	r0, r3
 800739c:	3714      	adds	r7, #20
 800739e:	46bd      	mov	sp, r7
 80073a0:	bd90      	pop	{r4, r7, pc}
 80073a2:	bf00      	nop
 80073a4:	0800b870 	.word	0x0800b870

080073a8 <stm32__spi__send_receive_16bit_mode>:
 80073a8:	b5f0      	push	{r4, r5, r6, r7, lr}
 80073aa:	b08d      	sub	sp, #52	; 0x34
 80073ac:	af00      	add	r7, sp, #0
 80073ae:	60f8      	str	r0, [r7, #12]
 80073b0:	e9c7 2300 	strd	r2, r3, [r7]
 80073b4:	687b      	ldr	r3, [r7, #4]
 80073b6:	681c      	ldr	r4, [r3, #0]
 80073b8:	687b      	ldr	r3, [r7, #4]
 80073ba:	685d      	ldr	r5, [r3, #4]
 80073bc:	6cfb      	ldr	r3, [r7, #76]	; 0x4c
 80073be:	681b      	ldr	r3, [r3, #0]
 80073c0:	623b      	str	r3, [r7, #32]
 80073c2:	6cfb      	ldr	r3, [r7, #76]	; 0x4c
 80073c4:	685a      	ldr	r2, [r3, #4]
 80073c6:	6cfb      	ldr	r3, [r7, #76]	; 0x4c
 80073c8:	681b      	ldr	r3, [r3, #0]
 80073ca:	429a      	cmp	r2, r3
 80073cc:	db03      	blt.n	80073d6 <stm32__spi__send_receive_16bit_mode+0x2e>
 80073ce:	6cfb      	ldr	r3, [r7, #76]	; 0x4c
 80073d0:	685b      	ldr	r3, [r3, #4]
 80073d2:	61fb      	str	r3, [r7, #28]
 80073d4:	e003      	b.n	80073de <stm32__spi__send_receive_16bit_mode+0x36>
 80073d6:	6cfb      	ldr	r3, [r7, #76]	; 0x4c
 80073d8:	681b      	ldr	r3, [r3, #0]
 80073da:	3b01      	subs	r3, #1
 80073dc:	61fb      	str	r3, [r7, #28]
 80073de:	61bc      	str	r4, [r7, #24]
 80073e0:	42a5      	cmp	r5, r4
 80073e2:	db01      	blt.n	80073e8 <stm32__spi__send_receive_16bit_mode+0x40>
 80073e4:	617d      	str	r5, [r7, #20]
 80073e6:	e002      	b.n	80073ee <stm32__spi__send_receive_16bit_mode+0x46>
 80073e8:	4623      	mov	r3, r4
 80073ea:	3b01      	subs	r3, #1
 80073ec:	617b      	str	r3, [r7, #20]
 80073ee:	6d3b      	ldr	r3, [r7, #80]	; 0x50
 80073f0:	62fb      	str	r3, [r7, #44]	; 0x2c
 80073f2:	2c00      	cmp	r4, #0
 80073f4:	da04      	bge.n	8007400 <stm32__spi__send_receive_16bit_mode+0x58>
 80073f6:	48a7      	ldr	r0, [pc, #668]	; (8007694 <stm32__spi__send_receive_16bit_mode+0x2ec>)
 80073f8:	f240 21cb 	movw	r1, #715	; 0x2cb
 80073fc:	f7fa f8be 	bl	800157c <__gnat_last_chance_handler>
 8007400:	62bc      	str	r4, [r7, #40]	; 0x28
 8007402:	6cfb      	ldr	r3, [r7, #76]	; 0x4c
 8007404:	681b      	ldr	r3, [r3, #0]
 8007406:	2b00      	cmp	r3, #0
 8007408:	da04      	bge.n	8007414 <stm32__spi__send_receive_16bit_mode+0x6c>
 800740a:	48a2      	ldr	r0, [pc, #648]	; (8007694 <stm32__spi__send_receive_16bit_mode+0x2ec>)
 800740c:	f44f 7133 	mov.w	r1, #716	; 0x2cc
 8007410:	f7fa f8b4 	bl	800157c <__gnat_last_chance_handler>
 8007414:	6cfb      	ldr	r3, [r7, #76]	; 0x4c
 8007416:	681b      	ldr	r3, [r3, #0]
 8007418:	627b      	str	r3, [r7, #36]	; 0x24
 800741a:	68f8      	ldr	r0, [r7, #12]
 800741c:	f7ff fb52 	bl	8006ac4 <stm32__spi__current_mode>
 8007420:	4603      	mov	r3, r0
 8007422:	2b01      	cmp	r3, #1
 8007424:	d002      	beq.n	800742c <stm32__spi__send_receive_16bit_mode+0x84>
 8007426:	6afb      	ldr	r3, [r7, #44]	; 0x2c
 8007428:	2b01      	cmp	r3, #1
 800742a:	d13c      	bne.n	80074a6 <stm32__spi__send_receive_16bit_mode+0xfe>
 800742c:	6abb      	ldr	r3, [r7, #40]	; 0x28
 800742e:	42a3      	cmp	r3, r4
 8007430:	db02      	blt.n	8007438 <stm32__spi__send_receive_16bit_mode+0x90>
 8007432:	6abb      	ldr	r3, [r7, #40]	; 0x28
 8007434:	42ab      	cmp	r3, r5
 8007436:	dd04      	ble.n	8007442 <stm32__spi__send_receive_16bit_mode+0x9a>
 8007438:	4896      	ldr	r0, [pc, #600]	; (8007694 <stm32__spi__send_receive_16bit_mode+0x2ec>)
 800743a:	f44f 7134 	mov.w	r1, #720	; 0x2d0
 800743e:	f7fa f89d 	bl	800157c <__gnat_last_chance_handler>
 8007442:	683a      	ldr	r2, [r7, #0]
 8007444:	4621      	mov	r1, r4
 8007446:	6abb      	ldr	r3, [r7, #40]	; 0x28
 8007448:	1a5b      	subs	r3, r3, r1
 800744a:	4413      	add	r3, r2
 800744c:	2b00      	cmp	r3, #0
 800744e:	d104      	bne.n	800745a <stm32__spi__send_receive_16bit_mode+0xb2>
 8007450:	4890      	ldr	r0, [pc, #576]	; (8007694 <stm32__spi__send_receive_16bit_mode+0x2ec>)
 8007452:	f44f 7134 	mov.w	r1, #720	; 0x2d0
 8007456:	f7fa f891 	bl	800157c <__gnat_last_chance_handler>
 800745a:	68fb      	ldr	r3, [r7, #12]
 800745c:	685b      	ldr	r3, [r3, #4]
 800745e:	330c      	adds	r3, #12
 8007460:	681b      	ldr	r3, [r3, #0]
 8007462:	6839      	ldr	r1, [r7, #0]
 8007464:	4620      	mov	r0, r4
 8007466:	6aba      	ldr	r2, [r7, #40]	; 0x28
 8007468:	1a12      	subs	r2, r2, r0
 800746a:	440a      	add	r2, r1
 800746c:	8812      	ldrh	r2, [r2, #0]
 800746e:	f362 030f 	bfi	r3, r2, #0, #16
 8007472:	68fa      	ldr	r2, [r7, #12]
 8007474:	6852      	ldr	r2, [r2, #4]
 8007476:	320c      	adds	r2, #12
 8007478:	6013      	str	r3, [r2, #0]
 800747a:	6abb      	ldr	r3, [r7, #40]	; 0x28
 800747c:	4a86      	ldr	r2, [pc, #536]	; (8007698 <stm32__spi__send_receive_16bit_mode+0x2f0>)
 800747e:	4293      	cmp	r3, r2
 8007480:	dd04      	ble.n	800748c <stm32__spi__send_receive_16bit_mode+0xe4>
 8007482:	4884      	ldr	r0, [pc, #528]	; (8007694 <stm32__spi__send_receive_16bit_mode+0x2ec>)
 8007484:	f240 21d1 	movw	r1, #721	; 0x2d1
 8007488:	f7fa f878 	bl	800157c <__gnat_last_chance_handler>
 800748c:	6abb      	ldr	r3, [r7, #40]	; 0x28
 800748e:	3302      	adds	r3, #2
 8007490:	62bb      	str	r3, [r7, #40]	; 0x28
 8007492:	6afb      	ldr	r3, [r7, #44]	; 0x2c
 8007494:	3b01      	subs	r3, #1
 8007496:	2b00      	cmp	r3, #0
 8007498:	da04      	bge.n	80074a4 <stm32__spi__send_receive_16bit_mode+0xfc>
 800749a:	487e      	ldr	r0, [pc, #504]	; (8007694 <stm32__spi__send_receive_16bit_mode+0x2ec>)
 800749c:	f240 21d2 	movw	r1, #722	; 0x2d2
 80074a0:	f7fa f86c 	bl	800157c <__gnat_last_chance_handler>
 80074a4:	62fb      	str	r3, [r7, #44]	; 0x2c
 80074a6:	6afb      	ldr	r3, [r7, #44]	; 0x2c
 80074a8:	2b00      	cmp	r3, #0
 80074aa:	d142      	bne.n	8007532 <stm32__spi__send_receive_16bit_mode+0x18a>
 80074ac:	68f8      	ldr	r0, [r7, #12]
 80074ae:	f7ff fb5d 	bl	8006b6c <stm32__spi__crc_enabled>
 80074b2:	4603      	mov	r3, r0
 80074b4:	2b00      	cmp	r3, #0
 80074b6:	d009      	beq.n	80074cc <stm32__spi__send_receive_16bit_mode+0x124>
 80074b8:	68fb      	ldr	r3, [r7, #12]
 80074ba:	685b      	ldr	r3, [r3, #4]
 80074bc:	681b      	ldr	r3, [r3, #0]
 80074be:	461a      	mov	r2, r3
 80074c0:	4613      	mov	r3, r2
 80074c2:	f443 5280 	orr.w	r2, r3, #4096	; 0x1000
 80074c6:	68fb      	ldr	r3, [r7, #12]
 80074c8:	685b      	ldr	r3, [r3, #4]
 80074ca:	601a      	str	r2, [r3, #0]
 80074cc:	68f8      	ldr	r0, [r7, #12]
 80074ce:	f7ff fad1 	bl	8006a74 <stm32__spi__rx_is_empty>
 80074d2:	4603      	mov	r3, r0
 80074d4:	2b00      	cmp	r3, #0
 80074d6:	d001      	beq.n	80074dc <stm32__spi__send_receive_16bit_mode+0x134>
 80074d8:	bf00      	nop
 80074da:	e7f7      	b.n	80074cc <stm32__spi__send_receive_16bit_mode+0x124>
 80074dc:	6a7a      	ldr	r2, [r7, #36]	; 0x24
 80074de:	6cfb      	ldr	r3, [r7, #76]	; 0x4c
 80074e0:	681b      	ldr	r3, [r3, #0]
 80074e2:	429a      	cmp	r2, r3
 80074e4:	db04      	blt.n	80074f0 <stm32__spi__send_receive_16bit_mode+0x148>
 80074e6:	6a7a      	ldr	r2, [r7, #36]	; 0x24
 80074e8:	6cfb      	ldr	r3, [r7, #76]	; 0x4c
 80074ea:	685b      	ldr	r3, [r3, #4]
 80074ec:	429a      	cmp	r2, r3
 80074ee:	dd04      	ble.n	80074fa <stm32__spi__send_receive_16bit_mode+0x152>
 80074f0:	4868      	ldr	r0, [pc, #416]	; (8007694 <stm32__spi__send_receive_16bit_mode+0x2ec>)
 80074f2:	f240 21e1 	movw	r1, #737	; 0x2e1
 80074f6:	f7fa f841 	bl	800157c <__gnat_last_chance_handler>
 80074fa:	6cba      	ldr	r2, [r7, #72]	; 0x48
 80074fc:	6cfb      	ldr	r3, [r7, #76]	; 0x4c
 80074fe:	681b      	ldr	r3, [r3, #0]
 8007500:	4619      	mov	r1, r3
 8007502:	6a7b      	ldr	r3, [r7, #36]	; 0x24
 8007504:	1a5b      	subs	r3, r3, r1
 8007506:	4413      	add	r3, r2
 8007508:	2b00      	cmp	r3, #0
 800750a:	d104      	bne.n	8007516 <stm32__spi__send_receive_16bit_mode+0x16e>
 800750c:	4861      	ldr	r0, [pc, #388]	; (8007694 <stm32__spi__send_receive_16bit_mode+0x2ec>)
 800750e:	f240 21e1 	movw	r1, #737	; 0x2e1
 8007512:	f7fa f833 	bl	800157c <__gnat_last_chance_handler>
 8007516:	6cba      	ldr	r2, [r7, #72]	; 0x48
 8007518:	6cfb      	ldr	r3, [r7, #76]	; 0x4c
 800751a:	681b      	ldr	r3, [r3, #0]
 800751c:	4619      	mov	r1, r3
 800751e:	6a7b      	ldr	r3, [r7, #36]	; 0x24
 8007520:	1a5b      	subs	r3, r3, r1
 8007522:	4413      	add	r3, r2
 8007524:	68fa      	ldr	r2, [r7, #12]
 8007526:	6852      	ldr	r2, [r2, #4]
 8007528:	320c      	adds	r2, #12
 800752a:	6812      	ldr	r2, [r2, #0]
 800752c:	b292      	uxth	r2, r2
 800752e:	801a      	strh	r2, [r3, #0]
 8007530:	e0de      	b.n	80076f0 <stm32__spi__send_receive_16bit_mode+0x348>
 8007532:	6afb      	ldr	r3, [r7, #44]	; 0x2c
 8007534:	2b00      	cmp	r3, #0
 8007536:	f340 809f 	ble.w	8007678 <stm32__spi__send_receive_16bit_mode+0x2d0>
 800753a:	68f8      	ldr	r0, [r7, #12]
 800753c:	f7ff fa88 	bl	8006a50 <stm32__spi__tx_is_empty>
 8007540:	4603      	mov	r3, r0
 8007542:	f083 0301 	eor.w	r3, r3, #1
 8007546:	b2db      	uxtb	r3, r3
 8007548:	2b00      	cmp	r3, #0
 800754a:	d001      	beq.n	8007550 <stm32__spi__send_receive_16bit_mode+0x1a8>
 800754c:	bf00      	nop
 800754e:	e7f4      	b.n	800753a <stm32__spi__send_receive_16bit_mode+0x192>
 8007550:	6abb      	ldr	r3, [r7, #40]	; 0x28
 8007552:	42a3      	cmp	r3, r4
 8007554:	db02      	blt.n	800755c <stm32__spi__send_receive_16bit_mode+0x1b4>
 8007556:	6abb      	ldr	r3, [r7, #40]	; 0x28
 8007558:	42ab      	cmp	r3, r5
 800755a:	dd04      	ble.n	8007566 <stm32__spi__send_receive_16bit_mode+0x1be>
 800755c:	484d      	ldr	r0, [pc, #308]	; (8007694 <stm32__spi__send_receive_16bit_mode+0x2ec>)
 800755e:	f240 21ee 	movw	r1, #750	; 0x2ee
 8007562:	f7fa f80b 	bl	800157c <__gnat_last_chance_handler>
 8007566:	683a      	ldr	r2, [r7, #0]
 8007568:	4621      	mov	r1, r4
 800756a:	6abb      	ldr	r3, [r7, #40]	; 0x28
 800756c:	1a5b      	subs	r3, r3, r1
 800756e:	4413      	add	r3, r2
 8007570:	2b00      	cmp	r3, #0
 8007572:	d104      	bne.n	800757e <stm32__spi__send_receive_16bit_mode+0x1d6>
 8007574:	4847      	ldr	r0, [pc, #284]	; (8007694 <stm32__spi__send_receive_16bit_mode+0x2ec>)
 8007576:	f240 21ee 	movw	r1, #750	; 0x2ee
 800757a:	f7f9 ffff 	bl	800157c <__gnat_last_chance_handler>
 800757e:	68fb      	ldr	r3, [r7, #12]
 8007580:	685b      	ldr	r3, [r3, #4]
 8007582:	330c      	adds	r3, #12
 8007584:	681b      	ldr	r3, [r3, #0]
 8007586:	6839      	ldr	r1, [r7, #0]
 8007588:	4620      	mov	r0, r4
 800758a:	6aba      	ldr	r2, [r7, #40]	; 0x28
 800758c:	1a12      	subs	r2, r2, r0
 800758e:	440a      	add	r2, r1
 8007590:	8812      	ldrh	r2, [r2, #0]
 8007592:	f362 030f 	bfi	r3, r2, #0, #16
 8007596:	68fa      	ldr	r2, [r7, #12]
 8007598:	6852      	ldr	r2, [r2, #4]
 800759a:	320c      	adds	r2, #12
 800759c:	6013      	str	r3, [r2, #0]
 800759e:	6abb      	ldr	r3, [r7, #40]	; 0x28
 80075a0:	4a3d      	ldr	r2, [pc, #244]	; (8007698 <stm32__spi__send_receive_16bit_mode+0x2f0>)
 80075a2:	4293      	cmp	r3, r2
 80075a4:	dd04      	ble.n	80075b0 <stm32__spi__send_receive_16bit_mode+0x208>
 80075a6:	483b      	ldr	r0, [pc, #236]	; (8007694 <stm32__spi__send_receive_16bit_mode+0x2ec>)
 80075a8:	f240 21ef 	movw	r1, #751	; 0x2ef
 80075ac:	f7f9 ffe6 	bl	800157c <__gnat_last_chance_handler>
 80075b0:	6abb      	ldr	r3, [r7, #40]	; 0x28
 80075b2:	3302      	adds	r3, #2
 80075b4:	62bb      	str	r3, [r7, #40]	; 0x28
 80075b6:	6afb      	ldr	r3, [r7, #44]	; 0x2c
 80075b8:	3b01      	subs	r3, #1
 80075ba:	2b00      	cmp	r3, #0
 80075bc:	da04      	bge.n	80075c8 <stm32__spi__send_receive_16bit_mode+0x220>
 80075be:	4835      	ldr	r0, [pc, #212]	; (8007694 <stm32__spi__send_receive_16bit_mode+0x2ec>)
 80075c0:	f44f 713c 	mov.w	r1, #752	; 0x2f0
 80075c4:	f7f9 ffda 	bl	800157c <__gnat_last_chance_handler>
 80075c8:	62fb      	str	r3, [r7, #44]	; 0x2c
 80075ca:	6afb      	ldr	r3, [r7, #44]	; 0x2c
 80075cc:	2b00      	cmp	r3, #0
 80075ce:	bf0c      	ite	eq
 80075d0:	2301      	moveq	r3, #1
 80075d2:	2300      	movne	r3, #0
 80075d4:	b2de      	uxtb	r6, r3
 80075d6:	68f8      	ldr	r0, [r7, #12]
 80075d8:	f7ff fac8 	bl	8006b6c <stm32__spi__crc_enabled>
 80075dc:	4603      	mov	r3, r0
 80075de:	4033      	ands	r3, r6
 80075e0:	b2db      	uxtb	r3, r3
 80075e2:	2b00      	cmp	r3, #0
 80075e4:	d009      	beq.n	80075fa <stm32__spi__send_receive_16bit_mode+0x252>
 80075e6:	68fb      	ldr	r3, [r7, #12]
 80075e8:	685b      	ldr	r3, [r3, #4]
 80075ea:	681b      	ldr	r3, [r3, #0]
 80075ec:	461a      	mov	r2, r3
 80075ee:	4613      	mov	r3, r2
 80075f0:	f443 5280 	orr.w	r2, r3, #4096	; 0x1000
 80075f4:	68fb      	ldr	r3, [r7, #12]
 80075f6:	685b      	ldr	r3, [r3, #4]
 80075f8:	601a      	str	r2, [r3, #0]
 80075fa:	68f8      	ldr	r0, [r7, #12]
 80075fc:	f7ff fa3a 	bl	8006a74 <stm32__spi__rx_is_empty>
 8007600:	4603      	mov	r3, r0
 8007602:	2b00      	cmp	r3, #0
 8007604:	d001      	beq.n	800760a <stm32__spi__send_receive_16bit_mode+0x262>
 8007606:	bf00      	nop
 8007608:	e7f7      	b.n	80075fa <stm32__spi__send_receive_16bit_mode+0x252>
 800760a:	6a7a      	ldr	r2, [r7, #36]	; 0x24
 800760c:	6cfb      	ldr	r3, [r7, #76]	; 0x4c
 800760e:	681b      	ldr	r3, [r3, #0]
 8007610:	429a      	cmp	r2, r3
 8007612:	db04      	blt.n	800761e <stm32__spi__send_receive_16bit_mode+0x276>
 8007614:	6a7a      	ldr	r2, [r7, #36]	; 0x24
 8007616:	6cfb      	ldr	r3, [r7, #76]	; 0x4c
 8007618:	685b      	ldr	r3, [r3, #4]
 800761a:	429a      	cmp	r2, r3
 800761c:	dd04      	ble.n	8007628 <stm32__spi__send_receive_16bit_mode+0x280>
 800761e:	481d      	ldr	r0, [pc, #116]	; (8007694 <stm32__spi__send_receive_16bit_mode+0x2ec>)
 8007620:	f44f 713f 	mov.w	r1, #764	; 0x2fc
 8007624:	f7f9 ffaa 	bl	800157c <__gnat_last_chance_handler>
 8007628:	6cba      	ldr	r2, [r7, #72]	; 0x48
 800762a:	6cfb      	ldr	r3, [r7, #76]	; 0x4c
 800762c:	681b      	ldr	r3, [r3, #0]
 800762e:	4619      	mov	r1, r3
 8007630:	6a7b      	ldr	r3, [r7, #36]	; 0x24
 8007632:	1a5b      	subs	r3, r3, r1
 8007634:	4413      	add	r3, r2
 8007636:	2b00      	cmp	r3, #0
 8007638:	d104      	bne.n	8007644 <stm32__spi__send_receive_16bit_mode+0x29c>
 800763a:	4816      	ldr	r0, [pc, #88]	; (8007694 <stm32__spi__send_receive_16bit_mode+0x2ec>)
 800763c:	f44f 713f 	mov.w	r1, #764	; 0x2fc
 8007640:	f7f9 ff9c 	bl	800157c <__gnat_last_chance_handler>
 8007644:	6cba      	ldr	r2, [r7, #72]	; 0x48
 8007646:	6cfb      	ldr	r3, [r7, #76]	; 0x4c
 8007648:	681b      	ldr	r3, [r3, #0]
 800764a:	4619      	mov	r1, r3
 800764c:	6a7b      	ldr	r3, [r7, #36]	; 0x24
 800764e:	1a5b      	subs	r3, r3, r1
 8007650:	4413      	add	r3, r2
 8007652:	68fa      	ldr	r2, [r7, #12]
 8007654:	6852      	ldr	r2, [r2, #4]
 8007656:	320c      	adds	r2, #12
 8007658:	6812      	ldr	r2, [r2, #0]
 800765a:	b292      	uxth	r2, r2
 800765c:	801a      	strh	r2, [r3, #0]
 800765e:	6a7b      	ldr	r3, [r7, #36]	; 0x24
 8007660:	4a0d      	ldr	r2, [pc, #52]	; (8007698 <stm32__spi__send_receive_16bit_mode+0x2f0>)
 8007662:	4293      	cmp	r3, r2
 8007664:	dd04      	ble.n	8007670 <stm32__spi__send_receive_16bit_mode+0x2c8>
 8007666:	480b      	ldr	r0, [pc, #44]	; (8007694 <stm32__spi__send_receive_16bit_mode+0x2ec>)
 8007668:	f240 21fe 	movw	r1, #766	; 0x2fe
 800766c:	f7f9 ff86 	bl	800157c <__gnat_last_chance_handler>
 8007670:	6a7b      	ldr	r3, [r7, #36]	; 0x24
 8007672:	3302      	adds	r3, #2
 8007674:	627b      	str	r3, [r7, #36]	; 0x24
 8007676:	e75c      	b.n	8007532 <stm32__spi__send_receive_16bit_mode+0x18a>
 8007678:	68f8      	ldr	r0, [r7, #12]
 800767a:	f7ff fa23 	bl	8006ac4 <stm32__spi__current_mode>
 800767e:	4603      	mov	r3, r0
 8007680:	2b01      	cmp	r3, #1
 8007682:	d135      	bne.n	80076f0 <stm32__spi__send_receive_16bit_mode+0x348>
 8007684:	68f8      	ldr	r0, [r7, #12]
 8007686:	f7ff f9f5 	bl	8006a74 <stm32__spi__rx_is_empty>
 800768a:	4603      	mov	r3, r0
 800768c:	2b00      	cmp	r3, #0
 800768e:	d005      	beq.n	800769c <stm32__spi__send_receive_16bit_mode+0x2f4>
 8007690:	bf00      	nop
 8007692:	e7f7      	b.n	8007684 <stm32__spi__send_receive_16bit_mode+0x2dc>
 8007694:	0800b870 	.word	0x0800b870
 8007698:	7ffffffd 	.word	0x7ffffffd
 800769c:	6a7a      	ldr	r2, [r7, #36]	; 0x24
 800769e:	6cfb      	ldr	r3, [r7, #76]	; 0x4c
 80076a0:	681b      	ldr	r3, [r3, #0]
 80076a2:	429a      	cmp	r2, r3
 80076a4:	db04      	blt.n	80076b0 <stm32__spi__send_receive_16bit_mode+0x308>
 80076a6:	6a7a      	ldr	r2, [r7, #36]	; 0x24
 80076a8:	6cfb      	ldr	r3, [r7, #76]	; 0x4c
 80076aa:	685b      	ldr	r3, [r3, #4]
 80076ac:	429a      	cmp	r2, r3
 80076ae:	dd04      	ble.n	80076ba <stm32__spi__send_receive_16bit_mode+0x312>
 80076b0:	4811      	ldr	r0, [pc, #68]	; (80076f8 <stm32__spi__send_receive_16bit_mode+0x350>)
 80076b2:	f44f 7142 	mov.w	r1, #776	; 0x308
 80076b6:	f7f9 ff61 	bl	800157c <__gnat_last_chance_handler>
 80076ba:	6cba      	ldr	r2, [r7, #72]	; 0x48
 80076bc:	6cfb      	ldr	r3, [r7, #76]	; 0x4c
 80076be:	681b      	ldr	r3, [r3, #0]
 80076c0:	4619      	mov	r1, r3
 80076c2:	6a7b      	ldr	r3, [r7, #36]	; 0x24
 80076c4:	1a5b      	subs	r3, r3, r1
 80076c6:	4413      	add	r3, r2
 80076c8:	2b00      	cmp	r3, #0
 80076ca:	d104      	bne.n	80076d6 <stm32__spi__send_receive_16bit_mode+0x32e>
 80076cc:	480a      	ldr	r0, [pc, #40]	; (80076f8 <stm32__spi__send_receive_16bit_mode+0x350>)
 80076ce:	f44f 7142 	mov.w	r1, #776	; 0x308
 80076d2:	f7f9 ff53 	bl	800157c <__gnat_last_chance_handler>
 80076d6:	6cba      	ldr	r2, [r7, #72]	; 0x48
 80076d8:	6cfb      	ldr	r3, [r7, #76]	; 0x4c
 80076da:	681b      	ldr	r3, [r3, #0]
 80076dc:	4619      	mov	r1, r3
 80076de:	6a7b      	ldr	r3, [r7, #36]	; 0x24
 80076e0:	1a5b      	subs	r3, r3, r1
 80076e2:	4413      	add	r3, r2
 80076e4:	68fa      	ldr	r2, [r7, #12]
 80076e6:	6852      	ldr	r2, [r2, #4]
 80076e8:	320c      	adds	r2, #12
 80076ea:	6812      	ldr	r2, [r2, #0]
 80076ec:	b292      	uxth	r2, r2
 80076ee:	801a      	strh	r2, [r3, #0]
 80076f0:	3734      	adds	r7, #52	; 0x34
 80076f2:	46bd      	mov	sp, r7
 80076f4:	bdf0      	pop	{r4, r5, r6, r7, pc}
 80076f6:	bf00      	nop
 80076f8:	0800b870 	.word	0x0800b870

080076fc <stm32__spi__send_receive_8bit_mode>:
 80076fc:	b5f0      	push	{r4, r5, r6, r7, lr}
 80076fe:	b08d      	sub	sp, #52	; 0x34
 8007700:	af00      	add	r7, sp, #0
 8007702:	60f8      	str	r0, [r7, #12]
 8007704:	e9c7 2300 	strd	r2, r3, [r7]
 8007708:	687b      	ldr	r3, [r7, #4]
 800770a:	681c      	ldr	r4, [r3, #0]
 800770c:	687b      	ldr	r3, [r7, #4]
 800770e:	685d      	ldr	r5, [r3, #4]
 8007710:	6cfb      	ldr	r3, [r7, #76]	; 0x4c
 8007712:	681b      	ldr	r3, [r3, #0]
 8007714:	623b      	str	r3, [r7, #32]
 8007716:	6cfb      	ldr	r3, [r7, #76]	; 0x4c
 8007718:	685a      	ldr	r2, [r3, #4]
 800771a:	6cfb      	ldr	r3, [r7, #76]	; 0x4c
 800771c:	681b      	ldr	r3, [r3, #0]
 800771e:	429a      	cmp	r2, r3
 8007720:	db03      	blt.n	800772a <stm32__spi__send_receive_8bit_mode+0x2e>
 8007722:	6cfb      	ldr	r3, [r7, #76]	; 0x4c
 8007724:	685b      	ldr	r3, [r3, #4]
 8007726:	61fb      	str	r3, [r7, #28]
 8007728:	e003      	b.n	8007732 <stm32__spi__send_receive_8bit_mode+0x36>
 800772a:	6cfb      	ldr	r3, [r7, #76]	; 0x4c
 800772c:	681b      	ldr	r3, [r3, #0]
 800772e:	3b01      	subs	r3, #1
 8007730:	61fb      	str	r3, [r7, #28]
 8007732:	61bc      	str	r4, [r7, #24]
 8007734:	42a5      	cmp	r5, r4
 8007736:	db01      	blt.n	800773c <stm32__spi__send_receive_8bit_mode+0x40>
 8007738:	617d      	str	r5, [r7, #20]
 800773a:	e002      	b.n	8007742 <stm32__spi__send_receive_8bit_mode+0x46>
 800773c:	4623      	mov	r3, r4
 800773e:	3b01      	subs	r3, #1
 8007740:	617b      	str	r3, [r7, #20]
 8007742:	6d3b      	ldr	r3, [r7, #80]	; 0x50
 8007744:	62fb      	str	r3, [r7, #44]	; 0x2c
 8007746:	2c00      	cmp	r4, #0
 8007748:	da04      	bge.n	8007754 <stm32__spi__send_receive_8bit_mode+0x58>
 800774a:	48a8      	ldr	r0, [pc, #672]	; (80079ec <stm32__spi__send_receive_8bit_mode+0x2f0>)
 800774c:	f44f 7146 	mov.w	r1, #792	; 0x318
 8007750:	f7f9 ff14 	bl	800157c <__gnat_last_chance_handler>
 8007754:	62bc      	str	r4, [r7, #40]	; 0x28
 8007756:	6cfb      	ldr	r3, [r7, #76]	; 0x4c
 8007758:	681b      	ldr	r3, [r3, #0]
 800775a:	2b00      	cmp	r3, #0
 800775c:	da04      	bge.n	8007768 <stm32__spi__send_receive_8bit_mode+0x6c>
 800775e:	48a3      	ldr	r0, [pc, #652]	; (80079ec <stm32__spi__send_receive_8bit_mode+0x2f0>)
 8007760:	f240 3119 	movw	r1, #793	; 0x319
 8007764:	f7f9 ff0a 	bl	800157c <__gnat_last_chance_handler>
 8007768:	6cfb      	ldr	r3, [r7, #76]	; 0x4c
 800776a:	681b      	ldr	r3, [r3, #0]
 800776c:	627b      	str	r3, [r7, #36]	; 0x24
 800776e:	68f8      	ldr	r0, [r7, #12]
 8007770:	f7ff f9a8 	bl	8006ac4 <stm32__spi__current_mode>
 8007774:	4603      	mov	r3, r0
 8007776:	2b01      	cmp	r3, #1
 8007778:	d002      	beq.n	8007780 <stm32__spi__send_receive_8bit_mode+0x84>
 800777a:	6afb      	ldr	r3, [r7, #44]	; 0x2c
 800777c:	2b01      	cmp	r3, #1
 800777e:	d131      	bne.n	80077e4 <stm32__spi__send_receive_8bit_mode+0xe8>
 8007780:	6abb      	ldr	r3, [r7, #40]	; 0x28
 8007782:	42a3      	cmp	r3, r4
 8007784:	db02      	blt.n	800778c <stm32__spi__send_receive_8bit_mode+0x90>
 8007786:	6abb      	ldr	r3, [r7, #40]	; 0x28
 8007788:	42ab      	cmp	r3, r5
 800778a:	dd04      	ble.n	8007796 <stm32__spi__send_receive_8bit_mode+0x9a>
 800778c:	4897      	ldr	r0, [pc, #604]	; (80079ec <stm32__spi__send_receive_8bit_mode+0x2f0>)
 800778e:	f44f 7147 	mov.w	r1, #796	; 0x31c
 8007792:	f7f9 fef3 	bl	800157c <__gnat_last_chance_handler>
 8007796:	68fb      	ldr	r3, [r7, #12]
 8007798:	685b      	ldr	r3, [r3, #4]
 800779a:	330c      	adds	r3, #12
 800779c:	681b      	ldr	r3, [r3, #0]
 800779e:	6839      	ldr	r1, [r7, #0]
 80077a0:	6ab8      	ldr	r0, [r7, #40]	; 0x28
 80077a2:	69ba      	ldr	r2, [r7, #24]
 80077a4:	1a82      	subs	r2, r0, r2
 80077a6:	5c8a      	ldrb	r2, [r1, r2]
 80077a8:	b292      	uxth	r2, r2
 80077aa:	f362 030f 	bfi	r3, r2, #0, #16
 80077ae:	68fa      	ldr	r2, [r7, #12]
 80077b0:	6852      	ldr	r2, [r2, #4]
 80077b2:	320c      	adds	r2, #12
 80077b4:	6013      	str	r3, [r2, #0]
 80077b6:	6abb      	ldr	r3, [r7, #40]	; 0x28
 80077b8:	f06f 4200 	mvn.w	r2, #2147483648	; 0x80000000
 80077bc:	4293      	cmp	r3, r2
 80077be:	d104      	bne.n	80077ca <stm32__spi__send_receive_8bit_mode+0xce>
 80077c0:	488a      	ldr	r0, [pc, #552]	; (80079ec <stm32__spi__send_receive_8bit_mode+0x2f0>)
 80077c2:	f240 311d 	movw	r1, #797	; 0x31d
 80077c6:	f7f9 fed9 	bl	800157c <__gnat_last_chance_handler>
 80077ca:	6abb      	ldr	r3, [r7, #40]	; 0x28
 80077cc:	3301      	adds	r3, #1
 80077ce:	62bb      	str	r3, [r7, #40]	; 0x28
 80077d0:	6afb      	ldr	r3, [r7, #44]	; 0x2c
 80077d2:	3b01      	subs	r3, #1
 80077d4:	2b00      	cmp	r3, #0
 80077d6:	da04      	bge.n	80077e2 <stm32__spi__send_receive_8bit_mode+0xe6>
 80077d8:	4884      	ldr	r0, [pc, #528]	; (80079ec <stm32__spi__send_receive_8bit_mode+0x2f0>)
 80077da:	f240 311e 	movw	r1, #798	; 0x31e
 80077de:	f7f9 fecd 	bl	800157c <__gnat_last_chance_handler>
 80077e2:	62fb      	str	r3, [r7, #44]	; 0x2c
 80077e4:	6afb      	ldr	r3, [r7, #44]	; 0x2c
 80077e6:	2b00      	cmp	r3, #0
 80077e8:	d142      	bne.n	8007870 <stm32__spi__send_receive_8bit_mode+0x174>
 80077ea:	68f8      	ldr	r0, [r7, #12]
 80077ec:	f7ff f9be 	bl	8006b6c <stm32__spi__crc_enabled>
 80077f0:	4603      	mov	r3, r0
 80077f2:	2b00      	cmp	r3, #0
 80077f4:	d009      	beq.n	800780a <stm32__spi__send_receive_8bit_mode+0x10e>
 80077f6:	68fb      	ldr	r3, [r7, #12]
 80077f8:	685b      	ldr	r3, [r3, #4]
 80077fa:	681b      	ldr	r3, [r3, #0]
 80077fc:	461a      	mov	r2, r3
 80077fe:	4613      	mov	r3, r2
 8007800:	f443 5280 	orr.w	r2, r3, #4096	; 0x1000
 8007804:	68fb      	ldr	r3, [r7, #12]
 8007806:	685b      	ldr	r3, [r3, #4]
 8007808:	601a      	str	r2, [r3, #0]
 800780a:	68f8      	ldr	r0, [r7, #12]
 800780c:	f7ff f932 	bl	8006a74 <stm32__spi__rx_is_empty>
 8007810:	4603      	mov	r3, r0
 8007812:	2b00      	cmp	r3, #0
 8007814:	d001      	beq.n	800781a <stm32__spi__send_receive_8bit_mode+0x11e>
 8007816:	bf00      	nop
 8007818:	e7f7      	b.n	800780a <stm32__spi__send_receive_8bit_mode+0x10e>
 800781a:	6a7a      	ldr	r2, [r7, #36]	; 0x24
 800781c:	6cfb      	ldr	r3, [r7, #76]	; 0x4c
 800781e:	681b      	ldr	r3, [r3, #0]
 8007820:	429a      	cmp	r2, r3
 8007822:	db04      	blt.n	800782e <stm32__spi__send_receive_8bit_mode+0x132>
 8007824:	6a7a      	ldr	r2, [r7, #36]	; 0x24
 8007826:	6cfb      	ldr	r3, [r7, #76]	; 0x4c
 8007828:	685b      	ldr	r3, [r3, #4]
 800782a:	429a      	cmp	r2, r3
 800782c:	dd04      	ble.n	8007838 <stm32__spi__send_receive_8bit_mode+0x13c>
 800782e:	486f      	ldr	r0, [pc, #444]	; (80079ec <stm32__spi__send_receive_8bit_mode+0x2f0>)
 8007830:	f240 312d 	movw	r1, #813	; 0x32d
 8007834:	f7f9 fea2 	bl	800157c <__gnat_last_chance_handler>
 8007838:	68fb      	ldr	r3, [r7, #12]
 800783a:	685b      	ldr	r3, [r3, #4]
 800783c:	330c      	adds	r3, #12
 800783e:	681b      	ldr	r3, [r3, #0]
 8007840:	b29b      	uxth	r3, r3
 8007842:	2bff      	cmp	r3, #255	; 0xff
 8007844:	d904      	bls.n	8007850 <stm32__spi__send_receive_8bit_mode+0x154>
 8007846:	4869      	ldr	r0, [pc, #420]	; (80079ec <stm32__spi__send_receive_8bit_mode+0x2f0>)
 8007848:	f240 312d 	movw	r1, #813	; 0x32d
 800784c:	f7f9 fe96 	bl	800157c <__gnat_last_chance_handler>
 8007850:	6a7a      	ldr	r2, [r7, #36]	; 0x24
 8007852:	2a00      	cmp	r2, #0
 8007854:	da04      	bge.n	8007860 <stm32__spi__send_receive_8bit_mode+0x164>
 8007856:	4865      	ldr	r0, [pc, #404]	; (80079ec <stm32__spi__send_receive_8bit_mode+0x2f0>)
 8007858:	f240 312d 	movw	r1, #813	; 0x32d
 800785c:	f7f9 fe8e 	bl	800157c <__gnat_last_chance_handler>
 8007860:	6cba      	ldr	r2, [r7, #72]	; 0x48
 8007862:	b2d8      	uxtb	r0, r3
 8007864:	6a79      	ldr	r1, [r7, #36]	; 0x24
 8007866:	6a3b      	ldr	r3, [r7, #32]
 8007868:	1acb      	subs	r3, r1, r3
 800786a:	4601      	mov	r1, r0
 800786c:	54d1      	strb	r1, [r2, r3]
 800786e:	e0ca      	b.n	8007a06 <stm32__spi__send_receive_8bit_mode+0x30a>
 8007870:	6afb      	ldr	r3, [r7, #44]	; 0x2c
 8007872:	2b00      	cmp	r3, #0
 8007874:	f340 8095 	ble.w	80079a2 <stm32__spi__send_receive_8bit_mode+0x2a6>
 8007878:	68f8      	ldr	r0, [r7, #12]
 800787a:	f7ff f8e9 	bl	8006a50 <stm32__spi__tx_is_empty>
 800787e:	4603      	mov	r3, r0
 8007880:	f083 0301 	eor.w	r3, r3, #1
 8007884:	b2db      	uxtb	r3, r3
 8007886:	2b00      	cmp	r3, #0
 8007888:	d001      	beq.n	800788e <stm32__spi__send_receive_8bit_mode+0x192>
 800788a:	bf00      	nop
 800788c:	e7f4      	b.n	8007878 <stm32__spi__send_receive_8bit_mode+0x17c>
 800788e:	6abb      	ldr	r3, [r7, #40]	; 0x28
 8007890:	42a3      	cmp	r3, r4
 8007892:	db02      	blt.n	800789a <stm32__spi__send_receive_8bit_mode+0x19e>
 8007894:	6abb      	ldr	r3, [r7, #40]	; 0x28
 8007896:	42ab      	cmp	r3, r5
 8007898:	dd04      	ble.n	80078a4 <stm32__spi__send_receive_8bit_mode+0x1a8>
 800789a:	4854      	ldr	r0, [pc, #336]	; (80079ec <stm32__spi__send_receive_8bit_mode+0x2f0>)
 800789c:	f240 3139 	movw	r1, #825	; 0x339
 80078a0:	f7f9 fe6c 	bl	800157c <__gnat_last_chance_handler>
 80078a4:	68fb      	ldr	r3, [r7, #12]
 80078a6:	685b      	ldr	r3, [r3, #4]
 80078a8:	330c      	adds	r3, #12
 80078aa:	681b      	ldr	r3, [r3, #0]
 80078ac:	6839      	ldr	r1, [r7, #0]
 80078ae:	6ab8      	ldr	r0, [r7, #40]	; 0x28
 80078b0:	69ba      	ldr	r2, [r7, #24]
 80078b2:	1a82      	subs	r2, r0, r2
 80078b4:	5c8a      	ldrb	r2, [r1, r2]
 80078b6:	b292      	uxth	r2, r2
 80078b8:	f362 030f 	bfi	r3, r2, #0, #16
 80078bc:	68fa      	ldr	r2, [r7, #12]
 80078be:	6852      	ldr	r2, [r2, #4]
 80078c0:	320c      	adds	r2, #12
 80078c2:	6013      	str	r3, [r2, #0]
 80078c4:	6abb      	ldr	r3, [r7, #40]	; 0x28
 80078c6:	f06f 4200 	mvn.w	r2, #2147483648	; 0x80000000
 80078ca:	4293      	cmp	r3, r2
 80078cc:	d104      	bne.n	80078d8 <stm32__spi__send_receive_8bit_mode+0x1dc>
 80078ce:	4847      	ldr	r0, [pc, #284]	; (80079ec <stm32__spi__send_receive_8bit_mode+0x2f0>)
 80078d0:	f240 313a 	movw	r1, #826	; 0x33a
 80078d4:	f7f9 fe52 	bl	800157c <__gnat_last_chance_handler>
 80078d8:	6abb      	ldr	r3, [r7, #40]	; 0x28
 80078da:	3301      	adds	r3, #1
 80078dc:	62bb      	str	r3, [r7, #40]	; 0x28
 80078de:	6afb      	ldr	r3, [r7, #44]	; 0x2c
 80078e0:	3b01      	subs	r3, #1
 80078e2:	2b00      	cmp	r3, #0
 80078e4:	da04      	bge.n	80078f0 <stm32__spi__send_receive_8bit_mode+0x1f4>
 80078e6:	4841      	ldr	r0, [pc, #260]	; (80079ec <stm32__spi__send_receive_8bit_mode+0x2f0>)
 80078e8:	f240 313b 	movw	r1, #827	; 0x33b
 80078ec:	f7f9 fe46 	bl	800157c <__gnat_last_chance_handler>
 80078f0:	62fb      	str	r3, [r7, #44]	; 0x2c
 80078f2:	6afb      	ldr	r3, [r7, #44]	; 0x2c
 80078f4:	2b00      	cmp	r3, #0
 80078f6:	bf0c      	ite	eq
 80078f8:	2301      	moveq	r3, #1
 80078fa:	2300      	movne	r3, #0
 80078fc:	b2de      	uxtb	r6, r3
 80078fe:	68f8      	ldr	r0, [r7, #12]
 8007900:	f7ff f934 	bl	8006b6c <stm32__spi__crc_enabled>
 8007904:	4603      	mov	r3, r0
 8007906:	4033      	ands	r3, r6
 8007908:	b2db      	uxtb	r3, r3
 800790a:	2b00      	cmp	r3, #0
 800790c:	d009      	beq.n	8007922 <stm32__spi__send_receive_8bit_mode+0x226>
 800790e:	68fb      	ldr	r3, [r7, #12]
 8007910:	685b      	ldr	r3, [r3, #4]
 8007912:	681b      	ldr	r3, [r3, #0]
 8007914:	461a      	mov	r2, r3
 8007916:	4613      	mov	r3, r2
 8007918:	f443 5280 	orr.w	r2, r3, #4096	; 0x1000
 800791c:	68fb      	ldr	r3, [r7, #12]
 800791e:	685b      	ldr	r3, [r3, #4]
 8007920:	601a      	str	r2, [r3, #0]
 8007922:	68f8      	ldr	r0, [r7, #12]
 8007924:	f7ff f8a6 	bl	8006a74 <stm32__spi__rx_is_empty>
 8007928:	4603      	mov	r3, r0
 800792a:	2b00      	cmp	r3, #0
 800792c:	d001      	beq.n	8007932 <stm32__spi__send_receive_8bit_mode+0x236>
 800792e:	bf00      	nop
 8007930:	e7f7      	b.n	8007922 <stm32__spi__send_receive_8bit_mode+0x226>
 8007932:	6a7a      	ldr	r2, [r7, #36]	; 0x24
 8007934:	6cfb      	ldr	r3, [r7, #76]	; 0x4c
 8007936:	681b      	ldr	r3, [r3, #0]
 8007938:	429a      	cmp	r2, r3
 800793a:	db04      	blt.n	8007946 <stm32__spi__send_receive_8bit_mode+0x24a>
 800793c:	6a7a      	ldr	r2, [r7, #36]	; 0x24
 800793e:	6cfb      	ldr	r3, [r7, #76]	; 0x4c
 8007940:	685b      	ldr	r3, [r3, #4]
 8007942:	429a      	cmp	r2, r3
 8007944:	dd04      	ble.n	8007950 <stm32__spi__send_receive_8bit_mode+0x254>
 8007946:	4829      	ldr	r0, [pc, #164]	; (80079ec <stm32__spi__send_receive_8bit_mode+0x2f0>)
 8007948:	f240 3147 	movw	r1, #839	; 0x347
 800794c:	f7f9 fe16 	bl	800157c <__gnat_last_chance_handler>
 8007950:	68fb      	ldr	r3, [r7, #12]
 8007952:	685b      	ldr	r3, [r3, #4]
 8007954:	330c      	adds	r3, #12
 8007956:	681b      	ldr	r3, [r3, #0]
 8007958:	b29b      	uxth	r3, r3
 800795a:	2bff      	cmp	r3, #255	; 0xff
 800795c:	d904      	bls.n	8007968 <stm32__spi__send_receive_8bit_mode+0x26c>
 800795e:	4823      	ldr	r0, [pc, #140]	; (80079ec <stm32__spi__send_receive_8bit_mode+0x2f0>)
 8007960:	f240 3147 	movw	r1, #839	; 0x347
 8007964:	f7f9 fe0a 	bl	800157c <__gnat_last_chance_handler>
 8007968:	6a7a      	ldr	r2, [r7, #36]	; 0x24
 800796a:	2a00      	cmp	r2, #0
 800796c:	da04      	bge.n	8007978 <stm32__spi__send_receive_8bit_mode+0x27c>
 800796e:	481f      	ldr	r0, [pc, #124]	; (80079ec <stm32__spi__send_receive_8bit_mode+0x2f0>)
 8007970:	f240 3147 	movw	r1, #839	; 0x347
 8007974:	f7f9 fe02 	bl	800157c <__gnat_last_chance_handler>
 8007978:	6cba      	ldr	r2, [r7, #72]	; 0x48
 800797a:	b2d8      	uxtb	r0, r3
 800797c:	6a79      	ldr	r1, [r7, #36]	; 0x24
 800797e:	6a3b      	ldr	r3, [r7, #32]
 8007980:	1acb      	subs	r3, r1, r3
 8007982:	4601      	mov	r1, r0
 8007984:	54d1      	strb	r1, [r2, r3]
 8007986:	6a7b      	ldr	r3, [r7, #36]	; 0x24
 8007988:	f06f 4200 	mvn.w	r2, #2147483648	; 0x80000000
 800798c:	4293      	cmp	r3, r2
 800798e:	d104      	bne.n	800799a <stm32__spi__send_receive_8bit_mode+0x29e>
 8007990:	4816      	ldr	r0, [pc, #88]	; (80079ec <stm32__spi__send_receive_8bit_mode+0x2f0>)
 8007992:	f44f 7152 	mov.w	r1, #840	; 0x348
 8007996:	f7f9 fdf1 	bl	800157c <__gnat_last_chance_handler>
 800799a:	6a7b      	ldr	r3, [r7, #36]	; 0x24
 800799c:	3301      	adds	r3, #1
 800799e:	627b      	str	r3, [r7, #36]	; 0x24
 80079a0:	e766      	b.n	8007870 <stm32__spi__send_receive_8bit_mode+0x174>
 80079a2:	68f8      	ldr	r0, [r7, #12]
 80079a4:	f7ff f88e 	bl	8006ac4 <stm32__spi__current_mode>
 80079a8:	4603      	mov	r3, r0
 80079aa:	2b01      	cmp	r3, #1
 80079ac:	d12b      	bne.n	8007a06 <stm32__spi__send_receive_8bit_mode+0x30a>
 80079ae:	68f8      	ldr	r0, [r7, #12]
 80079b0:	f7ff f860 	bl	8006a74 <stm32__spi__rx_is_empty>
 80079b4:	4603      	mov	r3, r0
 80079b6:	2b00      	cmp	r3, #0
 80079b8:	d001      	beq.n	80079be <stm32__spi__send_receive_8bit_mode+0x2c2>
 80079ba:	bf00      	nop
 80079bc:	e7f7      	b.n	80079ae <stm32__spi__send_receive_8bit_mode+0x2b2>
 80079be:	6a7a      	ldr	r2, [r7, #36]	; 0x24
 80079c0:	6cfb      	ldr	r3, [r7, #76]	; 0x4c
 80079c2:	681b      	ldr	r3, [r3, #0]
 80079c4:	429a      	cmp	r2, r3
 80079c6:	db04      	blt.n	80079d2 <stm32__spi__send_receive_8bit_mode+0x2d6>
 80079c8:	6a7a      	ldr	r2, [r7, #36]	; 0x24
 80079ca:	6cfb      	ldr	r3, [r7, #76]	; 0x4c
 80079cc:	685b      	ldr	r3, [r3, #4]
 80079ce:	429a      	cmp	r2, r3
 80079d0:	dd04      	ble.n	80079dc <stm32__spi__send_receive_8bit_mode+0x2e0>
 80079d2:	4806      	ldr	r0, [pc, #24]	; (80079ec <stm32__spi__send_receive_8bit_mode+0x2f0>)
 80079d4:	f240 3151 	movw	r1, #849	; 0x351
 80079d8:	f7f9 fdd0 	bl	800157c <__gnat_last_chance_handler>
 80079dc:	6a7b      	ldr	r3, [r7, #36]	; 0x24
 80079de:	2b00      	cmp	r3, #0
 80079e0:	da06      	bge.n	80079f0 <stm32__spi__send_receive_8bit_mode+0x2f4>
 80079e2:	4802      	ldr	r0, [pc, #8]	; (80079ec <stm32__spi__send_receive_8bit_mode+0x2f0>)
 80079e4:	f240 3151 	movw	r1, #849	; 0x351
 80079e8:	f7f9 fdc8 	bl	800157c <__gnat_last_chance_handler>
 80079ec:	0800b870 	.word	0x0800b870
 80079f0:	6cbc      	ldr	r4, [r7, #72]	; 0x48
 80079f2:	68f8      	ldr	r0, [r7, #12]
 80079f4:	f7fe fff4 	bl	80069e0 <stm32__spi__data__2>
 80079f8:	4603      	mov	r3, r0
 80079fa:	4619      	mov	r1, r3
 80079fc:	6a7a      	ldr	r2, [r7, #36]	; 0x24
 80079fe:	6a3b      	ldr	r3, [r7, #32]
 8007a00:	1ad3      	subs	r3, r2, r3
 8007a02:	460a      	mov	r2, r1
 8007a04:	54e2      	strb	r2, [r4, r3]
 8007a06:	3734      	adds	r7, #52	; 0x34
 8007a08:	46bd      	mov	sp, r7
 8007a0a:	bdf0      	pop	{r4, r5, r6, r7, pc}

08007a0c <stm32__spi__send_16bit_mode>:
 8007a0c:	e92d 43b0 	stmdb	sp!, {r4, r5, r7, r8, r9, lr}
 8007a10:	b086      	sub	sp, #24
 8007a12:	af00      	add	r7, sp, #0
 8007a14:	60f8      	str	r0, [r7, #12]
 8007a16:	e9c7 2300 	strd	r2, r3, [r7]
 8007a1a:	687b      	ldr	r3, [r7, #4]
 8007a1c:	681c      	ldr	r4, [r3, #0]
 8007a1e:	687b      	ldr	r3, [r7, #4]
 8007a20:	685d      	ldr	r5, [r3, #4]
 8007a22:	42a5      	cmp	r5, r4
 8007a24:	db0d      	blt.n	8007a42 <stm32__spi__send_16bit_mode+0x36>
 8007a26:	4628      	mov	r0, r5
 8007a28:	ea4f 71e0 	mov.w	r1, r0, asr #31
 8007a2c:	4622      	mov	r2, r4
 8007a2e:	ea4f 73e2 	mov.w	r3, r2, asr #31
 8007a32:	1a82      	subs	r2, r0, r2
 8007a34:	eb61 0303 	sbc.w	r3, r1, r3
 8007a38:	f112 0801 	adds.w	r8, r2, #1
 8007a3c:	f143 0900 	adc.w	r9, r3, #0
 8007a40:	e003      	b.n	8007a4a <stm32__spi__send_16bit_mode+0x3e>
 8007a42:	f04f 0800 	mov.w	r8, #0
 8007a46:	f04f 0900 	mov.w	r9, #0
 8007a4a:	4622      	mov	r2, r4
 8007a4c:	ea4f 73e2 	mov.w	r3, r2, asr #31
 8007a50:	4862      	ldr	r0, [pc, #392]	; (8007bdc <stm32__spi__send_16bit_mode+0x1d0>)
 8007a52:	f04f 0100 	mov.w	r1, #0
 8007a56:	1880      	adds	r0, r0, r2
 8007a58:	eb41 0103 	adc.w	r1, r1, r3
 8007a5c:	462a      	mov	r2, r5
 8007a5e:	ea4f 73e2 	mov.w	r3, r2, asr #31
 8007a62:	4290      	cmp	r0, r2
 8007a64:	eb71 0303 	sbcs.w	r3, r1, r3
 8007a68:	da04      	bge.n	8007a74 <stm32__spi__send_16bit_mode+0x68>
 8007a6a:	485d      	ldr	r0, [pc, #372]	; (8007be0 <stm32__spi__send_16bit_mode+0x1d4>)
 8007a6c:	f240 315d 	movw	r1, #861	; 0x35d
 8007a70:	f7f9 fd84 	bl	800157c <__gnat_last_chance_handler>
 8007a74:	4643      	mov	r3, r8
 8007a76:	617b      	str	r3, [r7, #20]
 8007a78:	2c00      	cmp	r4, #0
 8007a7a:	da04      	bge.n	8007a86 <stm32__spi__send_16bit_mode+0x7a>
 8007a7c:	4858      	ldr	r0, [pc, #352]	; (8007be0 <stm32__spi__send_16bit_mode+0x1d4>)
 8007a7e:	f240 315e 	movw	r1, #862	; 0x35e
 8007a82:	f7f9 fd7b 	bl	800157c <__gnat_last_chance_handler>
 8007a86:	613c      	str	r4, [r7, #16]
 8007a88:	68f8      	ldr	r0, [r7, #12]
 8007a8a:	f7ff f81b 	bl	8006ac4 <stm32__spi__current_mode>
 8007a8e:	4603      	mov	r3, r0
 8007a90:	2b01      	cmp	r3, #1
 8007a92:	d002      	beq.n	8007a9a <stm32__spi__send_16bit_mode+0x8e>
 8007a94:	697b      	ldr	r3, [r7, #20]
 8007a96:	2b01      	cmp	r3, #1
 8007a98:	d13e      	bne.n	8007b18 <stm32__spi__send_16bit_mode+0x10c>
 8007a9a:	693b      	ldr	r3, [r7, #16]
 8007a9c:	42a3      	cmp	r3, r4
 8007a9e:	db02      	blt.n	8007aa6 <stm32__spi__send_16bit_mode+0x9a>
 8007aa0:	693b      	ldr	r3, [r7, #16]
 8007aa2:	42ab      	cmp	r3, r5
 8007aa4:	dd04      	ble.n	8007ab0 <stm32__spi__send_16bit_mode+0xa4>
 8007aa6:	484e      	ldr	r0, [pc, #312]	; (8007be0 <stm32__spi__send_16bit_mode+0x1d4>)
 8007aa8:	f240 3162 	movw	r1, #866	; 0x362
 8007aac:	f7f9 fd66 	bl	800157c <__gnat_last_chance_handler>
 8007ab0:	683a      	ldr	r2, [r7, #0]
 8007ab2:	4621      	mov	r1, r4
 8007ab4:	693b      	ldr	r3, [r7, #16]
 8007ab6:	1a5b      	subs	r3, r3, r1
 8007ab8:	005b      	lsls	r3, r3, #1
 8007aba:	4413      	add	r3, r2
 8007abc:	2b00      	cmp	r3, #0
 8007abe:	d104      	bne.n	8007aca <stm32__spi__send_16bit_mode+0xbe>
 8007ac0:	4847      	ldr	r0, [pc, #284]	; (8007be0 <stm32__spi__send_16bit_mode+0x1d4>)
 8007ac2:	f240 3162 	movw	r1, #866	; 0x362
 8007ac6:	f7f9 fd59 	bl	800157c <__gnat_last_chance_handler>
 8007aca:	68fb      	ldr	r3, [r7, #12]
 8007acc:	685b      	ldr	r3, [r3, #4]
 8007ace:	330c      	adds	r3, #12
 8007ad0:	681b      	ldr	r3, [r3, #0]
 8007ad2:	6839      	ldr	r1, [r7, #0]
 8007ad4:	4620      	mov	r0, r4
 8007ad6:	693a      	ldr	r2, [r7, #16]
 8007ad8:	1a12      	subs	r2, r2, r0
 8007ada:	0052      	lsls	r2, r2, #1
 8007adc:	440a      	add	r2, r1
 8007ade:	8812      	ldrh	r2, [r2, #0]
 8007ae0:	f362 030f 	bfi	r3, r2, #0, #16
 8007ae4:	68fa      	ldr	r2, [r7, #12]
 8007ae6:	6852      	ldr	r2, [r2, #4]
 8007ae8:	320c      	adds	r2, #12
 8007aea:	6013      	str	r3, [r2, #0]
 8007aec:	693b      	ldr	r3, [r7, #16]
 8007aee:	4a3d      	ldr	r2, [pc, #244]	; (8007be4 <stm32__spi__send_16bit_mode+0x1d8>)
 8007af0:	4293      	cmp	r3, r2
 8007af2:	dd04      	ble.n	8007afe <stm32__spi__send_16bit_mode+0xf2>
 8007af4:	483a      	ldr	r0, [pc, #232]	; (8007be0 <stm32__spi__send_16bit_mode+0x1d4>)
 8007af6:	f240 3163 	movw	r1, #867	; 0x363
 8007afa:	f7f9 fd3f 	bl	800157c <__gnat_last_chance_handler>
 8007afe:	693b      	ldr	r3, [r7, #16]
 8007b00:	3302      	adds	r3, #2
 8007b02:	613b      	str	r3, [r7, #16]
 8007b04:	697b      	ldr	r3, [r7, #20]
 8007b06:	3b01      	subs	r3, #1
 8007b08:	2b00      	cmp	r3, #0
 8007b0a:	da04      	bge.n	8007b16 <stm32__spi__send_16bit_mode+0x10a>
 8007b0c:	4834      	ldr	r0, [pc, #208]	; (8007be0 <stm32__spi__send_16bit_mode+0x1d4>)
 8007b0e:	f44f 7159 	mov.w	r1, #868	; 0x364
 8007b12:	f7f9 fd33 	bl	800157c <__gnat_last_chance_handler>
 8007b16:	617b      	str	r3, [r7, #20]
 8007b18:	697b      	ldr	r3, [r7, #20]
 8007b1a:	2b00      	cmp	r3, #0
 8007b1c:	dd4a      	ble.n	8007bb4 <stm32__spi__send_16bit_mode+0x1a8>
 8007b1e:	68f8      	ldr	r0, [r7, #12]
 8007b20:	f7fe ff96 	bl	8006a50 <stm32__spi__tx_is_empty>
 8007b24:	4603      	mov	r3, r0
 8007b26:	f083 0301 	eor.w	r3, r3, #1
 8007b2a:	b2db      	uxtb	r3, r3
 8007b2c:	2b00      	cmp	r3, #0
 8007b2e:	d001      	beq.n	8007b34 <stm32__spi__send_16bit_mode+0x128>
 8007b30:	bf00      	nop
 8007b32:	e7f4      	b.n	8007b1e <stm32__spi__send_16bit_mode+0x112>
 8007b34:	693b      	ldr	r3, [r7, #16]
 8007b36:	42a3      	cmp	r3, r4
 8007b38:	db02      	blt.n	8007b40 <stm32__spi__send_16bit_mode+0x134>
 8007b3a:	693b      	ldr	r3, [r7, #16]
 8007b3c:	42ab      	cmp	r3, r5
 8007b3e:	dd04      	ble.n	8007b4a <stm32__spi__send_16bit_mode+0x13e>
 8007b40:	4827      	ldr	r0, [pc, #156]	; (8007be0 <stm32__spi__send_16bit_mode+0x1d4>)
 8007b42:	f240 316e 	movw	r1, #878	; 0x36e
 8007b46:	f7f9 fd19 	bl	800157c <__gnat_last_chance_handler>
 8007b4a:	683a      	ldr	r2, [r7, #0]
 8007b4c:	4621      	mov	r1, r4
 8007b4e:	693b      	ldr	r3, [r7, #16]
 8007b50:	1a5b      	subs	r3, r3, r1
 8007b52:	005b      	lsls	r3, r3, #1
 8007b54:	4413      	add	r3, r2
 8007b56:	2b00      	cmp	r3, #0
 8007b58:	d104      	bne.n	8007b64 <stm32__spi__send_16bit_mode+0x158>
 8007b5a:	4821      	ldr	r0, [pc, #132]	; (8007be0 <stm32__spi__send_16bit_mode+0x1d4>)
 8007b5c:	f240 316e 	movw	r1, #878	; 0x36e
 8007b60:	f7f9 fd0c 	bl	800157c <__gnat_last_chance_handler>
 8007b64:	68fb      	ldr	r3, [r7, #12]
 8007b66:	685b      	ldr	r3, [r3, #4]
 8007b68:	330c      	adds	r3, #12
 8007b6a:	681b      	ldr	r3, [r3, #0]
 8007b6c:	6839      	ldr	r1, [r7, #0]
 8007b6e:	4620      	mov	r0, r4
 8007b70:	693a      	ldr	r2, [r7, #16]
 8007b72:	1a12      	subs	r2, r2, r0
 8007b74:	0052      	lsls	r2, r2, #1
 8007b76:	440a      	add	r2, r1
 8007b78:	8812      	ldrh	r2, [r2, #0]
 8007b7a:	f362 030f 	bfi	r3, r2, #0, #16
 8007b7e:	68fa      	ldr	r2, [r7, #12]
 8007b80:	6852      	ldr	r2, [r2, #4]
 8007b82:	320c      	adds	r2, #12
 8007b84:	6013      	str	r3, [r2, #0]
 8007b86:	693b      	ldr	r3, [r7, #16]
 8007b88:	4a16      	ldr	r2, [pc, #88]	; (8007be4 <stm32__spi__send_16bit_mode+0x1d8>)
 8007b8a:	4293      	cmp	r3, r2
 8007b8c:	dd04      	ble.n	8007b98 <stm32__spi__send_16bit_mode+0x18c>
 8007b8e:	4814      	ldr	r0, [pc, #80]	; (8007be0 <stm32__spi__send_16bit_mode+0x1d4>)
 8007b90:	f240 316f 	movw	r1, #879	; 0x36f
 8007b94:	f7f9 fcf2 	bl	800157c <__gnat_last_chance_handler>
 8007b98:	693b      	ldr	r3, [r7, #16]
 8007b9a:	3302      	adds	r3, #2
 8007b9c:	613b      	str	r3, [r7, #16]
 8007b9e:	697b      	ldr	r3, [r7, #20]
 8007ba0:	3b01      	subs	r3, #1
 8007ba2:	2b00      	cmp	r3, #0
 8007ba4:	da04      	bge.n	8007bb0 <stm32__spi__send_16bit_mode+0x1a4>
 8007ba6:	480e      	ldr	r0, [pc, #56]	; (8007be0 <stm32__spi__send_16bit_mode+0x1d4>)
 8007ba8:	f44f 715c 	mov.w	r1, #880	; 0x370
 8007bac:	f7f9 fce6 	bl	800157c <__gnat_last_chance_handler>
 8007bb0:	617b      	str	r3, [r7, #20]
 8007bb2:	e7b1      	b.n	8007b18 <stm32__spi__send_16bit_mode+0x10c>
 8007bb4:	68f8      	ldr	r0, [r7, #12]
 8007bb6:	f7fe ffd9 	bl	8006b6c <stm32__spi__crc_enabled>
 8007bba:	4603      	mov	r3, r0
 8007bbc:	2b00      	cmp	r3, #0
 8007bbe:	d009      	beq.n	8007bd4 <stm32__spi__send_16bit_mode+0x1c8>
 8007bc0:	68fb      	ldr	r3, [r7, #12]
 8007bc2:	685b      	ldr	r3, [r3, #4]
 8007bc4:	681b      	ldr	r3, [r3, #0]
 8007bc6:	461a      	mov	r2, r3
 8007bc8:	4613      	mov	r3, r2
 8007bca:	f443 5280 	orr.w	r2, r3, #4096	; 0x1000
 8007bce:	68fb      	ldr	r3, [r7, #12]
 8007bd0:	685b      	ldr	r3, [r3, #4]
 8007bd2:	601a      	str	r2, [r3, #0]
 8007bd4:	3718      	adds	r7, #24
 8007bd6:	46bd      	mov	sp, r7
 8007bd8:	e8bd 83b0 	ldmia.w	sp!, {r4, r5, r7, r8, r9, pc}
 8007bdc:	7ffffffe 	.word	0x7ffffffe
 8007be0:	0800b870 	.word	0x0800b870
 8007be4:	7ffffffd 	.word	0x7ffffffd

08007be8 <stm32__spi__send_8bit_mode>:
 8007be8:	e92d 43f0 	stmdb	sp!, {r4, r5, r6, r7, r8, r9, lr}
 8007bec:	b087      	sub	sp, #28
 8007bee:	af00      	add	r7, sp, #0
 8007bf0:	60f8      	str	r0, [r7, #12]
 8007bf2:	e9c7 2300 	strd	r2, r3, [r7]
 8007bf6:	687b      	ldr	r3, [r7, #4]
 8007bf8:	681c      	ldr	r4, [r3, #0]
 8007bfa:	687b      	ldr	r3, [r7, #4]
 8007bfc:	685d      	ldr	r5, [r3, #4]
 8007bfe:	42a5      	cmp	r5, r4
 8007c00:	db0d      	blt.n	8007c1e <stm32__spi__send_8bit_mode+0x36>
 8007c02:	4628      	mov	r0, r5
 8007c04:	ea4f 71e0 	mov.w	r1, r0, asr #31
 8007c08:	4622      	mov	r2, r4
 8007c0a:	ea4f 73e2 	mov.w	r3, r2, asr #31
 8007c0e:	1a82      	subs	r2, r0, r2
 8007c10:	eb61 0303 	sbc.w	r3, r1, r3
 8007c14:	f112 0801 	adds.w	r8, r2, #1
 8007c18:	f143 0900 	adc.w	r9, r3, #0
 8007c1c:	e003      	b.n	8007c26 <stm32__spi__send_8bit_mode+0x3e>
 8007c1e:	f04f 0800 	mov.w	r8, #0
 8007c22:	f04f 0900 	mov.w	r9, #0
 8007c26:	4626      	mov	r6, r4
 8007c28:	4622      	mov	r2, r4
 8007c2a:	ea4f 73e2 	mov.w	r3, r2, asr #31
 8007c2e:	4855      	ldr	r0, [pc, #340]	; (8007d84 <stm32__spi__send_8bit_mode+0x19c>)
 8007c30:	f04f 0100 	mov.w	r1, #0
 8007c34:	1880      	adds	r0, r0, r2
 8007c36:	eb41 0103 	adc.w	r1, r1, r3
 8007c3a:	462a      	mov	r2, r5
 8007c3c:	ea4f 73e2 	mov.w	r3, r2, asr #31
 8007c40:	4290      	cmp	r0, r2
 8007c42:	eb71 0303 	sbcs.w	r3, r1, r3
 8007c46:	da04      	bge.n	8007c52 <stm32__spi__send_8bit_mode+0x6a>
 8007c48:	484f      	ldr	r0, [pc, #316]	; (8007d88 <stm32__spi__send_8bit_mode+0x1a0>)
 8007c4a:	f44f 7160 	mov.w	r1, #896	; 0x380
 8007c4e:	f7f9 fc95 	bl	800157c <__gnat_last_chance_handler>
 8007c52:	4643      	mov	r3, r8
 8007c54:	617b      	str	r3, [r7, #20]
 8007c56:	2c00      	cmp	r4, #0
 8007c58:	da04      	bge.n	8007c64 <stm32__spi__send_8bit_mode+0x7c>
 8007c5a:	484b      	ldr	r0, [pc, #300]	; (8007d88 <stm32__spi__send_8bit_mode+0x1a0>)
 8007c5c:	f240 3181 	movw	r1, #897	; 0x381
 8007c60:	f7f9 fc8c 	bl	800157c <__gnat_last_chance_handler>
 8007c64:	613c      	str	r4, [r7, #16]
 8007c66:	68f8      	ldr	r0, [r7, #12]
 8007c68:	f7fe ff2c 	bl	8006ac4 <stm32__spi__current_mode>
 8007c6c:	4603      	mov	r3, r0
 8007c6e:	2b01      	cmp	r3, #1
 8007c70:	d002      	beq.n	8007c78 <stm32__spi__send_8bit_mode+0x90>
 8007c72:	697b      	ldr	r3, [r7, #20]
 8007c74:	2b01      	cmp	r3, #1
 8007c76:	d130      	bne.n	8007cda <stm32__spi__send_8bit_mode+0xf2>
 8007c78:	693b      	ldr	r3, [r7, #16]
 8007c7a:	42a3      	cmp	r3, r4
 8007c7c:	db02      	blt.n	8007c84 <stm32__spi__send_8bit_mode+0x9c>
 8007c7e:	693b      	ldr	r3, [r7, #16]
 8007c80:	42ab      	cmp	r3, r5
 8007c82:	dd04      	ble.n	8007c8e <stm32__spi__send_8bit_mode+0xa6>
 8007c84:	4840      	ldr	r0, [pc, #256]	; (8007d88 <stm32__spi__send_8bit_mode+0x1a0>)
 8007c86:	f44f 7161 	mov.w	r1, #900	; 0x384
 8007c8a:	f7f9 fc77 	bl	800157c <__gnat_last_chance_handler>
 8007c8e:	68fb      	ldr	r3, [r7, #12]
 8007c90:	685b      	ldr	r3, [r3, #4]
 8007c92:	330c      	adds	r3, #12
 8007c94:	681b      	ldr	r3, [r3, #0]
 8007c96:	6839      	ldr	r1, [r7, #0]
 8007c98:	693a      	ldr	r2, [r7, #16]
 8007c9a:	1b92      	subs	r2, r2, r6
 8007c9c:	5c8a      	ldrb	r2, [r1, r2]
 8007c9e:	b292      	uxth	r2, r2
 8007ca0:	f362 030f 	bfi	r3, r2, #0, #16
 8007ca4:	68fa      	ldr	r2, [r7, #12]
 8007ca6:	6852      	ldr	r2, [r2, #4]
 8007ca8:	320c      	adds	r2, #12
 8007caa:	6013      	str	r3, [r2, #0]
 8007cac:	693b      	ldr	r3, [r7, #16]
 8007cae:	f06f 4200 	mvn.w	r2, #2147483648	; 0x80000000
 8007cb2:	4293      	cmp	r3, r2
 8007cb4:	d104      	bne.n	8007cc0 <stm32__spi__send_8bit_mode+0xd8>
 8007cb6:	4834      	ldr	r0, [pc, #208]	; (8007d88 <stm32__spi__send_8bit_mode+0x1a0>)
 8007cb8:	f240 3185 	movw	r1, #901	; 0x385
 8007cbc:	f7f9 fc5e 	bl	800157c <__gnat_last_chance_handler>
 8007cc0:	693b      	ldr	r3, [r7, #16]
 8007cc2:	3301      	adds	r3, #1
 8007cc4:	613b      	str	r3, [r7, #16]
 8007cc6:	697b      	ldr	r3, [r7, #20]
 8007cc8:	3b01      	subs	r3, #1
 8007cca:	2b00      	cmp	r3, #0
 8007ccc:	da04      	bge.n	8007cd8 <stm32__spi__send_8bit_mode+0xf0>
 8007cce:	482e      	ldr	r0, [pc, #184]	; (8007d88 <stm32__spi__send_8bit_mode+0x1a0>)
 8007cd0:	f240 3186 	movw	r1, #902	; 0x386
 8007cd4:	f7f9 fc52 	bl	800157c <__gnat_last_chance_handler>
 8007cd8:	617b      	str	r3, [r7, #20]
 8007cda:	697b      	ldr	r3, [r7, #20]
 8007cdc:	2b00      	cmp	r3, #0
 8007cde:	dd3c      	ble.n	8007d5a <stm32__spi__send_8bit_mode+0x172>
 8007ce0:	68f8      	ldr	r0, [r7, #12]
 8007ce2:	f7fe feb5 	bl	8006a50 <stm32__spi__tx_is_empty>
 8007ce6:	4603      	mov	r3, r0
 8007ce8:	f083 0301 	eor.w	r3, r3, #1
 8007cec:	b2db      	uxtb	r3, r3
 8007cee:	2b00      	cmp	r3, #0
 8007cf0:	d001      	beq.n	8007cf6 <stm32__spi__send_8bit_mode+0x10e>
 8007cf2:	bf00      	nop
 8007cf4:	e7f4      	b.n	8007ce0 <stm32__spi__send_8bit_mode+0xf8>
 8007cf6:	693b      	ldr	r3, [r7, #16]
 8007cf8:	42a3      	cmp	r3, r4
 8007cfa:	db02      	blt.n	8007d02 <stm32__spi__send_8bit_mode+0x11a>
 8007cfc:	693b      	ldr	r3, [r7, #16]
 8007cfe:	42ab      	cmp	r3, r5
 8007d00:	dd04      	ble.n	8007d0c <stm32__spi__send_8bit_mode+0x124>
 8007d02:	4821      	ldr	r0, [pc, #132]	; (8007d88 <stm32__spi__send_8bit_mode+0x1a0>)
 8007d04:	f240 318f 	movw	r1, #911	; 0x38f
 8007d08:	f7f9 fc38 	bl	800157c <__gnat_last_chance_handler>
 8007d0c:	68fb      	ldr	r3, [r7, #12]
 8007d0e:	685b      	ldr	r3, [r3, #4]
 8007d10:	330c      	adds	r3, #12
 8007d12:	681b      	ldr	r3, [r3, #0]
 8007d14:	6839      	ldr	r1, [r7, #0]
 8007d16:	693a      	ldr	r2, [r7, #16]
 8007d18:	1b92      	subs	r2, r2, r6
 8007d1a:	5c8a      	ldrb	r2, [r1, r2]
 8007d1c:	b292      	uxth	r2, r2
 8007d1e:	f362 030f 	bfi	r3, r2, #0, #16
 8007d22:	68fa      	ldr	r2, [r7, #12]
 8007d24:	6852      	ldr	r2, [r2, #4]
 8007d26:	320c      	adds	r2, #12
 8007d28:	6013      	str	r3, [r2, #0]
 8007d2a:	693b      	ldr	r3, [r7, #16]
 8007d2c:	f06f 4200 	mvn.w	r2, #2147483648	; 0x80000000
 8007d30:	4293      	cmp	r3, r2
 8007d32:	d104      	bne.n	8007d3e <stm32__spi__send_8bit_mode+0x156>
 8007d34:	4814      	ldr	r0, [pc, #80]	; (8007d88 <stm32__spi__send_8bit_mode+0x1a0>)
 8007d36:	f44f 7164 	mov.w	r1, #912	; 0x390
 8007d3a:	f7f9 fc1f 	bl	800157c <__gnat_last_chance_handler>
 8007d3e:	693b      	ldr	r3, [r7, #16]
 8007d40:	3301      	adds	r3, #1
 8007d42:	613b      	str	r3, [r7, #16]
 8007d44:	697b      	ldr	r3, [r7, #20]
 8007d46:	3b01      	subs	r3, #1
 8007d48:	2b00      	cmp	r3, #0
 8007d4a:	da04      	bge.n	8007d56 <stm32__spi__send_8bit_mode+0x16e>
 8007d4c:	480e      	ldr	r0, [pc, #56]	; (8007d88 <stm32__spi__send_8bit_mode+0x1a0>)
 8007d4e:	f240 3191 	movw	r1, #913	; 0x391
 8007d52:	f7f9 fc13 	bl	800157c <__gnat_last_chance_handler>
 8007d56:	617b      	str	r3, [r7, #20]
 8007d58:	e7bf      	b.n	8007cda <stm32__spi__send_8bit_mode+0xf2>
 8007d5a:	68f8      	ldr	r0, [r7, #12]
 8007d5c:	f7fe ff06 	bl	8006b6c <stm32__spi__crc_enabled>
 8007d60:	4603      	mov	r3, r0
 8007d62:	2b00      	cmp	r3, #0
 8007d64:	d009      	beq.n	8007d7a <stm32__spi__send_8bit_mode+0x192>
 8007d66:	68fb      	ldr	r3, [r7, #12]
 8007d68:	685b      	ldr	r3, [r3, #4]
 8007d6a:	681b      	ldr	r3, [r3, #0]
 8007d6c:	461a      	mov	r2, r3
 8007d6e:	4613      	mov	r3, r2
 8007d70:	f443 5280 	orr.w	r2, r3, #4096	; 0x1000
 8007d74:	68fb      	ldr	r3, [r7, #12]
 8007d76:	685b      	ldr	r3, [r3, #4]
 8007d78:	601a      	str	r2, [r3, #0]
 8007d7a:	371c      	adds	r7, #28
 8007d7c:	46bd      	mov	sp, r7
 8007d7e:	e8bd 83f0 	ldmia.w	sp!, {r4, r5, r6, r7, r8, r9, pc}
 8007d82:	bf00      	nop
 8007d84:	7ffffffe 	.word	0x7ffffffe
 8007d88:	0800b870 	.word	0x0800b870

08007d8c <stm32__spi__receive_16bit_mode>:
 8007d8c:	e92d 41f0 	stmdb	sp!, {r4, r5, r6, r7, r8, lr}
 8007d90:	b086      	sub	sp, #24
 8007d92:	af00      	add	r7, sp, #0
 8007d94:	60f8      	str	r0, [r7, #12]
 8007d96:	e9c7 2300 	strd	r2, r3, [r7]
 8007d9a:	687b      	ldr	r3, [r7, #4]
 8007d9c:	681b      	ldr	r3, [r3, #0]
 8007d9e:	461e      	mov	r6, r3
 8007da0:	68f8      	ldr	r0, [r7, #12]
 8007da2:	f7fe fe8f 	bl	8006ac4 <stm32__spi__current_mode>
 8007da6:	4603      	mov	r3, r0
 8007da8:	2b00      	cmp	r3, #0
 8007daa:	bf0c      	ite	eq
 8007dac:	2301      	moveq	r3, #1
 8007dae:	2300      	movne	r3, #0
 8007db0:	75fb      	strb	r3, [r7, #23]
 8007db2:	687b      	ldr	r3, [r7, #4]
 8007db4:	681c      	ldr	r4, [r3, #0]
 8007db6:	687b      	ldr	r3, [r7, #4]
 8007db8:	685d      	ldr	r5, [r3, #4]
 8007dba:	42ac      	cmp	r4, r5
 8007dbc:	dc29      	bgt.n	8007e12 <stm32__spi__receive_16bit_mode+0x86>
 8007dbe:	683a      	ldr	r2, [r7, #0]
 8007dc0:	46a0      	mov	r8, r4
 8007dc2:	ebc6 0308 	rsb	r3, r6, r8
 8007dc6:	005b      	lsls	r3, r3, #1
 8007dc8:	4413      	add	r3, r2
 8007dca:	613b      	str	r3, [r7, #16]
 8007dcc:	7dfb      	ldrb	r3, [r7, #23]
 8007dce:	2b00      	cmp	r3, #0
 8007dd0:	d009      	beq.n	8007de6 <stm32__spi__receive_16bit_mode+0x5a>
 8007dd2:	68fb      	ldr	r3, [r7, #12]
 8007dd4:	685b      	ldr	r3, [r3, #4]
 8007dd6:	330c      	adds	r3, #12
 8007dd8:	681b      	ldr	r3, [r3, #0]
 8007dda:	f36f 030f 	bfc	r3, #0, #16
 8007dde:	68fa      	ldr	r2, [r7, #12]
 8007de0:	6852      	ldr	r2, [r2, #4]
 8007de2:	320c      	adds	r2, #12
 8007de4:	6013      	str	r3, [r2, #0]
 8007de6:	68f8      	ldr	r0, [r7, #12]
 8007de8:	f7fe fe44 	bl	8006a74 <stm32__spi__rx_is_empty>
 8007dec:	4603      	mov	r3, r0
 8007dee:	2b00      	cmp	r3, #0
 8007df0:	d001      	beq.n	8007df6 <stm32__spi__receive_16bit_mode+0x6a>
 8007df2:	bf00      	nop
 8007df4:	e7f7      	b.n	8007de6 <stm32__spi__receive_16bit_mode+0x5a>
 8007df6:	683b      	ldr	r3, [r7, #0]
 8007df8:	68fa      	ldr	r2, [r7, #12]
 8007dfa:	6852      	ldr	r2, [r2, #4]
 8007dfc:	320c      	adds	r2, #12
 8007dfe:	6812      	ldr	r2, [r2, #0]
 8007e00:	b291      	uxth	r1, r2
 8007e02:	ebc6 0208 	rsb	r2, r6, r8
 8007e06:	f823 1012 	strh.w	r1, [r3, r2, lsl #1]
 8007e0a:	42ac      	cmp	r4, r5
 8007e0c:	d001      	beq.n	8007e12 <stm32__spi__receive_16bit_mode+0x86>
 8007e0e:	3401      	adds	r4, #1
 8007e10:	e7d5      	b.n	8007dbe <stm32__spi__receive_16bit_mode+0x32>
 8007e12:	3718      	adds	r7, #24
 8007e14:	46bd      	mov	sp, r7
 8007e16:	e8bd 81f0 	ldmia.w	sp!, {r4, r5, r6, r7, r8, pc}
 8007e1a:	bf00      	nop

08007e1c <stm32__spi__receive_8bit_mode>:
 8007e1c:	e92d 41f0 	stmdb	sp!, {r4, r5, r6, r7, r8, lr}
 8007e20:	b086      	sub	sp, #24
 8007e22:	af00      	add	r7, sp, #0
 8007e24:	60f8      	str	r0, [r7, #12]
 8007e26:	e9c7 2300 	strd	r2, r3, [r7]
 8007e2a:	687b      	ldr	r3, [r7, #4]
 8007e2c:	681b      	ldr	r3, [r3, #0]
 8007e2e:	461e      	mov	r6, r3
 8007e30:	68f8      	ldr	r0, [r7, #12]
 8007e32:	f7fe fe47 	bl	8006ac4 <stm32__spi__current_mode>
 8007e36:	4603      	mov	r3, r0
 8007e38:	2b00      	cmp	r3, #0
 8007e3a:	bf0c      	ite	eq
 8007e3c:	2301      	moveq	r3, #1
 8007e3e:	2300      	movne	r3, #0
 8007e40:	75fb      	strb	r3, [r7, #23]
 8007e42:	687b      	ldr	r3, [r7, #4]
 8007e44:	681c      	ldr	r4, [r3, #0]
 8007e46:	687b      	ldr	r3, [r7, #4]
 8007e48:	685d      	ldr	r5, [r3, #4]
 8007e4a:	42ac      	cmp	r4, r5
 8007e4c:	dc2f      	bgt.n	8007eae <stm32__spi__receive_8bit_mode+0x92>
 8007e4e:	683a      	ldr	r2, [r7, #0]
 8007e50:	46a0      	mov	r8, r4
 8007e52:	ebc6 0308 	rsb	r3, r6, r8
 8007e56:	4413      	add	r3, r2
 8007e58:	613b      	str	r3, [r7, #16]
 8007e5a:	7dfb      	ldrb	r3, [r7, #23]
 8007e5c:	2b00      	cmp	r3, #0
 8007e5e:	d009      	beq.n	8007e74 <stm32__spi__receive_8bit_mode+0x58>
 8007e60:	68fb      	ldr	r3, [r7, #12]
 8007e62:	685b      	ldr	r3, [r3, #4]
 8007e64:	330c      	adds	r3, #12
 8007e66:	681b      	ldr	r3, [r3, #0]
 8007e68:	f36f 030f 	bfc	r3, #0, #16
 8007e6c:	68fa      	ldr	r2, [r7, #12]
 8007e6e:	6852      	ldr	r2, [r2, #4]
 8007e70:	320c      	adds	r2, #12
 8007e72:	6013      	str	r3, [r2, #0]
 8007e74:	68f8      	ldr	r0, [r7, #12]
 8007e76:	f7fe fdfd 	bl	8006a74 <stm32__spi__rx_is_empty>
 8007e7a:	4603      	mov	r3, r0
 8007e7c:	2b00      	cmp	r3, #0
 8007e7e:	d001      	beq.n	8007e84 <stm32__spi__receive_8bit_mode+0x68>
 8007e80:	bf00      	nop
 8007e82:	e7f7      	b.n	8007e74 <stm32__spi__receive_8bit_mode+0x58>
 8007e84:	68fb      	ldr	r3, [r7, #12]
 8007e86:	685b      	ldr	r3, [r3, #4]
 8007e88:	330c      	adds	r3, #12
 8007e8a:	681b      	ldr	r3, [r3, #0]
 8007e8c:	b29b      	uxth	r3, r3
 8007e8e:	2bff      	cmp	r3, #255	; 0xff
 8007e90:	d904      	bls.n	8007e9c <stm32__spi__receive_8bit_mode+0x80>
 8007e92:	4809      	ldr	r0, [pc, #36]	; (8007eb8 <stm32__spi__receive_8bit_mode+0x9c>)
 8007e94:	f240 31bf 	movw	r1, #959	; 0x3bf
 8007e98:	f7f9 fb70 	bl	800157c <__gnat_last_chance_handler>
 8007e9c:	683a      	ldr	r2, [r7, #0]
 8007e9e:	b2d9      	uxtb	r1, r3
 8007ea0:	ebc6 0308 	rsb	r3, r6, r8
 8007ea4:	54d1      	strb	r1, [r2, r3]
 8007ea6:	42ac      	cmp	r4, r5
 8007ea8:	d001      	beq.n	8007eae <stm32__spi__receive_8bit_mode+0x92>
 8007eaa:	3401      	adds	r4, #1
 8007eac:	e7cf      	b.n	8007e4e <stm32__spi__receive_8bit_mode+0x32>
 8007eae:	3718      	adds	r7, #24
 8007eb0:	46bd      	mov	sp, r7
 8007eb2:	e8bd 81f0 	ldmia.w	sp!, {r4, r5, r6, r7, r8, pc}
 8007eb6:	bf00      	nop
 8007eb8:	0800b870 	.word	0x0800b870

08007ebc <stm32__i2s__i2s_portIP>:
 8007ebc:	b480      	push	{r7}
 8007ebe:	b085      	sub	sp, #20
 8007ec0:	af00      	add	r7, sp, #0
 8007ec2:	60f8      	str	r0, [r7, #12]
 8007ec4:	60b9      	str	r1, [r7, #8]
 8007ec6:	4613      	mov	r3, r2
 8007ec8:	71fb      	strb	r3, [r7, #7]
 8007eca:	79fb      	ldrb	r3, [r7, #7]
 8007ecc:	2b00      	cmp	r3, #0
 8007ece:	d002      	beq.n	8007ed6 <stm32__i2s__i2s_portIP+0x1a>
 8007ed0:	68fb      	ldr	r3, [r7, #12]
 8007ed2:	4a05      	ldr	r2, [pc, #20]	; (8007ee8 <stm32__i2s__i2s_portIP+0x2c>)
 8007ed4:	601a      	str	r2, [r3, #0]
 8007ed6:	68fb      	ldr	r3, [r7, #12]
 8007ed8:	68ba      	ldr	r2, [r7, #8]
 8007eda:	605a      	str	r2, [r3, #4]
 8007edc:	3714      	adds	r7, #20
 8007ede:	46bd      	mov	sp, r7
 8007ee0:	f85d 7b04 	ldr.w	r7, [sp], #4
 8007ee4:	4770      	bx	lr
 8007ee6:	bf00      	nop
 8007ee8:	0800b9ac 	.word	0x0800b9ac

08007eec <stm32__i2s___size__2>:
 8007eec:	b490      	push	{r4, r7}
 8007eee:	b082      	sub	sp, #8
 8007ef0:	af00      	add	r7, sp, #0
 8007ef2:	6078      	str	r0, [r7, #4]
 8007ef4:	f04f 0340 	mov.w	r3, #64	; 0x40
 8007ef8:	f04f 0400 	mov.w	r4, #0
 8007efc:	4618      	mov	r0, r3
 8007efe:	4621      	mov	r1, r4
 8007f00:	3708      	adds	r7, #8
 8007f02:	46bd      	mov	sp, r7
 8007f04:	bc90      	pop	{r4, r7}
 8007f06:	4770      	bx	lr

08007f08 <stm32__i2s__configure___postconditions.4585>:
 8007f08:	b5b0      	push	{r4, r5, r7, lr}
 8007f0a:	b082      	sub	sp, #8
 8007f0c:	af00      	add	r7, sp, #0
 8007f0e:	4663      	mov	r3, ip
 8007f10:	f8c7 c004 	str.w	ip, [r7, #4]
 8007f14:	681b      	ldr	r3, [r3, #0]
 8007f16:	4618      	mov	r0, r3
 8007f18:	f000 f9ac 	bl	8008274 <stm32__i2s__enabled>
 8007f1c:	4603      	mov	r3, r0
 8007f1e:	2b00      	cmp	r3, #0
 8007f20:	d005      	beq.n	8007f2e <stm32__i2s__configure___postconditions.4585+0x26>
 8007f22:	4c04      	ldr	r4, [pc, #16]	; (8007f34 <stm32__i2s__configure___postconditions.4585+0x2c>)
 8007f24:	4d04      	ldr	r5, [pc, #16]	; (8007f38 <stm32__i2s__configure___postconditions.4585+0x30>)
 8007f26:	4620      	mov	r0, r4
 8007f28:	4629      	mov	r1, r5
 8007f2a:	f001 fea9 	bl	8009c80 <system__assertions__raise_assert_failure>
 8007f2e:	3708      	adds	r7, #8
 8007f30:	46bd      	mov	sp, r7
 8007f32:	bdb0      	pop	{r4, r5, r7, pc}
 8007f34:	0800b9d0 	.word	0x0800b9d0
 8007f38:	0800b9fc 	.word	0x0800b9fc

08007f3c <stm32__i2s__configure>:
 8007f3c:	b5b0      	push	{r4, r5, r7, lr}
 8007f3e:	b084      	sub	sp, #16
 8007f40:	af00      	add	r7, sp, #0
 8007f42:	6078      	str	r0, [r7, #4]
 8007f44:	6039      	str	r1, [r7, #0]
 8007f46:	f107 0320 	add.w	r3, r7, #32
 8007f4a:	60fb      	str	r3, [r7, #12]
 8007f4c:	687b      	ldr	r3, [r7, #4]
 8007f4e:	60bb      	str	r3, [r7, #8]
 8007f50:	68bb      	ldr	r3, [r7, #8]
 8007f52:	4618      	mov	r0, r3
 8007f54:	f000 f98e 	bl	8008274 <stm32__i2s__enabled>
 8007f58:	4603      	mov	r3, r0
 8007f5a:	2b00      	cmp	r3, #0
 8007f5c:	d005      	beq.n	8007f6a <stm32__i2s__configure+0x2e>
 8007f5e:	4c72      	ldr	r4, [pc, #456]	; (8008128 <stm32__i2s__configure+0x1ec>)
 8007f60:	4d72      	ldr	r5, [pc, #456]	; (800812c <stm32__i2s__configure+0x1f0>)
 8007f62:	4620      	mov	r0, r4
 8007f64:	4629      	mov	r1, r5
 8007f66:	f001 fe8b 	bl	8009c80 <system__assertions__raise_assert_failure>
 8007f6a:	683b      	ldr	r3, [r7, #0]
 8007f6c:	781b      	ldrb	r3, [r3, #0]
 8007f6e:	2b03      	cmp	r3, #3
 8007f70:	d903      	bls.n	8007f7a <stm32__i2s__configure+0x3e>
 8007f72:	486f      	ldr	r0, [pc, #444]	; (8008130 <stm32__i2s__configure+0x1f4>)
 8007f74:	2139      	movs	r1, #57	; 0x39
 8007f76:	f7f9 fb01 	bl	800157c <__gnat_last_chance_handler>
 8007f7a:	683b      	ldr	r3, [r7, #0]
 8007f7c:	781b      	ldrb	r3, [r3, #0]
 8007f7e:	2b01      	cmp	r3, #1
 8007f80:	d006      	beq.n	8007f90 <stm32__i2s__configure+0x54>
 8007f82:	2b01      	cmp	r3, #1
 8007f84:	d302      	bcc.n	8007f8c <stm32__i2s__configure+0x50>
 8007f86:	2b02      	cmp	r3, #2
 8007f88:	d004      	beq.n	8007f94 <stm32__i2s__configure+0x58>
 8007f8a:	e005      	b.n	8007f98 <stm32__i2s__configure+0x5c>
 8007f8c:	2200      	movs	r2, #0
 8007f8e:	e004      	b.n	8007f9a <stm32__i2s__configure+0x5e>
 8007f90:	2201      	movs	r2, #1
 8007f92:	e002      	b.n	8007f9a <stm32__i2s__configure+0x5e>
 8007f94:	2202      	movs	r2, #2
 8007f96:	e000      	b.n	8007f9a <stm32__i2s__configure+0x5e>
 8007f98:	2203      	movs	r2, #3
 8007f9a:	bf00      	nop
 8007f9c:	68bb      	ldr	r3, [r7, #8]
 8007f9e:	685b      	ldr	r3, [r3, #4]
 8007fa0:	331c      	adds	r3, #28
 8007fa2:	681b      	ldr	r3, [r3, #0]
 8007fa4:	f002 0203 	and.w	r2, r2, #3
 8007fa8:	b2d2      	uxtb	r2, r2
 8007faa:	f362 2309 	bfi	r3, r2, #8, #2
 8007fae:	68ba      	ldr	r2, [r7, #8]
 8007fb0:	6852      	ldr	r2, [r2, #4]
 8007fb2:	321c      	adds	r2, #28
 8007fb4:	6013      	str	r3, [r2, #0]
 8007fb6:	68bb      	ldr	r3, [r7, #8]
 8007fb8:	685b      	ldr	r3, [r3, #4]
 8007fba:	331c      	adds	r3, #28
 8007fbc:	681b      	ldr	r3, [r3, #0]
 8007fbe:	683a      	ldr	r2, [r7, #0]
 8007fc0:	7892      	ldrb	r2, [r2, #2]
 8007fc2:	2a01      	cmp	r2, #1
 8007fc4:	bf0c      	ite	eq
 8007fc6:	2201      	moveq	r2, #1
 8007fc8:	2200      	movne	r2, #0
 8007fca:	b2d2      	uxtb	r2, r2
 8007fcc:	f002 0201 	and.w	r2, r2, #1
 8007fd0:	b2d2      	uxtb	r2, r2
 8007fd2:	f362 13c7 	bfi	r3, r2, #7, #1
 8007fd6:	68ba      	ldr	r2, [r7, #8]
 8007fd8:	6852      	ldr	r2, [r2, #4]
 8007fda:	321c      	adds	r2, #28
 8007fdc:	6013      	str	r3, [r2, #0]
 8007fde:	683b      	ldr	r3, [r7, #0]
 8007fe0:	785b      	ldrb	r3, [r3, #1]
 8007fe2:	2b03      	cmp	r3, #3
 8007fe4:	d903      	bls.n	8007fee <stm32__i2s__configure+0xb2>
 8007fe6:	4852      	ldr	r0, [pc, #328]	; (8008130 <stm32__i2s__configure+0x1f4>)
 8007fe8:	2141      	movs	r1, #65	; 0x41
 8007fea:	f7f9 fac7 	bl	800157c <__gnat_last_chance_handler>
 8007fee:	683b      	ldr	r3, [r7, #0]
 8007ff0:	785b      	ldrb	r3, [r3, #1]
 8007ff2:	2b01      	cmp	r3, #1
 8007ff4:	d006      	beq.n	8008004 <stm32__i2s__configure+0xc8>
 8007ff6:	2b01      	cmp	r3, #1
 8007ff8:	d302      	bcc.n	8008000 <stm32__i2s__configure+0xc4>
 8007ffa:	2b02      	cmp	r3, #2
 8007ffc:	d004      	beq.n	8008008 <stm32__i2s__configure+0xcc>
 8007ffe:	e005      	b.n	800800c <stm32__i2s__configure+0xd0>
 8008000:	2200      	movs	r2, #0
 8008002:	e004      	b.n	800800e <stm32__i2s__configure+0xd2>
 8008004:	2201      	movs	r2, #1
 8008006:	e002      	b.n	800800e <stm32__i2s__configure+0xd2>
 8008008:	2202      	movs	r2, #2
 800800a:	e000      	b.n	800800e <stm32__i2s__configure+0xd2>
 800800c:	2203      	movs	r2, #3
 800800e:	bf00      	nop
 8008010:	68bb      	ldr	r3, [r7, #8]
 8008012:	685b      	ldr	r3, [r3, #4]
 8008014:	331c      	adds	r3, #28
 8008016:	681b      	ldr	r3, [r3, #0]
 8008018:	f002 0203 	and.w	r2, r2, #3
 800801c:	b2d2      	uxtb	r2, r2
 800801e:	f362 1305 	bfi	r3, r2, #4, #2
 8008022:	68ba      	ldr	r2, [r7, #8]
 8008024:	6852      	ldr	r2, [r2, #4]
 8008026:	321c      	adds	r2, #28
 8008028:	6013      	str	r3, [r2, #0]
 800802a:	68bb      	ldr	r3, [r7, #8]
 800802c:	685b      	ldr	r3, [r3, #4]
 800802e:	331c      	adds	r3, #28
 8008030:	681b      	ldr	r3, [r3, #0]
 8008032:	683a      	ldr	r2, [r7, #0]
 8008034:	78d2      	ldrb	r2, [r2, #3]
 8008036:	2a01      	cmp	r2, #1
 8008038:	bf0c      	ite	eq
 800803a:	2201      	moveq	r2, #1
 800803c:	2200      	movne	r2, #0
 800803e:	b2d2      	uxtb	r2, r2
 8008040:	f002 0201 	and.w	r2, r2, #1
 8008044:	b2d2      	uxtb	r2, r2
 8008046:	f362 03c3 	bfi	r3, r2, #3, #1
 800804a:	68ba      	ldr	r2, [r7, #8]
 800804c:	6852      	ldr	r2, [r2, #4]
 800804e:	321c      	adds	r2, #28
 8008050:	6013      	str	r3, [r2, #0]
 8008052:	683b      	ldr	r3, [r7, #0]
 8008054:	791b      	ldrb	r3, [r3, #4]
 8008056:	2b02      	cmp	r3, #2
 8008058:	d903      	bls.n	8008062 <stm32__i2s__configure+0x126>
 800805a:	4835      	ldr	r0, [pc, #212]	; (8008130 <stm32__i2s__configure+0x1f4>)
 800805c:	2149      	movs	r1, #73	; 0x49
 800805e:	f7f9 fa8d 	bl	800157c <__gnat_last_chance_handler>
 8008062:	683b      	ldr	r3, [r7, #0]
 8008064:	791b      	ldrb	r3, [r3, #4]
 8008066:	2b00      	cmp	r3, #0
 8008068:	d002      	beq.n	8008070 <stm32__i2s__configure+0x134>
 800806a:	2b01      	cmp	r3, #1
 800806c:	d002      	beq.n	8008074 <stm32__i2s__configure+0x138>
 800806e:	e003      	b.n	8008078 <stm32__i2s__configure+0x13c>
 8008070:	2200      	movs	r2, #0
 8008072:	e002      	b.n	800807a <stm32__i2s__configure+0x13e>
 8008074:	2201      	movs	r2, #1
 8008076:	e000      	b.n	800807a <stm32__i2s__configure+0x13e>
 8008078:	2202      	movs	r2, #2
 800807a:	bf00      	nop
 800807c:	68bb      	ldr	r3, [r7, #8]
 800807e:	685b      	ldr	r3, [r3, #4]
 8008080:	331c      	adds	r3, #28
 8008082:	681b      	ldr	r3, [r3, #0]
 8008084:	f002 0203 	and.w	r2, r2, #3
 8008088:	b2d2      	uxtb	r2, r2
 800808a:	f362 0342 	bfi	r3, r2, #1, #2
 800808e:	68ba      	ldr	r2, [r7, #8]
 8008090:	6852      	ldr	r2, [r2, #4]
 8008092:	321c      	adds	r2, #28
 8008094:	6013      	str	r3, [r2, #0]
 8008096:	68bb      	ldr	r3, [r7, #8]
 8008098:	685b      	ldr	r3, [r3, #4]
 800809a:	331c      	adds	r3, #28
 800809c:	681b      	ldr	r3, [r3, #0]
 800809e:	683a      	ldr	r2, [r7, #0]
 80080a0:	7952      	ldrb	r2, [r2, #5]
 80080a2:	2a01      	cmp	r2, #1
 80080a4:	bf0c      	ite	eq
 80080a6:	2201      	moveq	r2, #1
 80080a8:	2200      	movne	r2, #0
 80080aa:	b2d2      	uxtb	r2, r2
 80080ac:	f002 0201 	and.w	r2, r2, #1
 80080b0:	b2d2      	uxtb	r2, r2
 80080b2:	f362 0300 	bfi	r3, r2, #0, #1
 80080b6:	68ba      	ldr	r2, [r7, #8]
 80080b8:	6852      	ldr	r2, [r2, #4]
 80080ba:	321c      	adds	r2, #28
 80080bc:	6013      	str	r3, [r2, #0]
 80080be:	68bb      	ldr	r3, [r7, #8]
 80080c0:	685b      	ldr	r3, [r3, #4]
 80080c2:	3320      	adds	r3, #32
 80080c4:	681b      	ldr	r3, [r3, #0]
 80080c6:	683a      	ldr	r2, [r7, #0]
 80080c8:	7992      	ldrb	r2, [r2, #6]
 80080ca:	f002 0201 	and.w	r2, r2, #1
 80080ce:	b2d2      	uxtb	r2, r2
 80080d0:	f362 2349 	bfi	r3, r2, #9, #1
 80080d4:	68ba      	ldr	r2, [r7, #8]
 80080d6:	6852      	ldr	r2, [r2, #4]
 80080d8:	3220      	adds	r2, #32
 80080da:	6013      	str	r3, [r2, #0]
 80080dc:	68bb      	ldr	r3, [r7, #8]
 80080de:	685b      	ldr	r3, [r3, #4]
 80080e0:	3304      	adds	r3, #4
 80080e2:	681b      	ldr	r3, [r3, #0]
 80080e4:	683a      	ldr	r2, [r7, #0]
 80080e6:	79d2      	ldrb	r2, [r2, #7]
 80080e8:	f002 0201 	and.w	r2, r2, #1
 80080ec:	b2d2      	uxtb	r2, r2
 80080ee:	f362 0341 	bfi	r3, r2, #1, #1
 80080f2:	68ba      	ldr	r2, [r7, #8]
 80080f4:	6852      	ldr	r2, [r2, #4]
 80080f6:	3204      	adds	r2, #4
 80080f8:	6013      	str	r3, [r2, #0]
 80080fa:	68bb      	ldr	r3, [r7, #8]
 80080fc:	685b      	ldr	r3, [r3, #4]
 80080fe:	3304      	adds	r3, #4
 8008100:	681b      	ldr	r3, [r3, #0]
 8008102:	683a      	ldr	r2, [r7, #0]
 8008104:	7a12      	ldrb	r2, [r2, #8]
 8008106:	f002 0201 	and.w	r2, r2, #1
 800810a:	b2d2      	uxtb	r2, r2
 800810c:	f362 0300 	bfi	r3, r2, #0, #1
 8008110:	68ba      	ldr	r2, [r7, #8]
 8008112:	6852      	ldr	r2, [r2, #4]
 8008114:	3204      	adds	r2, #4
 8008116:	6013      	str	r3, [r2, #0]
 8008118:	f107 0308 	add.w	r3, r7, #8
 800811c:	469c      	mov	ip, r3
 800811e:	f7ff fef3 	bl	8007f08 <stm32__i2s__configure___postconditions.4585>
 8008122:	3710      	adds	r7, #16
 8008124:	46bd      	mov	sp, r7
 8008126:	bdb0      	pop	{r4, r5, r7, pc}
 8008128:	0800ba04 	.word	0x0800ba04
 800812c:	0800ba40 	.word	0x0800ba40
 8008130:	0800ba30 	.word	0x0800ba30

08008134 <stm32__i2s__in_i2s_mode>:
 8008134:	b480      	push	{r7}
 8008136:	b083      	sub	sp, #12
 8008138:	af00      	add	r7, sp, #0
 800813a:	6078      	str	r0, [r7, #4]
 800813c:	687b      	ldr	r3, [r7, #4]
 800813e:	685b      	ldr	r3, [r3, #4]
 8008140:	331c      	adds	r3, #28
 8008142:	681b      	ldr	r3, [r3, #0]
 8008144:	f3c3 23c0 	ubfx	r3, r3, #11, #1
 8008148:	b2db      	uxtb	r3, r3
 800814a:	bf00      	nop
 800814c:	4618      	mov	r0, r3
 800814e:	370c      	adds	r7, #12
 8008150:	46bd      	mov	sp, r7
 8008152:	f85d 7b04 	ldr.w	r7, [sp], #4
 8008156:	4770      	bx	lr

08008158 <stm32__i2s__enable___postconditions.4608>:
 8008158:	e92d 41f0 	stmdb	sp!, {r4, r5, r6, r7, r8, lr}
 800815c:	b082      	sub	sp, #8
 800815e:	af00      	add	r7, sp, #0
 8008160:	4664      	mov	r4, ip
 8008162:	f8c7 c004 	str.w	ip, [r7, #4]
 8008166:	6823      	ldr	r3, [r4, #0]
 8008168:	4618      	mov	r0, r3
 800816a:	f000 f883 	bl	8008274 <stm32__i2s__enabled>
 800816e:	4603      	mov	r3, r0
 8008170:	f083 0301 	eor.w	r3, r3, #1
 8008174:	fa5f f883 	uxtb.w	r8, r3
 8008178:	6823      	ldr	r3, [r4, #0]
 800817a:	4618      	mov	r0, r3
 800817c:	f7ff ffda 	bl	8008134 <stm32__i2s__in_i2s_mode>
 8008180:	4603      	mov	r3, r0
 8008182:	f083 0301 	eor.w	r3, r3, #1
 8008186:	b2db      	uxtb	r3, r3
 8008188:	ea48 0303 	orr.w	r3, r8, r3
 800818c:	b2db      	uxtb	r3, r3
 800818e:	2b00      	cmp	r3, #0
 8008190:	d005      	beq.n	800819e <stm32__i2s__enable___postconditions.4608+0x46>
 8008192:	4d05      	ldr	r5, [pc, #20]	; (80081a8 <stm32__i2s__enable___postconditions.4608+0x50>)
 8008194:	4e05      	ldr	r6, [pc, #20]	; (80081ac <stm32__i2s__enable___postconditions.4608+0x54>)
 8008196:	4628      	mov	r0, r5
 8008198:	4631      	mov	r1, r6
 800819a:	f001 fd71 	bl	8009c80 <system__assertions__raise_assert_failure>
 800819e:	3708      	adds	r7, #8
 80081a0:	46bd      	mov	sp, r7
 80081a2:	e8bd 81f0 	ldmia.w	sp!, {r4, r5, r6, r7, r8, pc}
 80081a6:	bf00      	nop
 80081a8:	0800ba48 	.word	0x0800ba48
 80081ac:	0800b9fc 	.word	0x0800b9fc

080081b0 <stm32__i2s__enable>:
 80081b0:	b590      	push	{r4, r7, lr}
 80081b2:	b087      	sub	sp, #28
 80081b4:	af00      	add	r7, sp, #0
 80081b6:	6078      	str	r0, [r7, #4]
 80081b8:	f107 0228 	add.w	r2, r7, #40	; 0x28
 80081bc:	617a      	str	r2, [r7, #20]
 80081be:	687a      	ldr	r2, [r7, #4]
 80081c0:	613a      	str	r2, [r7, #16]
 80081c2:	693a      	ldr	r2, [r7, #16]
 80081c4:	6852      	ldr	r2, [r2, #4]
 80081c6:	6812      	ldr	r2, [r2, #0]
 80081c8:	f3c2 1280 	ubfx	r2, r2, #6, #1
 80081cc:	b2d2      	uxtb	r2, r2
 80081ce:	2a00      	cmp	r2, #0
 80081d0:	d008      	beq.n	80081e4 <stm32__i2s__enable+0x34>
 80081d2:	4b14      	ldr	r3, [pc, #80]	; (8008224 <stm32__i2s__enable+0x74>)
 80081d4:	4c14      	ldr	r4, [pc, #80]	; (8008228 <stm32__i2s__enable+0x78>)
 80081d6:	e9c7 3402 	strd	r3, r4, [r7, #8]
 80081da:	68bb      	ldr	r3, [r7, #8]
 80081dc:	4618      	mov	r0, r3
 80081de:	2100      	movs	r1, #0
 80081e0:	f7f9 f9cc 	bl	800157c <__gnat_last_chance_handler>
 80081e4:	693b      	ldr	r3, [r7, #16]
 80081e6:	685b      	ldr	r3, [r3, #4]
 80081e8:	331c      	adds	r3, #28
 80081ea:	681b      	ldr	r3, [r3, #0]
 80081ec:	461a      	mov	r2, r3
 80081ee:	4613      	mov	r3, r2
 80081f0:	f443 6200 	orr.w	r2, r3, #2048	; 0x800
 80081f4:	693b      	ldr	r3, [r7, #16]
 80081f6:	685b      	ldr	r3, [r3, #4]
 80081f8:	331c      	adds	r3, #28
 80081fa:	601a      	str	r2, [r3, #0]
 80081fc:	693b      	ldr	r3, [r7, #16]
 80081fe:	685b      	ldr	r3, [r3, #4]
 8008200:	331c      	adds	r3, #28
 8008202:	681b      	ldr	r3, [r3, #0]
 8008204:	461a      	mov	r2, r3
 8008206:	4613      	mov	r3, r2
 8008208:	f443 6280 	orr.w	r2, r3, #1024	; 0x400
 800820c:	693b      	ldr	r3, [r7, #16]
 800820e:	685b      	ldr	r3, [r3, #4]
 8008210:	331c      	adds	r3, #28
 8008212:	601a      	str	r2, [r3, #0]
 8008214:	f107 0310 	add.w	r3, r7, #16
 8008218:	469c      	mov	ip, r3
 800821a:	f7ff ff9d 	bl	8008158 <stm32__i2s__enable___postconditions.4608>
 800821e:	371c      	adds	r7, #28
 8008220:	46bd      	mov	sp, r7
 8008222:	bd90      	pop	{r4, r7, pc}
 8008224:	0800ba74 	.word	0x0800ba74
 8008228:	0800ba98 	.word	0x0800ba98

0800822c <stm32__i2s__disable>:
 800822c:	b5b0      	push	{r4, r5, r7, lr}
 800822e:	b082      	sub	sp, #8
 8008230:	af00      	add	r7, sp, #0
 8008232:	6078      	str	r0, [r7, #4]
 8008234:	6878      	ldr	r0, [r7, #4]
 8008236:	f7ff ff7d 	bl	8008134 <stm32__i2s__in_i2s_mode>
 800823a:	4603      	mov	r3, r0
 800823c:	f083 0301 	eor.w	r3, r3, #1
 8008240:	b2db      	uxtb	r3, r3
 8008242:	2b00      	cmp	r3, #0
 8008244:	d005      	beq.n	8008252 <stm32__i2s__disable+0x26>
 8008246:	4c09      	ldr	r4, [pc, #36]	; (800826c <stm32__i2s__disable+0x40>)
 8008248:	4d09      	ldr	r5, [pc, #36]	; (8008270 <stm32__i2s__disable+0x44>)
 800824a:	4620      	mov	r0, r4
 800824c:	4629      	mov	r1, r5
 800824e:	f001 fd17 	bl	8009c80 <system__assertions__raise_assert_failure>
 8008252:	687b      	ldr	r3, [r7, #4]
 8008254:	685b      	ldr	r3, [r3, #4]
 8008256:	331c      	adds	r3, #28
 8008258:	681b      	ldr	r3, [r3, #0]
 800825a:	f36f 238a 	bfc	r3, #10, #1
 800825e:	687a      	ldr	r2, [r7, #4]
 8008260:	6852      	ldr	r2, [r2, #4]
 8008262:	321c      	adds	r2, #28
 8008264:	6013      	str	r3, [r2, #0]
 8008266:	3708      	adds	r7, #8
 8008268:	46bd      	mov	sp, r7
 800826a:	bdb0      	pop	{r4, r5, r7, pc}
 800826c:	0800baa0 	.word	0x0800baa0
 8008270:	0800b9fc 	.word	0x0800b9fc

08008274 <stm32__i2s__enabled>:
 8008274:	b480      	push	{r7}
 8008276:	b083      	sub	sp, #12
 8008278:	af00      	add	r7, sp, #0
 800827a:	6078      	str	r0, [r7, #4]
 800827c:	687b      	ldr	r3, [r7, #4]
 800827e:	685b      	ldr	r3, [r3, #4]
 8008280:	331c      	adds	r3, #28
 8008282:	681b      	ldr	r3, [r3, #0]
 8008284:	f3c3 2380 	ubfx	r3, r3, #10, #1
 8008288:	b2db      	uxtb	r3, r3
 800828a:	bf00      	nop
 800828c:	4618      	mov	r0, r3
 800828e:	370c      	adds	r7, #12
 8008290:	46bd      	mov	sp, r7
 8008292:	f85d 7b04 	ldr.w	r7, [sp], #4
 8008296:	4770      	bx	lr

08008298 <stm32__i2s__data_register_address>:
 8008298:	b480      	push	{r7}
 800829a:	b083      	sub	sp, #12
 800829c:	af00      	add	r7, sp, #0
 800829e:	6078      	str	r0, [r7, #4]
 80082a0:	687b      	ldr	r3, [r7, #4]
 80082a2:	685b      	ldr	r3, [r3, #4]
 80082a4:	330c      	adds	r3, #12
 80082a6:	bf00      	nop
 80082a8:	4618      	mov	r0, r3
 80082aa:	370c      	adds	r7, #12
 80082ac:	46bd      	mov	sp, r7
 80082ae:	f85d 7b04 	ldr.w	r7, [sp], #4
 80082b2:	4770      	bx	lr

080082b4 <stm32__i2s__set_frequency>:
 80082b4:	b5b0      	push	{r4, r5, r7, lr}
 80082b6:	b08e      	sub	sp, #56	; 0x38
 80082b8:	af00      	add	r7, sp, #0
 80082ba:	6078      	str	r0, [r7, #4]
 80082bc:	6039      	str	r1, [r7, #0]
 80082be:	6878      	ldr	r0, [r7, #4]
 80082c0:	f7ff ffd8 	bl	8008274 <stm32__i2s__enabled>
 80082c4:	4603      	mov	r3, r0
 80082c6:	2b00      	cmp	r3, #0
 80082c8:	d005      	beq.n	80082d6 <stm32__i2s__set_frequency+0x22>
 80082ca:	4c4a      	ldr	r4, [pc, #296]	; (80083f4 <stm32__i2s__set_frequency+0x140>)
 80082cc:	4d4a      	ldr	r5, [pc, #296]	; (80083f8 <stm32__i2s__set_frequency+0x144>)
 80082ce:	4620      	mov	r0, r4
 80082d0:	4629      	mov	r1, r5
 80082d2:	f001 fcd5 	bl	8009c80 <system__assertions__raise_assert_failure>
 80082d6:	f107 0308 	add.w	r3, r7, #8
 80082da:	4618      	mov	r0, r3
 80082dc:	f7f9 fcf6 	bl	8001ccc <stm32__device__system_clock_frequencies>
 80082e0:	6a3b      	ldr	r3, [r7, #32]
 80082e2:	62bb      	str	r3, [r7, #40]	; 0x28
 80082e4:	687b      	ldr	r3, [r7, #4]
 80082e6:	685b      	ldr	r3, [r3, #4]
 80082e8:	331c      	adds	r3, #28
 80082ea:	681b      	ldr	r3, [r3, #0]
 80082ec:	b2db      	uxtb	r3, r3
 80082ee:	f003 0306 	and.w	r3, r3, #6
 80082f2:	b2db      	uxtb	r3, r3
 80082f4:	2b00      	cmp	r3, #0
 80082f6:	d101      	bne.n	80082fc <stm32__i2s__set_frequency+0x48>
 80082f8:	2301      	movs	r3, #1
 80082fa:	e000      	b.n	80082fe <stm32__i2s__set_frequency+0x4a>
 80082fc:	2302      	movs	r3, #2
 80082fe:	627b      	str	r3, [r7, #36]	; 0x24
 8008300:	687b      	ldr	r3, [r7, #4]
 8008302:	685b      	ldr	r3, [r3, #4]
 8008304:	3320      	adds	r3, #32
 8008306:	681b      	ldr	r3, [r3, #0]
 8008308:	f3c3 2340 	ubfx	r3, r3, #9, #1
 800830c:	b2db      	uxtb	r3, r3
 800830e:	2b00      	cmp	r3, #0
 8008310:	d007      	beq.n	8008322 <stm32__i2s__set_frequency+0x6e>
 8008312:	6abb      	ldr	r3, [r7, #40]	; 0x28
 8008314:	0a1a      	lsrs	r2, r3, #8
 8008316:	4613      	mov	r3, r2
 8008318:	009b      	lsls	r3, r3, #2
 800831a:	4413      	add	r3, r2
 800831c:	005b      	lsls	r3, r3, #1
 800831e:	637b      	str	r3, [r7, #52]	; 0x34
 8008320:	e011      	b.n	8008346 <stm32__i2s__set_frequency+0x92>
 8008322:	6a7b      	ldr	r3, [r7, #36]	; 0x24
 8008324:	015b      	lsls	r3, r3, #5
 8008326:	2b00      	cmp	r3, #0
 8008328:	d103      	bne.n	8008332 <stm32__i2s__set_frequency+0x7e>
 800832a:	4834      	ldr	r0, [pc, #208]	; (80083fc <stm32__i2s__set_frequency+0x148>)
 800832c:	2199      	movs	r1, #153	; 0x99
 800832e:	f7f9 f925 	bl	800157c <__gnat_last_chance_handler>
 8008332:	6a7b      	ldr	r3, [r7, #36]	; 0x24
 8008334:	015b      	lsls	r3, r3, #5
 8008336:	6aba      	ldr	r2, [r7, #40]	; 0x28
 8008338:	fbb2 f2f3 	udiv	r2, r2, r3
 800833c:	4613      	mov	r3, r2
 800833e:	009b      	lsls	r3, r3, #2
 8008340:	4413      	add	r3, r2
 8008342:	005b      	lsls	r3, r3, #1
 8008344:	637b      	str	r3, [r7, #52]	; 0x34
 8008346:	683b      	ldr	r3, [r7, #0]
 8008348:	2b00      	cmp	r3, #0
 800834a:	d103      	bne.n	8008354 <stm32__i2s__set_frequency+0xa0>
 800834c:	482b      	ldr	r0, [pc, #172]	; (80083fc <stm32__i2s__set_frequency+0x148>)
 800834e:	219c      	movs	r1, #156	; 0x9c
 8008350:	f7f9 f914 	bl	800157c <__gnat_last_chance_handler>
 8008354:	6b7a      	ldr	r2, [r7, #52]	; 0x34
 8008356:	683b      	ldr	r3, [r7, #0]
 8008358:	fbb2 f3f3 	udiv	r3, r2, r3
 800835c:	3305      	adds	r3, #5
 800835e:	4a28      	ldr	r2, [pc, #160]	; (8008400 <stm32__i2s__set_frequency+0x14c>)
 8008360:	fba2 2303 	umull	r2, r3, r2, r3
 8008364:	08db      	lsrs	r3, r3, #3
 8008366:	637b      	str	r3, [r7, #52]	; 0x34
 8008368:	6b7b      	ldr	r3, [r7, #52]	; 0x34
 800836a:	f003 0301 	and.w	r3, r3, #1
 800836e:	2b00      	cmp	r3, #0
 8008370:	bf14      	ite	ne
 8008372:	2301      	movne	r3, #1
 8008374:	2300      	moveq	r3, #0
 8008376:	f887 3033 	strb.w	r3, [r7, #51]	; 0x33
 800837a:	f897 3033 	ldrb.w	r3, [r7, #51]	; 0x33
 800837e:	2b00      	cmp	r3, #0
 8008380:	d004      	beq.n	800838c <stm32__i2s__set_frequency+0xd8>
 8008382:	6b7b      	ldr	r3, [r7, #52]	; 0x34
 8008384:	3b01      	subs	r3, #1
 8008386:	085b      	lsrs	r3, r3, #1
 8008388:	62fb      	str	r3, [r7, #44]	; 0x2c
 800838a:	e002      	b.n	8008392 <stm32__i2s__set_frequency+0xde>
 800838c:	6b7b      	ldr	r3, [r7, #52]	; 0x34
 800838e:	085b      	lsrs	r3, r3, #1
 8008390:	62fb      	str	r3, [r7, #44]	; 0x2c
 8008392:	6afb      	ldr	r3, [r7, #44]	; 0x2c
 8008394:	2b01      	cmp	r3, #1
 8008396:	d902      	bls.n	800839e <stm32__i2s__set_frequency+0xea>
 8008398:	6afb      	ldr	r3, [r7, #44]	; 0x2c
 800839a:	2bff      	cmp	r3, #255	; 0xff
 800839c:	d904      	bls.n	80083a8 <stm32__i2s__set_frequency+0xf4>
 800839e:	2302      	movs	r3, #2
 80083a0:	62fb      	str	r3, [r7, #44]	; 0x2c
 80083a2:	2300      	movs	r3, #0
 80083a4:	f887 3033 	strb.w	r3, [r7, #51]	; 0x33
 80083a8:	687b      	ldr	r3, [r7, #4]
 80083aa:	685b      	ldr	r3, [r3, #4]
 80083ac:	3320      	adds	r3, #32
 80083ae:	681b      	ldr	r3, [r3, #0]
 80083b0:	f897 2033 	ldrb.w	r2, [r7, #51]	; 0x33
 80083b4:	f002 0201 	and.w	r2, r2, #1
 80083b8:	b2d2      	uxtb	r2, r2
 80083ba:	f362 2308 	bfi	r3, r2, #8, #1
 80083be:	687a      	ldr	r2, [r7, #4]
 80083c0:	6852      	ldr	r2, [r2, #4]
 80083c2:	3220      	adds	r2, #32
 80083c4:	6013      	str	r3, [r2, #0]
 80083c6:	6afb      	ldr	r3, [r7, #44]	; 0x2c
 80083c8:	2bff      	cmp	r3, #255	; 0xff
 80083ca:	d903      	bls.n	80083d4 <stm32__i2s__set_frequency+0x120>
 80083cc:	480b      	ldr	r0, [pc, #44]	; (80083fc <stm32__i2s__set_frequency+0x148>)
 80083ce:	21ad      	movs	r1, #173	; 0xad
 80083d0:	f7f9 f8d4 	bl	800157c <__gnat_last_chance_handler>
 80083d4:	687b      	ldr	r3, [r7, #4]
 80083d6:	685b      	ldr	r3, [r3, #4]
 80083d8:	3320      	adds	r3, #32
 80083da:	681b      	ldr	r3, [r3, #0]
 80083dc:	6afa      	ldr	r2, [r7, #44]	; 0x2c
 80083de:	b2d2      	uxtb	r2, r2
 80083e0:	f362 0307 	bfi	r3, r2, #0, #8
 80083e4:	687a      	ldr	r2, [r7, #4]
 80083e6:	6852      	ldr	r2, [r2, #4]
 80083e8:	3220      	adds	r2, #32
 80083ea:	6013      	str	r3, [r2, #0]
 80083ec:	3738      	adds	r7, #56	; 0x38
 80083ee:	46bd      	mov	sp, r7
 80083f0:	bdb0      	pop	{r4, r5, r7, pc}
 80083f2:	bf00      	nop
 80083f4:	0800bacc 	.word	0x0800bacc
 80083f8:	0800b9fc 	.word	0x0800b9fc
 80083fc:	0800ba30 	.word	0x0800ba30
 8008400:	cccccccd 	.word	0xcccccccd

08008404 <stm32__i2s__receive>:
 8008404:	b5b0      	push	{r4, r5, r7, lr}
 8008406:	b088      	sub	sp, #32
 8008408:	af00      	add	r7, sp, #0
 800840a:	60f8      	str	r0, [r7, #12]
 800840c:	e9c7 2300 	strd	r2, r3, [r7]
 8008410:	68f8      	ldr	r0, [r7, #12]
 8008412:	f7ff fe8f 	bl	8008134 <stm32__i2s__in_i2s_mode>
 8008416:	4603      	mov	r3, r0
 8008418:	f083 0301 	eor.w	r3, r3, #1
 800841c:	b2db      	uxtb	r3, r3
 800841e:	2b00      	cmp	r3, #0
 8008420:	d005      	beq.n	800842e <stm32__i2s__receive+0x2a>
 8008422:	4c22      	ldr	r4, [pc, #136]	; (80084ac <stm32__i2s__receive+0xa8>)
 8008424:	4d22      	ldr	r5, [pc, #136]	; (80084b0 <stm32__i2s__receive+0xac>)
 8008426:	4620      	mov	r0, r4
 8008428:	4629      	mov	r1, r5
 800842a:	f001 fc29 	bl	8009c80 <system__assertions__raise_assert_failure>
 800842e:	687b      	ldr	r3, [r7, #4]
 8008430:	681b      	ldr	r3, [r3, #0]
 8008432:	61fb      	str	r3, [r7, #28]
 8008434:	687b      	ldr	r3, [r7, #4]
 8008436:	685a      	ldr	r2, [r3, #4]
 8008438:	687b      	ldr	r3, [r7, #4]
 800843a:	681b      	ldr	r3, [r3, #0]
 800843c:	429a      	cmp	r2, r3
 800843e:	db03      	blt.n	8008448 <stm32__i2s__receive+0x44>
 8008440:	687b      	ldr	r3, [r7, #4]
 8008442:	685b      	ldr	r3, [r3, #4]
 8008444:	61bb      	str	r3, [r7, #24]
 8008446:	e003      	b.n	8008450 <stm32__i2s__receive+0x4c>
 8008448:	687b      	ldr	r3, [r7, #4]
 800844a:	681b      	ldr	r3, [r3, #0]
 800844c:	3b01      	subs	r3, #1
 800844e:	61bb      	str	r3, [r7, #24]
 8008450:	687b      	ldr	r3, [r7, #4]
 8008452:	681b      	ldr	r3, [r3, #0]
 8008454:	687a      	ldr	r2, [r7, #4]
 8008456:	6852      	ldr	r2, [r2, #4]
 8008458:	4293      	cmp	r3, r2
 800845a:	dc24      	bgt.n	80084a6 <stm32__i2s__receive+0xa2>
 800845c:	683c      	ldr	r4, [r7, #0]
 800845e:	4619      	mov	r1, r3
 8008460:	69f8      	ldr	r0, [r7, #28]
 8008462:	1a08      	subs	r0, r1, r0
 8008464:	0040      	lsls	r0, r0, #1
 8008466:	4420      	add	r0, r4
 8008468:	6178      	str	r0, [r7, #20]
 800846a:	68f8      	ldr	r0, [r7, #12]
 800846c:	6840      	ldr	r0, [r0, #4]
 800846e:	3008      	adds	r0, #8
 8008470:	6800      	ldr	r0, [r0, #0]
 8008472:	f3c0 0000 	ubfx	r0, r0, #0, #1
 8008476:	b2c0      	uxtb	r0, r0
 8008478:	f080 0001 	eor.w	r0, r0, #1
 800847c:	b2c0      	uxtb	r0, r0
 800847e:	2800      	cmp	r0, #0
 8008480:	d001      	beq.n	8008486 <stm32__i2s__receive+0x82>
 8008482:	bf00      	nop
 8008484:	e7f1      	b.n	800846a <stm32__i2s__receive+0x66>
 8008486:	6838      	ldr	r0, [r7, #0]
 8008488:	68fc      	ldr	r4, [r7, #12]
 800848a:	6864      	ldr	r4, [r4, #4]
 800848c:	340c      	adds	r4, #12
 800848e:	6824      	ldr	r4, [r4, #0]
 8008490:	b2a4      	uxth	r4, r4
 8008492:	b2a5      	uxth	r5, r4
 8008494:	69fc      	ldr	r4, [r7, #28]
 8008496:	1b09      	subs	r1, r1, r4
 8008498:	462c      	mov	r4, r5
 800849a:	f820 4011 	strh.w	r4, [r0, r1, lsl #1]
 800849e:	4293      	cmp	r3, r2
 80084a0:	d001      	beq.n	80084a6 <stm32__i2s__receive+0xa2>
 80084a2:	3301      	adds	r3, #1
 80084a4:	e7da      	b.n	800845c <stm32__i2s__receive+0x58>
 80084a6:	3720      	adds	r7, #32
 80084a8:	46bd      	mov	sp, r7
 80084aa:	bdb0      	pop	{r4, r5, r7, pc}
 80084ac:	0800baf8 	.word	0x0800baf8
 80084b0:	0800b9fc 	.word	0x0800b9fc

080084b4 <stm32__i2s__transmit>:
 80084b4:	e92d 43b0 	stmdb	sp!, {r4, r5, r7, r8, r9, lr}
 80084b8:	b088      	sub	sp, #32
 80084ba:	af00      	add	r7, sp, #0
 80084bc:	60f8      	str	r0, [r7, #12]
 80084be:	e9c7 2300 	strd	r2, r3, [r7]
 80084c2:	687b      	ldr	r3, [r7, #4]
 80084c4:	681c      	ldr	r4, [r3, #0]
 80084c6:	687b      	ldr	r3, [r7, #4]
 80084c8:	685d      	ldr	r5, [r3, #4]
 80084ca:	68f8      	ldr	r0, [r7, #12]
 80084cc:	f7ff fe32 	bl	8008134 <stm32__i2s__in_i2s_mode>
 80084d0:	4603      	mov	r3, r0
 80084d2:	f083 0301 	eor.w	r3, r3, #1
 80084d6:	b2db      	uxtb	r3, r3
 80084d8:	2b00      	cmp	r3, #0
 80084da:	d007      	beq.n	80084ec <stm32__i2s__transmit+0x38>
 80084dc:	f8df 807c 	ldr.w	r8, [pc, #124]	; 800855c <stm32__i2s__transmit+0xa8>
 80084e0:	f8df 907c 	ldr.w	r9, [pc, #124]	; 8008560 <stm32__i2s__transmit+0xac>
 80084e4:	4640      	mov	r0, r8
 80084e6:	4649      	mov	r1, r9
 80084e8:	f001 fbca 	bl	8009c80 <system__assertions__raise_assert_failure>
 80084ec:	61fc      	str	r4, [r7, #28]
 80084ee:	42a5      	cmp	r5, r4
 80084f0:	db01      	blt.n	80084f6 <stm32__i2s__transmit+0x42>
 80084f2:	61bd      	str	r5, [r7, #24]
 80084f4:	e002      	b.n	80084fc <stm32__i2s__transmit+0x48>
 80084f6:	4623      	mov	r3, r4
 80084f8:	3b01      	subs	r3, #1
 80084fa:	61bb      	str	r3, [r7, #24]
 80084fc:	42ac      	cmp	r4, r5
 80084fe:	dc28      	bgt.n	8008552 <stm32__i2s__transmit+0x9e>
 8008500:	6839      	ldr	r1, [r7, #0]
 8008502:	4622      	mov	r2, r4
 8008504:	69fb      	ldr	r3, [r7, #28]
 8008506:	1ad3      	subs	r3, r2, r3
 8008508:	005b      	lsls	r3, r3, #1
 800850a:	440b      	add	r3, r1
 800850c:	617b      	str	r3, [r7, #20]
 800850e:	68fb      	ldr	r3, [r7, #12]
 8008510:	685b      	ldr	r3, [r3, #4]
 8008512:	3308      	adds	r3, #8
 8008514:	681b      	ldr	r3, [r3, #0]
 8008516:	f3c3 0340 	ubfx	r3, r3, #1, #1
 800851a:	b2db      	uxtb	r3, r3
 800851c:	f083 0301 	eor.w	r3, r3, #1
 8008520:	b2db      	uxtb	r3, r3
 8008522:	2b00      	cmp	r3, #0
 8008524:	d001      	beq.n	800852a <stm32__i2s__transmit+0x76>
 8008526:	bf00      	nop
 8008528:	e7f1      	b.n	800850e <stm32__i2s__transmit+0x5a>
 800852a:	68fb      	ldr	r3, [r7, #12]
 800852c:	685b      	ldr	r3, [r3, #4]
 800852e:	330c      	adds	r3, #12
 8008530:	681b      	ldr	r3, [r3, #0]
 8008532:	6839      	ldr	r1, [r7, #0]
 8008534:	69f8      	ldr	r0, [r7, #28]
 8008536:	1a12      	subs	r2, r2, r0
 8008538:	f831 2012 	ldrh.w	r2, [r1, r2, lsl #1]
 800853c:	b292      	uxth	r2, r2
 800853e:	f362 030f 	bfi	r3, r2, #0, #16
 8008542:	68fa      	ldr	r2, [r7, #12]
 8008544:	6852      	ldr	r2, [r2, #4]
 8008546:	320c      	adds	r2, #12
 8008548:	6013      	str	r3, [r2, #0]
 800854a:	42ac      	cmp	r4, r5
 800854c:	d001      	beq.n	8008552 <stm32__i2s__transmit+0x9e>
 800854e:	3401      	adds	r4, #1
 8008550:	e7d6      	b.n	8008500 <stm32__i2s__transmit+0x4c>
 8008552:	3720      	adds	r7, #32
 8008554:	46bd      	mov	sp, r7
 8008556:	e8bd 83b0 	ldmia.w	sp!, {r4, r5, r7, r8, r9, pc}
 800855a:	bf00      	nop
 800855c:	0800bb24 	.word	0x0800bb24
 8008560:	0800b9fc 	.word	0x0800b9fc

08008564 <stm32__adc___elabs>:
 8008564:	b598      	push	{r3, r4, r7, lr}
 8008566:	af00      	add	r7, sp, #0
 8008568:	2003      	movs	r0, #3
 800856a:	f000 f973 	bl	8008854 <ada__real_time__microseconds>
 800856e:	4603      	mov	r3, r0
 8008570:	460c      	mov	r4, r1
 8008572:	4a06      	ldr	r2, [pc, #24]	; (800858c <stm32__adc___elabs+0x28>)
 8008574:	e9c2 3400 	strd	r3, r4, [r2]
 8008578:	200a      	movs	r0, #10
 800857a:	f000 f96b 	bl	8008854 <ada__real_time__microseconds>
 800857e:	4603      	mov	r3, r0
 8008580:	460c      	mov	r4, r1
 8008582:	4a03      	ldr	r2, [pc, #12]	; (8008590 <stm32__adc___elabs+0x2c>)
 8008584:	e9c2 3400 	strd	r3, r4, [r2]
 8008588:	bd98      	pop	{r3, r4, r7, pc}
 800858a:	bf00      	nop
 800858c:	200006a8 	.word	0x200006a8
 8008590:	200006b0 	.word	0x200006b0

08008594 <stm32_svd__spi__sr_registerIP>:
 8008594:	b480      	push	{r7}
 8008596:	b083      	sub	sp, #12
 8008598:	af00      	add	r7, sp, #0
 800859a:	6078      	str	r0, [r7, #4]
 800859c:	687b      	ldr	r3, [r7, #4]
 800859e:	781a      	ldrb	r2, [r3, #0]
 80085a0:	f022 0201 	bic.w	r2, r2, #1
 80085a4:	701a      	strb	r2, [r3, #0]
 80085a6:	687b      	ldr	r3, [r7, #4]
 80085a8:	781a      	ldrb	r2, [r3, #0]
 80085aa:	f042 0202 	orr.w	r2, r2, #2
 80085ae:	701a      	strb	r2, [r3, #0]
 80085b0:	687b      	ldr	r3, [r7, #4]
 80085b2:	781a      	ldrb	r2, [r3, #0]
 80085b4:	f022 0204 	bic.w	r2, r2, #4
 80085b8:	701a      	strb	r2, [r3, #0]
 80085ba:	687b      	ldr	r3, [r7, #4]
 80085bc:	781a      	ldrb	r2, [r3, #0]
 80085be:	f022 0208 	bic.w	r2, r2, #8
 80085c2:	701a      	strb	r2, [r3, #0]
 80085c4:	687b      	ldr	r3, [r7, #4]
 80085c6:	781a      	ldrb	r2, [r3, #0]
 80085c8:	f022 0210 	bic.w	r2, r2, #16
 80085cc:	701a      	strb	r2, [r3, #0]
 80085ce:	687b      	ldr	r3, [r7, #4]
 80085d0:	781a      	ldrb	r2, [r3, #0]
 80085d2:	f022 0220 	bic.w	r2, r2, #32
 80085d6:	701a      	strb	r2, [r3, #0]
 80085d8:	687b      	ldr	r3, [r7, #4]
 80085da:	781a      	ldrb	r2, [r3, #0]
 80085dc:	f022 0240 	bic.w	r2, r2, #64	; 0x40
 80085e0:	701a      	strb	r2, [r3, #0]
 80085e2:	687b      	ldr	r3, [r7, #4]
 80085e4:	781a      	ldrb	r2, [r3, #0]
 80085e6:	f002 027f 	and.w	r2, r2, #127	; 0x7f
 80085ea:	701a      	strb	r2, [r3, #0]
 80085ec:	687b      	ldr	r3, [r7, #4]
 80085ee:	681a      	ldr	r2, [r3, #0]
 80085f0:	b2d2      	uxtb	r2, r2
 80085f2:	601a      	str	r2, [r3, #0]
 80085f4:	370c      	adds	r7, #12
 80085f6:	46bd      	mov	sp, r7
 80085f8:	f85d 7b04 	ldr.w	r7, [sp], #4
 80085fc:	4770      	bx	lr
 80085fe:	bf00      	nop

08008600 <stm32_svd__i2c__cr1_registerIP>:
 8008600:	b480      	push	{r7}
 8008602:	b083      	sub	sp, #12
 8008604:	af00      	add	r7, sp, #0
 8008606:	6078      	str	r0, [r7, #4]
 8008608:	687b      	ldr	r3, [r7, #4]
 800860a:	781a      	ldrb	r2, [r3, #0]
 800860c:	f022 0201 	bic.w	r2, r2, #1
 8008610:	701a      	strb	r2, [r3, #0]
 8008612:	687b      	ldr	r3, [r7, #4]
 8008614:	781a      	ldrb	r2, [r3, #0]
 8008616:	f022 0202 	bic.w	r2, r2, #2
 800861a:	701a      	strb	r2, [r3, #0]
 800861c:	687b      	ldr	r3, [r7, #4]
 800861e:	781a      	ldrb	r2, [r3, #0]
 8008620:	f022 0204 	bic.w	r2, r2, #4
 8008624:	701a      	strb	r2, [r3, #0]
 8008626:	687b      	ldr	r3, [r7, #4]
 8008628:	781a      	ldrb	r2, [r3, #0]
 800862a:	f022 0208 	bic.w	r2, r2, #8
 800862e:	701a      	strb	r2, [r3, #0]
 8008630:	687b      	ldr	r3, [r7, #4]
 8008632:	781a      	ldrb	r2, [r3, #0]
 8008634:	f022 0210 	bic.w	r2, r2, #16
 8008638:	701a      	strb	r2, [r3, #0]
 800863a:	687b      	ldr	r3, [r7, #4]
 800863c:	781a      	ldrb	r2, [r3, #0]
 800863e:	f022 0220 	bic.w	r2, r2, #32
 8008642:	701a      	strb	r2, [r3, #0]
 8008644:	687b      	ldr	r3, [r7, #4]
 8008646:	781a      	ldrb	r2, [r3, #0]
 8008648:	f022 0240 	bic.w	r2, r2, #64	; 0x40
 800864c:	701a      	strb	r2, [r3, #0]
 800864e:	687b      	ldr	r3, [r7, #4]
 8008650:	781a      	ldrb	r2, [r3, #0]
 8008652:	f002 027f 	and.w	r2, r2, #127	; 0x7f
 8008656:	701a      	strb	r2, [r3, #0]
 8008658:	687b      	ldr	r3, [r7, #4]
 800865a:	785a      	ldrb	r2, [r3, #1]
 800865c:	f022 0201 	bic.w	r2, r2, #1
 8008660:	705a      	strb	r2, [r3, #1]
 8008662:	687b      	ldr	r3, [r7, #4]
 8008664:	785a      	ldrb	r2, [r3, #1]
 8008666:	f022 0202 	bic.w	r2, r2, #2
 800866a:	705a      	strb	r2, [r3, #1]
 800866c:	687b      	ldr	r3, [r7, #4]
 800866e:	785a      	ldrb	r2, [r3, #1]
 8008670:	f022 0204 	bic.w	r2, r2, #4
 8008674:	705a      	strb	r2, [r3, #1]
 8008676:	687b      	ldr	r3, [r7, #4]
 8008678:	785a      	ldrb	r2, [r3, #1]
 800867a:	f022 0208 	bic.w	r2, r2, #8
 800867e:	705a      	strb	r2, [r3, #1]
 8008680:	687b      	ldr	r3, [r7, #4]
 8008682:	785a      	ldrb	r2, [r3, #1]
 8008684:	f022 0210 	bic.w	r2, r2, #16
 8008688:	705a      	strb	r2, [r3, #1]
 800868a:	687b      	ldr	r3, [r7, #4]
 800868c:	785a      	ldrb	r2, [r3, #1]
 800868e:	f022 0220 	bic.w	r2, r2, #32
 8008692:	705a      	strb	r2, [r3, #1]
 8008694:	687b      	ldr	r3, [r7, #4]
 8008696:	785a      	ldrb	r2, [r3, #1]
 8008698:	f022 0240 	bic.w	r2, r2, #64	; 0x40
 800869c:	705a      	strb	r2, [r3, #1]
 800869e:	687b      	ldr	r3, [r7, #4]
 80086a0:	785a      	ldrb	r2, [r3, #1]
 80086a2:	f002 027f 	and.w	r2, r2, #127	; 0x7f
 80086a6:	705a      	strb	r2, [r3, #1]
 80086a8:	687b      	ldr	r3, [r7, #4]
 80086aa:	2200      	movs	r2, #0
 80086ac:	805a      	strh	r2, [r3, #2]
 80086ae:	370c      	adds	r7, #12
 80086b0:	46bd      	mov	sp, r7
 80086b2:	f85d 7b04 	ldr.w	r7, [sp], #4
 80086b6:	4770      	bx	lr

080086b8 <stm32_svd__i2c__oar1_registerIP>:
 80086b8:	b480      	push	{r7}
 80086ba:	b083      	sub	sp, #12
 80086bc:	af00      	add	r7, sp, #0
 80086be:	6078      	str	r0, [r7, #4]
 80086c0:	687b      	ldr	r3, [r7, #4]
 80086c2:	781a      	ldrb	r2, [r3, #0]
 80086c4:	f022 0201 	bic.w	r2, r2, #1
 80086c8:	701a      	strb	r2, [r3, #0]
 80086ca:	687b      	ldr	r3, [r7, #4]
 80086cc:	781a      	ldrb	r2, [r3, #0]
 80086ce:	f002 0201 	and.w	r2, r2, #1
 80086d2:	701a      	strb	r2, [r3, #0]
 80086d4:	687b      	ldr	r3, [r7, #4]
 80086d6:	785a      	ldrb	r2, [r3, #1]
 80086d8:	f022 0203 	bic.w	r2, r2, #3
 80086dc:	705a      	strb	r2, [r3, #1]
 80086de:	687b      	ldr	r3, [r7, #4]
 80086e0:	785a      	ldrb	r2, [r3, #1]
 80086e2:	f022 027c 	bic.w	r2, r2, #124	; 0x7c
 80086e6:	705a      	strb	r2, [r3, #1]
 80086e8:	687b      	ldr	r3, [r7, #4]
 80086ea:	785a      	ldrb	r2, [r3, #1]
 80086ec:	f002 027f 	and.w	r2, r2, #127	; 0x7f
 80086f0:	705a      	strb	r2, [r3, #1]
 80086f2:	687b      	ldr	r3, [r7, #4]
 80086f4:	2200      	movs	r2, #0
 80086f6:	805a      	strh	r2, [r3, #2]
 80086f8:	370c      	adds	r7, #12
 80086fa:	46bd      	mov	sp, r7
 80086fc:	f85d 7b04 	ldr.w	r7, [sp], #4
 8008700:	4770      	bx	lr
 8008702:	bf00      	nop

08008704 <stm32_svd__i2c__ccr_registerIP>:
 8008704:	b480      	push	{r7}
 8008706:	b083      	sub	sp, #12
 8008708:	af00      	add	r7, sp, #0
 800870a:	6078      	str	r0, [r7, #4]
 800870c:	687a      	ldr	r2, [r7, #4]
 800870e:	8813      	ldrh	r3, [r2, #0]
 8008710:	f423 637f 	bic.w	r3, r3, #4080	; 0xff0
 8008714:	f023 030f 	bic.w	r3, r3, #15
 8008718:	8013      	strh	r3, [r2, #0]
 800871a:	687b      	ldr	r3, [r7, #4]
 800871c:	785a      	ldrb	r2, [r3, #1]
 800871e:	f022 0230 	bic.w	r2, r2, #48	; 0x30
 8008722:	705a      	strb	r2, [r3, #1]
 8008724:	687b      	ldr	r3, [r7, #4]
 8008726:	785a      	ldrb	r2, [r3, #1]
 8008728:	f022 0240 	bic.w	r2, r2, #64	; 0x40
 800872c:	705a      	strb	r2, [r3, #1]
 800872e:	687b      	ldr	r3, [r7, #4]
 8008730:	785a      	ldrb	r2, [r3, #1]
 8008732:	f002 027f 	and.w	r2, r2, #127	; 0x7f
 8008736:	705a      	strb	r2, [r3, #1]
 8008738:	687b      	ldr	r3, [r7, #4]
 800873a:	2200      	movs	r2, #0
 800873c:	805a      	strh	r2, [r3, #2]
 800873e:	370c      	adds	r7, #12
 8008740:	46bd      	mov	sp, r7
 8008742:	f85d 7b04 	ldr.w	r7, [sp], #4
 8008746:	4770      	bx	lr

08008748 <ada__real_time__Oadd>:
 8008748:	2a00      	cmp	r2, #0
 800874a:	b5f8      	push	{r3, r4, r5, r6, r7, lr}
 800874c:	f173 0400 	sbcs.w	r4, r3, #0
 8008750:	db1f      	blt.n	8008792 <ada__real_time__Oadd+0x4a>
 8008752:	43cd      	mvns	r5, r1
 8008754:	43c4      	mvns	r4, r0
 8008756:	429d      	cmp	r5, r3
 8008758:	bf08      	it	eq
 800875a:	4294      	cmpeq	r4, r2
 800875c:	d216      	bcs.n	800878c <ada__real_time__Oadd+0x44>
 800875e:	f112 34ff 	adds.w	r4, r2, #4294967295
 8008762:	f163 4500 	sbc.w	r5, r3, #2147483648	; 0x80000000
 8008766:	f06f 4700 	mvn.w	r7, #2147483648	; 0x80000000
 800876a:	f06f 0601 	mvn.w	r6, #1
 800876e:	42af      	cmp	r7, r5
 8008770:	bf08      	it	eq
 8008772:	42a6      	cmpeq	r6, r4
 8008774:	d316      	bcc.n	80087a4 <ada__real_time__Oadd+0x5c>
 8008776:	4252      	negs	r2, r2
 8008778:	eb63 0343 	sbc.w	r3, r3, r3, lsl #1
 800877c:	4299      	cmp	r1, r3
 800877e:	bf08      	it	eq
 8008780:	4290      	cmpeq	r0, r2
 8008782:	d30f      	bcc.n	80087a4 <ada__real_time__Oadd+0x5c>
 8008784:	1a80      	subs	r0, r0, r2
 8008786:	eb61 0103 	sbc.w	r1, r1, r3
 800878a:	bdf8      	pop	{r3, r4, r5, r6, r7, pc}
 800878c:	1880      	adds	r0, r0, r2
 800878e:	4159      	adcs	r1, r3
 8008790:	bdf8      	pop	{r3, r4, r5, r6, r7, pc}
 8008792:	f1b3 4f00 	cmp.w	r3, #2147483648	; 0x80000000
 8008796:	bf08      	it	eq
 8008798:	2a00      	cmpeq	r2, #0
 800879a:	d1e0      	bne.n	800875e <ada__real_time__Oadd+0x16>
 800879c:	2800      	cmp	r0, #0
 800879e:	f171 0300 	sbcs.w	r3, r1, #0
 80087a2:	db03      	blt.n	80087ac <ada__real_time__Oadd+0x64>
 80087a4:	4803      	ldr	r0, [pc, #12]	; (80087b4 <ada__real_time__Oadd+0x6c>)
 80087a6:	21cf      	movs	r1, #207	; 0xcf
 80087a8:	f7f8 fee8 	bl	800157c <__gnat_last_chance_handler>
 80087ac:	3000      	adds	r0, #0
 80087ae:	f141 4100 	adc.w	r1, r1, #2147483648	; 0x80000000
 80087b2:	bdf8      	pop	{r3, r4, r5, r6, r7, pc}
 80087b4:	0800bc80 	.word	0x0800bc80

080087b8 <ada__real_time__Osubtract__2>:
 80087b8:	4299      	cmp	r1, r3
 80087ba:	bf08      	it	eq
 80087bc:	4290      	cmpeq	r0, r2
 80087be:	b508      	push	{r3, lr}
 80087c0:	d309      	bcc.n	80087d6 <ada__real_time__Osubtract__2+0x1e>
 80087c2:	1a82      	subs	r2, r0, r2
 80087c4:	eb61 0303 	sbc.w	r3, r1, r3
 80087c8:	2a00      	cmp	r2, #0
 80087ca:	f173 0100 	sbcs.w	r1, r3, #0
 80087ce:	db0e      	blt.n	80087ee <ada__real_time__Osubtract__2+0x36>
 80087d0:	4610      	mov	r0, r2
 80087d2:	4619      	mov	r1, r3
 80087d4:	bd08      	pop	{r3, pc}
 80087d6:	1a12      	subs	r2, r2, r0
 80087d8:	eb63 0301 	sbc.w	r3, r3, r1
 80087dc:	f1b3 4f00 	cmp.w	r3, #2147483648	; 0x80000000
 80087e0:	bf08      	it	eq
 80087e2:	2a01      	cmpeq	r2, #1
 80087e4:	d203      	bcs.n	80087ee <ada__real_time__Osubtract__2+0x36>
 80087e6:	4250      	negs	r0, r2
 80087e8:	eb63 0143 	sbc.w	r1, r3, r3, lsl #1
 80087ec:	bd08      	pop	{r3, pc}
 80087ee:	4802      	ldr	r0, [pc, #8]	; (80087f8 <ada__real_time__Osubtract__2+0x40>)
 80087f0:	f44f 7186 	mov.w	r1, #268	; 0x10c
 80087f4:	f7f8 fec2 	bl	800157c <__gnat_last_chance_handler>
 80087f8:	0800bc80 	.word	0x0800bc80

080087fc <ada__real_time__clock>:
 80087fc:	e92d 43f8 	stmdb	sp!, {r3, r4, r5, r6, r7, r8, r9, lr}
 8008800:	4e13      	ldr	r6, [pc, #76]	; (8008850 <ada__real_time__clock+0x54>)
 8008802:	2400      	movs	r4, #0
 8008804:	f106 0804 	add.w	r8, r6, #4
 8008808:	6835      	ldr	r5, [r6, #0]
 800880a:	f8d8 7000 	ldr.w	r7, [r8]
 800880e:	f000 f9f9 	bl	8008c04 <system__bb__board_support__read_clock>
 8008812:	6833      	ldr	r3, [r6, #0]
 8008814:	ebc9 0205 	rsb	r2, r9, r5
 8008818:	429d      	cmp	r5, r3
 800881a:	f104 0401 	add.w	r4, r4, #1
 800881e:	d00d      	beq.n	800883c <ada__real_time__clock+0x40>
 8008820:	2c01      	cmp	r4, #1
 8008822:	d009      	beq.n	8008838 <ada__real_time__clock+0x3c>
 8008824:	2a01      	cmp	r2, #1
 8008826:	d801      	bhi.n	800882c <ada__real_time__clock+0x30>
 8008828:	2c03      	cmp	r4, #3
 800882a:	d1ed      	bne.n	8008808 <ada__real_time__clock+0xc>
 800882c:	462b      	mov	r3, r5
 800882e:	2200      	movs	r2, #0
 8008830:	4610      	mov	r0, r2
 8008832:	4619      	mov	r1, r3
 8008834:	e8bd 83f8 	ldmia.w	sp!, {r3, r4, r5, r6, r7, r8, r9, pc}
 8008838:	46a9      	mov	r9, r5
 800883a:	e7e5      	b.n	8008808 <ada__real_time__clock+0xc>
 800883c:	4287      	cmp	r7, r0
 800883e:	bf94      	ite	ls
 8008840:	462b      	movls	r3, r5
 8008842:	1c6b      	addhi	r3, r5, #1
 8008844:	2200      	movs	r2, #0
 8008846:	1812      	adds	r2, r2, r0
 8008848:	f143 0300 	adc.w	r3, r3, #0
 800884c:	e7f0      	b.n	8008830 <ada__real_time__clock+0x34>
 800884e:	bf00      	nop
 8008850:	20000088 	.word	0x20000088

08008854 <ada__real_time__microseconds>:
 8008854:	b508      	push	{r3, lr}
 8008856:	4b09      	ldr	r3, [pc, #36]	; (800887c <ada__real_time__microseconds+0x28>)
 8008858:	fb80 0103 	smull	r0, r1, r0, r3
 800885c:	2800      	cmp	r0, #0
 800885e:	f171 0300 	sbcs.w	r3, r1, #0
 8008862:	bfab      	itete	ge
 8008864:	4a06      	ldrge	r2, [pc, #24]	; (8008880 <ada__real_time__microseconds+0x2c>)
 8008866:	4a07      	ldrlt	r2, [pc, #28]	; (8008884 <ada__real_time__microseconds+0x30>)
 8008868:	2300      	movge	r3, #0
 800886a:	f04f 33ff 	movlt.w	r3, #4294967295
 800886e:	1880      	adds	r0, r0, r2
 8008870:	4159      	adcs	r1, r3
 8008872:	4a05      	ldr	r2, [pc, #20]	; (8008888 <ada__real_time__microseconds+0x34>)
 8008874:	2300      	movs	r3, #0
 8008876:	f001 fdb1 	bl	800a3dc <__aeabi_ldivmod>
 800887a:	bd08      	pop	{r3, pc}
 800887c:	044aa200 	.word	0x044aa200
 8008880:	0007a120 	.word	0x0007a120
 8008884:	fff85ee0 	.word	0xfff85ee0
 8008888:	000f4240 	.word	0x000f4240

0800888c <ada__real_time__milliseconds>:
 800888c:	b508      	push	{r3, lr}
 800888e:	4b0d      	ldr	r3, [pc, #52]	; (80088c4 <ada__real_time__milliseconds+0x38>)
 8008890:	fb80 0103 	smull	r0, r1, r0, r3
 8008894:	2800      	cmp	r0, #0
 8008896:	f171 0300 	sbcs.w	r3, r1, #0
 800889a:	db09      	blt.n	80088b0 <ada__real_time__milliseconds+0x24>
 800889c:	f510 70fa 	adds.w	r0, r0, #500	; 0x1f4
 80088a0:	f141 0100 	adc.w	r1, r1, #0
 80088a4:	f44f 727a 	mov.w	r2, #1000	; 0x3e8
 80088a8:	2300      	movs	r3, #0
 80088aa:	f001 fd97 	bl	800a3dc <__aeabi_ldivmod>
 80088ae:	bd08      	pop	{r3, pc}
 80088b0:	f5b0 70fa 	subs.w	r0, r0, #500	; 0x1f4
 80088b4:	f141 31ff 	adc.w	r1, r1, #4294967295
 80088b8:	f44f 727a 	mov.w	r2, #1000	; 0x3e8
 80088bc:	2300      	movs	r3, #0
 80088be:	f001 fd8d 	bl	800a3dc <__aeabi_ldivmod>
 80088c2:	bd08      	pop	{r3, pc}
 80088c4:	044aa200 	.word	0x044aa200

080088c8 <ada__real_time___elabb>:
 80088c8:	f000 ba66 	b.w	8008d98 <system__tasking__initialize>

080088cc <__gnat_start_slave_cpus>:
 80088cc:	4770      	bx	lr
 80088ce:	bf00      	nop

080088d0 <system__bb__time__get_next_timeout>:
 80088d0:	b240      	sxtb	r0, r0
 80088d2:	f100 4080 	add.w	r0, r0, #1073741824	; 0x40000000
 80088d6:	4b12      	ldr	r3, [pc, #72]	; (8008920 <system__bb__time__get_next_timeout+0x50>)
 80088d8:	3801      	subs	r0, #1
 80088da:	f853 3020 	ldr.w	r3, [r3, r0, lsl #2]
 80088de:	b430      	push	{r4, r5}
 80088e0:	b18b      	cbz	r3, 8008906 <system__bb__time__get_next_timeout+0x36>
 80088e2:	e9d3 4512 	ldrd	r4, r5, [r3, #72]	; 0x48
 80088e6:	4b0f      	ldr	r3, [pc, #60]	; (8008924 <system__bb__time__get_next_timeout+0x54>)
 80088e8:	f853 3020 	ldr.w	r3, [r3, r0, lsl #2]
 80088ec:	b1a3      	cbz	r3, 8008918 <system__bb__time__get_next_timeout+0x48>
 80088ee:	689a      	ldr	r2, [r3, #8]
 80088f0:	68db      	ldr	r3, [r3, #12]
 80088f2:	429d      	cmp	r5, r3
 80088f4:	bf08      	it	eq
 80088f6:	4294      	cmpeq	r4, r2
 80088f8:	4610      	mov	r0, r2
 80088fa:	4619      	mov	r1, r3
 80088fc:	bf3c      	itt	cc
 80088fe:	4620      	movcc	r0, r4
 8008900:	4629      	movcc	r1, r5
 8008902:	bc30      	pop	{r4, r5}
 8008904:	4770      	bx	lr
 8008906:	4b07      	ldr	r3, [pc, #28]	; (8008924 <system__bb__time__get_next_timeout+0x54>)
 8008908:	f04f 34ff 	mov.w	r4, #4294967295
 800890c:	f853 3020 	ldr.w	r3, [r3, r0, lsl #2]
 8008910:	f04f 35ff 	mov.w	r5, #4294967295
 8008914:	2b00      	cmp	r3, #0
 8008916:	d1ea      	bne.n	80088ee <system__bb__time__get_next_timeout+0x1e>
 8008918:	f04f 32ff 	mov.w	r2, #4294967295
 800891c:	4613      	mov	r3, r2
 800891e:	e7e8      	b.n	80088f2 <system__bb__time__get_next_timeout+0x22>
 8008920:	200000c8 	.word	0x200000c8
 8008924:	200000b4 	.word	0x200000b4

08008928 <system__bb__time__initialize_timers>:
 8008928:	e92d 4ff8 	stmdb	sp!, {r3, r4, r5, r6, r7, r8, r9, sl, fp, lr}
 800892c:	4b1e      	ldr	r3, [pc, #120]	; (80089a8 <system__bb__time__initialize_timers+0x80>)
 800892e:	4c1f      	ldr	r4, [pc, #124]	; (80089ac <system__bb__time__initialize_timers+0x84>)
 8008930:	f8df a08c 	ldr.w	sl, [pc, #140]	; 80089c0 <system__bb__time__initialize_timers+0x98>
 8008934:	4f1e      	ldr	r7, [pc, #120]	; (80089b0 <system__bb__time__initialize_timers+0x88>)
 8008936:	481f      	ldr	r0, [pc, #124]	; (80089b4 <system__bb__time__initialize_timers+0x8c>)
 8008938:	2101      	movs	r1, #1
 800893a:	22ff      	movs	r2, #255	; 0xff
 800893c:	f04f 0b00 	mov.w	fp, #0
 8008940:	605c      	str	r4, [r3, #4]
 8008942:	e9c7 ab00 	strd	sl, fp, [r7]
 8008946:	f000 f9e9 	bl	8008d1c <system__bb__board_support__install_interrupt_handler>
 800894a:	f000 f95b 	bl	8008c04 <system__bb__board_support__read_clock>
 800894e:	4d1a      	ldr	r5, [pc, #104]	; (80089b8 <system__bb__time__initialize_timers+0x90>)
 8008950:	2400      	movs	r4, #0
 8008952:	6068      	str	r0, [r5, #4]
 8008954:	682e      	ldr	r6, [r5, #0]
 8008956:	f8d5 8004 	ldr.w	r8, [r5, #4]
 800895a:	f000 f953 	bl	8008c04 <system__bb__board_support__read_clock>
 800895e:	682b      	ldr	r3, [r5, #0]
 8008960:	ebc9 0206 	rsb	r2, r9, r6
 8008964:	429e      	cmp	r6, r3
 8008966:	f104 0401 	add.w	r4, r4, #1
 800896a:	d014      	beq.n	8008996 <system__bb__time__initialize_timers+0x6e>
 800896c:	2c01      	cmp	r4, #1
 800896e:	d010      	beq.n	8008992 <system__bb__time__initialize_timers+0x6a>
 8008970:	2a01      	cmp	r2, #1
 8008972:	d801      	bhi.n	8008978 <system__bb__time__initialize_timers+0x50>
 8008974:	2c03      	cmp	r4, #3
 8008976:	d1ed      	bne.n	8008954 <system__bb__time__initialize_timers+0x2c>
 8008978:	4633      	mov	r3, r6
 800897a:	2200      	movs	r2, #0
 800897c:	e9d7 0100 	ldrd	r0, r1, [r7]
 8008980:	1812      	adds	r2, r2, r0
 8008982:	414b      	adcs	r3, r1
 8008984:	490d      	ldr	r1, [pc, #52]	; (80089bc <system__bb__time__initialize_timers+0x94>)
 8008986:	e9c1 2300 	strd	r2, r3, [r1]
 800898a:	e8bd 4ff8 	ldmia.w	sp!, {r3, r4, r5, r6, r7, r8, r9, sl, fp, lr}
 800898e:	f000 b959 	b.w	8008c44 <system__bb__board_support__set_alarm>
 8008992:	46b1      	mov	r9, r6
 8008994:	e7de      	b.n	8008954 <system__bb__time__initialize_timers+0x2c>
 8008996:	4580      	cmp	r8, r0
 8008998:	bf94      	ite	ls
 800899a:	4633      	movls	r3, r6
 800899c:	1c73      	addhi	r3, r6, #1
 800899e:	2200      	movs	r2, #0
 80089a0:	1812      	adds	r2, r2, r0
 80089a2:	f143 0300 	adc.w	r3, r3, #0
 80089a6:	e7e9      	b.n	800897c <system__bb__time__initialize_timers+0x54>
 80089a8:	20001478 	.word	0x20001478
 80089ac:	08008b71 	.word	0x08008b71
 80089b0:	20000090 	.word	0x20000090
 80089b4:	080091e1 	.word	0x080091e1
 80089b8:	20000088 	.word	0x20000088
 80089bc:	20000080 	.word	0x20000080
 80089c0:	dffffff9 	.word	0xdffffff9

080089c4 <system__bb__time__update_alarm>:
 80089c4:	e92d 47f0 	stmdb	sp!, {r4, r5, r6, r7, r8, r9, sl, lr}
 80089c8:	4680      	mov	r8, r0
 80089ca:	4689      	mov	r9, r1
 80089cc:	4e1f      	ldr	r6, [pc, #124]	; (8008a4c <system__bb__time__update_alarm+0x88>)
 80089ce:	2400      	movs	r4, #0
 80089d0:	6835      	ldr	r5, [r6, #0]
 80089d2:	6877      	ldr	r7, [r6, #4]
 80089d4:	f000 f916 	bl	8008c04 <system__bb__board_support__read_clock>
 80089d8:	6833      	ldr	r3, [r6, #0]
 80089da:	ebca 0205 	rsb	r2, sl, r5
 80089de:	429d      	cmp	r5, r3
 80089e0:	f104 0401 	add.w	r4, r4, #1
 80089e4:	d029      	beq.n	8008a3a <system__bb__time__update_alarm+0x76>
 80089e6:	2c01      	cmp	r4, #1
 80089e8:	d022      	beq.n	8008a30 <system__bb__time__update_alarm+0x6c>
 80089ea:	2a01      	cmp	r2, #1
 80089ec:	d801      	bhi.n	80089f2 <system__bb__time__update_alarm+0x2e>
 80089ee:	2c03      	cmp	r4, #3
 80089f0:	d1ee      	bne.n	80089d0 <system__bb__time__update_alarm+0xc>
 80089f2:	462b      	mov	r3, r5
 80089f4:	2200      	movs	r2, #0
 80089f6:	454b      	cmp	r3, r9
 80089f8:	bf08      	it	eq
 80089fa:	4542      	cmpeq	r2, r8
 80089fc:	d21a      	bcs.n	8008a34 <system__bb__time__update_alarm+0x70>
 80089fe:	ebb8 0002 	subs.w	r0, r8, r2
 8008a02:	eb69 0103 	sbc.w	r1, r9, r3
 8008a06:	4b12      	ldr	r3, [pc, #72]	; (8008a50 <system__bb__time__update_alarm+0x8c>)
 8008a08:	4e12      	ldr	r6, [pc, #72]	; (8008a54 <system__bb__time__update_alarm+0x90>)
 8008a0a:	e9d3 4500 	ldrd	r4, r5, [r3]
 8008a0e:	e9d6 2300 	ldrd	r2, r3, [r6]
 8008a12:	4599      	cmp	r9, r3
 8008a14:	bf08      	it	eq
 8008a16:	4590      	cmpeq	r8, r2
 8008a18:	d208      	bcs.n	8008a2c <system__bb__time__update_alarm+0x68>
 8008a1a:	428d      	cmp	r5, r1
 8008a1c:	bf08      	it	eq
 8008a1e:	4284      	cmpeq	r4, r0
 8008a20:	bf38      	it	cc
 8008a22:	4620      	movcc	r0, r4
 8008a24:	f000 f90e 	bl	8008c44 <system__bb__board_support__set_alarm>
 8008a28:	e9c6 8900 	strd	r8, r9, [r6]
 8008a2c:	e8bd 87f0 	ldmia.w	sp!, {r4, r5, r6, r7, r8, r9, sl, pc}
 8008a30:	46aa      	mov	sl, r5
 8008a32:	e7cd      	b.n	80089d0 <system__bb__time__update_alarm+0xc>
 8008a34:	2001      	movs	r0, #1
 8008a36:	2100      	movs	r1, #0
 8008a38:	e7e5      	b.n	8008a06 <system__bb__time__update_alarm+0x42>
 8008a3a:	4287      	cmp	r7, r0
 8008a3c:	bf94      	ite	ls
 8008a3e:	462b      	movls	r3, r5
 8008a40:	1c6b      	addhi	r3, r5, #1
 8008a42:	2200      	movs	r2, #0
 8008a44:	1812      	adds	r2, r2, r0
 8008a46:	f143 0300 	adc.w	r3, r3, #0
 8008a4a:	e7d4      	b.n	80089f6 <system__bb__time__update_alarm+0x32>
 8008a4c:	20000088 	.word	0x20000088
 8008a50:	20000090 	.word	0x20000090
 8008a54:	20000080 	.word	0x20000080

08008a58 <system__bb__time__delay_until>:
 8008a58:	e92d 47f0 	stmdb	sp!, {r4, r5, r6, r7, r8, r9, sl, lr}
 8008a5c:	4680      	mov	r8, r0
 8008a5e:	4689      	mov	r9, r1
 8008a60:	b672      	cpsid	i
 8008a62:	4e32      	ldr	r6, [pc, #200]	; (8008b2c <system__bb__time__delay_until+0xd4>)
 8008a64:	2400      	movs	r4, #0
 8008a66:	6835      	ldr	r5, [r6, #0]
 8008a68:	f8d6 a004 	ldr.w	sl, [r6, #4]
 8008a6c:	f000 f8ca 	bl	8008c04 <system__bb__board_support__read_clock>
 8008a70:	6833      	ldr	r3, [r6, #0]
 8008a72:	1bea      	subs	r2, r5, r7
 8008a74:	429d      	cmp	r5, r3
 8008a76:	f104 0401 	add.w	r4, r4, #1
 8008a7a:	d045      	beq.n	8008b08 <system__bb__time__delay_until+0xb0>
 8008a7c:	2c01      	cmp	r4, #1
 8008a7e:	d038      	beq.n	8008af2 <system__bb__time__delay_until+0x9a>
 8008a80:	2a01      	cmp	r2, #1
 8008a82:	d801      	bhi.n	8008a88 <system__bb__time__delay_until+0x30>
 8008a84:	2c03      	cmp	r4, #3
 8008a86:	d1ee      	bne.n	8008a66 <system__bb__time__delay_until+0xe>
 8008a88:	462f      	mov	r7, r5
 8008a8a:	2600      	movs	r6, #0
 8008a8c:	4b28      	ldr	r3, [pc, #160]	; (8008b30 <system__bb__time__delay_until+0xd8>)
 8008a8e:	454f      	cmp	r7, r9
 8008a90:	bf08      	it	eq
 8008a92:	4546      	cmpeq	r6, r8
 8008a94:	681a      	ldr	r2, [r3, #0]
 8008a96:	d230      	bcs.n	8008afa <system__bb__time__delay_until+0xa2>
 8008a98:	f892 302c 	ldrb.w	r3, [r2, #44]	; 0x2c
 8008a9c:	2102      	movs	r1, #2
 8008a9e:	f882 1054 	strb.w	r1, [r2, #84]	; 0x54
 8008aa2:	b343      	cbz	r3, 8008af6 <system__bb__time__delay_until+0x9e>
 8008aa4:	b25b      	sxtb	r3, r3
 8008aa6:	6c15      	ldr	r5, [r2, #64]	; 0x40
 8008aa8:	f103 4380 	add.w	r3, r3, #1073741824	; 0x40000000
 8008aac:	4c21      	ldr	r4, [pc, #132]	; (8008b34 <system__bb__time__delay_until+0xdc>)
 8008aae:	2600      	movs	r6, #0
 8008ab0:	3b01      	subs	r3, #1
 8008ab2:	4640      	mov	r0, r8
 8008ab4:	4649      	mov	r1, r9
 8008ab6:	6416      	str	r6, [r2, #64]	; 0x40
 8008ab8:	f844 5023 	str.w	r5, [r4, r3, lsl #2]
 8008abc:	f000 fd58 	bl	8009570 <system__bb__threads__queues__insert_alarm>
 8008ac0:	b198      	cbz	r0, 8008aea <system__bb__time__delay_until+0x92>
 8008ac2:	4b1d      	ldr	r3, [pc, #116]	; (8008b38 <system__bb__time__delay_until+0xe0>)
 8008ac4:	681b      	ldr	r3, [r3, #0]
 8008ac6:	b343      	cbz	r3, 8008b1a <system__bb__time__delay_until+0xc2>
 8008ac8:	e9d3 4512 	ldrd	r4, r5, [r3, #72]	; 0x48
 8008acc:	4b1b      	ldr	r3, [pc, #108]	; (8008b3c <system__bb__time__delay_until+0xe4>)
 8008ace:	681b      	ldr	r3, [r3, #0]
 8008ad0:	b343      	cbz	r3, 8008b24 <system__bb__time__delay_until+0xcc>
 8008ad2:	689a      	ldr	r2, [r3, #8]
 8008ad4:	68db      	ldr	r3, [r3, #12]
 8008ad6:	429d      	cmp	r5, r3
 8008ad8:	bf08      	it	eq
 8008ada:	4294      	cmpeq	r4, r2
 8008adc:	4610      	mov	r0, r2
 8008ade:	4619      	mov	r1, r3
 8008ae0:	bf3c      	itt	cc
 8008ae2:	4620      	movcc	r0, r4
 8008ae4:	4629      	movcc	r1, r5
 8008ae6:	f7ff ff6d 	bl	80089c4 <system__bb__time__update_alarm>
 8008aea:	e8bd 47f0 	ldmia.w	sp!, {r4, r5, r6, r7, r8, r9, sl, lr}
 8008aee:	f000 bb0d 	b.w	800910c <system__bb__protection__leave_kernel>
 8008af2:	462f      	mov	r7, r5
 8008af4:	e7b7      	b.n	8008a66 <system__bb__time__delay_until+0xe>
 8008af6:	2301      	movs	r3, #1
 8008af8:	e7d5      	b.n	8008aa6 <system__bb__time__delay_until+0x4e>
 8008afa:	4610      	mov	r0, r2
 8008afc:	f000 fdde 	bl	80096bc <system__bb__threads__queues__yield>
 8008b00:	e8bd 47f0 	ldmia.w	sp!, {r4, r5, r6, r7, r8, r9, sl, lr}
 8008b04:	f000 bb02 	b.w	800910c <system__bb__protection__leave_kernel>
 8008b08:	4582      	cmp	sl, r0
 8008b0a:	bf94      	ite	ls
 8008b0c:	462f      	movls	r7, r5
 8008b0e:	1c6f      	addhi	r7, r5, #1
 8008b10:	2600      	movs	r6, #0
 8008b12:	1836      	adds	r6, r6, r0
 8008b14:	f147 0700 	adc.w	r7, r7, #0
 8008b18:	e7b8      	b.n	8008a8c <system__bb__time__delay_until+0x34>
 8008b1a:	f04f 34ff 	mov.w	r4, #4294967295
 8008b1e:	f04f 35ff 	mov.w	r5, #4294967295
 8008b22:	e7d3      	b.n	8008acc <system__bb__time__delay_until+0x74>
 8008b24:	f04f 32ff 	mov.w	r2, #4294967295
 8008b28:	4613      	mov	r3, r2
 8008b2a:	e7d4      	b.n	8008ad6 <system__bb__time__delay_until+0x7e>
 8008b2c:	20000088 	.word	0x20000088
 8008b30:	200000cc 	.word	0x200000cc
 8008b34:	200000c0 	.word	0x200000c0
 8008b38:	200000c8 	.word	0x200000c8
 8008b3c:	200000b4 	.word	0x200000b4

08008b40 <system__bb__time__update_clock>:
 8008b40:	b570      	push	{r4, r5, r6, lr}
 8008b42:	4c0a      	ldr	r4, [pc, #40]	; (8008b6c <system__bb__time__update_clock+0x2c>)
 8008b44:	6825      	ldr	r5, [r4, #0]
 8008b46:	6866      	ldr	r6, [r4, #4]
 8008b48:	f000 f85c 	bl	8008c04 <system__bb__board_support__read_clock>
 8008b4c:	4286      	cmp	r6, r0
 8008b4e:	d807      	bhi.n	8008b60 <system__bb__time__update_clock+0x20>
 8008b50:	6060      	str	r0, [r4, #4]
 8008b52:	2200      	movs	r2, #0
 8008b54:	1814      	adds	r4, r2, r0
 8008b56:	f145 0500 	adc.w	r5, r5, #0
 8008b5a:	4620      	mov	r0, r4
 8008b5c:	4629      	mov	r1, r5
 8008b5e:	bd70      	pop	{r4, r5, r6, pc}
 8008b60:	3501      	adds	r5, #1
 8008b62:	2300      	movs	r3, #0
 8008b64:	6023      	str	r3, [r4, #0]
 8008b66:	6060      	str	r0, [r4, #4]
 8008b68:	6025      	str	r5, [r4, #0]
 8008b6a:	e7f2      	b.n	8008b52 <system__bb__time__update_clock+0x12>
 8008b6c:	20000088 	.word	0x20000088

08008b70 <system__bb__time__alarm_handler>:
 8008b70:	e92d 43f8 	stmdb	sp!, {r3, r4, r5, r6, r7, r8, r9, lr}
 8008b74:	4b1e      	ldr	r3, [pc, #120]	; (8008bf0 <system__bb__time__alarm_handler+0x80>)
 8008b76:	f04f 7200 	mov.w	r2, #33554432	; 0x2000000
 8008b7a:	601a      	str	r2, [r3, #0]
 8008b7c:	b672      	cpsid	i
 8008b7e:	4b1d      	ldr	r3, [pc, #116]	; (8008bf4 <system__bb__time__alarm_handler+0x84>)
 8008b80:	f04f 37ff 	mov.w	r7, #4294967295
 8008b84:	601f      	str	r7, [r3, #0]
 8008b86:	605f      	str	r7, [r3, #4]
 8008b88:	f7ff ffda 	bl	8008b40 <system__bb__time__update_clock>
 8008b8c:	4680      	mov	r8, r0
 8008b8e:	4689      	mov	r9, r1
 8008b90:	4b19      	ldr	r3, [pc, #100]	; (8008bf8 <system__bb__time__alarm_handler+0x88>)
 8008b92:	463e      	mov	r6, r7
 8008b94:	e9d3 4500 	ldrd	r4, r5, [r3]
 8008b98:	1824      	adds	r4, r4, r0
 8008b9a:	414d      	adcs	r5, r1
 8008b9c:	f000 fae0 	bl	8009160 <system__bb__timing_events__execute_expired_timing_events>
 8008ba0:	4640      	mov	r0, r8
 8008ba2:	4649      	mov	r1, r9
 8008ba4:	f000 fd14 	bl	80095d0 <system__bb__threads__queues__wakeup_expired_alarms>
 8008ba8:	4b14      	ldr	r3, [pc, #80]	; (8008bfc <system__bb__time__alarm_handler+0x8c>)
 8008baa:	681b      	ldr	r3, [r3, #0]
 8008bac:	b10b      	cbz	r3, 8008bb2 <system__bb__time__alarm_handler+0x42>
 8008bae:	6c9f      	ldr	r7, [r3, #72]	; 0x48
 8008bb0:	6cde      	ldr	r6, [r3, #76]	; 0x4c
 8008bb2:	4b13      	ldr	r3, [pc, #76]	; (8008c00 <system__bb__time__alarm_handler+0x90>)
 8008bb4:	681b      	ldr	r3, [r3, #0]
 8008bb6:	b1b3      	cbz	r3, 8008be6 <system__bb__time__alarm_handler+0x76>
 8008bb8:	e9d3 2302 	ldrd	r2, r3, [r3, #8]
 8008bbc:	42b5      	cmp	r5, r6
 8008bbe:	bf08      	it	eq
 8008bc0:	42bc      	cmpeq	r4, r7
 8008bc2:	4631      	mov	r1, r6
 8008bc4:	bf38      	it	cc
 8008bc6:	4629      	movcc	r1, r5
 8008bc8:	4638      	mov	r0, r7
 8008bca:	bf38      	it	cc
 8008bcc:	4620      	movcc	r0, r4
 8008bce:	428b      	cmp	r3, r1
 8008bd0:	bf08      	it	eq
 8008bd2:	4282      	cmpeq	r2, r0
 8008bd4:	bf3c      	itt	cc
 8008bd6:	4619      	movcc	r1, r3
 8008bd8:	4610      	movcc	r0, r2
 8008bda:	f7ff fef3 	bl	80089c4 <system__bb__time__update_alarm>
 8008bde:	e8bd 43f8 	ldmia.w	sp!, {r3, r4, r5, r6, r7, r8, r9, lr}
 8008be2:	f000 ba93 	b.w	800910c <system__bb__protection__leave_kernel>
 8008be6:	f04f 32ff 	mov.w	r2, #4294967295
 8008bea:	f04f 33ff 	mov.w	r3, #4294967295
 8008bee:	e7e5      	b.n	8008bbc <system__bb__time__alarm_handler+0x4c>
 8008bf0:	e000ed04 	.word	0xe000ed04
 8008bf4:	20000080 	.word	0x20000080
 8008bf8:	20000090 	.word	0x20000090
 8008bfc:	200000c8 	.word	0x200000c8
 8008c00:	200000b4 	.word	0x200000b4

08008c04 <system__bb__board_support__read_clock>:
 8008c04:	f3ef 8210 	mrs	r2, PRIMASK
 8008c08:	2301      	movs	r3, #1
 8008c0a:	f383 8810 	msr	PRIMASK, r3
 8008c0e:	4b0b      	ldr	r3, [pc, #44]	; (8008c3c <system__bb__board_support__read_clock+0x38>)
 8008c10:	6898      	ldr	r0, [r3, #8]
 8008c12:	681b      	ldr	r3, [r3, #0]
 8008c14:	03db      	lsls	r3, r3, #15
 8008c16:	d405      	bmi.n	8008c24 <system__bb__board_support__read_clock+0x20>
 8008c18:	4b09      	ldr	r3, [pc, #36]	; (8008c40 <system__bb__board_support__read_clock+0x3c>)
 8008c1a:	681b      	ldr	r3, [r3, #0]
 8008c1c:	1a18      	subs	r0, r3, r0
 8008c1e:	f382 8810 	msr	PRIMASK, r2
 8008c22:	4770      	bx	lr
 8008c24:	4906      	ldr	r1, [pc, #24]	; (8008c40 <system__bb__board_support__read_clock+0x3c>)
 8008c26:	6808      	ldr	r0, [r1, #0]
 8008c28:	680b      	ldr	r3, [r1, #0]
 8008c2a:	f503 338c 	add.w	r3, r3, #71680	; 0x11800
 8008c2e:	f503 73a0 	add.w	r3, r3, #320	; 0x140
 8008c32:	600b      	str	r3, [r1, #0]
 8008c34:	f382 8810 	msr	PRIMASK, r2
 8008c38:	4770      	bx	lr
 8008c3a:	bf00      	nop
 8008c3c:	e000e010 	.word	0xe000e010
 8008c40:	200006bc 	.word	0x200006bc

08008c44 <system__bb__board_support__set_alarm>:
 8008c44:	b510      	push	{r4, lr}
 8008c46:	4604      	mov	r4, r0
 8008c48:	f7ff ffdc 	bl	8008c04 <system__bb__board_support__read_clock>
 8008c4c:	f06f 4300 	mvn.w	r3, #2147483648	; 0x80000000
 8008c50:	429c      	cmp	r4, r3
 8008c52:	bf94      	ite	ls
 8008c54:	1900      	addls	r0, r0, r4
 8008c56:	18c0      	addhi	r0, r0, r3
 8008c58:	4a03      	ldr	r2, [pc, #12]	; (8008c68 <system__bb__board_support__set_alarm+0x24>)
 8008c5a:	6010      	str	r0, [r2, #0]
 8008c5c:	b91c      	cbnz	r4, 8008c66 <system__bb__board_support__set_alarm+0x22>
 8008c5e:	4b03      	ldr	r3, [pc, #12]	; (8008c6c <system__bb__board_support__set_alarm+0x28>)
 8008c60:	f04f 6280 	mov.w	r2, #67108864	; 0x4000000
 8008c64:	601a      	str	r2, [r3, #0]
 8008c66:	bd10      	pop	{r4, pc}
 8008c68:	200006b8 	.word	0x200006b8
 8008c6c:	e000ed04 	.word	0xe000ed04

08008c70 <system__bb__board_support__initialize_board>:
 8008c70:	b570      	push	{r4, r5, r6, lr}
 8008c72:	b672      	cpsid	i
 8008c74:	4b0d      	ldr	r3, [pc, #52]	; (8008cac <system__bb__board_support__initialize_board+0x3c>)
 8008c76:	4e0e      	ldr	r6, [pc, #56]	; (8008cb0 <system__bb__board_support__initialize_board+0x40>)
 8008c78:	4a0e      	ldr	r2, [pc, #56]	; (8008cb4 <system__bb__board_support__initialize_board+0x44>)
 8008c7a:	490f      	ldr	r1, [pc, #60]	; (8008cb8 <system__bb__board_support__initialize_board+0x48>)
 8008c7c:	2004      	movs	r0, #4
 8008c7e:	2400      	movs	r4, #0
 8008c80:	2505      	movs	r5, #5
 8008c82:	6018      	str	r0, [r3, #0]
 8008c84:	605e      	str	r6, [r3, #4]
 8008c86:	f04f 30ff 	mov.w	r0, #4294967295
 8008c8a:	609c      	str	r4, [r3, #8]
 8008c8c:	601d      	str	r5, [r3, #0]
 8008c8e:	6011      	str	r1, [r2, #0]
 8008c90:	f7ff ffd8 	bl	8008c44 <system__bb__board_support__set_alarm>
 8008c94:	4b09      	ldr	r3, [pc, #36]	; (8008cbc <system__bb__board_support__initialize_board+0x4c>)
 8008c96:	f04f 7200 	mov.w	r2, #33554432	; 0x2000000
 8008c9a:	601a      	str	r2, [r3, #0]
 8008c9c:	f384 8811 	msr	BASEPRI, r4
 8008ca0:	b662      	cpsie	i
 8008ca2:	f3bf 8f4f 	dsb	sy
 8008ca6:	f3bf 8f6f 	isb	sy
 8008caa:	bd70      	pop	{r4, r5, r6, pc}
 8008cac:	e000e010 	.word	0xe000e010
 8008cb0:	0001193f 	.word	0x0001193f
 8008cb4:	200006bc 	.word	0x200006bc
 8008cb8:	00011940 	.word	0x00011940
 8008cbc:	e000ed04 	.word	0xe000ed04

08008cc0 <system__bb__board_support__enable_interrupt_request>:
 8008cc0:	2801      	cmp	r0, #1
 8008cc2:	d013      	beq.n	8008cec <system__bb__board_support__enable_interrupt_request+0x2c>
 8008cc4:	1e81      	subs	r1, r0, #2
 8008cc6:	460a      	mov	r2, r1
 8008cc8:	4b10      	ldr	r3, [pc, #64]	; (8008d0c <system__bb__board_support__enable_interrupt_request+0x4c>)
 8008cca:	2900      	cmp	r1, #0
 8008ccc:	ea03 0301 	and.w	r3, r3, r1
 8008cd0:	bfb8      	it	lt
 8008cd2:	f100 021d 	addlt.w	r2, r0, #29
 8008cd6:	2b00      	cmp	r3, #0
 8008cd8:	ea4f 1262 	mov.w	r2, r2, asr #5
 8008cdc:	db10      	blt.n	8008d00 <system__bb__board_support__enable_interrupt_request+0x40>
 8008cde:	2101      	movs	r1, #1
 8008ce0:	480b      	ldr	r0, [pc, #44]	; (8008d10 <system__bb__board_support__enable_interrupt_request+0x50>)
 8008ce2:	fa01 f303 	lsl.w	r3, r1, r3
 8008ce6:	f840 3022 	str.w	r3, [r0, r2, lsl #2]
 8008cea:	4770      	bx	lr
 8008cec:	4b09      	ldr	r3, [pc, #36]	; (8008d14 <system__bb__board_support__enable_interrupt_request+0x54>)
 8008cee:	4a0a      	ldr	r2, [pc, #40]	; (8008d18 <system__bb__board_support__enable_interrupt_request+0x58>)
 8008cf0:	f04f 7100 	mov.w	r1, #33554432	; 0x2000000
 8008cf4:	6019      	str	r1, [r3, #0]
 8008cf6:	6813      	ldr	r3, [r2, #0]
 8008cf8:	f043 0302 	orr.w	r3, r3, #2
 8008cfc:	6013      	str	r3, [r2, #0]
 8008cfe:	4770      	bx	lr
 8008d00:	3b01      	subs	r3, #1
 8008d02:	f063 031f 	orn	r3, r3, #31
 8008d06:	3301      	adds	r3, #1
 8008d08:	e7e9      	b.n	8008cde <system__bb__board_support__enable_interrupt_request+0x1e>
 8008d0a:	bf00      	nop
 8008d0c:	8000001f 	.word	0x8000001f
 8008d10:	e000e100 	.word	0xe000e100
 8008d14:	e000ed04 	.word	0xe000ed04
 8008d18:	e000e010 	.word	0xe000e010

08008d1c <system__bb__board_support__install_interrupt_handler>:
 8008d1c:	2901      	cmp	r1, #1
 8008d1e:	b570      	push	{r4, r5, r6, lr}
 8008d20:	460c      	mov	r4, r1
 8008d22:	4615      	mov	r5, r2
 8008d24:	d017      	beq.n	8008d56 <system__bb__board_support__install_interrupt_handler+0x3a>
 8008d26:	f1a5 03f1 	sub.w	r3, r5, #241	; 0xf1
 8008d2a:	2b0e      	cmp	r3, #14
 8008d2c:	bf9c      	itt	ls
 8008d2e:	ebc5 1305 	rsbls	r3, r5, r5, lsl #4
 8008d32:	011b      	lslls	r3, r3, #4
 8008d34:	4e0a      	ldr	r6, [pc, #40]	; (8008d60 <system__bb__board_support__install_interrupt_handler+0x44>)
 8008d36:	f1a1 0102 	sub.w	r1, r1, #2
 8008d3a:	bf94      	ite	ls
 8008d3c:	b2db      	uxtbls	r3, r3
 8008d3e:	2300      	movhi	r3, #0
 8008d40:	5473      	strb	r3, [r6, r1]
 8008d42:	2200      	movs	r2, #0
 8008d44:	2110      	movs	r1, #16
 8008d46:	f000 f965 	bl	8009014 <system__bb__cpu_primitives__install_trap_handler>
 8008d4a:	4620      	mov	r0, r4
 8008d4c:	4629      	mov	r1, r5
 8008d4e:	e8bd 4070 	ldmia.w	sp!, {r4, r5, r6, lr}
 8008d52:	f7ff bfb5 	b.w	8008cc0 <system__bb__board_support__enable_interrupt_request>
 8008d56:	210f      	movs	r1, #15
 8008d58:	2200      	movs	r2, #0
 8008d5a:	f000 f95b 	bl	8009014 <system__bb__cpu_primitives__install_trap_handler>
 8008d5e:	e7f4      	b.n	8008d4a <system__bb__board_support__install_interrupt_handler+0x2e>
 8008d60:	e000e400 	.word	0xe000e400

08008d64 <system__tasking__initialize_atcb>:
 8008d64:	b5f8      	push	{r3, r4, r5, r6, r7, lr}
 8008d66:	9c09      	ldr	r4, [sp, #36]	; 0x24
 8008d68:	f89d 7018 	ldrb.w	r7, [sp, #24]
 8008d6c:	9e07      	ldr	r6, [sp, #28]
 8008d6e:	2500      	movs	r5, #0
 8008d70:	7225      	strb	r5, [r4, #8]
 8008d72:	60e2      	str	r2, [r4, #12]
 8008d74:	7263      	strb	r3, [r4, #9]
 8008d76:	6125      	str	r5, [r4, #16]
 8008d78:	f8c4 008c 	str.w	r0, [r4, #140]	; 0x8c
 8008d7c:	f8c4 1088 	str.w	r1, [r4, #136]	; 0x88
 8008d80:	f884 70a0 	strb.w	r7, [r4, #160]	; 0xa0
 8008d84:	f8c4 6090 	str.w	r6, [r4, #144]	; 0x90
 8008d88:	9808      	ldr	r0, [sp, #32]
 8008d8a:	f000 ff6d 	bl	8009c68 <system__parameters__adjust_storage_size>
 8008d8e:	f8c4 0094 	str.w	r0, [r4, #148]	; 0x94
 8008d92:	2001      	movs	r0, #1
 8008d94:	bdf8      	pop	{r3, r4, r5, r6, r7, pc}
 8008d96:	bf00      	nop

08008d98 <system__tasking__initialize>:
 8008d98:	4b3b      	ldr	r3, [pc, #236]	; (8008e88 <system__tasking__initialize+0xf0>)
 8008d9a:	781a      	ldrb	r2, [r3, #0]
 8008d9c:	2a00      	cmp	r2, #0
 8008d9e:	d16c      	bne.n	8008e7a <system__tasking__initialize+0xe2>
 8008da0:	b5f0      	push	{r4, r5, r6, r7, lr}
 8008da2:	4a3a      	ldr	r2, [pc, #232]	; (8008e8c <system__tasking__initialize+0xf4>)
 8008da4:	4c3a      	ldr	r4, [pc, #232]	; (8008e90 <system__tasking__initialize+0xf8>)
 8008da6:	6811      	ldr	r1, [r2, #0]
 8008da8:	2001      	movs	r0, #1
 8008daa:	7018      	strb	r0, [r3, #0]
 8008dac:	2500      	movs	r5, #0
 8008dae:	b085      	sub	sp, #20
 8008db0:	3101      	adds	r1, #1
 8008db2:	f04f 0302 	mov.w	r3, #2
 8008db6:	bf14      	ite	ne
 8008db8:	6812      	ldrne	r2, [r2, #0]
 8008dba:	2278      	moveq	r2, #120	; 0x78
 8008dbc:	e88d 0028 	stmia.w	sp, {r3, r5}
 8008dc0:	4629      	mov	r1, r5
 8008dc2:	2301      	movs	r3, #1
 8008dc4:	9403      	str	r4, [sp, #12]
 8008dc6:	9502      	str	r5, [sp, #8]
 8008dc8:	4628      	mov	r0, r5
 8008dca:	f7ff ffcb 	bl	8008d64 <system__tasking__initialize_atcb>
 8008dce:	f104 0318 	add.w	r3, r4, #24
 8008dd2:	f8c4 3080 	str.w	r3, [r4, #128]	; 0x80
 8008dd6:	68e1      	ldr	r1, [r4, #12]
 8008dd8:	f8d4 0080 	ldr.w	r0, [r4, #128]	; 0x80
 8008ddc:	f8c4 509c 	str.w	r5, [r4, #156]	; 0x9c
 8008de0:	f000 fb12 	bl	8009408 <system__bb__threads__initialize>
 8008de4:	4b2b      	ldr	r3, [pc, #172]	; (8008e94 <system__tasking__initialize+0xfc>)
 8008de6:	f8d4 1080 	ldr.w	r1, [r4, #128]	; 0x80
 8008dea:	681a      	ldr	r2, [r3, #0]
 8008dec:	628c      	str	r4, [r1, #40]	; 0x28
 8008dee:	f8c4 5084 	str.w	r5, [r4, #132]	; 0x84
 8008df2:	2a00      	cmp	r2, #0
 8008df4:	d042      	beq.n	8008e7c <system__tasking__initialize+0xe4>
 8008df6:	f8c2 409c 	str.w	r4, [r2, #156]	; 0x9c
 8008dfa:	601c      	str	r4, [r3, #0]
 8008dfc:	b672      	cpsid	i
 8008dfe:	4e26      	ldr	r6, [pc, #152]	; (8008e98 <system__tasking__initialize+0x100>)
 8008e00:	4b26      	ldr	r3, [pc, #152]	; (8008e9c <system__tasking__initialize+0x104>)
 8008e02:	4635      	mov	r5, r6
 8008e04:	6818      	ldr	r0, [r3, #0]
 8008e06:	68e1      	ldr	r1, [r4, #12]
 8008e08:	f000 fb7c 	bl	8009504 <system__bb__threads__queues__change_priority>
 8008e0c:	f000 f97e 	bl	800910c <system__bb__protection__leave_kernel>
 8008e10:	4923      	ldr	r1, [pc, #140]	; (8008ea0 <system__tasking__initialize+0x108>)
 8008e12:	4a24      	ldr	r2, [pc, #144]	; (8008ea4 <system__tasking__initialize+0x10c>)
 8008e14:	4b24      	ldr	r3, [pc, #144]	; (8008ea8 <system__tasking__initialize+0x110>)
 8008e16:	2001      	movs	r0, #1
 8008e18:	601a      	str	r2, [r3, #0]
 8008e1a:	600c      	str	r4, [r1, #0]
 8008e1c:	f000 f942 	bl	80090a4 <system__task_primitives__operations__initialize_idle>
 8008e20:	f1a6 0368 	sub.w	r3, r6, #104	; 0x68
 8008e24:	6033      	str	r3, [r6, #0]
 8008e26:	f855 0980 	ldr.w	r0, [r5], #-128
 8008e2a:	2701      	movs	r7, #1
 8008e2c:	f8d5 2090 	ldr.w	r2, [r5, #144]	; 0x90
 8008e30:	f8d5 3094 	ldr.w	r3, [r5, #148]	; 0x94
 8008e34:	491d      	ldr	r1, [pc, #116]	; (8008eac <system__tasking__initialize+0x114>)
 8008e36:	9201      	str	r2, [sp, #4]
 8008e38:	9302      	str	r3, [sp, #8]
 8008e3a:	462a      	mov	r2, r5
 8008e3c:	f04f 33ff 	mov.w	r3, #4294967295
 8008e40:	9700      	str	r7, [sp, #0]
 8008e42:	f000 fb4b 	bl	80094dc <system__bb__threads__thread_create>
 8008e46:	6832      	ldr	r2, [r6, #0]
 8008e48:	4b19      	ldr	r3, [pc, #100]	; (8008eb0 <system__tasking__initialize+0x118>)
 8008e4a:	6295      	str	r5, [r2, #40]	; 0x28
 8008e4c:	4618      	mov	r0, r3
 8008e4e:	7227      	strb	r7, [r4, #8]
 8008e50:	f44f 6180 	mov.w	r1, #1024	; 0x400
 8008e54:	f8c4 3098 	str.w	r3, [r4, #152]	; 0x98
 8008e58:	f8c4 40a8 	str.w	r4, [r4, #168]	; 0xa8
 8008e5c:	f000 ff0a 	bl	8009c74 <system__secondary_stack__ss_init>
 8008e60:	4a14      	ldr	r2, [pc, #80]	; (8008eb4 <system__tasking__initialize+0x11c>)
 8008e62:	4b15      	ldr	r3, [pc, #84]	; (8008eb8 <system__tasking__initialize+0x120>)
 8008e64:	6810      	ldr	r0, [r2, #0]
 8008e66:	2100      	movs	r1, #0
 8008e68:	3001      	adds	r0, #1
 8008e6a:	6019      	str	r1, [r3, #0]
 8008e6c:	6059      	str	r1, [r3, #4]
 8008e6e:	d002      	beq.n	8008e76 <system__tasking__initialize+0xde>
 8008e70:	6813      	ldr	r3, [r2, #0]
 8008e72:	42bb      	cmp	r3, r7
 8008e74:	d105      	bne.n	8008e82 <system__tasking__initialize+0xea>
 8008e76:	b005      	add	sp, #20
 8008e78:	bdf0      	pop	{r4, r5, r6, r7, pc}
 8008e7a:	4770      	bx	lr
 8008e7c:	4a0f      	ldr	r2, [pc, #60]	; (8008ebc <system__tasking__initialize+0x124>)
 8008e7e:	6014      	str	r4, [r2, #0]
 8008e80:	e7bb      	b.n	8008dfa <system__tasking__initialize+0x62>
 8008e82:	480f      	ldr	r0, [pc, #60]	; (8008ec0 <system__tasking__initialize+0x128>)
 8008e84:	f7f8 fb7a 	bl	800157c <__gnat_last_chance_handler>
 8008e88:	200000a0 	.word	0x200000a0
 8008e8c:	2000009c 	.word	0x2000009c
 8008e90:	200006c0 	.word	0x200006c0
 8008e94:	200000d4 	.word	0x200000d4
 8008e98:	20000c40 	.word	0x20000c40
 8008e9c:	200000cc 	.word	0x200000cc
 8008ea0:	200000b0 	.word	0x200000b0
 8008ea4:	20001478 	.word	0x20001478
 8008ea8:	20000bbc 	.word	0x20000bbc
 8008eac:	08009091 	.word	0x08009091
 8008eb0:	20000778 	.word	0x20000778
 8008eb4:	200000ac 	.word	0x200000ac
 8008eb8:	200000a4 	.word	0x200000a4
 8008ebc:	200000d0 	.word	0x200000d0
 8008ec0:	0800bc90 	.word	0x0800bc90

08008ec4 <system__bb__cpu_primitives__gnat_error_handler>:
 8008ec4:	b240      	sxtb	r0, r0
 8008ec6:	3801      	subs	r0, #1
 8008ec8:	b508      	push	{r3, lr}
 8008eca:	2805      	cmp	r0, #5
 8008ecc:	d818      	bhi.n	8008f00 <system__bb__cpu_primitives__gnat_error_handler+0x3c>
 8008ece:	e8df f000 	tbb	[pc, r0]
 8008ed2:	0b07      	.short	0x0b07
 8008ed4:	0313170f 	.word	0x0313170f
 8008ed8:	480b      	ldr	r0, [pc, #44]	; (8008f08 <system__bb__cpu_primitives__gnat_error_handler+0x44>)
 8008eda:	2100      	movs	r1, #0
 8008edc:	f7f8 fb4e 	bl	800157c <__gnat_last_chance_handler>
 8008ee0:	480a      	ldr	r0, [pc, #40]	; (8008f0c <system__bb__cpu_primitives__gnat_error_handler+0x48>)
 8008ee2:	2100      	movs	r1, #0
 8008ee4:	f7f8 fb4a 	bl	800157c <__gnat_last_chance_handler>
 8008ee8:	4809      	ldr	r0, [pc, #36]	; (8008f10 <system__bb__cpu_primitives__gnat_error_handler+0x4c>)
 8008eea:	2100      	movs	r1, #0
 8008eec:	f7f8 fb46 	bl	800157c <__gnat_last_chance_handler>
 8008ef0:	4808      	ldr	r0, [pc, #32]	; (8008f14 <system__bb__cpu_primitives__gnat_error_handler+0x50>)
 8008ef2:	2100      	movs	r1, #0
 8008ef4:	f7f8 fb42 	bl	800157c <__gnat_last_chance_handler>
 8008ef8:	4807      	ldr	r0, [pc, #28]	; (8008f18 <system__bb__cpu_primitives__gnat_error_handler+0x54>)
 8008efa:	2100      	movs	r1, #0
 8008efc:	f7f8 fb3e 	bl	800157c <__gnat_last_chance_handler>
 8008f00:	4806      	ldr	r0, [pc, #24]	; (8008f1c <system__bb__cpu_primitives__gnat_error_handler+0x58>)
 8008f02:	2100      	movs	r1, #0
 8008f04:	f7f8 fb3a 	bl	800157c <__gnat_last_chance_handler>
 8008f08:	0800bdc0 	.word	0x0800bdc0
 8008f0c:	0800bccc 	.word	0x0800bccc
 8008f10:	0800bd0c 	.word	0x0800bd0c
 8008f14:	0800bd50 	.word	0x0800bd50
 8008f18:	0800bd88 	.word	0x0800bd88
 8008f1c:	0800bdf8 	.word	0x0800bdf8

08008f20 <__gnat_irq_trap>:
 8008f20:	b508      	push	{r3, lr}
 8008f22:	4b10      	ldr	r3, [pc, #64]	; (8008f64 <__gnat_irq_trap+0x44>)
 8008f24:	2010      	movs	r0, #16
 8008f26:	6c1b      	ldr	r3, [r3, #64]	; 0x40
 8008f28:	4798      	blx	r3
 8008f2a:	4a0f      	ldr	r2, [pc, #60]	; (8008f68 <__gnat_irq_trap+0x48>)
 8008f2c:	4b0f      	ldr	r3, [pc, #60]	; (8008f6c <__gnat_irq_trap+0x4c>)
 8008f2e:	6811      	ldr	r1, [r2, #0]
 8008f30:	681a      	ldr	r2, [r3, #0]
 8008f32:	4291      	cmp	r1, r2
 8008f34:	d003      	beq.n	8008f3e <__gnat_irq_trap+0x1e>
 8008f36:	4a0e      	ldr	r2, [pc, #56]	; (8008f70 <__gnat_irq_trap+0x50>)
 8008f38:	f04f 5180 	mov.w	r1, #268435456	; 0x10000000
 8008f3c:	6011      	str	r1, [r2, #0]
 8008f3e:	681b      	ldr	r3, [r3, #0]
 8008f40:	6b5b      	ldr	r3, [r3, #52]	; 0x34
 8008f42:	f1a3 02f1 	sub.w	r2, r3, #241	; 0xf1
 8008f46:	2a0e      	cmp	r2, #14
 8008f48:	bf9d      	ittte	ls
 8008f4a:	ebc3 1303 	rsbls	r3, r3, r3, lsl #4
 8008f4e:	011b      	lslls	r3, r3, #4
 8008f50:	b2db      	uxtbls	r3, r3
 8008f52:	2300      	movhi	r3, #0
 8008f54:	f383 8811 	msr	BASEPRI, r3
 8008f58:	b662      	cpsie	i
 8008f5a:	f3bf 8f4f 	dsb	sy
 8008f5e:	f3bf 8f6f 	isb	sy
 8008f62:	bd08      	pop	{r3, pc}
 8008f64:	20000b78 	.word	0x20000b78
 8008f68:	200000c0 	.word	0x200000c0
 8008f6c:	200000cc 	.word	0x200000cc
 8008f70:	e000ed04 	.word	0xe000ed04

08008f74 <__gnat_pend_sv_trap>:
 8008f74:	f240 02cc 	movw	r2, #204	; 0xcc
 8008f78:	f2c2 0200 	movt	r2, #8192	; 0x2000
 8008f7c:	f3ef 8c09 	mrs	ip, PSP
 8008f80:	6813      	ldr	r3, [r2, #0]
 8008f82:	e883 1ff0 	stmia.w	r3, {r4, r5, r6, r7, r8, r9, sl, fp, ip}
 8008f86:	f240 03c0 	movw	r3, #192	; 0xc0
 8008f8a:	f2c2 0300 	movt	r3, #8192	; 0x2000
 8008f8e:	681b      	ldr	r3, [r3, #0]
 8008f90:	6013      	str	r3, [r2, #0]
 8008f92:	e893 1ff0 	ldmia.w	r3, {r4, r5, r6, r7, r8, r9, sl, fp, ip}
 8008f96:	f38c 8809 	msr	PSP, ip
 8008f9a:	4770      	bx	lr

08008f9c <__gnat_sv_call_trap>:
 8008f9c:	b508      	push	{r3, lr}
 8008f9e:	200b      	movs	r0, #11
 8008fa0:	f7ff ff90 	bl	8008ec4 <system__bb__cpu_primitives__gnat_error_handler>

08008fa4 <__gnat_sys_tick_trap>:
 8008fa4:	b508      	push	{r3, lr}
 8008fa6:	f7ff fe2d 	bl	8008c04 <system__bb__board_support__read_clock>
 8008faa:	4a15      	ldr	r2, [pc, #84]	; (8009000 <__gnat_sys_tick_trap+0x5c>)
 8008fac:	6813      	ldr	r3, [r2, #0]
 8008fae:	1a1b      	subs	r3, r3, r0
 8008fb0:	2b00      	cmp	r3, #0
 8008fb2:	db00      	blt.n	8008fb6 <__gnat_sys_tick_trap+0x12>
 8008fb4:	bd08      	pop	{r3, pc}
 8008fb6:	f100 4000 	add.w	r0, r0, #2147483648	; 0x80000000
 8008fba:	3801      	subs	r0, #1
 8008fbc:	4b11      	ldr	r3, [pc, #68]	; (8009004 <__gnat_sys_tick_trap+0x60>)
 8008fbe:	6010      	str	r0, [r2, #0]
 8008fc0:	6bdb      	ldr	r3, [r3, #60]	; 0x3c
 8008fc2:	200f      	movs	r0, #15
 8008fc4:	4798      	blx	r3
 8008fc6:	4a10      	ldr	r2, [pc, #64]	; (8009008 <__gnat_sys_tick_trap+0x64>)
 8008fc8:	4b10      	ldr	r3, [pc, #64]	; (800900c <__gnat_sys_tick_trap+0x68>)
 8008fca:	6811      	ldr	r1, [r2, #0]
 8008fcc:	681a      	ldr	r2, [r3, #0]
 8008fce:	4291      	cmp	r1, r2
 8008fd0:	d003      	beq.n	8008fda <__gnat_sys_tick_trap+0x36>
 8008fd2:	4a0f      	ldr	r2, [pc, #60]	; (8009010 <__gnat_sys_tick_trap+0x6c>)
 8008fd4:	f04f 5180 	mov.w	r1, #268435456	; 0x10000000
 8008fd8:	6011      	str	r1, [r2, #0]
 8008fda:	681b      	ldr	r3, [r3, #0]
 8008fdc:	6b5b      	ldr	r3, [r3, #52]	; 0x34
 8008fde:	f1a3 02f1 	sub.w	r2, r3, #241	; 0xf1
 8008fe2:	2a0e      	cmp	r2, #14
 8008fe4:	bf9d      	ittte	ls
 8008fe6:	ebc3 1303 	rsbls	r3, r3, r3, lsl #4
 8008fea:	011b      	lslls	r3, r3, #4
 8008fec:	b2db      	uxtbls	r3, r3
 8008fee:	2300      	movhi	r3, #0
 8008ff0:	f383 8811 	msr	BASEPRI, r3
 8008ff4:	b662      	cpsie	i
 8008ff6:	f3bf 8f4f 	dsb	sy
 8008ffa:	f3bf 8f6f 	isb	sy
 8008ffe:	bd08      	pop	{r3, pc}
 8009000:	200006b8 	.word	0x200006b8
 8009004:	20000b78 	.word	0x20000b78
 8009008:	200000c0 	.word	0x200000c0
 800900c:	200000cc 	.word	0x200000cc
 8009010:	e000ed04 	.word	0xe000ed04

08009014 <system__bb__cpu_primitives__install_trap_handler>:
 8009014:	4b02      	ldr	r3, [pc, #8]	; (8009020 <system__bb__cpu_primitives__install_trap_handler+0xc>)
 8009016:	b249      	sxtb	r1, r1
 8009018:	f843 0021 	str.w	r0, [r3, r1, lsl #2]
 800901c:	4770      	bx	lr
 800901e:	bf00      	nop
 8009020:	20000b78 	.word	0x20000b78

08009024 <ada__real_time__delays__delay_until>:
 8009024:	4b09      	ldr	r3, [pc, #36]	; (800904c <ada__real_time__delays__delay_until+0x28>)
 8009026:	b510      	push	{r4, lr}
 8009028:	681a      	ldr	r2, [r3, #0]
 800902a:	6a92      	ldr	r2, [r2, #40]	; 0x28
 800902c:	6912      	ldr	r2, [r2, #16]
 800902e:	2a00      	cmp	r2, #0
 8009030:	dc08      	bgt.n	8009044 <ada__real_time__delays__delay_until+0x20>
 8009032:	681a      	ldr	r2, [r3, #0]
 8009034:	2307      	movs	r3, #7
 8009036:	6a94      	ldr	r4, [r2, #40]	; 0x28
 8009038:	7223      	strb	r3, [r4, #8]
 800903a:	f7ff fd0d 	bl	8008a58 <system__bb__time__delay_until>
 800903e:	2301      	movs	r3, #1
 8009040:	7223      	strb	r3, [r4, #8]
 8009042:	bd10      	pop	{r4, pc}
 8009044:	4802      	ldr	r0, [pc, #8]	; (8009050 <ada__real_time__delays__delay_until+0x2c>)
 8009046:	212e      	movs	r1, #46	; 0x2e
 8009048:	f7f8 fa98 	bl	800157c <__gnat_last_chance_handler>
 800904c:	200000cc 	.word	0x200000cc
 8009050:	0800be34 	.word	0x0800be34

08009054 <system__task_primitives__operations__enter_task>:
 8009054:	b508      	push	{r3, lr}
 8009056:	4b0b      	ldr	r3, [pc, #44]	; (8009084 <system__task_primitives__operations__enter_task+0x30>)
 8009058:	2100      	movs	r1, #0
 800905a:	681a      	ldr	r2, [r3, #0]
 800905c:	f8c0 1084 	str.w	r1, [r0, #132]	; 0x84
 8009060:	b162      	cbz	r2, 800907c <system__task_primitives__operations__enter_task+0x28>
 8009062:	f8c2 009c 	str.w	r0, [r2, #156]	; 0x9c
 8009066:	6018      	str	r0, [r3, #0]
 8009068:	b672      	cpsid	i
 800906a:	4b07      	ldr	r3, [pc, #28]	; (8009088 <system__task_primitives__operations__enter_task+0x34>)
 800906c:	68c1      	ldr	r1, [r0, #12]
 800906e:	6818      	ldr	r0, [r3, #0]
 8009070:	f000 fa48 	bl	8009504 <system__bb__threads__queues__change_priority>
 8009074:	e8bd 4008 	ldmia.w	sp!, {r3, lr}
 8009078:	f000 b848 	b.w	800910c <system__bb__protection__leave_kernel>
 800907c:	4a03      	ldr	r2, [pc, #12]	; (800908c <system__task_primitives__operations__enter_task+0x38>)
 800907e:	6010      	str	r0, [r2, #0]
 8009080:	e7f1      	b.n	8009066 <system__task_primitives__operations__enter_task+0x12>
 8009082:	bf00      	nop
 8009084:	200000d4 	.word	0x200000d4
 8009088:	200000cc 	.word	0x200000cc
 800908c:	200000d0 	.word	0x200000d0

08009090 <system__task_primitives__operations__idle>:
 8009090:	b508      	push	{r3, lr}
 8009092:	4b03      	ldr	r3, [pc, #12]	; (80090a0 <system__task_primitives__operations__idle+0x10>)
 8009094:	681b      	ldr	r3, [r3, #0]
 8009096:	6a98      	ldr	r0, [r3, #40]	; 0x28
 8009098:	f7ff ffdc 	bl	8009054 <system__task_primitives__operations__enter_task>
 800909c:	bf30      	wfi
 800909e:	e7fd      	b.n	800909c <system__task_primitives__operations__idle+0xc>
 80090a0:	200000cc 	.word	0x200000cc

080090a4 <system__task_primitives__operations__initialize_idle>:
 80090a4:	b570      	push	{r4, r5, r6, lr}
 80090a6:	4603      	mov	r3, r0
 80090a8:	24b8      	movs	r4, #184	; 0xb8
 80090aa:	b240      	sxtb	r0, r0
 80090ac:	fb04 f400 	mul.w	r4, r4, r0
 80090b0:	4912      	ldr	r1, [pc, #72]	; (80090fc <system__task_primitives__operations__initialize_idle+0x58>)
 80090b2:	4d13      	ldr	r5, [pc, #76]	; (8009100 <system__task_primitives__operations__initialize_idle+0x5c>)
 80090b4:	4a13      	ldr	r2, [pc, #76]	; (8009104 <system__task_primitives__operations__initialize_idle+0x60>)
 80090b6:	4401      	add	r1, r0
 80090b8:	f1a4 06b8 	sub.w	r6, r4, #184	; 0xb8
 80090bc:	b084      	sub	sp, #16
 80090be:	eb02 22c1 	add.w	r2, r2, r1, lsl #11
 80090c2:	442e      	add	r6, r5
 80090c4:	2002      	movs	r0, #2
 80090c6:	f44f 6100 	mov.w	r1, #2048	; 0x800
 80090ca:	9201      	str	r2, [sp, #4]
 80090cc:	9000      	str	r0, [sp, #0]
 80090ce:	9102      	str	r1, [sp, #8]
 80090d0:	9603      	str	r6, [sp, #12]
 80090d2:	2100      	movs	r1, #0
 80090d4:	f04f 32ff 	mov.w	r2, #4294967295
 80090d8:	480b      	ldr	r0, [pc, #44]	; (8009108 <system__task_primitives__operations__initialize_idle+0x64>)
 80090da:	f7ff fe43 	bl	8008d64 <system__tasking__initialize_atcb>
 80090de:	f1a4 03a0 	sub.w	r3, r4, #160	; 0xa0
 80090e2:	f1a4 0038 	sub.w	r0, r4, #56	; 0x38
 80090e6:	1929      	adds	r1, r5, r4
 80090e8:	442b      	add	r3, r5
 80090ea:	3cb0      	subs	r4, #176	; 0xb0
 80090ec:	2201      	movs	r2, #1
 80090ee:	502b      	str	r3, [r5, r0]
 80090f0:	f841 6c10 	str.w	r6, [r1, #-16]
 80090f4:	552a      	strb	r2, [r5, r4]
 80090f6:	b004      	add	sp, #16
 80090f8:	bd70      	pop	{r4, r5, r6, pc}
 80090fa:	bf00      	nop
 80090fc:	001fffff 	.word	0x001fffff
 8009100:	20000bc0 	.word	0x20000bc0
 8009104:	20000c78 	.word	0x20000c78
 8009108:	08009091 	.word	0x08009091

0800910c <system__bb__protection__leave_kernel>:
 800910c:	4b10      	ldr	r3, [pc, #64]	; (8009150 <system__bb__protection__leave_kernel+0x44>)
 800910e:	b510      	push	{r4, lr}
 8009110:	4c10      	ldr	r4, [pc, #64]	; (8009154 <system__bb__protection__leave_kernel+0x48>)
 8009112:	681a      	ldr	r2, [r3, #0]
 8009114:	6823      	ldr	r3, [r4, #0]
 8009116:	429a      	cmp	r2, r3
 8009118:	d007      	beq.n	800912a <system__bb__protection__leave_kernel+0x1e>
 800911a:	4b0f      	ldr	r3, [pc, #60]	; (8009158 <system__bb__protection__leave_kernel+0x4c>)
 800911c:	681b      	ldr	r3, [r3, #0]
 800911e:	b103      	cbz	r3, 8009122 <system__bb__protection__leave_kernel+0x16>
 8009120:	4798      	blx	r3
 8009122:	4b0e      	ldr	r3, [pc, #56]	; (800915c <system__bb__protection__leave_kernel+0x50>)
 8009124:	f04f 5280 	mov.w	r2, #268435456	; 0x10000000
 8009128:	601a      	str	r2, [r3, #0]
 800912a:	6823      	ldr	r3, [r4, #0]
 800912c:	6b5b      	ldr	r3, [r3, #52]	; 0x34
 800912e:	f1a3 02f1 	sub.w	r2, r3, #241	; 0xf1
 8009132:	2a0e      	cmp	r2, #14
 8009134:	bf9d      	ittte	ls
 8009136:	ebc3 1303 	rsbls	r3, r3, r3, lsl #4
 800913a:	011b      	lslls	r3, r3, #4
 800913c:	b2db      	uxtbls	r3, r3
 800913e:	2300      	movhi	r3, #0
 8009140:	f383 8811 	msr	BASEPRI, r3
 8009144:	b662      	cpsie	i
 8009146:	f3bf 8f4f 	dsb	sy
 800914a:	f3bf 8f6f 	isb	sy
 800914e:	bd10      	pop	{r4, pc}
 8009150:	200000c0 	.word	0x200000c0
 8009154:	200000cc 	.word	0x200000cc
 8009158:	20000098 	.word	0x20000098
 800915c:	e000ed04 	.word	0xe000ed04

08009160 <system__bb__timing_events__execute_expired_timing_events>:
 8009160:	e92d 4ff8 	stmdb	sp!, {r3, r4, r5, r6, r7, r8, r9, sl, fp, lr}
 8009164:	f8df b074 	ldr.w	fp, [pc, #116]	; 80091dc <system__bb__timing_events__execute_expired_timing_events+0x7c>
 8009168:	f8db 4000 	ldr.w	r4, [fp]
 800916c:	2c00      	cmp	r4, #0
 800916e:	d030      	beq.n	80091d2 <system__bb__timing_events__execute_expired_timing_events+0x72>
 8009170:	4b19      	ldr	r3, [pc, #100]	; (80091d8 <system__bb__timing_events__execute_expired_timing_events+0x78>)
 8009172:	4606      	mov	r6, r0
 8009174:	f8d3 a000 	ldr.w	sl, [r3]
 8009178:	460f      	mov	r7, r1
 800917a:	4650      	mov	r0, sl
 800917c:	21ff      	movs	r1, #255	; 0xff
 800917e:	f8da 9034 	ldr.w	r9, [sl, #52]	; 0x34
 8009182:	46d8      	mov	r8, fp
 8009184:	f000 f9be 	bl	8009504 <system__bb__threads__queues__change_priority>
 8009188:	2500      	movs	r5, #0
 800918a:	e9d4 2302 	ldrd	r2, r3, [r4, #8]
 800918e:	429f      	cmp	r7, r3
 8009190:	bf08      	it	eq
 8009192:	4296      	cmpeq	r6, r2
 8009194:	d317      	bcc.n	80091c6 <system__bb__timing_events__execute_expired_timing_events+0x66>
 8009196:	f8db 3000 	ldr.w	r3, [fp]
 800919a:	6962      	ldr	r2, [r4, #20]
 800919c:	429c      	cmp	r4, r3
 800919e:	bf18      	it	ne
 80091a0:	69a3      	ldrne	r3, [r4, #24]
 80091a2:	6921      	ldr	r1, [r4, #16]
 80091a4:	bf1a      	itte	ne
 80091a6:	615a      	strne	r2, [r3, #20]
 80091a8:	6962      	ldrne	r2, [r4, #20]
 80091aa:	f8c8 2000 	streq.w	r2, [r8]
 80091ae:	4620      	mov	r0, r4
 80091b0:	b10a      	cbz	r2, 80091b6 <system__bb__timing_events__execute_expired_timing_events+0x56>
 80091b2:	69a3      	ldr	r3, [r4, #24]
 80091b4:	6193      	str	r3, [r2, #24]
 80091b6:	6165      	str	r5, [r4, #20]
 80091b8:	61a5      	str	r5, [r4, #24]
 80091ba:	6125      	str	r5, [r4, #16]
 80091bc:	4788      	blx	r1
 80091be:	f8db 4000 	ldr.w	r4, [fp]
 80091c2:	2c00      	cmp	r4, #0
 80091c4:	d1e1      	bne.n	800918a <system__bb__timing_events__execute_expired_timing_events+0x2a>
 80091c6:	4650      	mov	r0, sl
 80091c8:	4649      	mov	r1, r9
 80091ca:	e8bd 4ff8 	ldmia.w	sp!, {r3, r4, r5, r6, r7, r8, r9, sl, fp, lr}
 80091ce:	f000 b999 	b.w	8009504 <system__bb__threads__queues__change_priority>
 80091d2:	e8bd 8ff8 	ldmia.w	sp!, {r3, r4, r5, r6, r7, r8, r9, sl, fp, pc}
 80091d6:	bf00      	nop
 80091d8:	200000cc 	.word	0x200000cc
 80091dc:	200000b4 	.word	0x200000b4

080091e0 <system__bb__interrupts__interrupt_wrapper>:
 80091e0:	e92d 4ff0 	stmdb	sp!, {r4, r5, r6, r7, r8, r9, sl, fp, lr}
 80091e4:	4b3a      	ldr	r3, [pc, #232]	; (80092d0 <system__bb__interrupts__interrupt_wrapper+0xf0>)
 80091e6:	280f      	cmp	r0, #15
 80091e8:	681d      	ldr	r5, [r3, #0]
 80091ea:	b083      	sub	sp, #12
 80091ec:	f8d5 8034 	ldr.w	r8, [r5, #52]	; 0x34
 80091f0:	d050      	beq.n	8009294 <system__bb__interrupts__interrupt_wrapper+0xb4>
 80091f2:	f3ef 8305 	mrs	r3, IPSR
 80091f6:	b2db      	uxtb	r3, r3
 80091f8:	f1a3 060e 	sub.w	r6, r3, #14
 80091fc:	2e01      	cmp	r6, #1
 80091fe:	d049      	beq.n	8009294 <system__bb__interrupts__interrupt_wrapper+0xb4>
 8009200:	4a34      	ldr	r2, [pc, #208]	; (80092d4 <system__bb__interrupts__interrupt_wrapper+0xf4>)
 8009202:	3b10      	subs	r3, #16
 8009204:	5cd3      	ldrb	r3, [r2, r3]
 8009206:	f003 04ff 	and.w	r4, r3, #255	; 0xff
 800920a:	b95b      	cbnz	r3, 8009224 <system__bb__interrupts__interrupt_wrapper+0x44>
 800920c:	24ff      	movs	r4, #255	; 0xff
 800920e:	f8df 90cc 	ldr.w	r9, [pc, #204]	; 80092dc <system__bb__interrupts__interrupt_wrapper+0xfc>
 8009212:	f8d9 b000 	ldr.w	fp, [r9]
 8009216:	f895 7055 	ldrb.w	r7, [r5, #85]	; 0x55
 800921a:	b2ff      	uxtb	r7, r7
 800921c:	b936      	cbnz	r6, 800922c <system__bb__interrupts__interrupt_wrapper+0x4c>
 800921e:	b003      	add	sp, #12
 8009220:	e8bd 8ff0 	ldmia.w	sp!, {r4, r5, r6, r7, r8, r9, sl, fp, pc}
 8009224:	0924      	lsrs	r4, r4, #4
 8009226:	f5c4 7480 	rsb	r4, r4, #256	; 0x100
 800922a:	e7f0      	b.n	800920e <system__bb__interrupts__interrupt_wrapper+0x2e>
 800922c:	f8df a0b0 	ldr.w	sl, [pc, #176]	; 80092e0 <system__bb__interrupts__interrupt_wrapper+0x100>
 8009230:	4621      	mov	r1, r4
 8009232:	f8da 3000 	ldr.w	r3, [sl]
 8009236:	b113      	cbz	r3, 800923e <system__bb__interrupts__interrupt_wrapper+0x5e>
 8009238:	9101      	str	r1, [sp, #4]
 800923a:	4798      	blx	r3
 800923c:	9901      	ldr	r1, [sp, #4]
 800923e:	2301      	movs	r3, #1
 8009240:	f8c9 6000 	str.w	r6, [r9]
 8009244:	4628      	mov	r0, r5
 8009246:	f885 3055 	strb.w	r3, [r5, #85]	; 0x55
 800924a:	f000 f95b 	bl	8009504 <system__bb__threads__queues__change_priority>
 800924e:	f5b4 7f80 	cmp.w	r4, #256	; 0x100
 8009252:	d02f      	beq.n	80092b4 <system__bb__interrupts__interrupt_wrapper+0xd4>
 8009254:	ebc4 1404 	rsb	r4, r4, r4, lsl #4
 8009258:	0124      	lsls	r4, r4, #4
 800925a:	b2e4      	uxtb	r4, r4
 800925c:	f384 8811 	msr	BASEPRI, r4
 8009260:	b662      	cpsie	i
 8009262:	f3bf 8f4f 	dsb	sy
 8009266:	f3bf 8f6f 	isb	sy
 800926a:	4b1b      	ldr	r3, [pc, #108]	; (80092d8 <system__bb__interrupts__interrupt_wrapper+0xf8>)
 800926c:	4630      	mov	r0, r6
 800926e:	f853 3026 	ldr.w	r3, [r3, r6, lsl #2]
 8009272:	4798      	blx	r3
 8009274:	b672      	cpsid	i
 8009276:	f8da 3000 	ldr.w	r3, [sl]
 800927a:	b103      	cbz	r3, 800927e <system__bb__interrupts__interrupt_wrapper+0x9e>
 800927c:	4798      	blx	r3
 800927e:	4641      	mov	r1, r8
 8009280:	4628      	mov	r0, r5
 8009282:	f000 f93f 	bl	8009504 <system__bb__threads__queues__change_priority>
 8009286:	f8c9 b000 	str.w	fp, [r9]
 800928a:	f885 7055 	strb.w	r7, [r5, #85]	; 0x55
 800928e:	b003      	add	sp, #12
 8009290:	e8bd 8ff0 	ldmia.w	sp!, {r4, r5, r6, r7, r8, r9, sl, fp, pc}
 8009294:	f8df 9044 	ldr.w	r9, [pc, #68]	; 80092dc <system__bb__interrupts__interrupt_wrapper+0xfc>
 8009298:	f8df a044 	ldr.w	sl, [pc, #68]	; 80092e0 <system__bb__interrupts__interrupt_wrapper+0x100>
 800929c:	f8d9 b000 	ldr.w	fp, [r9]
 80092a0:	f8da 3000 	ldr.w	r3, [sl]
 80092a4:	f895 7055 	ldrb.w	r7, [r5, #85]	; 0x55
 80092a8:	b2ff      	uxtb	r7, r7
 80092aa:	b12b      	cbz	r3, 80092b8 <system__bb__interrupts__interrupt_wrapper+0xd8>
 80092ac:	21ff      	movs	r1, #255	; 0xff
 80092ae:	460c      	mov	r4, r1
 80092b0:	2601      	movs	r6, #1
 80092b2:	e7c1      	b.n	8009238 <system__bb__interrupts__interrupt_wrapper+0x58>
 80092b4:	2400      	movs	r4, #0
 80092b6:	e7d1      	b.n	800925c <system__bb__interrupts__interrupt_wrapper+0x7c>
 80092b8:	2601      	movs	r6, #1
 80092ba:	f8c9 6000 	str.w	r6, [r9]
 80092be:	4628      	mov	r0, r5
 80092c0:	f885 6055 	strb.w	r6, [r5, #85]	; 0x55
 80092c4:	21ff      	movs	r1, #255	; 0xff
 80092c6:	f000 f91d 	bl	8009504 <system__bb__threads__queues__change_priority>
 80092ca:	24ff      	movs	r4, #255	; 0xff
 80092cc:	e7c2      	b.n	8009254 <system__bb__interrupts__interrupt_wrapper+0x74>
 80092ce:	bf00      	nop
 80092d0:	200000cc 	.word	0x200000cc
 80092d4:	e000e400 	.word	0xe000e400
 80092d8:	20001478 	.word	0x20001478
 80092dc:	200000b8 	.word	0x200000b8
 80092e0:	20000098 	.word	0x20000098

080092e4 <system__bb__interrupts__initialize_interrupts>:
 80092e4:	4a01      	ldr	r2, [pc, #4]	; (80092ec <system__bb__interrupts__initialize_interrupts+0x8>)
 80092e6:	4b02      	ldr	r3, [pc, #8]	; (80092f0 <system__bb__interrupts__initialize_interrupts+0xc>)
 80092e8:	601a      	str	r2, [r3, #0]
 80092ea:	4770      	bx	lr
 80092ec:	20001dc8 	.word	0x20001dc8
 80092f0:	200015c8 	.word	0x200015c8

080092f4 <system__bb__threads__get_cpu>:
 80092f4:	f890 002c 	ldrb.w	r0, [r0, #44]	; 0x2c
 80092f8:	2800      	cmp	r0, #0
 80092fa:	bf08      	it	eq
 80092fc:	2001      	moveq	r0, #1
 80092fe:	4770      	bx	lr

08009300 <system__bb__threads__initialize_thread>:
 8009300:	e92d 43f0 	stmdb	sp!, {r4, r5, r6, r7, r8, r9, lr}
 8009304:	4604      	mov	r4, r0
 8009306:	4d3e      	ldr	r5, [pc, #248]	; (8009400 <system__bb__threads__initialize_thread+0x100>)
 8009308:	b089      	sub	sp, #36	; 0x24
 800930a:	682e      	ldr	r6, [r5, #0]
 800930c:	f89d 0040 	ldrb.w	r0, [sp, #64]	; 0x40
 8009310:	4696      	mov	lr, r2
 8009312:	65a6      	str	r6, [r4, #88]	; 0x58
 8009314:	6323      	str	r3, [r4, #48]	; 0x30
 8009316:	6363      	str	r3, [r4, #52]	; 0x34
 8009318:	602c      	str	r4, [r5, #0]
 800931a:	f884 002c 	strb.w	r0, [r4, #44]	; 0x2c
 800931e:	9a11      	ldr	r2, [sp, #68]	; 0x44
 8009320:	9e12      	ldr	r6, [sp, #72]	; 0x48
 8009322:	2800      	cmp	r0, #0
 8009324:	d058      	beq.n	80093d8 <system__bb__threads__initialize_thread+0xd8>
 8009326:	b243      	sxtb	r3, r0
 8009328:	f103 4380 	add.w	r3, r3, #1073741824	; 0x40000000
 800932c:	4835      	ldr	r0, [pc, #212]	; (8009404 <system__bb__threads__initialize_thread+0x104>)
 800932e:	3b01      	subs	r3, #1
 8009330:	f850 5023 	ldr.w	r5, [r0, r3, lsl #2]
 8009334:	42ac      	cmp	r4, r5
 8009336:	d018      	beq.n	800936a <system__bb__threads__initialize_thread+0x6a>
 8009338:	f850 5023 	ldr.w	r5, [r0, r3, lsl #2]
 800933c:	2d00      	cmp	r5, #0
 800933e:	d04d      	beq.n	80093dc <system__bb__threads__initialize_thread+0xdc>
 8009340:	6b67      	ldr	r7, [r4, #52]	; 0x34
 8009342:	f850 5023 	ldr.w	r5, [r0, r3, lsl #2]
 8009346:	6b6d      	ldr	r5, [r5, #52]	; 0x34
 8009348:	42af      	cmp	r7, r5
 800934a:	dc47      	bgt.n	80093dc <system__bb__threads__initialize_thread+0xdc>
 800934c:	f850 0023 	ldr.w	r0, [r0, r3, lsl #2]
 8009350:	e006      	b.n	8009360 <system__bb__threads__initialize_thread+0x60>
 8009352:	429c      	cmp	r4, r3
 8009354:	d048      	beq.n	80093e8 <system__bb__threads__initialize_thread+0xe8>
 8009356:	6b5f      	ldr	r7, [r3, #52]	; 0x34
 8009358:	6b65      	ldr	r5, [r4, #52]	; 0x34
 800935a:	42af      	cmp	r7, r5
 800935c:	db03      	blt.n	8009366 <system__bb__threads__initialize_thread+0x66>
 800935e:	4618      	mov	r0, r3
 8009360:	6c03      	ldr	r3, [r0, #64]	; 0x40
 8009362:	2b00      	cmp	r3, #0
 8009364:	d1f5      	bne.n	8009352 <system__bb__threads__initialize_thread+0x52>
 8009366:	6423      	str	r3, [r4, #64]	; 0x40
 8009368:	6404      	str	r4, [r0, #64]	; 0x40
 800936a:	2500      	movs	r5, #0
 800936c:	f04f 38ff 	mov.w	r8, #4294967295
 8009370:	f04f 39ff 	mov.w	r9, #4294967295
 8009374:	63a2      	str	r2, [r4, #56]	; 0x38
 8009376:	63e6      	str	r6, [r4, #60]	; 0x3c
 8009378:	e9c4 8912 	strd	r8, r9, [r4, #72]	; 0x48
 800937c:	f884 5054 	strb.w	r5, [r4, #84]	; 0x54
 8009380:	f884 5055 	strb.w	r5, [r4, #85]	; 0x55
 8009384:	f884 5056 	strb.w	r5, [r4, #86]	; 0x56
 8009388:	6525      	str	r5, [r4, #80]	; 0x50
 800938a:	65e5      	str	r5, [r4, #92]	; 0x5c
 800938c:	6625      	str	r5, [r4, #96]	; 0x60
 800938e:	b301      	cbz	r1, 80093d2 <system__bb__threads__initialize_thread+0xd2>
 8009390:	3a20      	subs	r2, #32
 8009392:	f022 0c04 	bic.w	ip, r2, #4
 8009396:	4666      	mov	r6, ip
 8009398:	466f      	mov	r7, sp
 800939a:	f04f 7380 	mov.w	r3, #16777216	; 0x1000000
 800939e:	9504      	str	r5, [sp, #16]
 80093a0:	9505      	str	r5, [sp, #20]
 80093a2:	9106      	str	r1, [sp, #24]
 80093a4:	9307      	str	r3, [sp, #28]
 80093a6:	f8cd e000 	str.w	lr, [sp]
 80093aa:	9501      	str	r5, [sp, #4]
 80093ac:	9502      	str	r5, [sp, #8]
 80093ae:	9503      	str	r5, [sp, #12]
 80093b0:	cf0f      	ldmia	r7!, {r0, r1, r2, r3}
 80093b2:	c60f      	stmia	r6!, {r0, r1, r2, r3}
 80093b4:	e897 000f 	ldmia.w	r7, {r0, r1, r2, r3}
 80093b8:	e886 000f 	stmia.w	r6, {r0, r1, r2, r3}
 80093bc:	f8c4 c020 	str.w	ip, [r4, #32]
 80093c0:	6025      	str	r5, [r4, #0]
 80093c2:	6065      	str	r5, [r4, #4]
 80093c4:	60a5      	str	r5, [r4, #8]
 80093c6:	60e5      	str	r5, [r4, #12]
 80093c8:	6125      	str	r5, [r4, #16]
 80093ca:	6165      	str	r5, [r4, #20]
 80093cc:	61a5      	str	r5, [r4, #24]
 80093ce:	61e5      	str	r5, [r4, #28]
 80093d0:	6265      	str	r5, [r4, #36]	; 0x24
 80093d2:	b009      	add	sp, #36	; 0x24
 80093d4:	e8bd 83f0 	ldmia.w	sp!, {r4, r5, r6, r7, r8, r9, pc}
 80093d8:	2301      	movs	r3, #1
 80093da:	e7a5      	b.n	8009328 <system__bb__threads__initialize_thread+0x28>
 80093dc:	f850 5023 	ldr.w	r5, [r0, r3, lsl #2]
 80093e0:	f840 4023 	str.w	r4, [r0, r3, lsl #2]
 80093e4:	6425      	str	r5, [r4, #64]	; 0x40
 80093e6:	e7c0      	b.n	800936a <system__bb__threads__initialize_thread+0x6a>
 80093e8:	6c23      	ldr	r3, [r4, #64]	; 0x40
 80093ea:	6403      	str	r3, [r0, #64]	; 0x40
 80093ec:	2b00      	cmp	r3, #0
 80093ee:	d0ba      	beq.n	8009366 <system__bb__threads__initialize_thread+0x66>
 80093f0:	6b5f      	ldr	r7, [r3, #52]	; 0x34
 80093f2:	6b65      	ldr	r5, [r4, #52]	; 0x34
 80093f4:	42af      	cmp	r7, r5
 80093f6:	dbb6      	blt.n	8009366 <system__bb__threads__initialize_thread+0x66>
 80093f8:	4618      	mov	r0, r3
 80093fa:	6c1b      	ldr	r3, [r3, #64]	; 0x40
 80093fc:	e7f6      	b.n	80093ec <system__bb__threads__initialize_thread+0xec>
 80093fe:	bf00      	nop
 8009400:	200000c4 	.word	0x200000c4
 8009404:	200000c0 	.word	0x200000c0

08009408 <system__bb__threads__initialize>:
 8009408:	e92d 43f0 	stmdb	sp!, {r4, r5, r6, r7, r8, r9, lr}
 800940c:	b085      	sub	sp, #20
 800940e:	4606      	mov	r6, r0
 8009410:	460f      	mov	r7, r1
 8009412:	f7ff ff67 	bl	80092e4 <system__bb__interrupts__initialize_interrupts>
 8009416:	f3ef 8008 	mrs	r0, MSP
 800941a:	f380 8809 	msr	PSP, r0
 800941e:	f3ef 8014 	mrs	r0, CONTROL
 8009422:	f040 0002 	orr.w	r0, r0, #2
 8009426:	f380 8814 	msr	CONTROL, r0
 800942a:	4b1f      	ldr	r3, [pc, #124]	; (80094a8 <system__bb__threads__initialize+0xa0>)
 800942c:	681b      	ldr	r3, [r3, #0]
 800942e:	f383 8808 	msr	MSP, r3
 8009432:	4b1e      	ldr	r3, [pc, #120]	; (80094ac <system__bb__threads__initialize+0xa4>)
 8009434:	4a1e      	ldr	r2, [pc, #120]	; (80094b0 <system__bb__threads__initialize+0xa8>)
 8009436:	4d1f      	ldr	r5, [pc, #124]	; (80094b4 <system__bb__threads__initialize+0xac>)
 8009438:	601a      	str	r2, [r3, #0]
 800943a:	682a      	ldr	r2, [r5, #0]
 800943c:	f8df 9090 	ldr.w	r9, [pc, #144]	; 80094d0 <system__bb__threads__initialize+0xc8>
 8009440:	f8df 8090 	ldr.w	r8, [pc, #144]	; 80094d4 <system__bb__threads__initialize+0xcc>
 8009444:	f8df e090 	ldr.w	lr, [pc, #144]	; 80094d8 <system__bb__threads__initialize+0xd0>
 8009448:	491b      	ldr	r1, [pc, #108]	; (80094b8 <system__bb__threads__initialize+0xb0>)
 800944a:	f442 7204 	orr.w	r2, r2, #528	; 0x210
 800944e:	2400      	movs	r4, #0
 8009450:	481a      	ldr	r0, [pc, #104]	; (80094bc <system__bb__threads__initialize+0xb4>)
 8009452:	f042 0201 	orr.w	r2, r2, #1
 8009456:	f44f 0c7f 	mov.w	ip, #16711680	; 0xff0000
 800945a:	602a      	str	r2, [r5, #0]
 800945c:	f8c9 4000 	str.w	r4, [r9]
 8009460:	f8c8 4000 	str.w	r4, [r8]
 8009464:	f8ce c000 	str.w	ip, [lr]
 8009468:	6059      	str	r1, [r3, #4]
 800946a:	6802      	ldr	r2, [r0, #0]
 800946c:	f442 22e0 	orr.w	r2, r2, #458752	; 0x70000
 8009470:	6002      	str	r2, [r0, #0]
 8009472:	b661      	cpsie	f
 8009474:	f7ff fbfc 	bl	8008c70 <system__bb__board_support__initialize_board>
 8009478:	f7ff fa56 	bl	8008928 <system__bb__time__initialize_timers>
 800947c:	b672      	cpsid	i
 800947e:	4810      	ldr	r0, [pc, #64]	; (80094c0 <system__bb__threads__initialize+0xb8>)
 8009480:	4a10      	ldr	r2, [pc, #64]	; (80094c4 <system__bb__threads__initialize+0xbc>)
 8009482:	2501      	movs	r5, #1
 8009484:	463b      	mov	r3, r7
 8009486:	9001      	str	r0, [sp, #4]
 8009488:	9202      	str	r2, [sp, #8]
 800948a:	9500      	str	r5, [sp, #0]
 800948c:	4622      	mov	r2, r4
 800948e:	4630      	mov	r0, r6
 8009490:	4621      	mov	r1, r4
 8009492:	f7ff ff35 	bl	8009300 <system__bb__threads__initialize_thread>
 8009496:	4a0c      	ldr	r2, [pc, #48]	; (80094c8 <system__bb__threads__initialize+0xc0>)
 8009498:	4b0c      	ldr	r3, [pc, #48]	; (80094cc <system__bb__threads__initialize+0xc4>)
 800949a:	6016      	str	r6, [r2, #0]
 800949c:	701d      	strb	r5, [r3, #0]
 800949e:	b005      	add	sp, #20
 80094a0:	e8bd 43f0 	ldmia.w	sp!, {r4, r5, r6, r7, r8, r9, lr}
 80094a4:	f7ff be32 	b.w	800910c <system__bb__protection__leave_kernel>
 80094a8:	200015c8 	.word	0x200015c8
 80094ac:	e000ed08 	.word	0xe000ed08
 80094b0:	08009800 	.word	0x08009800
 80094b4:	e000ed14 	.word	0xe000ed14
 80094b8:	05fa0300 	.word	0x05fa0300
 80094bc:	e000ed24 	.word	0xe000ed24
 80094c0:	200021d0 	.word	0x200021d0
 80094c4:	20001dd0 	.word	0x20001dd0
 80094c8:	200000cc 	.word	0x200000cc
 80094cc:	200000bc 	.word	0x200000bc
 80094d0:	e000ed18 	.word	0xe000ed18
 80094d4:	e000ed1c 	.word	0xe000ed1c
 80094d8:	e000ed20 	.word	0xe000ed20

080094dc <system__bb__threads__thread_create>:
 80094dc:	b570      	push	{r4, r5, r6, lr}
 80094de:	b084      	sub	sp, #16
 80094e0:	f89d 6020 	ldrb.w	r6, [sp, #32]
 80094e4:	9d09      	ldr	r5, [sp, #36]	; 0x24
 80094e6:	9c0a      	ldr	r4, [sp, #40]	; 0x28
 80094e8:	b672      	cpsid	i
 80094ea:	442c      	add	r4, r5
 80094ec:	f024 0407 	bic.w	r4, r4, #7
 80094f0:	9401      	str	r4, [sp, #4]
 80094f2:	9600      	str	r6, [sp, #0]
 80094f4:	9502      	str	r5, [sp, #8]
 80094f6:	f7ff ff03 	bl	8009300 <system__bb__threads__initialize_thread>
 80094fa:	b004      	add	sp, #16
 80094fc:	e8bd 4070 	ldmia.w	sp!, {r4, r5, r6, lr}
 8009500:	f7ff be04 	b.w	800910c <system__bb__protection__leave_kernel>

08009504 <system__bb__threads__queues__change_priority>:
 8009504:	6b43      	ldr	r3, [r0, #52]	; 0x34
 8009506:	428b      	cmp	r3, r1
 8009508:	d011      	beq.n	800952e <system__bb__threads__queues__change_priority+0x2a>
 800950a:	b470      	push	{r4, r5, r6}
 800950c:	4e17      	ldr	r6, [pc, #92]	; (800956c <system__bb__threads__queues__change_priority+0x68>)
 800950e:	6341      	str	r1, [r0, #52]	; 0x34
 8009510:	6834      	ldr	r4, [r6, #0]
 8009512:	4284      	cmp	r4, r0
 8009514:	d023      	beq.n	800955e <system__bb__threads__queues__change_priority+0x5a>
 8009516:	b14c      	cbz	r4, 800952c <system__bb__threads__queues__change_priority+0x28>
 8009518:	6c23      	ldr	r3, [r4, #64]	; 0x40
 800951a:	4283      	cmp	r3, r0
 800951c:	d008      	beq.n	8009530 <system__bb__threads__queues__change_priority+0x2c>
 800951e:	b12b      	cbz	r3, 800952c <system__bb__threads__queues__change_priority+0x28>
 8009520:	6c1a      	ldr	r2, [r3, #64]	; 0x40
 8009522:	4282      	cmp	r2, r0
 8009524:	d005      	beq.n	8009532 <system__bb__threads__queues__change_priority+0x2e>
 8009526:	4613      	mov	r3, r2
 8009528:	2b00      	cmp	r3, #0
 800952a:	d1f9      	bne.n	8009520 <system__bb__threads__queues__change_priority+0x1c>
 800952c:	bc70      	pop	{r4, r5, r6}
 800952e:	4770      	bx	lr
 8009530:	4623      	mov	r3, r4
 8009532:	6c02      	ldr	r2, [r0, #64]	; 0x40
 8009534:	641a      	str	r2, [r3, #64]	; 0x40
 8009536:	6b63      	ldr	r3, [r4, #52]	; 0x34
 8009538:	4299      	cmp	r1, r3
 800953a:	db03      	blt.n	8009544 <system__bb__threads__queues__change_priority+0x40>
 800953c:	6404      	str	r4, [r0, #64]	; 0x40
 800953e:	4604      	mov	r4, r0
 8009540:	6034      	str	r4, [r6, #0]
 8009542:	e7f3      	b.n	800952c <system__bb__threads__queues__change_priority+0x28>
 8009544:	4622      	mov	r2, r4
 8009546:	e003      	b.n	8009550 <system__bb__threads__queues__change_priority+0x4c>
 8009548:	6b5d      	ldr	r5, [r3, #52]	; 0x34
 800954a:	42a9      	cmp	r1, r5
 800954c:	da03      	bge.n	8009556 <system__bb__threads__queues__change_priority+0x52>
 800954e:	461a      	mov	r2, r3
 8009550:	6c13      	ldr	r3, [r2, #64]	; 0x40
 8009552:	2b00      	cmp	r3, #0
 8009554:	d1f8      	bne.n	8009548 <system__bb__threads__queues__change_priority+0x44>
 8009556:	6403      	str	r3, [r0, #64]	; 0x40
 8009558:	6034      	str	r4, [r6, #0]
 800955a:	6410      	str	r0, [r2, #64]	; 0x40
 800955c:	e7e6      	b.n	800952c <system__bb__threads__queues__change_priority+0x28>
 800955e:	6c24      	ldr	r4, [r4, #64]	; 0x40
 8009560:	2c00      	cmp	r4, #0
 8009562:	d0e3      	beq.n	800952c <system__bb__threads__queues__change_priority+0x28>
 8009564:	6b63      	ldr	r3, [r4, #52]	; 0x34
 8009566:	4299      	cmp	r1, r3
 8009568:	dbe5      	blt.n	8009536 <system__bb__threads__queues__change_priority+0x32>
 800956a:	e7df      	b.n	800952c <system__bb__threads__queues__change_priority+0x28>
 800956c:	200000c0 	.word	0x200000c0

08009570 <system__bb__threads__queues__insert_alarm>:
 8009570:	e92d 43d0 	stmdb	sp!, {r4, r6, r7, r8, r9, lr}
 8009574:	4606      	mov	r6, r0
 8009576:	4610      	mov	r0, r2
 8009578:	4614      	mov	r4, r2
 800957a:	460f      	mov	r7, r1
 800957c:	f7ff feba 	bl	80092f4 <system__bb__threads__get_cpu>
 8009580:	b240      	sxtb	r0, r0
 8009582:	f100 4380 	add.w	r3, r0, #1073741824	; 0x40000000
 8009586:	4a11      	ldr	r2, [pc, #68]	; (80095cc <system__bb__threads__queues__insert_alarm+0x5c>)
 8009588:	3b01      	subs	r3, #1
 800958a:	f852 1023 	ldr.w	r1, [r2, r3, lsl #2]
 800958e:	e9c4 6712 	strd	r6, r7, [r4, #72]	; 0x48
 8009592:	b1a9      	cbz	r1, 80095c0 <system__bb__threads__queues__insert_alarm+0x50>
 8009594:	e9d1 8912 	ldrd	r8, r9, [r1, #72]	; 0x48
 8009598:	454f      	cmp	r7, r9
 800959a:	bf08      	it	eq
 800959c:	4546      	cmpeq	r6, r8
 800959e:	d207      	bcs.n	80095b0 <system__bb__threads__queues__insert_alarm+0x40>
 80095a0:	e00e      	b.n	80095c0 <system__bb__threads__queues__insert_alarm+0x50>
 80095a2:	e9d3 8912 	ldrd	r8, r9, [r3, #72]	; 0x48
 80095a6:	45b9      	cmp	r9, r7
 80095a8:	bf08      	it	eq
 80095aa:	45b0      	cmpeq	r8, r6
 80095ac:	d203      	bcs.n	80095b6 <system__bb__threads__queues__insert_alarm+0x46>
 80095ae:	4619      	mov	r1, r3
 80095b0:	6d0b      	ldr	r3, [r1, #80]	; 0x50
 80095b2:	2b00      	cmp	r3, #0
 80095b4:	d1f5      	bne.n	80095a2 <system__bb__threads__queues__insert_alarm+0x32>
 80095b6:	6523      	str	r3, [r4, #80]	; 0x50
 80095b8:	2000      	movs	r0, #0
 80095ba:	650c      	str	r4, [r1, #80]	; 0x50
 80095bc:	e8bd 83d0 	ldmia.w	sp!, {r4, r6, r7, r8, r9, pc}
 80095c0:	6521      	str	r1, [r4, #80]	; 0x50
 80095c2:	f842 4023 	str.w	r4, [r2, r3, lsl #2]
 80095c6:	2001      	movs	r0, #1
 80095c8:	e8bd 83d0 	ldmia.w	sp!, {r4, r6, r7, r8, r9, pc}
 80095cc:	200000c8 	.word	0x200000c8

080095d0 <system__bb__threads__queues__wakeup_expired_alarms>:
 80095d0:	e92d 47f0 	stmdb	sp!, {r4, r5, r6, r7, r8, r9, sl, lr}
 80095d4:	4604      	mov	r4, r0
 80095d6:	460d      	mov	r5, r1
 80095d8:	f8df a0dc 	ldr.w	sl, [pc, #220]	; 80096b8 <system__bb__threads__queues__wakeup_expired_alarms+0xe8>
 80095dc:	f8df 90d4 	ldr.w	r9, [pc, #212]	; 80096b4 <system__bb__threads__queues__wakeup_expired_alarms+0xe4>
 80095e0:	f04f 36ff 	mov.w	r6, #4294967295
 80095e4:	f04f 37ff 	mov.w	r7, #4294967295
 80095e8:	f8da 8000 	ldr.w	r8, [sl]
 80095ec:	f1b8 0f00 	cmp.w	r8, #0
 80095f0:	d03d      	beq.n	800966e <system__bb__threads__queues__wakeup_expired_alarms+0x9e>
 80095f2:	e9d8 2312 	ldrd	r2, r3, [r8, #72]	; 0x48
 80095f6:	429d      	cmp	r5, r3
 80095f8:	bf08      	it	eq
 80095fa:	4294      	cmpeq	r4, r2
 80095fc:	d33f      	bcc.n	800967e <system__bb__threads__queues__wakeup_expired_alarms+0xae>
 80095fe:	f8d8 3050 	ldr.w	r3, [r8, #80]	; 0x50
 8009602:	2200      	movs	r2, #0
 8009604:	f8c8 2050 	str.w	r2, [r8, #80]	; 0x50
 8009608:	f888 2054 	strb.w	r2, [r8, #84]	; 0x54
 800960c:	e9c8 6712 	strd	r6, r7, [r8, #72]	; 0x48
 8009610:	4640      	mov	r0, r8
 8009612:	f8ca 3000 	str.w	r3, [sl]
 8009616:	f7ff fe6d 	bl	80092f4 <system__bb__threads__get_cpu>
 800961a:	b240      	sxtb	r0, r0
 800961c:	f100 4080 	add.w	r0, r0, #1073741824	; 0x40000000
 8009620:	3801      	subs	r0, #1
 8009622:	f859 2020 	ldr.w	r2, [r9, r0, lsl #2]
 8009626:	4b23      	ldr	r3, [pc, #140]	; (80096b4 <system__bb__threads__queues__wakeup_expired_alarms+0xe4>)
 8009628:	4590      	cmp	r8, r2
 800962a:	d0dd      	beq.n	80095e8 <system__bb__threads__queues__wakeup_expired_alarms+0x18>
 800962c:	f853 2020 	ldr.w	r2, [r3, r0, lsl #2]
 8009630:	b362      	cbz	r2, 800968c <system__bb__threads__queues__wakeup_expired_alarms+0xbc>
 8009632:	f8d8 1034 	ldr.w	r1, [r8, #52]	; 0x34
 8009636:	f853 2020 	ldr.w	r2, [r3, r0, lsl #2]
 800963a:	6b52      	ldr	r2, [r2, #52]	; 0x34
 800963c:	4291      	cmp	r1, r2
 800963e:	dc25      	bgt.n	800968c <system__bb__threads__queues__wakeup_expired_alarms+0xbc>
 8009640:	f853 2020 	ldr.w	r2, [r3, r0, lsl #2]
 8009644:	e007      	b.n	8009656 <system__bb__threads__queues__wakeup_expired_alarms+0x86>
 8009646:	4543      	cmp	r3, r8
 8009648:	d027      	beq.n	800969a <system__bb__threads__queues__wakeup_expired_alarms+0xca>
 800964a:	6b58      	ldr	r0, [r3, #52]	; 0x34
 800964c:	f8d8 1034 	ldr.w	r1, [r8, #52]	; 0x34
 8009650:	4288      	cmp	r0, r1
 8009652:	db03      	blt.n	800965c <system__bb__threads__queues__wakeup_expired_alarms+0x8c>
 8009654:	461a      	mov	r2, r3
 8009656:	6c13      	ldr	r3, [r2, #64]	; 0x40
 8009658:	2b00      	cmp	r3, #0
 800965a:	d1f4      	bne.n	8009646 <system__bb__threads__queues__wakeup_expired_alarms+0x76>
 800965c:	f8c8 3040 	str.w	r3, [r8, #64]	; 0x40
 8009660:	f8c2 8040 	str.w	r8, [r2, #64]	; 0x40
 8009664:	f8da 8000 	ldr.w	r8, [sl]
 8009668:	f1b8 0f00 	cmp.w	r8, #0
 800966c:	d1c1      	bne.n	80095f2 <system__bb__threads__queues__wakeup_expired_alarms+0x22>
 800966e:	f04f 33ff 	mov.w	r3, #4294967295
 8009672:	f04f 32ff 	mov.w	r2, #4294967295
 8009676:	429d      	cmp	r5, r3
 8009678:	bf08      	it	eq
 800967a:	4294      	cmpeq	r4, r2
 800967c:	d2bf      	bcs.n	80095fe <system__bb__threads__queues__wakeup_expired_alarms+0x2e>
 800967e:	2001      	movs	r0, #1
 8009680:	f7ff f926 	bl	80088d0 <system__bb__time__get_next_timeout>
 8009684:	e8bd 47f0 	ldmia.w	sp!, {r4, r5, r6, r7, r8, r9, sl, lr}
 8009688:	f7ff b99c 	b.w	80089c4 <system__bb__time__update_alarm>
 800968c:	f853 2020 	ldr.w	r2, [r3, r0, lsl #2]
 8009690:	f843 8020 	str.w	r8, [r3, r0, lsl #2]
 8009694:	f8c8 2040 	str.w	r2, [r8, #64]	; 0x40
 8009698:	e7a6      	b.n	80095e8 <system__bb__threads__queues__wakeup_expired_alarms+0x18>
 800969a:	f8d8 3040 	ldr.w	r3, [r8, #64]	; 0x40
 800969e:	6413      	str	r3, [r2, #64]	; 0x40
 80096a0:	2b00      	cmp	r3, #0
 80096a2:	d0db      	beq.n	800965c <system__bb__threads__queues__wakeup_expired_alarms+0x8c>
 80096a4:	6b58      	ldr	r0, [r3, #52]	; 0x34
 80096a6:	f8d8 1034 	ldr.w	r1, [r8, #52]	; 0x34
 80096aa:	4288      	cmp	r0, r1
 80096ac:	dbd6      	blt.n	800965c <system__bb__threads__queues__wakeup_expired_alarms+0x8c>
 80096ae:	461a      	mov	r2, r3
 80096b0:	6c1b      	ldr	r3, [r3, #64]	; 0x40
 80096b2:	e7f5      	b.n	80096a0 <system__bb__threads__queues__wakeup_expired_alarms+0xd0>
 80096b4:	200000c0 	.word	0x200000c0
 80096b8:	200000c8 	.word	0x200000c8

080096bc <system__bb__threads__queues__yield>:
 80096bc:	b538      	push	{r3, r4, r5, lr}
 80096be:	4605      	mov	r5, r0
 80096c0:	f7ff fe18 	bl	80092f4 <system__bb__threads__get_cpu>
 80096c4:	6c2a      	ldr	r2, [r5, #64]	; 0x40
 80096c6:	6b6b      	ldr	r3, [r5, #52]	; 0x34
 80096c8:	b112      	cbz	r2, 80096d0 <system__bb__threads__queues__yield+0x14>
 80096ca:	6b54      	ldr	r4, [r2, #52]	; 0x34
 80096cc:	429c      	cmp	r4, r3
 80096ce:	d000      	beq.n	80096d2 <system__bb__threads__queues__yield+0x16>
 80096d0:	bd38      	pop	{r3, r4, r5, pc}
 80096d2:	b243      	sxtb	r3, r0
 80096d4:	4909      	ldr	r1, [pc, #36]	; (80096fc <system__bb__threads__queues__yield+0x40>)
 80096d6:	f103 4380 	add.w	r3, r3, #1073741824	; 0x40000000
 80096da:	3b01      	subs	r3, #1
 80096dc:	f841 2023 	str.w	r2, [r1, r3, lsl #2]
 80096e0:	f851 2023 	ldr.w	r2, [r1, r3, lsl #2]
 80096e4:	e003      	b.n	80096ee <system__bb__threads__queues__yield+0x32>
 80096e6:	6b59      	ldr	r1, [r3, #52]	; 0x34
 80096e8:	428c      	cmp	r4, r1
 80096ea:	d103      	bne.n	80096f4 <system__bb__threads__queues__yield+0x38>
 80096ec:	461a      	mov	r2, r3
 80096ee:	6c13      	ldr	r3, [r2, #64]	; 0x40
 80096f0:	2b00      	cmp	r3, #0
 80096f2:	d1f8      	bne.n	80096e6 <system__bb__threads__queues__yield+0x2a>
 80096f4:	642b      	str	r3, [r5, #64]	; 0x40
 80096f6:	6415      	str	r5, [r2, #64]	; 0x40
 80096f8:	bd38      	pop	{r3, r4, r5, pc}
 80096fa:	bf00      	nop
 80096fc:	200000c0 	.word	0x200000c0
	...

08009800 <__vectors>:
 8009800:	00000000 	.word	0x00000000
 8009804:	08009991 	.word	0x08009991
 8009808:	08009991 	.word	0x08009991
 800980c:	08009991 	.word	0x08009991
 8009810:	08009991 	.word	0x08009991
 8009814:	08009991 	.word	0x08009991
 8009818:	08009991 	.word	0x08009991
 800981c:	08009991 	.word	0x08009991
 8009820:	08009991 	.word	0x08009991
 8009824:	08009991 	.word	0x08009991
 8009828:	08009991 	.word	0x08009991
 800982c:	08008f9d 	.word	0x08008f9d
 8009830:	08009991 	.word	0x08009991
 8009834:	08009991 	.word	0x08009991
 8009838:	08008f75 	.word	0x08008f75
 800983c:	08008fa5 	.word	0x08008fa5
 8009840:	08008f21 	.word	0x08008f21
 8009844:	08008f21 	.word	0x08008f21
 8009848:	08008f21 	.word	0x08008f21
 800984c:	08008f21 	.word	0x08008f21
 8009850:	08008f21 	.word	0x08008f21
 8009854:	08008f21 	.word	0x08008f21
 8009858:	08008f21 	.word	0x08008f21
 800985c:	08008f21 	.word	0x08008f21
 8009860:	08008f21 	.word	0x08008f21
 8009864:	08008f21 	.word	0x08008f21
 8009868:	08008f21 	.word	0x08008f21
 800986c:	08008f21 	.word	0x08008f21
 8009870:	08008f21 	.word	0x08008f21
 8009874:	08008f21 	.word	0x08008f21
 8009878:	08008f21 	.word	0x08008f21
 800987c:	08008f21 	.word	0x08008f21
 8009880:	08008f21 	.word	0x08008f21
 8009884:	08008f21 	.word	0x08008f21
 8009888:	08008f21 	.word	0x08008f21
 800988c:	08008f21 	.word	0x08008f21
 8009890:	08008f21 	.word	0x08008f21
 8009894:	08008f21 	.word	0x08008f21
 8009898:	08008f21 	.word	0x08008f21
 800989c:	08008f21 	.word	0x08008f21
 80098a0:	08008f21 	.word	0x08008f21
 80098a4:	08008f21 	.word	0x08008f21
 80098a8:	08008f21 	.word	0x08008f21
 80098ac:	08008f21 	.word	0x08008f21
 80098b0:	08008f21 	.word	0x08008f21
 80098b4:	08008f21 	.word	0x08008f21
 80098b8:	08008f21 	.word	0x08008f21
 80098bc:	08008f21 	.word	0x08008f21
 80098c0:	08008f21 	.word	0x08008f21
 80098c4:	08008f21 	.word	0x08008f21
 80098c8:	08008f21 	.word	0x08008f21
 80098cc:	08008f21 	.word	0x08008f21
 80098d0:	08008f21 	.word	0x08008f21
 80098d4:	08008f21 	.word	0x08008f21
 80098d8:	08008f21 	.word	0x08008f21
 80098dc:	08008f21 	.word	0x08008f21
 80098e0:	08008f21 	.word	0x08008f21
 80098e4:	08008f21 	.word	0x08008f21
 80098e8:	08008f21 	.word	0x08008f21
 80098ec:	08008f21 	.word	0x08008f21
 80098f0:	08008f21 	.word	0x08008f21
 80098f4:	08008f21 	.word	0x08008f21
 80098f8:	08008f21 	.word	0x08008f21
 80098fc:	08008f21 	.word	0x08008f21
 8009900:	08008f21 	.word	0x08008f21
 8009904:	08008f21 	.word	0x08008f21
 8009908:	08008f21 	.word	0x08008f21
 800990c:	08008f21 	.word	0x08008f21
 8009910:	08008f21 	.word	0x08008f21
 8009914:	08008f21 	.word	0x08008f21
 8009918:	08008f21 	.word	0x08008f21
 800991c:	08008f21 	.word	0x08008f21
 8009920:	08008f21 	.word	0x08008f21
 8009924:	08008f21 	.word	0x08008f21
 8009928:	08008f21 	.word	0x08008f21
 800992c:	08008f21 	.word	0x08008f21
 8009930:	08008f21 	.word	0x08008f21
 8009934:	08008f21 	.word	0x08008f21
 8009938:	08008f21 	.word	0x08008f21
 800993c:	08008f21 	.word	0x08008f21
 8009940:	08008f21 	.word	0x08008f21
 8009944:	08008f21 	.word	0x08008f21
 8009948:	08008f21 	.word	0x08008f21
 800994c:	08008f21 	.word	0x08008f21
 8009950:	08008f21 	.word	0x08008f21
 8009954:	08008f21 	.word	0x08008f21
 8009958:	08008f21 	.word	0x08008f21
 800995c:	08008f21 	.word	0x08008f21
 8009960:	08008f21 	.word	0x08008f21
 8009964:	08008f21 	.word	0x08008f21
 8009968:	08008f21 	.word	0x08008f21
 800996c:	08008f21 	.word	0x08008f21
 8009970:	08008f21 	.word	0x08008f21
 8009974:	08008f21 	.word	0x08008f21
 8009978:	08008f21 	.word	0x08008f21
 800997c:	08008f21 	.word	0x08008f21
 8009980:	08008f21 	.word	0x08008f21
 8009984:	08008f21 	.word	0x08008f21
 8009988:	e7fe      	b.n	8009988 <__vectors+0x188>
 800998a:	e7fe      	b.n	800998a <__vectors+0x18a>
 800998c:	e7fe      	b.n	800998c <__vectors+0x18c>
 800998e:	e7fe      	b.n	800998e <__vectors+0x18e>

08009990 <fault>:
 8009990:	e7fe      	b.n	8009990 <fault>
 8009992:	bf00      	nop

08009994 <_start_rom>:
 8009994:	f000 f836 	bl	8009a04 <_stm32_start_common>
 8009998:	f240 0000 	movw	r0, #0
 800999c:	f2c2 0000 	movt	r0, #8192	; 0x2000
 80099a0:	f240 0138 	movw	r1, #56	; 0x38
 80099a4:	f64b 6244 	movw	r2, #48708	; 0xbe44
 80099a8:	f6c0 0200 	movt	r2, #2048	; 0x800
 80099ac:	b129      	cbz	r1, 80099ba <_start_rom+0x26>
 80099ae:	f852 4b04 	ldr.w	r4, [r2], #4
 80099b2:	f840 4b04 	str.w	r4, [r0], #4
 80099b6:	3901      	subs	r1, #1
 80099b8:	d1f9      	bne.n	80099ae <_start_rom+0x1a>
 80099ba:	f240 00e0 	movw	r0, #224	; 0xe0
 80099be:	f2c2 0000 	movt	r0, #8192	; 0x2000
 80099c2:	f240 0100 	movw	r1, #0
 80099c6:	f64b 7224 	movw	r2, #48932	; 0xbf24
 80099ca:	f6c0 0200 	movt	r2, #2048	; 0x800
 80099ce:	b129      	cbz	r1, 80099dc <_start_rom+0x48>
 80099d0:	f852 4b04 	ldr.w	r4, [r2], #4
 80099d4:	f840 4b04 	str.w	r4, [r0], #4
 80099d8:	3901      	subs	r1, #1
 80099da:	d1f9      	bne.n	80099d0 <_start_rom+0x3c>
 80099dc:	f240 00e0 	movw	r0, #224	; 0xe0
 80099e0:	f2c2 0000 	movt	r0, #8192	; 0x2000
 80099e4:	f240 513c 	movw	r1, #1340	; 0x53c
 80099e8:	f04f 0200 	mov.w	r2, #0
 80099ec:	b119      	cbz	r1, 80099f6 <_start_rom+0x62>
 80099ee:	f840 2b04 	str.w	r2, [r0], #4
 80099f2:	3901      	subs	r1, #1
 80099f4:	d1fb      	bne.n	80099ee <_start_rom+0x5a>
 80099f6:	f000 f94f 	bl	8009c98 <_ada_setup_pll>
 80099fa:	f7f6 fc75 	bl	80002e8 <main>
 80099fe:	f000 f943 	bl	8009c88 <_exit>

08009a02 <hang>:
 8009a02:	e7fe      	b.n	8009a02 <hang>

08009a04 <_stm32_start_common>:
 8009a04:	f64e 5088 	movw	r0, #60808	; 0xed88
 8009a08:	f2ce 0000 	movt	r0, #57344	; 0xe000
 8009a0c:	6801      	ldr	r1, [r0, #0]
 8009a0e:	f441 0170 	orr.w	r1, r1, #15728640	; 0xf00000
 8009a12:	6001      	str	r1, [r0, #0]
 8009a14:	f3bf 8f4f 	dsb	sy
 8009a18:	f3bf 8f6f 	isb	sy
 8009a1c:	4829      	ldr	r0, [pc, #164]	; (8009ac4 <end+0x4>)
 8009a1e:	6801      	ldr	r1, [r0, #0]
 8009a20:	f640 72ff 	movw	r2, #4095	; 0xfff
 8009a24:	ea01 0102 	and.w	r1, r1, r2
 8009a28:	f240 4249 	movw	r2, #1097	; 0x449
 8009a2c:	4291      	cmp	r1, r2
 8009a2e:	d147      	bne.n	8009ac0 <end>

08009a30 <dcache_invalidate>:
 8009a30:	f04f 0100 	mov.w	r1, #0
 8009a34:	4824      	ldr	r0, [pc, #144]	; (8009ac8 <end+0x8>)
 8009a36:	6001      	str	r1, [r0, #0]
 8009a38:	f3bf 8f4f 	dsb	sy
 8009a3c:	4823      	ldr	r0, [pc, #140]	; (8009acc <end+0xc>)
 8009a3e:	6802      	ldr	r2, [r0, #0]
 8009a40:	f002 0107 	and.w	r1, r2, #7
 8009a44:	f101 0704 	add.w	r7, r1, #4
 8009a48:	f3c2 04c9 	ubfx	r4, r2, #3, #10
 8009a4c:	f3c2 324e 	ubfx	r2, r2, #13, #15
 8009a50:	fab4 f684 	clz	r6, r4
 8009a54:	481e      	ldr	r0, [pc, #120]	; (8009ad0 <end+0x10>)

08009a56 <inv_loop1>:
 8009a56:	4621      	mov	r1, r4
 8009a58:	fa12 f807 	lsls.w	r8, r2, r7

08009a5c <inv_loop2>:
 8009a5c:	fa11 f306 	lsls.w	r3, r1, r6
 8009a60:	ea53 0308 	orrs.w	r3, r3, r8
 8009a64:	6003      	str	r3, [r0, #0]
 8009a66:	3901      	subs	r1, #1
 8009a68:	daf8      	bge.n	8009a5c <inv_loop2>
 8009a6a:	3a01      	subs	r2, #1
 8009a6c:	daf3      	bge.n	8009a56 <inv_loop1>
 8009a6e:	f3bf 8f4f 	dsb	sy
 8009a72:	f3bf 8f6f 	isb	sy

08009a76 <icache_invalidate>:
 8009a76:	f04f 0100 	mov.w	r1, #0
 8009a7a:	4816      	ldr	r0, [pc, #88]	; (8009ad4 <end+0x14>)
 8009a7c:	6001      	str	r1, [r0, #0]
 8009a7e:	f3bf 8f4f 	dsb	sy
 8009a82:	f3bf 8f6f 	isb	sy
 8009a86:	4814      	ldr	r0, [pc, #80]	; (8009ad8 <end+0x18>)
 8009a88:	6801      	ldr	r1, [r0, #0]
 8009a8a:	f441 3180 	orr.w	r1, r1, #65536	; 0x10000
 8009a8e:	f441 3100 	orr.w	r1, r1, #131072	; 0x20000
 8009a92:	6001      	str	r1, [r0, #0]
 8009a94:	f3bf 8f4f 	dsb	sy
 8009a98:	f3bf 8f6f 	isb	sy
 8009a9c:	f3bf 8f4f 	dsb	sy
 8009aa0:	f3bf 8f6f 	isb	sy
 8009aa4:	480d      	ldr	r0, [pc, #52]	; (8009adc <end+0x1c>)
 8009aa6:	6801      	ldr	r1, [r0, #0]
 8009aa8:	f041 0101 	orr.w	r1, r1, #1
 8009aac:	6001      	str	r1, [r0, #0]
 8009aae:	480c      	ldr	r0, [pc, #48]	; (8009ae0 <end+0x20>)
 8009ab0:	6801      	ldr	r1, [r0, #0]
 8009ab2:	f041 0101 	orr.w	r1, r1, #1
 8009ab6:	6001      	str	r1, [r0, #0]
 8009ab8:	f3bf 8f4f 	dsb	sy
 8009abc:	f3bf 8f6f 	isb	sy

08009ac0 <end>:
 8009ac0:	4770      	bx	lr
 8009ac2:	0000      	.short	0x0000
 8009ac4:	e0042000 	.word	0xe0042000
 8009ac8:	e000ed84 	.word	0xe000ed84
 8009acc:	e000ed80 	.word	0xe000ed80
 8009ad0:	e000ef60 	.word	0xe000ef60
 8009ad4:	e000ef50 	.word	0xe000ef50
 8009ad8:	e000ed14 	.word	0xe000ed14
 8009adc:	e000ef90 	.word	0xe000ef90
 8009ae0:	e000ef94 	.word	0xe000ef94

08009ae4 <ada__text_io___elabb>:
 8009ae4:	4b02      	ldr	r3, [pc, #8]	; (8009af0 <ada__text_io___elabb+0xc>)
 8009ae6:	781b      	ldrb	r3, [r3, #0]
 8009ae8:	b103      	cbz	r3, 8009aec <ada__text_io___elabb+0x8>
 8009aea:	4770      	bx	lr
 8009aec:	f000 ba0c 	b.w	8009f08 <system__text_io__initialize>
 8009af0:	200000da 	.word	0x200000da

08009af4 <system__img_uns__set_image_unsigned>:
 8009af4:	b5f0      	push	{r4, r5, r6, r7, lr}
 8009af6:	2809      	cmp	r0, #9
 8009af8:	b083      	sub	sp, #12
 8009afa:	4601      	mov	r1, r0
 8009afc:	681d      	ldr	r5, [r3, #0]
 8009afe:	d806      	bhi.n	8009b0e <system__img_uns__set_image_unsigned+0x1a>
 8009b00:	9b08      	ldr	r3, [sp, #32]
 8009b02:	3130      	adds	r1, #48	; 0x30
 8009b04:	1c58      	adds	r0, r3, #1
 8009b06:	1b45      	subs	r5, r0, r5
 8009b08:	5551      	strb	r1, [r2, r5]
 8009b0a:	b003      	add	sp, #12
 8009b0c:	bdf0      	pop	{r4, r5, r6, r7, pc}
 8009b0e:	9908      	ldr	r1, [sp, #32]
 8009b10:	4f09      	ldr	r7, [pc, #36]	; (8009b38 <system__img_uns__set_image_unsigned+0x44>)
 8009b12:	9100      	str	r1, [sp, #0]
 8009b14:	fba7 1700 	umull	r1, r7, r7, r0
 8009b18:	08ff      	lsrs	r7, r7, #3
 8009b1a:	4604      	mov	r4, r0
 8009b1c:	4638      	mov	r0, r7
 8009b1e:	4616      	mov	r6, r2
 8009b20:	f7ff ffe8 	bl	8009af4 <system__img_uns__set_image_unsigned>
 8009b24:	eb07 0187 	add.w	r1, r7, r7, lsl #2
 8009b28:	3001      	adds	r0, #1
 8009b2a:	eba4 0141 	sub.w	r1, r4, r1, lsl #1
 8009b2e:	1b45      	subs	r5, r0, r5
 8009b30:	3130      	adds	r1, #48	; 0x30
 8009b32:	5571      	strb	r1, [r6, r5]
 8009b34:	b003      	add	sp, #12
 8009b36:	bdf0      	pop	{r4, r5, r6, r7, pc}
 8009b38:	cccccccd 	.word	0xcccccccd

08009b3c <system__img_uns__image_unsigned>:
 8009b3c:	b530      	push	{r4, r5, lr}
 8009b3e:	6819      	ldr	r1, [r3, #0]
 8009b40:	b083      	sub	sp, #12
 8009b42:	f1c1 0101 	rsb	r1, r1, #1
 8009b46:	2520      	movs	r5, #32
 8009b48:	2401      	movs	r4, #1
 8009b4a:	5455      	strb	r5, [r2, r1]
 8009b4c:	9400      	str	r4, [sp, #0]
 8009b4e:	f7ff ffd1 	bl	8009af4 <system__img_uns__set_image_unsigned>
 8009b52:	b003      	add	sp, #12
 8009b54:	bd30      	pop	{r4, r5, pc}
 8009b56:	bf00      	nop

08009b58 <memcpy>:
 8009b58:	ea40 0301 	orr.w	r3, r0, r1
 8009b5c:	079b      	lsls	r3, r3, #30
 8009b5e:	b4f0      	push	{r4, r5, r6, r7}
 8009b60:	d11c      	bne.n	8009b9c <memcpy+0x44>
 8009b62:	2a03      	cmp	r2, #3
 8009b64:	d91a      	bls.n	8009b9c <memcpy+0x44>
 8009b66:	4605      	mov	r5, r0
 8009b68:	1f13      	subs	r3, r2, #4
 8009b6a:	460c      	mov	r4, r1
 8009b6c:	f023 0703 	bic.w	r7, r3, #3
 8009b70:	3104      	adds	r1, #4
 8009b72:	4439      	add	r1, r7
 8009b74:	f854 6b04 	ldr.w	r6, [r4], #4
 8009b78:	428c      	cmp	r4, r1
 8009b7a:	f845 6b04 	str.w	r6, [r5], #4
 8009b7e:	d1f9      	bne.n	8009b74 <memcpy+0x1c>
 8009b80:	1d03      	adds	r3, r0, #4
 8009b82:	f002 0203 	and.w	r2, r2, #3
 8009b86:	443b      	add	r3, r7
 8009b88:	b132      	cbz	r2, 8009b98 <memcpy+0x40>
 8009b8a:	440a      	add	r2, r1
 8009b8c:	f811 4b01 	ldrb.w	r4, [r1], #1
 8009b90:	4291      	cmp	r1, r2
 8009b92:	f803 4b01 	strb.w	r4, [r3], #1
 8009b96:	d1f9      	bne.n	8009b8c <memcpy+0x34>
 8009b98:	bcf0      	pop	{r4, r5, r6, r7}
 8009b9a:	4770      	bx	lr
 8009b9c:	4603      	mov	r3, r0
 8009b9e:	e7f3      	b.n	8009b88 <memcpy+0x30>

08009ba0 <system__img_lli__set_digits>:
 8009ba0:	e92d 4df0 	stmdb	sp!, {r4, r5, r6, r7, r8, sl, fp, lr}
 8009ba4:	f06f 0a08 	mvn.w	sl, #8
 8009ba8:	f04f 3bff 	mov.w	fp, #4294967295
 8009bac:	4550      	cmp	r0, sl
 8009bae:	461c      	mov	r4, r3
 8009bb0:	681d      	ldr	r5, [r3, #0]
 8009bb2:	eb71 030b 	sbcs.w	r3, r1, fp
 8009bb6:	b082      	sub	sp, #8
 8009bb8:	4606      	mov	r6, r0
 8009bba:	460f      	mov	r7, r1
 8009bbc:	4690      	mov	r8, r2
 8009bbe:	db09      	blt.n	8009bd4 <system__img_lli__set_digits+0x34>
 8009bc0:	9b0a      	ldr	r3, [sp, #40]	; 0x28
 8009bc2:	f1c0 0630 	rsb	r6, r0, #48	; 0x30
 8009bc6:	1c5c      	adds	r4, r3, #1
 8009bc8:	4620      	mov	r0, r4
 8009bca:	1b65      	subs	r5, r4, r5
 8009bcc:	5556      	strb	r6, [r2, r5]
 8009bce:	b002      	add	sp, #8
 8009bd0:	e8bd 8df0 	ldmia.w	sp!, {r4, r5, r6, r7, r8, sl, fp, pc}
 8009bd4:	220a      	movs	r2, #10
 8009bd6:	2300      	movs	r3, #0
 8009bd8:	f000 fc00 	bl	800a3dc <__aeabi_ldivmod>
 8009bdc:	9b0a      	ldr	r3, [sp, #40]	; 0x28
 8009bde:	4642      	mov	r2, r8
 8009be0:	9300      	str	r3, [sp, #0]
 8009be2:	4623      	mov	r3, r4
 8009be4:	f7ff ffdc 	bl	8009ba0 <system__img_lli__set_digits>
 8009be8:	4639      	mov	r1, r7
 8009bea:	1c44      	adds	r4, r0, #1
 8009bec:	220a      	movs	r2, #10
 8009bee:	4630      	mov	r0, r6
 8009bf0:	2300      	movs	r3, #0
 8009bf2:	f000 fbf3 	bl	800a3dc <__aeabi_ldivmod>
 8009bf6:	4620      	mov	r0, r4
 8009bf8:	1b65      	subs	r5, r4, r5
 8009bfa:	f1c2 0230 	rsb	r2, r2, #48	; 0x30
 8009bfe:	f808 2005 	strb.w	r2, [r8, r5]
 8009c02:	b002      	add	sp, #8
 8009c04:	e8bd 8df0 	ldmia.w	sp!, {r4, r5, r6, r7, r8, sl, fp, pc}

08009c08 <system__img_lli__set_image_long_long_integer>:
 8009c08:	2800      	cmp	r0, #0
 8009c0a:	b5f0      	push	{r4, r5, r6, r7, lr}
 8009c0c:	f171 0c00 	sbcs.w	ip, r1, #0
 8009c10:	9c05      	ldr	r4, [sp, #20]
 8009c12:	681d      	ldr	r5, [r3, #0]
 8009c14:	db06      	blt.n	8009c24 <system__img_lli__set_image_long_long_integer+0x1c>
 8009c16:	e8bd 40f0 	ldmia.w	sp!, {r4, r5, r6, r7, lr}
 8009c1a:	4240      	negs	r0, r0
 8009c1c:	eb61 0141 	sbc.w	r1, r1, r1, lsl #1
 8009c20:	f7ff bfbe 	b.w	8009ba0 <system__img_lli__set_digits>
 8009c24:	3401      	adds	r4, #1
 8009c26:	1b65      	subs	r5, r4, r5
 8009c28:	262d      	movs	r6, #45	; 0x2d
 8009c2a:	5556      	strb	r6, [r2, r5]
 8009c2c:	9405      	str	r4, [sp, #20]
 8009c2e:	e8bd 40f0 	ldmia.w	sp!, {r4, r5, r6, r7, lr}
 8009c32:	f7ff bfb5 	b.w	8009ba0 <system__img_lli__set_digits>
 8009c36:	bf00      	nop

08009c38 <system__img_lli__image_long_long_integer>:
 8009c38:	b530      	push	{r4, r5, lr}
 8009c3a:	460d      	mov	r5, r1
 8009c3c:	2800      	cmp	r0, #0
 8009c3e:	4604      	mov	r4, r0
 8009c40:	f175 0000 	sbcs.w	r0, r5, #0
 8009c44:	b083      	sub	sp, #12
 8009c46:	6819      	ldr	r1, [r3, #0]
 8009c48:	db0b      	blt.n	8009c62 <system__img_lli__image_long_long_integer+0x2a>
 8009c4a:	f1c1 0101 	rsb	r1, r1, #1
 8009c4e:	2020      	movs	r0, #32
 8009c50:	5450      	strb	r0, [r2, r1]
 8009c52:	2101      	movs	r1, #1
 8009c54:	9100      	str	r1, [sp, #0]
 8009c56:	4620      	mov	r0, r4
 8009c58:	4629      	mov	r1, r5
 8009c5a:	f7ff ffd5 	bl	8009c08 <system__img_lli__set_image_long_long_integer>
 8009c5e:	b003      	add	sp, #12
 8009c60:	bd30      	pop	{r4, r5, pc}
 8009c62:	2100      	movs	r1, #0
 8009c64:	e7f6      	b.n	8009c54 <system__img_lli__image_long_long_integer+0x1c>
 8009c66:	bf00      	nop

08009c68 <system__parameters__adjust_storage_size>:
 8009c68:	f1b0 4f00 	cmp.w	r0, #2147483648	; 0x80000000
 8009c6c:	bf08      	it	eq
 8009c6e:	f44f 5080 	moveq.w	r0, #4096	; 0x1000
 8009c72:	4770      	bx	lr

08009c74 <system__secondary_stack__ss_init>:
 8009c74:	3908      	subs	r1, #8
 8009c76:	2301      	movs	r3, #1
 8009c78:	6041      	str	r1, [r0, #4]
 8009c7a:	6003      	str	r3, [r0, #0]
 8009c7c:	4770      	bx	lr
 8009c7e:	bf00      	nop

08009c80 <system__assertions__raise_assert_failure>:
 8009c80:	b508      	push	{r3, lr}
 8009c82:	2100      	movs	r1, #0
 8009c84:	f7f7 fc7a 	bl	800157c <__gnat_last_chance_handler>

08009c88 <_exit>:
 8009c88:	4b01      	ldr	r3, [pc, #4]	; (8009c90 <_exit+0x8>)
 8009c8a:	4a02      	ldr	r2, [pc, #8]	; (8009c94 <_exit+0xc>)
 8009c8c:	601a      	str	r2, [r3, #0]
 8009c8e:	e7fe      	b.n	8009c8e <_exit+0x6>
 8009c90:	e000ed0c 	.word	0xe000ed0c
 8009c94:	05fa0004 	.word	0x05fa0004

08009c98 <_ada_setup_pll>:
 8009c98:	b530      	push	{r4, r5, lr}
 8009c9a:	4c96      	ldr	r4, [pc, #600]	; (8009ef4 <_ada_setup_pll+0x25c>)
 8009c9c:	b085      	sub	sp, #20
 8009c9e:	6823      	ldr	r3, [r4, #0]
 8009ca0:	4d95      	ldr	r5, [pc, #596]	; (8009ef8 <_ada_setup_pll+0x260>)
 8009ca2:	f043 0301 	orr.w	r3, r3, #1
 8009ca6:	6023      	str	r3, [r4, #0]
 8009ca8:	9a01      	ldr	r2, [sp, #4]
 8009caa:	4994      	ldr	r1, [pc, #592]	; (8009efc <_ada_setup_pll+0x264>)
 8009cac:	f36f 0201 	bfc	r2, #0, #2
 8009cb0:	9201      	str	r2, [sp, #4]
 8009cb2:	9a01      	ldr	r2, [sp, #4]
 8009cb4:	4b92      	ldr	r3, [pc, #584]	; (8009f00 <_ada_setup_pll+0x268>)
 8009cb6:	f36f 0283 	bfc	r2, #2, #2
 8009cba:	9201      	str	r2, [sp, #4]
 8009cbc:	9a01      	ldr	r2, [sp, #4]
 8009cbe:	f36f 1207 	bfc	r2, #4, #4
 8009cc2:	9201      	str	r2, [sp, #4]
 8009cc4:	9a01      	ldr	r2, [sp, #4]
 8009cc6:	f36f 220d 	bfc	r2, #8, #6
 8009cca:	9201      	str	r2, [sp, #4]
 8009ccc:	9a01      	ldr	r2, [sp, #4]
 8009cce:	f36f 328f 	bfc	r2, #14, #2
 8009cd2:	9201      	str	r2, [sp, #4]
 8009cd4:	9a01      	ldr	r2, [sp, #4]
 8009cd6:	f36f 4210 	bfc	r2, #16, #1
 8009cda:	9201      	str	r2, [sp, #4]
 8009cdc:	9a01      	ldr	r2, [sp, #4]
 8009cde:	f36f 4251 	bfc	r2, #17, #1
 8009ce2:	9201      	str	r2, [sp, #4]
 8009ce4:	9a01      	ldr	r2, [sp, #4]
 8009ce6:	f36f 4295 	bfc	r2, #18, #4
 8009cea:	9201      	str	r2, [sp, #4]
 8009cec:	9a01      	ldr	r2, [sp, #4]
 8009cee:	f36f 5296 	bfc	r2, #22, #1
 8009cf2:	9201      	str	r2, [sp, #4]
 8009cf4:	9a01      	ldr	r2, [sp, #4]
 8009cf6:	f36f 52d7 	bfc	r2, #23, #1
 8009cfa:	9201      	str	r2, [sp, #4]
 8009cfc:	9a01      	ldr	r2, [sp, #4]
 8009cfe:	f36f 621a 	bfc	r2, #24, #3
 8009d02:	9201      	str	r2, [sp, #4]
 8009d04:	9a01      	ldr	r2, [sp, #4]
 8009d06:	f36f 62df 	bfc	r2, #27, #5
 8009d0a:	9201      	str	r2, [sp, #4]
 8009d0c:	9a01      	ldr	r2, [sp, #4]
 8009d0e:	602a      	str	r2, [r5, #0]
 8009d10:	6822      	ldr	r2, [r4, #0]
 8009d12:	f36f 4210 	bfc	r2, #16, #1
 8009d16:	6022      	str	r2, [r4, #0]
 8009d18:	6822      	ldr	r2, [r4, #0]
 8009d1a:	f36f 42d3 	bfc	r2, #19, #1
 8009d1e:	6022      	str	r2, [r4, #0]
 8009d20:	6822      	ldr	r2, [r4, #0]
 8009d22:	f36f 6218 	bfc	r2, #24, #1
 8009d26:	6022      	str	r2, [r4, #0]
 8009d28:	6822      	ldr	r2, [r4, #0]
 8009d2a:	f36f 4292 	bfc	r2, #18, #1
 8009d2e:	6022      	str	r2, [r4, #0]
 8009d30:	9a00      	ldr	r2, [sp, #0]
 8009d32:	f36f 0200 	bfc	r2, #0, #1
 8009d36:	9200      	str	r2, [sp, #0]
 8009d38:	9a00      	ldr	r2, [sp, #0]
 8009d3a:	f36f 0241 	bfc	r2, #1, #1
 8009d3e:	9200      	str	r2, [sp, #0]
 8009d40:	9a00      	ldr	r2, [sp, #0]
 8009d42:	f36f 0282 	bfc	r2, #2, #1
 8009d46:	9200      	str	r2, [sp, #0]
 8009d48:	9a00      	ldr	r2, [sp, #0]
 8009d4a:	f36f 02c3 	bfc	r2, #3, #1
 8009d4e:	9200      	str	r2, [sp, #0]
 8009d50:	9a00      	ldr	r2, [sp, #0]
 8009d52:	f36f 1204 	bfc	r2, #4, #1
 8009d56:	9200      	str	r2, [sp, #0]
 8009d58:	9a00      	ldr	r2, [sp, #0]
 8009d5a:	f36f 1246 	bfc	r2, #5, #2
 8009d5e:	9200      	str	r2, [sp, #0]
 8009d60:	9a00      	ldr	r2, [sp, #0]
 8009d62:	f36f 12c7 	bfc	r2, #7, #1
 8009d66:	9200      	str	r2, [sp, #0]
 8009d68:	9a00      	ldr	r2, [sp, #0]
 8009d6a:	f36f 2208 	bfc	r2, #8, #1
 8009d6e:	9200      	str	r2, [sp, #0]
 8009d70:	9a00      	ldr	r2, [sp, #0]
 8009d72:	f36f 2249 	bfc	r2, #9, #1
 8009d76:	9200      	str	r2, [sp, #0]
 8009d78:	9a00      	ldr	r2, [sp, #0]
 8009d7a:	f36f 228a 	bfc	r2, #10, #1
 8009d7e:	9200      	str	r2, [sp, #0]
 8009d80:	9a00      	ldr	r2, [sp, #0]
 8009d82:	f36f 22cb 	bfc	r2, #11, #1
 8009d86:	9200      	str	r2, [sp, #0]
 8009d88:	9a00      	ldr	r2, [sp, #0]
 8009d8a:	f36f 320c 	bfc	r2, #12, #1
 8009d8e:	9200      	str	r2, [sp, #0]
 8009d90:	9a00      	ldr	r2, [sp, #0]
 8009d92:	f36f 324f 	bfc	r2, #13, #3
 8009d96:	9200      	str	r2, [sp, #0]
 8009d98:	9a00      	ldr	r2, [sp, #0]
 8009d9a:	f36f 4210 	bfc	r2, #16, #1
 8009d9e:	9200      	str	r2, [sp, #0]
 8009da0:	9a00      	ldr	r2, [sp, #0]
 8009da2:	f36f 4251 	bfc	r2, #17, #1
 8009da6:	9200      	str	r2, [sp, #0]
 8009da8:	9a00      	ldr	r2, [sp, #0]
 8009daa:	f36f 4292 	bfc	r2, #18, #1
 8009dae:	9200      	str	r2, [sp, #0]
 8009db0:	9a00      	ldr	r2, [sp, #0]
 8009db2:	f36f 42d3 	bfc	r2, #19, #1
 8009db6:	9200      	str	r2, [sp, #0]
 8009db8:	9a00      	ldr	r2, [sp, #0]
 8009dba:	f36f 5214 	bfc	r2, #20, #1
 8009dbe:	9200      	str	r2, [sp, #0]
 8009dc0:	9a00      	ldr	r2, [sp, #0]
 8009dc2:	f36f 5256 	bfc	r2, #21, #2
 8009dc6:	9200      	str	r2, [sp, #0]
 8009dc8:	9a00      	ldr	r2, [sp, #0]
 8009dca:	f36f 52d7 	bfc	r2, #23, #1
 8009dce:	9200      	str	r2, [sp, #0]
 8009dd0:	9a00      	ldr	r2, [sp, #0]
 8009dd2:	f36f 621f 	bfc	r2, #24, #8
 8009dd6:	9200      	str	r2, [sp, #0]
 8009dd8:	9a00      	ldr	r2, [sp, #0]
 8009dda:	600a      	str	r2, [r1, #0]
 8009ddc:	681a      	ldr	r2, [r3, #0]
 8009dde:	f042 0220 	orr.w	r2, r2, #32
 8009de2:	601a      	str	r2, [r3, #0]
 8009de4:	681a      	ldr	r2, [r3, #0]
 8009de6:	f042 0201 	orr.w	r2, r2, #1
 8009dea:	601a      	str	r2, [r3, #0]
 8009dec:	f000 f88e 	bl	8009f0c <system__bb__mcu_parameters__pwr_initialize>
 8009df0:	6823      	ldr	r3, [r4, #0]
 8009df2:	f443 3380 	orr.w	r3, r3, #65536	; 0x10000
 8009df6:	6023      	str	r3, [r4, #0]
 8009df8:	6823      	ldr	r3, [r4, #0]
 8009dfa:	f36f 4392 	bfc	r3, #18, #1
 8009dfe:	6023      	str	r3, [r4, #0]
 8009e00:	6823      	ldr	r3, [r4, #0]
 8009e02:	039a      	lsls	r2, r3, #14
 8009e04:	d5fc      	bpl.n	8009e00 <_ada_setup_pll+0x168>
 8009e06:	6823      	ldr	r3, [r4, #0]
 8009e08:	2207      	movs	r2, #7
 8009e0a:	f36f 6318 	bfc	r3, #24, #1
 8009e0e:	6023      	str	r3, [r4, #0]
 8009e10:	682b      	ldr	r3, [r5, #0]
 8009e12:	f443 3380 	orr.w	r3, r3, #65536	; 0x10000
 8009e16:	602b      	str	r3, [r5, #0]
 8009e18:	682b      	ldr	r3, [r5, #0]
 8009e1a:	f362 4395 	bfi	r3, r2, #18, #4
 8009e1e:	602b      	str	r3, [r5, #0]
 8009e20:	6823      	ldr	r3, [r4, #0]
 8009e22:	f043 7380 	orr.w	r3, r3, #16777216	; 0x1000000
 8009e26:	6023      	str	r3, [r4, #0]
 8009e28:	6823      	ldr	r3, [r4, #0]
 8009e2a:	019b      	lsls	r3, r3, #6
 8009e2c:	d5fc      	bpl.n	8009e28 <_ada_setup_pll+0x190>
 8009e2e:	9b03      	ldr	r3, [sp, #12]
 8009e30:	2202      	movs	r2, #2
 8009e32:	f362 0302 	bfi	r3, r2, #0, #3
 8009e36:	9303      	str	r3, [sp, #12]
 8009e38:	9b03      	ldr	r3, [sp, #12]
 8009e3a:	4932      	ldr	r1, [pc, #200]	; (8009f04 <_ada_setup_pll+0x26c>)
 8009e3c:	f36f 03c3 	bfc	r3, #3, #1
 8009e40:	9303      	str	r3, [sp, #12]
 8009e42:	9b03      	ldr	r3, [sp, #12]
 8009e44:	f043 0310 	orr.w	r3, r3, #16
 8009e48:	9303      	str	r3, [sp, #12]
 8009e4a:	9b03      	ldr	r3, [sp, #12]
 8009e4c:	f043 0320 	orr.w	r3, r3, #32
 8009e50:	9303      	str	r3, [sp, #12]
 8009e52:	9b03      	ldr	r3, [sp, #12]
 8009e54:	f36f 139f 	bfc	r3, #6, #26
 8009e58:	9303      	str	r3, [sp, #12]
 8009e5a:	9b03      	ldr	r3, [sp, #12]
 8009e5c:	600b      	str	r3, [r1, #0]
 8009e5e:	9b02      	ldr	r3, [sp, #8]
 8009e60:	f362 0301 	bfi	r3, r2, #0, #2
 8009e64:	9302      	str	r3, [sp, #8]
 8009e66:	9b02      	ldr	r3, [sp, #8]
 8009e68:	f36f 0383 	bfc	r3, #2, #2
 8009e6c:	9302      	str	r3, [sp, #8]
 8009e6e:	9b02      	ldr	r3, [sp, #8]
 8009e70:	f36f 1307 	bfc	r3, #4, #4
 8009e74:	9302      	str	r3, [sp, #8]
 8009e76:	9b02      	ldr	r3, [sp, #8]
 8009e78:	f36f 230d 	bfc	r3, #8, #6
 8009e7c:	9302      	str	r3, [sp, #8]
 8009e7e:	9a02      	ldr	r2, [sp, #8]
 8009e80:	9b02      	ldr	r3, [sp, #8]
 8009e82:	f3c3 2305 	ubfx	r3, r3, #8, #6
 8009e86:	f023 0307 	bic.w	r3, r3, #7
 8009e8a:	f043 0304 	orr.w	r3, r3, #4
 8009e8e:	f363 220d 	bfi	r2, r3, #8, #6
 8009e92:	9202      	str	r2, [sp, #8]
 8009e94:	9b02      	ldr	r3, [sp, #8]
 8009e96:	9a02      	ldr	r2, [sp, #8]
 8009e98:	f3c2 2202 	ubfx	r2, r2, #8, #3
 8009e9c:	f362 230d 	bfi	r3, r2, #8, #6
 8009ea0:	9302      	str	r3, [sp, #8]
 8009ea2:	9b02      	ldr	r3, [sp, #8]
 8009ea4:	f36f 338f 	bfc	r3, #14, #2
 8009ea8:	9302      	str	r3, [sp, #8]
 8009eaa:	9b02      	ldr	r3, [sp, #8]
 8009eac:	f36f 4310 	bfc	r3, #16, #1
 8009eb0:	9302      	str	r3, [sp, #8]
 8009eb2:	9b02      	ldr	r3, [sp, #8]
 8009eb4:	f36f 4351 	bfc	r3, #17, #1
 8009eb8:	9302      	str	r3, [sp, #8]
 8009eba:	9b02      	ldr	r3, [sp, #8]
 8009ebc:	f36f 4395 	bfc	r3, #18, #4
 8009ec0:	9302      	str	r3, [sp, #8]
 8009ec2:	9b02      	ldr	r3, [sp, #8]
 8009ec4:	f36f 5396 	bfc	r3, #22, #1
 8009ec8:	9302      	str	r3, [sp, #8]
 8009eca:	9b02      	ldr	r3, [sp, #8]
 8009ecc:	f36f 53d7 	bfc	r3, #23, #1
 8009ed0:	9302      	str	r3, [sp, #8]
 8009ed2:	9b02      	ldr	r3, [sp, #8]
 8009ed4:	f36f 631a 	bfc	r3, #24, #3
 8009ed8:	9302      	str	r3, [sp, #8]
 8009eda:	9b02      	ldr	r3, [sp, #8]
 8009edc:	f36f 63df 	bfc	r3, #27, #5
 8009ee0:	9302      	str	r3, [sp, #8]
 8009ee2:	9b02      	ldr	r3, [sp, #8]
 8009ee4:	602b      	str	r3, [r5, #0]
 8009ee6:	682b      	ldr	r3, [r5, #0]
 8009ee8:	f003 030c 	and.w	r3, r3, #12
 8009eec:	2b08      	cmp	r3, #8
 8009eee:	d1fa      	bne.n	8009ee6 <_ada_setup_pll+0x24e>
 8009ef0:	b005      	add	sp, #20
 8009ef2:	bd30      	pop	{r4, r5, pc}
 8009ef4:	40021000 	.word	0x40021000
 8009ef8:	40021004 	.word	0x40021004
 8009efc:	40021008 	.word	0x40021008
 8009f00:	40021018 	.word	0x40021018
 8009f04:	40022000 	.word	0x40022000

08009f08 <system__text_io__initialize>:
 8009f08:	4770      	bx	lr
 8009f0a:	bf00      	nop

08009f0c <system__bb__mcu_parameters__pwr_initialize>:
 8009f0c:	4b03      	ldr	r3, [pc, #12]	; (8009f1c <system__bb__mcu_parameters__pwr_initialize+0x10>)
 8009f0e:	681a      	ldr	r2, [r3, #0]
 8009f10:	6813      	ldr	r3, [r2, #0]
 8009f12:	f443 4380 	orr.w	r3, r3, #16384	; 0x4000
 8009f16:	6013      	str	r3, [r2, #0]
 8009f18:	4770      	bx	lr
 8009f1a:	bf00      	nop
 8009f1c:	200000dc 	.word	0x200000dc

08009f20 <__aeabi_frsub>:
 8009f20:	f080 4000 	eor.w	r0, r0, #2147483648	; 0x80000000
 8009f24:	e002      	b.n	8009f2c <__addsf3>
 8009f26:	bf00      	nop

08009f28 <__aeabi_fsub>:
 8009f28:	f081 4100 	eor.w	r1, r1, #2147483648	; 0x80000000

08009f2c <__addsf3>:
 8009f2c:	0042      	lsls	r2, r0, #1
 8009f2e:	bf1f      	itttt	ne
 8009f30:	ea5f 0341 	movsne.w	r3, r1, lsl #1
 8009f34:	ea92 0f03 	teqne	r2, r3
 8009f38:	ea7f 6c22 	mvnsne.w	ip, r2, asr #24
 8009f3c:	ea7f 6c23 	mvnsne.w	ip, r3, asr #24
 8009f40:	d06a      	beq.n	800a018 <__addsf3+0xec>
 8009f42:	ea4f 6212 	mov.w	r2, r2, lsr #24
 8009f46:	ebd2 6313 	rsbs	r3, r2, r3, lsr #24
 8009f4a:	bfc1      	itttt	gt
 8009f4c:	18d2      	addgt	r2, r2, r3
 8009f4e:	4041      	eorgt	r1, r0
 8009f50:	4048      	eorgt	r0, r1
 8009f52:	4041      	eorgt	r1, r0
 8009f54:	bfb8      	it	lt
 8009f56:	425b      	neglt	r3, r3
 8009f58:	2b19      	cmp	r3, #25
 8009f5a:	bf88      	it	hi
 8009f5c:	4770      	bxhi	lr
 8009f5e:	f010 4f00 	tst.w	r0, #2147483648	; 0x80000000
 8009f62:	f440 0000 	orr.w	r0, r0, #8388608	; 0x800000
 8009f66:	f020 407f 	bic.w	r0, r0, #4278190080	; 0xff000000
 8009f6a:	bf18      	it	ne
 8009f6c:	4240      	negne	r0, r0
 8009f6e:	f011 4f00 	tst.w	r1, #2147483648	; 0x80000000
 8009f72:	f441 0100 	orr.w	r1, r1, #8388608	; 0x800000
 8009f76:	f021 417f 	bic.w	r1, r1, #4278190080	; 0xff000000
 8009f7a:	bf18      	it	ne
 8009f7c:	4249      	negne	r1, r1
 8009f7e:	ea92 0f03 	teq	r2, r3
 8009f82:	d03f      	beq.n	800a004 <__addsf3+0xd8>
 8009f84:	f1a2 0201 	sub.w	r2, r2, #1
 8009f88:	fa41 fc03 	asr.w	ip, r1, r3
 8009f8c:	eb10 000c 	adds.w	r0, r0, ip
 8009f90:	f1c3 0320 	rsb	r3, r3, #32
 8009f94:	fa01 f103 	lsl.w	r1, r1, r3
 8009f98:	f000 4300 	and.w	r3, r0, #2147483648	; 0x80000000
 8009f9c:	d502      	bpl.n	8009fa4 <__addsf3+0x78>
 8009f9e:	4249      	negs	r1, r1
 8009fa0:	eb60 0040 	sbc.w	r0, r0, r0, lsl #1
 8009fa4:	f5b0 0f00 	cmp.w	r0, #8388608	; 0x800000
 8009fa8:	d313      	bcc.n	8009fd2 <__addsf3+0xa6>
 8009faa:	f1b0 7f80 	cmp.w	r0, #16777216	; 0x1000000
 8009fae:	d306      	bcc.n	8009fbe <__addsf3+0x92>
 8009fb0:	0840      	lsrs	r0, r0, #1
 8009fb2:	ea4f 0131 	mov.w	r1, r1, rrx
 8009fb6:	f102 0201 	add.w	r2, r2, #1
 8009fba:	2afe      	cmp	r2, #254	; 0xfe
 8009fbc:	d251      	bcs.n	800a062 <__addsf3+0x136>
 8009fbe:	f1b1 4f00 	cmp.w	r1, #2147483648	; 0x80000000
 8009fc2:	eb40 50c2 	adc.w	r0, r0, r2, lsl #23
 8009fc6:	bf08      	it	eq
 8009fc8:	f020 0001 	biceq.w	r0, r0, #1
 8009fcc:	ea40 0003 	orr.w	r0, r0, r3
 8009fd0:	4770      	bx	lr
 8009fd2:	0049      	lsls	r1, r1, #1
 8009fd4:	eb40 0000 	adc.w	r0, r0, r0
 8009fd8:	f410 0f00 	tst.w	r0, #8388608	; 0x800000
 8009fdc:	f1a2 0201 	sub.w	r2, r2, #1
 8009fe0:	d1ed      	bne.n	8009fbe <__addsf3+0x92>
 8009fe2:	fab0 fc80 	clz	ip, r0
 8009fe6:	f1ac 0c08 	sub.w	ip, ip, #8
 8009fea:	ebb2 020c 	subs.w	r2, r2, ip
 8009fee:	fa00 f00c 	lsl.w	r0, r0, ip
 8009ff2:	bfaa      	itet	ge
 8009ff4:	eb00 50c2 	addge.w	r0, r0, r2, lsl #23
 8009ff8:	4252      	neglt	r2, r2
 8009ffa:	4318      	orrge	r0, r3
 8009ffc:	bfbc      	itt	lt
 8009ffe:	40d0      	lsrlt	r0, r2
 800a000:	4318      	orrlt	r0, r3
 800a002:	4770      	bx	lr
 800a004:	f092 0f00 	teq	r2, #0
 800a008:	f481 0100 	eor.w	r1, r1, #8388608	; 0x800000
 800a00c:	bf06      	itte	eq
 800a00e:	f480 0000 	eoreq.w	r0, r0, #8388608	; 0x800000
 800a012:	3201      	addeq	r2, #1
 800a014:	3b01      	subne	r3, #1
 800a016:	e7b5      	b.n	8009f84 <__addsf3+0x58>
 800a018:	ea4f 0341 	mov.w	r3, r1, lsl #1
 800a01c:	ea7f 6c22 	mvns.w	ip, r2, asr #24
 800a020:	bf18      	it	ne
 800a022:	ea7f 6c23 	mvnsne.w	ip, r3, asr #24
 800a026:	d021      	beq.n	800a06c <__addsf3+0x140>
 800a028:	ea92 0f03 	teq	r2, r3
 800a02c:	d004      	beq.n	800a038 <__addsf3+0x10c>
 800a02e:	f092 0f00 	teq	r2, #0
 800a032:	bf08      	it	eq
 800a034:	4608      	moveq	r0, r1
 800a036:	4770      	bx	lr
 800a038:	ea90 0f01 	teq	r0, r1
 800a03c:	bf1c      	itt	ne
 800a03e:	2000      	movne	r0, #0
 800a040:	4770      	bxne	lr
 800a042:	f012 4f7f 	tst.w	r2, #4278190080	; 0xff000000
 800a046:	d104      	bne.n	800a052 <__addsf3+0x126>
 800a048:	0040      	lsls	r0, r0, #1
 800a04a:	bf28      	it	cs
 800a04c:	f040 4000 	orrcs.w	r0, r0, #2147483648	; 0x80000000
 800a050:	4770      	bx	lr
 800a052:	f112 7200 	adds.w	r2, r2, #33554432	; 0x2000000
 800a056:	bf3c      	itt	cc
 800a058:	f500 0000 	addcc.w	r0, r0, #8388608	; 0x800000
 800a05c:	4770      	bxcc	lr
 800a05e:	f000 4300 	and.w	r3, r0, #2147483648	; 0x80000000
 800a062:	f043 40fe 	orr.w	r0, r3, #2130706432	; 0x7f000000
 800a066:	f440 0000 	orr.w	r0, r0, #8388608	; 0x800000
 800a06a:	4770      	bx	lr
 800a06c:	ea7f 6222 	mvns.w	r2, r2, asr #24
 800a070:	bf16      	itet	ne
 800a072:	4608      	movne	r0, r1
 800a074:	ea7f 6323 	mvnseq.w	r3, r3, asr #24
 800a078:	4601      	movne	r1, r0
 800a07a:	0242      	lsls	r2, r0, #9
 800a07c:	bf06      	itte	eq
 800a07e:	ea5f 2341 	movseq.w	r3, r1, lsl #9
 800a082:	ea90 0f01 	teqeq	r0, r1
 800a086:	f440 0080 	orrne.w	r0, r0, #4194304	; 0x400000
 800a08a:	4770      	bx	lr

0800a08c <__aeabi_ui2f>:
 800a08c:	f04f 0300 	mov.w	r3, #0
 800a090:	e004      	b.n	800a09c <__aeabi_i2f+0x8>
 800a092:	bf00      	nop

0800a094 <__aeabi_i2f>:
 800a094:	f010 4300 	ands.w	r3, r0, #2147483648	; 0x80000000
 800a098:	bf48      	it	mi
 800a09a:	4240      	negmi	r0, r0
 800a09c:	ea5f 0c00 	movs.w	ip, r0
 800a0a0:	bf08      	it	eq
 800a0a2:	4770      	bxeq	lr
 800a0a4:	f043 4396 	orr.w	r3, r3, #1258291200	; 0x4b000000
 800a0a8:	4601      	mov	r1, r0
 800a0aa:	f04f 0000 	mov.w	r0, #0
 800a0ae:	e01c      	b.n	800a0ea <__aeabi_l2f+0x2a>

0800a0b0 <__aeabi_ul2f>:
 800a0b0:	ea50 0201 	orrs.w	r2, r0, r1
 800a0b4:	bf08      	it	eq
 800a0b6:	4770      	bxeq	lr
 800a0b8:	f04f 0300 	mov.w	r3, #0
 800a0bc:	e00a      	b.n	800a0d4 <__aeabi_l2f+0x14>
 800a0be:	bf00      	nop

0800a0c0 <__aeabi_l2f>:
 800a0c0:	ea50 0201 	orrs.w	r2, r0, r1
 800a0c4:	bf08      	it	eq
 800a0c6:	4770      	bxeq	lr
 800a0c8:	f011 4300 	ands.w	r3, r1, #2147483648	; 0x80000000
 800a0cc:	d502      	bpl.n	800a0d4 <__aeabi_l2f+0x14>
 800a0ce:	4240      	negs	r0, r0
 800a0d0:	eb61 0141 	sbc.w	r1, r1, r1, lsl #1
 800a0d4:	ea5f 0c01 	movs.w	ip, r1
 800a0d8:	bf02      	ittt	eq
 800a0da:	4684      	moveq	ip, r0
 800a0dc:	4601      	moveq	r1, r0
 800a0de:	2000      	moveq	r0, #0
 800a0e0:	f043 43b6 	orr.w	r3, r3, #1526726656	; 0x5b000000
 800a0e4:	bf08      	it	eq
 800a0e6:	f1a3 5380 	subeq.w	r3, r3, #268435456	; 0x10000000
 800a0ea:	f5a3 0300 	sub.w	r3, r3, #8388608	; 0x800000
 800a0ee:	fabc f28c 	clz	r2, ip
 800a0f2:	3a08      	subs	r2, #8
 800a0f4:	eba3 53c2 	sub.w	r3, r3, r2, lsl #23
 800a0f8:	db10      	blt.n	800a11c <__aeabi_l2f+0x5c>
 800a0fa:	fa01 fc02 	lsl.w	ip, r1, r2
 800a0fe:	4463      	add	r3, ip
 800a100:	fa00 fc02 	lsl.w	ip, r0, r2
 800a104:	f1c2 0220 	rsb	r2, r2, #32
 800a108:	f1bc 4f00 	cmp.w	ip, #2147483648	; 0x80000000
 800a10c:	fa20 f202 	lsr.w	r2, r0, r2
 800a110:	eb43 0002 	adc.w	r0, r3, r2
 800a114:	bf08      	it	eq
 800a116:	f020 0001 	biceq.w	r0, r0, #1
 800a11a:	4770      	bx	lr
 800a11c:	f102 0220 	add.w	r2, r2, #32
 800a120:	fa01 fc02 	lsl.w	ip, r1, r2
 800a124:	f1c2 0220 	rsb	r2, r2, #32
 800a128:	ea50 004c 	orrs.w	r0, r0, ip, lsl #1
 800a12c:	fa21 f202 	lsr.w	r2, r1, r2
 800a130:	eb43 0002 	adc.w	r0, r3, r2
 800a134:	bf08      	it	eq
 800a136:	ea20 70dc 	biceq.w	r0, r0, ip, lsr #31
 800a13a:	4770      	bx	lr

0800a13c <__aeabi_fmul>:
 800a13c:	f04f 0cff 	mov.w	ip, #255	; 0xff
 800a140:	ea1c 52d0 	ands.w	r2, ip, r0, lsr #23
 800a144:	bf1e      	ittt	ne
 800a146:	ea1c 53d1 	andsne.w	r3, ip, r1, lsr #23
 800a14a:	ea92 0f0c 	teqne	r2, ip
 800a14e:	ea93 0f0c 	teqne	r3, ip
 800a152:	d06f      	beq.n	800a234 <__aeabi_fmul+0xf8>
 800a154:	441a      	add	r2, r3
 800a156:	ea80 0c01 	eor.w	ip, r0, r1
 800a15a:	0240      	lsls	r0, r0, #9
 800a15c:	bf18      	it	ne
 800a15e:	ea5f 2141 	movsne.w	r1, r1, lsl #9
 800a162:	d01e      	beq.n	800a1a2 <__aeabi_fmul+0x66>
 800a164:	f04f 6300 	mov.w	r3, #134217728	; 0x8000000
 800a168:	ea43 1050 	orr.w	r0, r3, r0, lsr #5
 800a16c:	ea43 1151 	orr.w	r1, r3, r1, lsr #5
 800a170:	fba0 3101 	umull	r3, r1, r0, r1
 800a174:	f00c 4000 	and.w	r0, ip, #2147483648	; 0x80000000
 800a178:	f5b1 0f00 	cmp.w	r1, #8388608	; 0x800000
 800a17c:	bf3e      	ittt	cc
 800a17e:	0049      	lslcc	r1, r1, #1
 800a180:	ea41 71d3 	orrcc.w	r1, r1, r3, lsr #31
 800a184:	005b      	lslcc	r3, r3, #1
 800a186:	ea40 0001 	orr.w	r0, r0, r1
 800a18a:	f162 027f 	sbc.w	r2, r2, #127	; 0x7f
 800a18e:	2afd      	cmp	r2, #253	; 0xfd
 800a190:	d81d      	bhi.n	800a1ce <__aeabi_fmul+0x92>
 800a192:	f1b3 4f00 	cmp.w	r3, #2147483648	; 0x80000000
 800a196:	eb40 50c2 	adc.w	r0, r0, r2, lsl #23
 800a19a:	bf08      	it	eq
 800a19c:	f020 0001 	biceq.w	r0, r0, #1
 800a1a0:	4770      	bx	lr
 800a1a2:	f090 0f00 	teq	r0, #0
 800a1a6:	f00c 4c00 	and.w	ip, ip, #2147483648	; 0x80000000
 800a1aa:	bf08      	it	eq
 800a1ac:	0249      	lsleq	r1, r1, #9
 800a1ae:	ea4c 2050 	orr.w	r0, ip, r0, lsr #9
 800a1b2:	ea40 2051 	orr.w	r0, r0, r1, lsr #9
 800a1b6:	3a7f      	subs	r2, #127	; 0x7f
 800a1b8:	bfc2      	ittt	gt
 800a1ba:	f1d2 03ff 	rsbsgt	r3, r2, #255	; 0xff
 800a1be:	ea40 50c2 	orrgt.w	r0, r0, r2, lsl #23
 800a1c2:	4770      	bxgt	lr
 800a1c4:	f440 0000 	orr.w	r0, r0, #8388608	; 0x800000
 800a1c8:	f04f 0300 	mov.w	r3, #0
 800a1cc:	3a01      	subs	r2, #1
 800a1ce:	dc5d      	bgt.n	800a28c <__aeabi_fmul+0x150>
 800a1d0:	f112 0f19 	cmn.w	r2, #25
 800a1d4:	bfdc      	itt	le
 800a1d6:	f000 4000 	andle.w	r0, r0, #2147483648	; 0x80000000
 800a1da:	4770      	bxle	lr
 800a1dc:	f1c2 0200 	rsb	r2, r2, #0
 800a1e0:	0041      	lsls	r1, r0, #1
 800a1e2:	fa21 f102 	lsr.w	r1, r1, r2
 800a1e6:	f1c2 0220 	rsb	r2, r2, #32
 800a1ea:	fa00 fc02 	lsl.w	ip, r0, r2
 800a1ee:	ea5f 0031 	movs.w	r0, r1, rrx
 800a1f2:	f140 0000 	adc.w	r0, r0, #0
 800a1f6:	ea53 034c 	orrs.w	r3, r3, ip, lsl #1
 800a1fa:	bf08      	it	eq
 800a1fc:	ea20 70dc 	biceq.w	r0, r0, ip, lsr #31
 800a200:	4770      	bx	lr
 800a202:	f092 0f00 	teq	r2, #0
 800a206:	f000 4c00 	and.w	ip, r0, #2147483648	; 0x80000000
 800a20a:	bf02      	ittt	eq
 800a20c:	0040      	lsleq	r0, r0, #1
 800a20e:	f410 0f00 	tsteq.w	r0, #8388608	; 0x800000
 800a212:	3a01      	subeq	r2, #1
 800a214:	d0f9      	beq.n	800a20a <__aeabi_fmul+0xce>
 800a216:	ea40 000c 	orr.w	r0, r0, ip
 800a21a:	f093 0f00 	teq	r3, #0
 800a21e:	f001 4c00 	and.w	ip, r1, #2147483648	; 0x80000000
 800a222:	bf02      	ittt	eq
 800a224:	0049      	lsleq	r1, r1, #1
 800a226:	f411 0f00 	tsteq.w	r1, #8388608	; 0x800000
 800a22a:	3b01      	subeq	r3, #1
 800a22c:	d0f9      	beq.n	800a222 <__aeabi_fmul+0xe6>
 800a22e:	ea41 010c 	orr.w	r1, r1, ip
 800a232:	e78f      	b.n	800a154 <__aeabi_fmul+0x18>
 800a234:	ea0c 53d1 	and.w	r3, ip, r1, lsr #23
 800a238:	ea92 0f0c 	teq	r2, ip
 800a23c:	bf18      	it	ne
 800a23e:	ea93 0f0c 	teqne	r3, ip
 800a242:	d00a      	beq.n	800a25a <__aeabi_fmul+0x11e>
 800a244:	f030 4c00 	bics.w	ip, r0, #2147483648	; 0x80000000
 800a248:	bf18      	it	ne
 800a24a:	f031 4c00 	bicsne.w	ip, r1, #2147483648	; 0x80000000
 800a24e:	d1d8      	bne.n	800a202 <__aeabi_fmul+0xc6>
 800a250:	ea80 0001 	eor.w	r0, r0, r1
 800a254:	f000 4000 	and.w	r0, r0, #2147483648	; 0x80000000
 800a258:	4770      	bx	lr
 800a25a:	f090 0f00 	teq	r0, #0
 800a25e:	bf17      	itett	ne
 800a260:	f090 4f00 	teqne	r0, #2147483648	; 0x80000000
 800a264:	4608      	moveq	r0, r1
 800a266:	f091 0f00 	teqne	r1, #0
 800a26a:	f091 4f00 	teqne	r1, #2147483648	; 0x80000000
 800a26e:	d014      	beq.n	800a29a <__aeabi_fmul+0x15e>
 800a270:	ea92 0f0c 	teq	r2, ip
 800a274:	d101      	bne.n	800a27a <__aeabi_fmul+0x13e>
 800a276:	0242      	lsls	r2, r0, #9
 800a278:	d10f      	bne.n	800a29a <__aeabi_fmul+0x15e>
 800a27a:	ea93 0f0c 	teq	r3, ip
 800a27e:	d103      	bne.n	800a288 <__aeabi_fmul+0x14c>
 800a280:	024b      	lsls	r3, r1, #9
 800a282:	bf18      	it	ne
 800a284:	4608      	movne	r0, r1
 800a286:	d108      	bne.n	800a29a <__aeabi_fmul+0x15e>
 800a288:	ea80 0001 	eor.w	r0, r0, r1
 800a28c:	f000 4000 	and.w	r0, r0, #2147483648	; 0x80000000
 800a290:	f040 40fe 	orr.w	r0, r0, #2130706432	; 0x7f000000
 800a294:	f440 0000 	orr.w	r0, r0, #8388608	; 0x800000
 800a298:	4770      	bx	lr
 800a29a:	f040 40fe 	orr.w	r0, r0, #2130706432	; 0x7f000000
 800a29e:	f440 0040 	orr.w	r0, r0, #12582912	; 0xc00000
 800a2a2:	4770      	bx	lr

0800a2a4 <__aeabi_fdiv>:
 800a2a4:	f04f 0cff 	mov.w	ip, #255	; 0xff
 800a2a8:	ea1c 52d0 	ands.w	r2, ip, r0, lsr #23
 800a2ac:	bf1e      	ittt	ne
 800a2ae:	ea1c 53d1 	andsne.w	r3, ip, r1, lsr #23
 800a2b2:	ea92 0f0c 	teqne	r2, ip
 800a2b6:	ea93 0f0c 	teqne	r3, ip
 800a2ba:	d069      	beq.n	800a390 <__aeabi_fdiv+0xec>
 800a2bc:	eba2 0203 	sub.w	r2, r2, r3
 800a2c0:	ea80 0c01 	eor.w	ip, r0, r1
 800a2c4:	0249      	lsls	r1, r1, #9
 800a2c6:	ea4f 2040 	mov.w	r0, r0, lsl #9
 800a2ca:	d037      	beq.n	800a33c <__aeabi_fdiv+0x98>
 800a2cc:	f04f 5380 	mov.w	r3, #268435456	; 0x10000000
 800a2d0:	ea43 1111 	orr.w	r1, r3, r1, lsr #4
 800a2d4:	ea43 1310 	orr.w	r3, r3, r0, lsr #4
 800a2d8:	f00c 4000 	and.w	r0, ip, #2147483648	; 0x80000000
 800a2dc:	428b      	cmp	r3, r1
 800a2de:	bf38      	it	cc
 800a2e0:	005b      	lslcc	r3, r3, #1
 800a2e2:	f142 027d 	adc.w	r2, r2, #125	; 0x7d
 800a2e6:	f44f 0c00 	mov.w	ip, #8388608	; 0x800000
 800a2ea:	428b      	cmp	r3, r1
 800a2ec:	bf24      	itt	cs
 800a2ee:	1a5b      	subcs	r3, r3, r1
 800a2f0:	ea40 000c 	orrcs.w	r0, r0, ip
 800a2f4:	ebb3 0f51 	cmp.w	r3, r1, lsr #1
 800a2f8:	bf24      	itt	cs
 800a2fa:	eba3 0351 	subcs.w	r3, r3, r1, lsr #1
 800a2fe:	ea40 005c 	orrcs.w	r0, r0, ip, lsr #1
 800a302:	ebb3 0f91 	cmp.w	r3, r1, lsr #2
 800a306:	bf24      	itt	cs
 800a308:	eba3 0391 	subcs.w	r3, r3, r1, lsr #2
 800a30c:	ea40 009c 	orrcs.w	r0, r0, ip, lsr #2
 800a310:	ebb3 0fd1 	cmp.w	r3, r1, lsr #3
 800a314:	bf24      	itt	cs
 800a316:	eba3 03d1 	subcs.w	r3, r3, r1, lsr #3
 800a31a:	ea40 00dc 	orrcs.w	r0, r0, ip, lsr #3
 800a31e:	011b      	lsls	r3, r3, #4
 800a320:	bf18      	it	ne
 800a322:	ea5f 1c1c 	movsne.w	ip, ip, lsr #4
 800a326:	d1e0      	bne.n	800a2ea <__aeabi_fdiv+0x46>
 800a328:	2afd      	cmp	r2, #253	; 0xfd
 800a32a:	f63f af50 	bhi.w	800a1ce <__aeabi_fmul+0x92>
 800a32e:	428b      	cmp	r3, r1
 800a330:	eb40 50c2 	adc.w	r0, r0, r2, lsl #23
 800a334:	bf08      	it	eq
 800a336:	f020 0001 	biceq.w	r0, r0, #1
 800a33a:	4770      	bx	lr
 800a33c:	f00c 4c00 	and.w	ip, ip, #2147483648	; 0x80000000
 800a340:	ea4c 2050 	orr.w	r0, ip, r0, lsr #9
 800a344:	327f      	adds	r2, #127	; 0x7f
 800a346:	bfc2      	ittt	gt
 800a348:	f1d2 03ff 	rsbsgt	r3, r2, #255	; 0xff
 800a34c:	ea40 50c2 	orrgt.w	r0, r0, r2, lsl #23
 800a350:	4770      	bxgt	lr
 800a352:	f440 0000 	orr.w	r0, r0, #8388608	; 0x800000
 800a356:	f04f 0300 	mov.w	r3, #0
 800a35a:	3a01      	subs	r2, #1
 800a35c:	e737      	b.n	800a1ce <__aeabi_fmul+0x92>
 800a35e:	f092 0f00 	teq	r2, #0
 800a362:	f000 4c00 	and.w	ip, r0, #2147483648	; 0x80000000
 800a366:	bf02      	ittt	eq
 800a368:	0040      	lsleq	r0, r0, #1
 800a36a:	f410 0f00 	tsteq.w	r0, #8388608	; 0x800000
 800a36e:	3a01      	subeq	r2, #1
 800a370:	d0f9      	beq.n	800a366 <__aeabi_fdiv+0xc2>
 800a372:	ea40 000c 	orr.w	r0, r0, ip
 800a376:	f093 0f00 	teq	r3, #0
 800a37a:	f001 4c00 	and.w	ip, r1, #2147483648	; 0x80000000
 800a37e:	bf02      	ittt	eq
 800a380:	0049      	lsleq	r1, r1, #1
 800a382:	f411 0f00 	tsteq.w	r1, #8388608	; 0x800000
 800a386:	3b01      	subeq	r3, #1
 800a388:	d0f9      	beq.n	800a37e <__aeabi_fdiv+0xda>
 800a38a:	ea41 010c 	orr.w	r1, r1, ip
 800a38e:	e795      	b.n	800a2bc <__aeabi_fdiv+0x18>
 800a390:	ea0c 53d1 	and.w	r3, ip, r1, lsr #23
 800a394:	ea92 0f0c 	teq	r2, ip
 800a398:	d108      	bne.n	800a3ac <__aeabi_fdiv+0x108>
 800a39a:	0242      	lsls	r2, r0, #9
 800a39c:	f47f af7d 	bne.w	800a29a <__aeabi_fmul+0x15e>
 800a3a0:	ea93 0f0c 	teq	r3, ip
 800a3a4:	f47f af70 	bne.w	800a288 <__aeabi_fmul+0x14c>
 800a3a8:	4608      	mov	r0, r1
 800a3aa:	e776      	b.n	800a29a <__aeabi_fmul+0x15e>
 800a3ac:	ea93 0f0c 	teq	r3, ip
 800a3b0:	d104      	bne.n	800a3bc <__aeabi_fdiv+0x118>
 800a3b2:	024b      	lsls	r3, r1, #9
 800a3b4:	f43f af4c 	beq.w	800a250 <__aeabi_fmul+0x114>
 800a3b8:	4608      	mov	r0, r1
 800a3ba:	e76e      	b.n	800a29a <__aeabi_fmul+0x15e>
 800a3bc:	f030 4c00 	bics.w	ip, r0, #2147483648	; 0x80000000
 800a3c0:	bf18      	it	ne
 800a3c2:	f031 4c00 	bicsne.w	ip, r1, #2147483648	; 0x80000000
 800a3c6:	d1ca      	bne.n	800a35e <__aeabi_fdiv+0xba>
 800a3c8:	f030 4200 	bics.w	r2, r0, #2147483648	; 0x80000000
 800a3cc:	f47f af5c 	bne.w	800a288 <__aeabi_fmul+0x14c>
 800a3d0:	f031 4300 	bics.w	r3, r1, #2147483648	; 0x80000000
 800a3d4:	f47f af3c 	bne.w	800a250 <__aeabi_fmul+0x114>
 800a3d8:	e75f      	b.n	800a29a <__aeabi_fmul+0x15e>
 800a3da:	bf00      	nop

0800a3dc <__aeabi_ldivmod>:
 800a3dc:	b97b      	cbnz	r3, 800a3fe <__aeabi_ldivmod+0x22>
 800a3de:	b972      	cbnz	r2, 800a3fe <__aeabi_ldivmod+0x22>
 800a3e0:	2900      	cmp	r1, #0
 800a3e2:	bfbe      	ittt	lt
 800a3e4:	2000      	movlt	r0, #0
 800a3e6:	f04f 4100 	movlt.w	r1, #2147483648	; 0x80000000
 800a3ea:	e006      	blt.n	800a3fa <__aeabi_ldivmod+0x1e>
 800a3ec:	bf08      	it	eq
 800a3ee:	2800      	cmpeq	r0, #0
 800a3f0:	bf1c      	itt	ne
 800a3f2:	f06f 4100 	mvnne.w	r1, #2147483648	; 0x80000000
 800a3f6:	f04f 30ff 	movne.w	r0, #4294967295
 800a3fa:	f000 b83b 	b.w	800a474 <__aeabi_idiv0>
 800a3fe:	b082      	sub	sp, #8
 800a400:	46ec      	mov	ip, sp
 800a402:	e92d 5000 	stmdb	sp!, {ip, lr}
 800a406:	f000 f805 	bl	800a414 <__gnu_ldivmod_helper>
 800a40a:	f8dd e004 	ldr.w	lr, [sp, #4]
 800a40e:	b002      	add	sp, #8
 800a410:	bc0c      	pop	{r2, r3}
 800a412:	4770      	bx	lr

0800a414 <__gnu_ldivmod_helper>:
 800a414:	e92d 41f0 	stmdb	sp!, {r4, r5, r6, r7, r8, lr}
 800a418:	9c06      	ldr	r4, [sp, #24]
 800a41a:	4690      	mov	r8, r2
 800a41c:	4606      	mov	r6, r0
 800a41e:	460f      	mov	r7, r1
 800a420:	461d      	mov	r5, r3
 800a422:	f000 f829 	bl	800a478 <__divdi3>
 800a426:	fb08 fc01 	mul.w	ip, r8, r1
 800a42a:	fba8 2300 	umull	r2, r3, r8, r0
 800a42e:	fb00 c505 	mla	r5, r0, r5, ip
 800a432:	1ab2      	subs	r2, r6, r2
 800a434:	442b      	add	r3, r5
 800a436:	eb67 0303 	sbc.w	r3, r7, r3
 800a43a:	4686      	mov	lr, r0
 800a43c:	e9c4 2300 	strd	r2, r3, [r4]
 800a440:	e8bd 81f0 	ldmia.w	sp!, {r4, r5, r6, r7, r8, pc}

0800a444 <__gnu_uldivmod_helper>:
 800a444:	e92d 43f8 	stmdb	sp!, {r3, r4, r5, r6, r7, r8, r9, lr}
 800a448:	9e08      	ldr	r6, [sp, #32]
 800a44a:	4617      	mov	r7, r2
 800a44c:	4680      	mov	r8, r0
 800a44e:	4689      	mov	r9, r1
 800a450:	461d      	mov	r5, r3
 800a452:	f000 f967 	bl	800a724 <__udivdi3>
 800a456:	fb00 f305 	mul.w	r3, r0, r5
 800a45a:	fba0 4507 	umull	r4, r5, r0, r7
 800a45e:	fb07 3701 	mla	r7, r7, r1, r3
 800a462:	ebb8 0404 	subs.w	r4, r8, r4
 800a466:	443d      	add	r5, r7
 800a468:	eb69 0505 	sbc.w	r5, r9, r5
 800a46c:	e9c6 4500 	strd	r4, r5, [r6]
 800a470:	e8bd 83f8 	ldmia.w	sp!, {r3, r4, r5, r6, r7, r8, r9, pc}

0800a474 <__aeabi_idiv0>:
 800a474:	4770      	bx	lr
 800a476:	bf00      	nop

0800a478 <__divdi3>:
 800a478:	2900      	cmp	r1, #0
 800a47a:	e92d 43f0 	stmdb	sp!, {r4, r5, r6, r7, r8, r9, lr}
 800a47e:	f2c0 80a7 	blt.w	800a5d0 <__divdi3+0x158>
 800a482:	2600      	movs	r6, #0
 800a484:	2b00      	cmp	r3, #0
 800a486:	f2c0 809d 	blt.w	800a5c4 <__divdi3+0x14c>
 800a48a:	4681      	mov	r9, r0
 800a48c:	468e      	mov	lr, r1
 800a48e:	4690      	mov	r8, r2
 800a490:	469c      	mov	ip, r3
 800a492:	4617      	mov	r7, r2
 800a494:	4604      	mov	r4, r0
 800a496:	460d      	mov	r5, r1
 800a498:	2b00      	cmp	r3, #0
 800a49a:	d13d      	bne.n	800a518 <__divdi3+0xa0>
 800a49c:	428a      	cmp	r2, r1
 800a49e:	d959      	bls.n	800a554 <__divdi3+0xdc>
 800a4a0:	fab2 f382 	clz	r3, r2
 800a4a4:	b13b      	cbz	r3, 800a4b6 <__divdi3+0x3e>
 800a4a6:	f1c3 0220 	rsb	r2, r3, #32
 800a4aa:	409d      	lsls	r5, r3
 800a4ac:	fa20 f202 	lsr.w	r2, r0, r2
 800a4b0:	409f      	lsls	r7, r3
 800a4b2:	4315      	orrs	r5, r2
 800a4b4:	409c      	lsls	r4, r3
 800a4b6:	0c39      	lsrs	r1, r7, #16
 800a4b8:	fbb5 f0f1 	udiv	r0, r5, r1
 800a4bc:	fa1f fe87 	uxth.w	lr, r7
 800a4c0:	fb01 5510 	mls	r5, r1, r0, r5
 800a4c4:	fb0e f300 	mul.w	r3, lr, r0
 800a4c8:	0c22      	lsrs	r2, r4, #16
 800a4ca:	ea42 4505 	orr.w	r5, r2, r5, lsl #16
 800a4ce:	42ab      	cmp	r3, r5
 800a4d0:	d909      	bls.n	800a4e6 <__divdi3+0x6e>
 800a4d2:	19ed      	adds	r5, r5, r7
 800a4d4:	f100 32ff 	add.w	r2, r0, #4294967295
 800a4d8:	f080 810b 	bcs.w	800a6f2 <__divdi3+0x27a>
 800a4dc:	42ab      	cmp	r3, r5
 800a4de:	f240 8108 	bls.w	800a6f2 <__divdi3+0x27a>
 800a4e2:	3802      	subs	r0, #2
 800a4e4:	443d      	add	r5, r7
 800a4e6:	1aed      	subs	r5, r5, r3
 800a4e8:	fbb5 f3f1 	udiv	r3, r5, r1
 800a4ec:	fb01 5513 	mls	r5, r1, r3, r5
 800a4f0:	fb0e fe03 	mul.w	lr, lr, r3
 800a4f4:	b2a4      	uxth	r4, r4
 800a4f6:	ea44 4505 	orr.w	r5, r4, r5, lsl #16
 800a4fa:	45ae      	cmp	lr, r5
 800a4fc:	d908      	bls.n	800a510 <__divdi3+0x98>
 800a4fe:	19ed      	adds	r5, r5, r7
 800a500:	f103 32ff 	add.w	r2, r3, #4294967295
 800a504:	f080 80f7 	bcs.w	800a6f6 <__divdi3+0x27e>
 800a508:	45ae      	cmp	lr, r5
 800a50a:	f240 80f4 	bls.w	800a6f6 <__divdi3+0x27e>
 800a50e:	3b02      	subs	r3, #2
 800a510:	ea43 4300 	orr.w	r3, r3, r0, lsl #16
 800a514:	2200      	movs	r2, #0
 800a516:	e003      	b.n	800a520 <__divdi3+0xa8>
 800a518:	428b      	cmp	r3, r1
 800a51a:	d90f      	bls.n	800a53c <__divdi3+0xc4>
 800a51c:	2200      	movs	r2, #0
 800a51e:	4613      	mov	r3, r2
 800a520:	1c34      	adds	r4, r6, #0
 800a522:	bf18      	it	ne
 800a524:	2401      	movne	r4, #1
 800a526:	4260      	negs	r0, r4
 800a528:	f04f 0500 	mov.w	r5, #0
 800a52c:	eb65 0145 	sbc.w	r1, r5, r5, lsl #1
 800a530:	4058      	eors	r0, r3
 800a532:	4051      	eors	r1, r2
 800a534:	1900      	adds	r0, r0, r4
 800a536:	4169      	adcs	r1, r5
 800a538:	e8bd 83f0 	ldmia.w	sp!, {r4, r5, r6, r7, r8, r9, pc}
 800a53c:	fab3 f283 	clz	r2, r3
 800a540:	2a00      	cmp	r2, #0
 800a542:	f040 8089 	bne.w	800a658 <__divdi3+0x1e0>
 800a546:	428b      	cmp	r3, r1
 800a548:	d302      	bcc.n	800a550 <__divdi3+0xd8>
 800a54a:	4580      	cmp	r8, r0
 800a54c:	f200 80de 	bhi.w	800a70c <__divdi3+0x294>
 800a550:	2301      	movs	r3, #1
 800a552:	e7e5      	b.n	800a520 <__divdi3+0xa8>
 800a554:	b912      	cbnz	r2, 800a55c <__divdi3+0xe4>
 800a556:	2301      	movs	r3, #1
 800a558:	fbb3 f7f2 	udiv	r7, r3, r2
 800a55c:	fab7 f887 	clz	r8, r7
 800a560:	f1b8 0f00 	cmp.w	r8, #0
 800a564:	d13a      	bne.n	800a5dc <__divdi3+0x164>
 800a566:	1bed      	subs	r5, r5, r7
 800a568:	b2b8      	uxth	r0, r7
 800a56a:	0c39      	lsrs	r1, r7, #16
 800a56c:	2201      	movs	r2, #1
 800a56e:	fbb5 fcf1 	udiv	ip, r5, r1
 800a572:	fb01 551c 	mls	r5, r1, ip, r5
 800a576:	fb00 f30c 	mul.w	r3, r0, ip
 800a57a:	ea4f 4e14 	mov.w	lr, r4, lsr #16
 800a57e:	ea4e 4505 	orr.w	r5, lr, r5, lsl #16
 800a582:	42ab      	cmp	r3, r5
 800a584:	d907      	bls.n	800a596 <__divdi3+0x11e>
 800a586:	19ed      	adds	r5, r5, r7
 800a588:	f10c 3eff 	add.w	lr, ip, #4294967295
 800a58c:	d202      	bcs.n	800a594 <__divdi3+0x11c>
 800a58e:	42ab      	cmp	r3, r5
 800a590:	f200 80c2 	bhi.w	800a718 <__divdi3+0x2a0>
 800a594:	46f4      	mov	ip, lr
 800a596:	1aed      	subs	r5, r5, r3
 800a598:	fbb5 f3f1 	udiv	r3, r5, r1
 800a59c:	fb01 5513 	mls	r5, r1, r3, r5
 800a5a0:	fb00 f003 	mul.w	r0, r0, r3
 800a5a4:	b2a4      	uxth	r4, r4
 800a5a6:	ea44 4505 	orr.w	r5, r4, r5, lsl #16
 800a5aa:	42a8      	cmp	r0, r5
 800a5ac:	d907      	bls.n	800a5be <__divdi3+0x146>
 800a5ae:	19ed      	adds	r5, r5, r7
 800a5b0:	f103 31ff 	add.w	r1, r3, #4294967295
 800a5b4:	d202      	bcs.n	800a5bc <__divdi3+0x144>
 800a5b6:	42a8      	cmp	r0, r5
 800a5b8:	f200 80b2 	bhi.w	800a720 <__divdi3+0x2a8>
 800a5bc:	460b      	mov	r3, r1
 800a5be:	ea43 430c 	orr.w	r3, r3, ip, lsl #16
 800a5c2:	e7ad      	b.n	800a520 <__divdi3+0xa8>
 800a5c4:	4252      	negs	r2, r2
 800a5c6:	ea6f 0606 	mvn.w	r6, r6
 800a5ca:	eb63 0343 	sbc.w	r3, r3, r3, lsl #1
 800a5ce:	e75c      	b.n	800a48a <__divdi3+0x12>
 800a5d0:	4240      	negs	r0, r0
 800a5d2:	eb61 0141 	sbc.w	r1, r1, r1, lsl #1
 800a5d6:	f04f 36ff 	mov.w	r6, #4294967295
 800a5da:	e753      	b.n	800a484 <__divdi3+0xc>
 800a5dc:	fa07 f708 	lsl.w	r7, r7, r8
 800a5e0:	f1c8 0220 	rsb	r2, r8, #32
 800a5e4:	fa25 f302 	lsr.w	r3, r5, r2
 800a5e8:	0c39      	lsrs	r1, r7, #16
 800a5ea:	fbb3 fef1 	udiv	lr, r3, r1
 800a5ee:	b2b8      	uxth	r0, r7
 800a5f0:	fb01 331e 	mls	r3, r1, lr, r3
 800a5f4:	fa24 f202 	lsr.w	r2, r4, r2
 800a5f8:	fa05 f508 	lsl.w	r5, r5, r8
 800a5fc:	fb00 f90e 	mul.w	r9, r0, lr
 800a600:	432a      	orrs	r2, r5
 800a602:	ea4f 4c12 	mov.w	ip, r2, lsr #16
 800a606:	ea4c 4303 	orr.w	r3, ip, r3, lsl #16
 800a60a:	4599      	cmp	r9, r3
 800a60c:	fa04 f408 	lsl.w	r4, r4, r8
 800a610:	d908      	bls.n	800a624 <__divdi3+0x1ac>
 800a612:	19db      	adds	r3, r3, r7
 800a614:	f10e 35ff 	add.w	r5, lr, #4294967295
 800a618:	d27c      	bcs.n	800a714 <__divdi3+0x29c>
 800a61a:	4599      	cmp	r9, r3
 800a61c:	d97a      	bls.n	800a714 <__divdi3+0x29c>
 800a61e:	f1ae 0e02 	sub.w	lr, lr, #2
 800a622:	443b      	add	r3, r7
 800a624:	ebc9 0303 	rsb	r3, r9, r3
 800a628:	fbb3 fcf1 	udiv	ip, r3, r1
 800a62c:	fb01 331c 	mls	r3, r1, ip, r3
 800a630:	fb00 f50c 	mul.w	r5, r0, ip
 800a634:	b292      	uxth	r2, r2
 800a636:	ea42 4303 	orr.w	r3, r2, r3, lsl #16
 800a63a:	429d      	cmp	r5, r3
 800a63c:	d908      	bls.n	800a650 <__divdi3+0x1d8>
 800a63e:	19db      	adds	r3, r3, r7
 800a640:	f10c 32ff 	add.w	r2, ip, #4294967295
 800a644:	d25e      	bcs.n	800a704 <__divdi3+0x28c>
 800a646:	429d      	cmp	r5, r3
 800a648:	d95c      	bls.n	800a704 <__divdi3+0x28c>
 800a64a:	f1ac 0c02 	sub.w	ip, ip, #2
 800a64e:	443b      	add	r3, r7
 800a650:	1b5d      	subs	r5, r3, r5
 800a652:	ea4c 420e 	orr.w	r2, ip, lr, lsl #16
 800a656:	e78a      	b.n	800a56e <__divdi3+0xf6>
 800a658:	f1c2 0320 	rsb	r3, r2, #32
 800a65c:	fa28 f103 	lsr.w	r1, r8, r3
 800a660:	fa0c fc02 	lsl.w	ip, ip, r2
 800a664:	ea41 0c0c 	orr.w	ip, r1, ip
 800a668:	ea4f 401c 	mov.w	r0, ip, lsr #16
 800a66c:	fa2e f103 	lsr.w	r1, lr, r3
 800a670:	fbb1 f5f0 	udiv	r5, r1, r0
 800a674:	fa1f f78c 	uxth.w	r7, ip
 800a678:	fb00 1115 	mls	r1, r0, r5, r1
 800a67c:	fa29 f303 	lsr.w	r3, r9, r3
 800a680:	fa0e fe02 	lsl.w	lr, lr, r2
 800a684:	fb07 f905 	mul.w	r9, r7, r5
 800a688:	ea43 0e0e 	orr.w	lr, r3, lr
 800a68c:	ea4f 431e 	mov.w	r3, lr, lsr #16
 800a690:	ea43 4101 	orr.w	r1, r3, r1, lsl #16
 800a694:	4589      	cmp	r9, r1
 800a696:	fa08 f802 	lsl.w	r8, r8, r2
 800a69a:	d908      	bls.n	800a6ae <__divdi3+0x236>
 800a69c:	eb11 010c 	adds.w	r1, r1, ip
 800a6a0:	f105 33ff 	add.w	r3, r5, #4294967295
 800a6a4:	d234      	bcs.n	800a710 <__divdi3+0x298>
 800a6a6:	4589      	cmp	r9, r1
 800a6a8:	d932      	bls.n	800a710 <__divdi3+0x298>
 800a6aa:	3d02      	subs	r5, #2
 800a6ac:	4461      	add	r1, ip
 800a6ae:	ebc9 0101 	rsb	r1, r9, r1
 800a6b2:	fbb1 f3f0 	udiv	r3, r1, r0
 800a6b6:	fb00 1113 	mls	r1, r0, r3, r1
 800a6ba:	fb07 f703 	mul.w	r7, r7, r3
 800a6be:	fa1f fe8e 	uxth.w	lr, lr
 800a6c2:	ea4e 4e01 	orr.w	lr, lr, r1, lsl #16
 800a6c6:	4577      	cmp	r7, lr
 800a6c8:	d908      	bls.n	800a6dc <__divdi3+0x264>
 800a6ca:	eb1e 0e0c 	adds.w	lr, lr, ip
 800a6ce:	f103 31ff 	add.w	r1, r3, #4294967295
 800a6d2:	d219      	bcs.n	800a708 <__divdi3+0x290>
 800a6d4:	4577      	cmp	r7, lr
 800a6d6:	d917      	bls.n	800a708 <__divdi3+0x290>
 800a6d8:	3b02      	subs	r3, #2
 800a6da:	44e6      	add	lr, ip
 800a6dc:	ea43 4305 	orr.w	r3, r3, r5, lsl #16
 800a6e0:	fba3 8908 	umull	r8, r9, r3, r8
 800a6e4:	ebc7 0e0e 	rsb	lr, r7, lr
 800a6e8:	45ce      	cmp	lr, r9
 800a6ea:	d309      	bcc.n	800a700 <__divdi3+0x288>
 800a6ec:	d005      	beq.n	800a6fa <__divdi3+0x282>
 800a6ee:	2200      	movs	r2, #0
 800a6f0:	e716      	b.n	800a520 <__divdi3+0xa8>
 800a6f2:	4610      	mov	r0, r2
 800a6f4:	e6f7      	b.n	800a4e6 <__divdi3+0x6e>
 800a6f6:	4613      	mov	r3, r2
 800a6f8:	e70a      	b.n	800a510 <__divdi3+0x98>
 800a6fa:	4094      	lsls	r4, r2
 800a6fc:	4544      	cmp	r4, r8
 800a6fe:	d2f6      	bcs.n	800a6ee <__divdi3+0x276>
 800a700:	3b01      	subs	r3, #1
 800a702:	e7f4      	b.n	800a6ee <__divdi3+0x276>
 800a704:	4694      	mov	ip, r2
 800a706:	e7a3      	b.n	800a650 <__divdi3+0x1d8>
 800a708:	460b      	mov	r3, r1
 800a70a:	e7e7      	b.n	800a6dc <__divdi3+0x264>
 800a70c:	4613      	mov	r3, r2
 800a70e:	e707      	b.n	800a520 <__divdi3+0xa8>
 800a710:	461d      	mov	r5, r3
 800a712:	e7cc      	b.n	800a6ae <__divdi3+0x236>
 800a714:	46ae      	mov	lr, r5
 800a716:	e785      	b.n	800a624 <__divdi3+0x1ac>
 800a718:	f1ac 0c02 	sub.w	ip, ip, #2
 800a71c:	443d      	add	r5, r7
 800a71e:	e73a      	b.n	800a596 <__divdi3+0x11e>
 800a720:	3b02      	subs	r3, #2
 800a722:	e74c      	b.n	800a5be <__divdi3+0x146>

0800a724 <__udivdi3>:
 800a724:	e92d 43f0 	stmdb	sp!, {r4, r5, r6, r7, r8, r9, lr}
 800a728:	2b00      	cmp	r3, #0
 800a72a:	d144      	bne.n	800a7b6 <__udivdi3+0x92>
 800a72c:	428a      	cmp	r2, r1
 800a72e:	4615      	mov	r5, r2
 800a730:	4604      	mov	r4, r0
 800a732:	d94f      	bls.n	800a7d4 <__udivdi3+0xb0>
 800a734:	fab2 f782 	clz	r7, r2
 800a738:	460e      	mov	r6, r1
 800a73a:	b14f      	cbz	r7, 800a750 <__udivdi3+0x2c>
 800a73c:	f1c7 0320 	rsb	r3, r7, #32
 800a740:	40b9      	lsls	r1, r7
 800a742:	fa20 f603 	lsr.w	r6, r0, r3
 800a746:	fa02 f507 	lsl.w	r5, r2, r7
 800a74a:	430e      	orrs	r6, r1
 800a74c:	fa00 f407 	lsl.w	r4, r0, r7
 800a750:	0c2f      	lsrs	r7, r5, #16
 800a752:	fbb6 f0f7 	udiv	r0, r6, r7
 800a756:	fa1f fe85 	uxth.w	lr, r5
 800a75a:	fb07 6210 	mls	r2, r7, r0, r6
 800a75e:	fb0e f100 	mul.w	r1, lr, r0
 800a762:	0c26      	lsrs	r6, r4, #16
 800a764:	ea46 4302 	orr.w	r3, r6, r2, lsl #16
 800a768:	4299      	cmp	r1, r3
 800a76a:	d909      	bls.n	800a780 <__udivdi3+0x5c>
 800a76c:	195b      	adds	r3, r3, r5
 800a76e:	f100 32ff 	add.w	r2, r0, #4294967295
 800a772:	f080 80f4 	bcs.w	800a95e <__udivdi3+0x23a>
 800a776:	4299      	cmp	r1, r3
 800a778:	f240 80f1 	bls.w	800a95e <__udivdi3+0x23a>
 800a77c:	3802      	subs	r0, #2
 800a77e:	442b      	add	r3, r5
 800a780:	1a59      	subs	r1, r3, r1
 800a782:	fbb1 f3f7 	udiv	r3, r1, r7
 800a786:	fb07 1113 	mls	r1, r7, r3, r1
 800a78a:	fb0e fe03 	mul.w	lr, lr, r3
 800a78e:	b2a4      	uxth	r4, r4
 800a790:	ea44 4101 	orr.w	r1, r4, r1, lsl #16
 800a794:	458e      	cmp	lr, r1
 800a796:	d908      	bls.n	800a7aa <__udivdi3+0x86>
 800a798:	1949      	adds	r1, r1, r5
 800a79a:	f103 32ff 	add.w	r2, r3, #4294967295
 800a79e:	f080 80e8 	bcs.w	800a972 <__udivdi3+0x24e>
 800a7a2:	458e      	cmp	lr, r1
 800a7a4:	f240 80e5 	bls.w	800a972 <__udivdi3+0x24e>
 800a7a8:	3b02      	subs	r3, #2
 800a7aa:	ea43 4000 	orr.w	r0, r3, r0, lsl #16
 800a7ae:	2600      	movs	r6, #0
 800a7b0:	4631      	mov	r1, r6
 800a7b2:	e8bd 83f0 	ldmia.w	sp!, {r4, r5, r6, r7, r8, r9, pc}
 800a7b6:	428b      	cmp	r3, r1
 800a7b8:	d847      	bhi.n	800a84a <__udivdi3+0x126>
 800a7ba:	fab3 f683 	clz	r6, r3
 800a7be:	2e00      	cmp	r6, #0
 800a7c0:	d148      	bne.n	800a854 <__udivdi3+0x130>
 800a7c2:	428b      	cmp	r3, r1
 800a7c4:	d302      	bcc.n	800a7cc <__udivdi3+0xa8>
 800a7c6:	4282      	cmp	r2, r0
 800a7c8:	f200 80d5 	bhi.w	800a976 <__udivdi3+0x252>
 800a7cc:	2001      	movs	r0, #1
 800a7ce:	4631      	mov	r1, r6
 800a7d0:	e8bd 83f0 	ldmia.w	sp!, {r4, r5, r6, r7, r8, r9, pc}
 800a7d4:	b912      	cbnz	r2, 800a7dc <__udivdi3+0xb8>
 800a7d6:	2501      	movs	r5, #1
 800a7d8:	fbb5 f5f2 	udiv	r5, r5, r2
 800a7dc:	fab5 fc85 	clz	ip, r5
 800a7e0:	f1bc 0f00 	cmp.w	ip, #0
 800a7e4:	d17f      	bne.n	800a8e6 <__udivdi3+0x1c2>
 800a7e6:	1b49      	subs	r1, r1, r5
 800a7e8:	fa1f fe85 	uxth.w	lr, r5
 800a7ec:	0c2f      	lsrs	r7, r5, #16
 800a7ee:	2601      	movs	r6, #1
 800a7f0:	fbb1 f0f7 	udiv	r0, r1, r7
 800a7f4:	fb07 1110 	mls	r1, r7, r0, r1
 800a7f8:	fb0e f200 	mul.w	r2, lr, r0
 800a7fc:	0c23      	lsrs	r3, r4, #16
 800a7fe:	ea43 4101 	orr.w	r1, r3, r1, lsl #16
 800a802:	428a      	cmp	r2, r1
 800a804:	d907      	bls.n	800a816 <__udivdi3+0xf2>
 800a806:	1949      	adds	r1, r1, r5
 800a808:	f100 33ff 	add.w	r3, r0, #4294967295
 800a80c:	d202      	bcs.n	800a814 <__udivdi3+0xf0>
 800a80e:	428a      	cmp	r2, r1
 800a810:	f200 80bb 	bhi.w	800a98a <__udivdi3+0x266>
 800a814:	4618      	mov	r0, r3
 800a816:	1a89      	subs	r1, r1, r2
 800a818:	fbb1 f3f7 	udiv	r3, r1, r7
 800a81c:	fb07 1113 	mls	r1, r7, r3, r1
 800a820:	fb0e fe03 	mul.w	lr, lr, r3
 800a824:	b2a4      	uxth	r4, r4
 800a826:	ea44 4201 	orr.w	r2, r4, r1, lsl #16
 800a82a:	4596      	cmp	lr, r2
 800a82c:	d908      	bls.n	800a840 <__udivdi3+0x11c>
 800a82e:	1952      	adds	r2, r2, r5
 800a830:	f103 31ff 	add.w	r1, r3, #4294967295
 800a834:	f080 809b 	bcs.w	800a96e <__udivdi3+0x24a>
 800a838:	4596      	cmp	lr, r2
 800a83a:	f240 8098 	bls.w	800a96e <__udivdi3+0x24a>
 800a83e:	3b02      	subs	r3, #2
 800a840:	ea43 4000 	orr.w	r0, r3, r0, lsl #16
 800a844:	4631      	mov	r1, r6
 800a846:	e8bd 83f0 	ldmia.w	sp!, {r4, r5, r6, r7, r8, r9, pc}
 800a84a:	2600      	movs	r6, #0
 800a84c:	4630      	mov	r0, r6
 800a84e:	4631      	mov	r1, r6
 800a850:	e8bd 83f0 	ldmia.w	sp!, {r4, r5, r6, r7, r8, r9, pc}
 800a854:	f1c6 0420 	rsb	r4, r6, #32
 800a858:	fa22 f504 	lsr.w	r5, r2, r4
 800a85c:	40b3      	lsls	r3, r6
 800a85e:	432b      	orrs	r3, r5
 800a860:	fa21 f704 	lsr.w	r7, r1, r4
 800a864:	ea4f 4813 	mov.w	r8, r3, lsr #16
 800a868:	fbb7 fcf8 	udiv	ip, r7, r8
 800a86c:	fa1f f983 	uxth.w	r9, r3
 800a870:	fb08 771c 	mls	r7, r8, ip, r7
 800a874:	fa20 fe04 	lsr.w	lr, r0, r4
 800a878:	fa01 f506 	lsl.w	r5, r1, r6
 800a87c:	fb09 f40c 	mul.w	r4, r9, ip
 800a880:	ea4e 0505 	orr.w	r5, lr, r5
 800a884:	ea4f 4e15 	mov.w	lr, r5, lsr #16
 800a888:	ea4e 4707 	orr.w	r7, lr, r7, lsl #16
 800a88c:	42bc      	cmp	r4, r7
 800a88e:	fa02 f206 	lsl.w	r2, r2, r6
 800a892:	d908      	bls.n	800a8a6 <__udivdi3+0x182>
 800a894:	18ff      	adds	r7, r7, r3
 800a896:	f10c 31ff 	add.w	r1, ip, #4294967295
 800a89a:	d26e      	bcs.n	800a97a <__udivdi3+0x256>
 800a89c:	42bc      	cmp	r4, r7
 800a89e:	d96c      	bls.n	800a97a <__udivdi3+0x256>
 800a8a0:	f1ac 0c02 	sub.w	ip, ip, #2
 800a8a4:	441f      	add	r7, r3
 800a8a6:	1b3f      	subs	r7, r7, r4
 800a8a8:	fbb7 f4f8 	udiv	r4, r7, r8
 800a8ac:	fb08 7714 	mls	r7, r8, r4, r7
 800a8b0:	fb09 f904 	mul.w	r9, r9, r4
 800a8b4:	b2ad      	uxth	r5, r5
 800a8b6:	ea45 4107 	orr.w	r1, r5, r7, lsl #16
 800a8ba:	4589      	cmp	r9, r1
 800a8bc:	d907      	bls.n	800a8ce <__udivdi3+0x1aa>
 800a8be:	18c9      	adds	r1, r1, r3
 800a8c0:	f104 35ff 	add.w	r5, r4, #4294967295
 800a8c4:	d25b      	bcs.n	800a97e <__udivdi3+0x25a>
 800a8c6:	4589      	cmp	r9, r1
 800a8c8:	d959      	bls.n	800a97e <__udivdi3+0x25a>
 800a8ca:	3c02      	subs	r4, #2
 800a8cc:	4419      	add	r1, r3
 800a8ce:	ea44 440c 	orr.w	r4, r4, ip, lsl #16
 800a8d2:	fba4 2302 	umull	r2, r3, r4, r2
 800a8d6:	ebc9 0101 	rsb	r1, r9, r1
 800a8da:	4299      	cmp	r1, r3
 800a8dc:	d344      	bcc.n	800a968 <__udivdi3+0x244>
 800a8de:	d040      	beq.n	800a962 <__udivdi3+0x23e>
 800a8e0:	4620      	mov	r0, r4
 800a8e2:	2600      	movs	r6, #0
 800a8e4:	e764      	b.n	800a7b0 <__udivdi3+0x8c>
 800a8e6:	fa05 f50c 	lsl.w	r5, r5, ip
 800a8ea:	f1cc 0220 	rsb	r2, ip, #32
 800a8ee:	fa21 f302 	lsr.w	r3, r1, r2
 800a8f2:	0c2f      	lsrs	r7, r5, #16
 800a8f4:	fbb3 f6f7 	udiv	r6, r3, r7
 800a8f8:	fa1f fe85 	uxth.w	lr, r5
 800a8fc:	fb07 3816 	mls	r8, r7, r6, r3
 800a900:	fa20 f202 	lsr.w	r2, r0, r2
 800a904:	fa01 f10c 	lsl.w	r1, r1, ip
 800a908:	fb0e f906 	mul.w	r9, lr, r6
 800a90c:	430a      	orrs	r2, r1
 800a90e:	0c14      	lsrs	r4, r2, #16
 800a910:	ea44 4308 	orr.w	r3, r4, r8, lsl #16
 800a914:	4599      	cmp	r9, r3
 800a916:	fa00 f40c 	lsl.w	r4, r0, ip
 800a91a:	d907      	bls.n	800a92c <__udivdi3+0x208>
 800a91c:	195b      	adds	r3, r3, r5
 800a91e:	f106 31ff 	add.w	r1, r6, #4294967295
 800a922:	d230      	bcs.n	800a986 <__udivdi3+0x262>
 800a924:	4599      	cmp	r9, r3
 800a926:	d92e      	bls.n	800a986 <__udivdi3+0x262>
 800a928:	3e02      	subs	r6, #2
 800a92a:	442b      	add	r3, r5
 800a92c:	ebc9 0303 	rsb	r3, r9, r3
 800a930:	fbb3 f0f7 	udiv	r0, r3, r7
 800a934:	fb07 3310 	mls	r3, r7, r0, r3
 800a938:	fb0e f100 	mul.w	r1, lr, r0
 800a93c:	b292      	uxth	r2, r2
 800a93e:	ea42 4303 	orr.w	r3, r2, r3, lsl #16
 800a942:	4299      	cmp	r1, r3
 800a944:	d907      	bls.n	800a956 <__udivdi3+0x232>
 800a946:	195b      	adds	r3, r3, r5
 800a948:	f100 32ff 	add.w	r2, r0, #4294967295
 800a94c:	d219      	bcs.n	800a982 <__udivdi3+0x25e>
 800a94e:	4299      	cmp	r1, r3
 800a950:	d917      	bls.n	800a982 <__udivdi3+0x25e>
 800a952:	3802      	subs	r0, #2
 800a954:	442b      	add	r3, r5
 800a956:	1a59      	subs	r1, r3, r1
 800a958:	ea40 4606 	orr.w	r6, r0, r6, lsl #16
 800a95c:	e748      	b.n	800a7f0 <__udivdi3+0xcc>
 800a95e:	4610      	mov	r0, r2
 800a960:	e70e      	b.n	800a780 <__udivdi3+0x5c>
 800a962:	40b0      	lsls	r0, r6
 800a964:	4290      	cmp	r0, r2
 800a966:	d2bb      	bcs.n	800a8e0 <__udivdi3+0x1bc>
 800a968:	1e60      	subs	r0, r4, #1
 800a96a:	2600      	movs	r6, #0
 800a96c:	e720      	b.n	800a7b0 <__udivdi3+0x8c>
 800a96e:	460b      	mov	r3, r1
 800a970:	e766      	b.n	800a840 <__udivdi3+0x11c>
 800a972:	4613      	mov	r3, r2
 800a974:	e719      	b.n	800a7aa <__udivdi3+0x86>
 800a976:	4630      	mov	r0, r6
 800a978:	e71a      	b.n	800a7b0 <__udivdi3+0x8c>
 800a97a:	468c      	mov	ip, r1
 800a97c:	e793      	b.n	800a8a6 <__udivdi3+0x182>
 800a97e:	462c      	mov	r4, r5
 800a980:	e7a5      	b.n	800a8ce <__udivdi3+0x1aa>
 800a982:	4610      	mov	r0, r2
 800a984:	e7e7      	b.n	800a956 <__udivdi3+0x232>
 800a986:	460e      	mov	r6, r1
 800a988:	e7d0      	b.n	800a92c <__udivdi3+0x208>
 800a98a:	3802      	subs	r0, #2
 800a98c:	4429      	add	r1, r5
 800a98e:	e742      	b.n	800a816 <__udivdi3+0xf2>
