
pinny:     file format elf32-littlearm


Disassembly of section .text:

08000000 <__vectors0>:
 8000000:	2000cb00 	.word	0x2000cb00
 8000004:	080075a1 	.word	0x080075a1
 8000008:	08007672 	.word	0x08007672
 800000c:	08007672 	.word	0x08007672
 8000010:	08007672 	.word	0x08007672

08000014 <pinny__initialize.4809>:
 8000014:	b5f0      	push	{r4, r5, r6, r7, lr}
 8000016:	b085      	sub	sp, #20
 8000018:	af00      	add	r7, sp, #0
 800001a:	4666      	mov	r6, ip
 800001c:	f8c7 c004 	str.w	ip, [r7, #4]
 8000020:	4631      	mov	r1, r6
 8000022:	460a      	mov	r2, r1
 8000024:	4b0b      	ldr	r3, [pc, #44]	; (8000054 <pinny__initialize.4809+0x40>)
 8000026:	4610      	mov	r0, r2
 8000028:	4619      	mov	r1, r3
 800002a:	f000 fb69 	bl	8000700 <stm32__device__enable_clock__3>
 800002e:	2300      	movs	r3, #0
 8000030:	737b      	strb	r3, [r7, #13]
 8000032:	2300      	movs	r3, #0
 8000034:	73fb      	strb	r3, [r7, #15]
 8000036:	2300      	movs	r3, #0
 8000038:	73bb      	strb	r3, [r7, #14]
 800003a:	2301      	movs	r3, #1
 800003c:	733b      	strb	r3, [r7, #12]
 800003e:	4633      	mov	r3, r6
 8000040:	461c      	mov	r4, r3
 8000042:	4d04      	ldr	r5, [pc, #16]	; (8000054 <pinny__initialize.4809+0x40>)
 8000044:	4620      	mov	r0, r4
 8000046:	4629      	mov	r1, r5
 8000048:	68fa      	ldr	r2, [r7, #12]
 800004a:	f004 f809 	bl	8004060 <stm32__gpio__configure_io__2>
 800004e:	3714      	adds	r7, #20
 8000050:	46bd      	mov	sp, r7
 8000052:	bdf0      	pop	{r4, r5, r6, r7, pc}
 8000054:	0800c928 	.word	0x0800c928

08000058 <_ada_pinny>:
 8000058:	e92d 43b0 	stmdb	sp!, {r4, r5, r7, r8, r9, lr}
 800005c:	b0e2      	sub	sp, #392	; 0x188
 800005e:	af00      	add	r7, sp, #0
 8000060:	f507 70d0 	add.w	r0, r7, #416	; 0x1a0
 8000064:	463b      	mov	r3, r7
 8000066:	f8c3 0180 	str.w	r0, [r3, #384]	; 0x180
 800006a:	463b      	mov	r3, r7
 800006c:	4619      	mov	r1, r3
 800006e:	4a7f      	ldr	r2, [pc, #508]	; (800026c <_ada_pinny+0x214>)
 8000070:	4608      	mov	r0, r1
 8000072:	4611      	mov	r1, r2
 8000074:	f003 fc06 	bl	8003884 <stm32__gpio__gpio_pointsIP>
 8000078:	463b      	mov	r3, r7
 800007a:	4618      	mov	r0, r3
 800007c:	497c      	ldr	r1, [pc, #496]	; (8000270 <_ada_pinny+0x218>)
 800007e:	f003 fbc9 	bl	8003814 <stm32__gpio___assign>
 8000082:	463b      	mov	r3, r7
 8000084:	330c      	adds	r3, #12
 8000086:	4618      	mov	r0, r3
 8000088:	497a      	ldr	r1, [pc, #488]	; (8000274 <_ada_pinny+0x21c>)
 800008a:	f003 fbc3 	bl	8003814 <stm32__gpio___assign>
 800008e:	463b      	mov	r3, r7
 8000090:	3318      	adds	r3, #24
 8000092:	4618      	mov	r0, r3
 8000094:	4978      	ldr	r1, [pc, #480]	; (8000278 <_ada_pinny+0x220>)
 8000096:	f003 fbbd 	bl	8003814 <stm32__gpio___assign>
 800009a:	463b      	mov	r3, r7
 800009c:	3324      	adds	r3, #36	; 0x24
 800009e:	4618      	mov	r0, r3
 80000a0:	4976      	ldr	r1, [pc, #472]	; (800027c <_ada_pinny+0x224>)
 80000a2:	f003 fbb7 	bl	8003814 <stm32__gpio___assign>
 80000a6:	463b      	mov	r3, r7
 80000a8:	3330      	adds	r3, #48	; 0x30
 80000aa:	4618      	mov	r0, r3
 80000ac:	4974      	ldr	r1, [pc, #464]	; (8000280 <_ada_pinny+0x228>)
 80000ae:	f003 fbb1 	bl	8003814 <stm32__gpio___assign>
 80000b2:	463b      	mov	r3, r7
 80000b4:	333c      	adds	r3, #60	; 0x3c
 80000b6:	4618      	mov	r0, r3
 80000b8:	4972      	ldr	r1, [pc, #456]	; (8000284 <_ada_pinny+0x22c>)
 80000ba:	f003 fbab 	bl	8003814 <stm32__gpio___assign>
 80000be:	463b      	mov	r3, r7
 80000c0:	3348      	adds	r3, #72	; 0x48
 80000c2:	4618      	mov	r0, r3
 80000c4:	4970      	ldr	r1, [pc, #448]	; (8000288 <_ada_pinny+0x230>)
 80000c6:	f003 fba5 	bl	8003814 <stm32__gpio___assign>
 80000ca:	463b      	mov	r3, r7
 80000cc:	3354      	adds	r3, #84	; 0x54
 80000ce:	4618      	mov	r0, r3
 80000d0:	496e      	ldr	r1, [pc, #440]	; (800028c <_ada_pinny+0x234>)
 80000d2:	f003 fb9f 	bl	8003814 <stm32__gpio___assign>
 80000d6:	463b      	mov	r3, r7
 80000d8:	3360      	adds	r3, #96	; 0x60
 80000da:	4618      	mov	r0, r3
 80000dc:	496c      	ldr	r1, [pc, #432]	; (8000290 <_ada_pinny+0x238>)
 80000de:	f003 fb99 	bl	8003814 <stm32__gpio___assign>
 80000e2:	463b      	mov	r3, r7
 80000e4:	336c      	adds	r3, #108	; 0x6c
 80000e6:	4618      	mov	r0, r3
 80000e8:	496a      	ldr	r1, [pc, #424]	; (8000294 <_ada_pinny+0x23c>)
 80000ea:	f003 fb93 	bl	8003814 <stm32__gpio___assign>
 80000ee:	463b      	mov	r3, r7
 80000f0:	3378      	adds	r3, #120	; 0x78
 80000f2:	4618      	mov	r0, r3
 80000f4:	4968      	ldr	r1, [pc, #416]	; (8000298 <_ada_pinny+0x240>)
 80000f6:	f003 fb8d 	bl	8003814 <stm32__gpio___assign>
 80000fa:	463b      	mov	r3, r7
 80000fc:	3384      	adds	r3, #132	; 0x84
 80000fe:	4618      	mov	r0, r3
 8000100:	4966      	ldr	r1, [pc, #408]	; (800029c <_ada_pinny+0x244>)
 8000102:	f003 fb87 	bl	8003814 <stm32__gpio___assign>
 8000106:	463b      	mov	r3, r7
 8000108:	3390      	adds	r3, #144	; 0x90
 800010a:	4618      	mov	r0, r3
 800010c:	4964      	ldr	r1, [pc, #400]	; (80002a0 <_ada_pinny+0x248>)
 800010e:	f003 fb81 	bl	8003814 <stm32__gpio___assign>
 8000112:	463b      	mov	r3, r7
 8000114:	339c      	adds	r3, #156	; 0x9c
 8000116:	4618      	mov	r0, r3
 8000118:	4962      	ldr	r1, [pc, #392]	; (80002a4 <_ada_pinny+0x24c>)
 800011a:	f003 fb7b 	bl	8003814 <stm32__gpio___assign>
 800011e:	463b      	mov	r3, r7
 8000120:	33a8      	adds	r3, #168	; 0xa8
 8000122:	4618      	mov	r0, r3
 8000124:	4960      	ldr	r1, [pc, #384]	; (80002a8 <_ada_pinny+0x250>)
 8000126:	f003 fb75 	bl	8003814 <stm32__gpio___assign>
 800012a:	463b      	mov	r3, r7
 800012c:	33b4      	adds	r3, #180	; 0xb4
 800012e:	4618      	mov	r0, r3
 8000130:	495e      	ldr	r1, [pc, #376]	; (80002ac <_ada_pinny+0x254>)
 8000132:	f003 fb6f 	bl	8003814 <stm32__gpio___assign>
 8000136:	463b      	mov	r3, r7
 8000138:	33c0      	adds	r3, #192	; 0xc0
 800013a:	4618      	mov	r0, r3
 800013c:	495c      	ldr	r1, [pc, #368]	; (80002b0 <_ada_pinny+0x258>)
 800013e:	f003 fb69 	bl	8003814 <stm32__gpio___assign>
 8000142:	463b      	mov	r3, r7
 8000144:	33cc      	adds	r3, #204	; 0xcc
 8000146:	4618      	mov	r0, r3
 8000148:	495a      	ldr	r1, [pc, #360]	; (80002b4 <_ada_pinny+0x25c>)
 800014a:	f003 fb63 	bl	8003814 <stm32__gpio___assign>
 800014e:	463b      	mov	r3, r7
 8000150:	33d8      	adds	r3, #216	; 0xd8
 8000152:	4618      	mov	r0, r3
 8000154:	4958      	ldr	r1, [pc, #352]	; (80002b8 <_ada_pinny+0x260>)
 8000156:	f003 fb5d 	bl	8003814 <stm32__gpio___assign>
 800015a:	463b      	mov	r3, r7
 800015c:	33e4      	adds	r3, #228	; 0xe4
 800015e:	4618      	mov	r0, r3
 8000160:	4956      	ldr	r1, [pc, #344]	; (80002bc <_ada_pinny+0x264>)
 8000162:	f003 fb57 	bl	8003814 <stm32__gpio___assign>
 8000166:	463b      	mov	r3, r7
 8000168:	33f0      	adds	r3, #240	; 0xf0
 800016a:	4618      	mov	r0, r3
 800016c:	4954      	ldr	r1, [pc, #336]	; (80002c0 <_ada_pinny+0x268>)
 800016e:	f003 fb51 	bl	8003814 <stm32__gpio___assign>
 8000172:	463b      	mov	r3, r7
 8000174:	33fc      	adds	r3, #252	; 0xfc
 8000176:	4618      	mov	r0, r3
 8000178:	4952      	ldr	r1, [pc, #328]	; (80002c4 <_ada_pinny+0x26c>)
 800017a:	f003 fb4b 	bl	8003814 <stm32__gpio___assign>
 800017e:	463b      	mov	r3, r7
 8000180:	f503 7384 	add.w	r3, r3, #264	; 0x108
 8000184:	4618      	mov	r0, r3
 8000186:	4950      	ldr	r1, [pc, #320]	; (80002c8 <_ada_pinny+0x270>)
 8000188:	f003 fb44 	bl	8003814 <stm32__gpio___assign>
 800018c:	463b      	mov	r3, r7
 800018e:	f503 738a 	add.w	r3, r3, #276	; 0x114
 8000192:	4618      	mov	r0, r3
 8000194:	494d      	ldr	r1, [pc, #308]	; (80002cc <_ada_pinny+0x274>)
 8000196:	f003 fb3d 	bl	8003814 <stm32__gpio___assign>
 800019a:	463b      	mov	r3, r7
 800019c:	f503 7390 	add.w	r3, r3, #288	; 0x120
 80001a0:	4618      	mov	r0, r3
 80001a2:	494b      	ldr	r1, [pc, #300]	; (80002d0 <_ada_pinny+0x278>)
 80001a4:	f003 fb36 	bl	8003814 <stm32__gpio___assign>
 80001a8:	463b      	mov	r3, r7
 80001aa:	f503 7396 	add.w	r3, r3, #300	; 0x12c
 80001ae:	4618      	mov	r0, r3
 80001b0:	4948      	ldr	r1, [pc, #288]	; (80002d4 <_ada_pinny+0x27c>)
 80001b2:	f003 fb2f 	bl	8003814 <stm32__gpio___assign>
 80001b6:	463b      	mov	r3, r7
 80001b8:	f503 739c 	add.w	r3, r3, #312	; 0x138
 80001bc:	4618      	mov	r0, r3
 80001be:	4946      	ldr	r1, [pc, #280]	; (80002d8 <_ada_pinny+0x280>)
 80001c0:	f003 fb28 	bl	8003814 <stm32__gpio___assign>
 80001c4:	463b      	mov	r3, r7
 80001c6:	f503 73a2 	add.w	r3, r3, #324	; 0x144
 80001ca:	4618      	mov	r0, r3
 80001cc:	4943      	ldr	r1, [pc, #268]	; (80002dc <_ada_pinny+0x284>)
 80001ce:	f003 fb21 	bl	8003814 <stm32__gpio___assign>
 80001d2:	463b      	mov	r3, r7
 80001d4:	f503 73a8 	add.w	r3, r3, #336	; 0x150
 80001d8:	4618      	mov	r0, r3
 80001da:	4941      	ldr	r1, [pc, #260]	; (80002e0 <_ada_pinny+0x288>)
 80001dc:	f003 fb1a 	bl	8003814 <stm32__gpio___assign>
 80001e0:	463b      	mov	r3, r7
 80001e2:	f503 73ae 	add.w	r3, r3, #348	; 0x15c
 80001e6:	4618      	mov	r0, r3
 80001e8:	493e      	ldr	r1, [pc, #248]	; (80002e4 <_ada_pinny+0x28c>)
 80001ea:	f003 fb13 	bl	8003814 <stm32__gpio___assign>
 80001ee:	463b      	mov	r3, r7
 80001f0:	f503 73b4 	add.w	r3, r3, #360	; 0x168
 80001f4:	4618      	mov	r0, r3
 80001f6:	493c      	ldr	r1, [pc, #240]	; (80002e8 <_ada_pinny+0x290>)
 80001f8:	f003 fb0c 	bl	8003814 <stm32__gpio___assign>
 80001fc:	463b      	mov	r3, r7
 80001fe:	f503 73ba 	add.w	r3, r3, #372	; 0x174
 8000202:	4618      	mov	r0, r3
 8000204:	4939      	ldr	r1, [pc, #228]	; (80002ec <_ada_pinny+0x294>)
 8000206:	f003 fb05 	bl	8003814 <stm32__gpio___assign>
 800020a:	463b      	mov	r3, r7
 800020c:	f8c7 3184 	str.w	r3, [r7, #388]	; 0x184
 8000210:	463b      	mov	r3, r7
 8000212:	469c      	mov	ip, r3
 8000214:	f7ff fefe 	bl	8000014 <pinny__initialize.4809>
 8000218:	463b      	mov	r3, r7
 800021a:	461c      	mov	r4, r3
 800021c:	4d13      	ldr	r5, [pc, #76]	; (800026c <_ada_pinny+0x214>)
 800021e:	4620      	mov	r0, r4
 8000220:	4629      	mov	r1, r5
 8000222:	f003 fd9d 	bl	8003d60 <stm32__gpio__toggle__2>
 8000226:	f005 ff91 	bl	800614c <ada__real_time__clock>
 800022a:	4680      	mov	r8, r0
 800022c:	4689      	mov	r9, r1
 800022e:	f44f 707a 	mov.w	r0, #1000	; 0x3e8
 8000232:	f005 ffd3 	bl	80061dc <ada__real_time__milliseconds>
 8000236:	4602      	mov	r2, r0
 8000238:	460b      	mov	r3, r1
 800023a:	4640      	mov	r0, r8
 800023c:	4649      	mov	r1, r9
 800023e:	f005 ff2b 	bl	8006098 <ada__real_time__Oadd>
 8000242:	4602      	mov	r2, r0
 8000244:	460b      	mov	r3, r1
 8000246:	4610      	mov	r0, r2
 8000248:	4619      	mov	r1, r3
 800024a:	f006 fdb9 	bl	8006dc0 <ada__real_time__delays__delay_until>
 800024e:	e7e3      	b.n	8000218 <_ada_pinny+0x1c0>
 8000250:	4602      	mov	r2, r0
 8000252:	2301      	movs	r3, #1
 8000254:	2b01      	cmp	r3, #1
 8000256:	d103      	bne.n	8000260 <_ada_pinny+0x208>
 8000258:	4613      	mov	r3, r2
 800025a:	4618      	mov	r0, r3
 800025c:	f00a fde8 	bl	800ae30 <_Unwind_Resume>
 8000260:	f507 77c4 	add.w	r7, r7, #392	; 0x188
 8000264:	46bd      	mov	sp, r7
 8000266:	e8bd 83b0 	ldmia.w	sp!, {r4, r5, r7, r8, r9, pc}
 800026a:	bf00      	nop
 800026c:	0800c928 	.word	0x0800c928
 8000270:	20000380 	.word	0x20000380
 8000274:	2000038c 	.word	0x2000038c
 8000278:	200003a4 	.word	0x200003a4
 800027c:	200003b0 	.word	0x200003b0
 8000280:	200003bc 	.word	0x200003bc
 8000284:	200003c8 	.word	0x200003c8
 8000288:	200003d4 	.word	0x200003d4
 800028c:	200003e0 	.word	0x200003e0
 8000290:	200003ec 	.word	0x200003ec
 8000294:	200003f8 	.word	0x200003f8
 8000298:	20000404 	.word	0x20000404
 800029c:	20000410 	.word	0x20000410
 80002a0:	2000041c 	.word	0x2000041c
 80002a4:	20000428 	.word	0x20000428
 80002a8:	20000434 	.word	0x20000434
 80002ac:	200002c0 	.word	0x200002c0
 80002b0:	200002cc 	.word	0x200002cc
 80002b4:	200002d8 	.word	0x200002d8
 80002b8:	200002e4 	.word	0x200002e4
 80002bc:	200002f0 	.word	0x200002f0
 80002c0:	200002fc 	.word	0x200002fc
 80002c4:	20000308 	.word	0x20000308
 80002c8:	20000314 	.word	0x20000314
 80002cc:	20000320 	.word	0x20000320
 80002d0:	2000032c 	.word	0x2000032c
 80002d4:	20000338 	.word	0x20000338
 80002d8:	20000344 	.word	0x20000344
 80002dc:	20000350 	.word	0x20000350
 80002e0:	20000374 	.word	0x20000374
 80002e4:	200004dc 	.word	0x200004dc
 80002e8:	200004e8 	.word	0x200004e8
 80002ec:	200004f4 	.word	0x200004f4

080002f0 <adafinal>:
 80002f0:	b580      	push	{r7, lr}
 80002f2:	af00      	add	r7, sp, #0
 80002f4:	4b08      	ldr	r3, [pc, #32]	; (8000318 <adafinal+0x28>)
 80002f6:	781b      	ldrb	r3, [r3, #0]
 80002f8:	f083 0301 	eor.w	r3, r3, #1
 80002fc:	b2db      	uxtb	r3, r3
 80002fe:	2b00      	cmp	r3, #0
 8000300:	d107      	bne.n	8000312 <adafinal+0x22>
 8000302:	4b05      	ldr	r3, [pc, #20]	; (8000318 <adafinal+0x28>)
 8000304:	2200      	movs	r2, #0
 8000306:	701a      	strb	r2, [r3, #0]
 8000308:	f007 fcc0 	bl	8007c8c <__gnat_runtime_finalize>
 800030c:	f009 f9bc 	bl	8009688 <system__standard_library__adafinal>
 8000310:	e000      	b.n	8000314 <adafinal+0x24>
 8000312:	bf00      	nop
 8000314:	bd80      	pop	{r7, pc}
 8000316:	bf00      	nop
 8000318:	20000000 	.word	0x20000000

0800031c <adainit>:
 800031c:	b580      	push	{r7, lr}
 800031e:	af00      	add	r7, sp, #0
 8000320:	4b84      	ldr	r3, [pc, #528]	; (8000534 <adainit+0x218>)
 8000322:	781b      	ldrb	r3, [r3, #0]
 8000324:	2b00      	cmp	r3, #0
 8000326:	f040 8102 	bne.w	800052e <adainit+0x212>
 800032a:	4b82      	ldr	r3, [pc, #520]	; (8000534 <adainit+0x218>)
 800032c:	2201      	movs	r2, #1
 800032e:	701a      	strb	r2, [r3, #0]
 8000330:	4b81      	ldr	r3, [pc, #516]	; (8000538 <adainit+0x21c>)
 8000332:	f04f 32ff 	mov.w	r2, #4294967295
 8000336:	601a      	str	r2, [r3, #0]
 8000338:	4b80      	ldr	r3, [pc, #512]	; (800053c <adainit+0x220>)
 800033a:	2200      	movs	r2, #0
 800033c:	601a      	str	r2, [r3, #0]
 800033e:	4b80      	ldr	r3, [pc, #512]	; (8000540 <adainit+0x224>)
 8000340:	2262      	movs	r2, #98	; 0x62
 8000342:	701a      	strb	r2, [r3, #0]
 8000344:	4b7f      	ldr	r3, [pc, #508]	; (8000544 <adainit+0x228>)
 8000346:	2243      	movs	r2, #67	; 0x43
 8000348:	701a      	strb	r2, [r3, #0]
 800034a:	4b7f      	ldr	r3, [pc, #508]	; (8000548 <adainit+0x22c>)
 800034c:	2220      	movs	r2, #32
 800034e:	701a      	strb	r2, [r3, #0]
 8000350:	4b7e      	ldr	r3, [pc, #504]	; (800054c <adainit+0x230>)
 8000352:	2246      	movs	r2, #70	; 0x46
 8000354:	701a      	strb	r2, [r3, #0]
 8000356:	4a7e      	ldr	r2, [pc, #504]	; (8000550 <adainit+0x234>)
 8000358:	4b7e      	ldr	r3, [pc, #504]	; (8000554 <adainit+0x238>)
 800035a:	601a      	str	r2, [r3, #0]
 800035c:	4b7e      	ldr	r3, [pc, #504]	; (8000558 <adainit+0x23c>)
 800035e:	2200      	movs	r2, #0
 8000360:	601a      	str	r2, [r3, #0]
 8000362:	4b7e      	ldr	r3, [pc, #504]	; (800055c <adainit+0x240>)
 8000364:	f04f 32ff 	mov.w	r2, #4294967295
 8000368:	601a      	str	r2, [r3, #0]
 800036a:	4a7d      	ldr	r2, [pc, #500]	; (8000560 <adainit+0x244>)
 800036c:	4b7d      	ldr	r3, [pc, #500]	; (8000564 <adainit+0x248>)
 800036e:	601a      	str	r2, [r3, #0]
 8000370:	4b7d      	ldr	r3, [pc, #500]	; (8000568 <adainit+0x24c>)
 8000372:	2200      	movs	r2, #0
 8000374:	601a      	str	r2, [r3, #0]
 8000376:	4b7d      	ldr	r3, [pc, #500]	; (800056c <adainit+0x250>)
 8000378:	2200      	movs	r2, #0
 800037a:	601a      	str	r2, [r3, #0]
 800037c:	4b7c      	ldr	r3, [pc, #496]	; (8000570 <adainit+0x254>)
 800037e:	2201      	movs	r2, #1
 8000380:	601a      	str	r2, [r3, #0]
 8000382:	4b7c      	ldr	r3, [pc, #496]	; (8000574 <adainit+0x258>)
 8000384:	f04f 32ff 	mov.w	r2, #4294967295
 8000388:	601a      	str	r2, [r3, #0]
 800038a:	4b7b      	ldr	r3, [pc, #492]	; (8000578 <adainit+0x25c>)
 800038c:	2200      	movs	r2, #0
 800038e:	601a      	str	r2, [r3, #0]
 8000390:	2001      	movs	r0, #1
 8000392:	f007 fc4f 	bl	8007c34 <__gnat_runtime_initialize>
 8000396:	f009 fa45 	bl	8009824 <ada__streams___elabs>
 800039a:	4b78      	ldr	r3, [pc, #480]	; (800057c <adainit+0x260>)
 800039c:	881b      	ldrh	r3, [r3, #0]
 800039e:	b29b      	uxth	r3, r3
 80003a0:	3301      	adds	r3, #1
 80003a2:	b29a      	uxth	r2, r3
 80003a4:	4b75      	ldr	r3, [pc, #468]	; (800057c <adainit+0x260>)
 80003a6:	801a      	strh	r2, [r3, #0]
 80003a8:	f009 fa6c 	bl	8009884 <system__finalization_root___elabs>
 80003ac:	4b74      	ldr	r3, [pc, #464]	; (8000580 <adainit+0x264>)
 80003ae:	881b      	ldrh	r3, [r3, #0]
 80003b0:	b29b      	uxth	r3, r3
 80003b2:	3301      	adds	r3, #1
 80003b4:	b29a      	uxth	r2, r3
 80003b6:	4b72      	ldr	r3, [pc, #456]	; (8000580 <adainit+0x264>)
 80003b8:	801a      	strh	r2, [r3, #0]
 80003ba:	f007 fe5f 	bl	800807c <ada__finalization___elabs>
 80003be:	4b71      	ldr	r3, [pc, #452]	; (8000584 <adainit+0x268>)
 80003c0:	881b      	ldrh	r3, [r3, #0]
 80003c2:	b29b      	uxth	r3, r3
 80003c4:	3301      	adds	r3, #1
 80003c6:	b29a      	uxth	r2, r3
 80003c8:	4b6e      	ldr	r3, [pc, #440]	; (8000584 <adainit+0x268>)
 80003ca:	801a      	strh	r2, [r3, #0]
 80003cc:	f008 ffa6 	bl	800931c <system__soft_links___elabs>
 80003d0:	f008 ffb8 	bl	8009344 <system__storage_pools___elabs>
 80003d4:	4b6c      	ldr	r3, [pc, #432]	; (8000588 <adainit+0x26c>)
 80003d6:	881b      	ldrh	r3, [r3, #0]
 80003d8:	b29b      	uxth	r3, r3
 80003da:	3301      	adds	r3, #1
 80003dc:	b29a      	uxth	r2, r3
 80003de:	4b6a      	ldr	r3, [pc, #424]	; (8000588 <adainit+0x26c>)
 80003e0:	801a      	strh	r2, [r3, #0]
 80003e2:	f008 f889 	bl	80084f8 <system__finalization_masters___elabs>
 80003e6:	f006 f801 	bl	80063ec <system__bb__timing_events___elabs>
 80003ea:	4b68      	ldr	r3, [pc, #416]	; (800058c <adainit+0x270>)
 80003ec:	881b      	ldrh	r3, [r3, #0]
 80003ee:	b29b      	uxth	r3, r3
 80003f0:	3301      	adds	r3, #1
 80003f2:	b29a      	uxth	r2, r3
 80003f4:	4b65      	ldr	r3, [pc, #404]	; (800058c <adainit+0x270>)
 80003f6:	801a      	strh	r2, [r3, #0]
 80003f8:	4b65      	ldr	r3, [pc, #404]	; (8000590 <adainit+0x274>)
 80003fa:	881b      	ldrh	r3, [r3, #0]
 80003fc:	b29b      	uxth	r3, r3
 80003fe:	3301      	adds	r3, #1
 8000400:	b29a      	uxth	r2, r3
 8000402:	4b63      	ldr	r3, [pc, #396]	; (8000590 <adainit+0x274>)
 8000404:	801a      	strh	r2, [r3, #0]
 8000406:	f009 f9c9 	bl	800979c <system__exception_table___elabb>
 800040a:	4b62      	ldr	r3, [pc, #392]	; (8000594 <adainit+0x278>)
 800040c:	881b      	ldrh	r3, [r3, #0]
 800040e:	b29b      	uxth	r3, r3
 8000410:	3301      	adds	r3, #1
 8000412:	b29a      	uxth	r2, r3
 8000414:	4b5f      	ldr	r3, [pc, #380]	; (8000594 <adainit+0x278>)
 8000416:	801a      	strh	r2, [r3, #0]
 8000418:	f009 f80e 	bl	8009438 <system__pool_global___elabs>
 800041c:	4b5e      	ldr	r3, [pc, #376]	; (8000598 <adainit+0x27c>)
 800041e:	881b      	ldrh	r3, [r3, #0]
 8000420:	b29b      	uxth	r3, r3
 8000422:	3301      	adds	r3, #1
 8000424:	b29a      	uxth	r2, r3
 8000426:	4b5c      	ldr	r3, [pc, #368]	; (8000598 <adainit+0x27c>)
 8000428:	801a      	strh	r2, [r3, #0]
 800042a:	f008 f859 	bl	80084e0 <system__finalization_masters___elabb>
 800042e:	4b5b      	ldr	r3, [pc, #364]	; (800059c <adainit+0x280>)
 8000430:	881b      	ldrh	r3, [r3, #0]
 8000432:	b29b      	uxth	r3, r3
 8000434:	3301      	adds	r3, #1
 8000436:	b29a      	uxth	r2, r3
 8000438:	4b58      	ldr	r3, [pc, #352]	; (800059c <adainit+0x280>)
 800043a:	801a      	strh	r2, [r3, #0]
 800043c:	f007 fd18 	bl	8007e70 <ada__tags___elabb>
 8000440:	4b57      	ldr	r3, [pc, #348]	; (80005a0 <adainit+0x284>)
 8000442:	881b      	ldrh	r3, [r3, #0]
 8000444:	b29b      	uxth	r3, r3
 8000446:	3301      	adds	r3, #1
 8000448:	b29a      	uxth	r2, r3
 800044a:	4b55      	ldr	r3, [pc, #340]	; (80005a0 <adainit+0x284>)
 800044c:	801a      	strh	r2, [r3, #0]
 800044e:	f005 fee3 	bl	8006218 <ada__real_time___elabb>
 8000452:	4b54      	ldr	r3, [pc, #336]	; (80005a4 <adainit+0x288>)
 8000454:	881b      	ldrh	r3, [r3, #0]
 8000456:	b29b      	uxth	r3, r3
 8000458:	3301      	adds	r3, #1
 800045a:	b29a      	uxth	r2, r3
 800045c:	4b51      	ldr	r3, [pc, #324]	; (80005a4 <adainit+0x288>)
 800045e:	801a      	strh	r2, [r3, #0]
 8000460:	f005 fdf2 	bl	8006048 <hal__gpio___elabs>
 8000464:	4b50      	ldr	r3, [pc, #320]	; (80005a8 <adainit+0x28c>)
 8000466:	881b      	ldrh	r3, [r3, #0]
 8000468:	b29b      	uxth	r3, r3
 800046a:	3301      	adds	r3, #1
 800046c:	b29a      	uxth	r2, r3
 800046e:	4b4e      	ldr	r3, [pc, #312]	; (80005a8 <adainit+0x28c>)
 8000470:	801a      	strh	r2, [r3, #0]
 8000472:	f005 fd69 	bl	8005f48 <hal__i2c___elabs>
 8000476:	4b4d      	ldr	r3, [pc, #308]	; (80005ac <adainit+0x290>)
 8000478:	881b      	ldrh	r3, [r3, #0]
 800047a:	b29b      	uxth	r3, r3
 800047c:	3301      	adds	r3, #1
 800047e:	b29a      	uxth	r2, r3
 8000480:	4b4a      	ldr	r3, [pc, #296]	; (80005ac <adainit+0x290>)
 8000482:	801a      	strh	r2, [r3, #0]
 8000484:	f005 fda0 	bl	8005fc8 <hal__spi___elabs>
 8000488:	4b49      	ldr	r3, [pc, #292]	; (80005b0 <adainit+0x294>)
 800048a:	881b      	ldrh	r3, [r3, #0]
 800048c:	b29b      	uxth	r3, r3
 800048e:	3301      	adds	r3, #1
 8000490:	b29a      	uxth	r2, r3
 8000492:	4b47      	ldr	r3, [pc, #284]	; (80005b0 <adainit+0x294>)
 8000494:	801a      	strh	r2, [r3, #0]
 8000496:	f005 fb3d 	bl	8005b14 <stm32__adc___elabs>
 800049a:	4b46      	ldr	r3, [pc, #280]	; (80005b4 <adainit+0x298>)
 800049c:	881b      	ldrh	r3, [r3, #0]
 800049e:	b29b      	uxth	r3, r3
 80004a0:	3301      	adds	r3, #1
 80004a2:	b29a      	uxth	r2, r3
 80004a4:	4b43      	ldr	r3, [pc, #268]	; (80005b4 <adainit+0x298>)
 80004a6:	801a      	strh	r2, [r3, #0]
 80004a8:	4b43      	ldr	r3, [pc, #268]	; (80005b8 <adainit+0x29c>)
 80004aa:	881b      	ldrh	r3, [r3, #0]
 80004ac:	b29b      	uxth	r3, r3
 80004ae:	3301      	adds	r3, #1
 80004b0:	b29a      	uxth	r2, r3
 80004b2:	4b41      	ldr	r3, [pc, #260]	; (80005b8 <adainit+0x29c>)
 80004b4:	801a      	strh	r2, [r3, #0]
 80004b6:	4b41      	ldr	r3, [pc, #260]	; (80005bc <adainit+0x2a0>)
 80004b8:	881b      	ldrh	r3, [r3, #0]
 80004ba:	b29b      	uxth	r3, r3
 80004bc:	3301      	adds	r3, #1
 80004be:	b29a      	uxth	r2, r3
 80004c0:	4b3e      	ldr	r3, [pc, #248]	; (80005bc <adainit+0x2a0>)
 80004c2:	801a      	strh	r2, [r3, #0]
 80004c4:	f003 fede 	bl	8004284 <stm32__gpio___elabs>
 80004c8:	f003 f880 	bl	80035cc <stm32__i2c___elabs>
 80004cc:	4b3c      	ldr	r3, [pc, #240]	; (80005c0 <adainit+0x2a4>)
 80004ce:	881b      	ldrh	r3, [r3, #0]
 80004d0:	b29b      	uxth	r3, r3
 80004d2:	3301      	adds	r3, #1
 80004d4:	b29a      	uxth	r2, r3
 80004d6:	4b3a      	ldr	r3, [pc, #232]	; (80005c0 <adainit+0x2a4>)
 80004d8:	801a      	strh	r2, [r3, #0]
 80004da:	4b3a      	ldr	r3, [pc, #232]	; (80005c4 <adainit+0x2a8>)
 80004dc:	881b      	ldrh	r3, [r3, #0]
 80004de:	b29b      	uxth	r3, r3
 80004e0:	3301      	adds	r3, #1
 80004e2:	b29a      	uxth	r2, r3
 80004e4:	4b37      	ldr	r3, [pc, #220]	; (80005c4 <adainit+0x2a8>)
 80004e6:	801a      	strh	r2, [r3, #0]
 80004e8:	f005 fb06 	bl	8005af8 <stm32__spi___elabs>
 80004ec:	4b36      	ldr	r3, [pc, #216]	; (80005c8 <adainit+0x2ac>)
 80004ee:	881b      	ldrh	r3, [r3, #0]
 80004f0:	b29b      	uxth	r3, r3
 80004f2:	3301      	adds	r3, #1
 80004f4:	b29a      	uxth	r2, r3
 80004f6:	4b34      	ldr	r3, [pc, #208]	; (80005c8 <adainit+0x2ac>)
 80004f8:	801a      	strh	r2, [r3, #0]
 80004fa:	4b34      	ldr	r3, [pc, #208]	; (80005cc <adainit+0x2b0>)
 80004fc:	881b      	ldrh	r3, [r3, #0]
 80004fe:	b29b      	uxth	r3, r3
 8000500:	3301      	adds	r3, #1
 8000502:	b29a      	uxth	r2, r3
 8000504:	4b31      	ldr	r3, [pc, #196]	; (80005cc <adainit+0x2b0>)
 8000506:	801a      	strh	r2, [r3, #0]
 8000508:	f000 f932 	bl	8000770 <stm32__device___elabs>
 800050c:	4b30      	ldr	r3, [pc, #192]	; (80005d0 <adainit+0x2b4>)
 800050e:	881b      	ldrh	r3, [r3, #0]
 8000510:	b29b      	uxth	r3, r3
 8000512:	3301      	adds	r3, #1
 8000514:	b29a      	uxth	r2, r3
 8000516:	4b2e      	ldr	r3, [pc, #184]	; (80005d0 <adainit+0x2b4>)
 8000518:	801a      	strh	r2, [r3, #0]
 800051a:	4b2e      	ldr	r3, [pc, #184]	; (80005d4 <adainit+0x2b8>)
 800051c:	881b      	ldrh	r3, [r3, #0]
 800051e:	b29b      	uxth	r3, r3
 8000520:	3301      	adds	r3, #1
 8000522:	b29a      	uxth	r2, r3
 8000524:	4b2b      	ldr	r3, [pc, #172]	; (80005d4 <adainit+0x2b8>)
 8000526:	801a      	strh	r2, [r3, #0]
 8000528:	f005 ff66 	bl	80063f8 <__gnat_start_slave_cpus>
 800052c:	e000      	b.n	8000530 <adainit+0x214>
 800052e:	bf00      	nop
 8000530:	bd80      	pop	{r7, pc}
 8000532:	bf00      	nop
 8000534:	20000000 	.word	0x20000000
 8000538:	20000114 	.word	0x20000114
 800053c:	20000164 	.word	0x20000164
 8000540:	2000016c 	.word	0x2000016c
 8000544:	20000160 	.word	0x20000160
 8000548:	20000158 	.word	0x20000158
 800054c:	20000174 	.word	0x20000174
 8000550:	0800c93c 	.word	0x0800c93c
 8000554:	20000154 	.word	0x20000154
 8000558:	20000168 	.word	0x20000168
 800055c:	20000124 	.word	0x20000124
 8000560:	0800c940 	.word	0x0800c940
 8000564:	20000188 	.word	0x20000188
 8000568:	20000184 	.word	0x20000184
 800056c:	20000170 	.word	0x20000170
 8000570:	2000017c 	.word	0x2000017c
 8000574:	20000180 	.word	0x20000180
 8000578:	2000015c 	.word	0x2000015c
 800057c:	20000290 	.word	0x20000290
 8000580:	200002ac 	.word	0x200002ac
 8000584:	2000018e 	.word	0x2000018e
 8000588:	200001dc 	.word	0x200001dc
 800058c:	200000e0 	.word	0x200000e0
 8000590:	200001c4 	.word	0x200001c4
 8000594:	20000288 	.word	0x20000288
 8000598:	200001e4 	.word	0x200001e4
 800059c:	20000198 	.word	0x20000198
 80005a0:	2000018c 	.word	0x2000018c
 80005a4:	200000d8 	.word	0x200000d8
 80005a8:	200000cc 	.word	0x200000cc
 80005ac:	200000b4 	.word	0x200000b4
 80005b0:	200000c0 	.word	0x200000c0
 80005b4:	200000ac 	.word	0x200000ac
 80005b8:	200000b0 	.word	0x200000b0
 80005bc:	200000ae 	.word	0x200000ae
 80005c0:	2000004c 	.word	0x2000004c
 80005c4:	20000002 	.word	0x20000002
 80005c8:	2000008c 	.word	0x2000008c
 80005cc:	2000006c 	.word	0x2000006c
 80005d0:	20000004 	.word	0x20000004
 80005d4:	200000b2 	.word	0x200000b2

080005d8 <main>:
 80005d8:	b580      	push	{r7, lr}
 80005da:	b084      	sub	sp, #16
 80005dc:	af00      	add	r7, sp, #0
 80005de:	4b09      	ldr	r3, [pc, #36]	; (8000604 <main+0x2c>)
 80005e0:	607b      	str	r3, [r7, #4]
 80005e2:	f107 0308 	add.w	r3, r7, #8
 80005e6:	4618      	mov	r0, r3
 80005e8:	f007 fb22 	bl	8007c30 <__gnat_initialize>
 80005ec:	f7ff fe96 	bl	800031c <adainit>
 80005f0:	f7ff fd32 	bl	8000058 <_ada_pinny>
 80005f4:	f7ff fe7c 	bl	80002f0 <adafinal>
 80005f8:	f007 fb18 	bl	8007c2c <__gnat_finalize>
 80005fc:	3710      	adds	r7, #16
 80005fe:	46bd      	mov	sp, r7
 8000600:	bd80      	pop	{r7, pc}
 8000602:	bf00      	nop
 8000604:	0800c930 	.word	0x0800c930

08000608 <stm32__rcc__syscfg_clock_enable>:
 8000608:	b480      	push	{r7}
 800060a:	af00      	add	r7, sp, #0
 800060c:	4b06      	ldr	r3, [pc, #24]	; (8000628 <stm32__rcc__syscfg_clock_enable+0x20>)
 800060e:	3360      	adds	r3, #96	; 0x60
 8000610:	681b      	ldr	r3, [r3, #0]
 8000612:	461a      	mov	r2, r3
 8000614:	4613      	mov	r3, r2
 8000616:	f043 0201 	orr.w	r2, r3, #1
 800061a:	4b03      	ldr	r3, [pc, #12]	; (8000628 <stm32__rcc__syscfg_clock_enable+0x20>)
 800061c:	3360      	adds	r3, #96	; 0x60
 800061e:	601a      	str	r2, [r3, #0]
 8000620:	46bd      	mov	sp, r7
 8000622:	f85d 7b04 	ldr.w	r7, [sp], #4
 8000626:	4770      	bx	lr
 8000628:	40021000 	.word	0x40021000

0800062c <stm32__device__enable_clock>:
 800062c:	b590      	push	{r4, r7, lr}
 800062e:	b083      	sub	sp, #12
 8000630:	af00      	add	r7, sp, #0
 8000632:	6078      	str	r0, [r7, #4]
 8000634:	687a      	ldr	r2, [r7, #4]
 8000636:	f1b2 4f90 	cmp.w	r2, #1207959552	; 0x48000000
 800063a:	d10a      	bne.n	8000652 <stm32__device__enable_clock+0x26>
 800063c:	4b28      	ldr	r3, [pc, #160]	; (80006e0 <stm32__device__enable_clock+0xb4>)
 800063e:	334c      	adds	r3, #76	; 0x4c
 8000640:	681b      	ldr	r3, [r3, #0]
 8000642:	461a      	mov	r2, r3
 8000644:	4613      	mov	r3, r2
 8000646:	f043 0201 	orr.w	r2, r3, #1
 800064a:	4b25      	ldr	r3, [pc, #148]	; (80006e0 <stm32__device__enable_clock+0xb4>)
 800064c:	334c      	adds	r3, #76	; 0x4c
 800064e:	601a      	str	r2, [r3, #0]
 8000650:	e042      	b.n	80006d8 <stm32__device__enable_clock+0xac>
 8000652:	687a      	ldr	r2, [r7, #4]
 8000654:	4923      	ldr	r1, [pc, #140]	; (80006e4 <stm32__device__enable_clock+0xb8>)
 8000656:	428a      	cmp	r2, r1
 8000658:	d10a      	bne.n	8000670 <stm32__device__enable_clock+0x44>
 800065a:	4b21      	ldr	r3, [pc, #132]	; (80006e0 <stm32__device__enable_clock+0xb4>)
 800065c:	334c      	adds	r3, #76	; 0x4c
 800065e:	681b      	ldr	r3, [r3, #0]
 8000660:	461a      	mov	r2, r3
 8000662:	4613      	mov	r3, r2
 8000664:	f043 0202 	orr.w	r2, r3, #2
 8000668:	4b1d      	ldr	r3, [pc, #116]	; (80006e0 <stm32__device__enable_clock+0xb4>)
 800066a:	334c      	adds	r3, #76	; 0x4c
 800066c:	601a      	str	r2, [r3, #0]
 800066e:	e033      	b.n	80006d8 <stm32__device__enable_clock+0xac>
 8000670:	687a      	ldr	r2, [r7, #4]
 8000672:	491d      	ldr	r1, [pc, #116]	; (80006e8 <stm32__device__enable_clock+0xbc>)
 8000674:	428a      	cmp	r2, r1
 8000676:	d10a      	bne.n	800068e <stm32__device__enable_clock+0x62>
 8000678:	4b19      	ldr	r3, [pc, #100]	; (80006e0 <stm32__device__enable_clock+0xb4>)
 800067a:	334c      	adds	r3, #76	; 0x4c
 800067c:	681b      	ldr	r3, [r3, #0]
 800067e:	461a      	mov	r2, r3
 8000680:	4613      	mov	r3, r2
 8000682:	f043 0204 	orr.w	r2, r3, #4
 8000686:	4b16      	ldr	r3, [pc, #88]	; (80006e0 <stm32__device__enable_clock+0xb4>)
 8000688:	334c      	adds	r3, #76	; 0x4c
 800068a:	601a      	str	r2, [r3, #0]
 800068c:	e024      	b.n	80006d8 <stm32__device__enable_clock+0xac>
 800068e:	687a      	ldr	r2, [r7, #4]
 8000690:	4916      	ldr	r1, [pc, #88]	; (80006ec <stm32__device__enable_clock+0xc0>)
 8000692:	428a      	cmp	r2, r1
 8000694:	d10a      	bne.n	80006ac <stm32__device__enable_clock+0x80>
 8000696:	4b12      	ldr	r3, [pc, #72]	; (80006e0 <stm32__device__enable_clock+0xb4>)
 8000698:	334c      	adds	r3, #76	; 0x4c
 800069a:	681b      	ldr	r3, [r3, #0]
 800069c:	461a      	mov	r2, r3
 800069e:	4613      	mov	r3, r2
 80006a0:	f043 0208 	orr.w	r2, r3, #8
 80006a4:	4b0e      	ldr	r3, [pc, #56]	; (80006e0 <stm32__device__enable_clock+0xb4>)
 80006a6:	334c      	adds	r3, #76	; 0x4c
 80006a8:	601a      	str	r2, [r3, #0]
 80006aa:	e015      	b.n	80006d8 <stm32__device__enable_clock+0xac>
 80006ac:	687a      	ldr	r2, [r7, #4]
 80006ae:	4910      	ldr	r1, [pc, #64]	; (80006f0 <stm32__device__enable_clock+0xc4>)
 80006b0:	428a      	cmp	r2, r1
 80006b2:	d10a      	bne.n	80006ca <stm32__device__enable_clock+0x9e>
 80006b4:	4b0a      	ldr	r3, [pc, #40]	; (80006e0 <stm32__device__enable_clock+0xb4>)
 80006b6:	334c      	adds	r3, #76	; 0x4c
 80006b8:	681b      	ldr	r3, [r3, #0]
 80006ba:	461a      	mov	r2, r3
 80006bc:	4613      	mov	r3, r2
 80006be:	f043 0210 	orr.w	r2, r3, #16
 80006c2:	4b07      	ldr	r3, [pc, #28]	; (80006e0 <stm32__device__enable_clock+0xb4>)
 80006c4:	334c      	adds	r3, #76	; 0x4c
 80006c6:	601a      	str	r2, [r3, #0]
 80006c8:	e006      	b.n	80006d8 <stm32__device__enable_clock+0xac>
 80006ca:	4b0a      	ldr	r3, [pc, #40]	; (80006f4 <stm32__device__enable_clock+0xc8>)
 80006cc:	4c0a      	ldr	r4, [pc, #40]	; (80006f8 <stm32__device__enable_clock+0xcc>)
 80006ce:	480b      	ldr	r0, [pc, #44]	; (80006fc <stm32__device__enable_clock+0xd0>)
 80006d0:	461a      	mov	r2, r3
 80006d2:	4623      	mov	r3, r4
 80006d4:	f008 fc7c 	bl	8008fd0 <__gnat_raise_exception>
 80006d8:	370c      	adds	r7, #12
 80006da:	46bd      	mov	sp, r7
 80006dc:	bd90      	pop	{r4, r7, pc}
 80006de:	bf00      	nop
 80006e0:	40021000 	.word	0x40021000
 80006e4:	48000400 	.word	0x48000400
 80006e8:	48000800 	.word	0x48000800
 80006ec:	48000c00 	.word	0x48000c00
 80006f0:	48001000 	.word	0x48001000
 80006f4:	0800c960 	.word	0x0800c960
 80006f8:	0800c974 	.word	0x0800c974
 80006fc:	20000008 	.word	0x20000008

08000700 <stm32__device__enable_clock__3>:
 8000700:	b5f0      	push	{r4, r5, r6, r7, lr}
 8000702:	b085      	sub	sp, #20
 8000704:	af00      	add	r7, sp, #0
 8000706:	e9c7 0100 	strd	r0, r1, [r7]
 800070a:	687b      	ldr	r3, [r7, #4]
 800070c:	681c      	ldr	r4, [r3, #0]
 800070e:	687b      	ldr	r3, [r7, #4]
 8000710:	685e      	ldr	r6, [r3, #4]
 8000712:	4625      	mov	r5, r4
 8000714:	42b4      	cmp	r4, r6
 8000716:	dc25      	bgt.n	8000764 <stm32__device__enable_clock__3+0x64>
 8000718:	6838      	ldr	r0, [r7, #0]
 800071a:	4622      	mov	r2, r4
 800071c:	1b51      	subs	r1, r2, r5
 800071e:	460b      	mov	r3, r1
 8000720:	005b      	lsls	r3, r3, #1
 8000722:	440b      	add	r3, r1
 8000724:	009b      	lsls	r3, r3, #2
 8000726:	4403      	add	r3, r0
 8000728:	60fb      	str	r3, [r7, #12]
 800072a:	6838      	ldr	r0, [r7, #0]
 800072c:	1b51      	subs	r1, r2, r5
 800072e:	460b      	mov	r3, r1
 8000730:	005b      	lsls	r3, r3, #1
 8000732:	440b      	add	r3, r1
 8000734:	009b      	lsls	r3, r3, #2
 8000736:	4403      	add	r3, r0
 8000738:	685b      	ldr	r3, [r3, #4]
 800073a:	2b00      	cmp	r3, #0
 800073c:	d103      	bne.n	8000746 <stm32__device__enable_clock__3+0x46>
 800073e:	480b      	ldr	r0, [pc, #44]	; (800076c <stm32__device__enable_clock__3+0x6c>)
 8000740:	215c      	movs	r1, #92	; 0x5c
 8000742:	f008 fc87 	bl	8009054 <__gnat_rcheck_CE_Access_Check>
 8000746:	6839      	ldr	r1, [r7, #0]
 8000748:	1b52      	subs	r2, r2, r5
 800074a:	4613      	mov	r3, r2
 800074c:	005b      	lsls	r3, r3, #1
 800074e:	4413      	add	r3, r2
 8000750:	009b      	lsls	r3, r3, #2
 8000752:	440b      	add	r3, r1
 8000754:	685b      	ldr	r3, [r3, #4]
 8000756:	4618      	mov	r0, r3
 8000758:	f7ff ff68 	bl	800062c <stm32__device__enable_clock>
 800075c:	42b4      	cmp	r4, r6
 800075e:	d001      	beq.n	8000764 <stm32__device__enable_clock__3+0x64>
 8000760:	3401      	adds	r4, #1
 8000762:	e7d9      	b.n	8000718 <stm32__device__enable_clock__3+0x18>
 8000764:	3714      	adds	r7, #20
 8000766:	46bd      	mov	sp, r7
 8000768:	bdf0      	pop	{r4, r5, r6, r7, pc}
 800076a:	bf00      	nop
 800076c:	0800c97c 	.word	0x0800c97c

08000770 <stm32__device___elabs>:
 8000770:	b580      	push	{r7, lr}
 8000772:	b082      	sub	sp, #8
 8000774:	af02      	add	r7, sp, #8
 8000776:	4b9d      	ldr	r3, [pc, #628]	; (80009ec <stm32__device___elabs+0x27c>)
 8000778:	681b      	ldr	r3, [r3, #0]
 800077a:	4a9d      	ldr	r2, [pc, #628]	; (80009f0 <stm32__device___elabs+0x280>)
 800077c:	6053      	str	r3, [r2, #4]
 800077e:	4b9c      	ldr	r3, [pc, #624]	; (80009f0 <stm32__device___elabs+0x280>)
 8000780:	2201      	movs	r2, #1
 8000782:	811a      	strh	r2, [r3, #8]
 8000784:	4b9a      	ldr	r3, [pc, #616]	; (80009f0 <stm32__device___elabs+0x280>)
 8000786:	4a9b      	ldr	r2, [pc, #620]	; (80009f4 <stm32__device___elabs+0x284>)
 8000788:	601a      	str	r2, [r3, #0]
 800078a:	4a99      	ldr	r2, [pc, #612]	; (80009f0 <stm32__device___elabs+0x280>)
 800078c:	2300      	movs	r3, #0
 800078e:	9300      	str	r3, [sp, #0]
 8000790:	4610      	mov	r0, r2
 8000792:	4999      	ldr	r1, [pc, #612]	; (80009f8 <stm32__device___elabs+0x288>)
 8000794:	2201      	movs	r2, #1
 8000796:	2300      	movs	r3, #0
 8000798:	f007 fb38 	bl	8007e0c <ada__tags__register_interface_offset>
 800079c:	4b93      	ldr	r3, [pc, #588]	; (80009ec <stm32__device___elabs+0x27c>)
 800079e:	681b      	ldr	r3, [r3, #0]
 80007a0:	4a96      	ldr	r2, [pc, #600]	; (80009fc <stm32__device___elabs+0x28c>)
 80007a2:	6053      	str	r3, [r2, #4]
 80007a4:	4b95      	ldr	r3, [pc, #596]	; (80009fc <stm32__device___elabs+0x28c>)
 80007a6:	2202      	movs	r2, #2
 80007a8:	811a      	strh	r2, [r3, #8]
 80007aa:	4b94      	ldr	r3, [pc, #592]	; (80009fc <stm32__device___elabs+0x28c>)
 80007ac:	4a91      	ldr	r2, [pc, #580]	; (80009f4 <stm32__device___elabs+0x284>)
 80007ae:	601a      	str	r2, [r3, #0]
 80007b0:	4a92      	ldr	r2, [pc, #584]	; (80009fc <stm32__device___elabs+0x28c>)
 80007b2:	2300      	movs	r3, #0
 80007b4:	9300      	str	r3, [sp, #0]
 80007b6:	4610      	mov	r0, r2
 80007b8:	498f      	ldr	r1, [pc, #572]	; (80009f8 <stm32__device___elabs+0x288>)
 80007ba:	2201      	movs	r2, #1
 80007bc:	2300      	movs	r3, #0
 80007be:	f007 fb25 	bl	8007e0c <ada__tags__register_interface_offset>
 80007c2:	4b8a      	ldr	r3, [pc, #552]	; (80009ec <stm32__device___elabs+0x27c>)
 80007c4:	681b      	ldr	r3, [r3, #0]
 80007c6:	4a8e      	ldr	r2, [pc, #568]	; (8000a00 <stm32__device___elabs+0x290>)
 80007c8:	6053      	str	r3, [r2, #4]
 80007ca:	4b8d      	ldr	r3, [pc, #564]	; (8000a00 <stm32__device___elabs+0x290>)
 80007cc:	2204      	movs	r2, #4
 80007ce:	811a      	strh	r2, [r3, #8]
 80007d0:	4b8b      	ldr	r3, [pc, #556]	; (8000a00 <stm32__device___elabs+0x290>)
 80007d2:	4a88      	ldr	r2, [pc, #544]	; (80009f4 <stm32__device___elabs+0x284>)
 80007d4:	601a      	str	r2, [r3, #0]
 80007d6:	4a8a      	ldr	r2, [pc, #552]	; (8000a00 <stm32__device___elabs+0x290>)
 80007d8:	2300      	movs	r3, #0
 80007da:	9300      	str	r3, [sp, #0]
 80007dc:	4610      	mov	r0, r2
 80007de:	4986      	ldr	r1, [pc, #536]	; (80009f8 <stm32__device___elabs+0x288>)
 80007e0:	2201      	movs	r2, #1
 80007e2:	2300      	movs	r3, #0
 80007e4:	f007 fb12 	bl	8007e0c <ada__tags__register_interface_offset>
 80007e8:	4b80      	ldr	r3, [pc, #512]	; (80009ec <stm32__device___elabs+0x27c>)
 80007ea:	681b      	ldr	r3, [r3, #0]
 80007ec:	4a85      	ldr	r2, [pc, #532]	; (8000a04 <stm32__device___elabs+0x294>)
 80007ee:	6053      	str	r3, [r2, #4]
 80007f0:	4b84      	ldr	r3, [pc, #528]	; (8000a04 <stm32__device___elabs+0x294>)
 80007f2:	2208      	movs	r2, #8
 80007f4:	811a      	strh	r2, [r3, #8]
 80007f6:	4b83      	ldr	r3, [pc, #524]	; (8000a04 <stm32__device___elabs+0x294>)
 80007f8:	4a7e      	ldr	r2, [pc, #504]	; (80009f4 <stm32__device___elabs+0x284>)
 80007fa:	601a      	str	r2, [r3, #0]
 80007fc:	4a81      	ldr	r2, [pc, #516]	; (8000a04 <stm32__device___elabs+0x294>)
 80007fe:	2300      	movs	r3, #0
 8000800:	9300      	str	r3, [sp, #0]
 8000802:	4610      	mov	r0, r2
 8000804:	497c      	ldr	r1, [pc, #496]	; (80009f8 <stm32__device___elabs+0x288>)
 8000806:	2201      	movs	r2, #1
 8000808:	2300      	movs	r3, #0
 800080a:	f007 faff 	bl	8007e0c <ada__tags__register_interface_offset>
 800080e:	4b77      	ldr	r3, [pc, #476]	; (80009ec <stm32__device___elabs+0x27c>)
 8000810:	681b      	ldr	r3, [r3, #0]
 8000812:	4a7d      	ldr	r2, [pc, #500]	; (8000a08 <stm32__device___elabs+0x298>)
 8000814:	6053      	str	r3, [r2, #4]
 8000816:	4b7c      	ldr	r3, [pc, #496]	; (8000a08 <stm32__device___elabs+0x298>)
 8000818:	2210      	movs	r2, #16
 800081a:	811a      	strh	r2, [r3, #8]
 800081c:	4b7a      	ldr	r3, [pc, #488]	; (8000a08 <stm32__device___elabs+0x298>)
 800081e:	4a75      	ldr	r2, [pc, #468]	; (80009f4 <stm32__device___elabs+0x284>)
 8000820:	601a      	str	r2, [r3, #0]
 8000822:	4a79      	ldr	r2, [pc, #484]	; (8000a08 <stm32__device___elabs+0x298>)
 8000824:	2300      	movs	r3, #0
 8000826:	9300      	str	r3, [sp, #0]
 8000828:	4610      	mov	r0, r2
 800082a:	4973      	ldr	r1, [pc, #460]	; (80009f8 <stm32__device___elabs+0x288>)
 800082c:	2201      	movs	r2, #1
 800082e:	2300      	movs	r3, #0
 8000830:	f007 faec 	bl	8007e0c <ada__tags__register_interface_offset>
 8000834:	4b6d      	ldr	r3, [pc, #436]	; (80009ec <stm32__device___elabs+0x27c>)
 8000836:	681b      	ldr	r3, [r3, #0]
 8000838:	4a74      	ldr	r2, [pc, #464]	; (8000a0c <stm32__device___elabs+0x29c>)
 800083a:	6053      	str	r3, [r2, #4]
 800083c:	4b73      	ldr	r3, [pc, #460]	; (8000a0c <stm32__device___elabs+0x29c>)
 800083e:	2220      	movs	r2, #32
 8000840:	811a      	strh	r2, [r3, #8]
 8000842:	4b72      	ldr	r3, [pc, #456]	; (8000a0c <stm32__device___elabs+0x29c>)
 8000844:	4a6b      	ldr	r2, [pc, #428]	; (80009f4 <stm32__device___elabs+0x284>)
 8000846:	601a      	str	r2, [r3, #0]
 8000848:	4a70      	ldr	r2, [pc, #448]	; (8000a0c <stm32__device___elabs+0x29c>)
 800084a:	2300      	movs	r3, #0
 800084c:	9300      	str	r3, [sp, #0]
 800084e:	4610      	mov	r0, r2
 8000850:	4969      	ldr	r1, [pc, #420]	; (80009f8 <stm32__device___elabs+0x288>)
 8000852:	2201      	movs	r2, #1
 8000854:	2300      	movs	r3, #0
 8000856:	f007 fad9 	bl	8007e0c <ada__tags__register_interface_offset>
 800085a:	4b64      	ldr	r3, [pc, #400]	; (80009ec <stm32__device___elabs+0x27c>)
 800085c:	681b      	ldr	r3, [r3, #0]
 800085e:	4a6c      	ldr	r2, [pc, #432]	; (8000a10 <stm32__device___elabs+0x2a0>)
 8000860:	6053      	str	r3, [r2, #4]
 8000862:	4b6b      	ldr	r3, [pc, #428]	; (8000a10 <stm32__device___elabs+0x2a0>)
 8000864:	2240      	movs	r2, #64	; 0x40
 8000866:	811a      	strh	r2, [r3, #8]
 8000868:	4b69      	ldr	r3, [pc, #420]	; (8000a10 <stm32__device___elabs+0x2a0>)
 800086a:	4a62      	ldr	r2, [pc, #392]	; (80009f4 <stm32__device___elabs+0x284>)
 800086c:	601a      	str	r2, [r3, #0]
 800086e:	4a68      	ldr	r2, [pc, #416]	; (8000a10 <stm32__device___elabs+0x2a0>)
 8000870:	2300      	movs	r3, #0
 8000872:	9300      	str	r3, [sp, #0]
 8000874:	4610      	mov	r0, r2
 8000876:	4960      	ldr	r1, [pc, #384]	; (80009f8 <stm32__device___elabs+0x288>)
 8000878:	2201      	movs	r2, #1
 800087a:	2300      	movs	r3, #0
 800087c:	f007 fac6 	bl	8007e0c <ada__tags__register_interface_offset>
 8000880:	4b5a      	ldr	r3, [pc, #360]	; (80009ec <stm32__device___elabs+0x27c>)
 8000882:	681b      	ldr	r3, [r3, #0]
 8000884:	4a63      	ldr	r2, [pc, #396]	; (8000a14 <stm32__device___elabs+0x2a4>)
 8000886:	6053      	str	r3, [r2, #4]
 8000888:	4b62      	ldr	r3, [pc, #392]	; (8000a14 <stm32__device___elabs+0x2a4>)
 800088a:	2280      	movs	r2, #128	; 0x80
 800088c:	811a      	strh	r2, [r3, #8]
 800088e:	4b61      	ldr	r3, [pc, #388]	; (8000a14 <stm32__device___elabs+0x2a4>)
 8000890:	4a58      	ldr	r2, [pc, #352]	; (80009f4 <stm32__device___elabs+0x284>)
 8000892:	601a      	str	r2, [r3, #0]
 8000894:	4a5f      	ldr	r2, [pc, #380]	; (8000a14 <stm32__device___elabs+0x2a4>)
 8000896:	2300      	movs	r3, #0
 8000898:	9300      	str	r3, [sp, #0]
 800089a:	4610      	mov	r0, r2
 800089c:	4956      	ldr	r1, [pc, #344]	; (80009f8 <stm32__device___elabs+0x288>)
 800089e:	2201      	movs	r2, #1
 80008a0:	2300      	movs	r3, #0
 80008a2:	f007 fab3 	bl	8007e0c <ada__tags__register_interface_offset>
 80008a6:	4b51      	ldr	r3, [pc, #324]	; (80009ec <stm32__device___elabs+0x27c>)
 80008a8:	681b      	ldr	r3, [r3, #0]
 80008aa:	4a5b      	ldr	r2, [pc, #364]	; (8000a18 <stm32__device___elabs+0x2a8>)
 80008ac:	6053      	str	r3, [r2, #4]
 80008ae:	4b5a      	ldr	r3, [pc, #360]	; (8000a18 <stm32__device___elabs+0x2a8>)
 80008b0:	f44f 7280 	mov.w	r2, #256	; 0x100
 80008b4:	811a      	strh	r2, [r3, #8]
 80008b6:	4b58      	ldr	r3, [pc, #352]	; (8000a18 <stm32__device___elabs+0x2a8>)
 80008b8:	4a4e      	ldr	r2, [pc, #312]	; (80009f4 <stm32__device___elabs+0x284>)
 80008ba:	601a      	str	r2, [r3, #0]
 80008bc:	4a56      	ldr	r2, [pc, #344]	; (8000a18 <stm32__device___elabs+0x2a8>)
 80008be:	2300      	movs	r3, #0
 80008c0:	9300      	str	r3, [sp, #0]
 80008c2:	4610      	mov	r0, r2
 80008c4:	494c      	ldr	r1, [pc, #304]	; (80009f8 <stm32__device___elabs+0x288>)
 80008c6:	2201      	movs	r2, #1
 80008c8:	2300      	movs	r3, #0
 80008ca:	f007 fa9f 	bl	8007e0c <ada__tags__register_interface_offset>
 80008ce:	4b47      	ldr	r3, [pc, #284]	; (80009ec <stm32__device___elabs+0x27c>)
 80008d0:	681b      	ldr	r3, [r3, #0]
 80008d2:	4a52      	ldr	r2, [pc, #328]	; (8000a1c <stm32__device___elabs+0x2ac>)
 80008d4:	6053      	str	r3, [r2, #4]
 80008d6:	4b51      	ldr	r3, [pc, #324]	; (8000a1c <stm32__device___elabs+0x2ac>)
 80008d8:	f44f 7200 	mov.w	r2, #512	; 0x200
 80008dc:	811a      	strh	r2, [r3, #8]
 80008de:	4b4f      	ldr	r3, [pc, #316]	; (8000a1c <stm32__device___elabs+0x2ac>)
 80008e0:	4a44      	ldr	r2, [pc, #272]	; (80009f4 <stm32__device___elabs+0x284>)
 80008e2:	601a      	str	r2, [r3, #0]
 80008e4:	4a4d      	ldr	r2, [pc, #308]	; (8000a1c <stm32__device___elabs+0x2ac>)
 80008e6:	2300      	movs	r3, #0
 80008e8:	9300      	str	r3, [sp, #0]
 80008ea:	4610      	mov	r0, r2
 80008ec:	4942      	ldr	r1, [pc, #264]	; (80009f8 <stm32__device___elabs+0x288>)
 80008ee:	2201      	movs	r2, #1
 80008f0:	2300      	movs	r3, #0
 80008f2:	f007 fa8b 	bl	8007e0c <ada__tags__register_interface_offset>
 80008f6:	4b3d      	ldr	r3, [pc, #244]	; (80009ec <stm32__device___elabs+0x27c>)
 80008f8:	681b      	ldr	r3, [r3, #0]
 80008fa:	4a49      	ldr	r2, [pc, #292]	; (8000a20 <stm32__device___elabs+0x2b0>)
 80008fc:	6053      	str	r3, [r2, #4]
 80008fe:	4b48      	ldr	r3, [pc, #288]	; (8000a20 <stm32__device___elabs+0x2b0>)
 8000900:	f44f 6280 	mov.w	r2, #1024	; 0x400
 8000904:	811a      	strh	r2, [r3, #8]
 8000906:	4b46      	ldr	r3, [pc, #280]	; (8000a20 <stm32__device___elabs+0x2b0>)
 8000908:	4a3a      	ldr	r2, [pc, #232]	; (80009f4 <stm32__device___elabs+0x284>)
 800090a:	601a      	str	r2, [r3, #0]
 800090c:	4a44      	ldr	r2, [pc, #272]	; (8000a20 <stm32__device___elabs+0x2b0>)
 800090e:	2300      	movs	r3, #0
 8000910:	9300      	str	r3, [sp, #0]
 8000912:	4610      	mov	r0, r2
 8000914:	4938      	ldr	r1, [pc, #224]	; (80009f8 <stm32__device___elabs+0x288>)
 8000916:	2201      	movs	r2, #1
 8000918:	2300      	movs	r3, #0
 800091a:	f007 fa77 	bl	8007e0c <ada__tags__register_interface_offset>
 800091e:	4b33      	ldr	r3, [pc, #204]	; (80009ec <stm32__device___elabs+0x27c>)
 8000920:	681b      	ldr	r3, [r3, #0]
 8000922:	4a40      	ldr	r2, [pc, #256]	; (8000a24 <stm32__device___elabs+0x2b4>)
 8000924:	6053      	str	r3, [r2, #4]
 8000926:	4b3f      	ldr	r3, [pc, #252]	; (8000a24 <stm32__device___elabs+0x2b4>)
 8000928:	f44f 6200 	mov.w	r2, #2048	; 0x800
 800092c:	811a      	strh	r2, [r3, #8]
 800092e:	4b3d      	ldr	r3, [pc, #244]	; (8000a24 <stm32__device___elabs+0x2b4>)
 8000930:	4a30      	ldr	r2, [pc, #192]	; (80009f4 <stm32__device___elabs+0x284>)
 8000932:	601a      	str	r2, [r3, #0]
 8000934:	4a3b      	ldr	r2, [pc, #236]	; (8000a24 <stm32__device___elabs+0x2b4>)
 8000936:	2300      	movs	r3, #0
 8000938:	9300      	str	r3, [sp, #0]
 800093a:	4610      	mov	r0, r2
 800093c:	492e      	ldr	r1, [pc, #184]	; (80009f8 <stm32__device___elabs+0x288>)
 800093e:	2201      	movs	r2, #1
 8000940:	2300      	movs	r3, #0
 8000942:	f007 fa63 	bl	8007e0c <ada__tags__register_interface_offset>
 8000946:	4b29      	ldr	r3, [pc, #164]	; (80009ec <stm32__device___elabs+0x27c>)
 8000948:	681b      	ldr	r3, [r3, #0]
 800094a:	4a37      	ldr	r2, [pc, #220]	; (8000a28 <stm32__device___elabs+0x2b8>)
 800094c:	6053      	str	r3, [r2, #4]
 800094e:	4b36      	ldr	r3, [pc, #216]	; (8000a28 <stm32__device___elabs+0x2b8>)
 8000950:	f44f 5280 	mov.w	r2, #4096	; 0x1000
 8000954:	811a      	strh	r2, [r3, #8]
 8000956:	4b34      	ldr	r3, [pc, #208]	; (8000a28 <stm32__device___elabs+0x2b8>)
 8000958:	4a26      	ldr	r2, [pc, #152]	; (80009f4 <stm32__device___elabs+0x284>)
 800095a:	601a      	str	r2, [r3, #0]
 800095c:	4a32      	ldr	r2, [pc, #200]	; (8000a28 <stm32__device___elabs+0x2b8>)
 800095e:	2300      	movs	r3, #0
 8000960:	9300      	str	r3, [sp, #0]
 8000962:	4610      	mov	r0, r2
 8000964:	4924      	ldr	r1, [pc, #144]	; (80009f8 <stm32__device___elabs+0x288>)
 8000966:	2201      	movs	r2, #1
 8000968:	2300      	movs	r3, #0
 800096a:	f007 fa4f 	bl	8007e0c <ada__tags__register_interface_offset>
 800096e:	4b1f      	ldr	r3, [pc, #124]	; (80009ec <stm32__device___elabs+0x27c>)
 8000970:	681b      	ldr	r3, [r3, #0]
 8000972:	4a2e      	ldr	r2, [pc, #184]	; (8000a2c <stm32__device___elabs+0x2bc>)
 8000974:	6053      	str	r3, [r2, #4]
 8000976:	4b2d      	ldr	r3, [pc, #180]	; (8000a2c <stm32__device___elabs+0x2bc>)
 8000978:	f44f 5200 	mov.w	r2, #8192	; 0x2000
 800097c:	811a      	strh	r2, [r3, #8]
 800097e:	4b2b      	ldr	r3, [pc, #172]	; (8000a2c <stm32__device___elabs+0x2bc>)
 8000980:	4a1c      	ldr	r2, [pc, #112]	; (80009f4 <stm32__device___elabs+0x284>)
 8000982:	601a      	str	r2, [r3, #0]
 8000984:	4a29      	ldr	r2, [pc, #164]	; (8000a2c <stm32__device___elabs+0x2bc>)
 8000986:	2300      	movs	r3, #0
 8000988:	9300      	str	r3, [sp, #0]
 800098a:	4610      	mov	r0, r2
 800098c:	491a      	ldr	r1, [pc, #104]	; (80009f8 <stm32__device___elabs+0x288>)
 800098e:	2201      	movs	r2, #1
 8000990:	2300      	movs	r3, #0
 8000992:	f007 fa3b 	bl	8007e0c <ada__tags__register_interface_offset>
 8000996:	4b15      	ldr	r3, [pc, #84]	; (80009ec <stm32__device___elabs+0x27c>)
 8000998:	681b      	ldr	r3, [r3, #0]
 800099a:	4a25      	ldr	r2, [pc, #148]	; (8000a30 <stm32__device___elabs+0x2c0>)
 800099c:	6053      	str	r3, [r2, #4]
 800099e:	4b24      	ldr	r3, [pc, #144]	; (8000a30 <stm32__device___elabs+0x2c0>)
 80009a0:	f44f 4280 	mov.w	r2, #16384	; 0x4000
 80009a4:	811a      	strh	r2, [r3, #8]
 80009a6:	4b22      	ldr	r3, [pc, #136]	; (8000a30 <stm32__device___elabs+0x2c0>)
 80009a8:	4a12      	ldr	r2, [pc, #72]	; (80009f4 <stm32__device___elabs+0x284>)
 80009aa:	601a      	str	r2, [r3, #0]
 80009ac:	4a20      	ldr	r2, [pc, #128]	; (8000a30 <stm32__device___elabs+0x2c0>)
 80009ae:	2300      	movs	r3, #0
 80009b0:	9300      	str	r3, [sp, #0]
 80009b2:	4610      	mov	r0, r2
 80009b4:	4910      	ldr	r1, [pc, #64]	; (80009f8 <stm32__device___elabs+0x288>)
 80009b6:	2201      	movs	r2, #1
 80009b8:	2300      	movs	r3, #0
 80009ba:	f007 fa27 	bl	8007e0c <ada__tags__register_interface_offset>
 80009be:	4b0b      	ldr	r3, [pc, #44]	; (80009ec <stm32__device___elabs+0x27c>)
 80009c0:	681b      	ldr	r3, [r3, #0]
 80009c2:	4a1c      	ldr	r2, [pc, #112]	; (8000a34 <stm32__device___elabs+0x2c4>)
 80009c4:	6053      	str	r3, [r2, #4]
 80009c6:	4b1b      	ldr	r3, [pc, #108]	; (8000a34 <stm32__device___elabs+0x2c4>)
 80009c8:	f44f 4200 	mov.w	r2, #32768	; 0x8000
 80009cc:	811a      	strh	r2, [r3, #8]
 80009ce:	4b19      	ldr	r3, [pc, #100]	; (8000a34 <stm32__device___elabs+0x2c4>)
 80009d0:	4a08      	ldr	r2, [pc, #32]	; (80009f4 <stm32__device___elabs+0x284>)
 80009d2:	601a      	str	r2, [r3, #0]
 80009d4:	4a17      	ldr	r2, [pc, #92]	; (8000a34 <stm32__device___elabs+0x2c4>)
 80009d6:	2300      	movs	r3, #0
 80009d8:	9300      	str	r3, [sp, #0]
 80009da:	4610      	mov	r0, r2
 80009dc:	4906      	ldr	r1, [pc, #24]	; (80009f8 <stm32__device___elabs+0x288>)
 80009de:	2201      	movs	r2, #1
 80009e0:	2300      	movs	r3, #0
 80009e2:	f007 fa13 	bl	8007e0c <ada__tags__register_interface_offset>
 80009e6:	4b14      	ldr	r3, [pc, #80]	; (8000a38 <stm32__device___elabs+0x2c8>)
 80009e8:	681b      	ldr	r3, [r3, #0]
 80009ea:	e027      	b.n	8000a3c <stm32__device___elabs+0x2cc>
 80009ec:	20000020 	.word	0x20000020
 80009f0:	200002c0 	.word	0x200002c0
 80009f4:	0800ccac 	.word	0x0800ccac
 80009f8:	0800d110 	.word	0x0800d110
 80009fc:	200002cc 	.word	0x200002cc
 8000a00:	200002d8 	.word	0x200002d8
 8000a04:	200002e4 	.word	0x200002e4
 8000a08:	200002f0 	.word	0x200002f0
 8000a0c:	200002fc 	.word	0x200002fc
 8000a10:	20000308 	.word	0x20000308
 8000a14:	20000314 	.word	0x20000314
 8000a18:	20000320 	.word	0x20000320
 8000a1c:	2000032c 	.word	0x2000032c
 8000a20:	20000338 	.word	0x20000338
 8000a24:	20000344 	.word	0x20000344
 8000a28:	20000350 	.word	0x20000350
 8000a2c:	2000035c 	.word	0x2000035c
 8000a30:	20000368 	.word	0x20000368
 8000a34:	20000374 	.word	0x20000374
 8000a38:	20000024 	.word	0x20000024
 8000a3c:	4a9d      	ldr	r2, [pc, #628]	; (8000cb4 <stm32__device___elabs+0x544>)
 8000a3e:	6053      	str	r3, [r2, #4]
 8000a40:	4b9c      	ldr	r3, [pc, #624]	; (8000cb4 <stm32__device___elabs+0x544>)
 8000a42:	2201      	movs	r2, #1
 8000a44:	811a      	strh	r2, [r3, #8]
 8000a46:	4b9b      	ldr	r3, [pc, #620]	; (8000cb4 <stm32__device___elabs+0x544>)
 8000a48:	4a9b      	ldr	r2, [pc, #620]	; (8000cb8 <stm32__device___elabs+0x548>)
 8000a4a:	601a      	str	r2, [r3, #0]
 8000a4c:	4a99      	ldr	r2, [pc, #612]	; (8000cb4 <stm32__device___elabs+0x544>)
 8000a4e:	2300      	movs	r3, #0
 8000a50:	9300      	str	r3, [sp, #0]
 8000a52:	4610      	mov	r0, r2
 8000a54:	4999      	ldr	r1, [pc, #612]	; (8000cbc <stm32__device___elabs+0x54c>)
 8000a56:	2201      	movs	r2, #1
 8000a58:	2300      	movs	r3, #0
 8000a5a:	f007 f9d7 	bl	8007e0c <ada__tags__register_interface_offset>
 8000a5e:	4b98      	ldr	r3, [pc, #608]	; (8000cc0 <stm32__device___elabs+0x550>)
 8000a60:	681b      	ldr	r3, [r3, #0]
 8000a62:	4a98      	ldr	r2, [pc, #608]	; (8000cc4 <stm32__device___elabs+0x554>)
 8000a64:	6053      	str	r3, [r2, #4]
 8000a66:	4b97      	ldr	r3, [pc, #604]	; (8000cc4 <stm32__device___elabs+0x554>)
 8000a68:	2202      	movs	r2, #2
 8000a6a:	811a      	strh	r2, [r3, #8]
 8000a6c:	4b95      	ldr	r3, [pc, #596]	; (8000cc4 <stm32__device___elabs+0x554>)
 8000a6e:	4a92      	ldr	r2, [pc, #584]	; (8000cb8 <stm32__device___elabs+0x548>)
 8000a70:	601a      	str	r2, [r3, #0]
 8000a72:	4a94      	ldr	r2, [pc, #592]	; (8000cc4 <stm32__device___elabs+0x554>)
 8000a74:	2300      	movs	r3, #0
 8000a76:	9300      	str	r3, [sp, #0]
 8000a78:	4610      	mov	r0, r2
 8000a7a:	4990      	ldr	r1, [pc, #576]	; (8000cbc <stm32__device___elabs+0x54c>)
 8000a7c:	2201      	movs	r2, #1
 8000a7e:	2300      	movs	r3, #0
 8000a80:	f007 f9c4 	bl	8007e0c <ada__tags__register_interface_offset>
 8000a84:	4b8e      	ldr	r3, [pc, #568]	; (8000cc0 <stm32__device___elabs+0x550>)
 8000a86:	681b      	ldr	r3, [r3, #0]
 8000a88:	4a8f      	ldr	r2, [pc, #572]	; (8000cc8 <stm32__device___elabs+0x558>)
 8000a8a:	6053      	str	r3, [r2, #4]
 8000a8c:	4b8e      	ldr	r3, [pc, #568]	; (8000cc8 <stm32__device___elabs+0x558>)
 8000a8e:	2204      	movs	r2, #4
 8000a90:	811a      	strh	r2, [r3, #8]
 8000a92:	4b8d      	ldr	r3, [pc, #564]	; (8000cc8 <stm32__device___elabs+0x558>)
 8000a94:	4a88      	ldr	r2, [pc, #544]	; (8000cb8 <stm32__device___elabs+0x548>)
 8000a96:	601a      	str	r2, [r3, #0]
 8000a98:	4a8b      	ldr	r2, [pc, #556]	; (8000cc8 <stm32__device___elabs+0x558>)
 8000a9a:	2300      	movs	r3, #0
 8000a9c:	9300      	str	r3, [sp, #0]
 8000a9e:	4610      	mov	r0, r2
 8000aa0:	4986      	ldr	r1, [pc, #536]	; (8000cbc <stm32__device___elabs+0x54c>)
 8000aa2:	2201      	movs	r2, #1
 8000aa4:	2300      	movs	r3, #0
 8000aa6:	f007 f9b1 	bl	8007e0c <ada__tags__register_interface_offset>
 8000aaa:	4b85      	ldr	r3, [pc, #532]	; (8000cc0 <stm32__device___elabs+0x550>)
 8000aac:	681b      	ldr	r3, [r3, #0]
 8000aae:	4a87      	ldr	r2, [pc, #540]	; (8000ccc <stm32__device___elabs+0x55c>)
 8000ab0:	6053      	str	r3, [r2, #4]
 8000ab2:	4b86      	ldr	r3, [pc, #536]	; (8000ccc <stm32__device___elabs+0x55c>)
 8000ab4:	2208      	movs	r2, #8
 8000ab6:	811a      	strh	r2, [r3, #8]
 8000ab8:	4b84      	ldr	r3, [pc, #528]	; (8000ccc <stm32__device___elabs+0x55c>)
 8000aba:	4a7f      	ldr	r2, [pc, #508]	; (8000cb8 <stm32__device___elabs+0x548>)
 8000abc:	601a      	str	r2, [r3, #0]
 8000abe:	4a83      	ldr	r2, [pc, #524]	; (8000ccc <stm32__device___elabs+0x55c>)
 8000ac0:	2300      	movs	r3, #0
 8000ac2:	9300      	str	r3, [sp, #0]
 8000ac4:	4610      	mov	r0, r2
 8000ac6:	497d      	ldr	r1, [pc, #500]	; (8000cbc <stm32__device___elabs+0x54c>)
 8000ac8:	2201      	movs	r2, #1
 8000aca:	2300      	movs	r3, #0
 8000acc:	f007 f99e 	bl	8007e0c <ada__tags__register_interface_offset>
 8000ad0:	4b7b      	ldr	r3, [pc, #492]	; (8000cc0 <stm32__device___elabs+0x550>)
 8000ad2:	681b      	ldr	r3, [r3, #0]
 8000ad4:	4a7e      	ldr	r2, [pc, #504]	; (8000cd0 <stm32__device___elabs+0x560>)
 8000ad6:	6053      	str	r3, [r2, #4]
 8000ad8:	4b7d      	ldr	r3, [pc, #500]	; (8000cd0 <stm32__device___elabs+0x560>)
 8000ada:	2210      	movs	r2, #16
 8000adc:	811a      	strh	r2, [r3, #8]
 8000ade:	4b7c      	ldr	r3, [pc, #496]	; (8000cd0 <stm32__device___elabs+0x560>)
 8000ae0:	4a75      	ldr	r2, [pc, #468]	; (8000cb8 <stm32__device___elabs+0x548>)
 8000ae2:	601a      	str	r2, [r3, #0]
 8000ae4:	4a7a      	ldr	r2, [pc, #488]	; (8000cd0 <stm32__device___elabs+0x560>)
 8000ae6:	2300      	movs	r3, #0
 8000ae8:	9300      	str	r3, [sp, #0]
 8000aea:	4610      	mov	r0, r2
 8000aec:	4973      	ldr	r1, [pc, #460]	; (8000cbc <stm32__device___elabs+0x54c>)
 8000aee:	2201      	movs	r2, #1
 8000af0:	2300      	movs	r3, #0
 8000af2:	f007 f98b 	bl	8007e0c <ada__tags__register_interface_offset>
 8000af6:	4b72      	ldr	r3, [pc, #456]	; (8000cc0 <stm32__device___elabs+0x550>)
 8000af8:	681b      	ldr	r3, [r3, #0]
 8000afa:	4a76      	ldr	r2, [pc, #472]	; (8000cd4 <stm32__device___elabs+0x564>)
 8000afc:	6053      	str	r3, [r2, #4]
 8000afe:	4b75      	ldr	r3, [pc, #468]	; (8000cd4 <stm32__device___elabs+0x564>)
 8000b00:	2220      	movs	r2, #32
 8000b02:	811a      	strh	r2, [r3, #8]
 8000b04:	4b73      	ldr	r3, [pc, #460]	; (8000cd4 <stm32__device___elabs+0x564>)
 8000b06:	4a6c      	ldr	r2, [pc, #432]	; (8000cb8 <stm32__device___elabs+0x548>)
 8000b08:	601a      	str	r2, [r3, #0]
 8000b0a:	4a72      	ldr	r2, [pc, #456]	; (8000cd4 <stm32__device___elabs+0x564>)
 8000b0c:	2300      	movs	r3, #0
 8000b0e:	9300      	str	r3, [sp, #0]
 8000b10:	4610      	mov	r0, r2
 8000b12:	496a      	ldr	r1, [pc, #424]	; (8000cbc <stm32__device___elabs+0x54c>)
 8000b14:	2201      	movs	r2, #1
 8000b16:	2300      	movs	r3, #0
 8000b18:	f007 f978 	bl	8007e0c <ada__tags__register_interface_offset>
 8000b1c:	4b68      	ldr	r3, [pc, #416]	; (8000cc0 <stm32__device___elabs+0x550>)
 8000b1e:	681b      	ldr	r3, [r3, #0]
 8000b20:	4a6d      	ldr	r2, [pc, #436]	; (8000cd8 <stm32__device___elabs+0x568>)
 8000b22:	6053      	str	r3, [r2, #4]
 8000b24:	4b6c      	ldr	r3, [pc, #432]	; (8000cd8 <stm32__device___elabs+0x568>)
 8000b26:	2240      	movs	r2, #64	; 0x40
 8000b28:	811a      	strh	r2, [r3, #8]
 8000b2a:	4b6b      	ldr	r3, [pc, #428]	; (8000cd8 <stm32__device___elabs+0x568>)
 8000b2c:	4a62      	ldr	r2, [pc, #392]	; (8000cb8 <stm32__device___elabs+0x548>)
 8000b2e:	601a      	str	r2, [r3, #0]
 8000b30:	4a69      	ldr	r2, [pc, #420]	; (8000cd8 <stm32__device___elabs+0x568>)
 8000b32:	2300      	movs	r3, #0
 8000b34:	9300      	str	r3, [sp, #0]
 8000b36:	4610      	mov	r0, r2
 8000b38:	4960      	ldr	r1, [pc, #384]	; (8000cbc <stm32__device___elabs+0x54c>)
 8000b3a:	2201      	movs	r2, #1
 8000b3c:	2300      	movs	r3, #0
 8000b3e:	f007 f965 	bl	8007e0c <ada__tags__register_interface_offset>
 8000b42:	4b5f      	ldr	r3, [pc, #380]	; (8000cc0 <stm32__device___elabs+0x550>)
 8000b44:	681b      	ldr	r3, [r3, #0]
 8000b46:	4a65      	ldr	r2, [pc, #404]	; (8000cdc <stm32__device___elabs+0x56c>)
 8000b48:	6053      	str	r3, [r2, #4]
 8000b4a:	4b64      	ldr	r3, [pc, #400]	; (8000cdc <stm32__device___elabs+0x56c>)
 8000b4c:	2280      	movs	r2, #128	; 0x80
 8000b4e:	811a      	strh	r2, [r3, #8]
 8000b50:	4b62      	ldr	r3, [pc, #392]	; (8000cdc <stm32__device___elabs+0x56c>)
 8000b52:	4a59      	ldr	r2, [pc, #356]	; (8000cb8 <stm32__device___elabs+0x548>)
 8000b54:	601a      	str	r2, [r3, #0]
 8000b56:	4a61      	ldr	r2, [pc, #388]	; (8000cdc <stm32__device___elabs+0x56c>)
 8000b58:	2300      	movs	r3, #0
 8000b5a:	9300      	str	r3, [sp, #0]
 8000b5c:	4610      	mov	r0, r2
 8000b5e:	4957      	ldr	r1, [pc, #348]	; (8000cbc <stm32__device___elabs+0x54c>)
 8000b60:	2201      	movs	r2, #1
 8000b62:	2300      	movs	r3, #0
 8000b64:	f007 f952 	bl	8007e0c <ada__tags__register_interface_offset>
 8000b68:	4b55      	ldr	r3, [pc, #340]	; (8000cc0 <stm32__device___elabs+0x550>)
 8000b6a:	681b      	ldr	r3, [r3, #0]
 8000b6c:	4a5c      	ldr	r2, [pc, #368]	; (8000ce0 <stm32__device___elabs+0x570>)
 8000b6e:	6053      	str	r3, [r2, #4]
 8000b70:	4b5b      	ldr	r3, [pc, #364]	; (8000ce0 <stm32__device___elabs+0x570>)
 8000b72:	f44f 7280 	mov.w	r2, #256	; 0x100
 8000b76:	811a      	strh	r2, [r3, #8]
 8000b78:	4b59      	ldr	r3, [pc, #356]	; (8000ce0 <stm32__device___elabs+0x570>)
 8000b7a:	4a4f      	ldr	r2, [pc, #316]	; (8000cb8 <stm32__device___elabs+0x548>)
 8000b7c:	601a      	str	r2, [r3, #0]
 8000b7e:	4a58      	ldr	r2, [pc, #352]	; (8000ce0 <stm32__device___elabs+0x570>)
 8000b80:	2300      	movs	r3, #0
 8000b82:	9300      	str	r3, [sp, #0]
 8000b84:	4610      	mov	r0, r2
 8000b86:	494d      	ldr	r1, [pc, #308]	; (8000cbc <stm32__device___elabs+0x54c>)
 8000b88:	2201      	movs	r2, #1
 8000b8a:	2300      	movs	r3, #0
 8000b8c:	f007 f93e 	bl	8007e0c <ada__tags__register_interface_offset>
 8000b90:	4b4b      	ldr	r3, [pc, #300]	; (8000cc0 <stm32__device___elabs+0x550>)
 8000b92:	681b      	ldr	r3, [r3, #0]
 8000b94:	4a53      	ldr	r2, [pc, #332]	; (8000ce4 <stm32__device___elabs+0x574>)
 8000b96:	6053      	str	r3, [r2, #4]
 8000b98:	4b52      	ldr	r3, [pc, #328]	; (8000ce4 <stm32__device___elabs+0x574>)
 8000b9a:	f44f 7200 	mov.w	r2, #512	; 0x200
 8000b9e:	811a      	strh	r2, [r3, #8]
 8000ba0:	4b50      	ldr	r3, [pc, #320]	; (8000ce4 <stm32__device___elabs+0x574>)
 8000ba2:	4a45      	ldr	r2, [pc, #276]	; (8000cb8 <stm32__device___elabs+0x548>)
 8000ba4:	601a      	str	r2, [r3, #0]
 8000ba6:	4a4f      	ldr	r2, [pc, #316]	; (8000ce4 <stm32__device___elabs+0x574>)
 8000ba8:	2300      	movs	r3, #0
 8000baa:	9300      	str	r3, [sp, #0]
 8000bac:	4610      	mov	r0, r2
 8000bae:	4943      	ldr	r1, [pc, #268]	; (8000cbc <stm32__device___elabs+0x54c>)
 8000bb0:	2201      	movs	r2, #1
 8000bb2:	2300      	movs	r3, #0
 8000bb4:	f007 f92a 	bl	8007e0c <ada__tags__register_interface_offset>
 8000bb8:	4b41      	ldr	r3, [pc, #260]	; (8000cc0 <stm32__device___elabs+0x550>)
 8000bba:	681b      	ldr	r3, [r3, #0]
 8000bbc:	4a4a      	ldr	r2, [pc, #296]	; (8000ce8 <stm32__device___elabs+0x578>)
 8000bbe:	6053      	str	r3, [r2, #4]
 8000bc0:	4b49      	ldr	r3, [pc, #292]	; (8000ce8 <stm32__device___elabs+0x578>)
 8000bc2:	f44f 6280 	mov.w	r2, #1024	; 0x400
 8000bc6:	811a      	strh	r2, [r3, #8]
 8000bc8:	4b47      	ldr	r3, [pc, #284]	; (8000ce8 <stm32__device___elabs+0x578>)
 8000bca:	4a3b      	ldr	r2, [pc, #236]	; (8000cb8 <stm32__device___elabs+0x548>)
 8000bcc:	601a      	str	r2, [r3, #0]
 8000bce:	4a46      	ldr	r2, [pc, #280]	; (8000ce8 <stm32__device___elabs+0x578>)
 8000bd0:	2300      	movs	r3, #0
 8000bd2:	9300      	str	r3, [sp, #0]
 8000bd4:	4610      	mov	r0, r2
 8000bd6:	4939      	ldr	r1, [pc, #228]	; (8000cbc <stm32__device___elabs+0x54c>)
 8000bd8:	2201      	movs	r2, #1
 8000bda:	2300      	movs	r3, #0
 8000bdc:	f007 f916 	bl	8007e0c <ada__tags__register_interface_offset>
 8000be0:	4b37      	ldr	r3, [pc, #220]	; (8000cc0 <stm32__device___elabs+0x550>)
 8000be2:	681b      	ldr	r3, [r3, #0]
 8000be4:	4a41      	ldr	r2, [pc, #260]	; (8000cec <stm32__device___elabs+0x57c>)
 8000be6:	6053      	str	r3, [r2, #4]
 8000be8:	4b40      	ldr	r3, [pc, #256]	; (8000cec <stm32__device___elabs+0x57c>)
 8000bea:	f44f 6200 	mov.w	r2, #2048	; 0x800
 8000bee:	811a      	strh	r2, [r3, #8]
 8000bf0:	4b3e      	ldr	r3, [pc, #248]	; (8000cec <stm32__device___elabs+0x57c>)
 8000bf2:	4a31      	ldr	r2, [pc, #196]	; (8000cb8 <stm32__device___elabs+0x548>)
 8000bf4:	601a      	str	r2, [r3, #0]
 8000bf6:	4a3d      	ldr	r2, [pc, #244]	; (8000cec <stm32__device___elabs+0x57c>)
 8000bf8:	2300      	movs	r3, #0
 8000bfa:	9300      	str	r3, [sp, #0]
 8000bfc:	4610      	mov	r0, r2
 8000bfe:	492f      	ldr	r1, [pc, #188]	; (8000cbc <stm32__device___elabs+0x54c>)
 8000c00:	2201      	movs	r2, #1
 8000c02:	2300      	movs	r3, #0
 8000c04:	f007 f902 	bl	8007e0c <ada__tags__register_interface_offset>
 8000c08:	4b2d      	ldr	r3, [pc, #180]	; (8000cc0 <stm32__device___elabs+0x550>)
 8000c0a:	681b      	ldr	r3, [r3, #0]
 8000c0c:	4a38      	ldr	r2, [pc, #224]	; (8000cf0 <stm32__device___elabs+0x580>)
 8000c0e:	6053      	str	r3, [r2, #4]
 8000c10:	4b37      	ldr	r3, [pc, #220]	; (8000cf0 <stm32__device___elabs+0x580>)
 8000c12:	f44f 5280 	mov.w	r2, #4096	; 0x1000
 8000c16:	811a      	strh	r2, [r3, #8]
 8000c18:	4b35      	ldr	r3, [pc, #212]	; (8000cf0 <stm32__device___elabs+0x580>)
 8000c1a:	4a27      	ldr	r2, [pc, #156]	; (8000cb8 <stm32__device___elabs+0x548>)
 8000c1c:	601a      	str	r2, [r3, #0]
 8000c1e:	4a34      	ldr	r2, [pc, #208]	; (8000cf0 <stm32__device___elabs+0x580>)
 8000c20:	2300      	movs	r3, #0
 8000c22:	9300      	str	r3, [sp, #0]
 8000c24:	4610      	mov	r0, r2
 8000c26:	4925      	ldr	r1, [pc, #148]	; (8000cbc <stm32__device___elabs+0x54c>)
 8000c28:	2201      	movs	r2, #1
 8000c2a:	2300      	movs	r3, #0
 8000c2c:	f007 f8ee 	bl	8007e0c <ada__tags__register_interface_offset>
 8000c30:	4b23      	ldr	r3, [pc, #140]	; (8000cc0 <stm32__device___elabs+0x550>)
 8000c32:	681b      	ldr	r3, [r3, #0]
 8000c34:	4a2f      	ldr	r2, [pc, #188]	; (8000cf4 <stm32__device___elabs+0x584>)
 8000c36:	6053      	str	r3, [r2, #4]
 8000c38:	4b2e      	ldr	r3, [pc, #184]	; (8000cf4 <stm32__device___elabs+0x584>)
 8000c3a:	f44f 5200 	mov.w	r2, #8192	; 0x2000
 8000c3e:	811a      	strh	r2, [r3, #8]
 8000c40:	4b2c      	ldr	r3, [pc, #176]	; (8000cf4 <stm32__device___elabs+0x584>)
 8000c42:	4a1d      	ldr	r2, [pc, #116]	; (8000cb8 <stm32__device___elabs+0x548>)
 8000c44:	601a      	str	r2, [r3, #0]
 8000c46:	4a2b      	ldr	r2, [pc, #172]	; (8000cf4 <stm32__device___elabs+0x584>)
 8000c48:	2300      	movs	r3, #0
 8000c4a:	9300      	str	r3, [sp, #0]
 8000c4c:	4610      	mov	r0, r2
 8000c4e:	491b      	ldr	r1, [pc, #108]	; (8000cbc <stm32__device___elabs+0x54c>)
 8000c50:	2201      	movs	r2, #1
 8000c52:	2300      	movs	r3, #0
 8000c54:	f007 f8da 	bl	8007e0c <ada__tags__register_interface_offset>
 8000c58:	4b19      	ldr	r3, [pc, #100]	; (8000cc0 <stm32__device___elabs+0x550>)
 8000c5a:	681b      	ldr	r3, [r3, #0]
 8000c5c:	4a26      	ldr	r2, [pc, #152]	; (8000cf8 <stm32__device___elabs+0x588>)
 8000c5e:	6053      	str	r3, [r2, #4]
 8000c60:	4b25      	ldr	r3, [pc, #148]	; (8000cf8 <stm32__device___elabs+0x588>)
 8000c62:	f44f 4280 	mov.w	r2, #16384	; 0x4000
 8000c66:	811a      	strh	r2, [r3, #8]
 8000c68:	4b23      	ldr	r3, [pc, #140]	; (8000cf8 <stm32__device___elabs+0x588>)
 8000c6a:	4a13      	ldr	r2, [pc, #76]	; (8000cb8 <stm32__device___elabs+0x548>)
 8000c6c:	601a      	str	r2, [r3, #0]
 8000c6e:	4a22      	ldr	r2, [pc, #136]	; (8000cf8 <stm32__device___elabs+0x588>)
 8000c70:	2300      	movs	r3, #0
 8000c72:	9300      	str	r3, [sp, #0]
 8000c74:	4610      	mov	r0, r2
 8000c76:	4911      	ldr	r1, [pc, #68]	; (8000cbc <stm32__device___elabs+0x54c>)
 8000c78:	2201      	movs	r2, #1
 8000c7a:	2300      	movs	r3, #0
 8000c7c:	f007 f8c6 	bl	8007e0c <ada__tags__register_interface_offset>
 8000c80:	4b0f      	ldr	r3, [pc, #60]	; (8000cc0 <stm32__device___elabs+0x550>)
 8000c82:	681b      	ldr	r3, [r3, #0]
 8000c84:	4a1d      	ldr	r2, [pc, #116]	; (8000cfc <stm32__device___elabs+0x58c>)
 8000c86:	6053      	str	r3, [r2, #4]
 8000c88:	4b1c      	ldr	r3, [pc, #112]	; (8000cfc <stm32__device___elabs+0x58c>)
 8000c8a:	f44f 4200 	mov.w	r2, #32768	; 0x8000
 8000c8e:	811a      	strh	r2, [r3, #8]
 8000c90:	4b1a      	ldr	r3, [pc, #104]	; (8000cfc <stm32__device___elabs+0x58c>)
 8000c92:	4a09      	ldr	r2, [pc, #36]	; (8000cb8 <stm32__device___elabs+0x548>)
 8000c94:	601a      	str	r2, [r3, #0]
 8000c96:	4a19      	ldr	r2, [pc, #100]	; (8000cfc <stm32__device___elabs+0x58c>)
 8000c98:	2300      	movs	r3, #0
 8000c9a:	9300      	str	r3, [sp, #0]
 8000c9c:	4610      	mov	r0, r2
 8000c9e:	4907      	ldr	r1, [pc, #28]	; (8000cbc <stm32__device___elabs+0x54c>)
 8000ca0:	2201      	movs	r2, #1
 8000ca2:	2300      	movs	r3, #0
 8000ca4:	f007 f8b2 	bl	8007e0c <ada__tags__register_interface_offset>
 8000ca8:	4b15      	ldr	r3, [pc, #84]	; (8000d00 <stm32__device___elabs+0x590>)
 8000caa:	681b      	ldr	r3, [r3, #0]
 8000cac:	4a15      	ldr	r2, [pc, #84]	; (8000d04 <stm32__device___elabs+0x594>)
 8000cae:	6053      	str	r3, [r2, #4]
 8000cb0:	e02a      	b.n	8000d08 <stm32__device___elabs+0x598>
 8000cb2:	bf00      	nop
 8000cb4:	20000380 	.word	0x20000380
 8000cb8:	0800ccac 	.word	0x0800ccac
 8000cbc:	0800d110 	.word	0x0800d110
 8000cc0:	20000024 	.word	0x20000024
 8000cc4:	2000038c 	.word	0x2000038c
 8000cc8:	20000398 	.word	0x20000398
 8000ccc:	200003a4 	.word	0x200003a4
 8000cd0:	200003b0 	.word	0x200003b0
 8000cd4:	200003bc 	.word	0x200003bc
 8000cd8:	200003c8 	.word	0x200003c8
 8000cdc:	200003d4 	.word	0x200003d4
 8000ce0:	200003e0 	.word	0x200003e0
 8000ce4:	200003ec 	.word	0x200003ec
 8000ce8:	200003f8 	.word	0x200003f8
 8000cec:	20000404 	.word	0x20000404
 8000cf0:	20000410 	.word	0x20000410
 8000cf4:	2000041c 	.word	0x2000041c
 8000cf8:	20000428 	.word	0x20000428
 8000cfc:	20000434 	.word	0x20000434
 8000d00:	20000028 	.word	0x20000028
 8000d04:	20000440 	.word	0x20000440
 8000d08:	4b9d      	ldr	r3, [pc, #628]	; (8000f80 <stm32__device___elabs+0x810>)
 8000d0a:	2201      	movs	r2, #1
 8000d0c:	811a      	strh	r2, [r3, #8]
 8000d0e:	4b9c      	ldr	r3, [pc, #624]	; (8000f80 <stm32__device___elabs+0x810>)
 8000d10:	4a9c      	ldr	r2, [pc, #624]	; (8000f84 <stm32__device___elabs+0x814>)
 8000d12:	601a      	str	r2, [r3, #0]
 8000d14:	4a9a      	ldr	r2, [pc, #616]	; (8000f80 <stm32__device___elabs+0x810>)
 8000d16:	2300      	movs	r3, #0
 8000d18:	9300      	str	r3, [sp, #0]
 8000d1a:	4610      	mov	r0, r2
 8000d1c:	499a      	ldr	r1, [pc, #616]	; (8000f88 <stm32__device___elabs+0x818>)
 8000d1e:	2201      	movs	r2, #1
 8000d20:	2300      	movs	r3, #0
 8000d22:	f007 f873 	bl	8007e0c <ada__tags__register_interface_offset>
 8000d26:	4b99      	ldr	r3, [pc, #612]	; (8000f8c <stm32__device___elabs+0x81c>)
 8000d28:	681b      	ldr	r3, [r3, #0]
 8000d2a:	4a99      	ldr	r2, [pc, #612]	; (8000f90 <stm32__device___elabs+0x820>)
 8000d2c:	6053      	str	r3, [r2, #4]
 8000d2e:	4b98      	ldr	r3, [pc, #608]	; (8000f90 <stm32__device___elabs+0x820>)
 8000d30:	2202      	movs	r2, #2
 8000d32:	811a      	strh	r2, [r3, #8]
 8000d34:	4b96      	ldr	r3, [pc, #600]	; (8000f90 <stm32__device___elabs+0x820>)
 8000d36:	4a93      	ldr	r2, [pc, #588]	; (8000f84 <stm32__device___elabs+0x814>)
 8000d38:	601a      	str	r2, [r3, #0]
 8000d3a:	4a95      	ldr	r2, [pc, #596]	; (8000f90 <stm32__device___elabs+0x820>)
 8000d3c:	2300      	movs	r3, #0
 8000d3e:	9300      	str	r3, [sp, #0]
 8000d40:	4610      	mov	r0, r2
 8000d42:	4991      	ldr	r1, [pc, #580]	; (8000f88 <stm32__device___elabs+0x818>)
 8000d44:	2201      	movs	r2, #1
 8000d46:	2300      	movs	r3, #0
 8000d48:	f007 f860 	bl	8007e0c <ada__tags__register_interface_offset>
 8000d4c:	4b8f      	ldr	r3, [pc, #572]	; (8000f8c <stm32__device___elabs+0x81c>)
 8000d4e:	681b      	ldr	r3, [r3, #0]
 8000d50:	4a90      	ldr	r2, [pc, #576]	; (8000f94 <stm32__device___elabs+0x824>)
 8000d52:	6053      	str	r3, [r2, #4]
 8000d54:	4b8f      	ldr	r3, [pc, #572]	; (8000f94 <stm32__device___elabs+0x824>)
 8000d56:	2204      	movs	r2, #4
 8000d58:	811a      	strh	r2, [r3, #8]
 8000d5a:	4b8e      	ldr	r3, [pc, #568]	; (8000f94 <stm32__device___elabs+0x824>)
 8000d5c:	4a89      	ldr	r2, [pc, #548]	; (8000f84 <stm32__device___elabs+0x814>)
 8000d5e:	601a      	str	r2, [r3, #0]
 8000d60:	4a8c      	ldr	r2, [pc, #560]	; (8000f94 <stm32__device___elabs+0x824>)
 8000d62:	2300      	movs	r3, #0
 8000d64:	9300      	str	r3, [sp, #0]
 8000d66:	4610      	mov	r0, r2
 8000d68:	4987      	ldr	r1, [pc, #540]	; (8000f88 <stm32__device___elabs+0x818>)
 8000d6a:	2201      	movs	r2, #1
 8000d6c:	2300      	movs	r3, #0
 8000d6e:	f007 f84d 	bl	8007e0c <ada__tags__register_interface_offset>
 8000d72:	4b86      	ldr	r3, [pc, #536]	; (8000f8c <stm32__device___elabs+0x81c>)
 8000d74:	681b      	ldr	r3, [r3, #0]
 8000d76:	4a88      	ldr	r2, [pc, #544]	; (8000f98 <stm32__device___elabs+0x828>)
 8000d78:	6053      	str	r3, [r2, #4]
 8000d7a:	4b87      	ldr	r3, [pc, #540]	; (8000f98 <stm32__device___elabs+0x828>)
 8000d7c:	2208      	movs	r2, #8
 8000d7e:	811a      	strh	r2, [r3, #8]
 8000d80:	4b85      	ldr	r3, [pc, #532]	; (8000f98 <stm32__device___elabs+0x828>)
 8000d82:	4a80      	ldr	r2, [pc, #512]	; (8000f84 <stm32__device___elabs+0x814>)
 8000d84:	601a      	str	r2, [r3, #0]
 8000d86:	4a84      	ldr	r2, [pc, #528]	; (8000f98 <stm32__device___elabs+0x828>)
 8000d88:	2300      	movs	r3, #0
 8000d8a:	9300      	str	r3, [sp, #0]
 8000d8c:	4610      	mov	r0, r2
 8000d8e:	497e      	ldr	r1, [pc, #504]	; (8000f88 <stm32__device___elabs+0x818>)
 8000d90:	2201      	movs	r2, #1
 8000d92:	2300      	movs	r3, #0
 8000d94:	f007 f83a 	bl	8007e0c <ada__tags__register_interface_offset>
 8000d98:	4b7c      	ldr	r3, [pc, #496]	; (8000f8c <stm32__device___elabs+0x81c>)
 8000d9a:	681b      	ldr	r3, [r3, #0]
 8000d9c:	4a7f      	ldr	r2, [pc, #508]	; (8000f9c <stm32__device___elabs+0x82c>)
 8000d9e:	6053      	str	r3, [r2, #4]
 8000da0:	4b7e      	ldr	r3, [pc, #504]	; (8000f9c <stm32__device___elabs+0x82c>)
 8000da2:	2210      	movs	r2, #16
 8000da4:	811a      	strh	r2, [r3, #8]
 8000da6:	4b7d      	ldr	r3, [pc, #500]	; (8000f9c <stm32__device___elabs+0x82c>)
 8000da8:	4a76      	ldr	r2, [pc, #472]	; (8000f84 <stm32__device___elabs+0x814>)
 8000daa:	601a      	str	r2, [r3, #0]
 8000dac:	4a7b      	ldr	r2, [pc, #492]	; (8000f9c <stm32__device___elabs+0x82c>)
 8000dae:	2300      	movs	r3, #0
 8000db0:	9300      	str	r3, [sp, #0]
 8000db2:	4610      	mov	r0, r2
 8000db4:	4974      	ldr	r1, [pc, #464]	; (8000f88 <stm32__device___elabs+0x818>)
 8000db6:	2201      	movs	r2, #1
 8000db8:	2300      	movs	r3, #0
 8000dba:	f007 f827 	bl	8007e0c <ada__tags__register_interface_offset>
 8000dbe:	4b73      	ldr	r3, [pc, #460]	; (8000f8c <stm32__device___elabs+0x81c>)
 8000dc0:	681b      	ldr	r3, [r3, #0]
 8000dc2:	4a77      	ldr	r2, [pc, #476]	; (8000fa0 <stm32__device___elabs+0x830>)
 8000dc4:	6053      	str	r3, [r2, #4]
 8000dc6:	4b76      	ldr	r3, [pc, #472]	; (8000fa0 <stm32__device___elabs+0x830>)
 8000dc8:	2220      	movs	r2, #32
 8000dca:	811a      	strh	r2, [r3, #8]
 8000dcc:	4b74      	ldr	r3, [pc, #464]	; (8000fa0 <stm32__device___elabs+0x830>)
 8000dce:	4a6d      	ldr	r2, [pc, #436]	; (8000f84 <stm32__device___elabs+0x814>)
 8000dd0:	601a      	str	r2, [r3, #0]
 8000dd2:	4a73      	ldr	r2, [pc, #460]	; (8000fa0 <stm32__device___elabs+0x830>)
 8000dd4:	2300      	movs	r3, #0
 8000dd6:	9300      	str	r3, [sp, #0]
 8000dd8:	4610      	mov	r0, r2
 8000dda:	496b      	ldr	r1, [pc, #428]	; (8000f88 <stm32__device___elabs+0x818>)
 8000ddc:	2201      	movs	r2, #1
 8000dde:	2300      	movs	r3, #0
 8000de0:	f007 f814 	bl	8007e0c <ada__tags__register_interface_offset>
 8000de4:	4b69      	ldr	r3, [pc, #420]	; (8000f8c <stm32__device___elabs+0x81c>)
 8000de6:	681b      	ldr	r3, [r3, #0]
 8000de8:	4a6e      	ldr	r2, [pc, #440]	; (8000fa4 <stm32__device___elabs+0x834>)
 8000dea:	6053      	str	r3, [r2, #4]
 8000dec:	4b6d      	ldr	r3, [pc, #436]	; (8000fa4 <stm32__device___elabs+0x834>)
 8000dee:	2240      	movs	r2, #64	; 0x40
 8000df0:	811a      	strh	r2, [r3, #8]
 8000df2:	4b6c      	ldr	r3, [pc, #432]	; (8000fa4 <stm32__device___elabs+0x834>)
 8000df4:	4a63      	ldr	r2, [pc, #396]	; (8000f84 <stm32__device___elabs+0x814>)
 8000df6:	601a      	str	r2, [r3, #0]
 8000df8:	4a6a      	ldr	r2, [pc, #424]	; (8000fa4 <stm32__device___elabs+0x834>)
 8000dfa:	2300      	movs	r3, #0
 8000dfc:	9300      	str	r3, [sp, #0]
 8000dfe:	4610      	mov	r0, r2
 8000e00:	4961      	ldr	r1, [pc, #388]	; (8000f88 <stm32__device___elabs+0x818>)
 8000e02:	2201      	movs	r2, #1
 8000e04:	2300      	movs	r3, #0
 8000e06:	f007 f801 	bl	8007e0c <ada__tags__register_interface_offset>
 8000e0a:	4b60      	ldr	r3, [pc, #384]	; (8000f8c <stm32__device___elabs+0x81c>)
 8000e0c:	681b      	ldr	r3, [r3, #0]
 8000e0e:	4a66      	ldr	r2, [pc, #408]	; (8000fa8 <stm32__device___elabs+0x838>)
 8000e10:	6053      	str	r3, [r2, #4]
 8000e12:	4b65      	ldr	r3, [pc, #404]	; (8000fa8 <stm32__device___elabs+0x838>)
 8000e14:	2280      	movs	r2, #128	; 0x80
 8000e16:	811a      	strh	r2, [r3, #8]
 8000e18:	4b63      	ldr	r3, [pc, #396]	; (8000fa8 <stm32__device___elabs+0x838>)
 8000e1a:	4a5a      	ldr	r2, [pc, #360]	; (8000f84 <stm32__device___elabs+0x814>)
 8000e1c:	601a      	str	r2, [r3, #0]
 8000e1e:	4a62      	ldr	r2, [pc, #392]	; (8000fa8 <stm32__device___elabs+0x838>)
 8000e20:	2300      	movs	r3, #0
 8000e22:	9300      	str	r3, [sp, #0]
 8000e24:	4610      	mov	r0, r2
 8000e26:	4958      	ldr	r1, [pc, #352]	; (8000f88 <stm32__device___elabs+0x818>)
 8000e28:	2201      	movs	r2, #1
 8000e2a:	2300      	movs	r3, #0
 8000e2c:	f006 ffee 	bl	8007e0c <ada__tags__register_interface_offset>
 8000e30:	4b56      	ldr	r3, [pc, #344]	; (8000f8c <stm32__device___elabs+0x81c>)
 8000e32:	681b      	ldr	r3, [r3, #0]
 8000e34:	4a5d      	ldr	r2, [pc, #372]	; (8000fac <stm32__device___elabs+0x83c>)
 8000e36:	6053      	str	r3, [r2, #4]
 8000e38:	4b5c      	ldr	r3, [pc, #368]	; (8000fac <stm32__device___elabs+0x83c>)
 8000e3a:	f44f 7280 	mov.w	r2, #256	; 0x100
 8000e3e:	811a      	strh	r2, [r3, #8]
 8000e40:	4b5a      	ldr	r3, [pc, #360]	; (8000fac <stm32__device___elabs+0x83c>)
 8000e42:	4a50      	ldr	r2, [pc, #320]	; (8000f84 <stm32__device___elabs+0x814>)
 8000e44:	601a      	str	r2, [r3, #0]
 8000e46:	4a59      	ldr	r2, [pc, #356]	; (8000fac <stm32__device___elabs+0x83c>)
 8000e48:	2300      	movs	r3, #0
 8000e4a:	9300      	str	r3, [sp, #0]
 8000e4c:	4610      	mov	r0, r2
 8000e4e:	494e      	ldr	r1, [pc, #312]	; (8000f88 <stm32__device___elabs+0x818>)
 8000e50:	2201      	movs	r2, #1
 8000e52:	2300      	movs	r3, #0
 8000e54:	f006 ffda 	bl	8007e0c <ada__tags__register_interface_offset>
 8000e58:	4b4c      	ldr	r3, [pc, #304]	; (8000f8c <stm32__device___elabs+0x81c>)
 8000e5a:	681b      	ldr	r3, [r3, #0]
 8000e5c:	4a54      	ldr	r2, [pc, #336]	; (8000fb0 <stm32__device___elabs+0x840>)
 8000e5e:	6053      	str	r3, [r2, #4]
 8000e60:	4b53      	ldr	r3, [pc, #332]	; (8000fb0 <stm32__device___elabs+0x840>)
 8000e62:	f44f 7200 	mov.w	r2, #512	; 0x200
 8000e66:	811a      	strh	r2, [r3, #8]
 8000e68:	4b51      	ldr	r3, [pc, #324]	; (8000fb0 <stm32__device___elabs+0x840>)
 8000e6a:	4a46      	ldr	r2, [pc, #280]	; (8000f84 <stm32__device___elabs+0x814>)
 8000e6c:	601a      	str	r2, [r3, #0]
 8000e6e:	4a50      	ldr	r2, [pc, #320]	; (8000fb0 <stm32__device___elabs+0x840>)
 8000e70:	2300      	movs	r3, #0
 8000e72:	9300      	str	r3, [sp, #0]
 8000e74:	4610      	mov	r0, r2
 8000e76:	4944      	ldr	r1, [pc, #272]	; (8000f88 <stm32__device___elabs+0x818>)
 8000e78:	2201      	movs	r2, #1
 8000e7a:	2300      	movs	r3, #0
 8000e7c:	f006 ffc6 	bl	8007e0c <ada__tags__register_interface_offset>
 8000e80:	4b42      	ldr	r3, [pc, #264]	; (8000f8c <stm32__device___elabs+0x81c>)
 8000e82:	681b      	ldr	r3, [r3, #0]
 8000e84:	4a4b      	ldr	r2, [pc, #300]	; (8000fb4 <stm32__device___elabs+0x844>)
 8000e86:	6053      	str	r3, [r2, #4]
 8000e88:	4b4a      	ldr	r3, [pc, #296]	; (8000fb4 <stm32__device___elabs+0x844>)
 8000e8a:	f44f 6280 	mov.w	r2, #1024	; 0x400
 8000e8e:	811a      	strh	r2, [r3, #8]
 8000e90:	4b48      	ldr	r3, [pc, #288]	; (8000fb4 <stm32__device___elabs+0x844>)
 8000e92:	4a3c      	ldr	r2, [pc, #240]	; (8000f84 <stm32__device___elabs+0x814>)
 8000e94:	601a      	str	r2, [r3, #0]
 8000e96:	4a47      	ldr	r2, [pc, #284]	; (8000fb4 <stm32__device___elabs+0x844>)
 8000e98:	2300      	movs	r3, #0
 8000e9a:	9300      	str	r3, [sp, #0]
 8000e9c:	4610      	mov	r0, r2
 8000e9e:	493a      	ldr	r1, [pc, #232]	; (8000f88 <stm32__device___elabs+0x818>)
 8000ea0:	2201      	movs	r2, #1
 8000ea2:	2300      	movs	r3, #0
 8000ea4:	f006 ffb2 	bl	8007e0c <ada__tags__register_interface_offset>
 8000ea8:	4b38      	ldr	r3, [pc, #224]	; (8000f8c <stm32__device___elabs+0x81c>)
 8000eaa:	681b      	ldr	r3, [r3, #0]
 8000eac:	4a42      	ldr	r2, [pc, #264]	; (8000fb8 <stm32__device___elabs+0x848>)
 8000eae:	6053      	str	r3, [r2, #4]
 8000eb0:	4b41      	ldr	r3, [pc, #260]	; (8000fb8 <stm32__device___elabs+0x848>)
 8000eb2:	f44f 6200 	mov.w	r2, #2048	; 0x800
 8000eb6:	811a      	strh	r2, [r3, #8]
 8000eb8:	4b3f      	ldr	r3, [pc, #252]	; (8000fb8 <stm32__device___elabs+0x848>)
 8000eba:	4a32      	ldr	r2, [pc, #200]	; (8000f84 <stm32__device___elabs+0x814>)
 8000ebc:	601a      	str	r2, [r3, #0]
 8000ebe:	4a3e      	ldr	r2, [pc, #248]	; (8000fb8 <stm32__device___elabs+0x848>)
 8000ec0:	2300      	movs	r3, #0
 8000ec2:	9300      	str	r3, [sp, #0]
 8000ec4:	4610      	mov	r0, r2
 8000ec6:	4930      	ldr	r1, [pc, #192]	; (8000f88 <stm32__device___elabs+0x818>)
 8000ec8:	2201      	movs	r2, #1
 8000eca:	2300      	movs	r3, #0
 8000ecc:	f006 ff9e 	bl	8007e0c <ada__tags__register_interface_offset>
 8000ed0:	4b2e      	ldr	r3, [pc, #184]	; (8000f8c <stm32__device___elabs+0x81c>)
 8000ed2:	681b      	ldr	r3, [r3, #0]
 8000ed4:	4a39      	ldr	r2, [pc, #228]	; (8000fbc <stm32__device___elabs+0x84c>)
 8000ed6:	6053      	str	r3, [r2, #4]
 8000ed8:	4b38      	ldr	r3, [pc, #224]	; (8000fbc <stm32__device___elabs+0x84c>)
 8000eda:	f44f 5280 	mov.w	r2, #4096	; 0x1000
 8000ede:	811a      	strh	r2, [r3, #8]
 8000ee0:	4b36      	ldr	r3, [pc, #216]	; (8000fbc <stm32__device___elabs+0x84c>)
 8000ee2:	4a28      	ldr	r2, [pc, #160]	; (8000f84 <stm32__device___elabs+0x814>)
 8000ee4:	601a      	str	r2, [r3, #0]
 8000ee6:	4a35      	ldr	r2, [pc, #212]	; (8000fbc <stm32__device___elabs+0x84c>)
 8000ee8:	2300      	movs	r3, #0
 8000eea:	9300      	str	r3, [sp, #0]
 8000eec:	4610      	mov	r0, r2
 8000eee:	4926      	ldr	r1, [pc, #152]	; (8000f88 <stm32__device___elabs+0x818>)
 8000ef0:	2201      	movs	r2, #1
 8000ef2:	2300      	movs	r3, #0
 8000ef4:	f006 ff8a 	bl	8007e0c <ada__tags__register_interface_offset>
 8000ef8:	4b24      	ldr	r3, [pc, #144]	; (8000f8c <stm32__device___elabs+0x81c>)
 8000efa:	681b      	ldr	r3, [r3, #0]
 8000efc:	4a30      	ldr	r2, [pc, #192]	; (8000fc0 <stm32__device___elabs+0x850>)
 8000efe:	6053      	str	r3, [r2, #4]
 8000f00:	4b2f      	ldr	r3, [pc, #188]	; (8000fc0 <stm32__device___elabs+0x850>)
 8000f02:	f44f 5200 	mov.w	r2, #8192	; 0x2000
 8000f06:	811a      	strh	r2, [r3, #8]
 8000f08:	4b2d      	ldr	r3, [pc, #180]	; (8000fc0 <stm32__device___elabs+0x850>)
 8000f0a:	4a1e      	ldr	r2, [pc, #120]	; (8000f84 <stm32__device___elabs+0x814>)
 8000f0c:	601a      	str	r2, [r3, #0]
 8000f0e:	4a2c      	ldr	r2, [pc, #176]	; (8000fc0 <stm32__device___elabs+0x850>)
 8000f10:	2300      	movs	r3, #0
 8000f12:	9300      	str	r3, [sp, #0]
 8000f14:	4610      	mov	r0, r2
 8000f16:	491c      	ldr	r1, [pc, #112]	; (8000f88 <stm32__device___elabs+0x818>)
 8000f18:	2201      	movs	r2, #1
 8000f1a:	2300      	movs	r3, #0
 8000f1c:	f006 ff76 	bl	8007e0c <ada__tags__register_interface_offset>
 8000f20:	4b1a      	ldr	r3, [pc, #104]	; (8000f8c <stm32__device___elabs+0x81c>)
 8000f22:	681b      	ldr	r3, [r3, #0]
 8000f24:	4a27      	ldr	r2, [pc, #156]	; (8000fc4 <stm32__device___elabs+0x854>)
 8000f26:	6053      	str	r3, [r2, #4]
 8000f28:	4b26      	ldr	r3, [pc, #152]	; (8000fc4 <stm32__device___elabs+0x854>)
 8000f2a:	f44f 4280 	mov.w	r2, #16384	; 0x4000
 8000f2e:	811a      	strh	r2, [r3, #8]
 8000f30:	4b24      	ldr	r3, [pc, #144]	; (8000fc4 <stm32__device___elabs+0x854>)
 8000f32:	4a14      	ldr	r2, [pc, #80]	; (8000f84 <stm32__device___elabs+0x814>)
 8000f34:	601a      	str	r2, [r3, #0]
 8000f36:	4a23      	ldr	r2, [pc, #140]	; (8000fc4 <stm32__device___elabs+0x854>)
 8000f38:	2300      	movs	r3, #0
 8000f3a:	9300      	str	r3, [sp, #0]
 8000f3c:	4610      	mov	r0, r2
 8000f3e:	4912      	ldr	r1, [pc, #72]	; (8000f88 <stm32__device___elabs+0x818>)
 8000f40:	2201      	movs	r2, #1
 8000f42:	2300      	movs	r3, #0
 8000f44:	f006 ff62 	bl	8007e0c <ada__tags__register_interface_offset>
 8000f48:	4b10      	ldr	r3, [pc, #64]	; (8000f8c <stm32__device___elabs+0x81c>)
 8000f4a:	681b      	ldr	r3, [r3, #0]
 8000f4c:	4a1e      	ldr	r2, [pc, #120]	; (8000fc8 <stm32__device___elabs+0x858>)
 8000f4e:	6053      	str	r3, [r2, #4]
 8000f50:	4b1d      	ldr	r3, [pc, #116]	; (8000fc8 <stm32__device___elabs+0x858>)
 8000f52:	f44f 4200 	mov.w	r2, #32768	; 0x8000
 8000f56:	811a      	strh	r2, [r3, #8]
 8000f58:	4b1b      	ldr	r3, [pc, #108]	; (8000fc8 <stm32__device___elabs+0x858>)
 8000f5a:	4a0a      	ldr	r2, [pc, #40]	; (8000f84 <stm32__device___elabs+0x814>)
 8000f5c:	601a      	str	r2, [r3, #0]
 8000f5e:	4a1a      	ldr	r2, [pc, #104]	; (8000fc8 <stm32__device___elabs+0x858>)
 8000f60:	2300      	movs	r3, #0
 8000f62:	9300      	str	r3, [sp, #0]
 8000f64:	4610      	mov	r0, r2
 8000f66:	4908      	ldr	r1, [pc, #32]	; (8000f88 <stm32__device___elabs+0x818>)
 8000f68:	2201      	movs	r2, #1
 8000f6a:	2300      	movs	r3, #0
 8000f6c:	f006 ff4e 	bl	8007e0c <ada__tags__register_interface_offset>
 8000f70:	4b16      	ldr	r3, [pc, #88]	; (8000fcc <stm32__device___elabs+0x85c>)
 8000f72:	681b      	ldr	r3, [r3, #0]
 8000f74:	4a16      	ldr	r2, [pc, #88]	; (8000fd0 <stm32__device___elabs+0x860>)
 8000f76:	6053      	str	r3, [r2, #4]
 8000f78:	4b15      	ldr	r3, [pc, #84]	; (8000fd0 <stm32__device___elabs+0x860>)
 8000f7a:	2201      	movs	r2, #1
 8000f7c:	e02a      	b.n	8000fd4 <stm32__device___elabs+0x864>
 8000f7e:	bf00      	nop
 8000f80:	20000440 	.word	0x20000440
 8000f84:	0800ccac 	.word	0x0800ccac
 8000f88:	0800d110 	.word	0x0800d110
 8000f8c:	20000028 	.word	0x20000028
 8000f90:	2000044c 	.word	0x2000044c
 8000f94:	20000458 	.word	0x20000458
 8000f98:	20000464 	.word	0x20000464
 8000f9c:	20000470 	.word	0x20000470
 8000fa0:	2000047c 	.word	0x2000047c
 8000fa4:	20000488 	.word	0x20000488
 8000fa8:	20000494 	.word	0x20000494
 8000fac:	200004a0 	.word	0x200004a0
 8000fb0:	200004ac 	.word	0x200004ac
 8000fb4:	200004b8 	.word	0x200004b8
 8000fb8:	200004c4 	.word	0x200004c4
 8000fbc:	200004d0 	.word	0x200004d0
 8000fc0:	200004dc 	.word	0x200004dc
 8000fc4:	200004e8 	.word	0x200004e8
 8000fc8:	200004f4 	.word	0x200004f4
 8000fcc:	2000002c 	.word	0x2000002c
 8000fd0:	20000500 	.word	0x20000500
 8000fd4:	811a      	strh	r2, [r3, #8]
 8000fd6:	4b9d      	ldr	r3, [pc, #628]	; (800124c <stm32__device___elabs+0xadc>)
 8000fd8:	4a9d      	ldr	r2, [pc, #628]	; (8001250 <stm32__device___elabs+0xae0>)
 8000fda:	601a      	str	r2, [r3, #0]
 8000fdc:	4a9b      	ldr	r2, [pc, #620]	; (800124c <stm32__device___elabs+0xadc>)
 8000fde:	2300      	movs	r3, #0
 8000fe0:	9300      	str	r3, [sp, #0]
 8000fe2:	4610      	mov	r0, r2
 8000fe4:	499b      	ldr	r1, [pc, #620]	; (8001254 <stm32__device___elabs+0xae4>)
 8000fe6:	2201      	movs	r2, #1
 8000fe8:	2300      	movs	r3, #0
 8000fea:	f006 ff0f 	bl	8007e0c <ada__tags__register_interface_offset>
 8000fee:	4b9a      	ldr	r3, [pc, #616]	; (8001258 <stm32__device___elabs+0xae8>)
 8000ff0:	681b      	ldr	r3, [r3, #0]
 8000ff2:	4a9a      	ldr	r2, [pc, #616]	; (800125c <stm32__device___elabs+0xaec>)
 8000ff4:	6053      	str	r3, [r2, #4]
 8000ff6:	4b99      	ldr	r3, [pc, #612]	; (800125c <stm32__device___elabs+0xaec>)
 8000ff8:	2202      	movs	r2, #2
 8000ffa:	811a      	strh	r2, [r3, #8]
 8000ffc:	4b97      	ldr	r3, [pc, #604]	; (800125c <stm32__device___elabs+0xaec>)
 8000ffe:	4a94      	ldr	r2, [pc, #592]	; (8001250 <stm32__device___elabs+0xae0>)
 8001000:	601a      	str	r2, [r3, #0]
 8001002:	4a96      	ldr	r2, [pc, #600]	; (800125c <stm32__device___elabs+0xaec>)
 8001004:	2300      	movs	r3, #0
 8001006:	9300      	str	r3, [sp, #0]
 8001008:	4610      	mov	r0, r2
 800100a:	4992      	ldr	r1, [pc, #584]	; (8001254 <stm32__device___elabs+0xae4>)
 800100c:	2201      	movs	r2, #1
 800100e:	2300      	movs	r3, #0
 8001010:	f006 fefc 	bl	8007e0c <ada__tags__register_interface_offset>
 8001014:	4b90      	ldr	r3, [pc, #576]	; (8001258 <stm32__device___elabs+0xae8>)
 8001016:	681b      	ldr	r3, [r3, #0]
 8001018:	4a91      	ldr	r2, [pc, #580]	; (8001260 <stm32__device___elabs+0xaf0>)
 800101a:	6053      	str	r3, [r2, #4]
 800101c:	4b90      	ldr	r3, [pc, #576]	; (8001260 <stm32__device___elabs+0xaf0>)
 800101e:	2204      	movs	r2, #4
 8001020:	811a      	strh	r2, [r3, #8]
 8001022:	4b8f      	ldr	r3, [pc, #572]	; (8001260 <stm32__device___elabs+0xaf0>)
 8001024:	4a8a      	ldr	r2, [pc, #552]	; (8001250 <stm32__device___elabs+0xae0>)
 8001026:	601a      	str	r2, [r3, #0]
 8001028:	4a8d      	ldr	r2, [pc, #564]	; (8001260 <stm32__device___elabs+0xaf0>)
 800102a:	2300      	movs	r3, #0
 800102c:	9300      	str	r3, [sp, #0]
 800102e:	4610      	mov	r0, r2
 8001030:	4988      	ldr	r1, [pc, #544]	; (8001254 <stm32__device___elabs+0xae4>)
 8001032:	2201      	movs	r2, #1
 8001034:	2300      	movs	r3, #0
 8001036:	f006 fee9 	bl	8007e0c <ada__tags__register_interface_offset>
 800103a:	4b87      	ldr	r3, [pc, #540]	; (8001258 <stm32__device___elabs+0xae8>)
 800103c:	681b      	ldr	r3, [r3, #0]
 800103e:	4a89      	ldr	r2, [pc, #548]	; (8001264 <stm32__device___elabs+0xaf4>)
 8001040:	6053      	str	r3, [r2, #4]
 8001042:	4b88      	ldr	r3, [pc, #544]	; (8001264 <stm32__device___elabs+0xaf4>)
 8001044:	2208      	movs	r2, #8
 8001046:	811a      	strh	r2, [r3, #8]
 8001048:	4b86      	ldr	r3, [pc, #536]	; (8001264 <stm32__device___elabs+0xaf4>)
 800104a:	4a81      	ldr	r2, [pc, #516]	; (8001250 <stm32__device___elabs+0xae0>)
 800104c:	601a      	str	r2, [r3, #0]
 800104e:	4a85      	ldr	r2, [pc, #532]	; (8001264 <stm32__device___elabs+0xaf4>)
 8001050:	2300      	movs	r3, #0
 8001052:	9300      	str	r3, [sp, #0]
 8001054:	4610      	mov	r0, r2
 8001056:	497f      	ldr	r1, [pc, #508]	; (8001254 <stm32__device___elabs+0xae4>)
 8001058:	2201      	movs	r2, #1
 800105a:	2300      	movs	r3, #0
 800105c:	f006 fed6 	bl	8007e0c <ada__tags__register_interface_offset>
 8001060:	4b7d      	ldr	r3, [pc, #500]	; (8001258 <stm32__device___elabs+0xae8>)
 8001062:	681b      	ldr	r3, [r3, #0]
 8001064:	4a80      	ldr	r2, [pc, #512]	; (8001268 <stm32__device___elabs+0xaf8>)
 8001066:	6053      	str	r3, [r2, #4]
 8001068:	4b7f      	ldr	r3, [pc, #508]	; (8001268 <stm32__device___elabs+0xaf8>)
 800106a:	2210      	movs	r2, #16
 800106c:	811a      	strh	r2, [r3, #8]
 800106e:	4b7e      	ldr	r3, [pc, #504]	; (8001268 <stm32__device___elabs+0xaf8>)
 8001070:	4a77      	ldr	r2, [pc, #476]	; (8001250 <stm32__device___elabs+0xae0>)
 8001072:	601a      	str	r2, [r3, #0]
 8001074:	4a7c      	ldr	r2, [pc, #496]	; (8001268 <stm32__device___elabs+0xaf8>)
 8001076:	2300      	movs	r3, #0
 8001078:	9300      	str	r3, [sp, #0]
 800107a:	4610      	mov	r0, r2
 800107c:	4975      	ldr	r1, [pc, #468]	; (8001254 <stm32__device___elabs+0xae4>)
 800107e:	2201      	movs	r2, #1
 8001080:	2300      	movs	r3, #0
 8001082:	f006 fec3 	bl	8007e0c <ada__tags__register_interface_offset>
 8001086:	4b74      	ldr	r3, [pc, #464]	; (8001258 <stm32__device___elabs+0xae8>)
 8001088:	681b      	ldr	r3, [r3, #0]
 800108a:	4a78      	ldr	r2, [pc, #480]	; (800126c <stm32__device___elabs+0xafc>)
 800108c:	6053      	str	r3, [r2, #4]
 800108e:	4b77      	ldr	r3, [pc, #476]	; (800126c <stm32__device___elabs+0xafc>)
 8001090:	2220      	movs	r2, #32
 8001092:	811a      	strh	r2, [r3, #8]
 8001094:	4b75      	ldr	r3, [pc, #468]	; (800126c <stm32__device___elabs+0xafc>)
 8001096:	4a6e      	ldr	r2, [pc, #440]	; (8001250 <stm32__device___elabs+0xae0>)
 8001098:	601a      	str	r2, [r3, #0]
 800109a:	4a74      	ldr	r2, [pc, #464]	; (800126c <stm32__device___elabs+0xafc>)
 800109c:	2300      	movs	r3, #0
 800109e:	9300      	str	r3, [sp, #0]
 80010a0:	4610      	mov	r0, r2
 80010a2:	496c      	ldr	r1, [pc, #432]	; (8001254 <stm32__device___elabs+0xae4>)
 80010a4:	2201      	movs	r2, #1
 80010a6:	2300      	movs	r3, #0
 80010a8:	f006 feb0 	bl	8007e0c <ada__tags__register_interface_offset>
 80010ac:	4b6a      	ldr	r3, [pc, #424]	; (8001258 <stm32__device___elabs+0xae8>)
 80010ae:	681b      	ldr	r3, [r3, #0]
 80010b0:	4a6f      	ldr	r2, [pc, #444]	; (8001270 <stm32__device___elabs+0xb00>)
 80010b2:	6053      	str	r3, [r2, #4]
 80010b4:	4b6e      	ldr	r3, [pc, #440]	; (8001270 <stm32__device___elabs+0xb00>)
 80010b6:	2240      	movs	r2, #64	; 0x40
 80010b8:	811a      	strh	r2, [r3, #8]
 80010ba:	4b6d      	ldr	r3, [pc, #436]	; (8001270 <stm32__device___elabs+0xb00>)
 80010bc:	4a64      	ldr	r2, [pc, #400]	; (8001250 <stm32__device___elabs+0xae0>)
 80010be:	601a      	str	r2, [r3, #0]
 80010c0:	4a6b      	ldr	r2, [pc, #428]	; (8001270 <stm32__device___elabs+0xb00>)
 80010c2:	2300      	movs	r3, #0
 80010c4:	9300      	str	r3, [sp, #0]
 80010c6:	4610      	mov	r0, r2
 80010c8:	4962      	ldr	r1, [pc, #392]	; (8001254 <stm32__device___elabs+0xae4>)
 80010ca:	2201      	movs	r2, #1
 80010cc:	2300      	movs	r3, #0
 80010ce:	f006 fe9d 	bl	8007e0c <ada__tags__register_interface_offset>
 80010d2:	4b61      	ldr	r3, [pc, #388]	; (8001258 <stm32__device___elabs+0xae8>)
 80010d4:	681b      	ldr	r3, [r3, #0]
 80010d6:	4a67      	ldr	r2, [pc, #412]	; (8001274 <stm32__device___elabs+0xb04>)
 80010d8:	6053      	str	r3, [r2, #4]
 80010da:	4b66      	ldr	r3, [pc, #408]	; (8001274 <stm32__device___elabs+0xb04>)
 80010dc:	2280      	movs	r2, #128	; 0x80
 80010de:	811a      	strh	r2, [r3, #8]
 80010e0:	4b64      	ldr	r3, [pc, #400]	; (8001274 <stm32__device___elabs+0xb04>)
 80010e2:	4a5b      	ldr	r2, [pc, #364]	; (8001250 <stm32__device___elabs+0xae0>)
 80010e4:	601a      	str	r2, [r3, #0]
 80010e6:	4a63      	ldr	r2, [pc, #396]	; (8001274 <stm32__device___elabs+0xb04>)
 80010e8:	2300      	movs	r3, #0
 80010ea:	9300      	str	r3, [sp, #0]
 80010ec:	4610      	mov	r0, r2
 80010ee:	4959      	ldr	r1, [pc, #356]	; (8001254 <stm32__device___elabs+0xae4>)
 80010f0:	2201      	movs	r2, #1
 80010f2:	2300      	movs	r3, #0
 80010f4:	f006 fe8a 	bl	8007e0c <ada__tags__register_interface_offset>
 80010f8:	4b57      	ldr	r3, [pc, #348]	; (8001258 <stm32__device___elabs+0xae8>)
 80010fa:	681b      	ldr	r3, [r3, #0]
 80010fc:	4a5e      	ldr	r2, [pc, #376]	; (8001278 <stm32__device___elabs+0xb08>)
 80010fe:	6053      	str	r3, [r2, #4]
 8001100:	4b5d      	ldr	r3, [pc, #372]	; (8001278 <stm32__device___elabs+0xb08>)
 8001102:	f44f 7280 	mov.w	r2, #256	; 0x100
 8001106:	811a      	strh	r2, [r3, #8]
 8001108:	4b5b      	ldr	r3, [pc, #364]	; (8001278 <stm32__device___elabs+0xb08>)
 800110a:	4a51      	ldr	r2, [pc, #324]	; (8001250 <stm32__device___elabs+0xae0>)
 800110c:	601a      	str	r2, [r3, #0]
 800110e:	4a5a      	ldr	r2, [pc, #360]	; (8001278 <stm32__device___elabs+0xb08>)
 8001110:	2300      	movs	r3, #0
 8001112:	9300      	str	r3, [sp, #0]
 8001114:	4610      	mov	r0, r2
 8001116:	494f      	ldr	r1, [pc, #316]	; (8001254 <stm32__device___elabs+0xae4>)
 8001118:	2201      	movs	r2, #1
 800111a:	2300      	movs	r3, #0
 800111c:	f006 fe76 	bl	8007e0c <ada__tags__register_interface_offset>
 8001120:	4b4d      	ldr	r3, [pc, #308]	; (8001258 <stm32__device___elabs+0xae8>)
 8001122:	681b      	ldr	r3, [r3, #0]
 8001124:	4a55      	ldr	r2, [pc, #340]	; (800127c <stm32__device___elabs+0xb0c>)
 8001126:	6053      	str	r3, [r2, #4]
 8001128:	4b54      	ldr	r3, [pc, #336]	; (800127c <stm32__device___elabs+0xb0c>)
 800112a:	f44f 7200 	mov.w	r2, #512	; 0x200
 800112e:	811a      	strh	r2, [r3, #8]
 8001130:	4b52      	ldr	r3, [pc, #328]	; (800127c <stm32__device___elabs+0xb0c>)
 8001132:	4a47      	ldr	r2, [pc, #284]	; (8001250 <stm32__device___elabs+0xae0>)
 8001134:	601a      	str	r2, [r3, #0]
 8001136:	4a51      	ldr	r2, [pc, #324]	; (800127c <stm32__device___elabs+0xb0c>)
 8001138:	2300      	movs	r3, #0
 800113a:	9300      	str	r3, [sp, #0]
 800113c:	4610      	mov	r0, r2
 800113e:	4945      	ldr	r1, [pc, #276]	; (8001254 <stm32__device___elabs+0xae4>)
 8001140:	2201      	movs	r2, #1
 8001142:	2300      	movs	r3, #0
 8001144:	f006 fe62 	bl	8007e0c <ada__tags__register_interface_offset>
 8001148:	4b43      	ldr	r3, [pc, #268]	; (8001258 <stm32__device___elabs+0xae8>)
 800114a:	681b      	ldr	r3, [r3, #0]
 800114c:	4a4c      	ldr	r2, [pc, #304]	; (8001280 <stm32__device___elabs+0xb10>)
 800114e:	6053      	str	r3, [r2, #4]
 8001150:	4b4b      	ldr	r3, [pc, #300]	; (8001280 <stm32__device___elabs+0xb10>)
 8001152:	f44f 6280 	mov.w	r2, #1024	; 0x400
 8001156:	811a      	strh	r2, [r3, #8]
 8001158:	4b49      	ldr	r3, [pc, #292]	; (8001280 <stm32__device___elabs+0xb10>)
 800115a:	4a3d      	ldr	r2, [pc, #244]	; (8001250 <stm32__device___elabs+0xae0>)
 800115c:	601a      	str	r2, [r3, #0]
 800115e:	4a48      	ldr	r2, [pc, #288]	; (8001280 <stm32__device___elabs+0xb10>)
 8001160:	2300      	movs	r3, #0
 8001162:	9300      	str	r3, [sp, #0]
 8001164:	4610      	mov	r0, r2
 8001166:	493b      	ldr	r1, [pc, #236]	; (8001254 <stm32__device___elabs+0xae4>)
 8001168:	2201      	movs	r2, #1
 800116a:	2300      	movs	r3, #0
 800116c:	f006 fe4e 	bl	8007e0c <ada__tags__register_interface_offset>
 8001170:	4b39      	ldr	r3, [pc, #228]	; (8001258 <stm32__device___elabs+0xae8>)
 8001172:	681b      	ldr	r3, [r3, #0]
 8001174:	4a43      	ldr	r2, [pc, #268]	; (8001284 <stm32__device___elabs+0xb14>)
 8001176:	6053      	str	r3, [r2, #4]
 8001178:	4b42      	ldr	r3, [pc, #264]	; (8001284 <stm32__device___elabs+0xb14>)
 800117a:	f44f 6200 	mov.w	r2, #2048	; 0x800
 800117e:	811a      	strh	r2, [r3, #8]
 8001180:	4b40      	ldr	r3, [pc, #256]	; (8001284 <stm32__device___elabs+0xb14>)
 8001182:	4a33      	ldr	r2, [pc, #204]	; (8001250 <stm32__device___elabs+0xae0>)
 8001184:	601a      	str	r2, [r3, #0]
 8001186:	4a3f      	ldr	r2, [pc, #252]	; (8001284 <stm32__device___elabs+0xb14>)
 8001188:	2300      	movs	r3, #0
 800118a:	9300      	str	r3, [sp, #0]
 800118c:	4610      	mov	r0, r2
 800118e:	4931      	ldr	r1, [pc, #196]	; (8001254 <stm32__device___elabs+0xae4>)
 8001190:	2201      	movs	r2, #1
 8001192:	2300      	movs	r3, #0
 8001194:	f006 fe3a 	bl	8007e0c <ada__tags__register_interface_offset>
 8001198:	4b2f      	ldr	r3, [pc, #188]	; (8001258 <stm32__device___elabs+0xae8>)
 800119a:	681b      	ldr	r3, [r3, #0]
 800119c:	4a3a      	ldr	r2, [pc, #232]	; (8001288 <stm32__device___elabs+0xb18>)
 800119e:	6053      	str	r3, [r2, #4]
 80011a0:	4b39      	ldr	r3, [pc, #228]	; (8001288 <stm32__device___elabs+0xb18>)
 80011a2:	f44f 5280 	mov.w	r2, #4096	; 0x1000
 80011a6:	811a      	strh	r2, [r3, #8]
 80011a8:	4b37      	ldr	r3, [pc, #220]	; (8001288 <stm32__device___elabs+0xb18>)
 80011aa:	4a29      	ldr	r2, [pc, #164]	; (8001250 <stm32__device___elabs+0xae0>)
 80011ac:	601a      	str	r2, [r3, #0]
 80011ae:	4a36      	ldr	r2, [pc, #216]	; (8001288 <stm32__device___elabs+0xb18>)
 80011b0:	2300      	movs	r3, #0
 80011b2:	9300      	str	r3, [sp, #0]
 80011b4:	4610      	mov	r0, r2
 80011b6:	4927      	ldr	r1, [pc, #156]	; (8001254 <stm32__device___elabs+0xae4>)
 80011b8:	2201      	movs	r2, #1
 80011ba:	2300      	movs	r3, #0
 80011bc:	f006 fe26 	bl	8007e0c <ada__tags__register_interface_offset>
 80011c0:	4b25      	ldr	r3, [pc, #148]	; (8001258 <stm32__device___elabs+0xae8>)
 80011c2:	681b      	ldr	r3, [r3, #0]
 80011c4:	4a31      	ldr	r2, [pc, #196]	; (800128c <stm32__device___elabs+0xb1c>)
 80011c6:	6053      	str	r3, [r2, #4]
 80011c8:	4b30      	ldr	r3, [pc, #192]	; (800128c <stm32__device___elabs+0xb1c>)
 80011ca:	f44f 5200 	mov.w	r2, #8192	; 0x2000
 80011ce:	811a      	strh	r2, [r3, #8]
 80011d0:	4b2e      	ldr	r3, [pc, #184]	; (800128c <stm32__device___elabs+0xb1c>)
 80011d2:	4a1f      	ldr	r2, [pc, #124]	; (8001250 <stm32__device___elabs+0xae0>)
 80011d4:	601a      	str	r2, [r3, #0]
 80011d6:	4a2d      	ldr	r2, [pc, #180]	; (800128c <stm32__device___elabs+0xb1c>)
 80011d8:	2300      	movs	r3, #0
 80011da:	9300      	str	r3, [sp, #0]
 80011dc:	4610      	mov	r0, r2
 80011de:	491d      	ldr	r1, [pc, #116]	; (8001254 <stm32__device___elabs+0xae4>)
 80011e0:	2201      	movs	r2, #1
 80011e2:	2300      	movs	r3, #0
 80011e4:	f006 fe12 	bl	8007e0c <ada__tags__register_interface_offset>
 80011e8:	4b1b      	ldr	r3, [pc, #108]	; (8001258 <stm32__device___elabs+0xae8>)
 80011ea:	681b      	ldr	r3, [r3, #0]
 80011ec:	4a28      	ldr	r2, [pc, #160]	; (8001290 <stm32__device___elabs+0xb20>)
 80011ee:	6053      	str	r3, [r2, #4]
 80011f0:	4b27      	ldr	r3, [pc, #156]	; (8001290 <stm32__device___elabs+0xb20>)
 80011f2:	f44f 4280 	mov.w	r2, #16384	; 0x4000
 80011f6:	811a      	strh	r2, [r3, #8]
 80011f8:	4b25      	ldr	r3, [pc, #148]	; (8001290 <stm32__device___elabs+0xb20>)
 80011fa:	4a15      	ldr	r2, [pc, #84]	; (8001250 <stm32__device___elabs+0xae0>)
 80011fc:	601a      	str	r2, [r3, #0]
 80011fe:	4a24      	ldr	r2, [pc, #144]	; (8001290 <stm32__device___elabs+0xb20>)
 8001200:	2300      	movs	r3, #0
 8001202:	9300      	str	r3, [sp, #0]
 8001204:	4610      	mov	r0, r2
 8001206:	4913      	ldr	r1, [pc, #76]	; (8001254 <stm32__device___elabs+0xae4>)
 8001208:	2201      	movs	r2, #1
 800120a:	2300      	movs	r3, #0
 800120c:	f006 fdfe 	bl	8007e0c <ada__tags__register_interface_offset>
 8001210:	4b11      	ldr	r3, [pc, #68]	; (8001258 <stm32__device___elabs+0xae8>)
 8001212:	681b      	ldr	r3, [r3, #0]
 8001214:	4a1f      	ldr	r2, [pc, #124]	; (8001294 <stm32__device___elabs+0xb24>)
 8001216:	6053      	str	r3, [r2, #4]
 8001218:	4b1e      	ldr	r3, [pc, #120]	; (8001294 <stm32__device___elabs+0xb24>)
 800121a:	f44f 4200 	mov.w	r2, #32768	; 0x8000
 800121e:	811a      	strh	r2, [r3, #8]
 8001220:	4b1c      	ldr	r3, [pc, #112]	; (8001294 <stm32__device___elabs+0xb24>)
 8001222:	4a0b      	ldr	r2, [pc, #44]	; (8001250 <stm32__device___elabs+0xae0>)
 8001224:	601a      	str	r2, [r3, #0]
 8001226:	4a1b      	ldr	r2, [pc, #108]	; (8001294 <stm32__device___elabs+0xb24>)
 8001228:	2300      	movs	r3, #0
 800122a:	9300      	str	r3, [sp, #0]
 800122c:	4610      	mov	r0, r2
 800122e:	4909      	ldr	r1, [pc, #36]	; (8001254 <stm32__device___elabs+0xae4>)
 8001230:	2201      	movs	r2, #1
 8001232:	2300      	movs	r3, #0
 8001234:	f006 fdea 	bl	8007e0c <ada__tags__register_interface_offset>
 8001238:	4b17      	ldr	r3, [pc, #92]	; (8001298 <stm32__device___elabs+0xb28>)
 800123a:	681b      	ldr	r3, [r3, #0]
 800123c:	4a17      	ldr	r2, [pc, #92]	; (800129c <stm32__device___elabs+0xb2c>)
 800123e:	6053      	str	r3, [r2, #4]
 8001240:	4b16      	ldr	r3, [pc, #88]	; (800129c <stm32__device___elabs+0xb2c>)
 8001242:	2201      	movs	r2, #1
 8001244:	811a      	strh	r2, [r3, #8]
 8001246:	4b15      	ldr	r3, [pc, #84]	; (800129c <stm32__device___elabs+0xb2c>)
 8001248:	e02a      	b.n	80012a0 <stm32__device___elabs+0xb30>
 800124a:	bf00      	nop
 800124c:	20000500 	.word	0x20000500
 8001250:	0800ccac 	.word	0x0800ccac
 8001254:	0800d110 	.word	0x0800d110
 8001258:	2000002c 	.word	0x2000002c
 800125c:	2000050c 	.word	0x2000050c
 8001260:	20000518 	.word	0x20000518
 8001264:	20000524 	.word	0x20000524
 8001268:	20000530 	.word	0x20000530
 800126c:	2000053c 	.word	0x2000053c
 8001270:	20000548 	.word	0x20000548
 8001274:	20000554 	.word	0x20000554
 8001278:	20000560 	.word	0x20000560
 800127c:	2000056c 	.word	0x2000056c
 8001280:	20000578 	.word	0x20000578
 8001284:	20000584 	.word	0x20000584
 8001288:	20000590 	.word	0x20000590
 800128c:	2000059c 	.word	0x2000059c
 8001290:	200005a8 	.word	0x200005a8
 8001294:	200005b4 	.word	0x200005b4
 8001298:	20000030 	.word	0x20000030
 800129c:	200005c0 	.word	0x200005c0
 80012a0:	4a9e      	ldr	r2, [pc, #632]	; (800151c <stm32__device___elabs+0xdac>)
 80012a2:	601a      	str	r2, [r3, #0]
 80012a4:	4a9e      	ldr	r2, [pc, #632]	; (8001520 <stm32__device___elabs+0xdb0>)
 80012a6:	2300      	movs	r3, #0
 80012a8:	9300      	str	r3, [sp, #0]
 80012aa:	4610      	mov	r0, r2
 80012ac:	499d      	ldr	r1, [pc, #628]	; (8001524 <stm32__device___elabs+0xdb4>)
 80012ae:	2201      	movs	r2, #1
 80012b0:	2300      	movs	r3, #0
 80012b2:	f006 fdab 	bl	8007e0c <ada__tags__register_interface_offset>
 80012b6:	4b9c      	ldr	r3, [pc, #624]	; (8001528 <stm32__device___elabs+0xdb8>)
 80012b8:	681b      	ldr	r3, [r3, #0]
 80012ba:	4a9c      	ldr	r2, [pc, #624]	; (800152c <stm32__device___elabs+0xdbc>)
 80012bc:	6053      	str	r3, [r2, #4]
 80012be:	4b9b      	ldr	r3, [pc, #620]	; (800152c <stm32__device___elabs+0xdbc>)
 80012c0:	2202      	movs	r2, #2
 80012c2:	811a      	strh	r2, [r3, #8]
 80012c4:	4b99      	ldr	r3, [pc, #612]	; (800152c <stm32__device___elabs+0xdbc>)
 80012c6:	4a95      	ldr	r2, [pc, #596]	; (800151c <stm32__device___elabs+0xdac>)
 80012c8:	601a      	str	r2, [r3, #0]
 80012ca:	4a98      	ldr	r2, [pc, #608]	; (800152c <stm32__device___elabs+0xdbc>)
 80012cc:	2300      	movs	r3, #0
 80012ce:	9300      	str	r3, [sp, #0]
 80012d0:	4610      	mov	r0, r2
 80012d2:	4994      	ldr	r1, [pc, #592]	; (8001524 <stm32__device___elabs+0xdb4>)
 80012d4:	2201      	movs	r2, #1
 80012d6:	2300      	movs	r3, #0
 80012d8:	f006 fd98 	bl	8007e0c <ada__tags__register_interface_offset>
 80012dc:	4b92      	ldr	r3, [pc, #584]	; (8001528 <stm32__device___elabs+0xdb8>)
 80012de:	681b      	ldr	r3, [r3, #0]
 80012e0:	4a93      	ldr	r2, [pc, #588]	; (8001530 <stm32__device___elabs+0xdc0>)
 80012e2:	6053      	str	r3, [r2, #4]
 80012e4:	4b92      	ldr	r3, [pc, #584]	; (8001530 <stm32__device___elabs+0xdc0>)
 80012e6:	2204      	movs	r2, #4
 80012e8:	811a      	strh	r2, [r3, #8]
 80012ea:	4b91      	ldr	r3, [pc, #580]	; (8001530 <stm32__device___elabs+0xdc0>)
 80012ec:	4a8b      	ldr	r2, [pc, #556]	; (800151c <stm32__device___elabs+0xdac>)
 80012ee:	601a      	str	r2, [r3, #0]
 80012f0:	4a8f      	ldr	r2, [pc, #572]	; (8001530 <stm32__device___elabs+0xdc0>)
 80012f2:	2300      	movs	r3, #0
 80012f4:	9300      	str	r3, [sp, #0]
 80012f6:	4610      	mov	r0, r2
 80012f8:	498a      	ldr	r1, [pc, #552]	; (8001524 <stm32__device___elabs+0xdb4>)
 80012fa:	2201      	movs	r2, #1
 80012fc:	2300      	movs	r3, #0
 80012fe:	f006 fd85 	bl	8007e0c <ada__tags__register_interface_offset>
 8001302:	4b89      	ldr	r3, [pc, #548]	; (8001528 <stm32__device___elabs+0xdb8>)
 8001304:	681b      	ldr	r3, [r3, #0]
 8001306:	4a8b      	ldr	r2, [pc, #556]	; (8001534 <stm32__device___elabs+0xdc4>)
 8001308:	6053      	str	r3, [r2, #4]
 800130a:	4b8a      	ldr	r3, [pc, #552]	; (8001534 <stm32__device___elabs+0xdc4>)
 800130c:	2208      	movs	r2, #8
 800130e:	811a      	strh	r2, [r3, #8]
 8001310:	4b88      	ldr	r3, [pc, #544]	; (8001534 <stm32__device___elabs+0xdc4>)
 8001312:	4a82      	ldr	r2, [pc, #520]	; (800151c <stm32__device___elabs+0xdac>)
 8001314:	601a      	str	r2, [r3, #0]
 8001316:	4a87      	ldr	r2, [pc, #540]	; (8001534 <stm32__device___elabs+0xdc4>)
 8001318:	2300      	movs	r3, #0
 800131a:	9300      	str	r3, [sp, #0]
 800131c:	4610      	mov	r0, r2
 800131e:	4981      	ldr	r1, [pc, #516]	; (8001524 <stm32__device___elabs+0xdb4>)
 8001320:	2201      	movs	r2, #1
 8001322:	2300      	movs	r3, #0
 8001324:	f006 fd72 	bl	8007e0c <ada__tags__register_interface_offset>
 8001328:	4b7f      	ldr	r3, [pc, #508]	; (8001528 <stm32__device___elabs+0xdb8>)
 800132a:	681b      	ldr	r3, [r3, #0]
 800132c:	4a82      	ldr	r2, [pc, #520]	; (8001538 <stm32__device___elabs+0xdc8>)
 800132e:	6053      	str	r3, [r2, #4]
 8001330:	4b81      	ldr	r3, [pc, #516]	; (8001538 <stm32__device___elabs+0xdc8>)
 8001332:	2210      	movs	r2, #16
 8001334:	811a      	strh	r2, [r3, #8]
 8001336:	4b80      	ldr	r3, [pc, #512]	; (8001538 <stm32__device___elabs+0xdc8>)
 8001338:	4a78      	ldr	r2, [pc, #480]	; (800151c <stm32__device___elabs+0xdac>)
 800133a:	601a      	str	r2, [r3, #0]
 800133c:	4a7e      	ldr	r2, [pc, #504]	; (8001538 <stm32__device___elabs+0xdc8>)
 800133e:	2300      	movs	r3, #0
 8001340:	9300      	str	r3, [sp, #0]
 8001342:	4610      	mov	r0, r2
 8001344:	4977      	ldr	r1, [pc, #476]	; (8001524 <stm32__device___elabs+0xdb4>)
 8001346:	2201      	movs	r2, #1
 8001348:	2300      	movs	r3, #0
 800134a:	f006 fd5f 	bl	8007e0c <ada__tags__register_interface_offset>
 800134e:	4b76      	ldr	r3, [pc, #472]	; (8001528 <stm32__device___elabs+0xdb8>)
 8001350:	681b      	ldr	r3, [r3, #0]
 8001352:	4a7a      	ldr	r2, [pc, #488]	; (800153c <stm32__device___elabs+0xdcc>)
 8001354:	6053      	str	r3, [r2, #4]
 8001356:	4b79      	ldr	r3, [pc, #484]	; (800153c <stm32__device___elabs+0xdcc>)
 8001358:	2220      	movs	r2, #32
 800135a:	811a      	strh	r2, [r3, #8]
 800135c:	4b77      	ldr	r3, [pc, #476]	; (800153c <stm32__device___elabs+0xdcc>)
 800135e:	4a6f      	ldr	r2, [pc, #444]	; (800151c <stm32__device___elabs+0xdac>)
 8001360:	601a      	str	r2, [r3, #0]
 8001362:	4a76      	ldr	r2, [pc, #472]	; (800153c <stm32__device___elabs+0xdcc>)
 8001364:	2300      	movs	r3, #0
 8001366:	9300      	str	r3, [sp, #0]
 8001368:	4610      	mov	r0, r2
 800136a:	496e      	ldr	r1, [pc, #440]	; (8001524 <stm32__device___elabs+0xdb4>)
 800136c:	2201      	movs	r2, #1
 800136e:	2300      	movs	r3, #0
 8001370:	f006 fd4c 	bl	8007e0c <ada__tags__register_interface_offset>
 8001374:	4b6c      	ldr	r3, [pc, #432]	; (8001528 <stm32__device___elabs+0xdb8>)
 8001376:	681b      	ldr	r3, [r3, #0]
 8001378:	4a71      	ldr	r2, [pc, #452]	; (8001540 <stm32__device___elabs+0xdd0>)
 800137a:	6053      	str	r3, [r2, #4]
 800137c:	4b70      	ldr	r3, [pc, #448]	; (8001540 <stm32__device___elabs+0xdd0>)
 800137e:	2240      	movs	r2, #64	; 0x40
 8001380:	811a      	strh	r2, [r3, #8]
 8001382:	4b6f      	ldr	r3, [pc, #444]	; (8001540 <stm32__device___elabs+0xdd0>)
 8001384:	4a65      	ldr	r2, [pc, #404]	; (800151c <stm32__device___elabs+0xdac>)
 8001386:	601a      	str	r2, [r3, #0]
 8001388:	4a6d      	ldr	r2, [pc, #436]	; (8001540 <stm32__device___elabs+0xdd0>)
 800138a:	2300      	movs	r3, #0
 800138c:	9300      	str	r3, [sp, #0]
 800138e:	4610      	mov	r0, r2
 8001390:	4964      	ldr	r1, [pc, #400]	; (8001524 <stm32__device___elabs+0xdb4>)
 8001392:	2201      	movs	r2, #1
 8001394:	2300      	movs	r3, #0
 8001396:	f006 fd39 	bl	8007e0c <ada__tags__register_interface_offset>
 800139a:	4b63      	ldr	r3, [pc, #396]	; (8001528 <stm32__device___elabs+0xdb8>)
 800139c:	681b      	ldr	r3, [r3, #0]
 800139e:	4a69      	ldr	r2, [pc, #420]	; (8001544 <stm32__device___elabs+0xdd4>)
 80013a0:	6053      	str	r3, [r2, #4]
 80013a2:	4b68      	ldr	r3, [pc, #416]	; (8001544 <stm32__device___elabs+0xdd4>)
 80013a4:	2280      	movs	r2, #128	; 0x80
 80013a6:	811a      	strh	r2, [r3, #8]
 80013a8:	4b66      	ldr	r3, [pc, #408]	; (8001544 <stm32__device___elabs+0xdd4>)
 80013aa:	4a5c      	ldr	r2, [pc, #368]	; (800151c <stm32__device___elabs+0xdac>)
 80013ac:	601a      	str	r2, [r3, #0]
 80013ae:	4a65      	ldr	r2, [pc, #404]	; (8001544 <stm32__device___elabs+0xdd4>)
 80013b0:	2300      	movs	r3, #0
 80013b2:	9300      	str	r3, [sp, #0]
 80013b4:	4610      	mov	r0, r2
 80013b6:	495b      	ldr	r1, [pc, #364]	; (8001524 <stm32__device___elabs+0xdb4>)
 80013b8:	2201      	movs	r2, #1
 80013ba:	2300      	movs	r3, #0
 80013bc:	f006 fd26 	bl	8007e0c <ada__tags__register_interface_offset>
 80013c0:	4b59      	ldr	r3, [pc, #356]	; (8001528 <stm32__device___elabs+0xdb8>)
 80013c2:	681b      	ldr	r3, [r3, #0]
 80013c4:	4a60      	ldr	r2, [pc, #384]	; (8001548 <stm32__device___elabs+0xdd8>)
 80013c6:	6053      	str	r3, [r2, #4]
 80013c8:	4b5f      	ldr	r3, [pc, #380]	; (8001548 <stm32__device___elabs+0xdd8>)
 80013ca:	f44f 7280 	mov.w	r2, #256	; 0x100
 80013ce:	811a      	strh	r2, [r3, #8]
 80013d0:	4b5d      	ldr	r3, [pc, #372]	; (8001548 <stm32__device___elabs+0xdd8>)
 80013d2:	4a52      	ldr	r2, [pc, #328]	; (800151c <stm32__device___elabs+0xdac>)
 80013d4:	601a      	str	r2, [r3, #0]
 80013d6:	4a5c      	ldr	r2, [pc, #368]	; (8001548 <stm32__device___elabs+0xdd8>)
 80013d8:	2300      	movs	r3, #0
 80013da:	9300      	str	r3, [sp, #0]
 80013dc:	4610      	mov	r0, r2
 80013de:	4951      	ldr	r1, [pc, #324]	; (8001524 <stm32__device___elabs+0xdb4>)
 80013e0:	2201      	movs	r2, #1
 80013e2:	2300      	movs	r3, #0
 80013e4:	f006 fd12 	bl	8007e0c <ada__tags__register_interface_offset>
 80013e8:	4b4f      	ldr	r3, [pc, #316]	; (8001528 <stm32__device___elabs+0xdb8>)
 80013ea:	681b      	ldr	r3, [r3, #0]
 80013ec:	4a57      	ldr	r2, [pc, #348]	; (800154c <stm32__device___elabs+0xddc>)
 80013ee:	6053      	str	r3, [r2, #4]
 80013f0:	4b56      	ldr	r3, [pc, #344]	; (800154c <stm32__device___elabs+0xddc>)
 80013f2:	f44f 7200 	mov.w	r2, #512	; 0x200
 80013f6:	811a      	strh	r2, [r3, #8]
 80013f8:	4b54      	ldr	r3, [pc, #336]	; (800154c <stm32__device___elabs+0xddc>)
 80013fa:	4a48      	ldr	r2, [pc, #288]	; (800151c <stm32__device___elabs+0xdac>)
 80013fc:	601a      	str	r2, [r3, #0]
 80013fe:	4a53      	ldr	r2, [pc, #332]	; (800154c <stm32__device___elabs+0xddc>)
 8001400:	2300      	movs	r3, #0
 8001402:	9300      	str	r3, [sp, #0]
 8001404:	4610      	mov	r0, r2
 8001406:	4947      	ldr	r1, [pc, #284]	; (8001524 <stm32__device___elabs+0xdb4>)
 8001408:	2201      	movs	r2, #1
 800140a:	2300      	movs	r3, #0
 800140c:	f006 fcfe 	bl	8007e0c <ada__tags__register_interface_offset>
 8001410:	4b45      	ldr	r3, [pc, #276]	; (8001528 <stm32__device___elabs+0xdb8>)
 8001412:	681b      	ldr	r3, [r3, #0]
 8001414:	4a4e      	ldr	r2, [pc, #312]	; (8001550 <stm32__device___elabs+0xde0>)
 8001416:	6053      	str	r3, [r2, #4]
 8001418:	4b4d      	ldr	r3, [pc, #308]	; (8001550 <stm32__device___elabs+0xde0>)
 800141a:	f44f 6280 	mov.w	r2, #1024	; 0x400
 800141e:	811a      	strh	r2, [r3, #8]
 8001420:	4b4b      	ldr	r3, [pc, #300]	; (8001550 <stm32__device___elabs+0xde0>)
 8001422:	4a3e      	ldr	r2, [pc, #248]	; (800151c <stm32__device___elabs+0xdac>)
 8001424:	601a      	str	r2, [r3, #0]
 8001426:	4a4a      	ldr	r2, [pc, #296]	; (8001550 <stm32__device___elabs+0xde0>)
 8001428:	2300      	movs	r3, #0
 800142a:	9300      	str	r3, [sp, #0]
 800142c:	4610      	mov	r0, r2
 800142e:	493d      	ldr	r1, [pc, #244]	; (8001524 <stm32__device___elabs+0xdb4>)
 8001430:	2201      	movs	r2, #1
 8001432:	2300      	movs	r3, #0
 8001434:	f006 fcea 	bl	8007e0c <ada__tags__register_interface_offset>
 8001438:	4b3b      	ldr	r3, [pc, #236]	; (8001528 <stm32__device___elabs+0xdb8>)
 800143a:	681b      	ldr	r3, [r3, #0]
 800143c:	4a45      	ldr	r2, [pc, #276]	; (8001554 <stm32__device___elabs+0xde4>)
 800143e:	6053      	str	r3, [r2, #4]
 8001440:	4b44      	ldr	r3, [pc, #272]	; (8001554 <stm32__device___elabs+0xde4>)
 8001442:	f44f 6200 	mov.w	r2, #2048	; 0x800
 8001446:	811a      	strh	r2, [r3, #8]
 8001448:	4b42      	ldr	r3, [pc, #264]	; (8001554 <stm32__device___elabs+0xde4>)
 800144a:	4a34      	ldr	r2, [pc, #208]	; (800151c <stm32__device___elabs+0xdac>)
 800144c:	601a      	str	r2, [r3, #0]
 800144e:	4a41      	ldr	r2, [pc, #260]	; (8001554 <stm32__device___elabs+0xde4>)
 8001450:	2300      	movs	r3, #0
 8001452:	9300      	str	r3, [sp, #0]
 8001454:	4610      	mov	r0, r2
 8001456:	4933      	ldr	r1, [pc, #204]	; (8001524 <stm32__device___elabs+0xdb4>)
 8001458:	2201      	movs	r2, #1
 800145a:	2300      	movs	r3, #0
 800145c:	f006 fcd6 	bl	8007e0c <ada__tags__register_interface_offset>
 8001460:	4b31      	ldr	r3, [pc, #196]	; (8001528 <stm32__device___elabs+0xdb8>)
 8001462:	681b      	ldr	r3, [r3, #0]
 8001464:	4a3c      	ldr	r2, [pc, #240]	; (8001558 <stm32__device___elabs+0xde8>)
 8001466:	6053      	str	r3, [r2, #4]
 8001468:	4b3b      	ldr	r3, [pc, #236]	; (8001558 <stm32__device___elabs+0xde8>)
 800146a:	f44f 5280 	mov.w	r2, #4096	; 0x1000
 800146e:	811a      	strh	r2, [r3, #8]
 8001470:	4b39      	ldr	r3, [pc, #228]	; (8001558 <stm32__device___elabs+0xde8>)
 8001472:	4a2a      	ldr	r2, [pc, #168]	; (800151c <stm32__device___elabs+0xdac>)
 8001474:	601a      	str	r2, [r3, #0]
 8001476:	4a38      	ldr	r2, [pc, #224]	; (8001558 <stm32__device___elabs+0xde8>)
 8001478:	2300      	movs	r3, #0
 800147a:	9300      	str	r3, [sp, #0]
 800147c:	4610      	mov	r0, r2
 800147e:	4929      	ldr	r1, [pc, #164]	; (8001524 <stm32__device___elabs+0xdb4>)
 8001480:	2201      	movs	r2, #1
 8001482:	2300      	movs	r3, #0
 8001484:	f006 fcc2 	bl	8007e0c <ada__tags__register_interface_offset>
 8001488:	4b27      	ldr	r3, [pc, #156]	; (8001528 <stm32__device___elabs+0xdb8>)
 800148a:	681b      	ldr	r3, [r3, #0]
 800148c:	4a33      	ldr	r2, [pc, #204]	; (800155c <stm32__device___elabs+0xdec>)
 800148e:	6053      	str	r3, [r2, #4]
 8001490:	4b32      	ldr	r3, [pc, #200]	; (800155c <stm32__device___elabs+0xdec>)
 8001492:	f44f 5200 	mov.w	r2, #8192	; 0x2000
 8001496:	811a      	strh	r2, [r3, #8]
 8001498:	4b30      	ldr	r3, [pc, #192]	; (800155c <stm32__device___elabs+0xdec>)
 800149a:	4a20      	ldr	r2, [pc, #128]	; (800151c <stm32__device___elabs+0xdac>)
 800149c:	601a      	str	r2, [r3, #0]
 800149e:	4a2f      	ldr	r2, [pc, #188]	; (800155c <stm32__device___elabs+0xdec>)
 80014a0:	2300      	movs	r3, #0
 80014a2:	9300      	str	r3, [sp, #0]
 80014a4:	4610      	mov	r0, r2
 80014a6:	491f      	ldr	r1, [pc, #124]	; (8001524 <stm32__device___elabs+0xdb4>)
 80014a8:	2201      	movs	r2, #1
 80014aa:	2300      	movs	r3, #0
 80014ac:	f006 fcae 	bl	8007e0c <ada__tags__register_interface_offset>
 80014b0:	4b1d      	ldr	r3, [pc, #116]	; (8001528 <stm32__device___elabs+0xdb8>)
 80014b2:	681b      	ldr	r3, [r3, #0]
 80014b4:	4a2a      	ldr	r2, [pc, #168]	; (8001560 <stm32__device___elabs+0xdf0>)
 80014b6:	6053      	str	r3, [r2, #4]
 80014b8:	4b29      	ldr	r3, [pc, #164]	; (8001560 <stm32__device___elabs+0xdf0>)
 80014ba:	f44f 4280 	mov.w	r2, #16384	; 0x4000
 80014be:	811a      	strh	r2, [r3, #8]
 80014c0:	4b27      	ldr	r3, [pc, #156]	; (8001560 <stm32__device___elabs+0xdf0>)
 80014c2:	4a16      	ldr	r2, [pc, #88]	; (800151c <stm32__device___elabs+0xdac>)
 80014c4:	601a      	str	r2, [r3, #0]
 80014c6:	4a26      	ldr	r2, [pc, #152]	; (8001560 <stm32__device___elabs+0xdf0>)
 80014c8:	2300      	movs	r3, #0
 80014ca:	9300      	str	r3, [sp, #0]
 80014cc:	4610      	mov	r0, r2
 80014ce:	4915      	ldr	r1, [pc, #84]	; (8001524 <stm32__device___elabs+0xdb4>)
 80014d0:	2201      	movs	r2, #1
 80014d2:	2300      	movs	r3, #0
 80014d4:	f006 fc9a 	bl	8007e0c <ada__tags__register_interface_offset>
 80014d8:	4b13      	ldr	r3, [pc, #76]	; (8001528 <stm32__device___elabs+0xdb8>)
 80014da:	681b      	ldr	r3, [r3, #0]
 80014dc:	4a21      	ldr	r2, [pc, #132]	; (8001564 <stm32__device___elabs+0xdf4>)
 80014de:	6053      	str	r3, [r2, #4]
 80014e0:	4b20      	ldr	r3, [pc, #128]	; (8001564 <stm32__device___elabs+0xdf4>)
 80014e2:	f44f 4200 	mov.w	r2, #32768	; 0x8000
 80014e6:	811a      	strh	r2, [r3, #8]
 80014e8:	4b1e      	ldr	r3, [pc, #120]	; (8001564 <stm32__device___elabs+0xdf4>)
 80014ea:	4a0c      	ldr	r2, [pc, #48]	; (800151c <stm32__device___elabs+0xdac>)
 80014ec:	601a      	str	r2, [r3, #0]
 80014ee:	4a1d      	ldr	r2, [pc, #116]	; (8001564 <stm32__device___elabs+0xdf4>)
 80014f0:	2300      	movs	r3, #0
 80014f2:	9300      	str	r3, [sp, #0]
 80014f4:	4610      	mov	r0, r2
 80014f6:	490b      	ldr	r1, [pc, #44]	; (8001524 <stm32__device___elabs+0xdb4>)
 80014f8:	2201      	movs	r2, #1
 80014fa:	2300      	movs	r3, #0
 80014fc:	f006 fc86 	bl	8007e0c <ada__tags__register_interface_offset>
 8001500:	4b19      	ldr	r3, [pc, #100]	; (8001568 <stm32__device___elabs+0xdf8>)
 8001502:	681b      	ldr	r3, [r3, #0]
 8001504:	4819      	ldr	r0, [pc, #100]	; (800156c <stm32__device___elabs+0xdfc>)
 8001506:	4619      	mov	r1, r3
 8001508:	2201      	movs	r2, #1
 800150a:	f000 f875 	bl	80015f8 <stm32__i2c__i2c_portIP>
 800150e:	4b18      	ldr	r3, [pc, #96]	; (8001570 <stm32__device___elabs+0xe00>)
 8001510:	681b      	ldr	r3, [r3, #0]
 8001512:	4818      	ldr	r0, [pc, #96]	; (8001574 <stm32__device___elabs+0xe04>)
 8001514:	4619      	mov	r1, r3
 8001516:	2201      	movs	r2, #1
 8001518:	e02e      	b.n	8001578 <stm32__device___elabs+0xe08>
 800151a:	bf00      	nop
 800151c:	0800ccac 	.word	0x0800ccac
 8001520:	200005c0 	.word	0x200005c0
 8001524:	0800d110 	.word	0x0800d110
 8001528:	20000030 	.word	0x20000030
 800152c:	200005cc 	.word	0x200005cc
 8001530:	200005d8 	.word	0x200005d8
 8001534:	200005e4 	.word	0x200005e4
 8001538:	200005f0 	.word	0x200005f0
 800153c:	200005fc 	.word	0x200005fc
 8001540:	20000608 	.word	0x20000608
 8001544:	20000614 	.word	0x20000614
 8001548:	20000620 	.word	0x20000620
 800154c:	2000062c 	.word	0x2000062c
 8001550:	20000638 	.word	0x20000638
 8001554:	20000644 	.word	0x20000644
 8001558:	20000650 	.word	0x20000650
 800155c:	2000065c 	.word	0x2000065c
 8001560:	20000668 	.word	0x20000668
 8001564:	20000674 	.word	0x20000674
 8001568:	20000034 	.word	0x20000034
 800156c:	20000680 	.word	0x20000680
 8001570:	20000038 	.word	0x20000038
 8001574:	20000698 	.word	0x20000698
 8001578:	f000 f83e 	bl	80015f8 <stm32__i2c__i2c_portIP>
 800157c:	4b0e      	ldr	r3, [pc, #56]	; (80015b8 <stm32__device___elabs+0xe48>)
 800157e:	681b      	ldr	r3, [r3, #0]
 8001580:	480e      	ldr	r0, [pc, #56]	; (80015bc <stm32__device___elabs+0xe4c>)
 8001582:	4619      	mov	r1, r3
 8001584:	2201      	movs	r2, #1
 8001586:	f000 f837 	bl	80015f8 <stm32__i2c__i2c_portIP>
 800158a:	4b0d      	ldr	r3, [pc, #52]	; (80015c0 <stm32__device___elabs+0xe50>)
 800158c:	681b      	ldr	r3, [r3, #0]
 800158e:	480d      	ldr	r0, [pc, #52]	; (80015c4 <stm32__device___elabs+0xe54>)
 8001590:	4619      	mov	r1, r3
 8001592:	2201      	movs	r2, #1
 8001594:	f002 fe84 	bl	80042a0 <stm32__spi__spi_portIP>
 8001598:	4b0b      	ldr	r3, [pc, #44]	; (80015c8 <stm32__device___elabs+0xe58>)
 800159a:	681b      	ldr	r3, [r3, #0]
 800159c:	480b      	ldr	r0, [pc, #44]	; (80015cc <stm32__device___elabs+0xe5c>)
 800159e:	4619      	mov	r1, r3
 80015a0:	2201      	movs	r2, #1
 80015a2:	f002 fe7d 	bl	80042a0 <stm32__spi__spi_portIP>
 80015a6:	4b0a      	ldr	r3, [pc, #40]	; (80015d0 <stm32__device___elabs+0xe60>)
 80015a8:	681b      	ldr	r3, [r3, #0]
 80015aa:	480a      	ldr	r0, [pc, #40]	; (80015d4 <stm32__device___elabs+0xe64>)
 80015ac:	4619      	mov	r1, r3
 80015ae:	2201      	movs	r2, #1
 80015b0:	f002 fe76 	bl	80042a0 <stm32__spi__spi_portIP>
 80015b4:	46bd      	mov	sp, r7
 80015b6:	bd80      	pop	{r7, pc}
 80015b8:	2000003c 	.word	0x2000003c
 80015bc:	200006b0 	.word	0x200006b0
 80015c0:	20000040 	.word	0x20000040
 80015c4:	200006c8 	.word	0x200006c8
 80015c8:	20000044 	.word	0x20000044
 80015cc:	200006d0 	.word	0x200006d0
 80015d0:	20000048 	.word	0x20000048
 80015d4:	200006d8 	.word	0x200006d8

080015d8 <stm32__i2c__i2c_configurationIP>:
 80015d8:	b480      	push	{r7}
 80015da:	b083      	sub	sp, #12
 80015dc:	af00      	add	r7, sp, #0
 80015de:	6078      	str	r0, [r7, #4]
 80015e0:	687b      	ldr	r3, [r7, #4]
 80015e2:	2200      	movs	r2, #0
 80015e4:	721a      	strb	r2, [r3, #8]
 80015e6:	687b      	ldr	r3, [r7, #4]
 80015e8:	2201      	movs	r2, #1
 80015ea:	725a      	strb	r2, [r3, #9]
 80015ec:	370c      	adds	r7, #12
 80015ee:	46bd      	mov	sp, r7
 80015f0:	f85d 7b04 	ldr.w	r7, [sp], #4
 80015f4:	4770      	bx	lr
 80015f6:	bf00      	nop

080015f8 <stm32__i2c__i2c_portIP>:
 80015f8:	b580      	push	{r7, lr}
 80015fa:	b086      	sub	sp, #24
 80015fc:	af02      	add	r7, sp, #8
 80015fe:	60f8      	str	r0, [r7, #12]
 8001600:	60b9      	str	r1, [r7, #8]
 8001602:	4613      	mov	r3, r2
 8001604:	71fb      	strb	r3, [r7, #7]
 8001606:	79fb      	ldrb	r3, [r7, #7]
 8001608:	2b00      	cmp	r3, #0
 800160a:	d00b      	beq.n	8001624 <stm32__i2c__i2c_portIP+0x2c>
 800160c:	68fb      	ldr	r3, [r7, #12]
 800160e:	4a0c      	ldr	r2, [pc, #48]	; (8001640 <stm32__i2c__i2c_portIP+0x48>)
 8001610:	601a      	str	r2, [r3, #0]
 8001612:	68fa      	ldr	r2, [r7, #12]
 8001614:	2300      	movs	r3, #0
 8001616:	9300      	str	r3, [sp, #0]
 8001618:	4610      	mov	r0, r2
 800161a:	490a      	ldr	r1, [pc, #40]	; (8001644 <stm32__i2c__i2c_portIP+0x4c>)
 800161c:	2201      	movs	r2, #1
 800161e:	2300      	movs	r3, #0
 8001620:	f006 fbf4 	bl	8007e0c <ada__tags__register_interface_offset>
 8001624:	68fb      	ldr	r3, [r7, #12]
 8001626:	68ba      	ldr	r2, [r7, #8]
 8001628:	605a      	str	r2, [r3, #4]
 800162a:	68fb      	ldr	r3, [r7, #12]
 800162c:	3308      	adds	r3, #8
 800162e:	4618      	mov	r0, r3
 8001630:	f7ff ffd2 	bl	80015d8 <stm32__i2c__i2c_configurationIP>
 8001634:	68fb      	ldr	r3, [r7, #12]
 8001636:	2200      	movs	r2, #0
 8001638:	751a      	strb	r2, [r3, #20]
 800163a:	3710      	adds	r7, #16
 800163c:	46bd      	mov	sp, r7
 800163e:	bd80      	pop	{r7, pc}
 8001640:	0800cad0 	.word	0x0800cad0
 8001644:	0800d080 	.word	0x0800d080

08001648 <stm32__i2c___size__2>:
 8001648:	b490      	push	{r4, r7}
 800164a:	b082      	sub	sp, #8
 800164c:	af00      	add	r7, sp, #0
 800164e:	6078      	str	r0, [r7, #4]
 8001650:	f04f 03c0 	mov.w	r3, #192	; 0xc0
 8001654:	f04f 0400 	mov.w	r4, #0
 8001658:	4618      	mov	r0, r3
 800165a:	4621      	mov	r1, r4
 800165c:	3708      	adds	r7, #8
 800165e:	46bd      	mov	sp, r7
 8001660:	bc90      	pop	{r4, r7}
 8001662:	4770      	bx	lr

08001664 <stm32__i2c__i2c_portSR__i2c_configuration_39SR__2.5131>:
 8001664:	b580      	push	{r7, lr}
 8001666:	b084      	sub	sp, #16
 8001668:	af00      	add	r7, sp, #0
 800166a:	60f8      	str	r0, [r7, #12]
 800166c:	60b9      	str	r1, [r7, #8]
 800166e:	607a      	str	r2, [r7, #4]
 8001670:	f8c7 c000 	str.w	ip, [r7]
 8001674:	68f8      	ldr	r0, [r7, #12]
 8001676:	f006 fc77 	bl	8007f68 <system__stream_attributes__i_u>
 800167a:	4602      	mov	r2, r0
 800167c:	68bb      	ldr	r3, [r7, #8]
 800167e:	601a      	str	r2, [r3, #0]
 8001680:	68f8      	ldr	r0, [r7, #12]
 8001682:	f006 fc39 	bl	8007ef8 <system__stream_attributes__i_ssu>
 8001686:	4603      	mov	r3, r0
 8001688:	461a      	mov	r2, r3
 800168a:	68bb      	ldr	r3, [r7, #8]
 800168c:	711a      	strb	r2, [r3, #4]
 800168e:	68f8      	ldr	r0, [r7, #12]
 8001690:	f006 fc4e 	bl	8007f30 <system__stream_attributes__i_su>
 8001694:	4603      	mov	r3, r0
 8001696:	461a      	mov	r2, r3
 8001698:	68bb      	ldr	r3, [r7, #8]
 800169a:	80da      	strh	r2, [r3, #6]
 800169c:	68f8      	ldr	r0, [r7, #12]
 800169e:	f006 fc0f 	bl	8007ec0 <system__stream_attributes__i_b>
 80016a2:	4603      	mov	r3, r0
 80016a4:	461a      	mov	r2, r3
 80016a6:	68bb      	ldr	r3, [r7, #8]
 80016a8:	721a      	strb	r2, [r3, #8]
 80016aa:	68f8      	ldr	r0, [r7, #12]
 80016ac:	f006 fc08 	bl	8007ec0 <system__stream_attributes__i_b>
 80016b0:	4603      	mov	r3, r0
 80016b2:	461a      	mov	r2, r3
 80016b4:	68bb      	ldr	r3, [r7, #8]
 80016b6:	725a      	strb	r2, [r3, #9]
 80016b8:	3710      	adds	r7, #16
 80016ba:	46bd      	mov	sp, r7
 80016bc:	bd80      	pop	{r7, pc}
 80016be:	bf00      	nop

080016c0 <stm32__i2c__i2c_portSR__2>:
 80016c0:	b580      	push	{r7, lr}
 80016c2:	b086      	sub	sp, #24
 80016c4:	af00      	add	r7, sp, #0
 80016c6:	60f8      	str	r0, [r7, #12]
 80016c8:	60b9      	str	r1, [r7, #8]
 80016ca:	607a      	str	r2, [r7, #4]
 80016cc:	f107 0320 	add.w	r3, r7, #32
 80016d0:	617b      	str	r3, [r7, #20]
 80016d2:	68bb      	ldr	r3, [r7, #8]
 80016d4:	f103 0208 	add.w	r2, r3, #8
 80016d8:	f107 0314 	add.w	r3, r7, #20
 80016dc:	469c      	mov	ip, r3
 80016de:	68f8      	ldr	r0, [r7, #12]
 80016e0:	4611      	mov	r1, r2
 80016e2:	687a      	ldr	r2, [r7, #4]
 80016e4:	f7ff ffbe 	bl	8001664 <stm32__i2c__i2c_portSR__i2c_configuration_39SR__2.5131>
 80016e8:	68f8      	ldr	r0, [r7, #12]
 80016ea:	f006 fc05 	bl	8007ef8 <system__stream_attributes__i_ssu>
 80016ee:	4603      	mov	r3, r0
 80016f0:	461a      	mov	r2, r3
 80016f2:	68bb      	ldr	r3, [r7, #8]
 80016f4:	751a      	strb	r2, [r3, #20]
 80016f6:	3718      	adds	r7, #24
 80016f8:	46bd      	mov	sp, r7
 80016fa:	bd80      	pop	{r7, pc}

080016fc <stm32__i2c__i2c_portSW__i2c_configuration_43SW__2.5163>:
 80016fc:	b580      	push	{r7, lr}
 80016fe:	b084      	sub	sp, #16
 8001700:	af00      	add	r7, sp, #0
 8001702:	60f8      	str	r0, [r7, #12]
 8001704:	60b9      	str	r1, [r7, #8]
 8001706:	607a      	str	r2, [r7, #4]
 8001708:	f8c7 c000 	str.w	ip, [r7]
 800170c:	68bb      	ldr	r3, [r7, #8]
 800170e:	681b      	ldr	r3, [r3, #0]
 8001710:	68f8      	ldr	r0, [r7, #12]
 8001712:	4619      	mov	r1, r3
 8001714:	f006 fc80 	bl	8008018 <system__stream_attributes__w_u>
 8001718:	68bb      	ldr	r3, [r7, #8]
 800171a:	791b      	ldrb	r3, [r3, #4]
 800171c:	68f8      	ldr	r0, [r7, #12]
 800171e:	4619      	mov	r1, r3
 8001720:	f006 fc5c 	bl	8007fdc <system__stream_attributes__w_ssu>
 8001724:	68bb      	ldr	r3, [r7, #8]
 8001726:	88db      	ldrh	r3, [r3, #6]
 8001728:	68f8      	ldr	r0, [r7, #12]
 800172a:	4619      	mov	r1, r3
 800172c:	f006 fc64 	bl	8007ff8 <system__stream_attributes__w_su>
 8001730:	68bb      	ldr	r3, [r7, #8]
 8001732:	7a1b      	ldrb	r3, [r3, #8]
 8001734:	68f8      	ldr	r0, [r7, #12]
 8001736:	4619      	mov	r1, r3
 8001738:	f006 fc42 	bl	8007fc0 <system__stream_attributes__w_b>
 800173c:	68bb      	ldr	r3, [r7, #8]
 800173e:	7a5b      	ldrb	r3, [r3, #9]
 8001740:	68f8      	ldr	r0, [r7, #12]
 8001742:	4619      	mov	r1, r3
 8001744:	f006 fc3c 	bl	8007fc0 <system__stream_attributes__w_b>
 8001748:	3710      	adds	r7, #16
 800174a:	46bd      	mov	sp, r7
 800174c:	bd80      	pop	{r7, pc}
 800174e:	bf00      	nop

08001750 <stm32__i2c__i2c_portSW__2>:
 8001750:	b580      	push	{r7, lr}
 8001752:	b086      	sub	sp, #24
 8001754:	af00      	add	r7, sp, #0
 8001756:	60f8      	str	r0, [r7, #12]
 8001758:	60b9      	str	r1, [r7, #8]
 800175a:	607a      	str	r2, [r7, #4]
 800175c:	f107 0320 	add.w	r3, r7, #32
 8001760:	617b      	str	r3, [r7, #20]
 8001762:	68bb      	ldr	r3, [r7, #8]
 8001764:	f103 0208 	add.w	r2, r3, #8
 8001768:	f107 0314 	add.w	r3, r7, #20
 800176c:	469c      	mov	ip, r3
 800176e:	68f8      	ldr	r0, [r7, #12]
 8001770:	4611      	mov	r1, r2
 8001772:	687a      	ldr	r2, [r7, #4]
 8001774:	f7ff ffc2 	bl	80016fc <stm32__i2c__i2c_portSW__i2c_configuration_43SW__2.5163>
 8001778:	68bb      	ldr	r3, [r7, #8]
 800177a:	7d1b      	ldrb	r3, [r3, #20]
 800177c:	68f8      	ldr	r0, [r7, #12]
 800177e:	4619      	mov	r1, r3
 8001780:	f006 fc2c 	bl	8007fdc <system__stream_attributes__w_ssu>
 8001784:	3718      	adds	r7, #24
 8001786:	46bd      	mov	sp, r7
 8001788:	bd80      	pop	{r7, pc}
 800178a:	bf00      	nop

0800178c <stm32__i2c__i2c_portSI__2>:
 800178c:	b5f0      	push	{r4, r5, r6, r7, lr}
 800178e:	b089      	sub	sp, #36	; 0x24
 8001790:	af00      	add	r7, sp, #0
 8001792:	6078      	str	r0, [r7, #4]
 8001794:	6039      	str	r1, [r7, #0]
 8001796:	6878      	ldr	r0, [r7, #4]
 8001798:	f006 fb76 	bl	8007e88 <system__stream_attributes__i_as>
 800179c:	4603      	mov	r3, r0
 800179e:	461a      	mov	r2, r3
 80017a0:	f107 0308 	add.w	r3, r7, #8
 80017a4:	4618      	mov	r0, r3
 80017a6:	4611      	mov	r1, r2
 80017a8:	2201      	movs	r2, #1
 80017aa:	f7ff ff25 	bl	80015f8 <stm32__i2c__i2c_portIP>
 80017ae:	f107 0308 	add.w	r3, r7, #8
 80017b2:	6878      	ldr	r0, [r7, #4]
 80017b4:	4619      	mov	r1, r3
 80017b6:	683a      	ldr	r2, [r7, #0]
 80017b8:	f7ff ff82 	bl	80016c0 <stm32__i2c__i2c_portSR__2>
 80017bc:	2018      	movs	r0, #24
 80017be:	f007 fce1 	bl	8009184 <system__secondary_stack__ss_allocate>
 80017c2:	4606      	mov	r6, r0
 80017c4:	4633      	mov	r3, r6
 80017c6:	461d      	mov	r5, r3
 80017c8:	f107 0408 	add.w	r4, r7, #8
 80017cc:	cc0f      	ldmia	r4!, {r0, r1, r2, r3}
 80017ce:	c50f      	stmia	r5!, {r0, r1, r2, r3}
 80017d0:	e894 0003 	ldmia.w	r4, {r0, r1}
 80017d4:	e885 0003 	stmia.w	r5, {r0, r1}
 80017d8:	4633      	mov	r3, r6
 80017da:	4618      	mov	r0, r3
 80017dc:	3724      	adds	r7, #36	; 0x24
 80017de:	46bd      	mov	sp, r7
 80017e0:	bdf0      	pop	{r4, r5, r6, r7, pc}
 80017e2:	bf00      	nop

080017e4 <stm32__i2c__i2c_portSO__2>:
 80017e4:	b580      	push	{r7, lr}
 80017e6:	b084      	sub	sp, #16
 80017e8:	af00      	add	r7, sp, #0
 80017ea:	60f8      	str	r0, [r7, #12]
 80017ec:	60b9      	str	r1, [r7, #8]
 80017ee:	607a      	str	r2, [r7, #4]
 80017f0:	68bb      	ldr	r3, [r7, #8]
 80017f2:	68f8      	ldr	r0, [r7, #12]
 80017f4:	6859      	ldr	r1, [r3, #4]
 80017f6:	f006 fbd3 	bl	8007fa0 <system__stream_attributes__w_as>
 80017fa:	68f8      	ldr	r0, [r7, #12]
 80017fc:	68b9      	ldr	r1, [r7, #8]
 80017fe:	687a      	ldr	r2, [r7, #4]
 8001800:	f7ff ffa6 	bl	8001750 <stm32__i2c__i2c_portSW__2>
 8001804:	3710      	adds	r7, #16
 8001806:	46bd      	mov	sp, r7
 8001808:	bd80      	pop	{r7, pc}
 800180a:	bf00      	nop

0800180c <stm32__i2c__Oeq>:
 800180c:	b480      	push	{r7}
 800180e:	b083      	sub	sp, #12
 8001810:	af00      	add	r7, sp, #0
 8001812:	6078      	str	r0, [r7, #4]
 8001814:	6039      	str	r1, [r7, #0]
 8001816:	687b      	ldr	r3, [r7, #4]
 8001818:	685a      	ldr	r2, [r3, #4]
 800181a:	683b      	ldr	r3, [r7, #0]
 800181c:	685b      	ldr	r3, [r3, #4]
 800181e:	429a      	cmp	r2, r3
 8001820:	d125      	bne.n	800186e <stm32__i2c__Oeq+0x62>
 8001822:	687b      	ldr	r3, [r7, #4]
 8001824:	689a      	ldr	r2, [r3, #8]
 8001826:	683b      	ldr	r3, [r7, #0]
 8001828:	689b      	ldr	r3, [r3, #8]
 800182a:	429a      	cmp	r2, r3
 800182c:	d11f      	bne.n	800186e <stm32__i2c__Oeq+0x62>
 800182e:	687b      	ldr	r3, [r7, #4]
 8001830:	7b1a      	ldrb	r2, [r3, #12]
 8001832:	683b      	ldr	r3, [r7, #0]
 8001834:	7b1b      	ldrb	r3, [r3, #12]
 8001836:	429a      	cmp	r2, r3
 8001838:	d119      	bne.n	800186e <stm32__i2c__Oeq+0x62>
 800183a:	687b      	ldr	r3, [r7, #4]
 800183c:	89da      	ldrh	r2, [r3, #14]
 800183e:	683b      	ldr	r3, [r7, #0]
 8001840:	89db      	ldrh	r3, [r3, #14]
 8001842:	429a      	cmp	r2, r3
 8001844:	d113      	bne.n	800186e <stm32__i2c__Oeq+0x62>
 8001846:	687b      	ldr	r3, [r7, #4]
 8001848:	7c1a      	ldrb	r2, [r3, #16]
 800184a:	683b      	ldr	r3, [r7, #0]
 800184c:	7c1b      	ldrb	r3, [r3, #16]
 800184e:	429a      	cmp	r2, r3
 8001850:	d10d      	bne.n	800186e <stm32__i2c__Oeq+0x62>
 8001852:	687b      	ldr	r3, [r7, #4]
 8001854:	7c5a      	ldrb	r2, [r3, #17]
 8001856:	683b      	ldr	r3, [r7, #0]
 8001858:	7c5b      	ldrb	r3, [r3, #17]
 800185a:	429a      	cmp	r2, r3
 800185c:	d107      	bne.n	800186e <stm32__i2c__Oeq+0x62>
 800185e:	687b      	ldr	r3, [r7, #4]
 8001860:	7d1a      	ldrb	r2, [r3, #20]
 8001862:	683b      	ldr	r3, [r7, #0]
 8001864:	7d1b      	ldrb	r3, [r3, #20]
 8001866:	429a      	cmp	r2, r3
 8001868:	d101      	bne.n	800186e <stm32__i2c__Oeq+0x62>
 800186a:	2301      	movs	r3, #1
 800186c:	e000      	b.n	8001870 <stm32__i2c__Oeq+0x64>
 800186e:	2300      	movs	r3, #0
 8001870:	4618      	mov	r0, r3
 8001872:	370c      	adds	r7, #12
 8001874:	46bd      	mov	sp, r7
 8001876:	f85d 7b04 	ldr.w	r7, [sp], #4
 800187a:	4770      	bx	lr

0800187c <stm32__i2c___assign>:
 800187c:	b5f0      	push	{r4, r5, r6, r7, lr}
 800187e:	b0ed      	sub	sp, #436	; 0x1b4
 8001880:	af00      	add	r7, sp, #0
 8001882:	1d3b      	adds	r3, r7, #4
 8001884:	6018      	str	r0, [r3, #0]
 8001886:	463b      	mov	r3, r7
 8001888:	6019      	str	r1, [r3, #0]
 800188a:	1d3b      	adds	r3, r7, #4
 800188c:	681b      	ldr	r3, [r3, #0]
 800188e:	685b      	ldr	r3, [r3, #4]
 8001890:	463a      	mov	r2, r7
 8001892:	6812      	ldr	r2, [r2, #0]
 8001894:	6852      	ldr	r2, [r2, #4]
 8001896:	429a      	cmp	r2, r3
 8001898:	d003      	beq.n	80018a2 <stm32__i2c___assign+0x26>
 800189a:	4810      	ldr	r0, [pc, #64]	; (80018dc <stm32__i2c___assign+0x60>)
 800189c:	2185      	movs	r1, #133	; 0x85
 800189e:	f007 fbe1 	bl	8009064 <__gnat_rcheck_CE_Discriminant_Check>
 80018a2:	1d3b      	adds	r3, r7, #4
 80018a4:	681a      	ldr	r2, [r3, #0]
 80018a6:	463b      	mov	r3, r7
 80018a8:	681b      	ldr	r3, [r3, #0]
 80018aa:	429a      	cmp	r2, r3
 80018ac:	d011      	beq.n	80018d2 <stm32__i2c___assign+0x56>
 80018ae:	1d3b      	adds	r3, r7, #4
 80018b0:	681b      	ldr	r3, [r3, #0]
 80018b2:	681e      	ldr	r6, [r3, #0]
 80018b4:	1d3b      	adds	r3, r7, #4
 80018b6:	681a      	ldr	r2, [r3, #0]
 80018b8:	463b      	mov	r3, r7
 80018ba:	681b      	ldr	r3, [r3, #0]
 80018bc:	4614      	mov	r4, r2
 80018be:	461d      	mov	r5, r3
 80018c0:	cd0f      	ldmia	r5!, {r0, r1, r2, r3}
 80018c2:	c40f      	stmia	r4!, {r0, r1, r2, r3}
 80018c4:	e895 0003 	ldmia.w	r5, {r0, r1}
 80018c8:	e884 0003 	stmia.w	r4, {r0, r1}
 80018cc:	1d3b      	adds	r3, r7, #4
 80018ce:	681b      	ldr	r3, [r3, #0]
 80018d0:	601e      	str	r6, [r3, #0]
 80018d2:	f507 77da 	add.w	r7, r7, #436	; 0x1b4
 80018d6:	46bd      	mov	sp, r7
 80018d8:	bdf0      	pop	{r4, r5, r6, r7, pc}
 80018da:	bf00      	nop
 80018dc:	0800caec 	.word	0x0800caec

080018e0 <stm32__i2c__i2c_portDA>:
 80018e0:	b480      	push	{r7}
 80018e2:	b083      	sub	sp, #12
 80018e4:	af00      	add	r7, sp, #0
 80018e6:	6078      	str	r0, [r7, #4]
 80018e8:	460b      	mov	r3, r1
 80018ea:	70fb      	strb	r3, [r7, #3]
 80018ec:	370c      	adds	r7, #12
 80018ee:	46bd      	mov	sp, r7
 80018f0:	f85d 7b04 	ldr.w	r7, [sp], #4
 80018f4:	4770      	bx	lr
 80018f6:	bf00      	nop

080018f8 <stm32__i2c__i2c_portDF__2>:
 80018f8:	b480      	push	{r7}
 80018fa:	b083      	sub	sp, #12
 80018fc:	af00      	add	r7, sp, #0
 80018fe:	6078      	str	r0, [r7, #4]
 8001900:	460b      	mov	r3, r1
 8001902:	70fb      	strb	r3, [r7, #3]
 8001904:	370c      	adds	r7, #12
 8001906:	46bd      	mov	sp, r7
 8001908:	f85d 7b04 	ldr.w	r7, [sp], #4
 800190c:	4770      	bx	lr
 800190e:	bf00      	nop

08001910 <stm32__i2c__port_enabled>:
 8001910:	b480      	push	{r7}
 8001912:	b083      	sub	sp, #12
 8001914:	af00      	add	r7, sp, #0
 8001916:	6078      	str	r0, [r7, #4]
 8001918:	687b      	ldr	r3, [r7, #4]
 800191a:	685b      	ldr	r3, [r3, #4]
 800191c:	681b      	ldr	r3, [r3, #0]
 800191e:	f3c3 0300 	ubfx	r3, r3, #0, #1
 8001922:	b2db      	uxtb	r3, r3
 8001924:	bf00      	nop
 8001926:	4618      	mov	r0, r3
 8001928:	370c      	adds	r7, #12
 800192a:	46bd      	mov	sp, r7
 800192c:	f85d 7b04 	ldr.w	r7, [sp], #4
 8001930:	4770      	bx	lr
 8001932:	bf00      	nop

08001934 <stm32__i2c__configure___postconditions.5466>:
 8001934:	b5b0      	push	{r4, r5, r7, lr}
 8001936:	b082      	sub	sp, #8
 8001938:	af00      	add	r7, sp, #0
 800193a:	4663      	mov	r3, ip
 800193c:	f8c7 c004 	str.w	ip, [r7, #4]
 8001940:	681b      	ldr	r3, [r3, #0]
 8001942:	4618      	mov	r0, r3
 8001944:	f000 f960 	bl	8001c08 <stm32__i2c__is_configured>
 8001948:	4603      	mov	r3, r0
 800194a:	f083 0301 	eor.w	r3, r3, #1
 800194e:	b2db      	uxtb	r3, r3
 8001950:	2b00      	cmp	r3, #0
 8001952:	d005      	beq.n	8001960 <stm32__i2c__configure___postconditions.5466+0x2c>
 8001954:	4c04      	ldr	r4, [pc, #16]	; (8001968 <stm32__i2c__configure___postconditions.5466+0x34>)
 8001956:	4d05      	ldr	r5, [pc, #20]	; (800196c <stm32__i2c__configure___postconditions.5466+0x38>)
 8001958:	4620      	mov	r0, r4
 800195a:	4629      	mov	r1, r5
 800195c:	f006 fdd2 	bl	8008504 <system__assertions__raise_assert_failure>
 8001960:	3708      	adds	r7, #8
 8001962:	46bd      	mov	sp, r7
 8001964:	bdb0      	pop	{r4, r5, r7, pc}
 8001966:	bf00      	nop
 8001968:	0800cafc 	.word	0x0800cafc
 800196c:	0800cb28 	.word	0x0800cb28

08001970 <stm32__i2c__configure>:
 8001970:	b5b0      	push	{r4, r5, r7, lr}
 8001972:	b088      	sub	sp, #32
 8001974:	af00      	add	r7, sp, #0
 8001976:	6078      	str	r0, [r7, #4]
 8001978:	6039      	str	r1, [r7, #0]
 800197a:	f107 0330 	add.w	r3, r7, #48	; 0x30
 800197e:	60fb      	str	r3, [r7, #12]
 8001980:	687b      	ldr	r3, [r7, #4]
 8001982:	60bb      	str	r3, [r7, #8]
 8001984:	68bb      	ldr	r3, [r7, #8]
 8001986:	4618      	mov	r0, r3
 8001988:	f000 f93e 	bl	8001c08 <stm32__i2c__is_configured>
 800198c:	4603      	mov	r3, r0
 800198e:	2b00      	cmp	r3, #0
 8001990:	d005      	beq.n	800199e <stm32__i2c__configure+0x2e>
 8001992:	4c9b      	ldr	r4, [pc, #620]	; (8001c00 <stm32__i2c__configure+0x290>)
 8001994:	4d9b      	ldr	r5, [pc, #620]	; (8001c04 <stm32__i2c__configure+0x294>)
 8001996:	4620      	mov	r0, r4
 8001998:	4629      	mov	r1, r5
 800199a:	f006 fdb3 	bl	8008504 <system__assertions__raise_assert_failure>
 800199e:	68bb      	ldr	r3, [r7, #8]
 80019a0:	7d1b      	ldrb	r3, [r3, #20]
 80019a2:	2b00      	cmp	r3, #0
 80019a4:	d005      	beq.n	80019b2 <stm32__i2c__configure+0x42>
 80019a6:	f107 0308 	add.w	r3, r7, #8
 80019aa:	469c      	mov	ip, r3
 80019ac:	f7ff ffc2 	bl	8001934 <stm32__i2c__configure___postconditions.5466>
 80019b0:	e122      	b.n	8001bf8 <stm32__i2c__configure+0x288>
 80019b2:	68bb      	ldr	r3, [r7, #8]
 80019b4:	683a      	ldr	r2, [r7, #0]
 80019b6:	3308      	adds	r3, #8
 80019b8:	ca07      	ldmia	r2, {r0, r1, r2}
 80019ba:	e883 0007 	stmia.w	r3, {r0, r1, r2}
 80019be:	68bb      	ldr	r3, [r7, #8]
 80019c0:	685b      	ldr	r3, [r3, #4]
 80019c2:	681b      	ldr	r3, [r3, #0]
 80019c4:	f36f 0300 	bfc	r3, #0, #1
 80019c8:	68ba      	ldr	r2, [r7, #8]
 80019ca:	6852      	ldr	r2, [r2, #4]
 80019cc:	6013      	str	r3, [r2, #0]
 80019ce:	69fb      	ldr	r3, [r7, #28]
 80019d0:	2232      	movs	r2, #50	; 0x32
 80019d2:	f362 0307 	bfi	r3, r2, #0, #8
 80019d6:	61fb      	str	r3, [r7, #28]
 80019d8:	69fb      	ldr	r3, [r7, #28]
 80019da:	2227      	movs	r2, #39	; 0x27
 80019dc:	f362 230f 	bfi	r3, r2, #8, #8
 80019e0:	61fb      	str	r3, [r7, #28]
 80019e2:	69fb      	ldr	r3, [r7, #28]
 80019e4:	2201      	movs	r2, #1
 80019e6:	f362 4313 	bfi	r3, r2, #16, #4
 80019ea:	61fb      	str	r3, [r7, #28]
 80019ec:	69fb      	ldr	r3, [r7, #28]
 80019ee:	2209      	movs	r2, #9
 80019f0:	f362 5317 	bfi	r3, r2, #20, #4
 80019f4:	61fb      	str	r3, [r7, #28]
 80019f6:	69fb      	ldr	r3, [r7, #28]
 80019f8:	f36f 631b 	bfc	r3, #24, #4
 80019fc:	61fb      	str	r3, [r7, #28]
 80019fe:	69fb      	ldr	r3, [r7, #28]
 8001a00:	2204      	movs	r2, #4
 8001a02:	f362 731f 	bfi	r3, r2, #28, #4
 8001a06:	61fb      	str	r3, [r7, #28]
 8001a08:	68bb      	ldr	r3, [r7, #8]
 8001a0a:	685b      	ldr	r3, [r3, #4]
 8001a0c:	3310      	adds	r3, #16
 8001a0e:	69fa      	ldr	r2, [r7, #28]
 8001a10:	601a      	str	r2, [r3, #0]
 8001a12:	68bb      	ldr	r3, [r7, #8]
 8001a14:	685b      	ldr	r3, [r3, #4]
 8001a16:	3308      	adds	r3, #8
 8001a18:	681b      	ldr	r3, [r3, #0]
 8001a1a:	f36f 33cf 	bfc	r3, #15, #1
 8001a1e:	68ba      	ldr	r2, [r7, #8]
 8001a20:	6852      	ldr	r2, [r2, #4]
 8001a22:	3208      	adds	r2, #8
 8001a24:	6013      	str	r3, [r2, #0]
 8001a26:	683b      	ldr	r3, [r7, #0]
 8001a28:	88db      	ldrh	r3, [r3, #6]
 8001a2a:	2b00      	cmp	r3, #0
 8001a2c:	d027      	beq.n	8001a7e <stm32__i2c__configure+0x10e>
 8001a2e:	69bb      	ldr	r3, [r7, #24]
 8001a30:	683a      	ldr	r2, [r7, #0]
 8001a32:	88d2      	ldrh	r2, [r2, #6]
 8001a34:	f3c2 0209 	ubfx	r2, r2, #0, #10
 8001a38:	b292      	uxth	r2, r2
 8001a3a:	f362 0309 	bfi	r3, r2, #0, #10
 8001a3e:	61bb      	str	r3, [r7, #24]
 8001a40:	69bb      	ldr	r3, [r7, #24]
 8001a42:	683a      	ldr	r2, [r7, #0]
 8001a44:	7912      	ldrb	r2, [r2, #4]
 8001a46:	2a01      	cmp	r2, #1
 8001a48:	bf0c      	ite	eq
 8001a4a:	2201      	moveq	r2, #1
 8001a4c:	2200      	movne	r2, #0
 8001a4e:	b2d2      	uxtb	r2, r2
 8001a50:	f002 0201 	and.w	r2, r2, #1
 8001a54:	b2d2      	uxtb	r2, r2
 8001a56:	f362 238a 	bfi	r3, r2, #10, #1
 8001a5a:	61bb      	str	r3, [r7, #24]
 8001a5c:	69bb      	ldr	r3, [r7, #24]
 8001a5e:	f36f 23ce 	bfc	r3, #11, #4
 8001a62:	61bb      	str	r3, [r7, #24]
 8001a64:	69bb      	ldr	r3, [r7, #24]
 8001a66:	f443 4300 	orr.w	r3, r3, #32768	; 0x8000
 8001a6a:	61bb      	str	r3, [r7, #24]
 8001a6c:	69bb      	ldr	r3, [r7, #24]
 8001a6e:	f36f 431f 	bfc	r3, #16, #16
 8001a72:	61bb      	str	r3, [r7, #24]
 8001a74:	68bb      	ldr	r3, [r7, #8]
 8001a76:	685b      	ldr	r3, [r3, #4]
 8001a78:	3308      	adds	r3, #8
 8001a7a:	69ba      	ldr	r2, [r7, #24]
 8001a7c:	601a      	str	r2, [r3, #0]
 8001a7e:	68bb      	ldr	r3, [r7, #8]
 8001a80:	685b      	ldr	r3, [r3, #4]
 8001a82:	3304      	adds	r3, #4
 8001a84:	681b      	ldr	r3, [r3, #0]
 8001a86:	683a      	ldr	r2, [r7, #0]
 8001a88:	7912      	ldrb	r2, [r2, #4]
 8001a8a:	2a01      	cmp	r2, #1
 8001a8c:	bf0c      	ite	eq
 8001a8e:	2201      	moveq	r2, #1
 8001a90:	2200      	movne	r2, #0
 8001a92:	b2d2      	uxtb	r2, r2
 8001a94:	f002 0201 	and.w	r2, r2, #1
 8001a98:	b2d2      	uxtb	r2, r2
 8001a9a:	f362 23cb 	bfi	r3, r2, #11, #1
 8001a9e:	68ba      	ldr	r2, [r7, #8]
 8001aa0:	6852      	ldr	r2, [r2, #4]
 8001aa2:	3204      	adds	r2, #4
 8001aa4:	6013      	str	r3, [r2, #0]
 8001aa6:	68bb      	ldr	r3, [r7, #8]
 8001aa8:	685b      	ldr	r3, [r3, #4]
 8001aaa:	3304      	adds	r3, #4
 8001aac:	681b      	ldr	r3, [r3, #0]
 8001aae:	461a      	mov	r2, r3
 8001ab0:	4613      	mov	r3, r2
 8001ab2:	f043 7200 	orr.w	r2, r3, #33554432	; 0x2000000
 8001ab6:	68bb      	ldr	r3, [r7, #8]
 8001ab8:	685b      	ldr	r3, [r3, #4]
 8001aba:	3304      	adds	r3, #4
 8001abc:	601a      	str	r2, [r3, #0]
 8001abe:	68bb      	ldr	r3, [r7, #8]
 8001ac0:	685b      	ldr	r3, [r3, #4]
 8001ac2:	3304      	adds	r3, #4
 8001ac4:	681b      	ldr	r3, [r3, #0]
 8001ac6:	461a      	mov	r2, r3
 8001ac8:	4613      	mov	r3, r2
 8001aca:	f443 4200 	orr.w	r2, r3, #32768	; 0x8000
 8001ace:	68bb      	ldr	r3, [r7, #8]
 8001ad0:	685b      	ldr	r3, [r3, #4]
 8001ad2:	3304      	adds	r3, #4
 8001ad4:	601a      	str	r2, [r3, #0]
 8001ad6:	697b      	ldr	r3, [r7, #20]
 8001ad8:	f36f 0300 	bfc	r3, #0, #1
 8001adc:	617b      	str	r3, [r7, #20]
 8001ade:	697b      	ldr	r3, [r7, #20]
 8001ae0:	f36f 0347 	bfc	r3, #1, #7
 8001ae4:	617b      	str	r3, [r7, #20]
 8001ae6:	697b      	ldr	r3, [r7, #20]
 8001ae8:	f36f 230a 	bfc	r3, #8, #3
 8001aec:	617b      	str	r3, [r7, #20]
 8001aee:	697b      	ldr	r3, [r7, #20]
 8001af0:	f36f 23ce 	bfc	r3, #11, #4
 8001af4:	617b      	str	r3, [r7, #20]
 8001af6:	697b      	ldr	r3, [r7, #20]
 8001af8:	f36f 33cf 	bfc	r3, #15, #1
 8001afc:	617b      	str	r3, [r7, #20]
 8001afe:	697b      	ldr	r3, [r7, #20]
 8001b00:	f36f 431f 	bfc	r3, #16, #16
 8001b04:	617b      	str	r3, [r7, #20]
 8001b06:	68bb      	ldr	r3, [r7, #8]
 8001b08:	685b      	ldr	r3, [r3, #4]
 8001b0a:	330c      	adds	r3, #12
 8001b0c:	697a      	ldr	r2, [r7, #20]
 8001b0e:	601a      	str	r2, [r3, #0]
 8001b10:	693b      	ldr	r3, [r7, #16]
 8001b12:	f36f 0300 	bfc	r3, #0, #1
 8001b16:	613b      	str	r3, [r7, #16]
 8001b18:	693b      	ldr	r3, [r7, #16]
 8001b1a:	f36f 0341 	bfc	r3, #1, #1
 8001b1e:	613b      	str	r3, [r7, #16]
 8001b20:	693b      	ldr	r3, [r7, #16]
 8001b22:	f36f 0382 	bfc	r3, #2, #1
 8001b26:	613b      	str	r3, [r7, #16]
 8001b28:	693b      	ldr	r3, [r7, #16]
 8001b2a:	f36f 03c3 	bfc	r3, #3, #1
 8001b2e:	613b      	str	r3, [r7, #16]
 8001b30:	693b      	ldr	r3, [r7, #16]
 8001b32:	f36f 1304 	bfc	r3, #4, #1
 8001b36:	613b      	str	r3, [r7, #16]
 8001b38:	693b      	ldr	r3, [r7, #16]
 8001b3a:	f36f 1345 	bfc	r3, #5, #1
 8001b3e:	613b      	str	r3, [r7, #16]
 8001b40:	693b      	ldr	r3, [r7, #16]
 8001b42:	f36f 1386 	bfc	r3, #6, #1
 8001b46:	613b      	str	r3, [r7, #16]
 8001b48:	693b      	ldr	r3, [r7, #16]
 8001b4a:	f36f 13c7 	bfc	r3, #7, #1
 8001b4e:	613b      	str	r3, [r7, #16]
 8001b50:	693b      	ldr	r3, [r7, #16]
 8001b52:	f36f 230b 	bfc	r3, #8, #4
 8001b56:	613b      	str	r3, [r7, #16]
 8001b58:	693b      	ldr	r3, [r7, #16]
 8001b5a:	f36f 330c 	bfc	r3, #12, #1
 8001b5e:	613b      	str	r3, [r7, #16]
 8001b60:	693b      	ldr	r3, [r7, #16]
 8001b62:	f36f 334d 	bfc	r3, #13, #1
 8001b66:	613b      	str	r3, [r7, #16]
 8001b68:	693b      	ldr	r3, [r7, #16]
 8001b6a:	f36f 338e 	bfc	r3, #14, #1
 8001b6e:	613b      	str	r3, [r7, #16]
 8001b70:	693b      	ldr	r3, [r7, #16]
 8001b72:	f36f 33cf 	bfc	r3, #15, #1
 8001b76:	613b      	str	r3, [r7, #16]
 8001b78:	693b      	ldr	r3, [r7, #16]
 8001b7a:	f36f 4310 	bfc	r3, #16, #1
 8001b7e:	613b      	str	r3, [r7, #16]
 8001b80:	693b      	ldr	r3, [r7, #16]
 8001b82:	f36f 4351 	bfc	r3, #17, #1
 8001b86:	613b      	str	r3, [r7, #16]
 8001b88:	693b      	ldr	r3, [r7, #16]
 8001b8a:	f36f 4392 	bfc	r3, #18, #1
 8001b8e:	613b      	str	r3, [r7, #16]
 8001b90:	693b      	ldr	r3, [r7, #16]
 8001b92:	683a      	ldr	r2, [r7, #0]
 8001b94:	7a12      	ldrb	r2, [r2, #8]
 8001b96:	f002 0201 	and.w	r2, r2, #1
 8001b9a:	b2d2      	uxtb	r2, r2
 8001b9c:	f362 43d3 	bfi	r3, r2, #19, #1
 8001ba0:	613b      	str	r3, [r7, #16]
 8001ba2:	693b      	ldr	r3, [r7, #16]
 8001ba4:	f36f 5314 	bfc	r3, #20, #1
 8001ba8:	613b      	str	r3, [r7, #16]
 8001baa:	693b      	ldr	r3, [r7, #16]
 8001bac:	f36f 5355 	bfc	r3, #21, #1
 8001bb0:	613b      	str	r3, [r7, #16]
 8001bb2:	693b      	ldr	r3, [r7, #16]
 8001bb4:	f36f 5396 	bfc	r3, #22, #1
 8001bb8:	613b      	str	r3, [r7, #16]
 8001bba:	693b      	ldr	r3, [r7, #16]
 8001bbc:	f36f 53d7 	bfc	r3, #23, #1
 8001bc0:	613b      	str	r3, [r7, #16]
 8001bc2:	693b      	ldr	r3, [r7, #16]
 8001bc4:	f36f 631f 	bfc	r3, #24, #8
 8001bc8:	613b      	str	r3, [r7, #16]
 8001bca:	68bb      	ldr	r3, [r7, #8]
 8001bcc:	685b      	ldr	r3, [r3, #4]
 8001bce:	461a      	mov	r2, r3
 8001bd0:	693b      	ldr	r3, [r7, #16]
 8001bd2:	6013      	str	r3, [r2, #0]
 8001bd4:	68bb      	ldr	r3, [r7, #8]
 8001bd6:	2201      	movs	r2, #1
 8001bd8:	751a      	strb	r2, [r3, #20]
 8001bda:	68bb      	ldr	r3, [r7, #8]
 8001bdc:	685b      	ldr	r3, [r3, #4]
 8001bde:	681b      	ldr	r3, [r3, #0]
 8001be0:	461a      	mov	r2, r3
 8001be2:	4613      	mov	r3, r2
 8001be4:	f043 0201 	orr.w	r2, r3, #1
 8001be8:	68bb      	ldr	r3, [r7, #8]
 8001bea:	685b      	ldr	r3, [r3, #4]
 8001bec:	601a      	str	r2, [r3, #0]
 8001bee:	f107 0308 	add.w	r3, r7, #8
 8001bf2:	469c      	mov	ip, r3
 8001bf4:	f7ff fe9e 	bl	8001934 <stm32__i2c__configure___postconditions.5466>
 8001bf8:	3720      	adds	r7, #32
 8001bfa:	46bd      	mov	sp, r7
 8001bfc:	bdb0      	pop	{r4, r5, r7, pc}
 8001bfe:	bf00      	nop
 8001c00:	0800cb30 	.word	0x0800cb30
 8001c04:	0800cb5c 	.word	0x0800cb5c

08001c08 <stm32__i2c__is_configured>:
 8001c08:	b480      	push	{r7}
 8001c0a:	b083      	sub	sp, #12
 8001c0c:	af00      	add	r7, sp, #0
 8001c0e:	6078      	str	r0, [r7, #4]
 8001c10:	687b      	ldr	r3, [r7, #4]
 8001c12:	7d1b      	ldrb	r3, [r3, #20]
 8001c14:	2b00      	cmp	r3, #0
 8001c16:	bf14      	ite	ne
 8001c18:	2301      	movne	r3, #1
 8001c1a:	2300      	moveq	r3, #0
 8001c1c:	b2db      	uxtb	r3, r3
 8001c1e:	bf00      	nop
 8001c20:	4618      	mov	r0, r3
 8001c22:	370c      	adds	r7, #12
 8001c24:	46bd      	mov	sp, r7
 8001c26:	f85d 7b04 	ldr.w	r7, [sp], #4
 8001c2a:	4770      	bx	lr

08001c2c <stm32__i2c__config_transfer>:
 8001c2c:	b580      	push	{r7, lr}
 8001c2e:	b086      	sub	sp, #24
 8001c30:	af00      	add	r7, sp, #0
 8001c32:	60f8      	str	r0, [r7, #12]
 8001c34:	4608      	mov	r0, r1
 8001c36:	4611      	mov	r1, r2
 8001c38:	461a      	mov	r2, r3
 8001c3a:	4603      	mov	r3, r0
 8001c3c:	817b      	strh	r3, [r7, #10]
 8001c3e:	460b      	mov	r3, r1
 8001c40:	727b      	strb	r3, [r7, #9]
 8001c42:	4613      	mov	r3, r2
 8001c44:	723b      	strb	r3, [r7, #8]
 8001c46:	68fb      	ldr	r3, [r7, #12]
 8001c48:	685b      	ldr	r3, [r3, #4]
 8001c4a:	3304      	adds	r3, #4
 8001c4c:	681b      	ldr	r3, [r3, #0]
 8001c4e:	607b      	str	r3, [r7, #4]
 8001c50:	687b      	ldr	r3, [r7, #4]
 8001c52:	617b      	str	r3, [r7, #20]
 8001c54:	697b      	ldr	r3, [r7, #20]
 8001c56:	897a      	ldrh	r2, [r7, #10]
 8001c58:	f3c2 0209 	ubfx	r2, r2, #0, #10
 8001c5c:	b292      	uxth	r2, r2
 8001c5e:	f362 0309 	bfi	r3, r2, #0, #10
 8001c62:	617b      	str	r3, [r7, #20]
 8001c64:	697b      	ldr	r3, [r7, #20]
 8001c66:	7a7a      	ldrb	r2, [r7, #9]
 8001c68:	f362 4317 	bfi	r3, r2, #16, #8
 8001c6c:	617b      	str	r3, [r7, #20]
 8001c6e:	697b      	ldr	r3, [r7, #20]
 8001c70:	7a3a      	ldrb	r2, [r7, #8]
 8001c72:	2a00      	cmp	r2, #0
 8001c74:	bf0c      	ite	eq
 8001c76:	2201      	moveq	r2, #1
 8001c78:	2200      	movne	r2, #0
 8001c7a:	b2d2      	uxtb	r2, r2
 8001c7c:	f002 0201 	and.w	r2, r2, #1
 8001c80:	b2d2      	uxtb	r2, r2
 8001c82:	f362 6318 	bfi	r3, r2, #24, #1
 8001c86:	617b      	str	r3, [r7, #20]
 8001c88:	697b      	ldr	r3, [r7, #20]
 8001c8a:	7a3a      	ldrb	r2, [r7, #8]
 8001c8c:	2a01      	cmp	r2, #1
 8001c8e:	bf0c      	ite	eq
 8001c90:	2201      	moveq	r2, #1
 8001c92:	2200      	movne	r2, #0
 8001c94:	b2d2      	uxtb	r2, r2
 8001c96:	f002 0201 	and.w	r2, r2, #1
 8001c9a:	b2d2      	uxtb	r2, r2
 8001c9c:	f362 6359 	bfi	r3, r2, #25, #1
 8001ca0:	617b      	str	r3, [r7, #20]
 8001ca2:	697b      	ldr	r3, [r7, #20]
 8001ca4:	f36f 238a 	bfc	r3, #10, #1
 8001ca8:	617b      	str	r3, [r7, #20]
 8001caa:	697b      	ldr	r3, [r7, #20]
 8001cac:	f36f 334d 	bfc	r3, #13, #1
 8001cb0:	617b      	str	r3, [r7, #20]
 8001cb2:	697b      	ldr	r3, [r7, #20]
 8001cb4:	f36f 338e 	bfc	r3, #14, #1
 8001cb8:	617b      	str	r3, [r7, #20]
 8001cba:	f897 3020 	ldrb.w	r3, [r7, #32]
 8001cbe:	2b03      	cmp	r3, #3
 8001cc0:	d903      	bls.n	8001cca <stm32__i2c__config_transfer+0x9e>
 8001cc2:	4815      	ldr	r0, [pc, #84]	; (8001d18 <stm32__i2c__config_transfer+0xec>)
 8001cc4:	21b8      	movs	r1, #184	; 0xb8
 8001cc6:	f007 f9e5 	bl	8009094 <__gnat_rcheck_CE_Invalid_Data>
 8001cca:	f897 3020 	ldrb.w	r3, [r7, #32]
 8001cce:	2b01      	cmp	r3, #1
 8001cd0:	d006      	beq.n	8001ce0 <stm32__i2c__config_transfer+0xb4>
 8001cd2:	2b01      	cmp	r3, #1
 8001cd4:	d302      	bcc.n	8001cdc <stm32__i2c__config_transfer+0xb0>
 8001cd6:	2b02      	cmp	r3, #2
 8001cd8:	d007      	beq.n	8001cea <stm32__i2c__config_transfer+0xbe>
 8001cda:	e00f      	b.n	8001cfc <stm32__i2c__config_transfer+0xd0>
 8001cdc:	bf00      	nop
 8001cde:	e011      	b.n	8001d04 <stm32__i2c__config_transfer+0xd8>
 8001ce0:	697b      	ldr	r3, [r7, #20]
 8001ce2:	f443 4380 	orr.w	r3, r3, #16384	; 0x4000
 8001ce6:	617b      	str	r3, [r7, #20]
 8001ce8:	e00c      	b.n	8001d04 <stm32__i2c__config_transfer+0xd8>
 8001cea:	697b      	ldr	r3, [r7, #20]
 8001cec:	f443 6380 	orr.w	r3, r3, #1024	; 0x400
 8001cf0:	617b      	str	r3, [r7, #20]
 8001cf2:	697b      	ldr	r3, [r7, #20]
 8001cf4:	f443 5300 	orr.w	r3, r3, #8192	; 0x2000
 8001cf8:	617b      	str	r3, [r7, #20]
 8001cfa:	e003      	b.n	8001d04 <stm32__i2c__config_transfer+0xd8>
 8001cfc:	697b      	ldr	r3, [r7, #20]
 8001cfe:	f443 5300 	orr.w	r3, r3, #8192	; 0x2000
 8001d02:	617b      	str	r3, [r7, #20]
 8001d04:	bf00      	nop
 8001d06:	68fb      	ldr	r3, [r7, #12]
 8001d08:	685b      	ldr	r3, [r3, #4]
 8001d0a:	3304      	adds	r3, #4
 8001d0c:	697a      	ldr	r2, [r7, #20]
 8001d0e:	601a      	str	r2, [r3, #0]
 8001d10:	3718      	adds	r7, #24
 8001d12:	46bd      	mov	sp, r7
 8001d14:	bd80      	pop	{r7, pc}
 8001d16:	bf00      	nop
 8001d18:	0800cb64 	.word	0x0800cb64

08001d1c <stm32__i2c__reset_config>:
 8001d1c:	b480      	push	{r7}
 8001d1e:	b085      	sub	sp, #20
 8001d20:	af00      	add	r7, sp, #0
 8001d22:	6078      	str	r0, [r7, #4]
 8001d24:	687b      	ldr	r3, [r7, #4]
 8001d26:	685b      	ldr	r3, [r3, #4]
 8001d28:	3304      	adds	r3, #4
 8001d2a:	681b      	ldr	r3, [r3, #0]
 8001d2c:	603b      	str	r3, [r7, #0]
 8001d2e:	683b      	ldr	r3, [r7, #0]
 8001d30:	60fb      	str	r3, [r7, #12]
 8001d32:	68fb      	ldr	r3, [r7, #12]
 8001d34:	f36f 0309 	bfc	r3, #0, #10
 8001d38:	60fb      	str	r3, [r7, #12]
 8001d3a:	68fb      	ldr	r3, [r7, #12]
 8001d3c:	f36f 330c 	bfc	r3, #12, #1
 8001d40:	60fb      	str	r3, [r7, #12]
 8001d42:	68fb      	ldr	r3, [r7, #12]
 8001d44:	f36f 4317 	bfc	r3, #16, #8
 8001d48:	60fb      	str	r3, [r7, #12]
 8001d4a:	68fb      	ldr	r3, [r7, #12]
 8001d4c:	f36f 6318 	bfc	r3, #24, #1
 8001d50:	60fb      	str	r3, [r7, #12]
 8001d52:	68fb      	ldr	r3, [r7, #12]
 8001d54:	f36f 238a 	bfc	r3, #10, #1
 8001d58:	60fb      	str	r3, [r7, #12]
 8001d5a:	687b      	ldr	r3, [r7, #4]
 8001d5c:	685b      	ldr	r3, [r3, #4]
 8001d5e:	3304      	adds	r3, #4
 8001d60:	68fa      	ldr	r2, [r7, #12]
 8001d62:	601a      	str	r2, [r3, #0]
 8001d64:	3714      	adds	r7, #20
 8001d66:	46bd      	mov	sp, r7
 8001d68:	f85d 7b04 	ldr.w	r7, [sp], #4
 8001d6c:	4770      	bx	lr
 8001d6e:	bf00      	nop

08001d70 <stm32__i2c__check_nack>:
 8001d70:	b5f0      	push	{r4, r5, r6, r7, lr}
 8001d72:	b087      	sub	sp, #28
 8001d74:	af00      	add	r7, sp, #0
 8001d76:	6078      	str	r0, [r7, #4]
 8001d78:	6039      	str	r1, [r7, #0]
 8001d7a:	f004 f9e7 	bl	800614c <ada__real_time__clock>
 8001d7e:	4603      	mov	r3, r0
 8001d80:	460c      	mov	r4, r1
 8001d82:	e9c7 3404 	strd	r3, r4, [r7, #16]
 8001d86:	687b      	ldr	r3, [r7, #4]
 8001d88:	685b      	ldr	r3, [r3, #4]
 8001d8a:	3318      	adds	r3, #24
 8001d8c:	681b      	ldr	r3, [r3, #0]
 8001d8e:	f3c3 1300 	ubfx	r3, r3, #4, #1
 8001d92:	b2db      	uxtb	r3, r3
 8001d94:	2b00      	cmp	r3, #0
 8001d96:	d06f      	beq.n	8001e78 <stm32__i2c__check_nack+0x108>
 8001d98:	687b      	ldr	r3, [r7, #4]
 8001d9a:	7d1b      	ldrb	r3, [r3, #20]
 8001d9c:	2b02      	cmp	r3, #2
 8001d9e:	d007      	beq.n	8001db0 <stm32__i2c__check_nack+0x40>
 8001da0:	687b      	ldr	r3, [r7, #4]
 8001da2:	7d1b      	ldrb	r3, [r3, #20]
 8001da4:	2b04      	cmp	r3, #4
 8001da6:	d003      	beq.n	8001db0 <stm32__i2c__check_nack+0x40>
 8001da8:	687b      	ldr	r3, [r7, #4]
 8001daa:	7d1b      	ldrb	r3, [r3, #20]
 8001dac:	2b05      	cmp	r3, #5
 8001dae:	d117      	bne.n	8001de0 <stm32__i2c__check_nack+0x70>
 8001db0:	687b      	ldr	r3, [r7, #4]
 8001db2:	685b      	ldr	r3, [r3, #4]
 8001db4:	3304      	adds	r3, #4
 8001db6:	681b      	ldr	r3, [r3, #0]
 8001db8:	f3c3 6340 	ubfx	r3, r3, #25, #1
 8001dbc:	b2db      	uxtb	r3, r3
 8001dbe:	f083 0301 	eor.w	r3, r3, #1
 8001dc2:	b2db      	uxtb	r3, r3
 8001dc4:	2b00      	cmp	r3, #0
 8001dc6:	d00b      	beq.n	8001de0 <stm32__i2c__check_nack+0x70>
 8001dc8:	687b      	ldr	r3, [r7, #4]
 8001dca:	685b      	ldr	r3, [r3, #4]
 8001dcc:	3304      	adds	r3, #4
 8001dce:	681b      	ldr	r3, [r3, #0]
 8001dd0:	461a      	mov	r2, r3
 8001dd2:	4613      	mov	r3, r2
 8001dd4:	f443 4280 	orr.w	r2, r3, #16384	; 0x4000
 8001dd8:	687b      	ldr	r3, [r7, #4]
 8001dda:	685b      	ldr	r3, [r3, #4]
 8001ddc:	3304      	adds	r3, #4
 8001dde:	601a      	str	r2, [r3, #0]
 8001de0:	687b      	ldr	r3, [r7, #4]
 8001de2:	685b      	ldr	r3, [r3, #4]
 8001de4:	3318      	adds	r3, #24
 8001de6:	681b      	ldr	r3, [r3, #0]
 8001de8:	f3c3 1340 	ubfx	r3, r3, #5, #1
 8001dec:	b2db      	uxtb	r3, r3
 8001dee:	f083 0301 	eor.w	r3, r3, #1
 8001df2:	b2db      	uxtb	r3, r3
 8001df4:	2b00      	cmp	r3, #0
 8001df6:	d01e      	beq.n	8001e36 <stm32__i2c__check_nack+0xc6>
 8001df8:	683b      	ldr	r3, [r7, #0]
 8001dfa:	2b00      	cmp	r3, #0
 8001dfc:	ddf0      	ble.n	8001de0 <stm32__i2c__check_nack+0x70>
 8001dfe:	683b      	ldr	r3, [r7, #0]
 8001e00:	4618      	mov	r0, r3
 8001e02:	f004 f9eb 	bl	80061dc <ada__real_time__milliseconds>
 8001e06:	4603      	mov	r3, r0
 8001e08:	460c      	mov	r4, r1
 8001e0a:	e9d7 0104 	ldrd	r0, r1, [r7, #16]
 8001e0e:	461a      	mov	r2, r3
 8001e10:	4623      	mov	r3, r4
 8001e12:	f004 f941 	bl	8006098 <ada__real_time__Oadd>
 8001e16:	4605      	mov	r5, r0
 8001e18:	460e      	mov	r6, r1
 8001e1a:	f004 f997 	bl	800614c <ada__real_time__clock>
 8001e1e:	4603      	mov	r3, r0
 8001e20:	460c      	mov	r4, r1
 8001e22:	42a6      	cmp	r6, r4
 8001e24:	bf08      	it	eq
 8001e26:	429d      	cmpeq	r5, r3
 8001e28:	d2da      	bcs.n	8001de0 <stm32__i2c__check_nack+0x70>
 8001e2a:	687b      	ldr	r3, [r7, #4]
 8001e2c:	2201      	movs	r2, #1
 8001e2e:	751a      	strb	r2, [r3, #20]
 8001e30:	2302      	movs	r3, #2
 8001e32:	73fb      	strb	r3, [r7, #15]
 8001e34:	e022      	b.n	8001e7c <stm32__i2c__check_nack+0x10c>
 8001e36:	687b      	ldr	r3, [r7, #4]
 8001e38:	685b      	ldr	r3, [r3, #4]
 8001e3a:	331c      	adds	r3, #28
 8001e3c:	681b      	ldr	r3, [r3, #0]
 8001e3e:	461a      	mov	r2, r3
 8001e40:	4613      	mov	r3, r2
 8001e42:	f043 0210 	orr.w	r2, r3, #16
 8001e46:	687b      	ldr	r3, [r7, #4]
 8001e48:	685b      	ldr	r3, [r3, #4]
 8001e4a:	331c      	adds	r3, #28
 8001e4c:	601a      	str	r2, [r3, #0]
 8001e4e:	687b      	ldr	r3, [r7, #4]
 8001e50:	685b      	ldr	r3, [r3, #4]
 8001e52:	331c      	adds	r3, #28
 8001e54:	681b      	ldr	r3, [r3, #0]
 8001e56:	461a      	mov	r2, r3
 8001e58:	4613      	mov	r3, r2
 8001e5a:	f043 0220 	orr.w	r2, r3, #32
 8001e5e:	687b      	ldr	r3, [r7, #4]
 8001e60:	685b      	ldr	r3, [r3, #4]
 8001e62:	331c      	adds	r3, #28
 8001e64:	601a      	str	r2, [r3, #0]
 8001e66:	6878      	ldr	r0, [r7, #4]
 8001e68:	f7ff ff58 	bl	8001d1c <stm32__i2c__reset_config>
 8001e6c:	687b      	ldr	r3, [r7, #4]
 8001e6e:	2201      	movs	r2, #1
 8001e70:	751a      	strb	r2, [r3, #20]
 8001e72:	2301      	movs	r3, #1
 8001e74:	73fb      	strb	r3, [r7, #15]
 8001e76:	e001      	b.n	8001e7c <stm32__i2c__check_nack+0x10c>
 8001e78:	2300      	movs	r3, #0
 8001e7a:	73fb      	strb	r3, [r7, #15]
 8001e7c:	7bfb      	ldrb	r3, [r7, #15]
 8001e7e:	bf00      	nop
 8001e80:	4618      	mov	r0, r3
 8001e82:	371c      	adds	r7, #28
 8001e84:	46bd      	mov	sp, r7
 8001e86:	bdf0      	pop	{r4, r5, r6, r7, pc}

08001e88 <stm32__i2c__wait_tx_interrupt_status>:
 8001e88:	b5f0      	push	{r4, r5, r6, r7, lr}
 8001e8a:	b087      	sub	sp, #28
 8001e8c:	af00      	add	r7, sp, #0
 8001e8e:	6078      	str	r0, [r7, #4]
 8001e90:	6039      	str	r1, [r7, #0]
 8001e92:	f004 f95b 	bl	800614c <ada__real_time__clock>
 8001e96:	4603      	mov	r3, r0
 8001e98:	460c      	mov	r4, r1
 8001e9a:	e9c7 3404 	strd	r3, r4, [r7, #16]
 8001e9e:	687b      	ldr	r3, [r7, #4]
 8001ea0:	685b      	ldr	r3, [r3, #4]
 8001ea2:	3318      	adds	r3, #24
 8001ea4:	681b      	ldr	r3, [r3, #0]
 8001ea6:	f3c3 0340 	ubfx	r3, r3, #1, #1
 8001eaa:	b2db      	uxtb	r3, r3
 8001eac:	f083 0301 	eor.w	r3, r3, #1
 8001eb0:	b2db      	uxtb	r3, r3
 8001eb2:	2b00      	cmp	r3, #0
 8001eb4:	d030      	beq.n	8001f18 <stm32__i2c__wait_tx_interrupt_status+0x90>
 8001eb6:	6878      	ldr	r0, [r7, #4]
 8001eb8:	6839      	ldr	r1, [r7, #0]
 8001eba:	f7ff ff59 	bl	8001d70 <stm32__i2c__check_nack>
 8001ebe:	4603      	mov	r3, r0
 8001ec0:	73fb      	strb	r3, [r7, #15]
 8001ec2:	7bfb      	ldrb	r3, [r7, #15]
 8001ec4:	2b00      	cmp	r3, #0
 8001ec6:	d005      	beq.n	8001ed4 <stm32__i2c__wait_tx_interrupt_status+0x4c>
 8001ec8:	687b      	ldr	r3, [r7, #4]
 8001eca:	2201      	movs	r2, #1
 8001ecc:	751a      	strb	r2, [r3, #20]
 8001ece:	2301      	movs	r3, #1
 8001ed0:	73fb      	strb	r3, [r7, #15]
 8001ed2:	e023      	b.n	8001f1c <stm32__i2c__wait_tx_interrupt_status+0x94>
 8001ed4:	683b      	ldr	r3, [r7, #0]
 8001ed6:	2b00      	cmp	r3, #0
 8001ed8:	dde1      	ble.n	8001e9e <stm32__i2c__wait_tx_interrupt_status+0x16>
 8001eda:	683b      	ldr	r3, [r7, #0]
 8001edc:	4618      	mov	r0, r3
 8001ede:	f004 f97d 	bl	80061dc <ada__real_time__milliseconds>
 8001ee2:	4603      	mov	r3, r0
 8001ee4:	460c      	mov	r4, r1
 8001ee6:	e9d7 0104 	ldrd	r0, r1, [r7, #16]
 8001eea:	461a      	mov	r2, r3
 8001eec:	4623      	mov	r3, r4
 8001eee:	f004 f8d3 	bl	8006098 <ada__real_time__Oadd>
 8001ef2:	4605      	mov	r5, r0
 8001ef4:	460e      	mov	r6, r1
 8001ef6:	f004 f929 	bl	800614c <ada__real_time__clock>
 8001efa:	4603      	mov	r3, r0
 8001efc:	460c      	mov	r4, r1
 8001efe:	42a6      	cmp	r6, r4
 8001f00:	bf08      	it	eq
 8001f02:	429d      	cmpeq	r5, r3
 8001f04:	d2cb      	bcs.n	8001e9e <stm32__i2c__wait_tx_interrupt_status+0x16>
 8001f06:	6878      	ldr	r0, [r7, #4]
 8001f08:	f7ff ff08 	bl	8001d1c <stm32__i2c__reset_config>
 8001f0c:	687b      	ldr	r3, [r7, #4]
 8001f0e:	2201      	movs	r2, #1
 8001f10:	751a      	strb	r2, [r3, #20]
 8001f12:	2302      	movs	r3, #2
 8001f14:	73fb      	strb	r3, [r7, #15]
 8001f16:	e001      	b.n	8001f1c <stm32__i2c__wait_tx_interrupt_status+0x94>
 8001f18:	2300      	movs	r3, #0
 8001f1a:	73fb      	strb	r3, [r7, #15]
 8001f1c:	7bfb      	ldrb	r3, [r7, #15]
 8001f1e:	bf00      	nop
 8001f20:	4618      	mov	r0, r3
 8001f22:	371c      	adds	r7, #28
 8001f24:	46bd      	mov	sp, r7
 8001f26:	bdf0      	pop	{r4, r5, r6, r7, pc}

08001f28 <stm32__i2c__wait_transfer_complete_reset_flag>:
 8001f28:	b5f0      	push	{r4, r5, r6, r7, lr}
 8001f2a:	b087      	sub	sp, #28
 8001f2c:	af00      	add	r7, sp, #0
 8001f2e:	6078      	str	r0, [r7, #4]
 8001f30:	6039      	str	r1, [r7, #0]
 8001f32:	f004 f90b 	bl	800614c <ada__real_time__clock>
 8001f36:	4603      	mov	r3, r0
 8001f38:	460c      	mov	r4, r1
 8001f3a:	e9c7 3404 	strd	r3, r4, [r7, #16]
 8001f3e:	687b      	ldr	r3, [r7, #4]
 8001f40:	685b      	ldr	r3, [r3, #4]
 8001f42:	3318      	adds	r3, #24
 8001f44:	681b      	ldr	r3, [r3, #0]
 8001f46:	f3c3 13c0 	ubfx	r3, r3, #7, #1
 8001f4a:	b2db      	uxtb	r3, r3
 8001f4c:	f083 0301 	eor.w	r3, r3, #1
 8001f50:	b2db      	uxtb	r3, r3
 8001f52:	2b00      	cmp	r3, #0
 8001f54:	d021      	beq.n	8001f9a <stm32__i2c__wait_transfer_complete_reset_flag+0x72>
 8001f56:	683b      	ldr	r3, [r7, #0]
 8001f58:	2b00      	cmp	r3, #0
 8001f5a:	ddf0      	ble.n	8001f3e <stm32__i2c__wait_transfer_complete_reset_flag+0x16>
 8001f5c:	683b      	ldr	r3, [r7, #0]
 8001f5e:	4618      	mov	r0, r3
 8001f60:	f004 f93c 	bl	80061dc <ada__real_time__milliseconds>
 8001f64:	4603      	mov	r3, r0
 8001f66:	460c      	mov	r4, r1
 8001f68:	e9d7 0104 	ldrd	r0, r1, [r7, #16]
 8001f6c:	461a      	mov	r2, r3
 8001f6e:	4623      	mov	r3, r4
 8001f70:	f004 f892 	bl	8006098 <ada__real_time__Oadd>
 8001f74:	4605      	mov	r5, r0
 8001f76:	460e      	mov	r6, r1
 8001f78:	f004 f8e8 	bl	800614c <ada__real_time__clock>
 8001f7c:	4603      	mov	r3, r0
 8001f7e:	460c      	mov	r4, r1
 8001f80:	42a6      	cmp	r6, r4
 8001f82:	bf08      	it	eq
 8001f84:	429d      	cmpeq	r5, r3
 8001f86:	d2da      	bcs.n	8001f3e <stm32__i2c__wait_transfer_complete_reset_flag+0x16>
 8001f88:	6878      	ldr	r0, [r7, #4]
 8001f8a:	f7ff fec7 	bl	8001d1c <stm32__i2c__reset_config>
 8001f8e:	2302      	movs	r3, #2
 8001f90:	73fb      	strb	r3, [r7, #15]
 8001f92:	687b      	ldr	r3, [r7, #4]
 8001f94:	2201      	movs	r2, #1
 8001f96:	751a      	strb	r2, [r3, #20]
 8001f98:	e001      	b.n	8001f9e <stm32__i2c__wait_transfer_complete_reset_flag+0x76>
 8001f9a:	2300      	movs	r3, #0
 8001f9c:	73fb      	strb	r3, [r7, #15]
 8001f9e:	7bfb      	ldrb	r3, [r7, #15]
 8001fa0:	bf00      	nop
 8001fa2:	4618      	mov	r0, r3
 8001fa4:	371c      	adds	r7, #28
 8001fa6:	46bd      	mov	sp, r7
 8001fa8:	bdf0      	pop	{r4, r5, r6, r7, pc}
 8001faa:	bf00      	nop

08001fac <stm32__i2c__wait_stop_flag>:
 8001fac:	b5f0      	push	{r4, r5, r6, r7, lr}
 8001fae:	b087      	sub	sp, #28
 8001fb0:	af00      	add	r7, sp, #0
 8001fb2:	6078      	str	r0, [r7, #4]
 8001fb4:	6039      	str	r1, [r7, #0]
 8001fb6:	f004 f8c9 	bl	800614c <ada__real_time__clock>
 8001fba:	4603      	mov	r3, r0
 8001fbc:	460c      	mov	r4, r1
 8001fbe:	e9c7 3404 	strd	r3, r4, [r7, #16]
 8001fc2:	687b      	ldr	r3, [r7, #4]
 8001fc4:	685b      	ldr	r3, [r3, #4]
 8001fc6:	3318      	adds	r3, #24
 8001fc8:	681b      	ldr	r3, [r3, #0]
 8001fca:	f3c3 1340 	ubfx	r3, r3, #5, #1
 8001fce:	b2db      	uxtb	r3, r3
 8001fd0:	f083 0301 	eor.w	r3, r3, #1
 8001fd4:	b2db      	uxtb	r3, r3
 8001fd6:	2b00      	cmp	r3, #0
 8001fd8:	d030      	beq.n	800203c <stm32__i2c__wait_stop_flag+0x90>
 8001fda:	6878      	ldr	r0, [r7, #4]
 8001fdc:	6839      	ldr	r1, [r7, #0]
 8001fde:	f7ff fec7 	bl	8001d70 <stm32__i2c__check_nack>
 8001fe2:	4603      	mov	r3, r0
 8001fe4:	73fb      	strb	r3, [r7, #15]
 8001fe6:	7bfb      	ldrb	r3, [r7, #15]
 8001fe8:	2b00      	cmp	r3, #0
 8001fea:	d005      	beq.n	8001ff8 <stm32__i2c__wait_stop_flag+0x4c>
 8001fec:	687b      	ldr	r3, [r7, #4]
 8001fee:	2201      	movs	r2, #1
 8001ff0:	751a      	strb	r2, [r3, #20]
 8001ff2:	2301      	movs	r3, #1
 8001ff4:	73fb      	strb	r3, [r7, #15]
 8001ff6:	e02f      	b.n	8002058 <stm32__i2c__wait_stop_flag+0xac>
 8001ff8:	683b      	ldr	r3, [r7, #0]
 8001ffa:	2b00      	cmp	r3, #0
 8001ffc:	dde1      	ble.n	8001fc2 <stm32__i2c__wait_stop_flag+0x16>
 8001ffe:	683b      	ldr	r3, [r7, #0]
 8002000:	4618      	mov	r0, r3
 8002002:	f004 f8eb 	bl	80061dc <ada__real_time__milliseconds>
 8002006:	4603      	mov	r3, r0
 8002008:	460c      	mov	r4, r1
 800200a:	e9d7 0104 	ldrd	r0, r1, [r7, #16]
 800200e:	461a      	mov	r2, r3
 8002010:	4623      	mov	r3, r4
 8002012:	f004 f841 	bl	8006098 <ada__real_time__Oadd>
 8002016:	4605      	mov	r5, r0
 8002018:	460e      	mov	r6, r1
 800201a:	f004 f897 	bl	800614c <ada__real_time__clock>
 800201e:	4603      	mov	r3, r0
 8002020:	460c      	mov	r4, r1
 8002022:	42a6      	cmp	r6, r4
 8002024:	bf08      	it	eq
 8002026:	429d      	cmpeq	r5, r3
 8002028:	d2cb      	bcs.n	8001fc2 <stm32__i2c__wait_stop_flag+0x16>
 800202a:	6878      	ldr	r0, [r7, #4]
 800202c:	f7ff fe76 	bl	8001d1c <stm32__i2c__reset_config>
 8002030:	2302      	movs	r3, #2
 8002032:	73fb      	strb	r3, [r7, #15]
 8002034:	687b      	ldr	r3, [r7, #4]
 8002036:	2201      	movs	r2, #1
 8002038:	751a      	strb	r2, [r3, #20]
 800203a:	e00d      	b.n	8002058 <stm32__i2c__wait_stop_flag+0xac>
 800203c:	687b      	ldr	r3, [r7, #4]
 800203e:	685b      	ldr	r3, [r3, #4]
 8002040:	331c      	adds	r3, #28
 8002042:	681b      	ldr	r3, [r3, #0]
 8002044:	461a      	mov	r2, r3
 8002046:	4613      	mov	r3, r2
 8002048:	f043 0220 	orr.w	r2, r3, #32
 800204c:	687b      	ldr	r3, [r7, #4]
 800204e:	685b      	ldr	r3, [r3, #4]
 8002050:	331c      	adds	r3, #28
 8002052:	601a      	str	r2, [r3, #0]
 8002054:	2300      	movs	r3, #0
 8002056:	73fb      	strb	r3, [r7, #15]
 8002058:	7bfb      	ldrb	r3, [r7, #15]
 800205a:	bf00      	nop
 800205c:	4618      	mov	r0, r3
 800205e:	371c      	adds	r7, #28
 8002060:	46bd      	mov	sp, r7
 8002062:	bdf0      	pop	{r4, r5, r6, r7, pc}

08002064 <stm32__i2c__master_transmit>:
 8002064:	e92d 4ff0 	stmdb	sp!, {r4, r5, r6, r7, r8, r9, sl, fp, lr}
 8002068:	b08b      	sub	sp, #44	; 0x2c
 800206a:	af02      	add	r7, sp, #8
 800206c:	60f8      	str	r0, [r7, #12]
 800206e:	e9c7 2300 	strd	r2, r3, [r7]
 8002072:	460b      	mov	r3, r1
 8002074:	817b      	strh	r3, [r7, #10]
 8002076:	687b      	ldr	r3, [r7, #4]
 8002078:	681c      	ldr	r4, [r3, #0]
 800207a:	687b      	ldr	r3, [r7, #4]
 800207c:	685d      	ldr	r5, [r3, #4]
 800207e:	42a5      	cmp	r5, r4
 8002080:	db0d      	blt.n	800209e <stm32__i2c__master_transmit+0x3a>
 8002082:	4628      	mov	r0, r5
 8002084:	ea4f 71e0 	mov.w	r1, r0, asr #31
 8002088:	4622      	mov	r2, r4
 800208a:	ea4f 73e2 	mov.w	r3, r2, asr #31
 800208e:	1a82      	subs	r2, r0, r2
 8002090:	eb61 0303 	sbc.w	r3, r1, r3
 8002094:	f112 0801 	adds.w	r8, r2, #1
 8002098:	f143 0900 	adc.w	r9, r3, #0
 800209c:	e003      	b.n	80020a6 <stm32__i2c__master_transmit+0x42>
 800209e:	f04f 0800 	mov.w	r8, #0
 80020a2:	f04f 0900 	mov.w	r9, #0
 80020a6:	68f8      	ldr	r0, [r7, #12]
 80020a8:	f7ff fdae 	bl	8001c08 <stm32__i2c__is_configured>
 80020ac:	4603      	mov	r3, r0
 80020ae:	f083 0301 	eor.w	r3, r3, #1
 80020b2:	b2db      	uxtb	r3, r3
 80020b4:	2b00      	cmp	r3, #0
 80020b6:	d007      	beq.n	80020c8 <stm32__i2c__master_transmit+0x64>
 80020b8:	f8df a37c 	ldr.w	sl, [pc, #892]	; 8002438 <stm32__i2c__master_transmit+0x3d4>
 80020bc:	f8df b37c 	ldr.w	fp, [pc, #892]	; 800243c <stm32__i2c__master_transmit+0x3d8>
 80020c0:	4650      	mov	r0, sl
 80020c2:	4659      	mov	r1, fp
 80020c4:	f006 fa1e 	bl	8008504 <system__assertions__raise_assert_failure>
 80020c8:	4626      	mov	r6, r4
 80020ca:	2300      	movs	r3, #0
 80020cc:	61fb      	str	r3, [r7, #28]
 80020ce:	2300      	movs	r3, #0
 80020d0:	61bb      	str	r3, [r7, #24]
 80020d2:	68fb      	ldr	r3, [r7, #12]
 80020d4:	685b      	ldr	r3, [r3, #4]
 80020d6:	3318      	adds	r3, #24
 80020d8:	681b      	ldr	r3, [r3, #0]
 80020da:	f3c3 33c0 	ubfx	r3, r3, #15, #1
 80020de:	b2db      	uxtb	r3, r3
 80020e0:	2b00      	cmp	r3, #0
 80020e2:	d002      	beq.n	80020ea <stm32__i2c__master_transmit+0x86>
 80020e4:	2303      	movs	r3, #3
 80020e6:	75fb      	strb	r3, [r7, #23]
 80020e8:	e19a      	b.n	8002420 <stm32__i2c__master_transmit+0x3bc>
 80020ea:	42ac      	cmp	r4, r5
 80020ec:	dd02      	ble.n	80020f4 <stm32__i2c__master_transmit+0x90>
 80020ee:	2301      	movs	r3, #1
 80020f0:	75fb      	strb	r3, [r7, #23]
 80020f2:	e195      	b.n	8002420 <stm32__i2c__master_transmit+0x3bc>
 80020f4:	68fb      	ldr	r3, [r7, #12]
 80020f6:	7d1b      	ldrb	r3, [r3, #20]
 80020f8:	2b01      	cmp	r3, #1
 80020fa:	d002      	beq.n	8002102 <stm32__i2c__master_transmit+0x9e>
 80020fc:	2303      	movs	r3, #3
 80020fe:	75fb      	strb	r3, [r7, #23]
 8002100:	e18e      	b.n	8002420 <stm32__i2c__master_transmit+0x3bc>
 8002102:	68fb      	ldr	r3, [r7, #12]
 8002104:	2202      	movs	r2, #2
 8002106:	751a      	strb	r2, [r3, #20]
 8002108:	4622      	mov	r2, r4
 800210a:	ea4f 73e2 	mov.w	r3, r2, asr #31
 800210e:	f06f 00fe 	mvn.w	r0, #254	; 0xfe
 8002112:	f06f 4100 	mvn.w	r1, #2147483648	; 0x80000000
 8002116:	4290      	cmp	r0, r2
 8002118:	eb71 0303 	sbcs.w	r3, r1, r3
 800211c:	da04      	bge.n	8002128 <stm32__i2c__master_transmit+0xc4>
 800211e:	48c4      	ldr	r0, [pc, #784]	; (8002430 <stm32__i2c__master_transmit+0x3cc>)
 8002120:	f44f 71c7 	mov.w	r1, #398	; 0x18e
 8002124:	f006 ffbe 	bl	80090a4 <__gnat_rcheck_CE_Overflow_Check>
 8002128:	4622      	mov	r2, r4
 800212a:	ea4f 73e2 	mov.w	r3, r2, asr #31
 800212e:	f112 00fe 	adds.w	r0, r2, #254	; 0xfe
 8002132:	f143 0100 	adc.w	r1, r3, #0
 8002136:	462a      	mov	r2, r5
 8002138:	ea4f 73e2 	mov.w	r3, r2, asr #31
 800213c:	4290      	cmp	r0, r2
 800213e:	eb71 0303 	sbcs.w	r3, r1, r3
 8002142:	da0b      	bge.n	800215c <stm32__i2c__master_transmit+0xf8>
 8002144:	897a      	ldrh	r2, [r7, #10]
 8002146:	2303      	movs	r3, #3
 8002148:	9300      	str	r3, [sp, #0]
 800214a:	68f8      	ldr	r0, [r7, #12]
 800214c:	4611      	mov	r1, r2
 800214e:	22ff      	movs	r2, #255	; 0xff
 8002150:	2300      	movs	r3, #0
 8002152:	f7ff fd6b 	bl	8001c2c <stm32__i2c__config_transfer>
 8002156:	23ff      	movs	r3, #255	; 0xff
 8002158:	61fb      	str	r3, [r7, #28]
 800215a:	e032      	b.n	80021c2 <stm32__i2c__master_transmit+0x15e>
 800215c:	4622      	mov	r2, r4
 800215e:	ea4f 73e2 	mov.w	r3, r2, asr #31
 8002162:	f112 00fe 	adds.w	r0, r2, #254	; 0xfe
 8002166:	f143 0100 	adc.w	r1, r3, #0
 800216a:	462a      	mov	r2, r5
 800216c:	ea4f 73e2 	mov.w	r3, r2, asr #31
 8002170:	4290      	cmp	r0, r2
 8002172:	eb71 0303 	sbcs.w	r3, r1, r3
 8002176:	da04      	bge.n	8002182 <stm32__i2c__master_transmit+0x11e>
 8002178:	48ad      	ldr	r0, [pc, #692]	; (8002430 <stm32__i2c__master_transmit+0x3cc>)
 800217a:	f44f 71ca 	mov.w	r1, #404	; 0x194
 800217e:	f006 ff99 	bl	80090b4 <__gnat_rcheck_CE_Range_Check>
 8002182:	fa5f f288 	uxtb.w	r2, r8
 8002186:	8979      	ldrh	r1, [r7, #10]
 8002188:	2303      	movs	r3, #3
 800218a:	9300      	str	r3, [sp, #0]
 800218c:	68f8      	ldr	r0, [r7, #12]
 800218e:	2301      	movs	r3, #1
 8002190:	f7ff fd4c 	bl	8001c2c <stm32__i2c__config_transfer>
 8002194:	4622      	mov	r2, r4
 8002196:	ea4f 73e2 	mov.w	r3, r2, asr #31
 800219a:	48a6      	ldr	r0, [pc, #664]	; (8002434 <stm32__i2c__master_transmit+0x3d0>)
 800219c:	f04f 0100 	mov.w	r1, #0
 80021a0:	1880      	adds	r0, r0, r2
 80021a2:	eb41 0103 	adc.w	r1, r1, r3
 80021a6:	462a      	mov	r2, r5
 80021a8:	ea4f 73e2 	mov.w	r3, r2, asr #31
 80021ac:	4290      	cmp	r0, r2
 80021ae:	eb71 0303 	sbcs.w	r3, r1, r3
 80021b2:	da04      	bge.n	80021be <stm32__i2c__master_transmit+0x15a>
 80021b4:	489e      	ldr	r0, [pc, #632]	; (8002430 <stm32__i2c__master_transmit+0x3cc>)
 80021b6:	f240 1195 	movw	r1, #405	; 0x195
 80021ba:	f006 ff7b 	bl	80090b4 <__gnat_rcheck_CE_Range_Check>
 80021be:	4643      	mov	r3, r8
 80021c0:	61fb      	str	r3, [r7, #28]
 80021c2:	4622      	mov	r2, r4
 80021c4:	ea4f 73e2 	mov.w	r3, r2, asr #31
 80021c8:	489a      	ldr	r0, [pc, #616]	; (8002434 <stm32__i2c__master_transmit+0x3d0>)
 80021ca:	f04f 0100 	mov.w	r1, #0
 80021ce:	1880      	adds	r0, r0, r2
 80021d0:	eb41 0103 	adc.w	r1, r1, r3
 80021d4:	462a      	mov	r2, r5
 80021d6:	ea4f 73e2 	mov.w	r3, r2, asr #31
 80021da:	4290      	cmp	r0, r2
 80021dc:	eb71 0303 	sbcs.w	r3, r1, r3
 80021e0:	da04      	bge.n	80021ec <stm32__i2c__master_transmit+0x188>
 80021e2:	4893      	ldr	r0, [pc, #588]	; (8002430 <stm32__i2c__master_transmit+0x3cc>)
 80021e4:	f240 1199 	movw	r1, #409	; 0x199
 80021e8:	f006 ff64 	bl	80090b4 <__gnat_rcheck_CE_Range_Check>
 80021ec:	69bb      	ldr	r3, [r7, #24]
 80021ee:	4642      	mov	r2, r8
 80021f0:	4293      	cmp	r3, r2
 80021f2:	f280 80fe 	bge.w	80023f2 <stm32__i2c__master_transmit+0x38e>
 80021f6:	68f8      	ldr	r0, [r7, #12]
 80021f8:	6cb9      	ldr	r1, [r7, #72]	; 0x48
 80021fa:	f7ff fe45 	bl	8001e88 <stm32__i2c__wait_tx_interrupt_status>
 80021fe:	4603      	mov	r3, r0
 8002200:	75fb      	strb	r3, [r7, #23]
 8002202:	7dfb      	ldrb	r3, [r7, #23]
 8002204:	2b00      	cmp	r3, #0
 8002206:	f040 8106 	bne.w	8002416 <stm32__i2c__master_transmit+0x3b2>
 800220a:	4622      	mov	r2, r4
 800220c:	69bb      	ldr	r3, [r7, #24]
 800220e:	4413      	add	r3, r2
 8002210:	42a3      	cmp	r3, r4
 8002212:	da04      	bge.n	800221e <stm32__i2c__master_transmit+0x1ba>
 8002214:	4886      	ldr	r0, [pc, #536]	; (8002430 <stm32__i2c__master_transmit+0x3cc>)
 8002216:	f44f 71d0 	mov.w	r1, #416	; 0x1a0
 800221a:	f006 ff43 	bl	80090a4 <__gnat_rcheck_CE_Overflow_Check>
 800221e:	69bb      	ldr	r3, [r7, #24]
 8002220:	4423      	add	r3, r4
 8002222:	429c      	cmp	r4, r3
 8002224:	dc01      	bgt.n	800222a <stm32__i2c__master_transmit+0x1c6>
 8002226:	429d      	cmp	r5, r3
 8002228:	da04      	bge.n	8002234 <stm32__i2c__master_transmit+0x1d0>
 800222a:	4881      	ldr	r0, [pc, #516]	; (8002430 <stm32__i2c__master_transmit+0x3cc>)
 800222c:	f44f 71d0 	mov.w	r1, #416	; 0x1a0
 8002230:	f006 ff28 	bl	8009084 <__gnat_rcheck_CE_Index_Check>
 8002234:	68fa      	ldr	r2, [r7, #12]
 8002236:	6852      	ldr	r2, [r2, #4]
 8002238:	3228      	adds	r2, #40	; 0x28
 800223a:	6812      	ldr	r2, [r2, #0]
 800223c:	6839      	ldr	r1, [r7, #0]
 800223e:	1b9b      	subs	r3, r3, r6
 8002240:	5ccb      	ldrb	r3, [r1, r3]
 8002242:	f363 0207 	bfi	r2, r3, #0, #8
 8002246:	68fb      	ldr	r3, [r7, #12]
 8002248:	685b      	ldr	r3, [r3, #4]
 800224a:	3328      	adds	r3, #40	; 0x28
 800224c:	601a      	str	r2, [r3, #0]
 800224e:	69bb      	ldr	r3, [r7, #24]
 8002250:	f06f 4200 	mvn.w	r2, #2147483648	; 0x80000000
 8002254:	4293      	cmp	r3, r2
 8002256:	d104      	bne.n	8002262 <stm32__i2c__master_transmit+0x1fe>
 8002258:	4875      	ldr	r0, [pc, #468]	; (8002430 <stm32__i2c__master_transmit+0x3cc>)
 800225a:	f240 11a1 	movw	r1, #417	; 0x1a1
 800225e:	f006 ff21 	bl	80090a4 <__gnat_rcheck_CE_Overflow_Check>
 8002262:	69bb      	ldr	r3, [r7, #24]
 8002264:	3301      	adds	r3, #1
 8002266:	61bb      	str	r3, [r7, #24]
 8002268:	69ba      	ldr	r2, [r7, #24]
 800226a:	69fb      	ldr	r3, [r7, #28]
 800226c:	429a      	cmp	r2, r3
 800226e:	d1a8      	bne.n	80021c2 <stm32__i2c__master_transmit+0x15e>
 8002270:	4622      	mov	r2, r4
 8002272:	ea4f 73e2 	mov.w	r3, r2, asr #31
 8002276:	486f      	ldr	r0, [pc, #444]	; (8002434 <stm32__i2c__master_transmit+0x3d0>)
 8002278:	f04f 0100 	mov.w	r1, #0
 800227c:	1880      	adds	r0, r0, r2
 800227e:	eb41 0103 	adc.w	r1, r1, r3
 8002282:	462a      	mov	r2, r5
 8002284:	ea4f 73e2 	mov.w	r3, r2, asr #31
 8002288:	4290      	cmp	r0, r2
 800228a:	eb71 0303 	sbcs.w	r3, r1, r3
 800228e:	da04      	bge.n	800229a <stm32__i2c__master_transmit+0x236>
 8002290:	4867      	ldr	r0, [pc, #412]	; (8002430 <stm32__i2c__master_transmit+0x3cc>)
 8002292:	f44f 71d2 	mov.w	r1, #420	; 0x1a4
 8002296:	f006 ff0d 	bl	80090b4 <__gnat_rcheck_CE_Range_Check>
 800229a:	69bb      	ldr	r3, [r7, #24]
 800229c:	4642      	mov	r2, r8
 800229e:	4293      	cmp	r3, r2
 80022a0:	bfb4      	ite	lt
 80022a2:	2301      	movlt	r3, #1
 80022a4:	2300      	movge	r3, #0
 80022a6:	b2db      	uxtb	r3, r3
 80022a8:	2b00      	cmp	r3, #0
 80022aa:	d08a      	beq.n	80021c2 <stm32__i2c__master_transmit+0x15e>
 80022ac:	68f8      	ldr	r0, [r7, #12]
 80022ae:	6cb9      	ldr	r1, [r7, #72]	; 0x48
 80022b0:	f7ff fe3a 	bl	8001f28 <stm32__i2c__wait_transfer_complete_reset_flag>
 80022b4:	4603      	mov	r3, r0
 80022b6:	75fb      	strb	r3, [r7, #23]
 80022b8:	7dfb      	ldrb	r3, [r7, #23]
 80022ba:	2b00      	cmp	r3, #0
 80022bc:	f040 80ad 	bne.w	800241a <stm32__i2c__master_transmit+0x3b6>
 80022c0:	4622      	mov	r2, r4
 80022c2:	ea4f 73e2 	mov.w	r3, r2, asr #31
 80022c6:	485b      	ldr	r0, [pc, #364]	; (8002434 <stm32__i2c__master_transmit+0x3d0>)
 80022c8:	f04f 0100 	mov.w	r1, #0
 80022cc:	1880      	adds	r0, r0, r2
 80022ce:	eb41 0103 	adc.w	r1, r1, r3
 80022d2:	462a      	mov	r2, r5
 80022d4:	ea4f 73e2 	mov.w	r3, r2, asr #31
 80022d8:	4290      	cmp	r0, r2
 80022da:	eb71 0303 	sbcs.w	r3, r1, r3
 80022de:	da04      	bge.n	80022ea <stm32__i2c__master_transmit+0x286>
 80022e0:	4853      	ldr	r0, [pc, #332]	; (8002430 <stm32__i2c__master_transmit+0x3cc>)
 80022e2:	f44f 71d6 	mov.w	r1, #428	; 0x1ac
 80022e6:	f006 fee5 	bl	80090b4 <__gnat_rcheck_CE_Range_Check>
 80022ea:	4642      	mov	r2, r8
 80022ec:	69bb      	ldr	r3, [r7, #24]
 80022ee:	1ad3      	subs	r3, r2, r3
 80022f0:	461a      	mov	r2, r3
 80022f2:	4643      	mov	r3, r8
 80022f4:	429a      	cmp	r2, r3
 80022f6:	dd04      	ble.n	8002302 <stm32__i2c__master_transmit+0x29e>
 80022f8:	484d      	ldr	r0, [pc, #308]	; (8002430 <stm32__i2c__master_transmit+0x3cc>)
 80022fa:	f44f 71d6 	mov.w	r1, #428	; 0x1ac
 80022fe:	f006 fed1 	bl	80090a4 <__gnat_rcheck_CE_Overflow_Check>
 8002302:	4642      	mov	r2, r8
 8002304:	69bb      	ldr	r3, [r7, #24]
 8002306:	1ad3      	subs	r3, r2, r3
 8002308:	2bff      	cmp	r3, #255	; 0xff
 800230a:	bfcc      	ite	gt
 800230c:	2301      	movgt	r3, #1
 800230e:	2300      	movle	r3, #0
 8002310:	b2db      	uxtb	r3, r3
 8002312:	2b00      	cmp	r3, #0
 8002314:	d00b      	beq.n	800232e <stm32__i2c__master_transmit+0x2ca>
 8002316:	897a      	ldrh	r2, [r7, #10]
 8002318:	2300      	movs	r3, #0
 800231a:	9300      	str	r3, [sp, #0]
 800231c:	68f8      	ldr	r0, [r7, #12]
 800231e:	4611      	mov	r1, r2
 8002320:	22ff      	movs	r2, #255	; 0xff
 8002322:	2300      	movs	r3, #0
 8002324:	f7ff fc82 	bl	8001c2c <stm32__i2c__config_transfer>
 8002328:	23ff      	movs	r3, #255	; 0xff
 800232a:	61fb      	str	r3, [r7, #28]
 800232c:	e749      	b.n	80021c2 <stm32__i2c__master_transmit+0x15e>
 800232e:	4622      	mov	r2, r4
 8002330:	ea4f 73e2 	mov.w	r3, r2, asr #31
 8002334:	483f      	ldr	r0, [pc, #252]	; (8002434 <stm32__i2c__master_transmit+0x3d0>)
 8002336:	f04f 0100 	mov.w	r1, #0
 800233a:	1880      	adds	r0, r0, r2
 800233c:	eb41 0103 	adc.w	r1, r1, r3
 8002340:	462a      	mov	r2, r5
 8002342:	ea4f 73e2 	mov.w	r3, r2, asr #31
 8002346:	4290      	cmp	r0, r2
 8002348:	eb71 0303 	sbcs.w	r3, r1, r3
 800234c:	da04      	bge.n	8002358 <stm32__i2c__master_transmit+0x2f4>
 800234e:	4838      	ldr	r0, [pc, #224]	; (8002430 <stm32__i2c__master_transmit+0x3cc>)
 8002350:	f44f 71d9 	mov.w	r1, #434	; 0x1b2
 8002354:	f006 feae 	bl	80090b4 <__gnat_rcheck_CE_Range_Check>
 8002358:	4642      	mov	r2, r8
 800235a:	69bb      	ldr	r3, [r7, #24]
 800235c:	1ad3      	subs	r3, r2, r3
 800235e:	461a      	mov	r2, r3
 8002360:	4643      	mov	r3, r8
 8002362:	429a      	cmp	r2, r3
 8002364:	dd04      	ble.n	8002370 <stm32__i2c__master_transmit+0x30c>
 8002366:	4832      	ldr	r0, [pc, #200]	; (8002430 <stm32__i2c__master_transmit+0x3cc>)
 8002368:	f44f 71d9 	mov.w	r1, #434	; 0x1b2
 800236c:	f006 fe9a 	bl	80090a4 <__gnat_rcheck_CE_Overflow_Check>
 8002370:	4642      	mov	r2, r8
 8002372:	69bb      	ldr	r3, [r7, #24]
 8002374:	1ad3      	subs	r3, r2, r3
 8002376:	2b00      	cmp	r3, #0
 8002378:	db01      	blt.n	800237e <stm32__i2c__master_transmit+0x31a>
 800237a:	2bff      	cmp	r3, #255	; 0xff
 800237c:	dd04      	ble.n	8002388 <stm32__i2c__master_transmit+0x324>
 800237e:	482c      	ldr	r0, [pc, #176]	; (8002430 <stm32__i2c__master_transmit+0x3cc>)
 8002380:	f44f 71d9 	mov.w	r1, #434	; 0x1b2
 8002384:	f006 fe96 	bl	80090b4 <__gnat_rcheck_CE_Range_Check>
 8002388:	b2da      	uxtb	r2, r3
 800238a:	8979      	ldrh	r1, [r7, #10]
 800238c:	2300      	movs	r3, #0
 800238e:	9300      	str	r3, [sp, #0]
 8002390:	68f8      	ldr	r0, [r7, #12]
 8002392:	2301      	movs	r3, #1
 8002394:	f7ff fc4a 	bl	8001c2c <stm32__i2c__config_transfer>
 8002398:	4622      	mov	r2, r4
 800239a:	ea4f 73e2 	mov.w	r3, r2, asr #31
 800239e:	4825      	ldr	r0, [pc, #148]	; (8002434 <stm32__i2c__master_transmit+0x3d0>)
 80023a0:	f04f 0100 	mov.w	r1, #0
 80023a4:	1880      	adds	r0, r0, r2
 80023a6:	eb41 0103 	adc.w	r1, r1, r3
 80023aa:	462a      	mov	r2, r5
 80023ac:	ea4f 73e2 	mov.w	r3, r2, asr #31
 80023b0:	4290      	cmp	r0, r2
 80023b2:	eb71 0303 	sbcs.w	r3, r1, r3
 80023b6:	da04      	bge.n	80023c2 <stm32__i2c__master_transmit+0x35e>
 80023b8:	481d      	ldr	r0, [pc, #116]	; (8002430 <stm32__i2c__master_transmit+0x3cc>)
 80023ba:	f44f 71da 	mov.w	r1, #436	; 0x1b4
 80023be:	f006 fe79 	bl	80090b4 <__gnat_rcheck_CE_Range_Check>
 80023c2:	4642      	mov	r2, r8
 80023c4:	69bb      	ldr	r3, [r7, #24]
 80023c6:	1ad3      	subs	r3, r2, r3
 80023c8:	461a      	mov	r2, r3
 80023ca:	4643      	mov	r3, r8
 80023cc:	429a      	cmp	r2, r3
 80023ce:	dd04      	ble.n	80023da <stm32__i2c__master_transmit+0x376>
 80023d0:	4817      	ldr	r0, [pc, #92]	; (8002430 <stm32__i2c__master_transmit+0x3cc>)
 80023d2:	f44f 71da 	mov.w	r1, #436	; 0x1b4
 80023d6:	f006 fe65 	bl	80090a4 <__gnat_rcheck_CE_Overflow_Check>
 80023da:	4642      	mov	r2, r8
 80023dc:	69bb      	ldr	r3, [r7, #24]
 80023de:	1ad3      	subs	r3, r2, r3
 80023e0:	2b00      	cmp	r3, #0
 80023e2:	da04      	bge.n	80023ee <stm32__i2c__master_transmit+0x38a>
 80023e4:	4812      	ldr	r0, [pc, #72]	; (8002430 <stm32__i2c__master_transmit+0x3cc>)
 80023e6:	f44f 71da 	mov.w	r1, #436	; 0x1b4
 80023ea:	f006 fe63 	bl	80090b4 <__gnat_rcheck_CE_Range_Check>
 80023ee:	61fb      	str	r3, [r7, #28]
 80023f0:	e6e7      	b.n	80021c2 <stm32__i2c__master_transmit+0x15e>
 80023f2:	68f8      	ldr	r0, [r7, #12]
 80023f4:	6cb9      	ldr	r1, [r7, #72]	; 0x48
 80023f6:	f7ff fdd9 	bl	8001fac <stm32__i2c__wait_stop_flag>
 80023fa:	4603      	mov	r3, r0
 80023fc:	75fb      	strb	r3, [r7, #23]
 80023fe:	7dfb      	ldrb	r3, [r7, #23]
 8002400:	2b00      	cmp	r3, #0
 8002402:	d10c      	bne.n	800241e <stm32__i2c__master_transmit+0x3ba>
 8002404:	68f8      	ldr	r0, [r7, #12]
 8002406:	f7ff fc89 	bl	8001d1c <stm32__i2c__reset_config>
 800240a:	68fb      	ldr	r3, [r7, #12]
 800240c:	2201      	movs	r2, #1
 800240e:	751a      	strb	r2, [r3, #20]
 8002410:	2300      	movs	r3, #0
 8002412:	75fb      	strb	r3, [r7, #23]
 8002414:	e004      	b.n	8002420 <stm32__i2c__master_transmit+0x3bc>
 8002416:	bf00      	nop
 8002418:	e002      	b.n	8002420 <stm32__i2c__master_transmit+0x3bc>
 800241a:	bf00      	nop
 800241c:	e000      	b.n	8002420 <stm32__i2c__master_transmit+0x3bc>
 800241e:	bf00      	nop
 8002420:	7dfb      	ldrb	r3, [r7, #23]
 8002422:	bf00      	nop
 8002424:	4618      	mov	r0, r3
 8002426:	3724      	adds	r7, #36	; 0x24
 8002428:	46bd      	mov	sp, r7
 800242a:	e8bd 8ff0 	ldmia.w	sp!, {r4, r5, r6, r7, r8, r9, sl, fp, pc}
 800242e:	bf00      	nop
 8002430:	0800cb64 	.word	0x0800cb64
 8002434:	7ffffffe 	.word	0x7ffffffe
 8002438:	0800cb74 	.word	0x0800cb74
 800243c:	0800cb5c 	.word	0x0800cb5c

08002440 <stm32__i2c__master_receive>:
 8002440:	b5b0      	push	{r4, r5, r7, lr}
 8002442:	b08a      	sub	sp, #40	; 0x28
 8002444:	af02      	add	r7, sp, #8
 8002446:	60f8      	str	r0, [r7, #12]
 8002448:	e9c7 2300 	strd	r2, r3, [r7]
 800244c:	460b      	mov	r3, r1
 800244e:	817b      	strh	r3, [r7, #10]
 8002450:	68f8      	ldr	r0, [r7, #12]
 8002452:	f7ff fbd9 	bl	8001c08 <stm32__i2c__is_configured>
 8002456:	4603      	mov	r3, r0
 8002458:	f083 0301 	eor.w	r3, r3, #1
 800245c:	b2db      	uxtb	r3, r3
 800245e:	2b00      	cmp	r3, #0
 8002460:	d005      	beq.n	800246e <stm32__i2c__master_receive+0x2e>
 8002462:	4ca8      	ldr	r4, [pc, #672]	; (8002704 <stm32__i2c__master_receive+0x2c4>)
 8002464:	4da8      	ldr	r5, [pc, #672]	; (8002708 <stm32__i2c__master_receive+0x2c8>)
 8002466:	4620      	mov	r0, r4
 8002468:	4629      	mov	r1, r5
 800246a:	f006 f84b 	bl	8008504 <system__assertions__raise_assert_failure>
 800246e:	687b      	ldr	r3, [r7, #4]
 8002470:	681b      	ldr	r3, [r3, #0]
 8002472:	461d      	mov	r5, r3
 8002474:	2300      	movs	r3, #0
 8002476:	61fb      	str	r3, [r7, #28]
 8002478:	2300      	movs	r3, #0
 800247a:	61bb      	str	r3, [r7, #24]
 800247c:	68fb      	ldr	r3, [r7, #12]
 800247e:	685b      	ldr	r3, [r3, #4]
 8002480:	3318      	adds	r3, #24
 8002482:	681b      	ldr	r3, [r3, #0]
 8002484:	f3c3 33c0 	ubfx	r3, r3, #15, #1
 8002488:	b2db      	uxtb	r3, r3
 800248a:	2b00      	cmp	r3, #0
 800248c:	d002      	beq.n	8002494 <stm32__i2c__master_receive+0x54>
 800248e:	2303      	movs	r3, #3
 8002490:	75fb      	strb	r3, [r7, #23]
 8002492:	e286      	b.n	80029a2 <stm32__i2c__master_receive+0x562>
 8002494:	68fb      	ldr	r3, [r7, #12]
 8002496:	7d1b      	ldrb	r3, [r3, #20]
 8002498:	2b01      	cmp	r3, #1
 800249a:	d002      	beq.n	80024a2 <stm32__i2c__master_receive+0x62>
 800249c:	2303      	movs	r3, #3
 800249e:	75fb      	strb	r3, [r7, #23]
 80024a0:	e27f      	b.n	80029a2 <stm32__i2c__master_receive+0x562>
 80024a2:	68fb      	ldr	r3, [r7, #12]
 80024a4:	2203      	movs	r2, #3
 80024a6:	751a      	strb	r2, [r3, #20]
 80024a8:	687b      	ldr	r3, [r7, #4]
 80024aa:	681a      	ldr	r2, [r3, #0]
 80024ac:	687b      	ldr	r3, [r7, #4]
 80024ae:	685b      	ldr	r3, [r3, #4]
 80024b0:	429a      	cmp	r2, r3
 80024b2:	dd02      	ble.n	80024ba <stm32__i2c__master_receive+0x7a>
 80024b4:	2301      	movs	r3, #1
 80024b6:	75fb      	strb	r3, [r7, #23]
 80024b8:	e273      	b.n	80029a2 <stm32__i2c__master_receive+0x562>
 80024ba:	687b      	ldr	r3, [r7, #4]
 80024bc:	681b      	ldr	r3, [r3, #0]
 80024be:	ea4f 74e3 	mov.w	r4, r3, asr #31
 80024c2:	f06f 01fe 	mvn.w	r1, #254	; 0xfe
 80024c6:	f06f 4200 	mvn.w	r2, #2147483648	; 0x80000000
 80024ca:	4299      	cmp	r1, r3
 80024cc:	eb72 0304 	sbcs.w	r3, r2, r4
 80024d0:	da04      	bge.n	80024dc <stm32__i2c__master_receive+0x9c>
 80024d2:	488e      	ldr	r0, [pc, #568]	; (800270c <stm32__i2c__master_receive+0x2cc>)
 80024d4:	f240 11e5 	movw	r1, #485	; 0x1e5
 80024d8:	f006 fde4 	bl	80090a4 <__gnat_rcheck_CE_Overflow_Check>
 80024dc:	687b      	ldr	r3, [r7, #4]
 80024de:	681b      	ldr	r3, [r3, #0]
 80024e0:	ea4f 74e3 	mov.w	r4, r3, asr #31
 80024e4:	f113 01fe 	adds.w	r1, r3, #254	; 0xfe
 80024e8:	f144 0200 	adc.w	r2, r4, #0
 80024ec:	687b      	ldr	r3, [r7, #4]
 80024ee:	685b      	ldr	r3, [r3, #4]
 80024f0:	ea4f 74e3 	mov.w	r4, r3, asr #31
 80024f4:	4299      	cmp	r1, r3
 80024f6:	eb72 0304 	sbcs.w	r3, r2, r4
 80024fa:	da0b      	bge.n	8002514 <stm32__i2c__master_receive+0xd4>
 80024fc:	897a      	ldrh	r2, [r7, #10]
 80024fe:	2302      	movs	r3, #2
 8002500:	9300      	str	r3, [sp, #0]
 8002502:	68f8      	ldr	r0, [r7, #12]
 8002504:	4611      	mov	r1, r2
 8002506:	22ff      	movs	r2, #255	; 0xff
 8002508:	2300      	movs	r3, #0
 800250a:	f7ff fb8f 	bl	8001c2c <stm32__i2c__config_transfer>
 800250e:	23ff      	movs	r3, #255	; 0xff
 8002510:	61fb      	str	r3, [r7, #28]
 8002512:	e055      	b.n	80025c0 <stm32__i2c__master_receive+0x180>
 8002514:	687b      	ldr	r3, [r7, #4]
 8002516:	681b      	ldr	r3, [r3, #0]
 8002518:	ea4f 74e3 	mov.w	r4, r3, asr #31
 800251c:	f113 01fe 	adds.w	r1, r3, #254	; 0xfe
 8002520:	f144 0200 	adc.w	r2, r4, #0
 8002524:	687b      	ldr	r3, [r7, #4]
 8002526:	685b      	ldr	r3, [r3, #4]
 8002528:	ea4f 74e3 	mov.w	r4, r3, asr #31
 800252c:	4299      	cmp	r1, r3
 800252e:	eb72 0304 	sbcs.w	r3, r2, r4
 8002532:	da04      	bge.n	800253e <stm32__i2c__master_receive+0xfe>
 8002534:	4875      	ldr	r0, [pc, #468]	; (800270c <stm32__i2c__master_receive+0x2cc>)
 8002536:	f240 11eb 	movw	r1, #491	; 0x1eb
 800253a:	f006 fdbb 	bl	80090b4 <__gnat_rcheck_CE_Range_Check>
 800253e:	687b      	ldr	r3, [r7, #4]
 8002540:	685a      	ldr	r2, [r3, #4]
 8002542:	687b      	ldr	r3, [r7, #4]
 8002544:	681b      	ldr	r3, [r3, #0]
 8002546:	429a      	cmp	r2, r3
 8002548:	db0a      	blt.n	8002560 <stm32__i2c__master_receive+0x120>
 800254a:	687b      	ldr	r3, [r7, #4]
 800254c:	685b      	ldr	r3, [r3, #4]
 800254e:	b2da      	uxtb	r2, r3
 8002550:	687b      	ldr	r3, [r7, #4]
 8002552:	681b      	ldr	r3, [r3, #0]
 8002554:	b2db      	uxtb	r3, r3
 8002556:	1ad3      	subs	r3, r2, r3
 8002558:	b2db      	uxtb	r3, r3
 800255a:	3301      	adds	r3, #1
 800255c:	b2db      	uxtb	r3, r3
 800255e:	e000      	b.n	8002562 <stm32__i2c__master_receive+0x122>
 8002560:	2300      	movs	r3, #0
 8002562:	8979      	ldrh	r1, [r7, #10]
 8002564:	2202      	movs	r2, #2
 8002566:	9200      	str	r2, [sp, #0]
 8002568:	68f8      	ldr	r0, [r7, #12]
 800256a:	461a      	mov	r2, r3
 800256c:	2301      	movs	r3, #1
 800256e:	f7ff fb5d 	bl	8001c2c <stm32__i2c__config_transfer>
 8002572:	687b      	ldr	r3, [r7, #4]
 8002574:	681b      	ldr	r3, [r3, #0]
 8002576:	ea4f 74e3 	mov.w	r4, r3, asr #31
 800257a:	4965      	ldr	r1, [pc, #404]	; (8002710 <stm32__i2c__master_receive+0x2d0>)
 800257c:	f04f 0200 	mov.w	r2, #0
 8002580:	18c9      	adds	r1, r1, r3
 8002582:	eb42 0204 	adc.w	r2, r2, r4
 8002586:	687b      	ldr	r3, [r7, #4]
 8002588:	685b      	ldr	r3, [r3, #4]
 800258a:	ea4f 74e3 	mov.w	r4, r3, asr #31
 800258e:	4299      	cmp	r1, r3
 8002590:	eb72 0304 	sbcs.w	r3, r2, r4
 8002594:	da04      	bge.n	80025a0 <stm32__i2c__master_receive+0x160>
 8002596:	485d      	ldr	r0, [pc, #372]	; (800270c <stm32__i2c__master_receive+0x2cc>)
 8002598:	f44f 71f6 	mov.w	r1, #492	; 0x1ec
 800259c:	f006 fd8a 	bl	80090b4 <__gnat_rcheck_CE_Range_Check>
 80025a0:	687b      	ldr	r3, [r7, #4]
 80025a2:	685a      	ldr	r2, [r3, #4]
 80025a4:	687b      	ldr	r3, [r7, #4]
 80025a6:	681b      	ldr	r3, [r3, #0]
 80025a8:	429a      	cmp	r2, r3
 80025aa:	db07      	blt.n	80025bc <stm32__i2c__master_receive+0x17c>
 80025ac:	687b      	ldr	r3, [r7, #4]
 80025ae:	685b      	ldr	r3, [r3, #4]
 80025b0:	461a      	mov	r2, r3
 80025b2:	687b      	ldr	r3, [r7, #4]
 80025b4:	681b      	ldr	r3, [r3, #0]
 80025b6:	1ad3      	subs	r3, r2, r3
 80025b8:	3301      	adds	r3, #1
 80025ba:	e000      	b.n	80025be <stm32__i2c__master_receive+0x17e>
 80025bc:	2300      	movs	r3, #0
 80025be:	61fb      	str	r3, [r7, #28]
 80025c0:	687b      	ldr	r3, [r7, #4]
 80025c2:	681b      	ldr	r3, [r3, #0]
 80025c4:	ea4f 74e3 	mov.w	r4, r3, asr #31
 80025c8:	4951      	ldr	r1, [pc, #324]	; (8002710 <stm32__i2c__master_receive+0x2d0>)
 80025ca:	f04f 0200 	mov.w	r2, #0
 80025ce:	18c9      	adds	r1, r1, r3
 80025d0:	eb42 0204 	adc.w	r2, r2, r4
 80025d4:	687b      	ldr	r3, [r7, #4]
 80025d6:	685b      	ldr	r3, [r3, #4]
 80025d8:	ea4f 74e3 	mov.w	r4, r3, asr #31
 80025dc:	4299      	cmp	r1, r3
 80025de:	eb72 0304 	sbcs.w	r3, r2, r4
 80025e2:	da04      	bge.n	80025ee <stm32__i2c__master_receive+0x1ae>
 80025e4:	4849      	ldr	r0, [pc, #292]	; (800270c <stm32__i2c__master_receive+0x2cc>)
 80025e6:	f44f 71f8 	mov.w	r1, #496	; 0x1f0
 80025ea:	f006 fd63 	bl	80090b4 <__gnat_rcheck_CE_Range_Check>
 80025ee:	69bb      	ldr	r3, [r7, #24]
 80025f0:	687a      	ldr	r2, [r7, #4]
 80025f2:	6851      	ldr	r1, [r2, #4]
 80025f4:	687a      	ldr	r2, [r7, #4]
 80025f6:	6812      	ldr	r2, [r2, #0]
 80025f8:	4291      	cmp	r1, r2
 80025fa:	db07      	blt.n	800260c <stm32__i2c__master_receive+0x1cc>
 80025fc:	687a      	ldr	r2, [r7, #4]
 80025fe:	6852      	ldr	r2, [r2, #4]
 8002600:	4611      	mov	r1, r2
 8002602:	687a      	ldr	r2, [r7, #4]
 8002604:	6812      	ldr	r2, [r2, #0]
 8002606:	1a8a      	subs	r2, r1, r2
 8002608:	3201      	adds	r2, #1
 800260a:	e000      	b.n	800260e <stm32__i2c__master_receive+0x1ce>
 800260c:	2200      	movs	r2, #0
 800260e:	4293      	cmp	r3, r2
 8002610:	f280 81b4 	bge.w	800297c <stm32__i2c__master_receive+0x53c>
 8002614:	68fb      	ldr	r3, [r7, #12]
 8002616:	685b      	ldr	r3, [r3, #4]
 8002618:	3318      	adds	r3, #24
 800261a:	681b      	ldr	r3, [r3, #0]
 800261c:	f3c3 0380 	ubfx	r3, r3, #2, #1
 8002620:	b2db      	uxtb	r3, r3
 8002622:	f083 0301 	eor.w	r3, r3, #1
 8002626:	b2db      	uxtb	r3, r3
 8002628:	2b00      	cmp	r3, #0
 800262a:	d001      	beq.n	8002630 <stm32__i2c__master_receive+0x1f0>
 800262c:	bf00      	nop
 800262e:	e7f1      	b.n	8002614 <stm32__i2c__master_receive+0x1d4>
 8002630:	687b      	ldr	r3, [r7, #4]
 8002632:	681b      	ldr	r3, [r3, #0]
 8002634:	461a      	mov	r2, r3
 8002636:	69bb      	ldr	r3, [r7, #24]
 8002638:	4413      	add	r3, r2
 800263a:	461a      	mov	r2, r3
 800263c:	687b      	ldr	r3, [r7, #4]
 800263e:	681b      	ldr	r3, [r3, #0]
 8002640:	429a      	cmp	r2, r3
 8002642:	da04      	bge.n	800264e <stm32__i2c__master_receive+0x20e>
 8002644:	4831      	ldr	r0, [pc, #196]	; (800270c <stm32__i2c__master_receive+0x2cc>)
 8002646:	f240 11f5 	movw	r1, #501	; 0x1f5
 800264a:	f006 fd2b 	bl	80090a4 <__gnat_rcheck_CE_Overflow_Check>
 800264e:	687b      	ldr	r3, [r7, #4]
 8002650:	681a      	ldr	r2, [r3, #0]
 8002652:	69bb      	ldr	r3, [r7, #24]
 8002654:	4413      	add	r3, r2
 8002656:	687a      	ldr	r2, [r7, #4]
 8002658:	6812      	ldr	r2, [r2, #0]
 800265a:	429a      	cmp	r2, r3
 800265c:	dc03      	bgt.n	8002666 <stm32__i2c__master_receive+0x226>
 800265e:	687a      	ldr	r2, [r7, #4]
 8002660:	6852      	ldr	r2, [r2, #4]
 8002662:	429a      	cmp	r2, r3
 8002664:	da04      	bge.n	8002670 <stm32__i2c__master_receive+0x230>
 8002666:	4829      	ldr	r0, [pc, #164]	; (800270c <stm32__i2c__master_receive+0x2cc>)
 8002668:	f240 11f5 	movw	r1, #501	; 0x1f5
 800266c:	f006 fd0a 	bl	8009084 <__gnat_rcheck_CE_Index_Check>
 8002670:	683a      	ldr	r2, [r7, #0]
 8002672:	4618      	mov	r0, r3
 8002674:	68fb      	ldr	r3, [r7, #12]
 8002676:	685b      	ldr	r3, [r3, #4]
 8002678:	3324      	adds	r3, #36	; 0x24
 800267a:	681b      	ldr	r3, [r3, #0]
 800267c:	b2d9      	uxtb	r1, r3
 800267e:	1b43      	subs	r3, r0, r5
 8002680:	54d1      	strb	r1, [r2, r3]
 8002682:	69bb      	ldr	r3, [r7, #24]
 8002684:	f06f 4200 	mvn.w	r2, #2147483648	; 0x80000000
 8002688:	4293      	cmp	r3, r2
 800268a:	d104      	bne.n	8002696 <stm32__i2c__master_receive+0x256>
 800268c:	481f      	ldr	r0, [pc, #124]	; (800270c <stm32__i2c__master_receive+0x2cc>)
 800268e:	f44f 71fb 	mov.w	r1, #502	; 0x1f6
 8002692:	f006 fd07 	bl	80090a4 <__gnat_rcheck_CE_Overflow_Check>
 8002696:	69bb      	ldr	r3, [r7, #24]
 8002698:	3301      	adds	r3, #1
 800269a:	61bb      	str	r3, [r7, #24]
 800269c:	69fb      	ldr	r3, [r7, #28]
 800269e:	3b01      	subs	r3, #1
 80026a0:	2b00      	cmp	r3, #0
 80026a2:	da04      	bge.n	80026ae <stm32__i2c__master_receive+0x26e>
 80026a4:	4819      	ldr	r0, [pc, #100]	; (800270c <stm32__i2c__master_receive+0x2cc>)
 80026a6:	f240 11f7 	movw	r1, #503	; 0x1f7
 80026aa:	f006 fd03 	bl	80090b4 <__gnat_rcheck_CE_Range_Check>
 80026ae:	61fb      	str	r3, [r7, #28]
 80026b0:	69fb      	ldr	r3, [r7, #28]
 80026b2:	2b00      	cmp	r3, #0
 80026b4:	d184      	bne.n	80025c0 <stm32__i2c__master_receive+0x180>
 80026b6:	687b      	ldr	r3, [r7, #4]
 80026b8:	681b      	ldr	r3, [r3, #0]
 80026ba:	ea4f 74e3 	mov.w	r4, r3, asr #31
 80026be:	4914      	ldr	r1, [pc, #80]	; (8002710 <stm32__i2c__master_receive+0x2d0>)
 80026c0:	f04f 0200 	mov.w	r2, #0
 80026c4:	18c9      	adds	r1, r1, r3
 80026c6:	eb42 0204 	adc.w	r2, r2, r4
 80026ca:	687b      	ldr	r3, [r7, #4]
 80026cc:	685b      	ldr	r3, [r3, #4]
 80026ce:	ea4f 74e3 	mov.w	r4, r3, asr #31
 80026d2:	4299      	cmp	r1, r3
 80026d4:	eb72 0304 	sbcs.w	r3, r2, r4
 80026d8:	da04      	bge.n	80026e4 <stm32__i2c__master_receive+0x2a4>
 80026da:	480c      	ldr	r0, [pc, #48]	; (800270c <stm32__i2c__master_receive+0x2cc>)
 80026dc:	f44f 71fd 	mov.w	r1, #506	; 0x1fa
 80026e0:	f006 fce8 	bl	80090b4 <__gnat_rcheck_CE_Range_Check>
 80026e4:	69bb      	ldr	r3, [r7, #24]
 80026e6:	687a      	ldr	r2, [r7, #4]
 80026e8:	6851      	ldr	r1, [r2, #4]
 80026ea:	687a      	ldr	r2, [r7, #4]
 80026ec:	6812      	ldr	r2, [r2, #0]
 80026ee:	4291      	cmp	r1, r2
 80026f0:	db10      	blt.n	8002714 <stm32__i2c__master_receive+0x2d4>
 80026f2:	687a      	ldr	r2, [r7, #4]
 80026f4:	6852      	ldr	r2, [r2, #4]
 80026f6:	4611      	mov	r1, r2
 80026f8:	687a      	ldr	r2, [r7, #4]
 80026fa:	6812      	ldr	r2, [r2, #0]
 80026fc:	1a8a      	subs	r2, r1, r2
 80026fe:	3201      	adds	r2, #1
 8002700:	e009      	b.n	8002716 <stm32__i2c__master_receive+0x2d6>
 8002702:	bf00      	nop
 8002704:	0800cba0 	.word	0x0800cba0
 8002708:	0800cb5c 	.word	0x0800cb5c
 800270c:	0800cb64 	.word	0x0800cb64
 8002710:	7ffffffe 	.word	0x7ffffffe
 8002714:	2200      	movs	r2, #0
 8002716:	4293      	cmp	r3, r2
 8002718:	bfb4      	ite	lt
 800271a:	2301      	movlt	r3, #1
 800271c:	2300      	movge	r3, #0
 800271e:	b2db      	uxtb	r3, r3
 8002720:	2b00      	cmp	r3, #0
 8002722:	f43f af4d 	beq.w	80025c0 <stm32__i2c__master_receive+0x180>
 8002726:	68fb      	ldr	r3, [r7, #12]
 8002728:	685b      	ldr	r3, [r3, #4]
 800272a:	3318      	adds	r3, #24
 800272c:	681b      	ldr	r3, [r3, #0]
 800272e:	f3c3 13c0 	ubfx	r3, r3, #7, #1
 8002732:	b2db      	uxtb	r3, r3
 8002734:	2b00      	cmp	r3, #0
 8002736:	d001      	beq.n	800273c <stm32__i2c__master_receive+0x2fc>
 8002738:	bf00      	nop
 800273a:	e7f4      	b.n	8002726 <stm32__i2c__master_receive+0x2e6>
 800273c:	687b      	ldr	r3, [r7, #4]
 800273e:	681b      	ldr	r3, [r3, #0]
 8002740:	ea4f 74e3 	mov.w	r4, r3, asr #31
 8002744:	499a      	ldr	r1, [pc, #616]	; (80029b0 <stm32__i2c__master_receive+0x570>)
 8002746:	f04f 0200 	mov.w	r2, #0
 800274a:	18c9      	adds	r1, r1, r3
 800274c:	eb42 0204 	adc.w	r2, r2, r4
 8002750:	687b      	ldr	r3, [r7, #4]
 8002752:	685b      	ldr	r3, [r3, #4]
 8002754:	ea4f 74e3 	mov.w	r4, r3, asr #31
 8002758:	4299      	cmp	r1, r3
 800275a:	eb72 0304 	sbcs.w	r3, r2, r4
 800275e:	da04      	bge.n	800276a <stm32__i2c__master_receive+0x32a>
 8002760:	4894      	ldr	r0, [pc, #592]	; (80029b4 <stm32__i2c__master_receive+0x574>)
 8002762:	f240 2101 	movw	r1, #513	; 0x201
 8002766:	f006 fca5 	bl	80090b4 <__gnat_rcheck_CE_Range_Check>
 800276a:	687b      	ldr	r3, [r7, #4]
 800276c:	685a      	ldr	r2, [r3, #4]
 800276e:	687b      	ldr	r3, [r7, #4]
 8002770:	681b      	ldr	r3, [r3, #0]
 8002772:	429a      	cmp	r2, r3
 8002774:	db07      	blt.n	8002786 <stm32__i2c__master_receive+0x346>
 8002776:	687b      	ldr	r3, [r7, #4]
 8002778:	685b      	ldr	r3, [r3, #4]
 800277a:	461a      	mov	r2, r3
 800277c:	687b      	ldr	r3, [r7, #4]
 800277e:	681b      	ldr	r3, [r3, #0]
 8002780:	1ad3      	subs	r3, r2, r3
 8002782:	3301      	adds	r3, #1
 8002784:	e000      	b.n	8002788 <stm32__i2c__master_receive+0x348>
 8002786:	2300      	movs	r3, #0
 8002788:	69ba      	ldr	r2, [r7, #24]
 800278a:	1a9b      	subs	r3, r3, r2
 800278c:	4619      	mov	r1, r3
 800278e:	687b      	ldr	r3, [r7, #4]
 8002790:	685a      	ldr	r2, [r3, #4]
 8002792:	687b      	ldr	r3, [r7, #4]
 8002794:	681b      	ldr	r3, [r3, #0]
 8002796:	429a      	cmp	r2, r3
 8002798:	db07      	blt.n	80027aa <stm32__i2c__master_receive+0x36a>
 800279a:	687b      	ldr	r3, [r7, #4]
 800279c:	685b      	ldr	r3, [r3, #4]
 800279e:	461a      	mov	r2, r3
 80027a0:	687b      	ldr	r3, [r7, #4]
 80027a2:	681b      	ldr	r3, [r3, #0]
 80027a4:	1ad3      	subs	r3, r2, r3
 80027a6:	3301      	adds	r3, #1
 80027a8:	e000      	b.n	80027ac <stm32__i2c__master_receive+0x36c>
 80027aa:	2300      	movs	r3, #0
 80027ac:	4299      	cmp	r1, r3
 80027ae:	dd04      	ble.n	80027ba <stm32__i2c__master_receive+0x37a>
 80027b0:	4880      	ldr	r0, [pc, #512]	; (80029b4 <stm32__i2c__master_receive+0x574>)
 80027b2:	f240 2101 	movw	r1, #513	; 0x201
 80027b6:	f006 fc75 	bl	80090a4 <__gnat_rcheck_CE_Overflow_Check>
 80027ba:	687b      	ldr	r3, [r7, #4]
 80027bc:	685a      	ldr	r2, [r3, #4]
 80027be:	687b      	ldr	r3, [r7, #4]
 80027c0:	681b      	ldr	r3, [r3, #0]
 80027c2:	429a      	cmp	r2, r3
 80027c4:	db08      	blt.n	80027d8 <stm32__i2c__master_receive+0x398>
 80027c6:	687b      	ldr	r3, [r7, #4]
 80027c8:	685b      	ldr	r3, [r3, #4]
 80027ca:	461a      	mov	r2, r3
 80027cc:	687b      	ldr	r3, [r7, #4]
 80027ce:	681b      	ldr	r3, [r3, #0]
 80027d0:	1ad3      	subs	r3, r2, r3
 80027d2:	3301      	adds	r3, #1
 80027d4:	461a      	mov	r2, r3
 80027d6:	e000      	b.n	80027da <stm32__i2c__master_receive+0x39a>
 80027d8:	2200      	movs	r2, #0
 80027da:	69bb      	ldr	r3, [r7, #24]
 80027dc:	1ad3      	subs	r3, r2, r3
 80027de:	2bff      	cmp	r3, #255	; 0xff
 80027e0:	bfcc      	ite	gt
 80027e2:	2301      	movgt	r3, #1
 80027e4:	2300      	movle	r3, #0
 80027e6:	b2db      	uxtb	r3, r3
 80027e8:	2b00      	cmp	r3, #0
 80027ea:	d00b      	beq.n	8002804 <stm32__i2c__master_receive+0x3c4>
 80027ec:	897a      	ldrh	r2, [r7, #10]
 80027ee:	2300      	movs	r3, #0
 80027f0:	9300      	str	r3, [sp, #0]
 80027f2:	68f8      	ldr	r0, [r7, #12]
 80027f4:	4611      	mov	r1, r2
 80027f6:	22ff      	movs	r2, #255	; 0xff
 80027f8:	2300      	movs	r3, #0
 80027fa:	f7ff fa17 	bl	8001c2c <stm32__i2c__config_transfer>
 80027fe:	23ff      	movs	r3, #255	; 0xff
 8002800:	61fb      	str	r3, [r7, #28]
 8002802:	e6dd      	b.n	80025c0 <stm32__i2c__master_receive+0x180>
 8002804:	687b      	ldr	r3, [r7, #4]
 8002806:	681b      	ldr	r3, [r3, #0]
 8002808:	ea4f 74e3 	mov.w	r4, r3, asr #31
 800280c:	4968      	ldr	r1, [pc, #416]	; (80029b0 <stm32__i2c__master_receive+0x570>)
 800280e:	f04f 0200 	mov.w	r2, #0
 8002812:	18c9      	adds	r1, r1, r3
 8002814:	eb42 0204 	adc.w	r2, r2, r4
 8002818:	687b      	ldr	r3, [r7, #4]
 800281a:	685b      	ldr	r3, [r3, #4]
 800281c:	ea4f 74e3 	mov.w	r4, r3, asr #31
 8002820:	4299      	cmp	r1, r3
 8002822:	eb72 0304 	sbcs.w	r3, r2, r4
 8002826:	da04      	bge.n	8002832 <stm32__i2c__master_receive+0x3f2>
 8002828:	4862      	ldr	r0, [pc, #392]	; (80029b4 <stm32__i2c__master_receive+0x574>)
 800282a:	f240 2107 	movw	r1, #519	; 0x207
 800282e:	f006 fc41 	bl	80090b4 <__gnat_rcheck_CE_Range_Check>
 8002832:	687b      	ldr	r3, [r7, #4]
 8002834:	685a      	ldr	r2, [r3, #4]
 8002836:	687b      	ldr	r3, [r7, #4]
 8002838:	681b      	ldr	r3, [r3, #0]
 800283a:	429a      	cmp	r2, r3
 800283c:	db07      	blt.n	800284e <stm32__i2c__master_receive+0x40e>
 800283e:	687b      	ldr	r3, [r7, #4]
 8002840:	685b      	ldr	r3, [r3, #4]
 8002842:	461a      	mov	r2, r3
 8002844:	687b      	ldr	r3, [r7, #4]
 8002846:	681b      	ldr	r3, [r3, #0]
 8002848:	1ad3      	subs	r3, r2, r3
 800284a:	3301      	adds	r3, #1
 800284c:	e000      	b.n	8002850 <stm32__i2c__master_receive+0x410>
 800284e:	2300      	movs	r3, #0
 8002850:	69ba      	ldr	r2, [r7, #24]
 8002852:	1a9b      	subs	r3, r3, r2
 8002854:	4619      	mov	r1, r3
 8002856:	687b      	ldr	r3, [r7, #4]
 8002858:	685a      	ldr	r2, [r3, #4]
 800285a:	687b      	ldr	r3, [r7, #4]
 800285c:	681b      	ldr	r3, [r3, #0]
 800285e:	429a      	cmp	r2, r3
 8002860:	db07      	blt.n	8002872 <stm32__i2c__master_receive+0x432>
 8002862:	687b      	ldr	r3, [r7, #4]
 8002864:	685b      	ldr	r3, [r3, #4]
 8002866:	461a      	mov	r2, r3
 8002868:	687b      	ldr	r3, [r7, #4]
 800286a:	681b      	ldr	r3, [r3, #0]
 800286c:	1ad3      	subs	r3, r2, r3
 800286e:	3301      	adds	r3, #1
 8002870:	e000      	b.n	8002874 <stm32__i2c__master_receive+0x434>
 8002872:	2300      	movs	r3, #0
 8002874:	4299      	cmp	r1, r3
 8002876:	dd04      	ble.n	8002882 <stm32__i2c__master_receive+0x442>
 8002878:	484e      	ldr	r0, [pc, #312]	; (80029b4 <stm32__i2c__master_receive+0x574>)
 800287a:	f240 2107 	movw	r1, #519	; 0x207
 800287e:	f006 fc11 	bl	80090a4 <__gnat_rcheck_CE_Overflow_Check>
 8002882:	687b      	ldr	r3, [r7, #4]
 8002884:	685a      	ldr	r2, [r3, #4]
 8002886:	687b      	ldr	r3, [r7, #4]
 8002888:	681b      	ldr	r3, [r3, #0]
 800288a:	429a      	cmp	r2, r3
 800288c:	db08      	blt.n	80028a0 <stm32__i2c__master_receive+0x460>
 800288e:	687b      	ldr	r3, [r7, #4]
 8002890:	685b      	ldr	r3, [r3, #4]
 8002892:	461a      	mov	r2, r3
 8002894:	687b      	ldr	r3, [r7, #4]
 8002896:	681b      	ldr	r3, [r3, #0]
 8002898:	1ad3      	subs	r3, r2, r3
 800289a:	3301      	adds	r3, #1
 800289c:	461a      	mov	r2, r3
 800289e:	e000      	b.n	80028a2 <stm32__i2c__master_receive+0x462>
 80028a0:	2200      	movs	r2, #0
 80028a2:	69bb      	ldr	r3, [r7, #24]
 80028a4:	1ad3      	subs	r3, r2, r3
 80028a6:	2b00      	cmp	r3, #0
 80028a8:	db01      	blt.n	80028ae <stm32__i2c__master_receive+0x46e>
 80028aa:	2bff      	cmp	r3, #255	; 0xff
 80028ac:	dd04      	ble.n	80028b8 <stm32__i2c__master_receive+0x478>
 80028ae:	4841      	ldr	r0, [pc, #260]	; (80029b4 <stm32__i2c__master_receive+0x574>)
 80028b0:	f240 2107 	movw	r1, #519	; 0x207
 80028b4:	f006 fbfe 	bl	80090b4 <__gnat_rcheck_CE_Range_Check>
 80028b8:	b2da      	uxtb	r2, r3
 80028ba:	8979      	ldrh	r1, [r7, #10]
 80028bc:	2300      	movs	r3, #0
 80028be:	9300      	str	r3, [sp, #0]
 80028c0:	68f8      	ldr	r0, [r7, #12]
 80028c2:	2301      	movs	r3, #1
 80028c4:	f7ff f9b2 	bl	8001c2c <stm32__i2c__config_transfer>
 80028c8:	687b      	ldr	r3, [r7, #4]
 80028ca:	681b      	ldr	r3, [r3, #0]
 80028cc:	ea4f 74e3 	mov.w	r4, r3, asr #31
 80028d0:	4937      	ldr	r1, [pc, #220]	; (80029b0 <stm32__i2c__master_receive+0x570>)
 80028d2:	f04f 0200 	mov.w	r2, #0
 80028d6:	18c9      	adds	r1, r1, r3
 80028d8:	eb42 0204 	adc.w	r2, r2, r4
 80028dc:	687b      	ldr	r3, [r7, #4]
 80028de:	685b      	ldr	r3, [r3, #4]
 80028e0:	ea4f 74e3 	mov.w	r4, r3, asr #31
 80028e4:	4299      	cmp	r1, r3
 80028e6:	eb72 0304 	sbcs.w	r3, r2, r4
 80028ea:	da04      	bge.n	80028f6 <stm32__i2c__master_receive+0x4b6>
 80028ec:	4831      	ldr	r0, [pc, #196]	; (80029b4 <stm32__i2c__master_receive+0x574>)
 80028ee:	f240 2109 	movw	r1, #521	; 0x209
 80028f2:	f006 fbdf 	bl	80090b4 <__gnat_rcheck_CE_Range_Check>
 80028f6:	687b      	ldr	r3, [r7, #4]
 80028f8:	685a      	ldr	r2, [r3, #4]
 80028fa:	687b      	ldr	r3, [r7, #4]
 80028fc:	681b      	ldr	r3, [r3, #0]
 80028fe:	429a      	cmp	r2, r3
 8002900:	db07      	blt.n	8002912 <stm32__i2c__master_receive+0x4d2>
 8002902:	687b      	ldr	r3, [r7, #4]
 8002904:	685b      	ldr	r3, [r3, #4]
 8002906:	461a      	mov	r2, r3
 8002908:	687b      	ldr	r3, [r7, #4]
 800290a:	681b      	ldr	r3, [r3, #0]
 800290c:	1ad3      	subs	r3, r2, r3
 800290e:	3301      	adds	r3, #1
 8002910:	e000      	b.n	8002914 <stm32__i2c__master_receive+0x4d4>
 8002912:	2300      	movs	r3, #0
 8002914:	69ba      	ldr	r2, [r7, #24]
 8002916:	1a9b      	subs	r3, r3, r2
 8002918:	4619      	mov	r1, r3
 800291a:	687b      	ldr	r3, [r7, #4]
 800291c:	685a      	ldr	r2, [r3, #4]
 800291e:	687b      	ldr	r3, [r7, #4]
 8002920:	681b      	ldr	r3, [r3, #0]
 8002922:	429a      	cmp	r2, r3
 8002924:	db07      	blt.n	8002936 <stm32__i2c__master_receive+0x4f6>
 8002926:	687b      	ldr	r3, [r7, #4]
 8002928:	685b      	ldr	r3, [r3, #4]
 800292a:	461a      	mov	r2, r3
 800292c:	687b      	ldr	r3, [r7, #4]
 800292e:	681b      	ldr	r3, [r3, #0]
 8002930:	1ad3      	subs	r3, r2, r3
 8002932:	3301      	adds	r3, #1
 8002934:	e000      	b.n	8002938 <stm32__i2c__master_receive+0x4f8>
 8002936:	2300      	movs	r3, #0
 8002938:	4299      	cmp	r1, r3
 800293a:	dd04      	ble.n	8002946 <stm32__i2c__master_receive+0x506>
 800293c:	481d      	ldr	r0, [pc, #116]	; (80029b4 <stm32__i2c__master_receive+0x574>)
 800293e:	f240 2109 	movw	r1, #521	; 0x209
 8002942:	f006 fbaf 	bl	80090a4 <__gnat_rcheck_CE_Overflow_Check>
 8002946:	687b      	ldr	r3, [r7, #4]
 8002948:	685a      	ldr	r2, [r3, #4]
 800294a:	687b      	ldr	r3, [r7, #4]
 800294c:	681b      	ldr	r3, [r3, #0]
 800294e:	429a      	cmp	r2, r3
 8002950:	db08      	blt.n	8002964 <stm32__i2c__master_receive+0x524>
 8002952:	687b      	ldr	r3, [r7, #4]
 8002954:	685b      	ldr	r3, [r3, #4]
 8002956:	461a      	mov	r2, r3
 8002958:	687b      	ldr	r3, [r7, #4]
 800295a:	681b      	ldr	r3, [r3, #0]
 800295c:	1ad3      	subs	r3, r2, r3
 800295e:	3301      	adds	r3, #1
 8002960:	461a      	mov	r2, r3
 8002962:	e000      	b.n	8002966 <stm32__i2c__master_receive+0x526>
 8002964:	2200      	movs	r2, #0
 8002966:	69bb      	ldr	r3, [r7, #24]
 8002968:	1ad3      	subs	r3, r2, r3
 800296a:	2b00      	cmp	r3, #0
 800296c:	da04      	bge.n	8002978 <stm32__i2c__master_receive+0x538>
 800296e:	4811      	ldr	r0, [pc, #68]	; (80029b4 <stm32__i2c__master_receive+0x574>)
 8002970:	f240 2109 	movw	r1, #521	; 0x209
 8002974:	f006 fb9e 	bl	80090b4 <__gnat_rcheck_CE_Range_Check>
 8002978:	61fb      	str	r3, [r7, #28]
 800297a:	e621      	b.n	80025c0 <stm32__i2c__master_receive+0x180>
 800297c:	68f8      	ldr	r0, [r7, #12]
 800297e:	6b39      	ldr	r1, [r7, #48]	; 0x30
 8002980:	f7ff fb14 	bl	8001fac <stm32__i2c__wait_stop_flag>
 8002984:	4603      	mov	r3, r0
 8002986:	75fb      	strb	r3, [r7, #23]
 8002988:	7dfb      	ldrb	r3, [r7, #23]
 800298a:	2b00      	cmp	r3, #0
 800298c:	d108      	bne.n	80029a0 <stm32__i2c__master_receive+0x560>
 800298e:	68f8      	ldr	r0, [r7, #12]
 8002990:	f7ff f9c4 	bl	8001d1c <stm32__i2c__reset_config>
 8002994:	68fb      	ldr	r3, [r7, #12]
 8002996:	2201      	movs	r2, #1
 8002998:	751a      	strb	r2, [r3, #20]
 800299a:	2300      	movs	r3, #0
 800299c:	75fb      	strb	r3, [r7, #23]
 800299e:	e000      	b.n	80029a2 <stm32__i2c__master_receive+0x562>
 80029a0:	bf00      	nop
 80029a2:	7dfb      	ldrb	r3, [r7, #23]
 80029a4:	bf00      	nop
 80029a6:	4618      	mov	r0, r3
 80029a8:	3720      	adds	r7, #32
 80029aa:	46bd      	mov	sp, r7
 80029ac:	bdb0      	pop	{r4, r5, r7, pc}
 80029ae:	bf00      	nop
 80029b0:	7ffffffe 	.word	0x7ffffffe
 80029b4:	0800cb64 	.word	0x0800cb64

080029b8 <stm32__i2c__mem_write>:
 80029b8:	e92d 4ff0 	stmdb	sp!, {r4, r5, r6, r7, r8, r9, sl, fp, lr}
 80029bc:	b08d      	sub	sp, #52	; 0x34
 80029be:	af02      	add	r7, sp, #8
 80029c0:	60f8      	str	r0, [r7, #12]
 80029c2:	4608      	mov	r0, r1
 80029c4:	4611      	mov	r1, r2
 80029c6:	461a      	mov	r2, r3
 80029c8:	4603      	mov	r3, r0
 80029ca:	817b      	strh	r3, [r7, #10]
 80029cc:	460b      	mov	r3, r1
 80029ce:	813b      	strh	r3, [r7, #8]
 80029d0:	4613      	mov	r3, r2
 80029d2:	71fb      	strb	r3, [r7, #7]
 80029d4:	6d7b      	ldr	r3, [r7, #84]	; 0x54
 80029d6:	681c      	ldr	r4, [r3, #0]
 80029d8:	6d7b      	ldr	r3, [r7, #84]	; 0x54
 80029da:	685d      	ldr	r5, [r3, #4]
 80029dc:	42a5      	cmp	r5, r4
 80029de:	db0d      	blt.n	80029fc <stm32__i2c__mem_write+0x44>
 80029e0:	4628      	mov	r0, r5
 80029e2:	ea4f 71e0 	mov.w	r1, r0, asr #31
 80029e6:	4622      	mov	r2, r4
 80029e8:	ea4f 73e2 	mov.w	r3, r2, asr #31
 80029ec:	1a82      	subs	r2, r0, r2
 80029ee:	eb61 0303 	sbc.w	r3, r1, r3
 80029f2:	f112 0801 	adds.w	r8, r2, #1
 80029f6:	f143 0900 	adc.w	r9, r3, #0
 80029fa:	e003      	b.n	8002a04 <stm32__i2c__mem_write+0x4c>
 80029fc:	f04f 0800 	mov.w	r8, #0
 8002a00:	f04f 0900 	mov.w	r9, #0
 8002a04:	68f8      	ldr	r0, [r7, #12]
 8002a06:	f7ff f8ff 	bl	8001c08 <stm32__i2c__is_configured>
 8002a0a:	4603      	mov	r3, r0
 8002a0c:	f083 0301 	eor.w	r3, r3, #1
 8002a10:	b2db      	uxtb	r3, r3
 8002a12:	2b00      	cmp	r3, #0
 8002a14:	d007      	beq.n	8002a26 <stm32__i2c__mem_write+0x6e>
 8002a16:	f8df a37c 	ldr.w	sl, [pc, #892]	; 8002d94 <stm32__i2c__mem_write+0x3dc>
 8002a1a:	f8df b37c 	ldr.w	fp, [pc, #892]	; 8002d98 <stm32__i2c__mem_write+0x3e0>
 8002a1e:	4650      	mov	r0, sl
 8002a20:	4659      	mov	r1, fp
 8002a22:	f005 fd6f 	bl	8008504 <system__assertions__raise_assert_failure>
 8002a26:	4626      	mov	r6, r4
 8002a28:	2300      	movs	r3, #0
 8002a2a:	627b      	str	r3, [r7, #36]	; 0x24
 8002a2c:	2300      	movs	r3, #0
 8002a2e:	623b      	str	r3, [r7, #32]
 8002a30:	f003 fb8c 	bl	800614c <ada__real_time__clock>
 8002a34:	4602      	mov	r2, r0
 8002a36:	460b      	mov	r3, r1
 8002a38:	e9c7 2306 	strd	r2, r3, [r7, #24]
 8002a3c:	68fb      	ldr	r3, [r7, #12]
 8002a3e:	685b      	ldr	r3, [r3, #4]
 8002a40:	3318      	adds	r3, #24
 8002a42:	681b      	ldr	r3, [r3, #0]
 8002a44:	f3c3 33c0 	ubfx	r3, r3, #15, #1
 8002a48:	b2db      	uxtb	r3, r3
 8002a4a:	2b00      	cmp	r3, #0
 8002a4c:	d018      	beq.n	8002a80 <stm32__i2c__mem_write+0xc8>
 8002a4e:	f003 fb7d 	bl	800614c <ada__real_time__clock>
 8002a52:	4602      	mov	r2, r0
 8002a54:	460b      	mov	r3, r1
 8002a56:	4610      	mov	r0, r2
 8002a58:	4619      	mov	r1, r3
 8002a5a:	e9d7 2306 	ldrd	r2, r3, [r7, #24]
 8002a5e:	f003 fb53 	bl	8006108 <ada__real_time__Osubtract__2>
 8002a62:	4682      	mov	sl, r0
 8002a64:	468b      	mov	fp, r1
 8002a66:	6dbb      	ldr	r3, [r7, #88]	; 0x58
 8002a68:	4618      	mov	r0, r3
 8002a6a:	f003 fbb7 	bl	80061dc <ada__real_time__milliseconds>
 8002a6e:	4602      	mov	r2, r0
 8002a70:	460b      	mov	r3, r1
 8002a72:	4552      	cmp	r2, sl
 8002a74:	eb73 030b 	sbcs.w	r3, r3, fp
 8002a78:	dae0      	bge.n	8002a3c <stm32__i2c__mem_write+0x84>
 8002a7a:	2303      	movs	r3, #3
 8002a7c:	757b      	strb	r3, [r7, #21]
 8002a7e:	e22c      	b.n	8002eda <stm32__i2c__mem_write+0x522>
 8002a80:	42ac      	cmp	r4, r5
 8002a82:	dd02      	ble.n	8002a8a <stm32__i2c__mem_write+0xd2>
 8002a84:	2301      	movs	r3, #1
 8002a86:	757b      	strb	r3, [r7, #21]
 8002a88:	e227      	b.n	8002eda <stm32__i2c__mem_write+0x522>
 8002a8a:	68fb      	ldr	r3, [r7, #12]
 8002a8c:	7d1b      	ldrb	r3, [r3, #20]
 8002a8e:	2b01      	cmp	r3, #1
 8002a90:	d002      	beq.n	8002a98 <stm32__i2c__mem_write+0xe0>
 8002a92:	2303      	movs	r3, #3
 8002a94:	757b      	strb	r3, [r7, #21]
 8002a96:	e220      	b.n	8002eda <stm32__i2c__mem_write+0x522>
 8002a98:	68fb      	ldr	r3, [r7, #12]
 8002a9a:	2204      	movs	r2, #4
 8002a9c:	751a      	strb	r2, [r3, #20]
 8002a9e:	79fb      	ldrb	r3, [r7, #7]
 8002aa0:	2b01      	cmp	r3, #1
 8002aa2:	d904      	bls.n	8002aae <stm32__i2c__mem_write+0xf6>
 8002aa4:	48b9      	ldr	r0, [pc, #740]	; (8002d8c <stm32__i2c__mem_write+0x3d4>)
 8002aa6:	f44f 7111 	mov.w	r1, #580	; 0x244
 8002aaa:	f006 faf3 	bl	8009094 <__gnat_rcheck_CE_Invalid_Data>
 8002aae:	79fb      	ldrb	r3, [r7, #7]
 8002ab0:	2b00      	cmp	r3, #0
 8002ab2:	d101      	bne.n	8002ab8 <stm32__i2c__mem_write+0x100>
 8002ab4:	2201      	movs	r2, #1
 8002ab6:	e000      	b.n	8002aba <stm32__i2c__mem_write+0x102>
 8002ab8:	2202      	movs	r2, #2
 8002aba:	8979      	ldrh	r1, [r7, #10]
 8002abc:	2303      	movs	r3, #3
 8002abe:	9300      	str	r3, [sp, #0]
 8002ac0:	68f8      	ldr	r0, [r7, #12]
 8002ac2:	2300      	movs	r3, #0
 8002ac4:	f7ff f8b2 	bl	8001c2c <stm32__i2c__config_transfer>
 8002ac8:	68f8      	ldr	r0, [r7, #12]
 8002aca:	6db9      	ldr	r1, [r7, #88]	; 0x58
 8002acc:	f7ff f9dc 	bl	8001e88 <stm32__i2c__wait_tx_interrupt_status>
 8002ad0:	4603      	mov	r3, r0
 8002ad2:	757b      	strb	r3, [r7, #21]
 8002ad4:	7d7b      	ldrb	r3, [r7, #21]
 8002ad6:	2b00      	cmp	r3, #0
 8002ad8:	d003      	beq.n	8002ae2 <stm32__i2c__mem_write+0x12a>
 8002ada:	68fb      	ldr	r3, [r7, #12]
 8002adc:	2201      	movs	r2, #1
 8002ade:	751a      	strb	r2, [r3, #20]
 8002ae0:	e1fb      	b.n	8002eda <stm32__i2c__mem_write+0x522>
 8002ae2:	79fb      	ldrb	r3, [r7, #7]
 8002ae4:	2b01      	cmp	r3, #1
 8002ae6:	d904      	bls.n	8002af2 <stm32__i2c__mem_write+0x13a>
 8002ae8:	48a8      	ldr	r0, [pc, #672]	; (8002d8c <stm32__i2c__mem_write+0x3d4>)
 8002aea:	f240 2152 	movw	r1, #594	; 0x252
 8002aee:	f006 fad1 	bl	8009094 <__gnat_rcheck_CE_Invalid_Data>
 8002af2:	79fb      	ldrb	r3, [r7, #7]
 8002af4:	2b00      	cmp	r3, #0
 8002af6:	d114      	bne.n	8002b22 <stm32__i2c__mem_write+0x16a>
 8002af8:	893b      	ldrh	r3, [r7, #8]
 8002afa:	2bff      	cmp	r3, #255	; 0xff
 8002afc:	d904      	bls.n	8002b08 <stm32__i2c__mem_write+0x150>
 8002afe:	48a3      	ldr	r0, [pc, #652]	; (8002d8c <stm32__i2c__mem_write+0x3d4>)
 8002b00:	f44f 7115 	mov.w	r1, #596	; 0x254
 8002b04:	f006 fad6 	bl	80090b4 <__gnat_rcheck_CE_Range_Check>
 8002b08:	68fb      	ldr	r3, [r7, #12]
 8002b0a:	685b      	ldr	r3, [r3, #4]
 8002b0c:	3328      	adds	r3, #40	; 0x28
 8002b0e:	681b      	ldr	r3, [r3, #0]
 8002b10:	893a      	ldrh	r2, [r7, #8]
 8002b12:	b2d2      	uxtb	r2, r2
 8002b14:	f362 0307 	bfi	r3, r2, #0, #8
 8002b18:	68fa      	ldr	r2, [r7, #12]
 8002b1a:	6852      	ldr	r2, [r2, #4]
 8002b1c:	3228      	adds	r2, #40	; 0x28
 8002b1e:	6013      	str	r3, [r2, #0]
 8002b20:	e039      	b.n	8002b96 <stm32__i2c__mem_write+0x1de>
 8002b22:	893b      	ldrh	r3, [r7, #8]
 8002b24:	0a1b      	lsrs	r3, r3, #8
 8002b26:	b29b      	uxth	r3, r3
 8002b28:	2bff      	cmp	r3, #255	; 0xff
 8002b2a:	d904      	bls.n	8002b36 <stm32__i2c__mem_write+0x17e>
 8002b2c:	4897      	ldr	r0, [pc, #604]	; (8002d8c <stm32__i2c__mem_write+0x3d4>)
 8002b2e:	f44f 7116 	mov.w	r1, #600	; 0x258
 8002b32:	f006 fabf 	bl	80090b4 <__gnat_rcheck_CE_Range_Check>
 8002b36:	893b      	ldrh	r3, [r7, #8]
 8002b38:	0a1b      	lsrs	r3, r3, #8
 8002b3a:	b29b      	uxth	r3, r3
 8002b3c:	75fb      	strb	r3, [r7, #23]
 8002b3e:	893b      	ldrh	r3, [r7, #8]
 8002b40:	b2db      	uxtb	r3, r3
 8002b42:	b29b      	uxth	r3, r3
 8002b44:	2bff      	cmp	r3, #255	; 0xff
 8002b46:	d904      	bls.n	8002b52 <stm32__i2c__mem_write+0x19a>
 8002b48:	4890      	ldr	r0, [pc, #576]	; (8002d8c <stm32__i2c__mem_write+0x3d4>)
 8002b4a:	f240 2159 	movw	r1, #601	; 0x259
 8002b4e:	f006 fab1 	bl	80090b4 <__gnat_rcheck_CE_Range_Check>
 8002b52:	893b      	ldrh	r3, [r7, #8]
 8002b54:	75bb      	strb	r3, [r7, #22]
 8002b56:	68fb      	ldr	r3, [r7, #12]
 8002b58:	685b      	ldr	r3, [r3, #4]
 8002b5a:	3328      	adds	r3, #40	; 0x28
 8002b5c:	681b      	ldr	r3, [r3, #0]
 8002b5e:	7dfa      	ldrb	r2, [r7, #23]
 8002b60:	f362 0307 	bfi	r3, r2, #0, #8
 8002b64:	68fa      	ldr	r2, [r7, #12]
 8002b66:	6852      	ldr	r2, [r2, #4]
 8002b68:	3228      	adds	r2, #40	; 0x28
 8002b6a:	6013      	str	r3, [r2, #0]
 8002b6c:	68f8      	ldr	r0, [r7, #12]
 8002b6e:	6db9      	ldr	r1, [r7, #88]	; 0x58
 8002b70:	f7ff f98a 	bl	8001e88 <stm32__i2c__wait_tx_interrupt_status>
 8002b74:	4603      	mov	r3, r0
 8002b76:	757b      	strb	r3, [r7, #21]
 8002b78:	7d7b      	ldrb	r3, [r7, #21]
 8002b7a:	2b00      	cmp	r3, #0
 8002b7c:	f040 81a4 	bne.w	8002ec8 <stm32__i2c__mem_write+0x510>
 8002b80:	68fb      	ldr	r3, [r7, #12]
 8002b82:	685b      	ldr	r3, [r3, #4]
 8002b84:	3328      	adds	r3, #40	; 0x28
 8002b86:	681b      	ldr	r3, [r3, #0]
 8002b88:	7dba      	ldrb	r2, [r7, #22]
 8002b8a:	f362 0307 	bfi	r3, r2, #0, #8
 8002b8e:	68fa      	ldr	r2, [r7, #12]
 8002b90:	6852      	ldr	r2, [r2, #4]
 8002b92:	3228      	adds	r2, #40	; 0x28
 8002b94:	6013      	str	r3, [r2, #0]
 8002b96:	68f8      	ldr	r0, [r7, #12]
 8002b98:	6db9      	ldr	r1, [r7, #88]	; 0x58
 8002b9a:	f7ff f9c5 	bl	8001f28 <stm32__i2c__wait_transfer_complete_reset_flag>
 8002b9e:	4603      	mov	r3, r0
 8002ba0:	757b      	strb	r3, [r7, #21]
 8002ba2:	7d7b      	ldrb	r3, [r7, #21]
 8002ba4:	2b00      	cmp	r3, #0
 8002ba6:	f040 8191 	bne.w	8002ecc <stm32__i2c__mem_write+0x514>
 8002baa:	4622      	mov	r2, r4
 8002bac:	ea4f 73e2 	mov.w	r3, r2, asr #31
 8002bb0:	f06f 00fe 	mvn.w	r0, #254	; 0xfe
 8002bb4:	f06f 4100 	mvn.w	r1, #2147483648	; 0x80000000
 8002bb8:	4290      	cmp	r0, r2
 8002bba:	eb71 0303 	sbcs.w	r3, r1, r3
 8002bbe:	da04      	bge.n	8002bca <stm32__i2c__mem_write+0x212>
 8002bc0:	4872      	ldr	r0, [pc, #456]	; (8002d8c <stm32__i2c__mem_write+0x3d4>)
 8002bc2:	f240 216d 	movw	r1, #621	; 0x26d
 8002bc6:	f006 fa6d 	bl	80090a4 <__gnat_rcheck_CE_Overflow_Check>
 8002bca:	4622      	mov	r2, r4
 8002bcc:	ea4f 73e2 	mov.w	r3, r2, asr #31
 8002bd0:	f112 00fe 	adds.w	r0, r2, #254	; 0xfe
 8002bd4:	f143 0100 	adc.w	r1, r3, #0
 8002bd8:	462a      	mov	r2, r5
 8002bda:	ea4f 73e2 	mov.w	r3, r2, asr #31
 8002bde:	4290      	cmp	r0, r2
 8002be0:	eb71 0303 	sbcs.w	r3, r1, r3
 8002be4:	da0b      	bge.n	8002bfe <stm32__i2c__mem_write+0x246>
 8002be6:	897a      	ldrh	r2, [r7, #10]
 8002be8:	2300      	movs	r3, #0
 8002bea:	9300      	str	r3, [sp, #0]
 8002bec:	68f8      	ldr	r0, [r7, #12]
 8002bee:	4611      	mov	r1, r2
 8002bf0:	22ff      	movs	r2, #255	; 0xff
 8002bf2:	2300      	movs	r3, #0
 8002bf4:	f7ff f81a 	bl	8001c2c <stm32__i2c__config_transfer>
 8002bf8:	23ff      	movs	r3, #255	; 0xff
 8002bfa:	627b      	str	r3, [r7, #36]	; 0x24
 8002bfc:	e032      	b.n	8002c64 <stm32__i2c__mem_write+0x2ac>
 8002bfe:	4622      	mov	r2, r4
 8002c00:	ea4f 73e2 	mov.w	r3, r2, asr #31
 8002c04:	f112 00fe 	adds.w	r0, r2, #254	; 0xfe
 8002c08:	f143 0100 	adc.w	r1, r3, #0
 8002c0c:	462a      	mov	r2, r5
 8002c0e:	ea4f 73e2 	mov.w	r3, r2, asr #31
 8002c12:	4290      	cmp	r0, r2
 8002c14:	eb71 0303 	sbcs.w	r3, r1, r3
 8002c18:	da04      	bge.n	8002c24 <stm32__i2c__mem_write+0x26c>
 8002c1a:	485c      	ldr	r0, [pc, #368]	; (8002d8c <stm32__i2c__mem_write+0x3d4>)
 8002c1c:	f240 2173 	movw	r1, #627	; 0x273
 8002c20:	f006 fa48 	bl	80090b4 <__gnat_rcheck_CE_Range_Check>
 8002c24:	fa5f f288 	uxtb.w	r2, r8
 8002c28:	8979      	ldrh	r1, [r7, #10]
 8002c2a:	2300      	movs	r3, #0
 8002c2c:	9300      	str	r3, [sp, #0]
 8002c2e:	68f8      	ldr	r0, [r7, #12]
 8002c30:	2301      	movs	r3, #1
 8002c32:	f7fe fffb 	bl	8001c2c <stm32__i2c__config_transfer>
 8002c36:	4622      	mov	r2, r4
 8002c38:	ea4f 73e2 	mov.w	r3, r2, asr #31
 8002c3c:	4854      	ldr	r0, [pc, #336]	; (8002d90 <stm32__i2c__mem_write+0x3d8>)
 8002c3e:	f04f 0100 	mov.w	r1, #0
 8002c42:	1880      	adds	r0, r0, r2
 8002c44:	eb41 0103 	adc.w	r1, r1, r3
 8002c48:	462a      	mov	r2, r5
 8002c4a:	ea4f 73e2 	mov.w	r3, r2, asr #31
 8002c4e:	4290      	cmp	r0, r2
 8002c50:	eb71 0303 	sbcs.w	r3, r1, r3
 8002c54:	da04      	bge.n	8002c60 <stm32__i2c__mem_write+0x2a8>
 8002c56:	484d      	ldr	r0, [pc, #308]	; (8002d8c <stm32__i2c__mem_write+0x3d4>)
 8002c58:	f44f 711d 	mov.w	r1, #628	; 0x274
 8002c5c:	f006 fa2a 	bl	80090b4 <__gnat_rcheck_CE_Range_Check>
 8002c60:	4643      	mov	r3, r8
 8002c62:	627b      	str	r3, [r7, #36]	; 0x24
 8002c64:	4622      	mov	r2, r4
 8002c66:	ea4f 73e2 	mov.w	r3, r2, asr #31
 8002c6a:	4849      	ldr	r0, [pc, #292]	; (8002d90 <stm32__i2c__mem_write+0x3d8>)
 8002c6c:	f04f 0100 	mov.w	r1, #0
 8002c70:	1880      	adds	r0, r0, r2
 8002c72:	eb41 0103 	adc.w	r1, r1, r3
 8002c76:	462a      	mov	r2, r5
 8002c78:	ea4f 73e2 	mov.w	r3, r2, asr #31
 8002c7c:	4290      	cmp	r0, r2
 8002c7e:	eb71 0303 	sbcs.w	r3, r1, r3
 8002c82:	da04      	bge.n	8002c8e <stm32__i2c__mem_write+0x2d6>
 8002c84:	4841      	ldr	r0, [pc, #260]	; (8002d8c <stm32__i2c__mem_write+0x3d4>)
 8002c86:	f44f 711e 	mov.w	r1, #632	; 0x278
 8002c8a:	f006 fa13 	bl	80090b4 <__gnat_rcheck_CE_Range_Check>
 8002c8e:	6a3b      	ldr	r3, [r7, #32]
 8002c90:	4642      	mov	r2, r8
 8002c92:	4293      	cmp	r3, r2
 8002c94:	f280 8106 	bge.w	8002ea4 <stm32__i2c__mem_write+0x4ec>
 8002c98:	68f8      	ldr	r0, [r7, #12]
 8002c9a:	6db9      	ldr	r1, [r7, #88]	; 0x58
 8002c9c:	f7ff f8f4 	bl	8001e88 <stm32__i2c__wait_tx_interrupt_status>
 8002ca0:	4603      	mov	r3, r0
 8002ca2:	757b      	strb	r3, [r7, #21]
 8002ca4:	7d7b      	ldrb	r3, [r7, #21]
 8002ca6:	2b00      	cmp	r3, #0
 8002ca8:	f040 8112 	bne.w	8002ed0 <stm32__i2c__mem_write+0x518>
 8002cac:	4622      	mov	r2, r4
 8002cae:	6a3b      	ldr	r3, [r7, #32]
 8002cb0:	4413      	add	r3, r2
 8002cb2:	42a3      	cmp	r3, r4
 8002cb4:	da04      	bge.n	8002cc0 <stm32__i2c__mem_write+0x308>
 8002cb6:	4835      	ldr	r0, [pc, #212]	; (8002d8c <stm32__i2c__mem_write+0x3d4>)
 8002cb8:	f240 217f 	movw	r1, #639	; 0x27f
 8002cbc:	f006 f9f2 	bl	80090a4 <__gnat_rcheck_CE_Overflow_Check>
 8002cc0:	6a3b      	ldr	r3, [r7, #32]
 8002cc2:	4423      	add	r3, r4
 8002cc4:	429c      	cmp	r4, r3
 8002cc6:	dc01      	bgt.n	8002ccc <stm32__i2c__mem_write+0x314>
 8002cc8:	429d      	cmp	r5, r3
 8002cca:	da04      	bge.n	8002cd6 <stm32__i2c__mem_write+0x31e>
 8002ccc:	482f      	ldr	r0, [pc, #188]	; (8002d8c <stm32__i2c__mem_write+0x3d4>)
 8002cce:	f240 217f 	movw	r1, #639	; 0x27f
 8002cd2:	f006 f9d7 	bl	8009084 <__gnat_rcheck_CE_Index_Check>
 8002cd6:	68fa      	ldr	r2, [r7, #12]
 8002cd8:	6852      	ldr	r2, [r2, #4]
 8002cda:	3228      	adds	r2, #40	; 0x28
 8002cdc:	6812      	ldr	r2, [r2, #0]
 8002cde:	6d39      	ldr	r1, [r7, #80]	; 0x50
 8002ce0:	1b9b      	subs	r3, r3, r6
 8002ce2:	5ccb      	ldrb	r3, [r1, r3]
 8002ce4:	f363 0207 	bfi	r2, r3, #0, #8
 8002ce8:	68fb      	ldr	r3, [r7, #12]
 8002cea:	685b      	ldr	r3, [r3, #4]
 8002cec:	3328      	adds	r3, #40	; 0x28
 8002cee:	601a      	str	r2, [r3, #0]
 8002cf0:	6a3b      	ldr	r3, [r7, #32]
 8002cf2:	f06f 4200 	mvn.w	r2, #2147483648	; 0x80000000
 8002cf6:	4293      	cmp	r3, r2
 8002cf8:	d104      	bne.n	8002d04 <stm32__i2c__mem_write+0x34c>
 8002cfa:	4824      	ldr	r0, [pc, #144]	; (8002d8c <stm32__i2c__mem_write+0x3d4>)
 8002cfc:	f44f 7120 	mov.w	r1, #640	; 0x280
 8002d00:	f006 f9d0 	bl	80090a4 <__gnat_rcheck_CE_Overflow_Check>
 8002d04:	6a3b      	ldr	r3, [r7, #32]
 8002d06:	3301      	adds	r3, #1
 8002d08:	623b      	str	r3, [r7, #32]
 8002d0a:	6a3a      	ldr	r2, [r7, #32]
 8002d0c:	6a7b      	ldr	r3, [r7, #36]	; 0x24
 8002d0e:	429a      	cmp	r2, r3
 8002d10:	d1a8      	bne.n	8002c64 <stm32__i2c__mem_write+0x2ac>
 8002d12:	4622      	mov	r2, r4
 8002d14:	ea4f 73e2 	mov.w	r3, r2, asr #31
 8002d18:	481d      	ldr	r0, [pc, #116]	; (8002d90 <stm32__i2c__mem_write+0x3d8>)
 8002d1a:	f04f 0100 	mov.w	r1, #0
 8002d1e:	1880      	adds	r0, r0, r2
 8002d20:	eb41 0103 	adc.w	r1, r1, r3
 8002d24:	462a      	mov	r2, r5
 8002d26:	ea4f 73e2 	mov.w	r3, r2, asr #31
 8002d2a:	4290      	cmp	r0, r2
 8002d2c:	eb71 0303 	sbcs.w	r3, r1, r3
 8002d30:	da04      	bge.n	8002d3c <stm32__i2c__mem_write+0x384>
 8002d32:	4816      	ldr	r0, [pc, #88]	; (8002d8c <stm32__i2c__mem_write+0x3d4>)
 8002d34:	f240 2183 	movw	r1, #643	; 0x283
 8002d38:	f006 f9bc 	bl	80090b4 <__gnat_rcheck_CE_Range_Check>
 8002d3c:	6a3b      	ldr	r3, [r7, #32]
 8002d3e:	4642      	mov	r2, r8
 8002d40:	4293      	cmp	r3, r2
 8002d42:	bfb4      	ite	lt
 8002d44:	2301      	movlt	r3, #1
 8002d46:	2300      	movge	r3, #0
 8002d48:	b2db      	uxtb	r3, r3
 8002d4a:	2b00      	cmp	r3, #0
 8002d4c:	d08a      	beq.n	8002c64 <stm32__i2c__mem_write+0x2ac>
 8002d4e:	68f8      	ldr	r0, [r7, #12]
 8002d50:	6db9      	ldr	r1, [r7, #88]	; 0x58
 8002d52:	f7ff f8e9 	bl	8001f28 <stm32__i2c__wait_transfer_complete_reset_flag>
 8002d56:	4603      	mov	r3, r0
 8002d58:	757b      	strb	r3, [r7, #21]
 8002d5a:	7d7b      	ldrb	r3, [r7, #21]
 8002d5c:	2b00      	cmp	r3, #0
 8002d5e:	f040 80b9 	bne.w	8002ed4 <stm32__i2c__mem_write+0x51c>
 8002d62:	4622      	mov	r2, r4
 8002d64:	ea4f 73e2 	mov.w	r3, r2, asr #31
 8002d68:	4809      	ldr	r0, [pc, #36]	; (8002d90 <stm32__i2c__mem_write+0x3d8>)
 8002d6a:	f04f 0100 	mov.w	r1, #0
 8002d6e:	1880      	adds	r0, r0, r2
 8002d70:	eb41 0103 	adc.w	r1, r1, r3
 8002d74:	462a      	mov	r2, r5
 8002d76:	ea4f 73e2 	mov.w	r3, r2, asr #31
 8002d7a:	4290      	cmp	r0, r2
 8002d7c:	eb71 0303 	sbcs.w	r3, r1, r3
 8002d80:	da0c      	bge.n	8002d9c <stm32__i2c__mem_write+0x3e4>
 8002d82:	4802      	ldr	r0, [pc, #8]	; (8002d8c <stm32__i2c__mem_write+0x3d4>)
 8002d84:	f44f 7123 	mov.w	r1, #652	; 0x28c
 8002d88:	f006 f994 	bl	80090b4 <__gnat_rcheck_CE_Range_Check>
 8002d8c:	0800cb64 	.word	0x0800cb64
 8002d90:	7ffffffe 	.word	0x7ffffffe
 8002d94:	0800cbcc 	.word	0x0800cbcc
 8002d98:	0800cb28 	.word	0x0800cb28
 8002d9c:	4642      	mov	r2, r8
 8002d9e:	6a3b      	ldr	r3, [r7, #32]
 8002da0:	1ad3      	subs	r3, r2, r3
 8002da2:	461a      	mov	r2, r3
 8002da4:	4643      	mov	r3, r8
 8002da6:	429a      	cmp	r2, r3
 8002da8:	dd04      	ble.n	8002db4 <stm32__i2c__mem_write+0x3fc>
 8002daa:	484f      	ldr	r0, [pc, #316]	; (8002ee8 <stm32__i2c__mem_write+0x530>)
 8002dac:	f44f 7123 	mov.w	r1, #652	; 0x28c
 8002db0:	f006 f978 	bl	80090a4 <__gnat_rcheck_CE_Overflow_Check>
 8002db4:	4642      	mov	r2, r8
 8002db6:	6a3b      	ldr	r3, [r7, #32]
 8002db8:	1ad3      	subs	r3, r2, r3
 8002dba:	2bff      	cmp	r3, #255	; 0xff
 8002dbc:	bfcc      	ite	gt
 8002dbe:	2301      	movgt	r3, #1
 8002dc0:	2300      	movle	r3, #0
 8002dc2:	b2db      	uxtb	r3, r3
 8002dc4:	2b00      	cmp	r3, #0
 8002dc6:	d00b      	beq.n	8002de0 <stm32__i2c__mem_write+0x428>
 8002dc8:	897a      	ldrh	r2, [r7, #10]
 8002dca:	2300      	movs	r3, #0
 8002dcc:	9300      	str	r3, [sp, #0]
 8002dce:	68f8      	ldr	r0, [r7, #12]
 8002dd0:	4611      	mov	r1, r2
 8002dd2:	22ff      	movs	r2, #255	; 0xff
 8002dd4:	2300      	movs	r3, #0
 8002dd6:	f7fe ff29 	bl	8001c2c <stm32__i2c__config_transfer>
 8002dda:	23ff      	movs	r3, #255	; 0xff
 8002ddc:	627b      	str	r3, [r7, #36]	; 0x24
 8002dde:	e741      	b.n	8002c64 <stm32__i2c__mem_write+0x2ac>
 8002de0:	4622      	mov	r2, r4
 8002de2:	ea4f 73e2 	mov.w	r3, r2, asr #31
 8002de6:	4841      	ldr	r0, [pc, #260]	; (8002eec <stm32__i2c__mem_write+0x534>)
 8002de8:	f04f 0100 	mov.w	r1, #0
 8002dec:	1880      	adds	r0, r0, r2
 8002dee:	eb41 0103 	adc.w	r1, r1, r3
 8002df2:	462a      	mov	r2, r5
 8002df4:	ea4f 73e2 	mov.w	r3, r2, asr #31
 8002df8:	4290      	cmp	r0, r2
 8002dfa:	eb71 0303 	sbcs.w	r3, r1, r3
 8002dfe:	da04      	bge.n	8002e0a <stm32__i2c__mem_write+0x452>
 8002e00:	4839      	ldr	r0, [pc, #228]	; (8002ee8 <stm32__i2c__mem_write+0x530>)
 8002e02:	f240 2193 	movw	r1, #659	; 0x293
 8002e06:	f006 f955 	bl	80090b4 <__gnat_rcheck_CE_Range_Check>
 8002e0a:	4642      	mov	r2, r8
 8002e0c:	6a3b      	ldr	r3, [r7, #32]
 8002e0e:	1ad3      	subs	r3, r2, r3
 8002e10:	461a      	mov	r2, r3
 8002e12:	4643      	mov	r3, r8
 8002e14:	429a      	cmp	r2, r3
 8002e16:	dd04      	ble.n	8002e22 <stm32__i2c__mem_write+0x46a>
 8002e18:	4833      	ldr	r0, [pc, #204]	; (8002ee8 <stm32__i2c__mem_write+0x530>)
 8002e1a:	f240 2193 	movw	r1, #659	; 0x293
 8002e1e:	f006 f941 	bl	80090a4 <__gnat_rcheck_CE_Overflow_Check>
 8002e22:	4642      	mov	r2, r8
 8002e24:	6a3b      	ldr	r3, [r7, #32]
 8002e26:	1ad3      	subs	r3, r2, r3
 8002e28:	2b00      	cmp	r3, #0
 8002e2a:	db01      	blt.n	8002e30 <stm32__i2c__mem_write+0x478>
 8002e2c:	2bff      	cmp	r3, #255	; 0xff
 8002e2e:	dd04      	ble.n	8002e3a <stm32__i2c__mem_write+0x482>
 8002e30:	482d      	ldr	r0, [pc, #180]	; (8002ee8 <stm32__i2c__mem_write+0x530>)
 8002e32:	f240 2193 	movw	r1, #659	; 0x293
 8002e36:	f006 f93d 	bl	80090b4 <__gnat_rcheck_CE_Range_Check>
 8002e3a:	b2da      	uxtb	r2, r3
 8002e3c:	8979      	ldrh	r1, [r7, #10]
 8002e3e:	2300      	movs	r3, #0
 8002e40:	9300      	str	r3, [sp, #0]
 8002e42:	68f8      	ldr	r0, [r7, #12]
 8002e44:	2301      	movs	r3, #1
 8002e46:	f7fe fef1 	bl	8001c2c <stm32__i2c__config_transfer>
 8002e4a:	4622      	mov	r2, r4
 8002e4c:	ea4f 73e2 	mov.w	r3, r2, asr #31
 8002e50:	4826      	ldr	r0, [pc, #152]	; (8002eec <stm32__i2c__mem_write+0x534>)
 8002e52:	f04f 0100 	mov.w	r1, #0
 8002e56:	1880      	adds	r0, r0, r2
 8002e58:	eb41 0103 	adc.w	r1, r1, r3
 8002e5c:	462a      	mov	r2, r5
 8002e5e:	ea4f 73e2 	mov.w	r3, r2, asr #31
 8002e62:	4290      	cmp	r0, r2
 8002e64:	eb71 0303 	sbcs.w	r3, r1, r3
 8002e68:	da04      	bge.n	8002e74 <stm32__i2c__mem_write+0x4bc>
 8002e6a:	481f      	ldr	r0, [pc, #124]	; (8002ee8 <stm32__i2c__mem_write+0x530>)
 8002e6c:	f240 2196 	movw	r1, #662	; 0x296
 8002e70:	f006 f920 	bl	80090b4 <__gnat_rcheck_CE_Range_Check>
 8002e74:	4642      	mov	r2, r8
 8002e76:	6a3b      	ldr	r3, [r7, #32]
 8002e78:	1ad3      	subs	r3, r2, r3
 8002e7a:	461a      	mov	r2, r3
 8002e7c:	4643      	mov	r3, r8
 8002e7e:	429a      	cmp	r2, r3
 8002e80:	dd04      	ble.n	8002e8c <stm32__i2c__mem_write+0x4d4>
 8002e82:	4819      	ldr	r0, [pc, #100]	; (8002ee8 <stm32__i2c__mem_write+0x530>)
 8002e84:	f240 2196 	movw	r1, #662	; 0x296
 8002e88:	f006 f90c 	bl	80090a4 <__gnat_rcheck_CE_Overflow_Check>
 8002e8c:	4642      	mov	r2, r8
 8002e8e:	6a3b      	ldr	r3, [r7, #32]
 8002e90:	1ad3      	subs	r3, r2, r3
 8002e92:	2b00      	cmp	r3, #0
 8002e94:	da04      	bge.n	8002ea0 <stm32__i2c__mem_write+0x4e8>
 8002e96:	4814      	ldr	r0, [pc, #80]	; (8002ee8 <stm32__i2c__mem_write+0x530>)
 8002e98:	f240 2196 	movw	r1, #662	; 0x296
 8002e9c:	f006 f90a 	bl	80090b4 <__gnat_rcheck_CE_Range_Check>
 8002ea0:	627b      	str	r3, [r7, #36]	; 0x24
 8002ea2:	e6df      	b.n	8002c64 <stm32__i2c__mem_write+0x2ac>
 8002ea4:	68f8      	ldr	r0, [r7, #12]
 8002ea6:	6db9      	ldr	r1, [r7, #88]	; 0x58
 8002ea8:	f7ff f880 	bl	8001fac <stm32__i2c__wait_stop_flag>
 8002eac:	4603      	mov	r3, r0
 8002eae:	757b      	strb	r3, [r7, #21]
 8002eb0:	7d7b      	ldrb	r3, [r7, #21]
 8002eb2:	2b00      	cmp	r3, #0
 8002eb4:	d110      	bne.n	8002ed8 <stm32__i2c__mem_write+0x520>
 8002eb6:	68f8      	ldr	r0, [r7, #12]
 8002eb8:	f7fe ff30 	bl	8001d1c <stm32__i2c__reset_config>
 8002ebc:	68fb      	ldr	r3, [r7, #12]
 8002ebe:	2201      	movs	r2, #1
 8002ec0:	751a      	strb	r2, [r3, #20]
 8002ec2:	2300      	movs	r3, #0
 8002ec4:	757b      	strb	r3, [r7, #21]
 8002ec6:	e008      	b.n	8002eda <stm32__i2c__mem_write+0x522>
 8002ec8:	bf00      	nop
 8002eca:	e006      	b.n	8002eda <stm32__i2c__mem_write+0x522>
 8002ecc:	bf00      	nop
 8002ece:	e004      	b.n	8002eda <stm32__i2c__mem_write+0x522>
 8002ed0:	bf00      	nop
 8002ed2:	e002      	b.n	8002eda <stm32__i2c__mem_write+0x522>
 8002ed4:	bf00      	nop
 8002ed6:	e000      	b.n	8002eda <stm32__i2c__mem_write+0x522>
 8002ed8:	bf00      	nop
 8002eda:	7d7b      	ldrb	r3, [r7, #21]
 8002edc:	bf00      	nop
 8002ede:	4618      	mov	r0, r3
 8002ee0:	372c      	adds	r7, #44	; 0x2c
 8002ee2:	46bd      	mov	sp, r7
 8002ee4:	e8bd 8ff0 	ldmia.w	sp!, {r4, r5, r6, r7, r8, r9, sl, fp, pc}
 8002ee8:	0800cb64 	.word	0x0800cb64
 8002eec:	7ffffffe 	.word	0x7ffffffe

08002ef0 <stm32__i2c__mem_read>:
 8002ef0:	b5f0      	push	{r4, r5, r6, r7, lr}
 8002ef2:	b08d      	sub	sp, #52	; 0x34
 8002ef4:	af02      	add	r7, sp, #8
 8002ef6:	60f8      	str	r0, [r7, #12]
 8002ef8:	4608      	mov	r0, r1
 8002efa:	4611      	mov	r1, r2
 8002efc:	461a      	mov	r2, r3
 8002efe:	4603      	mov	r3, r0
 8002f00:	817b      	strh	r3, [r7, #10]
 8002f02:	460b      	mov	r3, r1
 8002f04:	813b      	strh	r3, [r7, #8]
 8002f06:	4613      	mov	r3, r2
 8002f08:	71fb      	strb	r3, [r7, #7]
 8002f0a:	68f8      	ldr	r0, [r7, #12]
 8002f0c:	f7fe fe7c 	bl	8001c08 <stm32__i2c__is_configured>
 8002f10:	4603      	mov	r3, r0
 8002f12:	f083 0301 	eor.w	r3, r3, #1
 8002f16:	b2db      	uxtb	r3, r3
 8002f18:	2b00      	cmp	r3, #0
 8002f1a:	d005      	beq.n	8002f28 <stm32__i2c__mem_read+0x38>
 8002f1c:	4ca7      	ldr	r4, [pc, #668]	; (80031bc <stm32__i2c__mem_read+0x2cc>)
 8002f1e:	4da8      	ldr	r5, [pc, #672]	; (80031c0 <stm32__i2c__mem_read+0x2d0>)
 8002f20:	4620      	mov	r0, r4
 8002f22:	4629      	mov	r1, r5
 8002f24:	f005 faee 	bl	8008504 <system__assertions__raise_assert_failure>
 8002f28:	6c7b      	ldr	r3, [r7, #68]	; 0x44
 8002f2a:	681b      	ldr	r3, [r3, #0]
 8002f2c:	461e      	mov	r6, r3
 8002f2e:	2300      	movs	r3, #0
 8002f30:	627b      	str	r3, [r7, #36]	; 0x24
 8002f32:	2300      	movs	r3, #0
 8002f34:	623b      	str	r3, [r7, #32]
 8002f36:	f003 f909 	bl	800614c <ada__real_time__clock>
 8002f3a:	4603      	mov	r3, r0
 8002f3c:	460c      	mov	r4, r1
 8002f3e:	e9c7 3406 	strd	r3, r4, [r7, #24]
 8002f42:	68fb      	ldr	r3, [r7, #12]
 8002f44:	685b      	ldr	r3, [r3, #4]
 8002f46:	3318      	adds	r3, #24
 8002f48:	681b      	ldr	r3, [r3, #0]
 8002f4a:	f3c3 33c0 	ubfx	r3, r3, #15, #1
 8002f4e:	b2db      	uxtb	r3, r3
 8002f50:	2b00      	cmp	r3, #0
 8002f52:	d017      	beq.n	8002f84 <stm32__i2c__mem_read+0x94>
 8002f54:	f003 f8fa 	bl	800614c <ada__real_time__clock>
 8002f58:	4603      	mov	r3, r0
 8002f5a:	460c      	mov	r4, r1
 8002f5c:	4618      	mov	r0, r3
 8002f5e:	4621      	mov	r1, r4
 8002f60:	e9d7 2306 	ldrd	r2, r3, [r7, #24]
 8002f64:	f003 f8d0 	bl	8006108 <ada__real_time__Osubtract__2>
 8002f68:	4604      	mov	r4, r0
 8002f6a:	460d      	mov	r5, r1
 8002f6c:	6cbb      	ldr	r3, [r7, #72]	; 0x48
 8002f6e:	4618      	mov	r0, r3
 8002f70:	f003 f934 	bl	80061dc <ada__real_time__milliseconds>
 8002f74:	4602      	mov	r2, r0
 8002f76:	460b      	mov	r3, r1
 8002f78:	42a2      	cmp	r2, r4
 8002f7a:	41ab      	sbcs	r3, r5
 8002f7c:	dae1      	bge.n	8002f42 <stm32__i2c__mem_read+0x52>
 8002f7e:	2303      	movs	r3, #3
 8002f80:	757b      	strb	r3, [r7, #21]
 8002f82:	e319      	b.n	80035b8 <stm32__i2c__mem_read+0x6c8>
 8002f84:	6c7b      	ldr	r3, [r7, #68]	; 0x44
 8002f86:	681a      	ldr	r2, [r3, #0]
 8002f88:	6c7b      	ldr	r3, [r7, #68]	; 0x44
 8002f8a:	685b      	ldr	r3, [r3, #4]
 8002f8c:	429a      	cmp	r2, r3
 8002f8e:	dd02      	ble.n	8002f96 <stm32__i2c__mem_read+0xa6>
 8002f90:	2301      	movs	r3, #1
 8002f92:	757b      	strb	r3, [r7, #21]
 8002f94:	e310      	b.n	80035b8 <stm32__i2c__mem_read+0x6c8>
 8002f96:	68fb      	ldr	r3, [r7, #12]
 8002f98:	7d1b      	ldrb	r3, [r3, #20]
 8002f9a:	2b01      	cmp	r3, #1
 8002f9c:	d002      	beq.n	8002fa4 <stm32__i2c__mem_read+0xb4>
 8002f9e:	2303      	movs	r3, #3
 8002fa0:	757b      	strb	r3, [r7, #21]
 8002fa2:	e309      	b.n	80035b8 <stm32__i2c__mem_read+0x6c8>
 8002fa4:	68fb      	ldr	r3, [r7, #12]
 8002fa6:	2205      	movs	r2, #5
 8002fa8:	751a      	strb	r2, [r3, #20]
 8002faa:	79fb      	ldrb	r3, [r7, #7]
 8002fac:	2b01      	cmp	r3, #1
 8002fae:	d904      	bls.n	8002fba <stm32__i2c__mem_read+0xca>
 8002fb0:	4884      	ldr	r0, [pc, #528]	; (80031c4 <stm32__i2c__mem_read+0x2d4>)
 8002fb2:	f240 21d2 	movw	r1, #722	; 0x2d2
 8002fb6:	f006 f86d 	bl	8009094 <__gnat_rcheck_CE_Invalid_Data>
 8002fba:	79fb      	ldrb	r3, [r7, #7]
 8002fbc:	2b00      	cmp	r3, #0
 8002fbe:	d101      	bne.n	8002fc4 <stm32__i2c__mem_read+0xd4>
 8002fc0:	2201      	movs	r2, #1
 8002fc2:	e000      	b.n	8002fc6 <stm32__i2c__mem_read+0xd6>
 8002fc4:	2202      	movs	r2, #2
 8002fc6:	8979      	ldrh	r1, [r7, #10]
 8002fc8:	2303      	movs	r3, #3
 8002fca:	9300      	str	r3, [sp, #0]
 8002fcc:	68f8      	ldr	r0, [r7, #12]
 8002fce:	2302      	movs	r3, #2
 8002fd0:	f7fe fe2c 	bl	8001c2c <stm32__i2c__config_transfer>
 8002fd4:	68f8      	ldr	r0, [r7, #12]
 8002fd6:	6cb9      	ldr	r1, [r7, #72]	; 0x48
 8002fd8:	f7fe ff56 	bl	8001e88 <stm32__i2c__wait_tx_interrupt_status>
 8002fdc:	4603      	mov	r3, r0
 8002fde:	757b      	strb	r3, [r7, #21]
 8002fe0:	7d7b      	ldrb	r3, [r7, #21]
 8002fe2:	2b00      	cmp	r3, #0
 8002fe4:	f040 82e3 	bne.w	80035ae <stm32__i2c__mem_read+0x6be>
 8002fe8:	79fb      	ldrb	r3, [r7, #7]
 8002fea:	2b01      	cmp	r3, #1
 8002fec:	d904      	bls.n	8002ff8 <stm32__i2c__mem_read+0x108>
 8002fee:	4875      	ldr	r0, [pc, #468]	; (80031c4 <stm32__i2c__mem_read+0x2d4>)
 8002ff0:	f240 21de 	movw	r1, #734	; 0x2de
 8002ff4:	f006 f84e 	bl	8009094 <__gnat_rcheck_CE_Invalid_Data>
 8002ff8:	79fb      	ldrb	r3, [r7, #7]
 8002ffa:	2b00      	cmp	r3, #0
 8002ffc:	d114      	bne.n	8003028 <stm32__i2c__mem_read+0x138>
 8002ffe:	893b      	ldrh	r3, [r7, #8]
 8003000:	2bff      	cmp	r3, #255	; 0xff
 8003002:	d904      	bls.n	800300e <stm32__i2c__mem_read+0x11e>
 8003004:	486f      	ldr	r0, [pc, #444]	; (80031c4 <stm32__i2c__mem_read+0x2d4>)
 8003006:	f44f 7138 	mov.w	r1, #736	; 0x2e0
 800300a:	f006 f853 	bl	80090b4 <__gnat_rcheck_CE_Range_Check>
 800300e:	68fb      	ldr	r3, [r7, #12]
 8003010:	685b      	ldr	r3, [r3, #4]
 8003012:	3328      	adds	r3, #40	; 0x28
 8003014:	681b      	ldr	r3, [r3, #0]
 8003016:	893a      	ldrh	r2, [r7, #8]
 8003018:	b2d2      	uxtb	r2, r2
 800301a:	f362 0307 	bfi	r3, r2, #0, #8
 800301e:	68fa      	ldr	r2, [r7, #12]
 8003020:	6852      	ldr	r2, [r2, #4]
 8003022:	3228      	adds	r2, #40	; 0x28
 8003024:	6013      	str	r3, [r2, #0]
 8003026:	e039      	b.n	800309c <stm32__i2c__mem_read+0x1ac>
 8003028:	893b      	ldrh	r3, [r7, #8]
 800302a:	0a1b      	lsrs	r3, r3, #8
 800302c:	b29b      	uxth	r3, r3
 800302e:	2bff      	cmp	r3, #255	; 0xff
 8003030:	d904      	bls.n	800303c <stm32__i2c__mem_read+0x14c>
 8003032:	4864      	ldr	r0, [pc, #400]	; (80031c4 <stm32__i2c__mem_read+0x2d4>)
 8003034:	f44f 7139 	mov.w	r1, #740	; 0x2e4
 8003038:	f006 f83c 	bl	80090b4 <__gnat_rcheck_CE_Range_Check>
 800303c:	893b      	ldrh	r3, [r7, #8]
 800303e:	0a1b      	lsrs	r3, r3, #8
 8003040:	b29b      	uxth	r3, r3
 8003042:	75fb      	strb	r3, [r7, #23]
 8003044:	893b      	ldrh	r3, [r7, #8]
 8003046:	b2db      	uxtb	r3, r3
 8003048:	b29b      	uxth	r3, r3
 800304a:	2bff      	cmp	r3, #255	; 0xff
 800304c:	d904      	bls.n	8003058 <stm32__i2c__mem_read+0x168>
 800304e:	485d      	ldr	r0, [pc, #372]	; (80031c4 <stm32__i2c__mem_read+0x2d4>)
 8003050:	f240 21e5 	movw	r1, #741	; 0x2e5
 8003054:	f006 f82e 	bl	80090b4 <__gnat_rcheck_CE_Range_Check>
 8003058:	893b      	ldrh	r3, [r7, #8]
 800305a:	75bb      	strb	r3, [r7, #22]
 800305c:	68fb      	ldr	r3, [r7, #12]
 800305e:	685b      	ldr	r3, [r3, #4]
 8003060:	3328      	adds	r3, #40	; 0x28
 8003062:	681b      	ldr	r3, [r3, #0]
 8003064:	7dfa      	ldrb	r2, [r7, #23]
 8003066:	f362 0307 	bfi	r3, r2, #0, #8
 800306a:	68fa      	ldr	r2, [r7, #12]
 800306c:	6852      	ldr	r2, [r2, #4]
 800306e:	3228      	adds	r2, #40	; 0x28
 8003070:	6013      	str	r3, [r2, #0]
 8003072:	68f8      	ldr	r0, [r7, #12]
 8003074:	6cb9      	ldr	r1, [r7, #72]	; 0x48
 8003076:	f7fe ff07 	bl	8001e88 <stm32__i2c__wait_tx_interrupt_status>
 800307a:	4603      	mov	r3, r0
 800307c:	757b      	strb	r3, [r7, #21]
 800307e:	7d7b      	ldrb	r3, [r7, #21]
 8003080:	2b00      	cmp	r3, #0
 8003082:	f040 8296 	bne.w	80035b2 <stm32__i2c__mem_read+0x6c2>
 8003086:	68fb      	ldr	r3, [r7, #12]
 8003088:	685b      	ldr	r3, [r3, #4]
 800308a:	3328      	adds	r3, #40	; 0x28
 800308c:	681b      	ldr	r3, [r3, #0]
 800308e:	7dba      	ldrb	r2, [r7, #22]
 8003090:	f362 0307 	bfi	r3, r2, #0, #8
 8003094:	68fa      	ldr	r2, [r7, #12]
 8003096:	6852      	ldr	r2, [r2, #4]
 8003098:	3228      	adds	r2, #40	; 0x28
 800309a:	6013      	str	r3, [r2, #0]
 800309c:	68fb      	ldr	r3, [r7, #12]
 800309e:	685b      	ldr	r3, [r3, #4]
 80030a0:	3318      	adds	r3, #24
 80030a2:	681b      	ldr	r3, [r3, #0]
 80030a4:	f3c3 1380 	ubfx	r3, r3, #6, #1
 80030a8:	b2db      	uxtb	r3, r3
 80030aa:	f083 0301 	eor.w	r3, r3, #1
 80030ae:	b2db      	uxtb	r3, r3
 80030b0:	2b00      	cmp	r3, #0
 80030b2:	d001      	beq.n	80030b8 <stm32__i2c__mem_read+0x1c8>
 80030b4:	bf00      	nop
 80030b6:	e7f1      	b.n	800309c <stm32__i2c__mem_read+0x1ac>
 80030b8:	6c7b      	ldr	r3, [r7, #68]	; 0x44
 80030ba:	681b      	ldr	r3, [r3, #0]
 80030bc:	ea4f 74e3 	mov.w	r4, r3, asr #31
 80030c0:	f06f 01fe 	mvn.w	r1, #254	; 0xfe
 80030c4:	f06f 4200 	mvn.w	r2, #2147483648	; 0x80000000
 80030c8:	4299      	cmp	r1, r3
 80030ca:	eb72 0304 	sbcs.w	r3, r2, r4
 80030ce:	da04      	bge.n	80030da <stm32__i2c__mem_read+0x1ea>
 80030d0:	483c      	ldr	r0, [pc, #240]	; (80031c4 <stm32__i2c__mem_read+0x2d4>)
 80030d2:	f240 21f9 	movw	r1, #761	; 0x2f9
 80030d6:	f005 ffe5 	bl	80090a4 <__gnat_rcheck_CE_Overflow_Check>
 80030da:	6c7b      	ldr	r3, [r7, #68]	; 0x44
 80030dc:	681b      	ldr	r3, [r3, #0]
 80030de:	ea4f 74e3 	mov.w	r4, r3, asr #31
 80030e2:	f113 01fe 	adds.w	r1, r3, #254	; 0xfe
 80030e6:	f144 0200 	adc.w	r2, r4, #0
 80030ea:	6c7b      	ldr	r3, [r7, #68]	; 0x44
 80030ec:	685b      	ldr	r3, [r3, #4]
 80030ee:	ea4f 74e3 	mov.w	r4, r3, asr #31
 80030f2:	4299      	cmp	r1, r3
 80030f4:	eb72 0304 	sbcs.w	r3, r2, r4
 80030f8:	da0b      	bge.n	8003112 <stm32__i2c__mem_read+0x222>
 80030fa:	897a      	ldrh	r2, [r7, #10]
 80030fc:	2302      	movs	r3, #2
 80030fe:	9300      	str	r3, [sp, #0]
 8003100:	68f8      	ldr	r0, [r7, #12]
 8003102:	4611      	mov	r1, r2
 8003104:	22ff      	movs	r2, #255	; 0xff
 8003106:	2300      	movs	r3, #0
 8003108:	f7fe fd90 	bl	8001c2c <stm32__i2c__config_transfer>
 800310c:	23ff      	movs	r3, #255	; 0xff
 800310e:	627b      	str	r3, [r7, #36]	; 0x24
 8003110:	e05e      	b.n	80031d0 <stm32__i2c__mem_read+0x2e0>
 8003112:	6c7b      	ldr	r3, [r7, #68]	; 0x44
 8003114:	681b      	ldr	r3, [r3, #0]
 8003116:	ea4f 74e3 	mov.w	r4, r3, asr #31
 800311a:	f113 01fe 	adds.w	r1, r3, #254	; 0xfe
 800311e:	f144 0200 	adc.w	r2, r4, #0
 8003122:	6c7b      	ldr	r3, [r7, #68]	; 0x44
 8003124:	685b      	ldr	r3, [r3, #4]
 8003126:	ea4f 74e3 	mov.w	r4, r3, asr #31
 800312a:	4299      	cmp	r1, r3
 800312c:	eb72 0304 	sbcs.w	r3, r2, r4
 8003130:	da04      	bge.n	800313c <stm32__i2c__mem_read+0x24c>
 8003132:	4824      	ldr	r0, [pc, #144]	; (80031c4 <stm32__i2c__mem_read+0x2d4>)
 8003134:	f240 21ff 	movw	r1, #767	; 0x2ff
 8003138:	f005 ffbc 	bl	80090b4 <__gnat_rcheck_CE_Range_Check>
 800313c:	6c7b      	ldr	r3, [r7, #68]	; 0x44
 800313e:	685a      	ldr	r2, [r3, #4]
 8003140:	6c7b      	ldr	r3, [r7, #68]	; 0x44
 8003142:	681b      	ldr	r3, [r3, #0]
 8003144:	429a      	cmp	r2, r3
 8003146:	db0a      	blt.n	800315e <stm32__i2c__mem_read+0x26e>
 8003148:	6c7b      	ldr	r3, [r7, #68]	; 0x44
 800314a:	685b      	ldr	r3, [r3, #4]
 800314c:	b2da      	uxtb	r2, r3
 800314e:	6c7b      	ldr	r3, [r7, #68]	; 0x44
 8003150:	681b      	ldr	r3, [r3, #0]
 8003152:	b2db      	uxtb	r3, r3
 8003154:	1ad3      	subs	r3, r2, r3
 8003156:	b2db      	uxtb	r3, r3
 8003158:	3301      	adds	r3, #1
 800315a:	b2db      	uxtb	r3, r3
 800315c:	e000      	b.n	8003160 <stm32__i2c__mem_read+0x270>
 800315e:	2300      	movs	r3, #0
 8003160:	8979      	ldrh	r1, [r7, #10]
 8003162:	2202      	movs	r2, #2
 8003164:	9200      	str	r2, [sp, #0]
 8003166:	68f8      	ldr	r0, [r7, #12]
 8003168:	461a      	mov	r2, r3
 800316a:	2301      	movs	r3, #1
 800316c:	f7fe fd5e 	bl	8001c2c <stm32__i2c__config_transfer>
 8003170:	6c7b      	ldr	r3, [r7, #68]	; 0x44
 8003172:	681b      	ldr	r3, [r3, #0]
 8003174:	ea4f 74e3 	mov.w	r4, r3, asr #31
 8003178:	4913      	ldr	r1, [pc, #76]	; (80031c8 <stm32__i2c__mem_read+0x2d8>)
 800317a:	f04f 0200 	mov.w	r2, #0
 800317e:	18c9      	adds	r1, r1, r3
 8003180:	eb42 0204 	adc.w	r2, r2, r4
 8003184:	6c7b      	ldr	r3, [r7, #68]	; 0x44
 8003186:	685b      	ldr	r3, [r3, #4]
 8003188:	ea4f 74e3 	mov.w	r4, r3, asr #31
 800318c:	4299      	cmp	r1, r3
 800318e:	eb72 0304 	sbcs.w	r3, r2, r4
 8003192:	da04      	bge.n	800319e <stm32__i2c__mem_read+0x2ae>
 8003194:	480b      	ldr	r0, [pc, #44]	; (80031c4 <stm32__i2c__mem_read+0x2d4>)
 8003196:	f44f 7140 	mov.w	r1, #768	; 0x300
 800319a:	f005 ff8b 	bl	80090b4 <__gnat_rcheck_CE_Range_Check>
 800319e:	6c7b      	ldr	r3, [r7, #68]	; 0x44
 80031a0:	685a      	ldr	r2, [r3, #4]
 80031a2:	6c7b      	ldr	r3, [r7, #68]	; 0x44
 80031a4:	681b      	ldr	r3, [r3, #0]
 80031a6:	429a      	cmp	r2, r3
 80031a8:	db10      	blt.n	80031cc <stm32__i2c__mem_read+0x2dc>
 80031aa:	6c7b      	ldr	r3, [r7, #68]	; 0x44
 80031ac:	685b      	ldr	r3, [r3, #4]
 80031ae:	461a      	mov	r2, r3
 80031b0:	6c7b      	ldr	r3, [r7, #68]	; 0x44
 80031b2:	681b      	ldr	r3, [r3, #0]
 80031b4:	1ad3      	subs	r3, r2, r3
 80031b6:	3301      	adds	r3, #1
 80031b8:	e009      	b.n	80031ce <stm32__i2c__mem_read+0x2de>
 80031ba:	bf00      	nop
 80031bc:	0800cbf8 	.word	0x0800cbf8
 80031c0:	0800cb28 	.word	0x0800cb28
 80031c4:	0800cb64 	.word	0x0800cb64
 80031c8:	7ffffffe 	.word	0x7ffffffe
 80031cc:	2300      	movs	r3, #0
 80031ce:	627b      	str	r3, [r7, #36]	; 0x24
 80031d0:	6c7b      	ldr	r3, [r7, #68]	; 0x44
 80031d2:	681b      	ldr	r3, [r3, #0]
 80031d4:	ea4f 74e3 	mov.w	r4, r3, asr #31
 80031d8:	49a7      	ldr	r1, [pc, #668]	; (8003478 <stm32__i2c__mem_read+0x588>)
 80031da:	f04f 0200 	mov.w	r2, #0
 80031de:	18c9      	adds	r1, r1, r3
 80031e0:	eb42 0204 	adc.w	r2, r2, r4
 80031e4:	6c7b      	ldr	r3, [r7, #68]	; 0x44
 80031e6:	685b      	ldr	r3, [r3, #4]
 80031e8:	ea4f 74e3 	mov.w	r4, r3, asr #31
 80031ec:	4299      	cmp	r1, r3
 80031ee:	eb72 0304 	sbcs.w	r3, r2, r4
 80031f2:	da04      	bge.n	80031fe <stm32__i2c__mem_read+0x30e>
 80031f4:	48a1      	ldr	r0, [pc, #644]	; (800347c <stm32__i2c__mem_read+0x58c>)
 80031f6:	f44f 7141 	mov.w	r1, #772	; 0x304
 80031fa:	f005 ff5b 	bl	80090b4 <__gnat_rcheck_CE_Range_Check>
 80031fe:	6a3b      	ldr	r3, [r7, #32]
 8003200:	6c7a      	ldr	r2, [r7, #68]	; 0x44
 8003202:	6851      	ldr	r1, [r2, #4]
 8003204:	6c7a      	ldr	r2, [r7, #68]	; 0x44
 8003206:	6812      	ldr	r2, [r2, #0]
 8003208:	4291      	cmp	r1, r2
 800320a:	db07      	blt.n	800321c <stm32__i2c__mem_read+0x32c>
 800320c:	6c7a      	ldr	r2, [r7, #68]	; 0x44
 800320e:	6852      	ldr	r2, [r2, #4]
 8003210:	4611      	mov	r1, r2
 8003212:	6c7a      	ldr	r2, [r7, #68]	; 0x44
 8003214:	6812      	ldr	r2, [r2, #0]
 8003216:	1a8a      	subs	r2, r1, r2
 8003218:	3201      	adds	r2, #1
 800321a:	e000      	b.n	800321e <stm32__i2c__mem_read+0x32e>
 800321c:	2200      	movs	r2, #0
 800321e:	4293      	cmp	r3, r2
 8003220:	f280 81b3 	bge.w	800358a <stm32__i2c__mem_read+0x69a>
 8003224:	68fb      	ldr	r3, [r7, #12]
 8003226:	685b      	ldr	r3, [r3, #4]
 8003228:	3318      	adds	r3, #24
 800322a:	681b      	ldr	r3, [r3, #0]
 800322c:	f3c3 0380 	ubfx	r3, r3, #2, #1
 8003230:	b2db      	uxtb	r3, r3
 8003232:	f083 0301 	eor.w	r3, r3, #1
 8003236:	b2db      	uxtb	r3, r3
 8003238:	2b00      	cmp	r3, #0
 800323a:	d001      	beq.n	8003240 <stm32__i2c__mem_read+0x350>
 800323c:	bf00      	nop
 800323e:	e7f1      	b.n	8003224 <stm32__i2c__mem_read+0x334>
 8003240:	6c7b      	ldr	r3, [r7, #68]	; 0x44
 8003242:	681b      	ldr	r3, [r3, #0]
 8003244:	461a      	mov	r2, r3
 8003246:	6a3b      	ldr	r3, [r7, #32]
 8003248:	4413      	add	r3, r2
 800324a:	461a      	mov	r2, r3
 800324c:	6c7b      	ldr	r3, [r7, #68]	; 0x44
 800324e:	681b      	ldr	r3, [r3, #0]
 8003250:	429a      	cmp	r2, r3
 8003252:	da04      	bge.n	800325e <stm32__i2c__mem_read+0x36e>
 8003254:	4889      	ldr	r0, [pc, #548]	; (800347c <stm32__i2c__mem_read+0x58c>)
 8003256:	f240 3109 	movw	r1, #777	; 0x309
 800325a:	f005 ff23 	bl	80090a4 <__gnat_rcheck_CE_Overflow_Check>
 800325e:	6c7b      	ldr	r3, [r7, #68]	; 0x44
 8003260:	681a      	ldr	r2, [r3, #0]
 8003262:	6a3b      	ldr	r3, [r7, #32]
 8003264:	4413      	add	r3, r2
 8003266:	6c7a      	ldr	r2, [r7, #68]	; 0x44
 8003268:	6812      	ldr	r2, [r2, #0]
 800326a:	429a      	cmp	r2, r3
 800326c:	dc03      	bgt.n	8003276 <stm32__i2c__mem_read+0x386>
 800326e:	6c7a      	ldr	r2, [r7, #68]	; 0x44
 8003270:	6852      	ldr	r2, [r2, #4]
 8003272:	429a      	cmp	r2, r3
 8003274:	da04      	bge.n	8003280 <stm32__i2c__mem_read+0x390>
 8003276:	4881      	ldr	r0, [pc, #516]	; (800347c <stm32__i2c__mem_read+0x58c>)
 8003278:	f240 3109 	movw	r1, #777	; 0x309
 800327c:	f005 ff02 	bl	8009084 <__gnat_rcheck_CE_Index_Check>
 8003280:	6c3a      	ldr	r2, [r7, #64]	; 0x40
 8003282:	4618      	mov	r0, r3
 8003284:	68fb      	ldr	r3, [r7, #12]
 8003286:	685b      	ldr	r3, [r3, #4]
 8003288:	3324      	adds	r3, #36	; 0x24
 800328a:	681b      	ldr	r3, [r3, #0]
 800328c:	b2d9      	uxtb	r1, r3
 800328e:	1b83      	subs	r3, r0, r6
 8003290:	54d1      	strb	r1, [r2, r3]
 8003292:	6a3b      	ldr	r3, [r7, #32]
 8003294:	f06f 4200 	mvn.w	r2, #2147483648	; 0x80000000
 8003298:	4293      	cmp	r3, r2
 800329a:	d104      	bne.n	80032a6 <stm32__i2c__mem_read+0x3b6>
 800329c:	4877      	ldr	r0, [pc, #476]	; (800347c <stm32__i2c__mem_read+0x58c>)
 800329e:	f240 310a 	movw	r1, #778	; 0x30a
 80032a2:	f005 feff 	bl	80090a4 <__gnat_rcheck_CE_Overflow_Check>
 80032a6:	6a3b      	ldr	r3, [r7, #32]
 80032a8:	3301      	adds	r3, #1
 80032aa:	623b      	str	r3, [r7, #32]
 80032ac:	6a7b      	ldr	r3, [r7, #36]	; 0x24
 80032ae:	3b01      	subs	r3, #1
 80032b0:	2b00      	cmp	r3, #0
 80032b2:	da04      	bge.n	80032be <stm32__i2c__mem_read+0x3ce>
 80032b4:	4871      	ldr	r0, [pc, #452]	; (800347c <stm32__i2c__mem_read+0x58c>)
 80032b6:	f240 310b 	movw	r1, #779	; 0x30b
 80032ba:	f005 fefb 	bl	80090b4 <__gnat_rcheck_CE_Range_Check>
 80032be:	627b      	str	r3, [r7, #36]	; 0x24
 80032c0:	6a7b      	ldr	r3, [r7, #36]	; 0x24
 80032c2:	2b00      	cmp	r3, #0
 80032c4:	d184      	bne.n	80031d0 <stm32__i2c__mem_read+0x2e0>
 80032c6:	6c7b      	ldr	r3, [r7, #68]	; 0x44
 80032c8:	681b      	ldr	r3, [r3, #0]
 80032ca:	ea4f 74e3 	mov.w	r4, r3, asr #31
 80032ce:	496a      	ldr	r1, [pc, #424]	; (8003478 <stm32__i2c__mem_read+0x588>)
 80032d0:	f04f 0200 	mov.w	r2, #0
 80032d4:	18c9      	adds	r1, r1, r3
 80032d6:	eb42 0204 	adc.w	r2, r2, r4
 80032da:	6c7b      	ldr	r3, [r7, #68]	; 0x44
 80032dc:	685b      	ldr	r3, [r3, #4]
 80032de:	ea4f 74e3 	mov.w	r4, r3, asr #31
 80032e2:	4299      	cmp	r1, r3
 80032e4:	eb72 0304 	sbcs.w	r3, r2, r4
 80032e8:	da04      	bge.n	80032f4 <stm32__i2c__mem_read+0x404>
 80032ea:	4864      	ldr	r0, [pc, #400]	; (800347c <stm32__i2c__mem_read+0x58c>)
 80032ec:	f240 310e 	movw	r1, #782	; 0x30e
 80032f0:	f005 fee0 	bl	80090b4 <__gnat_rcheck_CE_Range_Check>
 80032f4:	6a3b      	ldr	r3, [r7, #32]
 80032f6:	6c7a      	ldr	r2, [r7, #68]	; 0x44
 80032f8:	6851      	ldr	r1, [r2, #4]
 80032fa:	6c7a      	ldr	r2, [r7, #68]	; 0x44
 80032fc:	6812      	ldr	r2, [r2, #0]
 80032fe:	4291      	cmp	r1, r2
 8003300:	db07      	blt.n	8003312 <stm32__i2c__mem_read+0x422>
 8003302:	6c7a      	ldr	r2, [r7, #68]	; 0x44
 8003304:	6852      	ldr	r2, [r2, #4]
 8003306:	4611      	mov	r1, r2
 8003308:	6c7a      	ldr	r2, [r7, #68]	; 0x44
 800330a:	6812      	ldr	r2, [r2, #0]
 800330c:	1a8a      	subs	r2, r1, r2
 800330e:	3201      	adds	r2, #1
 8003310:	e000      	b.n	8003314 <stm32__i2c__mem_read+0x424>
 8003312:	2200      	movs	r2, #0
 8003314:	4293      	cmp	r3, r2
 8003316:	bfb4      	ite	lt
 8003318:	2301      	movlt	r3, #1
 800331a:	2300      	movge	r3, #0
 800331c:	b2db      	uxtb	r3, r3
 800331e:	2b00      	cmp	r3, #0
 8003320:	f43f af56 	beq.w	80031d0 <stm32__i2c__mem_read+0x2e0>
 8003324:	68fb      	ldr	r3, [r7, #12]
 8003326:	685b      	ldr	r3, [r3, #4]
 8003328:	3318      	adds	r3, #24
 800332a:	681b      	ldr	r3, [r3, #0]
 800332c:	f3c3 13c0 	ubfx	r3, r3, #7, #1
 8003330:	b2db      	uxtb	r3, r3
 8003332:	f083 0301 	eor.w	r3, r3, #1
 8003336:	b2db      	uxtb	r3, r3
 8003338:	2b00      	cmp	r3, #0
 800333a:	d001      	beq.n	8003340 <stm32__i2c__mem_read+0x450>
 800333c:	bf00      	nop
 800333e:	e7f1      	b.n	8003324 <stm32__i2c__mem_read+0x434>
 8003340:	6c7b      	ldr	r3, [r7, #68]	; 0x44
 8003342:	681b      	ldr	r3, [r3, #0]
 8003344:	ea4f 74e3 	mov.w	r4, r3, asr #31
 8003348:	494b      	ldr	r1, [pc, #300]	; (8003478 <stm32__i2c__mem_read+0x588>)
 800334a:	f04f 0200 	mov.w	r2, #0
 800334e:	18c9      	adds	r1, r1, r3
 8003350:	eb42 0204 	adc.w	r2, r2, r4
 8003354:	6c7b      	ldr	r3, [r7, #68]	; 0x44
 8003356:	685b      	ldr	r3, [r3, #4]
 8003358:	ea4f 74e3 	mov.w	r4, r3, asr #31
 800335c:	4299      	cmp	r1, r3
 800335e:	eb72 0304 	sbcs.w	r3, r2, r4
 8003362:	da04      	bge.n	800336e <stm32__i2c__mem_read+0x47e>
 8003364:	4845      	ldr	r0, [pc, #276]	; (800347c <stm32__i2c__mem_read+0x58c>)
 8003366:	f240 3115 	movw	r1, #789	; 0x315
 800336a:	f005 fea3 	bl	80090b4 <__gnat_rcheck_CE_Range_Check>
 800336e:	6c7b      	ldr	r3, [r7, #68]	; 0x44
 8003370:	685a      	ldr	r2, [r3, #4]
 8003372:	6c7b      	ldr	r3, [r7, #68]	; 0x44
 8003374:	681b      	ldr	r3, [r3, #0]
 8003376:	429a      	cmp	r2, r3
 8003378:	db07      	blt.n	800338a <stm32__i2c__mem_read+0x49a>
 800337a:	6c7b      	ldr	r3, [r7, #68]	; 0x44
 800337c:	685b      	ldr	r3, [r3, #4]
 800337e:	461a      	mov	r2, r3
 8003380:	6c7b      	ldr	r3, [r7, #68]	; 0x44
 8003382:	681b      	ldr	r3, [r3, #0]
 8003384:	1ad3      	subs	r3, r2, r3
 8003386:	3301      	adds	r3, #1
 8003388:	e000      	b.n	800338c <stm32__i2c__mem_read+0x49c>
 800338a:	2300      	movs	r3, #0
 800338c:	6a3a      	ldr	r2, [r7, #32]
 800338e:	1a9b      	subs	r3, r3, r2
 8003390:	4619      	mov	r1, r3
 8003392:	6c7b      	ldr	r3, [r7, #68]	; 0x44
 8003394:	685a      	ldr	r2, [r3, #4]
 8003396:	6c7b      	ldr	r3, [r7, #68]	; 0x44
 8003398:	681b      	ldr	r3, [r3, #0]
 800339a:	429a      	cmp	r2, r3
 800339c:	db07      	blt.n	80033ae <stm32__i2c__mem_read+0x4be>
 800339e:	6c7b      	ldr	r3, [r7, #68]	; 0x44
 80033a0:	685b      	ldr	r3, [r3, #4]
 80033a2:	461a      	mov	r2, r3
 80033a4:	6c7b      	ldr	r3, [r7, #68]	; 0x44
 80033a6:	681b      	ldr	r3, [r3, #0]
 80033a8:	1ad3      	subs	r3, r2, r3
 80033aa:	3301      	adds	r3, #1
 80033ac:	e000      	b.n	80033b0 <stm32__i2c__mem_read+0x4c0>
 80033ae:	2300      	movs	r3, #0
 80033b0:	4299      	cmp	r1, r3
 80033b2:	dd04      	ble.n	80033be <stm32__i2c__mem_read+0x4ce>
 80033b4:	4831      	ldr	r0, [pc, #196]	; (800347c <stm32__i2c__mem_read+0x58c>)
 80033b6:	f240 3115 	movw	r1, #789	; 0x315
 80033ba:	f005 fe73 	bl	80090a4 <__gnat_rcheck_CE_Overflow_Check>
 80033be:	6c7b      	ldr	r3, [r7, #68]	; 0x44
 80033c0:	685a      	ldr	r2, [r3, #4]
 80033c2:	6c7b      	ldr	r3, [r7, #68]	; 0x44
 80033c4:	681b      	ldr	r3, [r3, #0]
 80033c6:	429a      	cmp	r2, r3
 80033c8:	db08      	blt.n	80033dc <stm32__i2c__mem_read+0x4ec>
 80033ca:	6c7b      	ldr	r3, [r7, #68]	; 0x44
 80033cc:	685b      	ldr	r3, [r3, #4]
 80033ce:	461a      	mov	r2, r3
 80033d0:	6c7b      	ldr	r3, [r7, #68]	; 0x44
 80033d2:	681b      	ldr	r3, [r3, #0]
 80033d4:	1ad3      	subs	r3, r2, r3
 80033d6:	3301      	adds	r3, #1
 80033d8:	461a      	mov	r2, r3
 80033da:	e000      	b.n	80033de <stm32__i2c__mem_read+0x4ee>
 80033dc:	2200      	movs	r2, #0
 80033de:	6a3b      	ldr	r3, [r7, #32]
 80033e0:	1ad3      	subs	r3, r2, r3
 80033e2:	2bff      	cmp	r3, #255	; 0xff
 80033e4:	bfcc      	ite	gt
 80033e6:	2301      	movgt	r3, #1
 80033e8:	2300      	movle	r3, #0
 80033ea:	b2db      	uxtb	r3, r3
 80033ec:	2b00      	cmp	r3, #0
 80033ee:	d00b      	beq.n	8003408 <stm32__i2c__mem_read+0x518>
 80033f0:	897a      	ldrh	r2, [r7, #10]
 80033f2:	2300      	movs	r3, #0
 80033f4:	9300      	str	r3, [sp, #0]
 80033f6:	68f8      	ldr	r0, [r7, #12]
 80033f8:	4611      	mov	r1, r2
 80033fa:	22ff      	movs	r2, #255	; 0xff
 80033fc:	2300      	movs	r3, #0
 80033fe:	f7fe fc15 	bl	8001c2c <stm32__i2c__config_transfer>
 8003402:	23ff      	movs	r3, #255	; 0xff
 8003404:	627b      	str	r3, [r7, #36]	; 0x24
 8003406:	e6e3      	b.n	80031d0 <stm32__i2c__mem_read+0x2e0>
 8003408:	6c7b      	ldr	r3, [r7, #68]	; 0x44
 800340a:	681b      	ldr	r3, [r3, #0]
 800340c:	ea4f 74e3 	mov.w	r4, r3, asr #31
 8003410:	4919      	ldr	r1, [pc, #100]	; (8003478 <stm32__i2c__mem_read+0x588>)
 8003412:	f04f 0200 	mov.w	r2, #0
 8003416:	18c9      	adds	r1, r1, r3
 8003418:	eb42 0204 	adc.w	r2, r2, r4
 800341c:	6c7b      	ldr	r3, [r7, #68]	; 0x44
 800341e:	685b      	ldr	r3, [r3, #4]
 8003420:	ea4f 74e3 	mov.w	r4, r3, asr #31
 8003424:	4299      	cmp	r1, r3
 8003426:	eb72 0304 	sbcs.w	r3, r2, r4
 800342a:	da04      	bge.n	8003436 <stm32__i2c__mem_read+0x546>
 800342c:	4813      	ldr	r0, [pc, #76]	; (800347c <stm32__i2c__mem_read+0x58c>)
 800342e:	f44f 7147 	mov.w	r1, #796	; 0x31c
 8003432:	f005 fe3f 	bl	80090b4 <__gnat_rcheck_CE_Range_Check>
 8003436:	6c7b      	ldr	r3, [r7, #68]	; 0x44
 8003438:	685a      	ldr	r2, [r3, #4]
 800343a:	6c7b      	ldr	r3, [r7, #68]	; 0x44
 800343c:	681b      	ldr	r3, [r3, #0]
 800343e:	429a      	cmp	r2, r3
 8003440:	db07      	blt.n	8003452 <stm32__i2c__mem_read+0x562>
 8003442:	6c7b      	ldr	r3, [r7, #68]	; 0x44
 8003444:	685b      	ldr	r3, [r3, #4]
 8003446:	461a      	mov	r2, r3
 8003448:	6c7b      	ldr	r3, [r7, #68]	; 0x44
 800344a:	681b      	ldr	r3, [r3, #0]
 800344c:	1ad3      	subs	r3, r2, r3
 800344e:	3301      	adds	r3, #1
 8003450:	e000      	b.n	8003454 <stm32__i2c__mem_read+0x564>
 8003452:	2300      	movs	r3, #0
 8003454:	6a3a      	ldr	r2, [r7, #32]
 8003456:	1a9b      	subs	r3, r3, r2
 8003458:	4619      	mov	r1, r3
 800345a:	6c7b      	ldr	r3, [r7, #68]	; 0x44
 800345c:	685a      	ldr	r2, [r3, #4]
 800345e:	6c7b      	ldr	r3, [r7, #68]	; 0x44
 8003460:	681b      	ldr	r3, [r3, #0]
 8003462:	429a      	cmp	r2, r3
 8003464:	db0c      	blt.n	8003480 <stm32__i2c__mem_read+0x590>
 8003466:	6c7b      	ldr	r3, [r7, #68]	; 0x44
 8003468:	685b      	ldr	r3, [r3, #4]
 800346a:	461a      	mov	r2, r3
 800346c:	6c7b      	ldr	r3, [r7, #68]	; 0x44
 800346e:	681b      	ldr	r3, [r3, #0]
 8003470:	1ad3      	subs	r3, r2, r3
 8003472:	3301      	adds	r3, #1
 8003474:	e005      	b.n	8003482 <stm32__i2c__mem_read+0x592>
 8003476:	bf00      	nop
 8003478:	7ffffffe 	.word	0x7ffffffe
 800347c:	0800cb64 	.word	0x0800cb64
 8003480:	2300      	movs	r3, #0
 8003482:	4299      	cmp	r1, r3
 8003484:	dd04      	ble.n	8003490 <stm32__i2c__mem_read+0x5a0>
 8003486:	484f      	ldr	r0, [pc, #316]	; (80035c4 <stm32__i2c__mem_read+0x6d4>)
 8003488:	f44f 7147 	mov.w	r1, #796	; 0x31c
 800348c:	f005 fe0a 	bl	80090a4 <__gnat_rcheck_CE_Overflow_Check>
 8003490:	6c7b      	ldr	r3, [r7, #68]	; 0x44
 8003492:	685a      	ldr	r2, [r3, #4]
 8003494:	6c7b      	ldr	r3, [r7, #68]	; 0x44
 8003496:	681b      	ldr	r3, [r3, #0]
 8003498:	429a      	cmp	r2, r3
 800349a:	db08      	blt.n	80034ae <stm32__i2c__mem_read+0x5be>
 800349c:	6c7b      	ldr	r3, [r7, #68]	; 0x44
 800349e:	685b      	ldr	r3, [r3, #4]
 80034a0:	461a      	mov	r2, r3
 80034a2:	6c7b      	ldr	r3, [r7, #68]	; 0x44
 80034a4:	681b      	ldr	r3, [r3, #0]
 80034a6:	1ad3      	subs	r3, r2, r3
 80034a8:	3301      	adds	r3, #1
 80034aa:	461a      	mov	r2, r3
 80034ac:	e000      	b.n	80034b0 <stm32__i2c__mem_read+0x5c0>
 80034ae:	2200      	movs	r2, #0
 80034b0:	6a3b      	ldr	r3, [r7, #32]
 80034b2:	1ad3      	subs	r3, r2, r3
 80034b4:	2b00      	cmp	r3, #0
 80034b6:	db01      	blt.n	80034bc <stm32__i2c__mem_read+0x5cc>
 80034b8:	2bff      	cmp	r3, #255	; 0xff
 80034ba:	dd04      	ble.n	80034c6 <stm32__i2c__mem_read+0x5d6>
 80034bc:	4841      	ldr	r0, [pc, #260]	; (80035c4 <stm32__i2c__mem_read+0x6d4>)
 80034be:	f44f 7147 	mov.w	r1, #796	; 0x31c
 80034c2:	f005 fdf7 	bl	80090b4 <__gnat_rcheck_CE_Range_Check>
 80034c6:	b2da      	uxtb	r2, r3
 80034c8:	8979      	ldrh	r1, [r7, #10]
 80034ca:	2300      	movs	r3, #0
 80034cc:	9300      	str	r3, [sp, #0]
 80034ce:	68f8      	ldr	r0, [r7, #12]
 80034d0:	2301      	movs	r3, #1
 80034d2:	f7fe fbab 	bl	8001c2c <stm32__i2c__config_transfer>
 80034d6:	6c7b      	ldr	r3, [r7, #68]	; 0x44
 80034d8:	681b      	ldr	r3, [r3, #0]
 80034da:	ea4f 74e3 	mov.w	r4, r3, asr #31
 80034de:	493a      	ldr	r1, [pc, #232]	; (80035c8 <stm32__i2c__mem_read+0x6d8>)
 80034e0:	f04f 0200 	mov.w	r2, #0
 80034e4:	18c9      	adds	r1, r1, r3
 80034e6:	eb42 0204 	adc.w	r2, r2, r4
 80034ea:	6c7b      	ldr	r3, [r7, #68]	; 0x44
 80034ec:	685b      	ldr	r3, [r3, #4]
 80034ee:	ea4f 74e3 	mov.w	r4, r3, asr #31
 80034f2:	4299      	cmp	r1, r3
 80034f4:	eb72 0304 	sbcs.w	r3, r2, r4
 80034f8:	da04      	bge.n	8003504 <stm32__i2c__mem_read+0x614>
 80034fa:	4832      	ldr	r0, [pc, #200]	; (80035c4 <stm32__i2c__mem_read+0x6d4>)
 80034fc:	f240 311f 	movw	r1, #799	; 0x31f
 8003500:	f005 fdd8 	bl	80090b4 <__gnat_rcheck_CE_Range_Check>
 8003504:	6c7b      	ldr	r3, [r7, #68]	; 0x44
 8003506:	685a      	ldr	r2, [r3, #4]
 8003508:	6c7b      	ldr	r3, [r7, #68]	; 0x44
 800350a:	681b      	ldr	r3, [r3, #0]
 800350c:	429a      	cmp	r2, r3
 800350e:	db07      	blt.n	8003520 <stm32__i2c__mem_read+0x630>
 8003510:	6c7b      	ldr	r3, [r7, #68]	; 0x44
 8003512:	685b      	ldr	r3, [r3, #4]
 8003514:	461a      	mov	r2, r3
 8003516:	6c7b      	ldr	r3, [r7, #68]	; 0x44
 8003518:	681b      	ldr	r3, [r3, #0]
 800351a:	1ad3      	subs	r3, r2, r3
 800351c:	3301      	adds	r3, #1
 800351e:	e000      	b.n	8003522 <stm32__i2c__mem_read+0x632>
 8003520:	2300      	movs	r3, #0
 8003522:	6a3a      	ldr	r2, [r7, #32]
 8003524:	1a9b      	subs	r3, r3, r2
 8003526:	4619      	mov	r1, r3
 8003528:	6c7b      	ldr	r3, [r7, #68]	; 0x44
 800352a:	685a      	ldr	r2, [r3, #4]
 800352c:	6c7b      	ldr	r3, [r7, #68]	; 0x44
 800352e:	681b      	ldr	r3, [r3, #0]
 8003530:	429a      	cmp	r2, r3
 8003532:	db07      	blt.n	8003544 <stm32__i2c__mem_read+0x654>
 8003534:	6c7b      	ldr	r3, [r7, #68]	; 0x44
 8003536:	685b      	ldr	r3, [r3, #4]
 8003538:	461a      	mov	r2, r3
 800353a:	6c7b      	ldr	r3, [r7, #68]	; 0x44
 800353c:	681b      	ldr	r3, [r3, #0]
 800353e:	1ad3      	subs	r3, r2, r3
 8003540:	3301      	adds	r3, #1
 8003542:	e000      	b.n	8003546 <stm32__i2c__mem_read+0x656>
 8003544:	2300      	movs	r3, #0
 8003546:	4299      	cmp	r1, r3
 8003548:	dd04      	ble.n	8003554 <stm32__i2c__mem_read+0x664>
 800354a:	481e      	ldr	r0, [pc, #120]	; (80035c4 <stm32__i2c__mem_read+0x6d4>)
 800354c:	f240 311f 	movw	r1, #799	; 0x31f
 8003550:	f005 fda8 	bl	80090a4 <__gnat_rcheck_CE_Overflow_Check>
 8003554:	6c7b      	ldr	r3, [r7, #68]	; 0x44
 8003556:	685a      	ldr	r2, [r3, #4]
 8003558:	6c7b      	ldr	r3, [r7, #68]	; 0x44
 800355a:	681b      	ldr	r3, [r3, #0]
 800355c:	429a      	cmp	r2, r3
 800355e:	db08      	blt.n	8003572 <stm32__i2c__mem_read+0x682>
 8003560:	6c7b      	ldr	r3, [r7, #68]	; 0x44
 8003562:	685b      	ldr	r3, [r3, #4]
 8003564:	461a      	mov	r2, r3
 8003566:	6c7b      	ldr	r3, [r7, #68]	; 0x44
 8003568:	681b      	ldr	r3, [r3, #0]
 800356a:	1ad3      	subs	r3, r2, r3
 800356c:	3301      	adds	r3, #1
 800356e:	461a      	mov	r2, r3
 8003570:	e000      	b.n	8003574 <stm32__i2c__mem_read+0x684>
 8003572:	2200      	movs	r2, #0
 8003574:	6a3b      	ldr	r3, [r7, #32]
 8003576:	1ad3      	subs	r3, r2, r3
 8003578:	2b00      	cmp	r3, #0
 800357a:	da04      	bge.n	8003586 <stm32__i2c__mem_read+0x696>
 800357c:	4811      	ldr	r0, [pc, #68]	; (80035c4 <stm32__i2c__mem_read+0x6d4>)
 800357e:	f240 311f 	movw	r1, #799	; 0x31f
 8003582:	f005 fd97 	bl	80090b4 <__gnat_rcheck_CE_Range_Check>
 8003586:	627b      	str	r3, [r7, #36]	; 0x24
 8003588:	e622      	b.n	80031d0 <stm32__i2c__mem_read+0x2e0>
 800358a:	68f8      	ldr	r0, [r7, #12]
 800358c:	6cb9      	ldr	r1, [r7, #72]	; 0x48
 800358e:	f7fe fd0d 	bl	8001fac <stm32__i2c__wait_stop_flag>
 8003592:	4603      	mov	r3, r0
 8003594:	757b      	strb	r3, [r7, #21]
 8003596:	7d7b      	ldrb	r3, [r7, #21]
 8003598:	2b00      	cmp	r3, #0
 800359a:	d10c      	bne.n	80035b6 <stm32__i2c__mem_read+0x6c6>
 800359c:	68f8      	ldr	r0, [r7, #12]
 800359e:	f7fe fbbd 	bl	8001d1c <stm32__i2c__reset_config>
 80035a2:	68fb      	ldr	r3, [r7, #12]
 80035a4:	2201      	movs	r2, #1
 80035a6:	751a      	strb	r2, [r3, #20]
 80035a8:	2300      	movs	r3, #0
 80035aa:	757b      	strb	r3, [r7, #21]
 80035ac:	e004      	b.n	80035b8 <stm32__i2c__mem_read+0x6c8>
 80035ae:	bf00      	nop
 80035b0:	e002      	b.n	80035b8 <stm32__i2c__mem_read+0x6c8>
 80035b2:	bf00      	nop
 80035b4:	e000      	b.n	80035b8 <stm32__i2c__mem_read+0x6c8>
 80035b6:	bf00      	nop
 80035b8:	7d7b      	ldrb	r3, [r7, #21]
 80035ba:	bf00      	nop
 80035bc:	4618      	mov	r0, r3
 80035be:	372c      	adds	r7, #44	; 0x2c
 80035c0:	46bd      	mov	sp, r7
 80035c2:	bdf0      	pop	{r4, r5, r6, r7, pc}
 80035c4:	0800cb64 	.word	0x0800cb64
 80035c8:	7ffffffe 	.word	0x7ffffffe

080035cc <stm32__i2c___elabs>:
 80035cc:	b580      	push	{r7, lr}
 80035ce:	af00      	add	r7, sp, #0
 80035d0:	4803      	ldr	r0, [pc, #12]	; (80035e0 <stm32__i2c___elabs+0x14>)
 80035d2:	f004 fbd1 	bl	8007d78 <ada__tags__check_tsd>
 80035d6:	4803      	ldr	r0, [pc, #12]	; (80035e4 <stm32__i2c___elabs+0x18>)
 80035d8:	f004 fc48 	bl	8007e6c <ada__tags__register_tag>
 80035dc:	bd80      	pop	{r7, pc}
 80035de:	bf00      	nop
 80035e0:	0800ca60 	.word	0x0800ca60
 80035e4:	0800cad0 	.word	0x0800cad0

080035e8 <stm32__gpio__gpio_pinRP>:
 80035e8:	b580      	push	{r7, lr}
 80035ea:	b082      	sub	sp, #8
 80035ec:	af00      	add	r7, sp, #0
 80035ee:	4603      	mov	r3, r0
 80035f0:	460a      	mov	r2, r1
 80035f2:	80fb      	strh	r3, [r7, #6]
 80035f4:	4613      	mov	r3, r2
 80035f6:	717b      	strb	r3, [r7, #5]
 80035f8:	88fb      	ldrh	r3, [r7, #6]
 80035fa:	2b80      	cmp	r3, #128	; 0x80
 80035fc:	d042      	beq.n	8003684 <stm32__gpio__gpio_pinRP+0x9c>
 80035fe:	2b80      	cmp	r3, #128	; 0x80
 8003600:	d811      	bhi.n	8003626 <stm32__gpio__gpio_pinRP+0x3e>
 8003602:	2b08      	cmp	r3, #8
 8003604:	d036      	beq.n	8003674 <stm32__gpio__gpio_pinRP+0x8c>
 8003606:	2b08      	cmp	r3, #8
 8003608:	d806      	bhi.n	8003618 <stm32__gpio__gpio_pinRP+0x30>
 800360a:	2b02      	cmp	r3, #2
 800360c:	d02e      	beq.n	800366c <stm32__gpio__gpio_pinRP+0x84>
 800360e:	2b04      	cmp	r3, #4
 8003610:	d02e      	beq.n	8003670 <stm32__gpio__gpio_pinRP+0x88>
 8003612:	2b01      	cmp	r3, #1
 8003614:	d028      	beq.n	8003668 <stm32__gpio__gpio_pinRP+0x80>
 8003616:	e047      	b.n	80036a8 <stm32__gpio__gpio_pinRP+0xc0>
 8003618:	2b20      	cmp	r3, #32
 800361a:	d02f      	beq.n	800367c <stm32__gpio__gpio_pinRP+0x94>
 800361c:	2b40      	cmp	r3, #64	; 0x40
 800361e:	d02f      	beq.n	8003680 <stm32__gpio__gpio_pinRP+0x98>
 8003620:	2b10      	cmp	r3, #16
 8003622:	d029      	beq.n	8003678 <stm32__gpio__gpio_pinRP+0x90>
 8003624:	e040      	b.n	80036a8 <stm32__gpio__gpio_pinRP+0xc0>
 8003626:	f5b3 6f00 	cmp.w	r3, #2048	; 0x800
 800362a:	d033      	beq.n	8003694 <stm32__gpio__gpio_pinRP+0xac>
 800362c:	f5b3 6f00 	cmp.w	r3, #2048	; 0x800
 8003630:	d809      	bhi.n	8003646 <stm32__gpio__gpio_pinRP+0x5e>
 8003632:	f5b3 7f00 	cmp.w	r3, #512	; 0x200
 8003636:	d029      	beq.n	800368c <stm32__gpio__gpio_pinRP+0xa4>
 8003638:	f5b3 6f80 	cmp.w	r3, #1024	; 0x400
 800363c:	d028      	beq.n	8003690 <stm32__gpio__gpio_pinRP+0xa8>
 800363e:	f5b3 7f80 	cmp.w	r3, #256	; 0x100
 8003642:	d021      	beq.n	8003688 <stm32__gpio__gpio_pinRP+0xa0>
 8003644:	e030      	b.n	80036a8 <stm32__gpio__gpio_pinRP+0xc0>
 8003646:	f5b3 5f00 	cmp.w	r3, #8192	; 0x2000
 800364a:	d027      	beq.n	800369c <stm32__gpio__gpio_pinRP+0xb4>
 800364c:	f5b3 5f00 	cmp.w	r3, #8192	; 0x2000
 8003650:	d803      	bhi.n	800365a <stm32__gpio__gpio_pinRP+0x72>
 8003652:	f5b3 5f80 	cmp.w	r3, #4096	; 0x1000
 8003656:	d01f      	beq.n	8003698 <stm32__gpio__gpio_pinRP+0xb0>
 8003658:	e026      	b.n	80036a8 <stm32__gpio__gpio_pinRP+0xc0>
 800365a:	f5b3 4f80 	cmp.w	r3, #16384	; 0x4000
 800365e:	d01f      	beq.n	80036a0 <stm32__gpio__gpio_pinRP+0xb8>
 8003660:	f5b3 4f00 	cmp.w	r3, #32768	; 0x8000
 8003664:	d01e      	beq.n	80036a4 <stm32__gpio__gpio_pinRP+0xbc>
 8003666:	e01f      	b.n	80036a8 <stm32__gpio__gpio_pinRP+0xc0>
 8003668:	2300      	movs	r3, #0
 800366a:	e026      	b.n	80036ba <stm32__gpio__gpio_pinRP+0xd2>
 800366c:	2301      	movs	r3, #1
 800366e:	e024      	b.n	80036ba <stm32__gpio__gpio_pinRP+0xd2>
 8003670:	2302      	movs	r3, #2
 8003672:	e022      	b.n	80036ba <stm32__gpio__gpio_pinRP+0xd2>
 8003674:	2303      	movs	r3, #3
 8003676:	e020      	b.n	80036ba <stm32__gpio__gpio_pinRP+0xd2>
 8003678:	2304      	movs	r3, #4
 800367a:	e01e      	b.n	80036ba <stm32__gpio__gpio_pinRP+0xd2>
 800367c:	2305      	movs	r3, #5
 800367e:	e01c      	b.n	80036ba <stm32__gpio__gpio_pinRP+0xd2>
 8003680:	2306      	movs	r3, #6
 8003682:	e01a      	b.n	80036ba <stm32__gpio__gpio_pinRP+0xd2>
 8003684:	2307      	movs	r3, #7
 8003686:	e018      	b.n	80036ba <stm32__gpio__gpio_pinRP+0xd2>
 8003688:	2308      	movs	r3, #8
 800368a:	e016      	b.n	80036ba <stm32__gpio__gpio_pinRP+0xd2>
 800368c:	2309      	movs	r3, #9
 800368e:	e014      	b.n	80036ba <stm32__gpio__gpio_pinRP+0xd2>
 8003690:	230a      	movs	r3, #10
 8003692:	e012      	b.n	80036ba <stm32__gpio__gpio_pinRP+0xd2>
 8003694:	230b      	movs	r3, #11
 8003696:	e010      	b.n	80036ba <stm32__gpio__gpio_pinRP+0xd2>
 8003698:	230c      	movs	r3, #12
 800369a:	e00e      	b.n	80036ba <stm32__gpio__gpio_pinRP+0xd2>
 800369c:	230d      	movs	r3, #13
 800369e:	e00c      	b.n	80036ba <stm32__gpio__gpio_pinRP+0xd2>
 80036a0:	230e      	movs	r3, #14
 80036a2:	e00a      	b.n	80036ba <stm32__gpio__gpio_pinRP+0xd2>
 80036a4:	230f      	movs	r3, #15
 80036a6:	e008      	b.n	80036ba <stm32__gpio__gpio_pinRP+0xd2>
 80036a8:	797b      	ldrb	r3, [r7, #5]
 80036aa:	2b00      	cmp	r3, #0
 80036ac:	d003      	beq.n	80036b6 <stm32__gpio__gpio_pinRP+0xce>
 80036ae:	4805      	ldr	r0, [pc, #20]	; (80036c4 <stm32__gpio__gpio_pinRP+0xdc>)
 80036b0:	2135      	movs	r1, #53	; 0x35
 80036b2:	f005 fcef 	bl	8009094 <__gnat_rcheck_CE_Invalid_Data>
 80036b6:	f04f 33ff 	mov.w	r3, #4294967295
 80036ba:	4618      	mov	r0, r3
 80036bc:	3708      	adds	r7, #8
 80036be:	46bd      	mov	sp, r7
 80036c0:	bd80      	pop	{r7, pc}
 80036c2:	bf00      	nop
 80036c4:	0800cce4 	.word	0x0800cce4

080036c8 <stm32__gpio__gpio_pointIP>:
 80036c8:	b580      	push	{r7, lr}
 80036ca:	b084      	sub	sp, #16
 80036cc:	af02      	add	r7, sp, #8
 80036ce:	6078      	str	r0, [r7, #4]
 80036d0:	460b      	mov	r3, r1
 80036d2:	70fb      	strb	r3, [r7, #3]
 80036d4:	78fb      	ldrb	r3, [r7, #3]
 80036d6:	2b00      	cmp	r3, #0
 80036d8:	d00b      	beq.n	80036f2 <stm32__gpio__gpio_pointIP+0x2a>
 80036da:	687b      	ldr	r3, [r7, #4]
 80036dc:	4a08      	ldr	r2, [pc, #32]	; (8003700 <stm32__gpio__gpio_pointIP+0x38>)
 80036de:	601a      	str	r2, [r3, #0]
 80036e0:	687a      	ldr	r2, [r7, #4]
 80036e2:	2300      	movs	r3, #0
 80036e4:	9300      	str	r3, [sp, #0]
 80036e6:	4610      	mov	r0, r2
 80036e8:	4906      	ldr	r1, [pc, #24]	; (8003704 <stm32__gpio__gpio_pointIP+0x3c>)
 80036ea:	2201      	movs	r2, #1
 80036ec:	2300      	movs	r3, #0
 80036ee:	f004 fb8d 	bl	8007e0c <ada__tags__register_interface_offset>
 80036f2:	687b      	ldr	r3, [r7, #4]
 80036f4:	2200      	movs	r2, #0
 80036f6:	605a      	str	r2, [r3, #4]
 80036f8:	3708      	adds	r7, #8
 80036fa:	46bd      	mov	sp, r7
 80036fc:	bd80      	pop	{r7, pc}
 80036fe:	bf00      	nop
 8003700:	0800ccac 	.word	0x0800ccac
 8003704:	0800d110 	.word	0x0800d110

08003708 <stm32__gpio___size__2>:
 8003708:	b490      	push	{r4, r7}
 800370a:	b082      	sub	sp, #8
 800370c:	af00      	add	r7, sp, #0
 800370e:	6078      	str	r0, [r7, #4]
 8003710:	f04f 0360 	mov.w	r3, #96	; 0x60
 8003714:	f04f 0400 	mov.w	r4, #0
 8003718:	4618      	mov	r0, r3
 800371a:	4621      	mov	r1, r4
 800371c:	3708      	adds	r7, #8
 800371e:	46bd      	mov	sp, r7
 8003720:	bc90      	pop	{r4, r7}
 8003722:	4770      	bx	lr

08003724 <stm32__gpio__gpio_pointSR__2>:
 8003724:	b580      	push	{r7, lr}
 8003726:	b084      	sub	sp, #16
 8003728:	af00      	add	r7, sp, #0
 800372a:	60f8      	str	r0, [r7, #12]
 800372c:	60b9      	str	r1, [r7, #8]
 800372e:	607a      	str	r2, [r7, #4]
 8003730:	68f8      	ldr	r0, [r7, #12]
 8003732:	f004 fba9 	bl	8007e88 <system__stream_attributes__i_as>
 8003736:	4603      	mov	r3, r0
 8003738:	461a      	mov	r2, r3
 800373a:	68bb      	ldr	r3, [r7, #8]
 800373c:	605a      	str	r2, [r3, #4]
 800373e:	68f8      	ldr	r0, [r7, #12]
 8003740:	f004 fbf6 	bl	8007f30 <system__stream_attributes__i_su>
 8003744:	4603      	mov	r3, r0
 8003746:	461a      	mov	r2, r3
 8003748:	68bb      	ldr	r3, [r7, #8]
 800374a:	811a      	strh	r2, [r3, #8]
 800374c:	3710      	adds	r7, #16
 800374e:	46bd      	mov	sp, r7
 8003750:	bd80      	pop	{r7, pc}
 8003752:	bf00      	nop

08003754 <stm32__gpio__gpio_pointSW__2>:
 8003754:	b580      	push	{r7, lr}
 8003756:	b084      	sub	sp, #16
 8003758:	af00      	add	r7, sp, #0
 800375a:	60f8      	str	r0, [r7, #12]
 800375c:	60b9      	str	r1, [r7, #8]
 800375e:	607a      	str	r2, [r7, #4]
 8003760:	68bb      	ldr	r3, [r7, #8]
 8003762:	68f8      	ldr	r0, [r7, #12]
 8003764:	6859      	ldr	r1, [r3, #4]
 8003766:	f004 fc1b 	bl	8007fa0 <system__stream_attributes__w_as>
 800376a:	68bb      	ldr	r3, [r7, #8]
 800376c:	891b      	ldrh	r3, [r3, #8]
 800376e:	68f8      	ldr	r0, [r7, #12]
 8003770:	4619      	mov	r1, r3
 8003772:	f004 fc41 	bl	8007ff8 <system__stream_attributes__w_su>
 8003776:	3710      	adds	r7, #16
 8003778:	46bd      	mov	sp, r7
 800377a:	bd80      	pop	{r7, pc}

0800377c <stm32__gpio__gpio_pointSI__2>:
 800377c:	b5b0      	push	{r4, r5, r7, lr}
 800377e:	b086      	sub	sp, #24
 8003780:	af00      	add	r7, sp, #0
 8003782:	6078      	str	r0, [r7, #4]
 8003784:	6039      	str	r1, [r7, #0]
 8003786:	f107 030c 	add.w	r3, r7, #12
 800378a:	4618      	mov	r0, r3
 800378c:	2101      	movs	r1, #1
 800378e:	f7ff ff9b 	bl	80036c8 <stm32__gpio__gpio_pointIP>
 8003792:	f107 030c 	add.w	r3, r7, #12
 8003796:	6878      	ldr	r0, [r7, #4]
 8003798:	4619      	mov	r1, r3
 800379a:	683a      	ldr	r2, [r7, #0]
 800379c:	f7ff ffc2 	bl	8003724 <stm32__gpio__gpio_pointSR__2>
 80037a0:	200c      	movs	r0, #12
 80037a2:	f005 fcef 	bl	8009184 <system__secondary_stack__ss_allocate>
 80037a6:	4605      	mov	r5, r0
 80037a8:	462b      	mov	r3, r5
 80037aa:	461c      	mov	r4, r3
 80037ac:	f107 030c 	add.w	r3, r7, #12
 80037b0:	e893 0007 	ldmia.w	r3, {r0, r1, r2}
 80037b4:	e884 0007 	stmia.w	r4, {r0, r1, r2}
 80037b8:	462b      	mov	r3, r5
 80037ba:	4618      	mov	r0, r3
 80037bc:	3718      	adds	r7, #24
 80037be:	46bd      	mov	sp, r7
 80037c0:	bdb0      	pop	{r4, r5, r7, pc}
 80037c2:	bf00      	nop

080037c4 <stm32__gpio__gpio_pointSO__2>:
 80037c4:	b580      	push	{r7, lr}
 80037c6:	b084      	sub	sp, #16
 80037c8:	af00      	add	r7, sp, #0
 80037ca:	60f8      	str	r0, [r7, #12]
 80037cc:	60b9      	str	r1, [r7, #8]
 80037ce:	607a      	str	r2, [r7, #4]
 80037d0:	68f8      	ldr	r0, [r7, #12]
 80037d2:	68b9      	ldr	r1, [r7, #8]
 80037d4:	687a      	ldr	r2, [r7, #4]
 80037d6:	f7ff ffbd 	bl	8003754 <stm32__gpio__gpio_pointSW__2>
 80037da:	3710      	adds	r7, #16
 80037dc:	46bd      	mov	sp, r7
 80037de:	bd80      	pop	{r7, pc}

080037e0 <stm32__gpio__Oeq>:
 80037e0:	b480      	push	{r7}
 80037e2:	b083      	sub	sp, #12
 80037e4:	af00      	add	r7, sp, #0
 80037e6:	6078      	str	r0, [r7, #4]
 80037e8:	6039      	str	r1, [r7, #0]
 80037ea:	687b      	ldr	r3, [r7, #4]
 80037ec:	685a      	ldr	r2, [r3, #4]
 80037ee:	683b      	ldr	r3, [r7, #0]
 80037f0:	685b      	ldr	r3, [r3, #4]
 80037f2:	429a      	cmp	r2, r3
 80037f4:	d107      	bne.n	8003806 <stm32__gpio__Oeq+0x26>
 80037f6:	687b      	ldr	r3, [r7, #4]
 80037f8:	891a      	ldrh	r2, [r3, #8]
 80037fa:	683b      	ldr	r3, [r7, #0]
 80037fc:	891b      	ldrh	r3, [r3, #8]
 80037fe:	429a      	cmp	r2, r3
 8003800:	d101      	bne.n	8003806 <stm32__gpio__Oeq+0x26>
 8003802:	2301      	movs	r3, #1
 8003804:	e000      	b.n	8003808 <stm32__gpio__Oeq+0x28>
 8003806:	2300      	movs	r3, #0
 8003808:	4618      	mov	r0, r3
 800380a:	370c      	adds	r7, #12
 800380c:	46bd      	mov	sp, r7
 800380e:	f85d 7b04 	ldr.w	r7, [sp], #4
 8003812:	4770      	bx	lr

08003814 <stm32__gpio___assign>:
 8003814:	b490      	push	{r4, r7}
 8003816:	b0ec      	sub	sp, #432	; 0x1b0
 8003818:	af00      	add	r7, sp, #0
 800381a:	1d3b      	adds	r3, r7, #4
 800381c:	6018      	str	r0, [r3, #0]
 800381e:	463b      	mov	r3, r7
 8003820:	6019      	str	r1, [r3, #0]
 8003822:	1d3b      	adds	r3, r7, #4
 8003824:	681a      	ldr	r2, [r3, #0]
 8003826:	463b      	mov	r3, r7
 8003828:	681b      	ldr	r3, [r3, #0]
 800382a:	429a      	cmp	r2, r3
 800382c:	d00d      	beq.n	800384a <stm32__gpio___assign+0x36>
 800382e:	1d3b      	adds	r3, r7, #4
 8003830:	681b      	ldr	r3, [r3, #0]
 8003832:	681c      	ldr	r4, [r3, #0]
 8003834:	1d3b      	adds	r3, r7, #4
 8003836:	6819      	ldr	r1, [r3, #0]
 8003838:	463b      	mov	r3, r7
 800383a:	681a      	ldr	r2, [r3, #0]
 800383c:	460b      	mov	r3, r1
 800383e:	ca07      	ldmia	r2, {r0, r1, r2}
 8003840:	e883 0007 	stmia.w	r3, {r0, r1, r2}
 8003844:	1d3b      	adds	r3, r7, #4
 8003846:	681b      	ldr	r3, [r3, #0]
 8003848:	601c      	str	r4, [r3, #0]
 800384a:	f507 77d8 	add.w	r7, r7, #432	; 0x1b0
 800384e:	46bd      	mov	sp, r7
 8003850:	bc90      	pop	{r4, r7}
 8003852:	4770      	bx	lr

08003854 <stm32__gpio__gpio_pointDA>:
 8003854:	b480      	push	{r7}
 8003856:	b083      	sub	sp, #12
 8003858:	af00      	add	r7, sp, #0
 800385a:	6078      	str	r0, [r7, #4]
 800385c:	460b      	mov	r3, r1
 800385e:	70fb      	strb	r3, [r7, #3]
 8003860:	370c      	adds	r7, #12
 8003862:	46bd      	mov	sp, r7
 8003864:	f85d 7b04 	ldr.w	r7, [sp], #4
 8003868:	4770      	bx	lr
 800386a:	bf00      	nop

0800386c <stm32__gpio__gpio_pointDF__2>:
 800386c:	b480      	push	{r7}
 800386e:	b083      	sub	sp, #12
 8003870:	af00      	add	r7, sp, #0
 8003872:	6078      	str	r0, [r7, #4]
 8003874:	460b      	mov	r3, r1
 8003876:	70fb      	strb	r3, [r7, #3]
 8003878:	370c      	adds	r7, #12
 800387a:	46bd      	mov	sp, r7
 800387c:	f85d 7b04 	ldr.w	r7, [sp], #4
 8003880:	4770      	bx	lr
 8003882:	bf00      	nop

08003884 <stm32__gpio__gpio_pointsIP>:
 8003884:	b5f0      	push	{r4, r5, r6, r7, lr}
 8003886:	b083      	sub	sp, #12
 8003888:	af00      	add	r7, sp, #0
 800388a:	e9c7 0100 	strd	r0, r1, [r7]
 800388e:	687b      	ldr	r3, [r7, #4]
 8003890:	681b      	ldr	r3, [r3, #0]
 8003892:	461e      	mov	r6, r3
 8003894:	687b      	ldr	r3, [r7, #4]
 8003896:	681c      	ldr	r4, [r3, #0]
 8003898:	687b      	ldr	r3, [r7, #4]
 800389a:	685d      	ldr	r5, [r3, #4]
 800389c:	42ac      	cmp	r4, r5
 800389e:	dc0f      	bgt.n	80038c0 <stm32__gpio__gpio_pointsIP+0x3c>
 80038a0:	6839      	ldr	r1, [r7, #0]
 80038a2:	4623      	mov	r3, r4
 80038a4:	1b9a      	subs	r2, r3, r6
 80038a6:	4613      	mov	r3, r2
 80038a8:	005b      	lsls	r3, r3, #1
 80038aa:	4413      	add	r3, r2
 80038ac:	009b      	lsls	r3, r3, #2
 80038ae:	440b      	add	r3, r1
 80038b0:	4618      	mov	r0, r3
 80038b2:	2101      	movs	r1, #1
 80038b4:	f7ff ff08 	bl	80036c8 <stm32__gpio__gpio_pointIP>
 80038b8:	42ac      	cmp	r4, r5
 80038ba:	d001      	beq.n	80038c0 <stm32__gpio__gpio_pointsIP+0x3c>
 80038bc:	3401      	adds	r4, #1
 80038be:	e7ef      	b.n	80038a0 <stm32__gpio__gpio_pointsIP+0x1c>
 80038c0:	370c      	adds	r7, #12
 80038c2:	46bd      	mov	sp, r7
 80038c4:	bdf0      	pop	{r4, r5, r6, r7, pc}
 80038c6:	bf00      	nop

080038c8 <stm32__gpio__mode>:
 80038c8:	b580      	push	{r7, lr}
 80038ca:	b084      	sub	sp, #16
 80038cc:	af00      	add	r7, sp, #0
 80038ce:	6078      	str	r0, [r7, #4]
 80038d0:	687b      	ldr	r3, [r7, #4]
 80038d2:	891b      	ldrh	r3, [r3, #8]
 80038d4:	4618      	mov	r0, r3
 80038d6:	2101      	movs	r1, #1
 80038d8:	f7ff fe86 	bl	80035e8 <stm32__gpio__gpio_pinRP>
 80038dc:	4603      	mov	r3, r0
 80038de:	2b00      	cmp	r3, #0
 80038e0:	db01      	blt.n	80038e6 <stm32__gpio__mode+0x1e>
 80038e2:	2b0f      	cmp	r3, #15
 80038e4:	dd03      	ble.n	80038ee <stm32__gpio__mode+0x26>
 80038e6:	481a      	ldr	r0, [pc, #104]	; (8003950 <stm32__gpio__mode+0x88>)
 80038e8:	2153      	movs	r1, #83	; 0x53
 80038ea:	f005 fbe3 	bl	80090b4 <__gnat_rcheck_CE_Range_Check>
 80038ee:	687b      	ldr	r3, [r7, #4]
 80038f0:	891b      	ldrh	r3, [r3, #8]
 80038f2:	4618      	mov	r0, r3
 80038f4:	2101      	movs	r1, #1
 80038f6:	f7ff fe77 	bl	80035e8 <stm32__gpio__gpio_pinRP>
 80038fa:	4603      	mov	r3, r0
 80038fc:	60fb      	str	r3, [r7, #12]
 80038fe:	687b      	ldr	r3, [r7, #4]
 8003900:	685b      	ldr	r3, [r3, #4]
 8003902:	2b00      	cmp	r3, #0
 8003904:	d103      	bne.n	800390e <stm32__gpio__mode+0x46>
 8003906:	4812      	ldr	r0, [pc, #72]	; (8003950 <stm32__gpio__mode+0x88>)
 8003908:	2155      	movs	r1, #85	; 0x55
 800390a:	f005 fba3 	bl	8009054 <__gnat_rcheck_CE_Access_Check>
 800390e:	687b      	ldr	r3, [r7, #4]
 8003910:	685b      	ldr	r3, [r3, #4]
 8003912:	681b      	ldr	r3, [r3, #0]
 8003914:	461a      	mov	r2, r3
 8003916:	68fb      	ldr	r3, [r7, #12]
 8003918:	005b      	lsls	r3, r3, #1
 800391a:	fa22 f303 	lsr.w	r3, r2, r3
 800391e:	b2db      	uxtb	r3, r3
 8003920:	f003 0303 	and.w	r3, r3, #3
 8003924:	b2db      	uxtb	r3, r3
 8003926:	2b03      	cmp	r3, #3
 8003928:	d903      	bls.n	8003932 <stm32__gpio__mode+0x6a>
 800392a:	4809      	ldr	r0, [pc, #36]	; (8003950 <stm32__gpio__mode+0x88>)
 800392c:	2155      	movs	r1, #85	; 0x55
 800392e:	f005 fbb1 	bl	8009094 <__gnat_rcheck_CE_Invalid_Data>
 8003932:	2b00      	cmp	r3, #0
 8003934:	d003      	beq.n	800393e <stm32__gpio__mode+0x76>
 8003936:	2b01      	cmp	r3, #1
 8003938:	d103      	bne.n	8003942 <stm32__gpio__mode+0x7a>
 800393a:	2302      	movs	r3, #2
 800393c:	e002      	b.n	8003944 <stm32__gpio__mode+0x7c>
 800393e:	2301      	movs	r3, #1
 8003940:	e000      	b.n	8003944 <stm32__gpio__mode+0x7c>
 8003942:	2300      	movs	r3, #0
 8003944:	bf00      	nop
 8003946:	4618      	mov	r0, r3
 8003948:	3710      	adds	r7, #16
 800394a:	46bd      	mov	sp, r7
 800394c:	bd80      	pop	{r7, pc}
 800394e:	bf00      	nop
 8003950:	0800ccf4 	.word	0x0800ccf4

08003954 <stm32__gpio__set_mode>:
 8003954:	b580      	push	{r7, lr}
 8003956:	b086      	sub	sp, #24
 8003958:	af00      	add	r7, sp, #0
 800395a:	6078      	str	r0, [r7, #4]
 800395c:	460b      	mov	r3, r1
 800395e:	70fb      	strb	r3, [r7, #3]
 8003960:	687b      	ldr	r3, [r7, #4]
 8003962:	891b      	ldrh	r3, [r3, #8]
 8003964:	4618      	mov	r0, r3
 8003966:	2101      	movs	r1, #1
 8003968:	f7ff fe3e 	bl	80035e8 <stm32__gpio__gpio_pinRP>
 800396c:	4603      	mov	r3, r0
 800396e:	2b00      	cmp	r3, #0
 8003970:	db01      	blt.n	8003976 <stm32__gpio__set_mode+0x22>
 8003972:	2b0f      	cmp	r3, #15
 8003974:	dd03      	ble.n	800397e <stm32__gpio__set_mode+0x2a>
 8003976:	482a      	ldr	r0, [pc, #168]	; (8003a20 <stm32__gpio__set_mode+0xcc>)
 8003978:	2166      	movs	r1, #102	; 0x66
 800397a:	f005 fb9b 	bl	80090b4 <__gnat_rcheck_CE_Range_Check>
 800397e:	617b      	str	r3, [r7, #20]
 8003980:	78fb      	ldrb	r3, [r7, #3]
 8003982:	2b00      	cmp	r3, #0
 8003984:	d002      	beq.n	800398c <stm32__gpio__set_mode+0x38>
 8003986:	78fb      	ldrb	r3, [r7, #3]
 8003988:	2b02      	cmp	r3, #2
 800398a:	d903      	bls.n	8003994 <stm32__gpio__set_mode+0x40>
 800398c:	4824      	ldr	r0, [pc, #144]	; (8003a20 <stm32__gpio__set_mode+0xcc>)
 800398e:	2168      	movs	r1, #104	; 0x68
 8003990:	f005 fb80 	bl	8009094 <__gnat_rcheck_CE_Invalid_Data>
 8003994:	78fb      	ldrb	r3, [r7, #3]
 8003996:	2b02      	cmp	r3, #2
 8003998:	d121      	bne.n	80039de <stm32__gpio__set_mode+0x8a>
 800399a:	687b      	ldr	r3, [r7, #4]
 800399c:	685b      	ldr	r3, [r3, #4]
 800399e:	2b00      	cmp	r3, #0
 80039a0:	d103      	bne.n	80039aa <stm32__gpio__set_mode+0x56>
 80039a2:	481f      	ldr	r0, [pc, #124]	; (8003a20 <stm32__gpio__set_mode+0xcc>)
 80039a4:	216a      	movs	r1, #106	; 0x6a
 80039a6:	f005 fb55 	bl	8009054 <__gnat_rcheck_CE_Access_Check>
 80039aa:	687b      	ldr	r3, [r7, #4]
 80039ac:	6859      	ldr	r1, [r3, #4]
 80039ae:	460b      	mov	r3, r1
 80039b0:	681b      	ldr	r3, [r3, #0]
 80039b2:	613b      	str	r3, [r7, #16]
 80039b4:	460b      	mov	r3, r1
 80039b6:	681b      	ldr	r3, [r3, #0]
 80039b8:	461a      	mov	r2, r3
 80039ba:	693a      	ldr	r2, [r7, #16]
 80039bc:	697b      	ldr	r3, [r7, #20]
 80039be:	005b      	lsls	r3, r3, #1
 80039c0:	2003      	movs	r0, #3
 80039c2:	fa00 f303 	lsl.w	r3, r0, r3
 80039c6:	43db      	mvns	r3, r3
 80039c8:	401a      	ands	r2, r3
 80039ca:	697b      	ldr	r3, [r7, #20]
 80039cc:	005b      	lsls	r3, r3, #1
 80039ce:	2001      	movs	r0, #1
 80039d0:	fa00 f303 	lsl.w	r3, r0, r3
 80039d4:	4313      	orrs	r3, r2
 80039d6:	461a      	mov	r2, r3
 80039d8:	460b      	mov	r3, r1
 80039da:	601a      	str	r2, [r3, #0]
 80039dc:	e01a      	b.n	8003a14 <stm32__gpio__set_mode+0xc0>
 80039de:	687b      	ldr	r3, [r7, #4]
 80039e0:	685b      	ldr	r3, [r3, #4]
 80039e2:	2b00      	cmp	r3, #0
 80039e4:	d103      	bne.n	80039ee <stm32__gpio__set_mode+0x9a>
 80039e6:	480e      	ldr	r0, [pc, #56]	; (8003a20 <stm32__gpio__set_mode+0xcc>)
 80039e8:	216c      	movs	r1, #108	; 0x6c
 80039ea:	f005 fb33 	bl	8009054 <__gnat_rcheck_CE_Access_Check>
 80039ee:	687b      	ldr	r3, [r7, #4]
 80039f0:	6859      	ldr	r1, [r3, #4]
 80039f2:	460b      	mov	r3, r1
 80039f4:	681b      	ldr	r3, [r3, #0]
 80039f6:	60fb      	str	r3, [r7, #12]
 80039f8:	460b      	mov	r3, r1
 80039fa:	681b      	ldr	r3, [r3, #0]
 80039fc:	461a      	mov	r2, r3
 80039fe:	68fa      	ldr	r2, [r7, #12]
 8003a00:	697b      	ldr	r3, [r7, #20]
 8003a02:	005b      	lsls	r3, r3, #1
 8003a04:	2003      	movs	r0, #3
 8003a06:	fa00 f303 	lsl.w	r3, r0, r3
 8003a0a:	43db      	mvns	r3, r3
 8003a0c:	4013      	ands	r3, r2
 8003a0e:	461a      	mov	r2, r3
 8003a10:	460b      	mov	r3, r1
 8003a12:	601a      	str	r2, [r3, #0]
 8003a14:	2301      	movs	r3, #1
 8003a16:	bf00      	nop
 8003a18:	4618      	mov	r0, r3
 8003a1a:	3718      	adds	r7, #24
 8003a1c:	46bd      	mov	sp, r7
 8003a1e:	bd80      	pop	{r7, pc}
 8003a20:	0800ccf4 	.word	0x0800ccf4

08003a24 <stm32__gpio__pull_resistor>:
 8003a24:	b580      	push	{r7, lr}
 8003a26:	b084      	sub	sp, #16
 8003a28:	af00      	add	r7, sp, #0
 8003a2a:	6078      	str	r0, [r7, #4]
 8003a2c:	687b      	ldr	r3, [r7, #4]
 8003a2e:	891b      	ldrh	r3, [r3, #8]
 8003a30:	4618      	mov	r0, r3
 8003a32:	2101      	movs	r1, #1
 8003a34:	f7ff fdd8 	bl	80035e8 <stm32__gpio__gpio_pinRP>
 8003a38:	4603      	mov	r3, r0
 8003a3a:	2b00      	cmp	r3, #0
 8003a3c:	db01      	blt.n	8003a42 <stm32__gpio__pull_resistor+0x1e>
 8003a3e:	2b0f      	cmp	r3, #15
 8003a40:	dd03      	ble.n	8003a4a <stm32__gpio__pull_resistor+0x26>
 8003a42:	4822      	ldr	r0, [pc, #136]	; (8003acc <stm32__gpio__pull_resistor+0xa8>)
 8003a44:	217a      	movs	r1, #122	; 0x7a
 8003a46:	f005 fb35 	bl	80090b4 <__gnat_rcheck_CE_Range_Check>
 8003a4a:	687b      	ldr	r3, [r7, #4]
 8003a4c:	891b      	ldrh	r3, [r3, #8]
 8003a4e:	4618      	mov	r0, r3
 8003a50:	2101      	movs	r1, #1
 8003a52:	f7ff fdc9 	bl	80035e8 <stm32__gpio__gpio_pinRP>
 8003a56:	4603      	mov	r3, r0
 8003a58:	60fb      	str	r3, [r7, #12]
 8003a5a:	687b      	ldr	r3, [r7, #4]
 8003a5c:	685b      	ldr	r3, [r3, #4]
 8003a5e:	2b00      	cmp	r3, #0
 8003a60:	d103      	bne.n	8003a6a <stm32__gpio__pull_resistor+0x46>
 8003a62:	481a      	ldr	r0, [pc, #104]	; (8003acc <stm32__gpio__pull_resistor+0xa8>)
 8003a64:	217c      	movs	r1, #124	; 0x7c
 8003a66:	f005 faf5 	bl	8009054 <__gnat_rcheck_CE_Access_Check>
 8003a6a:	687b      	ldr	r3, [r7, #4]
 8003a6c:	685b      	ldr	r3, [r3, #4]
 8003a6e:	330c      	adds	r3, #12
 8003a70:	681b      	ldr	r3, [r3, #0]
 8003a72:	461a      	mov	r2, r3
 8003a74:	68fb      	ldr	r3, [r7, #12]
 8003a76:	005b      	lsls	r3, r3, #1
 8003a78:	fa22 f303 	lsr.w	r3, r2, r3
 8003a7c:	b2db      	uxtb	r3, r3
 8003a7e:	f003 0303 	and.w	r3, r3, #3
 8003a82:	b2db      	uxtb	r3, r3
 8003a84:	2b00      	cmp	r3, #0
 8003a86:	d101      	bne.n	8003a8c <stm32__gpio__pull_resistor+0x68>
 8003a88:	2300      	movs	r3, #0
 8003a8a:	e019      	b.n	8003ac0 <stm32__gpio__pull_resistor+0x9c>
 8003a8c:	687b      	ldr	r3, [r7, #4]
 8003a8e:	685b      	ldr	r3, [r3, #4]
 8003a90:	2b00      	cmp	r3, #0
 8003a92:	d103      	bne.n	8003a9c <stm32__gpio__pull_resistor+0x78>
 8003a94:	480d      	ldr	r0, [pc, #52]	; (8003acc <stm32__gpio__pull_resistor+0xa8>)
 8003a96:	217e      	movs	r1, #126	; 0x7e
 8003a98:	f005 fadc 	bl	8009054 <__gnat_rcheck_CE_Access_Check>
 8003a9c:	687b      	ldr	r3, [r7, #4]
 8003a9e:	685b      	ldr	r3, [r3, #4]
 8003aa0:	330c      	adds	r3, #12
 8003aa2:	681b      	ldr	r3, [r3, #0]
 8003aa4:	461a      	mov	r2, r3
 8003aa6:	68fb      	ldr	r3, [r7, #12]
 8003aa8:	005b      	lsls	r3, r3, #1
 8003aaa:	fa22 f303 	lsr.w	r3, r2, r3
 8003aae:	b2db      	uxtb	r3, r3
 8003ab0:	f003 0303 	and.w	r3, r3, #3
 8003ab4:	b2db      	uxtb	r3, r3
 8003ab6:	2b01      	cmp	r3, #1
 8003ab8:	d101      	bne.n	8003abe <stm32__gpio__pull_resistor+0x9a>
 8003aba:	2301      	movs	r3, #1
 8003abc:	e000      	b.n	8003ac0 <stm32__gpio__pull_resistor+0x9c>
 8003abe:	2302      	movs	r3, #2
 8003ac0:	bf00      	nop
 8003ac2:	4618      	mov	r0, r3
 8003ac4:	3710      	adds	r7, #16
 8003ac6:	46bd      	mov	sp, r7
 8003ac8:	bd80      	pop	{r7, pc}
 8003aca:	bf00      	nop
 8003acc:	0800ccf4 	.word	0x0800ccf4

08003ad0 <stm32__gpio__set_pull_resistor>:
 8003ad0:	b580      	push	{r7, lr}
 8003ad2:	b086      	sub	sp, #24
 8003ad4:	af00      	add	r7, sp, #0
 8003ad6:	6078      	str	r0, [r7, #4]
 8003ad8:	460b      	mov	r3, r1
 8003ada:	70fb      	strb	r3, [r7, #3]
 8003adc:	687b      	ldr	r3, [r7, #4]
 8003ade:	891b      	ldrh	r3, [r3, #8]
 8003ae0:	4618      	mov	r0, r3
 8003ae2:	2101      	movs	r1, #1
 8003ae4:	f7ff fd80 	bl	80035e8 <stm32__gpio__gpio_pinRP>
 8003ae8:	4603      	mov	r3, r0
 8003aea:	2b00      	cmp	r3, #0
 8003aec:	db01      	blt.n	8003af2 <stm32__gpio__set_pull_resistor+0x22>
 8003aee:	2b0f      	cmp	r3, #15
 8003af0:	dd03      	ble.n	8003afa <stm32__gpio__set_pull_resistor+0x2a>
 8003af2:	483c      	ldr	r0, [pc, #240]	; (8003be4 <stm32__gpio__set_pull_resistor+0x114>)
 8003af4:	218f      	movs	r1, #143	; 0x8f
 8003af6:	f005 fadd 	bl	80090b4 <__gnat_rcheck_CE_Range_Check>
 8003afa:	617b      	str	r3, [r7, #20]
 8003afc:	78fb      	ldrb	r3, [r7, #3]
 8003afe:	2b02      	cmp	r3, #2
 8003b00:	d903      	bls.n	8003b0a <stm32__gpio__set_pull_resistor+0x3a>
 8003b02:	4838      	ldr	r0, [pc, #224]	; (8003be4 <stm32__gpio__set_pull_resistor+0x114>)
 8003b04:	2191      	movs	r1, #145	; 0x91
 8003b06:	f005 fac5 	bl	8009094 <__gnat_rcheck_CE_Invalid_Data>
 8003b0a:	78fb      	ldrb	r3, [r7, #3]
 8003b0c:	2b00      	cmp	r3, #0
 8003b0e:	d002      	beq.n	8003b16 <stm32__gpio__set_pull_resistor+0x46>
 8003b10:	2b01      	cmp	r3, #1
 8003b12:	d01c      	beq.n	8003b4e <stm32__gpio__set_pull_resistor+0x7e>
 8003b14:	e03d      	b.n	8003b92 <stm32__gpio__set_pull_resistor+0xc2>
 8003b16:	687b      	ldr	r3, [r7, #4]
 8003b18:	685b      	ldr	r3, [r3, #4]
 8003b1a:	2b00      	cmp	r3, #0
 8003b1c:	d103      	bne.n	8003b26 <stm32__gpio__set_pull_resistor+0x56>
 8003b1e:	4831      	ldr	r0, [pc, #196]	; (8003be4 <stm32__gpio__set_pull_resistor+0x114>)
 8003b20:	2193      	movs	r1, #147	; 0x93
 8003b22:	f005 fa97 	bl	8009054 <__gnat_rcheck_CE_Access_Check>
 8003b26:	687b      	ldr	r3, [r7, #4]
 8003b28:	685b      	ldr	r3, [r3, #4]
 8003b2a:	f103 020c 	add.w	r2, r3, #12
 8003b2e:	6812      	ldr	r2, [r2, #0]
 8003b30:	613a      	str	r2, [r7, #16]
 8003b32:	f103 020c 	add.w	r2, r3, #12
 8003b36:	6812      	ldr	r2, [r2, #0]
 8003b38:	6939      	ldr	r1, [r7, #16]
 8003b3a:	697a      	ldr	r2, [r7, #20]
 8003b3c:	0052      	lsls	r2, r2, #1
 8003b3e:	2003      	movs	r0, #3
 8003b40:	fa00 f202 	lsl.w	r2, r0, r2
 8003b44:	43d2      	mvns	r2, r2
 8003b46:	400a      	ands	r2, r1
 8003b48:	330c      	adds	r3, #12
 8003b4a:	601a      	str	r2, [r3, #0]
 8003b4c:	e042      	b.n	8003bd4 <stm32__gpio__set_pull_resistor+0x104>
 8003b4e:	687b      	ldr	r3, [r7, #4]
 8003b50:	685b      	ldr	r3, [r3, #4]
 8003b52:	2b00      	cmp	r3, #0
 8003b54:	d103      	bne.n	8003b5e <stm32__gpio__set_pull_resistor+0x8e>
 8003b56:	4823      	ldr	r0, [pc, #140]	; (8003be4 <stm32__gpio__set_pull_resistor+0x114>)
 8003b58:	2195      	movs	r1, #149	; 0x95
 8003b5a:	f005 fa7b 	bl	8009054 <__gnat_rcheck_CE_Access_Check>
 8003b5e:	687b      	ldr	r3, [r7, #4]
 8003b60:	685b      	ldr	r3, [r3, #4]
 8003b62:	f103 020c 	add.w	r2, r3, #12
 8003b66:	6812      	ldr	r2, [r2, #0]
 8003b68:	60fa      	str	r2, [r7, #12]
 8003b6a:	f103 020c 	add.w	r2, r3, #12
 8003b6e:	6812      	ldr	r2, [r2, #0]
 8003b70:	68f9      	ldr	r1, [r7, #12]
 8003b72:	697a      	ldr	r2, [r7, #20]
 8003b74:	0052      	lsls	r2, r2, #1
 8003b76:	2003      	movs	r0, #3
 8003b78:	fa00 f202 	lsl.w	r2, r0, r2
 8003b7c:	43d2      	mvns	r2, r2
 8003b7e:	4011      	ands	r1, r2
 8003b80:	697a      	ldr	r2, [r7, #20]
 8003b82:	0052      	lsls	r2, r2, #1
 8003b84:	2001      	movs	r0, #1
 8003b86:	fa00 f202 	lsl.w	r2, r0, r2
 8003b8a:	430a      	orrs	r2, r1
 8003b8c:	330c      	adds	r3, #12
 8003b8e:	601a      	str	r2, [r3, #0]
 8003b90:	e020      	b.n	8003bd4 <stm32__gpio__set_pull_resistor+0x104>
 8003b92:	687b      	ldr	r3, [r7, #4]
 8003b94:	685b      	ldr	r3, [r3, #4]
 8003b96:	2b00      	cmp	r3, #0
 8003b98:	d103      	bne.n	8003ba2 <stm32__gpio__set_pull_resistor+0xd2>
 8003b9a:	4812      	ldr	r0, [pc, #72]	; (8003be4 <stm32__gpio__set_pull_resistor+0x114>)
 8003b9c:	2197      	movs	r1, #151	; 0x97
 8003b9e:	f005 fa59 	bl	8009054 <__gnat_rcheck_CE_Access_Check>
 8003ba2:	687b      	ldr	r3, [r7, #4]
 8003ba4:	685b      	ldr	r3, [r3, #4]
 8003ba6:	f103 020c 	add.w	r2, r3, #12
 8003baa:	6812      	ldr	r2, [r2, #0]
 8003bac:	60ba      	str	r2, [r7, #8]
 8003bae:	f103 020c 	add.w	r2, r3, #12
 8003bb2:	6812      	ldr	r2, [r2, #0]
 8003bb4:	68b9      	ldr	r1, [r7, #8]
 8003bb6:	697a      	ldr	r2, [r7, #20]
 8003bb8:	0052      	lsls	r2, r2, #1
 8003bba:	2003      	movs	r0, #3
 8003bbc:	fa00 f202 	lsl.w	r2, r0, r2
 8003bc0:	43d2      	mvns	r2, r2
 8003bc2:	4011      	ands	r1, r2
 8003bc4:	697a      	ldr	r2, [r7, #20]
 8003bc6:	0052      	lsls	r2, r2, #1
 8003bc8:	2002      	movs	r0, #2
 8003bca:	fa00 f202 	lsl.w	r2, r0, r2
 8003bce:	430a      	orrs	r2, r1
 8003bd0:	330c      	adds	r3, #12
 8003bd2:	601a      	str	r2, [r3, #0]
 8003bd4:	bf00      	nop
 8003bd6:	2301      	movs	r3, #1
 8003bd8:	bf00      	nop
 8003bda:	4618      	mov	r0, r3
 8003bdc:	3718      	adds	r7, #24
 8003bde:	46bd      	mov	sp, r7
 8003be0:	bd80      	pop	{r7, pc}
 8003be2:	bf00      	nop
 8003be4:	0800ccf4 	.word	0x0800ccf4

08003be8 <stm32__gpio__set>:
 8003be8:	b580      	push	{r7, lr}
 8003bea:	b084      	sub	sp, #16
 8003bec:	af00      	add	r7, sp, #0
 8003bee:	6078      	str	r0, [r7, #4]
 8003bf0:	687b      	ldr	r3, [r7, #4]
 8003bf2:	891b      	ldrh	r3, [r3, #8]
 8003bf4:	81fb      	strh	r3, [r7, #14]
 8003bf6:	687b      	ldr	r3, [r7, #4]
 8003bf8:	685b      	ldr	r3, [r3, #4]
 8003bfa:	2b00      	cmp	r3, #0
 8003bfc:	d103      	bne.n	8003c06 <stm32__gpio__set+0x1e>
 8003bfe:	480b      	ldr	r0, [pc, #44]	; (8003c2c <stm32__gpio__set+0x44>)
 8003c00:	21a4      	movs	r1, #164	; 0xa4
 8003c02:	f005 fa27 	bl	8009054 <__gnat_rcheck_CE_Access_Check>
 8003c06:	687b      	ldr	r3, [r7, #4]
 8003c08:	685b      	ldr	r3, [r3, #4]
 8003c0a:	3310      	adds	r3, #16
 8003c0c:	681b      	ldr	r3, [r3, #0]
 8003c0e:	b29a      	uxth	r2, r3
 8003c10:	89fb      	ldrh	r3, [r7, #14]
 8003c12:	4013      	ands	r3, r2
 8003c14:	b29b      	uxth	r3, r3
 8003c16:	89fa      	ldrh	r2, [r7, #14]
 8003c18:	429a      	cmp	r2, r3
 8003c1a:	bf0c      	ite	eq
 8003c1c:	2301      	moveq	r3, #1
 8003c1e:	2300      	movne	r3, #0
 8003c20:	b2db      	uxtb	r3, r3
 8003c22:	bf00      	nop
 8003c24:	4618      	mov	r0, r3
 8003c26:	3710      	adds	r7, #16
 8003c28:	46bd      	mov	sp, r7
 8003c2a:	bd80      	pop	{r7, pc}
 8003c2c:	0800ccf4 	.word	0x0800ccf4

08003c30 <stm32__gpio__set__2>:
 8003c30:	b5b0      	push	{r4, r5, r7, lr}
 8003c32:	b082      	sub	sp, #8
 8003c34:	af00      	add	r7, sp, #0
 8003c36:	6078      	str	r0, [r7, #4]
 8003c38:	6878      	ldr	r0, [r7, #4]
 8003c3a:	f7ff fe45 	bl	80038c8 <stm32__gpio__mode>
 8003c3e:	4603      	mov	r3, r0
 8003c40:	2b02      	cmp	r3, #2
 8003c42:	d005      	beq.n	8003c50 <stm32__gpio__set__2+0x20>
 8003c44:	4c0e      	ldr	r4, [pc, #56]	; (8003c80 <stm32__gpio__set__2+0x50>)
 8003c46:	4d0f      	ldr	r5, [pc, #60]	; (8003c84 <stm32__gpio__set__2+0x54>)
 8003c48:	4620      	mov	r0, r4
 8003c4a:	4629      	mov	r1, r5
 8003c4c:	f004 fc5a 	bl	8008504 <system__assertions__raise_assert_failure>
 8003c50:	687b      	ldr	r3, [r7, #4]
 8003c52:	685b      	ldr	r3, [r3, #4]
 8003c54:	2b00      	cmp	r3, #0
 8003c56:	d103      	bne.n	8003c60 <stm32__gpio__set__2+0x30>
 8003c58:	480b      	ldr	r0, [pc, #44]	; (8003c88 <stm32__gpio__set__2+0x58>)
 8003c5a:	21bd      	movs	r1, #189	; 0xbd
 8003c5c:	f005 f9fa 	bl	8009054 <__gnat_rcheck_CE_Access_Check>
 8003c60:	687b      	ldr	r3, [r7, #4]
 8003c62:	685b      	ldr	r3, [r3, #4]
 8003c64:	3318      	adds	r3, #24
 8003c66:	681b      	ldr	r3, [r3, #0]
 8003c68:	687a      	ldr	r2, [r7, #4]
 8003c6a:	8912      	ldrh	r2, [r2, #8]
 8003c6c:	f362 030f 	bfi	r3, r2, #0, #16
 8003c70:	687a      	ldr	r2, [r7, #4]
 8003c72:	6852      	ldr	r2, [r2, #4]
 8003c74:	3218      	adds	r2, #24
 8003c76:	6013      	str	r3, [r2, #0]
 8003c78:	3708      	adds	r7, #8
 8003c7a:	46bd      	mov	sp, r7
 8003c7c:	bdb0      	pop	{r4, r5, r7, pc}
 8003c7e:	bf00      	nop
 8003c80:	0800cd04 	.word	0x0800cd04
 8003c84:	0800cd38 	.word	0x0800cd38
 8003c88:	0800ccf4 	.word	0x0800ccf4

08003c8c <stm32__gpio__clear>:
 8003c8c:	b5b0      	push	{r4, r5, r7, lr}
 8003c8e:	b082      	sub	sp, #8
 8003c90:	af00      	add	r7, sp, #0
 8003c92:	6078      	str	r0, [r7, #4]
 8003c94:	6878      	ldr	r0, [r7, #4]
 8003c96:	f7ff fe17 	bl	80038c8 <stm32__gpio__mode>
 8003c9a:	4603      	mov	r3, r0
 8003c9c:	2b02      	cmp	r3, #2
 8003c9e:	d005      	beq.n	8003cac <stm32__gpio__clear+0x20>
 8003ca0:	4c0e      	ldr	r4, [pc, #56]	; (8003cdc <stm32__gpio__clear+0x50>)
 8003ca2:	4d0f      	ldr	r5, [pc, #60]	; (8003ce0 <stm32__gpio__clear+0x54>)
 8003ca4:	4620      	mov	r0, r4
 8003ca6:	4629      	mov	r1, r5
 8003ca8:	f004 fc2c 	bl	8008504 <system__assertions__raise_assert_failure>
 8003cac:	687b      	ldr	r3, [r7, #4]
 8003cae:	685b      	ldr	r3, [r3, #4]
 8003cb0:	2b00      	cmp	r3, #0
 8003cb2:	d103      	bne.n	8003cbc <stm32__gpio__clear+0x30>
 8003cb4:	480b      	ldr	r0, [pc, #44]	; (8003ce4 <stm32__gpio__clear+0x58>)
 8003cb6:	21d4      	movs	r1, #212	; 0xd4
 8003cb8:	f005 f9cc 	bl	8009054 <__gnat_rcheck_CE_Access_Check>
 8003cbc:	687b      	ldr	r3, [r7, #4]
 8003cbe:	685b      	ldr	r3, [r3, #4]
 8003cc0:	3318      	adds	r3, #24
 8003cc2:	681b      	ldr	r3, [r3, #0]
 8003cc4:	687a      	ldr	r2, [r7, #4]
 8003cc6:	8912      	ldrh	r2, [r2, #8]
 8003cc8:	f362 431f 	bfi	r3, r2, #16, #16
 8003ccc:	687a      	ldr	r2, [r7, #4]
 8003cce:	6852      	ldr	r2, [r2, #4]
 8003cd0:	3218      	adds	r2, #24
 8003cd2:	6013      	str	r3, [r2, #0]
 8003cd4:	3708      	adds	r7, #8
 8003cd6:	46bd      	mov	sp, r7
 8003cd8:	bdb0      	pop	{r4, r5, r7, pc}
 8003cda:	bf00      	nop
 8003cdc:	0800cd40 	.word	0x0800cd40
 8003ce0:	0800cd38 	.word	0x0800cd38
 8003ce4:	0800ccf4 	.word	0x0800ccf4

08003ce8 <stm32__gpio__toggle>:
 8003ce8:	b5b0      	push	{r4, r5, r7, lr}
 8003cea:	b082      	sub	sp, #8
 8003cec:	af00      	add	r7, sp, #0
 8003cee:	6078      	str	r0, [r7, #4]
 8003cf0:	6878      	ldr	r0, [r7, #4]
 8003cf2:	f7ff fde9 	bl	80038c8 <stm32__gpio__mode>
 8003cf6:	4603      	mov	r3, r0
 8003cf8:	2b02      	cmp	r3, #2
 8003cfa:	d005      	beq.n	8003d08 <stm32__gpio__toggle+0x20>
 8003cfc:	4c15      	ldr	r4, [pc, #84]	; (8003d54 <stm32__gpio__toggle+0x6c>)
 8003cfe:	4d16      	ldr	r5, [pc, #88]	; (8003d58 <stm32__gpio__toggle+0x70>)
 8003d00:	4620      	mov	r0, r4
 8003d02:	4629      	mov	r1, r5
 8003d04:	f004 fbfe 	bl	8008504 <system__assertions__raise_assert_failure>
 8003d08:	687b      	ldr	r3, [r7, #4]
 8003d0a:	685b      	ldr	r3, [r3, #4]
 8003d0c:	2b00      	cmp	r3, #0
 8003d0e:	d103      	bne.n	8003d18 <stm32__gpio__toggle+0x30>
 8003d10:	4812      	ldr	r0, [pc, #72]	; (8003d5c <stm32__gpio__toggle+0x74>)
 8003d12:	21eb      	movs	r1, #235	; 0xeb
 8003d14:	f005 f99e 	bl	8009054 <__gnat_rcheck_CE_Access_Check>
 8003d18:	687b      	ldr	r3, [r7, #4]
 8003d1a:	685b      	ldr	r3, [r3, #4]
 8003d1c:	2b00      	cmp	r3, #0
 8003d1e:	d103      	bne.n	8003d28 <stm32__gpio__toggle+0x40>
 8003d20:	480e      	ldr	r0, [pc, #56]	; (8003d5c <stm32__gpio__toggle+0x74>)
 8003d22:	21eb      	movs	r1, #235	; 0xeb
 8003d24:	f005 f996 	bl	8009054 <__gnat_rcheck_CE_Access_Check>
 8003d28:	687b      	ldr	r3, [r7, #4]
 8003d2a:	685b      	ldr	r3, [r3, #4]
 8003d2c:	3314      	adds	r3, #20
 8003d2e:	681b      	ldr	r3, [r3, #0]
 8003d30:	687a      	ldr	r2, [r7, #4]
 8003d32:	6852      	ldr	r2, [r2, #4]
 8003d34:	3214      	adds	r2, #20
 8003d36:	6812      	ldr	r2, [r2, #0]
 8003d38:	b291      	uxth	r1, r2
 8003d3a:	687a      	ldr	r2, [r7, #4]
 8003d3c:	8912      	ldrh	r2, [r2, #8]
 8003d3e:	404a      	eors	r2, r1
 8003d40:	b292      	uxth	r2, r2
 8003d42:	f362 030f 	bfi	r3, r2, #0, #16
 8003d46:	687a      	ldr	r2, [r7, #4]
 8003d48:	6852      	ldr	r2, [r2, #4]
 8003d4a:	3214      	adds	r2, #20
 8003d4c:	6013      	str	r3, [r2, #0]
 8003d4e:	3708      	adds	r7, #8
 8003d50:	46bd      	mov	sp, r7
 8003d52:	bdb0      	pop	{r4, r5, r7, pc}
 8003d54:	0800cd74 	.word	0x0800cd74
 8003d58:	0800cd38 	.word	0x0800cd38
 8003d5c:	0800ccf4 	.word	0x0800ccf4

08003d60 <stm32__gpio__toggle__2>:
 8003d60:	b5f0      	push	{r4, r5, r6, r7, lr}
 8003d62:	b085      	sub	sp, #20
 8003d64:	af00      	add	r7, sp, #0
 8003d66:	e9c7 0100 	strd	r0, r1, [r7]
 8003d6a:	687b      	ldr	r3, [r7, #4]
 8003d6c:	681b      	ldr	r3, [r3, #0]
 8003d6e:	461e      	mov	r6, r3
 8003d70:	687b      	ldr	r3, [r7, #4]
 8003d72:	681c      	ldr	r4, [r3, #0]
 8003d74:	687b      	ldr	r3, [r7, #4]
 8003d76:	685d      	ldr	r5, [r3, #4]
 8003d78:	42ac      	cmp	r4, r5
 8003d7a:	dc16      	bgt.n	8003daa <stm32__gpio__toggle__2+0x4a>
 8003d7c:	6838      	ldr	r0, [r7, #0]
 8003d7e:	4622      	mov	r2, r4
 8003d80:	1b91      	subs	r1, r2, r6
 8003d82:	460b      	mov	r3, r1
 8003d84:	005b      	lsls	r3, r3, #1
 8003d86:	440b      	add	r3, r1
 8003d88:	009b      	lsls	r3, r3, #2
 8003d8a:	4403      	add	r3, r0
 8003d8c:	60fb      	str	r3, [r7, #12]
 8003d8e:	6839      	ldr	r1, [r7, #0]
 8003d90:	1b92      	subs	r2, r2, r6
 8003d92:	4613      	mov	r3, r2
 8003d94:	005b      	lsls	r3, r3, #1
 8003d96:	4413      	add	r3, r2
 8003d98:	009b      	lsls	r3, r3, #2
 8003d9a:	440b      	add	r3, r1
 8003d9c:	4618      	mov	r0, r3
 8003d9e:	f7ff ffa3 	bl	8003ce8 <stm32__gpio__toggle>
 8003da2:	42ac      	cmp	r4, r5
 8003da4:	d001      	beq.n	8003daa <stm32__gpio__toggle__2+0x4a>
 8003da6:	3401      	adds	r4, #1
 8003da8:	e7e8      	b.n	8003d7c <stm32__gpio__toggle__2+0x1c>
 8003daa:	3714      	adds	r7, #20
 8003dac:	46bd      	mov	sp, r7
 8003dae:	bdf0      	pop	{r4, r5, r6, r7, pc}

08003db0 <stm32__gpio__locked>:
 8003db0:	b580      	push	{r7, lr}
 8003db2:	b084      	sub	sp, #16
 8003db4:	af00      	add	r7, sp, #0
 8003db6:	6078      	str	r0, [r7, #4]
 8003db8:	687b      	ldr	r3, [r7, #4]
 8003dba:	891b      	ldrh	r3, [r3, #8]
 8003dbc:	81fb      	strh	r3, [r7, #14]
 8003dbe:	687b      	ldr	r3, [r7, #4]
 8003dc0:	685b      	ldr	r3, [r3, #4]
 8003dc2:	2b00      	cmp	r3, #0
 8003dc4:	d104      	bne.n	8003dd0 <stm32__gpio__locked+0x20>
 8003dc6:	480c      	ldr	r0, [pc, #48]	; (8003df8 <stm32__gpio__locked+0x48>)
 8003dc8:	f44f 7180 	mov.w	r1, #256	; 0x100
 8003dcc:	f005 f942 	bl	8009054 <__gnat_rcheck_CE_Access_Check>
 8003dd0:	687b      	ldr	r3, [r7, #4]
 8003dd2:	685b      	ldr	r3, [r3, #4]
 8003dd4:	331c      	adds	r3, #28
 8003dd6:	681b      	ldr	r3, [r3, #0]
 8003dd8:	b29a      	uxth	r2, r3
 8003dda:	89fb      	ldrh	r3, [r7, #14]
 8003ddc:	4013      	ands	r3, r2
 8003dde:	b29b      	uxth	r3, r3
 8003de0:	89fa      	ldrh	r2, [r7, #14]
 8003de2:	429a      	cmp	r2, r3
 8003de4:	bf0c      	ite	eq
 8003de6:	2301      	moveq	r3, #1
 8003de8:	2300      	movne	r3, #0
 8003dea:	b2db      	uxtb	r3, r3
 8003dec:	bf00      	nop
 8003dee:	4618      	mov	r0, r3
 8003df0:	3710      	adds	r7, #16
 8003df2:	46bd      	mov	sp, r7
 8003df4:	bd80      	pop	{r7, pc}
 8003df6:	bf00      	nop
 8003df8:	0800ccf4 	.word	0x0800ccf4

08003dfc <stm32__gpio__lock_the_pin>:
 8003dfc:	b480      	push	{r7}
 8003dfe:	b085      	sub	sp, #20
 8003e00:	af00      	add	r7, sp, #0
 8003e02:	6078      	str	r0, [r7, #4]
 8003e04:	460b      	mov	r3, r1
 8003e06:	807b      	strh	r3, [r7, #2]
 8003e08:	6879      	ldr	r1, [r7, #4]
 8003e0a:	8878      	ldrh	r0, [r7, #2]
 8003e0c:	f440 3380 	orr.w	r3, r0, #65536	; 0x10000
 8003e10:	60fb      	str	r3, [r7, #12]
 8003e12:	68fb      	ldr	r3, [r7, #12]
 8003e14:	61cb      	str	r3, [r1, #28]
 8003e16:	61c8      	str	r0, [r1, #28]
 8003e18:	68fb      	ldr	r3, [r7, #12]
 8003e1a:	61cb      	str	r3, [r1, #28]
 8003e1c:	69cb      	ldr	r3, [r1, #28]
 8003e1e:	60fb      	str	r3, [r7, #12]
 8003e20:	69cb      	ldr	r3, [r1, #28]
 8003e22:	60fb      	str	r3, [r7, #12]
 8003e24:	3714      	adds	r7, #20
 8003e26:	46bd      	mov	sp, r7
 8003e28:	f85d 7b04 	ldr.w	r7, [sp], #4
 8003e2c:	4770      	bx	lr
 8003e2e:	bf00      	nop

08003e30 <stm32__gpio__lock___postconditions.5851>:
 8003e30:	b5b0      	push	{r4, r5, r7, lr}
 8003e32:	b082      	sub	sp, #8
 8003e34:	af00      	add	r7, sp, #0
 8003e36:	4663      	mov	r3, ip
 8003e38:	f8c7 c004 	str.w	ip, [r7, #4]
 8003e3c:	681b      	ldr	r3, [r3, #0]
 8003e3e:	4618      	mov	r0, r3
 8003e40:	f7ff ffb6 	bl	8003db0 <stm32__gpio__locked>
 8003e44:	4603      	mov	r3, r0
 8003e46:	f083 0301 	eor.w	r3, r3, #1
 8003e4a:	b2db      	uxtb	r3, r3
 8003e4c:	2b00      	cmp	r3, #0
 8003e4e:	d005      	beq.n	8003e5c <stm32__gpio__lock___postconditions.5851+0x2c>
 8003e50:	4c04      	ldr	r4, [pc, #16]	; (8003e64 <stm32__gpio__lock___postconditions.5851+0x34>)
 8003e52:	4d05      	ldr	r5, [pc, #20]	; (8003e68 <stm32__gpio__lock___postconditions.5851+0x38>)
 8003e54:	4620      	mov	r0, r4
 8003e56:	4629      	mov	r1, r5
 8003e58:	f004 fb54 	bl	8008504 <system__assertions__raise_assert_failure>
 8003e5c:	3708      	adds	r7, #8
 8003e5e:	46bd      	mov	sp, r7
 8003e60:	bdb0      	pop	{r4, r5, r7, pc}
 8003e62:	bf00      	nop
 8003e64:	0800cda8 	.word	0x0800cda8
 8003e68:	0800cdd4 	.word	0x0800cdd4

08003e6c <stm32__gpio__lock>:
 8003e6c:	b5b0      	push	{r4, r5, r7, lr}
 8003e6e:	b084      	sub	sp, #16
 8003e70:	af00      	add	r7, sp, #0
 8003e72:	6078      	str	r0, [r7, #4]
 8003e74:	f107 0320 	add.w	r3, r7, #32
 8003e78:	60fb      	str	r3, [r7, #12]
 8003e7a:	687b      	ldr	r3, [r7, #4]
 8003e7c:	60bb      	str	r3, [r7, #8]
 8003e7e:	68bb      	ldr	r3, [r7, #8]
 8003e80:	4618      	mov	r0, r3
 8003e82:	f7ff ff95 	bl	8003db0 <stm32__gpio__locked>
 8003e86:	4603      	mov	r3, r0
 8003e88:	2b00      	cmp	r3, #0
 8003e8a:	d005      	beq.n	8003e98 <stm32__gpio__lock+0x2c>
 8003e8c:	4c0f      	ldr	r4, [pc, #60]	; (8003ecc <stm32__gpio__lock+0x60>)
 8003e8e:	4d10      	ldr	r5, [pc, #64]	; (8003ed0 <stm32__gpio__lock+0x64>)
 8003e90:	4620      	mov	r0, r4
 8003e92:	4629      	mov	r1, r5
 8003e94:	f004 fb36 	bl	8008504 <system__assertions__raise_assert_failure>
 8003e98:	68bb      	ldr	r3, [r7, #8]
 8003e9a:	685b      	ldr	r3, [r3, #4]
 8003e9c:	2b00      	cmp	r3, #0
 8003e9e:	d104      	bne.n	8003eaa <stm32__gpio__lock+0x3e>
 8003ea0:	480c      	ldr	r0, [pc, #48]	; (8003ed4 <stm32__gpio__lock+0x68>)
 8003ea2:	f44f 71a2 	mov.w	r1, #324	; 0x144
 8003ea6:	f005 f8d5 	bl	8009054 <__gnat_rcheck_CE_Access_Check>
 8003eaa:	68bb      	ldr	r3, [r7, #8]
 8003eac:	685a      	ldr	r2, [r3, #4]
 8003eae:	68bb      	ldr	r3, [r7, #8]
 8003eb0:	891b      	ldrh	r3, [r3, #8]
 8003eb2:	4610      	mov	r0, r2
 8003eb4:	4619      	mov	r1, r3
 8003eb6:	f7ff ffa1 	bl	8003dfc <stm32__gpio__lock_the_pin>
 8003eba:	f107 0308 	add.w	r3, r7, #8
 8003ebe:	469c      	mov	ip, r3
 8003ec0:	f7ff ffb6 	bl	8003e30 <stm32__gpio__lock___postconditions.5851>
 8003ec4:	3710      	adds	r7, #16
 8003ec6:	46bd      	mov	sp, r7
 8003ec8:	bdb0      	pop	{r4, r5, r7, pc}
 8003eca:	bf00      	nop
 8003ecc:	0800cddc 	.word	0x0800cddc
 8003ed0:	0800ce08 	.word	0x0800ce08
 8003ed4:	0800ccf4 	.word	0x0800ccf4

08003ed8 <stm32__gpio__configure_io>:
 8003ed8:	b580      	push	{r7, lr}
 8003eda:	b088      	sub	sp, #32
 8003edc:	af00      	add	r7, sp, #0
 8003ede:	6078      	str	r0, [r7, #4]
 8003ee0:	6039      	str	r1, [r7, #0]
 8003ee2:	687b      	ldr	r3, [r7, #4]
 8003ee4:	891b      	ldrh	r3, [r3, #8]
 8003ee6:	4618      	mov	r0, r3
 8003ee8:	2101      	movs	r1, #1
 8003eea:	f7ff fb7d 	bl	80035e8 <stm32__gpio__gpio_pinRP>
 8003eee:	4603      	mov	r3, r0
 8003ef0:	2b00      	cmp	r3, #0
 8003ef2:	db01      	blt.n	8003ef8 <stm32__gpio__configure_io+0x20>
 8003ef4:	2b0f      	cmp	r3, #15
 8003ef6:	dd04      	ble.n	8003f02 <stm32__gpio__configure_io+0x2a>
 8003ef8:	4858      	ldr	r0, [pc, #352]	; (800405c <stm32__gpio__configure_io+0x184>)
 8003efa:	f44f 71ae 	mov.w	r1, #348	; 0x15c
 8003efe:	f005 f8d9 	bl	80090b4 <__gnat_rcheck_CE_Range_Check>
 8003f02:	687b      	ldr	r3, [r7, #4]
 8003f04:	891b      	ldrh	r3, [r3, #8]
 8003f06:	4618      	mov	r0, r3
 8003f08:	2101      	movs	r1, #1
 8003f0a:	f7ff fb6d 	bl	80035e8 <stm32__gpio__gpio_pinRP>
 8003f0e:	4603      	mov	r3, r0
 8003f10:	61fb      	str	r3, [r7, #28]
 8003f12:	687b      	ldr	r3, [r7, #4]
 8003f14:	685b      	ldr	r3, [r3, #4]
 8003f16:	2b00      	cmp	r3, #0
 8003f18:	d104      	bne.n	8003f24 <stm32__gpio__configure_io+0x4c>
 8003f1a:	4850      	ldr	r0, [pc, #320]	; (800405c <stm32__gpio__configure_io+0x184>)
 8003f1c:	f44f 71af 	mov.w	r1, #350	; 0x15e
 8003f20:	f005 f898 	bl	8009054 <__gnat_rcheck_CE_Access_Check>
 8003f24:	687b      	ldr	r3, [r7, #4]
 8003f26:	685b      	ldr	r3, [r3, #4]
 8003f28:	681b      	ldr	r3, [r3, #0]
 8003f2a:	61bb      	str	r3, [r7, #24]
 8003f2c:	687b      	ldr	r3, [r7, #4]
 8003f2e:	685b      	ldr	r3, [r3, #4]
 8003f30:	681b      	ldr	r3, [r3, #0]
 8003f32:	461a      	mov	r2, r3
 8003f34:	69ba      	ldr	r2, [r7, #24]
 8003f36:	69fb      	ldr	r3, [r7, #28]
 8003f38:	005b      	lsls	r3, r3, #1
 8003f3a:	2103      	movs	r1, #3
 8003f3c:	fa01 f303 	lsl.w	r3, r1, r3
 8003f40:	43db      	mvns	r3, r3
 8003f42:	401a      	ands	r2, r3
 8003f44:	783b      	ldrb	r3, [r7, #0]
 8003f46:	4619      	mov	r1, r3
 8003f48:	69fb      	ldr	r3, [r7, #28]
 8003f4a:	005b      	lsls	r3, r3, #1
 8003f4c:	fa01 f303 	lsl.w	r3, r1, r3
 8003f50:	4313      	orrs	r3, r2
 8003f52:	461a      	mov	r2, r3
 8003f54:	687b      	ldr	r3, [r7, #4]
 8003f56:	685b      	ldr	r3, [r3, #4]
 8003f58:	601a      	str	r2, [r3, #0]
 8003f5a:	687b      	ldr	r3, [r7, #4]
 8003f5c:	685b      	ldr	r3, [r3, #4]
 8003f5e:	2b00      	cmp	r3, #0
 8003f60:	d104      	bne.n	8003f6c <stm32__gpio__configure_io+0x94>
 8003f62:	483e      	ldr	r0, [pc, #248]	; (800405c <stm32__gpio__configure_io+0x184>)
 8003f64:	f240 115f 	movw	r1, #351	; 0x15f
 8003f68:	f005 f874 	bl	8009054 <__gnat_rcheck_CE_Access_Check>
 8003f6c:	687b      	ldr	r3, [r7, #4]
 8003f6e:	685b      	ldr	r3, [r3, #4]
 8003f70:	3304      	adds	r3, #4
 8003f72:	681b      	ldr	r3, [r3, #0]
 8003f74:	b29b      	uxth	r3, r3
 8003f76:	82bb      	strh	r3, [r7, #20]
 8003f78:	687b      	ldr	r3, [r7, #4]
 8003f7a:	685b      	ldr	r3, [r3, #4]
 8003f7c:	3304      	adds	r3, #4
 8003f7e:	681b      	ldr	r3, [r3, #0]
 8003f80:	8ab9      	ldrh	r1, [r7, #20]
 8003f82:	69fa      	ldr	r2, [r7, #28]
 8003f84:	2001      	movs	r0, #1
 8003f86:	fa00 f202 	lsl.w	r2, r0, r2
 8003f8a:	b292      	uxth	r2, r2
 8003f8c:	43d2      	mvns	r2, r2
 8003f8e:	b292      	uxth	r2, r2
 8003f90:	400a      	ands	r2, r1
 8003f92:	b291      	uxth	r1, r2
 8003f94:	787a      	ldrb	r2, [r7, #1]
 8003f96:	2a01      	cmp	r2, #1
 8003f98:	bf0c      	ite	eq
 8003f9a:	2201      	moveq	r2, #1
 8003f9c:	2200      	movne	r2, #0
 8003f9e:	b2d2      	uxtb	r2, r2
 8003fa0:	b290      	uxth	r0, r2
 8003fa2:	69fa      	ldr	r2, [r7, #28]
 8003fa4:	fa00 f202 	lsl.w	r2, r0, r2
 8003fa8:	b292      	uxth	r2, r2
 8003faa:	430a      	orrs	r2, r1
 8003fac:	b292      	uxth	r2, r2
 8003fae:	f362 030f 	bfi	r3, r2, #0, #16
 8003fb2:	687a      	ldr	r2, [r7, #4]
 8003fb4:	6852      	ldr	r2, [r2, #4]
 8003fb6:	3204      	adds	r2, #4
 8003fb8:	6013      	str	r3, [r2, #0]
 8003fba:	687b      	ldr	r3, [r7, #4]
 8003fbc:	685b      	ldr	r3, [r3, #4]
 8003fbe:	2b00      	cmp	r3, #0
 8003fc0:	d104      	bne.n	8003fcc <stm32__gpio__configure_io+0xf4>
 8003fc2:	4826      	ldr	r0, [pc, #152]	; (800405c <stm32__gpio__configure_io+0x184>)
 8003fc4:	f44f 71b0 	mov.w	r1, #352	; 0x160
 8003fc8:	f005 f844 	bl	8009054 <__gnat_rcheck_CE_Access_Check>
 8003fcc:	687b      	ldr	r3, [r7, #4]
 8003fce:	685b      	ldr	r3, [r3, #4]
 8003fd0:	3308      	adds	r3, #8
 8003fd2:	681b      	ldr	r3, [r3, #0]
 8003fd4:	613b      	str	r3, [r7, #16]
 8003fd6:	687b      	ldr	r3, [r7, #4]
 8003fd8:	685b      	ldr	r3, [r3, #4]
 8003fda:	3308      	adds	r3, #8
 8003fdc:	681b      	ldr	r3, [r3, #0]
 8003fde:	461a      	mov	r2, r3
 8003fe0:	693a      	ldr	r2, [r7, #16]
 8003fe2:	69fb      	ldr	r3, [r7, #28]
 8003fe4:	005b      	lsls	r3, r3, #1
 8003fe6:	2103      	movs	r1, #3
 8003fe8:	fa01 f303 	lsl.w	r3, r1, r3
 8003fec:	43db      	mvns	r3, r3
 8003fee:	401a      	ands	r2, r3
 8003ff0:	78bb      	ldrb	r3, [r7, #2]
 8003ff2:	4619      	mov	r1, r3
 8003ff4:	69fb      	ldr	r3, [r7, #28]
 8003ff6:	005b      	lsls	r3, r3, #1
 8003ff8:	fa01 f303 	lsl.w	r3, r1, r3
 8003ffc:	4313      	orrs	r3, r2
 8003ffe:	461a      	mov	r2, r3
 8004000:	687b      	ldr	r3, [r7, #4]
 8004002:	685b      	ldr	r3, [r3, #4]
 8004004:	3308      	adds	r3, #8
 8004006:	601a      	str	r2, [r3, #0]
 8004008:	687b      	ldr	r3, [r7, #4]
 800400a:	685b      	ldr	r3, [r3, #4]
 800400c:	2b00      	cmp	r3, #0
 800400e:	d104      	bne.n	800401a <stm32__gpio__configure_io+0x142>
 8004010:	4812      	ldr	r0, [pc, #72]	; (800405c <stm32__gpio__configure_io+0x184>)
 8004012:	f240 1161 	movw	r1, #353	; 0x161
 8004016:	f005 f81d 	bl	8009054 <__gnat_rcheck_CE_Access_Check>
 800401a:	687b      	ldr	r3, [r7, #4]
 800401c:	685b      	ldr	r3, [r3, #4]
 800401e:	330c      	adds	r3, #12
 8004020:	681b      	ldr	r3, [r3, #0]
 8004022:	60fb      	str	r3, [r7, #12]
 8004024:	687b      	ldr	r3, [r7, #4]
 8004026:	685b      	ldr	r3, [r3, #4]
 8004028:	330c      	adds	r3, #12
 800402a:	681b      	ldr	r3, [r3, #0]
 800402c:	461a      	mov	r2, r3
 800402e:	68fa      	ldr	r2, [r7, #12]
 8004030:	69fb      	ldr	r3, [r7, #28]
 8004032:	005b      	lsls	r3, r3, #1
 8004034:	2103      	movs	r1, #3
 8004036:	fa01 f303 	lsl.w	r3, r1, r3
 800403a:	43db      	mvns	r3, r3
 800403c:	401a      	ands	r2, r3
 800403e:	78fb      	ldrb	r3, [r7, #3]
 8004040:	4619      	mov	r1, r3
 8004042:	69fb      	ldr	r3, [r7, #28]
 8004044:	005b      	lsls	r3, r3, #1
 8004046:	fa01 f303 	lsl.w	r3, r1, r3
 800404a:	4313      	orrs	r3, r2
 800404c:	461a      	mov	r2, r3
 800404e:	687b      	ldr	r3, [r7, #4]
 8004050:	685b      	ldr	r3, [r3, #4]
 8004052:	330c      	adds	r3, #12
 8004054:	601a      	str	r2, [r3, #0]
 8004056:	3720      	adds	r7, #32
 8004058:	46bd      	mov	sp, r7
 800405a:	bd80      	pop	{r7, pc}
 800405c:	0800ccf4 	.word	0x0800ccf4

08004060 <stm32__gpio__configure_io__2>:
 8004060:	b5f0      	push	{r4, r5, r6, r7, lr}
 8004062:	b087      	sub	sp, #28
 8004064:	af00      	add	r7, sp, #0
 8004066:	e9c7 0102 	strd	r0, r1, [r7, #8]
 800406a:	607a      	str	r2, [r7, #4]
 800406c:	68fb      	ldr	r3, [r7, #12]
 800406e:	681c      	ldr	r4, [r3, #0]
 8004070:	68fb      	ldr	r3, [r7, #12]
 8004072:	685d      	ldr	r5, [r3, #4]
 8004074:	4626      	mov	r6, r4
 8004076:	42ac      	cmp	r4, r5
 8004078:	dc17      	bgt.n	80040aa <stm32__gpio__configure_io__2+0x4a>
 800407a:	68b8      	ldr	r0, [r7, #8]
 800407c:	4622      	mov	r2, r4
 800407e:	1b91      	subs	r1, r2, r6
 8004080:	460b      	mov	r3, r1
 8004082:	005b      	lsls	r3, r3, #1
 8004084:	440b      	add	r3, r1
 8004086:	009b      	lsls	r3, r3, #2
 8004088:	4403      	add	r3, r0
 800408a:	617b      	str	r3, [r7, #20]
 800408c:	68b9      	ldr	r1, [r7, #8]
 800408e:	1b92      	subs	r2, r2, r6
 8004090:	4613      	mov	r3, r2
 8004092:	005b      	lsls	r3, r3, #1
 8004094:	4413      	add	r3, r2
 8004096:	009b      	lsls	r3, r3, #2
 8004098:	440b      	add	r3, r1
 800409a:	4618      	mov	r0, r3
 800409c:	6879      	ldr	r1, [r7, #4]
 800409e:	f7ff ff1b 	bl	8003ed8 <stm32__gpio__configure_io>
 80040a2:	42ac      	cmp	r4, r5
 80040a4:	d001      	beq.n	80040aa <stm32__gpio__configure_io__2+0x4a>
 80040a6:	3401      	adds	r4, #1
 80040a8:	e7e7      	b.n	800407a <stm32__gpio__configure_io__2+0x1a>
 80040aa:	371c      	adds	r7, #28
 80040ac:	46bd      	mov	sp, r7
 80040ae:	bdf0      	pop	{r4, r5, r6, r7, pc}

080040b0 <stm32__gpio__configure_alternate_function>:
 80040b0:	b580      	push	{r7, lr}
 80040b2:	b086      	sub	sp, #24
 80040b4:	af00      	add	r7, sp, #0
 80040b6:	6078      	str	r0, [r7, #4]
 80040b8:	460b      	mov	r3, r1
 80040ba:	70fb      	strb	r3, [r7, #3]
 80040bc:	687b      	ldr	r3, [r7, #4]
 80040be:	891b      	ldrh	r3, [r3, #8]
 80040c0:	4618      	mov	r0, r3
 80040c2:	2101      	movs	r1, #1
 80040c4:	f7ff fa90 	bl	80035e8 <stm32__gpio__gpio_pinRP>
 80040c8:	4603      	mov	r3, r0
 80040ca:	2b00      	cmp	r3, #0
 80040cc:	db01      	blt.n	80040d2 <stm32__gpio__configure_alternate_function+0x22>
 80040ce:	2b0f      	cmp	r3, #15
 80040d0:	dd04      	ble.n	80040dc <stm32__gpio__configure_alternate_function+0x2c>
 80040d2:	4839      	ldr	r0, [pc, #228]	; (80041b8 <stm32__gpio__configure_alternate_function+0x108>)
 80040d4:	f44f 71bd 	mov.w	r1, #378	; 0x17a
 80040d8:	f004 ffec 	bl	80090b4 <__gnat_rcheck_CE_Range_Check>
 80040dc:	687b      	ldr	r3, [r7, #4]
 80040de:	891b      	ldrh	r3, [r3, #8]
 80040e0:	4618      	mov	r0, r3
 80040e2:	2101      	movs	r1, #1
 80040e4:	f7ff fa80 	bl	80035e8 <stm32__gpio__gpio_pinRP>
 80040e8:	4603      	mov	r3, r0
 80040ea:	617b      	str	r3, [r7, #20]
 80040ec:	697b      	ldr	r3, [r7, #20]
 80040ee:	2b07      	cmp	r3, #7
 80040f0:	dc2e      	bgt.n	8004150 <stm32__gpio__configure_alternate_function+0xa0>
 80040f2:	687b      	ldr	r3, [r7, #4]
 80040f4:	685b      	ldr	r3, [r3, #4]
 80040f6:	2b00      	cmp	r3, #0
 80040f8:	d104      	bne.n	8004104 <stm32__gpio__configure_alternate_function+0x54>
 80040fa:	482f      	ldr	r0, [pc, #188]	; (80041b8 <stm32__gpio__configure_alternate_function+0x108>)
 80040fc:	f240 117d 	movw	r1, #381	; 0x17d
 8004100:	f004 ffa8 	bl	8009054 <__gnat_rcheck_CE_Access_Check>
 8004104:	697b      	ldr	r3, [r7, #20]
 8004106:	2b07      	cmp	r3, #7
 8004108:	dd04      	ble.n	8004114 <stm32__gpio__configure_alternate_function+0x64>
 800410a:	482b      	ldr	r0, [pc, #172]	; (80041b8 <stm32__gpio__configure_alternate_function+0x108>)
 800410c:	f240 117d 	movw	r1, #381	; 0x17d
 8004110:	f004 ffb8 	bl	8009084 <__gnat_rcheck_CE_Index_Check>
 8004114:	687b      	ldr	r3, [r7, #4]
 8004116:	685b      	ldr	r3, [r3, #4]
 8004118:	3320      	adds	r3, #32
 800411a:	681b      	ldr	r3, [r3, #0]
 800411c:	613b      	str	r3, [r7, #16]
 800411e:	687b      	ldr	r3, [r7, #4]
 8004120:	685b      	ldr	r3, [r3, #4]
 8004122:	3320      	adds	r3, #32
 8004124:	681b      	ldr	r3, [r3, #0]
 8004126:	461a      	mov	r2, r3
 8004128:	693a      	ldr	r2, [r7, #16]
 800412a:	697b      	ldr	r3, [r7, #20]
 800412c:	009b      	lsls	r3, r3, #2
 800412e:	210f      	movs	r1, #15
 8004130:	fa01 f303 	lsl.w	r3, r1, r3
 8004134:	43db      	mvns	r3, r3
 8004136:	401a      	ands	r2, r3
 8004138:	78f9      	ldrb	r1, [r7, #3]
 800413a:	697b      	ldr	r3, [r7, #20]
 800413c:	009b      	lsls	r3, r3, #2
 800413e:	fa01 f303 	lsl.w	r3, r1, r3
 8004142:	4313      	orrs	r3, r2
 8004144:	461a      	mov	r2, r3
 8004146:	687b      	ldr	r3, [r7, #4]
 8004148:	685b      	ldr	r3, [r3, #4]
 800414a:	3320      	adds	r3, #32
 800414c:	601a      	str	r2, [r3, #0]
 800414e:	e02f      	b.n	80041b0 <stm32__gpio__configure_alternate_function+0x100>
 8004150:	687b      	ldr	r3, [r7, #4]
 8004152:	685b      	ldr	r3, [r3, #4]
 8004154:	2b00      	cmp	r3, #0
 8004156:	d104      	bne.n	8004162 <stm32__gpio__configure_alternate_function+0xb2>
 8004158:	4817      	ldr	r0, [pc, #92]	; (80041b8 <stm32__gpio__configure_alternate_function+0x108>)
 800415a:	f240 117f 	movw	r1, #383	; 0x17f
 800415e:	f004 ff79 	bl	8009054 <__gnat_rcheck_CE_Access_Check>
 8004162:	697b      	ldr	r3, [r7, #20]
 8004164:	2b07      	cmp	r3, #7
 8004166:	dc04      	bgt.n	8004172 <stm32__gpio__configure_alternate_function+0xc2>
 8004168:	4813      	ldr	r0, [pc, #76]	; (80041b8 <stm32__gpio__configure_alternate_function+0x108>)
 800416a:	f240 117f 	movw	r1, #383	; 0x17f
 800416e:	f004 ff89 	bl	8009084 <__gnat_rcheck_CE_Index_Check>
 8004172:	687b      	ldr	r3, [r7, #4]
 8004174:	685b      	ldr	r3, [r3, #4]
 8004176:	3324      	adds	r3, #36	; 0x24
 8004178:	681b      	ldr	r3, [r3, #0]
 800417a:	60fb      	str	r3, [r7, #12]
 800417c:	687b      	ldr	r3, [r7, #4]
 800417e:	685b      	ldr	r3, [r3, #4]
 8004180:	3324      	adds	r3, #36	; 0x24
 8004182:	681b      	ldr	r3, [r3, #0]
 8004184:	461a      	mov	r2, r3
 8004186:	68fa      	ldr	r2, [r7, #12]
 8004188:	697b      	ldr	r3, [r7, #20]
 800418a:	3b08      	subs	r3, #8
 800418c:	009b      	lsls	r3, r3, #2
 800418e:	210f      	movs	r1, #15
 8004190:	fa01 f303 	lsl.w	r3, r1, r3
 8004194:	43db      	mvns	r3, r3
 8004196:	401a      	ands	r2, r3
 8004198:	78f9      	ldrb	r1, [r7, #3]
 800419a:	697b      	ldr	r3, [r7, #20]
 800419c:	3b08      	subs	r3, #8
 800419e:	009b      	lsls	r3, r3, #2
 80041a0:	fa01 f303 	lsl.w	r3, r1, r3
 80041a4:	4313      	orrs	r3, r2
 80041a6:	461a      	mov	r2, r3
 80041a8:	687b      	ldr	r3, [r7, #4]
 80041aa:	685b      	ldr	r3, [r3, #4]
 80041ac:	3324      	adds	r3, #36	; 0x24
 80041ae:	601a      	str	r2, [r3, #0]
 80041b0:	3718      	adds	r7, #24
 80041b2:	46bd      	mov	sp, r7
 80041b4:	bd80      	pop	{r7, pc}
 80041b6:	bf00      	nop
 80041b8:	0800ccf4 	.word	0x0800ccf4

080041bc <stm32__gpio__interrupt_line_number>:
 80041bc:	b580      	push	{r7, lr}
 80041be:	b082      	sub	sp, #8
 80041c0:	af00      	add	r7, sp, #0
 80041c2:	6078      	str	r0, [r7, #4]
 80041c4:	687b      	ldr	r3, [r7, #4]
 80041c6:	891b      	ldrh	r3, [r3, #8]
 80041c8:	4618      	mov	r0, r3
 80041ca:	2101      	movs	r1, #1
 80041cc:	f7ff fa0c 	bl	80035e8 <stm32__gpio__gpio_pinRP>
 80041d0:	4603      	mov	r3, r0
 80041d2:	2b00      	cmp	r3, #0
 80041d4:	db01      	blt.n	80041da <stm32__gpio__interrupt_line_number+0x1e>
 80041d6:	2b16      	cmp	r3, #22
 80041d8:	dd04      	ble.n	80041e4 <stm32__gpio__interrupt_line_number+0x28>
 80041da:	4809      	ldr	r0, [pc, #36]	; (8004200 <stm32__gpio__interrupt_line_number+0x44>)
 80041dc:	f240 1199 	movw	r1, #409	; 0x199
 80041e0:	f004 ff68 	bl	80090b4 <__gnat_rcheck_CE_Range_Check>
 80041e4:	687b      	ldr	r3, [r7, #4]
 80041e6:	891b      	ldrh	r3, [r3, #8]
 80041e8:	4618      	mov	r0, r3
 80041ea:	2101      	movs	r1, #1
 80041ec:	f7ff f9fc 	bl	80035e8 <stm32__gpio__gpio_pinRP>
 80041f0:	4603      	mov	r3, r0
 80041f2:	b2db      	uxtb	r3, r3
 80041f4:	bf00      	nop
 80041f6:	4618      	mov	r0, r3
 80041f8:	3708      	adds	r7, #8
 80041fa:	46bd      	mov	sp, r7
 80041fc:	bd80      	pop	{r7, pc}
 80041fe:	bf00      	nop
 8004200:	0800ccf4 	.word	0x0800ccf4

08004204 <stm32__gpio__configure_trigger>:
 8004204:	b580      	push	{r7, lr}
 8004206:	b084      	sub	sp, #16
 8004208:	af00      	add	r7, sp, #0
 800420a:	6078      	str	r0, [r7, #4]
 800420c:	460b      	mov	r3, r1
 800420e:	70fb      	strb	r3, [r7, #3]
 8004210:	687b      	ldr	r3, [r7, #4]
 8004212:	891b      	ldrh	r3, [r3, #8]
 8004214:	4618      	mov	r0, r3
 8004216:	2101      	movs	r1, #1
 8004218:	f7ff f9e6 	bl	80035e8 <stm32__gpio__gpio_pinRP>
 800421c:	4603      	mov	r3, r0
 800421e:	2b00      	cmp	r3, #0
 8004220:	db01      	blt.n	8004226 <stm32__gpio__configure_trigger+0x22>
 8004222:	2b16      	cmp	r3, #22
 8004224:	dd04      	ble.n	8004230 <stm32__gpio__configure_trigger+0x2c>
 8004226:	4816      	ldr	r0, [pc, #88]	; (8004280 <stm32__gpio__configure_trigger+0x7c>)
 8004228:	f240 11a5 	movw	r1, #421	; 0x1a5
 800422c:	f004 ff42 	bl	80090b4 <__gnat_rcheck_CE_Range_Check>
 8004230:	687b      	ldr	r3, [r7, #4]
 8004232:	891b      	ldrh	r3, [r3, #8]
 8004234:	4618      	mov	r0, r3
 8004236:	2101      	movs	r1, #1
 8004238:	f7ff f9d6 	bl	80035e8 <stm32__gpio__gpio_pinRP>
 800423c:	4603      	mov	r3, r0
 800423e:	73fb      	strb	r3, [r7, #15]
 8004240:	f7fc f9e2 	bl	8000608 <stm32__rcc__syscfg_clock_enable>
 8004244:	6878      	ldr	r0, [r7, #4]
 8004246:	f001 fe0d 	bl	8005e64 <stm32__syscfg__connect_external_interrupt__2>
 800424a:	78fb      	ldrb	r3, [r7, #3]
 800424c:	2b02      	cmp	r3, #2
 800424e:	d806      	bhi.n	800425e <stm32__gpio__configure_trigger+0x5a>
 8004250:	7bfa      	ldrb	r2, [r7, #15]
 8004252:	78fb      	ldrb	r3, [r7, #3]
 8004254:	4610      	mov	r0, r2
 8004256:	4619      	mov	r1, r3
 8004258:	f001 fc88 	bl	8005b6c <stm32__exti__enable_external_interrupt>
 800425c:	e00d      	b.n	800427a <stm32__gpio__configure_trigger+0x76>
 800425e:	78fb      	ldrb	r3, [r7, #3]
 8004260:	2b02      	cmp	r3, #2
 8004262:	d804      	bhi.n	800426e <stm32__gpio__configure_trigger+0x6a>
 8004264:	4806      	ldr	r0, [pc, #24]	; (8004280 <stm32__gpio__configure_trigger+0x7c>)
 8004266:	f44f 71d7 	mov.w	r1, #430	; 0x1ae
 800426a:	f004 ff23 	bl	80090b4 <__gnat_rcheck_CE_Range_Check>
 800426e:	7bfa      	ldrb	r2, [r7, #15]
 8004270:	78fb      	ldrb	r3, [r7, #3]
 8004272:	4610      	mov	r0, r2
 8004274:	4619      	mov	r1, r3
 8004276:	f001 fd1d 	bl	8005cb4 <stm32__exti__enable_external_event>
 800427a:	3710      	adds	r7, #16
 800427c:	46bd      	mov	sp, r7
 800427e:	bd80      	pop	{r7, pc}
 8004280:	0800ccf4 	.word	0x0800ccf4

08004284 <stm32__gpio___elabs>:
 8004284:	b580      	push	{r7, lr}
 8004286:	af00      	add	r7, sp, #0
 8004288:	4803      	ldr	r0, [pc, #12]	; (8004298 <stm32__gpio___elabs+0x14>)
 800428a:	f003 fd75 	bl	8007d78 <ada__tags__check_tsd>
 800428e:	4803      	ldr	r0, [pc, #12]	; (800429c <stm32__gpio___elabs+0x18>)
 8004290:	f003 fdec 	bl	8007e6c <ada__tags__register_tag>
 8004294:	bd80      	pop	{r7, pc}
 8004296:	bf00      	nop
 8004298:	0800cc3c 	.word	0x0800cc3c
 800429c:	0800ccac 	.word	0x0800ccac

080042a0 <stm32__spi__spi_portIP>:
 80042a0:	b580      	push	{r7, lr}
 80042a2:	b086      	sub	sp, #24
 80042a4:	af02      	add	r7, sp, #8
 80042a6:	60f8      	str	r0, [r7, #12]
 80042a8:	60b9      	str	r1, [r7, #8]
 80042aa:	4613      	mov	r3, r2
 80042ac:	71fb      	strb	r3, [r7, #7]
 80042ae:	79fb      	ldrb	r3, [r7, #7]
 80042b0:	2b00      	cmp	r3, #0
 80042b2:	d00b      	beq.n	80042cc <stm32__spi__spi_portIP+0x2c>
 80042b4:	68fb      	ldr	r3, [r7, #12]
 80042b6:	4a08      	ldr	r2, [pc, #32]	; (80042d8 <stm32__spi__spi_portIP+0x38>)
 80042b8:	601a      	str	r2, [r3, #0]
 80042ba:	68fa      	ldr	r2, [r7, #12]
 80042bc:	2300      	movs	r3, #0
 80042be:	9300      	str	r3, [sp, #0]
 80042c0:	4610      	mov	r0, r2
 80042c2:	4906      	ldr	r1, [pc, #24]	; (80042dc <stm32__spi__spi_portIP+0x3c>)
 80042c4:	2201      	movs	r2, #1
 80042c6:	2300      	movs	r3, #0
 80042c8:	f003 fda0 	bl	8007e0c <ada__tags__register_interface_offset>
 80042cc:	68fb      	ldr	r3, [r7, #12]
 80042ce:	68ba      	ldr	r2, [r7, #8]
 80042d0:	605a      	str	r2, [r3, #4]
 80042d2:	3710      	adds	r7, #16
 80042d4:	46bd      	mov	sp, r7
 80042d6:	bd80      	pop	{r7, pc}
 80042d8:	0800ce94 	.word	0x0800ce94
 80042dc:	0800d0c8 	.word	0x0800d0c8

080042e0 <stm32__spi___size__2>:
 80042e0:	b490      	push	{r4, r7}
 80042e2:	b082      	sub	sp, #8
 80042e4:	af00      	add	r7, sp, #0
 80042e6:	6078      	str	r0, [r7, #4]
 80042e8:	f04f 0340 	mov.w	r3, #64	; 0x40
 80042ec:	f04f 0400 	mov.w	r4, #0
 80042f0:	4618      	mov	r0, r3
 80042f2:	4621      	mov	r1, r4
 80042f4:	3708      	adds	r7, #8
 80042f6:	46bd      	mov	sp, r7
 80042f8:	bc90      	pop	{r4, r7}
 80042fa:	4770      	bx	lr

080042fc <stm32__spi__spi_portDF__2>:
 80042fc:	b480      	push	{r7}
 80042fe:	b083      	sub	sp, #12
 8004300:	af00      	add	r7, sp, #0
 8004302:	6078      	str	r0, [r7, #4]
 8004304:	460b      	mov	r3, r1
 8004306:	70fb      	strb	r3, [r7, #3]
 8004308:	370c      	adds	r7, #12
 800430a:	46bd      	mov	sp, r7
 800430c:	f85d 7b04 	ldr.w	r7, [sp], #4
 8004310:	4770      	bx	lr
 8004312:	bf00      	nop

08004314 <stm32__spi__configure>:
 8004314:	b580      	push	{r7, lr}
 8004316:	b082      	sub	sp, #8
 8004318:	af00      	add	r7, sp, #0
 800431a:	6078      	str	r0, [r7, #4]
 800431c:	6039      	str	r1, [r7, #0]
 800431e:	683b      	ldr	r3, [r7, #0]
 8004320:	785b      	ldrb	r3, [r3, #1]
 8004322:	2b01      	cmp	r3, #1
 8004324:	d903      	bls.n	800432e <stm32__spi__configure+0x1a>
 8004326:	4846      	ldr	r0, [pc, #280]	; (8004440 <stm32__spi__configure+0x12c>)
 8004328:	214a      	movs	r1, #74	; 0x4a
 800432a:	f004 feb3 	bl	8009094 <__gnat_rcheck_CE_Invalid_Data>
 800432e:	683b      	ldr	r3, [r7, #0]
 8004330:	785b      	ldrb	r3, [r3, #1]
 8004332:	2b00      	cmp	r3, #0
 8004334:	d114      	bne.n	8004360 <stm32__spi__configure+0x4c>
 8004336:	687b      	ldr	r3, [r7, #4]
 8004338:	685b      	ldr	r3, [r3, #4]
 800433a:	681b      	ldr	r3, [r3, #0]
 800433c:	461a      	mov	r2, r3
 800433e:	4613      	mov	r3, r2
 8004340:	f043 0204 	orr.w	r2, r3, #4
 8004344:	687b      	ldr	r3, [r7, #4]
 8004346:	685b      	ldr	r3, [r3, #4]
 8004348:	601a      	str	r2, [r3, #0]
 800434a:	687b      	ldr	r3, [r7, #4]
 800434c:	685b      	ldr	r3, [r3, #4]
 800434e:	681b      	ldr	r3, [r3, #0]
 8004350:	461a      	mov	r2, r3
 8004352:	4613      	mov	r3, r2
 8004354:	f443 7280 	orr.w	r2, r3, #256	; 0x100
 8004358:	687b      	ldr	r3, [r7, #4]
 800435a:	685b      	ldr	r3, [r3, #4]
 800435c:	601a      	str	r2, [r3, #0]
 800435e:	e00f      	b.n	8004380 <stm32__spi__configure+0x6c>
 8004360:	687b      	ldr	r3, [r7, #4]
 8004362:	685b      	ldr	r3, [r3, #4]
 8004364:	681b      	ldr	r3, [r3, #0]
 8004366:	f36f 0382 	bfc	r3, #2, #1
 800436a:	687a      	ldr	r2, [r7, #4]
 800436c:	6852      	ldr	r2, [r2, #4]
 800436e:	6013      	str	r3, [r2, #0]
 8004370:	687b      	ldr	r3, [r7, #4]
 8004372:	685b      	ldr	r3, [r3, #4]
 8004374:	681b      	ldr	r3, [r3, #0]
 8004376:	f36f 2308 	bfc	r3, #8, #1
 800437a:	687a      	ldr	r2, [r7, #4]
 800437c:	6852      	ldr	r2, [r2, #4]
 800437e:	6013      	str	r3, [r2, #0]
 8004380:	683b      	ldr	r3, [r7, #0]
 8004382:	781b      	ldrb	r3, [r3, #0]
 8004384:	2b03      	cmp	r3, #3
 8004386:	d903      	bls.n	8004390 <stm32__spi__configure+0x7c>
 8004388:	482d      	ldr	r0, [pc, #180]	; (8004440 <stm32__spi__configure+0x12c>)
 800438a:	2153      	movs	r1, #83	; 0x53
 800438c:	f004 fe82 	bl	8009094 <__gnat_rcheck_CE_Invalid_Data>
 8004390:	683b      	ldr	r3, [r7, #0]
 8004392:	781b      	ldrb	r3, [r3, #0]
 8004394:	2b01      	cmp	r3, #1
 8004396:	d01d      	beq.n	80043d4 <stm32__spi__configure+0xc0>
 8004398:	2b01      	cmp	r3, #1
 800439a:	d302      	bcc.n	80043a2 <stm32__spi__configure+0x8e>
 800439c:	2b02      	cmp	r3, #2
 800439e:	d034      	beq.n	800440a <stm32__spi__configure+0xf6>
 80043a0:	e050      	b.n	8004444 <stm32__spi__configure+0x130>
 80043a2:	687b      	ldr	r3, [r7, #4]
 80043a4:	685b      	ldr	r3, [r3, #4]
 80043a6:	681b      	ldr	r3, [r3, #0]
 80043a8:	f36f 33cf 	bfc	r3, #15, #1
 80043ac:	687a      	ldr	r2, [r7, #4]
 80043ae:	6852      	ldr	r2, [r2, #4]
 80043b0:	6013      	str	r3, [r2, #0]
 80043b2:	687b      	ldr	r3, [r7, #4]
 80043b4:	685b      	ldr	r3, [r3, #4]
 80043b6:	681b      	ldr	r3, [r3, #0]
 80043b8:	f36f 338e 	bfc	r3, #14, #1
 80043bc:	687a      	ldr	r2, [r7, #4]
 80043be:	6852      	ldr	r2, [r2, #4]
 80043c0:	6013      	str	r3, [r2, #0]
 80043c2:	687b      	ldr	r3, [r7, #4]
 80043c4:	685b      	ldr	r3, [r3, #4]
 80043c6:	681b      	ldr	r3, [r3, #0]
 80043c8:	f36f 238a 	bfc	r3, #10, #1
 80043cc:	687a      	ldr	r2, [r7, #4]
 80043ce:	6852      	ldr	r2, [r2, #4]
 80043d0:	6013      	str	r3, [r2, #0]
 80043d2:	e053      	b.n	800447c <stm32__spi__configure+0x168>
 80043d4:	687b      	ldr	r3, [r7, #4]
 80043d6:	685b      	ldr	r3, [r3, #4]
 80043d8:	681b      	ldr	r3, [r3, #0]
 80043da:	f36f 33cf 	bfc	r3, #15, #1
 80043de:	687a      	ldr	r2, [r7, #4]
 80043e0:	6852      	ldr	r2, [r2, #4]
 80043e2:	6013      	str	r3, [r2, #0]
 80043e4:	687b      	ldr	r3, [r7, #4]
 80043e6:	685b      	ldr	r3, [r3, #4]
 80043e8:	681b      	ldr	r3, [r3, #0]
 80043ea:	f36f 338e 	bfc	r3, #14, #1
 80043ee:	687a      	ldr	r2, [r7, #4]
 80043f0:	6852      	ldr	r2, [r2, #4]
 80043f2:	6013      	str	r3, [r2, #0]
 80043f4:	687b      	ldr	r3, [r7, #4]
 80043f6:	685b      	ldr	r3, [r3, #4]
 80043f8:	681b      	ldr	r3, [r3, #0]
 80043fa:	461a      	mov	r2, r3
 80043fc:	4613      	mov	r3, r2
 80043fe:	f443 6280 	orr.w	r2, r3, #1024	; 0x400
 8004402:	687b      	ldr	r3, [r7, #4]
 8004404:	685b      	ldr	r3, [r3, #4]
 8004406:	601a      	str	r2, [r3, #0]
 8004408:	e038      	b.n	800447c <stm32__spi__configure+0x168>
 800440a:	687b      	ldr	r3, [r7, #4]
 800440c:	685b      	ldr	r3, [r3, #4]
 800440e:	681b      	ldr	r3, [r3, #0]
 8004410:	461a      	mov	r2, r3
 8004412:	4613      	mov	r3, r2
 8004414:	f443 4200 	orr.w	r2, r3, #32768	; 0x8000
 8004418:	687b      	ldr	r3, [r7, #4]
 800441a:	685b      	ldr	r3, [r3, #4]
 800441c:	601a      	str	r2, [r3, #0]
 800441e:	687b      	ldr	r3, [r7, #4]
 8004420:	685b      	ldr	r3, [r3, #4]
 8004422:	681b      	ldr	r3, [r3, #0]
 8004424:	f36f 338e 	bfc	r3, #14, #1
 8004428:	687a      	ldr	r2, [r7, #4]
 800442a:	6852      	ldr	r2, [r2, #4]
 800442c:	6013      	str	r3, [r2, #0]
 800442e:	687b      	ldr	r3, [r7, #4]
 8004430:	685b      	ldr	r3, [r3, #4]
 8004432:	681b      	ldr	r3, [r3, #0]
 8004434:	f36f 238a 	bfc	r3, #10, #1
 8004438:	687a      	ldr	r2, [r7, #4]
 800443a:	6852      	ldr	r2, [r2, #4]
 800443c:	6013      	str	r3, [r2, #0]
 800443e:	e01d      	b.n	800447c <stm32__spi__configure+0x168>
 8004440:	0800cf30 	.word	0x0800cf30
 8004444:	687b      	ldr	r3, [r7, #4]
 8004446:	685b      	ldr	r3, [r3, #4]
 8004448:	681b      	ldr	r3, [r3, #0]
 800444a:	461a      	mov	r2, r3
 800444c:	4613      	mov	r3, r2
 800444e:	f443 4200 	orr.w	r2, r3, #32768	; 0x8000
 8004452:	687b      	ldr	r3, [r7, #4]
 8004454:	685b      	ldr	r3, [r3, #4]
 8004456:	601a      	str	r2, [r3, #0]
 8004458:	687b      	ldr	r3, [r7, #4]
 800445a:	685b      	ldr	r3, [r3, #4]
 800445c:	681b      	ldr	r3, [r3, #0]
 800445e:	461a      	mov	r2, r3
 8004460:	4613      	mov	r3, r2
 8004462:	f443 4280 	orr.w	r2, r3, #16384	; 0x4000
 8004466:	687b      	ldr	r3, [r7, #4]
 8004468:	685b      	ldr	r3, [r3, #4]
 800446a:	601a      	str	r2, [r3, #0]
 800446c:	687b      	ldr	r3, [r7, #4]
 800446e:	685b      	ldr	r3, [r3, #4]
 8004470:	681b      	ldr	r3, [r3, #0]
 8004472:	f36f 238a 	bfc	r3, #10, #1
 8004476:	687a      	ldr	r2, [r7, #4]
 8004478:	6852      	ldr	r2, [r2, #4]
 800447a:	6013      	str	r3, [r2, #0]
 800447c:	bf00      	nop
 800447e:	687b      	ldr	r3, [r7, #4]
 8004480:	685b      	ldr	r3, [r3, #4]
 8004482:	681b      	ldr	r3, [r3, #0]
 8004484:	683a      	ldr	r2, [r7, #0]
 8004486:	7892      	ldrb	r2, [r2, #2]
 8004488:	2a01      	cmp	r2, #1
 800448a:	bf0c      	ite	eq
 800448c:	2201      	moveq	r2, #1
 800448e:	2200      	movne	r2, #0
 8004490:	b2d2      	uxtb	r2, r2
 8004492:	f002 0201 	and.w	r2, r2, #1
 8004496:	b2d2      	uxtb	r2, r2
 8004498:	f362 23cb 	bfi	r3, r2, #11, #1
 800449c:	687a      	ldr	r2, [r7, #4]
 800449e:	6852      	ldr	r2, [r2, #4]
 80044a0:	6013      	str	r3, [r2, #0]
 80044a2:	687b      	ldr	r3, [r7, #4]
 80044a4:	685b      	ldr	r3, [r3, #4]
 80044a6:	681b      	ldr	r3, [r3, #0]
 80044a8:	683a      	ldr	r2, [r7, #0]
 80044aa:	78d2      	ldrb	r2, [r2, #3]
 80044ac:	2a00      	cmp	r2, #0
 80044ae:	bf0c      	ite	eq
 80044b0:	2201      	moveq	r2, #1
 80044b2:	2200      	movne	r2, #0
 80044b4:	b2d2      	uxtb	r2, r2
 80044b6:	f002 0201 	and.w	r2, r2, #1
 80044ba:	b2d2      	uxtb	r2, r2
 80044bc:	f362 0341 	bfi	r3, r2, #1, #1
 80044c0:	687a      	ldr	r2, [r7, #4]
 80044c2:	6852      	ldr	r2, [r2, #4]
 80044c4:	6013      	str	r3, [r2, #0]
 80044c6:	687b      	ldr	r3, [r7, #4]
 80044c8:	685b      	ldr	r3, [r3, #4]
 80044ca:	681b      	ldr	r3, [r3, #0]
 80044cc:	683a      	ldr	r2, [r7, #0]
 80044ce:	7912      	ldrb	r2, [r2, #4]
 80044d0:	2a01      	cmp	r2, #1
 80044d2:	bf0c      	ite	eq
 80044d4:	2201      	moveq	r2, #1
 80044d6:	2200      	movne	r2, #0
 80044d8:	b2d2      	uxtb	r2, r2
 80044da:	f002 0201 	and.w	r2, r2, #1
 80044de:	b2d2      	uxtb	r2, r2
 80044e0:	f362 0300 	bfi	r3, r2, #0, #1
 80044e4:	687a      	ldr	r2, [r7, #4]
 80044e6:	6852      	ldr	r2, [r2, #4]
 80044e8:	6013      	str	r3, [r2, #0]
 80044ea:	687b      	ldr	r3, [r7, #4]
 80044ec:	685b      	ldr	r3, [r3, #4]
 80044ee:	681b      	ldr	r3, [r3, #0]
 80044f0:	683a      	ldr	r2, [r7, #0]
 80044f2:	7952      	ldrb	r2, [r2, #5]
 80044f4:	2a00      	cmp	r2, #0
 80044f6:	bf0c      	ite	eq
 80044f8:	2201      	moveq	r2, #1
 80044fa:	2200      	movne	r2, #0
 80044fc:	b2d2      	uxtb	r2, r2
 80044fe:	f002 0201 	and.w	r2, r2, #1
 8004502:	b2d2      	uxtb	r2, r2
 8004504:	f362 2349 	bfi	r3, r2, #9, #1
 8004508:	687a      	ldr	r2, [r7, #4]
 800450a:	6852      	ldr	r2, [r2, #4]
 800450c:	6013      	str	r3, [r2, #0]
 800450e:	687b      	ldr	r3, [r7, #4]
 8004510:	685b      	ldr	r3, [r3, #4]
 8004512:	681b      	ldr	r3, [r3, #0]
 8004514:	683a      	ldr	r2, [r7, #0]
 8004516:	7992      	ldrb	r2, [r2, #6]
 8004518:	4611      	mov	r1, r2
 800451a:	4a3b      	ldr	r2, [pc, #236]	; (8004608 <stm32__spi__configure+0x2f4>)
 800451c:	5c52      	ldrb	r2, [r2, r1]
 800451e:	f002 0207 	and.w	r2, r2, #7
 8004522:	b2d2      	uxtb	r2, r2
 8004524:	f362 03c5 	bfi	r3, r2, #3, #3
 8004528:	687a      	ldr	r2, [r7, #4]
 800452a:	6852      	ldr	r2, [r2, #4]
 800452c:	6013      	str	r3, [r2, #0]
 800452e:	687b      	ldr	r3, [r7, #4]
 8004530:	685b      	ldr	r3, [r3, #4]
 8004532:	681b      	ldr	r3, [r3, #0]
 8004534:	683a      	ldr	r2, [r7, #0]
 8004536:	79d2      	ldrb	r2, [r2, #7]
 8004538:	2a01      	cmp	r2, #1
 800453a:	bf0c      	ite	eq
 800453c:	2201      	moveq	r2, #1
 800453e:	2200      	movne	r2, #0
 8004540:	b2d2      	uxtb	r2, r2
 8004542:	f002 0201 	and.w	r2, r2, #1
 8004546:	b2d2      	uxtb	r2, r2
 8004548:	f362 13c7 	bfi	r3, r2, #7, #1
 800454c:	687a      	ldr	r2, [r7, #4]
 800454e:	6852      	ldr	r2, [r2, #4]
 8004550:	6013      	str	r3, [r2, #0]
 8004552:	687b      	ldr	r3, [r7, #4]
 8004554:	685b      	ldr	r3, [r3, #4]
 8004556:	3304      	adds	r3, #4
 8004558:	681b      	ldr	r3, [r3, #0]
 800455a:	683a      	ldr	r2, [r7, #0]
 800455c:	7a92      	ldrb	r2, [r2, #10]
 800455e:	f002 0201 	and.w	r2, r2, #1
 8004562:	b2d2      	uxtb	r2, r2
 8004564:	f362 0341 	bfi	r3, r2, #1, #1
 8004568:	687a      	ldr	r2, [r7, #4]
 800456a:	6852      	ldr	r2, [r2, #4]
 800456c:	3204      	adds	r2, #4
 800456e:	6013      	str	r3, [r2, #0]
 8004570:	687b      	ldr	r3, [r7, #4]
 8004572:	685b      	ldr	r3, [r3, #4]
 8004574:	3304      	adds	r3, #4
 8004576:	681b      	ldr	r3, [r3, #0]
 8004578:	683a      	ldr	r2, [r7, #0]
 800457a:	7a92      	ldrb	r2, [r2, #10]
 800457c:	f002 0201 	and.w	r2, r2, #1
 8004580:	b2d2      	uxtb	r2, r2
 8004582:	f362 13c7 	bfi	r3, r2, #7, #1
 8004586:	687a      	ldr	r2, [r7, #4]
 8004588:	6852      	ldr	r2, [r2, #4]
 800458a:	3204      	adds	r2, #4
 800458c:	6013      	str	r3, [r2, #0]
 800458e:	687b      	ldr	r3, [r7, #4]
 8004590:	685b      	ldr	r3, [r3, #4]
 8004592:	3304      	adds	r3, #4
 8004594:	681b      	ldr	r3, [r3, #0]
 8004596:	683a      	ldr	r2, [r7, #0]
 8004598:	7ad2      	ldrb	r2, [r2, #11]
 800459a:	f002 0201 	and.w	r2, r2, #1
 800459e:	b2d2      	uxtb	r2, r2
 80045a0:	f362 0300 	bfi	r3, r2, #0, #1
 80045a4:	687a      	ldr	r2, [r7, #4]
 80045a6:	6852      	ldr	r2, [r2, #4]
 80045a8:	3204      	adds	r2, #4
 80045aa:	6013      	str	r3, [r2, #0]
 80045ac:	687b      	ldr	r3, [r7, #4]
 80045ae:	685b      	ldr	r3, [r3, #4]
 80045b0:	3304      	adds	r3, #4
 80045b2:	681b      	ldr	r3, [r3, #0]
 80045b4:	683a      	ldr	r2, [r7, #0]
 80045b6:	7ad2      	ldrb	r2, [r2, #11]
 80045b8:	f002 0201 	and.w	r2, r2, #1
 80045bc:	b2d2      	uxtb	r2, r2
 80045be:	f362 1386 	bfi	r3, r2, #6, #1
 80045c2:	687a      	ldr	r2, [r7, #4]
 80045c4:	6852      	ldr	r2, [r2, #4]
 80045c6:	3204      	adds	r2, #4
 80045c8:	6013      	str	r3, [r2, #0]
 80045ca:	687b      	ldr	r3, [r7, #4]
 80045cc:	685b      	ldr	r3, [r3, #4]
 80045ce:	3304      	adds	r3, #4
 80045d0:	681b      	ldr	r3, [r3, #0]
 80045d2:	683a      	ldr	r2, [r7, #0]
 80045d4:	7b12      	ldrb	r2, [r2, #12]
 80045d6:	f002 0201 	and.w	r2, r2, #1
 80045da:	b2d2      	uxtb	r2, r2
 80045dc:	f362 330c 	bfi	r3, r2, #12, #1
 80045e0:	687a      	ldr	r2, [r7, #4]
 80045e2:	6852      	ldr	r2, [r2, #4]
 80045e4:	3204      	adds	r2, #4
 80045e6:	6013      	str	r3, [r2, #0]
 80045e8:	687b      	ldr	r3, [r7, #4]
 80045ea:	685b      	ldr	r3, [r3, #4]
 80045ec:	3310      	adds	r3, #16
 80045ee:	681b      	ldr	r3, [r3, #0]
 80045f0:	683a      	ldr	r2, [r7, #0]
 80045f2:	8912      	ldrh	r2, [r2, #8]
 80045f4:	f362 030f 	bfi	r3, r2, #0, #16
 80045f8:	687a      	ldr	r2, [r7, #4]
 80045fa:	6852      	ldr	r2, [r2, #4]
 80045fc:	3210      	adds	r2, #16
 80045fe:	6013      	str	r3, [r2, #0]
 8004600:	3708      	adds	r7, #8
 8004602:	46bd      	mov	sp, r7
 8004604:	bd80      	pop	{r7, pc}
 8004606:	bf00      	nop
 8004608:	0800cf28 	.word	0x0800cf28

0800460c <stm32__spi__enable>:
 800460c:	b480      	push	{r7}
 800460e:	b083      	sub	sp, #12
 8004610:	af00      	add	r7, sp, #0
 8004612:	6078      	str	r0, [r7, #4]
 8004614:	687b      	ldr	r3, [r7, #4]
 8004616:	685b      	ldr	r3, [r3, #4]
 8004618:	681b      	ldr	r3, [r3, #0]
 800461a:	461a      	mov	r2, r3
 800461c:	4613      	mov	r3, r2
 800461e:	f043 0240 	orr.w	r2, r3, #64	; 0x40
 8004622:	687b      	ldr	r3, [r7, #4]
 8004624:	685b      	ldr	r3, [r3, #4]
 8004626:	601a      	str	r2, [r3, #0]
 8004628:	370c      	adds	r7, #12
 800462a:	46bd      	mov	sp, r7
 800462c:	f85d 7b04 	ldr.w	r7, [sp], #4
 8004630:	4770      	bx	lr
 8004632:	bf00      	nop

08004634 <stm32__spi__disable>:
 8004634:	b480      	push	{r7}
 8004636:	b083      	sub	sp, #12
 8004638:	af00      	add	r7, sp, #0
 800463a:	6078      	str	r0, [r7, #4]
 800463c:	687b      	ldr	r3, [r7, #4]
 800463e:	685b      	ldr	r3, [r3, #4]
 8004640:	681b      	ldr	r3, [r3, #0]
 8004642:	f36f 1386 	bfc	r3, #6, #1
 8004646:	687a      	ldr	r2, [r7, #4]
 8004648:	6852      	ldr	r2, [r2, #4]
 800464a:	6013      	str	r3, [r2, #0]
 800464c:	370c      	adds	r7, #12
 800464e:	46bd      	mov	sp, r7
 8004650:	f85d 7b04 	ldr.w	r7, [sp], #4
 8004654:	4770      	bx	lr
 8004656:	bf00      	nop

08004658 <stm32__spi__enabled>:
 8004658:	b480      	push	{r7}
 800465a:	b083      	sub	sp, #12
 800465c:	af00      	add	r7, sp, #0
 800465e:	6078      	str	r0, [r7, #4]
 8004660:	687b      	ldr	r3, [r7, #4]
 8004662:	685b      	ldr	r3, [r3, #4]
 8004664:	681b      	ldr	r3, [r3, #0]
 8004666:	f3c3 1380 	ubfx	r3, r3, #6, #1
 800466a:	b2db      	uxtb	r3, r3
 800466c:	bf00      	nop
 800466e:	4618      	mov	r0, r3
 8004670:	370c      	adds	r7, #12
 8004672:	46bd      	mov	sp, r7
 8004674:	f85d 7b04 	ldr.w	r7, [sp], #4
 8004678:	4770      	bx	lr
 800467a:	bf00      	nop

0800467c <stm32__spi__send>:
 800467c:	b480      	push	{r7}
 800467e:	b083      	sub	sp, #12
 8004680:	af00      	add	r7, sp, #0
 8004682:	6078      	str	r0, [r7, #4]
 8004684:	460b      	mov	r3, r1
 8004686:	807b      	strh	r3, [r7, #2]
 8004688:	687b      	ldr	r3, [r7, #4]
 800468a:	685b      	ldr	r3, [r3, #4]
 800468c:	330c      	adds	r3, #12
 800468e:	881b      	ldrh	r3, [r3, #0]
 8004690:	b29b      	uxth	r3, r3
 8004692:	461a      	mov	r2, r3
 8004694:	887a      	ldrh	r2, [r7, #2]
 8004696:	687b      	ldr	r3, [r7, #4]
 8004698:	685b      	ldr	r3, [r3, #4]
 800469a:	330c      	adds	r3, #12
 800469c:	b292      	uxth	r2, r2
 800469e:	801a      	strh	r2, [r3, #0]
 80046a0:	370c      	adds	r7, #12
 80046a2:	46bd      	mov	sp, r7
 80046a4:	f85d 7b04 	ldr.w	r7, [sp], #4
 80046a8:	4770      	bx	lr
 80046aa:	bf00      	nop

080046ac <stm32__spi__data>:
 80046ac:	b480      	push	{r7}
 80046ae:	b083      	sub	sp, #12
 80046b0:	af00      	add	r7, sp, #0
 80046b2:	6078      	str	r0, [r7, #4]
 80046b4:	687b      	ldr	r3, [r7, #4]
 80046b6:	685b      	ldr	r3, [r3, #4]
 80046b8:	330c      	adds	r3, #12
 80046ba:	881b      	ldrh	r3, [r3, #0]
 80046bc:	b29b      	uxth	r3, r3
 80046be:	b29b      	uxth	r3, r3
 80046c0:	bf00      	nop
 80046c2:	4618      	mov	r0, r3
 80046c4:	370c      	adds	r7, #12
 80046c6:	46bd      	mov	sp, r7
 80046c8:	f85d 7b04 	ldr.w	r7, [sp], #4
 80046cc:	4770      	bx	lr
 80046ce:	bf00      	nop

080046d0 <stm32__spi__send__2>:
 80046d0:	b480      	push	{r7}
 80046d2:	b085      	sub	sp, #20
 80046d4:	af00      	add	r7, sp, #0
 80046d6:	6078      	str	r0, [r7, #4]
 80046d8:	460b      	mov	r3, r1
 80046da:	70fb      	strb	r3, [r7, #3]
 80046dc:	687b      	ldr	r3, [r7, #4]
 80046de:	685b      	ldr	r3, [r3, #4]
 80046e0:	330c      	adds	r3, #12
 80046e2:	60fb      	str	r3, [r7, #12]
 80046e4:	68fb      	ldr	r3, [r7, #12]
 80046e6:	78fa      	ldrb	r2, [r7, #3]
 80046e8:	701a      	strb	r2, [r3, #0]
 80046ea:	3714      	adds	r7, #20
 80046ec:	46bd      	mov	sp, r7
 80046ee:	f85d 7b04 	ldr.w	r7, [sp], #4
 80046f2:	4770      	bx	lr

080046f4 <stm32__spi__data__2>:
 80046f4:	b580      	push	{r7, lr}
 80046f6:	b082      	sub	sp, #8
 80046f8:	af00      	add	r7, sp, #0
 80046fa:	6078      	str	r0, [r7, #4]
 80046fc:	6878      	ldr	r0, [r7, #4]
 80046fe:	f7ff ffd5 	bl	80046ac <stm32__spi__data>
 8004702:	4603      	mov	r3, r0
 8004704:	2bff      	cmp	r3, #255	; 0xff
 8004706:	d903      	bls.n	8004710 <stm32__spi__data__2+0x1c>
 8004708:	4804      	ldr	r0, [pc, #16]	; (800471c <stm32__spi__data__2+0x28>)
 800470a:	21b9      	movs	r1, #185	; 0xb9
 800470c:	f004 fcd2 	bl	80090b4 <__gnat_rcheck_CE_Range_Check>
 8004710:	b2db      	uxtb	r3, r3
 8004712:	bf00      	nop
 8004714:	4618      	mov	r0, r3
 8004716:	3708      	adds	r7, #8
 8004718:	46bd      	mov	sp, r7
 800471a:	bd80      	pop	{r7, pc}
 800471c:	0800cf30 	.word	0x0800cf30

08004720 <stm32__spi__is_busy>:
 8004720:	b580      	push	{r7, lr}
 8004722:	b082      	sub	sp, #8
 8004724:	af00      	add	r7, sp, #0
 8004726:	6078      	str	r0, [r7, #4]
 8004728:	6878      	ldr	r0, [r7, #4]
 800472a:	f000 f82d 	bl	8004788 <stm32__spi__rx_is_empty>
 800472e:	4603      	mov	r3, r0
 8004730:	2b00      	cmp	r3, #0
 8004732:	d008      	beq.n	8004746 <stm32__spi__is_busy+0x26>
 8004734:	6878      	ldr	r0, [r7, #4]
 8004736:	f000 f815 	bl	8004764 <stm32__spi__tx_is_empty>
 800473a:	4603      	mov	r3, r0
 800473c:	f083 0301 	eor.w	r3, r3, #1
 8004740:	b2db      	uxtb	r3, r3
 8004742:	2b00      	cmp	r3, #0
 8004744:	d105      	bne.n	8004752 <stm32__spi__is_busy+0x32>
 8004746:	6878      	ldr	r0, [r7, #4]
 8004748:	f000 f834 	bl	80047b4 <stm32__spi__busy>
 800474c:	4603      	mov	r3, r0
 800474e:	2b00      	cmp	r3, #0
 8004750:	d001      	beq.n	8004756 <stm32__spi__is_busy+0x36>
 8004752:	2301      	movs	r3, #1
 8004754:	e000      	b.n	8004758 <stm32__spi__is_busy+0x38>
 8004756:	2300      	movs	r3, #0
 8004758:	bf00      	nop
 800475a:	4618      	mov	r0, r3
 800475c:	3708      	adds	r7, #8
 800475e:	46bd      	mov	sp, r7
 8004760:	bd80      	pop	{r7, pc}
 8004762:	bf00      	nop

08004764 <stm32__spi__tx_is_empty>:
 8004764:	b480      	push	{r7}
 8004766:	b083      	sub	sp, #12
 8004768:	af00      	add	r7, sp, #0
 800476a:	6078      	str	r0, [r7, #4]
 800476c:	687b      	ldr	r3, [r7, #4]
 800476e:	685b      	ldr	r3, [r3, #4]
 8004770:	3308      	adds	r3, #8
 8004772:	681b      	ldr	r3, [r3, #0]
 8004774:	f3c3 0340 	ubfx	r3, r3, #1, #1
 8004778:	b2db      	uxtb	r3, r3
 800477a:	bf00      	nop
 800477c:	4618      	mov	r0, r3
 800477e:	370c      	adds	r7, #12
 8004780:	46bd      	mov	sp, r7
 8004782:	f85d 7b04 	ldr.w	r7, [sp], #4
 8004786:	4770      	bx	lr

08004788 <stm32__spi__rx_is_empty>:
 8004788:	b480      	push	{r7}
 800478a:	b083      	sub	sp, #12
 800478c:	af00      	add	r7, sp, #0
 800478e:	6078      	str	r0, [r7, #4]
 8004790:	687b      	ldr	r3, [r7, #4]
 8004792:	685b      	ldr	r3, [r3, #4]
 8004794:	3308      	adds	r3, #8
 8004796:	681b      	ldr	r3, [r3, #0]
 8004798:	f3c3 0300 	ubfx	r3, r3, #0, #1
 800479c:	b2db      	uxtb	r3, r3
 800479e:	f083 0301 	eor.w	r3, r3, #1
 80047a2:	b2db      	uxtb	r3, r3
 80047a4:	bf00      	nop
 80047a6:	4618      	mov	r0, r3
 80047a8:	370c      	adds	r7, #12
 80047aa:	46bd      	mov	sp, r7
 80047ac:	f85d 7b04 	ldr.w	r7, [sp], #4
 80047b0:	4770      	bx	lr
 80047b2:	bf00      	nop

080047b4 <stm32__spi__busy>:
 80047b4:	b480      	push	{r7}
 80047b6:	b083      	sub	sp, #12
 80047b8:	af00      	add	r7, sp, #0
 80047ba:	6078      	str	r0, [r7, #4]
 80047bc:	687b      	ldr	r3, [r7, #4]
 80047be:	685b      	ldr	r3, [r3, #4]
 80047c0:	3308      	adds	r3, #8
 80047c2:	681b      	ldr	r3, [r3, #0]
 80047c4:	f3c3 13c0 	ubfx	r3, r3, #7, #1
 80047c8:	b2db      	uxtb	r3, r3
 80047ca:	bf00      	nop
 80047cc:	4618      	mov	r0, r3
 80047ce:	370c      	adds	r7, #12
 80047d0:	46bd      	mov	sp, r7
 80047d2:	f85d 7b04 	ldr.w	r7, [sp], #4
 80047d6:	4770      	bx	lr

080047d8 <stm32__spi__current_mode>:
 80047d8:	b480      	push	{r7}
 80047da:	b083      	sub	sp, #12
 80047dc:	af00      	add	r7, sp, #0
 80047de:	6078      	str	r0, [r7, #4]
 80047e0:	687b      	ldr	r3, [r7, #4]
 80047e2:	685b      	ldr	r3, [r3, #4]
 80047e4:	681b      	ldr	r3, [r3, #0]
 80047e6:	f3c3 0380 	ubfx	r3, r3, #2, #1
 80047ea:	b2db      	uxtb	r3, r3
 80047ec:	461a      	mov	r2, r3
 80047ee:	687b      	ldr	r3, [r7, #4]
 80047f0:	685b      	ldr	r3, [r3, #4]
 80047f2:	681b      	ldr	r3, [r3, #0]
 80047f4:	f3c3 2300 	ubfx	r3, r3, #8, #1
 80047f8:	b2db      	uxtb	r3, r3
 80047fa:	4013      	ands	r3, r2
 80047fc:	b2db      	uxtb	r3, r3
 80047fe:	2b00      	cmp	r3, #0
 8004800:	d001      	beq.n	8004806 <stm32__spi__current_mode+0x2e>
 8004802:	2300      	movs	r3, #0
 8004804:	e000      	b.n	8004808 <stm32__spi__current_mode+0x30>
 8004806:	2301      	movs	r3, #1
 8004808:	bf00      	nop
 800480a:	4618      	mov	r0, r3
 800480c:	370c      	adds	r7, #12
 800480e:	46bd      	mov	sp, r7
 8004810:	f85d 7b04 	ldr.w	r7, [sp], #4
 8004814:	4770      	bx	lr
 8004816:	bf00      	nop

08004818 <stm32__spi__current_data_direction>:
 8004818:	b480      	push	{r7}
 800481a:	b083      	sub	sp, #12
 800481c:	af00      	add	r7, sp, #0
 800481e:	6078      	str	r0, [r7, #4]
 8004820:	687b      	ldr	r3, [r7, #4]
 8004822:	685b      	ldr	r3, [r3, #4]
 8004824:	681b      	ldr	r3, [r3, #0]
 8004826:	f3c3 33c0 	ubfx	r3, r3, #15, #1
 800482a:	b2db      	uxtb	r3, r3
 800482c:	f083 0301 	eor.w	r3, r3, #1
 8004830:	b2db      	uxtb	r3, r3
 8004832:	2b00      	cmp	r3, #0
 8004834:	d00e      	beq.n	8004854 <stm32__spi__current_data_direction+0x3c>
 8004836:	687b      	ldr	r3, [r7, #4]
 8004838:	685b      	ldr	r3, [r3, #4]
 800483a:	681b      	ldr	r3, [r3, #0]
 800483c:	f3c3 2380 	ubfx	r3, r3, #10, #1
 8004840:	b2db      	uxtb	r3, r3
 8004842:	f083 0301 	eor.w	r3, r3, #1
 8004846:	b2db      	uxtb	r3, r3
 8004848:	2b00      	cmp	r3, #0
 800484a:	d001      	beq.n	8004850 <stm32__spi__current_data_direction+0x38>
 800484c:	2300      	movs	r3, #0
 800484e:	e00f      	b.n	8004870 <stm32__spi__current_data_direction+0x58>
 8004850:	2301      	movs	r3, #1
 8004852:	e00d      	b.n	8004870 <stm32__spi__current_data_direction+0x58>
 8004854:	687b      	ldr	r3, [r7, #4]
 8004856:	685b      	ldr	r3, [r3, #4]
 8004858:	681b      	ldr	r3, [r3, #0]
 800485a:	f3c3 3380 	ubfx	r3, r3, #14, #1
 800485e:	b2db      	uxtb	r3, r3
 8004860:	f083 0301 	eor.w	r3, r3, #1
 8004864:	b2db      	uxtb	r3, r3
 8004866:	2b00      	cmp	r3, #0
 8004868:	d001      	beq.n	800486e <stm32__spi__current_data_direction+0x56>
 800486a:	2302      	movs	r3, #2
 800486c:	e000      	b.n	8004870 <stm32__spi__current_data_direction+0x58>
 800486e:	2303      	movs	r3, #3
 8004870:	bf00      	nop
 8004872:	4618      	mov	r0, r3
 8004874:	370c      	adds	r7, #12
 8004876:	46bd      	mov	sp, r7
 8004878:	f85d 7b04 	ldr.w	r7, [sp], #4
 800487c:	4770      	bx	lr
 800487e:	bf00      	nop

08004880 <stm32__spi__crc_enabled>:
 8004880:	b480      	push	{r7}
 8004882:	b083      	sub	sp, #12
 8004884:	af00      	add	r7, sp, #0
 8004886:	6078      	str	r0, [r7, #4]
 8004888:	687b      	ldr	r3, [r7, #4]
 800488a:	685b      	ldr	r3, [r3, #4]
 800488c:	681b      	ldr	r3, [r3, #0]
 800488e:	f3c3 3340 	ubfx	r3, r3, #13, #1
 8004892:	b2db      	uxtb	r3, r3
 8004894:	bf00      	nop
 8004896:	4618      	mov	r0, r3
 8004898:	370c      	adds	r7, #12
 800489a:	46bd      	mov	sp, r7
 800489c:	f85d 7b04 	ldr.w	r7, [sp], #4
 80048a0:	4770      	bx	lr
 80048a2:	bf00      	nop

080048a4 <stm32__spi__crc_error_indicated>:
 80048a4:	b480      	push	{r7}
 80048a6:	b083      	sub	sp, #12
 80048a8:	af00      	add	r7, sp, #0
 80048aa:	6078      	str	r0, [r7, #4]
 80048ac:	687b      	ldr	r3, [r7, #4]
 80048ae:	685b      	ldr	r3, [r3, #4]
 80048b0:	3308      	adds	r3, #8
 80048b2:	681b      	ldr	r3, [r3, #0]
 80048b4:	f3c3 1300 	ubfx	r3, r3, #4, #1
 80048b8:	b2db      	uxtb	r3, r3
 80048ba:	bf00      	nop
 80048bc:	4618      	mov	r0, r3
 80048be:	370c      	adds	r7, #12
 80048c0:	46bd      	mov	sp, r7
 80048c2:	f85d 7b04 	ldr.w	r7, [sp], #4
 80048c6:	4770      	bx	lr

080048c8 <stm32__spi__mode_fault_indicated>:
 80048c8:	b480      	push	{r7}
 80048ca:	b083      	sub	sp, #12
 80048cc:	af00      	add	r7, sp, #0
 80048ce:	6078      	str	r0, [r7, #4]
 80048d0:	687b      	ldr	r3, [r7, #4]
 80048d2:	685b      	ldr	r3, [r3, #4]
 80048d4:	3308      	adds	r3, #8
 80048d6:	681b      	ldr	r3, [r3, #0]
 80048d8:	f3c3 1340 	ubfx	r3, r3, #5, #1
 80048dc:	b2db      	uxtb	r3, r3
 80048de:	bf00      	nop
 80048e0:	4618      	mov	r0, r3
 80048e2:	370c      	adds	r7, #12
 80048e4:	46bd      	mov	sp, r7
 80048e6:	f85d 7b04 	ldr.w	r7, [sp], #4
 80048ea:	4770      	bx	lr

080048ec <stm32__spi__overrun_indicated>:
 80048ec:	b480      	push	{r7}
 80048ee:	b083      	sub	sp, #12
 80048f0:	af00      	add	r7, sp, #0
 80048f2:	6078      	str	r0, [r7, #4]
 80048f4:	687b      	ldr	r3, [r7, #4]
 80048f6:	685b      	ldr	r3, [r3, #4]
 80048f8:	3308      	adds	r3, #8
 80048fa:	681b      	ldr	r3, [r3, #0]
 80048fc:	f3c3 1380 	ubfx	r3, r3, #6, #1
 8004900:	b2db      	uxtb	r3, r3
 8004902:	bf00      	nop
 8004904:	4618      	mov	r0, r3
 8004906:	370c      	adds	r7, #12
 8004908:	46bd      	mov	sp, r7
 800490a:	f85d 7b04 	ldr.w	r7, [sp], #4
 800490e:	4770      	bx	lr

08004910 <stm32__spi__frame_fmt_error_indicated>:
 8004910:	b480      	push	{r7}
 8004912:	b083      	sub	sp, #12
 8004914:	af00      	add	r7, sp, #0
 8004916:	6078      	str	r0, [r7, #4]
 8004918:	687b      	ldr	r3, [r7, #4]
 800491a:	685b      	ldr	r3, [r3, #4]
 800491c:	3308      	adds	r3, #8
 800491e:	681b      	ldr	r3, [r3, #0]
 8004920:	f3c3 2300 	ubfx	r3, r3, #8, #1
 8004924:	b2db      	uxtb	r3, r3
 8004926:	bf00      	nop
 8004928:	4618      	mov	r0, r3
 800492a:	370c      	adds	r7, #12
 800492c:	46bd      	mov	sp, r7
 800492e:	f85d 7b04 	ldr.w	r7, [sp], #4
 8004932:	4770      	bx	lr

08004934 <stm32__spi__clear_overrun>:
 8004934:	b580      	push	{r7, lr}
 8004936:	b084      	sub	sp, #16
 8004938:	af00      	add	r7, sp, #0
 800493a:	6078      	str	r0, [r7, #4]
 800493c:	f107 0308 	add.w	r3, r7, #8
 8004940:	4618      	mov	r0, r3
 8004942:	f001 faa9 	bl	8005e98 <stm32_svd__spi__sr_registerIP>
 8004946:	687b      	ldr	r3, [r7, #4]
 8004948:	685b      	ldr	r3, [r3, #4]
 800494a:	330c      	adds	r3, #12
 800494c:	881b      	ldrh	r3, [r3, #0]
 800494e:	b29b      	uxth	r3, r3
 8004950:	81fb      	strh	r3, [r7, #14]
 8004952:	687b      	ldr	r3, [r7, #4]
 8004954:	685b      	ldr	r3, [r3, #4]
 8004956:	3308      	adds	r3, #8
 8004958:	681b      	ldr	r3, [r3, #0]
 800495a:	60bb      	str	r3, [r7, #8]
 800495c:	3710      	adds	r7, #16
 800495e:	46bd      	mov	sp, r7
 8004960:	bd80      	pop	{r7, pc}
 8004962:	bf00      	nop

08004964 <stm32__spi__reset_crc>:
 8004964:	b480      	push	{r7}
 8004966:	b083      	sub	sp, #12
 8004968:	af00      	add	r7, sp, #0
 800496a:	6078      	str	r0, [r7, #4]
 800496c:	687b      	ldr	r3, [r7, #4]
 800496e:	685b      	ldr	r3, [r3, #4]
 8004970:	681b      	ldr	r3, [r3, #0]
 8004972:	f36f 334d 	bfc	r3, #13, #1
 8004976:	687a      	ldr	r2, [r7, #4]
 8004978:	6852      	ldr	r2, [r2, #4]
 800497a:	6013      	str	r3, [r2, #0]
 800497c:	687b      	ldr	r3, [r7, #4]
 800497e:	685b      	ldr	r3, [r3, #4]
 8004980:	681b      	ldr	r3, [r3, #0]
 8004982:	461a      	mov	r2, r3
 8004984:	4613      	mov	r3, r2
 8004986:	f443 5200 	orr.w	r2, r3, #8192	; 0x2000
 800498a:	687b      	ldr	r3, [r7, #4]
 800498c:	685b      	ldr	r3, [r3, #4]
 800498e:	601a      	str	r2, [r3, #0]
 8004990:	370c      	adds	r7, #12
 8004992:	46bd      	mov	sp, r7
 8004994:	f85d 7b04 	ldr.w	r7, [sp], #4
 8004998:	4770      	bx	lr
 800499a:	bf00      	nop

0800499c <stm32__spi__is_data_frame_16bit>:
 800499c:	b480      	push	{r7}
 800499e:	b083      	sub	sp, #12
 80049a0:	af00      	add	r7, sp, #0
 80049a2:	6078      	str	r0, [r7, #4]
 80049a4:	687b      	ldr	r3, [r7, #4]
 80049a6:	685b      	ldr	r3, [r3, #4]
 80049a8:	681b      	ldr	r3, [r3, #0]
 80049aa:	f3c3 23c0 	ubfx	r3, r3, #11, #1
 80049ae:	b2db      	uxtb	r3, r3
 80049b0:	bf00      	nop
 80049b2:	4618      	mov	r0, r3
 80049b4:	370c      	adds	r7, #12
 80049b6:	46bd      	mov	sp, r7
 80049b8:	f85d 7b04 	ldr.w	r7, [sp], #4
 80049bc:	4770      	bx	lr
 80049be:	bf00      	nop

080049c0 <stm32__spi__data_size>:
 80049c0:	b480      	push	{r7}
 80049c2:	b083      	sub	sp, #12
 80049c4:	af00      	add	r7, sp, #0
 80049c6:	6078      	str	r0, [r7, #4]
 80049c8:	687b      	ldr	r3, [r7, #4]
 80049ca:	685b      	ldr	r3, [r3, #4]
 80049cc:	681b      	ldr	r3, [r3, #0]
 80049ce:	f3c3 23c0 	ubfx	r3, r3, #11, #1
 80049d2:	b2db      	uxtb	r3, r3
 80049d4:	2b00      	cmp	r3, #0
 80049d6:	d001      	beq.n	80049dc <stm32__spi__data_size+0x1c>
 80049d8:	2301      	movs	r3, #1
 80049da:	e000      	b.n	80049de <stm32__spi__data_size+0x1e>
 80049dc:	2300      	movs	r3, #0
 80049de:	bf00      	nop
 80049e0:	4618      	mov	r0, r3
 80049e2:	370c      	adds	r7, #12
 80049e4:	46bd      	mov	sp, r7
 80049e6:	f85d 7b04 	ldr.w	r7, [sp], #4
 80049ea:	4770      	bx	lr

080049ec <stm32__spi__transmit>:
 80049ec:	b5b0      	push	{r4, r5, r7, lr}
 80049ee:	b086      	sub	sp, #24
 80049f0:	af00      	add	r7, sp, #0
 80049f2:	60f8      	str	r0, [r7, #12]
 80049f4:	e9c7 2300 	strd	r2, r3, [r7]
 80049f8:	68f8      	ldr	r0, [r7, #12]
 80049fa:	f7ff ffe1 	bl	80049c0 <stm32__spi__data_size>
 80049fe:	4603      	mov	r3, r0
 8004a00:	2b00      	cmp	r3, #0
 8004a02:	d005      	beq.n	8004a10 <stm32__spi__transmit+0x24>
 8004a04:	4c2c      	ldr	r4, [pc, #176]	; (8004ab8 <stm32__spi__transmit+0xcc>)
 8004a06:	4d2d      	ldr	r5, [pc, #180]	; (8004abc <stm32__spi__transmit+0xd0>)
 8004a08:	4620      	mov	r0, r4
 8004a0a:	4629      	mov	r1, r5
 8004a0c:	f003 fd7a 	bl	8008504 <system__assertions__raise_assert_failure>
 8004a10:	68f8      	ldr	r0, [r7, #12]
 8004a12:	f7ff ff35 	bl	8004880 <stm32__spi__crc_enabled>
 8004a16:	4603      	mov	r3, r0
 8004a18:	2b00      	cmp	r3, #0
 8004a1a:	d002      	beq.n	8004a22 <stm32__spi__transmit+0x36>
 8004a1c:	68f8      	ldr	r0, [r7, #12]
 8004a1e:	f7ff ffa1 	bl	8004964 <stm32__spi__reset_crc>
 8004a22:	68f8      	ldr	r0, [r7, #12]
 8004a24:	f7ff fef8 	bl	8004818 <stm32__spi__current_data_direction>
 8004a28:	4603      	mov	r3, r0
 8004a2a:	2b03      	cmp	r3, #3
 8004a2c:	d109      	bne.n	8004a42 <stm32__spi__transmit+0x56>
 8004a2e:	68fb      	ldr	r3, [r7, #12]
 8004a30:	685b      	ldr	r3, [r3, #4]
 8004a32:	681b      	ldr	r3, [r3, #0]
 8004a34:	461a      	mov	r2, r3
 8004a36:	4613      	mov	r3, r2
 8004a38:	f443 4280 	orr.w	r2, r3, #16384	; 0x4000
 8004a3c:	68fb      	ldr	r3, [r7, #12]
 8004a3e:	685b      	ldr	r3, [r3, #4]
 8004a40:	601a      	str	r2, [r3, #0]
 8004a42:	68f8      	ldr	r0, [r7, #12]
 8004a44:	f7ff ff76 	bl	8004934 <stm32__spi__clear_overrun>
 8004a48:	68f8      	ldr	r0, [r7, #12]
 8004a4a:	f7ff fe05 	bl	8004658 <stm32__spi__enabled>
 8004a4e:	4603      	mov	r3, r0
 8004a50:	f083 0301 	eor.w	r3, r3, #1
 8004a54:	b2db      	uxtb	r3, r3
 8004a56:	2b00      	cmp	r3, #0
 8004a58:	d002      	beq.n	8004a60 <stm32__spi__transmit+0x74>
 8004a5a:	68f8      	ldr	r0, [r7, #12]
 8004a5c:	f7ff fdd6 	bl	800460c <stm32__spi__enable>
 8004a60:	68f8      	ldr	r0, [r7, #12]
 8004a62:	e9d7 2300 	ldrd	r2, r3, [r7]
 8004a66:	f000 fef7 	bl	8005858 <stm32__spi__send_8bit_mode>
 8004a6a:	68f8      	ldr	r0, [r7, #12]
 8004a6c:	f7ff fe7a 	bl	8004764 <stm32__spi__tx_is_empty>
 8004a70:	4603      	mov	r3, r0
 8004a72:	f083 0301 	eor.w	r3, r3, #1
 8004a76:	b2db      	uxtb	r3, r3
 8004a78:	2b00      	cmp	r3, #0
 8004a7a:	d001      	beq.n	8004a80 <stm32__spi__transmit+0x94>
 8004a7c:	bf00      	nop
 8004a7e:	e7f4      	b.n	8004a6a <stm32__spi__transmit+0x7e>
 8004a80:	68f8      	ldr	r0, [r7, #12]
 8004a82:	f7ff fe97 	bl	80047b4 <stm32__spi__busy>
 8004a86:	4603      	mov	r3, r0
 8004a88:	2b00      	cmp	r3, #0
 8004a8a:	d001      	beq.n	8004a90 <stm32__spi__transmit+0xa4>
 8004a8c:	bf00      	nop
 8004a8e:	e7f7      	b.n	8004a80 <stm32__spi__transmit+0x94>
 8004a90:	68f8      	ldr	r0, [r7, #12]
 8004a92:	f7ff fec1 	bl	8004818 <stm32__spi__current_data_direction>
 8004a96:	4603      	mov	r3, r0
 8004a98:	2b01      	cmp	r3, #1
 8004a9a:	d001      	beq.n	8004aa0 <stm32__spi__transmit+0xb4>
 8004a9c:	2b00      	cmp	r3, #0
 8004a9e:	d102      	bne.n	8004aa6 <stm32__spi__transmit+0xba>
 8004aa0:	68f8      	ldr	r0, [r7, #12]
 8004aa2:	f7ff ff47 	bl	8004934 <stm32__spi__clear_overrun>
 8004aa6:	2300      	movs	r3, #0
 8004aa8:	75fb      	strb	r3, [r7, #23]
 8004aaa:	7dfb      	ldrb	r3, [r7, #23]
 8004aac:	bf00      	nop
 8004aae:	4618      	mov	r0, r3
 8004ab0:	3718      	adds	r7, #24
 8004ab2:	46bd      	mov	sp, r7
 8004ab4:	bdb0      	pop	{r4, r5, r7, pc}
 8004ab6:	bf00      	nop
 8004ab8:	0800cf40 	.word	0x0800cf40
 8004abc:	0800cf74 	.word	0x0800cf74

08004ac0 <stm32__spi__transmit__2>:
 8004ac0:	b5b0      	push	{r4, r5, r7, lr}
 8004ac2:	b086      	sub	sp, #24
 8004ac4:	af00      	add	r7, sp, #0
 8004ac6:	60f8      	str	r0, [r7, #12]
 8004ac8:	e9c7 2300 	strd	r2, r3, [r7]
 8004acc:	68f8      	ldr	r0, [r7, #12]
 8004ace:	f7ff ff77 	bl	80049c0 <stm32__spi__data_size>
 8004ad2:	4603      	mov	r3, r0
 8004ad4:	2b01      	cmp	r3, #1
 8004ad6:	d005      	beq.n	8004ae4 <stm32__spi__transmit__2+0x24>
 8004ad8:	4c2d      	ldr	r4, [pc, #180]	; (8004b90 <stm32__spi__transmit__2+0xd0>)
 8004ada:	4d2e      	ldr	r5, [pc, #184]	; (8004b94 <stm32__spi__transmit__2+0xd4>)
 8004adc:	4620      	mov	r0, r4
 8004ade:	4629      	mov	r1, r5
 8004ae0:	f003 fd10 	bl	8008504 <system__assertions__raise_assert_failure>
 8004ae4:	68f8      	ldr	r0, [r7, #12]
 8004ae6:	f7ff fecb 	bl	8004880 <stm32__spi__crc_enabled>
 8004aea:	4603      	mov	r3, r0
 8004aec:	2b00      	cmp	r3, #0
 8004aee:	d002      	beq.n	8004af6 <stm32__spi__transmit__2+0x36>
 8004af0:	68f8      	ldr	r0, [r7, #12]
 8004af2:	f7ff ff37 	bl	8004964 <stm32__spi__reset_crc>
 8004af6:	68f8      	ldr	r0, [r7, #12]
 8004af8:	f7ff fe8e 	bl	8004818 <stm32__spi__current_data_direction>
 8004afc:	4603      	mov	r3, r0
 8004afe:	2b03      	cmp	r3, #3
 8004b00:	d109      	bne.n	8004b16 <stm32__spi__transmit__2+0x56>
 8004b02:	68fb      	ldr	r3, [r7, #12]
 8004b04:	685b      	ldr	r3, [r3, #4]
 8004b06:	681b      	ldr	r3, [r3, #0]
 8004b08:	461a      	mov	r2, r3
 8004b0a:	4613      	mov	r3, r2
 8004b0c:	f443 4280 	orr.w	r2, r3, #16384	; 0x4000
 8004b10:	68fb      	ldr	r3, [r7, #12]
 8004b12:	685b      	ldr	r3, [r3, #4]
 8004b14:	601a      	str	r2, [r3, #0]
 8004b16:	68f8      	ldr	r0, [r7, #12]
 8004b18:	f7ff ff0c 	bl	8004934 <stm32__spi__clear_overrun>
 8004b1c:	68f8      	ldr	r0, [r7, #12]
 8004b1e:	f7ff fd9b 	bl	8004658 <stm32__spi__enabled>
 8004b22:	4603      	mov	r3, r0
 8004b24:	f083 0301 	eor.w	r3, r3, #1
 8004b28:	b2db      	uxtb	r3, r3
 8004b2a:	2b00      	cmp	r3, #0
 8004b2c:	d002      	beq.n	8004b34 <stm32__spi__transmit__2+0x74>
 8004b2e:	68f8      	ldr	r0, [r7, #12]
 8004b30:	f7ff fd6c 	bl	800460c <stm32__spi__enable>
 8004b34:	68f8      	ldr	r0, [r7, #12]
 8004b36:	e9d7 2300 	ldrd	r2, r3, [r7]
 8004b3a:	f000 fd9b 	bl	8005674 <stm32__spi__send_16bit_mode>
 8004b3e:	68f8      	ldr	r0, [r7, #12]
 8004b40:	f7ff fe10 	bl	8004764 <stm32__spi__tx_is_empty>
 8004b44:	4603      	mov	r3, r0
 8004b46:	f083 0301 	eor.w	r3, r3, #1
 8004b4a:	b2db      	uxtb	r3, r3
 8004b4c:	2b00      	cmp	r3, #0
 8004b4e:	d001      	beq.n	8004b54 <stm32__spi__transmit__2+0x94>
 8004b50:	bf00      	nop
 8004b52:	e7f4      	b.n	8004b3e <stm32__spi__transmit__2+0x7e>
 8004b54:	68f8      	ldr	r0, [r7, #12]
 8004b56:	f7ff fe2d 	bl	80047b4 <stm32__spi__busy>
 8004b5a:	4603      	mov	r3, r0
 8004b5c:	2b00      	cmp	r3, #0
 8004b5e:	d001      	beq.n	8004b64 <stm32__spi__transmit__2+0xa4>
 8004b60:	bf00      	nop
 8004b62:	e7f7      	b.n	8004b54 <stm32__spi__transmit__2+0x94>
 8004b64:	68f8      	ldr	r0, [r7, #12]
 8004b66:	f7ff fe57 	bl	8004818 <stm32__spi__current_data_direction>
 8004b6a:	4603      	mov	r3, r0
 8004b6c:	2b01      	cmp	r3, #1
 8004b6e:	d001      	beq.n	8004b74 <stm32__spi__transmit__2+0xb4>
 8004b70:	2b00      	cmp	r3, #0
 8004b72:	d104      	bne.n	8004b7e <stm32__spi__transmit__2+0xbe>
 8004b74:	68f8      	ldr	r0, [r7, #12]
 8004b76:	f7ff fedd 	bl	8004934 <stm32__spi__clear_overrun>
 8004b7a:	2301      	movs	r3, #1
 8004b7c:	75fb      	strb	r3, [r7, #23]
 8004b7e:	2300      	movs	r3, #0
 8004b80:	75fb      	strb	r3, [r7, #23]
 8004b82:	7dfb      	ldrb	r3, [r7, #23]
 8004b84:	bf00      	nop
 8004b86:	4618      	mov	r0, r3
 8004b88:	3718      	adds	r7, #24
 8004b8a:	46bd      	mov	sp, r7
 8004b8c:	bdb0      	pop	{r4, r5, r7, pc}
 8004b8e:	bf00      	nop
 8004b90:	0800cf7c 	.word	0x0800cf7c
 8004b94:	0800cf74 	.word	0x0800cf74

08004b98 <stm32__spi__transmit__3>:
 8004b98:	b580      	push	{r7, lr}
 8004b9a:	b084      	sub	sp, #16
 8004b9c:	af00      	add	r7, sp, #0
 8004b9e:	6078      	str	r0, [r7, #4]
 8004ba0:	460b      	mov	r3, r1
 8004ba2:	70fb      	strb	r3, [r7, #3]
 8004ba4:	687b      	ldr	r3, [r7, #4]
 8004ba6:	685b      	ldr	r3, [r3, #4]
 8004ba8:	330c      	adds	r3, #12
 8004baa:	60fb      	str	r3, [r7, #12]
 8004bac:	6878      	ldr	r0, [r7, #4]
 8004bae:	f7ff fe67 	bl	8004880 <stm32__spi__crc_enabled>
 8004bb2:	4603      	mov	r3, r0
 8004bb4:	2b00      	cmp	r3, #0
 8004bb6:	d002      	beq.n	8004bbe <stm32__spi__transmit__3+0x26>
 8004bb8:	6878      	ldr	r0, [r7, #4]
 8004bba:	f7ff fed3 	bl	8004964 <stm32__spi__reset_crc>
 8004bbe:	6878      	ldr	r0, [r7, #4]
 8004bc0:	f7ff fe2a 	bl	8004818 <stm32__spi__current_data_direction>
 8004bc4:	4603      	mov	r3, r0
 8004bc6:	2b03      	cmp	r3, #3
 8004bc8:	d109      	bne.n	8004bde <stm32__spi__transmit__3+0x46>
 8004bca:	687b      	ldr	r3, [r7, #4]
 8004bcc:	685b      	ldr	r3, [r3, #4]
 8004bce:	681b      	ldr	r3, [r3, #0]
 8004bd0:	461a      	mov	r2, r3
 8004bd2:	4613      	mov	r3, r2
 8004bd4:	f443 4280 	orr.w	r2, r3, #16384	; 0x4000
 8004bd8:	687b      	ldr	r3, [r7, #4]
 8004bda:	685b      	ldr	r3, [r3, #4]
 8004bdc:	601a      	str	r2, [r3, #0]
 8004bde:	6878      	ldr	r0, [r7, #4]
 8004be0:	f7ff fd3a 	bl	8004658 <stm32__spi__enabled>
 8004be4:	4603      	mov	r3, r0
 8004be6:	f083 0301 	eor.w	r3, r3, #1
 8004bea:	b2db      	uxtb	r3, r3
 8004bec:	2b00      	cmp	r3, #0
 8004bee:	d002      	beq.n	8004bf6 <stm32__spi__transmit__3+0x5e>
 8004bf0:	6878      	ldr	r0, [r7, #4]
 8004bf2:	f7ff fd0b 	bl	800460c <stm32__spi__enable>
 8004bf6:	68fb      	ldr	r3, [r7, #12]
 8004bf8:	78fa      	ldrb	r2, [r7, #3]
 8004bfa:	701a      	strb	r2, [r3, #0]
 8004bfc:	6878      	ldr	r0, [r7, #4]
 8004bfe:	f7ff fdb1 	bl	8004764 <stm32__spi__tx_is_empty>
 8004c02:	4603      	mov	r3, r0
 8004c04:	f083 0301 	eor.w	r3, r3, #1
 8004c08:	b2db      	uxtb	r3, r3
 8004c0a:	2b00      	cmp	r3, #0
 8004c0c:	d001      	beq.n	8004c12 <stm32__spi__transmit__3+0x7a>
 8004c0e:	bf00      	nop
 8004c10:	e7f4      	b.n	8004bfc <stm32__spi__transmit__3+0x64>
 8004c12:	6878      	ldr	r0, [r7, #4]
 8004c14:	f7ff fdce 	bl	80047b4 <stm32__spi__busy>
 8004c18:	4603      	mov	r3, r0
 8004c1a:	2b00      	cmp	r3, #0
 8004c1c:	d001      	beq.n	8004c22 <stm32__spi__transmit__3+0x8a>
 8004c1e:	bf00      	nop
 8004c20:	e7f7      	b.n	8004c12 <stm32__spi__transmit__3+0x7a>
 8004c22:	6878      	ldr	r0, [r7, #4]
 8004c24:	f7ff fdf8 	bl	8004818 <stm32__spi__current_data_direction>
 8004c28:	4603      	mov	r3, r0
 8004c2a:	2b01      	cmp	r3, #1
 8004c2c:	d001      	beq.n	8004c32 <stm32__spi__transmit__3+0x9a>
 8004c2e:	2b00      	cmp	r3, #0
 8004c30:	d102      	bne.n	8004c38 <stm32__spi__transmit__3+0xa0>
 8004c32:	6878      	ldr	r0, [r7, #4]
 8004c34:	f7ff fe7e 	bl	8004934 <stm32__spi__clear_overrun>
 8004c38:	3710      	adds	r7, #16
 8004c3a:	46bd      	mov	sp, r7
 8004c3c:	bd80      	pop	{r7, pc}
 8004c3e:	bf00      	nop

08004c40 <stm32__spi__receive>:
 8004c40:	b5b0      	push	{r4, r5, r7, lr}
 8004c42:	b086      	sub	sp, #24
 8004c44:	af00      	add	r7, sp, #0
 8004c46:	60f8      	str	r0, [r7, #12]
 8004c48:	e9c7 2300 	strd	r2, r3, [r7]
 8004c4c:	68f8      	ldr	r0, [r7, #12]
 8004c4e:	f7ff feb7 	bl	80049c0 <stm32__spi__data_size>
 8004c52:	4603      	mov	r3, r0
 8004c54:	2b00      	cmp	r3, #0
 8004c56:	d005      	beq.n	8004c64 <stm32__spi__receive+0x24>
 8004c58:	4c20      	ldr	r4, [pc, #128]	; (8004cdc <stm32__spi__receive+0x9c>)
 8004c5a:	4d21      	ldr	r5, [pc, #132]	; (8004ce0 <stm32__spi__receive+0xa0>)
 8004c5c:	4620      	mov	r0, r4
 8004c5e:	4629      	mov	r1, r5
 8004c60:	f003 fc50 	bl	8008504 <system__assertions__raise_assert_failure>
 8004c64:	68f8      	ldr	r0, [r7, #12]
 8004c66:	f7ff fe0b 	bl	8004880 <stm32__spi__crc_enabled>
 8004c6a:	4603      	mov	r3, r0
 8004c6c:	2b00      	cmp	r3, #0
 8004c6e:	d002      	beq.n	8004c76 <stm32__spi__receive+0x36>
 8004c70:	68f8      	ldr	r0, [r7, #12]
 8004c72:	f7ff fe77 	bl	8004964 <stm32__spi__reset_crc>
 8004c76:	68f8      	ldr	r0, [r7, #12]
 8004c78:	f7ff fcee 	bl	8004658 <stm32__spi__enabled>
 8004c7c:	4603      	mov	r3, r0
 8004c7e:	f083 0301 	eor.w	r3, r3, #1
 8004c82:	b2db      	uxtb	r3, r3
 8004c84:	2b00      	cmp	r3, #0
 8004c86:	d002      	beq.n	8004c8e <stm32__spi__receive+0x4e>
 8004c88:	68f8      	ldr	r0, [r7, #12]
 8004c8a:	f7ff fcbf 	bl	800460c <stm32__spi__enable>
 8004c8e:	68f8      	ldr	r0, [r7, #12]
 8004c90:	e9d7 2300 	ldrd	r2, r3, [r7]
 8004c94:	f000 fef0 	bl	8005a78 <stm32__spi__receive_8bit_mode>
 8004c98:	68f8      	ldr	r0, [r7, #12]
 8004c9a:	f7ff fd8b 	bl	80047b4 <stm32__spi__busy>
 8004c9e:	4603      	mov	r3, r0
 8004ca0:	2b00      	cmp	r3, #0
 8004ca2:	d001      	beq.n	8004ca8 <stm32__spi__receive+0x68>
 8004ca4:	bf00      	nop
 8004ca6:	e7f7      	b.n	8004c98 <stm32__spi__receive+0x58>
 8004ca8:	68f8      	ldr	r0, [r7, #12]
 8004caa:	f7ff fde9 	bl	8004880 <stm32__spi__crc_enabled>
 8004cae:	4603      	mov	r3, r0
 8004cb0:	461c      	mov	r4, r3
 8004cb2:	68f8      	ldr	r0, [r7, #12]
 8004cb4:	f7ff fdf6 	bl	80048a4 <stm32__spi__crc_error_indicated>
 8004cb8:	4603      	mov	r3, r0
 8004cba:	4023      	ands	r3, r4
 8004cbc:	b2db      	uxtb	r3, r3
 8004cbe:	2b00      	cmp	r3, #0
 8004cc0:	d004      	beq.n	8004ccc <stm32__spi__receive+0x8c>
 8004cc2:	68f8      	ldr	r0, [r7, #12]
 8004cc4:	f7ff fe4e 	bl	8004964 <stm32__spi__reset_crc>
 8004cc8:	2301      	movs	r3, #1
 8004cca:	75fb      	strb	r3, [r7, #23]
 8004ccc:	2300      	movs	r3, #0
 8004cce:	75fb      	strb	r3, [r7, #23]
 8004cd0:	7dfb      	ldrb	r3, [r7, #23]
 8004cd2:	bf00      	nop
 8004cd4:	4618      	mov	r0, r3
 8004cd6:	3718      	adds	r7, #24
 8004cd8:	46bd      	mov	sp, r7
 8004cda:	bdb0      	pop	{r4, r5, r7, pc}
 8004cdc:	0800cfb0 	.word	0x0800cfb0
 8004ce0:	0800cf74 	.word	0x0800cf74

08004ce4 <stm32__spi__receive__2>:
 8004ce4:	b5b0      	push	{r4, r5, r7, lr}
 8004ce6:	b086      	sub	sp, #24
 8004ce8:	af00      	add	r7, sp, #0
 8004cea:	60f8      	str	r0, [r7, #12]
 8004cec:	e9c7 2300 	strd	r2, r3, [r7]
 8004cf0:	68f8      	ldr	r0, [r7, #12]
 8004cf2:	f7ff fe65 	bl	80049c0 <stm32__spi__data_size>
 8004cf6:	4603      	mov	r3, r0
 8004cf8:	2b01      	cmp	r3, #1
 8004cfa:	d005      	beq.n	8004d08 <stm32__spi__receive__2+0x24>
 8004cfc:	4c20      	ldr	r4, [pc, #128]	; (8004d80 <stm32__spi__receive__2+0x9c>)
 8004cfe:	4d21      	ldr	r5, [pc, #132]	; (8004d84 <stm32__spi__receive__2+0xa0>)
 8004d00:	4620      	mov	r0, r4
 8004d02:	4629      	mov	r1, r5
 8004d04:	f003 fbfe 	bl	8008504 <system__assertions__raise_assert_failure>
 8004d08:	68f8      	ldr	r0, [r7, #12]
 8004d0a:	f7ff fdb9 	bl	8004880 <stm32__spi__crc_enabled>
 8004d0e:	4603      	mov	r3, r0
 8004d10:	2b00      	cmp	r3, #0
 8004d12:	d002      	beq.n	8004d1a <stm32__spi__receive__2+0x36>
 8004d14:	68f8      	ldr	r0, [r7, #12]
 8004d16:	f7ff fe25 	bl	8004964 <stm32__spi__reset_crc>
 8004d1a:	68f8      	ldr	r0, [r7, #12]
 8004d1c:	f7ff fc9c 	bl	8004658 <stm32__spi__enabled>
 8004d20:	4603      	mov	r3, r0
 8004d22:	f083 0301 	eor.w	r3, r3, #1
 8004d26:	b2db      	uxtb	r3, r3
 8004d28:	2b00      	cmp	r3, #0
 8004d2a:	d002      	beq.n	8004d32 <stm32__spi__receive__2+0x4e>
 8004d2c:	68f8      	ldr	r0, [r7, #12]
 8004d2e:	f7ff fc6d 	bl	800460c <stm32__spi__enable>
 8004d32:	68f8      	ldr	r0, [r7, #12]
 8004d34:	e9d7 2300 	ldrd	r2, r3, [r7]
 8004d38:	f000 fe52 	bl	80059e0 <stm32__spi__receive_16bit_mode>
 8004d3c:	68f8      	ldr	r0, [r7, #12]
 8004d3e:	f7ff fd39 	bl	80047b4 <stm32__spi__busy>
 8004d42:	4603      	mov	r3, r0
 8004d44:	2b00      	cmp	r3, #0
 8004d46:	d001      	beq.n	8004d4c <stm32__spi__receive__2+0x68>
 8004d48:	bf00      	nop
 8004d4a:	e7f7      	b.n	8004d3c <stm32__spi__receive__2+0x58>
 8004d4c:	68f8      	ldr	r0, [r7, #12]
 8004d4e:	f7ff fd97 	bl	8004880 <stm32__spi__crc_enabled>
 8004d52:	4603      	mov	r3, r0
 8004d54:	461c      	mov	r4, r3
 8004d56:	68f8      	ldr	r0, [r7, #12]
 8004d58:	f7ff fda4 	bl	80048a4 <stm32__spi__crc_error_indicated>
 8004d5c:	4603      	mov	r3, r0
 8004d5e:	4023      	ands	r3, r4
 8004d60:	b2db      	uxtb	r3, r3
 8004d62:	2b00      	cmp	r3, #0
 8004d64:	d004      	beq.n	8004d70 <stm32__spi__receive__2+0x8c>
 8004d66:	68f8      	ldr	r0, [r7, #12]
 8004d68:	f7ff fdfc 	bl	8004964 <stm32__spi__reset_crc>
 8004d6c:	2301      	movs	r3, #1
 8004d6e:	75fb      	strb	r3, [r7, #23]
 8004d70:	2300      	movs	r3, #0
 8004d72:	75fb      	strb	r3, [r7, #23]
 8004d74:	7dfb      	ldrb	r3, [r7, #23]
 8004d76:	bf00      	nop
 8004d78:	4618      	mov	r0, r3
 8004d7a:	3718      	adds	r7, #24
 8004d7c:	46bd      	mov	sp, r7
 8004d7e:	bdb0      	pop	{r4, r5, r7, pc}
 8004d80:	0800cfe4 	.word	0x0800cfe4
 8004d84:	0800cf74 	.word	0x0800cf74

08004d88 <stm32__spi__receive__3>:
 8004d88:	b590      	push	{r4, r7, lr}
 8004d8a:	b085      	sub	sp, #20
 8004d8c:	af00      	add	r7, sp, #0
 8004d8e:	6078      	str	r0, [r7, #4]
 8004d90:	687b      	ldr	r3, [r7, #4]
 8004d92:	685b      	ldr	r3, [r3, #4]
 8004d94:	330c      	adds	r3, #12
 8004d96:	60fb      	str	r3, [r7, #12]
 8004d98:	6878      	ldr	r0, [r7, #4]
 8004d9a:	f7ff fd71 	bl	8004880 <stm32__spi__crc_enabled>
 8004d9e:	4603      	mov	r3, r0
 8004da0:	2b00      	cmp	r3, #0
 8004da2:	d002      	beq.n	8004daa <stm32__spi__receive__3+0x22>
 8004da4:	6878      	ldr	r0, [r7, #4]
 8004da6:	f7ff fddd 	bl	8004964 <stm32__spi__reset_crc>
 8004daa:	6878      	ldr	r0, [r7, #4]
 8004dac:	f7ff fc54 	bl	8004658 <stm32__spi__enabled>
 8004db0:	4603      	mov	r3, r0
 8004db2:	f083 0301 	eor.w	r3, r3, #1
 8004db6:	b2db      	uxtb	r3, r3
 8004db8:	2b00      	cmp	r3, #0
 8004dba:	d002      	beq.n	8004dc2 <stm32__spi__receive__3+0x3a>
 8004dbc:	6878      	ldr	r0, [r7, #4]
 8004dbe:	f7ff fc25 	bl	800460c <stm32__spi__enable>
 8004dc2:	68fb      	ldr	r3, [r7, #12]
 8004dc4:	2200      	movs	r2, #0
 8004dc6:	701a      	strb	r2, [r3, #0]
 8004dc8:	6878      	ldr	r0, [r7, #4]
 8004dca:	f7ff fcdd 	bl	8004788 <stm32__spi__rx_is_empty>
 8004dce:	4603      	mov	r3, r0
 8004dd0:	2b00      	cmp	r3, #0
 8004dd2:	d001      	beq.n	8004dd8 <stm32__spi__receive__3+0x50>
 8004dd4:	bf00      	nop
 8004dd6:	e7f7      	b.n	8004dc8 <stm32__spi__receive__3+0x40>
 8004dd8:	68fb      	ldr	r3, [r7, #12]
 8004dda:	781b      	ldrb	r3, [r3, #0]
 8004ddc:	b2db      	uxtb	r3, r3
 8004dde:	727b      	strb	r3, [r7, #9]
 8004de0:	6878      	ldr	r0, [r7, #4]
 8004de2:	f7ff fd4d 	bl	8004880 <stm32__spi__crc_enabled>
 8004de6:	4603      	mov	r3, r0
 8004de8:	2b00      	cmp	r3, #0
 8004dea:	d00d      	beq.n	8004e08 <stm32__spi__receive__3+0x80>
 8004dec:	6878      	ldr	r0, [r7, #4]
 8004dee:	f7ff fccb 	bl	8004788 <stm32__spi__rx_is_empty>
 8004df2:	4603      	mov	r3, r0
 8004df4:	2b00      	cmp	r3, #0
 8004df6:	d001      	beq.n	8004dfc <stm32__spi__receive__3+0x74>
 8004df8:	bf00      	nop
 8004dfa:	e7f7      	b.n	8004dec <stm32__spi__receive__3+0x64>
 8004dfc:	687b      	ldr	r3, [r7, #4]
 8004dfe:	685b      	ldr	r3, [r3, #4]
 8004e00:	330c      	adds	r3, #12
 8004e02:	881b      	ldrh	r3, [r3, #0]
 8004e04:	b29b      	uxth	r3, r3
 8004e06:	817b      	strh	r3, [r7, #10]
 8004e08:	6878      	ldr	r0, [r7, #4]
 8004e0a:	f7ff fcd3 	bl	80047b4 <stm32__spi__busy>
 8004e0e:	4603      	mov	r3, r0
 8004e10:	2b00      	cmp	r3, #0
 8004e12:	d001      	beq.n	8004e18 <stm32__spi__receive__3+0x90>
 8004e14:	bf00      	nop
 8004e16:	e7f7      	b.n	8004e08 <stm32__spi__receive__3+0x80>
 8004e18:	6878      	ldr	r0, [r7, #4]
 8004e1a:	f7ff fd31 	bl	8004880 <stm32__spi__crc_enabled>
 8004e1e:	4603      	mov	r3, r0
 8004e20:	461c      	mov	r4, r3
 8004e22:	6878      	ldr	r0, [r7, #4]
 8004e24:	f7ff fd3e 	bl	80048a4 <stm32__spi__crc_error_indicated>
 8004e28:	4603      	mov	r3, r0
 8004e2a:	4023      	ands	r3, r4
 8004e2c:	b2db      	uxtb	r3, r3
 8004e2e:	2b00      	cmp	r3, #0
 8004e30:	d002      	beq.n	8004e38 <stm32__spi__receive__3+0xb0>
 8004e32:	6878      	ldr	r0, [r7, #4]
 8004e34:	f7ff fd96 	bl	8004964 <stm32__spi__reset_crc>
 8004e38:	7a7b      	ldrb	r3, [r7, #9]
 8004e3a:	bf00      	nop
 8004e3c:	4618      	mov	r0, r3
 8004e3e:	3714      	adds	r7, #20
 8004e40:	46bd      	mov	sp, r7
 8004e42:	bd90      	pop	{r4, r7, pc}

08004e44 <stm32__spi__transmit_receive>:
 8004e44:	b590      	push	{r4, r7, lr}
 8004e46:	b08f      	sub	sp, #60	; 0x3c
 8004e48:	af04      	add	r7, sp, #16
 8004e4a:	60f8      	str	r0, [r7, #12]
 8004e4c:	e9c7 2300 	strd	r2, r3, [r7]
 8004e50:	687b      	ldr	r3, [r7, #4]
 8004e52:	681b      	ldr	r3, [r3, #0]
 8004e54:	687a      	ldr	r2, [r7, #4]
 8004e56:	6852      	ldr	r2, [r2, #4]
 8004e58:	6bf9      	ldr	r1, [r7, #60]	; 0x3c
 8004e5a:	6809      	ldr	r1, [r1, #0]
 8004e5c:	6279      	str	r1, [r7, #36]	; 0x24
 8004e5e:	6bf9      	ldr	r1, [r7, #60]	; 0x3c
 8004e60:	6848      	ldr	r0, [r1, #4]
 8004e62:	6bf9      	ldr	r1, [r7, #60]	; 0x3c
 8004e64:	6809      	ldr	r1, [r1, #0]
 8004e66:	4288      	cmp	r0, r1
 8004e68:	db03      	blt.n	8004e72 <stm32__spi__transmit_receive+0x2e>
 8004e6a:	6bf9      	ldr	r1, [r7, #60]	; 0x3c
 8004e6c:	6849      	ldr	r1, [r1, #4]
 8004e6e:	6239      	str	r1, [r7, #32]
 8004e70:	e003      	b.n	8004e7a <stm32__spi__transmit_receive+0x36>
 8004e72:	6bf9      	ldr	r1, [r7, #60]	; 0x3c
 8004e74:	6809      	ldr	r1, [r1, #0]
 8004e76:	3901      	subs	r1, #1
 8004e78:	6239      	str	r1, [r7, #32]
 8004e7a:	61fb      	str	r3, [r7, #28]
 8004e7c:	429a      	cmp	r2, r3
 8004e7e:	db01      	blt.n	8004e84 <stm32__spi__transmit_receive+0x40>
 8004e80:	61ba      	str	r2, [r7, #24]
 8004e82:	e001      	b.n	8004e88 <stm32__spi__transmit_receive+0x44>
 8004e84:	3b01      	subs	r3, #1
 8004e86:	61bb      	str	r3, [r7, #24]
 8004e88:	68f8      	ldr	r0, [r7, #12]
 8004e8a:	f7ff fcf9 	bl	8004880 <stm32__spi__crc_enabled>
 8004e8e:	4603      	mov	r3, r0
 8004e90:	2b00      	cmp	r3, #0
 8004e92:	d002      	beq.n	8004e9a <stm32__spi__transmit_receive+0x56>
 8004e94:	68f8      	ldr	r0, [r7, #12]
 8004e96:	f7ff fd65 	bl	8004964 <stm32__spi__reset_crc>
 8004e9a:	68f8      	ldr	r0, [r7, #12]
 8004e9c:	f7ff fbdc 	bl	8004658 <stm32__spi__enabled>
 8004ea0:	4603      	mov	r3, r0
 8004ea2:	f083 0301 	eor.w	r3, r3, #1
 8004ea6:	b2db      	uxtb	r3, r3
 8004ea8:	2b00      	cmp	r3, #0
 8004eaa:	d002      	beq.n	8004eb2 <stm32__spi__transmit_receive+0x6e>
 8004eac:	68f8      	ldr	r0, [r7, #12]
 8004eae:	f7ff fbad 	bl	800460c <stm32__spi__enable>
 8004eb2:	68f8      	ldr	r0, [r7, #12]
 8004eb4:	f7ff fd72 	bl	800499c <stm32__spi__is_data_frame_16bit>
 8004eb8:	4603      	mov	r3, r0
 8004eba:	2b00      	cmp	r3, #0
 8004ebc:	d00b      	beq.n	8004ed6 <stm32__spi__transmit_receive+0x92>
 8004ebe:	e9d7 340e 	ldrd	r3, r4, [r7, #56]	; 0x38
 8004ec2:	e9cd 3400 	strd	r3, r4, [sp]
 8004ec6:	6c3b      	ldr	r3, [r7, #64]	; 0x40
 8004ec8:	9302      	str	r3, [sp, #8]
 8004eca:	68f8      	ldr	r0, [r7, #12]
 8004ecc:	e9d7 2300 	ldrd	r2, r3, [r7]
 8004ed0:	f000 f8ba 	bl	8005048 <stm32__spi__send_receive_16bit_mode>
 8004ed4:	e00a      	b.n	8004eec <stm32__spi__transmit_receive+0xa8>
 8004ed6:	e9d7 340e 	ldrd	r3, r4, [r7, #56]	; 0x38
 8004eda:	e9cd 3400 	strd	r3, r4, [sp]
 8004ede:	6c3b      	ldr	r3, [r7, #64]	; 0x40
 8004ee0:	9302      	str	r3, [sp, #8]
 8004ee2:	68f8      	ldr	r0, [r7, #12]
 8004ee4:	e9d7 2300 	ldrd	r2, r3, [r7]
 8004ee8:	f000 fa5e 	bl	80053a8 <stm32__spi__send_receive_8bit_mode>
 8004eec:	68f8      	ldr	r0, [r7, #12]
 8004eee:	f7ff fcc7 	bl	8004880 <stm32__spi__crc_enabled>
 8004ef2:	4603      	mov	r3, r0
 8004ef4:	2b00      	cmp	r3, #0
 8004ef6:	d00d      	beq.n	8004f14 <stm32__spi__transmit_receive+0xd0>
 8004ef8:	68f8      	ldr	r0, [r7, #12]
 8004efa:	f7ff fc45 	bl	8004788 <stm32__spi__rx_is_empty>
 8004efe:	4603      	mov	r3, r0
 8004f00:	2b00      	cmp	r3, #0
 8004f02:	d001      	beq.n	8004f08 <stm32__spi__transmit_receive+0xc4>
 8004f04:	bf00      	nop
 8004f06:	e7f7      	b.n	8004ef8 <stm32__spi__transmit_receive+0xb4>
 8004f08:	68fb      	ldr	r3, [r7, #12]
 8004f0a:	685b      	ldr	r3, [r3, #4]
 8004f0c:	330c      	adds	r3, #12
 8004f0e:	881b      	ldrh	r3, [r3, #0]
 8004f10:	b29b      	uxth	r3, r3
 8004f12:	82fb      	strh	r3, [r7, #22]
 8004f14:	68f8      	ldr	r0, [r7, #12]
 8004f16:	f7ff fc4d 	bl	80047b4 <stm32__spi__busy>
 8004f1a:	4603      	mov	r3, r0
 8004f1c:	2b00      	cmp	r3, #0
 8004f1e:	d001      	beq.n	8004f24 <stm32__spi__transmit_receive+0xe0>
 8004f20:	bf00      	nop
 8004f22:	e7f7      	b.n	8004f14 <stm32__spi__transmit_receive+0xd0>
 8004f24:	68f8      	ldr	r0, [r7, #12]
 8004f26:	f7ff fcab 	bl	8004880 <stm32__spi__crc_enabled>
 8004f2a:	4603      	mov	r3, r0
 8004f2c:	461c      	mov	r4, r3
 8004f2e:	68f8      	ldr	r0, [r7, #12]
 8004f30:	f7ff fcb8 	bl	80048a4 <stm32__spi__crc_error_indicated>
 8004f34:	4603      	mov	r3, r0
 8004f36:	4023      	ands	r3, r4
 8004f38:	b2db      	uxtb	r3, r3
 8004f3a:	2b00      	cmp	r3, #0
 8004f3c:	d002      	beq.n	8004f44 <stm32__spi__transmit_receive+0x100>
 8004f3e:	68f8      	ldr	r0, [r7, #12]
 8004f40:	f7ff fd10 	bl	8004964 <stm32__spi__reset_crc>
 8004f44:	372c      	adds	r7, #44	; 0x2c
 8004f46:	46bd      	mov	sp, r7
 8004f48:	bd90      	pop	{r4, r7, pc}
 8004f4a:	bf00      	nop

08004f4c <stm32__spi__transmit_receive__2>:
 8004f4c:	b590      	push	{r4, r7, lr}
 8004f4e:	b085      	sub	sp, #20
 8004f50:	af00      	add	r7, sp, #0
 8004f52:	6078      	str	r0, [r7, #4]
 8004f54:	460b      	mov	r3, r1
 8004f56:	70fb      	strb	r3, [r7, #3]
 8004f58:	687b      	ldr	r3, [r7, #4]
 8004f5a:	685b      	ldr	r3, [r3, #4]
 8004f5c:	330c      	adds	r3, #12
 8004f5e:	60fb      	str	r3, [r7, #12]
 8004f60:	6878      	ldr	r0, [r7, #4]
 8004f62:	f7ff fc8d 	bl	8004880 <stm32__spi__crc_enabled>
 8004f66:	4603      	mov	r3, r0
 8004f68:	2b00      	cmp	r3, #0
 8004f6a:	d002      	beq.n	8004f72 <stm32__spi__transmit_receive__2+0x26>
 8004f6c:	6878      	ldr	r0, [r7, #4]
 8004f6e:	f7ff fcf9 	bl	8004964 <stm32__spi__reset_crc>
 8004f72:	6878      	ldr	r0, [r7, #4]
 8004f74:	f7ff fb70 	bl	8004658 <stm32__spi__enabled>
 8004f78:	4603      	mov	r3, r0
 8004f7a:	f083 0301 	eor.w	r3, r3, #1
 8004f7e:	b2db      	uxtb	r3, r3
 8004f80:	2b00      	cmp	r3, #0
 8004f82:	d002      	beq.n	8004f8a <stm32__spi__transmit_receive__2+0x3e>
 8004f84:	6878      	ldr	r0, [r7, #4]
 8004f86:	f7ff fb41 	bl	800460c <stm32__spi__enable>
 8004f8a:	6878      	ldr	r0, [r7, #4]
 8004f8c:	f7ff fd06 	bl	800499c <stm32__spi__is_data_frame_16bit>
 8004f90:	4603      	mov	r3, r0
 8004f92:	2b00      	cmp	r3, #0
 8004f94:	d004      	beq.n	8004fa0 <stm32__spi__transmit_receive__2+0x54>
 8004f96:	482b      	ldr	r0, [pc, #172]	; (8005044 <stm32__spi__transmit_receive__2+0xf8>)
 8004f98:	f44f 7129 	mov.w	r1, #676	; 0x2a4
 8004f9c:	f004 f892 	bl	80090c4 <__gnat_rcheck_PE_Explicit_Raise>
 8004fa0:	68fb      	ldr	r3, [r7, #12]
 8004fa2:	78fa      	ldrb	r2, [r7, #3]
 8004fa4:	701a      	strb	r2, [r3, #0]
 8004fa6:	6878      	ldr	r0, [r7, #4]
 8004fa8:	f7ff fc6a 	bl	8004880 <stm32__spi__crc_enabled>
 8004fac:	4603      	mov	r3, r0
 8004fae:	2b00      	cmp	r3, #0
 8004fb0:	d009      	beq.n	8004fc6 <stm32__spi__transmit_receive__2+0x7a>
 8004fb2:	687b      	ldr	r3, [r7, #4]
 8004fb4:	685b      	ldr	r3, [r3, #4]
 8004fb6:	681b      	ldr	r3, [r3, #0]
 8004fb8:	461a      	mov	r2, r3
 8004fba:	4613      	mov	r3, r2
 8004fbc:	f443 5280 	orr.w	r2, r3, #4096	; 0x1000
 8004fc0:	687b      	ldr	r3, [r7, #4]
 8004fc2:	685b      	ldr	r3, [r3, #4]
 8004fc4:	601a      	str	r2, [r3, #0]
 8004fc6:	6878      	ldr	r0, [r7, #4]
 8004fc8:	f7ff fbde 	bl	8004788 <stm32__spi__rx_is_empty>
 8004fcc:	4603      	mov	r3, r0
 8004fce:	2b00      	cmp	r3, #0
 8004fd0:	d001      	beq.n	8004fd6 <stm32__spi__transmit_receive__2+0x8a>
 8004fd2:	bf00      	nop
 8004fd4:	e7f7      	b.n	8004fc6 <stm32__spi__transmit_receive__2+0x7a>
 8004fd6:	68fb      	ldr	r3, [r7, #12]
 8004fd8:	781b      	ldrb	r3, [r3, #0]
 8004fda:	b2db      	uxtb	r3, r3
 8004fdc:	727b      	strb	r3, [r7, #9]
 8004fde:	6878      	ldr	r0, [r7, #4]
 8004fe0:	f7ff fc4e 	bl	8004880 <stm32__spi__crc_enabled>
 8004fe4:	4603      	mov	r3, r0
 8004fe6:	2b00      	cmp	r3, #0
 8004fe8:	d00d      	beq.n	8005006 <stm32__spi__transmit_receive__2+0xba>
 8004fea:	6878      	ldr	r0, [r7, #4]
 8004fec:	f7ff fbcc 	bl	8004788 <stm32__spi__rx_is_empty>
 8004ff0:	4603      	mov	r3, r0
 8004ff2:	2b00      	cmp	r3, #0
 8004ff4:	d001      	beq.n	8004ffa <stm32__spi__transmit_receive__2+0xae>
 8004ff6:	bf00      	nop
 8004ff8:	e7f7      	b.n	8004fea <stm32__spi__transmit_receive__2+0x9e>
 8004ffa:	687b      	ldr	r3, [r7, #4]
 8004ffc:	685b      	ldr	r3, [r3, #4]
 8004ffe:	330c      	adds	r3, #12
 8005000:	881b      	ldrh	r3, [r3, #0]
 8005002:	b29b      	uxth	r3, r3
 8005004:	817b      	strh	r3, [r7, #10]
 8005006:	6878      	ldr	r0, [r7, #4]
 8005008:	f7ff fbd4 	bl	80047b4 <stm32__spi__busy>
 800500c:	4603      	mov	r3, r0
 800500e:	2b00      	cmp	r3, #0
 8005010:	d001      	beq.n	8005016 <stm32__spi__transmit_receive__2+0xca>
 8005012:	bf00      	nop
 8005014:	e7f7      	b.n	8005006 <stm32__spi__transmit_receive__2+0xba>
 8005016:	6878      	ldr	r0, [r7, #4]
 8005018:	f7ff fc32 	bl	8004880 <stm32__spi__crc_enabled>
 800501c:	4603      	mov	r3, r0
 800501e:	461c      	mov	r4, r3
 8005020:	6878      	ldr	r0, [r7, #4]
 8005022:	f7ff fc3f 	bl	80048a4 <stm32__spi__crc_error_indicated>
 8005026:	4603      	mov	r3, r0
 8005028:	4023      	ands	r3, r4
 800502a:	b2db      	uxtb	r3, r3
 800502c:	2b00      	cmp	r3, #0
 800502e:	d002      	beq.n	8005036 <stm32__spi__transmit_receive__2+0xea>
 8005030:	6878      	ldr	r0, [r7, #4]
 8005032:	f7ff fc97 	bl	8004964 <stm32__spi__reset_crc>
 8005036:	7a7b      	ldrb	r3, [r7, #9]
 8005038:	bf00      	nop
 800503a:	4618      	mov	r0, r3
 800503c:	3714      	adds	r7, #20
 800503e:	46bd      	mov	sp, r7
 8005040:	bd90      	pop	{r4, r7, pc}
 8005042:	bf00      	nop
 8005044:	0800cf30 	.word	0x0800cf30

08005048 <stm32__spi__send_receive_16bit_mode>:
 8005048:	b5f0      	push	{r4, r5, r6, r7, lr}
 800504a:	b08d      	sub	sp, #52	; 0x34
 800504c:	af00      	add	r7, sp, #0
 800504e:	60f8      	str	r0, [r7, #12]
 8005050:	e9c7 2300 	strd	r2, r3, [r7]
 8005054:	687b      	ldr	r3, [r7, #4]
 8005056:	681c      	ldr	r4, [r3, #0]
 8005058:	687b      	ldr	r3, [r7, #4]
 800505a:	685d      	ldr	r5, [r3, #4]
 800505c:	6cfb      	ldr	r3, [r7, #76]	; 0x4c
 800505e:	681b      	ldr	r3, [r3, #0]
 8005060:	623b      	str	r3, [r7, #32]
 8005062:	6cfb      	ldr	r3, [r7, #76]	; 0x4c
 8005064:	685a      	ldr	r2, [r3, #4]
 8005066:	6cfb      	ldr	r3, [r7, #76]	; 0x4c
 8005068:	681b      	ldr	r3, [r3, #0]
 800506a:	429a      	cmp	r2, r3
 800506c:	db03      	blt.n	8005076 <stm32__spi__send_receive_16bit_mode+0x2e>
 800506e:	6cfb      	ldr	r3, [r7, #76]	; 0x4c
 8005070:	685b      	ldr	r3, [r3, #4]
 8005072:	61fb      	str	r3, [r7, #28]
 8005074:	e003      	b.n	800507e <stm32__spi__send_receive_16bit_mode+0x36>
 8005076:	6cfb      	ldr	r3, [r7, #76]	; 0x4c
 8005078:	681b      	ldr	r3, [r3, #0]
 800507a:	3b01      	subs	r3, #1
 800507c:	61fb      	str	r3, [r7, #28]
 800507e:	61bc      	str	r4, [r7, #24]
 8005080:	42a5      	cmp	r5, r4
 8005082:	db01      	blt.n	8005088 <stm32__spi__send_receive_16bit_mode+0x40>
 8005084:	617d      	str	r5, [r7, #20]
 8005086:	e002      	b.n	800508e <stm32__spi__send_receive_16bit_mode+0x46>
 8005088:	4623      	mov	r3, r4
 800508a:	3b01      	subs	r3, #1
 800508c:	617b      	str	r3, [r7, #20]
 800508e:	6d3b      	ldr	r3, [r7, #80]	; 0x50
 8005090:	62fb      	str	r3, [r7, #44]	; 0x2c
 8005092:	2c00      	cmp	r4, #0
 8005094:	da04      	bge.n	80050a0 <stm32__spi__send_receive_16bit_mode+0x58>
 8005096:	48a3      	ldr	r0, [pc, #652]	; (8005324 <stm32__spi__send_receive_16bit_mode+0x2dc>)
 8005098:	f240 21d6 	movw	r1, #726	; 0x2d6
 800509c:	f004 f80a 	bl	80090b4 <__gnat_rcheck_CE_Range_Check>
 80050a0:	62bc      	str	r4, [r7, #40]	; 0x28
 80050a2:	6cfb      	ldr	r3, [r7, #76]	; 0x4c
 80050a4:	681b      	ldr	r3, [r3, #0]
 80050a6:	2b00      	cmp	r3, #0
 80050a8:	da04      	bge.n	80050b4 <stm32__spi__send_receive_16bit_mode+0x6c>
 80050aa:	489e      	ldr	r0, [pc, #632]	; (8005324 <stm32__spi__send_receive_16bit_mode+0x2dc>)
 80050ac:	f240 21d7 	movw	r1, #727	; 0x2d7
 80050b0:	f004 f800 	bl	80090b4 <__gnat_rcheck_CE_Range_Check>
 80050b4:	6cfb      	ldr	r3, [r7, #76]	; 0x4c
 80050b6:	681b      	ldr	r3, [r3, #0]
 80050b8:	627b      	str	r3, [r7, #36]	; 0x24
 80050ba:	68f8      	ldr	r0, [r7, #12]
 80050bc:	f7ff fb8c 	bl	80047d8 <stm32__spi__current_mode>
 80050c0:	4603      	mov	r3, r0
 80050c2:	2b01      	cmp	r3, #1
 80050c4:	d002      	beq.n	80050cc <stm32__spi__send_receive_16bit_mode+0x84>
 80050c6:	6afb      	ldr	r3, [r7, #44]	; 0x2c
 80050c8:	2b01      	cmp	r3, #1
 80050ca:	d13e      	bne.n	800514a <stm32__spi__send_receive_16bit_mode+0x102>
 80050cc:	6abb      	ldr	r3, [r7, #40]	; 0x28
 80050ce:	42a3      	cmp	r3, r4
 80050d0:	db02      	blt.n	80050d8 <stm32__spi__send_receive_16bit_mode+0x90>
 80050d2:	6abb      	ldr	r3, [r7, #40]	; 0x28
 80050d4:	42ab      	cmp	r3, r5
 80050d6:	dd04      	ble.n	80050e2 <stm32__spi__send_receive_16bit_mode+0x9a>
 80050d8:	4892      	ldr	r0, [pc, #584]	; (8005324 <stm32__spi__send_receive_16bit_mode+0x2dc>)
 80050da:	f240 21db 	movw	r1, #731	; 0x2db
 80050de:	f003 ffd1 	bl	8009084 <__gnat_rcheck_CE_Index_Check>
 80050e2:	683a      	ldr	r2, [r7, #0]
 80050e4:	4621      	mov	r1, r4
 80050e6:	6abb      	ldr	r3, [r7, #40]	; 0x28
 80050e8:	1a5b      	subs	r3, r3, r1
 80050ea:	4413      	add	r3, r2
 80050ec:	2b00      	cmp	r3, #0
 80050ee:	d104      	bne.n	80050fa <stm32__spi__send_receive_16bit_mode+0xb2>
 80050f0:	488c      	ldr	r0, [pc, #560]	; (8005324 <stm32__spi__send_receive_16bit_mode+0x2dc>)
 80050f2:	f240 21db 	movw	r1, #731	; 0x2db
 80050f6:	f003 ffad 	bl	8009054 <__gnat_rcheck_CE_Access_Check>
 80050fa:	68fb      	ldr	r3, [r7, #12]
 80050fc:	685b      	ldr	r3, [r3, #4]
 80050fe:	330c      	adds	r3, #12
 8005100:	881b      	ldrh	r3, [r3, #0]
 8005102:	b29b      	uxth	r3, r3
 8005104:	461a      	mov	r2, r3
 8005106:	683a      	ldr	r2, [r7, #0]
 8005108:	4621      	mov	r1, r4
 800510a:	6abb      	ldr	r3, [r7, #40]	; 0x28
 800510c:	1a5b      	subs	r3, r3, r1
 800510e:	4413      	add	r3, r2
 8005110:	881b      	ldrh	r3, [r3, #0]
 8005112:	461a      	mov	r2, r3
 8005114:	68fb      	ldr	r3, [r7, #12]
 8005116:	685b      	ldr	r3, [r3, #4]
 8005118:	330c      	adds	r3, #12
 800511a:	b292      	uxth	r2, r2
 800511c:	801a      	strh	r2, [r3, #0]
 800511e:	6abb      	ldr	r3, [r7, #40]	; 0x28
 8005120:	4a81      	ldr	r2, [pc, #516]	; (8005328 <stm32__spi__send_receive_16bit_mode+0x2e0>)
 8005122:	4293      	cmp	r3, r2
 8005124:	dd04      	ble.n	8005130 <stm32__spi__send_receive_16bit_mode+0xe8>
 8005126:	487f      	ldr	r0, [pc, #508]	; (8005324 <stm32__spi__send_receive_16bit_mode+0x2dc>)
 8005128:	f44f 7137 	mov.w	r1, #732	; 0x2dc
 800512c:	f003 ffba 	bl	80090a4 <__gnat_rcheck_CE_Overflow_Check>
 8005130:	6abb      	ldr	r3, [r7, #40]	; 0x28
 8005132:	3302      	adds	r3, #2
 8005134:	62bb      	str	r3, [r7, #40]	; 0x28
 8005136:	6afb      	ldr	r3, [r7, #44]	; 0x2c
 8005138:	3b01      	subs	r3, #1
 800513a:	2b00      	cmp	r3, #0
 800513c:	da04      	bge.n	8005148 <stm32__spi__send_receive_16bit_mode+0x100>
 800513e:	4879      	ldr	r0, [pc, #484]	; (8005324 <stm32__spi__send_receive_16bit_mode+0x2dc>)
 8005140:	f240 21dd 	movw	r1, #733	; 0x2dd
 8005144:	f003 ffb6 	bl	80090b4 <__gnat_rcheck_CE_Range_Check>
 8005148:	62fb      	str	r3, [r7, #44]	; 0x2c
 800514a:	6afb      	ldr	r3, [r7, #44]	; 0x2c
 800514c:	2b00      	cmp	r3, #0
 800514e:	d143      	bne.n	80051d8 <stm32__spi__send_receive_16bit_mode+0x190>
 8005150:	68f8      	ldr	r0, [r7, #12]
 8005152:	f7ff fb95 	bl	8004880 <stm32__spi__crc_enabled>
 8005156:	4603      	mov	r3, r0
 8005158:	2b00      	cmp	r3, #0
 800515a:	d009      	beq.n	8005170 <stm32__spi__send_receive_16bit_mode+0x128>
 800515c:	68fb      	ldr	r3, [r7, #12]
 800515e:	685b      	ldr	r3, [r3, #4]
 8005160:	681b      	ldr	r3, [r3, #0]
 8005162:	461a      	mov	r2, r3
 8005164:	4613      	mov	r3, r2
 8005166:	f443 5280 	orr.w	r2, r3, #4096	; 0x1000
 800516a:	68fb      	ldr	r3, [r7, #12]
 800516c:	685b      	ldr	r3, [r3, #4]
 800516e:	601a      	str	r2, [r3, #0]
 8005170:	68f8      	ldr	r0, [r7, #12]
 8005172:	f7ff fb09 	bl	8004788 <stm32__spi__rx_is_empty>
 8005176:	4603      	mov	r3, r0
 8005178:	2b00      	cmp	r3, #0
 800517a:	d001      	beq.n	8005180 <stm32__spi__send_receive_16bit_mode+0x138>
 800517c:	bf00      	nop
 800517e:	e7f7      	b.n	8005170 <stm32__spi__send_receive_16bit_mode+0x128>
 8005180:	6a7a      	ldr	r2, [r7, #36]	; 0x24
 8005182:	6cfb      	ldr	r3, [r7, #76]	; 0x4c
 8005184:	681b      	ldr	r3, [r3, #0]
 8005186:	429a      	cmp	r2, r3
 8005188:	db04      	blt.n	8005194 <stm32__spi__send_receive_16bit_mode+0x14c>
 800518a:	6a7a      	ldr	r2, [r7, #36]	; 0x24
 800518c:	6cfb      	ldr	r3, [r7, #76]	; 0x4c
 800518e:	685b      	ldr	r3, [r3, #4]
 8005190:	429a      	cmp	r2, r3
 8005192:	dd04      	ble.n	800519e <stm32__spi__send_receive_16bit_mode+0x156>
 8005194:	4863      	ldr	r0, [pc, #396]	; (8005324 <stm32__spi__send_receive_16bit_mode+0x2dc>)
 8005196:	f44f 713b 	mov.w	r1, #748	; 0x2ec
 800519a:	f003 ff73 	bl	8009084 <__gnat_rcheck_CE_Index_Check>
 800519e:	6cba      	ldr	r2, [r7, #72]	; 0x48
 80051a0:	6cfb      	ldr	r3, [r7, #76]	; 0x4c
 80051a2:	681b      	ldr	r3, [r3, #0]
 80051a4:	4619      	mov	r1, r3
 80051a6:	6a7b      	ldr	r3, [r7, #36]	; 0x24
 80051a8:	1a5b      	subs	r3, r3, r1
 80051aa:	4413      	add	r3, r2
 80051ac:	2b00      	cmp	r3, #0
 80051ae:	d104      	bne.n	80051ba <stm32__spi__send_receive_16bit_mode+0x172>
 80051b0:	485c      	ldr	r0, [pc, #368]	; (8005324 <stm32__spi__send_receive_16bit_mode+0x2dc>)
 80051b2:	f44f 713b 	mov.w	r1, #748	; 0x2ec
 80051b6:	f003 ff4d 	bl	8009054 <__gnat_rcheck_CE_Access_Check>
 80051ba:	6cba      	ldr	r2, [r7, #72]	; 0x48
 80051bc:	6cfb      	ldr	r3, [r7, #76]	; 0x4c
 80051be:	681b      	ldr	r3, [r3, #0]
 80051c0:	4619      	mov	r1, r3
 80051c2:	6a7b      	ldr	r3, [r7, #36]	; 0x24
 80051c4:	1a5b      	subs	r3, r3, r1
 80051c6:	4413      	add	r3, r2
 80051c8:	68fa      	ldr	r2, [r7, #12]
 80051ca:	6852      	ldr	r2, [r2, #4]
 80051cc:	320c      	adds	r2, #12
 80051ce:	8812      	ldrh	r2, [r2, #0]
 80051d0:	b292      	uxth	r2, r2
 80051d2:	b292      	uxth	r2, r2
 80051d4:	801a      	strh	r2, [r3, #0]
 80051d6:	e0e2      	b.n	800539e <stm32__spi__send_receive_16bit_mode+0x356>
 80051d8:	6afb      	ldr	r3, [r7, #44]	; 0x2c
 80051da:	2b00      	cmp	r3, #0
 80051dc:	f340 80a6 	ble.w	800532c <stm32__spi__send_receive_16bit_mode+0x2e4>
 80051e0:	68f8      	ldr	r0, [r7, #12]
 80051e2:	f7ff fabf 	bl	8004764 <stm32__spi__tx_is_empty>
 80051e6:	4603      	mov	r3, r0
 80051e8:	f083 0301 	eor.w	r3, r3, #1
 80051ec:	b2db      	uxtb	r3, r3
 80051ee:	2b00      	cmp	r3, #0
 80051f0:	d001      	beq.n	80051f6 <stm32__spi__send_receive_16bit_mode+0x1ae>
 80051f2:	bf00      	nop
 80051f4:	e7f4      	b.n	80051e0 <stm32__spi__send_receive_16bit_mode+0x198>
 80051f6:	6abb      	ldr	r3, [r7, #40]	; 0x28
 80051f8:	42a3      	cmp	r3, r4
 80051fa:	db02      	blt.n	8005202 <stm32__spi__send_receive_16bit_mode+0x1ba>
 80051fc:	6abb      	ldr	r3, [r7, #40]	; 0x28
 80051fe:	42ab      	cmp	r3, r5
 8005200:	dd04      	ble.n	800520c <stm32__spi__send_receive_16bit_mode+0x1c4>
 8005202:	4848      	ldr	r0, [pc, #288]	; (8005324 <stm32__spi__send_receive_16bit_mode+0x2dc>)
 8005204:	f240 21f9 	movw	r1, #761	; 0x2f9
 8005208:	f003 ff3c 	bl	8009084 <__gnat_rcheck_CE_Index_Check>
 800520c:	683a      	ldr	r2, [r7, #0]
 800520e:	4621      	mov	r1, r4
 8005210:	6abb      	ldr	r3, [r7, #40]	; 0x28
 8005212:	1a5b      	subs	r3, r3, r1
 8005214:	4413      	add	r3, r2
 8005216:	2b00      	cmp	r3, #0
 8005218:	d104      	bne.n	8005224 <stm32__spi__send_receive_16bit_mode+0x1dc>
 800521a:	4842      	ldr	r0, [pc, #264]	; (8005324 <stm32__spi__send_receive_16bit_mode+0x2dc>)
 800521c:	f240 21f9 	movw	r1, #761	; 0x2f9
 8005220:	f003 ff18 	bl	8009054 <__gnat_rcheck_CE_Access_Check>
 8005224:	68fb      	ldr	r3, [r7, #12]
 8005226:	685b      	ldr	r3, [r3, #4]
 8005228:	330c      	adds	r3, #12
 800522a:	881b      	ldrh	r3, [r3, #0]
 800522c:	b29b      	uxth	r3, r3
 800522e:	461a      	mov	r2, r3
 8005230:	683a      	ldr	r2, [r7, #0]
 8005232:	4621      	mov	r1, r4
 8005234:	6abb      	ldr	r3, [r7, #40]	; 0x28
 8005236:	1a5b      	subs	r3, r3, r1
 8005238:	4413      	add	r3, r2
 800523a:	881b      	ldrh	r3, [r3, #0]
 800523c:	461a      	mov	r2, r3
 800523e:	68fb      	ldr	r3, [r7, #12]
 8005240:	685b      	ldr	r3, [r3, #4]
 8005242:	330c      	adds	r3, #12
 8005244:	b292      	uxth	r2, r2
 8005246:	801a      	strh	r2, [r3, #0]
 8005248:	6abb      	ldr	r3, [r7, #40]	; 0x28
 800524a:	4a37      	ldr	r2, [pc, #220]	; (8005328 <stm32__spi__send_receive_16bit_mode+0x2e0>)
 800524c:	4293      	cmp	r3, r2
 800524e:	dd04      	ble.n	800525a <stm32__spi__send_receive_16bit_mode+0x212>
 8005250:	4834      	ldr	r0, [pc, #208]	; (8005324 <stm32__spi__send_receive_16bit_mode+0x2dc>)
 8005252:	f240 21fa 	movw	r1, #762	; 0x2fa
 8005256:	f003 ff25 	bl	80090a4 <__gnat_rcheck_CE_Overflow_Check>
 800525a:	6abb      	ldr	r3, [r7, #40]	; 0x28
 800525c:	3302      	adds	r3, #2
 800525e:	62bb      	str	r3, [r7, #40]	; 0x28
 8005260:	6afb      	ldr	r3, [r7, #44]	; 0x2c
 8005262:	3b01      	subs	r3, #1
 8005264:	2b00      	cmp	r3, #0
 8005266:	da04      	bge.n	8005272 <stm32__spi__send_receive_16bit_mode+0x22a>
 8005268:	482e      	ldr	r0, [pc, #184]	; (8005324 <stm32__spi__send_receive_16bit_mode+0x2dc>)
 800526a:	f240 21fb 	movw	r1, #763	; 0x2fb
 800526e:	f003 ff21 	bl	80090b4 <__gnat_rcheck_CE_Range_Check>
 8005272:	62fb      	str	r3, [r7, #44]	; 0x2c
 8005274:	6afb      	ldr	r3, [r7, #44]	; 0x2c
 8005276:	2b00      	cmp	r3, #0
 8005278:	bf0c      	ite	eq
 800527a:	2301      	moveq	r3, #1
 800527c:	2300      	movne	r3, #0
 800527e:	b2de      	uxtb	r6, r3
 8005280:	68f8      	ldr	r0, [r7, #12]
 8005282:	f7ff fafd 	bl	8004880 <stm32__spi__crc_enabled>
 8005286:	4603      	mov	r3, r0
 8005288:	4033      	ands	r3, r6
 800528a:	b2db      	uxtb	r3, r3
 800528c:	2b00      	cmp	r3, #0
 800528e:	d009      	beq.n	80052a4 <stm32__spi__send_receive_16bit_mode+0x25c>
 8005290:	68fb      	ldr	r3, [r7, #12]
 8005292:	685b      	ldr	r3, [r3, #4]
 8005294:	681b      	ldr	r3, [r3, #0]
 8005296:	461a      	mov	r2, r3
 8005298:	4613      	mov	r3, r2
 800529a:	f443 5280 	orr.w	r2, r3, #4096	; 0x1000
 800529e:	68fb      	ldr	r3, [r7, #12]
 80052a0:	685b      	ldr	r3, [r3, #4]
 80052a2:	601a      	str	r2, [r3, #0]
 80052a4:	68f8      	ldr	r0, [r7, #12]
 80052a6:	f7ff fa6f 	bl	8004788 <stm32__spi__rx_is_empty>
 80052aa:	4603      	mov	r3, r0
 80052ac:	2b00      	cmp	r3, #0
 80052ae:	d001      	beq.n	80052b4 <stm32__spi__send_receive_16bit_mode+0x26c>
 80052b0:	bf00      	nop
 80052b2:	e7f7      	b.n	80052a4 <stm32__spi__send_receive_16bit_mode+0x25c>
 80052b4:	6a7a      	ldr	r2, [r7, #36]	; 0x24
 80052b6:	6cfb      	ldr	r3, [r7, #76]	; 0x4c
 80052b8:	681b      	ldr	r3, [r3, #0]
 80052ba:	429a      	cmp	r2, r3
 80052bc:	db04      	blt.n	80052c8 <stm32__spi__send_receive_16bit_mode+0x280>
 80052be:	6a7a      	ldr	r2, [r7, #36]	; 0x24
 80052c0:	6cfb      	ldr	r3, [r7, #76]	; 0x4c
 80052c2:	685b      	ldr	r3, [r3, #4]
 80052c4:	429a      	cmp	r2, r3
 80052c6:	dd04      	ble.n	80052d2 <stm32__spi__send_receive_16bit_mode+0x28a>
 80052c8:	4816      	ldr	r0, [pc, #88]	; (8005324 <stm32__spi__send_receive_16bit_mode+0x2dc>)
 80052ca:	f240 3107 	movw	r1, #775	; 0x307
 80052ce:	f003 fed9 	bl	8009084 <__gnat_rcheck_CE_Index_Check>
 80052d2:	6cba      	ldr	r2, [r7, #72]	; 0x48
 80052d4:	6cfb      	ldr	r3, [r7, #76]	; 0x4c
 80052d6:	681b      	ldr	r3, [r3, #0]
 80052d8:	4619      	mov	r1, r3
 80052da:	6a7b      	ldr	r3, [r7, #36]	; 0x24
 80052dc:	1a5b      	subs	r3, r3, r1
 80052de:	4413      	add	r3, r2
 80052e0:	2b00      	cmp	r3, #0
 80052e2:	d104      	bne.n	80052ee <stm32__spi__send_receive_16bit_mode+0x2a6>
 80052e4:	480f      	ldr	r0, [pc, #60]	; (8005324 <stm32__spi__send_receive_16bit_mode+0x2dc>)
 80052e6:	f240 3107 	movw	r1, #775	; 0x307
 80052ea:	f003 feb3 	bl	8009054 <__gnat_rcheck_CE_Access_Check>
 80052ee:	6cba      	ldr	r2, [r7, #72]	; 0x48
 80052f0:	6cfb      	ldr	r3, [r7, #76]	; 0x4c
 80052f2:	681b      	ldr	r3, [r3, #0]
 80052f4:	4619      	mov	r1, r3
 80052f6:	6a7b      	ldr	r3, [r7, #36]	; 0x24
 80052f8:	1a5b      	subs	r3, r3, r1
 80052fa:	4413      	add	r3, r2
 80052fc:	68fa      	ldr	r2, [r7, #12]
 80052fe:	6852      	ldr	r2, [r2, #4]
 8005300:	320c      	adds	r2, #12
 8005302:	8812      	ldrh	r2, [r2, #0]
 8005304:	b292      	uxth	r2, r2
 8005306:	b292      	uxth	r2, r2
 8005308:	801a      	strh	r2, [r3, #0]
 800530a:	6a7b      	ldr	r3, [r7, #36]	; 0x24
 800530c:	4a06      	ldr	r2, [pc, #24]	; (8005328 <stm32__spi__send_receive_16bit_mode+0x2e0>)
 800530e:	4293      	cmp	r3, r2
 8005310:	dd04      	ble.n	800531c <stm32__spi__send_receive_16bit_mode+0x2d4>
 8005312:	4804      	ldr	r0, [pc, #16]	; (8005324 <stm32__spi__send_receive_16bit_mode+0x2dc>)
 8005314:	f240 3109 	movw	r1, #777	; 0x309
 8005318:	f003 fec4 	bl	80090a4 <__gnat_rcheck_CE_Overflow_Check>
 800531c:	6a7b      	ldr	r3, [r7, #36]	; 0x24
 800531e:	3302      	adds	r3, #2
 8005320:	627b      	str	r3, [r7, #36]	; 0x24
 8005322:	e759      	b.n	80051d8 <stm32__spi__send_receive_16bit_mode+0x190>
 8005324:	0800cf30 	.word	0x0800cf30
 8005328:	7ffffffd 	.word	0x7ffffffd
 800532c:	68f8      	ldr	r0, [r7, #12]
 800532e:	f7ff fa53 	bl	80047d8 <stm32__spi__current_mode>
 8005332:	4603      	mov	r3, r0
 8005334:	2b01      	cmp	r3, #1
 8005336:	d132      	bne.n	800539e <stm32__spi__send_receive_16bit_mode+0x356>
 8005338:	68f8      	ldr	r0, [r7, #12]
 800533a:	f7ff fa25 	bl	8004788 <stm32__spi__rx_is_empty>
 800533e:	4603      	mov	r3, r0
 8005340:	2b00      	cmp	r3, #0
 8005342:	d001      	beq.n	8005348 <stm32__spi__send_receive_16bit_mode+0x300>
 8005344:	bf00      	nop
 8005346:	e7f7      	b.n	8005338 <stm32__spi__send_receive_16bit_mode+0x2f0>
 8005348:	6a7a      	ldr	r2, [r7, #36]	; 0x24
 800534a:	6cfb      	ldr	r3, [r7, #76]	; 0x4c
 800534c:	681b      	ldr	r3, [r3, #0]
 800534e:	429a      	cmp	r2, r3
 8005350:	db04      	blt.n	800535c <stm32__spi__send_receive_16bit_mode+0x314>
 8005352:	6a7a      	ldr	r2, [r7, #36]	; 0x24
 8005354:	6cfb      	ldr	r3, [r7, #76]	; 0x4c
 8005356:	685b      	ldr	r3, [r3, #4]
 8005358:	429a      	cmp	r2, r3
 800535a:	dd04      	ble.n	8005366 <stm32__spi__send_receive_16bit_mode+0x31e>
 800535c:	4811      	ldr	r0, [pc, #68]	; (80053a4 <stm32__spi__send_receive_16bit_mode+0x35c>)
 800535e:	f240 3113 	movw	r1, #787	; 0x313
 8005362:	f003 fe8f 	bl	8009084 <__gnat_rcheck_CE_Index_Check>
 8005366:	6cba      	ldr	r2, [r7, #72]	; 0x48
 8005368:	6cfb      	ldr	r3, [r7, #76]	; 0x4c
 800536a:	681b      	ldr	r3, [r3, #0]
 800536c:	4619      	mov	r1, r3
 800536e:	6a7b      	ldr	r3, [r7, #36]	; 0x24
 8005370:	1a5b      	subs	r3, r3, r1
 8005372:	4413      	add	r3, r2
 8005374:	2b00      	cmp	r3, #0
 8005376:	d104      	bne.n	8005382 <stm32__spi__send_receive_16bit_mode+0x33a>
 8005378:	480a      	ldr	r0, [pc, #40]	; (80053a4 <stm32__spi__send_receive_16bit_mode+0x35c>)
 800537a:	f240 3113 	movw	r1, #787	; 0x313
 800537e:	f003 fe69 	bl	8009054 <__gnat_rcheck_CE_Access_Check>
 8005382:	6cba      	ldr	r2, [r7, #72]	; 0x48
 8005384:	6cfb      	ldr	r3, [r7, #76]	; 0x4c
 8005386:	681b      	ldr	r3, [r3, #0]
 8005388:	4619      	mov	r1, r3
 800538a:	6a7b      	ldr	r3, [r7, #36]	; 0x24
 800538c:	1a5b      	subs	r3, r3, r1
 800538e:	4413      	add	r3, r2
 8005390:	68fa      	ldr	r2, [r7, #12]
 8005392:	6852      	ldr	r2, [r2, #4]
 8005394:	320c      	adds	r2, #12
 8005396:	8812      	ldrh	r2, [r2, #0]
 8005398:	b292      	uxth	r2, r2
 800539a:	b292      	uxth	r2, r2
 800539c:	801a      	strh	r2, [r3, #0]
 800539e:	3734      	adds	r7, #52	; 0x34
 80053a0:	46bd      	mov	sp, r7
 80053a2:	bdf0      	pop	{r4, r5, r6, r7, pc}
 80053a4:	0800cf30 	.word	0x0800cf30

080053a8 <stm32__spi__send_receive_8bit_mode>:
 80053a8:	b5f0      	push	{r4, r5, r6, r7, lr}
 80053aa:	b08d      	sub	sp, #52	; 0x34
 80053ac:	af00      	add	r7, sp, #0
 80053ae:	60f8      	str	r0, [r7, #12]
 80053b0:	e9c7 2300 	strd	r2, r3, [r7]
 80053b4:	687b      	ldr	r3, [r7, #4]
 80053b6:	681c      	ldr	r4, [r3, #0]
 80053b8:	687b      	ldr	r3, [r7, #4]
 80053ba:	685d      	ldr	r5, [r3, #4]
 80053bc:	6cfb      	ldr	r3, [r7, #76]	; 0x4c
 80053be:	681b      	ldr	r3, [r3, #0]
 80053c0:	623b      	str	r3, [r7, #32]
 80053c2:	6cfb      	ldr	r3, [r7, #76]	; 0x4c
 80053c4:	685a      	ldr	r2, [r3, #4]
 80053c6:	6cfb      	ldr	r3, [r7, #76]	; 0x4c
 80053c8:	681b      	ldr	r3, [r3, #0]
 80053ca:	429a      	cmp	r2, r3
 80053cc:	db03      	blt.n	80053d6 <stm32__spi__send_receive_8bit_mode+0x2e>
 80053ce:	6cfb      	ldr	r3, [r7, #76]	; 0x4c
 80053d0:	685b      	ldr	r3, [r3, #4]
 80053d2:	61fb      	str	r3, [r7, #28]
 80053d4:	e003      	b.n	80053de <stm32__spi__send_receive_8bit_mode+0x36>
 80053d6:	6cfb      	ldr	r3, [r7, #76]	; 0x4c
 80053d8:	681b      	ldr	r3, [r3, #0]
 80053da:	3b01      	subs	r3, #1
 80053dc:	61fb      	str	r3, [r7, #28]
 80053de:	61bc      	str	r4, [r7, #24]
 80053e0:	42a5      	cmp	r5, r4
 80053e2:	db01      	blt.n	80053e8 <stm32__spi__send_receive_8bit_mode+0x40>
 80053e4:	617d      	str	r5, [r7, #20]
 80053e6:	e002      	b.n	80053ee <stm32__spi__send_receive_8bit_mode+0x46>
 80053e8:	4623      	mov	r3, r4
 80053ea:	3b01      	subs	r3, #1
 80053ec:	617b      	str	r3, [r7, #20]
 80053ee:	6d3b      	ldr	r3, [r7, #80]	; 0x50
 80053f0:	62fb      	str	r3, [r7, #44]	; 0x2c
 80053f2:	2c00      	cmp	r4, #0
 80053f4:	da04      	bge.n	8005400 <stm32__spi__send_receive_8bit_mode+0x58>
 80053f6:	489e      	ldr	r0, [pc, #632]	; (8005670 <stm32__spi__send_receive_8bit_mode+0x2c8>)
 80053f8:	f240 3123 	movw	r1, #803	; 0x323
 80053fc:	f003 fe5a 	bl	80090b4 <__gnat_rcheck_CE_Range_Check>
 8005400:	62bc      	str	r4, [r7, #40]	; 0x28
 8005402:	6cfb      	ldr	r3, [r7, #76]	; 0x4c
 8005404:	681b      	ldr	r3, [r3, #0]
 8005406:	2b00      	cmp	r3, #0
 8005408:	da04      	bge.n	8005414 <stm32__spi__send_receive_8bit_mode+0x6c>
 800540a:	4899      	ldr	r0, [pc, #612]	; (8005670 <stm32__spi__send_receive_8bit_mode+0x2c8>)
 800540c:	f44f 7149 	mov.w	r1, #804	; 0x324
 8005410:	f003 fe50 	bl	80090b4 <__gnat_rcheck_CE_Range_Check>
 8005414:	6cfb      	ldr	r3, [r7, #76]	; 0x4c
 8005416:	681b      	ldr	r3, [r3, #0]
 8005418:	627b      	str	r3, [r7, #36]	; 0x24
 800541a:	68fb      	ldr	r3, [r7, #12]
 800541c:	685b      	ldr	r3, [r3, #4]
 800541e:	330c      	adds	r3, #12
 8005420:	613b      	str	r3, [r7, #16]
 8005422:	68f8      	ldr	r0, [r7, #12]
 8005424:	f7ff f9d8 	bl	80047d8 <stm32__spi__current_mode>
 8005428:	4603      	mov	r3, r0
 800542a:	2b01      	cmp	r3, #1
 800542c:	d002      	beq.n	8005434 <stm32__spi__send_receive_8bit_mode+0x8c>
 800542e:	6afb      	ldr	r3, [r7, #44]	; 0x2c
 8005430:	2b01      	cmp	r3, #1
 8005432:	d128      	bne.n	8005486 <stm32__spi__send_receive_8bit_mode+0xde>
 8005434:	6abb      	ldr	r3, [r7, #40]	; 0x28
 8005436:	42a3      	cmp	r3, r4
 8005438:	db02      	blt.n	8005440 <stm32__spi__send_receive_8bit_mode+0x98>
 800543a:	6abb      	ldr	r3, [r7, #40]	; 0x28
 800543c:	42ab      	cmp	r3, r5
 800543e:	dd04      	ble.n	800544a <stm32__spi__send_receive_8bit_mode+0xa2>
 8005440:	488b      	ldr	r0, [pc, #556]	; (8005670 <stm32__spi__send_receive_8bit_mode+0x2c8>)
 8005442:	f44f 714a 	mov.w	r1, #808	; 0x328
 8005446:	f003 fe1d 	bl	8009084 <__gnat_rcheck_CE_Index_Check>
 800544a:	683a      	ldr	r2, [r7, #0]
 800544c:	6ab9      	ldr	r1, [r7, #40]	; 0x28
 800544e:	69bb      	ldr	r3, [r7, #24]
 8005450:	1acb      	subs	r3, r1, r3
 8005452:	5cd2      	ldrb	r2, [r2, r3]
 8005454:	693b      	ldr	r3, [r7, #16]
 8005456:	701a      	strb	r2, [r3, #0]
 8005458:	6abb      	ldr	r3, [r7, #40]	; 0x28
 800545a:	f06f 4200 	mvn.w	r2, #2147483648	; 0x80000000
 800545e:	4293      	cmp	r3, r2
 8005460:	d104      	bne.n	800546c <stm32__spi__send_receive_8bit_mode+0xc4>
 8005462:	4883      	ldr	r0, [pc, #524]	; (8005670 <stm32__spi__send_receive_8bit_mode+0x2c8>)
 8005464:	f240 3129 	movw	r1, #809	; 0x329
 8005468:	f003 fe1c 	bl	80090a4 <__gnat_rcheck_CE_Overflow_Check>
 800546c:	6abb      	ldr	r3, [r7, #40]	; 0x28
 800546e:	3301      	adds	r3, #1
 8005470:	62bb      	str	r3, [r7, #40]	; 0x28
 8005472:	6afb      	ldr	r3, [r7, #44]	; 0x2c
 8005474:	3b01      	subs	r3, #1
 8005476:	2b00      	cmp	r3, #0
 8005478:	da04      	bge.n	8005484 <stm32__spi__send_receive_8bit_mode+0xdc>
 800547a:	487d      	ldr	r0, [pc, #500]	; (8005670 <stm32__spi__send_receive_8bit_mode+0x2c8>)
 800547c:	f240 312a 	movw	r1, #810	; 0x32a
 8005480:	f003 fe18 	bl	80090b4 <__gnat_rcheck_CE_Range_Check>
 8005484:	62fb      	str	r3, [r7, #44]	; 0x2c
 8005486:	6afb      	ldr	r3, [r7, #44]	; 0x2c
 8005488:	2b00      	cmp	r3, #0
 800548a:	d138      	bne.n	80054fe <stm32__spi__send_receive_8bit_mode+0x156>
 800548c:	68f8      	ldr	r0, [r7, #12]
 800548e:	f7ff f9f7 	bl	8004880 <stm32__spi__crc_enabled>
 8005492:	4603      	mov	r3, r0
 8005494:	2b00      	cmp	r3, #0
 8005496:	d009      	beq.n	80054ac <stm32__spi__send_receive_8bit_mode+0x104>
 8005498:	68fb      	ldr	r3, [r7, #12]
 800549a:	685b      	ldr	r3, [r3, #4]
 800549c:	681b      	ldr	r3, [r3, #0]
 800549e:	461a      	mov	r2, r3
 80054a0:	4613      	mov	r3, r2
 80054a2:	f443 5280 	orr.w	r2, r3, #4096	; 0x1000
 80054a6:	68fb      	ldr	r3, [r7, #12]
 80054a8:	685b      	ldr	r3, [r3, #4]
 80054aa:	601a      	str	r2, [r3, #0]
 80054ac:	68f8      	ldr	r0, [r7, #12]
 80054ae:	f7ff f96b 	bl	8004788 <stm32__spi__rx_is_empty>
 80054b2:	4603      	mov	r3, r0
 80054b4:	2b00      	cmp	r3, #0
 80054b6:	d001      	beq.n	80054bc <stm32__spi__send_receive_8bit_mode+0x114>
 80054b8:	bf00      	nop
 80054ba:	e7f7      	b.n	80054ac <stm32__spi__send_receive_8bit_mode+0x104>
 80054bc:	6a7a      	ldr	r2, [r7, #36]	; 0x24
 80054be:	6cfb      	ldr	r3, [r7, #76]	; 0x4c
 80054c0:	681b      	ldr	r3, [r3, #0]
 80054c2:	429a      	cmp	r2, r3
 80054c4:	db04      	blt.n	80054d0 <stm32__spi__send_receive_8bit_mode+0x128>
 80054c6:	6a7a      	ldr	r2, [r7, #36]	; 0x24
 80054c8:	6cfb      	ldr	r3, [r7, #76]	; 0x4c
 80054ca:	685b      	ldr	r3, [r3, #4]
 80054cc:	429a      	cmp	r2, r3
 80054ce:	dd04      	ble.n	80054da <stm32__spi__send_receive_8bit_mode+0x132>
 80054d0:	4867      	ldr	r0, [pc, #412]	; (8005670 <stm32__spi__send_receive_8bit_mode+0x2c8>)
 80054d2:	f44f 714e 	mov.w	r1, #824	; 0x338
 80054d6:	f003 fdd5 	bl	8009084 <__gnat_rcheck_CE_Index_Check>
 80054da:	6a7b      	ldr	r3, [r7, #36]	; 0x24
 80054dc:	2b00      	cmp	r3, #0
 80054de:	da04      	bge.n	80054ea <stm32__spi__send_receive_8bit_mode+0x142>
 80054e0:	4863      	ldr	r0, [pc, #396]	; (8005670 <stm32__spi__send_receive_8bit_mode+0x2c8>)
 80054e2:	f44f 714e 	mov.w	r1, #824	; 0x338
 80054e6:	f003 fdd5 	bl	8009094 <__gnat_rcheck_CE_Invalid_Data>
 80054ea:	6cba      	ldr	r2, [r7, #72]	; 0x48
 80054ec:	693b      	ldr	r3, [r7, #16]
 80054ee:	781b      	ldrb	r3, [r3, #0]
 80054f0:	b2d8      	uxtb	r0, r3
 80054f2:	6a79      	ldr	r1, [r7, #36]	; 0x24
 80054f4:	6a3b      	ldr	r3, [r7, #32]
 80054f6:	1acb      	subs	r3, r1, r3
 80054f8:	4601      	mov	r1, r0
 80054fa:	54d1      	strb	r1, [r2, r3]
 80054fc:	e0b5      	b.n	800566a <stm32__spi__send_receive_8bit_mode+0x2c2>
 80054fe:	6afb      	ldr	r3, [r7, #44]	; 0x2c
 8005500:	2b00      	cmp	r3, #0
 8005502:	f340 8082 	ble.w	800560a <stm32__spi__send_receive_8bit_mode+0x262>
 8005506:	68f8      	ldr	r0, [r7, #12]
 8005508:	f7ff f92c 	bl	8004764 <stm32__spi__tx_is_empty>
 800550c:	4603      	mov	r3, r0
 800550e:	f083 0301 	eor.w	r3, r3, #1
 8005512:	b2db      	uxtb	r3, r3
 8005514:	2b00      	cmp	r3, #0
 8005516:	d001      	beq.n	800551c <stm32__spi__send_receive_8bit_mode+0x174>
 8005518:	bf00      	nop
 800551a:	e7f4      	b.n	8005506 <stm32__spi__send_receive_8bit_mode+0x15e>
 800551c:	6abb      	ldr	r3, [r7, #40]	; 0x28
 800551e:	42a3      	cmp	r3, r4
 8005520:	db02      	blt.n	8005528 <stm32__spi__send_receive_8bit_mode+0x180>
 8005522:	6abb      	ldr	r3, [r7, #40]	; 0x28
 8005524:	42ab      	cmp	r3, r5
 8005526:	dd04      	ble.n	8005532 <stm32__spi__send_receive_8bit_mode+0x18a>
 8005528:	4851      	ldr	r0, [pc, #324]	; (8005670 <stm32__spi__send_receive_8bit_mode+0x2c8>)
 800552a:	f240 3142 	movw	r1, #834	; 0x342
 800552e:	f003 fda9 	bl	8009084 <__gnat_rcheck_CE_Index_Check>
 8005532:	683a      	ldr	r2, [r7, #0]
 8005534:	6ab9      	ldr	r1, [r7, #40]	; 0x28
 8005536:	69bb      	ldr	r3, [r7, #24]
 8005538:	1acb      	subs	r3, r1, r3
 800553a:	5cd2      	ldrb	r2, [r2, r3]
 800553c:	693b      	ldr	r3, [r7, #16]
 800553e:	701a      	strb	r2, [r3, #0]
 8005540:	6abb      	ldr	r3, [r7, #40]	; 0x28
 8005542:	f06f 4200 	mvn.w	r2, #2147483648	; 0x80000000
 8005546:	4293      	cmp	r3, r2
 8005548:	d104      	bne.n	8005554 <stm32__spi__send_receive_8bit_mode+0x1ac>
 800554a:	4849      	ldr	r0, [pc, #292]	; (8005670 <stm32__spi__send_receive_8bit_mode+0x2c8>)
 800554c:	f240 3143 	movw	r1, #835	; 0x343
 8005550:	f003 fda8 	bl	80090a4 <__gnat_rcheck_CE_Overflow_Check>
 8005554:	6abb      	ldr	r3, [r7, #40]	; 0x28
 8005556:	3301      	adds	r3, #1
 8005558:	62bb      	str	r3, [r7, #40]	; 0x28
 800555a:	6afb      	ldr	r3, [r7, #44]	; 0x2c
 800555c:	3b01      	subs	r3, #1
 800555e:	2b00      	cmp	r3, #0
 8005560:	da04      	bge.n	800556c <stm32__spi__send_receive_8bit_mode+0x1c4>
 8005562:	4843      	ldr	r0, [pc, #268]	; (8005670 <stm32__spi__send_receive_8bit_mode+0x2c8>)
 8005564:	f44f 7151 	mov.w	r1, #836	; 0x344
 8005568:	f003 fda4 	bl	80090b4 <__gnat_rcheck_CE_Range_Check>
 800556c:	62fb      	str	r3, [r7, #44]	; 0x2c
 800556e:	6afb      	ldr	r3, [r7, #44]	; 0x2c
 8005570:	2b00      	cmp	r3, #0
 8005572:	bf0c      	ite	eq
 8005574:	2301      	moveq	r3, #1
 8005576:	2300      	movne	r3, #0
 8005578:	b2de      	uxtb	r6, r3
 800557a:	68f8      	ldr	r0, [r7, #12]
 800557c:	f7ff f980 	bl	8004880 <stm32__spi__crc_enabled>
 8005580:	4603      	mov	r3, r0
 8005582:	4033      	ands	r3, r6
 8005584:	b2db      	uxtb	r3, r3
 8005586:	2b00      	cmp	r3, #0
 8005588:	d009      	beq.n	800559e <stm32__spi__send_receive_8bit_mode+0x1f6>
 800558a:	68fb      	ldr	r3, [r7, #12]
 800558c:	685b      	ldr	r3, [r3, #4]
 800558e:	681b      	ldr	r3, [r3, #0]
 8005590:	461a      	mov	r2, r3
 8005592:	4613      	mov	r3, r2
 8005594:	f443 5280 	orr.w	r2, r3, #4096	; 0x1000
 8005598:	68fb      	ldr	r3, [r7, #12]
 800559a:	685b      	ldr	r3, [r3, #4]
 800559c:	601a      	str	r2, [r3, #0]
 800559e:	68f8      	ldr	r0, [r7, #12]
 80055a0:	f7ff f8f2 	bl	8004788 <stm32__spi__rx_is_empty>
 80055a4:	4603      	mov	r3, r0
 80055a6:	2b00      	cmp	r3, #0
 80055a8:	d001      	beq.n	80055ae <stm32__spi__send_receive_8bit_mode+0x206>
 80055aa:	bf00      	nop
 80055ac:	e7f7      	b.n	800559e <stm32__spi__send_receive_8bit_mode+0x1f6>
 80055ae:	6a7a      	ldr	r2, [r7, #36]	; 0x24
 80055b0:	6cfb      	ldr	r3, [r7, #76]	; 0x4c
 80055b2:	681b      	ldr	r3, [r3, #0]
 80055b4:	429a      	cmp	r2, r3
 80055b6:	db04      	blt.n	80055c2 <stm32__spi__send_receive_8bit_mode+0x21a>
 80055b8:	6a7a      	ldr	r2, [r7, #36]	; 0x24
 80055ba:	6cfb      	ldr	r3, [r7, #76]	; 0x4c
 80055bc:	685b      	ldr	r3, [r3, #4]
 80055be:	429a      	cmp	r2, r3
 80055c0:	dd04      	ble.n	80055cc <stm32__spi__send_receive_8bit_mode+0x224>
 80055c2:	482b      	ldr	r0, [pc, #172]	; (8005670 <stm32__spi__send_receive_8bit_mode+0x2c8>)
 80055c4:	f44f 7154 	mov.w	r1, #848	; 0x350
 80055c8:	f003 fd5c 	bl	8009084 <__gnat_rcheck_CE_Index_Check>
 80055cc:	6a7b      	ldr	r3, [r7, #36]	; 0x24
 80055ce:	2b00      	cmp	r3, #0
 80055d0:	da04      	bge.n	80055dc <stm32__spi__send_receive_8bit_mode+0x234>
 80055d2:	4827      	ldr	r0, [pc, #156]	; (8005670 <stm32__spi__send_receive_8bit_mode+0x2c8>)
 80055d4:	f44f 7154 	mov.w	r1, #848	; 0x350
 80055d8:	f003 fd5c 	bl	8009094 <__gnat_rcheck_CE_Invalid_Data>
 80055dc:	6cba      	ldr	r2, [r7, #72]	; 0x48
 80055de:	693b      	ldr	r3, [r7, #16]
 80055e0:	781b      	ldrb	r3, [r3, #0]
 80055e2:	b2d8      	uxtb	r0, r3
 80055e4:	6a79      	ldr	r1, [r7, #36]	; 0x24
 80055e6:	6a3b      	ldr	r3, [r7, #32]
 80055e8:	1acb      	subs	r3, r1, r3
 80055ea:	4601      	mov	r1, r0
 80055ec:	54d1      	strb	r1, [r2, r3]
 80055ee:	6a7b      	ldr	r3, [r7, #36]	; 0x24
 80055f0:	f06f 4200 	mvn.w	r2, #2147483648	; 0x80000000
 80055f4:	4293      	cmp	r3, r2
 80055f6:	d104      	bne.n	8005602 <stm32__spi__send_receive_8bit_mode+0x25a>
 80055f8:	481d      	ldr	r0, [pc, #116]	; (8005670 <stm32__spi__send_receive_8bit_mode+0x2c8>)
 80055fa:	f240 3151 	movw	r1, #849	; 0x351
 80055fe:	f003 fd51 	bl	80090a4 <__gnat_rcheck_CE_Overflow_Check>
 8005602:	6a7b      	ldr	r3, [r7, #36]	; 0x24
 8005604:	3301      	adds	r3, #1
 8005606:	627b      	str	r3, [r7, #36]	; 0x24
 8005608:	e779      	b.n	80054fe <stm32__spi__send_receive_8bit_mode+0x156>
 800560a:	68f8      	ldr	r0, [r7, #12]
 800560c:	f7ff f8e4 	bl	80047d8 <stm32__spi__current_mode>
 8005610:	4603      	mov	r3, r0
 8005612:	2b01      	cmp	r3, #1
 8005614:	d129      	bne.n	800566a <stm32__spi__send_receive_8bit_mode+0x2c2>
 8005616:	68f8      	ldr	r0, [r7, #12]
 8005618:	f7ff f8b6 	bl	8004788 <stm32__spi__rx_is_empty>
 800561c:	4603      	mov	r3, r0
 800561e:	2b00      	cmp	r3, #0
 8005620:	d001      	beq.n	8005626 <stm32__spi__send_receive_8bit_mode+0x27e>
 8005622:	bf00      	nop
 8005624:	e7f7      	b.n	8005616 <stm32__spi__send_receive_8bit_mode+0x26e>
 8005626:	6a7a      	ldr	r2, [r7, #36]	; 0x24
 8005628:	6cfb      	ldr	r3, [r7, #76]	; 0x4c
 800562a:	681b      	ldr	r3, [r3, #0]
 800562c:	429a      	cmp	r2, r3
 800562e:	db04      	blt.n	800563a <stm32__spi__send_receive_8bit_mode+0x292>
 8005630:	6a7a      	ldr	r2, [r7, #36]	; 0x24
 8005632:	6cfb      	ldr	r3, [r7, #76]	; 0x4c
 8005634:	685b      	ldr	r3, [r3, #4]
 8005636:	429a      	cmp	r2, r3
 8005638:	dd04      	ble.n	8005644 <stm32__spi__send_receive_8bit_mode+0x29c>
 800563a:	480d      	ldr	r0, [pc, #52]	; (8005670 <stm32__spi__send_receive_8bit_mode+0x2c8>)
 800563c:	f240 315a 	movw	r1, #858	; 0x35a
 8005640:	f003 fd20 	bl	8009084 <__gnat_rcheck_CE_Index_Check>
 8005644:	6a7b      	ldr	r3, [r7, #36]	; 0x24
 8005646:	2b00      	cmp	r3, #0
 8005648:	da04      	bge.n	8005654 <stm32__spi__send_receive_8bit_mode+0x2ac>
 800564a:	4809      	ldr	r0, [pc, #36]	; (8005670 <stm32__spi__send_receive_8bit_mode+0x2c8>)
 800564c:	f240 315a 	movw	r1, #858	; 0x35a
 8005650:	f003 fd20 	bl	8009094 <__gnat_rcheck_CE_Invalid_Data>
 8005654:	6cbc      	ldr	r4, [r7, #72]	; 0x48
 8005656:	68f8      	ldr	r0, [r7, #12]
 8005658:	f7ff f84c 	bl	80046f4 <stm32__spi__data__2>
 800565c:	4603      	mov	r3, r0
 800565e:	4619      	mov	r1, r3
 8005660:	6a7a      	ldr	r2, [r7, #36]	; 0x24
 8005662:	6a3b      	ldr	r3, [r7, #32]
 8005664:	1ad3      	subs	r3, r2, r3
 8005666:	460a      	mov	r2, r1
 8005668:	54e2      	strb	r2, [r4, r3]
 800566a:	3734      	adds	r7, #52	; 0x34
 800566c:	46bd      	mov	sp, r7
 800566e:	bdf0      	pop	{r4, r5, r6, r7, pc}
 8005670:	0800cf30 	.word	0x0800cf30

08005674 <stm32__spi__send_16bit_mode>:
 8005674:	e92d 43b0 	stmdb	sp!, {r4, r5, r7, r8, r9, lr}
 8005678:	b086      	sub	sp, #24
 800567a:	af00      	add	r7, sp, #0
 800567c:	60f8      	str	r0, [r7, #12]
 800567e:	e9c7 2300 	strd	r2, r3, [r7]
 8005682:	687b      	ldr	r3, [r7, #4]
 8005684:	681c      	ldr	r4, [r3, #0]
 8005686:	687b      	ldr	r3, [r7, #4]
 8005688:	685d      	ldr	r5, [r3, #4]
 800568a:	42a5      	cmp	r5, r4
 800568c:	db0d      	blt.n	80056aa <stm32__spi__send_16bit_mode+0x36>
 800568e:	4628      	mov	r0, r5
 8005690:	ea4f 71e0 	mov.w	r1, r0, asr #31
 8005694:	4622      	mov	r2, r4
 8005696:	ea4f 73e2 	mov.w	r3, r2, asr #31
 800569a:	1a82      	subs	r2, r0, r2
 800569c:	eb61 0303 	sbc.w	r3, r1, r3
 80056a0:	f112 0801 	adds.w	r8, r2, #1
 80056a4:	f143 0900 	adc.w	r9, r3, #0
 80056a8:	e003      	b.n	80056b2 <stm32__spi__send_16bit_mode+0x3e>
 80056aa:	f04f 0800 	mov.w	r8, #0
 80056ae:	f04f 0900 	mov.w	r9, #0
 80056b2:	4622      	mov	r2, r4
 80056b4:	ea4f 73e2 	mov.w	r3, r2, asr #31
 80056b8:	4864      	ldr	r0, [pc, #400]	; (800584c <stm32__spi__send_16bit_mode+0x1d8>)
 80056ba:	f04f 0100 	mov.w	r1, #0
 80056be:	1880      	adds	r0, r0, r2
 80056c0:	eb41 0103 	adc.w	r1, r1, r3
 80056c4:	462a      	mov	r2, r5
 80056c6:	ea4f 73e2 	mov.w	r3, r2, asr #31
 80056ca:	4290      	cmp	r0, r2
 80056cc:	eb71 0303 	sbcs.w	r3, r1, r3
 80056d0:	da04      	bge.n	80056dc <stm32__spi__send_16bit_mode+0x68>
 80056d2:	485f      	ldr	r0, [pc, #380]	; (8005850 <stm32__spi__send_16bit_mode+0x1dc>)
 80056d4:	f240 3166 	movw	r1, #870	; 0x366
 80056d8:	f003 fcec 	bl	80090b4 <__gnat_rcheck_CE_Range_Check>
 80056dc:	4643      	mov	r3, r8
 80056de:	617b      	str	r3, [r7, #20]
 80056e0:	2c00      	cmp	r4, #0
 80056e2:	da04      	bge.n	80056ee <stm32__spi__send_16bit_mode+0x7a>
 80056e4:	485a      	ldr	r0, [pc, #360]	; (8005850 <stm32__spi__send_16bit_mode+0x1dc>)
 80056e6:	f240 3167 	movw	r1, #871	; 0x367
 80056ea:	f003 fce3 	bl	80090b4 <__gnat_rcheck_CE_Range_Check>
 80056ee:	613c      	str	r4, [r7, #16]
 80056f0:	68f8      	ldr	r0, [r7, #12]
 80056f2:	f7ff f871 	bl	80047d8 <stm32__spi__current_mode>
 80056f6:	4603      	mov	r3, r0
 80056f8:	2b01      	cmp	r3, #1
 80056fa:	d002      	beq.n	8005702 <stm32__spi__send_16bit_mode+0x8e>
 80056fc:	697b      	ldr	r3, [r7, #20]
 80056fe:	2b01      	cmp	r3, #1
 8005700:	d140      	bne.n	8005784 <stm32__spi__send_16bit_mode+0x110>
 8005702:	693b      	ldr	r3, [r7, #16]
 8005704:	42a3      	cmp	r3, r4
 8005706:	db02      	blt.n	800570e <stm32__spi__send_16bit_mode+0x9a>
 8005708:	693b      	ldr	r3, [r7, #16]
 800570a:	42ab      	cmp	r3, r5
 800570c:	dd04      	ble.n	8005718 <stm32__spi__send_16bit_mode+0xa4>
 800570e:	4850      	ldr	r0, [pc, #320]	; (8005850 <stm32__spi__send_16bit_mode+0x1dc>)
 8005710:	f240 316b 	movw	r1, #875	; 0x36b
 8005714:	f003 fcb6 	bl	8009084 <__gnat_rcheck_CE_Index_Check>
 8005718:	683a      	ldr	r2, [r7, #0]
 800571a:	4621      	mov	r1, r4
 800571c:	693b      	ldr	r3, [r7, #16]
 800571e:	1a5b      	subs	r3, r3, r1
 8005720:	005b      	lsls	r3, r3, #1
 8005722:	4413      	add	r3, r2
 8005724:	2b00      	cmp	r3, #0
 8005726:	d104      	bne.n	8005732 <stm32__spi__send_16bit_mode+0xbe>
 8005728:	4849      	ldr	r0, [pc, #292]	; (8005850 <stm32__spi__send_16bit_mode+0x1dc>)
 800572a:	f240 316b 	movw	r1, #875	; 0x36b
 800572e:	f003 fc91 	bl	8009054 <__gnat_rcheck_CE_Access_Check>
 8005732:	68fb      	ldr	r3, [r7, #12]
 8005734:	685b      	ldr	r3, [r3, #4]
 8005736:	330c      	adds	r3, #12
 8005738:	881b      	ldrh	r3, [r3, #0]
 800573a:	b29b      	uxth	r3, r3
 800573c:	461a      	mov	r2, r3
 800573e:	683a      	ldr	r2, [r7, #0]
 8005740:	4621      	mov	r1, r4
 8005742:	693b      	ldr	r3, [r7, #16]
 8005744:	1a5b      	subs	r3, r3, r1
 8005746:	005b      	lsls	r3, r3, #1
 8005748:	4413      	add	r3, r2
 800574a:	881b      	ldrh	r3, [r3, #0]
 800574c:	461a      	mov	r2, r3
 800574e:	68fb      	ldr	r3, [r7, #12]
 8005750:	685b      	ldr	r3, [r3, #4]
 8005752:	330c      	adds	r3, #12
 8005754:	b292      	uxth	r2, r2
 8005756:	801a      	strh	r2, [r3, #0]
 8005758:	693b      	ldr	r3, [r7, #16]
 800575a:	4a3e      	ldr	r2, [pc, #248]	; (8005854 <stm32__spi__send_16bit_mode+0x1e0>)
 800575c:	4293      	cmp	r3, r2
 800575e:	dd04      	ble.n	800576a <stm32__spi__send_16bit_mode+0xf6>
 8005760:	483b      	ldr	r0, [pc, #236]	; (8005850 <stm32__spi__send_16bit_mode+0x1dc>)
 8005762:	f44f 715b 	mov.w	r1, #876	; 0x36c
 8005766:	f003 fc9d 	bl	80090a4 <__gnat_rcheck_CE_Overflow_Check>
 800576a:	693b      	ldr	r3, [r7, #16]
 800576c:	3302      	adds	r3, #2
 800576e:	613b      	str	r3, [r7, #16]
 8005770:	697b      	ldr	r3, [r7, #20]
 8005772:	3b01      	subs	r3, #1
 8005774:	2b00      	cmp	r3, #0
 8005776:	da04      	bge.n	8005782 <stm32__spi__send_16bit_mode+0x10e>
 8005778:	4835      	ldr	r0, [pc, #212]	; (8005850 <stm32__spi__send_16bit_mode+0x1dc>)
 800577a:	f240 316d 	movw	r1, #877	; 0x36d
 800577e:	f003 fc99 	bl	80090b4 <__gnat_rcheck_CE_Range_Check>
 8005782:	617b      	str	r3, [r7, #20]
 8005784:	697b      	ldr	r3, [r7, #20]
 8005786:	2b00      	cmp	r3, #0
 8005788:	dd4c      	ble.n	8005824 <stm32__spi__send_16bit_mode+0x1b0>
 800578a:	68f8      	ldr	r0, [r7, #12]
 800578c:	f7fe ffea 	bl	8004764 <stm32__spi__tx_is_empty>
 8005790:	4603      	mov	r3, r0
 8005792:	f083 0301 	eor.w	r3, r3, #1
 8005796:	b2db      	uxtb	r3, r3
 8005798:	2b00      	cmp	r3, #0
 800579a:	d001      	beq.n	80057a0 <stm32__spi__send_16bit_mode+0x12c>
 800579c:	bf00      	nop
 800579e:	e7f4      	b.n	800578a <stm32__spi__send_16bit_mode+0x116>
 80057a0:	693b      	ldr	r3, [r7, #16]
 80057a2:	42a3      	cmp	r3, r4
 80057a4:	db02      	blt.n	80057ac <stm32__spi__send_16bit_mode+0x138>
 80057a6:	693b      	ldr	r3, [r7, #16]
 80057a8:	42ab      	cmp	r3, r5
 80057aa:	dd04      	ble.n	80057b6 <stm32__spi__send_16bit_mode+0x142>
 80057ac:	4828      	ldr	r0, [pc, #160]	; (8005850 <stm32__spi__send_16bit_mode+0x1dc>)
 80057ae:	f240 3177 	movw	r1, #887	; 0x377
 80057b2:	f003 fc67 	bl	8009084 <__gnat_rcheck_CE_Index_Check>
 80057b6:	683a      	ldr	r2, [r7, #0]
 80057b8:	4621      	mov	r1, r4
 80057ba:	693b      	ldr	r3, [r7, #16]
 80057bc:	1a5b      	subs	r3, r3, r1
 80057be:	005b      	lsls	r3, r3, #1
 80057c0:	4413      	add	r3, r2
 80057c2:	2b00      	cmp	r3, #0
 80057c4:	d104      	bne.n	80057d0 <stm32__spi__send_16bit_mode+0x15c>
 80057c6:	4822      	ldr	r0, [pc, #136]	; (8005850 <stm32__spi__send_16bit_mode+0x1dc>)
 80057c8:	f240 3177 	movw	r1, #887	; 0x377
 80057cc:	f003 fc42 	bl	8009054 <__gnat_rcheck_CE_Access_Check>
 80057d0:	68fb      	ldr	r3, [r7, #12]
 80057d2:	685b      	ldr	r3, [r3, #4]
 80057d4:	330c      	adds	r3, #12
 80057d6:	881b      	ldrh	r3, [r3, #0]
 80057d8:	b29b      	uxth	r3, r3
 80057da:	461a      	mov	r2, r3
 80057dc:	683a      	ldr	r2, [r7, #0]
 80057de:	4621      	mov	r1, r4
 80057e0:	693b      	ldr	r3, [r7, #16]
 80057e2:	1a5b      	subs	r3, r3, r1
 80057e4:	005b      	lsls	r3, r3, #1
 80057e6:	4413      	add	r3, r2
 80057e8:	881b      	ldrh	r3, [r3, #0]
 80057ea:	461a      	mov	r2, r3
 80057ec:	68fb      	ldr	r3, [r7, #12]
 80057ee:	685b      	ldr	r3, [r3, #4]
 80057f0:	330c      	adds	r3, #12
 80057f2:	b292      	uxth	r2, r2
 80057f4:	801a      	strh	r2, [r3, #0]
 80057f6:	693b      	ldr	r3, [r7, #16]
 80057f8:	4a16      	ldr	r2, [pc, #88]	; (8005854 <stm32__spi__send_16bit_mode+0x1e0>)
 80057fa:	4293      	cmp	r3, r2
 80057fc:	dd04      	ble.n	8005808 <stm32__spi__send_16bit_mode+0x194>
 80057fe:	4814      	ldr	r0, [pc, #80]	; (8005850 <stm32__spi__send_16bit_mode+0x1dc>)
 8005800:	f44f 715e 	mov.w	r1, #888	; 0x378
 8005804:	f003 fc4e 	bl	80090a4 <__gnat_rcheck_CE_Overflow_Check>
 8005808:	693b      	ldr	r3, [r7, #16]
 800580a:	3302      	adds	r3, #2
 800580c:	613b      	str	r3, [r7, #16]
 800580e:	697b      	ldr	r3, [r7, #20]
 8005810:	3b01      	subs	r3, #1
 8005812:	2b00      	cmp	r3, #0
 8005814:	da04      	bge.n	8005820 <stm32__spi__send_16bit_mode+0x1ac>
 8005816:	480e      	ldr	r0, [pc, #56]	; (8005850 <stm32__spi__send_16bit_mode+0x1dc>)
 8005818:	f240 3179 	movw	r1, #889	; 0x379
 800581c:	f003 fc4a 	bl	80090b4 <__gnat_rcheck_CE_Range_Check>
 8005820:	617b      	str	r3, [r7, #20]
 8005822:	e7af      	b.n	8005784 <stm32__spi__send_16bit_mode+0x110>
 8005824:	68f8      	ldr	r0, [r7, #12]
 8005826:	f7ff f82b 	bl	8004880 <stm32__spi__crc_enabled>
 800582a:	4603      	mov	r3, r0
 800582c:	2b00      	cmp	r3, #0
 800582e:	d009      	beq.n	8005844 <stm32__spi__send_16bit_mode+0x1d0>
 8005830:	68fb      	ldr	r3, [r7, #12]
 8005832:	685b      	ldr	r3, [r3, #4]
 8005834:	681b      	ldr	r3, [r3, #0]
 8005836:	461a      	mov	r2, r3
 8005838:	4613      	mov	r3, r2
 800583a:	f443 5280 	orr.w	r2, r3, #4096	; 0x1000
 800583e:	68fb      	ldr	r3, [r7, #12]
 8005840:	685b      	ldr	r3, [r3, #4]
 8005842:	601a      	str	r2, [r3, #0]
 8005844:	3718      	adds	r7, #24
 8005846:	46bd      	mov	sp, r7
 8005848:	e8bd 83b0 	ldmia.w	sp!, {r4, r5, r7, r8, r9, pc}
 800584c:	7ffffffe 	.word	0x7ffffffe
 8005850:	0800cf30 	.word	0x0800cf30
 8005854:	7ffffffd 	.word	0x7ffffffd

08005858 <stm32__spi__send_8bit_mode>:
 8005858:	e92d 43f0 	stmdb	sp!, {r4, r5, r6, r7, r8, r9, lr}
 800585c:	b089      	sub	sp, #36	; 0x24
 800585e:	af00      	add	r7, sp, #0
 8005860:	60f8      	str	r0, [r7, #12]
 8005862:	e9c7 2300 	strd	r2, r3, [r7]
 8005866:	687b      	ldr	r3, [r7, #4]
 8005868:	681c      	ldr	r4, [r3, #0]
 800586a:	687b      	ldr	r3, [r7, #4]
 800586c:	685d      	ldr	r5, [r3, #4]
 800586e:	42a5      	cmp	r5, r4
 8005870:	db0d      	blt.n	800588e <stm32__spi__send_8bit_mode+0x36>
 8005872:	4628      	mov	r0, r5
 8005874:	ea4f 71e0 	mov.w	r1, r0, asr #31
 8005878:	4622      	mov	r2, r4
 800587a:	ea4f 73e2 	mov.w	r3, r2, asr #31
 800587e:	1a82      	subs	r2, r0, r2
 8005880:	eb61 0303 	sbc.w	r3, r1, r3
 8005884:	f112 0801 	adds.w	r8, r2, #1
 8005888:	f143 0900 	adc.w	r9, r3, #0
 800588c:	e003      	b.n	8005896 <stm32__spi__send_8bit_mode+0x3e>
 800588e:	f04f 0800 	mov.w	r8, #0
 8005892:	f04f 0900 	mov.w	r9, #0
 8005896:	4626      	mov	r6, r4
 8005898:	4622      	mov	r2, r4
 800589a:	ea4f 73e2 	mov.w	r3, r2, asr #31
 800589e:	484e      	ldr	r0, [pc, #312]	; (80059d8 <stm32__spi__send_8bit_mode+0x180>)
 80058a0:	f04f 0100 	mov.w	r1, #0
 80058a4:	1880      	adds	r0, r0, r2
 80058a6:	eb41 0103 	adc.w	r1, r1, r3
 80058aa:	462a      	mov	r2, r5
 80058ac:	ea4f 73e2 	mov.w	r3, r2, asr #31
 80058b0:	4290      	cmp	r0, r2
 80058b2:	eb71 0303 	sbcs.w	r3, r1, r3
 80058b6:	da04      	bge.n	80058c2 <stm32__spi__send_8bit_mode+0x6a>
 80058b8:	4848      	ldr	r0, [pc, #288]	; (80059dc <stm32__spi__send_8bit_mode+0x184>)
 80058ba:	f240 3189 	movw	r1, #905	; 0x389
 80058be:	f003 fbf9 	bl	80090b4 <__gnat_rcheck_CE_Range_Check>
 80058c2:	4643      	mov	r3, r8
 80058c4:	61fb      	str	r3, [r7, #28]
 80058c6:	2c00      	cmp	r4, #0
 80058c8:	da04      	bge.n	80058d4 <stm32__spi__send_8bit_mode+0x7c>
 80058ca:	4844      	ldr	r0, [pc, #272]	; (80059dc <stm32__spi__send_8bit_mode+0x184>)
 80058cc:	f240 318a 	movw	r1, #906	; 0x38a
 80058d0:	f003 fbf0 	bl	80090b4 <__gnat_rcheck_CE_Range_Check>
 80058d4:	61bc      	str	r4, [r7, #24]
 80058d6:	68fb      	ldr	r3, [r7, #12]
 80058d8:	685b      	ldr	r3, [r3, #4]
 80058da:	330c      	adds	r3, #12
 80058dc:	617b      	str	r3, [r7, #20]
 80058de:	68f8      	ldr	r0, [r7, #12]
 80058e0:	f7fe ff7a 	bl	80047d8 <stm32__spi__current_mode>
 80058e4:	4603      	mov	r3, r0
 80058e6:	2b01      	cmp	r3, #1
 80058e8:	d002      	beq.n	80058f0 <stm32__spi__send_8bit_mode+0x98>
 80058ea:	69fb      	ldr	r3, [r7, #28]
 80058ec:	2b01      	cmp	r3, #1
 80058ee:	d127      	bne.n	8005940 <stm32__spi__send_8bit_mode+0xe8>
 80058f0:	69bb      	ldr	r3, [r7, #24]
 80058f2:	42a3      	cmp	r3, r4
 80058f4:	db02      	blt.n	80058fc <stm32__spi__send_8bit_mode+0xa4>
 80058f6:	69bb      	ldr	r3, [r7, #24]
 80058f8:	42ab      	cmp	r3, r5
 80058fa:	dd04      	ble.n	8005906 <stm32__spi__send_8bit_mode+0xae>
 80058fc:	4837      	ldr	r0, [pc, #220]	; (80059dc <stm32__spi__send_8bit_mode+0x184>)
 80058fe:	f240 318e 	movw	r1, #910	; 0x38e
 8005902:	f003 fbbf 	bl	8009084 <__gnat_rcheck_CE_Index_Check>
 8005906:	683a      	ldr	r2, [r7, #0]
 8005908:	69bb      	ldr	r3, [r7, #24]
 800590a:	1b9b      	subs	r3, r3, r6
 800590c:	5cd2      	ldrb	r2, [r2, r3]
 800590e:	697b      	ldr	r3, [r7, #20]
 8005910:	701a      	strb	r2, [r3, #0]
 8005912:	69bb      	ldr	r3, [r7, #24]
 8005914:	f06f 4200 	mvn.w	r2, #2147483648	; 0x80000000
 8005918:	4293      	cmp	r3, r2
 800591a:	d104      	bne.n	8005926 <stm32__spi__send_8bit_mode+0xce>
 800591c:	482f      	ldr	r0, [pc, #188]	; (80059dc <stm32__spi__send_8bit_mode+0x184>)
 800591e:	f240 318f 	movw	r1, #911	; 0x38f
 8005922:	f003 fbbf 	bl	80090a4 <__gnat_rcheck_CE_Overflow_Check>
 8005926:	69bb      	ldr	r3, [r7, #24]
 8005928:	3301      	adds	r3, #1
 800592a:	61bb      	str	r3, [r7, #24]
 800592c:	69fb      	ldr	r3, [r7, #28]
 800592e:	3b01      	subs	r3, #1
 8005930:	2b00      	cmp	r3, #0
 8005932:	da04      	bge.n	800593e <stm32__spi__send_8bit_mode+0xe6>
 8005934:	4829      	ldr	r0, [pc, #164]	; (80059dc <stm32__spi__send_8bit_mode+0x184>)
 8005936:	f44f 7164 	mov.w	r1, #912	; 0x390
 800593a:	f003 fbbb 	bl	80090b4 <__gnat_rcheck_CE_Range_Check>
 800593e:	61fb      	str	r3, [r7, #28]
 8005940:	69fb      	ldr	r3, [r7, #28]
 8005942:	2b00      	cmp	r3, #0
 8005944:	dd33      	ble.n	80059ae <stm32__spi__send_8bit_mode+0x156>
 8005946:	68f8      	ldr	r0, [r7, #12]
 8005948:	f7fe ff0c 	bl	8004764 <stm32__spi__tx_is_empty>
 800594c:	4603      	mov	r3, r0
 800594e:	f083 0301 	eor.w	r3, r3, #1
 8005952:	b2db      	uxtb	r3, r3
 8005954:	2b00      	cmp	r3, #0
 8005956:	d001      	beq.n	800595c <stm32__spi__send_8bit_mode+0x104>
 8005958:	bf00      	nop
 800595a:	e7f4      	b.n	8005946 <stm32__spi__send_8bit_mode+0xee>
 800595c:	69bb      	ldr	r3, [r7, #24]
 800595e:	42a3      	cmp	r3, r4
 8005960:	db02      	blt.n	8005968 <stm32__spi__send_8bit_mode+0x110>
 8005962:	69bb      	ldr	r3, [r7, #24]
 8005964:	42ab      	cmp	r3, r5
 8005966:	dd04      	ble.n	8005972 <stm32__spi__send_8bit_mode+0x11a>
 8005968:	481c      	ldr	r0, [pc, #112]	; (80059dc <stm32__spi__send_8bit_mode+0x184>)
 800596a:	f240 3199 	movw	r1, #921	; 0x399
 800596e:	f003 fb89 	bl	8009084 <__gnat_rcheck_CE_Index_Check>
 8005972:	683a      	ldr	r2, [r7, #0]
 8005974:	69bb      	ldr	r3, [r7, #24]
 8005976:	1b9b      	subs	r3, r3, r6
 8005978:	5cd2      	ldrb	r2, [r2, r3]
 800597a:	697b      	ldr	r3, [r7, #20]
 800597c:	701a      	strb	r2, [r3, #0]
 800597e:	69bb      	ldr	r3, [r7, #24]
 8005980:	f06f 4200 	mvn.w	r2, #2147483648	; 0x80000000
 8005984:	4293      	cmp	r3, r2
 8005986:	d104      	bne.n	8005992 <stm32__spi__send_8bit_mode+0x13a>
 8005988:	4814      	ldr	r0, [pc, #80]	; (80059dc <stm32__spi__send_8bit_mode+0x184>)
 800598a:	f240 319a 	movw	r1, #922	; 0x39a
 800598e:	f003 fb89 	bl	80090a4 <__gnat_rcheck_CE_Overflow_Check>
 8005992:	69bb      	ldr	r3, [r7, #24]
 8005994:	3301      	adds	r3, #1
 8005996:	61bb      	str	r3, [r7, #24]
 8005998:	69fb      	ldr	r3, [r7, #28]
 800599a:	3b01      	subs	r3, #1
 800599c:	2b00      	cmp	r3, #0
 800599e:	da04      	bge.n	80059aa <stm32__spi__send_8bit_mode+0x152>
 80059a0:	480e      	ldr	r0, [pc, #56]	; (80059dc <stm32__spi__send_8bit_mode+0x184>)
 80059a2:	f240 319b 	movw	r1, #923	; 0x39b
 80059a6:	f003 fb85 	bl	80090b4 <__gnat_rcheck_CE_Range_Check>
 80059aa:	61fb      	str	r3, [r7, #28]
 80059ac:	e7c8      	b.n	8005940 <stm32__spi__send_8bit_mode+0xe8>
 80059ae:	68f8      	ldr	r0, [r7, #12]
 80059b0:	f7fe ff66 	bl	8004880 <stm32__spi__crc_enabled>
 80059b4:	4603      	mov	r3, r0
 80059b6:	2b00      	cmp	r3, #0
 80059b8:	d009      	beq.n	80059ce <stm32__spi__send_8bit_mode+0x176>
 80059ba:	68fb      	ldr	r3, [r7, #12]
 80059bc:	685b      	ldr	r3, [r3, #4]
 80059be:	681b      	ldr	r3, [r3, #0]
 80059c0:	461a      	mov	r2, r3
 80059c2:	4613      	mov	r3, r2
 80059c4:	f443 5280 	orr.w	r2, r3, #4096	; 0x1000
 80059c8:	68fb      	ldr	r3, [r7, #12]
 80059ca:	685b      	ldr	r3, [r3, #4]
 80059cc:	601a      	str	r2, [r3, #0]
 80059ce:	3724      	adds	r7, #36	; 0x24
 80059d0:	46bd      	mov	sp, r7
 80059d2:	e8bd 83f0 	ldmia.w	sp!, {r4, r5, r6, r7, r8, r9, pc}
 80059d6:	bf00      	nop
 80059d8:	7ffffffe 	.word	0x7ffffffe
 80059dc:	0800cf30 	.word	0x0800cf30

080059e0 <stm32__spi__receive_16bit_mode>:
 80059e0:	e92d 41f0 	stmdb	sp!, {r4, r5, r6, r7, r8, lr}
 80059e4:	b086      	sub	sp, #24
 80059e6:	af00      	add	r7, sp, #0
 80059e8:	60f8      	str	r0, [r7, #12]
 80059ea:	e9c7 2300 	strd	r2, r3, [r7]
 80059ee:	687b      	ldr	r3, [r7, #4]
 80059f0:	681b      	ldr	r3, [r3, #0]
 80059f2:	461e      	mov	r6, r3
 80059f4:	68f8      	ldr	r0, [r7, #12]
 80059f6:	f7fe feef 	bl	80047d8 <stm32__spi__current_mode>
 80059fa:	4603      	mov	r3, r0
 80059fc:	2b00      	cmp	r3, #0
 80059fe:	bf0c      	ite	eq
 8005a00:	2301      	moveq	r3, #1
 8005a02:	2300      	movne	r3, #0
 8005a04:	75fb      	strb	r3, [r7, #23]
 8005a06:	687b      	ldr	r3, [r7, #4]
 8005a08:	681c      	ldr	r4, [r3, #0]
 8005a0a:	687b      	ldr	r3, [r7, #4]
 8005a0c:	685d      	ldr	r5, [r3, #4]
 8005a0e:	42ac      	cmp	r4, r5
 8005a10:	dc2d      	bgt.n	8005a6e <stm32__spi__receive_16bit_mode+0x8e>
 8005a12:	683a      	ldr	r2, [r7, #0]
 8005a14:	46a0      	mov	r8, r4
 8005a16:	ebc6 0308 	rsb	r3, r6, r8
 8005a1a:	005b      	lsls	r3, r3, #1
 8005a1c:	4413      	add	r3, r2
 8005a1e:	613b      	str	r3, [r7, #16]
 8005a20:	7dfb      	ldrb	r3, [r7, #23]
 8005a22:	2b00      	cmp	r3, #0
 8005a24:	d00c      	beq.n	8005a40 <stm32__spi__receive_16bit_mode+0x60>
 8005a26:	68fb      	ldr	r3, [r7, #12]
 8005a28:	685b      	ldr	r3, [r3, #4]
 8005a2a:	330c      	adds	r3, #12
 8005a2c:	881b      	ldrh	r3, [r3, #0]
 8005a2e:	b29b      	uxth	r3, r3
 8005a30:	461a      	mov	r2, r3
 8005a32:	2300      	movs	r3, #0
 8005a34:	461a      	mov	r2, r3
 8005a36:	68fb      	ldr	r3, [r7, #12]
 8005a38:	685b      	ldr	r3, [r3, #4]
 8005a3a:	330c      	adds	r3, #12
 8005a3c:	b292      	uxth	r2, r2
 8005a3e:	801a      	strh	r2, [r3, #0]
 8005a40:	68f8      	ldr	r0, [r7, #12]
 8005a42:	f7fe fea1 	bl	8004788 <stm32__spi__rx_is_empty>
 8005a46:	4603      	mov	r3, r0
 8005a48:	2b00      	cmp	r3, #0
 8005a4a:	d001      	beq.n	8005a50 <stm32__spi__receive_16bit_mode+0x70>
 8005a4c:	bf00      	nop
 8005a4e:	e7f7      	b.n	8005a40 <stm32__spi__receive_16bit_mode+0x60>
 8005a50:	683b      	ldr	r3, [r7, #0]
 8005a52:	68fa      	ldr	r2, [r7, #12]
 8005a54:	6852      	ldr	r2, [r2, #4]
 8005a56:	320c      	adds	r2, #12
 8005a58:	8812      	ldrh	r2, [r2, #0]
 8005a5a:	b292      	uxth	r2, r2
 8005a5c:	b291      	uxth	r1, r2
 8005a5e:	ebc6 0208 	rsb	r2, r6, r8
 8005a62:	f823 1012 	strh.w	r1, [r3, r2, lsl #1]
 8005a66:	42ac      	cmp	r4, r5
 8005a68:	d001      	beq.n	8005a6e <stm32__spi__receive_16bit_mode+0x8e>
 8005a6a:	3401      	adds	r4, #1
 8005a6c:	e7d1      	b.n	8005a12 <stm32__spi__receive_16bit_mode+0x32>
 8005a6e:	3718      	adds	r7, #24
 8005a70:	46bd      	mov	sp, r7
 8005a72:	e8bd 81f0 	ldmia.w	sp!, {r4, r5, r6, r7, r8, pc}
 8005a76:	bf00      	nop

08005a78 <stm32__spi__receive_8bit_mode>:
 8005a78:	e92d 41f0 	stmdb	sp!, {r4, r5, r6, r7, r8, lr}
 8005a7c:	b088      	sub	sp, #32
 8005a7e:	af00      	add	r7, sp, #0
 8005a80:	60f8      	str	r0, [r7, #12]
 8005a82:	e9c7 2300 	strd	r2, r3, [r7]
 8005a86:	687b      	ldr	r3, [r7, #4]
 8005a88:	681b      	ldr	r3, [r3, #0]
 8005a8a:	461e      	mov	r6, r3
 8005a8c:	68f8      	ldr	r0, [r7, #12]
 8005a8e:	f7fe fea3 	bl	80047d8 <stm32__spi__current_mode>
 8005a92:	4603      	mov	r3, r0
 8005a94:	2b00      	cmp	r3, #0
 8005a96:	bf0c      	ite	eq
 8005a98:	2301      	moveq	r3, #1
 8005a9a:	2300      	movne	r3, #0
 8005a9c:	77fb      	strb	r3, [r7, #31]
 8005a9e:	68fb      	ldr	r3, [r7, #12]
 8005aa0:	685b      	ldr	r3, [r3, #4]
 8005aa2:	330c      	adds	r3, #12
 8005aa4:	61bb      	str	r3, [r7, #24]
 8005aa6:	687b      	ldr	r3, [r7, #4]
 8005aa8:	681c      	ldr	r4, [r3, #0]
 8005aaa:	687b      	ldr	r3, [r7, #4]
 8005aac:	685d      	ldr	r5, [r3, #4]
 8005aae:	42ac      	cmp	r4, r5
 8005ab0:	dc1e      	bgt.n	8005af0 <stm32__spi__receive_8bit_mode+0x78>
 8005ab2:	683a      	ldr	r2, [r7, #0]
 8005ab4:	46a0      	mov	r8, r4
 8005ab6:	ebc6 0308 	rsb	r3, r6, r8
 8005aba:	4413      	add	r3, r2
 8005abc:	617b      	str	r3, [r7, #20]
 8005abe:	7ffb      	ldrb	r3, [r7, #31]
 8005ac0:	2b00      	cmp	r3, #0
 8005ac2:	d002      	beq.n	8005aca <stm32__spi__receive_8bit_mode+0x52>
 8005ac4:	69bb      	ldr	r3, [r7, #24]
 8005ac6:	2200      	movs	r2, #0
 8005ac8:	701a      	strb	r2, [r3, #0]
 8005aca:	68f8      	ldr	r0, [r7, #12]
 8005acc:	f7fe fe5c 	bl	8004788 <stm32__spi__rx_is_empty>
 8005ad0:	4603      	mov	r3, r0
 8005ad2:	2b00      	cmp	r3, #0
 8005ad4:	d001      	beq.n	8005ada <stm32__spi__receive_8bit_mode+0x62>
 8005ad6:	bf00      	nop
 8005ad8:	e7f7      	b.n	8005aca <stm32__spi__receive_8bit_mode+0x52>
 8005ada:	683a      	ldr	r2, [r7, #0]
 8005adc:	69bb      	ldr	r3, [r7, #24]
 8005ade:	781b      	ldrb	r3, [r3, #0]
 8005ae0:	b2d9      	uxtb	r1, r3
 8005ae2:	ebc6 0308 	rsb	r3, r6, r8
 8005ae6:	54d1      	strb	r1, [r2, r3]
 8005ae8:	42ac      	cmp	r4, r5
 8005aea:	d001      	beq.n	8005af0 <stm32__spi__receive_8bit_mode+0x78>
 8005aec:	3401      	adds	r4, #1
 8005aee:	e7e0      	b.n	8005ab2 <stm32__spi__receive_8bit_mode+0x3a>
 8005af0:	3720      	adds	r7, #32
 8005af2:	46bd      	mov	sp, r7
 8005af4:	e8bd 81f0 	ldmia.w	sp!, {r4, r5, r6, r7, r8, pc}

08005af8 <stm32__spi___elabs>:
 8005af8:	b580      	push	{r7, lr}
 8005afa:	af00      	add	r7, sp, #0
 8005afc:	4803      	ldr	r0, [pc, #12]	; (8005b0c <stm32__spi___elabs+0x14>)
 8005afe:	f002 f93b 	bl	8007d78 <ada__tags__check_tsd>
 8005b02:	4803      	ldr	r0, [pc, #12]	; (8005b10 <stm32__spi___elabs+0x18>)
 8005b04:	f002 f9b2 	bl	8007e6c <ada__tags__register_tag>
 8005b08:	bd80      	pop	{r7, pc}
 8005b0a:	bf00      	nop
 8005b0c:	0800ce24 	.word	0x0800ce24
 8005b10:	0800ce94 	.word	0x0800ce94

08005b14 <stm32__adc___elabs>:
 8005b14:	b598      	push	{r3, r4, r7, lr}
 8005b16:	af00      	add	r7, sp, #0
 8005b18:	2003      	movs	r0, #3
 8005b1a:	f000 fb43 	bl	80061a4 <ada__real_time__microseconds>
 8005b1e:	4603      	mov	r3, r0
 8005b20:	460c      	mov	r4, r1
 8005b22:	4a0e      	ldr	r2, [pc, #56]	; (8005b5c <stm32__adc___elabs+0x48>)
 8005b24:	e9c2 3400 	strd	r3, r4, [r2]
 8005b28:	f44f 7048 	mov.w	r0, #800	; 0x320
 8005b2c:	f000 fb3a 	bl	80061a4 <ada__real_time__microseconds>
 8005b30:	4603      	mov	r3, r0
 8005b32:	460c      	mov	r4, r1
 8005b34:	4a0a      	ldr	r2, [pc, #40]	; (8005b60 <stm32__adc___elabs+0x4c>)
 8005b36:	e9c2 3400 	strd	r3, r4, [r2]
 8005b3a:	200a      	movs	r0, #10
 8005b3c:	f000 fb32 	bl	80061a4 <ada__real_time__microseconds>
 8005b40:	4603      	mov	r3, r0
 8005b42:	460c      	mov	r4, r1
 8005b44:	4a07      	ldr	r2, [pc, #28]	; (8005b64 <stm32__adc___elabs+0x50>)
 8005b46:	e9c2 3400 	strd	r3, r4, [r2]
 8005b4a:	200a      	movs	r0, #10
 8005b4c:	f000 fb2a 	bl	80061a4 <ada__real_time__microseconds>
 8005b50:	4603      	mov	r3, r0
 8005b52:	460c      	mov	r4, r1
 8005b54:	4a04      	ldr	r2, [pc, #16]	; (8005b68 <stm32__adc___elabs+0x54>)
 8005b56:	e9c2 3400 	strd	r3, r4, [r2]
 8005b5a:	bd98      	pop	{r3, r4, r7, pc}
 8005b5c:	200006e0 	.word	0x200006e0
 8005b60:	200006e8 	.word	0x200006e8
 8005b64:	200006f0 	.word	0x200006f0
 8005b68:	200006f8 	.word	0x200006f8

08005b6c <stm32__exti__enable_external_interrupt>:
 8005b6c:	b590      	push	{r4, r7, lr}
 8005b6e:	b087      	sub	sp, #28
 8005b70:	af00      	add	r7, sp, #0
 8005b72:	4603      	mov	r3, r0
 8005b74:	460a      	mov	r2, r1
 8005b76:	71fb      	strb	r3, [r7, #7]
 8005b78:	4613      	mov	r3, r2
 8005b7a:	71bb      	strb	r3, [r7, #6]
 8005b7c:	79fb      	ldrb	r3, [r7, #7]
 8005b7e:	f04f 0400 	mov.w	r4, #0
 8005b82:	f1b3 4f00 	cmp.w	r3, #2147483648	; 0x80000000
 8005b86:	f174 33ff 	sbcs.w	r3, r4, #4294967295
 8005b8a:	db0a      	blt.n	8005ba2 <stm32__exti__enable_external_interrupt+0x36>
 8005b8c:	79fb      	ldrb	r3, [r7, #7]
 8005b8e:	f04f 0400 	mov.w	r4, #0
 8005b92:	f06f 4100 	mvn.w	r1, #2147483648	; 0x80000000
 8005b96:	f04f 0200 	mov.w	r2, #0
 8005b9a:	4299      	cmp	r1, r3
 8005b9c:	eb72 0304 	sbcs.w	r3, r2, r4
 8005ba0:	da03      	bge.n	8005baa <stm32__exti__enable_external_interrupt+0x3e>
 8005ba2:	4842      	ldr	r0, [pc, #264]	; (8005cac <stm32__exti__enable_external_interrupt+0x140>)
 8005ba4:	2139      	movs	r1, #57	; 0x39
 8005ba6:	f003 fa7d 	bl	80090a4 <__gnat_rcheck_CE_Overflow_Check>
 8005baa:	79fb      	ldrb	r3, [r7, #7]
 8005bac:	617b      	str	r3, [r7, #20]
 8005bae:	697b      	ldr	r3, [r7, #20]
 8005bb0:	2b1f      	cmp	r3, #31
 8005bb2:	dd03      	ble.n	8005bbc <stm32__exti__enable_external_interrupt+0x50>
 8005bb4:	483d      	ldr	r0, [pc, #244]	; (8005cac <stm32__exti__enable_external_interrupt+0x140>)
 8005bb6:	213b      	movs	r1, #59	; 0x3b
 8005bb8:	f003 fa64 	bl	8009084 <__gnat_rcheck_CE_Index_Check>
 8005bbc:	4b3c      	ldr	r3, [pc, #240]	; (8005cb0 <stm32__exti__enable_external_interrupt+0x144>)
 8005bbe:	681b      	ldr	r3, [r3, #0]
 8005bc0:	613b      	str	r3, [r7, #16]
 8005bc2:	4b3b      	ldr	r3, [pc, #236]	; (8005cb0 <stm32__exti__enable_external_interrupt+0x144>)
 8005bc4:	681b      	ldr	r3, [r3, #0]
 8005bc6:	461a      	mov	r2, r3
 8005bc8:	693a      	ldr	r2, [r7, #16]
 8005bca:	697b      	ldr	r3, [r7, #20]
 8005bcc:	2101      	movs	r1, #1
 8005bce:	fa01 f303 	lsl.w	r3, r1, r3
 8005bd2:	4313      	orrs	r3, r2
 8005bd4:	461a      	mov	r2, r3
 8005bd6:	4b36      	ldr	r3, [pc, #216]	; (8005cb0 <stm32__exti__enable_external_interrupt+0x144>)
 8005bd8:	601a      	str	r2, [r3, #0]
 8005bda:	697b      	ldr	r3, [r7, #20]
 8005bdc:	2b10      	cmp	r3, #16
 8005bde:	dd03      	ble.n	8005be8 <stm32__exti__enable_external_interrupt+0x7c>
 8005be0:	4832      	ldr	r0, [pc, #200]	; (8005cac <stm32__exti__enable_external_interrupt+0x140>)
 8005be2:	213c      	movs	r1, #60	; 0x3c
 8005be4:	f003 fa4e 	bl	8009084 <__gnat_rcheck_CE_Index_Check>
 8005be8:	4b31      	ldr	r3, [pc, #196]	; (8005cb0 <stm32__exti__enable_external_interrupt+0x144>)
 8005bea:	3308      	adds	r3, #8
 8005bec:	681b      	ldr	r3, [r3, #0]
 8005bee:	f3c3 0210 	ubfx	r2, r3, #0, #17
 8005bf2:	68fb      	ldr	r3, [r7, #12]
 8005bf4:	f362 0310 	bfi	r3, r2, #0, #17
 8005bf8:	60fb      	str	r3, [r7, #12]
 8005bfa:	4b2d      	ldr	r3, [pc, #180]	; (8005cb0 <stm32__exti__enable_external_interrupt+0x144>)
 8005bfc:	3308      	adds	r3, #8
 8005bfe:	681b      	ldr	r3, [r3, #0]
 8005c00:	68fa      	ldr	r2, [r7, #12]
 8005c02:	f3c2 0210 	ubfx	r2, r2, #0, #17
 8005c06:	4610      	mov	r0, r2
 8005c08:	697a      	ldr	r2, [r7, #20]
 8005c0a:	2101      	movs	r1, #1
 8005c0c:	fa01 f202 	lsl.w	r2, r1, r2
 8005c10:	43d2      	mvns	r2, r2
 8005c12:	ea00 0102 	and.w	r1, r0, r2
 8005c16:	79ba      	ldrb	r2, [r7, #6]
 8005c18:	2a00      	cmp	r2, #0
 8005c1a:	d002      	beq.n	8005c22 <stm32__exti__enable_external_interrupt+0xb6>
 8005c1c:	79ba      	ldrb	r2, [r7, #6]
 8005c1e:	2a02      	cmp	r2, #2
 8005c20:	d101      	bne.n	8005c26 <stm32__exti__enable_external_interrupt+0xba>
 8005c22:	2201      	movs	r2, #1
 8005c24:	e000      	b.n	8005c28 <stm32__exti__enable_external_interrupt+0xbc>
 8005c26:	2200      	movs	r2, #0
 8005c28:	4610      	mov	r0, r2
 8005c2a:	697a      	ldr	r2, [r7, #20]
 8005c2c:	fa00 f202 	lsl.w	r2, r0, r2
 8005c30:	430a      	orrs	r2, r1
 8005c32:	f3c2 0210 	ubfx	r2, r2, #0, #17
 8005c36:	f362 0310 	bfi	r3, r2, #0, #17
 8005c3a:	4a1d      	ldr	r2, [pc, #116]	; (8005cb0 <stm32__exti__enable_external_interrupt+0x144>)
 8005c3c:	3208      	adds	r2, #8
 8005c3e:	6013      	str	r3, [r2, #0]
 8005c40:	697b      	ldr	r3, [r7, #20]
 8005c42:	2b10      	cmp	r3, #16
 8005c44:	dd03      	ble.n	8005c4e <stm32__exti__enable_external_interrupt+0xe2>
 8005c46:	4819      	ldr	r0, [pc, #100]	; (8005cac <stm32__exti__enable_external_interrupt+0x140>)
 8005c48:	213e      	movs	r1, #62	; 0x3e
 8005c4a:	f003 fa1b 	bl	8009084 <__gnat_rcheck_CE_Index_Check>
 8005c4e:	4b18      	ldr	r3, [pc, #96]	; (8005cb0 <stm32__exti__enable_external_interrupt+0x144>)
 8005c50:	330c      	adds	r3, #12
 8005c52:	681b      	ldr	r3, [r3, #0]
 8005c54:	f3c3 0210 	ubfx	r2, r3, #0, #17
 8005c58:	68bb      	ldr	r3, [r7, #8]
 8005c5a:	f362 0310 	bfi	r3, r2, #0, #17
 8005c5e:	60bb      	str	r3, [r7, #8]
 8005c60:	4b13      	ldr	r3, [pc, #76]	; (8005cb0 <stm32__exti__enable_external_interrupt+0x144>)
 8005c62:	330c      	adds	r3, #12
 8005c64:	681b      	ldr	r3, [r3, #0]
 8005c66:	68ba      	ldr	r2, [r7, #8]
 8005c68:	f3c2 0210 	ubfx	r2, r2, #0, #17
 8005c6c:	4610      	mov	r0, r2
 8005c6e:	697a      	ldr	r2, [r7, #20]
 8005c70:	2101      	movs	r1, #1
 8005c72:	fa01 f202 	lsl.w	r2, r1, r2
 8005c76:	43d2      	mvns	r2, r2
 8005c78:	ea00 0102 	and.w	r1, r0, r2
 8005c7c:	79ba      	ldrb	r2, [r7, #6]
 8005c7e:	2a01      	cmp	r2, #1
 8005c80:	d002      	beq.n	8005c88 <stm32__exti__enable_external_interrupt+0x11c>
 8005c82:	79ba      	ldrb	r2, [r7, #6]
 8005c84:	2a02      	cmp	r2, #2
 8005c86:	d101      	bne.n	8005c8c <stm32__exti__enable_external_interrupt+0x120>
 8005c88:	2201      	movs	r2, #1
 8005c8a:	e000      	b.n	8005c8e <stm32__exti__enable_external_interrupt+0x122>
 8005c8c:	2200      	movs	r2, #0
 8005c8e:	4610      	mov	r0, r2
 8005c90:	697a      	ldr	r2, [r7, #20]
 8005c92:	fa00 f202 	lsl.w	r2, r0, r2
 8005c96:	430a      	orrs	r2, r1
 8005c98:	f3c2 0210 	ubfx	r2, r2, #0, #17
 8005c9c:	f362 0310 	bfi	r3, r2, #0, #17
 8005ca0:	4a03      	ldr	r2, [pc, #12]	; (8005cb0 <stm32__exti__enable_external_interrupt+0x144>)
 8005ca2:	320c      	adds	r2, #12
 8005ca4:	6013      	str	r3, [r2, #0]
 8005ca6:	371c      	adds	r7, #28
 8005ca8:	46bd      	mov	sp, r7
 8005caa:	bd90      	pop	{r4, r7, pc}
 8005cac:	0800d018 	.word	0x0800d018
 8005cb0:	40010400 	.word	0x40010400

08005cb4 <stm32__exti__enable_external_event>:
 8005cb4:	b590      	push	{r4, r7, lr}
 8005cb6:	b087      	sub	sp, #28
 8005cb8:	af00      	add	r7, sp, #0
 8005cba:	4603      	mov	r3, r0
 8005cbc:	460a      	mov	r2, r1
 8005cbe:	71fb      	strb	r3, [r7, #7]
 8005cc0:	4613      	mov	r3, r2
 8005cc2:	71bb      	strb	r3, [r7, #6]
 8005cc4:	79fb      	ldrb	r3, [r7, #7]
 8005cc6:	f04f 0400 	mov.w	r4, #0
 8005cca:	f1b3 4f00 	cmp.w	r3, #2147483648	; 0x80000000
 8005cce:	f174 33ff 	sbcs.w	r3, r4, #4294967295
 8005cd2:	db0a      	blt.n	8005cea <stm32__exti__enable_external_event+0x36>
 8005cd4:	79fb      	ldrb	r3, [r7, #7]
 8005cd6:	f04f 0400 	mov.w	r4, #0
 8005cda:	f06f 4100 	mvn.w	r1, #2147483648	; 0x80000000
 8005cde:	f04f 0200 	mov.w	r2, #0
 8005ce2:	4299      	cmp	r1, r3
 8005ce4:	eb72 0304 	sbcs.w	r3, r2, r4
 8005ce8:	da03      	bge.n	8005cf2 <stm32__exti__enable_external_event+0x3e>
 8005cea:	4844      	ldr	r0, [pc, #272]	; (8005dfc <stm32__exti__enable_external_event+0x148>)
 8005cec:	2156      	movs	r1, #86	; 0x56
 8005cee:	f003 f9d9 	bl	80090a4 <__gnat_rcheck_CE_Overflow_Check>
 8005cf2:	79fb      	ldrb	r3, [r7, #7]
 8005cf4:	617b      	str	r3, [r7, #20]
 8005cf6:	697b      	ldr	r3, [r7, #20]
 8005cf8:	2b1f      	cmp	r3, #31
 8005cfa:	dd03      	ble.n	8005d04 <stm32__exti__enable_external_event+0x50>
 8005cfc:	483f      	ldr	r0, [pc, #252]	; (8005dfc <stm32__exti__enable_external_event+0x148>)
 8005cfe:	2158      	movs	r1, #88	; 0x58
 8005d00:	f003 f9c0 	bl	8009084 <__gnat_rcheck_CE_Index_Check>
 8005d04:	4b3e      	ldr	r3, [pc, #248]	; (8005e00 <stm32__exti__enable_external_event+0x14c>)
 8005d06:	3304      	adds	r3, #4
 8005d08:	681b      	ldr	r3, [r3, #0]
 8005d0a:	613b      	str	r3, [r7, #16]
 8005d0c:	4b3c      	ldr	r3, [pc, #240]	; (8005e00 <stm32__exti__enable_external_event+0x14c>)
 8005d0e:	3304      	adds	r3, #4
 8005d10:	681b      	ldr	r3, [r3, #0]
 8005d12:	461a      	mov	r2, r3
 8005d14:	693a      	ldr	r2, [r7, #16]
 8005d16:	697b      	ldr	r3, [r7, #20]
 8005d18:	2101      	movs	r1, #1
 8005d1a:	fa01 f303 	lsl.w	r3, r1, r3
 8005d1e:	4313      	orrs	r3, r2
 8005d20:	461a      	mov	r2, r3
 8005d22:	4b37      	ldr	r3, [pc, #220]	; (8005e00 <stm32__exti__enable_external_event+0x14c>)
 8005d24:	3304      	adds	r3, #4
 8005d26:	601a      	str	r2, [r3, #0]
 8005d28:	697b      	ldr	r3, [r7, #20]
 8005d2a:	2b10      	cmp	r3, #16
 8005d2c:	dd03      	ble.n	8005d36 <stm32__exti__enable_external_event+0x82>
 8005d2e:	4833      	ldr	r0, [pc, #204]	; (8005dfc <stm32__exti__enable_external_event+0x148>)
 8005d30:	2159      	movs	r1, #89	; 0x59
 8005d32:	f003 f9a7 	bl	8009084 <__gnat_rcheck_CE_Index_Check>
 8005d36:	4b32      	ldr	r3, [pc, #200]	; (8005e00 <stm32__exti__enable_external_event+0x14c>)
 8005d38:	3308      	adds	r3, #8
 8005d3a:	681b      	ldr	r3, [r3, #0]
 8005d3c:	f3c3 0210 	ubfx	r2, r3, #0, #17
 8005d40:	68fb      	ldr	r3, [r7, #12]
 8005d42:	f362 0310 	bfi	r3, r2, #0, #17
 8005d46:	60fb      	str	r3, [r7, #12]
 8005d48:	4b2d      	ldr	r3, [pc, #180]	; (8005e00 <stm32__exti__enable_external_event+0x14c>)
 8005d4a:	3308      	adds	r3, #8
 8005d4c:	681b      	ldr	r3, [r3, #0]
 8005d4e:	68fa      	ldr	r2, [r7, #12]
 8005d50:	f3c2 0210 	ubfx	r2, r2, #0, #17
 8005d54:	4610      	mov	r0, r2
 8005d56:	697a      	ldr	r2, [r7, #20]
 8005d58:	2101      	movs	r1, #1
 8005d5a:	fa01 f202 	lsl.w	r2, r1, r2
 8005d5e:	43d2      	mvns	r2, r2
 8005d60:	ea00 0102 	and.w	r1, r0, r2
 8005d64:	79ba      	ldrb	r2, [r7, #6]
 8005d66:	2a00      	cmp	r2, #0
 8005d68:	d002      	beq.n	8005d70 <stm32__exti__enable_external_event+0xbc>
 8005d6a:	79ba      	ldrb	r2, [r7, #6]
 8005d6c:	2a02      	cmp	r2, #2
 8005d6e:	d101      	bne.n	8005d74 <stm32__exti__enable_external_event+0xc0>
 8005d70:	2201      	movs	r2, #1
 8005d72:	e000      	b.n	8005d76 <stm32__exti__enable_external_event+0xc2>
 8005d74:	2200      	movs	r2, #0
 8005d76:	4610      	mov	r0, r2
 8005d78:	697a      	ldr	r2, [r7, #20]
 8005d7a:	fa00 f202 	lsl.w	r2, r0, r2
 8005d7e:	430a      	orrs	r2, r1
 8005d80:	f3c2 0210 	ubfx	r2, r2, #0, #17
 8005d84:	f362 0310 	bfi	r3, r2, #0, #17
 8005d88:	4a1d      	ldr	r2, [pc, #116]	; (8005e00 <stm32__exti__enable_external_event+0x14c>)
 8005d8a:	3208      	adds	r2, #8
 8005d8c:	6013      	str	r3, [r2, #0]
 8005d8e:	697b      	ldr	r3, [r7, #20]
 8005d90:	2b10      	cmp	r3, #16
 8005d92:	dd03      	ble.n	8005d9c <stm32__exti__enable_external_event+0xe8>
 8005d94:	4819      	ldr	r0, [pc, #100]	; (8005dfc <stm32__exti__enable_external_event+0x148>)
 8005d96:	215b      	movs	r1, #91	; 0x5b
 8005d98:	f003 f974 	bl	8009084 <__gnat_rcheck_CE_Index_Check>
 8005d9c:	4b18      	ldr	r3, [pc, #96]	; (8005e00 <stm32__exti__enable_external_event+0x14c>)
 8005d9e:	330c      	adds	r3, #12
 8005da0:	681b      	ldr	r3, [r3, #0]
 8005da2:	f3c3 0210 	ubfx	r2, r3, #0, #17
 8005da6:	68bb      	ldr	r3, [r7, #8]
 8005da8:	f362 0310 	bfi	r3, r2, #0, #17
 8005dac:	60bb      	str	r3, [r7, #8]
 8005dae:	4b14      	ldr	r3, [pc, #80]	; (8005e00 <stm32__exti__enable_external_event+0x14c>)
 8005db0:	330c      	adds	r3, #12
 8005db2:	681b      	ldr	r3, [r3, #0]
 8005db4:	68ba      	ldr	r2, [r7, #8]
 8005db6:	f3c2 0210 	ubfx	r2, r2, #0, #17
 8005dba:	4610      	mov	r0, r2
 8005dbc:	697a      	ldr	r2, [r7, #20]
 8005dbe:	2101      	movs	r1, #1
 8005dc0:	fa01 f202 	lsl.w	r2, r1, r2
 8005dc4:	43d2      	mvns	r2, r2
 8005dc6:	ea00 0102 	and.w	r1, r0, r2
 8005dca:	79ba      	ldrb	r2, [r7, #6]
 8005dcc:	2a01      	cmp	r2, #1
 8005dce:	d002      	beq.n	8005dd6 <stm32__exti__enable_external_event+0x122>
 8005dd0:	79ba      	ldrb	r2, [r7, #6]
 8005dd2:	2a02      	cmp	r2, #2
 8005dd4:	d101      	bne.n	8005dda <stm32__exti__enable_external_event+0x126>
 8005dd6:	2201      	movs	r2, #1
 8005dd8:	e000      	b.n	8005ddc <stm32__exti__enable_external_event+0x128>
 8005dda:	2200      	movs	r2, #0
 8005ddc:	4610      	mov	r0, r2
 8005dde:	697a      	ldr	r2, [r7, #20]
 8005de0:	fa00 f202 	lsl.w	r2, r0, r2
 8005de4:	430a      	orrs	r2, r1
 8005de6:	f3c2 0210 	ubfx	r2, r2, #0, #17
 8005dea:	f362 0310 	bfi	r3, r2, #0, #17
 8005dee:	4a04      	ldr	r2, [pc, #16]	; (8005e00 <stm32__exti__enable_external_event+0x14c>)
 8005df0:	320c      	adds	r2, #12
 8005df2:	6013      	str	r3, [r2, #0]
 8005df4:	371c      	adds	r7, #28
 8005df6:	46bd      	mov	sp, r7
 8005df8:	bd90      	pop	{r4, r7, pc}
 8005dfa:	bf00      	nop
 8005dfc:	0800d018 	.word	0x0800d018
 8005e00:	40010400 	.word	0x40010400

08005e04 <stm32__syscfg__connect_external_interrupt__4>:
 8005e04:	b480      	push	{r7}
 8005e06:	b083      	sub	sp, #12
 8005e08:	af00      	add	r7, sp, #0
 8005e0a:	6078      	str	r0, [r7, #4]
 8005e0c:	6039      	str	r1, [r7, #0]
 8005e0e:	bf00      	nop
 8005e10:	370c      	adds	r7, #12
 8005e12:	46bd      	mov	sp, r7
 8005e14:	f85d 7b04 	ldr.w	r7, [sp], #4
 8005e18:	4770      	bx	lr
 8005e1a:	bf00      	nop

08005e1c <stm32__syscfg__connect_external_interrupt>:
 8005e1c:	b580      	push	{r7, lr}
 8005e1e:	b082      	sub	sp, #8
 8005e20:	af00      	add	r7, sp, #0
 8005e22:	6078      	str	r0, [r7, #4]
 8005e24:	460b      	mov	r3, r1
 8005e26:	807b      	strh	r3, [r7, #2]
 8005e28:	887b      	ldrh	r3, [r7, #2]
 8005e2a:	4618      	mov	r0, r3
 8005e2c:	2101      	movs	r1, #1
 8005e2e:	f7fd fbdb 	bl	80035e8 <stm32__gpio__gpio_pinRP>
 8005e32:	4603      	mov	r3, r0
 8005e34:	2b00      	cmp	r3, #0
 8005e36:	db01      	blt.n	8005e3c <stm32__syscfg__connect_external_interrupt+0x20>
 8005e38:	2b0f      	cmp	r3, #15
 8005e3a:	dd03      	ble.n	8005e44 <stm32__syscfg__connect_external_interrupt+0x28>
 8005e3c:	4808      	ldr	r0, [pc, #32]	; (8005e60 <stm32__syscfg__connect_external_interrupt+0x44>)
 8005e3e:	2152      	movs	r1, #82	; 0x52
 8005e40:	f003 f938 	bl	80090b4 <__gnat_rcheck_CE_Range_Check>
 8005e44:	887b      	ldrh	r3, [r7, #2]
 8005e46:	4618      	mov	r0, r3
 8005e48:	2101      	movs	r1, #1
 8005e4a:	f7fd fbcd 	bl	80035e8 <stm32__gpio__gpio_pinRP>
 8005e4e:	4603      	mov	r3, r0
 8005e50:	6878      	ldr	r0, [r7, #4]
 8005e52:	4619      	mov	r1, r3
 8005e54:	f7ff ffd6 	bl	8005e04 <stm32__syscfg__connect_external_interrupt__4>
 8005e58:	3708      	adds	r7, #8
 8005e5a:	46bd      	mov	sp, r7
 8005e5c:	bd80      	pop	{r7, pc}
 8005e5e:	bf00      	nop
 8005e60:	0800d028 	.word	0x0800d028

08005e64 <stm32__syscfg__connect_external_interrupt__2>:
 8005e64:	b580      	push	{r7, lr}
 8005e66:	b082      	sub	sp, #8
 8005e68:	af00      	add	r7, sp, #0
 8005e6a:	6078      	str	r0, [r7, #4]
 8005e6c:	687b      	ldr	r3, [r7, #4]
 8005e6e:	685b      	ldr	r3, [r3, #4]
 8005e70:	2b00      	cmp	r3, #0
 8005e72:	d103      	bne.n	8005e7c <stm32__syscfg__connect_external_interrupt__2+0x18>
 8005e74:	4807      	ldr	r0, [pc, #28]	; (8005e94 <stm32__syscfg__connect_external_interrupt__2+0x30>)
 8005e76:	215d      	movs	r1, #93	; 0x5d
 8005e78:	f003 f8ec 	bl	8009054 <__gnat_rcheck_CE_Access_Check>
 8005e7c:	687b      	ldr	r3, [r7, #4]
 8005e7e:	685a      	ldr	r2, [r3, #4]
 8005e80:	687b      	ldr	r3, [r7, #4]
 8005e82:	891b      	ldrh	r3, [r3, #8]
 8005e84:	4610      	mov	r0, r2
 8005e86:	4619      	mov	r1, r3
 8005e88:	f7ff ffc8 	bl	8005e1c <stm32__syscfg__connect_external_interrupt>
 8005e8c:	3708      	adds	r7, #8
 8005e8e:	46bd      	mov	sp, r7
 8005e90:	bd80      	pop	{r7, pc}
 8005e92:	bf00      	nop
 8005e94:	0800d028 	.word	0x0800d028

08005e98 <stm32_svd__spi__sr_registerIP>:
 8005e98:	b480      	push	{r7}
 8005e9a:	b083      	sub	sp, #12
 8005e9c:	af00      	add	r7, sp, #0
 8005e9e:	6078      	str	r0, [r7, #4]
 8005ea0:	687b      	ldr	r3, [r7, #4]
 8005ea2:	781a      	ldrb	r2, [r3, #0]
 8005ea4:	f022 0201 	bic.w	r2, r2, #1
 8005ea8:	701a      	strb	r2, [r3, #0]
 8005eaa:	687b      	ldr	r3, [r7, #4]
 8005eac:	781a      	ldrb	r2, [r3, #0]
 8005eae:	f042 0202 	orr.w	r2, r2, #2
 8005eb2:	701a      	strb	r2, [r3, #0]
 8005eb4:	687b      	ldr	r3, [r7, #4]
 8005eb6:	781a      	ldrb	r2, [r3, #0]
 8005eb8:	f022 020c 	bic.w	r2, r2, #12
 8005ebc:	701a      	strb	r2, [r3, #0]
 8005ebe:	687b      	ldr	r3, [r7, #4]
 8005ec0:	781a      	ldrb	r2, [r3, #0]
 8005ec2:	f022 0210 	bic.w	r2, r2, #16
 8005ec6:	701a      	strb	r2, [r3, #0]
 8005ec8:	687b      	ldr	r3, [r7, #4]
 8005eca:	781a      	ldrb	r2, [r3, #0]
 8005ecc:	f022 0220 	bic.w	r2, r2, #32
 8005ed0:	701a      	strb	r2, [r3, #0]
 8005ed2:	687b      	ldr	r3, [r7, #4]
 8005ed4:	781a      	ldrb	r2, [r3, #0]
 8005ed6:	f022 0240 	bic.w	r2, r2, #64	; 0x40
 8005eda:	701a      	strb	r2, [r3, #0]
 8005edc:	687b      	ldr	r3, [r7, #4]
 8005ede:	781a      	ldrb	r2, [r3, #0]
 8005ee0:	f002 027f 	and.w	r2, r2, #127	; 0x7f
 8005ee4:	701a      	strb	r2, [r3, #0]
 8005ee6:	687b      	ldr	r3, [r7, #4]
 8005ee8:	785a      	ldrb	r2, [r3, #1]
 8005eea:	f022 0201 	bic.w	r2, r2, #1
 8005eee:	705a      	strb	r2, [r3, #1]
 8005ef0:	687b      	ldr	r3, [r7, #4]
 8005ef2:	785a      	ldrb	r2, [r3, #1]
 8005ef4:	f022 0206 	bic.w	r2, r2, #6
 8005ef8:	705a      	strb	r2, [r3, #1]
 8005efa:	687b      	ldr	r3, [r7, #4]
 8005efc:	785a      	ldrb	r2, [r3, #1]
 8005efe:	f022 0218 	bic.w	r2, r2, #24
 8005f02:	705a      	strb	r2, [r3, #1]
 8005f04:	687b      	ldr	r3, [r7, #4]
 8005f06:	681a      	ldr	r2, [r3, #0]
 8005f08:	f3c2 020c 	ubfx	r2, r2, #0, #13
 8005f0c:	601a      	str	r2, [r3, #0]
 8005f0e:	370c      	adds	r7, #12
 8005f10:	46bd      	mov	sp, r7
 8005f12:	f85d 7b04 	ldr.w	r7, [sp], #4
 8005f16:	4770      	bx	lr

08005f18 <hal__i2c__Ti2c_portCFD>:
 8005f18:	b580      	push	{r7, lr}
 8005f1a:	b086      	sub	sp, #24
 8005f1c:	af00      	add	r7, sp, #0
 8005f1e:	6078      	str	r0, [r7, #4]
 8005f20:	687b      	ldr	r3, [r7, #4]
 8005f22:	681b      	ldr	r3, [r3, #0]
 8005f24:	617b      	str	r3, [r7, #20]
 8005f26:	697b      	ldr	r3, [r7, #20]
 8005f28:	613b      	str	r3, [r7, #16]
 8005f2a:	693a      	ldr	r2, [r7, #16]
 8005f2c:	230c      	movs	r3, #12
 8005f2e:	60fb      	str	r3, [r7, #12]
 8005f30:	68fb      	ldr	r3, [r7, #12]
 8005f32:	1ad3      	subs	r3, r2, r3
 8005f34:	681b      	ldr	r3, [r3, #0]
 8005f36:	6a1b      	ldr	r3, [r3, #32]
 8005f38:	687a      	ldr	r2, [r7, #4]
 8005f3a:	4610      	mov	r0, r2
 8005f3c:	2101      	movs	r1, #1
 8005f3e:	4798      	blx	r3
 8005f40:	3718      	adds	r7, #24
 8005f42:	46bd      	mov	sp, r7
 8005f44:	bd80      	pop	{r7, pc}
 8005f46:	bf00      	nop

08005f48 <hal__i2c___elabs>:
 8005f48:	b580      	push	{r7, lr}
 8005f4a:	af00      	add	r7, sp, #0
 8005f4c:	480c      	ldr	r0, [pc, #48]	; (8005f80 <hal__i2c___elabs+0x38>)
 8005f4e:	2101      	movs	r1, #1
 8005f50:	f002 f9fa 	bl	8008348 <system__finalization_masters__finalization_masterIP>
 8005f54:	480a      	ldr	r0, [pc, #40]	; (8005f80 <hal__i2c___elabs+0x38>)
 8005f56:	f002 f8a9 	bl	80080ac <system__finalization_masters__initialize__2>
 8005f5a:	4b0a      	ldr	r3, [pc, #40]	; (8005f84 <hal__i2c___elabs+0x3c>)
 8005f5c:	2201      	movs	r2, #1
 8005f5e:	601a      	str	r2, [r3, #0]
 8005f60:	4807      	ldr	r0, [pc, #28]	; (8005f80 <hal__i2c___elabs+0x38>)
 8005f62:	4909      	ldr	r1, [pc, #36]	; (8005f88 <hal__i2c___elabs+0x40>)
 8005f64:	f002 f8ac 	bl	80080c0 <system__finalization_masters__set_base_pool>
 8005f68:	4805      	ldr	r0, [pc, #20]	; (8005f80 <hal__i2c___elabs+0x38>)
 8005f6a:	4908      	ldr	r1, [pc, #32]	; (8005f8c <hal__i2c___elabs+0x44>)
 8005f6c:	f002 f8aa 	bl	80080c4 <system__finalization_masters__set_finalize_address>
 8005f70:	4807      	ldr	r0, [pc, #28]	; (8005f90 <hal__i2c___elabs+0x48>)
 8005f72:	f001 ff01 	bl	8007d78 <ada__tags__check_tsd>
 8005f76:	4807      	ldr	r0, [pc, #28]	; (8005f94 <hal__i2c___elabs+0x4c>)
 8005f78:	f001 ff78 	bl	8007e6c <ada__tags__register_tag>
 8005f7c:	bd80      	pop	{r7, pc}
 8005f7e:	bf00      	nop
 8005f80:	20000700 	.word	0x20000700
 8005f84:	200000b8 	.word	0x200000b8
 8005f88:	20004268 	.word	0x20004268
 8005f8c:	08005f19 	.word	0x08005f19
 8005f90:	0800d050 	.word	0x0800d050
 8005f94:	0800d080 	.word	0x0800d080

08005f98 <hal__spi__Tspi_portCFD>:
 8005f98:	b580      	push	{r7, lr}
 8005f9a:	b086      	sub	sp, #24
 8005f9c:	af00      	add	r7, sp, #0
 8005f9e:	6078      	str	r0, [r7, #4]
 8005fa0:	687b      	ldr	r3, [r7, #4]
 8005fa2:	681b      	ldr	r3, [r3, #0]
 8005fa4:	617b      	str	r3, [r7, #20]
 8005fa6:	697b      	ldr	r3, [r7, #20]
 8005fa8:	613b      	str	r3, [r7, #16]
 8005faa:	693a      	ldr	r2, [r7, #16]
 8005fac:	230c      	movs	r3, #12
 8005fae:	60fb      	str	r3, [r7, #12]
 8005fb0:	68fb      	ldr	r3, [r7, #12]
 8005fb2:	1ad3      	subs	r3, r2, r3
 8005fb4:	681b      	ldr	r3, [r3, #0]
 8005fb6:	6a1b      	ldr	r3, [r3, #32]
 8005fb8:	687a      	ldr	r2, [r7, #4]
 8005fba:	4610      	mov	r0, r2
 8005fbc:	2101      	movs	r1, #1
 8005fbe:	4798      	blx	r3
 8005fc0:	3718      	adds	r7, #24
 8005fc2:	46bd      	mov	sp, r7
 8005fc4:	bd80      	pop	{r7, pc}
 8005fc6:	bf00      	nop

08005fc8 <hal__spi___elabs>:
 8005fc8:	b580      	push	{r7, lr}
 8005fca:	af00      	add	r7, sp, #0
 8005fcc:	480c      	ldr	r0, [pc, #48]	; (8006000 <hal__spi___elabs+0x38>)
 8005fce:	2101      	movs	r1, #1
 8005fd0:	f002 f9ba 	bl	8008348 <system__finalization_masters__finalization_masterIP>
 8005fd4:	480a      	ldr	r0, [pc, #40]	; (8006000 <hal__spi___elabs+0x38>)
 8005fd6:	f002 f869 	bl	80080ac <system__finalization_masters__initialize__2>
 8005fda:	4b0a      	ldr	r3, [pc, #40]	; (8006004 <hal__spi___elabs+0x3c>)
 8005fdc:	2201      	movs	r2, #1
 8005fde:	601a      	str	r2, [r3, #0]
 8005fe0:	4807      	ldr	r0, [pc, #28]	; (8006000 <hal__spi___elabs+0x38>)
 8005fe2:	4909      	ldr	r1, [pc, #36]	; (8006008 <hal__spi___elabs+0x40>)
 8005fe4:	f002 f86c 	bl	80080c0 <system__finalization_masters__set_base_pool>
 8005fe8:	4805      	ldr	r0, [pc, #20]	; (8006000 <hal__spi___elabs+0x38>)
 8005fea:	4908      	ldr	r1, [pc, #32]	; (800600c <hal__spi___elabs+0x44>)
 8005fec:	f002 f86a 	bl	80080c4 <system__finalization_masters__set_finalize_address>
 8005ff0:	4807      	ldr	r0, [pc, #28]	; (8006010 <hal__spi___elabs+0x48>)
 8005ff2:	f001 fec1 	bl	8007d78 <ada__tags__check_tsd>
 8005ff6:	4807      	ldr	r0, [pc, #28]	; (8006014 <hal__spi___elabs+0x4c>)
 8005ff8:	f001 ff38 	bl	8007e6c <ada__tags__register_tag>
 8005ffc:	bd80      	pop	{r7, pc}
 8005ffe:	bf00      	nop
 8006000:	2000071c 	.word	0x2000071c
 8006004:	200000c4 	.word	0x200000c4
 8006008:	20004268 	.word	0x20004268
 800600c:	08005f99 	.word	0x08005f99
 8006010:	0800d098 	.word	0x0800d098
 8006014:	0800d0c8 	.word	0x0800d0c8

08006018 <hal__gpio__Tgpio_pointCFD>:
 8006018:	b580      	push	{r7, lr}
 800601a:	b086      	sub	sp, #24
 800601c:	af00      	add	r7, sp, #0
 800601e:	6078      	str	r0, [r7, #4]
 8006020:	687b      	ldr	r3, [r7, #4]
 8006022:	681b      	ldr	r3, [r3, #0]
 8006024:	617b      	str	r3, [r7, #20]
 8006026:	697b      	ldr	r3, [r7, #20]
 8006028:	613b      	str	r3, [r7, #16]
 800602a:	693a      	ldr	r2, [r7, #16]
 800602c:	230c      	movs	r3, #12
 800602e:	60fb      	str	r3, [r7, #12]
 8006030:	68fb      	ldr	r3, [r7, #12]
 8006032:	1ad3      	subs	r3, r2, r3
 8006034:	681b      	ldr	r3, [r3, #0]
 8006036:	6a1b      	ldr	r3, [r3, #32]
 8006038:	687a      	ldr	r2, [r7, #4]
 800603a:	4610      	mov	r0, r2
 800603c:	2101      	movs	r1, #1
 800603e:	4798      	blx	r3
 8006040:	3718      	adds	r7, #24
 8006042:	46bd      	mov	sp, r7
 8006044:	bd80      	pop	{r7, pc}
 8006046:	bf00      	nop

08006048 <hal__gpio___elabs>:
 8006048:	b580      	push	{r7, lr}
 800604a:	af00      	add	r7, sp, #0
 800604c:	480c      	ldr	r0, [pc, #48]	; (8006080 <hal__gpio___elabs+0x38>)
 800604e:	2101      	movs	r1, #1
 8006050:	f002 f97a 	bl	8008348 <system__finalization_masters__finalization_masterIP>
 8006054:	480a      	ldr	r0, [pc, #40]	; (8006080 <hal__gpio___elabs+0x38>)
 8006056:	f002 f829 	bl	80080ac <system__finalization_masters__initialize__2>
 800605a:	4b0a      	ldr	r3, [pc, #40]	; (8006084 <hal__gpio___elabs+0x3c>)
 800605c:	2201      	movs	r2, #1
 800605e:	601a      	str	r2, [r3, #0]
 8006060:	4807      	ldr	r0, [pc, #28]	; (8006080 <hal__gpio___elabs+0x38>)
 8006062:	4909      	ldr	r1, [pc, #36]	; (8006088 <hal__gpio___elabs+0x40>)
 8006064:	f002 f82c 	bl	80080c0 <system__finalization_masters__set_base_pool>
 8006068:	4805      	ldr	r0, [pc, #20]	; (8006080 <hal__gpio___elabs+0x38>)
 800606a:	4908      	ldr	r1, [pc, #32]	; (800608c <hal__gpio___elabs+0x44>)
 800606c:	f002 f82a 	bl	80080c4 <system__finalization_masters__set_finalize_address>
 8006070:	4807      	ldr	r0, [pc, #28]	; (8006090 <hal__gpio___elabs+0x48>)
 8006072:	f001 fe81 	bl	8007d78 <ada__tags__check_tsd>
 8006076:	4807      	ldr	r0, [pc, #28]	; (8006094 <hal__gpio___elabs+0x4c>)
 8006078:	f001 fef8 	bl	8007e6c <ada__tags__register_tag>
 800607c:	bd80      	pop	{r7, pc}
 800607e:	bf00      	nop
 8006080:	20000738 	.word	0x20000738
 8006084:	200000d0 	.word	0x200000d0
 8006088:	20004268 	.word	0x20004268
 800608c:	08006019 	.word	0x08006019
 8006090:	0800d0e0 	.word	0x0800d0e0
 8006094:	0800d110 	.word	0x0800d110

08006098 <ada__real_time__Oadd>:
 8006098:	b5f8      	push	{r3, r4, r5, r6, r7, lr}
 800609a:	2a00      	cmp	r2, #0
 800609c:	f173 0400 	sbcs.w	r4, r3, #0
 80060a0:	db1f      	blt.n	80060e2 <ada__real_time__Oadd+0x4a>
 80060a2:	43cd      	mvns	r5, r1
 80060a4:	43c4      	mvns	r4, r0
 80060a6:	429d      	cmp	r5, r3
 80060a8:	bf08      	it	eq
 80060aa:	4294      	cmpeq	r4, r2
 80060ac:	d216      	bcs.n	80060dc <ada__real_time__Oadd+0x44>
 80060ae:	f112 34ff 	adds.w	r4, r2, #4294967295
 80060b2:	f163 4500 	sbc.w	r5, r3, #2147483648	; 0x80000000
 80060b6:	f06f 4700 	mvn.w	r7, #2147483648	; 0x80000000
 80060ba:	f06f 0601 	mvn.w	r6, #1
 80060be:	42af      	cmp	r7, r5
 80060c0:	bf08      	it	eq
 80060c2:	42a6      	cmpeq	r6, r4
 80060c4:	d316      	bcc.n	80060f4 <ada__real_time__Oadd+0x5c>
 80060c6:	4252      	negs	r2, r2
 80060c8:	eb63 0343 	sbc.w	r3, r3, r3, lsl #1
 80060cc:	4299      	cmp	r1, r3
 80060ce:	bf08      	it	eq
 80060d0:	4290      	cmpeq	r0, r2
 80060d2:	d30f      	bcc.n	80060f4 <ada__real_time__Oadd+0x5c>
 80060d4:	1a80      	subs	r0, r0, r2
 80060d6:	eb61 0103 	sbc.w	r1, r1, r3
 80060da:	bdf8      	pop	{r3, r4, r5, r6, r7, pc}
 80060dc:	1880      	adds	r0, r0, r2
 80060de:	4159      	adcs	r1, r3
 80060e0:	bdf8      	pop	{r3, r4, r5, r6, r7, pc}
 80060e2:	f1b3 4f00 	cmp.w	r3, #2147483648	; 0x80000000
 80060e6:	bf08      	it	eq
 80060e8:	2a00      	cmpeq	r2, #0
 80060ea:	d1e0      	bne.n	80060ae <ada__real_time__Oadd+0x16>
 80060ec:	2800      	cmp	r0, #0
 80060ee:	f171 0300 	sbcs.w	r3, r1, #0
 80060f2:	db03      	blt.n	80060fc <ada__real_time__Oadd+0x64>
 80060f4:	4803      	ldr	r0, [pc, #12]	; (8006104 <ada__real_time__Oadd+0x6c>)
 80060f6:	21cf      	movs	r1, #207	; 0xcf
 80060f8:	f002 ffbc 	bl	8009074 <__gnat_rcheck_CE_Explicit_Raise>
 80060fc:	3000      	adds	r0, #0
 80060fe:	f141 4100 	adc.w	r1, r1, #2147483648	; 0x80000000
 8006102:	e7ea      	b.n	80060da <ada__real_time__Oadd+0x42>
 8006104:	0800d114 	.word	0x0800d114

08006108 <ada__real_time__Osubtract__2>:
 8006108:	b508      	push	{r3, lr}
 800610a:	4299      	cmp	r1, r3
 800610c:	bf08      	it	eq
 800610e:	4290      	cmpeq	r0, r2
 8006110:	d309      	bcc.n	8006126 <ada__real_time__Osubtract__2+0x1e>
 8006112:	1a82      	subs	r2, r0, r2
 8006114:	eb61 0303 	sbc.w	r3, r1, r3
 8006118:	2a00      	cmp	r2, #0
 800611a:	f173 0100 	sbcs.w	r1, r3, #0
 800611e:	db0e      	blt.n	800613e <ada__real_time__Osubtract__2+0x36>
 8006120:	4610      	mov	r0, r2
 8006122:	4619      	mov	r1, r3
 8006124:	bd08      	pop	{r3, pc}
 8006126:	1a12      	subs	r2, r2, r0
 8006128:	eb63 0301 	sbc.w	r3, r3, r1
 800612c:	f1b3 4f00 	cmp.w	r3, #2147483648	; 0x80000000
 8006130:	bf08      	it	eq
 8006132:	2a01      	cmpeq	r2, #1
 8006134:	d203      	bcs.n	800613e <ada__real_time__Osubtract__2+0x36>
 8006136:	4250      	negs	r0, r2
 8006138:	eb63 0143 	sbc.w	r1, r3, r3, lsl #1
 800613c:	bd08      	pop	{r3, pc}
 800613e:	4802      	ldr	r0, [pc, #8]	; (8006148 <ada__real_time__Osubtract__2+0x40>)
 8006140:	f44f 7186 	mov.w	r1, #268	; 0x10c
 8006144:	f002 ff96 	bl	8009074 <__gnat_rcheck_CE_Explicit_Raise>
 8006148:	0800d114 	.word	0x0800d114

0800614c <ada__real_time__clock>:
 800614c:	e92d 43f8 	stmdb	sp!, {r3, r4, r5, r6, r7, r8, r9, lr}
 8006150:	4e13      	ldr	r6, [pc, #76]	; (80061a0 <ada__real_time__clock+0x54>)
 8006152:	2400      	movs	r4, #0
 8006154:	f106 0804 	add.w	r8, r6, #4
 8006158:	6835      	ldr	r5, [r6, #0]
 800615a:	f8d8 7000 	ldr.w	r7, [r8]
 800615e:	f000 fbef 	bl	8006940 <system__bb__board_support__read_clock>
 8006162:	6833      	ldr	r3, [r6, #0]
 8006164:	429d      	cmp	r5, r3
 8006166:	ebc9 0205 	rsb	r2, r9, r5
 800616a:	f104 0401 	add.w	r4, r4, #1
 800616e:	d00d      	beq.n	800618c <ada__real_time__clock+0x40>
 8006170:	2c01      	cmp	r4, #1
 8006172:	d009      	beq.n	8006188 <ada__real_time__clock+0x3c>
 8006174:	2a01      	cmp	r2, #1
 8006176:	d801      	bhi.n	800617c <ada__real_time__clock+0x30>
 8006178:	2c03      	cmp	r4, #3
 800617a:	d1ed      	bne.n	8006158 <ada__real_time__clock+0xc>
 800617c:	2200      	movs	r2, #0
 800617e:	462b      	mov	r3, r5
 8006180:	4610      	mov	r0, r2
 8006182:	4619      	mov	r1, r3
 8006184:	e8bd 83f8 	ldmia.w	sp!, {r3, r4, r5, r6, r7, r8, r9, pc}
 8006188:	46a9      	mov	r9, r5
 800618a:	e7e5      	b.n	8006158 <ada__real_time__clock+0xc>
 800618c:	2200      	movs	r2, #0
 800618e:	4287      	cmp	r7, r0
 8006190:	bf94      	ite	ls
 8006192:	462b      	movls	r3, r5
 8006194:	1c6b      	addhi	r3, r5, #1
 8006196:	1812      	adds	r2, r2, r0
 8006198:	f143 0300 	adc.w	r3, r3, #0
 800619c:	e7f0      	b.n	8006180 <ada__real_time__clock+0x34>
 800619e:	bf00      	nop
 80061a0:	20000100 	.word	0x20000100

080061a4 <ada__real_time__microseconds>:
 80061a4:	b508      	push	{r3, lr}
 80061a6:	4b09      	ldr	r3, [pc, #36]	; (80061cc <ada__real_time__microseconds+0x28>)
 80061a8:	fb80 0103 	smull	r0, r1, r0, r3
 80061ac:	2800      	cmp	r0, #0
 80061ae:	f171 0300 	sbcs.w	r3, r1, #0
 80061b2:	bfab      	itete	ge
 80061b4:	4a06      	ldrge	r2, [pc, #24]	; (80061d0 <ada__real_time__microseconds+0x2c>)
 80061b6:	4a07      	ldrlt	r2, [pc, #28]	; (80061d4 <ada__real_time__microseconds+0x30>)
 80061b8:	2300      	movge	r3, #0
 80061ba:	f04f 33ff 	movlt.w	r3, #4294967295
 80061be:	1880      	adds	r0, r0, r2
 80061c0:	4159      	adcs	r1, r3
 80061c2:	4a05      	ldr	r2, [pc, #20]	; (80061d8 <ada__real_time__microseconds+0x34>)
 80061c4:	2300      	movs	r3, #0
 80061c6:	f004 f855 	bl	800a274 <__aeabi_ldivmod>
 80061ca:	bd08      	pop	{r3, pc}
 80061cc:	04c4b400 	.word	0x04c4b400
 80061d0:	0007a120 	.word	0x0007a120
 80061d4:	fff85ee0 	.word	0xfff85ee0
 80061d8:	000f4240 	.word	0x000f4240

080061dc <ada__real_time__milliseconds>:
 80061dc:	b508      	push	{r3, lr}
 80061de:	4b0d      	ldr	r3, [pc, #52]	; (8006214 <ada__real_time__milliseconds+0x38>)
 80061e0:	fb80 0103 	smull	r0, r1, r0, r3
 80061e4:	2800      	cmp	r0, #0
 80061e6:	f171 0300 	sbcs.w	r3, r1, #0
 80061ea:	db09      	blt.n	8006200 <ada__real_time__milliseconds+0x24>
 80061ec:	f510 70fa 	adds.w	r0, r0, #500	; 0x1f4
 80061f0:	f141 0100 	adc.w	r1, r1, #0
 80061f4:	f44f 727a 	mov.w	r2, #1000	; 0x3e8
 80061f8:	2300      	movs	r3, #0
 80061fa:	f004 f83b 	bl	800a274 <__aeabi_ldivmod>
 80061fe:	bd08      	pop	{r3, pc}
 8006200:	f5b0 70fa 	subs.w	r0, r0, #500	; 0x1f4
 8006204:	f141 31ff 	adc.w	r1, r1, #4294967295
 8006208:	f44f 727a 	mov.w	r2, #1000	; 0x3e8
 800620c:	2300      	movs	r3, #0
 800620e:	f004 f831 	bl	800a274 <__aeabi_ldivmod>
 8006212:	bd08      	pop	{r3, pc}
 8006214:	04c4b400 	.word	0x04c4b400

08006218 <ada__real_time___elabb>:
 8006218:	f000 bc64 	b.w	8006ae4 <system__tasking__initialize>

0800621c <system__bb__timing_events___size>:
 800621c:	f44f 7080 	mov.w	r0, #256	; 0x100
 8006220:	2100      	movs	r1, #0
 8006222:	4770      	bx	lr

08006224 <system__bb__timing_events__timing_eventDF>:
 8006224:	4770      	bx	lr
 8006226:	bf00      	nop

08006228 <system__bb__timing_events__current_handler>:
 8006228:	6900      	ldr	r0, [r0, #16]
 800622a:	4770      	bx	lr

0800622c <system__bb__timing_events__time_of_event>:
 800622c:	6903      	ldr	r3, [r0, #16]
 800622e:	b113      	cbz	r3, 8006236 <system__bb__timing_events__time_of_event+0xa>
 8006230:	e9d0 0102 	ldrd	r0, r1, [r0, #8]
 8006234:	4770      	bx	lr
 8006236:	2000      	movs	r0, #0
 8006238:	2100      	movs	r1, #0
 800623a:	4770      	bx	lr

0800623c <system__bb__timing_events__cancel_handler>:
 800623c:	b508      	push	{r3, lr}
 800623e:	6903      	ldr	r3, [r0, #16]
 8006240:	b1fb      	cbz	r3, 8006282 <system__bb__timing_events__cancel_handler+0x46>
 8006242:	4b14      	ldr	r3, [pc, #80]	; (8006294 <system__bb__timing_events__cancel_handler+0x58>)
 8006244:	681a      	ldr	r2, [r3, #0]
 8006246:	4290      	cmp	r0, r2
 8006248:	d00b      	beq.n	8006262 <system__bb__timing_events__cancel_handler+0x26>
 800624a:	6981      	ldr	r1, [r0, #24]
 800624c:	6943      	ldr	r3, [r0, #20]
 800624e:	614b      	str	r3, [r1, #20]
 8006250:	6942      	ldr	r2, [r0, #20]
 8006252:	b1da      	cbz	r2, 800628c <system__bb__timing_events__cancel_handler+0x50>
 8006254:	2300      	movs	r3, #0
 8006256:	6191      	str	r1, [r2, #24]
 8006258:	6143      	str	r3, [r0, #20]
 800625a:	6183      	str	r3, [r0, #24]
 800625c:	6103      	str	r3, [r0, #16]
 800625e:	2001      	movs	r0, #1
 8006260:	bd08      	pop	{r3, pc}
 8006262:	6942      	ldr	r2, [r0, #20]
 8006264:	601a      	str	r2, [r3, #0]
 8006266:	b172      	cbz	r2, 8006286 <system__bb__timing_events__cancel_handler+0x4a>
 8006268:	6983      	ldr	r3, [r0, #24]
 800626a:	6193      	str	r3, [r2, #24]
 800626c:	2300      	movs	r3, #0
 800626e:	6143      	str	r3, [r0, #20]
 8006270:	6183      	str	r3, [r0, #24]
 8006272:	6103      	str	r3, [r0, #16]
 8006274:	2001      	movs	r0, #1
 8006276:	f000 f9c7 	bl	8006608 <system__bb__time__get_next_timeout>
 800627a:	f000 fa3f 	bl	80066fc <system__bb__time__update_alarm>
 800627e:	2001      	movs	r0, #1
 8006280:	bd08      	pop	{r3, pc}
 8006282:	4618      	mov	r0, r3
 8006284:	bd08      	pop	{r3, pc}
 8006286:	6182      	str	r2, [r0, #24]
 8006288:	6102      	str	r2, [r0, #16]
 800628a:	e7f3      	b.n	8006274 <system__bb__timing_events__cancel_handler+0x38>
 800628c:	6182      	str	r2, [r0, #24]
 800628e:	6102      	str	r2, [r0, #16]
 8006290:	e7e5      	b.n	800625e <system__bb__timing_events__cancel_handler+0x22>
 8006292:	bf00      	nop
 8006294:	200000dc 	.word	0x200000dc

08006298 <system__bb__timing_events__execute_expired_timing_events>:
 8006298:	e92d 4ff8 	stmdb	sp!, {r3, r4, r5, r6, r7, r8, r9, sl, fp, lr}
 800629c:	f8df b074 	ldr.w	fp, [pc, #116]	; 8006314 <system__bb__timing_events__execute_expired_timing_events+0x7c>
 80062a0:	f8db 4000 	ldr.w	r4, [fp]
 80062a4:	2c00      	cmp	r4, #0
 80062a6:	d031      	beq.n	800630c <system__bb__timing_events__execute_expired_timing_events+0x74>
 80062a8:	4b19      	ldr	r3, [pc, #100]	; (8006310 <system__bb__timing_events__execute_expired_timing_events+0x78>)
 80062aa:	f8d3 a000 	ldr.w	sl, [r3]
 80062ae:	4606      	mov	r6, r0
 80062b0:	460f      	mov	r7, r1
 80062b2:	4650      	mov	r0, sl
 80062b4:	21ff      	movs	r1, #255	; 0xff
 80062b6:	f8da 9034 	ldr.w	r9, [sl, #52]	; 0x34
 80062ba:	46d8      	mov	r8, fp
 80062bc:	f000 f89e 	bl	80063fc <system__bb__threads__queues__change_priority>
 80062c0:	2500      	movs	r5, #0
 80062c2:	e00e      	b.n	80062e2 <system__bb__timing_events__execute_expired_timing_events+0x4a>
 80062c4:	69a3      	ldr	r3, [r4, #24]
 80062c6:	6962      	ldr	r2, [r4, #20]
 80062c8:	615a      	str	r2, [r3, #20]
 80062ca:	6962      	ldr	r2, [r4, #20]
 80062cc:	4620      	mov	r0, r4
 80062ce:	b10a      	cbz	r2, 80062d4 <system__bb__timing_events__execute_expired_timing_events+0x3c>
 80062d0:	69a3      	ldr	r3, [r4, #24]
 80062d2:	6193      	str	r3, [r2, #24]
 80062d4:	6165      	str	r5, [r4, #20]
 80062d6:	61a5      	str	r5, [r4, #24]
 80062d8:	6125      	str	r5, [r4, #16]
 80062da:	4788      	blx	r1
 80062dc:	f8db 4000 	ldr.w	r4, [fp]
 80062e0:	b174      	cbz	r4, 8006300 <system__bb__timing_events__execute_expired_timing_events+0x68>
 80062e2:	e9d4 2302 	ldrd	r2, r3, [r4, #8]
 80062e6:	429f      	cmp	r7, r3
 80062e8:	bf08      	it	eq
 80062ea:	4296      	cmpeq	r6, r2
 80062ec:	d308      	bcc.n	8006300 <system__bb__timing_events__execute_expired_timing_events+0x68>
 80062ee:	f8db 3000 	ldr.w	r3, [fp]
 80062f2:	6921      	ldr	r1, [r4, #16]
 80062f4:	429c      	cmp	r4, r3
 80062f6:	d1e5      	bne.n	80062c4 <system__bb__timing_events__execute_expired_timing_events+0x2c>
 80062f8:	6962      	ldr	r2, [r4, #20]
 80062fa:	f8c8 2000 	str.w	r2, [r8]
 80062fe:	e7e5      	b.n	80062cc <system__bb__timing_events__execute_expired_timing_events+0x34>
 8006300:	4650      	mov	r0, sl
 8006302:	4649      	mov	r1, r9
 8006304:	e8bd 4ff8 	ldmia.w	sp!, {r3, r4, r5, r6, r7, r8, r9, sl, fp, lr}
 8006308:	f000 b878 	b.w	80063fc <system__bb__threads__queues__change_priority>
 800630c:	e8bd 8ff8 	ldmia.w	sp!, {r3, r4, r5, r6, r7, r8, r9, sl, fp, pc}
 8006310:	200000f4 	.word	0x200000f4
 8006314:	200000dc 	.word	0x200000dc

08006318 <system__bb__timing_events__insert>:
 8006318:	4b14      	ldr	r3, [pc, #80]	; (800636c <system__bb__timing_events__insert+0x54>)
 800631a:	681a      	ldr	r2, [r3, #0]
 800631c:	b30a      	cbz	r2, 8006362 <system__bb__timing_events__insert+0x4a>
 800631e:	b4f0      	push	{r4, r5, r6, r7}
 8006320:	e9d2 4502 	ldrd	r4, r5, [r2, #8]
 8006324:	e9d0 6702 	ldrd	r6, r7, [r0, #8]
 8006328:	42af      	cmp	r7, r5
 800632a:	bf08      	it	eq
 800632c:	42a6      	cmpeq	r6, r4
 800632e:	d20c      	bcs.n	800634a <system__bb__timing_events__insert+0x32>
 8006330:	6142      	str	r2, [r0, #20]
 8006332:	6018      	str	r0, [r3, #0]
 8006334:	6190      	str	r0, [r2, #24]
 8006336:	2001      	movs	r0, #1
 8006338:	bcf0      	pop	{r4, r5, r6, r7}
 800633a:	4770      	bx	lr
 800633c:	e9d3 4502 	ldrd	r4, r5, [r3, #8]
 8006340:	42af      	cmp	r7, r5
 8006342:	bf08      	it	eq
 8006344:	42a6      	cmpeq	r6, r4
 8006346:	d303      	bcc.n	8006350 <system__bb__timing_events__insert+0x38>
 8006348:	461a      	mov	r2, r3
 800634a:	6953      	ldr	r3, [r2, #20]
 800634c:	2b00      	cmp	r3, #0
 800634e:	d1f5      	bne.n	800633c <system__bb__timing_events__insert+0x24>
 8006350:	6143      	str	r3, [r0, #20]
 8006352:	6953      	ldr	r3, [r2, #20]
 8006354:	6182      	str	r2, [r0, #24]
 8006356:	b103      	cbz	r3, 800635a <system__bb__timing_events__insert+0x42>
 8006358:	6198      	str	r0, [r3, #24]
 800635a:	6150      	str	r0, [r2, #20]
 800635c:	2000      	movs	r0, #0
 800635e:	bcf0      	pop	{r4, r5, r6, r7}
 8006360:	4770      	bx	lr
 8006362:	6142      	str	r2, [r0, #20]
 8006364:	6018      	str	r0, [r3, #0]
 8006366:	2001      	movs	r0, #1
 8006368:	4770      	bx	lr
 800636a:	bf00      	nop
 800636c:	200000dc 	.word	0x200000dc

08006370 <system__bb__timing_events__set_handler>:
 8006370:	b5d0      	push	{r4, r6, r7, lr}
 8006372:	4616      	mov	r6, r2
 8006374:	6902      	ldr	r2, [r0, #16]
 8006376:	461f      	mov	r7, r3
 8006378:	4601      	mov	r1, r0
 800637a:	9b04      	ldr	r3, [sp, #16]
 800637c:	b31a      	cbz	r2, 80063c6 <system__bb__timing_events__set_handler+0x56>
 800637e:	4a1a      	ldr	r2, [pc, #104]	; (80063e8 <system__bb__timing_events__set_handler+0x78>)
 8006380:	6810      	ldr	r0, [r2, #0]
 8006382:	4281      	cmp	r1, r0
 8006384:	d02b      	beq.n	80063de <system__bb__timing_events__set_handler+0x6e>
 8006386:	698a      	ldr	r2, [r1, #24]
 8006388:	6948      	ldr	r0, [r1, #20]
 800638a:	6150      	str	r0, [r2, #20]
 800638c:	6948      	ldr	r0, [r1, #20]
 800638e:	2400      	movs	r4, #0
 8006390:	b108      	cbz	r0, 8006396 <system__bb__timing_events__set_handler+0x26>
 8006392:	698a      	ldr	r2, [r1, #24]
 8006394:	6182      	str	r2, [r0, #24]
 8006396:	2000      	movs	r0, #0
 8006398:	610b      	str	r3, [r1, #16]
 800639a:	6148      	str	r0, [r1, #20]
 800639c:	6188      	str	r0, [r1, #24]
 800639e:	b17b      	cbz	r3, 80063c0 <system__bb__timing_events__set_handler+0x50>
 80063a0:	2301      	movs	r3, #1
 80063a2:	e9c1 6702 	strd	r6, r7, [r1, #8]
 80063a6:	770b      	strb	r3, [r1, #28]
 80063a8:	4608      	mov	r0, r1
 80063aa:	f7ff ffb5 	bl	8006318 <system__bb__timing_events__insert>
 80063ae:	b904      	cbnz	r4, 80063b2 <system__bb__timing_events__set_handler+0x42>
 80063b0:	b140      	cbz	r0, 80063c4 <system__bb__timing_events__set_handler+0x54>
 80063b2:	2001      	movs	r0, #1
 80063b4:	f000 f928 	bl	8006608 <system__bb__time__get_next_timeout>
 80063b8:	e8bd 40d0 	ldmia.w	sp!, {r4, r6, r7, lr}
 80063bc:	f000 b99e 	b.w	80066fc <system__bb__time__update_alarm>
 80063c0:	2c00      	cmp	r4, #0
 80063c2:	d1f6      	bne.n	80063b2 <system__bb__timing_events__set_handler+0x42>
 80063c4:	bdd0      	pop	{r4, r6, r7, pc}
 80063c6:	6103      	str	r3, [r0, #16]
 80063c8:	2b00      	cmp	r3, #0
 80063ca:	d0fb      	beq.n	80063c4 <system__bb__timing_events__set_handler+0x54>
 80063cc:	2301      	movs	r3, #1
 80063ce:	e9c0 6702 	strd	r6, r7, [r0, #8]
 80063d2:	7703      	strb	r3, [r0, #28]
 80063d4:	f7ff ffa0 	bl	8006318 <system__bb__timing_events__insert>
 80063d8:	2800      	cmp	r0, #0
 80063da:	d1ea      	bne.n	80063b2 <system__bb__timing_events__set_handler+0x42>
 80063dc:	e7f2      	b.n	80063c4 <system__bb__timing_events__set_handler+0x54>
 80063de:	6948      	ldr	r0, [r1, #20]
 80063e0:	6010      	str	r0, [r2, #0]
 80063e2:	2401      	movs	r4, #1
 80063e4:	e7d4      	b.n	8006390 <system__bb__timing_events__set_handler+0x20>
 80063e6:	bf00      	nop
 80063e8:	200000dc 	.word	0x200000dc

080063ec <system__bb__timing_events___elabs>:
 80063ec:	4801      	ldr	r0, [pc, #4]	; (80063f4 <system__bb__timing_events___elabs+0x8>)
 80063ee:	f001 bd3d 	b.w	8007e6c <ada__tags__register_tag>
 80063f2:	bf00      	nop
 80063f4:	0800d190 	.word	0x0800d190

080063f8 <__gnat_start_slave_cpus>:
 80063f8:	4770      	bx	lr
 80063fa:	bf00      	nop

080063fc <system__bb__threads__queues__change_priority>:
 80063fc:	6b43      	ldr	r3, [r0, #52]	; 0x34
 80063fe:	428b      	cmp	r3, r1
 8006400:	d02a      	beq.n	8006458 <system__bb__threads__queues__change_priority+0x5c>
 8006402:	b470      	push	{r4, r5, r6}
 8006404:	4e18      	ldr	r6, [pc, #96]	; (8006468 <system__bb__threads__queues__change_priority+0x6c>)
 8006406:	6341      	str	r1, [r0, #52]	; 0x34
 8006408:	6834      	ldr	r4, [r6, #0]
 800640a:	42a0      	cmp	r0, r4
 800640c:	d025      	beq.n	800645a <system__bb__threads__queues__change_priority+0x5e>
 800640e:	b14c      	cbz	r4, 8006424 <system__bb__threads__queues__change_priority+0x28>
 8006410:	6c23      	ldr	r3, [r4, #64]	; 0x40
 8006412:	4298      	cmp	r0, r3
 8006414:	d008      	beq.n	8006428 <system__bb__threads__queues__change_priority+0x2c>
 8006416:	b12b      	cbz	r3, 8006424 <system__bb__threads__queues__change_priority+0x28>
 8006418:	6c1a      	ldr	r2, [r3, #64]	; 0x40
 800641a:	4290      	cmp	r0, r2
 800641c:	d005      	beq.n	800642a <system__bb__threads__queues__change_priority+0x2e>
 800641e:	4613      	mov	r3, r2
 8006420:	2b00      	cmp	r3, #0
 8006422:	d1f9      	bne.n	8006418 <system__bb__threads__queues__change_priority+0x1c>
 8006424:	bc70      	pop	{r4, r5, r6}
 8006426:	4770      	bx	lr
 8006428:	4623      	mov	r3, r4
 800642a:	6c02      	ldr	r2, [r0, #64]	; 0x40
 800642c:	641a      	str	r2, [r3, #64]	; 0x40
 800642e:	6b63      	ldr	r3, [r4, #52]	; 0x34
 8006430:	4299      	cmp	r1, r3
 8006432:	db04      	blt.n	800643e <system__bb__threads__queues__change_priority+0x42>
 8006434:	6404      	str	r4, [r0, #64]	; 0x40
 8006436:	4604      	mov	r4, r0
 8006438:	6034      	str	r4, [r6, #0]
 800643a:	bc70      	pop	{r4, r5, r6}
 800643c:	4770      	bx	lr
 800643e:	4622      	mov	r2, r4
 8006440:	e003      	b.n	800644a <system__bb__threads__queues__change_priority+0x4e>
 8006442:	6b5d      	ldr	r5, [r3, #52]	; 0x34
 8006444:	42a9      	cmp	r1, r5
 8006446:	da03      	bge.n	8006450 <system__bb__threads__queues__change_priority+0x54>
 8006448:	461a      	mov	r2, r3
 800644a:	6c13      	ldr	r3, [r2, #64]	; 0x40
 800644c:	2b00      	cmp	r3, #0
 800644e:	d1f8      	bne.n	8006442 <system__bb__threads__queues__change_priority+0x46>
 8006450:	6403      	str	r3, [r0, #64]	; 0x40
 8006452:	6034      	str	r4, [r6, #0]
 8006454:	6410      	str	r0, [r2, #64]	; 0x40
 8006456:	e7f0      	b.n	800643a <system__bb__threads__queues__change_priority+0x3e>
 8006458:	4770      	bx	lr
 800645a:	6c04      	ldr	r4, [r0, #64]	; 0x40
 800645c:	2c00      	cmp	r4, #0
 800645e:	d0e1      	beq.n	8006424 <system__bb__threads__queues__change_priority+0x28>
 8006460:	6b63      	ldr	r3, [r4, #52]	; 0x34
 8006462:	4299      	cmp	r1, r3
 8006464:	dbe3      	blt.n	800642e <system__bb__threads__queues__change_priority+0x32>
 8006466:	e7dd      	b.n	8006424 <system__bb__threads__queues__change_priority+0x28>
 8006468:	200000e8 	.word	0x200000e8

0800646c <system__bb__threads__queues__insert_alarm>:
 800646c:	e92d 43d0 	stmdb	sp!, {r4, r6, r7, r8, r9, lr}
 8006470:	4606      	mov	r6, r0
 8006472:	4610      	mov	r0, r2
 8006474:	4614      	mov	r4, r2
 8006476:	460f      	mov	r7, r1
 8006478:	f000 fdcc 	bl	8007014 <system__bb__threads__get_cpu>
 800647c:	b240      	sxtb	r0, r0
 800647e:	f100 4380 	add.w	r3, r0, #1073741824	; 0x40000000
 8006482:	3b01      	subs	r3, #1
 8006484:	4a10      	ldr	r2, [pc, #64]	; (80064c8 <system__bb__threads__queues__insert_alarm+0x5c>)
 8006486:	f852 1023 	ldr.w	r1, [r2, r3, lsl #2]
 800648a:	e9c4 6712 	strd	r6, r7, [r4, #72]	; 0x48
 800648e:	b1a9      	cbz	r1, 80064bc <system__bb__threads__queues__insert_alarm+0x50>
 8006490:	e9d1 8912 	ldrd	r8, r9, [r1, #72]	; 0x48
 8006494:	454f      	cmp	r7, r9
 8006496:	bf08      	it	eq
 8006498:	4546      	cmpeq	r6, r8
 800649a:	d207      	bcs.n	80064ac <system__bb__threads__queues__insert_alarm+0x40>
 800649c:	e00e      	b.n	80064bc <system__bb__threads__queues__insert_alarm+0x50>
 800649e:	e9d3 8912 	ldrd	r8, r9, [r3, #72]	; 0x48
 80064a2:	45b9      	cmp	r9, r7
 80064a4:	bf08      	it	eq
 80064a6:	45b0      	cmpeq	r8, r6
 80064a8:	d203      	bcs.n	80064b2 <system__bb__threads__queues__insert_alarm+0x46>
 80064aa:	4619      	mov	r1, r3
 80064ac:	6d0b      	ldr	r3, [r1, #80]	; 0x50
 80064ae:	2b00      	cmp	r3, #0
 80064b0:	d1f5      	bne.n	800649e <system__bb__threads__queues__insert_alarm+0x32>
 80064b2:	2000      	movs	r0, #0
 80064b4:	6523      	str	r3, [r4, #80]	; 0x50
 80064b6:	650c      	str	r4, [r1, #80]	; 0x50
 80064b8:	e8bd 83d0 	ldmia.w	sp!, {r4, r6, r7, r8, r9, pc}
 80064bc:	2001      	movs	r0, #1
 80064be:	6521      	str	r1, [r4, #80]	; 0x50
 80064c0:	f842 4023 	str.w	r4, [r2, r3, lsl #2]
 80064c4:	e8bd 83d0 	ldmia.w	sp!, {r4, r6, r7, r8, r9, pc}
 80064c8:	200000f0 	.word	0x200000f0

080064cc <system__bb__threads__queues__wakeup_expired_alarms>:
 80064cc:	e92d 47f0 	stmdb	sp!, {r4, r5, r6, r7, r8, r9, sl, lr}
 80064d0:	f8df a0ec 	ldr.w	sl, [pc, #236]	; 80065c0 <system__bb__threads__queues__wakeup_expired_alarms+0xf4>
 80064d4:	f8df 90e4 	ldr.w	r9, [pc, #228]	; 80065bc <system__bb__threads__queues__wakeup_expired_alarms+0xf0>
 80064d8:	4604      	mov	r4, r0
 80064da:	460d      	mov	r5, r1
 80064dc:	f04f 36ff 	mov.w	r6, #4294967295
 80064e0:	f04f 37ff 	mov.w	r7, #4294967295
 80064e4:	f8da 8000 	ldr.w	r8, [sl]
 80064e8:	f1b8 0f00 	cmp.w	r8, #0
 80064ec:	d040      	beq.n	8006570 <system__bb__threads__queues__wakeup_expired_alarms+0xa4>
 80064ee:	e9d8 2312 	ldrd	r2, r3, [r8, #72]	; 0x48
 80064f2:	429d      	cmp	r5, r3
 80064f4:	bf08      	it	eq
 80064f6:	4294      	cmpeq	r4, r2
 80064f8:	d342      	bcc.n	8006580 <system__bb__threads__queues__wakeup_expired_alarms+0xb4>
 80064fa:	2200      	movs	r2, #0
 80064fc:	f8d8 3050 	ldr.w	r3, [r8, #80]	; 0x50
 8006500:	f888 2054 	strb.w	r2, [r8, #84]	; 0x54
 8006504:	f8c8 2050 	str.w	r2, [r8, #80]	; 0x50
 8006508:	e9c8 6712 	strd	r6, r7, [r8, #72]	; 0x48
 800650c:	4640      	mov	r0, r8
 800650e:	f8ca 3000 	str.w	r3, [sl]
 8006512:	f000 fd7f 	bl	8007014 <system__bb__threads__get_cpu>
 8006516:	b240      	sxtb	r0, r0
 8006518:	f100 4080 	add.w	r0, r0, #1073741824	; 0x40000000
 800651c:	3801      	subs	r0, #1
 800651e:	4b27      	ldr	r3, [pc, #156]	; (80065bc <system__bb__threads__queues__wakeup_expired_alarms+0xf0>)
 8006520:	f859 2020 	ldr.w	r2, [r9, r0, lsl #2]
 8006524:	4590      	cmp	r8, r2
 8006526:	d0dd      	beq.n	80064e4 <system__bb__threads__queues__wakeup_expired_alarms+0x18>
 8006528:	f853 2020 	ldr.w	r2, [r3, r0, lsl #2]
 800652c:	b37a      	cbz	r2, 800658e <system__bb__threads__queues__wakeup_expired_alarms+0xc2>
 800652e:	f8d8 1034 	ldr.w	r1, [r8, #52]	; 0x34
 8006532:	f853 2020 	ldr.w	r2, [r3, r0, lsl #2]
 8006536:	6b52      	ldr	r2, [r2, #52]	; 0x34
 8006538:	4291      	cmp	r1, r2
 800653a:	dc28      	bgt.n	800658e <system__bb__threads__queues__wakeup_expired_alarms+0xc2>
 800653c:	f853 2020 	ldr.w	r2, [r3, r0, lsl #2]
 8006540:	e007      	b.n	8006552 <system__bb__threads__queues__wakeup_expired_alarms+0x86>
 8006542:	4543      	cmp	r3, r8
 8006544:	d02a      	beq.n	800659c <system__bb__threads__queues__wakeup_expired_alarms+0xd0>
 8006546:	6b58      	ldr	r0, [r3, #52]	; 0x34
 8006548:	f8d8 1034 	ldr.w	r1, [r8, #52]	; 0x34
 800654c:	4288      	cmp	r0, r1
 800654e:	db03      	blt.n	8006558 <system__bb__threads__queues__wakeup_expired_alarms+0x8c>
 8006550:	461a      	mov	r2, r3
 8006552:	6c13      	ldr	r3, [r2, #64]	; 0x40
 8006554:	2b00      	cmp	r3, #0
 8006556:	d1f4      	bne.n	8006542 <system__bb__threads__queues__wakeup_expired_alarms+0x76>
 8006558:	4543      	cmp	r3, r8
 800655a:	d01f      	beq.n	800659c <system__bb__threads__queues__wakeup_expired_alarms+0xd0>
 800655c:	6c13      	ldr	r3, [r2, #64]	; 0x40
 800655e:	f8c8 3040 	str.w	r3, [r8, #64]	; 0x40
 8006562:	f8c2 8040 	str.w	r8, [r2, #64]	; 0x40
 8006566:	f8da 8000 	ldr.w	r8, [sl]
 800656a:	f1b8 0f00 	cmp.w	r8, #0
 800656e:	d1be      	bne.n	80064ee <system__bb__threads__queues__wakeup_expired_alarms+0x22>
 8006570:	f04f 33ff 	mov.w	r3, #4294967295
 8006574:	f04f 32ff 	mov.w	r2, #4294967295
 8006578:	429d      	cmp	r5, r3
 800657a:	bf08      	it	eq
 800657c:	4294      	cmpeq	r4, r2
 800657e:	d2bc      	bcs.n	80064fa <system__bb__threads__queues__wakeup_expired_alarms+0x2e>
 8006580:	2001      	movs	r0, #1
 8006582:	f000 f841 	bl	8006608 <system__bb__time__get_next_timeout>
 8006586:	e8bd 47f0 	ldmia.w	sp!, {r4, r5, r6, r7, r8, r9, sl, lr}
 800658a:	f000 b8b7 	b.w	80066fc <system__bb__time__update_alarm>
 800658e:	f853 2020 	ldr.w	r2, [r3, r0, lsl #2]
 8006592:	f8c8 2040 	str.w	r2, [r8, #64]	; 0x40
 8006596:	f843 8020 	str.w	r8, [r3, r0, lsl #2]
 800659a:	e7a3      	b.n	80064e4 <system__bb__threads__queues__wakeup_expired_alarms+0x18>
 800659c:	f8d8 3040 	ldr.w	r3, [r8, #64]	; 0x40
 80065a0:	6413      	str	r3, [r2, #64]	; 0x40
 80065a2:	4611      	mov	r1, r2
 80065a4:	e005      	b.n	80065b2 <system__bb__threads__queues__wakeup_expired_alarms+0xe6>
 80065a6:	6b58      	ldr	r0, [r3, #52]	; 0x34
 80065a8:	f8d8 2034 	ldr.w	r2, [r8, #52]	; 0x34
 80065ac:	4290      	cmp	r0, r2
 80065ae:	db03      	blt.n	80065b8 <system__bb__threads__queues__wakeup_expired_alarms+0xec>
 80065b0:	4619      	mov	r1, r3
 80065b2:	6c0b      	ldr	r3, [r1, #64]	; 0x40
 80065b4:	2b00      	cmp	r3, #0
 80065b6:	d1f6      	bne.n	80065a6 <system__bb__threads__queues__wakeup_expired_alarms+0xda>
 80065b8:	460a      	mov	r2, r1
 80065ba:	e7cf      	b.n	800655c <system__bb__threads__queues__wakeup_expired_alarms+0x90>
 80065bc:	200000e8 	.word	0x200000e8
 80065c0:	200000f0 	.word	0x200000f0

080065c4 <system__bb__threads__queues__yield>:
 80065c4:	b538      	push	{r3, r4, r5, lr}
 80065c6:	4605      	mov	r5, r0
 80065c8:	f000 fd24 	bl	8007014 <system__bb__threads__get_cpu>
 80065cc:	6c2a      	ldr	r2, [r5, #64]	; 0x40
 80065ce:	6b6c      	ldr	r4, [r5, #52]	; 0x34
 80065d0:	b112      	cbz	r2, 80065d8 <system__bb__threads__queues__yield+0x14>
 80065d2:	6b53      	ldr	r3, [r2, #52]	; 0x34
 80065d4:	429c      	cmp	r4, r3
 80065d6:	d000      	beq.n	80065da <system__bb__threads__queues__yield+0x16>
 80065d8:	bd38      	pop	{r3, r4, r5, pc}
 80065da:	b243      	sxtb	r3, r0
 80065dc:	f103 4380 	add.w	r3, r3, #1073741824	; 0x40000000
 80065e0:	3b01      	subs	r3, #1
 80065e2:	4908      	ldr	r1, [pc, #32]	; (8006604 <system__bb__threads__queues__yield+0x40>)
 80065e4:	f841 2023 	str.w	r2, [r1, r3, lsl #2]
 80065e8:	f851 2023 	ldr.w	r2, [r1, r3, lsl #2]
 80065ec:	e003      	b.n	80065f6 <system__bb__threads__queues__yield+0x32>
 80065ee:	6b59      	ldr	r1, [r3, #52]	; 0x34
 80065f0:	428c      	cmp	r4, r1
 80065f2:	d103      	bne.n	80065fc <system__bb__threads__queues__yield+0x38>
 80065f4:	461a      	mov	r2, r3
 80065f6:	6c13      	ldr	r3, [r2, #64]	; 0x40
 80065f8:	2b00      	cmp	r3, #0
 80065fa:	d1f8      	bne.n	80065ee <system__bb__threads__queues__yield+0x2a>
 80065fc:	642b      	str	r3, [r5, #64]	; 0x40
 80065fe:	6415      	str	r5, [r2, #64]	; 0x40
 8006600:	bd38      	pop	{r3, r4, r5, pc}
 8006602:	bf00      	nop
 8006604:	200000e8 	.word	0x200000e8

08006608 <system__bb__time__get_next_timeout>:
 8006608:	b430      	push	{r4, r5}
 800660a:	b240      	sxtb	r0, r0
 800660c:	f100 4080 	add.w	r0, r0, #1073741824	; 0x40000000
 8006610:	3801      	subs	r0, #1
 8006612:	4b11      	ldr	r3, [pc, #68]	; (8006658 <system__bb__time__get_next_timeout+0x50>)
 8006614:	f853 3020 	ldr.w	r3, [r3, r0, lsl #2]
 8006618:	b18b      	cbz	r3, 800663e <system__bb__time__get_next_timeout+0x36>
 800661a:	e9d3 4512 	ldrd	r4, r5, [r3, #72]	; 0x48
 800661e:	4b0f      	ldr	r3, [pc, #60]	; (800665c <system__bb__time__get_next_timeout+0x54>)
 8006620:	f853 3020 	ldr.w	r3, [r3, r0, lsl #2]
 8006624:	b1a3      	cbz	r3, 8006650 <system__bb__time__get_next_timeout+0x48>
 8006626:	689a      	ldr	r2, [r3, #8]
 8006628:	68db      	ldr	r3, [r3, #12]
 800662a:	429d      	cmp	r5, r3
 800662c:	bf08      	it	eq
 800662e:	4294      	cmpeq	r4, r2
 8006630:	4610      	mov	r0, r2
 8006632:	4619      	mov	r1, r3
 8006634:	bf3c      	itt	cc
 8006636:	4620      	movcc	r0, r4
 8006638:	4629      	movcc	r1, r5
 800663a:	bc30      	pop	{r4, r5}
 800663c:	4770      	bx	lr
 800663e:	4b07      	ldr	r3, [pc, #28]	; (800665c <system__bb__time__get_next_timeout+0x54>)
 8006640:	f853 3020 	ldr.w	r3, [r3, r0, lsl #2]
 8006644:	f04f 34ff 	mov.w	r4, #4294967295
 8006648:	f04f 35ff 	mov.w	r5, #4294967295
 800664c:	2b00      	cmp	r3, #0
 800664e:	d1ea      	bne.n	8006626 <system__bb__time__get_next_timeout+0x1e>
 8006650:	f04f 32ff 	mov.w	r2, #4294967295
 8006654:	4613      	mov	r3, r2
 8006656:	e7e8      	b.n	800662a <system__bb__time__get_next_timeout+0x22>
 8006658:	200000f0 	.word	0x200000f0
 800665c:	200000dc 	.word	0x200000dc

08006660 <system__bb__time__initialize_timers>:
 8006660:	e92d 4ff8 	stmdb	sp!, {r3, r4, r5, r6, r7, r8, r9, sl, fp, lr}
 8006664:	4b1e      	ldr	r3, [pc, #120]	; (80066e0 <system__bb__time__initialize_timers+0x80>)
 8006666:	4a1f      	ldr	r2, [pc, #124]	; (80066e4 <system__bb__time__initialize_timers+0x84>)
 8006668:	4f1f      	ldr	r7, [pc, #124]	; (80066e8 <system__bb__time__initialize_timers+0x88>)
 800666a:	f8df a08c 	ldr.w	sl, [pc, #140]	; 80066f8 <system__bb__time__initialize_timers+0x98>
 800666e:	605a      	str	r2, [r3, #4]
 8006670:	481e      	ldr	r0, [pc, #120]	; (80066ec <system__bb__time__initialize_timers+0x8c>)
 8006672:	4d1f      	ldr	r5, [pc, #124]	; (80066f0 <system__bb__time__initialize_timers+0x90>)
 8006674:	2101      	movs	r1, #1
 8006676:	22ff      	movs	r2, #255	; 0xff
 8006678:	f04f 0b00 	mov.w	fp, #0
 800667c:	e9c7 ab00 	strd	sl, fp, [r7]
 8006680:	f000 f9e8 	bl	8006a54 <system__bb__board_support__install_interrupt_handler>
 8006684:	f000 f95c 	bl	8006940 <system__bb__board_support__read_clock>
 8006688:	2400      	movs	r4, #0
 800668a:	6068      	str	r0, [r5, #4]
 800668c:	682e      	ldr	r6, [r5, #0]
 800668e:	f8d5 8004 	ldr.w	r8, [r5, #4]
 8006692:	f000 f955 	bl	8006940 <system__bb__board_support__read_clock>
 8006696:	682b      	ldr	r3, [r5, #0]
 8006698:	429e      	cmp	r6, r3
 800669a:	ebc9 0206 	rsb	r2, r9, r6
 800669e:	f104 0401 	add.w	r4, r4, #1
 80066a2:	d014      	beq.n	80066ce <system__bb__time__initialize_timers+0x6e>
 80066a4:	2c01      	cmp	r4, #1
 80066a6:	d010      	beq.n	80066ca <system__bb__time__initialize_timers+0x6a>
 80066a8:	2a01      	cmp	r2, #1
 80066aa:	d801      	bhi.n	80066b0 <system__bb__time__initialize_timers+0x50>
 80066ac:	2c03      	cmp	r4, #3
 80066ae:	d1ed      	bne.n	800668c <system__bb__time__initialize_timers+0x2c>
 80066b0:	2200      	movs	r2, #0
 80066b2:	4633      	mov	r3, r6
 80066b4:	e9d7 0100 	ldrd	r0, r1, [r7]
 80066b8:	4c0e      	ldr	r4, [pc, #56]	; (80066f4 <system__bb__time__initialize_timers+0x94>)
 80066ba:	1812      	adds	r2, r2, r0
 80066bc:	414b      	adcs	r3, r1
 80066be:	e9c4 2300 	strd	r2, r3, [r4]
 80066c2:	e8bd 4ff8 	ldmia.w	sp!, {r3, r4, r5, r6, r7, r8, r9, sl, fp, lr}
 80066c6:	f000 b959 	b.w	800697c <system__bb__board_support__set_alarm>
 80066ca:	46b1      	mov	r9, r6
 80066cc:	e7de      	b.n	800668c <system__bb__time__initialize_timers+0x2c>
 80066ce:	2200      	movs	r2, #0
 80066d0:	4580      	cmp	r8, r0
 80066d2:	bf94      	ite	ls
 80066d4:	4633      	movls	r3, r6
 80066d6:	1c73      	addhi	r3, r6, #1
 80066d8:	1812      	adds	r2, r2, r0
 80066da:	f143 0300 	adc.w	r3, r3, #0
 80066de:	e7e9      	b.n	80066b4 <system__bb__time__initialize_timers+0x54>
 80066e0:	20003c68 	.word	0x20003c68
 80066e4:	080068ad 	.word	0x080068ad
 80066e8:	20000108 	.word	0x20000108
 80066ec:	08006f01 	.word	0x08006f01
 80066f0:	20000100 	.word	0x20000100
 80066f4:	200000f8 	.word	0x200000f8
 80066f8:	dffffff9 	.word	0xdffffff9

080066fc <system__bb__time__update_alarm>:
 80066fc:	e92d 47f0 	stmdb	sp!, {r4, r5, r6, r7, r8, r9, sl, lr}
 8006700:	4e20      	ldr	r6, [pc, #128]	; (8006784 <system__bb__time__update_alarm+0x88>)
 8006702:	4680      	mov	r8, r0
 8006704:	4689      	mov	r9, r1
 8006706:	2400      	movs	r4, #0
 8006708:	6835      	ldr	r5, [r6, #0]
 800670a:	6877      	ldr	r7, [r6, #4]
 800670c:	f000 f918 	bl	8006940 <system__bb__board_support__read_clock>
 8006710:	6833      	ldr	r3, [r6, #0]
 8006712:	429d      	cmp	r5, r3
 8006714:	ebca 0205 	rsb	r2, sl, r5
 8006718:	f104 0401 	add.w	r4, r4, #1
 800671c:	d029      	beq.n	8006772 <system__bb__time__update_alarm+0x76>
 800671e:	2c01      	cmp	r4, #1
 8006720:	d022      	beq.n	8006768 <system__bb__time__update_alarm+0x6c>
 8006722:	2a01      	cmp	r2, #1
 8006724:	d801      	bhi.n	800672a <system__bb__time__update_alarm+0x2e>
 8006726:	2c03      	cmp	r4, #3
 8006728:	d1ee      	bne.n	8006708 <system__bb__time__update_alarm+0xc>
 800672a:	2200      	movs	r2, #0
 800672c:	462b      	mov	r3, r5
 800672e:	454b      	cmp	r3, r9
 8006730:	bf08      	it	eq
 8006732:	4542      	cmpeq	r2, r8
 8006734:	d21a      	bcs.n	800676c <system__bb__time__update_alarm+0x70>
 8006736:	ebb8 0002 	subs.w	r0, r8, r2
 800673a:	eb69 0103 	sbc.w	r1, r9, r3
 800673e:	4e12      	ldr	r6, [pc, #72]	; (8006788 <system__bb__time__update_alarm+0x8c>)
 8006740:	4c12      	ldr	r4, [pc, #72]	; (800678c <system__bb__time__update_alarm+0x90>)
 8006742:	e9d6 2300 	ldrd	r2, r3, [r6]
 8006746:	4599      	cmp	r9, r3
 8006748:	bf08      	it	eq
 800674a:	4590      	cmpeq	r8, r2
 800674c:	e9d4 4500 	ldrd	r4, r5, [r4]
 8006750:	d208      	bcs.n	8006764 <system__bb__time__update_alarm+0x68>
 8006752:	428d      	cmp	r5, r1
 8006754:	bf08      	it	eq
 8006756:	4284      	cmpeq	r4, r0
 8006758:	bf38      	it	cc
 800675a:	4620      	movcc	r0, r4
 800675c:	f000 f90e 	bl	800697c <system__bb__board_support__set_alarm>
 8006760:	e9c6 8900 	strd	r8, r9, [r6]
 8006764:	e8bd 87f0 	ldmia.w	sp!, {r4, r5, r6, r7, r8, r9, sl, pc}
 8006768:	46aa      	mov	sl, r5
 800676a:	e7cd      	b.n	8006708 <system__bb__time__update_alarm+0xc>
 800676c:	2001      	movs	r0, #1
 800676e:	2100      	movs	r1, #0
 8006770:	e7e5      	b.n	800673e <system__bb__time__update_alarm+0x42>
 8006772:	2200      	movs	r2, #0
 8006774:	4287      	cmp	r7, r0
 8006776:	bf94      	ite	ls
 8006778:	462b      	movls	r3, r5
 800677a:	1c6b      	addhi	r3, r5, #1
 800677c:	1812      	adds	r2, r2, r0
 800677e:	f143 0300 	adc.w	r3, r3, #0
 8006782:	e7d4      	b.n	800672e <system__bb__time__update_alarm+0x32>
 8006784:	20000100 	.word	0x20000100
 8006788:	200000f8 	.word	0x200000f8
 800678c:	20000108 	.word	0x20000108

08006790 <system__bb__time__delay_until>:
 8006790:	e92d 47f0 	stmdb	sp!, {r4, r5, r6, r7, r8, r9, sl, lr}
 8006794:	4680      	mov	r8, r0
 8006796:	4689      	mov	r9, r1
 8006798:	b672      	cpsid	i
 800679a:	4e33      	ldr	r6, [pc, #204]	; (8006868 <system__bb__time__delay_until+0xd8>)
 800679c:	2400      	movs	r4, #0
 800679e:	6835      	ldr	r5, [r6, #0]
 80067a0:	f8d6 a004 	ldr.w	sl, [r6, #4]
 80067a4:	f000 f8cc 	bl	8006940 <system__bb__board_support__read_clock>
 80067a8:	6833      	ldr	r3, [r6, #0]
 80067aa:	429d      	cmp	r5, r3
 80067ac:	eba5 0207 	sub.w	r2, r5, r7
 80067b0:	f104 0401 	add.w	r4, r4, #1
 80067b4:	d045      	beq.n	8006842 <system__bb__time__delay_until+0xb2>
 80067b6:	2c01      	cmp	r4, #1
 80067b8:	d038      	beq.n	800682c <system__bb__time__delay_until+0x9c>
 80067ba:	2a01      	cmp	r2, #1
 80067bc:	d801      	bhi.n	80067c2 <system__bb__time__delay_until+0x32>
 80067be:	2c03      	cmp	r4, #3
 80067c0:	d1ed      	bne.n	800679e <system__bb__time__delay_until+0xe>
 80067c2:	2600      	movs	r6, #0
 80067c4:	462f      	mov	r7, r5
 80067c6:	4b29      	ldr	r3, [pc, #164]	; (800686c <system__bb__time__delay_until+0xdc>)
 80067c8:	454f      	cmp	r7, r9
 80067ca:	bf08      	it	eq
 80067cc:	4546      	cmpeq	r6, r8
 80067ce:	681a      	ldr	r2, [r3, #0]
 80067d0:	d230      	bcs.n	8006834 <system__bb__time__delay_until+0xa4>
 80067d2:	f892 302c 	ldrb.w	r3, [r2, #44]	; 0x2c
 80067d6:	2102      	movs	r1, #2
 80067d8:	f882 1054 	strb.w	r1, [r2, #84]	; 0x54
 80067dc:	b343      	cbz	r3, 8006830 <system__bb__time__delay_until+0xa0>
 80067de:	b25b      	sxtb	r3, r3
 80067e0:	f103 4380 	add.w	r3, r3, #1073741824	; 0x40000000
 80067e4:	3b01      	subs	r3, #1
 80067e6:	4922      	ldr	r1, [pc, #136]	; (8006870 <system__bb__time__delay_until+0xe0>)
 80067e8:	6c10      	ldr	r0, [r2, #64]	; 0x40
 80067ea:	f841 0023 	str.w	r0, [r1, r3, lsl #2]
 80067ee:	2300      	movs	r3, #0
 80067f0:	4640      	mov	r0, r8
 80067f2:	4649      	mov	r1, r9
 80067f4:	6413      	str	r3, [r2, #64]	; 0x40
 80067f6:	f7ff fe39 	bl	800646c <system__bb__threads__queues__insert_alarm>
 80067fa:	b198      	cbz	r0, 8006824 <system__bb__time__delay_until+0x94>
 80067fc:	4b1d      	ldr	r3, [pc, #116]	; (8006874 <system__bb__time__delay_until+0xe4>)
 80067fe:	681b      	ldr	r3, [r3, #0]
 8006800:	b343      	cbz	r3, 8006854 <system__bb__time__delay_until+0xc4>
 8006802:	e9d3 4512 	ldrd	r4, r5, [r3, #72]	; 0x48
 8006806:	4b1c      	ldr	r3, [pc, #112]	; (8006878 <system__bb__time__delay_until+0xe8>)
 8006808:	681b      	ldr	r3, [r3, #0]
 800680a:	b343      	cbz	r3, 800685e <system__bb__time__delay_until+0xce>
 800680c:	689a      	ldr	r2, [r3, #8]
 800680e:	68db      	ldr	r3, [r3, #12]
 8006810:	429d      	cmp	r5, r3
 8006812:	bf08      	it	eq
 8006814:	4294      	cmpeq	r4, r2
 8006816:	4610      	mov	r0, r2
 8006818:	4619      	mov	r1, r3
 800681a:	bf3c      	itt	cc
 800681c:	4620      	movcc	r0, r4
 800681e:	4629      	movcc	r1, r5
 8006820:	f7ff ff6c 	bl	80066fc <system__bb__time__update_alarm>
 8006824:	e8bd 47f0 	ldmia.w	sp!, {r4, r5, r6, r7, r8, r9, sl, lr}
 8006828:	f000 bb40 	b.w	8006eac <system__bb__protection__leave_kernel>
 800682c:	462f      	mov	r7, r5
 800682e:	e7b6      	b.n	800679e <system__bb__time__delay_until+0xe>
 8006830:	2301      	movs	r3, #1
 8006832:	e7d5      	b.n	80067e0 <system__bb__time__delay_until+0x50>
 8006834:	4610      	mov	r0, r2
 8006836:	f7ff fec5 	bl	80065c4 <system__bb__threads__queues__yield>
 800683a:	e8bd 47f0 	ldmia.w	sp!, {r4, r5, r6, r7, r8, r9, sl, lr}
 800683e:	f000 bb35 	b.w	8006eac <system__bb__protection__leave_kernel>
 8006842:	2600      	movs	r6, #0
 8006844:	4582      	cmp	sl, r0
 8006846:	bf94      	ite	ls
 8006848:	462f      	movls	r7, r5
 800684a:	1c6f      	addhi	r7, r5, #1
 800684c:	1836      	adds	r6, r6, r0
 800684e:	f147 0700 	adc.w	r7, r7, #0
 8006852:	e7b8      	b.n	80067c6 <system__bb__time__delay_until+0x36>
 8006854:	f04f 34ff 	mov.w	r4, #4294967295
 8006858:	f04f 35ff 	mov.w	r5, #4294967295
 800685c:	e7d3      	b.n	8006806 <system__bb__time__delay_until+0x76>
 800685e:	f04f 32ff 	mov.w	r2, #4294967295
 8006862:	4613      	mov	r3, r2
 8006864:	e7d4      	b.n	8006810 <system__bb__time__delay_until+0x80>
 8006866:	bf00      	nop
 8006868:	20000100 	.word	0x20000100
 800686c:	200000f4 	.word	0x200000f4
 8006870:	200000e8 	.word	0x200000e8
 8006874:	200000f0 	.word	0x200000f0
 8006878:	200000dc 	.word	0x200000dc

0800687c <system__bb__time__update_clock>:
 800687c:	b570      	push	{r4, r5, r6, lr}
 800687e:	4c0a      	ldr	r4, [pc, #40]	; (80068a8 <system__bb__time__update_clock+0x2c>)
 8006880:	6825      	ldr	r5, [r4, #0]
 8006882:	6866      	ldr	r6, [r4, #4]
 8006884:	f000 f85c 	bl	8006940 <system__bb__board_support__read_clock>
 8006888:	4286      	cmp	r6, r0
 800688a:	d807      	bhi.n	800689c <system__bb__time__update_clock+0x20>
 800688c:	6060      	str	r0, [r4, #4]
 800688e:	2200      	movs	r2, #0
 8006890:	1812      	adds	r2, r2, r0
 8006892:	f145 0300 	adc.w	r3, r5, #0
 8006896:	4610      	mov	r0, r2
 8006898:	4619      	mov	r1, r3
 800689a:	bd70      	pop	{r4, r5, r6, pc}
 800689c:	3501      	adds	r5, #1
 800689e:	2300      	movs	r3, #0
 80068a0:	6023      	str	r3, [r4, #0]
 80068a2:	6060      	str	r0, [r4, #4]
 80068a4:	6025      	str	r5, [r4, #0]
 80068a6:	e7f2      	b.n	800688e <system__bb__time__update_clock+0x12>
 80068a8:	20000100 	.word	0x20000100

080068ac <system__bb__time__alarm_handler>:
 80068ac:	e92d 43f8 	stmdb	sp!, {r3, r4, r5, r6, r7, r8, r9, lr}
 80068b0:	4b1e      	ldr	r3, [pc, #120]	; (800692c <system__bb__time__alarm_handler+0x80>)
 80068b2:	f04f 7200 	mov.w	r2, #33554432	; 0x2000000
 80068b6:	601a      	str	r2, [r3, #0]
 80068b8:	b672      	cpsid	i
 80068ba:	4b1d      	ldr	r3, [pc, #116]	; (8006930 <system__bb__time__alarm_handler+0x84>)
 80068bc:	f04f 37ff 	mov.w	r7, #4294967295
 80068c0:	601f      	str	r7, [r3, #0]
 80068c2:	605f      	str	r7, [r3, #4]
 80068c4:	f7ff ffda 	bl	800687c <system__bb__time__update_clock>
 80068c8:	4b1a      	ldr	r3, [pc, #104]	; (8006934 <system__bb__time__alarm_handler+0x88>)
 80068ca:	e9d3 4500 	ldrd	r4, r5, [r3]
 80068ce:	4680      	mov	r8, r0
 80068d0:	1824      	adds	r4, r4, r0
 80068d2:	4689      	mov	r9, r1
 80068d4:	414d      	adcs	r5, r1
 80068d6:	f7ff fcdf 	bl	8006298 <system__bb__timing_events__execute_expired_timing_events>
 80068da:	4640      	mov	r0, r8
 80068dc:	4649      	mov	r1, r9
 80068de:	f7ff fdf5 	bl	80064cc <system__bb__threads__queues__wakeup_expired_alarms>
 80068e2:	4b15      	ldr	r3, [pc, #84]	; (8006938 <system__bb__time__alarm_handler+0x8c>)
 80068e4:	681b      	ldr	r3, [r3, #0]
 80068e6:	463e      	mov	r6, r7
 80068e8:	b10b      	cbz	r3, 80068ee <system__bb__time__alarm_handler+0x42>
 80068ea:	6c9f      	ldr	r7, [r3, #72]	; 0x48
 80068ec:	6cde      	ldr	r6, [r3, #76]	; 0x4c
 80068ee:	4b13      	ldr	r3, [pc, #76]	; (800693c <system__bb__time__alarm_handler+0x90>)
 80068f0:	681b      	ldr	r3, [r3, #0]
 80068f2:	b1b3      	cbz	r3, 8006922 <system__bb__time__alarm_handler+0x76>
 80068f4:	e9d3 2302 	ldrd	r2, r3, [r3, #8]
 80068f8:	42b5      	cmp	r5, r6
 80068fa:	bf08      	it	eq
 80068fc:	42bc      	cmpeq	r4, r7
 80068fe:	4631      	mov	r1, r6
 8006900:	bf38      	it	cc
 8006902:	4629      	movcc	r1, r5
 8006904:	4638      	mov	r0, r7
 8006906:	bf38      	it	cc
 8006908:	4620      	movcc	r0, r4
 800690a:	428b      	cmp	r3, r1
 800690c:	bf08      	it	eq
 800690e:	4282      	cmpeq	r2, r0
 8006910:	bf3c      	itt	cc
 8006912:	4619      	movcc	r1, r3
 8006914:	4610      	movcc	r0, r2
 8006916:	f7ff fef1 	bl	80066fc <system__bb__time__update_alarm>
 800691a:	e8bd 43f8 	ldmia.w	sp!, {r3, r4, r5, r6, r7, r8, r9, lr}
 800691e:	f000 bac5 	b.w	8006eac <system__bb__protection__leave_kernel>
 8006922:	f04f 32ff 	mov.w	r2, #4294967295
 8006926:	f04f 33ff 	mov.w	r3, #4294967295
 800692a:	e7e5      	b.n	80068f8 <system__bb__time__alarm_handler+0x4c>
 800692c:	e000ed04 	.word	0xe000ed04
 8006930:	200000f8 	.word	0x200000f8
 8006934:	20000108 	.word	0x20000108
 8006938:	200000f0 	.word	0x200000f0
 800693c:	200000dc 	.word	0x200000dc

08006940 <system__bb__board_support__read_clock>:
 8006940:	f3ef 8210 	mrs	r2, PRIMASK
 8006944:	2301      	movs	r3, #1
 8006946:	f383 8810 	msr	PRIMASK, r3
 800694a:	4b0a      	ldr	r3, [pc, #40]	; (8006974 <system__bb__board_support__read_clock+0x34>)
 800694c:	6898      	ldr	r0, [r3, #8]
 800694e:	681b      	ldr	r3, [r3, #0]
 8006950:	03db      	lsls	r3, r3, #15
 8006952:	d405      	bmi.n	8006960 <system__bb__board_support__read_clock+0x20>
 8006954:	4b08      	ldr	r3, [pc, #32]	; (8006978 <system__bb__board_support__read_clock+0x38>)
 8006956:	681b      	ldr	r3, [r3, #0]
 8006958:	1a18      	subs	r0, r3, r0
 800695a:	f382 8810 	msr	PRIMASK, r2
 800695e:	4770      	bx	lr
 8006960:	4905      	ldr	r1, [pc, #20]	; (8006978 <system__bb__board_support__read_clock+0x38>)
 8006962:	6808      	ldr	r0, [r1, #0]
 8006964:	680b      	ldr	r3, [r1, #0]
 8006966:	f503 339c 	add.w	r3, r3, #79872	; 0x13800
 800696a:	3380      	adds	r3, #128	; 0x80
 800696c:	600b      	str	r3, [r1, #0]
 800696e:	f382 8810 	msr	PRIMASK, r2
 8006972:	4770      	bx	lr
 8006974:	e000e010 	.word	0xe000e010
 8006978:	20000758 	.word	0x20000758

0800697c <system__bb__board_support__set_alarm>:
 800697c:	b510      	push	{r4, lr}
 800697e:	4604      	mov	r4, r0
 8006980:	f7ff ffde 	bl	8006940 <system__bb__board_support__read_clock>
 8006984:	f06f 4300 	mvn.w	r3, #2147483648	; 0x80000000
 8006988:	4a05      	ldr	r2, [pc, #20]	; (80069a0 <system__bb__board_support__set_alarm+0x24>)
 800698a:	429c      	cmp	r4, r3
 800698c:	bf94      	ite	ls
 800698e:	1900      	addls	r0, r0, r4
 8006990:	18c0      	addhi	r0, r0, r3
 8006992:	6010      	str	r0, [r2, #0]
 8006994:	b91c      	cbnz	r4, 800699e <system__bb__board_support__set_alarm+0x22>
 8006996:	4b03      	ldr	r3, [pc, #12]	; (80069a4 <system__bb__board_support__set_alarm+0x28>)
 8006998:	f04f 6280 	mov.w	r2, #67108864	; 0x4000000
 800699c:	601a      	str	r2, [r3, #0]
 800699e:	bd10      	pop	{r4, pc}
 80069a0:	20000754 	.word	0x20000754
 80069a4:	e000ed04 	.word	0xe000ed04

080069a8 <system__bb__board_support__initialize_board>:
 80069a8:	b570      	push	{r4, r5, r6, lr}
 80069aa:	b672      	cpsid	i
 80069ac:	4b0d      	ldr	r3, [pc, #52]	; (80069e4 <system__bb__board_support__initialize_board+0x3c>)
 80069ae:	4a0e      	ldr	r2, [pc, #56]	; (80069e8 <system__bb__board_support__initialize_board+0x40>)
 80069b0:	4e0e      	ldr	r6, [pc, #56]	; (80069ec <system__bb__board_support__initialize_board+0x44>)
 80069b2:	490f      	ldr	r1, [pc, #60]	; (80069f0 <system__bb__board_support__initialize_board+0x48>)
 80069b4:	2004      	movs	r0, #4
 80069b6:	2400      	movs	r4, #0
 80069b8:	2505      	movs	r5, #5
 80069ba:	6018      	str	r0, [r3, #0]
 80069bc:	605e      	str	r6, [r3, #4]
 80069be:	f04f 30ff 	mov.w	r0, #4294967295
 80069c2:	609c      	str	r4, [r3, #8]
 80069c4:	601d      	str	r5, [r3, #0]
 80069c6:	6011      	str	r1, [r2, #0]
 80069c8:	f7ff ffd8 	bl	800697c <system__bb__board_support__set_alarm>
 80069cc:	4b09      	ldr	r3, [pc, #36]	; (80069f4 <system__bb__board_support__initialize_board+0x4c>)
 80069ce:	f04f 7200 	mov.w	r2, #33554432	; 0x2000000
 80069d2:	601a      	str	r2, [r3, #0]
 80069d4:	f384 8811 	msr	BASEPRI, r4
 80069d8:	b662      	cpsie	i
 80069da:	f3bf 8f4f 	dsb	sy
 80069de:	f3bf 8f6f 	isb	sy
 80069e2:	bd70      	pop	{r4, r5, r6, pc}
 80069e4:	e000e010 	.word	0xe000e010
 80069e8:	20000758 	.word	0x20000758
 80069ec:	0001387f 	.word	0x0001387f
 80069f0:	00013880 	.word	0x00013880
 80069f4:	e000ed04 	.word	0xe000ed04

080069f8 <system__bb__board_support__enable_interrupt_request>:
 80069f8:	2801      	cmp	r0, #1
 80069fa:	d013      	beq.n	8006a24 <system__bb__board_support__enable_interrupt_request+0x2c>
 80069fc:	4b11      	ldr	r3, [pc, #68]	; (8006a44 <system__bb__board_support__enable_interrupt_request+0x4c>)
 80069fe:	1e81      	subs	r1, r0, #2
 8006a00:	2900      	cmp	r1, #0
 8006a02:	ea03 0301 	and.w	r3, r3, r1
 8006a06:	460a      	mov	r2, r1
 8006a08:	bfb8      	it	lt
 8006a0a:	f100 021d 	addlt.w	r2, r0, #29
 8006a0e:	2b00      	cmp	r3, #0
 8006a10:	ea4f 1262 	mov.w	r2, r2, asr #5
 8006a14:	db10      	blt.n	8006a38 <system__bb__board_support__enable_interrupt_request+0x40>
 8006a16:	2101      	movs	r1, #1
 8006a18:	480b      	ldr	r0, [pc, #44]	; (8006a48 <system__bb__board_support__enable_interrupt_request+0x50>)
 8006a1a:	fa01 f303 	lsl.w	r3, r1, r3
 8006a1e:	f840 3022 	str.w	r3, [r0, r2, lsl #2]
 8006a22:	4770      	bx	lr
 8006a24:	4b09      	ldr	r3, [pc, #36]	; (8006a4c <system__bb__board_support__enable_interrupt_request+0x54>)
 8006a26:	4a0a      	ldr	r2, [pc, #40]	; (8006a50 <system__bb__board_support__enable_interrupt_request+0x58>)
 8006a28:	f04f 7100 	mov.w	r1, #33554432	; 0x2000000
 8006a2c:	6019      	str	r1, [r3, #0]
 8006a2e:	6813      	ldr	r3, [r2, #0]
 8006a30:	f043 0302 	orr.w	r3, r3, #2
 8006a34:	6013      	str	r3, [r2, #0]
 8006a36:	4770      	bx	lr
 8006a38:	3b01      	subs	r3, #1
 8006a3a:	f063 031f 	orn	r3, r3, #31
 8006a3e:	3301      	adds	r3, #1
 8006a40:	e7e9      	b.n	8006a16 <system__bb__board_support__enable_interrupt_request+0x1e>
 8006a42:	bf00      	nop
 8006a44:	8000001f 	.word	0x8000001f
 8006a48:	e000e100 	.word	0xe000e100
 8006a4c:	e000ed04 	.word	0xe000ed04
 8006a50:	e000e010 	.word	0xe000e010

08006a54 <system__bb__board_support__install_interrupt_handler>:
 8006a54:	b570      	push	{r4, r5, r6, lr}
 8006a56:	2901      	cmp	r1, #1
 8006a58:	460c      	mov	r4, r1
 8006a5a:	4615      	mov	r5, r2
 8006a5c:	d018      	beq.n	8006a90 <system__bb__board_support__install_interrupt_handler+0x3c>
 8006a5e:	f1a5 03f1 	sub.w	r3, r5, #241	; 0xf1
 8006a62:	2b0e      	cmp	r3, #14
 8006a64:	bf98      	it	ls
 8006a66:	ebc5 1305 	rsbls	r3, r5, r5, lsl #4
 8006a6a:	f1a1 0102 	sub.w	r1, r1, #2
 8006a6e:	bf98      	it	ls
 8006a70:	011b      	lslls	r3, r3, #4
 8006a72:	4e0a      	ldr	r6, [pc, #40]	; (8006a9c <system__bb__board_support__install_interrupt_handler+0x48>)
 8006a74:	bf94      	ite	ls
 8006a76:	b2db      	uxtbls	r3, r3
 8006a78:	2300      	movhi	r3, #0
 8006a7a:	5473      	strb	r3, [r6, r1]
 8006a7c:	2200      	movs	r2, #0
 8006a7e:	2110      	movs	r1, #16
 8006a80:	f000 f996 	bl	8006db0 <system__bb__cpu_primitives__install_trap_handler>
 8006a84:	4620      	mov	r0, r4
 8006a86:	4629      	mov	r1, r5
 8006a88:	e8bd 4070 	ldmia.w	sp!, {r4, r5, r6, lr}
 8006a8c:	f7ff bfb4 	b.w	80069f8 <system__bb__board_support__enable_interrupt_request>
 8006a90:	210f      	movs	r1, #15
 8006a92:	2200      	movs	r2, #0
 8006a94:	f000 f98c 	bl	8006db0 <system__bb__cpu_primitives__install_trap_handler>
 8006a98:	e7f4      	b.n	8006a84 <system__bb__board_support__install_interrupt_handler+0x30>
 8006a9a:	bf00      	nop
 8006a9c:	e000e400 	.word	0xe000e400

08006aa0 <__gnat_get_secondary_stack>:
 8006aa0:	4b02      	ldr	r3, [pc, #8]	; (8006aac <__gnat_get_secondary_stack+0xc>)
 8006aa2:	681b      	ldr	r3, [r3, #0]
 8006aa4:	6a9b      	ldr	r3, [r3, #40]	; 0x28
 8006aa6:	f8d3 0098 	ldr.w	r0, [r3, #152]	; 0x98
 8006aaa:	4770      	bx	lr
 8006aac:	200000f4 	.word	0x200000f4

08006ab0 <system__tasking__initialize_atcb>:
 8006ab0:	b5f8      	push	{r3, r4, r5, r6, r7, lr}
 8006ab2:	9c09      	ldr	r4, [sp, #36]	; 0x24
 8006ab4:	f89d 7018 	ldrb.w	r7, [sp, #24]
 8006ab8:	9e07      	ldr	r6, [sp, #28]
 8006aba:	2500      	movs	r5, #0
 8006abc:	7225      	strb	r5, [r4, #8]
 8006abe:	7263      	strb	r3, [r4, #9]
 8006ac0:	60e2      	str	r2, [r4, #12]
 8006ac2:	6125      	str	r5, [r4, #16]
 8006ac4:	f8c4 008c 	str.w	r0, [r4, #140]	; 0x8c
 8006ac8:	f8c4 1088 	str.w	r1, [r4, #136]	; 0x88
 8006acc:	f884 7248 	strb.w	r7, [r4, #584]	; 0x248
 8006ad0:	f8c4 6090 	str.w	r6, [r4, #144]	; 0x90
 8006ad4:	9808      	ldr	r0, [sp, #32]
 8006ad6:	f002 fedb 	bl	8009890 <system__parameters__adjust_storage_size>
 8006ada:	2301      	movs	r3, #1
 8006adc:	f8c4 0094 	str.w	r0, [r4, #148]	; 0x94
 8006ae0:	4618      	mov	r0, r3
 8006ae2:	bdf8      	pop	{r3, r4, r5, r6, r7, pc}

08006ae4 <system__tasking__initialize>:
 8006ae4:	4b3d      	ldr	r3, [pc, #244]	; (8006bdc <system__tasking__initialize+0xf8>)
 8006ae6:	781a      	ldrb	r2, [r3, #0]
 8006ae8:	2a00      	cmp	r2, #0
 8006aea:	d16d      	bne.n	8006bc8 <system__tasking__initialize+0xe4>
 8006aec:	b5f0      	push	{r4, r5, r6, r7, lr}
 8006aee:	b085      	sub	sp, #20
 8006af0:	4a3b      	ldr	r2, [pc, #236]	; (8006be0 <system__tasking__initialize+0xfc>)
 8006af2:	4c3c      	ldr	r4, [pc, #240]	; (8006be4 <system__tasking__initialize+0x100>)
 8006af4:	6811      	ldr	r1, [r2, #0]
 8006af6:	2001      	movs	r0, #1
 8006af8:	7018      	strb	r0, [r3, #0]
 8006afa:	2500      	movs	r5, #0
 8006afc:	3101      	adds	r1, #1
 8006afe:	f04f 0302 	mov.w	r3, #2
 8006b02:	bf18      	it	ne
 8006b04:	6812      	ldrne	r2, [r2, #0]
 8006b06:	9502      	str	r5, [sp, #8]
 8006b08:	bf08      	it	eq
 8006b0a:	2278      	moveq	r2, #120	; 0x78
 8006b0c:	e88d 0028 	stmia.w	sp, {r3, r5}
 8006b10:	4629      	mov	r1, r5
 8006b12:	2301      	movs	r3, #1
 8006b14:	4628      	mov	r0, r5
 8006b16:	9403      	str	r4, [sp, #12]
 8006b18:	f7ff ffca 	bl	8006ab0 <system__tasking__initialize_atcb>
 8006b1c:	f104 0318 	add.w	r3, r4, #24
 8006b20:	f8c4 3080 	str.w	r3, [r4, #128]	; 0x80
 8006b24:	68e1      	ldr	r1, [r4, #12]
 8006b26:	f8d4 0080 	ldr.w	r0, [r4, #128]	; 0x80
 8006b2a:	f8c4 5244 	str.w	r5, [r4, #580]	; 0x244
 8006b2e:	f000 faff 	bl	8007130 <system__bb__threads__initialize>
 8006b32:	4b2d      	ldr	r3, [pc, #180]	; (8006be8 <system__tasking__initialize+0x104>)
 8006b34:	f8d4 1080 	ldr.w	r1, [r4, #128]	; 0x80
 8006b38:	681a      	ldr	r2, [r3, #0]
 8006b3a:	628c      	str	r4, [r1, #40]	; 0x28
 8006b3c:	f8c4 5084 	str.w	r5, [r4, #132]	; 0x84
 8006b40:	2a00      	cmp	r2, #0
 8006b42:	d042      	beq.n	8006bca <system__tasking__initialize+0xe6>
 8006b44:	f8c2 4244 	str.w	r4, [r2, #580]	; 0x244
 8006b48:	601c      	str	r4, [r3, #0]
 8006b4a:	b672      	cpsid	i
 8006b4c:	4b27      	ldr	r3, [pc, #156]	; (8006bec <system__tasking__initialize+0x108>)
 8006b4e:	68e1      	ldr	r1, [r4, #12]
 8006b50:	6818      	ldr	r0, [r3, #0]
 8006b52:	4e27      	ldr	r6, [pc, #156]	; (8006bf0 <system__tasking__initialize+0x10c>)
 8006b54:	f7ff fc52 	bl	80063fc <system__bb__threads__queues__change_priority>
 8006b58:	f000 f9a8 	bl	8006eac <system__bb__protection__leave_kernel>
 8006b5c:	4925      	ldr	r1, [pc, #148]	; (8006bf4 <system__tasking__initialize+0x110>)
 8006b5e:	4b26      	ldr	r3, [pc, #152]	; (8006bf8 <system__tasking__initialize+0x114>)
 8006b60:	4a26      	ldr	r2, [pc, #152]	; (8006bfc <system__tasking__initialize+0x118>)
 8006b62:	601a      	str	r2, [r3, #0]
 8006b64:	2001      	movs	r0, #1
 8006b66:	4635      	mov	r5, r6
 8006b68:	600c      	str	r4, [r1, #0]
 8006b6a:	f000 f969 	bl	8006e40 <system__task_primitives__operations__initialize_idle>
 8006b6e:	f1a6 0368 	sub.w	r3, r6, #104	; 0x68
 8006b72:	6033      	str	r3, [r6, #0]
 8006b74:	f855 0980 	ldr.w	r0, [r5], #-128
 8006b78:	4921      	ldr	r1, [pc, #132]	; (8006c00 <system__tasking__initialize+0x11c>)
 8006b7a:	f8d5 2090 	ldr.w	r2, [r5, #144]	; 0x90
 8006b7e:	f8d5 3094 	ldr.w	r3, [r5, #148]	; 0x94
 8006b82:	9302      	str	r3, [sp, #8]
 8006b84:	2701      	movs	r7, #1
 8006b86:	9201      	str	r2, [sp, #4]
 8006b88:	f04f 33ff 	mov.w	r3, #4294967295
 8006b8c:	462a      	mov	r2, r5
 8006b8e:	9700      	str	r7, [sp, #0]
 8006b90:	f000 fb5a 	bl	8007248 <system__bb__threads__thread_create>
 8006b94:	6832      	ldr	r2, [r6, #0]
 8006b96:	4b1b      	ldr	r3, [pc, #108]	; (8006c04 <system__tasking__initialize+0x120>)
 8006b98:	6295      	str	r5, [r2, #40]	; 0x28
 8006b9a:	4618      	mov	r0, r3
 8006b9c:	7227      	strb	r7, [r4, #8]
 8006b9e:	f44f 5120 	mov.w	r1, #10240	; 0x2800
 8006ba2:	f8c4 3098 	str.w	r3, [r4, #152]	; 0x98
 8006ba6:	f8c4 4250 	str.w	r4, [r4, #592]	; 0x250
 8006baa:	f002 fb03 	bl	80091b4 <system__secondary_stack__ss_init>
 8006bae:	4916      	ldr	r1, [pc, #88]	; (8006c08 <system__tasking__initialize+0x124>)
 8006bb0:	4b16      	ldr	r3, [pc, #88]	; (8006c0c <system__tasking__initialize+0x128>)
 8006bb2:	6808      	ldr	r0, [r1, #0]
 8006bb4:	2200      	movs	r2, #0
 8006bb6:	3001      	adds	r0, #1
 8006bb8:	601a      	str	r2, [r3, #0]
 8006bba:	605a      	str	r2, [r3, #4]
 8006bbc:	d002      	beq.n	8006bc4 <system__tasking__initialize+0xe0>
 8006bbe:	680b      	ldr	r3, [r1, #0]
 8006bc0:	42bb      	cmp	r3, r7
 8006bc2:	d105      	bne.n	8006bd0 <system__tasking__initialize+0xec>
 8006bc4:	b005      	add	sp, #20
 8006bc6:	bdf0      	pop	{r4, r5, r6, r7, pc}
 8006bc8:	4770      	bx	lr
 8006bca:	4a11      	ldr	r2, [pc, #68]	; (8006c10 <system__tasking__initialize+0x12c>)
 8006bcc:	6014      	str	r4, [r2, #0]
 8006bce:	e7bb      	b.n	8006b48 <system__tasking__initialize+0x64>
 8006bd0:	4a10      	ldr	r2, [pc, #64]	; (8006c14 <system__tasking__initialize+0x130>)
 8006bd2:	4811      	ldr	r0, [pc, #68]	; (8006c18 <system__tasking__initialize+0x134>)
 8006bd4:	f102 033c 	add.w	r3, r2, #60	; 0x3c
 8006bd8:	f002 f9fa 	bl	8008fd0 <__gnat_raise_exception>
 8006bdc:	20000118 	.word	0x20000118
 8006be0:	20000114 	.word	0x20000114
 8006be4:	20000760 	.word	0x20000760
 8006be8:	20000138 	.word	0x20000138
 8006bec:	200000f4 	.word	0x200000f4
 8006bf0:	20003288 	.word	0x20003288
 8006bf4:	20000128 	.word	0x20000128
 8006bf8:	20003204 	.word	0x20003204
 8006bfc:	20003c68 	.word	0x20003c68
 8006c00:	08006e2d 	.word	0x08006e2d
 8006c04:	200009c0 	.word	0x200009c0
 8006c08:	20000124 	.word	0x20000124
 8006c0c:	2000011c 	.word	0x2000011c
 8006c10:	20000134 	.word	0x20000134
 8006c14:	0800d1c8 	.word	0x0800d1c8
 8006c18:	200001ec 	.word	0x200001ec

08006c1c <system__bb__cpu_primitives__gnat_error_handler>:
 8006c1c:	b508      	push	{r3, lr}
 8006c1e:	b240      	sxtb	r0, r0
 8006c20:	3801      	subs	r0, #1
 8006c22:	2805      	cmp	r0, #5
 8006c24:	d822      	bhi.n	8006c6c <system__bb__cpu_primitives__gnat_error_handler+0x50>
 8006c26:	e8df f000 	tbb	[pc, r0]
 8006c2a:	0f09      	.short	0x0f09
 8006c2c:	031b2115 	.word	0x031b2115
 8006c30:	4a11      	ldr	r2, [pc, #68]	; (8006c78 <system__bb__cpu_primitives__gnat_error_handler+0x5c>)
 8006c32:	4812      	ldr	r0, [pc, #72]	; (8006c7c <system__bb__cpu_primitives__gnat_error_handler+0x60>)
 8006c34:	f102 0338 	add.w	r3, r2, #56	; 0x38
 8006c38:	f002 f9ca 	bl	8008fd0 <__gnat_raise_exception>
 8006c3c:	4a10      	ldr	r2, [pc, #64]	; (8006c80 <system__bb__cpu_primitives__gnat_error_handler+0x64>)
 8006c3e:	4811      	ldr	r0, [pc, #68]	; (8006c84 <system__bb__cpu_primitives__gnat_error_handler+0x68>)
 8006c40:	f102 0340 	add.w	r3, r2, #64	; 0x40
 8006c44:	f002 f9c4 	bl	8008fd0 <__gnat_raise_exception>
 8006c48:	4a0f      	ldr	r2, [pc, #60]	; (8006c88 <system__bb__cpu_primitives__gnat_error_handler+0x6c>)
 8006c4a:	480e      	ldr	r0, [pc, #56]	; (8006c84 <system__bb__cpu_primitives__gnat_error_handler+0x68>)
 8006c4c:	f102 0344 	add.w	r3, r2, #68	; 0x44
 8006c50:	f002 f9be 	bl	8008fd0 <__gnat_raise_exception>
 8006c54:	4a0d      	ldr	r2, [pc, #52]	; (8006c8c <system__bb__cpu_primitives__gnat_error_handler+0x70>)
 8006c56:	480b      	ldr	r0, [pc, #44]	; (8006c84 <system__bb__cpu_primitives__gnat_error_handler+0x68>)
 8006c58:	f102 0338 	add.w	r3, r2, #56	; 0x38
 8006c5c:	f002 f9b8 	bl	8008fd0 <__gnat_raise_exception>
 8006c60:	4a0b      	ldr	r2, [pc, #44]	; (8006c90 <system__bb__cpu_primitives__gnat_error_handler+0x74>)
 8006c62:	4808      	ldr	r0, [pc, #32]	; (8006c84 <system__bb__cpu_primitives__gnat_error_handler+0x68>)
 8006c64:	f102 0338 	add.w	r3, r2, #56	; 0x38
 8006c68:	f002 f9b2 	bl	8008fd0 <__gnat_raise_exception>
 8006c6c:	4a09      	ldr	r2, [pc, #36]	; (8006c94 <system__bb__cpu_primitives__gnat_error_handler+0x78>)
 8006c6e:	4805      	ldr	r0, [pc, #20]	; (8006c84 <system__bb__cpu_primitives__gnat_error_handler+0x68>)
 8006c70:	f102 033c 	add.w	r3, r2, #60	; 0x3c
 8006c74:	f002 f9ac 	bl	8008fd0 <__gnat_raise_exception>
 8006c78:	0800d320 	.word	0x0800d320
 8006c7c:	20000270 	.word	0x20000270
 8006c80:	0800d20c 	.word	0x0800d20c
 8006c84:	20000254 	.word	0x20000254
 8006c88:	0800d254 	.word	0x0800d254
 8006c8c:	0800d2a0 	.word	0x0800d2a0
 8006c90:	0800d2e0 	.word	0x0800d2e0
 8006c94:	0800d360 	.word	0x0800d360

08006c98 <__gnat_irq_trap>:
 8006c98:	b508      	push	{r3, lr}
 8006c9a:	4b10      	ldr	r3, [pc, #64]	; (8006cdc <__gnat_irq_trap+0x44>)
 8006c9c:	2010      	movs	r0, #16
 8006c9e:	6c1b      	ldr	r3, [r3, #64]	; 0x40
 8006ca0:	4798      	blx	r3
 8006ca2:	4a0f      	ldr	r2, [pc, #60]	; (8006ce0 <__gnat_irq_trap+0x48>)
 8006ca4:	4b0f      	ldr	r3, [pc, #60]	; (8006ce4 <__gnat_irq_trap+0x4c>)
 8006ca6:	6811      	ldr	r1, [r2, #0]
 8006ca8:	681a      	ldr	r2, [r3, #0]
 8006caa:	4291      	cmp	r1, r2
 8006cac:	d003      	beq.n	8006cb6 <__gnat_irq_trap+0x1e>
 8006cae:	4a0e      	ldr	r2, [pc, #56]	; (8006ce8 <__gnat_irq_trap+0x50>)
 8006cb0:	f04f 5180 	mov.w	r1, #268435456	; 0x10000000
 8006cb4:	6011      	str	r1, [r2, #0]
 8006cb6:	681b      	ldr	r3, [r3, #0]
 8006cb8:	6b5b      	ldr	r3, [r3, #52]	; 0x34
 8006cba:	f1a3 02f1 	sub.w	r2, r3, #241	; 0xf1
 8006cbe:	2a0e      	cmp	r2, #14
 8006cc0:	bf9d      	ittte	ls
 8006cc2:	ebc3 1303 	rsbls	r3, r3, r3, lsl #4
 8006cc6:	011b      	lslls	r3, r3, #4
 8006cc8:	b2db      	uxtbls	r3, r3
 8006cca:	2300      	movhi	r3, #0
 8006ccc:	f383 8811 	msr	BASEPRI, r3
 8006cd0:	b662      	cpsie	i
 8006cd2:	f3bf 8f4f 	dsb	sy
 8006cd6:	f3bf 8f6f 	isb	sy
 8006cda:	bd08      	pop	{r3, pc}
 8006cdc:	200031c0 	.word	0x200031c0
 8006ce0:	200000e8 	.word	0x200000e8
 8006ce4:	200000f4 	.word	0x200000f4
 8006ce8:	e000ed04 	.word	0xe000ed04

08006cec <__gnat_pend_sv_trap>:
 8006cec:	f240 02f4 	movw	r2, #244	; 0xf4
 8006cf0:	f2c2 0200 	movt	r2, #8192	; 0x2000
 8006cf4:	f3ef 8c09 	mrs	ip, PSP
 8006cf8:	6813      	ldr	r3, [r2, #0]
 8006cfa:	f01e 0f10 	tst.w	lr, #16
 8006cfe:	bf06      	itte	eq
 8006d00:	ed2c 8a10 	vstmdbeq	ip!, {s16-s31}
 8006d04:	f10c 0c01 	addeq.w	ip, ip, #1
 8006d08:	f1ae 0e10 	subne.w	lr, lr, #16
 8006d0c:	e883 1ff0 	stmia.w	r3, {r4, r5, r6, r7, r8, r9, sl, fp, ip}
 8006d10:	f240 03e8 	movw	r3, #232	; 0xe8
 8006d14:	f2c2 0300 	movt	r3, #8192	; 0x2000
 8006d18:	681b      	ldr	r3, [r3, #0]
 8006d1a:	6013      	str	r3, [r2, #0]
 8006d1c:	e893 1ff0 	ldmia.w	r3, {r4, r5, r6, r7, r8, r9, sl, fp, ip}
 8006d20:	f01c 0f01 	tst.w	ip, #1
 8006d24:	bf1a      	itte	ne
 8006d26:	f1ac 0c01 	subne.w	ip, ip, #1
 8006d2a:	ecbc 8a10 	vldmiane	ip!, {s16-s31}
 8006d2e:	f10e 0e10 	addeq.w	lr, lr, #16
 8006d32:	f38c 8809 	msr	PSP, ip
 8006d36:	4770      	bx	lr

08006d38 <__gnat_sv_call_trap>:
 8006d38:	b508      	push	{r3, lr}
 8006d3a:	200b      	movs	r0, #11
 8006d3c:	f7ff ff6e 	bl	8006c1c <system__bb__cpu_primitives__gnat_error_handler>

08006d40 <__gnat_sys_tick_trap>:
 8006d40:	b508      	push	{r3, lr}
 8006d42:	f7ff fdfd 	bl	8006940 <system__bb__board_support__read_clock>
 8006d46:	4a15      	ldr	r2, [pc, #84]	; (8006d9c <__gnat_sys_tick_trap+0x5c>)
 8006d48:	6813      	ldr	r3, [r2, #0]
 8006d4a:	1a1b      	subs	r3, r3, r0
 8006d4c:	2b00      	cmp	r3, #0
 8006d4e:	db00      	blt.n	8006d52 <__gnat_sys_tick_trap+0x12>
 8006d50:	bd08      	pop	{r3, pc}
 8006d52:	f100 4000 	add.w	r0, r0, #2147483648	; 0x80000000
 8006d56:	3801      	subs	r0, #1
 8006d58:	4b11      	ldr	r3, [pc, #68]	; (8006da0 <__gnat_sys_tick_trap+0x60>)
 8006d5a:	6010      	str	r0, [r2, #0]
 8006d5c:	6bdb      	ldr	r3, [r3, #60]	; 0x3c
 8006d5e:	200f      	movs	r0, #15
 8006d60:	4798      	blx	r3
 8006d62:	4a10      	ldr	r2, [pc, #64]	; (8006da4 <__gnat_sys_tick_trap+0x64>)
 8006d64:	4b10      	ldr	r3, [pc, #64]	; (8006da8 <__gnat_sys_tick_trap+0x68>)
 8006d66:	6811      	ldr	r1, [r2, #0]
 8006d68:	681a      	ldr	r2, [r3, #0]
 8006d6a:	4291      	cmp	r1, r2
 8006d6c:	d003      	beq.n	8006d76 <__gnat_sys_tick_trap+0x36>
 8006d6e:	4a0f      	ldr	r2, [pc, #60]	; (8006dac <__gnat_sys_tick_trap+0x6c>)
 8006d70:	f04f 5180 	mov.w	r1, #268435456	; 0x10000000
 8006d74:	6011      	str	r1, [r2, #0]
 8006d76:	681b      	ldr	r3, [r3, #0]
 8006d78:	6b5b      	ldr	r3, [r3, #52]	; 0x34
 8006d7a:	f1a3 02f1 	sub.w	r2, r3, #241	; 0xf1
 8006d7e:	2a0e      	cmp	r2, #14
 8006d80:	bf9d      	ittte	ls
 8006d82:	ebc3 1303 	rsbls	r3, r3, r3, lsl #4
 8006d86:	011b      	lslls	r3, r3, #4
 8006d88:	b2db      	uxtbls	r3, r3
 8006d8a:	2300      	movhi	r3, #0
 8006d8c:	f383 8811 	msr	BASEPRI, r3
 8006d90:	b662      	cpsie	i
 8006d92:	f3bf 8f4f 	dsb	sy
 8006d96:	f3bf 8f6f 	isb	sy
 8006d9a:	bd08      	pop	{r3, pc}
 8006d9c:	20000754 	.word	0x20000754
 8006da0:	200031c0 	.word	0x200031c0
 8006da4:	200000e8 	.word	0x200000e8
 8006da8:	200000f4 	.word	0x200000f4
 8006dac:	e000ed04 	.word	0xe000ed04

08006db0 <system__bb__cpu_primitives__install_trap_handler>:
 8006db0:	b249      	sxtb	r1, r1
 8006db2:	4b02      	ldr	r3, [pc, #8]	; (8006dbc <system__bb__cpu_primitives__install_trap_handler+0xc>)
 8006db4:	f843 0021 	str.w	r0, [r3, r1, lsl #2]
 8006db8:	4770      	bx	lr
 8006dba:	bf00      	nop
 8006dbc:	200031c0 	.word	0x200031c0

08006dc0 <ada__real_time__delays__delay_until>:
 8006dc0:	b510      	push	{r4, lr}
 8006dc2:	4b09      	ldr	r3, [pc, #36]	; (8006de8 <ada__real_time__delays__delay_until+0x28>)
 8006dc4:	681a      	ldr	r2, [r3, #0]
 8006dc6:	6a92      	ldr	r2, [r2, #40]	; 0x28
 8006dc8:	6912      	ldr	r2, [r2, #16]
 8006dca:	2a00      	cmp	r2, #0
 8006dcc:	dc08      	bgt.n	8006de0 <ada__real_time__delays__delay_until+0x20>
 8006dce:	681b      	ldr	r3, [r3, #0]
 8006dd0:	6a9c      	ldr	r4, [r3, #40]	; 0x28
 8006dd2:	2307      	movs	r3, #7
 8006dd4:	7223      	strb	r3, [r4, #8]
 8006dd6:	f7ff fcdb 	bl	8006790 <system__bb__time__delay_until>
 8006dda:	2301      	movs	r3, #1
 8006ddc:	7223      	strb	r3, [r4, #8]
 8006dde:	bd10      	pop	{r4, pc}
 8006de0:	4802      	ldr	r0, [pc, #8]	; (8006dec <ada__real_time__delays__delay_until+0x2c>)
 8006de2:	212e      	movs	r1, #46	; 0x2e
 8006de4:	f002 f96e 	bl	80090c4 <__gnat_rcheck_PE_Explicit_Raise>
 8006de8:	200000f4 	.word	0x200000f4
 8006dec:	0800d3a4 	.word	0x0800d3a4

08006df0 <system__task_primitives__operations__enter_task>:
 8006df0:	b508      	push	{r3, lr}
 8006df2:	4b0b      	ldr	r3, [pc, #44]	; (8006e20 <system__task_primitives__operations__enter_task+0x30>)
 8006df4:	681a      	ldr	r2, [r3, #0]
 8006df6:	2100      	movs	r1, #0
 8006df8:	f8c0 1084 	str.w	r1, [r0, #132]	; 0x84
 8006dfc:	b162      	cbz	r2, 8006e18 <system__task_primitives__operations__enter_task+0x28>
 8006dfe:	f8c2 0244 	str.w	r0, [r2, #580]	; 0x244
 8006e02:	6018      	str	r0, [r3, #0]
 8006e04:	68c1      	ldr	r1, [r0, #12]
 8006e06:	b672      	cpsid	i
 8006e08:	4b06      	ldr	r3, [pc, #24]	; (8006e24 <system__task_primitives__operations__enter_task+0x34>)
 8006e0a:	6818      	ldr	r0, [r3, #0]
 8006e0c:	f7ff faf6 	bl	80063fc <system__bb__threads__queues__change_priority>
 8006e10:	e8bd 4008 	ldmia.w	sp!, {r3, lr}
 8006e14:	f000 b84a 	b.w	8006eac <system__bb__protection__leave_kernel>
 8006e18:	4a03      	ldr	r2, [pc, #12]	; (8006e28 <system__task_primitives__operations__enter_task+0x38>)
 8006e1a:	6010      	str	r0, [r2, #0]
 8006e1c:	e7f1      	b.n	8006e02 <system__task_primitives__operations__enter_task+0x12>
 8006e1e:	bf00      	nop
 8006e20:	20000138 	.word	0x20000138
 8006e24:	200000f4 	.word	0x200000f4
 8006e28:	20000134 	.word	0x20000134

08006e2c <system__task_primitives__operations__idle>:
 8006e2c:	b508      	push	{r3, lr}
 8006e2e:	4b03      	ldr	r3, [pc, #12]	; (8006e3c <system__task_primitives__operations__idle+0x10>)
 8006e30:	681b      	ldr	r3, [r3, #0]
 8006e32:	6a98      	ldr	r0, [r3, #40]	; 0x28
 8006e34:	f7ff ffdc 	bl	8006df0 <system__task_primitives__operations__enter_task>
 8006e38:	bf30      	wfi
 8006e3a:	e7fd      	b.n	8006e38 <system__task_primitives__operations__idle+0xc>
 8006e3c:	200000f4 	.word	0x200000f4

08006e40 <system__task_primitives__operations__initialize_idle>:
 8006e40:	b5f0      	push	{r4, r5, r6, r7, lr}
 8006e42:	b085      	sub	sp, #20
 8006e44:	b246      	sxtb	r6, r0
 8006e46:	f44f 7418 	mov.w	r4, #608	; 0x260
 8006e4a:	4914      	ldr	r1, [pc, #80]	; (8006e9c <system__task_primitives__operations__initialize_idle+0x5c>)
 8006e4c:	4d14      	ldr	r5, [pc, #80]	; (8006ea0 <system__task_primitives__operations__initialize_idle+0x60>)
 8006e4e:	4a15      	ldr	r2, [pc, #84]	; (8006ea4 <system__task_primitives__operations__initialize_idle+0x64>)
 8006e50:	fb04 f406 	mul.w	r4, r4, r6
 8006e54:	4431      	add	r1, r6
 8006e56:	f5a4 7618 	sub.w	r6, r4, #608	; 0x260
 8006e5a:	eb02 22c1 	add.w	r2, r2, r1, lsl #11
 8006e5e:	442e      	add	r6, r5
 8006e60:	2702      	movs	r7, #2
 8006e62:	f44f 6100 	mov.w	r1, #2048	; 0x800
 8006e66:	4603      	mov	r3, r0
 8006e68:	9201      	str	r2, [sp, #4]
 8006e6a:	9102      	str	r1, [sp, #8]
 8006e6c:	9603      	str	r6, [sp, #12]
 8006e6e:	9700      	str	r7, [sp, #0]
 8006e70:	2100      	movs	r1, #0
 8006e72:	f04f 32ff 	mov.w	r2, #4294967295
 8006e76:	480c      	ldr	r0, [pc, #48]	; (8006ea8 <system__task_primitives__operations__initialize_idle+0x68>)
 8006e78:	f7ff fe1a 	bl	8006ab0 <system__tasking__initialize_atcb>
 8006e7c:	f5a4 70f0 	sub.w	r0, r4, #480	; 0x1e0
 8006e80:	1929      	adds	r1, r5, r4
 8006e82:	f5a4 7312 	sub.w	r3, r4, #584	; 0x248
 8006e86:	f5a4 7416 	sub.w	r4, r4, #600	; 0x258
 8006e8a:	442b      	add	r3, r5
 8006e8c:	2201      	movs	r2, #1
 8006e8e:	502b      	str	r3, [r5, r0]
 8006e90:	f841 6c10 	str.w	r6, [r1, #-16]
 8006e94:	552a      	strb	r2, [r5, r4]
 8006e96:	b005      	add	sp, #20
 8006e98:	bdf0      	pop	{r4, r5, r6, r7, pc}
 8006e9a:	bf00      	nop
 8006e9c:	001fffff 	.word	0x001fffff
 8006ea0:	20003208 	.word	0x20003208
 8006ea4:	20003468 	.word	0x20003468
 8006ea8:	08006e2d 	.word	0x08006e2d

08006eac <system__bb__protection__leave_kernel>:
 8006eac:	b510      	push	{r4, lr}
 8006eae:	4b10      	ldr	r3, [pc, #64]	; (8006ef0 <system__bb__protection__leave_kernel+0x44>)
 8006eb0:	4c10      	ldr	r4, [pc, #64]	; (8006ef4 <system__bb__protection__leave_kernel+0x48>)
 8006eb2:	681a      	ldr	r2, [r3, #0]
 8006eb4:	6823      	ldr	r3, [r4, #0]
 8006eb6:	429a      	cmp	r2, r3
 8006eb8:	d007      	beq.n	8006eca <system__bb__protection__leave_kernel+0x1e>
 8006eba:	4b0f      	ldr	r3, [pc, #60]	; (8006ef8 <system__bb__protection__leave_kernel+0x4c>)
 8006ebc:	681b      	ldr	r3, [r3, #0]
 8006ebe:	b103      	cbz	r3, 8006ec2 <system__bb__protection__leave_kernel+0x16>
 8006ec0:	4798      	blx	r3
 8006ec2:	4b0e      	ldr	r3, [pc, #56]	; (8006efc <system__bb__protection__leave_kernel+0x50>)
 8006ec4:	f04f 5280 	mov.w	r2, #268435456	; 0x10000000
 8006ec8:	601a      	str	r2, [r3, #0]
 8006eca:	6823      	ldr	r3, [r4, #0]
 8006ecc:	6b5b      	ldr	r3, [r3, #52]	; 0x34
 8006ece:	f1a3 02f1 	sub.w	r2, r3, #241	; 0xf1
 8006ed2:	2a0e      	cmp	r2, #14
 8006ed4:	bf9d      	ittte	ls
 8006ed6:	ebc3 1303 	rsbls	r3, r3, r3, lsl #4
 8006eda:	011b      	lslls	r3, r3, #4
 8006edc:	b2db      	uxtbls	r3, r3
 8006ede:	2300      	movhi	r3, #0
 8006ee0:	f383 8811 	msr	BASEPRI, r3
 8006ee4:	b662      	cpsie	i
 8006ee6:	f3bf 8f4f 	dsb	sy
 8006eea:	f3bf 8f6f 	isb	sy
 8006eee:	bd10      	pop	{r4, pc}
 8006ef0:	200000e8 	.word	0x200000e8
 8006ef4:	200000f4 	.word	0x200000f4
 8006ef8:	20000110 	.word	0x20000110
 8006efc:	e000ed04 	.word	0xe000ed04

08006f00 <system__bb__interrupts__interrupt_wrapper>:
 8006f00:	e92d 4ff0 	stmdb	sp!, {r4, r5, r6, r7, r8, r9, sl, fp, lr}
 8006f04:	b083      	sub	sp, #12
 8006f06:	4b3a      	ldr	r3, [pc, #232]	; (8006ff0 <system__bb__interrupts__interrupt_wrapper+0xf0>)
 8006f08:	681d      	ldr	r5, [r3, #0]
 8006f0a:	280f      	cmp	r0, #15
 8006f0c:	f8d5 8034 	ldr.w	r8, [r5, #52]	; 0x34
 8006f10:	d050      	beq.n	8006fb4 <system__bb__interrupts__interrupt_wrapper+0xb4>
 8006f12:	f3ef 8305 	mrs	r3, IPSR
 8006f16:	b2db      	uxtb	r3, r3
 8006f18:	f1a3 060e 	sub.w	r6, r3, #14
 8006f1c:	2e01      	cmp	r6, #1
 8006f1e:	d049      	beq.n	8006fb4 <system__bb__interrupts__interrupt_wrapper+0xb4>
 8006f20:	3b10      	subs	r3, #16
 8006f22:	4a34      	ldr	r2, [pc, #208]	; (8006ff4 <system__bb__interrupts__interrupt_wrapper+0xf4>)
 8006f24:	5cd3      	ldrb	r3, [r2, r3]
 8006f26:	f003 04ff 	and.w	r4, r3, #255	; 0xff
 8006f2a:	b95b      	cbnz	r3, 8006f44 <system__bb__interrupts__interrupt_wrapper+0x44>
 8006f2c:	24ff      	movs	r4, #255	; 0xff
 8006f2e:	f8df 90cc 	ldr.w	r9, [pc, #204]	; 8006ffc <system__bb__interrupts__interrupt_wrapper+0xfc>
 8006f32:	f8d9 b000 	ldr.w	fp, [r9]
 8006f36:	f895 7055 	ldrb.w	r7, [r5, #85]	; 0x55
 8006f3a:	b2ff      	uxtb	r7, r7
 8006f3c:	b936      	cbnz	r6, 8006f4c <system__bb__interrupts__interrupt_wrapper+0x4c>
 8006f3e:	b003      	add	sp, #12
 8006f40:	e8bd 8ff0 	ldmia.w	sp!, {r4, r5, r6, r7, r8, r9, sl, fp, pc}
 8006f44:	0924      	lsrs	r4, r4, #4
 8006f46:	f5c4 7480 	rsb	r4, r4, #256	; 0x100
 8006f4a:	e7f0      	b.n	8006f2e <system__bb__interrupts__interrupt_wrapper+0x2e>
 8006f4c:	f8df a0b0 	ldr.w	sl, [pc, #176]	; 8007000 <system__bb__interrupts__interrupt_wrapper+0x100>
 8006f50:	f8da 3000 	ldr.w	r3, [sl]
 8006f54:	4621      	mov	r1, r4
 8006f56:	b113      	cbz	r3, 8006f5e <system__bb__interrupts__interrupt_wrapper+0x5e>
 8006f58:	9101      	str	r1, [sp, #4]
 8006f5a:	4798      	blx	r3
 8006f5c:	9901      	ldr	r1, [sp, #4]
 8006f5e:	f8c9 6000 	str.w	r6, [r9]
 8006f62:	2301      	movs	r3, #1
 8006f64:	f885 3055 	strb.w	r3, [r5, #85]	; 0x55
 8006f68:	4628      	mov	r0, r5
 8006f6a:	f7ff fa47 	bl	80063fc <system__bb__threads__queues__change_priority>
 8006f6e:	f5b4 7f80 	cmp.w	r4, #256	; 0x100
 8006f72:	d02f      	beq.n	8006fd4 <system__bb__interrupts__interrupt_wrapper+0xd4>
 8006f74:	ebc4 1404 	rsb	r4, r4, r4, lsl #4
 8006f78:	0124      	lsls	r4, r4, #4
 8006f7a:	b2e4      	uxtb	r4, r4
 8006f7c:	f384 8811 	msr	BASEPRI, r4
 8006f80:	b662      	cpsie	i
 8006f82:	f3bf 8f4f 	dsb	sy
 8006f86:	f3bf 8f6f 	isb	sy
 8006f8a:	4b1b      	ldr	r3, [pc, #108]	; (8006ff8 <system__bb__interrupts__interrupt_wrapper+0xf8>)
 8006f8c:	4630      	mov	r0, r6
 8006f8e:	f853 3026 	ldr.w	r3, [r3, r6, lsl #2]
 8006f92:	4798      	blx	r3
 8006f94:	b672      	cpsid	i
 8006f96:	f8da 3000 	ldr.w	r3, [sl]
 8006f9a:	b103      	cbz	r3, 8006f9e <system__bb__interrupts__interrupt_wrapper+0x9e>
 8006f9c:	4798      	blx	r3
 8006f9e:	4641      	mov	r1, r8
 8006fa0:	4628      	mov	r0, r5
 8006fa2:	f7ff fa2b 	bl	80063fc <system__bb__threads__queues__change_priority>
 8006fa6:	f8c9 b000 	str.w	fp, [r9]
 8006faa:	f885 7055 	strb.w	r7, [r5, #85]	; 0x55
 8006fae:	b003      	add	sp, #12
 8006fb0:	e8bd 8ff0 	ldmia.w	sp!, {r4, r5, r6, r7, r8, r9, sl, fp, pc}
 8006fb4:	f8df 9044 	ldr.w	r9, [pc, #68]	; 8006ffc <system__bb__interrupts__interrupt_wrapper+0xfc>
 8006fb8:	f8df a044 	ldr.w	sl, [pc, #68]	; 8007000 <system__bb__interrupts__interrupt_wrapper+0x100>
 8006fbc:	f8d9 b000 	ldr.w	fp, [r9]
 8006fc0:	f8da 3000 	ldr.w	r3, [sl]
 8006fc4:	f895 7055 	ldrb.w	r7, [r5, #85]	; 0x55
 8006fc8:	b2ff      	uxtb	r7, r7
 8006fca:	b12b      	cbz	r3, 8006fd8 <system__bb__interrupts__interrupt_wrapper+0xd8>
 8006fcc:	21ff      	movs	r1, #255	; 0xff
 8006fce:	460c      	mov	r4, r1
 8006fd0:	2601      	movs	r6, #1
 8006fd2:	e7c1      	b.n	8006f58 <system__bb__interrupts__interrupt_wrapper+0x58>
 8006fd4:	2400      	movs	r4, #0
 8006fd6:	e7d1      	b.n	8006f7c <system__bb__interrupts__interrupt_wrapper+0x7c>
 8006fd8:	2601      	movs	r6, #1
 8006fda:	f8c9 6000 	str.w	r6, [r9]
 8006fde:	4628      	mov	r0, r5
 8006fe0:	f885 6055 	strb.w	r6, [r5, #85]	; 0x55
 8006fe4:	21ff      	movs	r1, #255	; 0xff
 8006fe6:	f7ff fa09 	bl	80063fc <system__bb__threads__queues__change_priority>
 8006fea:	24ff      	movs	r4, #255	; 0xff
 8006fec:	e7c2      	b.n	8006f74 <system__bb__interrupts__interrupt_wrapper+0x74>
 8006fee:	bf00      	nop
 8006ff0:	200000f4 	.word	0x200000f4
 8006ff4:	e000e400 	.word	0xe000e400
 8006ff8:	20003c68 	.word	0x20003c68
 8006ffc:	2000012c 	.word	0x2000012c
 8007000:	20000110 	.word	0x20000110

08007004 <system__bb__interrupts__initialize_interrupts>:
 8007004:	4a01      	ldr	r2, [pc, #4]	; (800700c <system__bb__interrupts__initialize_interrupts+0x8>)
 8007006:	4b02      	ldr	r3, [pc, #8]	; (8007010 <system__bb__interrupts__initialize_interrupts+0xc>)
 8007008:	601a      	str	r2, [r3, #0]
 800700a:	4770      	bx	lr
 800700c:	20004af8 	.word	0x20004af8
 8007010:	20003db8 	.word	0x20003db8

08007014 <system__bb__threads__get_cpu>:
 8007014:	f890 002c 	ldrb.w	r0, [r0, #44]	; 0x2c
 8007018:	2800      	cmp	r0, #0
 800701a:	bf08      	it	eq
 800701c:	2001      	moveq	r0, #1
 800701e:	4770      	bx	lr

08007020 <system__bb__threads__initialize_thread>:
 8007020:	e92d 43f0 	stmdb	sp!, {r4, r5, r6, r7, r8, r9, lr}
 8007024:	b089      	sub	sp, #36	; 0x24
 8007026:	4f40      	ldr	r7, [pc, #256]	; (8007128 <system__bb__threads__initialize_thread+0x108>)
 8007028:	f89d 5040 	ldrb.w	r5, [sp, #64]	; 0x40
 800702c:	6303      	str	r3, [r0, #48]	; 0x30
 800702e:	6343      	str	r3, [r0, #52]	; 0x34
 8007030:	683b      	ldr	r3, [r7, #0]
 8007032:	9e11      	ldr	r6, [sp, #68]	; 0x44
 8007034:	6583      	str	r3, [r0, #88]	; 0x58
 8007036:	4604      	mov	r4, r0
 8007038:	6038      	str	r0, [r7, #0]
 800703a:	f880 502c 	strb.w	r5, [r0, #44]	; 0x2c
 800703e:	2d00      	cmp	r5, #0
 8007040:	d05c      	beq.n	80070fc <system__bb__threads__initialize_thread+0xdc>
 8007042:	b26b      	sxtb	r3, r5
 8007044:	f103 4380 	add.w	r3, r3, #1073741824	; 0x40000000
 8007048:	3b01      	subs	r3, #1
 800704a:	4838      	ldr	r0, [pc, #224]	; (800712c <system__bb__threads__initialize_thread+0x10c>)
 800704c:	f850 5023 	ldr.w	r5, [r0, r3, lsl #2]
 8007050:	42ac      	cmp	r4, r5
 8007052:	d01b      	beq.n	800708c <system__bb__threads__initialize_thread+0x6c>
 8007054:	f850 5023 	ldr.w	r5, [r0, r3, lsl #2]
 8007058:	2d00      	cmp	r5, #0
 800705a:	d051      	beq.n	8007100 <system__bb__threads__initialize_thread+0xe0>
 800705c:	6b67      	ldr	r7, [r4, #52]	; 0x34
 800705e:	f850 5023 	ldr.w	r5, [r0, r3, lsl #2]
 8007062:	6b6d      	ldr	r5, [r5, #52]	; 0x34
 8007064:	42af      	cmp	r7, r5
 8007066:	dc4b      	bgt.n	8007100 <system__bb__threads__initialize_thread+0xe0>
 8007068:	f850 0023 	ldr.w	r0, [r0, r3, lsl #2]
 800706c:	e006      	b.n	800707c <system__bb__threads__initialize_thread+0x5c>
 800706e:	429c      	cmp	r4, r3
 8007070:	d04c      	beq.n	800710c <system__bb__threads__initialize_thread+0xec>
 8007072:	6b5f      	ldr	r7, [r3, #52]	; 0x34
 8007074:	6b65      	ldr	r5, [r4, #52]	; 0x34
 8007076:	42af      	cmp	r7, r5
 8007078:	db05      	blt.n	8007086 <system__bb__threads__initialize_thread+0x66>
 800707a:	4618      	mov	r0, r3
 800707c:	6c03      	ldr	r3, [r0, #64]	; 0x40
 800707e:	2b00      	cmp	r3, #0
 8007080:	d1f5      	bne.n	800706e <system__bb__threads__initialize_thread+0x4e>
 8007082:	2c00      	cmp	r4, #0
 8007084:	d042      	beq.n	800710c <system__bb__threads__initialize_thread+0xec>
 8007086:	6c03      	ldr	r3, [r0, #64]	; 0x40
 8007088:	6423      	str	r3, [r4, #64]	; 0x40
 800708a:	6404      	str	r4, [r0, #64]	; 0x40
 800708c:	2500      	movs	r5, #0
 800708e:	f04f 38ff 	mov.w	r8, #4294967295
 8007092:	f04f 39ff 	mov.w	r9, #4294967295
 8007096:	9b12      	ldr	r3, [sp, #72]	; 0x48
 8007098:	63a6      	str	r6, [r4, #56]	; 0x38
 800709a:	63e3      	str	r3, [r4, #60]	; 0x3c
 800709c:	f884 5054 	strb.w	r5, [r4, #84]	; 0x54
 80070a0:	f884 5055 	strb.w	r5, [r4, #85]	; 0x55
 80070a4:	f884 5056 	strb.w	r5, [r4, #86]	; 0x56
 80070a8:	6525      	str	r5, [r4, #80]	; 0x50
 80070aa:	65e5      	str	r5, [r4, #92]	; 0x5c
 80070ac:	6625      	str	r5, [r4, #96]	; 0x60
 80070ae:	e9c4 8912 	strd	r8, r9, [r4, #72]	; 0x48
 80070b2:	b301      	cbz	r1, 80070f6 <system__bb__threads__initialize_thread+0xd6>
 80070b4:	e88d 0024 	stmia.w	sp, {r2, r5}
 80070b8:	f04f 7380 	mov.w	r3, #16777216	; 0x1000000
 80070bc:	9504      	str	r5, [sp, #16]
 80070be:	9505      	str	r5, [sp, #20]
 80070c0:	9106      	str	r1, [sp, #24]
 80070c2:	9307      	str	r3, [sp, #28]
 80070c4:	9502      	str	r5, [sp, #8]
 80070c6:	9503      	str	r5, [sp, #12]
 80070c8:	466f      	mov	r7, sp
 80070ca:	cf0f      	ldmia	r7!, {r0, r1, r2, r3}
 80070cc:	f1a6 0e20 	sub.w	lr, r6, #32
 80070d0:	f02e 0e04 	bic.w	lr, lr, #4
 80070d4:	4676      	mov	r6, lr
 80070d6:	c60f      	stmia	r6!, {r0, r1, r2, r3}
 80070d8:	e897 000f 	ldmia.w	r7, {r0, r1, r2, r3}
 80070dc:	e886 000f 	stmia.w	r6, {r0, r1, r2, r3}
 80070e0:	f8c4 e020 	str.w	lr, [r4, #32]
 80070e4:	6025      	str	r5, [r4, #0]
 80070e6:	6065      	str	r5, [r4, #4]
 80070e8:	60a5      	str	r5, [r4, #8]
 80070ea:	60e5      	str	r5, [r4, #12]
 80070ec:	6125      	str	r5, [r4, #16]
 80070ee:	6165      	str	r5, [r4, #20]
 80070f0:	61a5      	str	r5, [r4, #24]
 80070f2:	61e5      	str	r5, [r4, #28]
 80070f4:	6265      	str	r5, [r4, #36]	; 0x24
 80070f6:	b009      	add	sp, #36	; 0x24
 80070f8:	e8bd 83f0 	ldmia.w	sp!, {r4, r5, r6, r7, r8, r9, pc}
 80070fc:	2301      	movs	r3, #1
 80070fe:	e7a1      	b.n	8007044 <system__bb__threads__initialize_thread+0x24>
 8007100:	f850 5023 	ldr.w	r5, [r0, r3, lsl #2]
 8007104:	6425      	str	r5, [r4, #64]	; 0x40
 8007106:	f840 4023 	str.w	r4, [r0, r3, lsl #2]
 800710a:	e7bf      	b.n	800708c <system__bb__threads__initialize_thread+0x6c>
 800710c:	6c23      	ldr	r3, [r4, #64]	; 0x40
 800710e:	6403      	str	r3, [r0, #64]	; 0x40
 8007110:	4605      	mov	r5, r0
 8007112:	e004      	b.n	800711e <system__bb__threads__initialize_thread+0xfe>
 8007114:	6b5f      	ldr	r7, [r3, #52]	; 0x34
 8007116:	6b60      	ldr	r0, [r4, #52]	; 0x34
 8007118:	4287      	cmp	r7, r0
 800711a:	db03      	blt.n	8007124 <system__bb__threads__initialize_thread+0x104>
 800711c:	461d      	mov	r5, r3
 800711e:	6c2b      	ldr	r3, [r5, #64]	; 0x40
 8007120:	2b00      	cmp	r3, #0
 8007122:	d1f7      	bne.n	8007114 <system__bb__threads__initialize_thread+0xf4>
 8007124:	4628      	mov	r0, r5
 8007126:	e7ae      	b.n	8007086 <system__bb__threads__initialize_thread+0x66>
 8007128:	200000ec 	.word	0x200000ec
 800712c:	200000e8 	.word	0x200000e8

08007130 <system__bb__threads__initialize>:
 8007130:	e92d 43f0 	stmdb	sp!, {r4, r5, r6, r7, r8, r9, lr}
 8007134:	b085      	sub	sp, #20
 8007136:	4606      	mov	r6, r0
 8007138:	460f      	mov	r7, r1
 800713a:	f7ff ff63 	bl	8007004 <system__bb__interrupts__initialize_interrupts>
 800713e:	f3ef 8008 	mrs	r0, MSP
 8007142:	f380 8809 	msr	PSP, r0
 8007146:	f3ef 8014 	mrs	r0, CONTROL
 800714a:	f040 0002 	orr.w	r0, r0, #2
 800714e:	f380 8814 	msr	CONTROL, r0
 8007152:	4b1f      	ldr	r3, [pc, #124]	; (80071d0 <system__bb__threads__initialize+0xa0>)
 8007154:	681b      	ldr	r3, [r3, #0]
 8007156:	f383 8808 	msr	MSP, r3
 800715a:	4b1e      	ldr	r3, [pc, #120]	; (80071d4 <system__bb__threads__initialize+0xa4>)
 800715c:	4d1e      	ldr	r5, [pc, #120]	; (80071d8 <system__bb__threads__initialize+0xa8>)
 800715e:	4a1f      	ldr	r2, [pc, #124]	; (80071dc <system__bb__threads__initialize+0xac>)
 8007160:	601a      	str	r2, [r3, #0]
 8007162:	682a      	ldr	r2, [r5, #0]
 8007164:	f8df 9090 	ldr.w	r9, [pc, #144]	; 80071f8 <system__bb__threads__initialize+0xc8>
 8007168:	f8df 8090 	ldr.w	r8, [pc, #144]	; 80071fc <system__bb__threads__initialize+0xcc>
 800716c:	f8df e090 	ldr.w	lr, [pc, #144]	; 8007200 <system__bb__threads__initialize+0xd0>
 8007170:	481b      	ldr	r0, [pc, #108]	; (80071e0 <system__bb__threads__initialize+0xb0>)
 8007172:	491c      	ldr	r1, [pc, #112]	; (80071e4 <system__bb__threads__initialize+0xb4>)
 8007174:	f442 7204 	orr.w	r2, r2, #528	; 0x210
 8007178:	2400      	movs	r4, #0
 800717a:	f042 0201 	orr.w	r2, r2, #1
 800717e:	f44f 0c7f 	mov.w	ip, #16711680	; 0xff0000
 8007182:	602a      	str	r2, [r5, #0]
 8007184:	f8c9 4000 	str.w	r4, [r9]
 8007188:	f8c8 4000 	str.w	r4, [r8]
 800718c:	f8ce c000 	str.w	ip, [lr]
 8007190:	6059      	str	r1, [r3, #4]
 8007192:	6802      	ldr	r2, [r0, #0]
 8007194:	f442 22e0 	orr.w	r2, r2, #458752	; 0x70000
 8007198:	6002      	str	r2, [r0, #0]
 800719a:	b661      	cpsie	f
 800719c:	f7ff fc04 	bl	80069a8 <system__bb__board_support__initialize_board>
 80071a0:	f7ff fa5e 	bl	8006660 <system__bb__time__initialize_timers>
 80071a4:	b672      	cpsid	i
 80071a6:	2501      	movs	r5, #1
 80071a8:	4b0f      	ldr	r3, [pc, #60]	; (80071e8 <system__bb__threads__initialize+0xb8>)
 80071aa:	4a10      	ldr	r2, [pc, #64]	; (80071ec <system__bb__threads__initialize+0xbc>)
 80071ac:	9301      	str	r3, [sp, #4]
 80071ae:	9202      	str	r2, [sp, #8]
 80071b0:	463b      	mov	r3, r7
 80071b2:	4622      	mov	r2, r4
 80071b4:	9500      	str	r5, [sp, #0]
 80071b6:	4630      	mov	r0, r6
 80071b8:	4621      	mov	r1, r4
 80071ba:	f7ff ff31 	bl	8007020 <system__bb__threads__initialize_thread>
 80071be:	4a0c      	ldr	r2, [pc, #48]	; (80071f0 <system__bb__threads__initialize+0xc0>)
 80071c0:	4b0c      	ldr	r3, [pc, #48]	; (80071f4 <system__bb__threads__initialize+0xc4>)
 80071c2:	6016      	str	r6, [r2, #0]
 80071c4:	701d      	strb	r5, [r3, #0]
 80071c6:	b005      	add	sp, #20
 80071c8:	e8bd 43f0 	ldmia.w	sp!, {r4, r5, r6, r7, r8, r9, lr}
 80071cc:	f7ff be6e 	b.w	8006eac <system__bb__protection__leave_kernel>
 80071d0:	20003db8 	.word	0x20003db8
 80071d4:	e000ed08 	.word	0xe000ed08
 80071d8:	e000ed14 	.word	0xe000ed14
 80071dc:	08007400 	.word	0x08007400
 80071e0:	e000ed24 	.word	0xe000ed24
 80071e4:	05fa0300 	.word	0x05fa0300
 80071e8:	2000cb00 	.word	0x2000cb00
 80071ec:	20004b00 	.word	0x20004b00
 80071f0:	200000f4 	.word	0x200000f4
 80071f4:	20000130 	.word	0x20000130
 80071f8:	e000ed18 	.word	0xe000ed18
 80071fc:	e000ed1c 	.word	0xe000ed1c
 8007200:	e000ed20 	.word	0xe000ed20

08007204 <system__bb__threads__sleep>:
 8007204:	4b0e      	ldr	r3, [pc, #56]	; (8007240 <system__bb__threads__sleep+0x3c>)
 8007206:	681a      	ldr	r2, [r3, #0]
 8007208:	b672      	cpsid	i
 800720a:	f892 3056 	ldrb.w	r3, [r2, #86]	; 0x56
 800720e:	b993      	cbnz	r3, 8007236 <system__bb__threads__sleep+0x32>
 8007210:	f892 102c 	ldrb.w	r1, [r2, #44]	; 0x2c
 8007214:	2301      	movs	r3, #1
 8007216:	f882 3054 	strb.w	r3, [r2, #84]	; 0x54
 800721a:	b951      	cbnz	r1, 8007232 <system__bb__threads__sleep+0x2e>
 800721c:	f103 4380 	add.w	r3, r3, #1073741824	; 0x40000000
 8007220:	3b01      	subs	r3, #1
 8007222:	4908      	ldr	r1, [pc, #32]	; (8007244 <system__bb__threads__sleep+0x40>)
 8007224:	6c10      	ldr	r0, [r2, #64]	; 0x40
 8007226:	f841 0023 	str.w	r0, [r1, r3, lsl #2]
 800722a:	2300      	movs	r3, #0
 800722c:	6413      	str	r3, [r2, #64]	; 0x40
 800722e:	f7ff be3d 	b.w	8006eac <system__bb__protection__leave_kernel>
 8007232:	b24b      	sxtb	r3, r1
 8007234:	e7f2      	b.n	800721c <system__bb__threads__sleep+0x18>
 8007236:	2300      	movs	r3, #0
 8007238:	f882 3056 	strb.w	r3, [r2, #86]	; 0x56
 800723c:	f7ff be36 	b.w	8006eac <system__bb__protection__leave_kernel>
 8007240:	200000f4 	.word	0x200000f4
 8007244:	200000e8 	.word	0x200000e8

08007248 <system__bb__threads__thread_create>:
 8007248:	b570      	push	{r4, r5, r6, lr}
 800724a:	b084      	sub	sp, #16
 800724c:	f89d 6020 	ldrb.w	r6, [sp, #32]
 8007250:	9d09      	ldr	r5, [sp, #36]	; 0x24
 8007252:	9c0a      	ldr	r4, [sp, #40]	; 0x28
 8007254:	b672      	cpsid	i
 8007256:	442c      	add	r4, r5
 8007258:	f024 0407 	bic.w	r4, r4, #7
 800725c:	9401      	str	r4, [sp, #4]
 800725e:	9600      	str	r6, [sp, #0]
 8007260:	9502      	str	r5, [sp, #8]
 8007262:	f7ff fedd 	bl	8007020 <system__bb__threads__initialize_thread>
 8007266:	b004      	add	sp, #16
 8007268:	e8bd 4070 	ldmia.w	sp!, {r4, r5, r6, lr}
 800726c:	f7ff be1e 	b.w	8006eac <system__bb__protection__leave_kernel>
	...

08007400 <__vectors>:
 8007400:	00000000 	.word	0x00000000
 8007404:	0800759d 	.word	0x0800759d
 8007408:	0800759d 	.word	0x0800759d
 800740c:	0800759d 	.word	0x0800759d
 8007410:	0800759d 	.word	0x0800759d
 8007414:	0800759d 	.word	0x0800759d
 8007418:	0800759d 	.word	0x0800759d
 800741c:	0800759d 	.word	0x0800759d
 8007420:	0800759d 	.word	0x0800759d
 8007424:	0800759d 	.word	0x0800759d
 8007428:	0800759d 	.word	0x0800759d
 800742c:	08006d39 	.word	0x08006d39
 8007430:	0800759d 	.word	0x0800759d
 8007434:	0800759d 	.word	0x0800759d
 8007438:	08006ced 	.word	0x08006ced
 800743c:	08006d41 	.word	0x08006d41
 8007440:	08006c99 	.word	0x08006c99
 8007444:	08006c99 	.word	0x08006c99
 8007448:	08006c99 	.word	0x08006c99
 800744c:	08006c99 	.word	0x08006c99
 8007450:	08006c99 	.word	0x08006c99
 8007454:	08006c99 	.word	0x08006c99
 8007458:	08006c99 	.word	0x08006c99
 800745c:	08006c99 	.word	0x08006c99
 8007460:	08006c99 	.word	0x08006c99
 8007464:	08006c99 	.word	0x08006c99
 8007468:	08006c99 	.word	0x08006c99
 800746c:	08006c99 	.word	0x08006c99
 8007470:	08006c99 	.word	0x08006c99
 8007474:	08006c99 	.word	0x08006c99
 8007478:	08006c99 	.word	0x08006c99
 800747c:	08006c99 	.word	0x08006c99
 8007480:	08006c99 	.word	0x08006c99
 8007484:	08006c99 	.word	0x08006c99
 8007488:	08006c99 	.word	0x08006c99
 800748c:	08006c99 	.word	0x08006c99
 8007490:	08006c99 	.word	0x08006c99
 8007494:	08006c99 	.word	0x08006c99
 8007498:	08006c99 	.word	0x08006c99
 800749c:	08006c99 	.word	0x08006c99
 80074a0:	08006c99 	.word	0x08006c99
 80074a4:	08006c99 	.word	0x08006c99
 80074a8:	08006c99 	.word	0x08006c99
 80074ac:	08006c99 	.word	0x08006c99
 80074b0:	08006c99 	.word	0x08006c99
 80074b4:	08006c99 	.word	0x08006c99
 80074b8:	08006c99 	.word	0x08006c99
 80074bc:	08006c99 	.word	0x08006c99
 80074c0:	08006c99 	.word	0x08006c99
 80074c4:	08006c99 	.word	0x08006c99
 80074c8:	08006c99 	.word	0x08006c99
 80074cc:	08006c99 	.word	0x08006c99
 80074d0:	08006c99 	.word	0x08006c99
 80074d4:	08006c99 	.word	0x08006c99
 80074d8:	08006c99 	.word	0x08006c99
 80074dc:	08006c99 	.word	0x08006c99
 80074e0:	08006c99 	.word	0x08006c99
 80074e4:	08006c99 	.word	0x08006c99
 80074e8:	08006c99 	.word	0x08006c99
 80074ec:	08006c99 	.word	0x08006c99
 80074f0:	08006c99 	.word	0x08006c99
 80074f4:	08006c99 	.word	0x08006c99
 80074f8:	08006c99 	.word	0x08006c99
 80074fc:	08006c99 	.word	0x08006c99
 8007500:	08006c99 	.word	0x08006c99
 8007504:	08006c99 	.word	0x08006c99
 8007508:	08006c99 	.word	0x08006c99
 800750c:	08006c99 	.word	0x08006c99
 8007510:	08006c99 	.word	0x08006c99
 8007514:	08006c99 	.word	0x08006c99
 8007518:	08006c99 	.word	0x08006c99
 800751c:	08006c99 	.word	0x08006c99
 8007520:	08006c99 	.word	0x08006c99
 8007524:	08006c99 	.word	0x08006c99
 8007528:	08006c99 	.word	0x08006c99
 800752c:	08006c99 	.word	0x08006c99
 8007530:	08006c99 	.word	0x08006c99
 8007534:	08006c99 	.word	0x08006c99
 8007538:	08006c99 	.word	0x08006c99
 800753c:	08006c99 	.word	0x08006c99
 8007540:	08006c99 	.word	0x08006c99
 8007544:	08006c99 	.word	0x08006c99
 8007548:	08006c99 	.word	0x08006c99
 800754c:	08006c99 	.word	0x08006c99
 8007550:	08006c99 	.word	0x08006c99
 8007554:	08006c99 	.word	0x08006c99
 8007558:	08006c99 	.word	0x08006c99
 800755c:	08006c99 	.word	0x08006c99
 8007560:	08006c99 	.word	0x08006c99
 8007564:	08006c99 	.word	0x08006c99
 8007568:	08006c99 	.word	0x08006c99
 800756c:	08006c99 	.word	0x08006c99
 8007570:	08006c99 	.word	0x08006c99
 8007574:	08006c99 	.word	0x08006c99
 8007578:	08006c99 	.word	0x08006c99
 800757c:	08006c99 	.word	0x08006c99
 8007580:	08006c99 	.word	0x08006c99
 8007584:	08006c99 	.word	0x08006c99
 8007588:	08006c99 	.word	0x08006c99
 800758c:	08006c99 	.word	0x08006c99
 8007590:	08006c99 	.word	0x08006c99
 8007594:	e7fe      	b.n	8007594 <__vectors+0x194>
 8007596:	e7fe      	b.n	8007596 <__vectors+0x196>
 8007598:	e7fe      	b.n	8007598 <__vectors+0x198>
 800759a:	e7fe      	b.n	800759a <__vectors+0x19a>

0800759c <fault>:
 800759c:	e7fe      	b.n	800759c <fault>
 800759e:	bf00      	nop

080075a0 <_start_rom>:
 80075a0:	f000 f870 	bl	8007684 <_stm32_start_common>
 80075a4:	f240 0000 	movw	r0, #0
 80075a8:	f2c2 0000 	movt	r0, #8192	; 0x2000
 80075ac:	f240 01b0 	movw	r1, #176	; 0xb0
 80075b0:	f24e 4278 	movw	r2, #58488	; 0xe478
 80075b4:	f6c0 0200 	movt	r2, #2048	; 0x800
 80075b8:	b129      	cbz	r1, 80075c6 <_start_rom+0x26>
 80075ba:	f852 4b04 	ldr.w	r4, [r2], #4
 80075be:	f840 4b04 	str.w	r4, [r0], #4
 80075c2:	3901      	subs	r1, #1
 80075c4:	d1f9      	bne.n	80075ba <_start_rom+0x1a>
 80075c6:	f240 20c0 	movw	r0, #704	; 0x2c0
 80075ca:	f2c2 0000 	movt	r0, #8192	; 0x2000
 80075ce:	f241 0110 	movw	r1, #4112	; 0x1010
 80075d2:	f04f 0200 	mov.w	r2, #0
 80075d6:	b119      	cbz	r1, 80075e0 <_start_rom+0x40>
 80075d8:	f840 2b04 	str.w	r2, [r0], #4
 80075dc:	3901      	subs	r1, #1
 80075de:	d1fb      	bne.n	80075d8 <_start_rom+0x38>
 80075e0:	4924      	ldr	r1, [pc, #144]	; (8007674 <hang+0x2>)
 80075e2:	6a48      	ldr	r0, [r1, #36]	; 0x24
 80075e4:	f440 2080 	orr.w	r0, r0, #262144	; 0x40000
 80075e8:	6248      	str	r0, [r1, #36]	; 0x24
 80075ea:	f04f 0200 	mov.w	r2, #0
 80075ee:	f8c1 2098 	str.w	r2, [r1, #152]	; 0x98
 80075f2:	2200      	movs	r2, #0
 80075f4:	f8c1 209c 	str.w	r2, [r1, #156]	; 0x9c
 80075f8:	4a1f      	ldr	r2, [pc, #124]	; (8007678 <hang+0x6>)
 80075fa:	f8c1 20a0 	str.w	r2, [r1, #160]	; 0xa0
 80075fe:	f04f 0201 	mov.w	r2, #1
 8007602:	f8c1 2098 	str.w	r2, [r1, #152]	; 0x98
 8007606:	f04f 6200 	mov.w	r2, #134217728	; 0x8000000
 800760a:	f8c1 209c 	str.w	r2, [r1, #156]	; 0x9c
 800760e:	4a1a      	ldr	r2, [pc, #104]	; (8007678 <hang+0x6>)
 8007610:	f8c1 20a0 	str.w	r2, [r1, #160]	; 0xa0
 8007614:	f04f 0202 	mov.w	r2, #2
 8007618:	f8c1 2098 	str.w	r2, [r1, #152]	; 0x98
 800761c:	f04f 5200 	mov.w	r2, #536870912	; 0x20000000
 8007620:	f8c1 209c 	str.w	r2, [r1, #156]	; 0x9c
 8007624:	4a15      	ldr	r2, [pc, #84]	; (800767c <hang+0xa>)
 8007626:	f8c1 20a0 	str.w	r2, [r1, #160]	; 0xa0
 800762a:	f04f 0203 	mov.w	r2, #3
 800762e:	f8c1 2098 	str.w	r2, [r1, #152]	; 0x98
 8007632:	f04f 4280 	mov.w	r2, #1073741824	; 0x40000000
 8007636:	f8c1 209c 	str.w	r2, [r1, #156]	; 0x9c
 800763a:	4a11      	ldr	r2, [pc, #68]	; (8007680 <hang+0xe>)
 800763c:	f8c1 20a0 	str.w	r2, [r1, #160]	; 0xa0
 8007640:	f04f 0204 	mov.w	r2, #4
 8007644:	f8c1 2098 	str.w	r2, [r1, #152]	; 0x98
 8007648:	f04f 4260 	mov.w	r2, #3758096384	; 0xe0000000
 800764c:	f8c1 209c 	str.w	r2, [r1, #156]	; 0x9c
 8007650:	4a0a      	ldr	r2, [pc, #40]	; (800767c <hang+0xa>)
 8007652:	f8c1 20a0 	str.w	r2, [r1, #160]	; 0xa0
 8007656:	f04f 0201 	mov.w	r2, #1
 800765a:	f3bf 8f4f 	dsb	sy
 800765e:	f8c1 2094 	str.w	r2, [r1, #148]	; 0x94
 8007662:	f3bf 8f6f 	isb	sy
 8007666:	f002 f949 	bl	80098fc <_ada_setup_pll>
 800766a:	f7f8 ffb5 	bl	80005d8 <main>
 800766e:	f002 f93d 	bl	80098ec <_exit>

08007672 <hang>:
 8007672:	e7fe      	b.n	8007672 <hang>
 8007674:	e000ed00 	.word	0xe000ed00
 8007678:	03000023 	.word	0x03000023
 800767c:	1300001f 	.word	0x1300001f
 8007680:	13000039 	.word	0x13000039

08007684 <_stm32_start_common>:
 8007684:	f64e 5088 	movw	r0, #60808	; 0xed88
 8007688:	f2ce 0000 	movt	r0, #57344	; 0xe000
 800768c:	6801      	ldr	r1, [r0, #0]
 800768e:	f441 0170 	orr.w	r1, r1, #15728640	; 0xf00000
 8007692:	6001      	str	r1, [r0, #0]
 8007694:	f3bf 8f4f 	dsb	sy
 8007698:	f3bf 8f6f 	isb	sy
 800769c:	4829      	ldr	r0, [pc, #164]	; (8007744 <end+0x4>)
 800769e:	6801      	ldr	r1, [r0, #0]
 80076a0:	f640 72ff 	movw	r2, #4095	; 0xfff
 80076a4:	ea01 0102 	and.w	r1, r1, r2
 80076a8:	f240 4249 	movw	r2, #1097	; 0x449
 80076ac:	4291      	cmp	r1, r2
 80076ae:	d147      	bne.n	8007740 <end>

080076b0 <dcache_invalidate>:
 80076b0:	f04f 0100 	mov.w	r1, #0
 80076b4:	4824      	ldr	r0, [pc, #144]	; (8007748 <end+0x8>)
 80076b6:	6001      	str	r1, [r0, #0]
 80076b8:	f3bf 8f4f 	dsb	sy
 80076bc:	4823      	ldr	r0, [pc, #140]	; (800774c <end+0xc>)
 80076be:	6802      	ldr	r2, [r0, #0]
 80076c0:	f002 0107 	and.w	r1, r2, #7
 80076c4:	f101 0704 	add.w	r7, r1, #4
 80076c8:	f3c2 04c9 	ubfx	r4, r2, #3, #10
 80076cc:	f3c2 324e 	ubfx	r2, r2, #13, #15
 80076d0:	fab4 f684 	clz	r6, r4
 80076d4:	481e      	ldr	r0, [pc, #120]	; (8007750 <end+0x10>)

080076d6 <inv_loop1>:
 80076d6:	4621      	mov	r1, r4
 80076d8:	fa12 f807 	lsls.w	r8, r2, r7

080076dc <inv_loop2>:
 80076dc:	fa11 f306 	lsls.w	r3, r1, r6
 80076e0:	ea53 0308 	orrs.w	r3, r3, r8
 80076e4:	6003      	str	r3, [r0, #0]
 80076e6:	3901      	subs	r1, #1
 80076e8:	daf8      	bge.n	80076dc <inv_loop2>
 80076ea:	3a01      	subs	r2, #1
 80076ec:	daf3      	bge.n	80076d6 <inv_loop1>
 80076ee:	f3bf 8f4f 	dsb	sy
 80076f2:	f3bf 8f6f 	isb	sy

080076f6 <icache_invalidate>:
 80076f6:	f04f 0100 	mov.w	r1, #0
 80076fa:	4816      	ldr	r0, [pc, #88]	; (8007754 <end+0x14>)
 80076fc:	6001      	str	r1, [r0, #0]
 80076fe:	f3bf 8f4f 	dsb	sy
 8007702:	f3bf 8f6f 	isb	sy
 8007706:	4814      	ldr	r0, [pc, #80]	; (8007758 <end+0x18>)
 8007708:	6801      	ldr	r1, [r0, #0]
 800770a:	f441 3180 	orr.w	r1, r1, #65536	; 0x10000
 800770e:	f441 3100 	orr.w	r1, r1, #131072	; 0x20000
 8007712:	6001      	str	r1, [r0, #0]
 8007714:	f3bf 8f4f 	dsb	sy
 8007718:	f3bf 8f6f 	isb	sy
 800771c:	f3bf 8f4f 	dsb	sy
 8007720:	f3bf 8f6f 	isb	sy
 8007724:	480d      	ldr	r0, [pc, #52]	; (800775c <end+0x1c>)
 8007726:	6801      	ldr	r1, [r0, #0]
 8007728:	f041 0101 	orr.w	r1, r1, #1
 800772c:	6001      	str	r1, [r0, #0]
 800772e:	480c      	ldr	r0, [pc, #48]	; (8007760 <end+0x20>)
 8007730:	6801      	ldr	r1, [r0, #0]
 8007732:	f041 0101 	orr.w	r1, r1, #1
 8007736:	6001      	str	r1, [r0, #0]
 8007738:	f3bf 8f4f 	dsb	sy
 800773c:	f3bf 8f6f 	isb	sy

08007740 <end>:
 8007740:	4770      	bx	lr
 8007742:	0000      	.short	0x0000
 8007744:	e0042000 	.word	0xe0042000
 8007748:	e000ed84 	.word	0xe000ed84
 800774c:	e000ed80 	.word	0xe000ed80
 8007750:	e000ef60 	.word	0xe000ef60
 8007754:	e000ef50 	.word	0xe000ef50
 8007758:	e000ed14 	.word	0xe000ed14
 800775c:	e000ef90 	.word	0xe000ef90
 8007760:	e000ef94 	.word	0xe000ef94

08007764 <read_sleb128>:
 8007764:	b430      	push	{r4, r5}
 8007766:	2500      	movs	r5, #0
 8007768:	462a      	mov	r2, r5
 800776a:	f810 4b01 	ldrb.w	r4, [r0], #1
 800776e:	f004 037f 	and.w	r3, r4, #127	; 0x7f
 8007772:	4093      	lsls	r3, r2
 8007774:	431d      	orrs	r5, r3
 8007776:	0623      	lsls	r3, r4, #24
 8007778:	f102 0207 	add.w	r2, r2, #7
 800777c:	d4f5      	bmi.n	800776a <read_sleb128+0x6>
 800777e:	2a1f      	cmp	r2, #31
 8007780:	d805      	bhi.n	800778e <read_sleb128+0x2a>
 8007782:	0663      	lsls	r3, r4, #25
 8007784:	d503      	bpl.n	800778e <read_sleb128+0x2a>
 8007786:	f04f 33ff 	mov.w	r3, #4294967295
 800778a:	4093      	lsls	r3, r2
 800778c:	431d      	orrs	r5, r3
 800778e:	600d      	str	r5, [r1, #0]
 8007790:	bc30      	pop	{r4, r5}
 8007792:	4770      	bx	lr

08007794 <read_encoded_value_with_base>:
 8007794:	e92d 41f0 	stmdb	sp!, {r4, r5, r6, r7, r8, lr}
 8007798:	2850      	cmp	r0, #80	; 0x50
 800779a:	b084      	sub	sp, #16
 800779c:	4606      	mov	r6, r0
 800779e:	d048      	beq.n	8007832 <read_encoded_value_with_base+0x9e>
 80077a0:	4688      	mov	r8, r1
 80077a2:	f000 010f 	and.w	r1, r0, #15
 80077a6:	290c      	cmp	r1, #12
 80077a8:	d841      	bhi.n	800782e <read_encoded_value_with_base+0x9a>
 80077aa:	e8df f001 	tbb	[pc, r1]
 80077ae:	2c07      	.short	0x2c07
 80077b0:	4019073c 	.word	0x4019073c
 80077b4:	21404040 	.word	0x21404040
 80077b8:	071d      	.short	0x071d
 80077ba:	19          	.byte	0x19
 80077bb:	00          	.byte	0x00
 80077bc:	4615      	mov	r5, r2
 80077be:	f855 4b04 	ldr.w	r4, [r5], #4
 80077c2:	b144      	cbz	r4, 80077d6 <read_encoded_value_with_base+0x42>
 80077c4:	f006 0070 	and.w	r0, r6, #112	; 0x70
 80077c8:	2810      	cmp	r0, #16
 80077ca:	bf18      	it	ne
 80077cc:	4642      	movne	r2, r8
 80077ce:	4414      	add	r4, r2
 80077d0:	0632      	lsls	r2, r6, #24
 80077d2:	bf48      	it	mi
 80077d4:	6824      	ldrmi	r4, [r4, #0]
 80077d6:	601c      	str	r4, [r3, #0]
 80077d8:	4628      	mov	r0, r5
 80077da:	b004      	add	sp, #16
 80077dc:	e8bd 81f0 	ldmia.w	sp!, {r4, r5, r6, r7, r8, pc}
 80077e0:	4615      	mov	r5, r2
 80077e2:	f855 4b08 	ldr.w	r4, [r5], #8
 80077e6:	e7ec      	b.n	80077c2 <read_encoded_value_with_base+0x2e>
 80077e8:	4615      	mov	r5, r2
 80077ea:	f935 4b02 	ldrsh.w	r4, [r5], #2
 80077ee:	e7e8      	b.n	80077c2 <read_encoded_value_with_base+0x2e>
 80077f0:	4610      	mov	r0, r2
 80077f2:	a903      	add	r1, sp, #12
 80077f4:	9301      	str	r3, [sp, #4]
 80077f6:	9200      	str	r2, [sp, #0]
 80077f8:	f7ff ffb4 	bl	8007764 <read_sleb128>
 80077fc:	9c03      	ldr	r4, [sp, #12]
 80077fe:	4605      	mov	r5, r0
 8007800:	e89d 000c 	ldmia.w	sp, {r2, r3}
 8007804:	e7dd      	b.n	80077c2 <read_encoded_value_with_base+0x2e>
 8007806:	2400      	movs	r4, #0
 8007808:	46a6      	mov	lr, r4
 800780a:	4615      	mov	r5, r2
 800780c:	f815 1b01 	ldrb.w	r1, [r5], #1
 8007810:	f001 077f 	and.w	r7, r1, #127	; 0x7f
 8007814:	fa07 f70e 	lsl.w	r7, r7, lr
 8007818:	0609      	lsls	r1, r1, #24
 800781a:	ea44 0407 	orr.w	r4, r4, r7
 800781e:	f10e 0e07 	add.w	lr, lr, #7
 8007822:	d4f3      	bmi.n	800780c <read_encoded_value_with_base+0x78>
 8007824:	e7cd      	b.n	80077c2 <read_encoded_value_with_base+0x2e>
 8007826:	4615      	mov	r5, r2
 8007828:	f835 4b02 	ldrh.w	r4, [r5], #2
 800782c:	e7c9      	b.n	80077c2 <read_encoded_value_with_base+0x2e>
 800782e:	f002 f855 	bl	80098dc <abort>
 8007832:	1cd5      	adds	r5, r2, #3
 8007834:	f025 0503 	bic.w	r5, r5, #3
 8007838:	f855 4b04 	ldr.w	r4, [r5], #4
 800783c:	601c      	str	r4, [r3, #0]
 800783e:	4628      	mov	r0, r5
 8007840:	b004      	add	sp, #16
 8007842:	e8bd 81f0 	ldmia.w	sp!, {r4, r5, r6, r7, r8, pc}
 8007846:	bf00      	nop

08007848 <base_of_encoded_value>:
 8007848:	28ff      	cmp	r0, #255	; 0xff
 800784a:	d015      	beq.n	8007878 <base_of_encoded_value+0x30>
 800784c:	b508      	push	{r3, lr}
 800784e:	f000 0370 	and.w	r3, r0, #112	; 0x70
 8007852:	2b20      	cmp	r3, #32
 8007854:	d012      	beq.n	800787c <base_of_encoded_value+0x34>
 8007856:	d90a      	bls.n	800786e <base_of_encoded_value+0x26>
 8007858:	2b40      	cmp	r3, #64	; 0x40
 800785a:	d014      	beq.n	8007886 <base_of_encoded_value+0x3e>
 800785c:	2b50      	cmp	r3, #80	; 0x50
 800785e:	d017      	beq.n	8007890 <base_of_encoded_value+0x48>
 8007860:	2b30      	cmp	r3, #48	; 0x30
 8007862:	d107      	bne.n	8007874 <base_of_encoded_value+0x2c>
 8007864:	4608      	mov	r0, r1
 8007866:	e8bd 4008 	ldmia.w	sp!, {r3, lr}
 800786a:	f003 bcdb 	b.w	800b224 <_Unwind_GetDataRelBase>
 800786e:	b17b      	cbz	r3, 8007890 <base_of_encoded_value+0x48>
 8007870:	2b10      	cmp	r3, #16
 8007872:	d00d      	beq.n	8007890 <base_of_encoded_value+0x48>
 8007874:	f002 f832 	bl	80098dc <abort>
 8007878:	2000      	movs	r0, #0
 800787a:	4770      	bx	lr
 800787c:	4608      	mov	r0, r1
 800787e:	e8bd 4008 	ldmia.w	sp!, {r3, lr}
 8007882:	f003 bcd3 	b.w	800b22c <_Unwind_GetTextRelBase>
 8007886:	4608      	mov	r0, r1
 8007888:	e8bd 4008 	ldmia.w	sp!, {r3, lr}
 800788c:	f003 bcba 	b.w	800b204 <_Unwind_GetRegionStart>
 8007890:	2000      	movs	r0, #0
 8007892:	bd08      	pop	{r3, pc}

08007894 <__gnat_personality_v0>:
 8007894:	e92d 4ff0 	stmdb	sp!, {r4, r5, r6, r7, r8, r9, sl, fp, lr}
 8007898:	f000 0303 	and.w	r3, r0, #3
 800789c:	2b01      	cmp	r3, #1
 800789e:	b091      	sub	sp, #68	; 0x44
 80078a0:	4605      	mov	r5, r0
 80078a2:	4689      	mov	r9, r1
 80078a4:	4690      	mov	r8, r2
 80078a6:	f000 80cf 	beq.w	8007a48 <__gnat_personality_v0+0x1b4>
 80078aa:	d310      	bcc.n	80078ce <__gnat_personality_v0+0x3a>
 80078ac:	2b02      	cmp	r3, #2
 80078ae:	d003      	beq.n	80078b8 <__gnat_personality_v0+0x24>
 80078b0:	2009      	movs	r0, #9
 80078b2:	b011      	add	sp, #68	; 0x44
 80078b4:	e8bd 8ff0 	ldmia.w	sp!, {r4, r5, r6, r7, r8, r9, sl, fp, pc}
 80078b8:	4608      	mov	r0, r1
 80078ba:	4611      	mov	r1, r2
 80078bc:	f003 fc8e 	bl	800b1dc <__gnu_unwind_frame>
 80078c0:	2800      	cmp	r0, #0
 80078c2:	bf14      	ite	ne
 80078c4:	2009      	movne	r0, #9
 80078c6:	2008      	moveq	r0, #8
 80078c8:	b011      	add	sp, #68	; 0x44
 80078ca:	e8bd 8ff0 	ldmia.w	sp!, {r4, r5, r6, r7, r8, r9, sl, fp, pc}
 80078ce:	2601      	movs	r6, #1
 80078d0:	aa10      	add	r2, sp, #64	; 0x40
 80078d2:	2100      	movs	r1, #0
 80078d4:	f842 9d34 	str.w	r9, [r2, #-52]!
 80078d8:	460b      	mov	r3, r1
 80078da:	9200      	str	r2, [sp, #0]
 80078dc:	4640      	mov	r0, r8
 80078de:	220c      	movs	r2, #12
 80078e0:	f002 ff0e 	bl	800a700 <_Unwind_VRS_Set>
 80078e4:	f1b8 0f00 	cmp.w	r8, #0
 80078e8:	f000 80b0 	beq.w	8007a4c <__gnat_personality_v0+0x1b8>
 80078ec:	4640      	mov	r0, r8
 80078ee:	f003 fc8f 	bl	800b210 <_Unwind_GetLanguageSpecificData>
 80078f2:	4604      	mov	r4, r0
 80078f4:	9008      	str	r0, [sp, #32]
 80078f6:	2800      	cmp	r0, #0
 80078f8:	f000 809b 	beq.w	8007a32 <__gnat_personality_v0+0x19e>
 80078fc:	4640      	mov	r0, r8
 80078fe:	f003 fc81 	bl	800b204 <_Unwind_GetRegionStart>
 8007902:	9007      	str	r0, [sp, #28]
 8007904:	7827      	ldrb	r7, [r4, #0]
 8007906:	2fff      	cmp	r7, #255	; 0xff
 8007908:	f104 0401 	add.w	r4, r4, #1
 800790c:	f000 80a1 	beq.w	8007a52 <__gnat_personality_v0+0x1be>
 8007910:	4641      	mov	r1, r8
 8007912:	4638      	mov	r0, r7
 8007914:	f7ff ff98 	bl	8007848 <base_of_encoded_value>
 8007918:	4622      	mov	r2, r4
 800791a:	4601      	mov	r1, r0
 800791c:	ab0b      	add	r3, sp, #44	; 0x2c
 800791e:	4638      	mov	r0, r7
 8007920:	f7ff ff38 	bl	8007794 <read_encoded_value_with_base>
 8007924:	4604      	mov	r4, r0
 8007926:	7820      	ldrb	r0, [r4, #0]
 8007928:	f88d 0034 	strb.w	r0, [sp, #52]	; 0x34
 800792c:	28ff      	cmp	r0, #255	; 0xff
 800792e:	f104 0401 	add.w	r4, r4, #1
 8007932:	f000 8137 	beq.w	8007ba4 <__gnat_personality_v0+0x310>
 8007936:	2700      	movs	r7, #0
 8007938:	463a      	mov	r2, r7
 800793a:	f814 1b01 	ldrb.w	r1, [r4], #1
 800793e:	f001 037f 	and.w	r3, r1, #127	; 0x7f
 8007942:	4093      	lsls	r3, r2
 8007944:	431f      	orrs	r7, r3
 8007946:	060b      	lsls	r3, r1, #24
 8007948:	f102 0207 	add.w	r2, r2, #7
 800794c:	d4f5      	bmi.n	800793a <__gnat_personality_v0+0xa6>
 800794e:	4427      	add	r7, r4
 8007950:	970e      	str	r7, [sp, #56]	; 0x38
 8007952:	4641      	mov	r1, r8
 8007954:	f7ff ff78 	bl	8007848 <base_of_encoded_value>
 8007958:	900f      	str	r0, [sp, #60]	; 0x3c
 800795a:	7823      	ldrb	r3, [r4, #0]
 800795c:	f88d 3024 	strb.w	r3, [sp, #36]	; 0x24
 8007960:	2700      	movs	r7, #0
 8007962:	1c63      	adds	r3, r4, #1
 8007964:	4639      	mov	r1, r7
 8007966:	f813 0b01 	ldrb.w	r0, [r3], #1
 800796a:	f000 027f 	and.w	r2, r0, #127	; 0x7f
 800796e:	408a      	lsls	r2, r1
 8007970:	0600      	lsls	r0, r0, #24
 8007972:	ea47 0702 	orr.w	r7, r7, r2
 8007976:	f101 0107 	add.w	r1, r1, #7
 800797a:	d4f4      	bmi.n	8007966 <__gnat_personality_v0+0xd2>
 800797c:	9a08      	ldr	r2, [sp, #32]
 800797e:	930a      	str	r3, [sp, #40]	; 0x28
 8007980:	443b      	add	r3, r7
 8007982:	930c      	str	r3, [sp, #48]	; 0x30
 8007984:	2a00      	cmp	r2, #0
 8007986:	d054      	beq.n	8007a32 <__gnat_personality_v0+0x19e>
 8007988:	2100      	movs	r1, #0
 800798a:	ab06      	add	r3, sp, #24
 800798c:	9300      	str	r3, [sp, #0]
 800798e:	220f      	movs	r2, #15
 8007990:	460b      	mov	r3, r1
 8007992:	4640      	mov	r0, r8
 8007994:	f002 fe8e 	bl	800a6b4 <_Unwind_VRS_Get>
 8007998:	9b06      	ldr	r3, [sp, #24]
 800799a:	9c0a      	ldr	r4, [sp, #40]	; 0x28
 800799c:	9a0c      	ldr	r2, [sp, #48]	; 0x30
 800799e:	f005 0508 	and.w	r5, r5, #8
 80079a2:	f023 0301 	bic.w	r3, r3, #1
 80079a6:	4294      	cmp	r4, r2
 80079a8:	ea46 0705 	orr.w	r7, r6, r5
 80079ac:	f103 3aff 	add.w	sl, r3, #4294967295
 80079b0:	d23f      	bcs.n	8007a32 <__gnat_personality_v0+0x19e>
 80079b2:	f89d 5024 	ldrb.w	r5, [sp, #36]	; 0x24
 80079b6:	2100      	movs	r1, #0
 80079b8:	4628      	mov	r0, r5
 80079ba:	f7ff ff45 	bl	8007848 <base_of_encoded_value>
 80079be:	4622      	mov	r2, r4
 80079c0:	4601      	mov	r1, r0
 80079c2:	ab04      	add	r3, sp, #16
 80079c4:	4628      	mov	r0, r5
 80079c6:	f7ff fee5 	bl	8007794 <read_encoded_value_with_base>
 80079ca:	f89d 4024 	ldrb.w	r4, [sp, #36]	; 0x24
 80079ce:	4605      	mov	r5, r0
 80079d0:	2100      	movs	r1, #0
 80079d2:	4620      	mov	r0, r4
 80079d4:	f7ff ff38 	bl	8007848 <base_of_encoded_value>
 80079d8:	462a      	mov	r2, r5
 80079da:	4601      	mov	r1, r0
 80079dc:	ab05      	add	r3, sp, #20
 80079de:	4620      	mov	r0, r4
 80079e0:	f7ff fed8 	bl	8007794 <read_encoded_value_with_base>
 80079e4:	f89d 4024 	ldrb.w	r4, [sp, #36]	; 0x24
 80079e8:	4605      	mov	r5, r0
 80079ea:	2100      	movs	r1, #0
 80079ec:	4620      	mov	r0, r4
 80079ee:	f7ff ff2b 	bl	8007848 <base_of_encoded_value>
 80079f2:	462a      	mov	r2, r5
 80079f4:	4601      	mov	r1, r0
 80079f6:	ab06      	add	r3, sp, #24
 80079f8:	4620      	mov	r0, r4
 80079fa:	f7ff fecb 	bl	8007794 <read_encoded_value_with_base>
 80079fe:	2600      	movs	r6, #0
 8007a00:	4634      	mov	r4, r6
 8007a02:	f810 5b01 	ldrb.w	r5, [r0], #1
 8007a06:	f005 037f 	and.w	r3, r5, #127	; 0x7f
 8007a0a:	40a3      	lsls	r3, r4
 8007a0c:	062a      	lsls	r2, r5, #24
 8007a0e:	ea46 0603 	orr.w	r6, r6, r3
 8007a12:	f104 0407 	add.w	r4, r4, #7
 8007a16:	d4f4      	bmi.n	8007a02 <__gnat_personality_v0+0x16e>
 8007a18:	9a04      	ldr	r2, [sp, #16]
 8007a1a:	9b07      	ldr	r3, [sp, #28]
 8007a1c:	4413      	add	r3, r2
 8007a1e:	459a      	cmp	sl, r3
 8007a20:	4604      	mov	r4, r0
 8007a22:	d306      	bcc.n	8007a32 <__gnat_personality_v0+0x19e>
 8007a24:	9a05      	ldr	r2, [sp, #20]
 8007a26:	4413      	add	r3, r2
 8007a28:	459a      	cmp	sl, r3
 8007a2a:	d314      	bcc.n	8007a56 <__gnat_personality_v0+0x1c2>
 8007a2c:	9b0c      	ldr	r3, [sp, #48]	; 0x30
 8007a2e:	4283      	cmp	r3, r0
 8007a30:	d8bf      	bhi.n	80079b2 <__gnat_personality_v0+0x11e>
 8007a32:	4648      	mov	r0, r9
 8007a34:	4641      	mov	r1, r8
 8007a36:	f003 fbd1 	bl	800b1dc <__gnu_unwind_frame>
 8007a3a:	2800      	cmp	r0, #0
 8007a3c:	f47f af38 	bne.w	80078b0 <__gnat_personality_v0+0x1c>
 8007a40:	2008      	movs	r0, #8
 8007a42:	b011      	add	sp, #68	; 0x44
 8007a44:	e8bd 8ff0 	ldmia.w	sp!, {r4, r5, r6, r7, r8, r9, sl, fp, pc}
 8007a48:	2602      	movs	r6, #2
 8007a4a:	e741      	b.n	80078d0 <__gnat_personality_v0+0x3c>
 8007a4c:	f8cd 8020 	str.w	r8, [sp, #32]
 8007a50:	e7ef      	b.n	8007a32 <__gnat_personality_v0+0x19e>
 8007a52:	900b      	str	r0, [sp, #44]	; 0x2c
 8007a54:	e767      	b.n	8007926 <__gnat_personality_v0+0x92>
 8007a56:	9b06      	ldr	r3, [sp, #24]
 8007a58:	bb0b      	cbnz	r3, 8007a9e <__gnat_personality_v0+0x20a>
 8007a5a:	2e00      	cmp	r6, #0
 8007a5c:	d0e9      	beq.n	8007a32 <__gnat_personality_v0+0x19e>
 8007a5e:	469a      	mov	sl, r3
 8007a60:	980c      	ldr	r0, [sp, #48]	; 0x30
 8007a62:	3e01      	subs	r6, #1
 8007a64:	4430      	add	r0, r6
 8007a66:	f1ba 0f00 	cmp.w	sl, #0
 8007a6a:	d0e2      	beq.n	8007a32 <__gnat_personality_v0+0x19e>
 8007a6c:	b1f8      	cbz	r0, 8007aae <__gnat_personality_v0+0x21a>
 8007a6e:	4e62      	ldr	r6, [pc, #392]	; (8007bf8 <__gnat_personality_v0+0x364>)
 8007a70:	2501      	movs	r5, #1
 8007a72:	e008      	b.n	8007a86 <__gnat_personality_v0+0x1f2>
 8007a74:	dd02      	ble.n	8007a7c <__gnat_personality_v0+0x1e8>
 8007a76:	f017 0208 	ands.w	r2, r7, #8
 8007a7a:	d04a      	beq.n	8007b12 <__gnat_personality_v0+0x27e>
 8007a7c:	9805      	ldr	r0, [sp, #20]
 8007a7e:	2800      	cmp	r0, #0
 8007a80:	f000 80b4 	beq.w	8007bec <__gnat_personality_v0+0x358>
 8007a84:	4420      	add	r0, r4
 8007a86:	a904      	add	r1, sp, #16
 8007a88:	f7ff fe6c 	bl	8007764 <read_sleb128>
 8007a8c:	a905      	add	r1, sp, #20
 8007a8e:	4604      	mov	r4, r0
 8007a90:	f7ff fe68 	bl	8007764 <read_sleb128>
 8007a94:	9b04      	ldr	r3, [sp, #16]
 8007a96:	2b00      	cmp	r3, #0
 8007a98:	d1ec      	bne.n	8007a74 <__gnat_personality_v0+0x1e0>
 8007a9a:	2502      	movs	r5, #2
 8007a9c:	e7ee      	b.n	8007a7c <__gnat_personality_v0+0x1e8>
 8007a9e:	9a0b      	ldr	r2, [sp, #44]	; 0x2c
 8007aa0:	eb03 0a02 	add.w	sl, r3, r2
 8007aa4:	2e00      	cmp	r6, #0
 8007aa6:	d1db      	bne.n	8007a60 <__gnat_personality_v0+0x1cc>
 8007aa8:	f1ba 0f00 	cmp.w	sl, #0
 8007aac:	d0c1      	beq.n	8007a32 <__gnat_personality_v0+0x19e>
 8007aae:	f017 0001 	ands.w	r0, r7, #1
 8007ab2:	d1be      	bne.n	8007a32 <__gnat_personality_v0+0x19e>
 8007ab4:	4604      	mov	r4, r0
 8007ab6:	2100      	movs	r1, #0
 8007ab8:	ab06      	add	r3, sp, #24
 8007aba:	460a      	mov	r2, r1
 8007abc:	9300      	str	r3, [sp, #0]
 8007abe:	4640      	mov	r0, r8
 8007ac0:	460b      	mov	r3, r1
 8007ac2:	f8cd 9018 	str.w	r9, [sp, #24]
 8007ac6:	f002 fe1b 	bl	800a700 <_Unwind_VRS_Set>
 8007aca:	2100      	movs	r1, #0
 8007acc:	ab05      	add	r3, sp, #20
 8007ace:	9300      	str	r3, [sp, #0]
 8007ad0:	2201      	movs	r2, #1
 8007ad2:	460b      	mov	r3, r1
 8007ad4:	4640      	mov	r0, r8
 8007ad6:	9405      	str	r4, [sp, #20]
 8007ad8:	f002 fe12 	bl	800a700 <_Unwind_VRS_Set>
 8007adc:	2100      	movs	r1, #0
 8007ade:	ab04      	add	r3, sp, #16
 8007ae0:	9300      	str	r3, [sp, #0]
 8007ae2:	220f      	movs	r2, #15
 8007ae4:	460b      	mov	r3, r1
 8007ae6:	4640      	mov	r0, r8
 8007ae8:	f002 fde4 	bl	800a6b4 <_Unwind_VRS_Get>
 8007aec:	9b04      	ldr	r3, [sp, #16]
 8007aee:	2100      	movs	r1, #0
 8007af0:	aa04      	add	r2, sp, #16
 8007af2:	f003 0301 	and.w	r3, r3, #1
 8007af6:	9200      	str	r2, [sp, #0]
 8007af8:	ea43 040a 	orr.w	r4, r3, sl
 8007afc:	220f      	movs	r2, #15
 8007afe:	460b      	mov	r3, r1
 8007b00:	4640      	mov	r0, r8
 8007b02:	9404      	str	r4, [sp, #16]
 8007b04:	f002 fdfc 	bl	800a700 <_Unwind_VRS_Set>
 8007b08:	4648      	mov	r0, r9
 8007b0a:	f001 f897 	bl	8008c3c <__gnat_setup_current_excep>
 8007b0e:	2007      	movs	r0, #7
 8007b10:	e6cf      	b.n	80078b2 <__gnat_personality_v0+0x1e>
 8007b12:	f89d 0034 	ldrb.w	r0, [sp, #52]	; 0x34
 8007b16:	28ff      	cmp	r0, #255	; 0xff
 8007b18:	d00a      	beq.n	8007b30 <__gnat_personality_v0+0x29c>
 8007b1a:	f000 0207 	and.w	r2, r0, #7
 8007b1e:	2a04      	cmp	r2, #4
 8007b20:	d849      	bhi.n	8007bb6 <__gnat_personality_v0+0x322>
 8007b22:	e8df f002 	tbb	[pc, r2]
 8007b26:	4803      	.short	0x4803
 8007b28:	0345      	.short	0x0345
 8007b2a:	42          	.byte	0x42
 8007b2b:	00          	.byte	0x00
 8007b2c:	009b      	lsls	r3, r3, #2
 8007b2e:	425a      	negs	r2, r3
 8007b30:	9b0e      	ldr	r3, [sp, #56]	; 0x38
 8007b32:	990f      	ldr	r1, [sp, #60]	; 0x3c
 8007b34:	441a      	add	r2, r3
 8007b36:	ab06      	add	r3, sp, #24
 8007b38:	f7ff fe2c 	bl	8007794 <read_encoded_value_with_base>
 8007b3c:	f8dd b018 	ldr.w	fp, [sp, #24]
 8007b40:	45b3      	cmp	fp, r6
 8007b42:	d01f      	beq.n	8007b84 <__gnat_personality_v0+0x2f0>
 8007b44:	4648      	mov	r0, r9
 8007b46:	492d      	ldr	r1, [pc, #180]	; (8007bfc <__gnat_personality_v0+0x368>)
 8007b48:	2208      	movs	r2, #8
 8007b4a:	f000 f8a1 	bl	8007c90 <memcmp>
 8007b4e:	b3a0      	cbz	r0, 8007bba <__gnat_personality_v0+0x326>
 8007b50:	4b2b      	ldr	r3, [pc, #172]	; (8007c00 <__gnat_personality_v0+0x36c>)
 8007b52:	459b      	cmp	fp, r3
 8007b54:	d016      	beq.n	8007b84 <__gnat_personality_v0+0x2f0>
 8007b56:	4a2b      	ldr	r2, [pc, #172]	; (8007c04 <__gnat_personality_v0+0x370>)
 8007b58:	4593      	cmp	fp, r2
 8007b5a:	d013      	beq.n	8007b84 <__gnat_personality_v0+0x2f0>
 8007b5c:	4648      	mov	r0, r9
 8007b5e:	492a      	ldr	r1, [pc, #168]	; (8007c08 <__gnat_personality_v0+0x374>)
 8007b60:	2208      	movs	r2, #8
 8007b62:	f000 f895 	bl	8007c90 <memcmp>
 8007b66:	2800      	cmp	r0, #0
 8007b68:	d188      	bne.n	8007a7c <__gnat_personality_v0+0x1e8>
 8007b6a:	4658      	mov	r0, fp
 8007b6c:	f001 f8c6 	bl	8008cfc <__gnat_language_for>
 8007b70:	2843      	cmp	r0, #67	; 0x43
 8007b72:	d183      	bne.n	8007a7c <__gnat_personality_v0+0x1e8>
 8007b74:	4658      	mov	r0, fp
 8007b76:	f001 f8bb 	bl	8008cf0 <__gnat_foreign_data_for>
 8007b7a:	f859 3c20 	ldr.w	r3, [r9, #-32]
 8007b7e:	4283      	cmp	r3, r0
 8007b80:	f47f af7c 	bne.w	8007a7c <__gnat_personality_v0+0x1e8>
 8007b84:	2503      	movs	r5, #3
 8007b86:	9c04      	ldr	r4, [sp, #16]
 8007b88:	07fb      	lsls	r3, r7, #31
 8007b8a:	d594      	bpl.n	8007ab6 <__gnat_personality_v0+0x222>
 8007b8c:	2d02      	cmp	r5, #2
 8007b8e:	f43f af50 	beq.w	8007a32 <__gnat_personality_v0+0x19e>
 8007b92:	4648      	mov	r0, r9
 8007b94:	f001 f852 	bl	8008c3c <__gnat_setup_current_excep>
 8007b98:	2d04      	cmp	r5, #4
 8007b9a:	d016      	beq.n	8007bca <__gnat_personality_v0+0x336>
 8007b9c:	f001 f92e 	bl	8008dfc <__gnat_notify_handled_exception>
 8007ba0:	2006      	movs	r0, #6
 8007ba2:	e686      	b.n	80078b2 <__gnat_personality_v0+0x1e>
 8007ba4:	2300      	movs	r3, #0
 8007ba6:	930e      	str	r3, [sp, #56]	; 0x38
 8007ba8:	e6d3      	b.n	8007952 <__gnat_personality_v0+0xbe>
 8007baa:	00db      	lsls	r3, r3, #3
 8007bac:	425a      	negs	r2, r3
 8007bae:	e7bf      	b.n	8007b30 <__gnat_personality_v0+0x29c>
 8007bb0:	005b      	lsls	r3, r3, #1
 8007bb2:	425a      	negs	r2, r3
 8007bb4:	e7bc      	b.n	8007b30 <__gnat_personality_v0+0x29c>
 8007bb6:	f001 fe91 	bl	80098dc <abort>
 8007bba:	4648      	mov	r0, r9
 8007bbc:	f001 f896 	bl	8008cec <__gnat_eid_for>
 8007bc0:	4a12      	ldr	r2, [pc, #72]	; (8007c0c <__gnat_personality_v0+0x378>)
 8007bc2:	4593      	cmp	fp, r2
 8007bc4:	d104      	bne.n	8007bd0 <__gnat_personality_v0+0x33c>
 8007bc6:	2504      	movs	r5, #4
 8007bc8:	e7dd      	b.n	8007b86 <__gnat_personality_v0+0x2f2>
 8007bca:	f001 f91d 	bl	8008e08 <__gnat_notify_unhandled_exception>
 8007bce:	e7e7      	b.n	8007ba0 <__gnat_personality_v0+0x30c>
 8007bd0:	4648      	mov	r0, r9
 8007bd2:	f001 f88b 	bl	8008cec <__gnat_eid_for>
 8007bd6:	4583      	cmp	fp, r0
 8007bd8:	d0d4      	beq.n	8007b84 <__gnat_personality_v0+0x2f0>
 8007bda:	4b09      	ldr	r3, [pc, #36]	; (8007c00 <__gnat_personality_v0+0x36c>)
 8007bdc:	459b      	cmp	fp, r3
 8007bde:	f47f af4d 	bne.w	8007a7c <__gnat_personality_v0+0x1e8>
 8007be2:	f001 f887 	bl	8008cf4 <__gnat_is_handled_by_others>
 8007be6:	2800      	cmp	r0, #0
 8007be8:	d1cc      	bne.n	8007b84 <__gnat_personality_v0+0x2f0>
 8007bea:	e747      	b.n	8007a7c <__gnat_personality_v0+0x1e8>
 8007bec:	2d01      	cmp	r5, #1
 8007bee:	4604      	mov	r4, r0
 8007bf0:	f43f af1f 	beq.w	8007a32 <__gnat_personality_v0+0x19e>
 8007bf4:	e7c8      	b.n	8007b88 <__gnat_personality_v0+0x2f4>
 8007bf6:	bf00      	nop
 8007bf8:	0800df31 	.word	0x0800df31
 8007bfc:	0800d3b4 	.word	0x0800d3b4
 8007c00:	0800df30 	.word	0x0800df30
 8007c04:	2000013c 	.word	0x2000013c
 8007c08:	0800d3bc 	.word	0x0800d3bc
 8007c0c:	0800df32 	.word	0x0800df32

08007c10 <__gnat_cleanupunwind_handler>:
 8007c10:	06ca      	lsls	r2, r1, #27
 8007c12:	d401      	bmi.n	8007c18 <__gnat_cleanupunwind_handler+0x8>
 8007c14:	2000      	movs	r0, #0
 8007c16:	4770      	bx	lr
 8007c18:	b508      	push	{r3, lr}
 8007c1a:	4618      	mov	r0, r3
 8007c1c:	f001 f860 	bl	8008ce0 <__gnat_unhandled_except_handler>
 8007c20:	2000      	movs	r0, #0
 8007c22:	bd08      	pop	{r3, pc}

08007c24 <__gnat_Unwind_RaiseException>:
 8007c24:	f003 b8f2 	b.w	800ae0c <_Unwind_RaiseException>

08007c28 <__gnat_Unwind_ForcedUnwind>:
 8007c28:	f003 b926 	b.w	800ae78 <_Unwind_ForcedUnwind>

08007c2c <__gnat_finalize>:
 8007c2c:	4770      	bx	lr
 8007c2e:	bf00      	nop

08007c30 <__gnat_initialize>:
 8007c30:	4770      	bx	lr
 8007c32:	bf00      	nop

08007c34 <__gnat_runtime_initialize>:
 8007c34:	b510      	push	{r4, lr}
 8007c36:	4c14      	ldr	r4, [pc, #80]	; (8007c88 <__gnat_runtime_initialize+0x54>)
 8007c38:	f7fe ff54 	bl	8006ae4 <system__tasking__initialize>
 8007c3c:	4620      	mov	r0, r4
 8007c3e:	2101      	movs	r1, #1
 8007c40:	2200      	movs	r2, #0
 8007c42:	f7ff f8b5 	bl	8006db0 <system__bb__cpu_primitives__install_trap_handler>
 8007c46:	4620      	mov	r0, r4
 8007c48:	2102      	movs	r1, #2
 8007c4a:	2200      	movs	r2, #0
 8007c4c:	f7ff f8b0 	bl	8006db0 <system__bb__cpu_primitives__install_trap_handler>
 8007c50:	4620      	mov	r0, r4
 8007c52:	2103      	movs	r1, #3
 8007c54:	2200      	movs	r2, #0
 8007c56:	f7ff f8ab 	bl	8006db0 <system__bb__cpu_primitives__install_trap_handler>
 8007c5a:	4620      	mov	r0, r4
 8007c5c:	2105      	movs	r1, #5
 8007c5e:	2200      	movs	r2, #0
 8007c60:	f7ff f8a6 	bl	8006db0 <system__bb__cpu_primitives__install_trap_handler>
 8007c64:	4620      	mov	r0, r4
 8007c66:	2106      	movs	r1, #6
 8007c68:	2200      	movs	r2, #0
 8007c6a:	f7ff f8a1 	bl	8006db0 <system__bb__cpu_primitives__install_trap_handler>
 8007c6e:	4620      	mov	r0, r4
 8007c70:	210e      	movs	r1, #14
 8007c72:	2200      	movs	r2, #0
 8007c74:	f7ff f89c 	bl	8006db0 <system__bb__cpu_primitives__install_trap_handler>
 8007c78:	4620      	mov	r0, r4
 8007c7a:	210b      	movs	r1, #11
 8007c7c:	2200      	movs	r2, #0
 8007c7e:	e8bd 4010 	ldmia.w	sp!, {r4, lr}
 8007c82:	f7ff b895 	b.w	8006db0 <system__bb__cpu_primitives__install_trap_handler>
 8007c86:	bf00      	nop
 8007c88:	08006c1d 	.word	0x08006c1d

08007c8c <__gnat_runtime_finalize>:
 8007c8c:	4770      	bx	lr
 8007c8e:	bf00      	nop

08007c90 <memcmp>:
 8007c90:	b182      	cbz	r2, 8007cb4 <memcmp+0x24>
 8007c92:	b430      	push	{r4, r5}
 8007c94:	3a01      	subs	r2, #1
 8007c96:	f04f 33ff 	mov.w	r3, #4294967295
 8007c9a:	e002      	b.n	8007ca2 <memcmp+0x12>
 8007c9c:	d80c      	bhi.n	8007cb8 <memcmp+0x28>
 8007c9e:	4293      	cmp	r3, r2
 8007ca0:	d00d      	beq.n	8007cbe <memcmp+0x2e>
 8007ca2:	3301      	adds	r3, #1
 8007ca4:	5c1d      	ldrb	r5, [r3, r0]
 8007ca6:	5c5c      	ldrb	r4, [r3, r1]
 8007ca8:	42a5      	cmp	r5, r4
 8007caa:	d2f7      	bcs.n	8007c9c <memcmp+0xc>
 8007cac:	f04f 30ff 	mov.w	r0, #4294967295
 8007cb0:	bc30      	pop	{r4, r5}
 8007cb2:	4770      	bx	lr
 8007cb4:	2000      	movs	r0, #0
 8007cb6:	4770      	bx	lr
 8007cb8:	2001      	movs	r0, #1
 8007cba:	bc30      	pop	{r4, r5}
 8007cbc:	4770      	bx	lr
 8007cbe:	2000      	movs	r0, #0
 8007cc0:	e7f6      	b.n	8007cb0 <memcmp+0x20>
 8007cc2:	bf00      	nop

08007cc4 <ada__tags__htable_subprograms__hashXn>:
 8007cc4:	b430      	push	{r4, r5}
 8007cc6:	7804      	ldrb	r4, [r0, #0]
 8007cc8:	b1d4      	cbz	r4, 8007d00 <ada__tags__htable_subprograms__hashXn+0x3c>
 8007cca:	1c45      	adds	r5, r0, #1
 8007ccc:	4629      	mov	r1, r5
 8007cce:	2201      	movs	r2, #1
 8007cd0:	f811 3b01 	ldrb.w	r3, [r1], #1
 8007cd4:	3201      	adds	r2, #1
 8007cd6:	2b00      	cmp	r3, #0
 8007cd8:	d1fa      	bne.n	8007cd0 <ada__tags__htable_subprograms__hashXn+0xc>
 8007cda:	3a01      	subs	r2, #1
 8007cdc:	4402      	add	r2, r0
 8007cde:	4628      	mov	r0, r5
 8007ce0:	e001      	b.n	8007ce6 <ada__tags__htable_subprograms__hashXn+0x22>
 8007ce2:	f810 4b01 	ldrb.w	r4, [r0], #1
 8007ce6:	0419      	lsls	r1, r3, #16
 8007ce8:	eb01 1183 	add.w	r1, r1, r3, lsl #6
 8007cec:	440c      	add	r4, r1
 8007cee:	4290      	cmp	r0, r2
 8007cf0:	eba4 0303 	sub.w	r3, r4, r3
 8007cf4:	d1f5      	bne.n	8007ce2 <ada__tags__htable_subprograms__hashXn+0x1e>
 8007cf6:	f003 033f 	and.w	r3, r3, #63	; 0x3f
 8007cfa:	1c58      	adds	r0, r3, #1
 8007cfc:	bc30      	pop	{r4, r5}
 8007cfe:	4770      	bx	lr
 8007d00:	2001      	movs	r0, #1
 8007d02:	e7fb      	b.n	8007cfc <ada__tags__htable_subprograms__hashXn+0x38>

08007d04 <ada__tags__external_tag_htable__getXn>:
 8007d04:	b5f8      	push	{r3, r4, r5, r6, r7, lr}
 8007d06:	4605      	mov	r5, r0
 8007d08:	f7ff ffdc 	bl	8007cc4 <ada__tags__htable_subprograms__hashXn>
 8007d0c:	b240      	sxtb	r0, r0
 8007d0e:	f100 4380 	add.w	r3, r0, #1073741824	; 0x40000000
 8007d12:	3b01      	subs	r3, #1
 8007d14:	4a0c      	ldr	r2, [pc, #48]	; (8007d48 <ada__tags__external_tag_htable__getXn+0x44>)
 8007d16:	f852 0023 	ldr.w	r0, [r2, r3, lsl #2]
 8007d1a:	b198      	cbz	r0, 8007d44 <ada__tags__external_tag_htable__getXn+0x40>
 8007d1c:	782f      	ldrb	r7, [r5, #0]
 8007d1e:	f850 6c04 	ldr.w	r6, [r0, #-4]
 8007d22:	6934      	ldr	r4, [r6, #16]
 8007d24:	7823      	ldrb	r3, [r4, #0]
 8007d26:	42bb      	cmp	r3, r7
 8007d28:	d108      	bne.n	8007d3c <ada__tags__external_tag_htable__getXn+0x38>
 8007d2a:	b15f      	cbz	r7, 8007d44 <ada__tags__external_tag_htable__getXn+0x40>
 8007d2c:	2301      	movs	r3, #1
 8007d2e:	e001      	b.n	8007d34 <ada__tags__external_tag_htable__getXn+0x30>
 8007d30:	3301      	adds	r3, #1
 8007d32:	b13a      	cbz	r2, 8007d44 <ada__tags__external_tag_htable__getXn+0x40>
 8007d34:	5ce2      	ldrb	r2, [r4, r3]
 8007d36:	5d59      	ldrb	r1, [r3, r5]
 8007d38:	428a      	cmp	r2, r1
 8007d3a:	d0f9      	beq.n	8007d30 <ada__tags__external_tag_htable__getXn+0x2c>
 8007d3c:	6973      	ldr	r3, [r6, #20]
 8007d3e:	6818      	ldr	r0, [r3, #0]
 8007d40:	2800      	cmp	r0, #0
 8007d42:	d1ec      	bne.n	8007d1e <ada__tags__external_tag_htable__getXn+0x1a>
 8007d44:	bdf8      	pop	{r3, r4, r5, r6, r7, pc}
 8007d46:	bf00      	nop
 8007d48:	20003dbc 	.word	0x20003dbc

08007d4c <ada__tags__external_tag_htable__setXn>:
 8007d4c:	b538      	push	{r3, r4, r5, lr}
 8007d4e:	f850 5c04 	ldr.w	r5, [r0, #-4]
 8007d52:	4604      	mov	r4, r0
 8007d54:	6928      	ldr	r0, [r5, #16]
 8007d56:	f7ff ffb5 	bl	8007cc4 <ada__tags__htable_subprograms__hashXn>
 8007d5a:	f06f 4340 	mvn.w	r3, #3221225472	; 0xc0000000
 8007d5e:	fa43 f080 	sxtab	r0, r3, r0
 8007d62:	4a04      	ldr	r2, [pc, #16]	; (8007d74 <ada__tags__external_tag_htable__setXn+0x28>)
 8007d64:	6969      	ldr	r1, [r5, #20]
 8007d66:	f852 3020 	ldr.w	r3, [r2, r0, lsl #2]
 8007d6a:	600b      	str	r3, [r1, #0]
 8007d6c:	f842 4020 	str.w	r4, [r2, r0, lsl #2]
 8007d70:	bd38      	pop	{r3, r4, r5, pc}
 8007d72:	bf00      	nop
 8007d74:	20003dbc 	.word	0x20003dbc

08007d78 <ada__tags__check_tsd>:
 8007d78:	b5f0      	push	{r4, r5, r6, r7, lr}
 8007d7a:	b083      	sub	sp, #12
 8007d7c:	af00      	add	r7, sp, #0
 8007d7e:	6905      	ldr	r5, [r0, #16]
 8007d80:	782b      	ldrb	r3, [r5, #0]
 8007d82:	b173      	cbz	r3, 8007da2 <ada__tags__check_tsd+0x2a>
 8007d84:	1c6b      	adds	r3, r5, #1
 8007d86:	2401      	movs	r4, #1
 8007d88:	f813 2b01 	ldrb.w	r2, [r3], #1
 8007d8c:	3401      	adds	r4, #1
 8007d8e:	2a00      	cmp	r2, #0
 8007d90:	d1fa      	bne.n	8007d88 <ada__tags__check_tsd+0x10>
 8007d92:	1e66      	subs	r6, r4, #1
 8007d94:	4628      	mov	r0, r5
 8007d96:	f7ff ffb5 	bl	8007d04 <ada__tags__external_tag_htable__getXn>
 8007d9a:	b928      	cbnz	r0, 8007da8 <ada__tags__check_tsd+0x30>
 8007d9c:	370c      	adds	r7, #12
 8007d9e:	46bd      	mov	sp, r7
 8007da0:	bdf0      	pop	{r4, r5, r6, r7, pc}
 8007da2:	461e      	mov	r6, r3
 8007da4:	2401      	movs	r4, #1
 8007da6:	e7f5      	b.n	8007d94 <ada__tags__check_tsd+0x1c>
 8007da8:	f8df e05c 	ldr.w	lr, [pc, #92]	; 8007e08 <ada__tags__check_tsd+0x90>
 8007dac:	3419      	adds	r4, #25
 8007dae:	e8be 000f 	ldmia.w	lr!, {r0, r1, r2, r3}
 8007db2:	ea24 7ce4 	bic.w	ip, r4, r4, asr #31
 8007db6:	f10c 0c07 	add.w	ip, ip, #7
 8007dba:	f02c 0c07 	bic.w	ip, ip, #7
 8007dbe:	ebad 0d0c 	sub.w	sp, sp, ip
 8007dc2:	9000      	str	r0, [sp, #0]
 8007dc4:	9101      	str	r1, [sp, #4]
 8007dc6:	e8be 0003 	ldmia.w	lr!, {r0, r1}
 8007dca:	9202      	str	r2, [sp, #8]
 8007dcc:	9105      	str	r1, [sp, #20]
 8007dce:	ea26 72e6 	bic.w	r2, r6, r6, asr #31
 8007dd2:	4629      	mov	r1, r5
 8007dd4:	f89e 6000 	ldrb.w	r6, [lr]
 8007dd8:	9004      	str	r0, [sp, #16]
 8007dda:	eb0d 0504 	add.w	r5, sp, r4
 8007dde:	f88d 6018 	strb.w	r6, [sp, #24]
 8007de2:	f10d 0019 	add.w	r0, sp, #25
 8007de6:	2622      	movs	r6, #34	; 0x22
 8007de8:	9303      	str	r3, [sp, #12]
 8007dea:	f001 fc5b 	bl	80096a4 <memmove>
 8007dee:	2101      	movs	r1, #1
 8007df0:	466a      	mov	r2, sp
 8007df2:	4804      	ldr	r0, [pc, #16]	; (8007e04 <ada__tags__check_tsd+0x8c>)
 8007df4:	f805 6c01 	strb.w	r6, [r5, #-1]
 8007df8:	463b      	mov	r3, r7
 8007dfa:	607c      	str	r4, [r7, #4]
 8007dfc:	6039      	str	r1, [r7, #0]
 8007dfe:	f001 f8e7 	bl	8008fd0 <__gnat_raise_exception>
 8007e02:	bf00      	nop
 8007e04:	20000254 	.word	0x20000254
 8007e08:	0800d3e8 	.word	0x0800d3e8

08007e0c <ada__tags__register_interface_offset>:
 8007e0c:	b5f8      	push	{r3, r4, r5, r6, r7, lr}
 8007e0e:	6800      	ldr	r0, [r0, #0]
 8007e10:	f850 0c04 	ldr.w	r0, [r0, #-4]
 8007e14:	6a07      	ldr	r7, [r0, #32]
 8007e16:	b317      	cbz	r7, 8007e5e <ada__tags__register_interface_offset+0x52>
 8007e18:	469e      	mov	lr, r3
 8007e1a:	f8d7 c000 	ldr.w	ip, [r7]
 8007e1e:	2000      	movs	r0, #0
 8007e20:	e001      	b.n	8007e26 <ada__tags__register_interface_offset+0x1a>
 8007e22:	4584      	cmp	ip, r0
 8007e24:	d01b      	beq.n	8007e5e <ada__tags__register_interface_offset+0x52>
 8007e26:	3001      	adds	r0, #1
 8007e28:	0085      	lsls	r5, r0, #2
 8007e2a:	182c      	adds	r4, r5, r0
 8007e2c:	eb07 0484 	add.w	r4, r7, r4, lsl #2
 8007e30:	f1a4 0614 	sub.w	r6, r4, #20
 8007e34:	6873      	ldr	r3, [r6, #4]
 8007e36:	428b      	cmp	r3, r1
 8007e38:	d1f3      	bne.n	8007e22 <ada__tags__register_interface_offset+0x16>
 8007e3a:	b912      	cbnz	r2, 8007e42 <ada__tags__register_interface_offset+0x36>
 8007e3c:	f1be 0f00 	cmp.w	lr, #0
 8007e40:	d108      	bne.n	8007e54 <ada__tags__register_interface_offset+0x48>
 8007e42:	4428      	add	r0, r5
 8007e44:	eb07 0080 	add.w	r0, r7, r0, lsl #2
 8007e48:	2201      	movs	r2, #1
 8007e4a:	f840 ec08 	str.w	lr, [r0, #-8]
 8007e4e:	f800 2c0c 	strb.w	r2, [r0, #-12]
 8007e52:	bdf8      	pop	{r3, r4, r5, r6, r7, pc}
 8007e54:	9b06      	ldr	r3, [sp, #24]
 8007e56:	7232      	strb	r2, [r6, #8]
 8007e58:	f844 3c04 	str.w	r3, [r4, #-4]
 8007e5c:	bdf8      	pop	{r3, r4, r5, r6, r7, pc}
 8007e5e:	4802      	ldr	r0, [pc, #8]	; (8007e68 <ada__tags__register_interface_offset+0x5c>)
 8007e60:	f240 3182 	movw	r1, #898	; 0x382
 8007e64:	f001 f92e 	bl	80090c4 <__gnat_rcheck_PE_Explicit_Raise>
 8007e68:	0800d4ac 	.word	0x0800d4ac

08007e6c <ada__tags__register_tag>:
 8007e6c:	f7ff bf6e 	b.w	8007d4c <ada__tags__external_tag_htable__setXn>

08007e70 <ada__tags___elabb>:
 8007e70:	4b04      	ldr	r3, [pc, #16]	; (8007e84 <ada__tags___elabb+0x14>)
 8007e72:	2100      	movs	r1, #0
 8007e74:	f503 7280 	add.w	r2, r3, #256	; 0x100
 8007e78:	f843 1b04 	str.w	r1, [r3], #4
 8007e7c:	4293      	cmp	r3, r2
 8007e7e:	d1fb      	bne.n	8007e78 <ada__tags___elabb+0x8>
 8007e80:	4770      	bx	lr
 8007e82:	bf00      	nop
 8007e84:	20003dbc 	.word	0x20003dbc

08007e88 <system__stream_attributes__i_as>:
 8007e88:	b500      	push	{lr}
 8007e8a:	b083      	sub	sp, #12
 8007e8c:	6802      	ldr	r2, [r0, #0]
 8007e8e:	4b09      	ldr	r3, [pc, #36]	; (8007eb4 <system__stream_attributes__i_as+0x2c>)
 8007e90:	6811      	ldr	r1, [r2, #0]
 8007e92:	aa01      	add	r2, sp, #4
 8007e94:	4788      	blx	r1
 8007e96:	2804      	cmp	r0, #4
 8007e98:	f171 0300 	sbcs.w	r3, r1, #0
 8007e9c:	db03      	blt.n	8007ea6 <system__stream_attributes__i_as+0x1e>
 8007e9e:	9801      	ldr	r0, [sp, #4]
 8007ea0:	b003      	add	sp, #12
 8007ea2:	f85d fb04 	ldr.w	pc, [sp], #4
 8007ea6:	4a04      	ldr	r2, [pc, #16]	; (8007eb8 <system__stream_attributes__i_as+0x30>)
 8007ea8:	4804      	ldr	r0, [pc, #16]	; (8007ebc <system__stream_attributes__i_as+0x34>)
 8007eaa:	f1a2 0318 	sub.w	r3, r2, #24
 8007eae:	f001 f88f 	bl	8008fd0 <__gnat_raise_exception>
 8007eb2:	bf00      	nop
 8007eb4:	0800d538 	.word	0x0800d538
 8007eb8:	0800d548 	.word	0x0800d548
 8007ebc:	20000294 	.word	0x20000294

08007ec0 <system__stream_attributes__i_b>:
 8007ec0:	b500      	push	{lr}
 8007ec2:	b083      	sub	sp, #12
 8007ec4:	6802      	ldr	r2, [r0, #0]
 8007ec6:	4b09      	ldr	r3, [pc, #36]	; (8007eec <system__stream_attributes__i_b+0x2c>)
 8007ec8:	6811      	ldr	r1, [r2, #0]
 8007eca:	aa01      	add	r2, sp, #4
 8007ecc:	4788      	blx	r1
 8007ece:	2801      	cmp	r0, #1
 8007ed0:	f171 0300 	sbcs.w	r3, r1, #0
 8007ed4:	db04      	blt.n	8007ee0 <system__stream_attributes__i_b+0x20>
 8007ed6:	f89d 0004 	ldrb.w	r0, [sp, #4]
 8007eda:	b003      	add	sp, #12
 8007edc:	f85d fb04 	ldr.w	pc, [sp], #4
 8007ee0:	4a03      	ldr	r2, [pc, #12]	; (8007ef0 <system__stream_attributes__i_b+0x30>)
 8007ee2:	4804      	ldr	r0, [pc, #16]	; (8007ef4 <system__stream_attributes__i_b+0x34>)
 8007ee4:	f1a2 0338 	sub.w	r3, r2, #56	; 0x38
 8007ee8:	f001 f872 	bl	8008fd0 <__gnat_raise_exception>
 8007eec:	0800d558 	.word	0x0800d558
 8007ef0:	0800d568 	.word	0x0800d568
 8007ef4:	20000294 	.word	0x20000294

08007ef8 <system__stream_attributes__i_ssu>:
 8007ef8:	b500      	push	{lr}
 8007efa:	b083      	sub	sp, #12
 8007efc:	6802      	ldr	r2, [r0, #0]
 8007efe:	4b09      	ldr	r3, [pc, #36]	; (8007f24 <system__stream_attributes__i_ssu+0x2c>)
 8007f00:	6811      	ldr	r1, [r2, #0]
 8007f02:	aa01      	add	r2, sp, #4
 8007f04:	4788      	blx	r1
 8007f06:	2801      	cmp	r0, #1
 8007f08:	f171 0300 	sbcs.w	r3, r1, #0
 8007f0c:	db04      	blt.n	8007f18 <system__stream_attributes__i_ssu+0x20>
 8007f0e:	f89d 0004 	ldrb.w	r0, [sp, #4]
 8007f12:	b003      	add	sp, #12
 8007f14:	f85d fb04 	ldr.w	pc, [sp], #4
 8007f18:	4a03      	ldr	r2, [pc, #12]	; (8007f28 <system__stream_attributes__i_ssu+0x30>)
 8007f1a:	4804      	ldr	r0, [pc, #16]	; (8007f2c <system__stream_attributes__i_ssu+0x34>)
 8007f1c:	f5a2 738c 	sub.w	r3, r2, #280	; 0x118
 8007f20:	f001 f856 	bl	8008fd0 <__gnat_raise_exception>
 8007f24:	0800d558 	.word	0x0800d558
 8007f28:	0800d648 	.word	0x0800d648
 8007f2c:	20000294 	.word	0x20000294

08007f30 <system__stream_attributes__i_su>:
 8007f30:	b500      	push	{lr}
 8007f32:	b083      	sub	sp, #12
 8007f34:	6802      	ldr	r2, [r0, #0]
 8007f36:	4b09      	ldr	r3, [pc, #36]	; (8007f5c <system__stream_attributes__i_su+0x2c>)
 8007f38:	6811      	ldr	r1, [r2, #0]
 8007f3a:	aa01      	add	r2, sp, #4
 8007f3c:	4788      	blx	r1
 8007f3e:	2802      	cmp	r0, #2
 8007f40:	f171 0300 	sbcs.w	r3, r1, #0
 8007f44:	db04      	blt.n	8007f50 <system__stream_attributes__i_su+0x20>
 8007f46:	f8bd 0004 	ldrh.w	r0, [sp, #4]
 8007f4a:	b003      	add	sp, #12
 8007f4c:	f85d fb04 	ldr.w	pc, [sp], #4
 8007f50:	4a03      	ldr	r2, [pc, #12]	; (8007f60 <system__stream_attributes__i_su+0x30>)
 8007f52:	4804      	ldr	r0, [pc, #16]	; (8007f64 <system__stream_attributes__i_su+0x34>)
 8007f54:	f5a2 7394 	sub.w	r3, r2, #296	; 0x128
 8007f58:	f001 f83a 	bl	8008fd0 <__gnat_raise_exception>
 8007f5c:	0800d618 	.word	0x0800d618
 8007f60:	0800d658 	.word	0x0800d658
 8007f64:	20000294 	.word	0x20000294

08007f68 <system__stream_attributes__i_u>:
 8007f68:	b500      	push	{lr}
 8007f6a:	b083      	sub	sp, #12
 8007f6c:	6802      	ldr	r2, [r0, #0]
 8007f6e:	4b09      	ldr	r3, [pc, #36]	; (8007f94 <system__stream_attributes__i_u+0x2c>)
 8007f70:	6811      	ldr	r1, [r2, #0]
 8007f72:	aa01      	add	r2, sp, #4
 8007f74:	4788      	blx	r1
 8007f76:	2804      	cmp	r0, #4
 8007f78:	f171 0300 	sbcs.w	r3, r1, #0
 8007f7c:	db03      	blt.n	8007f86 <system__stream_attributes__i_u+0x1e>
 8007f7e:	9801      	ldr	r0, [sp, #4]
 8007f80:	b003      	add	sp, #12
 8007f82:	f85d fb04 	ldr.w	pc, [sp], #4
 8007f86:	4a04      	ldr	r2, [pc, #16]	; (8007f98 <system__stream_attributes__i_u+0x30>)
 8007f88:	4804      	ldr	r0, [pc, #16]	; (8007f9c <system__stream_attributes__i_u+0x34>)
 8007f8a:	f5a2 739c 	sub.w	r3, r2, #312	; 0x138
 8007f8e:	f001 f81f 	bl	8008fd0 <__gnat_raise_exception>
 8007f92:	bf00      	nop
 8007f94:	0800d538 	.word	0x0800d538
 8007f98:	0800d668 	.word	0x0800d668
 8007f9c:	20000294 	.word	0x20000294

08007fa0 <system__stream_attributes__w_as>:
 8007fa0:	b500      	push	{lr}
 8007fa2:	b085      	sub	sp, #20
 8007fa4:	6803      	ldr	r3, [r0, #0]
 8007fa6:	9101      	str	r1, [sp, #4]
 8007fa8:	aa04      	add	r2, sp, #16
 8007faa:	f842 1d04 	str.w	r1, [r2, #-4]!
 8007fae:	6859      	ldr	r1, [r3, #4]
 8007fb0:	4b02      	ldr	r3, [pc, #8]	; (8007fbc <system__stream_attributes__w_as+0x1c>)
 8007fb2:	4788      	blx	r1
 8007fb4:	b005      	add	sp, #20
 8007fb6:	f85d fb04 	ldr.w	pc, [sp], #4
 8007fba:	bf00      	nop
 8007fbc:	0800d538 	.word	0x0800d538

08007fc0 <system__stream_attributes__w_b>:
 8007fc0:	b500      	push	{lr}
 8007fc2:	b083      	sub	sp, #12
 8007fc4:	6803      	ldr	r3, [r0, #0]
 8007fc6:	aa02      	add	r2, sp, #8
 8007fc8:	f802 1d04 	strb.w	r1, [r2, #-4]!
 8007fcc:	6859      	ldr	r1, [r3, #4]
 8007fce:	4b02      	ldr	r3, [pc, #8]	; (8007fd8 <system__stream_attributes__w_b+0x18>)
 8007fd0:	4788      	blx	r1
 8007fd2:	b003      	add	sp, #12
 8007fd4:	f85d fb04 	ldr.w	pc, [sp], #4
 8007fd8:	0800d558 	.word	0x0800d558

08007fdc <system__stream_attributes__w_ssu>:
 8007fdc:	b500      	push	{lr}
 8007fde:	b083      	sub	sp, #12
 8007fe0:	6803      	ldr	r3, [r0, #0]
 8007fe2:	aa02      	add	r2, sp, #8
 8007fe4:	f802 1d04 	strb.w	r1, [r2, #-4]!
 8007fe8:	6859      	ldr	r1, [r3, #4]
 8007fea:	4b02      	ldr	r3, [pc, #8]	; (8007ff4 <system__stream_attributes__w_ssu+0x18>)
 8007fec:	4788      	blx	r1
 8007fee:	b003      	add	sp, #12
 8007ff0:	f85d fb04 	ldr.w	pc, [sp], #4
 8007ff4:	0800d558 	.word	0x0800d558

08007ff8 <system__stream_attributes__w_su>:
 8007ff8:	b500      	push	{lr}
 8007ffa:	b085      	sub	sp, #20
 8007ffc:	6803      	ldr	r3, [r0, #0]
 8007ffe:	f8ad 1006 	strh.w	r1, [sp, #6]
 8008002:	aa04      	add	r2, sp, #16
 8008004:	f822 1d04 	strh.w	r1, [r2, #-4]!
 8008008:	6859      	ldr	r1, [r3, #4]
 800800a:	4b02      	ldr	r3, [pc, #8]	; (8008014 <system__stream_attributes__w_su+0x1c>)
 800800c:	4788      	blx	r1
 800800e:	b005      	add	sp, #20
 8008010:	f85d fb04 	ldr.w	pc, [sp], #4
 8008014:	0800d618 	.word	0x0800d618

08008018 <system__stream_attributes__w_u>:
 8008018:	b500      	push	{lr}
 800801a:	b085      	sub	sp, #20
 800801c:	6803      	ldr	r3, [r0, #0]
 800801e:	9101      	str	r1, [sp, #4]
 8008020:	aa04      	add	r2, sp, #16
 8008022:	f842 1d04 	str.w	r1, [r2, #-4]!
 8008026:	6859      	ldr	r1, [r3, #4]
 8008028:	4b02      	ldr	r3, [pc, #8]	; (8008034 <system__stream_attributes__w_u+0x1c>)
 800802a:	4788      	blx	r1
 800802c:	b005      	add	sp, #20
 800802e:	f85d fb04 	ldr.w	pc, [sp], #4
 8008032:	bf00      	nop
 8008034:	0800d538 	.word	0x0800d538

08008038 <ada__finalization__adjust>:
 8008038:	4770      	bx	lr
 800803a:	bf00      	nop

0800803c <ada__finalization__initialize>:
 800803c:	4770      	bx	lr
 800803e:	bf00      	nop

08008040 <ada__finalization__finalize>:
 8008040:	4770      	bx	lr
 8008042:	bf00      	nop

08008044 <ada__finalization___size__3>:
 8008044:	2020      	movs	r0, #32
 8008046:	2100      	movs	r1, #0
 8008048:	4770      	bx	lr
 800804a:	bf00      	nop

0800804c <ada__finalization___assign__3>:
 800804c:	4770      	bx	lr
 800804e:	bf00      	nop

08008050 <ada__finalization__controlledDA__2>:
 8008050:	4770      	bx	lr
 8008052:	bf00      	nop

08008054 <ada__finalization__controlledDF__2>:
 8008054:	4770      	bx	lr
 8008056:	bf00      	nop

08008058 <ada__finalization__initialize__2>:
 8008058:	4770      	bx	lr
 800805a:	bf00      	nop

0800805c <ada__finalization__finalize__2>:
 800805c:	4770      	bx	lr
 800805e:	bf00      	nop

08008060 <ada__finalization___size__4>:
 8008060:	2020      	movs	r0, #32
 8008062:	2100      	movs	r1, #0
 8008064:	4770      	bx	lr
 8008066:	bf00      	nop

08008068 <ada__finalization__limited_controlledDF__2>:
 8008068:	4770      	bx	lr
 800806a:	bf00      	nop

0800806c <ada__finalization__controlledSR__2>:
 800806c:	f001 bbe4 	b.w	8009838 <system__finalization_root__root_controlledSR>

08008070 <ada__finalization__controlledSW__2>:
 8008070:	f001 bbe4 	b.w	800983c <system__finalization_root__root_controlledSW>

08008074 <ada__finalization__controlledSO__2>:
 8008074:	f001 bbe2 	b.w	800983c <system__finalization_root__root_controlledSW>

08008078 <ada__finalization__Oeq__3>:
 8008078:	f001 bbe4 	b.w	8009844 <system__finalization_root__Oeq>

0800807c <ada__finalization___elabs>:
 800807c:	b508      	push	{r3, lr}
 800807e:	4804      	ldr	r0, [pc, #16]	; (8008090 <ada__finalization___elabs+0x14>)
 8008080:	f7ff fef4 	bl	8007e6c <ada__tags__register_tag>
 8008084:	4803      	ldr	r0, [pc, #12]	; (8008094 <ada__finalization___elabs+0x18>)
 8008086:	e8bd 4008 	ldmia.w	sp!, {r3, lr}
 800808a:	f7ff beef 	b.w	8007e6c <ada__tags__register_tag>
 800808e:	bf00      	nop
 8008090:	0800d6ac 	.word	0x0800d6ac
 8008094:	0800d794 	.word	0x0800d794

08008098 <system__finalization_masters___size__2>:
 8008098:	20e0      	movs	r0, #224	; 0xe0
 800809a:	2100      	movs	r1, #0
 800809c:	4770      	bx	lr
 800809e:	bf00      	nop

080080a0 <system__finalization_masters__base_pool>:
 80080a0:	6880      	ldr	r0, [r0, #8]
 80080a2:	4770      	bx	lr

080080a4 <system__finalization_masters__finalize_address>:
 80080a4:	6940      	ldr	r0, [r0, #20]
 80080a6:	4770      	bx	lr

080080a8 <system__finalization_masters__finalization_started>:
 80080a8:	7e00      	ldrb	r0, [r0, #24]
 80080aa:	4770      	bx	lr

080080ac <system__finalization_masters__initialize__2>:
 80080ac:	f100 030c 	add.w	r3, r0, #12
 80080b0:	6103      	str	r3, [r0, #16]
 80080b2:	60c3      	str	r3, [r0, #12]
 80080b4:	4770      	bx	lr
 80080b6:	bf00      	nop

080080b8 <system__finalization_masters__is_homogeneous>:
 80080b8:	7900      	ldrb	r0, [r0, #4]
 80080ba:	4770      	bx	lr

080080bc <system__finalization_masters__objects>:
 80080bc:	300c      	adds	r0, #12
 80080be:	4770      	bx	lr

080080c0 <system__finalization_masters__set_base_pool>:
 80080c0:	6081      	str	r1, [r0, #8]
 80080c2:	4770      	bx	lr

080080c4 <system__finalization_masters__set_finalize_address>:
 80080c4:	b570      	push	{r4, r5, r6, lr}
 80080c6:	4b09      	ldr	r3, [pc, #36]	; (80080ec <system__finalization_masters__set_finalize_address+0x28>)
 80080c8:	4604      	mov	r4, r0
 80080ca:	681b      	ldr	r3, [r3, #0]
 80080cc:	460d      	mov	r5, r1
 80080ce:	4798      	blx	r3
 80080d0:	6963      	ldr	r3, [r4, #20]
 80080d2:	b123      	cbz	r3, 80080de <system__finalization_masters__set_finalize_address+0x1a>
 80080d4:	4b06      	ldr	r3, [pc, #24]	; (80080f0 <system__finalization_masters__set_finalize_address+0x2c>)
 80080d6:	e8bd 4070 	ldmia.w	sp!, {r4, r5, r6, lr}
 80080da:	681b      	ldr	r3, [r3, #0]
 80080dc:	4718      	bx	r3
 80080de:	4b04      	ldr	r3, [pc, #16]	; (80080f0 <system__finalization_masters__set_finalize_address+0x2c>)
 80080e0:	6165      	str	r5, [r4, #20]
 80080e2:	681b      	ldr	r3, [r3, #0]
 80080e4:	e8bd 4070 	ldmia.w	sp!, {r4, r5, r6, lr}
 80080e8:	4718      	bx	r3
 80080ea:	bf00      	nop
 80080ec:	200001c8 	.word	0x200001c8
 80080f0:	200001c0 	.word	0x200001c0

080080f4 <system__finalization_masters__set_finalize_address_unprotected>:
 80080f4:	6943      	ldr	r3, [r0, #20]
 80080f6:	b103      	cbz	r3, 80080fa <system__finalization_masters__set_finalize_address_unprotected+0x6>
 80080f8:	4770      	bx	lr
 80080fa:	6141      	str	r1, [r0, #20]
 80080fc:	4770      	bx	lr
 80080fe:	bf00      	nop

08008100 <system__finalization_masters__set_is_heterogeneous>:
 8008100:	b510      	push	{r4, lr}
 8008102:	4b05      	ldr	r3, [pc, #20]	; (8008118 <system__finalization_masters__set_is_heterogeneous+0x18>)
 8008104:	681b      	ldr	r3, [r3, #0]
 8008106:	4604      	mov	r4, r0
 8008108:	4798      	blx	r3
 800810a:	4b04      	ldr	r3, [pc, #16]	; (800811c <system__finalization_masters__set_is_heterogeneous+0x1c>)
 800810c:	2200      	movs	r2, #0
 800810e:	7122      	strb	r2, [r4, #4]
 8008110:	681b      	ldr	r3, [r3, #0]
 8008112:	e8bd 4010 	ldmia.w	sp!, {r4, lr}
 8008116:	4718      	bx	r3
 8008118:	200001c8 	.word	0x200001c8
 800811c:	200001c0 	.word	0x200001c0

08008120 <system__finalization_masters__print_master>:
 8008120:	e92d 41f0 	stmdb	sp!, {r4, r5, r6, r7, r8, lr}
 8008124:	b08a      	sub	sp, #40	; 0x28
 8008126:	4604      	mov	r4, r0
 8008128:	f001 f84a 	bl	80091c0 <system__secondary_stack__ss_mark>
 800812c:	4680      	mov	r8, r0
 800812e:	4876      	ldr	r0, [pc, #472]	; (8008308 <system__finalization_masters__print_master+0x1e8>)
 8008130:	f100 010c 	add.w	r1, r0, #12
 8008134:	f104 050c 	add.w	r5, r4, #12
 8008138:	f001 f936 	bl	80093a8 <system__io__put__3>
 800813c:	4668      	mov	r0, sp
 800813e:	4621      	mov	r1, r4
 8008140:	f001 f84a 	bl	80091d8 <_ada_system__address_image>
 8008144:	e9dd 0100 	ldrd	r0, r1, [sp]
 8008148:	f001 f93e 	bl	80093c8 <system__io__put_line>
 800814c:	486f      	ldr	r0, [pc, #444]	; (800830c <system__finalization_masters__print_master+0x1ec>)
 800814e:	f1a0 0108 	sub.w	r1, r0, #8
 8008152:	f001 f929 	bl	80093a8 <system__io__put__3>
 8008156:	aa02      	add	r2, sp, #8
 8008158:	7920      	ldrb	r0, [r4, #4]
 800815a:	4b6d      	ldr	r3, [pc, #436]	; (8008310 <system__finalization_masters__print_master+0x1f0>)
 800815c:	f001 fe82 	bl	8009e64 <system__img_bool__image_boolean>
 8008160:	9007      	str	r0, [sp, #28]
 8008162:	2301      	movs	r3, #1
 8008164:	a802      	add	r0, sp, #8
 8008166:	a906      	add	r1, sp, #24
 8008168:	9306      	str	r3, [sp, #24]
 800816a:	f001 f92d 	bl	80093c8 <system__io__put_line>
 800816e:	4869      	ldr	r0, [pc, #420]	; (8008314 <system__finalization_masters__print_master+0x1f4>)
 8008170:	f1a0 011c 	sub.w	r1, r0, #28
 8008174:	f001 f918 	bl	80093a8 <system__io__put__3>
 8008178:	68a3      	ldr	r3, [r4, #8]
 800817a:	2b00      	cmp	r3, #0
 800817c:	f000 80ac 	beq.w	80082d8 <system__finalization_masters__print_master+0x1b8>
 8008180:	4668      	mov	r0, sp
 8008182:	f104 0108 	add.w	r1, r4, #8
 8008186:	f001 f827 	bl	80091d8 <_ada_system__address_image>
 800818a:	e9dd 0100 	ldrd	r0, r1, [sp]
 800818e:	f001 f91b 	bl	80093c8 <system__io__put_line>
 8008192:	4861      	ldr	r0, [pc, #388]	; (8008318 <system__finalization_masters__print_master+0x1f8>)
 8008194:	f1a0 0134 	sub.w	r1, r0, #52	; 0x34
 8008198:	f001 f906 	bl	80093a8 <system__io__put__3>
 800819c:	6963      	ldr	r3, [r4, #20]
 800819e:	2b00      	cmp	r3, #0
 80081a0:	f000 809f 	beq.w	80082e2 <system__finalization_masters__print_master+0x1c2>
 80081a4:	4668      	mov	r0, sp
 80081a6:	f104 0114 	add.w	r1, r4, #20
 80081aa:	f001 f815 	bl	80091d8 <_ada_system__address_image>
 80081ae:	e9dd 0100 	ldrd	r0, r1, [sp]
 80081b2:	f001 f909 	bl	80093c8 <system__io__put_line>
 80081b6:	4859      	ldr	r0, [pc, #356]	; (800831c <system__finalization_masters__print_master+0x1fc>)
 80081b8:	f1a0 0140 	sub.w	r1, r0, #64	; 0x40
 80081bc:	f001 f8f4 	bl	80093a8 <system__io__put__3>
 80081c0:	7e20      	ldrb	r0, [r4, #24]
 80081c2:	4b53      	ldr	r3, [pc, #332]	; (8008310 <system__finalization_masters__print_master+0x1f0>)
 80081c4:	aa04      	add	r2, sp, #16
 80081c6:	f001 fe4d 	bl	8009e64 <system__img_bool__image_boolean>
 80081ca:	9009      	str	r0, [sp, #36]	; 0x24
 80081cc:	2301      	movs	r3, #1
 80081ce:	a804      	add	r0, sp, #16
 80081d0:	a908      	add	r1, sp, #32
 80081d2:	9308      	str	r3, [sp, #32]
 80081d4:	f001 f8f8 	bl	80093c8 <system__io__put_line>
 80081d8:	2d00      	cmp	r5, #0
 80081da:	d077      	beq.n	80082cc <system__finalization_masters__print_master+0x1ac>
 80081dc:	462c      	mov	r4, r5
 80081de:	2700      	movs	r7, #0
 80081e0:	e04f      	b.n	8008282 <system__finalization_masters__print_master+0x162>
 80081e2:	6823      	ldr	r3, [r4, #0]
 80081e4:	2b00      	cmp	r3, #0
 80081e6:	d06b      	beq.n	80082c0 <system__finalization_masters__print_master+0x1a0>
 80081e8:	685b      	ldr	r3, [r3, #4]
 80081ea:	429c      	cmp	r4, r3
 80081ec:	d062      	beq.n	80082b4 <system__finalization_masters__print_master+0x194>
 80081ee:	484c      	ldr	r0, [pc, #304]	; (8008320 <system__finalization_masters__print_master+0x200>)
 80081f0:	f1a0 010c 	sub.w	r1, r0, #12
 80081f4:	f001 f8e8 	bl	80093c8 <system__io__put_line>
 80081f8:	484a      	ldr	r0, [pc, #296]	; (8008324 <system__finalization_masters__print_master+0x204>)
 80081fa:	f100 010c 	add.w	r1, r0, #12
 80081fe:	f001 f8d3 	bl	80093a8 <system__io__put__3>
 8008202:	f000 ffdd 	bl	80091c0 <system__secondary_stack__ss_mark>
 8008206:	4606      	mov	r6, r0
 8008208:	4621      	mov	r1, r4
 800820a:	4668      	mov	r0, sp
 800820c:	f000 ffe4 	bl	80091d8 <_ada_system__address_image>
 8008210:	e9dd 0100 	ldrd	r0, r1, [sp]
 8008214:	f001 f8c8 	bl	80093a8 <system__io__put__3>
 8008218:	4630      	mov	r0, r6
 800821a:	f000 ffd7 	bl	80091cc <system__secondary_stack__ss_release>
 800821e:	42ac      	cmp	r4, r5
 8008220:	d042      	beq.n	80082a8 <system__finalization_masters__print_master+0x188>
 8008222:	4841      	ldr	r0, [pc, #260]	; (8008328 <system__finalization_masters__print_master+0x208>)
 8008224:	4601      	mov	r1, r0
 8008226:	f001 f8cf 	bl	80093c8 <system__io__put_line>
 800822a:	4840      	ldr	r0, [pc, #256]	; (800832c <system__finalization_masters__print_master+0x20c>)
 800822c:	f1a0 0130 	sub.w	r1, r0, #48	; 0x30
 8008230:	f001 f8ba 	bl	80093a8 <system__io__put__3>
 8008234:	6823      	ldr	r3, [r4, #0]
 8008236:	b393      	cbz	r3, 800829e <system__finalization_masters__print_master+0x17e>
 8008238:	f000 ffc2 	bl	80091c0 <system__secondary_stack__ss_mark>
 800823c:	4606      	mov	r6, r0
 800823e:	6821      	ldr	r1, [r4, #0]
 8008240:	4668      	mov	r0, sp
 8008242:	f000 ffc9 	bl	80091d8 <_ada_system__address_image>
 8008246:	e9dd 0100 	ldrd	r0, r1, [sp]
 800824a:	f001 f8bd 	bl	80093c8 <system__io__put_line>
 800824e:	4630      	mov	r0, r6
 8008250:	f000 ffbc 	bl	80091cc <system__secondary_stack__ss_release>
 8008254:	4836      	ldr	r0, [pc, #216]	; (8008330 <system__finalization_masters__print_master+0x210>)
 8008256:	f1a0 0144 	sub.w	r1, r0, #68	; 0x44
 800825a:	f001 f8a5 	bl	80093a8 <system__io__put__3>
 800825e:	6863      	ldr	r3, [r4, #4]
 8008260:	b1c3      	cbz	r3, 8008294 <system__finalization_masters__print_master+0x174>
 8008262:	f000 ffad 	bl	80091c0 <system__secondary_stack__ss_mark>
 8008266:	4606      	mov	r6, r0
 8008268:	6861      	ldr	r1, [r4, #4]
 800826a:	4668      	mov	r0, sp
 800826c:	f000 ffb4 	bl	80091d8 <_ada_system__address_image>
 8008270:	e9dd 0100 	ldrd	r0, r1, [sp]
 8008274:	f001 f8a8 	bl	80093c8 <system__io__put_line>
 8008278:	4630      	mov	r0, r6
 800827a:	f000 ffa7 	bl	80091cc <system__secondary_stack__ss_release>
 800827e:	6864      	ldr	r4, [r4, #4]
 8008280:	b324      	cbz	r4, 80082cc <system__finalization_masters__print_master+0x1ac>
 8008282:	482c      	ldr	r0, [pc, #176]	; (8008334 <system__finalization_masters__print_master+0x214>)
 8008284:	1d01      	adds	r1, r0, #4
 8008286:	f001 f89f 	bl	80093c8 <system__io__put_line>
 800828a:	42ac      	cmp	r4, r5
 800828c:	d1a9      	bne.n	80081e2 <system__finalization_masters__print_master+0xc2>
 800828e:	b9ef      	cbnz	r7, 80082cc <system__finalization_masters__print_master+0x1ac>
 8008290:	2701      	movs	r7, #1
 8008292:	e7a6      	b.n	80081e2 <system__finalization_masters__print_master+0xc2>
 8008294:	4828      	ldr	r0, [pc, #160]	; (8008338 <system__finalization_masters__print_master+0x218>)
 8008296:	1d01      	adds	r1, r0, #4
 8008298:	f001 f896 	bl	80093c8 <system__io__put_line>
 800829c:	e7ef      	b.n	800827e <system__finalization_masters__print_master+0x15e>
 800829e:	4826      	ldr	r0, [pc, #152]	; (8008338 <system__finalization_masters__print_master+0x218>)
 80082a0:	1d01      	adds	r1, r0, #4
 80082a2:	f001 f891 	bl	80093c8 <system__io__put_line>
 80082a6:	e7d5      	b.n	8008254 <system__finalization_masters__print_master+0x134>
 80082a8:	4824      	ldr	r0, [pc, #144]	; (800833c <system__finalization_masters__print_master+0x21c>)
 80082aa:	f100 0110 	add.w	r1, r0, #16
 80082ae:	f001 f88b 	bl	80093c8 <system__io__put_line>
 80082b2:	e7ba      	b.n	800822a <system__finalization_masters__print_master+0x10a>
 80082b4:	4822      	ldr	r0, [pc, #136]	; (8008340 <system__finalization_masters__print_master+0x220>)
 80082b6:	f1a0 0130 	sub.w	r1, r0, #48	; 0x30
 80082ba:	f001 f885 	bl	80093c8 <system__io__put_line>
 80082be:	e79b      	b.n	80081f8 <system__finalization_masters__print_master+0xd8>
 80082c0:	4820      	ldr	r0, [pc, #128]	; (8008344 <system__finalization_masters__print_master+0x224>)
 80082c2:	f100 010c 	add.w	r1, r0, #12
 80082c6:	f001 f87f 	bl	80093c8 <system__io__put_line>
 80082ca:	e795      	b.n	80081f8 <system__finalization_masters__print_master+0xd8>
 80082cc:	4640      	mov	r0, r8
 80082ce:	f000 ff7d 	bl	80091cc <system__secondary_stack__ss_release>
 80082d2:	b00a      	add	sp, #40	; 0x28
 80082d4:	e8bd 81f0 	ldmia.w	sp!, {r4, r5, r6, r7, r8, pc}
 80082d8:	4817      	ldr	r0, [pc, #92]	; (8008338 <system__finalization_masters__print_master+0x218>)
 80082da:	1d01      	adds	r1, r0, #4
 80082dc:	f001 f874 	bl	80093c8 <system__io__put_line>
 80082e0:	e757      	b.n	8008192 <system__finalization_masters__print_master+0x72>
 80082e2:	4815      	ldr	r0, [pc, #84]	; (8008338 <system__finalization_masters__print_master+0x218>)
 80082e4:	1d01      	adds	r1, r0, #4
 80082e6:	f001 f86f 	bl	80093c8 <system__io__put_line>
 80082ea:	e764      	b.n	80081b6 <system__finalization_masters__print_master+0x96>
 80082ec:	4604      	mov	r4, r0
 80082ee:	4630      	mov	r0, r6
 80082f0:	f000 ff6c 	bl	80091cc <system__secondary_stack__ss_release>
 80082f4:	4640      	mov	r0, r8
 80082f6:	f000 ff69 	bl	80091cc <system__secondary_stack__ss_release>
 80082fa:	4620      	mov	r0, r4
 80082fc:	f002 fd98 	bl	800ae30 <_Unwind_Resume>
 8008300:	e7f4      	b.n	80082ec <system__finalization_masters__print_master+0x1cc>
 8008302:	e7f3      	b.n	80082ec <system__finalization_masters__print_master+0x1cc>
 8008304:	4604      	mov	r4, r0
 8008306:	e7f5      	b.n	80082f4 <system__finalization_masters__print_master+0x1d4>
 8008308:	0800d7d0 	.word	0x0800d7d0
 800830c:	0800d7e4 	.word	0x0800d7e4
 8008310:	0800d7f0 	.word	0x0800d7f0
 8008314:	0800d7f8 	.word	0x0800d7f8
 8008318:	0800d810 	.word	0x0800d810
 800831c:	0800d81c 	.word	0x0800d81c
 8008320:	0800d860 	.word	0x0800d860
 8008324:	0800d848 	.word	0x0800d848
 8008328:	0800d890 	.word	0x0800d890
 800832c:	0800d884 	.word	0x0800d884
 8008330:	0800d898 	.word	0x0800d898
 8008334:	0800d828 	.word	0x0800d828
 8008338:	0800d804 	.word	0x0800d804
 800833c:	0800d86c 	.word	0x0800d86c
 8008340:	0800d85c 	.word	0x0800d85c
 8008344:	0800d834 	.word	0x0800d834

08008348 <system__finalization_masters__finalization_masterIP>:
 8008348:	b109      	cbz	r1, 800834e <system__finalization_masters__finalization_masterIP+0x6>
 800834a:	4b05      	ldr	r3, [pc, #20]	; (8008360 <system__finalization_masters__finalization_masterIP+0x18>)
 800834c:	6003      	str	r3, [r0, #0]
 800834e:	2300      	movs	r3, #0
 8008350:	2201      	movs	r2, #1
 8008352:	7102      	strb	r2, [r0, #4]
 8008354:	6083      	str	r3, [r0, #8]
 8008356:	60c3      	str	r3, [r0, #12]
 8008358:	6103      	str	r3, [r0, #16]
 800835a:	6143      	str	r3, [r0, #20]
 800835c:	7603      	strb	r3, [r0, #24]
 800835e:	4770      	bx	lr
 8008360:	0800d8ec 	.word	0x0800d8ec

08008364 <system__finalization_masters__finalize_address_table__tab__removeXnb>:
 8008364:	f000 017f 	and.w	r1, r0, #127	; 0x7f
 8008368:	4b0f      	ldr	r3, [pc, #60]	; (80083a8 <system__finalization_masters__finalize_address_table__tab__removeXnb+0x44>)
 800836a:	f853 2021 	ldr.w	r2, [r3, r1, lsl #2]
 800836e:	b1ca      	cbz	r2, 80083a4 <system__finalization_masters__finalize_address_table__tab__removeXnb+0x40>
 8008370:	b410      	push	{r4}
 8008372:	6814      	ldr	r4, [r2, #0]
 8008374:	42a0      	cmp	r0, r4
 8008376:	d104      	bne.n	8008382 <system__finalization_masters__finalize_address_table__tab__removeXnb+0x1e>
 8008378:	e00e      	b.n	8008398 <system__finalization_masters__finalize_address_table__tab__removeXnb+0x34>
 800837a:	6819      	ldr	r1, [r3, #0]
 800837c:	4288      	cmp	r0, r1
 800837e:	d006      	beq.n	800838e <system__finalization_masters__finalize_address_table__tab__removeXnb+0x2a>
 8008380:	461a      	mov	r2, r3
 8008382:	6893      	ldr	r3, [r2, #8]
 8008384:	2b00      	cmp	r3, #0
 8008386:	d1f8      	bne.n	800837a <system__finalization_masters__finalize_address_table__tab__removeXnb+0x16>
 8008388:	f85d 4b04 	ldr.w	r4, [sp], #4
 800838c:	4770      	bx	lr
 800838e:	689b      	ldr	r3, [r3, #8]
 8008390:	6093      	str	r3, [r2, #8]
 8008392:	f85d 4b04 	ldr.w	r4, [sp], #4
 8008396:	4770      	bx	lr
 8008398:	6892      	ldr	r2, [r2, #8]
 800839a:	f843 2021 	str.w	r2, [r3, r1, lsl #2]
 800839e:	f85d 4b04 	ldr.w	r4, [sp], #4
 80083a2:	4770      	bx	lr
 80083a4:	4770      	bx	lr
 80083a6:	bf00      	nop
 80083a8:	20003ebc 	.word	0x20003ebc

080083ac <system__finalization_masters__finalize_address_table__removeXn>:
 80083ac:	b510      	push	{r4, lr}
 80083ae:	f000 027f 	and.w	r2, r0, #127	; 0x7f
 80083b2:	4b09      	ldr	r3, [pc, #36]	; (80083d8 <system__finalization_masters__finalize_address_table__removeXn+0x2c>)
 80083b4:	f853 4022 	ldr.w	r4, [r3, r2, lsl #2]
 80083b8:	b914      	cbnz	r4, 80083c0 <system__finalization_masters__finalize_address_table__removeXn+0x14>
 80083ba:	e00b      	b.n	80083d4 <system__finalization_masters__finalize_address_table__removeXn+0x28>
 80083bc:	68a4      	ldr	r4, [r4, #8]
 80083be:	b14c      	cbz	r4, 80083d4 <system__finalization_masters__finalize_address_table__removeXn+0x28>
 80083c0:	6823      	ldr	r3, [r4, #0]
 80083c2:	4298      	cmp	r0, r3
 80083c4:	d1fa      	bne.n	80083bc <system__finalization_masters__finalize_address_table__removeXn+0x10>
 80083c6:	f7ff ffcd 	bl	8008364 <system__finalization_masters__finalize_address_table__tab__removeXnb>
 80083ca:	4620      	mov	r0, r4
 80083cc:	e8bd 4010 	ldmia.w	sp!, {r4, lr}
 80083d0:	f001 b948 	b.w	8009664 <__gnat_free>
 80083d4:	bd10      	pop	{r4, pc}
 80083d6:	bf00      	nop
 80083d8:	20003ebc 	.word	0x20003ebc

080083dc <system__finalization_masters__finalize>:
 80083dc:	e92d 47f0 	stmdb	sp!, {r4, r5, r6, r7, r8, r9, sl, lr}
 80083e0:	f5ad 7d54 	sub.w	sp, sp, #848	; 0x350
 80083e4:	4a3a      	ldr	r2, [pc, #232]	; (80084d0 <system__finalization_masters__finalize+0xf4>)
 80083e6:	2300      	movs	r3, #0
 80083e8:	4605      	mov	r5, r0
 80083ea:	9300      	str	r3, [sp, #0]
 80083ec:	9302      	str	r3, [sp, #8]
 80083ee:	f88d 30d4 	strb.w	r3, [sp, #212]	; 0xd4
 80083f2:	9336      	str	r3, [sp, #216]	; 0xd8
 80083f4:	9337      	str	r3, [sp, #220]	; 0xdc
 80083f6:	6813      	ldr	r3, [r2, #0]
 80083f8:	4798      	blx	r3
 80083fa:	7e2b      	ldrb	r3, [r5, #24]
 80083fc:	2b00      	cmp	r3, #0
 80083fe:	d141      	bne.n	8008484 <system__finalization_masters__finalize+0xa8>
 8008400:	4699      	mov	r9, r3
 8008402:	f8df 80d4 	ldr.w	r8, [pc, #212]	; 80084d8 <system__finalization_masters__finalize+0xfc>
 8008406:	2301      	movs	r3, #1
 8008408:	762b      	strb	r3, [r5, #24]
 800840a:	464e      	mov	r6, r9
 800840c:	f105 070c 	add.w	r7, r5, #12
 8008410:	692c      	ldr	r4, [r5, #16]
 8008412:	42bc      	cmp	r4, r7
 8008414:	d017      	beq.n	8008446 <system__finalization_masters__finalize+0x6a>
 8008416:	6823      	ldr	r3, [r4, #0]
 8008418:	b133      	cbz	r3, 8008428 <system__finalization_masters__finalize+0x4c>
 800841a:	6862      	ldr	r2, [r4, #4]
 800841c:	b122      	cbz	r2, 8008428 <system__finalization_masters__finalize+0x4c>
 800841e:	605a      	str	r2, [r3, #4]
 8008420:	6862      	ldr	r2, [r4, #4]
 8008422:	6013      	str	r3, [r2, #0]
 8008424:	6026      	str	r6, [r4, #0]
 8008426:	6066      	str	r6, [r4, #4]
 8008428:	792b      	ldrb	r3, [r5, #4]
 800842a:	3408      	adds	r4, #8
 800842c:	b1db      	cbz	r3, 8008466 <system__finalization_masters__finalize+0x8a>
 800842e:	696b      	ldr	r3, [r5, #20]
 8008430:	4620      	mov	r0, r4
 8008432:	4798      	blx	r3
 8008434:	792b      	ldrb	r3, [r5, #4]
 8008436:	2b00      	cmp	r3, #0
 8008438:	d1ea      	bne.n	8008410 <system__finalization_masters__finalize+0x34>
 800843a:	4620      	mov	r0, r4
 800843c:	f7ff ffb6 	bl	80083ac <system__finalization_masters__finalize_address_table__removeXn>
 8008440:	692c      	ldr	r4, [r5, #16]
 8008442:	42bc      	cmp	r4, r7
 8008444:	d1e7      	bne.n	8008416 <system__finalization_masters__finalize+0x3a>
 8008446:	68eb      	ldr	r3, [r5, #12]
 8008448:	42bb      	cmp	r3, r7
 800844a:	d1e4      	bne.n	8008416 <system__finalization_masters__finalize+0x3a>
 800844c:	4b21      	ldr	r3, [pc, #132]	; (80084d4 <system__finalization_masters__finalize+0xf8>)
 800844e:	681b      	ldr	r3, [r3, #0]
 8008450:	4798      	blx	r3
 8008452:	f1b9 0f00 	cmp.w	r9, #0
 8008456:	d002      	beq.n	800845e <system__finalization_masters__finalize+0x82>
 8008458:	4668      	mov	r0, sp
 800845a:	f000 fe3f 	bl	80090dc <ada__exceptions__reraise_occurrence>
 800845e:	f50d 7d54 	add.w	sp, sp, #848	; 0x350
 8008462:	e8bd 87f0 	ldmia.w	sp!, {r4, r5, r6, r7, r8, r9, sl, pc}
 8008466:	f004 037f 	and.w	r3, r4, #127	; 0x7f
 800846a:	f858 3023 	ldr.w	r3, [r8, r3, lsl #2]
 800846e:	b913      	cbnz	r3, 8008476 <system__finalization_masters__finalize+0x9a>
 8008470:	e006      	b.n	8008480 <system__finalization_masters__finalize+0xa4>
 8008472:	689b      	ldr	r3, [r3, #8]
 8008474:	b123      	cbz	r3, 8008480 <system__finalization_masters__finalize+0xa4>
 8008476:	681a      	ldr	r2, [r3, #0]
 8008478:	4294      	cmp	r4, r2
 800847a:	d1fa      	bne.n	8008472 <system__finalization_masters__finalize+0x96>
 800847c:	685b      	ldr	r3, [r3, #4]
 800847e:	e7d7      	b.n	8008430 <system__finalization_masters__finalize+0x54>
 8008480:	2300      	movs	r3, #0
 8008482:	e7d5      	b.n	8008430 <system__finalization_masters__finalize+0x54>
 8008484:	4b13      	ldr	r3, [pc, #76]	; (80084d4 <system__finalization_masters__finalize+0xf8>)
 8008486:	681b      	ldr	r3, [r3, #0]
 8008488:	4798      	blx	r3
 800848a:	f50d 7d54 	add.w	sp, sp, #848	; 0x350
 800848e:	e8bd 87f0 	ldmia.w	sp!, {r4, r5, r6, r7, r8, r9, sl, pc}
 8008492:	2901      	cmp	r1, #1
 8008494:	4682      	mov	sl, r0
 8008496:	d113      	bne.n	80084c0 <system__finalization_masters__finalize+0xe4>
 8008498:	f000 fbec 	bl	8008c74 <__gnat_begin_handler>
 800849c:	a86a      	add	r0, sp, #424	; 0x1a8
 800849e:	4651      	mov	r1, sl
 80084a0:	f000 fc08 	bl	8008cb4 <__gnat_set_exception_parameter>
 80084a4:	f1b9 0f00 	cmp.w	r9, #0
 80084a8:	d00c      	beq.n	80084c4 <system__finalization_masters__finalize+0xe8>
 80084aa:	4650      	mov	r0, sl
 80084ac:	f000 fbe4 	bl	8008c78 <__gnat_end_handler>
 80084b0:	f04f 0901 	mov.w	r9, #1
 80084b4:	e7be      	b.n	8008434 <system__finalization_masters__finalize+0x58>
 80084b6:	4604      	mov	r4, r0
 80084b8:	4650      	mov	r0, sl
 80084ba:	f000 fbdd 	bl	8008c78 <__gnat_end_handler>
 80084be:	4620      	mov	r0, r4
 80084c0:	f002 fcb6 	bl	800ae30 <_Unwind_Resume>
 80084c4:	4668      	mov	r0, sp
 80084c6:	a96a      	add	r1, sp, #424	; 0x1a8
 80084c8:	f000 fe20 	bl	800910c <ada__exceptions__save_occurrence>
 80084cc:	e7ed      	b.n	80084aa <system__finalization_masters__finalize+0xce>
 80084ce:	bf00      	nop
 80084d0:	200001c8 	.word	0x200001c8
 80084d4:	200001c0 	.word	0x200001c0
 80084d8:	20003ebc 	.word	0x20003ebc

080084dc <system__finalization_masters__finalization_masterDF__2>:
 80084dc:	f7ff bf7e 	b.w	80083dc <system__finalization_masters__finalize>

080084e0 <system__finalization_masters___elabb>:
 80084e0:	4b04      	ldr	r3, [pc, #16]	; (80084f4 <system__finalization_masters___elabb+0x14>)
 80084e2:	2100      	movs	r1, #0
 80084e4:	f503 7200 	add.w	r2, r3, #512	; 0x200
 80084e8:	f843 1b04 	str.w	r1, [r3], #4
 80084ec:	4293      	cmp	r3, r2
 80084ee:	d1fb      	bne.n	80084e8 <system__finalization_masters___elabb+0x8>
 80084f0:	4770      	bx	lr
 80084f2:	bf00      	nop
 80084f4:	20003ebc 	.word	0x20003ebc

080084f8 <system__finalization_masters___elabs>:
 80084f8:	4801      	ldr	r0, [pc, #4]	; (8008500 <system__finalization_masters___elabs+0x8>)
 80084fa:	f7ff bcb7 	b.w	8007e6c <ada__tags__register_tag>
 80084fe:	bf00      	nop
 8008500:	0800d8ec 	.word	0x0800d8ec

08008504 <system__assertions__raise_assert_failure>:
 8008504:	b538      	push	{r3, r4, r5, lr}
 8008506:	4604      	mov	r4, r0
 8008508:	460d      	mov	r5, r1
 800850a:	f001 f9df 	bl	80098cc <__gnat_debug_raise_assert_failure>
 800850e:	4622      	mov	r2, r4
 8008510:	462b      	mov	r3, r5
 8008512:	4801      	ldr	r0, [pc, #4]	; (8008518 <system__assertions__raise_assert_failure+0x14>)
 8008514:	f000 fd5c 	bl	8008fd0 <__gnat_raise_exception>
 8008518:	200001a0 	.word	0x200001a0

0800851c <ada__exceptions__exception_occurrenceIP>:
 800851c:	2300      	movs	r3, #0
 800851e:	6003      	str	r3, [r0, #0]
 8008520:	6083      	str	r3, [r0, #8]
 8008522:	f880 30d4 	strb.w	r3, [r0, #212]	; 0xd4
 8008526:	f8c0 30d8 	str.w	r3, [r0, #216]	; 0xd8
 800852a:	f8c0 30dc 	str.w	r3, [r0, #220]	; 0xdc
 800852e:	4770      	bx	lr

08008530 <ada__exceptions__exception_data__append_info_addressXn>:
 8008530:	b5f0      	push	{r4, r5, r6, r7, lr}
 8008532:	b08b      	sub	sp, #44	; 0x2c
 8008534:	4616      	mov	r6, r2
 8008536:	461f      	mov	r7, r3
 8008538:	2311      	movs	r3, #17
 800853a:	4d14      	ldr	r5, [pc, #80]	; (800858c <ada__exceptions__exception_data__append_info_addressXn+0x5c>)
 800853c:	e000      	b.n	8008540 <ada__exceptions__exception_data__append_info_addressXn+0x10>
 800853e:	4613      	mov	r3, r2
 8008540:	f000 020f 	and.w	r2, r0, #15
 8008544:	5cac      	ldrb	r4, [r5, r2]
 8008546:	a903      	add	r1, sp, #12
 8008548:	545c      	strb	r4, [r3, r1]
 800854a:	4619      	mov	r1, r3
 800854c:	1e5a      	subs	r2, r3, #1
 800854e:	0900      	lsrs	r0, r0, #4
 8008550:	d1f5      	bne.n	800853e <ada__exceptions__exception_data__append_info_addressXn+0xe>
 8008552:	aa0a      	add	r2, sp, #40	; 0x28
 8008554:	4413      	add	r3, r2
 8008556:	2230      	movs	r2, #48	; 0x30
 8008558:	f803 2c1e 	strb.w	r2, [r3, #-30]
 800855c:	2278      	movs	r2, #120	; 0x78
 800855e:	f803 2c1d 	strb.w	r2, [r3, #-29]
 8008562:	3901      	subs	r1, #1
 8008564:	4608      	mov	r0, r1
 8008566:	2913      	cmp	r1, #19
 8008568:	bfa8      	it	ge
 800856a:	2013      	movge	r0, #19
 800856c:	ab0a      	add	r3, sp, #40	; 0x28
 800856e:	4418      	add	r0, r3
 8008570:	9108      	str	r1, [sp, #32]
 8008572:	2312      	movs	r3, #18
 8008574:	9309      	str	r3, [sp, #36]	; 0x24
 8008576:	9b10      	ldr	r3, [sp, #64]	; 0x40
 8008578:	9300      	str	r3, [sp, #0]
 800857a:	381d      	subs	r0, #29
 800857c:	a908      	add	r1, sp, #32
 800857e:	4632      	mov	r2, r6
 8008580:	463b      	mov	r3, r7
 8008582:	f000 f921 	bl	80087c8 <ada__exceptions__exception_data__append_info_stringXn>
 8008586:	b00b      	add	sp, #44	; 0x2c
 8008588:	bdf0      	pop	{r4, r5, r6, r7, pc}
 800858a:	bf00      	nop
 800858c:	0800df6c 	.word	0x0800df6c

08008590 <ada__exceptions__exception_data__append_info_basic_exception_informationXn>:
 8008590:	e92d 43f0 	stmdb	sp!, {r4, r5, r6, r7, r8, r9, lr}
 8008594:	b087      	sub	sp, #28
 8008596:	af02      	add	r7, sp, #8
 8008598:	4604      	mov	r4, r0
 800859a:	4691      	mov	r9, r2
 800859c:	4698      	mov	r8, r3
 800859e:	f000 fa0d 	bl	80089bc <ada__exceptions__exception_data__exception_name_length__2Xn>
 80085a2:	4606      	mov	r6, r0
 80085a4:	1dc5      	adds	r5, r0, #7
 80085a6:	f025 0507 	bic.w	r5, r5, #7
 80085aa:	ebad 0d05 	sub.w	sp, sp, r5
 80085ae:	ad02      	add	r5, sp, #8
 80085b0:	2301      	movs	r3, #1
 80085b2:	603b      	str	r3, [r7, #0]
 80085b4:	6078      	str	r0, [r7, #4]
 80085b6:	2300      	movs	r3, #0
 80085b8:	9300      	str	r3, [sp, #0]
 80085ba:	4620      	mov	r0, r4
 80085bc:	462a      	mov	r2, r5
 80085be:	463b      	mov	r3, r7
 80085c0:	f000 f8c4 	bl	800874c <ada__exceptions__exception_data__append_info_exception_name__2Xn>
 80085c4:	f89d 3008 	ldrb.w	r3, [sp, #8]
 80085c8:	2b5f      	cmp	r3, #95	; 0x5f
 80085ca:	d02b      	beq.n	8008624 <ada__exceptions__exception_data__append_info_basic_exception_informationXn+0x94>
 80085cc:	6b3b      	ldr	r3, [r7, #48]	; 0x30
 80085ce:	9300      	str	r3, [sp, #0]
 80085d0:	4823      	ldr	r0, [pc, #140]	; (8008660 <ada__exceptions__exception_data__append_info_basic_exception_informationXn+0xd0>)
 80085d2:	4924      	ldr	r1, [pc, #144]	; (8008664 <ada__exceptions__exception_data__append_info_basic_exception_informationXn+0xd4>)
 80085d4:	464a      	mov	r2, r9
 80085d6:	4643      	mov	r3, r8
 80085d8:	f000 f8f6 	bl	80087c8 <ada__exceptions__exception_data__append_info_stringXn>
 80085dc:	2301      	movs	r3, #1
 80085de:	60bb      	str	r3, [r7, #8]
 80085e0:	60fe      	str	r6, [r7, #12]
 80085e2:	9000      	str	r0, [sp, #0]
 80085e4:	4628      	mov	r0, r5
 80085e6:	f107 0108 	add.w	r1, r7, #8
 80085ea:	464a      	mov	r2, r9
 80085ec:	4643      	mov	r3, r8
 80085ee:	f000 f8eb 	bl	80087c8 <ada__exceptions__exception_data__append_info_stringXn>
 80085f2:	4605      	mov	r5, r0
 80085f4:	4620      	mov	r0, r4
 80085f6:	f000 f9db 	bl	80089b0 <__gnat_exception_msg_len>
 80085fa:	b168      	cbz	r0, 8008618 <ada__exceptions__exception_data__append_info_basic_exception_informationXn+0x88>
 80085fc:	9500      	str	r5, [sp, #0]
 80085fe:	481a      	ldr	r0, [pc, #104]	; (8008668 <ada__exceptions__exception_data__append_info_basic_exception_informationXn+0xd8>)
 8008600:	491a      	ldr	r1, [pc, #104]	; (800866c <ada__exceptions__exception_data__append_info_basic_exception_informationXn+0xdc>)
 8008602:	464a      	mov	r2, r9
 8008604:	4643      	mov	r3, r8
 8008606:	f000 f8df 	bl	80087c8 <ada__exceptions__exception_data__append_info_stringXn>
 800860a:	9000      	str	r0, [sp, #0]
 800860c:	4620      	mov	r0, r4
 800860e:	464a      	mov	r2, r9
 8008610:	4643      	mov	r3, r8
 8008612:	f000 f841 	bl	8008698 <__gnat_append_info_e_msg>
 8008616:	4605      	mov	r5, r0
 8008618:	4648      	mov	r0, r9
 800861a:	4641      	mov	r1, r8
 800861c:	462a      	mov	r2, r5
 800861e:	f000 f8c7 	bl	80087b0 <ada__exceptions__exception_data__append_info_nlXn>
 8008622:	6338      	str	r0, [r7, #48]	; 0x30
 8008624:	f8d4 30d8 	ldr.w	r3, [r4, #216]	; 0xd8
 8008628:	b1ab      	cbz	r3, 8008656 <ada__exceptions__exception_data__append_info_basic_exception_informationXn+0xc6>
 800862a:	6b3b      	ldr	r3, [r7, #48]	; 0x30
 800862c:	9300      	str	r3, [sp, #0]
 800862e:	4810      	ldr	r0, [pc, #64]	; (8008670 <ada__exceptions__exception_data__append_info_basic_exception_informationXn+0xe0>)
 8008630:	4910      	ldr	r1, [pc, #64]	; (8008674 <ada__exceptions__exception_data__append_info_basic_exception_informationXn+0xe4>)
 8008632:	464a      	mov	r2, r9
 8008634:	4643      	mov	r3, r8
 8008636:	f000 f8c7 	bl	80087c8 <ada__exceptions__exception_data__append_info_stringXn>
 800863a:	f8d4 30d8 	ldr.w	r3, [r4, #216]	; 0xd8
 800863e:	9000      	str	r0, [sp, #0]
 8008640:	4618      	mov	r0, r3
 8008642:	464a      	mov	r2, r9
 8008644:	4643      	mov	r3, r8
 8008646:	f000 f88b 	bl	8008760 <ada__exceptions__exception_data__append_info_natXn>
 800864a:	4602      	mov	r2, r0
 800864c:	4648      	mov	r0, r9
 800864e:	4641      	mov	r1, r8
 8008650:	f000 f8ae 	bl	80087b0 <ada__exceptions__exception_data__append_info_nlXn>
 8008654:	6338      	str	r0, [r7, #48]	; 0x30
 8008656:	6b38      	ldr	r0, [r7, #48]	; 0x30
 8008658:	3714      	adds	r7, #20
 800865a:	46bd      	mov	sp, r7
 800865c:	e8bd 83f0 	ldmia.w	sp!, {r4, r5, r6, r7, r8, r9, pc}
 8008660:	0800dbf8 	.word	0x0800dbf8
 8008664:	0800dc3c 	.word	0x0800dc3c
 8008668:	0800dc38 	.word	0x0800dc38
 800866c:	0800dc44 	.word	0x0800dc44
 8008670:	0800dc00 	.word	0x0800dc00
 8008674:	0800dc4c 	.word	0x0800dc4c

08008678 <ada__exceptions__exception_data__append_info_characterXn>:
 8008678:	b510      	push	{r4, lr}
 800867a:	9c02      	ldr	r4, [sp, #8]
 800867c:	6819      	ldr	r1, [r3, #0]
 800867e:	685b      	ldr	r3, [r3, #4]
 8008680:	4299      	cmp	r1, r3
 8008682:	dd02      	ble.n	800868a <ada__exceptions__exception_data__append_info_characterXn+0x12>
 8008684:	f000 fd66 	bl	8009154 <__gnat_to_stderr_char>
 8008688:	e004      	b.n	8008694 <ada__exceptions__exception_data__append_info_characterXn+0x1c>
 800868a:	42a3      	cmp	r3, r4
 800868c:	dd02      	ble.n	8008694 <ada__exceptions__exception_data__append_info_characterXn+0x1c>
 800868e:	3401      	adds	r4, #1
 8008690:	1a61      	subs	r1, r4, r1
 8008692:	5450      	strb	r0, [r2, r1]
 8008694:	4620      	mov	r0, r4
 8008696:	bd10      	pop	{r4, pc}

08008698 <__gnat_append_info_e_msg>:
 8008698:	e92d 43f0 	stmdb	sp!, {r4, r5, r6, r7, r8, r9, lr}
 800869c:	b085      	sub	sp, #20
 800869e:	af02      	add	r7, sp, #8
 80086a0:	4604      	mov	r4, r0
 80086a2:	4699      	mov	r9, r3
 80086a4:	6803      	ldr	r3, [r0, #0]
 80086a6:	b923      	cbnz	r3, 80086b2 <__gnat_append_info_e_msg+0x1a>
 80086a8:	4811      	ldr	r0, [pc, #68]	; (80086f0 <__gnat_append_info_e_msg+0x58>)
 80086aa:	f44f 71a0 	mov.w	r1, #320	; 0x140
 80086ae:	f000 fce1 	bl	8009074 <__gnat_rcheck_CE_Explicit_Raise>
 80086b2:	4690      	mov	r8, r2
 80086b4:	f000 f97c 	bl	80089b0 <__gnat_exception_msg_len>
 80086b8:	4605      	mov	r5, r0
 80086ba:	1dc3      	adds	r3, r0, #7
 80086bc:	f023 0307 	bic.w	r3, r3, #7
 80086c0:	ebad 0d03 	sub.w	sp, sp, r3
 80086c4:	ae02      	add	r6, sp, #8
 80086c6:	4630      	mov	r0, r6
 80086c8:	f104 010c 	add.w	r1, r4, #12
 80086cc:	462a      	mov	r2, r5
 80086ce:	f000 ff7b 	bl	80095c8 <memcpy>
 80086d2:	2301      	movs	r3, #1
 80086d4:	603b      	str	r3, [r7, #0]
 80086d6:	607d      	str	r5, [r7, #4]
 80086d8:	6abb      	ldr	r3, [r7, #40]	; 0x28
 80086da:	9300      	str	r3, [sp, #0]
 80086dc:	4630      	mov	r0, r6
 80086de:	4639      	mov	r1, r7
 80086e0:	4642      	mov	r2, r8
 80086e2:	464b      	mov	r3, r9
 80086e4:	f000 f870 	bl	80087c8 <ada__exceptions__exception_data__append_info_stringXn>
 80086e8:	370c      	adds	r7, #12
 80086ea:	46bd      	mov	sp, r7
 80086ec:	e8bd 83f0 	ldmia.w	sp!, {r4, r5, r6, r7, r8, r9, pc}
 80086f0:	0800dc54 	.word	0x0800dc54

080086f4 <ada__exceptions__exception_data__append_info_exception_nameXn>:
 80086f4:	e92d 43f0 	stmdb	sp!, {r4, r5, r6, r7, r8, r9, lr}
 80086f8:	b085      	sub	sp, #20
 80086fa:	af02      	add	r7, sp, #8
 80086fc:	b920      	cbnz	r0, 8008708 <ada__exceptions__exception_data__append_info_exception_nameXn+0x14>
 80086fe:	4812      	ldr	r0, [pc, #72]	; (8008748 <ada__exceptions__exception_data__append_info_exception_nameXn+0x54>)
 8008700:	f44f 71ab 	mov.w	r1, #342	; 0x156
 8008704:	f000 fcb6 	bl	8009074 <__gnat_rcheck_CE_Explicit_Raise>
 8008708:	4690      	mov	r8, r2
 800870a:	4699      	mov	r9, r3
 800870c:	4605      	mov	r5, r0
 800870e:	f000 f951 	bl	80089b4 <ada__exceptions__exception_data__exception_name_lengthXn>
 8008712:	4604      	mov	r4, r0
 8008714:	1dc3      	adds	r3, r0, #7
 8008716:	f023 0307 	bic.w	r3, r3, #7
 800871a:	ebad 0d03 	sub.w	sp, sp, r3
 800871e:	ae02      	add	r6, sp, #8
 8008720:	4630      	mov	r0, r6
 8008722:	68a9      	ldr	r1, [r5, #8]
 8008724:	4622      	mov	r2, r4
 8008726:	f000 ff4f 	bl	80095c8 <memcpy>
 800872a:	2301      	movs	r3, #1
 800872c:	603b      	str	r3, [r7, #0]
 800872e:	607c      	str	r4, [r7, #4]
 8008730:	6abb      	ldr	r3, [r7, #40]	; 0x28
 8008732:	9300      	str	r3, [sp, #0]
 8008734:	4630      	mov	r0, r6
 8008736:	4639      	mov	r1, r7
 8008738:	4642      	mov	r2, r8
 800873a:	464b      	mov	r3, r9
 800873c:	f000 f844 	bl	80087c8 <ada__exceptions__exception_data__append_info_stringXn>
 8008740:	370c      	adds	r7, #12
 8008742:	46bd      	mov	sp, r7
 8008744:	e8bd 83f0 	ldmia.w	sp!, {r4, r5, r6, r7, r8, r9, pc}
 8008748:	0800dc54 	.word	0x0800dc54

0800874c <ada__exceptions__exception_data__append_info_exception_name__2Xn>:
 800874c:	b500      	push	{lr}
 800874e:	b083      	sub	sp, #12
 8008750:	6800      	ldr	r0, [r0, #0]
 8008752:	9904      	ldr	r1, [sp, #16]
 8008754:	9100      	str	r1, [sp, #0]
 8008756:	f7ff ffcd 	bl	80086f4 <ada__exceptions__exception_data__append_info_exception_nameXn>
 800875a:	b003      	add	sp, #12
 800875c:	f85d fb04 	ldr.w	pc, [sp], #4

08008760 <ada__exceptions__exception_data__append_info_natXn>:
 8008760:	b5d0      	push	{r4, r6, r7, lr}
 8008762:	b082      	sub	sp, #8
 8008764:	4604      	mov	r4, r0
 8008766:	4616      	mov	r6, r2
 8008768:	461f      	mov	r7, r3
 800876a:	9806      	ldr	r0, [sp, #24]
 800876c:	2c09      	cmp	r4, #9
 800876e:	dd0a      	ble.n	8008786 <ada__exceptions__exception_data__append_info_natXn+0x26>
 8008770:	4a0e      	ldr	r2, [pc, #56]	; (80087ac <ada__exceptions__exception_data__append_info_natXn+0x4c>)
 8008772:	fb82 3204 	smull	r3, r2, r2, r4
 8008776:	17e3      	asrs	r3, r4, #31
 8008778:	9000      	str	r0, [sp, #0]
 800877a:	ebc3 00a2 	rsb	r0, r3, r2, asr #2
 800877e:	4632      	mov	r2, r6
 8008780:	463b      	mov	r3, r7
 8008782:	f7ff ffed 	bl	8008760 <ada__exceptions__exception_data__append_info_natXn>
 8008786:	4b09      	ldr	r3, [pc, #36]	; (80087ac <ada__exceptions__exception_data__append_info_natXn+0x4c>)
 8008788:	fb83 3204 	smull	r3, r2, r3, r4
 800878c:	17e3      	asrs	r3, r4, #31
 800878e:	ebc3 03a2 	rsb	r3, r3, r2, asr #2
 8008792:	eb03 0383 	add.w	r3, r3, r3, lsl #2
 8008796:	eba4 0443 	sub.w	r4, r4, r3, lsl #1
 800879a:	3430      	adds	r4, #48	; 0x30
 800879c:	9000      	str	r0, [sp, #0]
 800879e:	b2e0      	uxtb	r0, r4
 80087a0:	4632      	mov	r2, r6
 80087a2:	463b      	mov	r3, r7
 80087a4:	f7ff ff68 	bl	8008678 <ada__exceptions__exception_data__append_info_characterXn>
 80087a8:	b002      	add	sp, #8
 80087aa:	bdd0      	pop	{r4, r6, r7, pc}
 80087ac:	66666667 	.word	0x66666667

080087b0 <ada__exceptions__exception_data__append_info_nlXn>:
 80087b0:	b530      	push	{r4, r5, lr}
 80087b2:	b083      	sub	sp, #12
 80087b4:	4604      	mov	r4, r0
 80087b6:	9200      	str	r2, [sp, #0]
 80087b8:	200a      	movs	r0, #10
 80087ba:	4622      	mov	r2, r4
 80087bc:	460b      	mov	r3, r1
 80087be:	f7ff ff5b 	bl	8008678 <ada__exceptions__exception_data__append_info_characterXn>
 80087c2:	b003      	add	sp, #12
 80087c4:	bd30      	pop	{r4, r5, pc}
 80087c6:	bf00      	nop

080087c8 <ada__exceptions__exception_data__append_info_stringXn>:
 80087c8:	b5f8      	push	{r3, r4, r5, r6, r7, lr}
 80087ca:	4606      	mov	r6, r0
 80087cc:	9c06      	ldr	r4, [sp, #24]
 80087ce:	681f      	ldr	r7, [r3, #0]
 80087d0:	685b      	ldr	r3, [r3, #4]
 80087d2:	429f      	cmp	r7, r3
 80087d4:	dd02      	ble.n	80087dc <ada__exceptions__exception_data__append_info_stringXn+0x14>
 80087d6:	f000 fcc1 	bl	800915c <__gnat_to_stderr>
 80087da:	e018      	b.n	800880e <ada__exceptions__exception_data__append_info_stringXn+0x46>
 80087dc:	684d      	ldr	r5, [r1, #4]
 80087de:	6809      	ldr	r1, [r1, #0]
 80087e0:	428d      	cmp	r5, r1
 80087e2:	bfa6      	itte	ge
 80087e4:	1a6d      	subge	r5, r5, r1
 80087e6:	3501      	addge	r5, #1
 80087e8:	2500      	movlt	r5, #0
 80087ea:	4621      	mov	r1, r4
 80087ec:	442c      	add	r4, r5
 80087ee:	42a3      	cmp	r3, r4
 80087f0:	bfa8      	it	ge
 80087f2:	4623      	movge	r3, r4
 80087f4:	461c      	mov	r4, r3
 80087f6:	1c4d      	adds	r5, r1, #1
 80087f8:	1bef      	subs	r7, r5, r7
 80087fa:	18b8      	adds	r0, r7, r2
 80087fc:	42ab      	cmp	r3, r5
 80087fe:	bfa6      	itte	ge
 8008800:	f1c5 0501 	rsbge	r5, r5, #1
 8008804:	18ea      	addge	r2, r5, r3
 8008806:	2200      	movlt	r2, #0
 8008808:	4631      	mov	r1, r6
 800880a:	f000 ff4b 	bl	80096a4 <memmove>
 800880e:	4620      	mov	r0, r4
 8008810:	bdf8      	pop	{r3, r4, r5, r6, r7, pc}
 8008812:	bf00      	nop

08008814 <ada__exceptions__exception_data__append_info_untailored_exception_tracebackXn>:
 8008814:	e92d 4ff0 	stmdb	sp!, {r4, r5, r6, r7, r8, r9, sl, fp, lr}
 8008818:	b083      	sub	sp, #12
 800881a:	f8d0 10dc 	ldr.w	r1, [r0, #220]	; 0xdc
 800881e:	2900      	cmp	r1, #0
 8008820:	d050      	beq.n	80088c4 <ada__exceptions__exception_data__append_info_untailored_exception_tracebackXn+0xb0>
 8008822:	461f      	mov	r7, r3
 8008824:	4690      	mov	r8, r2
 8008826:	4681      	mov	r9, r0
 8008828:	f001 fb1a 	bl	8009e60 <__gnat_get_executable_load_address>
 800882c:	4604      	mov	r4, r0
 800882e:	b198      	cbz	r0, 8008858 <ada__exceptions__exception_data__append_info_untailored_exception_tracebackXn+0x44>
 8008830:	9b0c      	ldr	r3, [sp, #48]	; 0x30
 8008832:	9300      	str	r3, [sp, #0]
 8008834:	4825      	ldr	r0, [pc, #148]	; (80088cc <ada__exceptions__exception_data__append_info_untailored_exception_tracebackXn+0xb8>)
 8008836:	4926      	ldr	r1, [pc, #152]	; (80088d0 <ada__exceptions__exception_data__append_info_untailored_exception_tracebackXn+0xbc>)
 8008838:	4642      	mov	r2, r8
 800883a:	463b      	mov	r3, r7
 800883c:	f7ff ffc4 	bl	80087c8 <ada__exceptions__exception_data__append_info_stringXn>
 8008840:	9000      	str	r0, [sp, #0]
 8008842:	4620      	mov	r0, r4
 8008844:	4642      	mov	r2, r8
 8008846:	463b      	mov	r3, r7
 8008848:	f7ff fe72 	bl	8008530 <ada__exceptions__exception_data__append_info_addressXn>
 800884c:	4602      	mov	r2, r0
 800884e:	4640      	mov	r0, r8
 8008850:	4639      	mov	r1, r7
 8008852:	f7ff ffad 	bl	80087b0 <ada__exceptions__exception_data__append_info_nlXn>
 8008856:	900c      	str	r0, [sp, #48]	; 0x30
 8008858:	9b0c      	ldr	r3, [sp, #48]	; 0x30
 800885a:	9300      	str	r3, [sp, #0]
 800885c:	481d      	ldr	r0, [pc, #116]	; (80088d4 <ada__exceptions__exception_data__append_info_untailored_exception_tracebackXn+0xc0>)
 800885e:	491e      	ldr	r1, [pc, #120]	; (80088d8 <ada__exceptions__exception_data__append_info_untailored_exception_tracebackXn+0xc4>)
 8008860:	4642      	mov	r2, r8
 8008862:	463b      	mov	r3, r7
 8008864:	f7ff ffb0 	bl	80087c8 <ada__exceptions__exception_data__append_info_stringXn>
 8008868:	4602      	mov	r2, r0
 800886a:	4640      	mov	r0, r8
 800886c:	4639      	mov	r1, r7
 800886e:	f7ff ff9f 	bl	80087b0 <ada__exceptions__exception_data__append_info_nlXn>
 8008872:	4604      	mov	r4, r0
 8008874:	f8d9 a0dc 	ldr.w	sl, [r9, #220]	; 0xdc
 8008878:	f1ba 0f00 	cmp.w	sl, #0
 800887c:	dd1c      	ble.n	80088b8 <ada__exceptions__exception_data__append_info_untailored_exception_tracebackXn+0xa4>
 800887e:	f109 06e0 	add.w	r6, r9, #224	; 0xe0
 8008882:	2500      	movs	r5, #0
 8008884:	f04f 0b20 	mov.w	fp, #32
 8008888:	3501      	adds	r5, #1
 800888a:	6830      	ldr	r0, [r6, #0]
 800888c:	f000 fe9a 	bl	80095c4 <system__traceback_entries__pc_for>
 8008890:	9400      	str	r4, [sp, #0]
 8008892:	4642      	mov	r2, r8
 8008894:	463b      	mov	r3, r7
 8008896:	f7ff fe4b 	bl	8008530 <ada__exceptions__exception_data__append_info_addressXn>
 800889a:	4604      	mov	r4, r0
 800889c:	f8d9 30dc 	ldr.w	r3, [r9, #220]	; 0xdc
 80088a0:	42ab      	cmp	r3, r5
 80088a2:	d009      	beq.n	80088b8 <ada__exceptions__exception_data__append_info_untailored_exception_tracebackXn+0xa4>
 80088a4:	9000      	str	r0, [sp, #0]
 80088a6:	4658      	mov	r0, fp
 80088a8:	4642      	mov	r2, r8
 80088aa:	463b      	mov	r3, r7
 80088ac:	f7ff fee4 	bl	8008678 <ada__exceptions__exception_data__append_info_characterXn>
 80088b0:	4604      	mov	r4, r0
 80088b2:	3604      	adds	r6, #4
 80088b4:	45aa      	cmp	sl, r5
 80088b6:	d1e7      	bne.n	8008888 <ada__exceptions__exception_data__append_info_untailored_exception_tracebackXn+0x74>
 80088b8:	4640      	mov	r0, r8
 80088ba:	4639      	mov	r1, r7
 80088bc:	4622      	mov	r2, r4
 80088be:	f7ff ff77 	bl	80087b0 <ada__exceptions__exception_data__append_info_nlXn>
 80088c2:	900c      	str	r0, [sp, #48]	; 0x30
 80088c4:	980c      	ldr	r0, [sp, #48]	; 0x30
 80088c6:	b003      	add	sp, #12
 80088c8:	e8bd 8ff0 	ldmia.w	sp!, {r4, r5, r6, r7, r8, r9, sl, fp, pc}
 80088cc:	0800dc28 	.word	0x0800dc28
 80088d0:	0800dc64 	.word	0x0800dc64
 80088d4:	0800dc08 	.word	0x0800dc08
 80088d8:	0800dc6c 	.word	0x0800dc6c

080088dc <ada__exceptions__exception_data__basic_exception_info_maxlengthXn>:
 80088dc:	b538      	push	{r3, r4, r5, lr}
 80088de:	4605      	mov	r5, r0
 80088e0:	f000 f86c 	bl	80089bc <ada__exceptions__exception_data__exception_name_length__2Xn>
 80088e4:	4604      	mov	r4, r0
 80088e6:	4628      	mov	r0, r5
 80088e8:	f000 f862 	bl	80089b0 <__gnat_exception_msg_len>
 80088ec:	4420      	add	r0, r4
 80088ee:	301f      	adds	r0, #31
 80088f0:	bd38      	pop	{r3, r4, r5, pc}
 80088f2:	bf00      	nop

080088f4 <ada__exceptions__exception_data__exception_informationXn>:
 80088f4:	e92d 4ff0 	stmdb	sp!, {r4, r5, r6, r7, r8, r9, sl, fp, lr}
 80088f8:	b08d      	sub	sp, #52	; 0x34
 80088fa:	af02      	add	r7, sp, #8
 80088fc:	4605      	mov	r5, r0
 80088fe:	6079      	str	r1, [r7, #4]
 8008900:	f107 0008 	add.w	r0, r7, #8
 8008904:	f000 f94e 	bl	8008ba4 <ada__exceptions__exception_data__tailored_exception_tracebackXn>
 8008908:	f8d7 b008 	ldr.w	fp, [r7, #8]
 800890c:	68fb      	ldr	r3, [r7, #12]
 800890e:	f8d3 a000 	ldr.w	sl, [r3]
 8008912:	f8d3 9004 	ldr.w	r9, [r3, #4]
 8008916:	45ca      	cmp	sl, r9
 8008918:	bfda      	itte	le
 800891a:	ebca 0409 	rsble	r4, sl, r9
 800891e:	3401      	addle	r4, #1
 8008920:	2400      	movgt	r4, #0
 8008922:	6878      	ldr	r0, [r7, #4]
 8008924:	f7ff ffda 	bl	80088dc <ada__exceptions__exception_data__basic_exception_info_maxlengthXn>
 8008928:	4404      	add	r4, r0
 800892a:	ea24 73e4 	bic.w	r3, r4, r4, asr #31
 800892e:	3307      	adds	r3, #7
 8008930:	f023 0307 	bic.w	r3, r3, #7
 8008934:	ebad 0d03 	sub.w	sp, sp, r3
 8008938:	ae02      	add	r6, sp, #8
 800893a:	f04f 0801 	mov.w	r8, #1
 800893e:	f8c7 8010 	str.w	r8, [r7, #16]
 8008942:	617c      	str	r4, [r7, #20]
 8008944:	2300      	movs	r3, #0
 8008946:	9300      	str	r3, [sp, #0]
 8008948:	6878      	ldr	r0, [r7, #4]
 800894a:	4632      	mov	r2, r6
 800894c:	f107 0310 	add.w	r3, r7, #16
 8008950:	f7ff fe1e 	bl	8008590 <ada__exceptions__exception_data__append_info_basic_exception_informationXn>
 8008954:	f8c7 a018 	str.w	sl, [r7, #24]
 8008958:	f8c7 901c 	str.w	r9, [r7, #28]
 800895c:	f8c7 8020 	str.w	r8, [r7, #32]
 8008960:	627c      	str	r4, [r7, #36]	; 0x24
 8008962:	9000      	str	r0, [sp, #0]
 8008964:	4658      	mov	r0, fp
 8008966:	f107 0118 	add.w	r1, r7, #24
 800896a:	4632      	mov	r2, r6
 800896c:	f107 0320 	add.w	r3, r7, #32
 8008970:	f7ff ff2a 	bl	80087c8 <ada__exceptions__exception_data__append_info_stringXn>
 8008974:	4682      	mov	sl, r0
 8008976:	ea20 79e0 	bic.w	r9, r0, r0, asr #31
 800897a:	f109 000b 	add.w	r0, r9, #11
 800897e:	f020 0003 	bic.w	r0, r0, #3
 8008982:	f000 fbff 	bl	8009184 <system__secondary_stack__ss_allocate>
 8008986:	4604      	mov	r4, r0
 8008988:	f8c0 8000 	str.w	r8, [r0]
 800898c:	f8c0 a004 	str.w	sl, [r0, #4]
 8008990:	f100 0808 	add.w	r8, r0, #8
 8008994:	4640      	mov	r0, r8
 8008996:	4631      	mov	r1, r6
 8008998:	464a      	mov	r2, r9
 800899a:	f000 fe15 	bl	80095c8 <memcpy>
 800899e:	f8c5 8000 	str.w	r8, [r5]
 80089a2:	606c      	str	r4, [r5, #4]
 80089a4:	4628      	mov	r0, r5
 80089a6:	372c      	adds	r7, #44	; 0x2c
 80089a8:	46bd      	mov	sp, r7
 80089aa:	e8bd 8ff0 	ldmia.w	sp!, {r4, r5, r6, r7, r8, r9, sl, fp, pc}
 80089ae:	bf00      	nop

080089b0 <__gnat_exception_msg_len>:
 80089b0:	6880      	ldr	r0, [r0, #8]
 80089b2:	4770      	bx	lr

080089b4 <ada__exceptions__exception_data__exception_name_lengthXn>:
 80089b4:	6840      	ldr	r0, [r0, #4]
 80089b6:	3801      	subs	r0, #1
 80089b8:	4770      	bx	lr
 80089ba:	bf00      	nop

080089bc <ada__exceptions__exception_data__exception_name_length__2Xn>:
 80089bc:	b508      	push	{r3, lr}
 80089be:	6800      	ldr	r0, [r0, #0]
 80089c0:	f7ff fff8 	bl	80089b4 <ada__exceptions__exception_data__exception_name_lengthXn>
 80089c4:	bd08      	pop	{r3, pc}
 80089c6:	bf00      	nop

080089c8 <ada__exceptions__exception_data__untailored_exception_tracebackXn>:
 80089c8:	e92d 47f0 	stmdb	sp!, {r4, r5, r6, r7, r8, r9, sl, lr}
 80089cc:	b084      	sub	sp, #16
 80089ce:	af02      	add	r7, sp, #8
 80089d0:	4605      	mov	r5, r0
 80089d2:	460c      	mov	r4, r1
 80089d4:	4608      	mov	r0, r1
 80089d6:	f000 f903 	bl	8008be0 <ada__exceptions__exception_data__untailored_exception_traceback_maxlengthXn>
 80089da:	1dc3      	adds	r3, r0, #7
 80089dc:	f023 0307 	bic.w	r3, r3, #7
 80089e0:	ebad 0d03 	sub.w	sp, sp, r3
 80089e4:	f10d 0908 	add.w	r9, sp, #8
 80089e8:	f04f 0a01 	mov.w	sl, #1
 80089ec:	f8c7 a000 	str.w	sl, [r7]
 80089f0:	6078      	str	r0, [r7, #4]
 80089f2:	2300      	movs	r3, #0
 80089f4:	9300      	str	r3, [sp, #0]
 80089f6:	4620      	mov	r0, r4
 80089f8:	464a      	mov	r2, r9
 80089fa:	463b      	mov	r3, r7
 80089fc:	f7ff ff0a 	bl	8008814 <ada__exceptions__exception_data__append_info_untailored_exception_tracebackXn>
 8008a00:	4606      	mov	r6, r0
 8008a02:	ea20 78e0 	bic.w	r8, r0, r0, asr #31
 8008a06:	f108 000b 	add.w	r0, r8, #11
 8008a0a:	f020 0003 	bic.w	r0, r0, #3
 8008a0e:	f000 fbb9 	bl	8009184 <system__secondary_stack__ss_allocate>
 8008a12:	4604      	mov	r4, r0
 8008a14:	f8c0 a000 	str.w	sl, [r0]
 8008a18:	6046      	str	r6, [r0, #4]
 8008a1a:	f100 0608 	add.w	r6, r0, #8
 8008a1e:	4630      	mov	r0, r6
 8008a20:	4649      	mov	r1, r9
 8008a22:	4642      	mov	r2, r8
 8008a24:	f000 fdd0 	bl	80095c8 <memcpy>
 8008a28:	602e      	str	r6, [r5, #0]
 8008a2a:	606c      	str	r4, [r5, #4]
 8008a2c:	4628      	mov	r0, r5
 8008a2e:	3708      	adds	r7, #8
 8008a30:	46bd      	mov	sp, r7
 8008a32:	e8bd 87f0 	ldmia.w	sp!, {r4, r5, r6, r7, r8, r9, sl, pc}
 8008a36:	bf00      	nop

08008a38 <ada__exceptions__exception_data__set_exception_c_msg__append_number.5333>:
 8008a38:	2800      	cmp	r0, #0
 8008a3a:	dd38      	ble.n	8008aae <ada__exceptions__exception_data__set_exception_c_msg__append_number.5333+0x76>
 8008a3c:	b470      	push	{r4, r5, r6}
 8008a3e:	4603      	mov	r3, r0
 8008a40:	2201      	movs	r2, #1
 8008a42:	4c1b      	ldr	r4, [pc, #108]	; (8008ab0 <ada__exceptions__exception_data__set_exception_c_msg__append_number.5333+0x78>)
 8008a44:	fb84 5103 	smull	r5, r1, r4, r3
 8008a48:	17db      	asrs	r3, r3, #31
 8008a4a:	ebc3 03a1 	rsb	r3, r3, r1, asr #2
 8008a4e:	3201      	adds	r2, #1
 8008a50:	2b00      	cmp	r3, #0
 8008a52:	dcf7      	bgt.n	8008a44 <ada__exceptions__exception_data__set_exception_c_msg__append_number.5333+0xc>
 8008a54:	e022      	b.n	8008a9c <ada__exceptions__exception_data__set_exception_c_msg__append_number.5333+0x64>
 8008a56:	fb86 3200 	smull	r3, r2, r6, r0
 8008a5a:	17c3      	asrs	r3, r0, #31
 8008a5c:	ebc3 03a2 	rsb	r3, r3, r2, asr #2
 8008a60:	461c      	mov	r4, r3
 8008a62:	eb03 0383 	add.w	r3, r3, r3, lsl #2
 8008a66:	eba0 0343 	sub.w	r3, r0, r3, lsl #1
 8008a6a:	f8cc 3000 	str.w	r3, [ip]
 8008a6e:	4620      	mov	r0, r4
 8008a70:	f8dc 5004 	ldr.w	r5, [ip, #4]
 8008a74:	68aa      	ldr	r2, [r5, #8]
 8008a76:	1a52      	subs	r2, r2, r1
 8008a78:	442a      	add	r2, r5
 8008a7a:	3330      	adds	r3, #48	; 0x30
 8008a7c:	72d3      	strb	r3, [r2, #11]
 8008a7e:	3101      	adds	r1, #1
 8008a80:	2c00      	cmp	r4, #0
 8008a82:	dce8      	bgt.n	8008a56 <ada__exceptions__exception_data__set_exception_c_msg__append_number.5333+0x1e>
 8008a84:	e011      	b.n	8008aaa <ada__exceptions__exception_data__set_exception_c_msg__append_number.5333+0x72>
 8008a86:	440b      	add	r3, r1
 8008a88:	213a      	movs	r1, #58	; 0x3a
 8008a8a:	7319      	strb	r1, [r3, #12]
 8008a8c:	f8dc 1004 	ldr.w	r1, [ip, #4]
 8008a90:	688b      	ldr	r3, [r1, #8]
 8008a92:	441a      	add	r2, r3
 8008a94:	608a      	str	r2, [r1, #8]
 8008a96:	2100      	movs	r1, #0
 8008a98:	4e05      	ldr	r6, [pc, #20]	; (8008ab0 <ada__exceptions__exception_data__set_exception_c_msg__append_number.5333+0x78>)
 8008a9a:	e7dc      	b.n	8008a56 <ada__exceptions__exception_data__set_exception_c_msg__append_number.5333+0x1e>
 8008a9c:	f8dc 1004 	ldr.w	r1, [ip, #4]
 8008aa0:	688b      	ldr	r3, [r1, #8]
 8008aa2:	f1c2 04c8 	rsb	r4, r2, #200	; 0xc8
 8008aa6:	42a3      	cmp	r3, r4
 8008aa8:	dded      	ble.n	8008a86 <ada__exceptions__exception_data__set_exception_c_msg__append_number.5333+0x4e>
 8008aaa:	bc70      	pop	{r4, r5, r6}
 8008aac:	4770      	bx	lr
 8008aae:	4770      	bx	lr
 8008ab0:	66666667 	.word	0x66666667

08008ab4 <ada__exceptions__exception_data__set_exception_c_msgXn>:
 8008ab4:	b530      	push	{r4, r5, lr}
 8008ab6:	b085      	sub	sp, #20
 8008ab8:	9d09      	ldr	r5, [sp, #36]	; 0x24
 8008aba:	ac08      	add	r4, sp, #32
 8008abc:	9403      	str	r4, [sp, #12]
 8008abe:	9002      	str	r0, [sp, #8]
 8008ac0:	2400      	movs	r4, #0
 8008ac2:	f880 40d4 	strb.w	r4, [r0, #212]	; 0xd4
 8008ac6:	6001      	str	r1, [r0, #0]
 8008ac8:	f8c0 40dc 	str.w	r4, [r0, #220]	; 0xdc
 8008acc:	4922      	ldr	r1, [pc, #136]	; (8008b58 <ada__exceptions__exception_data__set_exception_c_msgXn+0xa4>)
 8008ace:	6809      	ldr	r1, [r1, #0]
 8008ad0:	f8c0 10d8 	str.w	r1, [r0, #216]	; 0xd8
 8008ad4:	6084      	str	r4, [r0, #8]
 8008ad6:	4614      	mov	r4, r2
 8008ad8:	7812      	ldrb	r2, [r2, #0]
 8008ada:	b922      	cbnz	r2, 8008ae6 <ada__exceptions__exception_data__set_exception_c_msgXn+0x32>
 8008adc:	e00f      	b.n	8008afe <ada__exceptions__exception_data__set_exception_c_msgXn+0x4a>
 8008ade:	460a      	mov	r2, r1
 8008ae0:	29c7      	cmp	r1, #199	; 0xc7
 8008ae2:	dd01      	ble.n	8008ae8 <ada__exceptions__exception_data__set_exception_c_msgXn+0x34>
 8008ae4:	e00b      	b.n	8008afe <ada__exceptions__exception_data__set_exception_c_msgXn+0x4a>
 8008ae6:	2200      	movs	r2, #0
 8008ae8:	3201      	adds	r2, #1
 8008aea:	6082      	str	r2, [r0, #8]
 8008aec:	18a1      	adds	r1, r4, r2
 8008aee:	f811 1c01 	ldrb.w	r1, [r1, #-1]
 8008af2:	4402      	add	r2, r0
 8008af4:	72d1      	strb	r1, [r2, #11]
 8008af6:	6881      	ldr	r1, [r0, #8]
 8008af8:	5c62      	ldrb	r2, [r4, r1]
 8008afa:	2a00      	cmp	r2, #0
 8008afc:	d1ef      	bne.n	8008ade <ada__exceptions__exception_data__set_exception_c_msgXn+0x2a>
 8008afe:	f10d 0c04 	add.w	ip, sp, #4
 8008b02:	4618      	mov	r0, r3
 8008b04:	f7ff ff98 	bl	8008a38 <ada__exceptions__exception_data__set_exception_c_msg__append_number.5333>
 8008b08:	f10d 0c04 	add.w	ip, sp, #4
 8008b0c:	9808      	ldr	r0, [sp, #32]
 8008b0e:	f7ff ff93 	bl	8008a38 <ada__exceptions__exception_data__set_exception_c_msg__append_number.5333>
 8008b12:	b1fd      	cbz	r5, 8008b54 <ada__exceptions__exception_data__set_exception_c_msgXn+0xa0>
 8008b14:	9902      	ldr	r1, [sp, #8]
 8008b16:	688b      	ldr	r3, [r1, #8]
 8008b18:	2bc6      	cmp	r3, #198	; 0xc6
 8008b1a:	dc1b      	bgt.n	8008b54 <ada__exceptions__exception_data__set_exception_c_msgXn+0xa0>
 8008b1c:	3301      	adds	r3, #1
 8008b1e:	608b      	str	r3, [r1, #8]
 8008b20:	440b      	add	r3, r1
 8008b22:	2220      	movs	r2, #32
 8008b24:	72da      	strb	r2, [r3, #11]
 8008b26:	462c      	mov	r4, r5
 8008b28:	782b      	ldrb	r3, [r5, #0]
 8008b2a:	b19b      	cbz	r3, 8008b54 <ada__exceptions__exception_data__set_exception_c_msgXn+0xa0>
 8008b2c:	688b      	ldr	r3, [r1, #8]
 8008b2e:	2bc7      	cmp	r3, #199	; 0xc7
 8008b30:	dc10      	bgt.n	8008b54 <ada__exceptions__exception_data__set_exception_c_msgXn+0xa0>
 8008b32:	462a      	mov	r2, r5
 8008b34:	f1c5 0501 	rsb	r5, r5, #1
 8008b38:	e003      	b.n	8008b42 <ada__exceptions__exception_data__set_exception_c_msgXn+0x8e>
 8008b3a:	688b      	ldr	r3, [r1, #8]
 8008b3c:	3201      	adds	r2, #1
 8008b3e:	2bc7      	cmp	r3, #199	; 0xc7
 8008b40:	dc08      	bgt.n	8008b54 <ada__exceptions__exception_data__set_exception_c_msgXn+0xa0>
 8008b42:	3301      	adds	r3, #1
 8008b44:	608b      	str	r3, [r1, #8]
 8008b46:	7810      	ldrb	r0, [r2, #0]
 8008b48:	440b      	add	r3, r1
 8008b4a:	72d8      	strb	r0, [r3, #11]
 8008b4c:	18a3      	adds	r3, r4, r2
 8008b4e:	5d5b      	ldrb	r3, [r3, r5]
 8008b50:	2b00      	cmp	r3, #0
 8008b52:	d1f2      	bne.n	8008b3a <ada__exceptions__exception_data__set_exception_c_msgXn+0x86>
 8008b54:	b005      	add	sp, #20
 8008b56:	bd30      	pop	{r4, r5, pc}
 8008b58:	2000026c 	.word	0x2000026c

08008b5c <ada__exceptions__exception_data__set_exception_msgXn>:
 8008b5c:	b570      	push	{r4, r5, r6, lr}
 8008b5e:	4604      	mov	r4, r0
 8008b60:	460e      	mov	r6, r1
 8008b62:	6818      	ldr	r0, [r3, #0]
 8008b64:	685b      	ldr	r3, [r3, #4]
 8008b66:	4298      	cmp	r0, r3
 8008b68:	dc05      	bgt.n	8008b76 <ada__exceptions__exception_data__set_exception_msgXn+0x1a>
 8008b6a:	1a1b      	subs	r3, r3, r0
 8008b6c:	3301      	adds	r3, #1
 8008b6e:	2bc8      	cmp	r3, #200	; 0xc8
 8008b70:	bfa8      	it	ge
 8008b72:	23c8      	movge	r3, #200	; 0xc8
 8008b74:	e000      	b.n	8008b78 <ada__exceptions__exception_data__set_exception_msgXn+0x1c>
 8008b76:	2300      	movs	r3, #0
 8008b78:	2500      	movs	r5, #0
 8008b7a:	f884 50d4 	strb.w	r5, [r4, #212]	; 0xd4
 8008b7e:	60a3      	str	r3, [r4, #8]
 8008b80:	f104 000c 	add.w	r0, r4, #12
 8008b84:	4611      	mov	r1, r2
 8008b86:	ea23 72e3 	bic.w	r2, r3, r3, asr #31
 8008b8a:	f000 fd8b 	bl	80096a4 <memmove>
 8008b8e:	6026      	str	r6, [r4, #0]
 8008b90:	f8c4 50dc 	str.w	r5, [r4, #220]	; 0xdc
 8008b94:	4b02      	ldr	r3, [pc, #8]	; (8008ba0 <ada__exceptions__exception_data__set_exception_msgXn+0x44>)
 8008b96:	681b      	ldr	r3, [r3, #0]
 8008b98:	f8c4 30d8 	str.w	r3, [r4, #216]	; 0xd8
 8008b9c:	bd70      	pop	{r4, r5, r6, pc}
 8008b9e:	bf00      	nop
 8008ba0:	2000026c 	.word	0x2000026c

08008ba4 <ada__exceptions__exception_data__tailored_exception_tracebackXn>:
 8008ba4:	b510      	push	{r4, lr}
 8008ba6:	b082      	sub	sp, #8
 8008ba8:	4604      	mov	r4, r0
 8008baa:	460a      	mov	r2, r1
 8008bac:	4b0b      	ldr	r3, [pc, #44]	; (8008bdc <ada__exceptions__exception_data__tailored_exception_tracebackXn+0x38>)
 8008bae:	681b      	ldr	r3, [r3, #0]
 8008bb0:	b93b      	cbnz	r3, 8008bc2 <ada__exceptions__exception_data__tailored_exception_tracebackXn+0x1e>
 8008bb2:	4668      	mov	r0, sp
 8008bb4:	f7ff ff08 	bl	80089c8 <ada__exceptions__exception_data__untailored_exception_tracebackXn>
 8008bb8:	9b00      	ldr	r3, [sp, #0]
 8008bba:	6023      	str	r3, [r4, #0]
 8008bbc:	9b01      	ldr	r3, [sp, #4]
 8008bbe:	6063      	str	r3, [r4, #4]
 8008bc0:	e008      	b.n	8008bd4 <ada__exceptions__exception_data__tailored_exception_tracebackXn+0x30>
 8008bc2:	4668      	mov	r0, sp
 8008bc4:	31e0      	adds	r1, #224	; 0xe0
 8008bc6:	f8d2 20dc 	ldr.w	r2, [r2, #220]	; 0xdc
 8008bca:	4798      	blx	r3
 8008bcc:	9b00      	ldr	r3, [sp, #0]
 8008bce:	6023      	str	r3, [r4, #0]
 8008bd0:	9b01      	ldr	r3, [sp, #4]
 8008bd2:	6063      	str	r3, [r4, #4]
 8008bd4:	4620      	mov	r0, r4
 8008bd6:	b002      	add	sp, #8
 8008bd8:	bd10      	pop	{r4, pc}
 8008bda:	bf00      	nop
 8008bdc:	200001d4 	.word	0x200001d4

08008be0 <ada__exceptions__exception_data__untailored_exception_traceback_maxlengthXn>:
 8008be0:	f8d0 30dc 	ldr.w	r3, [r0, #220]	; 0xdc
 8008be4:	eb03 00c3 	add.w	r0, r3, r3, lsl #3
 8008be8:	eb03 0040 	add.w	r0, r3, r0, lsl #1
 8008bec:	3042      	adds	r0, #66	; 0x42
 8008bee:	4770      	bx	lr

08008bf0 <ada__exceptions__exception_propagation__allocate_occurrenceXn>:
 8008bf0:	b508      	push	{r3, lr}
 8008bf2:	f000 fd8b 	bl	800970c <system__exceptions__machine__new_occurrence>
 8008bf6:	4b02      	ldr	r3, [pc, #8]	; (8008c00 <ada__exceptions__exception_propagation__allocate_occurrenceXn+0x10>)
 8008bf8:	6083      	str	r3, [r0, #8]
 8008bfa:	65c0      	str	r0, [r0, #92]	; 0x5c
 8008bfc:	3058      	adds	r0, #88	; 0x58
 8008bfe:	bd08      	pop	{r3, pc}
 8008c00:	08008c05 	.word	0x08008c05

08008c04 <ada__exceptions__exception_propagation__gnat_gcc_exception_cleanupXn>:
 8008c04:	b121      	cbz	r1, 8008c10 <ada__exceptions__exception_propagation__gnat_gcc_exception_cleanupXn+0xc>
 8008c06:	b508      	push	{r3, lr}
 8008c08:	4608      	mov	r0, r1
 8008c0a:	f000 fd2b 	bl	8009664 <__gnat_free>
 8008c0e:	bd08      	pop	{r3, pc}
 8008c10:	4770      	bx	lr
 8008c12:	bf00      	nop

08008c14 <ada__exceptions__exception_propagation__set_foreign_occurrenceXn>:
 8008c14:	4b07      	ldr	r3, [pc, #28]	; (8008c34 <ada__exceptions__exception_propagation__set_foreign_occurrenceXn+0x20>)
 8008c16:	681a      	ldr	r2, [r3, #0]
 8008c18:	4b07      	ldr	r3, [pc, #28]	; (8008c38 <ada__exceptions__exception_propagation__set_foreign_occurrenceXn+0x24>)
 8008c1a:	6003      	str	r3, [r0, #0]
 8008c1c:	6041      	str	r1, [r0, #4]
 8008c1e:	2300      	movs	r3, #0
 8008c20:	6083      	str	r3, [r0, #8]
 8008c22:	2101      	movs	r1, #1
 8008c24:	f880 10d4 	strb.w	r1, [r0, #212]	; 0xd4
 8008c28:	f8c0 20d8 	str.w	r2, [r0, #216]	; 0xd8
 8008c2c:	f8c0 30dc 	str.w	r3, [r0, #220]	; 0xdc
 8008c30:	4770      	bx	lr
 8008c32:	bf00      	nop
 8008c34:	2000026c 	.word	0x2000026c
 8008c38:	2000013c 	.word	0x2000013c

08008c3c <__gnat_setup_current_excep>:
 8008c3c:	b538      	push	{r3, r4, r5, lr}
 8008c3e:	4604      	mov	r4, r0
 8008c40:	f000 faf6 	bl	8009230 <system__soft_links__get_current_excep_soft>
 8008c44:	4605      	mov	r5, r0
 8008c46:	4620      	mov	r0, r4
 8008c48:	4909      	ldr	r1, [pc, #36]	; (8008c70 <__gnat_setup_current_excep+0x34>)
 8008c4a:	2208      	movs	r2, #8
 8008c4c:	f7ff f820 	bl	8007c90 <memcmp>
 8008c50:	b940      	cbnz	r0, 8008c64 <__gnat_setup_current_excep+0x28>
 8008c52:	3458      	adds	r4, #88	; 0x58
 8008c54:	4628      	mov	r0, r5
 8008c56:	4621      	mov	r1, r4
 8008c58:	f44f 72d4 	mov.w	r2, #424	; 0x1a8
 8008c5c:	f000 fcb4 	bl	80095c8 <memcpy>
 8008c60:	4620      	mov	r0, r4
 8008c62:	e004      	b.n	8008c6e <__gnat_setup_current_excep+0x32>
 8008c64:	4628      	mov	r0, r5
 8008c66:	4621      	mov	r1, r4
 8008c68:	f7ff ffd4 	bl	8008c14 <ada__exceptions__exception_propagation__set_foreign_occurrenceXn>
 8008c6c:	4628      	mov	r0, r5
 8008c6e:	bd38      	pop	{r3, r4, r5, pc}
 8008c70:	0800d3b4 	.word	0x0800d3b4

08008c74 <__gnat_begin_handler>:
 8008c74:	4770      	bx	lr
 8008c76:	bf00      	nop

08008c78 <__gnat_end_handler>:
 8008c78:	b118      	cbz	r0, 8008c82 <__gnat_end_handler+0xa>
 8008c7a:	b508      	push	{r3, lr}
 8008c7c:	f001 fd14 	bl	800a6a8 <_Unwind_DeleteException>
 8008c80:	bd08      	pop	{r3, pc}
 8008c82:	4770      	bx	lr

08008c84 <ada__exceptions__exception_propagation__propagate_gcc_exceptionXn>:
 8008c84:	b510      	push	{r4, lr}
 8008c86:	4604      	mov	r4, r0
 8008c88:	f7fe ffcc 	bl	8007c24 <__gnat_Unwind_RaiseException>
 8008c8c:	4620      	mov	r0, r4
 8008c8e:	f7ff ffd5 	bl	8008c3c <__gnat_setup_current_excep>
 8008c92:	f000 f8b9 	bl	8008e08 <__gnat_notify_unhandled_exception>
 8008c96:	4620      	mov	r0, r4
 8008c98:	4903      	ldr	r1, [pc, #12]	; (8008ca8 <ada__exceptions__exception_propagation__propagate_gcc_exceptionXn+0x24>)
 8008c9a:	2200      	movs	r2, #0
 8008c9c:	f7fe ffc4 	bl	8007c28 <__gnat_Unwind_ForcedUnwind>
 8008ca0:	4620      	mov	r0, r4
 8008ca2:	f000 f81d 	bl	8008ce0 <__gnat_unhandled_except_handler>
 8008ca6:	bf00      	nop
 8008ca8:	08007c11 	.word	0x08007c11

08008cac <ada__exceptions__exception_propagation__propagate_exceptionXn>:
 8008cac:	b508      	push	{r3, lr}
 8008cae:	6840      	ldr	r0, [r0, #4]
 8008cb0:	f7ff ffe8 	bl	8008c84 <ada__exceptions__exception_propagation__propagate_gcc_exceptionXn>

08008cb4 <__gnat_set_exception_parameter>:
 8008cb4:	b538      	push	{r3, r4, r5, lr}
 8008cb6:	4605      	mov	r5, r0
 8008cb8:	460c      	mov	r4, r1
 8008cba:	4608      	mov	r0, r1
 8008cbc:	4907      	ldr	r1, [pc, #28]	; (8008cdc <__gnat_set_exception_parameter+0x28>)
 8008cbe:	2208      	movs	r2, #8
 8008cc0:	f7fe ffe6 	bl	8007c90 <memcmp>
 8008cc4:	b928      	cbnz	r0, 8008cd2 <__gnat_set_exception_parameter+0x1e>
 8008cc6:	4628      	mov	r0, r5
 8008cc8:	f104 0158 	add.w	r1, r4, #88	; 0x58
 8008ccc:	f000 fa1e 	bl	800910c <ada__exceptions__save_occurrence>
 8008cd0:	e003      	b.n	8008cda <__gnat_set_exception_parameter+0x26>
 8008cd2:	4628      	mov	r0, r5
 8008cd4:	4621      	mov	r1, r4
 8008cd6:	f7ff ff9d 	bl	8008c14 <ada__exceptions__exception_propagation__set_foreign_occurrenceXn>
 8008cda:	bd38      	pop	{r3, r4, r5, pc}
 8008cdc:	0800d3b4 	.word	0x0800d3b4

08008ce0 <__gnat_unhandled_except_handler>:
 8008ce0:	b508      	push	{r3, lr}
 8008ce2:	f7ff ffab 	bl	8008c3c <__gnat_setup_current_excep>
 8008ce6:	f000 f89f 	bl	8008e28 <ada__exceptions__exception_traces__unhandled_exception_terminateXn>
 8008cea:	bf00      	nop

08008cec <__gnat_eid_for>:
 8008cec:	6d80      	ldr	r0, [r0, #88]	; 0x58
 8008cee:	4770      	bx	lr

08008cf0 <__gnat_foreign_data_for>:
 8008cf0:	6900      	ldr	r0, [r0, #16]
 8008cf2:	4770      	bx	lr

08008cf4 <__gnat_is_handled_by_others>:
 8008cf4:	7800      	ldrb	r0, [r0, #0]
 8008cf6:	f080 0001 	eor.w	r0, r0, #1
 8008cfa:	4770      	bx	lr

08008cfc <__gnat_language_for>:
 8008cfc:	7840      	ldrb	r0, [r0, #1]
 8008cfe:	4770      	bx	lr

08008d00 <ada__exceptions__exception_traces__notify_exception___finalizerXn.5598>:
 8008d00:	b508      	push	{r3, lr}
 8008d02:	f8dc 0000 	ldr.w	r0, [ip]
 8008d06:	f000 fa61 	bl	80091cc <system__secondary_stack__ss_release>
 8008d0a:	bd08      	pop	{r3, pc}

08008d0c <ada__exceptions__exception_traces__notify_exceptionXn>:
 8008d0c:	b530      	push	{r4, r5, lr}
 8008d0e:	b085      	sub	sp, #20
 8008d10:	4604      	mov	r4, r0
 8008d12:	460d      	mov	r5, r1
 8008d14:	ab08      	add	r3, sp, #32
 8008d16:	9303      	str	r3, [sp, #12]
 8008d18:	f000 fa52 	bl	80091c0 <system__secondary_stack__ss_mark>
 8008d1c:	9002      	str	r0, [sp, #8]
 8008d1e:	6823      	ldr	r3, [r4, #0]
 8008d20:	781b      	ldrb	r3, [r3, #0]
 8008d22:	2b00      	cmp	r3, #0
 8008d24:	d134      	bne.n	8008d90 <ada__exceptions__exception_traces__notify_exceptionXn+0x84>
 8008d26:	4b2a      	ldr	r3, [pc, #168]	; (8008dd0 <ada__exceptions__exception_traces__notify_exceptionXn+0xc4>)
 8008d28:	781b      	ldrb	r3, [r3, #0]
 8008d2a:	b2db      	uxtb	r3, r3
 8008d2c:	2b01      	cmp	r3, #1
 8008d2e:	d00b      	beq.n	8008d48 <ada__exceptions__exception_traces__notify_exceptionXn+0x3c>
 8008d30:	2d00      	cmp	r5, #0
 8008d32:	d02d      	beq.n	8008d90 <ada__exceptions__exception_traces__notify_exceptionXn+0x84>
 8008d34:	4b26      	ldr	r3, [pc, #152]	; (8008dd0 <ada__exceptions__exception_traces__notify_exceptionXn+0xc4>)
 8008d36:	781b      	ldrb	r3, [r3, #0]
 8008d38:	b2db      	uxtb	r3, r3
 8008d3a:	2b02      	cmp	r3, #2
 8008d3c:	d004      	beq.n	8008d48 <ada__exceptions__exception_traces__notify_exceptionXn+0x3c>
 8008d3e:	4b24      	ldr	r3, [pc, #144]	; (8008dd0 <ada__exceptions__exception_traces__notify_exceptionXn+0xc4>)
 8008d40:	781b      	ldrb	r3, [r3, #0]
 8008d42:	b2db      	uxtb	r3, r3
 8008d44:	2b03      	cmp	r3, #3
 8008d46:	d123      	bne.n	8008d90 <ada__exceptions__exception_traces__notify_exceptionXn+0x84>
 8008d48:	4b22      	ldr	r3, [pc, #136]	; (8008dd4 <ada__exceptions__exception_traces__notify_exceptionXn+0xc8>)
 8008d4a:	681b      	ldr	r3, [r3, #0]
 8008d4c:	4798      	blx	r3
 8008d4e:	4822      	ldr	r0, [pc, #136]	; (8008dd8 <ada__exceptions__exception_traces__notify_exceptionXn+0xcc>)
 8008d50:	4922      	ldr	r1, [pc, #136]	; (8008ddc <ada__exceptions__exception_traces__notify_exceptionXn+0xd0>)
 8008d52:	f000 fa03 	bl	800915c <__gnat_to_stderr>
 8008d56:	4b1e      	ldr	r3, [pc, #120]	; (8008dd0 <ada__exceptions__exception_traces__notify_exceptionXn+0xc4>)
 8008d58:	781b      	ldrb	r3, [r3, #0]
 8008d5a:	b2db      	uxtb	r3, r3
 8008d5c:	2b03      	cmp	r3, #3
 8008d5e:	d00c      	beq.n	8008d7a <ada__exceptions__exception_traces__notify_exceptionXn+0x6e>
 8008d60:	b11d      	cbz	r5, 8008d6a <ada__exceptions__exception_traces__notify_exceptionXn+0x5e>
 8008d62:	481f      	ldr	r0, [pc, #124]	; (8008de0 <ada__exceptions__exception_traces__notify_exceptionXn+0xd4>)
 8008d64:	491f      	ldr	r1, [pc, #124]	; (8008de4 <ada__exceptions__exception_traces__notify_exceptionXn+0xd8>)
 8008d66:	f000 f9f9 	bl	800915c <__gnat_to_stderr>
 8008d6a:	481f      	ldr	r0, [pc, #124]	; (8008de8 <ada__exceptions__exception_traces__notify_exceptionXn+0xdc>)
 8008d6c:	491f      	ldr	r1, [pc, #124]	; (8008dec <ada__exceptions__exception_traces__notify_exceptionXn+0xe0>)
 8008d6e:	f000 f9f5 	bl	800915c <__gnat_to_stderr>
 8008d72:	4819      	ldr	r0, [pc, #100]	; (8008dd8 <ada__exceptions__exception_traces__notify_exceptionXn+0xcc>)
 8008d74:	4919      	ldr	r1, [pc, #100]	; (8008ddc <ada__exceptions__exception_traces__notify_exceptionXn+0xd0>)
 8008d76:	f000 f9f1 	bl	800915c <__gnat_to_stderr>
 8008d7a:	4668      	mov	r0, sp
 8008d7c:	4621      	mov	r1, r4
 8008d7e:	f000 f88b 	bl	8008e98 <ada__exceptions__exception_information>
 8008d82:	e9dd 0100 	ldrd	r0, r1, [sp]
 8008d86:	f000 f9e9 	bl	800915c <__gnat_to_stderr>
 8008d8a:	4b19      	ldr	r3, [pc, #100]	; (8008df0 <ada__exceptions__exception_traces__notify_exceptionXn+0xe4>)
 8008d8c:	681b      	ldr	r3, [r3, #0]
 8008d8e:	4798      	blx	r3
 8008d90:	4b18      	ldr	r3, [pc, #96]	; (8008df4 <ada__exceptions__exception_traces__notify_exceptionXn+0xe8>)
 8008d92:	781b      	ldrb	r3, [r3, #0]
 8008d94:	f013 0fff 	tst.w	r3, #255	; 0xff
 8008d98:	d004      	beq.n	8008da4 <ada__exceptions__exception_traces__notify_exceptionXn+0x98>
 8008d9a:	6823      	ldr	r3, [r4, #0]
 8008d9c:	695b      	ldr	r3, [r3, #20]
 8008d9e:	b10b      	cbz	r3, 8008da4 <ada__exceptions__exception_traces__notify_exceptionXn+0x98>
 8008da0:	4620      	mov	r0, r4
 8008da2:	4798      	blx	r3
 8008da4:	4b14      	ldr	r3, [pc, #80]	; (8008df8 <ada__exceptions__exception_traces__notify_exceptionXn+0xec>)
 8008da6:	681b      	ldr	r3, [r3, #0]
 8008da8:	b163      	cbz	r3, 8008dc4 <ada__exceptions__exception_traces__notify_exceptionXn+0xb8>
 8008daa:	4b13      	ldr	r3, [pc, #76]	; (8008df8 <ada__exceptions__exception_traces__notify_exceptionXn+0xec>)
 8008dac:	681b      	ldr	r3, [r3, #0]
 8008dae:	4620      	mov	r0, r4
 8008db0:	4798      	blx	r3
 8008db2:	e007      	b.n	8008dc4 <ada__exceptions__exception_traces__notify_exceptionXn+0xb8>
 8008db4:	4604      	mov	r4, r0
 8008db6:	f10d 0c08 	add.w	ip, sp, #8
 8008dba:	f7ff ffa1 	bl	8008d00 <ada__exceptions__exception_traces__notify_exception___finalizerXn.5598>
 8008dbe:	4620      	mov	r0, r4
 8008dc0:	f002 f836 	bl	800ae30 <_Unwind_Resume>
 8008dc4:	f10d 0c08 	add.w	ip, sp, #8
 8008dc8:	f7ff ff9a 	bl	8008d00 <ada__exceptions__exception_traces__notify_exception___finalizerXn.5598>
 8008dcc:	b005      	add	sp, #20
 8008dce:	bd30      	pop	{r4, r5, pc}
 8008dd0:	2000021c 	.word	0x2000021c
 8008dd4:	200001c8 	.word	0x200001c8
 8008dd8:	0800dc90 	.word	0x0800dc90
 8008ddc:	0800dc94 	.word	0x0800dc94
 8008de0:	0800dc74 	.word	0x0800dc74
 8008de4:	0800dc9c 	.word	0x0800dc9c
 8008de8:	0800dc80 	.word	0x0800dc80
 8008dec:	0800dca4 	.word	0x0800dca4
 8008df0:	200001c0 	.word	0x200001c0
 8008df4:	200001bc 	.word	0x200001bc
 8008df8:	200001b8 	.word	0x200001b8

08008dfc <__gnat_notify_handled_exception>:
 8008dfc:	b508      	push	{r3, lr}
 8008dfe:	2100      	movs	r1, #0
 8008e00:	f7ff ff84 	bl	8008d0c <ada__exceptions__exception_traces__notify_exceptionXn>
 8008e04:	bd08      	pop	{r3, pc}
 8008e06:	bf00      	nop

08008e08 <__gnat_notify_unhandled_exception>:
 8008e08:	b510      	push	{r4, lr}
 8008e0a:	4604      	mov	r4, r0
 8008e0c:	4b05      	ldr	r3, [pc, #20]	; (8008e24 <__gnat_notify_unhandled_exception+0x1c>)
 8008e0e:	681b      	ldr	r3, [r3, #0]
 8008e10:	4798      	blx	r3
 8008e12:	4620      	mov	r0, r4
 8008e14:	2101      	movs	r1, #1
 8008e16:	f7ff ff79 	bl	8008d0c <ada__exceptions__exception_traces__notify_exceptionXn>
 8008e1a:	6820      	ldr	r0, [r4, #0]
 8008e1c:	f000 fd4c 	bl	80098b8 <__gnat_unhandled_exception>
 8008e20:	bd10      	pop	{r4, pc}
 8008e22:	bf00      	nop
 8008e24:	200001d0 	.word	0x200001d0

08008e28 <ada__exceptions__exception_traces__unhandled_exception_terminateXn>:
 8008e28:	b510      	push	{r4, lr}
 8008e2a:	b0ea      	sub	sp, #424	; 0x1a8
 8008e2c:	4604      	mov	r4, r0
 8008e2e:	4668      	mov	r0, sp
 8008e30:	f7ff fb74 	bl	800851c <ada__exceptions__exception_occurrenceIP>
 8008e34:	4668      	mov	r0, sp
 8008e36:	4621      	mov	r1, r4
 8008e38:	f000 f968 	bl	800910c <ada__exceptions__save_occurrence>
 8008e3c:	4668      	mov	r0, sp
 8008e3e:	f000 fb0d 	bl	800945c <__gnat_last_chance_handler>
 8008e42:	bf00      	nop

08008e44 <ada__exceptions__code_address_for_aaa>:
 8008e44:	4800      	ldr	r0, [pc, #0]	; (8008e48 <ada__exceptions__code_address_for_aaa+0x4>)
 8008e46:	4770      	bx	lr
 8008e48:	08008e44 	.word	0x08008e44

08008e4c <ada__exceptions__call_chain>:
 8008e4c:	4b10      	ldr	r3, [pc, #64]	; (8008e90 <ada__exceptions__call_chain+0x44>)
 8008e4e:	681b      	ldr	r3, [r3, #0]
 8008e50:	b1eb      	cbz	r3, 8008e8e <ada__exceptions__call_chain+0x42>
 8008e52:	f8d0 30dc 	ldr.w	r3, [r0, #220]	; 0xdc
 8008e56:	b9d3      	cbnz	r3, 8008e8e <ada__exceptions__call_chain+0x42>
 8008e58:	b530      	push	{r4, r5, lr}
 8008e5a:	b0b5      	sub	sp, #212	; 0xd4
 8008e5c:	4604      	mov	r4, r0
 8008e5e:	f7ff fff1 	bl	8008e44 <ada__exceptions__code_address_for_aaa>
 8008e62:	4605      	mov	r5, r0
 8008e64:	f000 f98a 	bl	800917c <ada__exceptions__code_address_for_zzz>
 8008e68:	9000      	str	r0, [sp, #0]
 8008e6a:	2305      	movs	r3, #5
 8008e6c:	9301      	str	r3, [sp, #4]
 8008e6e:	a802      	add	r0, sp, #8
 8008e70:	4908      	ldr	r1, [pc, #32]	; (8008e94 <ada__exceptions__call_chain+0x48>)
 8008e72:	2232      	movs	r2, #50	; 0x32
 8008e74:	462b      	mov	r3, r5
 8008e76:	f001 f83b 	bl	8009ef0 <system__traceback__call_chain>
 8008e7a:	f8c4 00dc 	str.w	r0, [r4, #220]	; 0xdc
 8008e7e:	f104 00e0 	add.w	r0, r4, #224	; 0xe0
 8008e82:	a902      	add	r1, sp, #8
 8008e84:	22c8      	movs	r2, #200	; 0xc8
 8008e86:	f000 fb9f 	bl	80095c8 <memcpy>
 8008e8a:	b035      	add	sp, #212	; 0xd4
 8008e8c:	bd30      	pop	{r4, r5, pc}
 8008e8e:	4770      	bx	lr
 8008e90:	20000178 	.word	0x20000178
 8008e94:	0800deb0 	.word	0x0800deb0

08008e98 <ada__exceptions__exception_information>:
 8008e98:	b510      	push	{r4, lr}
 8008e9a:	b082      	sub	sp, #8
 8008e9c:	680b      	ldr	r3, [r1, #0]
 8008e9e:	b923      	cbnz	r3, 8008eaa <ada__exceptions__exception_information+0x12>
 8008ea0:	4807      	ldr	r0, [pc, #28]	; (8008ec0 <ada__exceptions__exception_information+0x28>)
 8008ea2:	f240 21e9 	movw	r1, #745	; 0x2e9
 8008ea6:	f000 f8e5 	bl	8009074 <__gnat_rcheck_CE_Explicit_Raise>
 8008eaa:	4604      	mov	r4, r0
 8008eac:	4668      	mov	r0, sp
 8008eae:	f7ff fd21 	bl	80088f4 <ada__exceptions__exception_data__exception_informationXn>
 8008eb2:	9b00      	ldr	r3, [sp, #0]
 8008eb4:	6023      	str	r3, [r4, #0]
 8008eb6:	9b01      	ldr	r3, [sp, #4]
 8008eb8:	6063      	str	r3, [r4, #4]
 8008eba:	4620      	mov	r0, r4
 8008ebc:	b002      	add	sp, #8
 8008ebe:	bd10      	pop	{r4, pc}
 8008ec0:	0800deb8 	.word	0x0800deb8

08008ec4 <ada__exceptions__exception_message>:
 8008ec4:	e92d 41f0 	stmdb	sp!, {r4, r5, r6, r7, r8, lr}
 8008ec8:	460c      	mov	r4, r1
 8008eca:	680b      	ldr	r3, [r1, #0]
 8008ecc:	b923      	cbnz	r3, 8008ed8 <ada__exceptions__exception_message+0x14>
 8008ece:	4811      	ldr	r0, [pc, #68]	; (8008f14 <ada__exceptions__exception_message+0x50>)
 8008ed0:	f240 21f6 	movw	r1, #758	; 0x2f6
 8008ed4:	f000 f8ce 	bl	8009074 <__gnat_rcheck_CE_Explicit_Raise>
 8008ed8:	4607      	mov	r7, r0
 8008eda:	688e      	ldr	r6, [r1, #8]
 8008edc:	ea26 76e6 	bic.w	r6, r6, r6, asr #31
 8008ee0:	f106 000b 	add.w	r0, r6, #11
 8008ee4:	f020 0003 	bic.w	r0, r0, #3
 8008ee8:	f000 f94c 	bl	8009184 <system__secondary_stack__ss_allocate>
 8008eec:	4605      	mov	r5, r0
 8008eee:	2301      	movs	r3, #1
 8008ef0:	6003      	str	r3, [r0, #0]
 8008ef2:	68a3      	ldr	r3, [r4, #8]
 8008ef4:	6043      	str	r3, [r0, #4]
 8008ef6:	f100 0808 	add.w	r8, r0, #8
 8008efa:	4640      	mov	r0, r8
 8008efc:	f104 010c 	add.w	r1, r4, #12
 8008f00:	4632      	mov	r2, r6
 8008f02:	f000 fb61 	bl	80095c8 <memcpy>
 8008f06:	f8c7 8000 	str.w	r8, [r7]
 8008f0a:	607d      	str	r5, [r7, #4]
 8008f0c:	4638      	mov	r0, r7
 8008f0e:	e8bd 81f0 	ldmia.w	sp!, {r4, r5, r6, r7, r8, pc}
 8008f12:	bf00      	nop
 8008f14:	0800deb8 	.word	0x0800deb8

08008f18 <ada__exceptions__exception_name>:
 8008f18:	e92d 41f0 	stmdb	sp!, {r4, r5, r6, r7, r8, lr}
 8008f1c:	b921      	cbnz	r1, 8008f28 <ada__exceptions__exception_name+0x10>
 8008f1e:	4810      	ldr	r0, [pc, #64]	; (8008f60 <ada__exceptions__exception_name+0x48>)
 8008f20:	f240 3103 	movw	r1, #771	; 0x303
 8008f24:	f000 f8a6 	bl	8009074 <__gnat_rcheck_CE_Explicit_Raise>
 8008f28:	4606      	mov	r6, r0
 8008f2a:	460f      	mov	r7, r1
 8008f2c:	684d      	ldr	r5, [r1, #4]
 8008f2e:	3d01      	subs	r5, #1
 8008f30:	ea25 78e5 	bic.w	r8, r5, r5, asr #31
 8008f34:	f108 000b 	add.w	r0, r8, #11
 8008f38:	f020 0003 	bic.w	r0, r0, #3
 8008f3c:	f000 f922 	bl	8009184 <system__secondary_stack__ss_allocate>
 8008f40:	4604      	mov	r4, r0
 8008f42:	2301      	movs	r3, #1
 8008f44:	6003      	str	r3, [r0, #0]
 8008f46:	6045      	str	r5, [r0, #4]
 8008f48:	f100 0508 	add.w	r5, r0, #8
 8008f4c:	4628      	mov	r0, r5
 8008f4e:	68b9      	ldr	r1, [r7, #8]
 8008f50:	4642      	mov	r2, r8
 8008f52:	f000 fb39 	bl	80095c8 <memcpy>
 8008f56:	6035      	str	r5, [r6, #0]
 8008f58:	6074      	str	r4, [r6, #4]
 8008f5a:	4630      	mov	r0, r6
 8008f5c:	e8bd 81f0 	ldmia.w	sp!, {r4, r5, r6, r7, r8, pc}
 8008f60:	0800deb8 	.word	0x0800deb8

08008f64 <ada__exceptions__exception_name__2>:
 8008f64:	b510      	push	{r4, lr}
 8008f66:	b082      	sub	sp, #8
 8008f68:	4604      	mov	r4, r0
 8008f6a:	4668      	mov	r0, sp
 8008f6c:	6809      	ldr	r1, [r1, #0]
 8008f6e:	f7ff ffd3 	bl	8008f18 <ada__exceptions__exception_name>
 8008f72:	9b00      	ldr	r3, [sp, #0]
 8008f74:	6023      	str	r3, [r4, #0]
 8008f76:	9b01      	ldr	r3, [sp, #4]
 8008f78:	6063      	str	r3, [r4, #4]
 8008f7a:	4620      	mov	r0, r4
 8008f7c:	b002      	add	sp, #8
 8008f7e:	bd10      	pop	{r4, pc}

08008f80 <__gnat_raise_constraint_error_msg>:
 8008f80:	b570      	push	{r4, r5, r6, lr}
 8008f82:	b082      	sub	sp, #8
 8008f84:	4606      	mov	r6, r0
 8008f86:	460d      	mov	r5, r1
 8008f88:	4614      	mov	r4, r2
 8008f8a:	9300      	str	r3, [sp, #0]
 8008f8c:	4802      	ldr	r0, [pc, #8]	; (8008f98 <__gnat_raise_constraint_error_msg+0x18>)
 8008f8e:	4631      	mov	r1, r6
 8008f90:	462a      	mov	r2, r5
 8008f92:	4623      	mov	r3, r4
 8008f94:	f000 f848 	bl	8009028 <ada__exceptions__raise_with_location_and_msg>
 8008f98:	20000270 	.word	0x20000270

08008f9c <ada__exceptions__complete_occurrence>:
 8008f9c:	b510      	push	{r4, lr}
 8008f9e:	b082      	sub	sp, #8
 8008fa0:	4604      	mov	r4, r0
 8008fa2:	f7ff ff53 	bl	8008e4c <ada__exceptions__call_chain>
 8008fa6:	68a3      	ldr	r3, [r4, #8]
 8008fa8:	4622      	mov	r2, r4
 8008faa:	f852 0b0c 	ldr.w	r0, [r2], #12
 8008fae:	2101      	movs	r1, #1
 8008fb0:	9100      	str	r1, [sp, #0]
 8008fb2:	9301      	str	r3, [sp, #4]
 8008fb4:	466b      	mov	r3, sp
 8008fb6:	f000 fc71 	bl	800989c <__gnat_debug_raise_exception>
 8008fba:	b002      	add	sp, #8
 8008fbc:	bd10      	pop	{r4, pc}
 8008fbe:	bf00      	nop

08008fc0 <ada__exceptions__complete_and_propagate_occurrence>:
 8008fc0:	b510      	push	{r4, lr}
 8008fc2:	4604      	mov	r4, r0
 8008fc4:	f7ff ffea 	bl	8008f9c <ada__exceptions__complete_occurrence>
 8008fc8:	4620      	mov	r0, r4
 8008fca:	f7ff fe6f 	bl	8008cac <ada__exceptions__exception_propagation__propagate_exceptionXn>
 8008fce:	bf00      	nop

08008fd0 <__gnat_raise_exception>:
 8008fd0:	b5f8      	push	{r3, r4, r5, r6, r7, lr}
 8008fd2:	4605      	mov	r5, r0
 8008fd4:	4616      	mov	r6, r2
 8008fd6:	461f      	mov	r7, r3
 8008fd8:	f7ff fe0a 	bl	8008bf0 <ada__exceptions__exception_propagation__allocate_occurrenceXn>
 8008fdc:	4604      	mov	r4, r0
 8008fde:	4629      	mov	r1, r5
 8008fe0:	4632      	mov	r2, r6
 8008fe2:	463b      	mov	r3, r7
 8008fe4:	f7ff fdba 	bl	8008b5c <ada__exceptions__exception_data__set_exception_msgXn>
 8008fe8:	4620      	mov	r0, r4
 8008fea:	f7ff ffe9 	bl	8008fc0 <ada__exceptions__complete_and_propagate_occurrence>
 8008fee:	bf00      	nop

08008ff0 <__gnat_raise_program_error_msg>:
 8008ff0:	b510      	push	{r4, lr}
 8008ff2:	b082      	sub	sp, #8
 8008ff4:	4604      	mov	r4, r0
 8008ff6:	460b      	mov	r3, r1
 8008ff8:	9200      	str	r2, [sp, #0]
 8008ffa:	4803      	ldr	r0, [pc, #12]	; (8009008 <__gnat_raise_program_error_msg+0x18>)
 8008ffc:	4621      	mov	r1, r4
 8008ffe:	461a      	mov	r2, r3
 8009000:	2300      	movs	r3, #0
 8009002:	f000 f811 	bl	8009028 <ada__exceptions__raise_with_location_and_msg>
 8009006:	bf00      	nop
 8009008:	20000254 	.word	0x20000254

0800900c <__gnat_raise_storage_error_msg>:
 800900c:	b510      	push	{r4, lr}
 800900e:	b082      	sub	sp, #8
 8009010:	4604      	mov	r4, r0
 8009012:	460b      	mov	r3, r1
 8009014:	9200      	str	r2, [sp, #0]
 8009016:	4803      	ldr	r0, [pc, #12]	; (8009024 <__gnat_raise_storage_error_msg+0x18>)
 8009018:	4621      	mov	r1, r4
 800901a:	461a      	mov	r2, r3
 800901c:	2300      	movs	r3, #0
 800901e:	f000 f803 	bl	8009028 <ada__exceptions__raise_with_location_and_msg>
 8009022:	bf00      	nop
 8009024:	20000204 	.word	0x20000204

08009028 <ada__exceptions__raise_with_location_and_msg>:
 8009028:	e92d 41f0 	stmdb	sp!, {r4, r5, r6, r7, r8, lr}
 800902c:	b082      	sub	sp, #8
 800902e:	4607      	mov	r7, r0
 8009030:	460e      	mov	r6, r1
 8009032:	4615      	mov	r5, r2
 8009034:	4698      	mov	r8, r3
 8009036:	f7ff fddb 	bl	8008bf0 <ada__exceptions__exception_propagation__allocate_occurrenceXn>
 800903a:	4604      	mov	r4, r0
 800903c:	f8cd 8000 	str.w	r8, [sp]
 8009040:	9b08      	ldr	r3, [sp, #32]
 8009042:	9301      	str	r3, [sp, #4]
 8009044:	4639      	mov	r1, r7
 8009046:	4632      	mov	r2, r6
 8009048:	462b      	mov	r3, r5
 800904a:	f7ff fd33 	bl	8008ab4 <ada__exceptions__exception_data__set_exception_c_msgXn>
 800904e:	4620      	mov	r0, r4
 8009050:	f7ff ffb6 	bl	8008fc0 <ada__exceptions__complete_and_propagate_occurrence>

08009054 <__gnat_rcheck_CE_Access_Check>:
 8009054:	b508      	push	{r3, lr}
 8009056:	2200      	movs	r2, #0
 8009058:	4b01      	ldr	r3, [pc, #4]	; (8009060 <__gnat_rcheck_CE_Access_Check+0xc>)
 800905a:	f7ff ff91 	bl	8008f80 <__gnat_raise_constraint_error_msg>
 800905e:	bf00      	nop
 8009060:	0800db48 	.word	0x0800db48

08009064 <__gnat_rcheck_CE_Discriminant_Check>:
 8009064:	b508      	push	{r3, lr}
 8009066:	2200      	movs	r2, #0
 8009068:	4b01      	ldr	r3, [pc, #4]	; (8009070 <__gnat_rcheck_CE_Discriminant_Check+0xc>)
 800906a:	f7ff ff89 	bl	8008f80 <__gnat_raise_constraint_error_msg>
 800906e:	bf00      	nop
 8009070:	0800db5c 	.word	0x0800db5c

08009074 <__gnat_rcheck_CE_Explicit_Raise>:
 8009074:	b508      	push	{r3, lr}
 8009076:	2200      	movs	r2, #0
 8009078:	4b01      	ldr	r3, [pc, #4]	; (8009080 <__gnat_rcheck_CE_Explicit_Raise+0xc>)
 800907a:	f7ff ff81 	bl	8008f80 <__gnat_raise_constraint_error_msg>
 800907e:	bf00      	nop
 8009080:	0800db78 	.word	0x0800db78

08009084 <__gnat_rcheck_CE_Index_Check>:
 8009084:	b508      	push	{r3, lr}
 8009086:	2200      	movs	r2, #0
 8009088:	4b01      	ldr	r3, [pc, #4]	; (8009090 <__gnat_rcheck_CE_Index_Check+0xc>)
 800908a:	f7ff ff79 	bl	8008f80 <__gnat_raise_constraint_error_msg>
 800908e:	bf00      	nop
 8009090:	0800db88 	.word	0x0800db88

08009094 <__gnat_rcheck_CE_Invalid_Data>:
 8009094:	b508      	push	{r3, lr}
 8009096:	2200      	movs	r2, #0
 8009098:	4b01      	ldr	r3, [pc, #4]	; (80090a0 <__gnat_rcheck_CE_Invalid_Data+0xc>)
 800909a:	f7ff ff71 	bl	8008f80 <__gnat_raise_constraint_error_msg>
 800909e:	bf00      	nop
 80090a0:	0800db9c 	.word	0x0800db9c

080090a4 <__gnat_rcheck_CE_Overflow_Check>:
 80090a4:	b508      	push	{r3, lr}
 80090a6:	2200      	movs	r2, #0
 80090a8:	4b01      	ldr	r3, [pc, #4]	; (80090b0 <__gnat_rcheck_CE_Overflow_Check+0xc>)
 80090aa:	f7ff ff69 	bl	8008f80 <__gnat_raise_constraint_error_msg>
 80090ae:	bf00      	nop
 80090b0:	0800dbac 	.word	0x0800dbac

080090b4 <__gnat_rcheck_CE_Range_Check>:
 80090b4:	b508      	push	{r3, lr}
 80090b6:	2200      	movs	r2, #0
 80090b8:	4b01      	ldr	r3, [pc, #4]	; (80090c0 <__gnat_rcheck_CE_Range_Check+0xc>)
 80090ba:	f7ff ff61 	bl	8008f80 <__gnat_raise_constraint_error_msg>
 80090be:	bf00      	nop
 80090c0:	0800dbc4 	.word	0x0800dbc4

080090c4 <__gnat_rcheck_PE_Explicit_Raise>:
 80090c4:	b508      	push	{r3, lr}
 80090c6:	4a01      	ldr	r2, [pc, #4]	; (80090cc <__gnat_rcheck_PE_Explicit_Raise+0x8>)
 80090c8:	f7ff ff92 	bl	8008ff0 <__gnat_raise_program_error_msg>
 80090cc:	0800dbd8 	.word	0x0800dbd8

080090d0 <__gnat_rcheck_SE_Explicit_Raise>:
 80090d0:	b508      	push	{r3, lr}
 80090d2:	4a01      	ldr	r2, [pc, #4]	; (80090d8 <__gnat_rcheck_SE_Explicit_Raise+0x8>)
 80090d4:	f7ff ff9a 	bl	800900c <__gnat_raise_storage_error_msg>
 80090d8:	0800dbe8 	.word	0x0800dbe8

080090dc <ada__exceptions__reraise_occurrence>:
 80090dc:	b508      	push	{r3, lr}
 80090de:	6803      	ldr	r3, [r0, #0]
 80090e0:	b10b      	cbz	r3, 80090e6 <ada__exceptions__reraise_occurrence+0xa>
 80090e2:	f000 f801 	bl	80090e8 <ada__exceptions__reraise_occurrence_always>
 80090e6:	bd08      	pop	{r3, pc}

080090e8 <ada__exceptions__reraise_occurrence_always>:
 80090e8:	b508      	push	{r3, lr}
 80090ea:	f000 f801 	bl	80090f0 <ada__exceptions__reraise_occurrence_no_defer>
 80090ee:	bf00      	nop

080090f0 <ada__exceptions__reraise_occurrence_no_defer>:
 80090f0:	b570      	push	{r4, r5, r6, lr}
 80090f2:	4606      	mov	r6, r0
 80090f4:	f7ff fd7c 	bl	8008bf0 <ada__exceptions__exception_propagation__allocate_occurrenceXn>
 80090f8:	4604      	mov	r4, r0
 80090fa:	6845      	ldr	r5, [r0, #4]
 80090fc:	4631      	mov	r1, r6
 80090fe:	f000 f805 	bl	800910c <ada__exceptions__save_occurrence>
 8009102:	6065      	str	r5, [r4, #4]
 8009104:	4620      	mov	r0, r4
 8009106:	f7ff ff5b 	bl	8008fc0 <ada__exceptions__complete_and_propagate_occurrence>
 800910a:	bf00      	nop

0800910c <ada__exceptions__save_occurrence>:
 800910c:	b538      	push	{r3, r4, r5, lr}
 800910e:	4604      	mov	r4, r0
 8009110:	460d      	mov	r5, r1
 8009112:	680b      	ldr	r3, [r1, #0]
 8009114:	6003      	str	r3, [r0, #0]
 8009116:	2300      	movs	r3, #0
 8009118:	6043      	str	r3, [r0, #4]
 800911a:	688a      	ldr	r2, [r1, #8]
 800911c:	6082      	str	r2, [r0, #8]
 800911e:	f8d1 30dc 	ldr.w	r3, [r1, #220]	; 0xdc
 8009122:	f8c0 30dc 	str.w	r3, [r0, #220]	; 0xdc
 8009126:	f8d1 30d8 	ldr.w	r3, [r1, #216]	; 0xd8
 800912a:	f8c0 30d8 	str.w	r3, [r0, #216]	; 0xd8
 800912e:	300c      	adds	r0, #12
 8009130:	310c      	adds	r1, #12
 8009132:	ea22 72e2 	bic.w	r2, r2, r2, asr #31
 8009136:	f000 fab5 	bl	80096a4 <memmove>
 800913a:	f8d4 20dc 	ldr.w	r2, [r4, #220]	; 0xdc
 800913e:	ea22 72e2 	bic.w	r2, r2, r2, asr #31
 8009142:	f104 00e0 	add.w	r0, r4, #224	; 0xe0
 8009146:	f105 01e0 	add.w	r1, r5, #224	; 0xe0
 800914a:	0092      	lsls	r2, r2, #2
 800914c:	f000 faaa 	bl	80096a4 <memmove>
 8009150:	bd38      	pop	{r3, r4, r5, pc}
 8009152:	bf00      	nop

08009154 <__gnat_to_stderr_char>:
 8009154:	b508      	push	{r3, lr}
 8009156:	f000 f935 	bl	80093c4 <put_char_stderr>
 800915a:	bd08      	pop	{r3, pc}

0800915c <__gnat_to_stderr>:
 800915c:	b570      	push	{r4, r5, r6, lr}
 800915e:	680d      	ldr	r5, [r1, #0]
 8009160:	684e      	ldr	r6, [r1, #4]
 8009162:	42b5      	cmp	r5, r6
 8009164:	dc09      	bgt.n	800917a <__gnat_to_stderr+0x1e>
 8009166:	1e6c      	subs	r4, r5, #1
 8009168:	1b45      	subs	r5, r0, r5
 800916a:	3401      	adds	r4, #1
 800916c:	5d28      	ldrb	r0, [r5, r4]
 800916e:	280d      	cmp	r0, #13
 8009170:	d001      	beq.n	8009176 <__gnat_to_stderr+0x1a>
 8009172:	f7ff ffef 	bl	8009154 <__gnat_to_stderr_char>
 8009176:	42a6      	cmp	r6, r4
 8009178:	d1f7      	bne.n	800916a <__gnat_to_stderr+0xe>
 800917a:	bd70      	pop	{r4, r5, r6, pc}

0800917c <ada__exceptions__code_address_for_zzz>:
 800917c:	4800      	ldr	r0, [pc, #0]	; (8009180 <ada__exceptions__code_address_for_zzz+0x4>)
 800917e:	4770      	bx	lr
 8009180:	0800917c 	.word	0x0800917c

08009184 <system__secondary_stack__ss_allocate>:
 8009184:	b510      	push	{r4, lr}
 8009186:	4604      	mov	r4, r0
 8009188:	f7fd fc8a 	bl	8006aa0 <__gnat_get_secondary_stack>
 800918c:	1de3      	adds	r3, r4, #7
 800918e:	6802      	ldr	r2, [r0, #0]
 8009190:	6841      	ldr	r1, [r0, #4]
 8009192:	f023 0307 	bic.w	r3, r3, #7
 8009196:	4413      	add	r3, r2
 8009198:	428b      	cmp	r3, r1
 800919a:	d804      	bhi.n	80091a6 <system__secondary_stack__ss_allocate+0x22>
 800919c:	3207      	adds	r2, #7
 800919e:	4402      	add	r2, r0
 80091a0:	6003      	str	r3, [r0, #0]
 80091a2:	4610      	mov	r0, r2
 80091a4:	bd10      	pop	{r4, pc}
 80091a6:	4802      	ldr	r0, [pc, #8]	; (80091b0 <system__secondary_stack__ss_allocate+0x2c>)
 80091a8:	2167      	movs	r1, #103	; 0x67
 80091aa:	f7ff ff91 	bl	80090d0 <__gnat_rcheck_SE_Explicit_Raise>
 80091ae:	bf00      	nop
 80091b0:	0800df7c 	.word	0x0800df7c

080091b4 <system__secondary_stack__ss_init>:
 80091b4:	3908      	subs	r1, #8
 80091b6:	2301      	movs	r3, #1
 80091b8:	6041      	str	r1, [r0, #4]
 80091ba:	6003      	str	r3, [r0, #0]
 80091bc:	4770      	bx	lr
 80091be:	bf00      	nop

080091c0 <system__secondary_stack__ss_mark>:
 80091c0:	b508      	push	{r3, lr}
 80091c2:	f7fd fc6d 	bl	8006aa0 <__gnat_get_secondary_stack>
 80091c6:	6800      	ldr	r0, [r0, #0]
 80091c8:	bd08      	pop	{r3, pc}
 80091ca:	bf00      	nop

080091cc <system__secondary_stack__ss_release>:
 80091cc:	b510      	push	{r4, lr}
 80091ce:	4604      	mov	r4, r0
 80091d0:	f7fd fc66 	bl	8006aa0 <__gnat_get_secondary_stack>
 80091d4:	6004      	str	r4, [r0, #0]
 80091d6:	bd10      	pop	{r4, pc}

080091d8 <_ada_system__address_image>:
 80091d8:	e92d 41f0 	stmdb	sp!, {r4, r5, r6, r7, r8, lr}
 80091dc:	b084      	sub	sp, #16
 80091de:	4680      	mov	r8, r0
 80091e0:	2010      	movs	r0, #16
 80091e2:	460d      	mov	r5, r1
 80091e4:	f7ff ffce 	bl	8009184 <system__secondary_stack__ss_allocate>
 80091e8:	4b0f      	ldr	r3, [pc, #60]	; (8009228 <_ada_system__address_image+0x50>)
 80091ea:	4c10      	ldr	r4, [pc, #64]	; (800922c <_ada_system__address_image+0x54>)
 80091ec:	9503      	str	r5, [sp, #12]
 80091ee:	4606      	mov	r6, r0
 80091f0:	e893 0003 	ldmia.w	r3, {r0, r1}
 80091f4:	f106 0708 	add.w	r7, r6, #8
 80091f8:	e886 0003 	stmia.w	r6, {r0, r1}
 80091fc:	4633      	mov	r3, r6
 80091fe:	9501      	str	r5, [sp, #4]
 8009200:	f10d 010f 	add.w	r1, sp, #15
 8009204:	f811 2901 	ldrb.w	r2, [r1], #-1
 8009208:	0915      	lsrs	r5, r2, #4
 800920a:	f002 020f 	and.w	r2, r2, #15
 800920e:	5d65      	ldrb	r5, [r4, r5]
 8009210:	5ca2      	ldrb	r2, [r4, r2]
 8009212:	721d      	strb	r5, [r3, #8]
 8009214:	725a      	strb	r2, [r3, #9]
 8009216:	3302      	adds	r3, #2
 8009218:	42bb      	cmp	r3, r7
 800921a:	d1f3      	bne.n	8009204 <_ada_system__address_image+0x2c>
 800921c:	e888 0048 	stmia.w	r8, {r3, r6}
 8009220:	4640      	mov	r0, r8
 8009222:	b004      	add	sp, #16
 8009224:	e8bd 81f0 	ldmia.w	sp!, {r4, r5, r6, r7, r8, pc}
 8009228:	0800df8c 	.word	0x0800df8c
 800922c:	0800df94 	.word	0x0800df94

08009230 <system__soft_links__get_current_excep_soft>:
 8009230:	4b02      	ldr	r3, [pc, #8]	; (800923c <system__soft_links__get_current_excep_soft+0xc>)
 8009232:	681b      	ldr	r3, [r3, #0]
 8009234:	6a98      	ldr	r0, [r3, #40]	; 0x28
 8009236:	309c      	adds	r0, #156	; 0x9c
 8009238:	4770      	bx	lr
 800923a:	bf00      	nop
 800923c:	200000f4 	.word	0x200000f4

08009240 <system__soft_links__adafinal_soft>:
 8009240:	4b01      	ldr	r3, [pc, #4]	; (8009248 <system__soft_links__adafinal_soft+0x8>)
 8009242:	4802      	ldr	r0, [pc, #8]	; (800924c <system__soft_links__adafinal_soft+0xc>)
 8009244:	681b      	ldr	r3, [r3, #0]
 8009246:	4718      	bx	r3
 8009248:	200001d0 	.word	0x200001d0
 800924c:	0800d9a0 	.word	0x0800d9a0

08009250 <system__soft_links__task_lock_soft>:
 8009250:	490c      	ldr	r1, [pc, #48]	; (8009284 <system__soft_links__task_lock_soft+0x34>)
 8009252:	680b      	ldr	r3, [r1, #0]
 8009254:	6a9a      	ldr	r2, [r3, #40]	; 0x28
 8009256:	f8d2 324c 	ldr.w	r3, [r2, #588]	; 0x24c
 800925a:	3301      	adds	r3, #1
 800925c:	2b01      	cmp	r3, #1
 800925e:	f8c2 324c 	str.w	r3, [r2, #588]	; 0x24c
 8009262:	d000      	beq.n	8009266 <system__soft_links__task_lock_soft+0x16>
 8009264:	4770      	bx	lr
 8009266:	b510      	push	{r4, lr}
 8009268:	f8d2 3080 	ldr.w	r3, [r2, #128]	; 0x80
 800926c:	6b5c      	ldr	r4, [r3, #52]	; 0x34
 800926e:	b672      	cpsid	i
 8009270:	6808      	ldr	r0, [r1, #0]
 8009272:	21ff      	movs	r1, #255	; 0xff
 8009274:	f7fd f8c2 	bl	80063fc <system__bb__threads__queues__change_priority>
 8009278:	f7fd fe18 	bl	8006eac <system__bb__protection__leave_kernel>
 800927c:	4b02      	ldr	r3, [pc, #8]	; (8009288 <system__soft_links__task_lock_soft+0x38>)
 800927e:	601c      	str	r4, [r3, #0]
 8009280:	bd10      	pop	{r4, pc}
 8009282:	bf00      	nop
 8009284:	200000f4 	.word	0x200000f4
 8009288:	200040bc 	.word	0x200040bc

0800928c <system__soft_links__task_unlock_soft>:
 800928c:	b508      	push	{r3, lr}
 800928e:	490a      	ldr	r1, [pc, #40]	; (80092b8 <system__soft_links__task_unlock_soft+0x2c>)
 8009290:	680b      	ldr	r3, [r1, #0]
 8009292:	6a9a      	ldr	r2, [r3, #40]	; 0x28
 8009294:	f8d2 324c 	ldr.w	r3, [r2, #588]	; 0x24c
 8009298:	3b01      	subs	r3, #1
 800929a:	f8c2 324c 	str.w	r3, [r2, #588]	; 0x24c
 800929e:	b103      	cbz	r3, 80092a2 <system__soft_links__task_unlock_soft+0x16>
 80092a0:	bd08      	pop	{r3, pc}
 80092a2:	b672      	cpsid	i
 80092a4:	4b05      	ldr	r3, [pc, #20]	; (80092bc <system__soft_links__task_unlock_soft+0x30>)
 80092a6:	6808      	ldr	r0, [r1, #0]
 80092a8:	6819      	ldr	r1, [r3, #0]
 80092aa:	f7fd f8a7 	bl	80063fc <system__bb__threads__queues__change_priority>
 80092ae:	e8bd 4008 	ldmia.w	sp!, {r3, lr}
 80092b2:	f7fd bdfb 	b.w	8006eac <system__bb__protection__leave_kernel>
 80092b6:	bf00      	nop
 80092b8:	200000f4 	.word	0x200000f4
 80092bc:	200040bc 	.word	0x200040bc

080092c0 <system__soft_links__task_termination_soft>:
 80092c0:	b570      	push	{r4, r5, r6, lr}
 80092c2:	b082      	sub	sp, #8
 80092c4:	4d12      	ldr	r5, [pc, #72]	; (8009310 <system__soft_links__task_termination_soft+0x50>)
 80092c6:	682b      	ldr	r3, [r5, #0]
 80092c8:	6a9e      	ldr	r6, [r3, #40]	; 0x28
 80092ca:	b672      	cpsid	i
 80092cc:	21ff      	movs	r1, #255	; 0xff
 80092ce:	6828      	ldr	r0, [r5, #0]
 80092d0:	f7fd f894 	bl	80063fc <system__bb__threads__queues__change_priority>
 80092d4:	f7fd fdea 	bl	8006eac <system__bb__protection__leave_kernel>
 80092d8:	4b0e      	ldr	r3, [pc, #56]	; (8009314 <system__soft_links__task_termination_soft+0x54>)
 80092da:	68f2      	ldr	r2, [r6, #12]
 80092dc:	e893 0003 	ldmia.w	r3, {r0, r1}
 80092e0:	e88d 0003 	stmia.w	sp, {r0, r1}
 80092e4:	b672      	cpsid	i
 80092e6:	4611      	mov	r1, r2
 80092e8:	6828      	ldr	r0, [r5, #0]
 80092ea:	f7fd f887 	bl	80063fc <system__bb__threads__queues__change_priority>
 80092ee:	f7fd fddd 	bl	8006eac <system__bb__protection__leave_kernel>
 80092f2:	4668      	mov	r0, sp
 80092f4:	4908      	ldr	r1, [pc, #32]	; (8009318 <system__soft_links__task_termination_soft+0x58>)
 80092f6:	2208      	movs	r2, #8
 80092f8:	f7fe fcca 	bl	8007c90 <memcmp>
 80092fc:	b908      	cbnz	r0, 8009302 <system__soft_links__task_termination_soft+0x42>
 80092fe:	b002      	add	sp, #8
 8009300:	bd70      	pop	{r4, r5, r6, pc}
 8009302:	e89d 0009 	ldmia.w	sp, {r0, r3}
 8009306:	4631      	mov	r1, r6
 8009308:	b002      	add	sp, #8
 800930a:	e8bd 4070 	ldmia.w	sp!, {r4, r5, r6, lr}
 800930e:	4718      	bx	r3
 8009310:	200000f4 	.word	0x200000f4
 8009314:	2000011c 	.word	0x2000011c
 8009318:	0800dfa4 	.word	0x0800dfa4

0800931c <system__soft_links___elabs>:
 800931c:	4b05      	ldr	r3, [pc, #20]	; (8009334 <system__soft_links___elabs+0x18>)
 800931e:	2200      	movs	r2, #0
 8009320:	601a      	str	r2, [r3, #0]
 8009322:	609a      	str	r2, [r3, #8]
 8009324:	f883 20d4 	strb.w	r2, [r3, #212]	; 0xd4
 8009328:	f8c3 20d8 	str.w	r2, [r3, #216]	; 0xd8
 800932c:	f8c3 20dc 	str.w	r2, [r3, #220]	; 0xdc
 8009330:	4770      	bx	lr
 8009332:	bf00      	nop
 8009334:	200040c0 	.word	0x200040c0

08009338 <system__storage_pools___size__2>:
 8009338:	2020      	movs	r0, #32
 800933a:	2100      	movs	r1, #0
 800933c:	4770      	bx	lr
 800933e:	bf00      	nop

08009340 <system__storage_pools__root_storage_poolDF__2>:
 8009340:	4770      	bx	lr
 8009342:	bf00      	nop

08009344 <system__storage_pools___elabs>:
 8009344:	4801      	ldr	r0, [pc, #4]	; (800934c <system__storage_pools___elabs+0x8>)
 8009346:	f7fe bd91 	b.w	8007e6c <ada__tags__register_tag>
 800934a:	bf00      	nop
 800934c:	0800dfe8 	.word	0x0800dfe8

08009350 <system__io__put__2>:
 8009350:	b510      	push	{r4, lr}
 8009352:	4b08      	ldr	r3, [pc, #32]	; (8009374 <system__io__put__2+0x24>)
 8009354:	781b      	ldrb	r3, [r3, #0]
 8009356:	4604      	mov	r4, r0
 8009358:	b143      	cbz	r3, 800936c <system__io__put__2+0x1c>
 800935a:	f000 fd6b 	bl	8009e34 <system__text_io__is_tx_ready>
 800935e:	2800      	cmp	r0, #0
 8009360:	d0fb      	beq.n	800935a <system__io__put__2+0xa>
 8009362:	4620      	mov	r0, r4
 8009364:	e8bd 4010 	ldmia.w	sp!, {r4, lr}
 8009368:	f000 bd6c 	b.w	8009e44 <system__text_io__put>
 800936c:	f000 fbb2 	bl	8009ad4 <system__text_io__initialize>
 8009370:	e7f3      	b.n	800935a <system__io__put__2+0xa>
 8009372:	bf00      	nop
 8009374:	200002b4 	.word	0x200002b4

08009378 <system__io__new_line>:
 8009378:	b538      	push	{r3, r4, r5, lr}
 800937a:	4605      	mov	r5, r0
 800937c:	2400      	movs	r4, #0
 800937e:	e004      	b.n	800938a <system__io__new_line+0x12>
 8009380:	200a      	movs	r0, #10
 8009382:	f7ff ffe5 	bl	8009350 <system__io__put__2>
 8009386:	42ac      	cmp	r4, r5
 8009388:	d00c      	beq.n	80093a4 <system__io__new_line+0x2c>
 800938a:	3401      	adds	r4, #1
 800938c:	f000 fd62 	bl	8009e54 <system__text_io__use_cr_lf_for_new_line>
 8009390:	2800      	cmp	r0, #0
 8009392:	d0f5      	beq.n	8009380 <system__io__new_line+0x8>
 8009394:	200d      	movs	r0, #13
 8009396:	f7ff ffdb 	bl	8009350 <system__io__put__2>
 800939a:	200a      	movs	r0, #10
 800939c:	f7ff ffd8 	bl	8009350 <system__io__put__2>
 80093a0:	42ac      	cmp	r4, r5
 80093a2:	d1f2      	bne.n	800938a <system__io__new_line+0x12>
 80093a4:	bd38      	pop	{r3, r4, r5, pc}
 80093a6:	bf00      	nop

080093a8 <system__io__put__3>:
 80093a8:	b570      	push	{r4, r5, r6, lr}
 80093aa:	e891 0050 	ldmia.w	r1, {r4, r6}
 80093ae:	42b4      	cmp	r4, r6
 80093b0:	dc07      	bgt.n	80093c2 <system__io__put__3+0x1a>
 80093b2:	1b05      	subs	r5, r0, r4
 80093b4:	3c01      	subs	r4, #1
 80093b6:	3401      	adds	r4, #1
 80093b8:	5d28      	ldrb	r0, [r5, r4]
 80093ba:	f7ff ffc9 	bl	8009350 <system__io__put__2>
 80093be:	42b4      	cmp	r4, r6
 80093c0:	d1f9      	bne.n	80093b6 <system__io__put__3+0xe>
 80093c2:	bd70      	pop	{r4, r5, r6, pc}

080093c4 <put_char_stderr>:
 80093c4:	f7ff bfc4 	b.w	8009350 <system__io__put__2>

080093c8 <system__io__put_line>:
 80093c8:	b508      	push	{r3, lr}
 80093ca:	f7ff ffed 	bl	80093a8 <system__io__put__3>
 80093ce:	2001      	movs	r0, #1
 80093d0:	e8bd 4008 	ldmia.w	sp!, {r3, lr}
 80093d4:	f7ff bfd0 	b.w	8009378 <system__io__new_line>

080093d8 <system__pool_global___size>:
 80093d8:	2020      	movs	r0, #32
 80093da:	2100      	movs	r1, #0
 80093dc:	4770      	bx	lr
 80093de:	bf00      	nop

080093e0 <system__pool_global__unbounded_no_reclaim_poolDF>:
 80093e0:	4770      	bx	lr
 80093e2:	bf00      	nop

080093e4 <system__pool_global__storage_size>:
 80093e4:	f06f 4000 	mvn.w	r0, #2147483648	; 0x80000000
 80093e8:	4770      	bx	lr
 80093ea:	bf00      	nop

080093ec <system__pool_global__allocate>:
 80093ec:	b510      	push	{r4, lr}
 80093ee:	2a08      	cmp	r2, #8
 80093f0:	4614      	mov	r4, r2
 80093f2:	dd0b      	ble.n	800940c <system__pool_global__allocate+0x20>
 80093f4:	1850      	adds	r0, r2, r1
 80093f6:	f000 f90b 	bl	8009610 <__gnat_malloc>
 80093fa:	4603      	mov	r3, r0
 80093fc:	b158      	cbz	r0, 8009416 <system__pool_global__allocate+0x2a>
 80093fe:	fbb0 f0f4 	udiv	r0, r0, r4
 8009402:	fb04 4000 	mla	r0, r4, r0, r4
 8009406:	f840 3c04 	str.w	r3, [r0, #-4]
 800940a:	bd10      	pop	{r4, pc}
 800940c:	4608      	mov	r0, r1
 800940e:	f000 f8ff 	bl	8009610 <__gnat_malloc>
 8009412:	2800      	cmp	r0, #0
 8009414:	d1f9      	bne.n	800940a <system__pool_global__allocate+0x1e>
 8009416:	4802      	ldr	r0, [pc, #8]	; (8009420 <system__pool_global__allocate+0x34>)
 8009418:	213f      	movs	r1, #63	; 0x3f
 800941a:	f7ff fe59 	bl	80090d0 <__gnat_rcheck_SE_Explicit_Raise>
 800941e:	bf00      	nop
 8009420:	0800e060 	.word	0x0800e060

08009424 <system__pool_global__deallocate>:
 8009424:	2b08      	cmp	r3, #8
 8009426:	dc02      	bgt.n	800942e <system__pool_global__deallocate+0xa>
 8009428:	4608      	mov	r0, r1
 800942a:	f000 b91b 	b.w	8009664 <__gnat_free>
 800942e:	f851 0c04 	ldr.w	r0, [r1, #-4]
 8009432:	f000 b917 	b.w	8009664 <__gnat_free>
 8009436:	bf00      	nop

08009438 <system__pool_global___elabs>:
 8009438:	b510      	push	{r4, lr}
 800943a:	4c05      	ldr	r4, [pc, #20]	; (8009450 <system__pool_global___elabs+0x18>)
 800943c:	4620      	mov	r0, r4
 800943e:	f7fe fd15 	bl	8007e6c <ada__tags__register_tag>
 8009442:	4a04      	ldr	r2, [pc, #16]	; (8009454 <system__pool_global___elabs+0x1c>)
 8009444:	4b04      	ldr	r3, [pc, #16]	; (8009458 <system__pool_global___elabs+0x20>)
 8009446:	6014      	str	r4, [r2, #0]
 8009448:	2201      	movs	r2, #1
 800944a:	601a      	str	r2, [r3, #0]
 800944c:	bd10      	pop	{r4, pc}
 800944e:	bf00      	nop
 8009450:	0800e0b0 	.word	0x0800e0b0
 8009454:	20004268 	.word	0x20004268
 8009458:	200001e0 	.word	0x200001e0

0800945c <__gnat_last_chance_handler>:
 800945c:	e92d 47f0 	stmdb	sp!, {r4, r5, r6, r7, r8, r9, sl, lr}
 8009460:	b08a      	sub	sp, #40	; 0x28
 8009462:	af00      	add	r7, sp, #0
 8009464:	4604      	mov	r4, r0
 8009466:	f7ff feab 	bl	80091c0 <system__secondary_stack__ss_mark>
 800946a:	4680      	mov	r8, r0
 800946c:	484e      	ldr	r0, [pc, #312]	; (80095a8 <__gnat_last_chance_handler+0x14c>)
 800946e:	f100 0118 	add.w	r1, r0, #24
 8009472:	f7ff ffa9 	bl	80093c8 <system__io__put_line>
 8009476:	4638      	mov	r0, r7
 8009478:	4621      	mov	r1, r4
 800947a:	46ea      	mov	sl, sp
 800947c:	f7ff fd72 	bl	8008f64 <ada__exceptions__exception_name__2>
 8009480:	687a      	ldr	r2, [r7, #4]
 8009482:	4d4a      	ldr	r5, [pc, #296]	; (80095ac <__gnat_last_chance_handler+0x150>)
 8009484:	6816      	ldr	r6, [r2, #0]
 8009486:	6853      	ldr	r3, [r2, #4]
 8009488:	f8d7 c000 	ldr.w	ip, [r7]
 800948c:	42b3      	cmp	r3, r6
 800948e:	bfa6      	itte	ge
 8009490:	1b9e      	subge	r6, r3, r6
 8009492:	3601      	addge	r6, #1
 8009494:	2600      	movlt	r6, #0
 8009496:	3619      	adds	r6, #25
 8009498:	cd0f      	ldmia	r5!, {r0, r1, r2, r3}
 800949a:	ea26 7ee6 	bic.w	lr, r6, r6, asr #31
 800949e:	f10e 0e07 	add.w	lr, lr, #7
 80094a2:	f02e 0e07 	bic.w	lr, lr, #7
 80094a6:	ebad 0d0e 	sub.w	sp, sp, lr
 80094aa:	9000      	str	r0, [sp, #0]
 80094ac:	9101      	str	r1, [sp, #4]
 80094ae:	9202      	str	r2, [sp, #8]
 80094b0:	9303      	str	r3, [sp, #12]
 80094b2:	cd03      	ldmia	r5!, {r0, r1}
 80094b4:	9004      	str	r0, [sp, #16]
 80094b6:	9105      	str	r1, [sp, #20]
 80094b8:	782b      	ldrb	r3, [r5, #0]
 80094ba:	f88d 3018 	strb.w	r3, [sp, #24]
 80094be:	2e19      	cmp	r6, #25
 80094c0:	4632      	mov	r2, r6
 80094c2:	bfb8      	it	lt
 80094c4:	2219      	movlt	r2, #25
 80094c6:	4661      	mov	r1, ip
 80094c8:	3a19      	subs	r2, #25
 80094ca:	f10d 0019 	add.w	r0, sp, #25
 80094ce:	f000 f87b 	bl	80095c8 <memcpy>
 80094d2:	2301      	movs	r3, #1
 80094d4:	4668      	mov	r0, sp
 80094d6:	f107 010c 	add.w	r1, r7, #12
 80094da:	613e      	str	r6, [r7, #16]
 80094dc:	60fb      	str	r3, [r7, #12]
 80094de:	f7ff ff73 	bl	80093c8 <system__io__put_line>
 80094e2:	4638      	mov	r0, r7
 80094e4:	46d5      	mov	sp, sl
 80094e6:	4621      	mov	r1, r4
 80094e8:	f7ff fcec 	bl	8008ec4 <ada__exceptions__exception_message>
 80094ec:	687a      	ldr	r2, [r7, #4]
 80094ee:	683e      	ldr	r6, [r7, #0]
 80094f0:	6815      	ldr	r5, [r2, #0]
 80094f2:	6853      	ldr	r3, [r2, #4]
 80094f4:	42ab      	cmp	r3, r5
 80094f6:	bfa6      	itte	ge
 80094f8:	1b5d      	subge	r5, r3, r5
 80094fa:	3501      	addge	r5, #1
 80094fc:	2500      	movlt	r5, #0
 80094fe:	3509      	adds	r5, #9
 8009500:	4b2b      	ldr	r3, [pc, #172]	; (80095b0 <__gnat_last_chance_handler+0x154>)
 8009502:	ea25 72e5 	bic.w	r2, r5, r5, asr #31
 8009506:	cb03      	ldmia	r3!, {r0, r1}
 8009508:	3207      	adds	r2, #7
 800950a:	f022 0207 	bic.w	r2, r2, #7
 800950e:	ebad 0d02 	sub.w	sp, sp, r2
 8009512:	2d09      	cmp	r5, #9
 8009514:	781b      	ldrb	r3, [r3, #0]
 8009516:	9000      	str	r0, [sp, #0]
 8009518:	462a      	mov	r2, r5
 800951a:	bfb8      	it	lt
 800951c:	2209      	movlt	r2, #9
 800951e:	9101      	str	r1, [sp, #4]
 8009520:	f88d 3008 	strb.w	r3, [sp, #8]
 8009524:	4631      	mov	r1, r6
 8009526:	f10d 0009 	add.w	r0, sp, #9
 800952a:	3a09      	subs	r2, #9
 800952c:	f000 f84c 	bl	80095c8 <memcpy>
 8009530:	2301      	movs	r3, #1
 8009532:	4668      	mov	r0, sp
 8009534:	f107 0114 	add.w	r1, r7, #20
 8009538:	61bd      	str	r5, [r7, #24]
 800953a:	617b      	str	r3, [r7, #20]
 800953c:	f7ff ff44 	bl	80093c8 <system__io__put_line>
 8009540:	481c      	ldr	r0, [pc, #112]	; (80095b4 <__gnat_last_chance_handler+0x158>)
 8009542:	46d5      	mov	sp, sl
 8009544:	f100 0120 	add.w	r1, r0, #32
 8009548:	f7ff ff3e 	bl	80093c8 <system__io__put_line>
 800954c:	f8d4 60dc 	ldr.w	r6, [r4, #220]	; 0xdc
 8009550:	2e00      	cmp	r6, #0
 8009552:	dd14      	ble.n	800957e <__gnat_last_chance_handler+0x122>
 8009554:	34e0      	adds	r4, #224	; 0xe0
 8009556:	2500      	movs	r5, #0
 8009558:	f107 001c 	add.w	r0, r7, #28
 800955c:	6821      	ldr	r1, [r4, #0]
 800955e:	3501      	adds	r5, #1
 8009560:	f000 fde8 	bl	800a134 <gnat__debug_utilities__image_c>
 8009564:	f107 001c 	add.w	r0, r7, #28
 8009568:	4913      	ldr	r1, [pc, #76]	; (80095b8 <__gnat_last_chance_handler+0x15c>)
 800956a:	f7ff ff1d 	bl	80093a8 <system__io__put__3>
 800956e:	4813      	ldr	r0, [pc, #76]	; (80095bc <__gnat_last_chance_handler+0x160>)
 8009570:	1d01      	adds	r1, r0, #4
 8009572:	f7ff ff19 	bl	80093a8 <system__io__put__3>
 8009576:	42ae      	cmp	r6, r5
 8009578:	f104 0404 	add.w	r4, r4, #4
 800957c:	d1ec      	bne.n	8009558 <__gnat_last_chance_handler+0xfc>
 800957e:	2001      	movs	r0, #1
 8009580:	f7ff fefa 	bl	8009378 <system__io__new_line>
 8009584:	f7fd fe3e 	bl	8007204 <system__bb__threads__sleep>
 8009588:	480d      	ldr	r0, [pc, #52]	; (80095c0 <__gnat_last_chance_handler+0x164>)
 800958a:	213e      	movs	r1, #62	; 0x3e
 800958c:	f7ff fd9a 	bl	80090c4 <__gnat_rcheck_PE_Explicit_Raise>
 8009590:	4604      	mov	r4, r0
 8009592:	4640      	mov	r0, r8
 8009594:	f7ff fe1a 	bl	80091cc <system__secondary_stack__ss_release>
 8009598:	4620      	mov	r0, r4
 800959a:	f001 fc49 	bl	800ae30 <_Unwind_Resume>
 800959e:	4604      	mov	r4, r0
 80095a0:	46d5      	mov	sp, sl
 80095a2:	e7f6      	b.n	8009592 <__gnat_last_chance_handler+0x136>
 80095a4:	e7fb      	b.n	800959e <__gnat_last_chance_handler+0x142>
 80095a6:	bf00      	nop
 80095a8:	0800e130 	.word	0x0800e130
 80095ac:	0800e150 	.word	0x0800e150
 80095b0:	0800e16c 	.word	0x0800e16c
 80095b4:	0800e178 	.word	0x0800e178
 80095b8:	0800e1a0 	.word	0x0800e1a0
 80095bc:	0800e1a8 	.word	0x0800e1a8
 80095c0:	0800e1b4 	.word	0x0800e1b4

080095c4 <system__traceback_entries__pc_for>:
 80095c4:	4770      	bx	lr
 80095c6:	bf00      	nop

080095c8 <memcpy>:
 80095c8:	b470      	push	{r4, r5, r6}
 80095ca:	ea40 0301 	orr.w	r3, r0, r1
 80095ce:	079b      	lsls	r3, r3, #30
 80095d0:	d11b      	bne.n	800960a <memcpy+0x42>
 80095d2:	2a03      	cmp	r2, #3
 80095d4:	d919      	bls.n	800960a <memcpy+0x42>
 80095d6:	1f16      	subs	r6, r2, #4
 80095d8:	f026 0603 	bic.w	r6, r6, #3
 80095dc:	1d0b      	adds	r3, r1, #4
 80095de:	4433      	add	r3, r6
 80095e0:	4604      	mov	r4, r0
 80095e2:	f851 5b04 	ldr.w	r5, [r1], #4
 80095e6:	f844 5b04 	str.w	r5, [r4], #4
 80095ea:	4299      	cmp	r1, r3
 80095ec:	d1f9      	bne.n	80095e2 <memcpy+0x1a>
 80095ee:	1d01      	adds	r1, r0, #4
 80095f0:	f002 0203 	and.w	r2, r2, #3
 80095f4:	4431      	add	r1, r6
 80095f6:	b132      	cbz	r2, 8009606 <memcpy+0x3e>
 80095f8:	441a      	add	r2, r3
 80095fa:	f813 4b01 	ldrb.w	r4, [r3], #1
 80095fe:	f801 4b01 	strb.w	r4, [r1], #1
 8009602:	4293      	cmp	r3, r2
 8009604:	d1f9      	bne.n	80095fa <memcpy+0x32>
 8009606:	bc70      	pop	{r4, r5, r6}
 8009608:	4770      	bx	lr
 800960a:	460b      	mov	r3, r1
 800960c:	4601      	mov	r1, r0
 800960e:	e7f2      	b.n	80095f6 <memcpy+0x2e>

08009610 <__gnat_malloc>:
 8009610:	b510      	push	{r4, lr}
 8009612:	1c43      	adds	r3, r0, #1
 8009614:	d010      	beq.n	8009638 <__gnat_malloc+0x28>
 8009616:	4b0e      	ldr	r3, [pc, #56]	; (8009650 <__gnat_malloc+0x40>)
 8009618:	2800      	cmp	r0, #0
 800961a:	bf14      	ite	ne
 800961c:	4604      	movne	r4, r0
 800961e:	2401      	moveq	r4, #1
 8009620:	681b      	ldr	r3, [r3, #0]
 8009622:	4798      	blx	r3
 8009624:	4620      	mov	r0, r4
 8009626:	f000 fca7 	bl	8009f78 <malloc>
 800962a:	4b0a      	ldr	r3, [pc, #40]	; (8009654 <__gnat_malloc+0x44>)
 800962c:	4604      	mov	r4, r0
 800962e:	681b      	ldr	r3, [r3, #0]
 8009630:	4798      	blx	r3
 8009632:	b13c      	cbz	r4, 8009644 <__gnat_malloc+0x34>
 8009634:	4620      	mov	r0, r4
 8009636:	bd10      	pop	{r4, pc}
 8009638:	4a07      	ldr	r2, [pc, #28]	; (8009658 <__gnat_malloc+0x48>)
 800963a:	4808      	ldr	r0, [pc, #32]	; (800965c <__gnat_malloc+0x4c>)
 800963c:	f102 0310 	add.w	r3, r2, #16
 8009640:	f7ff fcc6 	bl	8008fd0 <__gnat_raise_exception>
 8009644:	4a06      	ldr	r2, [pc, #24]	; (8009660 <__gnat_malloc+0x50>)
 8009646:	4805      	ldr	r0, [pc, #20]	; (800965c <__gnat_malloc+0x4c>)
 8009648:	f102 0310 	add.w	r3, r2, #16
 800964c:	f7ff fcc0 	bl	8008fd0 <__gnat_raise_exception>
 8009650:	200001c8 	.word	0x200001c8
 8009654:	200001c0 	.word	0x200001c0
 8009658:	0800e1c4 	.word	0x0800e1c4
 800965c:	20000204 	.word	0x20000204
 8009660:	0800e1dc 	.word	0x0800e1dc

08009664 <__gnat_free>:
 8009664:	b510      	push	{r4, lr}
 8009666:	4b06      	ldr	r3, [pc, #24]	; (8009680 <__gnat_free+0x1c>)
 8009668:	4604      	mov	r4, r0
 800966a:	681b      	ldr	r3, [r3, #0]
 800966c:	4798      	blx	r3
 800966e:	4620      	mov	r0, r4
 8009670:	f000 fcee 	bl	800a050 <free>
 8009674:	4b03      	ldr	r3, [pc, #12]	; (8009684 <__gnat_free+0x20>)
 8009676:	e8bd 4010 	ldmia.w	sp!, {r4, lr}
 800967a:	681b      	ldr	r3, [r3, #0]
 800967c:	4718      	bx	r3
 800967e:	bf00      	nop
 8009680:	200001c8 	.word	0x200001c8
 8009684:	200001c0 	.word	0x200001c0

08009688 <system__standard_library__adafinal>:
 8009688:	4b04      	ldr	r3, [pc, #16]	; (800969c <system__standard_library__adafinal+0x14>)
 800968a:	781a      	ldrb	r2, [r3, #0]
 800968c:	b102      	cbz	r2, 8009690 <system__standard_library__adafinal+0x8>
 800968e:	4770      	bx	lr
 8009690:	4a03      	ldr	r2, [pc, #12]	; (80096a0 <system__standard_library__adafinal+0x18>)
 8009692:	2101      	movs	r1, #1
 8009694:	6812      	ldr	r2, [r2, #0]
 8009696:	7019      	strb	r1, [r3, #0]
 8009698:	4710      	bx	r2
 800969a:	bf00      	nop
 800969c:	20000238 	.word	0x20000238
 80096a0:	200001cc 	.word	0x200001cc

080096a4 <memmove>:
 80096a4:	b372      	cbz	r2, 8009704 <memmove+0x60>
 80096a6:	b470      	push	{r4, r5, r6}
 80096a8:	4288      	cmp	r0, r1
 80096aa:	d81f      	bhi.n	80096ec <memmove+0x48>
 80096ac:	ea40 0301 	orr.w	r3, r0, r1
 80096b0:	079b      	lsls	r3, r3, #30
 80096b2:	d128      	bne.n	8009706 <memmove+0x62>
 80096b4:	2a03      	cmp	r2, #3
 80096b6:	d926      	bls.n	8009706 <memmove+0x62>
 80096b8:	1f14      	subs	r4, r2, #4
 80096ba:	f024 0403 	bic.w	r4, r4, #3
 80096be:	1d0b      	adds	r3, r1, #4
 80096c0:	4423      	add	r3, r4
 80096c2:	4605      	mov	r5, r0
 80096c4:	f851 6b04 	ldr.w	r6, [r1], #4
 80096c8:	f845 6b04 	str.w	r6, [r5], #4
 80096cc:	4299      	cmp	r1, r3
 80096ce:	d1f9      	bne.n	80096c4 <memmove+0x20>
 80096d0:	1d01      	adds	r1, r0, #4
 80096d2:	f012 0203 	ands.w	r2, r2, #3
 80096d6:	4421      	add	r1, r4
 80096d8:	d006      	beq.n	80096e8 <memmove+0x44>
 80096da:	441a      	add	r2, r3
 80096dc:	f813 4b01 	ldrb.w	r4, [r3], #1
 80096e0:	f801 4b01 	strb.w	r4, [r1], #1
 80096e4:	4293      	cmp	r3, r2
 80096e6:	d1f9      	bne.n	80096dc <memmove+0x38>
 80096e8:	bc70      	pop	{r4, r5, r6}
 80096ea:	4770      	bx	lr
 80096ec:	188b      	adds	r3, r1, r2
 80096ee:	4298      	cmp	r0, r3
 80096f0:	d2dc      	bcs.n	80096ac <memmove+0x8>
 80096f2:	4402      	add	r2, r0
 80096f4:	f813 4d01 	ldrb.w	r4, [r3, #-1]!
 80096f8:	f802 4d01 	strb.w	r4, [r2, #-1]!
 80096fc:	428b      	cmp	r3, r1
 80096fe:	d1f9      	bne.n	80096f4 <memmove+0x50>
 8009700:	bc70      	pop	{r4, r5, r6}
 8009702:	4770      	bx	lr
 8009704:	4770      	bx	lr
 8009706:	460b      	mov	r3, r1
 8009708:	4601      	mov	r1, r0
 800970a:	e7e6      	b.n	80096da <memmove+0x36>

0800970c <system__exceptions__machine__new_occurrence>:
 800970c:	b510      	push	{r4, lr}
 800970e:	f44f 7000 	mov.w	r0, #512	; 0x200
 8009712:	f7ff ff7d 	bl	8009610 <__gnat_malloc>
 8009716:	4908      	ldr	r1, [pc, #32]	; (8009738 <system__exceptions__machine__new_occurrence+0x2c>)
 8009718:	2258      	movs	r2, #88	; 0x58
 800971a:	4604      	mov	r4, r0
 800971c:	f7ff ff54 	bl	80095c8 <memcpy>
 8009720:	2300      	movs	r3, #0
 8009722:	65a3      	str	r3, [r4, #88]	; 0x58
 8009724:	6623      	str	r3, [r4, #96]	; 0x60
 8009726:	f884 312c 	strb.w	r3, [r4, #300]	; 0x12c
 800972a:	f8c4 3130 	str.w	r3, [r4, #304]	; 0x130
 800972e:	f8c4 3134 	str.w	r3, [r4, #308]	; 0x134
 8009732:	4620      	mov	r0, r4
 8009734:	bd10      	pop	{r4, pc}
 8009736:	bf00      	nop
 8009738:	0800e258 	.word	0x0800e258

0800973c <system__exception_table__register.part.1>:
 800973c:	b4d0      	push	{r4, r6, r7}
 800973e:	6883      	ldr	r3, [r0, #8]
 8009740:	f103 4400 	add.w	r4, r3, #2147483648	; 0x80000000
 8009744:	2100      	movs	r1, #0
 8009746:	3c01      	subs	r4, #1
 8009748:	e003      	b.n	8009752 <system__exception_table__register.part.1+0x16>
 800974a:	42a3      	cmp	r3, r4
 800974c:	ea81 0102 	eor.w	r1, r1, r2
 8009750:	d003      	beq.n	800975a <system__exception_table__register.part.1+0x1e>
 8009752:	781a      	ldrb	r2, [r3, #0]
 8009754:	3301      	adds	r3, #1
 8009756:	2a00      	cmp	r2, #0
 8009758:	d1f7      	bne.n	800974a <system__exception_table__register.part.1+0xe>
 800975a:	4e0e      	ldr	r6, [pc, #56]	; (8009794 <system__exception_table__register.part.1+0x58>)
 800975c:	4c0e      	ldr	r4, [pc, #56]	; (8009798 <system__exception_table__register.part.1+0x5c>)
 800975e:	fba1 6706 	umull	r6, r7, r1, r6
 8009762:	1bcb      	subs	r3, r1, r7
 8009764:	eb07 0353 	add.w	r3, r7, r3, lsr #1
 8009768:	095b      	lsrs	r3, r3, #5
 800976a:	eb03 02c3 	add.w	r2, r3, r3, lsl #3
 800976e:	eb03 0382 	add.w	r3, r3, r2, lsl #2
 8009772:	1acb      	subs	r3, r1, r3
 8009774:	3301      	adds	r3, #1
 8009776:	b2db      	uxtb	r3, r3
 8009778:	f103 4380 	add.w	r3, r3, #1073741824	; 0x40000000
 800977c:	3b01      	subs	r3, #1
 800977e:	f854 2023 	ldr.w	r2, [r4, r3, lsl #2]
 8009782:	2a00      	cmp	r2, #0
 8009784:	bf08      	it	eq
 8009786:	4602      	moveq	r2, r0
 8009788:	60c2      	str	r2, [r0, #12]
 800978a:	f844 0023 	str.w	r0, [r4, r3, lsl #2]
 800978e:	bcd0      	pop	{r4, r6, r7}
 8009790:	4770      	bx	lr
 8009792:	bf00      	nop
 8009794:	bacf914d 	.word	0xbacf914d
 8009798:	2000426c 	.word	0x2000426c

0800979c <system__exception_table___elabb>:
 800979c:	b508      	push	{r3, lr}
 800979e:	4b17      	ldr	r3, [pc, #92]	; (80097fc <system__exception_table___elabb+0x60>)
 80097a0:	2100      	movs	r1, #0
 80097a2:	f103 0294 	add.w	r2, r3, #148	; 0x94
 80097a6:	f843 1b04 	str.w	r1, [r3], #4
 80097aa:	4293      	cmp	r3, r2
 80097ac:	d1fb      	bne.n	80097a6 <system__exception_table___elabb+0xa>
 80097ae:	4814      	ldr	r0, [pc, #80]	; (8009800 <system__exception_table___elabb+0x64>)
 80097b0:	68c3      	ldr	r3, [r0, #12]
 80097b2:	b19b      	cbz	r3, 80097dc <system__exception_table___elabb+0x40>
 80097b4:	4813      	ldr	r0, [pc, #76]	; (8009804 <system__exception_table___elabb+0x68>)
 80097b6:	68c3      	ldr	r3, [r0, #12]
 80097b8:	b19b      	cbz	r3, 80097e2 <system__exception_table___elabb+0x46>
 80097ba:	4813      	ldr	r0, [pc, #76]	; (8009808 <system__exception_table___elabb+0x6c>)
 80097bc:	68c3      	ldr	r3, [r0, #12]
 80097be:	b19b      	cbz	r3, 80097e8 <system__exception_table___elabb+0x4c>
 80097c0:	4812      	ldr	r0, [pc, #72]	; (800980c <system__exception_table___elabb+0x70>)
 80097c2:	68c3      	ldr	r3, [r0, #12]
 80097c4:	b19b      	cbz	r3, 80097ee <system__exception_table___elabb+0x52>
 80097c6:	4812      	ldr	r0, [pc, #72]	; (8009810 <system__exception_table___elabb+0x74>)
 80097c8:	68c3      	ldr	r3, [r0, #12]
 80097ca:	b19b      	cbz	r3, 80097f4 <system__exception_table___elabb+0x58>
 80097cc:	4811      	ldr	r0, [pc, #68]	; (8009814 <system__exception_table___elabb+0x78>)
 80097ce:	68c3      	ldr	r3, [r0, #12]
 80097d0:	b103      	cbz	r3, 80097d4 <system__exception_table___elabb+0x38>
 80097d2:	bd08      	pop	{r3, pc}
 80097d4:	e8bd 4008 	ldmia.w	sp!, {r3, lr}
 80097d8:	f7ff bfb0 	b.w	800973c <system__exception_table__register.part.1>
 80097dc:	f7ff ffae 	bl	800973c <system__exception_table__register.part.1>
 80097e0:	e7e8      	b.n	80097b4 <system__exception_table___elabb+0x18>
 80097e2:	f7ff ffab 	bl	800973c <system__exception_table__register.part.1>
 80097e6:	e7e8      	b.n	80097ba <system__exception_table___elabb+0x1e>
 80097e8:	f7ff ffa8 	bl	800973c <system__exception_table__register.part.1>
 80097ec:	e7e8      	b.n	80097c0 <system__exception_table___elabb+0x24>
 80097ee:	f7ff ffa5 	bl	800973c <system__exception_table__register.part.1>
 80097f2:	e7e8      	b.n	80097c6 <system__exception_table___elabb+0x2a>
 80097f4:	f7ff ffa2 	bl	800973c <system__exception_table__register.part.1>
 80097f8:	e7e8      	b.n	80097cc <system__exception_table___elabb+0x30>
 80097fa:	bf00      	nop
 80097fc:	2000426c 	.word	0x2000426c
 8009800:	2000023c 	.word	0x2000023c
 8009804:	200001ec 	.word	0x200001ec
 8009808:	20000204 	.word	0x20000204
 800980c:	20000254 	.word	0x20000254
 8009810:	20000220 	.word	0x20000220
 8009814:	20000270 	.word	0x20000270

08009818 <ada__streams___size>:
 8009818:	2020      	movs	r0, #32
 800981a:	2100      	movs	r1, #0
 800981c:	4770      	bx	lr
 800981e:	bf00      	nop

08009820 <ada__streams__root_stream_typeDF>:
 8009820:	4770      	bx	lr
 8009822:	bf00      	nop

08009824 <ada__streams___elabs>:
 8009824:	4801      	ldr	r0, [pc, #4]	; (800982c <ada__streams___elabs+0x8>)
 8009826:	f7fe bb21 	b.w	8007e6c <ada__tags__register_tag>
 800982a:	bf00      	nop
 800982c:	0800e33c 	.word	0x0800e33c

08009830 <system__finalization_root___size>:
 8009830:	2020      	movs	r0, #32
 8009832:	2100      	movs	r1, #0
 8009834:	4770      	bx	lr
 8009836:	bf00      	nop

08009838 <system__finalization_root__root_controlledSR>:
 8009838:	4770      	bx	lr
 800983a:	bf00      	nop

0800983c <system__finalization_root__root_controlledSW>:
 800983c:	4770      	bx	lr
 800983e:	bf00      	nop

08009840 <system__finalization_root__root_controlledSO>:
 8009840:	4770      	bx	lr
 8009842:	bf00      	nop

08009844 <system__finalization_root__Oeq>:
 8009844:	2001      	movs	r0, #1
 8009846:	4770      	bx	lr

08009848 <system__finalization_root___assign>:
 8009848:	4770      	bx	lr
 800984a:	bf00      	nop

0800984c <system__finalization_root__root_controlledDA>:
 800984c:	4770      	bx	lr
 800984e:	bf00      	nop

08009850 <system__finalization_root__root_controlledDF>:
 8009850:	4770      	bx	lr
 8009852:	bf00      	nop

08009854 <system__finalization_root__adjust>:
 8009854:	b508      	push	{r3, lr}
 8009856:	4802      	ldr	r0, [pc, #8]	; (8009860 <system__finalization_root__adjust+0xc>)
 8009858:	2125      	movs	r1, #37	; 0x25
 800985a:	f7ff fc33 	bl	80090c4 <__gnat_rcheck_PE_Explicit_Raise>
 800985e:	bf00      	nop
 8009860:	0800e360 	.word	0x0800e360

08009864 <system__finalization_root__finalize>:
 8009864:	b508      	push	{r3, lr}
 8009866:	4802      	ldr	r0, [pc, #8]	; (8009870 <system__finalization_root__finalize+0xc>)
 8009868:	212e      	movs	r1, #46	; 0x2e
 800986a:	f7ff fc2b 	bl	80090c4 <__gnat_rcheck_PE_Explicit_Raise>
 800986e:	bf00      	nop
 8009870:	0800e360 	.word	0x0800e360

08009874 <system__finalization_root__initialize>:
 8009874:	b508      	push	{r3, lr}
 8009876:	4802      	ldr	r0, [pc, #8]	; (8009880 <system__finalization_root__initialize+0xc>)
 8009878:	2137      	movs	r1, #55	; 0x37
 800987a:	f7ff fc23 	bl	80090c4 <__gnat_rcheck_PE_Explicit_Raise>
 800987e:	bf00      	nop
 8009880:	0800e360 	.word	0x0800e360

08009884 <system__finalization_root___elabs>:
 8009884:	4801      	ldr	r0, [pc, #4]	; (800988c <system__finalization_root___elabs+0x8>)
 8009886:	f7fe baf1 	b.w	8007e6c <ada__tags__register_tag>
 800988a:	bf00      	nop
 800988c:	0800e3b0 	.word	0x0800e3b0

08009890 <system__parameters__adjust_storage_size>:
 8009890:	f1b0 4f00 	cmp.w	r0, #2147483648	; 0x80000000
 8009894:	bf08      	it	eq
 8009896:	f44f 5080 	moveq.w	r0, #4096	; 0x1000
 800989a:	4770      	bx	lr

0800989c <__gnat_debug_raise_exception>:
 800989c:	b480      	push	{r7}
 800989e:	b085      	sub	sp, #20
 80098a0:	af00      	add	r7, sp, #0
 80098a2:	60f8      	str	r0, [r7, #12]
 80098a4:	e9c7 2300 	strd	r2, r3, [r7]
 80098a8:	683b      	ldr	r3, [r7, #0]
 80098aa:	bf00      	nop
 80098ac:	3714      	adds	r7, #20
 80098ae:	46bd      	mov	sp, r7
 80098b0:	f85d 7b04 	ldr.w	r7, [sp], #4
 80098b4:	4770      	bx	lr
 80098b6:	bf00      	nop

080098b8 <__gnat_unhandled_exception>:
 80098b8:	b480      	push	{r7}
 80098ba:	b083      	sub	sp, #12
 80098bc:	af00      	add	r7, sp, #0
 80098be:	6078      	str	r0, [r7, #4]
 80098c0:	bf00      	nop
 80098c2:	370c      	adds	r7, #12
 80098c4:	46bd      	mov	sp, r7
 80098c6:	f85d 7b04 	ldr.w	r7, [sp], #4
 80098ca:	4770      	bx	lr

080098cc <__gnat_debug_raise_assert_failure>:
 80098cc:	b480      	push	{r7}
 80098ce:	af00      	add	r7, sp, #0
 80098d0:	bf00      	nop
 80098d2:	46bd      	mov	sp, r7
 80098d4:	f85d 7b04 	ldr.w	r7, [sp], #4
 80098d8:	4770      	bx	lr
 80098da:	bf00      	nop

080098dc <abort>:
 80098dc:	4b01      	ldr	r3, [pc, #4]	; (80098e4 <abort+0x8>)
 80098de:	4a02      	ldr	r2, [pc, #8]	; (80098e8 <abort+0xc>)
 80098e0:	601a      	str	r2, [r3, #0]
 80098e2:	e7fe      	b.n	80098e2 <abort+0x6>
 80098e4:	e000ed0c 	.word	0xe000ed0c
 80098e8:	05fa0004 	.word	0x05fa0004

080098ec <_exit>:
 80098ec:	4b01      	ldr	r3, [pc, #4]	; (80098f4 <_exit+0x8>)
 80098ee:	4a02      	ldr	r2, [pc, #8]	; (80098f8 <_exit+0xc>)
 80098f0:	601a      	str	r2, [r3, #0]
 80098f2:	e7fe      	b.n	80098f2 <_exit+0x6>
 80098f4:	e000ed0c 	.word	0xe000ed0c
 80098f8:	05fa0004 	.word	0x05fa0004

080098fc <_ada_setup_pll>:
 80098fc:	b500      	push	{lr}
 80098fe:	b085      	sub	sp, #20
 8009900:	496e      	ldr	r1, [pc, #440]	; (8009abc <_ada_setup_pll+0x1c0>)
 8009902:	4b6f      	ldr	r3, [pc, #444]	; (8009ac0 <_ada_setup_pll+0x1c4>)
 8009904:	680a      	ldr	r2, [r1, #0]
 8009906:	f042 5280 	orr.w	r2, r2, #268435456	; 0x10000000
 800990a:	600a      	str	r2, [r1, #0]
 800990c:	681a      	ldr	r2, [r3, #0]
 800990e:	f042 5280 	orr.w	r2, r2, #268435456	; 0x10000000
 8009912:	601a      	str	r2, [r3, #0]
 8009914:	681a      	ldr	r2, [r3, #0]
 8009916:	f36f 721c 	bfc	r2, #28, #1
 800991a:	601a      	str	r2, [r3, #0]
 800991c:	f000 fa9c 	bl	8009e58 <system__bb__mcu_parameters__pwr_initialize>
 8009920:	4b68      	ldr	r3, [pc, #416]	; (8009ac4 <_ada_setup_pll+0x1c8>)
 8009922:	681a      	ldr	r2, [r3, #0]
 8009924:	f442 3280 	orr.w	r2, r2, #65536	; 0x10000
 8009928:	601a      	str	r2, [r3, #0]
 800992a:	681a      	ldr	r2, [r3, #0]
 800992c:	f36f 4292 	bfc	r2, #18, #1
 8009930:	601a      	str	r2, [r3, #0]
 8009932:	681a      	ldr	r2, [r3, #0]
 8009934:	0391      	lsls	r1, r2, #14
 8009936:	d5fc      	bpl.n	8009932 <_ada_setup_pll+0x36>
 8009938:	681a      	ldr	r2, [r3, #0]
 800993a:	4963      	ldr	r1, [pc, #396]	; (8009ac8 <_ada_setup_pll+0x1cc>)
 800993c:	f36f 6218 	bfc	r2, #24, #1
 8009940:	601a      	str	r2, [r3, #0]
 8009942:	9a03      	ldr	r2, [sp, #12]
 8009944:	f042 0203 	orr.w	r2, r2, #3
 8009948:	9203      	str	r2, [sp, #12]
 800994a:	9a03      	ldr	r2, [sp, #12]
 800994c:	f36f 0283 	bfc	r2, #2, #2
 8009950:	9203      	str	r2, [sp, #12]
 8009952:	9a03      	ldr	r2, [sp, #12]
 8009954:	f36f 1206 	bfc	r2, #4, #3
 8009958:	9203      	str	r2, [sp, #12]
 800995a:	9a03      	ldr	r2, [sp, #12]
 800995c:	f36f 12c7 	bfc	r2, #7, #1
 8009960:	9203      	str	r2, [sp, #12]
 8009962:	9a03      	ldr	r2, [sp, #12]
 8009964:	2014      	movs	r0, #20
 8009966:	f360 220e 	bfi	r2, r0, #8, #7
 800996a:	9203      	str	r2, [sp, #12]
 800996c:	9a03      	ldr	r2, [sp, #12]
 800996e:	f36f 32cf 	bfc	r2, #15, #1
 8009972:	9203      	str	r2, [sp, #12]
 8009974:	9a03      	ldr	r2, [sp, #12]
 8009976:	f36f 4210 	bfc	r2, #16, #1
 800997a:	9203      	str	r2, [sp, #12]
 800997c:	9a03      	ldr	r2, [sp, #12]
 800997e:	f36f 4251 	bfc	r2, #17, #1
 8009982:	9203      	str	r2, [sp, #12]
 8009984:	9a03      	ldr	r2, [sp, #12]
 8009986:	f36f 4293 	bfc	r2, #18, #2
 800998a:	9203      	str	r2, [sp, #12]
 800998c:	9a03      	ldr	r2, [sp, #12]
 800998e:	f36f 5214 	bfc	r2, #20, #1
 8009992:	9203      	str	r2, [sp, #12]
 8009994:	9a03      	ldr	r2, [sp, #12]
 8009996:	2001      	movs	r0, #1
 8009998:	f360 5256 	bfi	r2, r0, #21, #2
 800999c:	9203      	str	r2, [sp, #12]
 800999e:	9a03      	ldr	r2, [sp, #12]
 80099a0:	f36f 52d7 	bfc	r2, #23, #1
 80099a4:	9203      	str	r2, [sp, #12]
 80099a6:	9a03      	ldr	r2, [sp, #12]
 80099a8:	f042 7280 	orr.w	r2, r2, #16777216	; 0x1000000
 80099ac:	9203      	str	r2, [sp, #12]
 80099ae:	9a03      	ldr	r2, [sp, #12]
 80099b0:	f36f 625a 	bfc	r2, #25, #2
 80099b4:	9203      	str	r2, [sp, #12]
 80099b6:	9a03      	ldr	r2, [sp, #12]
 80099b8:	2007      	movs	r0, #7
 80099ba:	f360 62df 	bfi	r2, r0, #27, #5
 80099be:	9203      	str	r2, [sp, #12]
 80099c0:	9a03      	ldr	r2, [sp, #12]
 80099c2:	600a      	str	r2, [r1, #0]
 80099c4:	681a      	ldr	r2, [r3, #0]
 80099c6:	f042 7280 	orr.w	r2, r2, #16777216	; 0x1000000
 80099ca:	601a      	str	r2, [r3, #0]
 80099cc:	681a      	ldr	r2, [r3, #0]
 80099ce:	0192      	lsls	r2, r2, #6
 80099d0:	d5fc      	bpl.n	80099cc <_ada_setup_pll+0xd0>
 80099d2:	f000 fa43 	bl	8009e5c <system__bb__mcu_parameters__pwr_overdrive_enable>
 80099d6:	4b3d      	ldr	r3, [pc, #244]	; (8009acc <_ada_setup_pll+0x1d0>)
 80099d8:	4a3d      	ldr	r2, [pc, #244]	; (8009ad0 <_ada_setup_pll+0x1d4>)
 80099da:	6819      	ldr	r1, [r3, #0]
 80099dc:	f36f 2149 	bfc	r1, #9, #1
 80099e0:	6019      	str	r1, [r3, #0]
 80099e2:	6819      	ldr	r1, [r3, #0]
 80099e4:	f36f 218a 	bfc	r1, #10, #1
 80099e8:	6019      	str	r1, [r3, #0]
 80099ea:	6819      	ldr	r1, [r3, #0]
 80099ec:	f441 6100 	orr.w	r1, r1, #2048	; 0x800
 80099f0:	6019      	str	r1, [r3, #0]
 80099f2:	6819      	ldr	r1, [r3, #0]
 80099f4:	f441 5180 	orr.w	r1, r1, #4096	; 0x1000
 80099f8:	6019      	str	r1, [r3, #0]
 80099fa:	9902      	ldr	r1, [sp, #8]
 80099fc:	2005      	movs	r0, #5
 80099fe:	f360 0102 	bfi	r1, r0, #0, #3
 8009a02:	9102      	str	r1, [sp, #8]
 8009a04:	9902      	ldr	r1, [sp, #8]
 8009a06:	f36f 01c7 	bfc	r1, #3, #5
 8009a0a:	9102      	str	r1, [sp, #8]
 8009a0c:	9902      	ldr	r1, [sp, #8]
 8009a0e:	f441 7180 	orr.w	r1, r1, #256	; 0x100
 8009a12:	9102      	str	r1, [sp, #8]
 8009a14:	9902      	ldr	r1, [sp, #8]
 8009a16:	f441 7100 	orr.w	r1, r1, #512	; 0x200
 8009a1a:	9102      	str	r1, [sp, #8]
 8009a1c:	9902      	ldr	r1, [sp, #8]
 8009a1e:	f441 6180 	orr.w	r1, r1, #1024	; 0x400
 8009a22:	9102      	str	r1, [sp, #8]
 8009a24:	9902      	ldr	r1, [sp, #8]
 8009a26:	f36f 21cb 	bfc	r1, #11, #1
 8009a2a:	9102      	str	r1, [sp, #8]
 8009a2c:	9902      	ldr	r1, [sp, #8]
 8009a2e:	f36f 310c 	bfc	r1, #12, #1
 8009a32:	9102      	str	r1, [sp, #8]
 8009a34:	9902      	ldr	r1, [sp, #8]
 8009a36:	f36f 314d 	bfc	r1, #13, #1
 8009a3a:	9102      	str	r1, [sp, #8]
 8009a3c:	9902      	ldr	r1, [sp, #8]
 8009a3e:	f36f 318e 	bfc	r1, #14, #1
 8009a42:	9102      	str	r1, [sp, #8]
 8009a44:	9902      	ldr	r1, [sp, #8]
 8009a46:	f36f 31df 	bfc	r1, #15, #17
 8009a4a:	9102      	str	r1, [sp, #8]
 8009a4c:	9902      	ldr	r1, [sp, #8]
 8009a4e:	6019      	str	r1, [r3, #0]
 8009a50:	9b01      	ldr	r3, [sp, #4]
 8009a52:	f043 0303 	orr.w	r3, r3, #3
 8009a56:	9301      	str	r3, [sp, #4]
 8009a58:	9b01      	ldr	r3, [sp, #4]
 8009a5a:	f36f 0383 	bfc	r3, #2, #2
 8009a5e:	9301      	str	r3, [sp, #4]
 8009a60:	9b01      	ldr	r3, [sp, #4]
 8009a62:	f36f 1307 	bfc	r3, #4, #4
 8009a66:	9301      	str	r3, [sp, #4]
 8009a68:	9b01      	ldr	r3, [sp, #4]
 8009a6a:	f36f 230d 	bfc	r3, #8, #6
 8009a6e:	9301      	str	r3, [sp, #4]
 8009a70:	9b01      	ldr	r3, [sp, #4]
 8009a72:	f36f 338e 	bfc	r3, #14, #1
 8009a76:	9301      	str	r3, [sp, #4]
 8009a78:	9b01      	ldr	r3, [sp, #4]
 8009a7a:	f36f 33cf 	bfc	r3, #15, #1
 8009a7e:	9301      	str	r3, [sp, #4]
 8009a80:	9b01      	ldr	r3, [sp, #4]
 8009a82:	f36f 4317 	bfc	r3, #16, #8
 8009a86:	9301      	str	r3, [sp, #4]
 8009a88:	9b01      	ldr	r3, [sp, #4]
 8009a8a:	f36f 631a 	bfc	r3, #24, #3
 8009a8e:	9301      	str	r3, [sp, #4]
 8009a90:	9b01      	ldr	r3, [sp, #4]
 8009a92:	f36f 63db 	bfc	r3, #27, #1
 8009a96:	9301      	str	r3, [sp, #4]
 8009a98:	9b01      	ldr	r3, [sp, #4]
 8009a9a:	f36f 731e 	bfc	r3, #28, #3
 8009a9e:	9301      	str	r3, [sp, #4]
 8009aa0:	9b01      	ldr	r3, [sp, #4]
 8009aa2:	f36f 73df 	bfc	r3, #31, #1
 8009aa6:	9301      	str	r3, [sp, #4]
 8009aa8:	9b01      	ldr	r3, [sp, #4]
 8009aaa:	6013      	str	r3, [r2, #0]
 8009aac:	6813      	ldr	r3, [r2, #0]
 8009aae:	f003 030c 	and.w	r3, r3, #12
 8009ab2:	2b0c      	cmp	r3, #12
 8009ab4:	d1fa      	bne.n	8009aac <_ada_setup_pll+0x1b0>
 8009ab6:	b005      	add	sp, #20
 8009ab8:	f85d fb04 	ldr.w	pc, [sp], #4
 8009abc:	40021058 	.word	0x40021058
 8009ac0:	40021038 	.word	0x40021038
 8009ac4:	40021000 	.word	0x40021000
 8009ac8:	4002100c 	.word	0x4002100c
 8009acc:	40022000 	.word	0x40022000
 8009ad0:	40021008 	.word	0x40021008

08009ad4 <system__text_io__initialize>:
 8009ad4:	e92d 4ff0 	stmdb	sp!, {r4, r5, r6, r7, r8, r9, sl, fp, lr}
 8009ad8:	b08b      	sub	sp, #44	; 0x2c
 8009ada:	a804      	add	r0, sp, #16
 8009adc:	f000 fb40 	bl	800a160 <system__stm32__system_clocks>
 8009ae0:	4bb3      	ldr	r3, [pc, #716]	; (8009db0 <system__text_io__initialize+0x2dc>)
 8009ae2:	f8df 82e8 	ldr.w	r8, [pc, #744]	; 8009dcc <system__text_io__initialize+0x2f8>
 8009ae6:	9a07      	ldr	r2, [sp, #28]
 8009ae8:	f8df a2e4 	ldr.w	sl, [pc, #740]	; 8009dd0 <system__text_io__initialize+0x2fc>
 8009aec:	4db1      	ldr	r5, [pc, #708]	; (8009db4 <system__text_io__initialize+0x2e0>)
 8009aee:	4cb2      	ldr	r4, [pc, #712]	; (8009db8 <system__text_io__initialize+0x2e4>)
 8009af0:	48b2      	ldr	r0, [pc, #712]	; (8009dbc <system__text_io__initialize+0x2e8>)
 8009af2:	49b3      	ldr	r1, [pc, #716]	; (8009dc0 <system__text_io__initialize+0x2ec>)
 8009af4:	f8df 92dc 	ldr.w	r9, [pc, #732]	; 8009dd4 <system__text_io__initialize+0x300>
 8009af8:	f8df c2dc 	ldr.w	ip, [pc, #732]	; 8009dd8 <system__text_io__initialize+0x304>
 8009afc:	f8df e2dc 	ldr.w	lr, [pc, #732]	; 8009ddc <system__text_io__initialize+0x308>
 8009b00:	4fb0      	ldr	r7, [pc, #704]	; (8009dc4 <system__text_io__initialize+0x2f0>)
 8009b02:	4eb1      	ldr	r6, [pc, #708]	; (8009dc8 <system__text_io__initialize+0x2f4>)
 8009b04:	f04f 0b01 	mov.w	fp, #1
 8009b08:	f883 b000 	strb.w	fp, [r3]
 8009b0c:	f8d8 3000 	ldr.w	r3, [r8]
 8009b10:	f443 4380 	orr.w	r3, r3, #16384	; 0x4000
 8009b14:	f8c8 3000 	str.w	r3, [r8]
 8009b18:	f8da 3000 	ldr.w	r3, [sl]
 8009b1c:	f04f 4890 	mov.w	r8, #1207959552	; 0x48000000
 8009b20:	ea43 030b 	orr.w	r3, r3, fp
 8009b24:	f8ca 3000 	str.w	r3, [sl]
 8009b28:	f8d8 3000 	ldr.w	r3, [r8]
 8009b2c:	f8d8 a000 	ldr.w	sl, [r8]
 8009b30:	f423 2340 	bic.w	r3, r3, #786432	; 0xc0000
 8009b34:	f443 2300 	orr.w	r3, r3, #524288	; 0x80000
 8009b38:	f8c8 3000 	str.w	r3, [r8]
 8009b3c:	f8d8 3000 	ldr.w	r3, [r8]
 8009b40:	f8d8 a000 	ldr.w	sl, [r8]
 8009b44:	f423 1340 	bic.w	r3, r3, #3145728	; 0x300000
 8009b48:	f443 1300 	orr.w	r3, r3, #2097152	; 0x200000
 8009b4c:	f8c8 3000 	str.w	r3, [r8]
 8009b50:	682b      	ldr	r3, [r5, #0]
 8009b52:	f8d5 8000 	ldr.w	r8, [r5]
 8009b56:	f423 2340 	bic.w	r3, r3, #786432	; 0xc0000
 8009b5a:	f443 2300 	orr.w	r3, r3, #524288	; 0x80000
 8009b5e:	602b      	str	r3, [r5, #0]
 8009b60:	682b      	ldr	r3, [r5, #0]
 8009b62:	f8d5 8000 	ldr.w	r8, [r5]
 8009b66:	f423 1340 	bic.w	r3, r3, #3145728	; 0x300000
 8009b6a:	f443 1300 	orr.w	r3, r3, #2097152	; 0x200000
 8009b6e:	602b      	str	r3, [r5, #0]
 8009b70:	6825      	ldr	r5, [r4, #0]
 8009b72:	6823      	ldr	r3, [r4, #0]
 8009b74:	f425 7500 	bic.w	r5, r5, #512	; 0x200
 8009b78:	f365 030f 	bfi	r3, r5, #0, #16
 8009b7c:	6023      	str	r3, [r4, #0]
 8009b7e:	6825      	ldr	r5, [r4, #0]
 8009b80:	6823      	ldr	r3, [r4, #0]
 8009b82:	f425 6580 	bic.w	r5, r5, #1024	; 0x400
 8009b86:	f365 030f 	bfi	r3, r5, #0, #16
 8009b8a:	6023      	str	r3, [r4, #0]
 8009b8c:	6803      	ldr	r3, [r0, #0]
 8009b8e:	6804      	ldr	r4, [r0, #0]
 8009b90:	f423 2340 	bic.w	r3, r3, #786432	; 0xc0000
 8009b94:	f443 2380 	orr.w	r3, r3, #262144	; 0x40000
 8009b98:	6003      	str	r3, [r0, #0]
 8009b9a:	6803      	ldr	r3, [r0, #0]
 8009b9c:	6804      	ldr	r4, [r0, #0]
 8009b9e:	f423 1340 	bic.w	r3, r3, #3145728	; 0x300000
 8009ba2:	f443 1380 	orr.w	r3, r3, #1048576	; 0x100000
 8009ba6:	6003      	str	r3, [r0, #0]
 8009ba8:	680b      	ldr	r3, [r1, #0]
 8009baa:	6808      	ldr	r0, [r1, #0]
 8009bac:	f023 03f0 	bic.w	r3, r3, #240	; 0xf0
 8009bb0:	f043 0370 	orr.w	r3, r3, #112	; 0x70
 8009bb4:	600b      	str	r3, [r1, #0]
 8009bb6:	680b      	ldr	r3, [r1, #0]
 8009bb8:	6808      	ldr	r0, [r1, #0]
 8009bba:	f423 6370 	bic.w	r3, r3, #3840	; 0xf00
 8009bbe:	f443 63e0 	orr.w	r3, r3, #1792	; 0x700
 8009bc2:	600b      	str	r3, [r1, #0]
 8009bc4:	9900      	ldr	r1, [sp, #0]
 8009bc6:	fba9 2302 	umull	r2, r3, r9, r2
 8009bca:	460a      	mov	r2, r1
 8009bcc:	0c19      	lsrs	r1, r3, #16
 8009bce:	f361 0203 	bfi	r2, r1, #0, #4
 8009bd2:	9200      	str	r2, [sp, #0]
 8009bd4:	9a00      	ldr	r2, [sp, #0]
 8009bd6:	0d1b      	lsrs	r3, r3, #20
 8009bd8:	f363 120f 	bfi	r2, r3, #4, #12
 8009bdc:	9200      	str	r2, [sp, #0]
 8009bde:	9b00      	ldr	r3, [sp, #0]
 8009be0:	f36f 431f 	bfc	r3, #16, #16
 8009be4:	9300      	str	r3, [sp, #0]
 8009be6:	9b00      	ldr	r3, [sp, #0]
 8009be8:	f8cc 3000 	str.w	r3, [ip]
 8009bec:	9b01      	ldr	r3, [sp, #4]
 8009bee:	ea43 030b 	orr.w	r3, r3, fp
 8009bf2:	9301      	str	r3, [sp, #4]
 8009bf4:	9b01      	ldr	r3, [sp, #4]
 8009bf6:	f36f 0341 	bfc	r3, #1, #1
 8009bfa:	9301      	str	r3, [sp, #4]
 8009bfc:	9b01      	ldr	r3, [sp, #4]
 8009bfe:	f043 0304 	orr.w	r3, r3, #4
 8009c02:	9301      	str	r3, [sp, #4]
 8009c04:	9b01      	ldr	r3, [sp, #4]
 8009c06:	f043 0308 	orr.w	r3, r3, #8
 8009c0a:	9301      	str	r3, [sp, #4]
 8009c0c:	9b01      	ldr	r3, [sp, #4]
 8009c0e:	f36f 1304 	bfc	r3, #4, #1
 8009c12:	9301      	str	r3, [sp, #4]
 8009c14:	9b01      	ldr	r3, [sp, #4]
 8009c16:	f36f 1345 	bfc	r3, #5, #1
 8009c1a:	9301      	str	r3, [sp, #4]
 8009c1c:	9b01      	ldr	r3, [sp, #4]
 8009c1e:	f36f 1386 	bfc	r3, #6, #1
 8009c22:	9301      	str	r3, [sp, #4]
 8009c24:	9b01      	ldr	r3, [sp, #4]
 8009c26:	f36f 13c7 	bfc	r3, #7, #1
 8009c2a:	9301      	str	r3, [sp, #4]
 8009c2c:	9b01      	ldr	r3, [sp, #4]
 8009c2e:	f36f 2308 	bfc	r3, #8, #1
 8009c32:	9301      	str	r3, [sp, #4]
 8009c34:	9b01      	ldr	r3, [sp, #4]
 8009c36:	f36f 2349 	bfc	r3, #9, #1
 8009c3a:	9301      	str	r3, [sp, #4]
 8009c3c:	9b01      	ldr	r3, [sp, #4]
 8009c3e:	f36f 238a 	bfc	r3, #10, #1
 8009c42:	9301      	str	r3, [sp, #4]
 8009c44:	9b01      	ldr	r3, [sp, #4]
 8009c46:	f36f 23cb 	bfc	r3, #11, #1
 8009c4a:	9301      	str	r3, [sp, #4]
 8009c4c:	9b01      	ldr	r3, [sp, #4]
 8009c4e:	f36f 330c 	bfc	r3, #12, #1
 8009c52:	9301      	str	r3, [sp, #4]
 8009c54:	9b01      	ldr	r3, [sp, #4]
 8009c56:	f36f 334d 	bfc	r3, #13, #1
 8009c5a:	9301      	str	r3, [sp, #4]
 8009c5c:	9b01      	ldr	r3, [sp, #4]
 8009c5e:	f36f 338e 	bfc	r3, #14, #1
 8009c62:	9301      	str	r3, [sp, #4]
 8009c64:	9b01      	ldr	r3, [sp, #4]
 8009c66:	f36f 33cf 	bfc	r3, #15, #1
 8009c6a:	9301      	str	r3, [sp, #4]
 8009c6c:	9b01      	ldr	r3, [sp, #4]
 8009c6e:	f36f 4314 	bfc	r3, #16, #5
 8009c72:	9301      	str	r3, [sp, #4]
 8009c74:	9b01      	ldr	r3, [sp, #4]
 8009c76:	f36f 5359 	bfc	r3, #21, #5
 8009c7a:	9301      	str	r3, [sp, #4]
 8009c7c:	9b01      	ldr	r3, [sp, #4]
 8009c7e:	f36f 639a 	bfc	r3, #26, #1
 8009c82:	9301      	str	r3, [sp, #4]
 8009c84:	9b01      	ldr	r3, [sp, #4]
 8009c86:	f36f 63db 	bfc	r3, #27, #1
 8009c8a:	9301      	str	r3, [sp, #4]
 8009c8c:	9b01      	ldr	r3, [sp, #4]
 8009c8e:	f36f 731c 	bfc	r3, #28, #1
 8009c92:	9301      	str	r3, [sp, #4]
 8009c94:	9b01      	ldr	r3, [sp, #4]
 8009c96:	f36f 735f 	bfc	r3, #29, #3
 8009c9a:	9301      	str	r3, [sp, #4]
 8009c9c:	9b01      	ldr	r3, [sp, #4]
 8009c9e:	f8ce 3000 	str.w	r3, [lr]
 8009ca2:	9b02      	ldr	r3, [sp, #8]
 8009ca4:	f36f 0303 	bfc	r3, #0, #4
 8009ca8:	9302      	str	r3, [sp, #8]
 8009caa:	9b02      	ldr	r3, [sp, #8]
 8009cac:	f36f 1304 	bfc	r3, #4, #1
 8009cb0:	9302      	str	r3, [sp, #8]
 8009cb2:	9b02      	ldr	r3, [sp, #8]
 8009cb4:	f36f 1345 	bfc	r3, #5, #1
 8009cb8:	9302      	str	r3, [sp, #8]
 8009cba:	9b02      	ldr	r3, [sp, #8]
 8009cbc:	f36f 1386 	bfc	r3, #6, #1
 8009cc0:	9302      	str	r3, [sp, #8]
 8009cc2:	9b02      	ldr	r3, [sp, #8]
 8009cc4:	f36f 13c7 	bfc	r3, #7, #1
 8009cc8:	9302      	str	r3, [sp, #8]
 8009cca:	9b02      	ldr	r3, [sp, #8]
 8009ccc:	f36f 2308 	bfc	r3, #8, #1
 8009cd0:	9302      	str	r3, [sp, #8]
 8009cd2:	9b02      	ldr	r3, [sp, #8]
 8009cd4:	f36f 2349 	bfc	r3, #9, #1
 8009cd8:	9302      	str	r3, [sp, #8]
 8009cda:	9b02      	ldr	r3, [sp, #8]
 8009cdc:	f36f 238a 	bfc	r3, #10, #1
 8009ce0:	9302      	str	r3, [sp, #8]
 8009ce2:	9b02      	ldr	r3, [sp, #8]
 8009ce4:	f36f 23cb 	bfc	r3, #11, #1
 8009ce8:	9302      	str	r3, [sp, #8]
 8009cea:	9b02      	ldr	r3, [sp, #8]
 8009cec:	f36f 330d 	bfc	r3, #12, #2
 8009cf0:	9302      	str	r3, [sp, #8]
 8009cf2:	9b02      	ldr	r3, [sp, #8]
 8009cf4:	f36f 338e 	bfc	r3, #14, #1
 8009cf8:	9302      	str	r3, [sp, #8]
 8009cfa:	9b02      	ldr	r3, [sp, #8]
 8009cfc:	f36f 33cf 	bfc	r3, #15, #1
 8009d00:	9302      	str	r3, [sp, #8]
 8009d02:	9b02      	ldr	r3, [sp, #8]
 8009d04:	f36f 4310 	bfc	r3, #16, #1
 8009d08:	9302      	str	r3, [sp, #8]
 8009d0a:	9b02      	ldr	r3, [sp, #8]
 8009d0c:	f36f 4351 	bfc	r3, #17, #1
 8009d10:	9302      	str	r3, [sp, #8]
 8009d12:	9b02      	ldr	r3, [sp, #8]
 8009d14:	f36f 4392 	bfc	r3, #18, #1
 8009d18:	9302      	str	r3, [sp, #8]
 8009d1a:	9b02      	ldr	r3, [sp, #8]
 8009d1c:	f36f 43d3 	bfc	r3, #19, #1
 8009d20:	9302      	str	r3, [sp, #8]
 8009d22:	9b02      	ldr	r3, [sp, #8]
 8009d24:	f36f 5314 	bfc	r3, #20, #1
 8009d28:	9302      	str	r3, [sp, #8]
 8009d2a:	9b02      	ldr	r3, [sp, #8]
 8009d2c:	f36f 5356 	bfc	r3, #21, #2
 8009d30:	9302      	str	r3, [sp, #8]
 8009d32:	9b02      	ldr	r3, [sp, #8]
 8009d34:	f36f 53d7 	bfc	r3, #23, #1
 8009d38:	9302      	str	r3, [sp, #8]
 8009d3a:	9b02      	ldr	r3, [sp, #8]
 8009d3c:	f36f 631b 	bfc	r3, #24, #4
 8009d40:	9302      	str	r3, [sp, #8]
 8009d42:	9b02      	ldr	r3, [sp, #8]
 8009d44:	f36f 731f 	bfc	r3, #28, #4
 8009d48:	9302      	str	r3, [sp, #8]
 8009d4a:	9b02      	ldr	r3, [sp, #8]
 8009d4c:	603b      	str	r3, [r7, #0]
 8009d4e:	9b03      	ldr	r3, [sp, #12]
 8009d50:	f36f 0300 	bfc	r3, #0, #1
 8009d54:	9303      	str	r3, [sp, #12]
 8009d56:	9b03      	ldr	r3, [sp, #12]
 8009d58:	f36f 0341 	bfc	r3, #1, #1
 8009d5c:	9303      	str	r3, [sp, #12]
 8009d5e:	9b03      	ldr	r3, [sp, #12]
 8009d60:	f36f 0382 	bfc	r3, #2, #1
 8009d64:	9303      	str	r3, [sp, #12]
 8009d66:	9b03      	ldr	r3, [sp, #12]
 8009d68:	f36f 03c3 	bfc	r3, #3, #1
 8009d6c:	9303      	str	r3, [sp, #12]
 8009d6e:	9b03      	ldr	r3, [sp, #12]
 8009d70:	f36f 1304 	bfc	r3, #4, #1
 8009d74:	9303      	str	r3, [sp, #12]
 8009d76:	9b03      	ldr	r3, [sp, #12]
 8009d78:	f36f 1345 	bfc	r3, #5, #1
 8009d7c:	9303      	str	r3, [sp, #12]
 8009d7e:	9b03      	ldr	r3, [sp, #12]
 8009d80:	f36f 1386 	bfc	r3, #6, #1
 8009d84:	9303      	str	r3, [sp, #12]
 8009d86:	9b03      	ldr	r3, [sp, #12]
 8009d88:	f36f 13c7 	bfc	r3, #7, #1
 8009d8c:	9303      	str	r3, [sp, #12]
 8009d8e:	9b03      	ldr	r3, [sp, #12]
 8009d90:	f36f 2308 	bfc	r3, #8, #1
 8009d94:	9303      	str	r3, [sp, #12]
 8009d96:	9b03      	ldr	r3, [sp, #12]
 8009d98:	f36f 2349 	bfc	r3, #9, #1
 8009d9c:	9303      	str	r3, [sp, #12]
 8009d9e:	9b03      	ldr	r3, [sp, #12]
 8009da0:	f36f 238a 	bfc	r3, #10, #1
 8009da4:	9303      	str	r3, [sp, #12]
 8009da6:	9b03      	ldr	r3, [sp, #12]
 8009da8:	f36f 23cb 	bfc	r3, #11, #1
 8009dac:	e018      	b.n	8009de0 <system__text_io__initialize+0x30c>
 8009dae:	bf00      	nop
 8009db0:	200002b4 	.word	0x200002b4
 8009db4:	48000008 	.word	0x48000008
 8009db8:	48000004 	.word	0x48000004
 8009dbc:	4800000c 	.word	0x4800000c
 8009dc0:	48000024 	.word	0x48000024
 8009dc4:	40013804 	.word	0x40013804
 8009dc8:	40013808 	.word	0x40013808
 8009dcc:	40021060 	.word	0x40021060
 8009dd0:	4002104c 	.word	0x4002104c
 8009dd4:	91a2b3c5 	.word	0x91a2b3c5
 8009dd8:	4001380c 	.word	0x4001380c
 8009ddc:	40013800 	.word	0x40013800
 8009de0:	9303      	str	r3, [sp, #12]
 8009de2:	9b03      	ldr	r3, [sp, #12]
 8009de4:	f36f 330c 	bfc	r3, #12, #1
 8009de8:	9303      	str	r3, [sp, #12]
 8009dea:	9b03      	ldr	r3, [sp, #12]
 8009dec:	f36f 334d 	bfc	r3, #13, #1
 8009df0:	9303      	str	r3, [sp, #12]
 8009df2:	9b03      	ldr	r3, [sp, #12]
 8009df4:	f36f 338e 	bfc	r3, #14, #1
 8009df8:	9303      	str	r3, [sp, #12]
 8009dfa:	9b03      	ldr	r3, [sp, #12]
 8009dfc:	f36f 33cf 	bfc	r3, #15, #1
 8009e00:	9303      	str	r3, [sp, #12]
 8009e02:	9b03      	ldr	r3, [sp, #12]
 8009e04:	f36f 4310 	bfc	r3, #16, #1
 8009e08:	9303      	str	r3, [sp, #12]
 8009e0a:	9b03      	ldr	r3, [sp, #12]
 8009e0c:	f36f 4353 	bfc	r3, #17, #3
 8009e10:	9303      	str	r3, [sp, #12]
 8009e12:	9b03      	ldr	r3, [sp, #12]
 8009e14:	f36f 5315 	bfc	r3, #20, #2
 8009e18:	9303      	str	r3, [sp, #12]
 8009e1a:	9b03      	ldr	r3, [sp, #12]
 8009e1c:	f36f 5396 	bfc	r3, #22, #1
 8009e20:	9303      	str	r3, [sp, #12]
 8009e22:	9b03      	ldr	r3, [sp, #12]
 8009e24:	f36f 53df 	bfc	r3, #23, #9
 8009e28:	9303      	str	r3, [sp, #12]
 8009e2a:	9b03      	ldr	r3, [sp, #12]
 8009e2c:	6033      	str	r3, [r6, #0]
 8009e2e:	b00b      	add	sp, #44	; 0x2c
 8009e30:	e8bd 8ff0 	ldmia.w	sp!, {r4, r5, r6, r7, r8, r9, sl, fp, pc}

08009e34 <system__text_io__is_tx_ready>:
 8009e34:	4b02      	ldr	r3, [pc, #8]	; (8009e40 <system__text_io__is_tx_ready+0xc>)
 8009e36:	6818      	ldr	r0, [r3, #0]
 8009e38:	f3c0 1080 	ubfx	r0, r0, #6, #1
 8009e3c:	4770      	bx	lr
 8009e3e:	bf00      	nop
 8009e40:	4001381c 	.word	0x4001381c

08009e44 <system__text_io__put>:
 8009e44:	4a02      	ldr	r2, [pc, #8]	; (8009e50 <system__text_io__put+0xc>)
 8009e46:	6813      	ldr	r3, [r2, #0]
 8009e48:	f360 0308 	bfi	r3, r0, #0, #9
 8009e4c:	6013      	str	r3, [r2, #0]
 8009e4e:	4770      	bx	lr
 8009e50:	40013828 	.word	0x40013828

08009e54 <system__text_io__use_cr_lf_for_new_line>:
 8009e54:	2001      	movs	r0, #1
 8009e56:	4770      	bx	lr

08009e58 <system__bb__mcu_parameters__pwr_initialize>:
 8009e58:	4770      	bx	lr
 8009e5a:	bf00      	nop

08009e5c <system__bb__mcu_parameters__pwr_overdrive_enable>:
 8009e5c:	4770      	bx	lr
 8009e5e:	bf00      	nop

08009e60 <__gnat_get_executable_load_address>:
 8009e60:	2000      	movs	r0, #0
 8009e62:	4770      	bx	lr

08009e64 <system__img_bool__image_boolean>:
 8009e64:	681b      	ldr	r3, [r3, #0]
 8009e66:	b960      	cbnz	r0, 8009e82 <system__img_bool__image_boolean+0x1e>
 8009e68:	b410      	push	{r4}
 8009e6a:	4909      	ldr	r1, [pc, #36]	; (8009e90 <system__img_bool__image_boolean+0x2c>)
 8009e6c:	f1c3 0301 	rsb	r3, r3, #1
 8009e70:	6808      	ldr	r0, [r1, #0]
 8009e72:	7909      	ldrb	r1, [r1, #4]
 8009e74:	50d0      	str	r0, [r2, r3]
 8009e76:	18d4      	adds	r4, r2, r3
 8009e78:	2005      	movs	r0, #5
 8009e7a:	7121      	strb	r1, [r4, #4]
 8009e7c:	f85d 4b04 	ldr.w	r4, [sp], #4
 8009e80:	4770      	bx	lr
 8009e82:	4904      	ldr	r1, [pc, #16]	; (8009e94 <system__img_bool__image_boolean+0x30>)
 8009e84:	f1c3 0301 	rsb	r3, r3, #1
 8009e88:	6808      	ldr	r0, [r1, #0]
 8009e8a:	50d0      	str	r0, [r2, r3]
 8009e8c:	2004      	movs	r0, #4
 8009e8e:	4770      	bx	lr
 8009e90:	0800e418 	.word	0x0800e418
 8009e94:	0800e414 	.word	0x0800e414

08009e98 <system__traceback__backtrace_callback>:
 8009e98:	694b      	ldr	r3, [r1, #20]
 8009e9a:	2b00      	cmp	r3, #0
 8009e9c:	dd03      	ble.n	8009ea6 <system__traceback__backtrace_callback+0xe>
 8009e9e:	3b01      	subs	r3, #1
 8009ea0:	2000      	movs	r0, #0
 8009ea2:	614b      	str	r3, [r1, #20]
 8009ea4:	4770      	bx	lr
 8009ea6:	688a      	ldr	r2, [r1, #8]
 8009ea8:	684b      	ldr	r3, [r1, #4]
 8009eaa:	429a      	cmp	r2, r3
 8009eac:	db01      	blt.n	8009eb2 <system__traceback__backtrace_callback+0x1a>
 8009eae:	2000      	movs	r0, #0
 8009eb0:	4770      	bx	lr
 8009eb2:	b510      	push	{r4, lr}
 8009eb4:	b084      	sub	sp, #16
 8009eb6:	ab03      	add	r3, sp, #12
 8009eb8:	460c      	mov	r4, r1
 8009eba:	2100      	movs	r1, #0
 8009ebc:	9300      	str	r3, [sp, #0]
 8009ebe:	220f      	movs	r2, #15
 8009ec0:	460b      	mov	r3, r1
 8009ec2:	f000 fbf7 	bl	800a6b4 <_Unwind_VRS_Get>
 8009ec6:	b110      	cbz	r0, 8009ece <system__traceback__backtrace_callback+0x36>
 8009ec8:	2006      	movs	r0, #6
 8009eca:	b004      	add	sp, #16
 8009ecc:	bd10      	pop	{r4, pc}
 8009ece:	68e2      	ldr	r2, [r4, #12]
 8009ed0:	9b03      	ldr	r3, [sp, #12]
 8009ed2:	429a      	cmp	r2, r3
 8009ed4:	d802      	bhi.n	8009edc <system__traceback__backtrace_callback+0x44>
 8009ed6:	6922      	ldr	r2, [r4, #16]
 8009ed8:	4293      	cmp	r3, r2
 8009eda:	d907      	bls.n	8009eec <system__traceback__backtrace_callback+0x54>
 8009edc:	68a2      	ldr	r2, [r4, #8]
 8009ede:	6821      	ldr	r1, [r4, #0]
 8009ee0:	1c50      	adds	r0, r2, #1
 8009ee2:	60a0      	str	r0, [r4, #8]
 8009ee4:	2000      	movs	r0, #0
 8009ee6:	f841 3022 	str.w	r3, [r1, r2, lsl #2]
 8009eea:	e7ee      	b.n	8009eca <system__traceback__backtrace_callback+0x32>
 8009eec:	2000      	movs	r0, #0
 8009eee:	e7ec      	b.n	8009eca <system__traceback__backtrace_callback+0x32>

08009ef0 <system__traceback__call_chain>:
 8009ef0:	b530      	push	{r4, r5, lr}
 8009ef2:	b087      	sub	sp, #28
 8009ef4:	990b      	ldr	r1, [sp, #44]	; 0x2c
 8009ef6:	9000      	str	r0, [sp, #0]
 8009ef8:	1c4c      	adds	r4, r1, #1
 8009efa:	9d0a      	ldr	r5, [sp, #40]	; 0x28
 8009efc:	9201      	str	r2, [sp, #4]
 8009efe:	4669      	mov	r1, sp
 8009f00:	2200      	movs	r2, #0
 8009f02:	4805      	ldr	r0, [pc, #20]	; (8009f18 <system__traceback__call_chain+0x28>)
 8009f04:	9303      	str	r3, [sp, #12]
 8009f06:	9405      	str	r4, [sp, #20]
 8009f08:	9504      	str	r5, [sp, #16]
 8009f0a:	9202      	str	r2, [sp, #8]
 8009f0c:	f000 ffc6 	bl	800ae9c <_Unwind_Backtrace>
 8009f10:	9802      	ldr	r0, [sp, #8]
 8009f12:	b007      	add	sp, #28
 8009f14:	bd30      	pop	{r4, r5, pc}
 8009f16:	bf00      	nop
 8009f18:	08009e99 	.word	0x08009e99

08009f1c <system__c__malloc__add_free_cell>:
 8009f1c:	4a15      	ldr	r2, [pc, #84]	; (8009f74 <system__c__malloc__add_free_cell+0x58>)
 8009f1e:	6811      	ldr	r1, [r2, #0]
 8009f20:	b321      	cbz	r1, 8009f6c <system__c__malloc__add_free_cell+0x50>
 8009f22:	b410      	push	{r4}
 8009f24:	684b      	ldr	r3, [r1, #4]
 8009f26:	6844      	ldr	r4, [r0, #4]
 8009f28:	f3c3 031e 	ubfx	r3, r3, #0, #31
 8009f2c:	f3c4 041e 	ubfx	r4, r4, #0, #31
 8009f30:	429c      	cmp	r4, r3
 8009f32:	d806      	bhi.n	8009f42 <system__c__malloc__add_free_cell+0x26>
 8009f34:	e012      	b.n	8009f5c <system__c__malloc__add_free_cell+0x40>
 8009f36:	685a      	ldr	r2, [r3, #4]
 8009f38:	f3c2 021e 	ubfx	r2, r2, #0, #31
 8009f3c:	42a2      	cmp	r2, r4
 8009f3e:	d206      	bcs.n	8009f4e <system__c__malloc__add_free_cell+0x32>
 8009f40:	4619      	mov	r1, r3
 8009f42:	68cb      	ldr	r3, [r1, #12]
 8009f44:	2b00      	cmp	r3, #0
 8009f46:	d1f6      	bne.n	8009f36 <system__c__malloc__add_free_cell+0x1a>
 8009f48:	6081      	str	r1, [r0, #8]
 8009f4a:	60c3      	str	r3, [r0, #12]
 8009f4c:	e002      	b.n	8009f54 <system__c__malloc__add_free_cell+0x38>
 8009f4e:	6081      	str	r1, [r0, #8]
 8009f50:	60c3      	str	r3, [r0, #12]
 8009f52:	6098      	str	r0, [r3, #8]
 8009f54:	60c8      	str	r0, [r1, #12]
 8009f56:	f85d 4b04 	ldr.w	r4, [sp], #4
 8009f5a:	4770      	bx	lr
 8009f5c:	2300      	movs	r3, #0
 8009f5e:	60c1      	str	r1, [r0, #12]
 8009f60:	6083      	str	r3, [r0, #8]
 8009f62:	6010      	str	r0, [r2, #0]
 8009f64:	6088      	str	r0, [r1, #8]
 8009f66:	f85d 4b04 	ldr.w	r4, [sp], #4
 8009f6a:	4770      	bx	lr
 8009f6c:	6081      	str	r1, [r0, #8]
 8009f6e:	60c1      	str	r1, [r0, #12]
 8009f70:	6010      	str	r0, [r2, #0]
 8009f72:	4770      	bx	lr
 8009f74:	200002b8 	.word	0x200002b8

08009f78 <malloc>:
 8009f78:	b5f8      	push	{r3, r4, r5, r6, r7, lr}
 8009f7a:	2800      	cmp	r0, #0
 8009f7c:	d03f      	beq.n	8009ffe <malloc+0x86>
 8009f7e:	4930      	ldr	r1, [pc, #192]	; (800a040 <malloc+0xc8>)
 8009f80:	680c      	ldr	r4, [r1, #0]
 8009f82:	3008      	adds	r0, #8
 8009f84:	f020 0207 	bic.w	r2, r0, #7
 8009f88:	b914      	cbnz	r4, 8009f90 <malloc+0x18>
 8009f8a:	e01c      	b.n	8009fc6 <malloc+0x4e>
 8009f8c:	68e4      	ldr	r4, [r4, #12]
 8009f8e:	b1d4      	cbz	r4, 8009fc6 <malloc+0x4e>
 8009f90:	6863      	ldr	r3, [r4, #4]
 8009f92:	f3c3 031e 	ubfx	r3, r3, #0, #31
 8009f96:	429a      	cmp	r2, r3
 8009f98:	d8f8      	bhi.n	8009f8c <malloc+0x14>
 8009f9a:	68e3      	ldr	r3, [r4, #12]
 8009f9c:	b10b      	cbz	r3, 8009fa2 <malloc+0x2a>
 8009f9e:	68a0      	ldr	r0, [r4, #8]
 8009fa0:	6098      	str	r0, [r3, #8]
 8009fa2:	68a0      	ldr	r0, [r4, #8]
 8009fa4:	2800      	cmp	r0, #0
 8009fa6:	d049      	beq.n	800a03c <malloc+0xc4>
 8009fa8:	60c3      	str	r3, [r0, #12]
 8009faa:	6863      	ldr	r3, [r4, #4]
 8009fac:	f3c3 031e 	ubfx	r3, r3, #0, #31
 8009fb0:	1a99      	subs	r1, r3, r2
 8009fb2:	290f      	cmp	r1, #15
 8009fb4:	f104 0508 	add.w	r5, r4, #8
 8009fb8:	d827      	bhi.n	800a00a <malloc+0x92>
 8009fba:	79e3      	ldrb	r3, [r4, #7]
 8009fbc:	f36f 13c7 	bfc	r3, #7, #1
 8009fc0:	71e3      	strb	r3, [r4, #7]
 8009fc2:	4628      	mov	r0, r5
 8009fc4:	bdf8      	pop	{r3, r4, r5, r6, r7, pc}
 8009fc6:	4e1f      	ldr	r6, [pc, #124]	; (800a044 <malloc+0xcc>)
 8009fc8:	6831      	ldr	r1, [r6, #0]
 8009fca:	2900      	cmp	r1, #0
 8009fcc:	d034      	beq.n	800a038 <malloc+0xc0>
 8009fce:	684b      	ldr	r3, [r1, #4]
 8009fd0:	f3c3 031e 	ubfx	r3, r3, #0, #31
 8009fd4:	440b      	add	r3, r1
 8009fd6:	3308      	adds	r3, #8
 8009fd8:	685c      	ldr	r4, [r3, #4]
 8009fda:	6019      	str	r1, [r3, #0]
 8009fdc:	f020 4100 	bic.w	r1, r0, #2147483648	; 0x80000000
 8009fe0:	f362 041e 	bfi	r4, r2, #0, #31
 8009fe4:	4f18      	ldr	r7, [pc, #96]	; (800a048 <malloc+0xd0>)
 8009fe6:	605c      	str	r4, [r3, #4]
 8009fe8:	f021 0107 	bic.w	r1, r1, #7
 8009fec:	f103 0508 	add.w	r5, r3, #8
 8009ff0:	0e22      	lsrs	r2, r4, #24
 8009ff2:	4429      	add	r1, r5
 8009ff4:	f36f 12c7 	bfc	r2, #7, #1
 8009ff8:	42b9      	cmp	r1, r7
 8009ffa:	71da      	strb	r2, [r3, #7]
 8009ffc:	d902      	bls.n	800a004 <malloc+0x8c>
 8009ffe:	2500      	movs	r5, #0
 800a000:	4628      	mov	r0, r5
 800a002:	bdf8      	pop	{r3, r4, r5, r6, r7, pc}
 800a004:	6033      	str	r3, [r6, #0]
 800a006:	4628      	mov	r0, r5
 800a008:	bdf8      	pop	{r3, r4, r5, r6, r7, pc}
 800a00a:	18a8      	adds	r0, r5, r2
 800a00c:	3908      	subs	r1, #8
 800a00e:	6846      	ldr	r6, [r0, #4]
 800a010:	50ac      	str	r4, [r5, r2]
 800a012:	f361 061e 	bfi	r6, r1, #0, #31
 800a016:	0e31      	lsrs	r1, r6, #24
 800a018:	f041 0180 	orr.w	r1, r1, #128	; 0x80
 800a01c:	6046      	str	r6, [r0, #4]
 800a01e:	71c1      	strb	r1, [r0, #7]
 800a020:	6861      	ldr	r1, [r4, #4]
 800a022:	50e8      	str	r0, [r5, r3]
 800a024:	f362 011e 	bfi	r1, r2, #0, #31
 800a028:	6061      	str	r1, [r4, #4]
 800a02a:	f7ff ff77 	bl	8009f1c <system__c__malloc__add_free_cell>
 800a02e:	79e3      	ldrb	r3, [r4, #7]
 800a030:	f36f 13c7 	bfc	r3, #7, #1
 800a034:	71e3      	strb	r3, [r4, #7]
 800a036:	e7c4      	b.n	8009fc2 <malloc+0x4a>
 800a038:	4b04      	ldr	r3, [pc, #16]	; (800a04c <malloc+0xd4>)
 800a03a:	e7cd      	b.n	8009fd8 <malloc+0x60>
 800a03c:	600b      	str	r3, [r1, #0]
 800a03e:	e7b4      	b.n	8009faa <malloc+0x32>
 800a040:	200002b8 	.word	0x200002b8
 800a044:	200002bc 	.word	0x200002bc
 800a048:	20010000 	.word	0x20010000
 800a04c:	2000cb00 	.word	0x2000cb00

0800a050 <free>:
 800a050:	2800      	cmp	r0, #0
 800a052:	d04f      	beq.n	800a0f4 <free+0xa4>
 800a054:	b470      	push	{r4, r5, r6}
 800a056:	f1a0 0308 	sub.w	r3, r0, #8
 800a05a:	4934      	ldr	r1, [pc, #208]	; (800a12c <free+0xdc>)
 800a05c:	79da      	ldrb	r2, [r3, #7]
 800a05e:	680c      	ldr	r4, [r1, #0]
 800a060:	f042 0280 	orr.w	r2, r2, #128	; 0x80
 800a064:	42a3      	cmp	r3, r4
 800a066:	71da      	strb	r2, [r3, #7]
 800a068:	d045      	beq.n	800a0f6 <free+0xa6>
 800a06a:	685a      	ldr	r2, [r3, #4]
 800a06c:	f3c2 021e 	ubfx	r2, r2, #0, #31
 800a070:	4402      	add	r2, r0
 800a072:	79d5      	ldrb	r5, [r2, #7]
 800a074:	09ed      	lsrs	r5, r5, #7
 800a076:	d019      	beq.n	800a0ac <free+0x5c>
 800a078:	68d5      	ldr	r5, [r2, #12]
 800a07a:	b10d      	cbz	r5, 800a080 <free+0x30>
 800a07c:	6896      	ldr	r6, [r2, #8]
 800a07e:	60ae      	str	r6, [r5, #8]
 800a080:	6896      	ldr	r6, [r2, #8]
 800a082:	2e00      	cmp	r6, #0
 800a084:	d04c      	beq.n	800a120 <free+0xd0>
 800a086:	60f5      	str	r5, [r6, #12]
 800a088:	4294      	cmp	r4, r2
 800a08a:	d004      	beq.n	800a096 <free+0x46>
 800a08c:	6854      	ldr	r4, [r2, #4]
 800a08e:	f3c4 041e 	ubfx	r4, r4, #0, #31
 800a092:	4414      	add	r4, r2
 800a094:	60a3      	str	r3, [r4, #8]
 800a096:	685c      	ldr	r4, [r3, #4]
 800a098:	6852      	ldr	r2, [r2, #4]
 800a09a:	f3c4 051e 	ubfx	r5, r4, #0, #31
 800a09e:	f3c2 021e 	ubfx	r2, r2, #0, #31
 800a0a2:	442a      	add	r2, r5
 800a0a4:	3208      	adds	r2, #8
 800a0a6:	f362 041e 	bfi	r4, r2, #0, #31
 800a0aa:	605c      	str	r4, [r3, #4]
 800a0ac:	f850 2c08 	ldr.w	r2, [r0, #-8]
 800a0b0:	b1e2      	cbz	r2, 800a0ec <free+0x9c>
 800a0b2:	79d4      	ldrb	r4, [r2, #7]
 800a0b4:	09e4      	lsrs	r4, r4, #7
 800a0b6:	d019      	beq.n	800a0ec <free+0x9c>
 800a0b8:	68d4      	ldr	r4, [r2, #12]
 800a0ba:	b10c      	cbz	r4, 800a0c0 <free+0x70>
 800a0bc:	6895      	ldr	r5, [r2, #8]
 800a0be:	60a5      	str	r5, [r4, #8]
 800a0c0:	6895      	ldr	r5, [r2, #8]
 800a0c2:	b355      	cbz	r5, 800a11a <free+0xca>
 800a0c4:	60ec      	str	r4, [r5, #12]
 800a0c6:	6809      	ldr	r1, [r1, #0]
 800a0c8:	428b      	cmp	r3, r1
 800a0ca:	d003      	beq.n	800a0d4 <free+0x84>
 800a0cc:	6859      	ldr	r1, [r3, #4]
 800a0ce:	f3c1 011e 	ubfx	r1, r1, #0, #31
 800a0d2:	5042      	str	r2, [r0, r1]
 800a0d4:	6851      	ldr	r1, [r2, #4]
 800a0d6:	685b      	ldr	r3, [r3, #4]
 800a0d8:	f3c1 001e 	ubfx	r0, r1, #0, #31
 800a0dc:	f3c3 031e 	ubfx	r3, r3, #0, #31
 800a0e0:	4403      	add	r3, r0
 800a0e2:	3308      	adds	r3, #8
 800a0e4:	f363 011e 	bfi	r1, r3, #0, #31
 800a0e8:	6051      	str	r1, [r2, #4]
 800a0ea:	4613      	mov	r3, r2
 800a0ec:	4618      	mov	r0, r3
 800a0ee:	bc70      	pop	{r4, r5, r6}
 800a0f0:	f7ff bf14 	b.w	8009f1c <system__c__malloc__add_free_cell>
 800a0f4:	4770      	bx	lr
 800a0f6:	f850 3c08 	ldr.w	r3, [r0, #-8]
 800a0fa:	600b      	str	r3, [r1, #0]
 800a0fc:	b15b      	cbz	r3, 800a116 <free+0xc6>
 800a0fe:	79da      	ldrb	r2, [r3, #7]
 800a100:	09d2      	lsrs	r2, r2, #7
 800a102:	d008      	beq.n	800a116 <free+0xc6>
 800a104:	68da      	ldr	r2, [r3, #12]
 800a106:	b10a      	cbz	r2, 800a10c <free+0xbc>
 800a108:	6898      	ldr	r0, [r3, #8]
 800a10a:	6090      	str	r0, [r2, #8]
 800a10c:	6898      	ldr	r0, [r3, #8]
 800a10e:	b150      	cbz	r0, 800a126 <free+0xd6>
 800a110:	60c2      	str	r2, [r0, #12]
 800a112:	681b      	ldr	r3, [r3, #0]
 800a114:	600b      	str	r3, [r1, #0]
 800a116:	bc70      	pop	{r4, r5, r6}
 800a118:	4770      	bx	lr
 800a11a:	4d05      	ldr	r5, [pc, #20]	; (800a130 <free+0xe0>)
 800a11c:	602c      	str	r4, [r5, #0]
 800a11e:	e7d2      	b.n	800a0c6 <free+0x76>
 800a120:	4e03      	ldr	r6, [pc, #12]	; (800a130 <free+0xe0>)
 800a122:	6035      	str	r5, [r6, #0]
 800a124:	e7b0      	b.n	800a088 <free+0x38>
 800a126:	4802      	ldr	r0, [pc, #8]	; (800a130 <free+0xe0>)
 800a128:	6002      	str	r2, [r0, #0]
 800a12a:	e7f2      	b.n	800a112 <free+0xc2>
 800a12c:	200002bc 	.word	0x200002bc
 800a130:	200002b8 	.word	0x200002b8

0800a134 <gnat__debug_utilities__image_c>:
 800a134:	b430      	push	{r4, r5}
 800a136:	4d08      	ldr	r5, [pc, #32]	; (800a158 <gnat__debug_utilities__image_c+0x24>)
 800a138:	f100 0309 	add.w	r3, r0, #9
 800a13c:	1c44      	adds	r4, r0, #1
 800a13e:	f001 020f 	and.w	r2, r1, #15
 800a142:	0909      	lsrs	r1, r1, #4
 800a144:	5caa      	ldrb	r2, [r5, r2]
 800a146:	f803 2901 	strb.w	r2, [r3], #-1
 800a14a:	42a3      	cmp	r3, r4
 800a14c:	d1f7      	bne.n	800a13e <gnat__debug_utilities__image_c+0xa>
 800a14e:	4b03      	ldr	r3, [pc, #12]	; (800a15c <gnat__debug_utilities__image_c+0x28>)
 800a150:	881b      	ldrh	r3, [r3, #0]
 800a152:	8003      	strh	r3, [r0, #0]
 800a154:	bc30      	pop	{r4, r5}
 800a156:	4770      	bx	lr
 800a158:	0800e438 	.word	0x0800e438
 800a15c:	0800e424 	.word	0x0800e424

0800a160 <system__stm32__system_clocks>:
 800a160:	b4f0      	push	{r4, r5, r6, r7}
 800a162:	4c3c      	ldr	r4, [pc, #240]	; (800a254 <system__stm32__system_clocks+0xf4>)
 800a164:	6823      	ldr	r3, [r4, #0]
 800a166:	f3c3 0381 	ubfx	r3, r3, #2, #2
 800a16a:	2b01      	cmp	r3, #1
 800a16c:	d060      	beq.n	800a230 <system__stm32__system_clocks+0xd0>
 800a16e:	d35c      	bcc.n	800a22a <system__stm32__system_clocks+0xca>
 800a170:	2b02      	cmp	r3, #2
 800a172:	d141      	bne.n	800a1f8 <system__stm32__system_clocks+0x98>
 800a174:	4938      	ldr	r1, [pc, #224]	; (800a258 <system__stm32__system_clocks+0xf8>)
 800a176:	6001      	str	r1, [r0, #0]
 800a178:	6822      	ldr	r2, [r4, #0]
 800a17a:	f04f 0300 	mov.w	r3, #0
 800a17e:	f3c2 1203 	ubfx	r2, r2, #4, #4
 800a182:	f362 0303 	bfi	r3, r2, #0, #4
 800a186:	f003 0207 	and.w	r2, r3, #7
 800a18a:	071b      	lsls	r3, r3, #28
 800a18c:	bf44      	itt	mi
 800a18e:	4b33      	ldrmi	r3, [pc, #204]	; (800a25c <system__stm32__system_clocks+0xfc>)
 800a190:	f853 6022 	ldrmi.w	r6, [r3, r2, lsl #2]
 800a194:	6822      	ldr	r2, [r4, #0]
 800a196:	f04f 0300 	mov.w	r3, #0
 800a19a:	f3c2 2205 	ubfx	r2, r2, #8, #6
 800a19e:	f362 0302 	bfi	r3, r2, #0, #3
 800a1a2:	f3c3 0580 	ubfx	r5, r3, #2, #1
 800a1a6:	bf58      	it	pl
 800a1a8:	2601      	movpl	r6, #1
 800a1aa:	f003 0303 	and.w	r3, r3, #3
 800a1ae:	2d00      	cmp	r5, #0
 800a1b0:	d039      	beq.n	800a226 <system__stm32__system_clocks+0xc6>
 800a1b2:	4a2b      	ldr	r2, [pc, #172]	; (800a260 <system__stm32__system_clocks+0x100>)
 800a1b4:	f852 2023 	ldr.w	r2, [r2, r3, lsl #2]
 800a1b8:	6824      	ldr	r4, [r4, #0]
 800a1ba:	f04f 0300 	mov.w	r3, #0
 800a1be:	f3c4 24c2 	ubfx	r4, r4, #11, #3
 800a1c2:	f364 0302 	bfi	r3, r4, #0, #3
 800a1c6:	f3c3 0480 	ubfx	r4, r3, #2, #1
 800a1ca:	f003 0303 	and.w	r3, r3, #3
 800a1ce:	b344      	cbz	r4, 800a222 <system__stm32__system_clocks+0xc2>
 800a1d0:	4f23      	ldr	r7, [pc, #140]	; (800a260 <system__stm32__system_clocks+0x100>)
 800a1d2:	f857 3023 	ldr.w	r3, [r7, r3, lsl #2]
 800a1d6:	fbb1 f1f6 	udiv	r1, r1, r6
 800a1da:	fbb1 f2f2 	udiv	r2, r1, r2
 800a1de:	fbb1 f3f3 	udiv	r3, r1, r3
 800a1e2:	6082      	str	r2, [r0, #8]
 800a1e4:	60c3      	str	r3, [r0, #12]
 800a1e6:	6041      	str	r1, [r0, #4]
 800a1e8:	b105      	cbz	r5, 800a1ec <system__stm32__system_clocks+0x8c>
 800a1ea:	0052      	lsls	r2, r2, #1
 800a1ec:	6102      	str	r2, [r0, #16]
 800a1ee:	b104      	cbz	r4, 800a1f2 <system__stm32__system_clocks+0x92>
 800a1f0:	005b      	lsls	r3, r3, #1
 800a1f2:	6143      	str	r3, [r0, #20]
 800a1f4:	bcf0      	pop	{r4, r5, r6, r7}
 800a1f6:	4770      	bx	lr
 800a1f8:	4a1a      	ldr	r2, [pc, #104]	; (800a264 <system__stm32__system_clocks+0x104>)
 800a1fa:	6813      	ldr	r3, [r2, #0]
 800a1fc:	6811      	ldr	r1, [r2, #0]
 800a1fe:	6812      	ldr	r2, [r2, #0]
 800a200:	f002 0203 	and.w	r2, r2, #3
 800a204:	f3c3 1302 	ubfx	r3, r3, #4, #3
 800a208:	2a02      	cmp	r2, #2
 800a20a:	f103 0301 	add.w	r3, r3, #1
 800a20e:	f3c1 2106 	ubfx	r1, r1, #8, #7
 800a212:	d010      	beq.n	800a236 <system__stm32__system_clocks+0xd6>
 800a214:	d816      	bhi.n	800a244 <system__stm32__system_clocks+0xe4>
 800a216:	2a01      	cmp	r2, #1
 800a218:	4913      	ldr	r1, [pc, #76]	; (800a268 <system__stm32__system_clocks+0x108>)
 800a21a:	bf18      	it	ne
 800a21c:	2100      	movne	r1, #0
 800a21e:	6001      	str	r1, [r0, #0]
 800a220:	e7aa      	b.n	800a178 <system__stm32__system_clocks+0x18>
 800a222:	2301      	movs	r3, #1
 800a224:	e7d7      	b.n	800a1d6 <system__stm32__system_clocks+0x76>
 800a226:	2201      	movs	r2, #1
 800a228:	e7c6      	b.n	800a1b8 <system__stm32__system_clocks+0x58>
 800a22a:	4910      	ldr	r1, [pc, #64]	; (800a26c <system__stm32__system_clocks+0x10c>)
 800a22c:	6001      	str	r1, [r0, #0]
 800a22e:	e7a3      	b.n	800a178 <system__stm32__system_clocks+0x18>
 800a230:	490f      	ldr	r1, [pc, #60]	; (800a270 <system__stm32__system_clocks+0x110>)
 800a232:	6001      	str	r1, [r0, #0]
 800a234:	e7a0      	b.n	800a178 <system__stm32__system_clocks+0x18>
 800a236:	4a0e      	ldr	r2, [pc, #56]	; (800a270 <system__stm32__system_clocks+0x110>)
 800a238:	fbb2 f3f3 	udiv	r3, r2, r3
 800a23c:	fb01 f103 	mul.w	r1, r1, r3
 800a240:	0849      	lsrs	r1, r1, #1
 800a242:	e7ec      	b.n	800a21e <system__stm32__system_clocks+0xbe>
 800a244:	4a04      	ldr	r2, [pc, #16]	; (800a258 <system__stm32__system_clocks+0xf8>)
 800a246:	fbb2 f3f3 	udiv	r3, r2, r3
 800a24a:	fb01 f103 	mul.w	r1, r1, r3
 800a24e:	0849      	lsrs	r1, r1, #1
 800a250:	e7e5      	b.n	800a21e <system__stm32__system_clocks+0xbe>
 800a252:	bf00      	nop
 800a254:	40021008 	.word	0x40021008
 800a258:	007a1200 	.word	0x007a1200
 800a25c:	0800e448 	.word	0x0800e448
 800a260:	0800e468 	.word	0x0800e468
 800a264:	4002100c 	.word	0x4002100c
 800a268:	09896800 	.word	0x09896800
 800a26c:	003d0900 	.word	0x003d0900
 800a270:	00f42400 	.word	0x00f42400

0800a274 <__aeabi_ldivmod>:
 800a274:	b97b      	cbnz	r3, 800a296 <__aeabi_ldivmod+0x22>
 800a276:	b972      	cbnz	r2, 800a296 <__aeabi_ldivmod+0x22>
 800a278:	2900      	cmp	r1, #0
 800a27a:	bfbe      	ittt	lt
 800a27c:	2000      	movlt	r0, #0
 800a27e:	f04f 4100 	movlt.w	r1, #2147483648	; 0x80000000
 800a282:	e006      	blt.n	800a292 <__aeabi_ldivmod+0x1e>
 800a284:	bf08      	it	eq
 800a286:	2800      	cmpeq	r0, #0
 800a288:	bf1c      	itt	ne
 800a28a:	f06f 4100 	mvnne.w	r1, #2147483648	; 0x80000000
 800a28e:	f04f 30ff 	movne.w	r0, #4294967295
 800a292:	f000 bfcf 	b.w	800b234 <__aeabi_idiv0>
 800a296:	b082      	sub	sp, #8
 800a298:	46ec      	mov	ip, sp
 800a29a:	e92d 5000 	stmdb	sp!, {ip, lr}
 800a29e:	f000 f805 	bl	800a2ac <__gnu_ldivmod_helper>
 800a2a2:	f8dd e004 	ldr.w	lr, [sp, #4]
 800a2a6:	b002      	add	sp, #8
 800a2a8:	bc0c      	pop	{r2, r3}
 800a2aa:	4770      	bx	lr

0800a2ac <__gnu_ldivmod_helper>:
 800a2ac:	e92d 41f0 	stmdb	sp!, {r4, r5, r6, r7, r8, lr}
 800a2b0:	9c06      	ldr	r4, [sp, #24]
 800a2b2:	4690      	mov	r8, r2
 800a2b4:	4606      	mov	r6, r0
 800a2b6:	460f      	mov	r7, r1
 800a2b8:	461d      	mov	r5, r3
 800a2ba:	f000 ffbd 	bl	800b238 <__divdi3>
 800a2be:	fb08 fc01 	mul.w	ip, r8, r1
 800a2c2:	fba8 2300 	umull	r2, r3, r8, r0
 800a2c6:	fb00 c505 	mla	r5, r0, r5, ip
 800a2ca:	1ab2      	subs	r2, r6, r2
 800a2cc:	442b      	add	r3, r5
 800a2ce:	eb67 0303 	sbc.w	r3, r7, r3
 800a2d2:	4686      	mov	lr, r0
 800a2d4:	e9c4 2300 	strd	r2, r3, [r4]
 800a2d8:	e8bd 81f0 	ldmia.w	sp!, {r4, r5, r6, r7, r8, pc}

0800a2dc <__gnu_uldivmod_helper>:
 800a2dc:	e92d 43f8 	stmdb	sp!, {r3, r4, r5, r6, r7, r8, r9, lr}
 800a2e0:	9e08      	ldr	r6, [sp, #32]
 800a2e2:	4617      	mov	r7, r2
 800a2e4:	4680      	mov	r8, r0
 800a2e6:	4689      	mov	r9, r1
 800a2e8:	461d      	mov	r5, r3
 800a2ea:	f001 f8fb 	bl	800b4e4 <__udivdi3>
 800a2ee:	fb00 f305 	mul.w	r3, r0, r5
 800a2f2:	fba0 4507 	umull	r4, r5, r0, r7
 800a2f6:	fb07 3701 	mla	r7, r7, r1, r3
 800a2fa:	ebb8 0404 	subs.w	r4, r8, r4
 800a2fe:	443d      	add	r5, r7
 800a300:	eb69 0505 	sbc.w	r5, r9, r5
 800a304:	e9c6 4500 	strd	r4, r5, [r6]
 800a308:	e8bd 83f8 	ldmia.w	sp!, {r3, r4, r5, r6, r7, r8, r9, pc}

0800a30c <selfrel_offset31>:
 800a30c:	6803      	ldr	r3, [r0, #0]
 800a30e:	005a      	lsls	r2, r3, #1
 800a310:	bf4c      	ite	mi
 800a312:	f043 4300 	orrmi.w	r3, r3, #2147483648	; 0x80000000
 800a316:	f023 4300 	bicpl.w	r3, r3, #2147483648	; 0x80000000
 800a31a:	4418      	add	r0, r3
 800a31c:	4770      	bx	lr
 800a31e:	bf00      	nop

0800a320 <search_EIT_table>:
 800a320:	e92d 4ff0 	stmdb	sp!, {r4, r5, r6, r7, r8, r9, sl, fp, lr}
 800a324:	b083      	sub	sp, #12
 800a326:	b369      	cbz	r1, 800a384 <search_EIT_table+0x64>
 800a328:	1e4b      	subs	r3, r1, #1
 800a32a:	4617      	mov	r7, r2
 800a32c:	4605      	mov	r5, r0
 800a32e:	4698      	mov	r8, r3
 800a330:	2600      	movs	r6, #0
 800a332:	9301      	str	r3, [sp, #4]
 800a334:	eb06 0408 	add.w	r4, r6, r8
 800a338:	eb04 74d4 	add.w	r4, r4, r4, lsr #31
 800a33c:	1064      	asrs	r4, r4, #1
 800a33e:	ea4f 0ac4 	mov.w	sl, r4, lsl #3
 800a342:	eb05 0b0a 	add.w	fp, r5, sl
 800a346:	4658      	mov	r0, fp
 800a348:	f7ff ffe0 	bl	800a30c <selfrel_offset31>
 800a34c:	9b01      	ldr	r3, [sp, #4]
 800a34e:	4681      	mov	r9, r0
 800a350:	42a3      	cmp	r3, r4
 800a352:	f10a 0008 	add.w	r0, sl, #8
 800a356:	4428      	add	r0, r5
 800a358:	d00e      	beq.n	800a378 <search_EIT_table+0x58>
 800a35a:	f7ff ffd7 	bl	800a30c <selfrel_offset31>
 800a35e:	45b9      	cmp	r9, r7
 800a360:	f100 33ff 	add.w	r3, r0, #4294967295
 800a364:	d904      	bls.n	800a370 <search_EIT_table+0x50>
 800a366:	42b4      	cmp	r4, r6
 800a368:	d00c      	beq.n	800a384 <search_EIT_table+0x64>
 800a36a:	f104 38ff 	add.w	r8, r4, #4294967295
 800a36e:	e7e1      	b.n	800a334 <search_EIT_table+0x14>
 800a370:	42bb      	cmp	r3, r7
 800a372:	d203      	bcs.n	800a37c <search_EIT_table+0x5c>
 800a374:	1c66      	adds	r6, r4, #1
 800a376:	e7dd      	b.n	800a334 <search_EIT_table+0x14>
 800a378:	45b9      	cmp	r9, r7
 800a37a:	d8f4      	bhi.n	800a366 <search_EIT_table+0x46>
 800a37c:	4658      	mov	r0, fp
 800a37e:	b003      	add	sp, #12
 800a380:	e8bd 8ff0 	ldmia.w	sp!, {r4, r5, r6, r7, r8, r9, sl, fp, pc}
 800a384:	f04f 0b00 	mov.w	fp, #0
 800a388:	4658      	mov	r0, fp
 800a38a:	b003      	add	sp, #12
 800a38c:	e8bd 8ff0 	ldmia.w	sp!, {r4, r5, r6, r7, r8, r9, sl, fp, pc}

0800a390 <__gnu_unwind_get_pr_addr>:
 800a390:	2801      	cmp	r0, #1
 800a392:	d009      	beq.n	800a3a8 <__gnu_unwind_get_pr_addr+0x18>
 800a394:	2802      	cmp	r0, #2
 800a396:	d005      	beq.n	800a3a4 <__gnu_unwind_get_pr_addr+0x14>
 800a398:	4b04      	ldr	r3, [pc, #16]	; (800a3ac <__gnu_unwind_get_pr_addr+0x1c>)
 800a39a:	2800      	cmp	r0, #0
 800a39c:	bf0c      	ite	eq
 800a39e:	4618      	moveq	r0, r3
 800a3a0:	2000      	movne	r0, #0
 800a3a2:	4770      	bx	lr
 800a3a4:	4802      	ldr	r0, [pc, #8]	; (800a3b0 <__gnu_unwind_get_pr_addr+0x20>)
 800a3a6:	4770      	bx	lr
 800a3a8:	4802      	ldr	r0, [pc, #8]	; (800a3b4 <__gnu_unwind_get_pr_addr+0x24>)
 800a3aa:	4770      	bx	lr
 800a3ac:	0800aa99 	.word	0x0800aa99
 800a3b0:	0800aaa1 	.word	0x0800aaa1
 800a3b4:	0800aa9d 	.word	0x0800aa9d

0800a3b8 <get_eit_entry>:
 800a3b8:	b530      	push	{r4, r5, lr}
 800a3ba:	4b22      	ldr	r3, [pc, #136]	; (800a444 <get_eit_entry+0x8c>)
 800a3bc:	b083      	sub	sp, #12
 800a3be:	4604      	mov	r4, r0
 800a3c0:	1e8d      	subs	r5, r1, #2
 800a3c2:	b353      	cbz	r3, 800a41a <get_eit_entry+0x62>
 800a3c4:	4628      	mov	r0, r5
 800a3c6:	a901      	add	r1, sp, #4
 800a3c8:	f3af 8000 	nop.w
 800a3cc:	b300      	cbz	r0, 800a410 <get_eit_entry+0x58>
 800a3ce:	9901      	ldr	r1, [sp, #4]
 800a3d0:	462a      	mov	r2, r5
 800a3d2:	f7ff ffa5 	bl	800a320 <search_EIT_table>
 800a3d6:	4605      	mov	r5, r0
 800a3d8:	b1d0      	cbz	r0, 800a410 <get_eit_entry+0x58>
 800a3da:	f7ff ff97 	bl	800a30c <selfrel_offset31>
 800a3de:	686b      	ldr	r3, [r5, #4]
 800a3e0:	64a0      	str	r0, [r4, #72]	; 0x48
 800a3e2:	2b01      	cmp	r3, #1
 800a3e4:	d00f      	beq.n	800a406 <get_eit_entry+0x4e>
 800a3e6:	2b00      	cmp	r3, #0
 800a3e8:	db1e      	blt.n	800a428 <get_eit_entry+0x70>
 800a3ea:	1d28      	adds	r0, r5, #4
 800a3ec:	f7ff ff8e 	bl	800a30c <selfrel_offset31>
 800a3f0:	2300      	movs	r3, #0
 800a3f2:	64e0      	str	r0, [r4, #76]	; 0x4c
 800a3f4:	6523      	str	r3, [r4, #80]	; 0x50
 800a3f6:	6803      	ldr	r3, [r0, #0]
 800a3f8:	2b00      	cmp	r3, #0
 800a3fa:	db1a      	blt.n	800a432 <get_eit_entry+0x7a>
 800a3fc:	f7ff ff86 	bl	800a30c <selfrel_offset31>
 800a400:	6120      	str	r0, [r4, #16]
 800a402:	2000      	movs	r0, #0
 800a404:	e002      	b.n	800a40c <get_eit_entry+0x54>
 800a406:	2300      	movs	r3, #0
 800a408:	2005      	movs	r0, #5
 800a40a:	6123      	str	r3, [r4, #16]
 800a40c:	b003      	add	sp, #12
 800a40e:	bd30      	pop	{r4, r5, pc}
 800a410:	2300      	movs	r3, #0
 800a412:	2009      	movs	r0, #9
 800a414:	6123      	str	r3, [r4, #16]
 800a416:	b003      	add	sp, #12
 800a418:	bd30      	pop	{r4, r5, pc}
 800a41a:	490b      	ldr	r1, [pc, #44]	; (800a448 <get_eit_entry+0x90>)
 800a41c:	4b0b      	ldr	r3, [pc, #44]	; (800a44c <get_eit_entry+0x94>)
 800a41e:	4608      	mov	r0, r1
 800a420:	1a5b      	subs	r3, r3, r1
 800a422:	10d9      	asrs	r1, r3, #3
 800a424:	9101      	str	r1, [sp, #4]
 800a426:	e7d3      	b.n	800a3d0 <get_eit_entry+0x18>
 800a428:	2301      	movs	r3, #1
 800a42a:	1d28      	adds	r0, r5, #4
 800a42c:	64e0      	str	r0, [r4, #76]	; 0x4c
 800a42e:	6523      	str	r3, [r4, #80]	; 0x50
 800a430:	e7e1      	b.n	800a3f6 <get_eit_entry+0x3e>
 800a432:	f3c3 6003 	ubfx	r0, r3, #24, #4
 800a436:	f7ff ffab 	bl	800a390 <__gnu_unwind_get_pr_addr>
 800a43a:	6120      	str	r0, [r4, #16]
 800a43c:	2800      	cmp	r0, #0
 800a43e:	d1e0      	bne.n	800a402 <get_eit_entry+0x4a>
 800a440:	2009      	movs	r0, #9
 800a442:	e7e3      	b.n	800a40c <get_eit_entry+0x54>
 800a444:	00000000 	.word	0x00000000
 800a448:	0800be98 	.word	0x0800be98
 800a44c:	0800c928 	.word	0x0800c928

0800a450 <restore_non_core_regs>:
 800a450:	6803      	ldr	r3, [r0, #0]
 800a452:	b510      	push	{r4, lr}
 800a454:	07da      	lsls	r2, r3, #31
 800a456:	4604      	mov	r4, r0
 800a458:	d406      	bmi.n	800a468 <restore_non_core_regs+0x18>
 800a45a:	079b      	lsls	r3, r3, #30
 800a45c:	f100 0048 	add.w	r0, r0, #72	; 0x48
 800a460:	d509      	bpl.n	800a476 <restore_non_core_regs+0x26>
 800a462:	f000 fc6b 	bl	800ad3c <__gnu_Unwind_Restore_VFP_D>
 800a466:	6823      	ldr	r3, [r4, #0]
 800a468:	0759      	lsls	r1, r3, #29
 800a46a:	d509      	bpl.n	800a480 <restore_non_core_regs+0x30>
 800a46c:	071a      	lsls	r2, r3, #28
 800a46e:	d50e      	bpl.n	800a48e <restore_non_core_regs+0x3e>
 800a470:	06db      	lsls	r3, r3, #27
 800a472:	d513      	bpl.n	800a49c <restore_non_core_regs+0x4c>
 800a474:	bd10      	pop	{r4, pc}
 800a476:	f000 fc59 	bl	800ad2c <__gnu_Unwind_Restore_VFP>
 800a47a:	6823      	ldr	r3, [r4, #0]
 800a47c:	0759      	lsls	r1, r3, #29
 800a47e:	d4f5      	bmi.n	800a46c <restore_non_core_regs+0x1c>
 800a480:	f104 00d0 	add.w	r0, r4, #208	; 0xd0
 800a484:	f000 fc62 	bl	800ad4c <__gnu_Unwind_Restore_VFP_D_16_to_31>
 800a488:	6823      	ldr	r3, [r4, #0]
 800a48a:	071a      	lsls	r2, r3, #28
 800a48c:	d4f0      	bmi.n	800a470 <restore_non_core_regs+0x20>
 800a48e:	f504 70a8 	add.w	r0, r4, #336	; 0x150
 800a492:	f000 fc63 	bl	800ad5c <__gnu_Unwind_Restore_WMMXD>
 800a496:	6823      	ldr	r3, [r4, #0]
 800a498:	06db      	lsls	r3, r3, #27
 800a49a:	d4eb      	bmi.n	800a474 <restore_non_core_regs+0x24>
 800a49c:	f504 70e8 	add.w	r0, r4, #464	; 0x1d0
 800a4a0:	e8bd 4010 	ldmia.w	sp!, {r4, lr}
 800a4a4:	f000 bc9e 	b.w	800ade4 <__gnu_Unwind_Restore_WMMXC>

0800a4a8 <_Unwind_decode_typeinfo_ptr.isra.0>:
 800a4a8:	6803      	ldr	r3, [r0, #0]
 800a4aa:	b103      	cbz	r3, 800a4ae <_Unwind_decode_typeinfo_ptr.isra.0+0x6>
 800a4ac:	4403      	add	r3, r0
 800a4ae:	4618      	mov	r0, r3
 800a4b0:	4770      	bx	lr
 800a4b2:	bf00      	nop

0800a4b4 <__gnu_unwind_24bit.isra.1>:
 800a4b4:	2009      	movs	r0, #9
 800a4b6:	4770      	bx	lr

0800a4b8 <_Unwind_DebugHook>:
 800a4b8:	4770      	bx	lr
 800a4ba:	bf00      	nop

0800a4bc <unwind_phase2>:
 800a4bc:	b570      	push	{r4, r5, r6, lr}
 800a4be:	4604      	mov	r4, r0
 800a4c0:	460d      	mov	r5, r1
 800a4c2:	e008      	b.n	800a4d6 <unwind_phase2+0x1a>
 800a4c4:	6c2a      	ldr	r2, [r5, #64]	; 0x40
 800a4c6:	6923      	ldr	r3, [r4, #16]
 800a4c8:	6162      	str	r2, [r4, #20]
 800a4ca:	2001      	movs	r0, #1
 800a4cc:	4621      	mov	r1, r4
 800a4ce:	462a      	mov	r2, r5
 800a4d0:	4798      	blx	r3
 800a4d2:	2808      	cmp	r0, #8
 800a4d4:	d108      	bne.n	800a4e8 <unwind_phase2+0x2c>
 800a4d6:	4620      	mov	r0, r4
 800a4d8:	6c29      	ldr	r1, [r5, #64]	; 0x40
 800a4da:	f7ff ff6d 	bl	800a3b8 <get_eit_entry>
 800a4de:	4606      	mov	r6, r0
 800a4e0:	2800      	cmp	r0, #0
 800a4e2:	d0ef      	beq.n	800a4c4 <unwind_phase2+0x8>
 800a4e4:	f7ff f9fa 	bl	80098dc <abort>
 800a4e8:	2807      	cmp	r0, #7
 800a4ea:	d1fb      	bne.n	800a4e4 <unwind_phase2+0x28>
 800a4ec:	4630      	mov	r0, r6
 800a4ee:	6c29      	ldr	r1, [r5, #64]	; 0x40
 800a4f0:	f7ff ffe2 	bl	800a4b8 <_Unwind_DebugHook>
 800a4f4:	1d28      	adds	r0, r5, #4
 800a4f6:	f000 fc0d 	bl	800ad14 <__restore_core_regs>
 800a4fa:	bf00      	nop

0800a4fc <unwind_phase2_forced>:
 800a4fc:	e92d 47f0 	stmdb	sp!, {r4, r5, r6, r7, r8, r9, sl, lr}
 800a500:	4605      	mov	r5, r0
 800a502:	2700      	movs	r7, #0
 800a504:	f5ad 7d72 	sub.w	sp, sp, #968	; 0x3c8
 800a508:	ae03      	add	r6, sp, #12
 800a50a:	1d0c      	adds	r4, r1, #4
 800a50c:	4692      	mov	sl, r2
 800a50e:	cc0f      	ldmia	r4!, {r0, r1, r2, r3}
 800a510:	c60f      	stmia	r6!, {r0, r1, r2, r3}
 800a512:	cc0f      	ldmia	r4!, {r0, r1, r2, r3}
 800a514:	c60f      	stmia	r6!, {r0, r1, r2, r3}
 800a516:	cc0f      	ldmia	r4!, {r0, r1, r2, r3}
 800a518:	c60f      	stmia	r6!, {r0, r1, r2, r3}
 800a51a:	e894 000f 	ldmia.w	r4, {r0, r1, r2, r3}
 800a51e:	ac02      	add	r4, sp, #8
 800a520:	f8d5 800c 	ldr.w	r8, [r5, #12]
 800a524:	f8d5 9018 	ldr.w	r9, [r5, #24]
 800a528:	e886 000f 	stmia.w	r6, {r0, r1, r2, r3}
 800a52c:	4628      	mov	r0, r5
 800a52e:	6c21      	ldr	r1, [r4, #64]	; 0x40
 800a530:	6027      	str	r7, [r4, #0]
 800a532:	f7ff ff41 	bl	800a3b8 <get_eit_entry>
 800a536:	f1ba 0f00 	cmp.w	sl, #0
 800a53a:	4607      	mov	r7, r0
 800a53c:	bf0c      	ite	eq
 800a53e:	2609      	moveq	r6, #9
 800a540:	260a      	movne	r6, #10
 800a542:	b17f      	cbz	r7, 800a564 <unwind_phase2_forced+0x68>
 800a544:	6ba3      	ldr	r3, [r4, #56]	; 0x38
 800a546:	f046 0110 	orr.w	r1, r6, #16
 800a54a:	e88d 0210 	stmia.w	sp, {r4, r9}
 800a54e:	2001      	movs	r0, #1
 800a550:	6463      	str	r3, [r4, #68]	; 0x44
 800a552:	462a      	mov	r2, r5
 800a554:	462b      	mov	r3, r5
 800a556:	47c0      	blx	r8
 800a558:	bb78      	cbnz	r0, 800a5ba <unwind_phase2_forced+0xbe>
 800a55a:	4638      	mov	r0, r7
 800a55c:	f50d 7d72 	add.w	sp, sp, #968	; 0x3c8
 800a560:	e8bd 87f0 	ldmia.w	sp!, {r4, r5, r6, r7, r8, r9, sl, pc}
 800a564:	6c23      	ldr	r3, [r4, #64]	; 0x40
 800a566:	4621      	mov	r1, r4
 800a568:	616b      	str	r3, [r5, #20]
 800a56a:	f44f 72f0 	mov.w	r2, #480	; 0x1e0
 800a56e:	a87a      	add	r0, sp, #488	; 0x1e8
 800a570:	f7ff f82a 	bl	80095c8 <memcpy>
 800a574:	692b      	ldr	r3, [r5, #16]
 800a576:	4629      	mov	r1, r5
 800a578:	aa7a      	add	r2, sp, #488	; 0x1e8
 800a57a:	4630      	mov	r0, r6
 800a57c:	4798      	blx	r3
 800a57e:	9b88      	ldr	r3, [sp, #544]	; 0x220
 800a580:	4682      	mov	sl, r0
 800a582:	e88d 0210 	stmia.w	sp, {r4, r9}
 800a586:	4631      	mov	r1, r6
 800a588:	6463      	str	r3, [r4, #68]	; 0x44
 800a58a:	2001      	movs	r0, #1
 800a58c:	462a      	mov	r2, r5
 800a58e:	462b      	mov	r3, r5
 800a590:	47c0      	blx	r8
 800a592:	b990      	cbnz	r0, 800a5ba <unwind_phase2_forced+0xbe>
 800a594:	4620      	mov	r0, r4
 800a596:	a97a      	add	r1, sp, #488	; 0x1e8
 800a598:	f44f 72f0 	mov.w	r2, #480	; 0x1e0
 800a59c:	f7ff f814 	bl	80095c8 <memcpy>
 800a5a0:	f1ba 0f08 	cmp.w	sl, #8
 800a5a4:	d106      	bne.n	800a5b4 <unwind_phase2_forced+0xb8>
 800a5a6:	4628      	mov	r0, r5
 800a5a8:	6c21      	ldr	r1, [r4, #64]	; 0x40
 800a5aa:	f7ff ff05 	bl	800a3b8 <get_eit_entry>
 800a5ae:	2609      	movs	r6, #9
 800a5b0:	4607      	mov	r7, r0
 800a5b2:	e7c6      	b.n	800a542 <unwind_phase2_forced+0x46>
 800a5b4:	f1ba 0f07 	cmp.w	sl, #7
 800a5b8:	d005      	beq.n	800a5c6 <unwind_phase2_forced+0xca>
 800a5ba:	2709      	movs	r7, #9
 800a5bc:	4638      	mov	r0, r7
 800a5be:	f50d 7d72 	add.w	sp, sp, #968	; 0x3c8
 800a5c2:	e8bd 87f0 	ldmia.w	sp!, {r4, r5, r6, r7, r8, r9, sl, pc}
 800a5c6:	4638      	mov	r0, r7
 800a5c8:	6c21      	ldr	r1, [r4, #64]	; 0x40
 800a5ca:	f7ff ff75 	bl	800a4b8 <_Unwind_DebugHook>
 800a5ce:	a803      	add	r0, sp, #12
 800a5d0:	f000 fba0 	bl	800ad14 <__restore_core_regs>

0800a5d4 <_Unwind_GetCFA>:
 800a5d4:	6c40      	ldr	r0, [r0, #68]	; 0x44
 800a5d6:	4770      	bx	lr

0800a5d8 <__gnu_Unwind_RaiseException>:
 800a5d8:	b5f0      	push	{r4, r5, r6, r7, lr}
 800a5da:	f04f 3eff 	mov.w	lr, #4294967295
 800a5de:	6bcb      	ldr	r3, [r1, #60]	; 0x3c
 800a5e0:	b0f9      	sub	sp, #484	; 0x1e4
 800a5e2:	640b      	str	r3, [r1, #64]	; 0x40
 800a5e4:	1d0e      	adds	r6, r1, #4
 800a5e6:	ad01      	add	r5, sp, #4
 800a5e8:	460f      	mov	r7, r1
 800a5ea:	4604      	mov	r4, r0
 800a5ec:	ce0f      	ldmia	r6!, {r0, r1, r2, r3}
 800a5ee:	c50f      	stmia	r5!, {r0, r1, r2, r3}
 800a5f0:	ce0f      	ldmia	r6!, {r0, r1, r2, r3}
 800a5f2:	c50f      	stmia	r5!, {r0, r1, r2, r3}
 800a5f4:	ce0f      	ldmia	r6!, {r0, r1, r2, r3}
 800a5f6:	c50f      	stmia	r5!, {r0, r1, r2, r3}
 800a5f8:	e896 000f 	ldmia.w	r6, {r0, r1, r2, r3}
 800a5fc:	e885 000f 	stmia.w	r5, {r0, r1, r2, r3}
 800a600:	f8cd e000 	str.w	lr, [sp]
 800a604:	e006      	b.n	800a614 <__gnu_Unwind_RaiseException+0x3c>
 800a606:	6923      	ldr	r3, [r4, #16]
 800a608:	4621      	mov	r1, r4
 800a60a:	466a      	mov	r2, sp
 800a60c:	4798      	blx	r3
 800a60e:	2808      	cmp	r0, #8
 800a610:	4605      	mov	r5, r0
 800a612:	d108      	bne.n	800a626 <__gnu_Unwind_RaiseException+0x4e>
 800a614:	4620      	mov	r0, r4
 800a616:	9910      	ldr	r1, [sp, #64]	; 0x40
 800a618:	f7ff fece 	bl	800a3b8 <get_eit_entry>
 800a61c:	2800      	cmp	r0, #0
 800a61e:	d0f2      	beq.n	800a606 <__gnu_Unwind_RaiseException+0x2e>
 800a620:	2009      	movs	r0, #9
 800a622:	b079      	add	sp, #484	; 0x1e4
 800a624:	bdf0      	pop	{r4, r5, r6, r7, pc}
 800a626:	4668      	mov	r0, sp
 800a628:	f7ff ff12 	bl	800a450 <restore_non_core_regs>
 800a62c:	2d06      	cmp	r5, #6
 800a62e:	d1f7      	bne.n	800a620 <__gnu_Unwind_RaiseException+0x48>
 800a630:	4620      	mov	r0, r4
 800a632:	4639      	mov	r1, r7
 800a634:	f7ff ff42 	bl	800a4bc <unwind_phase2>

0800a638 <__gnu_Unwind_ForcedUnwind>:
 800a638:	b430      	push	{r4, r5}
 800a63a:	6bdd      	ldr	r5, [r3, #60]	; 0x3c
 800a63c:	60c1      	str	r1, [r0, #12]
 800a63e:	6182      	str	r2, [r0, #24]
 800a640:	4619      	mov	r1, r3
 800a642:	641d      	str	r5, [r3, #64]	; 0x40
 800a644:	2200      	movs	r2, #0
 800a646:	bc30      	pop	{r4, r5}
 800a648:	e758      	b.n	800a4fc <unwind_phase2_forced>
 800a64a:	bf00      	nop

0800a64c <__gnu_Unwind_Resume>:
 800a64c:	b570      	push	{r4, r5, r6, lr}
 800a64e:	6943      	ldr	r3, [r0, #20]
 800a650:	68c6      	ldr	r6, [r0, #12]
 800a652:	4604      	mov	r4, r0
 800a654:	460d      	mov	r5, r1
 800a656:	640b      	str	r3, [r1, #64]	; 0x40
 800a658:	b126      	cbz	r6, 800a664 <__gnu_Unwind_Resume+0x18>
 800a65a:	2201      	movs	r2, #1
 800a65c:	f7ff ff4e 	bl	800a4fc <unwind_phase2_forced>
 800a660:	f7ff f93c 	bl	80098dc <abort>
 800a664:	6903      	ldr	r3, [r0, #16]
 800a666:	4621      	mov	r1, r4
 800a668:	2002      	movs	r0, #2
 800a66a:	462a      	mov	r2, r5
 800a66c:	4798      	blx	r3
 800a66e:	2807      	cmp	r0, #7
 800a670:	d007      	beq.n	800a682 <__gnu_Unwind_Resume+0x36>
 800a672:	2808      	cmp	r0, #8
 800a674:	d103      	bne.n	800a67e <__gnu_Unwind_Resume+0x32>
 800a676:	4620      	mov	r0, r4
 800a678:	4629      	mov	r1, r5
 800a67a:	f7ff ff1f 	bl	800a4bc <unwind_phase2>
 800a67e:	f7ff f92d 	bl	80098dc <abort>
 800a682:	4630      	mov	r0, r6
 800a684:	6c29      	ldr	r1, [r5, #64]	; 0x40
 800a686:	f7ff ff17 	bl	800a4b8 <_Unwind_DebugHook>
 800a68a:	1d28      	adds	r0, r5, #4
 800a68c:	f000 fb42 	bl	800ad14 <__restore_core_regs>

0800a690 <__gnu_Unwind_Resume_or_Rethrow>:
 800a690:	68c2      	ldr	r2, [r0, #12]
 800a692:	b132      	cbz	r2, 800a6a2 <__gnu_Unwind_Resume_or_Rethrow+0x12>
 800a694:	b410      	push	{r4}
 800a696:	6bcc      	ldr	r4, [r1, #60]	; 0x3c
 800a698:	2200      	movs	r2, #0
 800a69a:	640c      	str	r4, [r1, #64]	; 0x40
 800a69c:	f85d 4b04 	ldr.w	r4, [sp], #4
 800a6a0:	e72c      	b.n	800a4fc <unwind_phase2_forced>
 800a6a2:	e799      	b.n	800a5d8 <__gnu_Unwind_RaiseException>

0800a6a4 <_Unwind_Complete>:
 800a6a4:	4770      	bx	lr
 800a6a6:	bf00      	nop

0800a6a8 <_Unwind_DeleteException>:
 800a6a8:	6883      	ldr	r3, [r0, #8]
 800a6aa:	b113      	cbz	r3, 800a6b2 <_Unwind_DeleteException+0xa>
 800a6ac:	4601      	mov	r1, r0
 800a6ae:	2001      	movs	r0, #1
 800a6b0:	4718      	bx	r3
 800a6b2:	4770      	bx	lr

0800a6b4 <_Unwind_VRS_Get>:
 800a6b4:	b500      	push	{lr}
 800a6b6:	2904      	cmp	r1, #4
 800a6b8:	d808      	bhi.n	800a6cc <_Unwind_VRS_Get+0x18>
 800a6ba:	e8df f001 	tbb	[pc, r1]
 800a6be:	0306      	.short	0x0306
 800a6c0:	0307      	.short	0x0307
 800a6c2:	03          	.byte	0x03
 800a6c3:	00          	.byte	0x00
 800a6c4:	2001      	movs	r0, #1
 800a6c6:	f85d fb04 	ldr.w	pc, [sp], #4
 800a6ca:	b113      	cbz	r3, 800a6d2 <_Unwind_VRS_Get+0x1e>
 800a6cc:	2002      	movs	r0, #2
 800a6ce:	f85d fb04 	ldr.w	pc, [sp], #4
 800a6d2:	2a0f      	cmp	r2, #15
 800a6d4:	d8fa      	bhi.n	800a6cc <_Unwind_VRS_Get+0x18>
 800a6d6:	eb00 0282 	add.w	r2, r0, r2, lsl #2
 800a6da:	6852      	ldr	r2, [r2, #4]
 800a6dc:	4618      	mov	r0, r3
 800a6de:	9b01      	ldr	r3, [sp, #4]
 800a6e0:	601a      	str	r2, [r3, #0]
 800a6e2:	f85d fb04 	ldr.w	pc, [sp], #4
 800a6e6:	bf00      	nop

0800a6e8 <_Unwind_GetGR>:
 800a6e8:	460a      	mov	r2, r1
 800a6ea:	2100      	movs	r1, #0
 800a6ec:	b510      	push	{r4, lr}
 800a6ee:	b084      	sub	sp, #16
 800a6f0:	ac03      	add	r4, sp, #12
 800a6f2:	460b      	mov	r3, r1
 800a6f4:	9400      	str	r4, [sp, #0]
 800a6f6:	f7ff ffdd 	bl	800a6b4 <_Unwind_VRS_Get>
 800a6fa:	9803      	ldr	r0, [sp, #12]
 800a6fc:	b004      	add	sp, #16
 800a6fe:	bd10      	pop	{r4, pc}

0800a700 <_Unwind_VRS_Set>:
 800a700:	b500      	push	{lr}
 800a702:	2904      	cmp	r1, #4
 800a704:	d808      	bhi.n	800a718 <_Unwind_VRS_Set+0x18>
 800a706:	e8df f001 	tbb	[pc, r1]
 800a70a:	0306      	.short	0x0306
 800a70c:	0307      	.short	0x0307
 800a70e:	03          	.byte	0x03
 800a70f:	00          	.byte	0x00
 800a710:	2001      	movs	r0, #1
 800a712:	f85d fb04 	ldr.w	pc, [sp], #4
 800a716:	b113      	cbz	r3, 800a71e <_Unwind_VRS_Set+0x1e>
 800a718:	2002      	movs	r0, #2
 800a71a:	f85d fb04 	ldr.w	pc, [sp], #4
 800a71e:	2a0f      	cmp	r2, #15
 800a720:	d8fa      	bhi.n	800a718 <_Unwind_VRS_Set+0x18>
 800a722:	9901      	ldr	r1, [sp, #4]
 800a724:	eb00 0282 	add.w	r2, r0, r2, lsl #2
 800a728:	6809      	ldr	r1, [r1, #0]
 800a72a:	4618      	mov	r0, r3
 800a72c:	6051      	str	r1, [r2, #4]
 800a72e:	f85d fb04 	ldr.w	pc, [sp], #4
 800a732:	bf00      	nop

0800a734 <_Unwind_SetGR>:
 800a734:	b510      	push	{r4, lr}
 800a736:	460c      	mov	r4, r1
 800a738:	2100      	movs	r1, #0
 800a73a:	b084      	sub	sp, #16
 800a73c:	ab04      	add	r3, sp, #16
 800a73e:	f843 2d04 	str.w	r2, [r3, #-4]!
 800a742:	9300      	str	r3, [sp, #0]
 800a744:	4622      	mov	r2, r4
 800a746:	460b      	mov	r3, r1
 800a748:	f7ff ffda 	bl	800a700 <_Unwind_VRS_Set>
 800a74c:	b004      	add	sp, #16
 800a74e:	bd10      	pop	{r4, pc}

0800a750 <__gnu_Unwind_Backtrace>:
 800a750:	b5f0      	push	{r4, r5, r6, r7, lr}
 800a752:	f04f 3eff 	mov.w	lr, #4294967295
 800a756:	6bd3      	ldr	r3, [r2, #60]	; 0x3c
 800a758:	f5ad 7d0f 	sub.w	sp, sp, #572	; 0x23c
 800a75c:	6413      	str	r3, [r2, #64]	; 0x40
 800a75e:	1d15      	adds	r5, r2, #4
 800a760:	ac17      	add	r4, sp, #92	; 0x5c
 800a762:	4607      	mov	r7, r0
 800a764:	460e      	mov	r6, r1
 800a766:	cd0f      	ldmia	r5!, {r0, r1, r2, r3}
 800a768:	c40f      	stmia	r4!, {r0, r1, r2, r3}
 800a76a:	cd0f      	ldmia	r5!, {r0, r1, r2, r3}
 800a76c:	c40f      	stmia	r4!, {r0, r1, r2, r3}
 800a76e:	cd0f      	ldmia	r5!, {r0, r1, r2, r3}
 800a770:	c40f      	stmia	r4!, {r0, r1, r2, r3}
 800a772:	e895 000f 	ldmia.w	r5, {r0, r1, r2, r3}
 800a776:	e884 000f 	stmia.w	r4, {r0, r1, r2, r3}
 800a77a:	f8cd e058 	str.w	lr, [sp, #88]	; 0x58
 800a77e:	e012      	b.n	800a7a6 <__gnu_Unwind_Backtrace+0x56>
 800a780:	a816      	add	r0, sp, #88	; 0x58
 800a782:	210c      	movs	r1, #12
 800a784:	466a      	mov	r2, sp
 800a786:	f7ff ffd5 	bl	800a734 <_Unwind_SetGR>
 800a78a:	a816      	add	r0, sp, #88	; 0x58
 800a78c:	4631      	mov	r1, r6
 800a78e:	47b8      	blx	r7
 800a790:	b978      	cbnz	r0, 800a7b2 <__gnu_Unwind_Backtrace+0x62>
 800a792:	9b04      	ldr	r3, [sp, #16]
 800a794:	2008      	movs	r0, #8
 800a796:	4669      	mov	r1, sp
 800a798:	aa16      	add	r2, sp, #88	; 0x58
 800a79a:	4798      	blx	r3
 800a79c:	2805      	cmp	r0, #5
 800a79e:	4604      	mov	r4, r0
 800a7a0:	d008      	beq.n	800a7b4 <__gnu_Unwind_Backtrace+0x64>
 800a7a2:	2809      	cmp	r0, #9
 800a7a4:	d005      	beq.n	800a7b2 <__gnu_Unwind_Backtrace+0x62>
 800a7a6:	4668      	mov	r0, sp
 800a7a8:	9926      	ldr	r1, [sp, #152]	; 0x98
 800a7aa:	f7ff fe05 	bl	800a3b8 <get_eit_entry>
 800a7ae:	2800      	cmp	r0, #0
 800a7b0:	d0e6      	beq.n	800a780 <__gnu_Unwind_Backtrace+0x30>
 800a7b2:	2409      	movs	r4, #9
 800a7b4:	a816      	add	r0, sp, #88	; 0x58
 800a7b6:	f7ff fe4b 	bl	800a450 <restore_non_core_regs>
 800a7ba:	4620      	mov	r0, r4
 800a7bc:	f50d 7d0f 	add.w	sp, sp, #572	; 0x23c
 800a7c0:	bdf0      	pop	{r4, r5, r6, r7, pc}
 800a7c2:	bf00      	nop

0800a7c4 <__gnu_unwind_pr_common>:
 800a7c4:	e92d 4ff0 	stmdb	sp!, {r4, r5, r6, r7, r8, r9, sl, fp, lr}
 800a7c8:	6ccc      	ldr	r4, [r1, #76]	; 0x4c
 800a7ca:	4690      	mov	r8, r2
 800a7cc:	6822      	ldr	r2, [r4, #0]
 800a7ce:	b08b      	sub	sp, #44	; 0x2c
 800a7d0:	3404      	adds	r4, #4
 800a7d2:	460d      	mov	r5, r1
 800a7d4:	9207      	str	r2, [sp, #28]
 800a7d6:	9408      	str	r4, [sp, #32]
 800a7d8:	f000 0903 	and.w	r9, r0, #3
 800a7dc:	461e      	mov	r6, r3
 800a7de:	2b00      	cmp	r3, #0
 800a7e0:	d164      	bne.n	800a8ac <__gnu_unwind_pr_common+0xe8>
 800a7e2:	2303      	movs	r3, #3
 800a7e4:	0212      	lsls	r2, r2, #8
 800a7e6:	9207      	str	r2, [sp, #28]
 800a7e8:	f88d 6025 	strb.w	r6, [sp, #37]	; 0x25
 800a7ec:	f88d 3024 	strb.w	r3, [sp, #36]	; 0x24
 800a7f0:	6d2b      	ldr	r3, [r5, #80]	; 0x50
 800a7f2:	f1b9 0f02 	cmp.w	r9, #2
 800a7f6:	bf08      	it	eq
 800a7f8:	6bac      	ldreq	r4, [r5, #56]	; 0x38
 800a7fa:	f013 0301 	ands.w	r3, r3, #1
 800a7fe:	d143      	bne.n	800a888 <__gnu_unwind_pr_common+0xc4>
 800a800:	f000 0008 	and.w	r0, r0, #8
 800a804:	b2c2      	uxtb	r2, r0
 800a806:	9203      	str	r2, [sp, #12]
 800a808:	9301      	str	r3, [sp, #4]
 800a80a:	6827      	ldr	r7, [r4, #0]
 800a80c:	2f00      	cmp	r7, #0
 800a80e:	d03d      	beq.n	800a88c <__gnu_unwind_pr_common+0xc8>
 800a810:	2e02      	cmp	r6, #2
 800a812:	d047      	beq.n	800a8a4 <__gnu_unwind_pr_common+0xe0>
 800a814:	8827      	ldrh	r7, [r4, #0]
 800a816:	f8b4 a002 	ldrh.w	sl, [r4, #2]
 800a81a:	3404      	adds	r4, #4
 800a81c:	6cab      	ldr	r3, [r5, #72]	; 0x48
 800a81e:	f02a 0b01 	bic.w	fp, sl, #1
 800a822:	4640      	mov	r0, r8
 800a824:	210f      	movs	r1, #15
 800a826:	449b      	add	fp, r3
 800a828:	f7ff ff5e 	bl	800a6e8 <_Unwind_GetGR>
 800a82c:	4583      	cmp	fp, r0
 800a82e:	d837      	bhi.n	800a8a0 <__gnu_unwind_pr_common+0xdc>
 800a830:	f027 0301 	bic.w	r3, r7, #1
 800a834:	449b      	add	fp, r3
 800a836:	4558      	cmp	r0, fp
 800a838:	bf2c      	ite	cs
 800a83a:	2000      	movcs	r0, #0
 800a83c:	2001      	movcc	r0, #1
 800a83e:	f00a 0a01 	and.w	sl, sl, #1
 800a842:	f007 0701 	and.w	r7, r7, #1
 800a846:	ea47 0a4a 	orr.w	sl, r7, sl, lsl #1
 800a84a:	f1ba 0f01 	cmp.w	sl, #1
 800a84e:	d043      	beq.n	800a8d8 <__gnu_unwind_pr_common+0x114>
 800a850:	d33a      	bcc.n	800a8c8 <__gnu_unwind_pr_common+0x104>
 800a852:	f1ba 0f02 	cmp.w	sl, #2
 800a856:	d11f      	bne.n	800a898 <__gnu_unwind_pr_common+0xd4>
 800a858:	6823      	ldr	r3, [r4, #0]
 800a85a:	f023 4200 	bic.w	r2, r3, #2147483648	; 0x80000000
 800a85e:	9202      	str	r2, [sp, #8]
 800a860:	f1b9 0f00 	cmp.w	r9, #0
 800a864:	d17b      	bne.n	800a95e <__gnu_unwind_pr_common+0x19a>
 800a866:	b138      	cbz	r0, 800a878 <__gnu_unwind_pr_common+0xb4>
 800a868:	9a03      	ldr	r2, [sp, #12]
 800a86a:	2a00      	cmp	r2, #0
 800a86c:	f000 8083 	beq.w	800a976 <__gnu_unwind_pr_common+0x1b2>
 800a870:	9a02      	ldr	r2, [sp, #8]
 800a872:	2a00      	cmp	r2, #0
 800a874:	f000 80a6 	beq.w	800a9c4 <__gnu_unwind_pr_common+0x200>
 800a878:	2b00      	cmp	r3, #0
 800a87a:	db7a      	blt.n	800a972 <__gnu_unwind_pr_common+0x1ae>
 800a87c:	9b02      	ldr	r3, [sp, #8]
 800a87e:	f103 0a01 	add.w	sl, r3, #1
 800a882:	eb04 048a 	add.w	r4, r4, sl, lsl #2
 800a886:	e7c0      	b.n	800a80a <__gnu_unwind_pr_common+0x46>
 800a888:	2300      	movs	r3, #0
 800a88a:	9301      	str	r3, [sp, #4]
 800a88c:	2e02      	cmp	r6, #2
 800a88e:	dd40      	ble.n	800a912 <__gnu_unwind_pr_common+0x14e>
 800a890:	f7ff fe10 	bl	800a4b4 <__gnu_unwind_24bit.isra.1>
 800a894:	2800      	cmp	r0, #0
 800a896:	d042      	beq.n	800a91e <__gnu_unwind_pr_common+0x15a>
 800a898:	2009      	movs	r0, #9
 800a89a:	b00b      	add	sp, #44	; 0x2c
 800a89c:	e8bd 8ff0 	ldmia.w	sp!, {r4, r5, r6, r7, r8, r9, sl, fp, pc}
 800a8a0:	2000      	movs	r0, #0
 800a8a2:	e7cc      	b.n	800a83e <__gnu_unwind_pr_common+0x7a>
 800a8a4:	f8d4 a004 	ldr.w	sl, [r4, #4]
 800a8a8:	3408      	adds	r4, #8
 800a8aa:	e7b7      	b.n	800a81c <__gnu_unwind_pr_common+0x58>
 800a8ac:	2b02      	cmp	r3, #2
 800a8ae:	dc9f      	bgt.n	800a7f0 <__gnu_unwind_pr_common+0x2c>
 800a8b0:	2102      	movs	r1, #2
 800a8b2:	0c13      	lsrs	r3, r2, #16
 800a8b4:	b2df      	uxtb	r7, r3
 800a8b6:	0412      	lsls	r2, r2, #16
 800a8b8:	f88d 3025 	strb.w	r3, [sp, #37]	; 0x25
 800a8bc:	eb04 0487 	add.w	r4, r4, r7, lsl #2
 800a8c0:	9207      	str	r2, [sp, #28]
 800a8c2:	f88d 1024 	strb.w	r1, [sp, #36]	; 0x24
 800a8c6:	e793      	b.n	800a7f0 <__gnu_unwind_pr_common+0x2c>
 800a8c8:	f1b9 0f00 	cmp.w	r9, #0
 800a8cc:	d002      	beq.n	800a8d4 <__gnu_unwind_pr_common+0x110>
 800a8ce:	2800      	cmp	r0, #0
 800a8d0:	f040 80ad 	bne.w	800aa2e <__gnu_unwind_pr_common+0x26a>
 800a8d4:	3404      	adds	r4, #4
 800a8d6:	e798      	b.n	800a80a <__gnu_unwind_pr_common+0x46>
 800a8d8:	f1b9 0f00 	cmp.w	r9, #0
 800a8dc:	d126      	bne.n	800a92c <__gnu_unwind_pr_common+0x168>
 800a8de:	b1b0      	cbz	r0, 800a90e <__gnu_unwind_pr_common+0x14a>
 800a8e0:	e894 000c 	ldmia.w	r4, {r2, r3}
 800a8e4:	0fd7      	lsrs	r7, r2, #31
 800a8e6:	1c9a      	adds	r2, r3, #2
 800a8e8:	d0d6      	beq.n	800a898 <__gnu_unwind_pr_common+0xd4>
 800a8ea:	f105 0258 	add.w	r2, r5, #88	; 0x58
 800a8ee:	3301      	adds	r3, #1
 800a8f0:	9206      	str	r2, [sp, #24]
 800a8f2:	f000 8092 	beq.w	800aa1a <__gnu_unwind_pr_common+0x256>
 800a8f6:	1d20      	adds	r0, r4, #4
 800a8f8:	f7ff fdd6 	bl	800a4a8 <_Unwind_decode_typeinfo_ptr.isra.0>
 800a8fc:	463a      	mov	r2, r7
 800a8fe:	4601      	mov	r1, r0
 800a900:	ab06      	add	r3, sp, #24
 800a902:	4628      	mov	r0, r5
 800a904:	f3af 8000 	nop.w
 800a908:	2800      	cmp	r0, #0
 800a90a:	f040 80b5 	bne.w	800aa78 <__gnu_unwind_pr_common+0x2b4>
 800a90e:	3408      	adds	r4, #8
 800a910:	e77b      	b.n	800a80a <__gnu_unwind_pr_common+0x46>
 800a912:	4640      	mov	r0, r8
 800a914:	a907      	add	r1, sp, #28
 800a916:	f000 faff 	bl	800af18 <__gnu_unwind_execute>
 800a91a:	2800      	cmp	r0, #0
 800a91c:	d1bc      	bne.n	800a898 <__gnu_unwind_pr_common+0xd4>
 800a91e:	9b01      	ldr	r3, [sp, #4]
 800a920:	2b00      	cmp	r3, #0
 800a922:	d159      	bne.n	800a9d8 <__gnu_unwind_pr_common+0x214>
 800a924:	2008      	movs	r0, #8
 800a926:	b00b      	add	sp, #44	; 0x2c
 800a928:	e8bd 8ff0 	ldmia.w	sp!, {r4, r5, r6, r7, r8, r9, sl, fp, pc}
 800a92c:	4640      	mov	r0, r8
 800a92e:	210d      	movs	r1, #13
 800a930:	6a2f      	ldr	r7, [r5, #32]
 800a932:	f7ff fed9 	bl	800a6e8 <_Unwind_GetGR>
 800a936:	4287      	cmp	r7, r0
 800a938:	d1e9      	bne.n	800a90e <__gnu_unwind_pr_common+0x14a>
 800a93a:	6aab      	ldr	r3, [r5, #40]	; 0x28
 800a93c:	429c      	cmp	r4, r3
 800a93e:	d1e6      	bne.n	800a90e <__gnu_unwind_pr_common+0x14a>
 800a940:	4620      	mov	r0, r4
 800a942:	f7ff fce3 	bl	800a30c <selfrel_offset31>
 800a946:	210f      	movs	r1, #15
 800a948:	4602      	mov	r2, r0
 800a94a:	4640      	mov	r0, r8
 800a94c:	f7ff fef2 	bl	800a734 <_Unwind_SetGR>
 800a950:	4640      	mov	r0, r8
 800a952:	462a      	mov	r2, r5
 800a954:	2100      	movs	r1, #0
 800a956:	f7ff feed 	bl	800a734 <_Unwind_SetGR>
 800a95a:	2007      	movs	r0, #7
 800a95c:	e79d      	b.n	800a89a <__gnu_unwind_pr_common+0xd6>
 800a95e:	4640      	mov	r0, r8
 800a960:	210d      	movs	r1, #13
 800a962:	6a2f      	ldr	r7, [r5, #32]
 800a964:	f7ff fec0 	bl	800a6e8 <_Unwind_GetGR>
 800a968:	4287      	cmp	r7, r0
 800a96a:	d045      	beq.n	800a9f8 <__gnu_unwind_pr_common+0x234>
 800a96c:	6823      	ldr	r3, [r4, #0]
 800a96e:	2b00      	cmp	r3, #0
 800a970:	da84      	bge.n	800a87c <__gnu_unwind_pr_common+0xb8>
 800a972:	3404      	adds	r4, #4
 800a974:	e782      	b.n	800a87c <__gnu_unwind_pr_common+0xb8>
 800a976:	9b02      	ldr	r3, [sp, #8]
 800a978:	b323      	cbz	r3, 800a9c4 <__gnu_unwind_pr_common+0x200>
 800a97a:	f105 0358 	add.w	r3, r5, #88	; 0x58
 800a97e:	9605      	str	r6, [sp, #20]
 800a980:	9f03      	ldr	r7, [sp, #12]
 800a982:	f104 0a04 	add.w	sl, r4, #4
 800a986:	f8dd b008 	ldr.w	fp, [sp, #8]
 800a98a:	f8cd 9010 	str.w	r9, [sp, #16]
 800a98e:	461e      	mov	r6, r3
 800a990:	e002      	b.n	800a998 <__gnu_unwind_pr_common+0x1d4>
 800a992:	45d9      	cmp	r9, fp
 800a994:	464f      	mov	r7, r9
 800a996:	d015      	beq.n	800a9c4 <__gnu_unwind_pr_common+0x200>
 800a998:	4650      	mov	r0, sl
 800a99a:	9606      	str	r6, [sp, #24]
 800a99c:	f7ff fd84 	bl	800a4a8 <_Unwind_decode_typeinfo_ptr.isra.0>
 800a9a0:	2200      	movs	r2, #0
 800a9a2:	4601      	mov	r1, r0
 800a9a4:	ab06      	add	r3, sp, #24
 800a9a6:	4628      	mov	r0, r5
 800a9a8:	f3af 8000 	nop.w
 800a9ac:	f107 0901 	add.w	r9, r7, #1
 800a9b0:	f10a 0a04 	add.w	sl, sl, #4
 800a9b4:	2800      	cmp	r0, #0
 800a9b6:	d0ec      	beq.n	800a992 <__gnu_unwind_pr_common+0x1ce>
 800a9b8:	9b02      	ldr	r3, [sp, #8]
 800a9ba:	f8dd 9010 	ldr.w	r9, [sp, #16]
 800a9be:	429f      	cmp	r7, r3
 800a9c0:	9e05      	ldr	r6, [sp, #20]
 800a9c2:	d1d3      	bne.n	800a96c <__gnu_unwind_pr_common+0x1a8>
 800a9c4:	4640      	mov	r0, r8
 800a9c6:	210d      	movs	r1, #13
 800a9c8:	f7ff fe8e 	bl	800a6e8 <_Unwind_GetGR>
 800a9cc:	9b06      	ldr	r3, [sp, #24]
 800a9ce:	6228      	str	r0, [r5, #32]
 800a9d0:	62ac      	str	r4, [r5, #40]	; 0x28
 800a9d2:	626b      	str	r3, [r5, #36]	; 0x24
 800a9d4:	2006      	movs	r0, #6
 800a9d6:	e760      	b.n	800a89a <__gnu_unwind_pr_common+0xd6>
 800a9d8:	210f      	movs	r1, #15
 800a9da:	4640      	mov	r0, r8
 800a9dc:	f7ff fe84 	bl	800a6e8 <_Unwind_GetGR>
 800a9e0:	210e      	movs	r1, #14
 800a9e2:	4602      	mov	r2, r0
 800a9e4:	4640      	mov	r0, r8
 800a9e6:	f7ff fea5 	bl	800a734 <_Unwind_SetGR>
 800a9ea:	4640      	mov	r0, r8
 800a9ec:	210f      	movs	r1, #15
 800a9ee:	4a29      	ldr	r2, [pc, #164]	; (800aa94 <__gnu_unwind_pr_common+0x2d0>)
 800a9f0:	f7ff fea0 	bl	800a734 <_Unwind_SetGR>
 800a9f4:	2007      	movs	r0, #7
 800a9f6:	e750      	b.n	800a89a <__gnu_unwind_pr_common+0xd6>
 800a9f8:	6aab      	ldr	r3, [r5, #40]	; 0x28
 800a9fa:	429c      	cmp	r4, r3
 800a9fc:	d1b6      	bne.n	800a96c <__gnu_unwind_pr_common+0x1a8>
 800a9fe:	2204      	movs	r2, #4
 800aa00:	2700      	movs	r7, #0
 800aa02:	9902      	ldr	r1, [sp, #8]
 800aa04:	18a3      	adds	r3, r4, r2
 800aa06:	62a9      	str	r1, [r5, #40]	; 0x28
 800aa08:	62ef      	str	r7, [r5, #44]	; 0x2c
 800aa0a:	632a      	str	r2, [r5, #48]	; 0x30
 800aa0c:	636b      	str	r3, [r5, #52]	; 0x34
 800aa0e:	6823      	ldr	r3, [r4, #0]
 800aa10:	42bb      	cmp	r3, r7
 800aa12:	db1f      	blt.n	800aa54 <__gnu_unwind_pr_common+0x290>
 800aa14:	2301      	movs	r3, #1
 800aa16:	9301      	str	r3, [sp, #4]
 800aa18:	e730      	b.n	800a87c <__gnu_unwind_pr_common+0xb8>
 800aa1a:	4640      	mov	r0, r8
 800aa1c:	210d      	movs	r1, #13
 800aa1e:	f7ff fe63 	bl	800a6e8 <_Unwind_GetGR>
 800aa22:	6228      	str	r0, [r5, #32]
 800aa24:	9b06      	ldr	r3, [sp, #24]
 800aa26:	626b      	str	r3, [r5, #36]	; 0x24
 800aa28:	62ac      	str	r4, [r5, #40]	; 0x28
 800aa2a:	2006      	movs	r0, #6
 800aa2c:	e735      	b.n	800a89a <__gnu_unwind_pr_common+0xd6>
 800aa2e:	4620      	mov	r0, r4
 800aa30:	f7ff fc6c 	bl	800a30c <selfrel_offset31>
 800aa34:	3404      	adds	r4, #4
 800aa36:	4606      	mov	r6, r0
 800aa38:	63ac      	str	r4, [r5, #56]	; 0x38
 800aa3a:	4628      	mov	r0, r5
 800aa3c:	f3af 8000 	nop.w
 800aa40:	2800      	cmp	r0, #0
 800aa42:	f43f af29 	beq.w	800a898 <__gnu_unwind_pr_common+0xd4>
 800aa46:	4640      	mov	r0, r8
 800aa48:	4632      	mov	r2, r6
 800aa4a:	210f      	movs	r1, #15
 800aa4c:	f7ff fe72 	bl	800a734 <_Unwind_SetGR>
 800aa50:	2007      	movs	r0, #7
 800aa52:	e722      	b.n	800a89a <__gnu_unwind_pr_common+0xd6>
 800aa54:	4608      	mov	r0, r1
 800aa56:	3001      	adds	r0, #1
 800aa58:	eb04 0080 	add.w	r0, r4, r0, lsl #2
 800aa5c:	f7ff fc56 	bl	800a30c <selfrel_offset31>
 800aa60:	210f      	movs	r1, #15
 800aa62:	4602      	mov	r2, r0
 800aa64:	4640      	mov	r0, r8
 800aa66:	f7ff fe65 	bl	800a734 <_Unwind_SetGR>
 800aa6a:	4640      	mov	r0, r8
 800aa6c:	4639      	mov	r1, r7
 800aa6e:	462a      	mov	r2, r5
 800aa70:	f7ff fe60 	bl	800a734 <_Unwind_SetGR>
 800aa74:	2007      	movs	r0, #7
 800aa76:	e710      	b.n	800a89a <__gnu_unwind_pr_common+0xd6>
 800aa78:	4607      	mov	r7, r0
 800aa7a:	210d      	movs	r1, #13
 800aa7c:	4640      	mov	r0, r8
 800aa7e:	f7ff fe33 	bl	800a6e8 <_Unwind_GetGR>
 800aa82:	2f02      	cmp	r7, #2
 800aa84:	6228      	str	r0, [r5, #32]
 800aa86:	d1cd      	bne.n	800aa24 <__gnu_unwind_pr_common+0x260>
 800aa88:	462b      	mov	r3, r5
 800aa8a:	9a06      	ldr	r2, [sp, #24]
 800aa8c:	f843 2f2c 	str.w	r2, [r3, #44]!
 800aa90:	626b      	str	r3, [r5, #36]	; 0x24
 800aa92:	e7c9      	b.n	800aa28 <__gnu_unwind_pr_common+0x264>
 800aa94:	00000000 	.word	0x00000000

0800aa98 <__aeabi_unwind_cpp_pr0>:
 800aa98:	2300      	movs	r3, #0
 800aa9a:	e693      	b.n	800a7c4 <__gnu_unwind_pr_common>

0800aa9c <__aeabi_unwind_cpp_pr1>:
 800aa9c:	2301      	movs	r3, #1
 800aa9e:	e691      	b.n	800a7c4 <__gnu_unwind_pr_common>

0800aaa0 <__aeabi_unwind_cpp_pr2>:
 800aaa0:	2302      	movs	r3, #2
 800aaa2:	e68f      	b.n	800a7c4 <__gnu_unwind_pr_common>

0800aaa4 <_Unwind_VRS_Pop>:
 800aaa4:	b5f0      	push	{r4, r5, r6, r7, lr}
 800aaa6:	4606      	mov	r6, r0
 800aaa8:	b0c5      	sub	sp, #276	; 0x114
 800aaaa:	2904      	cmp	r1, #4
 800aaac:	d80b      	bhi.n	800aac6 <_Unwind_VRS_Pop+0x22>
 800aaae:	e8df f001 	tbb	[pc, r1]
 800aab2:	0354      	.short	0x0354
 800aab4:	2f0a      	.short	0x2f0a
 800aab6:	0d          	.byte	0x0d
 800aab7:	00          	.byte	0x00
 800aab8:	2b01      	cmp	r3, #1
 800aaba:	ea4f 4412 	mov.w	r4, r2, lsr #16
 800aabe:	b295      	uxth	r5, r2
 800aac0:	d063      	beq.n	800ab8a <_Unwind_VRS_Pop+0xe6>
 800aac2:	2b05      	cmp	r3, #5
 800aac4:	d078      	beq.n	800abb8 <_Unwind_VRS_Pop+0x114>
 800aac6:	2002      	movs	r0, #2
 800aac8:	b045      	add	sp, #276	; 0x114
 800aaca:	bdf0      	pop	{r4, r5, r6, r7, pc}
 800aacc:	2b00      	cmp	r3, #0
 800aace:	d1fa      	bne.n	800aac6 <_Unwind_VRS_Pop+0x22>
 800aad0:	2a10      	cmp	r2, #16
 800aad2:	d8f8      	bhi.n	800aac6 <_Unwind_VRS_Pop+0x22>
 800aad4:	6833      	ldr	r3, [r6, #0]
 800aad6:	06d9      	lsls	r1, r3, #27
 800aad8:	f100 8101 	bmi.w	800acde <_Unwind_VRS_Pop+0x23a>
 800aadc:	ad22      	add	r5, sp, #136	; 0x88
 800aade:	4628      	mov	r0, r5
 800aae0:	9201      	str	r2, [sp, #4]
 800aae2:	f000 f989 	bl	800adf8 <__gnu_Unwind_Save_WMMXC>
 800aae6:	2300      	movs	r3, #0
 800aae8:	2001      	movs	r0, #1
 800aaea:	6bb4      	ldr	r4, [r6, #56]	; 0x38
 800aaec:	9a01      	ldr	r2, [sp, #4]
 800aaee:	fa00 f103 	lsl.w	r1, r0, r3
 800aaf2:	4211      	tst	r1, r2
 800aaf4:	d003      	beq.n	800aafe <_Unwind_VRS_Pop+0x5a>
 800aaf6:	6821      	ldr	r1, [r4, #0]
 800aaf8:	3404      	adds	r4, #4
 800aafa:	f845 1023 	str.w	r1, [r5, r3, lsl #2]
 800aafe:	3301      	adds	r3, #1
 800ab00:	2b04      	cmp	r3, #4
 800ab02:	d1f4      	bne.n	800aaee <_Unwind_VRS_Pop+0x4a>
 800ab04:	4628      	mov	r0, r5
 800ab06:	63b4      	str	r4, [r6, #56]	; 0x38
 800ab08:	f000 f96c 	bl	800ade4 <__gnu_Unwind_Restore_WMMXC>
 800ab0c:	2000      	movs	r0, #0
 800ab0e:	e7db      	b.n	800aac8 <_Unwind_VRS_Pop+0x24>
 800ab10:	2b03      	cmp	r3, #3
 800ab12:	d1d8      	bne.n	800aac6 <_Unwind_VRS_Pop+0x22>
 800ab14:	0c14      	lsrs	r4, r2, #16
 800ab16:	b297      	uxth	r7, r2
 800ab18:	193b      	adds	r3, r7, r4
 800ab1a:	2b10      	cmp	r3, #16
 800ab1c:	d8d3      	bhi.n	800aac6 <_Unwind_VRS_Pop+0x22>
 800ab1e:	6833      	ldr	r3, [r6, #0]
 800ab20:	0718      	lsls	r0, r3, #28
 800ab22:	f100 80ec 	bmi.w	800acfe <_Unwind_VRS_Pop+0x25a>
 800ab26:	ad22      	add	r5, sp, #136	; 0x88
 800ab28:	4628      	mov	r0, r5
 800ab2a:	f000 f939 	bl	800ada0 <__gnu_Unwind_Save_WMMXD>
 800ab2e:	6bb0      	ldr	r0, [r6, #56]	; 0x38
 800ab30:	eb05 01c4 	add.w	r1, r5, r4, lsl #3
 800ab34:	4603      	mov	r3, r0
 800ab36:	007c      	lsls	r4, r7, #1
 800ab38:	b14f      	cbz	r7, 800ab4e <_Unwind_VRS_Pop+0xaa>
 800ab3a:	2300      	movs	r3, #0
 800ab3c:	f850 2023 	ldr.w	r2, [r0, r3, lsl #2]
 800ab40:	f841 2023 	str.w	r2, [r1, r3, lsl #2]
 800ab44:	3301      	adds	r3, #1
 800ab46:	42a3      	cmp	r3, r4
 800ab48:	d1f8      	bne.n	800ab3c <_Unwind_VRS_Pop+0x98>
 800ab4a:	eb00 0383 	add.w	r3, r0, r3, lsl #2
 800ab4e:	4628      	mov	r0, r5
 800ab50:	63b3      	str	r3, [r6, #56]	; 0x38
 800ab52:	f000 f903 	bl	800ad5c <__gnu_Unwind_Restore_WMMXD>
 800ab56:	2000      	movs	r0, #0
 800ab58:	e7b6      	b.n	800aac8 <_Unwind_VRS_Pop+0x24>
 800ab5a:	2b00      	cmp	r3, #0
 800ab5c:	d1b3      	bne.n	800aac6 <_Unwind_VRS_Pop+0x22>
 800ab5e:	2701      	movs	r7, #1
 800ab60:	6bb5      	ldr	r5, [r6, #56]	; 0x38
 800ab62:	b290      	uxth	r0, r2
 800ab64:	1d34      	adds	r4, r6, #4
 800ab66:	fa07 f103 	lsl.w	r1, r7, r3
 800ab6a:	4201      	tst	r1, r0
 800ab6c:	f103 0301 	add.w	r3, r3, #1
 800ab70:	d002      	beq.n	800ab78 <_Unwind_VRS_Pop+0xd4>
 800ab72:	6829      	ldr	r1, [r5, #0]
 800ab74:	3504      	adds	r5, #4
 800ab76:	6021      	str	r1, [r4, #0]
 800ab78:	2b10      	cmp	r3, #16
 800ab7a:	f104 0404 	add.w	r4, r4, #4
 800ab7e:	d1f2      	bne.n	800ab66 <_Unwind_VRS_Pop+0xc2>
 800ab80:	0490      	lsls	r0, r2, #18
 800ab82:	d400      	bmi.n	800ab86 <_Unwind_VRS_Pop+0xe2>
 800ab84:	63b5      	str	r5, [r6, #56]	; 0x38
 800ab86:	2000      	movs	r0, #0
 800ab88:	e79e      	b.n	800aac8 <_Unwind_VRS_Pop+0x24>
 800ab8a:	192a      	adds	r2, r5, r4
 800ab8c:	2a10      	cmp	r2, #16
 800ab8e:	d89a      	bhi.n	800aac6 <_Unwind_VRS_Pop+0x22>
 800ab90:	2c0f      	cmp	r4, #15
 800ab92:	d898      	bhi.n	800aac6 <_Unwind_VRS_Pop+0x22>
 800ab94:	6832      	ldr	r2, [r6, #0]
 800ab96:	07d0      	lsls	r0, r2, #31
 800ab98:	d508      	bpl.n	800abac <_Unwind_VRS_Pop+0x108>
 800ab9a:	4630      	mov	r0, r6
 800ab9c:	f022 0203 	bic.w	r2, r2, #3
 800aba0:	f840 2b48 	str.w	r2, [r0], #72
 800aba4:	9301      	str	r3, [sp, #4]
 800aba6:	f000 f8c5 	bl	800ad34 <__gnu_Unwind_Save_VFP>
 800abaa:	9b01      	ldr	r3, [sp, #4]
 800abac:	a822      	add	r0, sp, #136	; 0x88
 800abae:	9301      	str	r3, [sp, #4]
 800abb0:	f000 f8c0 	bl	800ad34 <__gnu_Unwind_Save_VFP>
 800abb4:	9b01      	ldr	r3, [sp, #4]
 800abb6:	e007      	b.n	800abc8 <_Unwind_VRS_Pop+0x124>
 800abb8:	192f      	adds	r7, r5, r4
 800abba:	2f20      	cmp	r7, #32
 800abbc:	d883      	bhi.n	800aac6 <_Unwind_VRS_Pop+0x22>
 800abbe:	2c0f      	cmp	r4, #15
 800abc0:	d93b      	bls.n	800ac3a <_Unwind_VRS_Pop+0x196>
 800abc2:	462f      	mov	r7, r5
 800abc4:	2d00      	cmp	r5, #0
 800abc6:	d17d      	bne.n	800acc4 <_Unwind_VRS_Pop+0x220>
 800abc8:	6bb0      	ldr	r0, [r6, #56]	; 0x38
 800abca:	46ae      	mov	lr, r5
 800abcc:	4601      	mov	r1, r0
 800abce:	2d00      	cmp	r5, #0
 800abd0:	f000 809d 	beq.w	800ad0e <_Unwind_VRS_Pop+0x26a>
 800abd4:	2700      	movs	r7, #0
 800abd6:	2200      	movs	r2, #0
 800abd8:	ad22      	add	r5, sp, #136	; 0x88
 800abda:	ea4f 0e4e 	mov.w	lr, lr, lsl #1
 800abde:	eb05 0cc4 	add.w	ip, r5, r4, lsl #3
 800abe2:	f850 5022 	ldr.w	r5, [r0, r2, lsl #2]
 800abe6:	f84c 5022 	str.w	r5, [ip, r2, lsl #2]
 800abea:	3201      	adds	r2, #1
 800abec:	4572      	cmp	r2, lr
 800abee:	d1f8      	bne.n	800abe2 <_Unwind_VRS_Pop+0x13e>
 800abf0:	eb01 0282 	add.w	r2, r1, r2, lsl #2
 800abf4:	b197      	cbz	r7, 800ac1c <_Unwind_VRS_Pop+0x178>
 800abf6:	2c10      	cmp	r4, #16
 800abf8:	4620      	mov	r0, r4
 800abfa:	bf38      	it	cc
 800abfc:	2010      	movcc	r0, #16
 800abfe:	a944      	add	r1, sp, #272	; 0x110
 800ac00:	eb01 00c0 	add.w	r0, r1, r0, lsl #3
 800ac04:	f5a0 70c4 	sub.w	r0, r0, #392	; 0x188
 800ac08:	4611      	mov	r1, r2
 800ac0a:	007a      	lsls	r2, r7, #1
 800ac0c:	eb01 0282 	add.w	r2, r1, r2, lsl #2
 800ac10:	f851 5b04 	ldr.w	r5, [r1], #4
 800ac14:	4291      	cmp	r1, r2
 800ac16:	f840 5b04 	str.w	r5, [r0], #4
 800ac1a:	d1f9      	bne.n	800ac10 <_Unwind_VRS_Pop+0x16c>
 800ac1c:	2b01      	cmp	r3, #1
 800ac1e:	d068      	beq.n	800acf2 <_Unwind_VRS_Pop+0x24e>
 800ac20:	2c0f      	cmp	r4, #15
 800ac22:	63b2      	str	r2, [r6, #56]	; 0x38
 800ac24:	d905      	bls.n	800ac32 <_Unwind_VRS_Pop+0x18e>
 800ac26:	2f00      	cmp	r7, #0
 800ac28:	d0ad      	beq.n	800ab86 <_Unwind_VRS_Pop+0xe2>
 800ac2a:	a802      	add	r0, sp, #8
 800ac2c:	f000 f88e 	bl	800ad4c <__gnu_Unwind_Restore_VFP_D_16_to_31>
 800ac30:	e7a9      	b.n	800ab86 <_Unwind_VRS_Pop+0xe2>
 800ac32:	a822      	add	r0, sp, #136	; 0x88
 800ac34:	f000 f882 	bl	800ad3c <__gnu_Unwind_Restore_VFP_D>
 800ac38:	e7f5      	b.n	800ac26 <_Unwind_VRS_Pop+0x182>
 800ac3a:	2f10      	cmp	r7, #16
 800ac3c:	6832      	ldr	r2, [r6, #0]
 800ac3e:	d82b      	bhi.n	800ac98 <_Unwind_VRS_Pop+0x1f4>
 800ac40:	f012 0701 	ands.w	r7, r2, #1
 800ac44:	d00b      	beq.n	800ac5e <_Unwind_VRS_Pop+0x1ba>
 800ac46:	4630      	mov	r0, r6
 800ac48:	2700      	movs	r7, #0
 800ac4a:	f022 0201 	bic.w	r2, r2, #1
 800ac4e:	f042 0202 	orr.w	r2, r2, #2
 800ac52:	f840 2b48 	str.w	r2, [r0], #72
 800ac56:	9301      	str	r3, [sp, #4]
 800ac58:	f000 f874 	bl	800ad44 <__gnu_Unwind_Save_VFP_D>
 800ac5c:	9b01      	ldr	r3, [sp, #4]
 800ac5e:	a822      	add	r0, sp, #136	; 0x88
 800ac60:	9301      	str	r3, [sp, #4]
 800ac62:	f000 f86f 	bl	800ad44 <__gnu_Unwind_Save_VFP_D>
 800ac66:	9b01      	ldr	r3, [sp, #4]
 800ac68:	2f00      	cmp	r7, #0
 800ac6a:	d0ad      	beq.n	800abc8 <_Unwind_VRS_Pop+0x124>
 800ac6c:	a802      	add	r0, sp, #8
 800ac6e:	9301      	str	r3, [sp, #4]
 800ac70:	f000 f870 	bl	800ad54 <__gnu_Unwind_Save_VFP_D_16_to_31>
 800ac74:	6bb1      	ldr	r1, [r6, #56]	; 0x38
 800ac76:	f1c4 0e10 	rsb	lr, r4, #16
 800ac7a:	f1be 0f00 	cmp.w	lr, #0
 800ac7e:	4608      	mov	r0, r1
 800ac80:	9b01      	ldr	r3, [sp, #4]
 800ac82:	dca8      	bgt.n	800abd6 <_Unwind_VRS_Pop+0x132>
 800ac84:	2c10      	cmp	r4, #16
 800ac86:	4620      	mov	r0, r4
 800ac88:	bf38      	it	cc
 800ac8a:	2010      	movcc	r0, #16
 800ac8c:	aa02      	add	r2, sp, #8
 800ac8e:	3810      	subs	r0, #16
 800ac90:	eb02 00c0 	add.w	r0, r2, r0, lsl #3
 800ac94:	007a      	lsls	r2, r7, #1
 800ac96:	e7b9      	b.n	800ac0c <_Unwind_VRS_Pop+0x168>
 800ac98:	07d1      	lsls	r1, r2, #31
 800ac9a:	f1a7 0710 	sub.w	r7, r7, #16
 800ac9e:	d512      	bpl.n	800acc6 <_Unwind_VRS_Pop+0x222>
 800aca0:	4630      	mov	r0, r6
 800aca2:	f022 0201 	bic.w	r2, r2, #1
 800aca6:	f042 0202 	orr.w	r2, r2, #2
 800acaa:	f840 2b48 	str.w	r2, [r0], #72
 800acae:	9301      	str	r3, [sp, #4]
 800acb0:	f000 f848 	bl	800ad44 <__gnu_Unwind_Save_VFP_D>
 800acb4:	6832      	ldr	r2, [r6, #0]
 800acb6:	9b01      	ldr	r3, [sp, #4]
 800acb8:	f012 0f04 	tst.w	r2, #4
 800acbc:	d105      	bne.n	800acca <_Unwind_VRS_Pop+0x226>
 800acbe:	2c0f      	cmp	r4, #15
 800acc0:	d9cd      	bls.n	800ac5e <_Unwind_VRS_Pop+0x1ba>
 800acc2:	e7d1      	b.n	800ac68 <_Unwind_VRS_Pop+0x1c4>
 800acc4:	6832      	ldr	r2, [r6, #0]
 800acc6:	0751      	lsls	r1, r2, #29
 800acc8:	d5f9      	bpl.n	800acbe <_Unwind_VRS_Pop+0x21a>
 800acca:	4630      	mov	r0, r6
 800accc:	f022 0204 	bic.w	r2, r2, #4
 800acd0:	f840 2bd0 	str.w	r2, [r0], #208
 800acd4:	9301      	str	r3, [sp, #4]
 800acd6:	f000 f83d 	bl	800ad54 <__gnu_Unwind_Save_VFP_D_16_to_31>
 800acda:	9b01      	ldr	r3, [sp, #4]
 800acdc:	e7ef      	b.n	800acbe <_Unwind_VRS_Pop+0x21a>
 800acde:	f023 0310 	bic.w	r3, r3, #16
 800ace2:	6033      	str	r3, [r6, #0]
 800ace4:	f506 70e8 	add.w	r0, r6, #464	; 0x1d0
 800ace8:	9201      	str	r2, [sp, #4]
 800acea:	f000 f885 	bl	800adf8 <__gnu_Unwind_Save_WMMXC>
 800acee:	9a01      	ldr	r2, [sp, #4]
 800acf0:	e6f4      	b.n	800aadc <_Unwind_VRS_Pop+0x38>
 800acf2:	3204      	adds	r2, #4
 800acf4:	63b2      	str	r2, [r6, #56]	; 0x38
 800acf6:	a822      	add	r0, sp, #136	; 0x88
 800acf8:	f000 f818 	bl	800ad2c <__gnu_Unwind_Restore_VFP>
 800acfc:	e743      	b.n	800ab86 <_Unwind_VRS_Pop+0xe2>
 800acfe:	f023 0308 	bic.w	r3, r3, #8
 800ad02:	6033      	str	r3, [r6, #0]
 800ad04:	f506 70a8 	add.w	r0, r6, #336	; 0x150
 800ad08:	f000 f84a 	bl	800ada0 <__gnu_Unwind_Save_WMMXD>
 800ad0c:	e70b      	b.n	800ab26 <_Unwind_VRS_Pop+0x82>
 800ad0e:	4602      	mov	r2, r0
 800ad10:	462f      	mov	r7, r5
 800ad12:	e783      	b.n	800ac1c <_Unwind_VRS_Pop+0x178>

0800ad14 <__restore_core_regs>:
 800ad14:	f100 0134 	add.w	r1, r0, #52	; 0x34
 800ad18:	e891 0038 	ldmia.w	r1, {r3, r4, r5}
 800ad1c:	469c      	mov	ip, r3
 800ad1e:	46a6      	mov	lr, r4
 800ad20:	f84c 5d04 	str.w	r5, [ip, #-4]!
 800ad24:	e890 0fff 	ldmia.w	r0, {r0, r1, r2, r3, r4, r5, r6, r7, r8, r9, sl, fp}
 800ad28:	46e5      	mov	sp, ip
 800ad2a:	bd00      	pop	{pc}

0800ad2c <__gnu_Unwind_Restore_VFP>:
 800ad2c:	ec90 0b21 	fldmiax	r0, {d0-d15}	;@ Deprecated
 800ad30:	4770      	bx	lr
 800ad32:	bf00      	nop

0800ad34 <__gnu_Unwind_Save_VFP>:
 800ad34:	ec80 0b21 	fstmiax	r0, {d0-d15}	;@ Deprecated
 800ad38:	4770      	bx	lr
 800ad3a:	bf00      	nop

0800ad3c <__gnu_Unwind_Restore_VFP_D>:
 800ad3c:	ec90 0b20 	vldmia	r0, {d0-d15}
 800ad40:	4770      	bx	lr
 800ad42:	bf00      	nop

0800ad44 <__gnu_Unwind_Save_VFP_D>:
 800ad44:	ec80 0b20 	vstmia	r0, {d0-d15}
 800ad48:	4770      	bx	lr
 800ad4a:	bf00      	nop

0800ad4c <__gnu_Unwind_Restore_VFP_D_16_to_31>:
 800ad4c:	ecd0 0b20 	vldmia	r0, {d16-d31}
 800ad50:	4770      	bx	lr
 800ad52:	bf00      	nop

0800ad54 <__gnu_Unwind_Save_VFP_D_16_to_31>:
 800ad54:	ecc0 0b20 	vstmia	r0, {d16-d31}
 800ad58:	4770      	bx	lr
 800ad5a:	bf00      	nop

0800ad5c <__gnu_Unwind_Restore_WMMXD>:
 800ad5c:	ecf0 0102 	ldfe	f0, [r0], #8
 800ad60:	ecf0 1102 	ldfe	f1, [r0], #8
 800ad64:	ecf0 2102 	ldfe	f2, [r0], #8
 800ad68:	ecf0 3102 	ldfe	f3, [r0], #8
 800ad6c:	ecf0 4102 	ldfe	f4, [r0], #8
 800ad70:	ecf0 5102 	ldfe	f5, [r0], #8
 800ad74:	ecf0 6102 	ldfe	f6, [r0], #8
 800ad78:	ecf0 7102 	ldfe	f7, [r0], #8
 800ad7c:	ecf0 8102 	ldfp	f0, [r0], #8
 800ad80:	ecf0 9102 	ldfp	f1, [r0], #8
 800ad84:	ecf0 a102 	ldfp	f2, [r0], #8
 800ad88:	ecf0 b102 	ldfp	f3, [r0], #8
 800ad8c:	ecf0 c102 	ldfp	f4, [r0], #8
 800ad90:	ecf0 d102 	ldfp	f5, [r0], #8
 800ad94:	ecf0 e102 	ldfp	f6, [r0], #8
 800ad98:	ecf0 f102 	ldfp	f7, [r0], #8
 800ad9c:	4770      	bx	lr
 800ad9e:	bf00      	nop

0800ada0 <__gnu_Unwind_Save_WMMXD>:
 800ada0:	ece0 0102 	stfe	f0, [r0], #8
 800ada4:	ece0 1102 	stfe	f1, [r0], #8
 800ada8:	ece0 2102 	stfe	f2, [r0], #8
 800adac:	ece0 3102 	stfe	f3, [r0], #8
 800adb0:	ece0 4102 	stfe	f4, [r0], #8
 800adb4:	ece0 5102 	stfe	f5, [r0], #8
 800adb8:	ece0 6102 	stfe	f6, [r0], #8
 800adbc:	ece0 7102 	stfe	f7, [r0], #8
 800adc0:	ece0 8102 	stfp	f0, [r0], #8
 800adc4:	ece0 9102 	stfp	f1, [r0], #8
 800adc8:	ece0 a102 	stfp	f2, [r0], #8
 800adcc:	ece0 b102 	stfp	f3, [r0], #8
 800add0:	ece0 c102 	stfp	f4, [r0], #8
 800add4:	ece0 d102 	stfp	f5, [r0], #8
 800add8:	ece0 e102 	stfp	f6, [r0], #8
 800addc:	ece0 f102 	stfp	f7, [r0], #8
 800ade0:	4770      	bx	lr
 800ade2:	bf00      	nop

0800ade4 <__gnu_Unwind_Restore_WMMXC>:
 800ade4:	fcb0 8101 	ldc2	1, cr8, [r0], #4
 800ade8:	fcb0 9101 	ldc2	1, cr9, [r0], #4
 800adec:	fcb0 a101 	ldc2	1, cr10, [r0], #4
 800adf0:	fcb0 b101 	ldc2	1, cr11, [r0], #4
 800adf4:	4770      	bx	lr
 800adf6:	bf00      	nop

0800adf8 <__gnu_Unwind_Save_WMMXC>:
 800adf8:	fca0 8101 	stc2	1, cr8, [r0], #4
 800adfc:	fca0 9101 	stc2	1, cr9, [r0], #4
 800ae00:	fca0 a101 	stc2	1, cr10, [r0], #4
 800ae04:	fca0 b101 	stc2	1, cr11, [r0], #4
 800ae08:	4770      	bx	lr
 800ae0a:	bf00      	nop

0800ae0c <_Unwind_RaiseException>:
 800ae0c:	46ec      	mov	ip, sp
 800ae0e:	b500      	push	{lr}
 800ae10:	e92d 5000 	stmdb	sp!, {ip, lr}
 800ae14:	e92d 1fff 	stmdb	sp!, {r0, r1, r2, r3, r4, r5, r6, r7, r8, r9, sl, fp, ip}
 800ae18:	f04f 0300 	mov.w	r3, #0
 800ae1c:	e92d 000c 	stmdb	sp!, {r2, r3}
 800ae20:	a901      	add	r1, sp, #4
 800ae22:	f7ff fbd9 	bl	800a5d8 <__gnu_Unwind_RaiseException>
 800ae26:	f8dd e040 	ldr.w	lr, [sp, #64]	; 0x40
 800ae2a:	b012      	add	sp, #72	; 0x48
 800ae2c:	4770      	bx	lr
 800ae2e:	bf00      	nop

0800ae30 <_Unwind_Resume>:
 800ae30:	46ec      	mov	ip, sp
 800ae32:	b500      	push	{lr}
 800ae34:	e92d 5000 	stmdb	sp!, {ip, lr}
 800ae38:	e92d 1fff 	stmdb	sp!, {r0, r1, r2, r3, r4, r5, r6, r7, r8, r9, sl, fp, ip}
 800ae3c:	f04f 0300 	mov.w	r3, #0
 800ae40:	e92d 000c 	stmdb	sp!, {r2, r3}
 800ae44:	a901      	add	r1, sp, #4
 800ae46:	f7ff fc01 	bl	800a64c <__gnu_Unwind_Resume>
 800ae4a:	f8dd e040 	ldr.w	lr, [sp, #64]	; 0x40
 800ae4e:	b012      	add	sp, #72	; 0x48
 800ae50:	4770      	bx	lr
 800ae52:	bf00      	nop

0800ae54 <_Unwind_Resume_or_Rethrow>:
 800ae54:	46ec      	mov	ip, sp
 800ae56:	b500      	push	{lr}
 800ae58:	e92d 5000 	stmdb	sp!, {ip, lr}
 800ae5c:	e92d 1fff 	stmdb	sp!, {r0, r1, r2, r3, r4, r5, r6, r7, r8, r9, sl, fp, ip}
 800ae60:	f04f 0300 	mov.w	r3, #0
 800ae64:	e92d 000c 	stmdb	sp!, {r2, r3}
 800ae68:	a901      	add	r1, sp, #4
 800ae6a:	f7ff fc11 	bl	800a690 <__gnu_Unwind_Resume_or_Rethrow>
 800ae6e:	f8dd e040 	ldr.w	lr, [sp, #64]	; 0x40
 800ae72:	b012      	add	sp, #72	; 0x48
 800ae74:	4770      	bx	lr
 800ae76:	bf00      	nop

0800ae78 <_Unwind_ForcedUnwind>:
 800ae78:	46ec      	mov	ip, sp
 800ae7a:	b500      	push	{lr}
 800ae7c:	e92d 5000 	stmdb	sp!, {ip, lr}
 800ae80:	e92d 1fff 	stmdb	sp!, {r0, r1, r2, r3, r4, r5, r6, r7, r8, r9, sl, fp, ip}
 800ae84:	f04f 0300 	mov.w	r3, #0
 800ae88:	e92d 000c 	stmdb	sp!, {r2, r3}
 800ae8c:	ab01      	add	r3, sp, #4
 800ae8e:	f7ff fbd3 	bl	800a638 <__gnu_Unwind_ForcedUnwind>
 800ae92:	f8dd e040 	ldr.w	lr, [sp, #64]	; 0x40
 800ae96:	b012      	add	sp, #72	; 0x48
 800ae98:	4770      	bx	lr
 800ae9a:	bf00      	nop

0800ae9c <_Unwind_Backtrace>:
 800ae9c:	46ec      	mov	ip, sp
 800ae9e:	b500      	push	{lr}
 800aea0:	e92d 5000 	stmdb	sp!, {ip, lr}
 800aea4:	e92d 1fff 	stmdb	sp!, {r0, r1, r2, r3, r4, r5, r6, r7, r8, r9, sl, fp, ip}
 800aea8:	f04f 0300 	mov.w	r3, #0
 800aeac:	e92d 000c 	stmdb	sp!, {r2, r3}
 800aeb0:	aa01      	add	r2, sp, #4
 800aeb2:	f7ff fc4d 	bl	800a750 <__gnu_Unwind_Backtrace>
 800aeb6:	f8dd e040 	ldr.w	lr, [sp, #64]	; 0x40
 800aeba:	b012      	add	sp, #72	; 0x48
 800aebc:	4770      	bx	lr
 800aebe:	bf00      	nop

0800aec0 <next_unwind_byte>:
 800aec0:	7a03      	ldrb	r3, [r0, #8]
 800aec2:	b993      	cbnz	r3, 800aeea <next_unwind_byte+0x2a>
 800aec4:	7a43      	ldrb	r3, [r0, #9]
 800aec6:	b90b      	cbnz	r3, 800aecc <next_unwind_byte+0xc>
 800aec8:	20b0      	movs	r0, #176	; 0xb0
 800aeca:	4770      	bx	lr
 800aecc:	2103      	movs	r1, #3
 800aece:	6842      	ldr	r2, [r0, #4]
 800aed0:	3b01      	subs	r3, #1
 800aed2:	b410      	push	{r4}
 800aed4:	7243      	strb	r3, [r0, #9]
 800aed6:	6813      	ldr	r3, [r2, #0]
 800aed8:	1d14      	adds	r4, r2, #4
 800aeda:	7201      	strb	r1, [r0, #8]
 800aedc:	021a      	lsls	r2, r3, #8
 800aede:	6044      	str	r4, [r0, #4]
 800aee0:	6002      	str	r2, [r0, #0]
 800aee2:	f85d 4b04 	ldr.w	r4, [sp], #4
 800aee6:	0e18      	lsrs	r0, r3, #24
 800aee8:	4770      	bx	lr
 800aeea:	1e5a      	subs	r2, r3, #1
 800aeec:	6803      	ldr	r3, [r0, #0]
 800aeee:	7202      	strb	r2, [r0, #8]
 800aef0:	021a      	lsls	r2, r3, #8
 800aef2:	6002      	str	r2, [r0, #0]
 800aef4:	0e18      	lsrs	r0, r3, #24
 800aef6:	4770      	bx	lr

0800aef8 <_Unwind_GetGR.constprop.0>:
 800aef8:	2100      	movs	r1, #0
 800aefa:	b500      	push	{lr}
 800aefc:	b085      	sub	sp, #20
 800aefe:	aa03      	add	r2, sp, #12
 800af00:	9200      	str	r2, [sp, #0]
 800af02:	460b      	mov	r3, r1
 800af04:	220c      	movs	r2, #12
 800af06:	f7ff fbd5 	bl	800a6b4 <_Unwind_VRS_Get>
 800af0a:	9803      	ldr	r0, [sp, #12]
 800af0c:	b005      	add	sp, #20
 800af0e:	f85d fb04 	ldr.w	pc, [sp], #4
 800af12:	bf00      	nop

0800af14 <unwind_UCB_from_context>:
 800af14:	e7f0      	b.n	800aef8 <_Unwind_GetGR.constprop.0>
 800af16:	bf00      	nop

0800af18 <__gnu_unwind_execute>:
 800af18:	e92d 43f0 	stmdb	sp!, {r4, r5, r6, r7, r8, r9, lr}
 800af1c:	4606      	mov	r6, r0
 800af1e:	460d      	mov	r5, r1
 800af20:	f04f 0800 	mov.w	r8, #0
 800af24:	b085      	sub	sp, #20
 800af26:	4628      	mov	r0, r5
 800af28:	f7ff ffca 	bl	800aec0 <next_unwind_byte>
 800af2c:	28b0      	cmp	r0, #176	; 0xb0
 800af2e:	4604      	mov	r4, r0
 800af30:	f000 80b5 	beq.w	800b09e <__gnu_unwind_execute+0x186>
 800af34:	f020 027f 	bic.w	r2, r0, #127	; 0x7f
 800af38:	f012 01ff 	ands.w	r1, r2, #255	; 0xff
 800af3c:	d020      	beq.n	800af80 <__gnu_unwind_execute+0x68>
 800af3e:	f000 03f0 	and.w	r3, r0, #240	; 0xf0
 800af42:	2b80      	cmp	r3, #128	; 0x80
 800af44:	d07a      	beq.n	800b03c <__gnu_unwind_execute+0x124>
 800af46:	2b90      	cmp	r3, #144	; 0x90
 800af48:	d035      	beq.n	800afb6 <__gnu_unwind_execute+0x9e>
 800af4a:	2ba0      	cmp	r3, #160	; 0xa0
 800af4c:	d048      	beq.n	800afe0 <__gnu_unwind_execute+0xc8>
 800af4e:	2bb0      	cmp	r3, #176	; 0xb0
 800af50:	d05c      	beq.n	800b00c <__gnu_unwind_execute+0xf4>
 800af52:	2bc0      	cmp	r3, #192	; 0xc0
 800af54:	f000 8089 	beq.w	800b06a <__gnu_unwind_execute+0x152>
 800af58:	f000 03f8 	and.w	r3, r0, #248	; 0xf8
 800af5c:	2bd0      	cmp	r3, #208	; 0xd0
 800af5e:	d10b      	bne.n	800af78 <__gnu_unwind_execute+0x60>
 800af60:	f000 0207 	and.w	r2, r0, #7
 800af64:	3201      	adds	r2, #1
 800af66:	f442 2200 	orr.w	r2, r2, #524288	; 0x80000
 800af6a:	4630      	mov	r0, r6
 800af6c:	2101      	movs	r1, #1
 800af6e:	2305      	movs	r3, #5
 800af70:	f7ff fd98 	bl	800aaa4 <_Unwind_VRS_Pop>
 800af74:	2800      	cmp	r0, #0
 800af76:	d0d6      	beq.n	800af26 <__gnu_unwind_execute+0xe>
 800af78:	2009      	movs	r0, #9
 800af7a:	b005      	add	sp, #20
 800af7c:	e8bd 83f0 	ldmia.w	sp!, {r4, r5, r6, r7, r8, r9, pc}
 800af80:	f10d 090c 	add.w	r9, sp, #12
 800af84:	460b      	mov	r3, r1
 800af86:	0087      	lsls	r7, r0, #2
 800af88:	f8cd 9000 	str.w	r9, [sp]
 800af8c:	4630      	mov	r0, r6
 800af8e:	220d      	movs	r2, #13
 800af90:	f7ff fb90 	bl	800a6b4 <_Unwind_VRS_Get>
 800af94:	2100      	movs	r1, #0
 800af96:	9b03      	ldr	r3, [sp, #12]
 800af98:	b2ff      	uxtb	r7, r7
 800af9a:	3704      	adds	r7, #4
 800af9c:	0660      	lsls	r0, r4, #25
 800af9e:	bf4c      	ite	mi
 800afa0:	1bdf      	submi	r7, r3, r7
 800afa2:	18ff      	addpl	r7, r7, r3
 800afa4:	f8cd 9000 	str.w	r9, [sp]
 800afa8:	460b      	mov	r3, r1
 800afaa:	4630      	mov	r0, r6
 800afac:	220d      	movs	r2, #13
 800afae:	9703      	str	r7, [sp, #12]
 800afb0:	f7ff fba6 	bl	800a700 <_Unwind_VRS_Set>
 800afb4:	e7b7      	b.n	800af26 <__gnu_unwind_execute+0xe>
 800afb6:	f000 030d 	and.w	r3, r0, #13
 800afba:	2b0d      	cmp	r3, #13
 800afbc:	d0dc      	beq.n	800af78 <__gnu_unwind_execute+0x60>
 800afbe:	2100      	movs	r1, #0
 800afc0:	af03      	add	r7, sp, #12
 800afc2:	f000 020f 	and.w	r2, r0, #15
 800afc6:	460b      	mov	r3, r1
 800afc8:	9700      	str	r7, [sp, #0]
 800afca:	4630      	mov	r0, r6
 800afcc:	f7ff fb72 	bl	800a6b4 <_Unwind_VRS_Get>
 800afd0:	2100      	movs	r1, #0
 800afd2:	9700      	str	r7, [sp, #0]
 800afd4:	460b      	mov	r3, r1
 800afd6:	4630      	mov	r0, r6
 800afd8:	220d      	movs	r2, #13
 800afda:	f7ff fb91 	bl	800a700 <_Unwind_VRS_Set>
 800afde:	e7a2      	b.n	800af26 <__gnu_unwind_execute+0xe>
 800afe0:	43c3      	mvns	r3, r0
 800afe2:	f44f 627f 	mov.w	r2, #4080	; 0xff0
 800afe6:	0701      	lsls	r1, r0, #28
 800afe8:	f04f 0100 	mov.w	r1, #0
 800afec:	f003 0307 	and.w	r3, r3, #7
 800aff0:	fa42 f203 	asr.w	r2, r2, r3
 800aff4:	f402 627f 	and.w	r2, r2, #4080	; 0xff0
 800aff8:	bf48      	it	mi
 800affa:	f442 4280 	orrmi.w	r2, r2, #16384	; 0x4000
 800affe:	460b      	mov	r3, r1
 800b000:	4630      	mov	r0, r6
 800b002:	f7ff fd4f 	bl	800aaa4 <_Unwind_VRS_Pop>
 800b006:	2800      	cmp	r0, #0
 800b008:	d1b6      	bne.n	800af78 <__gnu_unwind_execute+0x60>
 800b00a:	e78c      	b.n	800af26 <__gnu_unwind_execute+0xe>
 800b00c:	28b1      	cmp	r0, #177	; 0xb1
 800b00e:	d04b      	beq.n	800b0a8 <__gnu_unwind_execute+0x190>
 800b010:	28b2      	cmp	r0, #178	; 0xb2
 800b012:	d05c      	beq.n	800b0ce <__gnu_unwind_execute+0x1b6>
 800b014:	28b3      	cmp	r0, #179	; 0xb3
 800b016:	f000 8089 	beq.w	800b12c <__gnu_unwind_execute+0x214>
 800b01a:	f000 03fc 	and.w	r3, r0, #252	; 0xfc
 800b01e:	2bb4      	cmp	r3, #180	; 0xb4
 800b020:	d0aa      	beq.n	800af78 <__gnu_unwind_execute+0x60>
 800b022:	2101      	movs	r1, #1
 800b024:	f000 0207 	and.w	r2, r0, #7
 800b028:	440a      	add	r2, r1
 800b02a:	f442 2200 	orr.w	r2, r2, #524288	; 0x80000
 800b02e:	460b      	mov	r3, r1
 800b030:	4630      	mov	r0, r6
 800b032:	f7ff fd37 	bl	800aaa4 <_Unwind_VRS_Pop>
 800b036:	2800      	cmp	r0, #0
 800b038:	d19e      	bne.n	800af78 <__gnu_unwind_execute+0x60>
 800b03a:	e774      	b.n	800af26 <__gnu_unwind_execute+0xe>
 800b03c:	4628      	mov	r0, r5
 800b03e:	f7ff ff3f 	bl	800aec0 <next_unwind_byte>
 800b042:	0224      	lsls	r4, r4, #8
 800b044:	4320      	orrs	r0, r4
 800b046:	f5b0 4f00 	cmp.w	r0, #32768	; 0x8000
 800b04a:	d095      	beq.n	800af78 <__gnu_unwind_execute+0x60>
 800b04c:	2100      	movs	r1, #0
 800b04e:	0104      	lsls	r4, r0, #4
 800b050:	b2a2      	uxth	r2, r4
 800b052:	460b      	mov	r3, r1
 800b054:	4630      	mov	r0, r6
 800b056:	f7ff fd25 	bl	800aaa4 <_Unwind_VRS_Pop>
 800b05a:	2800      	cmp	r0, #0
 800b05c:	d18c      	bne.n	800af78 <__gnu_unwind_execute+0x60>
 800b05e:	f414 4f00 	tst.w	r4, #32768	; 0x8000
 800b062:	bf18      	it	ne
 800b064:	f04f 0801 	movne.w	r8, #1
 800b068:	e75d      	b.n	800af26 <__gnu_unwind_execute+0xe>
 800b06a:	28c6      	cmp	r0, #198	; 0xc6
 800b06c:	d071      	beq.n	800b152 <__gnu_unwind_execute+0x23a>
 800b06e:	28c7      	cmp	r0, #199	; 0xc7
 800b070:	d077      	beq.n	800b162 <__gnu_unwind_execute+0x24a>
 800b072:	f000 03f8 	and.w	r3, r0, #248	; 0xf8
 800b076:	2bc0      	cmp	r3, #192	; 0xc0
 800b078:	f000 8086 	beq.w	800b188 <__gnu_unwind_execute+0x270>
 800b07c:	28c8      	cmp	r0, #200	; 0xc8
 800b07e:	f000 80a1 	beq.w	800b1c4 <__gnu_unwind_execute+0x2ac>
 800b082:	28c9      	cmp	r0, #201	; 0xc9
 800b084:	f47f af78 	bne.w	800af78 <__gnu_unwind_execute+0x60>
 800b088:	4628      	mov	r0, r5
 800b08a:	f7ff ff19 	bl	800aec0 <next_unwind_byte>
 800b08e:	f000 020f 	and.w	r2, r0, #15
 800b092:	3201      	adds	r2, #1
 800b094:	f000 00f0 	and.w	r0, r0, #240	; 0xf0
 800b098:	ea42 3200 	orr.w	r2, r2, r0, lsl #12
 800b09c:	e765      	b.n	800af6a <__gnu_unwind_execute+0x52>
 800b09e:	f1b8 0f00 	cmp.w	r8, #0
 800b0a2:	d07f      	beq.n	800b1a4 <__gnu_unwind_execute+0x28c>
 800b0a4:	2000      	movs	r0, #0
 800b0a6:	e768      	b.n	800af7a <__gnu_unwind_execute+0x62>
 800b0a8:	4628      	mov	r0, r5
 800b0aa:	f7ff ff09 	bl	800aec0 <next_unwind_byte>
 800b0ae:	4602      	mov	r2, r0
 800b0b0:	2800      	cmp	r0, #0
 800b0b2:	f43f af61 	beq.w	800af78 <__gnu_unwind_execute+0x60>
 800b0b6:	f010 01f0 	ands.w	r1, r0, #240	; 0xf0
 800b0ba:	f47f af5d 	bne.w	800af78 <__gnu_unwind_execute+0x60>
 800b0be:	4630      	mov	r0, r6
 800b0c0:	460b      	mov	r3, r1
 800b0c2:	f7ff fcef 	bl	800aaa4 <_Unwind_VRS_Pop>
 800b0c6:	2800      	cmp	r0, #0
 800b0c8:	f47f af56 	bne.w	800af78 <__gnu_unwind_execute+0x60>
 800b0cc:	e72b      	b.n	800af26 <__gnu_unwind_execute+0xe>
 800b0ce:	2100      	movs	r1, #0
 800b0d0:	f10d 090c 	add.w	r9, sp, #12
 800b0d4:	220d      	movs	r2, #13
 800b0d6:	460b      	mov	r3, r1
 800b0d8:	f8cd 9000 	str.w	r9, [sp]
 800b0dc:	4630      	mov	r0, r6
 800b0de:	f7ff fae9 	bl	800a6b4 <_Unwind_VRS_Get>
 800b0e2:	4628      	mov	r0, r5
 800b0e4:	f7ff feec 	bl	800aec0 <next_unwind_byte>
 800b0e8:	0602      	lsls	r2, r0, #24
 800b0ea:	f04f 0402 	mov.w	r4, #2
 800b0ee:	d50c      	bpl.n	800b10a <__gnu_unwind_execute+0x1f2>
 800b0f0:	9b03      	ldr	r3, [sp, #12]
 800b0f2:	f000 007f 	and.w	r0, r0, #127	; 0x7f
 800b0f6:	40a0      	lsls	r0, r4
 800b0f8:	4403      	add	r3, r0
 800b0fa:	4628      	mov	r0, r5
 800b0fc:	9303      	str	r3, [sp, #12]
 800b0fe:	f7ff fedf 	bl	800aec0 <next_unwind_byte>
 800b102:	0603      	lsls	r3, r0, #24
 800b104:	f104 0407 	add.w	r4, r4, #7
 800b108:	d4f2      	bmi.n	800b0f0 <__gnu_unwind_execute+0x1d8>
 800b10a:	2100      	movs	r1, #0
 800b10c:	9b03      	ldr	r3, [sp, #12]
 800b10e:	f000 007f 	and.w	r0, r0, #127	; 0x7f
 800b112:	40a0      	lsls	r0, r4
 800b114:	f503 7301 	add.w	r3, r3, #516	; 0x204
 800b118:	181c      	adds	r4, r3, r0
 800b11a:	f8cd 9000 	str.w	r9, [sp]
 800b11e:	460b      	mov	r3, r1
 800b120:	4630      	mov	r0, r6
 800b122:	220d      	movs	r2, #13
 800b124:	9403      	str	r4, [sp, #12]
 800b126:	f7ff faeb 	bl	800a700 <_Unwind_VRS_Set>
 800b12a:	e6fc      	b.n	800af26 <__gnu_unwind_execute+0xe>
 800b12c:	4628      	mov	r0, r5
 800b12e:	f7ff fec7 	bl	800aec0 <next_unwind_byte>
 800b132:	2101      	movs	r1, #1
 800b134:	f000 020f 	and.w	r2, r0, #15
 800b138:	440a      	add	r2, r1
 800b13a:	f000 00f0 	and.w	r0, r0, #240	; 0xf0
 800b13e:	ea42 3200 	orr.w	r2, r2, r0, lsl #12
 800b142:	460b      	mov	r3, r1
 800b144:	4630      	mov	r0, r6
 800b146:	f7ff fcad 	bl	800aaa4 <_Unwind_VRS_Pop>
 800b14a:	2800      	cmp	r0, #0
 800b14c:	f47f af14 	bne.w	800af78 <__gnu_unwind_execute+0x60>
 800b150:	e6e9      	b.n	800af26 <__gnu_unwind_execute+0xe>
 800b152:	4628      	mov	r0, r5
 800b154:	f7ff feb4 	bl	800aec0 <next_unwind_byte>
 800b158:	f000 020f 	and.w	r2, r0, #15
 800b15c:	2103      	movs	r1, #3
 800b15e:	3201      	adds	r2, #1
 800b160:	e7eb      	b.n	800b13a <__gnu_unwind_execute+0x222>
 800b162:	4628      	mov	r0, r5
 800b164:	f7ff feac 	bl	800aec0 <next_unwind_byte>
 800b168:	4602      	mov	r2, r0
 800b16a:	2800      	cmp	r0, #0
 800b16c:	f43f af04 	beq.w	800af78 <__gnu_unwind_execute+0x60>
 800b170:	f010 03f0 	ands.w	r3, r0, #240	; 0xf0
 800b174:	f47f af00 	bne.w	800af78 <__gnu_unwind_execute+0x60>
 800b178:	4630      	mov	r0, r6
 800b17a:	2104      	movs	r1, #4
 800b17c:	f7ff fc92 	bl	800aaa4 <_Unwind_VRS_Pop>
 800b180:	2800      	cmp	r0, #0
 800b182:	f47f aef9 	bne.w	800af78 <__gnu_unwind_execute+0x60>
 800b186:	e6ce      	b.n	800af26 <__gnu_unwind_execute+0xe>
 800b188:	2103      	movs	r1, #3
 800b18a:	f000 020f 	and.w	r2, r0, #15
 800b18e:	3201      	adds	r2, #1
 800b190:	f442 2220 	orr.w	r2, r2, #655360	; 0xa0000
 800b194:	460b      	mov	r3, r1
 800b196:	4630      	mov	r0, r6
 800b198:	f7ff fc84 	bl	800aaa4 <_Unwind_VRS_Pop>
 800b19c:	2800      	cmp	r0, #0
 800b19e:	f47f aeeb 	bne.w	800af78 <__gnu_unwind_execute+0x60>
 800b1a2:	e6c0      	b.n	800af26 <__gnu_unwind_execute+0xe>
 800b1a4:	ac03      	add	r4, sp, #12
 800b1a6:	4641      	mov	r1, r8
 800b1a8:	4643      	mov	r3, r8
 800b1aa:	9400      	str	r4, [sp, #0]
 800b1ac:	4630      	mov	r0, r6
 800b1ae:	220e      	movs	r2, #14
 800b1b0:	f7ff fa80 	bl	800a6b4 <_Unwind_VRS_Get>
 800b1b4:	9400      	str	r4, [sp, #0]
 800b1b6:	4630      	mov	r0, r6
 800b1b8:	4641      	mov	r1, r8
 800b1ba:	4643      	mov	r3, r8
 800b1bc:	220f      	movs	r2, #15
 800b1be:	f7ff fa9f 	bl	800a700 <_Unwind_VRS_Set>
 800b1c2:	e76f      	b.n	800b0a4 <__gnu_unwind_execute+0x18c>
 800b1c4:	4628      	mov	r0, r5
 800b1c6:	f7ff fe7b 	bl	800aec0 <next_unwind_byte>
 800b1ca:	f000 02f0 	and.w	r2, r0, #240	; 0xf0
 800b1ce:	f000 030f 	and.w	r3, r0, #15
 800b1d2:	3210      	adds	r2, #16
 800b1d4:	3301      	adds	r3, #1
 800b1d6:	ea43 3202 	orr.w	r2, r3, r2, lsl #12
 800b1da:	e6c6      	b.n	800af6a <__gnu_unwind_execute+0x52>

0800b1dc <__gnu_unwind_frame>:
 800b1dc:	b510      	push	{r4, lr}
 800b1de:	2403      	movs	r4, #3
 800b1e0:	6cc3      	ldr	r3, [r0, #76]	; 0x4c
 800b1e2:	b084      	sub	sp, #16
 800b1e4:	685a      	ldr	r2, [r3, #4]
 800b1e6:	f88d 400c 	strb.w	r4, [sp, #12]
 800b1ea:	79dc      	ldrb	r4, [r3, #7]
 800b1ec:	0212      	lsls	r2, r2, #8
 800b1ee:	3308      	adds	r3, #8
 800b1f0:	4608      	mov	r0, r1
 800b1f2:	a901      	add	r1, sp, #4
 800b1f4:	9201      	str	r2, [sp, #4]
 800b1f6:	f88d 400d 	strb.w	r4, [sp, #13]
 800b1fa:	9302      	str	r3, [sp, #8]
 800b1fc:	f7ff fe8c 	bl	800af18 <__gnu_unwind_execute>
 800b200:	b004      	add	sp, #16
 800b202:	bd10      	pop	{r4, pc}

0800b204 <_Unwind_GetRegionStart>:
 800b204:	b508      	push	{r3, lr}
 800b206:	f7ff fe85 	bl	800af14 <unwind_UCB_from_context>
 800b20a:	6c80      	ldr	r0, [r0, #72]	; 0x48
 800b20c:	bd08      	pop	{r3, pc}
 800b20e:	bf00      	nop

0800b210 <_Unwind_GetLanguageSpecificData>:
 800b210:	b508      	push	{r3, lr}
 800b212:	f7ff fe7f 	bl	800af14 <unwind_UCB_from_context>
 800b216:	6cc3      	ldr	r3, [r0, #76]	; 0x4c
 800b218:	79d8      	ldrb	r0, [r3, #7]
 800b21a:	eb03 0080 	add.w	r0, r3, r0, lsl #2
 800b21e:	3008      	adds	r0, #8
 800b220:	bd08      	pop	{r3, pc}
 800b222:	bf00      	nop

0800b224 <_Unwind_GetDataRelBase>:
 800b224:	b508      	push	{r3, lr}
 800b226:	f7fe fb59 	bl	80098dc <abort>
 800b22a:	bf00      	nop

0800b22c <_Unwind_GetTextRelBase>:
 800b22c:	b508      	push	{r3, lr}
 800b22e:	f7fe fb55 	bl	80098dc <abort>
 800b232:	bf00      	nop

0800b234 <__aeabi_idiv0>:
 800b234:	4770      	bx	lr
 800b236:	bf00      	nop

0800b238 <__divdi3>:
 800b238:	2900      	cmp	r1, #0
 800b23a:	e92d 43f0 	stmdb	sp!, {r4, r5, r6, r7, r8, r9, lr}
 800b23e:	f2c0 80a6 	blt.w	800b38e <__divdi3+0x156>
 800b242:	2600      	movs	r6, #0
 800b244:	2b00      	cmp	r3, #0
 800b246:	f2c0 809c 	blt.w	800b382 <__divdi3+0x14a>
 800b24a:	4681      	mov	r9, r0
 800b24c:	468e      	mov	lr, r1
 800b24e:	4690      	mov	r8, r2
 800b250:	469c      	mov	ip, r3
 800b252:	4617      	mov	r7, r2
 800b254:	4604      	mov	r4, r0
 800b256:	460d      	mov	r5, r1
 800b258:	2b00      	cmp	r3, #0
 800b25a:	d13d      	bne.n	800b2d8 <__divdi3+0xa0>
 800b25c:	428a      	cmp	r2, r1
 800b25e:	d958      	bls.n	800b312 <__divdi3+0xda>
 800b260:	fab2 f382 	clz	r3, r2
 800b264:	b13b      	cbz	r3, 800b276 <__divdi3+0x3e>
 800b266:	f1c3 0220 	rsb	r2, r3, #32
 800b26a:	409d      	lsls	r5, r3
 800b26c:	fa20 f202 	lsr.w	r2, r0, r2
 800b270:	409f      	lsls	r7, r3
 800b272:	4315      	orrs	r5, r2
 800b274:	409c      	lsls	r4, r3
 800b276:	0c39      	lsrs	r1, r7, #16
 800b278:	fbb5 f0f1 	udiv	r0, r5, r1
 800b27c:	fa1f fe87 	uxth.w	lr, r7
 800b280:	fb01 5510 	mls	r5, r1, r0, r5
 800b284:	fb0e f300 	mul.w	r3, lr, r0
 800b288:	0c22      	lsrs	r2, r4, #16
 800b28a:	ea42 4505 	orr.w	r5, r2, r5, lsl #16
 800b28e:	42ab      	cmp	r3, r5
 800b290:	d909      	bls.n	800b2a6 <__divdi3+0x6e>
 800b292:	19ed      	adds	r5, r5, r7
 800b294:	f100 32ff 	add.w	r2, r0, #4294967295
 800b298:	f080 810a 	bcs.w	800b4b0 <__divdi3+0x278>
 800b29c:	42ab      	cmp	r3, r5
 800b29e:	f240 8107 	bls.w	800b4b0 <__divdi3+0x278>
 800b2a2:	3802      	subs	r0, #2
 800b2a4:	443d      	add	r5, r7
 800b2a6:	1aed      	subs	r5, r5, r3
 800b2a8:	fbb5 f3f1 	udiv	r3, r5, r1
 800b2ac:	fb01 5513 	mls	r5, r1, r3, r5
 800b2b0:	fb0e fe03 	mul.w	lr, lr, r3
 800b2b4:	b2a4      	uxth	r4, r4
 800b2b6:	ea44 4505 	orr.w	r5, r4, r5, lsl #16
 800b2ba:	45ae      	cmp	lr, r5
 800b2bc:	d908      	bls.n	800b2d0 <__divdi3+0x98>
 800b2be:	19ed      	adds	r5, r5, r7
 800b2c0:	f103 32ff 	add.w	r2, r3, #4294967295
 800b2c4:	f080 80f6 	bcs.w	800b4b4 <__divdi3+0x27c>
 800b2c8:	45ae      	cmp	lr, r5
 800b2ca:	f240 80f3 	bls.w	800b4b4 <__divdi3+0x27c>
 800b2ce:	3b02      	subs	r3, #2
 800b2d0:	ea43 4300 	orr.w	r3, r3, r0, lsl #16
 800b2d4:	2200      	movs	r2, #0
 800b2d6:	e003      	b.n	800b2e0 <__divdi3+0xa8>
 800b2d8:	428b      	cmp	r3, r1
 800b2da:	d90e      	bls.n	800b2fa <__divdi3+0xc2>
 800b2dc:	2200      	movs	r2, #0
 800b2de:	4613      	mov	r3, r2
 800b2e0:	1c34      	adds	r4, r6, #0
 800b2e2:	bf18      	it	ne
 800b2e4:	2401      	movne	r4, #1
 800b2e6:	2500      	movs	r5, #0
 800b2e8:	4260      	negs	r0, r4
 800b2ea:	eb65 0145 	sbc.w	r1, r5, r5, lsl #1
 800b2ee:	4058      	eors	r0, r3
 800b2f0:	4051      	eors	r1, r2
 800b2f2:	1900      	adds	r0, r0, r4
 800b2f4:	4169      	adcs	r1, r5
 800b2f6:	e8bd 83f0 	ldmia.w	sp!, {r4, r5, r6, r7, r8, r9, pc}
 800b2fa:	fab3 f283 	clz	r2, r3
 800b2fe:	2a00      	cmp	r2, #0
 800b300:	f040 8089 	bne.w	800b416 <__divdi3+0x1de>
 800b304:	428b      	cmp	r3, r1
 800b306:	d302      	bcc.n	800b30e <__divdi3+0xd6>
 800b308:	4580      	cmp	r8, r0
 800b30a:	f200 80de 	bhi.w	800b4ca <__divdi3+0x292>
 800b30e:	2301      	movs	r3, #1
 800b310:	e7e6      	b.n	800b2e0 <__divdi3+0xa8>
 800b312:	b912      	cbnz	r2, 800b31a <__divdi3+0xe2>
 800b314:	2301      	movs	r3, #1
 800b316:	fbb3 f7f2 	udiv	r7, r3, r2
 800b31a:	fab7 f887 	clz	r8, r7
 800b31e:	f1b8 0f00 	cmp.w	r8, #0
 800b322:	d13a      	bne.n	800b39a <__divdi3+0x162>
 800b324:	2201      	movs	r2, #1
 800b326:	1bed      	subs	r5, r5, r7
 800b328:	b2b8      	uxth	r0, r7
 800b32a:	0c39      	lsrs	r1, r7, #16
 800b32c:	fbb5 fcf1 	udiv	ip, r5, r1
 800b330:	fb01 551c 	mls	r5, r1, ip, r5
 800b334:	fb00 f30c 	mul.w	r3, r0, ip
 800b338:	ea4f 4e14 	mov.w	lr, r4, lsr #16
 800b33c:	ea4e 4505 	orr.w	r5, lr, r5, lsl #16
 800b340:	42ab      	cmp	r3, r5
 800b342:	d907      	bls.n	800b354 <__divdi3+0x11c>
 800b344:	19ed      	adds	r5, r5, r7
 800b346:	f10c 3eff 	add.w	lr, ip, #4294967295
 800b34a:	d202      	bcs.n	800b352 <__divdi3+0x11a>
 800b34c:	42ab      	cmp	r3, r5
 800b34e:	f200 80c2 	bhi.w	800b4d6 <__divdi3+0x29e>
 800b352:	46f4      	mov	ip, lr
 800b354:	1aed      	subs	r5, r5, r3
 800b356:	fbb5 f3f1 	udiv	r3, r5, r1
 800b35a:	fb01 5513 	mls	r5, r1, r3, r5
 800b35e:	fb00 f003 	mul.w	r0, r0, r3
 800b362:	b2a4      	uxth	r4, r4
 800b364:	ea44 4505 	orr.w	r5, r4, r5, lsl #16
 800b368:	42a8      	cmp	r0, r5
 800b36a:	d907      	bls.n	800b37c <__divdi3+0x144>
 800b36c:	19ed      	adds	r5, r5, r7
 800b36e:	f103 31ff 	add.w	r1, r3, #4294967295
 800b372:	d202      	bcs.n	800b37a <__divdi3+0x142>
 800b374:	42a8      	cmp	r0, r5
 800b376:	f200 80b2 	bhi.w	800b4de <__divdi3+0x2a6>
 800b37a:	460b      	mov	r3, r1
 800b37c:	ea43 430c 	orr.w	r3, r3, ip, lsl #16
 800b380:	e7ae      	b.n	800b2e0 <__divdi3+0xa8>
 800b382:	4252      	negs	r2, r2
 800b384:	ea6f 0606 	mvn.w	r6, r6
 800b388:	eb63 0343 	sbc.w	r3, r3, r3, lsl #1
 800b38c:	e75d      	b.n	800b24a <__divdi3+0x12>
 800b38e:	4240      	negs	r0, r0
 800b390:	eb61 0141 	sbc.w	r1, r1, r1, lsl #1
 800b394:	f04f 36ff 	mov.w	r6, #4294967295
 800b398:	e754      	b.n	800b244 <__divdi3+0xc>
 800b39a:	fa07 f708 	lsl.w	r7, r7, r8
 800b39e:	f1c8 0220 	rsb	r2, r8, #32
 800b3a2:	fa25 f302 	lsr.w	r3, r5, r2
 800b3a6:	0c39      	lsrs	r1, r7, #16
 800b3a8:	fbb3 fef1 	udiv	lr, r3, r1
 800b3ac:	b2b8      	uxth	r0, r7
 800b3ae:	fb01 331e 	mls	r3, r1, lr, r3
 800b3b2:	fa24 f202 	lsr.w	r2, r4, r2
 800b3b6:	fa05 f508 	lsl.w	r5, r5, r8
 800b3ba:	fb00 f90e 	mul.w	r9, r0, lr
 800b3be:	432a      	orrs	r2, r5
 800b3c0:	ea4f 4c12 	mov.w	ip, r2, lsr #16
 800b3c4:	ea4c 4303 	orr.w	r3, ip, r3, lsl #16
 800b3c8:	4599      	cmp	r9, r3
 800b3ca:	fa04 f408 	lsl.w	r4, r4, r8
 800b3ce:	d908      	bls.n	800b3e2 <__divdi3+0x1aa>
 800b3d0:	19db      	adds	r3, r3, r7
 800b3d2:	f10e 35ff 	add.w	r5, lr, #4294967295
 800b3d6:	d27c      	bcs.n	800b4d2 <__divdi3+0x29a>
 800b3d8:	4599      	cmp	r9, r3
 800b3da:	d97a      	bls.n	800b4d2 <__divdi3+0x29a>
 800b3dc:	f1ae 0e02 	sub.w	lr, lr, #2
 800b3e0:	443b      	add	r3, r7
 800b3e2:	ebc9 0303 	rsb	r3, r9, r3
 800b3e6:	fbb3 fcf1 	udiv	ip, r3, r1
 800b3ea:	fb01 331c 	mls	r3, r1, ip, r3
 800b3ee:	fb00 f50c 	mul.w	r5, r0, ip
 800b3f2:	b292      	uxth	r2, r2
 800b3f4:	ea42 4303 	orr.w	r3, r2, r3, lsl #16
 800b3f8:	429d      	cmp	r5, r3
 800b3fa:	d908      	bls.n	800b40e <__divdi3+0x1d6>
 800b3fc:	19db      	adds	r3, r3, r7
 800b3fe:	f10c 32ff 	add.w	r2, ip, #4294967295
 800b402:	d25e      	bcs.n	800b4c2 <__divdi3+0x28a>
 800b404:	429d      	cmp	r5, r3
 800b406:	d95c      	bls.n	800b4c2 <__divdi3+0x28a>
 800b408:	f1ac 0c02 	sub.w	ip, ip, #2
 800b40c:	443b      	add	r3, r7
 800b40e:	1b5d      	subs	r5, r3, r5
 800b410:	ea4c 420e 	orr.w	r2, ip, lr, lsl #16
 800b414:	e78a      	b.n	800b32c <__divdi3+0xf4>
 800b416:	f1c2 0320 	rsb	r3, r2, #32
 800b41a:	fa28 f103 	lsr.w	r1, r8, r3
 800b41e:	fa0c fc02 	lsl.w	ip, ip, r2
 800b422:	ea41 0c0c 	orr.w	ip, r1, ip
 800b426:	ea4f 401c 	mov.w	r0, ip, lsr #16
 800b42a:	fa2e f103 	lsr.w	r1, lr, r3
 800b42e:	fbb1 f5f0 	udiv	r5, r1, r0
 800b432:	fa1f f78c 	uxth.w	r7, ip
 800b436:	fb00 1115 	mls	r1, r0, r5, r1
 800b43a:	fa29 f303 	lsr.w	r3, r9, r3
 800b43e:	fa0e fe02 	lsl.w	lr, lr, r2
 800b442:	fb07 f905 	mul.w	r9, r7, r5
 800b446:	ea43 0e0e 	orr.w	lr, r3, lr
 800b44a:	ea4f 431e 	mov.w	r3, lr, lsr #16
 800b44e:	ea43 4101 	orr.w	r1, r3, r1, lsl #16
 800b452:	4589      	cmp	r9, r1
 800b454:	fa08 f802 	lsl.w	r8, r8, r2
 800b458:	d908      	bls.n	800b46c <__divdi3+0x234>
 800b45a:	eb11 010c 	adds.w	r1, r1, ip
 800b45e:	f105 33ff 	add.w	r3, r5, #4294967295
 800b462:	d234      	bcs.n	800b4ce <__divdi3+0x296>
 800b464:	4589      	cmp	r9, r1
 800b466:	d932      	bls.n	800b4ce <__divdi3+0x296>
 800b468:	3d02      	subs	r5, #2
 800b46a:	4461      	add	r1, ip
 800b46c:	ebc9 0101 	rsb	r1, r9, r1
 800b470:	fbb1 f3f0 	udiv	r3, r1, r0
 800b474:	fb00 1113 	mls	r1, r0, r3, r1
 800b478:	fb07 f703 	mul.w	r7, r7, r3
 800b47c:	fa1f fe8e 	uxth.w	lr, lr
 800b480:	ea4e 4e01 	orr.w	lr, lr, r1, lsl #16
 800b484:	4577      	cmp	r7, lr
 800b486:	d908      	bls.n	800b49a <__divdi3+0x262>
 800b488:	eb1e 0e0c 	adds.w	lr, lr, ip
 800b48c:	f103 31ff 	add.w	r1, r3, #4294967295
 800b490:	d219      	bcs.n	800b4c6 <__divdi3+0x28e>
 800b492:	4577      	cmp	r7, lr
 800b494:	d917      	bls.n	800b4c6 <__divdi3+0x28e>
 800b496:	3b02      	subs	r3, #2
 800b498:	44e6      	add	lr, ip
 800b49a:	ea43 4305 	orr.w	r3, r3, r5, lsl #16
 800b49e:	fba3 8908 	umull	r8, r9, r3, r8
 800b4a2:	ebc7 0e0e 	rsb	lr, r7, lr
 800b4a6:	45ce      	cmp	lr, r9
 800b4a8:	d309      	bcc.n	800b4be <__divdi3+0x286>
 800b4aa:	d005      	beq.n	800b4b8 <__divdi3+0x280>
 800b4ac:	2200      	movs	r2, #0
 800b4ae:	e717      	b.n	800b2e0 <__divdi3+0xa8>
 800b4b0:	4610      	mov	r0, r2
 800b4b2:	e6f8      	b.n	800b2a6 <__divdi3+0x6e>
 800b4b4:	4613      	mov	r3, r2
 800b4b6:	e70b      	b.n	800b2d0 <__divdi3+0x98>
 800b4b8:	4094      	lsls	r4, r2
 800b4ba:	4544      	cmp	r4, r8
 800b4bc:	d2f6      	bcs.n	800b4ac <__divdi3+0x274>
 800b4be:	3b01      	subs	r3, #1
 800b4c0:	e7f4      	b.n	800b4ac <__divdi3+0x274>
 800b4c2:	4694      	mov	ip, r2
 800b4c4:	e7a3      	b.n	800b40e <__divdi3+0x1d6>
 800b4c6:	460b      	mov	r3, r1
 800b4c8:	e7e7      	b.n	800b49a <__divdi3+0x262>
 800b4ca:	4613      	mov	r3, r2
 800b4cc:	e708      	b.n	800b2e0 <__divdi3+0xa8>
 800b4ce:	461d      	mov	r5, r3
 800b4d0:	e7cc      	b.n	800b46c <__divdi3+0x234>
 800b4d2:	46ae      	mov	lr, r5
 800b4d4:	e785      	b.n	800b3e2 <__divdi3+0x1aa>
 800b4d6:	f1ac 0c02 	sub.w	ip, ip, #2
 800b4da:	443d      	add	r5, r7
 800b4dc:	e73a      	b.n	800b354 <__divdi3+0x11c>
 800b4de:	3b02      	subs	r3, #2
 800b4e0:	e74c      	b.n	800b37c <__divdi3+0x144>
 800b4e2:	bf00      	nop

0800b4e4 <__udivdi3>:
 800b4e4:	e92d 43f0 	stmdb	sp!, {r4, r5, r6, r7, r8, r9, lr}
 800b4e8:	2b00      	cmp	r3, #0
 800b4ea:	d144      	bne.n	800b576 <__udivdi3+0x92>
 800b4ec:	428a      	cmp	r2, r1
 800b4ee:	4615      	mov	r5, r2
 800b4f0:	4604      	mov	r4, r0
 800b4f2:	d94f      	bls.n	800b594 <__udivdi3+0xb0>
 800b4f4:	fab2 f782 	clz	r7, r2
 800b4f8:	460e      	mov	r6, r1
 800b4fa:	b14f      	cbz	r7, 800b510 <__udivdi3+0x2c>
 800b4fc:	f1c7 0320 	rsb	r3, r7, #32
 800b500:	40b9      	lsls	r1, r7
 800b502:	fa20 f603 	lsr.w	r6, r0, r3
 800b506:	fa02 f507 	lsl.w	r5, r2, r7
 800b50a:	430e      	orrs	r6, r1
 800b50c:	fa00 f407 	lsl.w	r4, r0, r7
 800b510:	0c2f      	lsrs	r7, r5, #16
 800b512:	fbb6 f0f7 	udiv	r0, r6, r7
 800b516:	fa1f fe85 	uxth.w	lr, r5
 800b51a:	fb07 6210 	mls	r2, r7, r0, r6
 800b51e:	fb0e f100 	mul.w	r1, lr, r0
 800b522:	0c26      	lsrs	r6, r4, #16
 800b524:	ea46 4302 	orr.w	r3, r6, r2, lsl #16
 800b528:	4299      	cmp	r1, r3
 800b52a:	d909      	bls.n	800b540 <__udivdi3+0x5c>
 800b52c:	195b      	adds	r3, r3, r5
 800b52e:	f100 32ff 	add.w	r2, r0, #4294967295
 800b532:	f080 80f4 	bcs.w	800b71e <__udivdi3+0x23a>
 800b536:	4299      	cmp	r1, r3
 800b538:	f240 80f1 	bls.w	800b71e <__udivdi3+0x23a>
 800b53c:	3802      	subs	r0, #2
 800b53e:	442b      	add	r3, r5
 800b540:	1a59      	subs	r1, r3, r1
 800b542:	fbb1 f3f7 	udiv	r3, r1, r7
 800b546:	fb07 1113 	mls	r1, r7, r3, r1
 800b54a:	fb0e fe03 	mul.w	lr, lr, r3
 800b54e:	b2a4      	uxth	r4, r4
 800b550:	ea44 4101 	orr.w	r1, r4, r1, lsl #16
 800b554:	458e      	cmp	lr, r1
 800b556:	d908      	bls.n	800b56a <__udivdi3+0x86>
 800b558:	1949      	adds	r1, r1, r5
 800b55a:	f103 32ff 	add.w	r2, r3, #4294967295
 800b55e:	f080 80e8 	bcs.w	800b732 <__udivdi3+0x24e>
 800b562:	458e      	cmp	lr, r1
 800b564:	f240 80e5 	bls.w	800b732 <__udivdi3+0x24e>
 800b568:	3b02      	subs	r3, #2
 800b56a:	2600      	movs	r6, #0
 800b56c:	ea43 4000 	orr.w	r0, r3, r0, lsl #16
 800b570:	4631      	mov	r1, r6
 800b572:	e8bd 83f0 	ldmia.w	sp!, {r4, r5, r6, r7, r8, r9, pc}
 800b576:	428b      	cmp	r3, r1
 800b578:	d847      	bhi.n	800b60a <__udivdi3+0x126>
 800b57a:	fab3 f683 	clz	r6, r3
 800b57e:	2e00      	cmp	r6, #0
 800b580:	d148      	bne.n	800b614 <__udivdi3+0x130>
 800b582:	428b      	cmp	r3, r1
 800b584:	d302      	bcc.n	800b58c <__udivdi3+0xa8>
 800b586:	4282      	cmp	r2, r0
 800b588:	f200 80d5 	bhi.w	800b736 <__udivdi3+0x252>
 800b58c:	2001      	movs	r0, #1
 800b58e:	4631      	mov	r1, r6
 800b590:	e8bd 83f0 	ldmia.w	sp!, {r4, r5, r6, r7, r8, r9, pc}
 800b594:	b912      	cbnz	r2, 800b59c <__udivdi3+0xb8>
 800b596:	2501      	movs	r5, #1
 800b598:	fbb5 f5f2 	udiv	r5, r5, r2
 800b59c:	fab5 fc85 	clz	ip, r5
 800b5a0:	f1bc 0f00 	cmp.w	ip, #0
 800b5a4:	d17f      	bne.n	800b6a6 <__udivdi3+0x1c2>
 800b5a6:	2601      	movs	r6, #1
 800b5a8:	1b49      	subs	r1, r1, r5
 800b5aa:	fa1f fe85 	uxth.w	lr, r5
 800b5ae:	0c2f      	lsrs	r7, r5, #16
 800b5b0:	fbb1 f0f7 	udiv	r0, r1, r7
 800b5b4:	fb07 1110 	mls	r1, r7, r0, r1
 800b5b8:	fb0e f200 	mul.w	r2, lr, r0
 800b5bc:	0c23      	lsrs	r3, r4, #16
 800b5be:	ea43 4101 	orr.w	r1, r3, r1, lsl #16
 800b5c2:	428a      	cmp	r2, r1
 800b5c4:	d907      	bls.n	800b5d6 <__udivdi3+0xf2>
 800b5c6:	1949      	adds	r1, r1, r5
 800b5c8:	f100 33ff 	add.w	r3, r0, #4294967295
 800b5cc:	d202      	bcs.n	800b5d4 <__udivdi3+0xf0>
 800b5ce:	428a      	cmp	r2, r1
 800b5d0:	f200 80bb 	bhi.w	800b74a <__udivdi3+0x266>
 800b5d4:	4618      	mov	r0, r3
 800b5d6:	1a89      	subs	r1, r1, r2
 800b5d8:	fbb1 f3f7 	udiv	r3, r1, r7
 800b5dc:	fb07 1113 	mls	r1, r7, r3, r1
 800b5e0:	fb0e fe03 	mul.w	lr, lr, r3
 800b5e4:	b2a4      	uxth	r4, r4
 800b5e6:	ea44 4201 	orr.w	r2, r4, r1, lsl #16
 800b5ea:	4596      	cmp	lr, r2
 800b5ec:	d908      	bls.n	800b600 <__udivdi3+0x11c>
 800b5ee:	1952      	adds	r2, r2, r5
 800b5f0:	f103 31ff 	add.w	r1, r3, #4294967295
 800b5f4:	f080 809b 	bcs.w	800b72e <__udivdi3+0x24a>
 800b5f8:	4596      	cmp	lr, r2
 800b5fa:	f240 8098 	bls.w	800b72e <__udivdi3+0x24a>
 800b5fe:	3b02      	subs	r3, #2
 800b600:	ea43 4000 	orr.w	r0, r3, r0, lsl #16
 800b604:	4631      	mov	r1, r6
 800b606:	e8bd 83f0 	ldmia.w	sp!, {r4, r5, r6, r7, r8, r9, pc}
 800b60a:	2600      	movs	r6, #0
 800b60c:	4630      	mov	r0, r6
 800b60e:	4631      	mov	r1, r6
 800b610:	e8bd 83f0 	ldmia.w	sp!, {r4, r5, r6, r7, r8, r9, pc}
 800b614:	f1c6 0420 	rsb	r4, r6, #32
 800b618:	fa22 f504 	lsr.w	r5, r2, r4
 800b61c:	40b3      	lsls	r3, r6
 800b61e:	432b      	orrs	r3, r5
 800b620:	fa21 f704 	lsr.w	r7, r1, r4
 800b624:	ea4f 4813 	mov.w	r8, r3, lsr #16
 800b628:	fbb7 fcf8 	udiv	ip, r7, r8
 800b62c:	fa1f f983 	uxth.w	r9, r3
 800b630:	fb08 771c 	mls	r7, r8, ip, r7
 800b634:	fa20 fe04 	lsr.w	lr, r0, r4
 800b638:	fa01 f506 	lsl.w	r5, r1, r6
 800b63c:	fb09 f40c 	mul.w	r4, r9, ip
 800b640:	ea4e 0505 	orr.w	r5, lr, r5
 800b644:	ea4f 4e15 	mov.w	lr, r5, lsr #16
 800b648:	ea4e 4707 	orr.w	r7, lr, r7, lsl #16
 800b64c:	42bc      	cmp	r4, r7
 800b64e:	fa02 f206 	lsl.w	r2, r2, r6
 800b652:	d908      	bls.n	800b666 <__udivdi3+0x182>
 800b654:	18ff      	adds	r7, r7, r3
 800b656:	f10c 31ff 	add.w	r1, ip, #4294967295
 800b65a:	d26e      	bcs.n	800b73a <__udivdi3+0x256>
 800b65c:	42bc      	cmp	r4, r7
 800b65e:	d96c      	bls.n	800b73a <__udivdi3+0x256>
 800b660:	f1ac 0c02 	sub.w	ip, ip, #2
 800b664:	441f      	add	r7, r3
 800b666:	1b3f      	subs	r7, r7, r4
 800b668:	fbb7 f4f8 	udiv	r4, r7, r8
 800b66c:	fb08 7714 	mls	r7, r8, r4, r7
 800b670:	fb09 f904 	mul.w	r9, r9, r4
 800b674:	b2ad      	uxth	r5, r5
 800b676:	ea45 4107 	orr.w	r1, r5, r7, lsl #16
 800b67a:	4589      	cmp	r9, r1
 800b67c:	d907      	bls.n	800b68e <__udivdi3+0x1aa>
 800b67e:	18c9      	adds	r1, r1, r3
 800b680:	f104 35ff 	add.w	r5, r4, #4294967295
 800b684:	d25b      	bcs.n	800b73e <__udivdi3+0x25a>
 800b686:	4589      	cmp	r9, r1
 800b688:	d959      	bls.n	800b73e <__udivdi3+0x25a>
 800b68a:	3c02      	subs	r4, #2
 800b68c:	4419      	add	r1, r3
 800b68e:	ea44 440c 	orr.w	r4, r4, ip, lsl #16
 800b692:	fba4 2302 	umull	r2, r3, r4, r2
 800b696:	ebc9 0101 	rsb	r1, r9, r1
 800b69a:	4299      	cmp	r1, r3
 800b69c:	d344      	bcc.n	800b728 <__udivdi3+0x244>
 800b69e:	d040      	beq.n	800b722 <__udivdi3+0x23e>
 800b6a0:	4620      	mov	r0, r4
 800b6a2:	2600      	movs	r6, #0
 800b6a4:	e764      	b.n	800b570 <__udivdi3+0x8c>
 800b6a6:	fa05 f50c 	lsl.w	r5, r5, ip
 800b6aa:	f1cc 0220 	rsb	r2, ip, #32
 800b6ae:	fa21 f302 	lsr.w	r3, r1, r2
 800b6b2:	0c2f      	lsrs	r7, r5, #16
 800b6b4:	fbb3 f6f7 	udiv	r6, r3, r7
 800b6b8:	fa1f fe85 	uxth.w	lr, r5
 800b6bc:	fb07 3816 	mls	r8, r7, r6, r3
 800b6c0:	fa20 f202 	lsr.w	r2, r0, r2
 800b6c4:	fa01 f10c 	lsl.w	r1, r1, ip
 800b6c8:	fb0e f906 	mul.w	r9, lr, r6
 800b6cc:	430a      	orrs	r2, r1
 800b6ce:	0c14      	lsrs	r4, r2, #16
 800b6d0:	ea44 4308 	orr.w	r3, r4, r8, lsl #16
 800b6d4:	4599      	cmp	r9, r3
 800b6d6:	fa00 f40c 	lsl.w	r4, r0, ip
 800b6da:	d907      	bls.n	800b6ec <__udivdi3+0x208>
 800b6dc:	195b      	adds	r3, r3, r5
 800b6de:	f106 31ff 	add.w	r1, r6, #4294967295
 800b6e2:	d230      	bcs.n	800b746 <__udivdi3+0x262>
 800b6e4:	4599      	cmp	r9, r3
 800b6e6:	d92e      	bls.n	800b746 <__udivdi3+0x262>
 800b6e8:	3e02      	subs	r6, #2
 800b6ea:	442b      	add	r3, r5
 800b6ec:	ebc9 0303 	rsb	r3, r9, r3
 800b6f0:	fbb3 f0f7 	udiv	r0, r3, r7
 800b6f4:	fb07 3310 	mls	r3, r7, r0, r3
 800b6f8:	fb0e f100 	mul.w	r1, lr, r0
 800b6fc:	b292      	uxth	r2, r2
 800b6fe:	ea42 4303 	orr.w	r3, r2, r3, lsl #16
 800b702:	4299      	cmp	r1, r3
 800b704:	d907      	bls.n	800b716 <__udivdi3+0x232>
 800b706:	195b      	adds	r3, r3, r5
 800b708:	f100 32ff 	add.w	r2, r0, #4294967295
 800b70c:	d219      	bcs.n	800b742 <__udivdi3+0x25e>
 800b70e:	4299      	cmp	r1, r3
 800b710:	d917      	bls.n	800b742 <__udivdi3+0x25e>
 800b712:	3802      	subs	r0, #2
 800b714:	442b      	add	r3, r5
 800b716:	1a59      	subs	r1, r3, r1
 800b718:	ea40 4606 	orr.w	r6, r0, r6, lsl #16
 800b71c:	e748      	b.n	800b5b0 <__udivdi3+0xcc>
 800b71e:	4610      	mov	r0, r2
 800b720:	e70e      	b.n	800b540 <__udivdi3+0x5c>
 800b722:	40b0      	lsls	r0, r6
 800b724:	4290      	cmp	r0, r2
 800b726:	d2bb      	bcs.n	800b6a0 <__udivdi3+0x1bc>
 800b728:	1e60      	subs	r0, r4, #1
 800b72a:	2600      	movs	r6, #0
 800b72c:	e720      	b.n	800b570 <__udivdi3+0x8c>
 800b72e:	460b      	mov	r3, r1
 800b730:	e766      	b.n	800b600 <__udivdi3+0x11c>
 800b732:	4613      	mov	r3, r2
 800b734:	e719      	b.n	800b56a <__udivdi3+0x86>
 800b736:	4630      	mov	r0, r6
 800b738:	e71a      	b.n	800b570 <__udivdi3+0x8c>
 800b73a:	468c      	mov	ip, r1
 800b73c:	e793      	b.n	800b666 <__udivdi3+0x182>
 800b73e:	462c      	mov	r4, r5
 800b740:	e7a5      	b.n	800b68e <__udivdi3+0x1aa>
 800b742:	4610      	mov	r0, r2
 800b744:	e7e7      	b.n	800b716 <__udivdi3+0x232>
 800b746:	460e      	mov	r6, r1
 800b748:	e7d0      	b.n	800b6ec <__udivdi3+0x208>
 800b74a:	3802      	subs	r0, #2
 800b74c:	4429      	add	r1, r5
 800b74e:	e742      	b.n	800b5d6 <__udivdi3+0xf2>
