
try_u073:     file format elf32-littlearm


Disassembly of section .text:

08000000 <__vectors0>:
 8000000:	200025d0 	.word	0x200025d0
 8000004:	08008dc9 	.word	0x08008dc9
 8000008:	08008e6e 	.word	0x08008e6e
 800000c:	08008e6e 	.word	0x08008e6e
 8000010:	08008e6e 	.word	0x08008e6e

08000014 <local_id>:
 8000014:	facefeed 	.word	0xfacefeed

08000018 <try_u073__my_delay.4163>:
 8000018:	b5b0      	push	{r4, r5, r7, lr}
 800001a:	b082      	sub	sp, #8
 800001c:	af00      	add	r7, sp, #0
 800001e:	4663      	mov	r3, ip
 8000020:	607b      	str	r3, [r7, #4]
 8000022:	f006 ff95 	bl	8006f50 <ada__real_time__clock>
 8000026:	0004      	movs	r4, r0
 8000028:	000d      	movs	r5, r1
 800002a:	23fa      	movs	r3, #250	; 0xfa
 800002c:	005b      	lsls	r3, r3, #1
 800002e:	0018      	movs	r0, r3
 8000030:	f006 ff92 	bl	8006f58 <ada__real_time__milliseconds>
 8000034:	0002      	movs	r2, r0
 8000036:	000b      	movs	r3, r1
 8000038:	0020      	movs	r0, r4
 800003a:	0029      	movs	r1, r5
 800003c:	f006 ff30 	bl	8006ea0 <ada__real_time__Oadd>
 8000040:	0003      	movs	r3, r0
 8000042:	000c      	movs	r4, r1
 8000044:	0018      	movs	r0, r3
 8000046:	0021      	movs	r1, r4
 8000048:	f006 ffc6 	bl	8006fd8 <ada__real_time__delays__delay_until>
 800004c:	46bd      	mov	sp, r7
 800004e:	b002      	add	sp, #8
 8000050:	bdb0      	pop	{r4, r5, r7, pc}
 8000052:	46c0      	nop			; (mov r8, r8)

08000054 <_ada_try_u073>:
 8000054:	b580      	push	{r7, lr}
 8000056:	b082      	sub	sp, #8
 8000058:	af00      	add	r7, sp, #0
 800005a:	2310      	movs	r3, #16
 800005c:	18fb      	adds	r3, r7, r3
 800005e:	607b      	str	r3, [r7, #4]
 8000060:	f000 f8ee 	bl	8000240 <stm32__board__initialize_board>
 8000064:	4b08      	ldr	r3, [pc, #32]	; (8000088 <_ada_try_u073+0x34>)
 8000066:	0018      	movs	r0, r3
 8000068:	f001 fa94 	bl	8001594 <stm32__gpio__clear>
 800006c:	1d3b      	adds	r3, r7, #4
 800006e:	469c      	mov	ip, r3
 8000070:	f7ff ffd2 	bl	8000018 <try_u073__my_delay.4163>
 8000074:	4b04      	ldr	r3, [pc, #16]	; (8000088 <_ada_try_u073+0x34>)
 8000076:	0018      	movs	r0, r3
 8000078:	f001 fa58 	bl	800152c <stm32__gpio__set__2>
 800007c:	1d3b      	adds	r3, r7, #4
 800007e:	469c      	mov	ip, r3
 8000080:	f7ff ffca 	bl	8000018 <try_u073__my_delay.4163>
 8000084:	e7ee      	b.n	8000064 <_ada_try_u073+0x10>
 8000086:	46c0      	nop			; (mov r8, r8)
 8000088:	200004ac 	.word	0x200004ac

0800008c <ada_main__Tsec_default_sized_stacksBIP>:
 800008c:	b5f0      	push	{r4, r5, r6, r7, lr}
 800008e:	b083      	sub	sp, #12
 8000090:	af00      	add	r7, sp, #0
 8000092:	6038      	str	r0, [r7, #0]
 8000094:	6079      	str	r1, [r7, #4]
 8000096:	687b      	ldr	r3, [r7, #4]
 8000098:	681b      	ldr	r3, [r3, #0]
 800009a:	001e      	movs	r6, r3
 800009c:	687b      	ldr	r3, [r7, #4]
 800009e:	681c      	ldr	r4, [r3, #0]
 80000a0:	687b      	ldr	r3, [r7, #4]
 80000a2:	685d      	ldr	r5, [r3, #4]
 80000a4:	42ac      	cmp	r4, r5
 80000a6:	dc11      	bgt.n	80000cc <ada_main__Tsec_default_sized_stacksBIP+0x40>
 80000a8:	6839      	ldr	r1, [r7, #0]
 80000aa:	0023      	movs	r3, r4
 80000ac:	1b9a      	subs	r2, r3, r6
 80000ae:	0013      	movs	r3, r2
 80000b0:	015b      	lsls	r3, r3, #5
 80000b2:	189b      	adds	r3, r3, r2
 80000b4:	011b      	lsls	r3, r3, #4
 80000b6:	18ca      	adds	r2, r1, r3
 80000b8:	2380      	movs	r3, #128	; 0x80
 80000ba:	009b      	lsls	r3, r3, #2
 80000bc:	0019      	movs	r1, r3
 80000be:	0010      	movs	r0, r2
 80000c0:	f008 fe18 	bl	8008cf4 <system__secondary_stack__ss_stackIP>
 80000c4:	42ac      	cmp	r4, r5
 80000c6:	d001      	beq.n	80000cc <ada_main__Tsec_default_sized_stacksBIP+0x40>
 80000c8:	3401      	adds	r4, #1
 80000ca:	e7ed      	b.n	80000a8 <ada_main__Tsec_default_sized_stacksBIP+0x1c>
 80000cc:	46bd      	mov	sp, r7
 80000ce:	b003      	add	sp, #12
 80000d0:	bdf0      	pop	{r4, r5, r6, r7, pc}
 80000d2:	46c0      	nop			; (mov r8, r8)

080000d4 <adainit>:
 80000d4:	b580      	push	{r7, lr}
 80000d6:	af00      	add	r7, sp, #0
 80000d8:	46c0      	nop			; (mov r8, r8)
 80000da:	f000 f883 	bl	80001e4 <ada_main___elabb>
 80000de:	4b2c      	ldr	r3, [pc, #176]	; (8000190 <adainit+0xbc>)
 80000e0:	2280      	movs	r2, #128	; 0x80
 80000e2:	0092      	lsls	r2, r2, #2
 80000e4:	601a      	str	r2, [r3, #0]
 80000e6:	4b2b      	ldr	r3, [pc, #172]	; (8000194 <adainit+0xc0>)
 80000e8:	2201      	movs	r2, #1
 80000ea:	601a      	str	r2, [r3, #0]
 80000ec:	4a2a      	ldr	r2, [pc, #168]	; (8000198 <adainit+0xc4>)
 80000ee:	4b2b      	ldr	r3, [pc, #172]	; (800019c <adainit+0xc8>)
 80000f0:	601a      	str	r2, [r3, #0]
 80000f2:	f006 ff6d 	bl	8006fd0 <ada__real_time___elabb>
 80000f6:	4b2a      	ldr	r3, [pc, #168]	; (80001a0 <adainit+0xcc>)
 80000f8:	881b      	ldrh	r3, [r3, #0]
 80000fa:	b21b      	sxth	r3, r3
 80000fc:	3301      	adds	r3, #1
 80000fe:	b21a      	sxth	r2, r3
 8000100:	4b27      	ldr	r3, [pc, #156]	; (80001a0 <adainit+0xcc>)
 8000102:	801a      	strh	r2, [r3, #0]
 8000104:	f008 fb26 	bl	8008754 <ada__text_io___elabb>
 8000108:	4b26      	ldr	r3, [pc, #152]	; (80001a4 <adainit+0xd0>)
 800010a:	881b      	ldrh	r3, [r3, #0]
 800010c:	b21b      	sxth	r3, r3
 800010e:	3301      	adds	r3, #1
 8000110:	b21a      	sxth	r2, r3
 8000112:	4b24      	ldr	r3, [pc, #144]	; (80001a4 <adainit+0xd0>)
 8000114:	801a      	strh	r2, [r3, #0]
 8000116:	4b24      	ldr	r3, [pc, #144]	; (80001a8 <adainit+0xd4>)
 8000118:	881b      	ldrh	r3, [r3, #0]
 800011a:	b21b      	sxth	r3, r3
 800011c:	3301      	adds	r3, #1
 800011e:	b21a      	sxth	r2, r3
 8000120:	4b21      	ldr	r3, [pc, #132]	; (80001a8 <adainit+0xd4>)
 8000122:	801a      	strh	r2, [r3, #0]
 8000124:	4b21      	ldr	r3, [pc, #132]	; (80001ac <adainit+0xd8>)
 8000126:	881b      	ldrh	r3, [r3, #0]
 8000128:	b21b      	sxth	r3, r3
 800012a:	3301      	adds	r3, #1
 800012c:	b21a      	sxth	r2, r3
 800012e:	4b1f      	ldr	r3, [pc, #124]	; (80001ac <adainit+0xd8>)
 8000130:	801a      	strh	r2, [r3, #0]
 8000132:	4b1f      	ldr	r3, [pc, #124]	; (80001b0 <adainit+0xdc>)
 8000134:	881b      	ldrh	r3, [r3, #0]
 8000136:	b21b      	sxth	r3, r3
 8000138:	3301      	adds	r3, #1
 800013a:	b21a      	sxth	r2, r3
 800013c:	4b1c      	ldr	r3, [pc, #112]	; (80001b0 <adainit+0xdc>)
 800013e:	801a      	strh	r2, [r3, #0]
 8000140:	4b1c      	ldr	r3, [pc, #112]	; (80001b4 <adainit+0xe0>)
 8000142:	881b      	ldrh	r3, [r3, #0]
 8000144:	b21b      	sxth	r3, r3
 8000146:	3301      	adds	r3, #1
 8000148:	b21a      	sxth	r2, r3
 800014a:	4b1a      	ldr	r3, [pc, #104]	; (80001b4 <adainit+0xe0>)
 800014c:	801a      	strh	r2, [r3, #0]
 800014e:	4b1a      	ldr	r3, [pc, #104]	; (80001b8 <adainit+0xe4>)
 8000150:	881b      	ldrh	r3, [r3, #0]
 8000152:	b21b      	sxth	r3, r3
 8000154:	3301      	adds	r3, #1
 8000156:	b21a      	sxth	r2, r3
 8000158:	4b17      	ldr	r3, [pc, #92]	; (80001b8 <adainit+0xe4>)
 800015a:	801a      	strh	r2, [r3, #0]
 800015c:	f000 f9a8 	bl	80004b0 <stm32__device___elabs>
 8000160:	4b16      	ldr	r3, [pc, #88]	; (80001bc <adainit+0xe8>)
 8000162:	881b      	ldrh	r3, [r3, #0]
 8000164:	b21b      	sxth	r3, r3
 8000166:	3301      	adds	r3, #1
 8000168:	b21a      	sxth	r2, r3
 800016a:	4b14      	ldr	r3, [pc, #80]	; (80001bc <adainit+0xe8>)
 800016c:	801a      	strh	r2, [r3, #0]
 800016e:	4b14      	ldr	r3, [pc, #80]	; (80001c0 <adainit+0xec>)
 8000170:	881b      	ldrh	r3, [r3, #0]
 8000172:	b21b      	sxth	r3, r3
 8000174:	3301      	adds	r3, #1
 8000176:	b21a      	sxth	r2, r3
 8000178:	4b11      	ldr	r3, [pc, #68]	; (80001c0 <adainit+0xec>)
 800017a:	801a      	strh	r2, [r3, #0]
 800017c:	4b11      	ldr	r3, [pc, #68]	; (80001c4 <adainit+0xf0>)
 800017e:	881b      	ldrh	r3, [r3, #0]
 8000180:	b21b      	sxth	r3, r3
 8000182:	3301      	adds	r3, #1
 8000184:	b21a      	sxth	r2, r3
 8000186:	4b0f      	ldr	r3, [pc, #60]	; (80001c4 <adainit+0xf0>)
 8000188:	801a      	strh	r2, [r3, #0]
 800018a:	46bd      	mov	sp, r7
 800018c:	bd80      	pop	{r7, pc}
 800018e:	46c0      	nop			; (mov r8, r8)
 8000190:	200011cc 	.word	0x200011cc
 8000194:	200011c4 	.word	0x200011c4
 8000198:	20000080 	.word	0x20000080
 800019c:	200011c8 	.word	0x200011c8
 80001a0:	20000010 	.word	0x20000010
 80001a4:	20000070 	.word	0x20000070
 80001a8:	20000000 	.word	0x20000000
 80001ac:	20000004 	.word	0x20000004
 80001b0:	20000008 	.word	0x20000008
 80001b4:	2000000a 	.word	0x2000000a
 80001b8:	2000000c 	.word	0x2000000c
 80001bc:	20000002 	.word	0x20000002
 80001c0:	2000000e 	.word	0x2000000e
 80001c4:	20000006 	.word	0x20000006

080001c8 <main>:
 80001c8:	b580      	push	{r7, lr}
 80001ca:	b082      	sub	sp, #8
 80001cc:	af00      	add	r7, sp, #0
 80001ce:	4b04      	ldr	r3, [pc, #16]	; (80001e0 <main+0x18>)
 80001d0:	607b      	str	r3, [r7, #4]
 80001d2:	f7ff ff7f 	bl	80000d4 <adainit>
 80001d6:	f7ff ff3d 	bl	8000054 <_ada_try_u073>
 80001da:	46bd      	mov	sp, r7
 80001dc:	b002      	add	sp, #8
 80001de:	bd80      	pop	{r7, pc}
 80001e0:	08009484 	.word	0x08009484

080001e4 <ada_main___elabb>:
 80001e4:	b580      	push	{r7, lr}
 80001e6:	af00      	add	r7, sp, #0
 80001e8:	4b04      	ldr	r3, [pc, #16]	; (80001fc <ada_main___elabb+0x18>)
 80001ea:	0019      	movs	r1, r3
 80001ec:	4b04      	ldr	r3, [pc, #16]	; (8000200 <ada_main___elabb+0x1c>)
 80001ee:	001a      	movs	r2, r3
 80001f0:	0008      	movs	r0, r1
 80001f2:	0011      	movs	r1, r2
 80001f4:	f7ff ff4a 	bl	800008c <ada_main__Tsec_default_sized_stacksBIP>
 80001f8:	46bd      	mov	sp, r7
 80001fa:	bd80      	pop	{r7, pc}
 80001fc:	20000080 	.word	0x20000080
 8000200:	0800947c 	.word	0x0800947c

08000204 <stm32__board__initialize_leds>:
 8000204:	b580      	push	{r7, lr}
 8000206:	b082      	sub	sp, #8
 8000208:	af00      	add	r7, sp, #0
 800020a:	4b0c      	ldr	r3, [pc, #48]	; (800023c <stm32__board__initialize_leds+0x38>)
 800020c:	0018      	movs	r0, r3
 800020e:	f000 f937 	bl	8000480 <stm32__device__enable_clock__2>
 8000212:	1d3b      	adds	r3, r7, #4
 8000214:	2201      	movs	r2, #1
 8000216:	701a      	strb	r2, [r3, #0]
 8000218:	1d3b      	adds	r3, r7, #4
 800021a:	2200      	movs	r2, #0
 800021c:	705a      	strb	r2, [r3, #1]
 800021e:	1d3b      	adds	r3, r7, #4
 8000220:	2200      	movs	r2, #0
 8000222:	709a      	strb	r2, [r3, #2]
 8000224:	1d3b      	adds	r3, r7, #4
 8000226:	2200      	movs	r2, #0
 8000228:	70da      	strb	r2, [r3, #3]
 800022a:	1d3b      	adds	r3, r7, #4
 800022c:	4a03      	ldr	r2, [pc, #12]	; (800023c <stm32__board__initialize_leds+0x38>)
 800022e:	6819      	ldr	r1, [r3, #0]
 8000230:	0010      	movs	r0, r2
 8000232:	f001 fac5 	bl	80017c0 <stm32__gpio__configure_io>
 8000236:	46bd      	mov	sp, r7
 8000238:	b002      	add	sp, #8
 800023a:	bd80      	pop	{r7, pc}
 800023c:	200004ac 	.word	0x200004ac

08000240 <stm32__board__initialize_board>:
 8000240:	b580      	push	{r7, lr}
 8000242:	af00      	add	r7, sp, #0
 8000244:	f7ff ffde 	bl	8000204 <stm32__board__initialize_leds>
 8000248:	46bd      	mov	sp, r7
 800024a:	bd80      	pop	{r7, pc}

0800024c <stm32__device__enable_clock>:
 800024c:	b590      	push	{r4, r7, lr}
 800024e:	b093      	sub	sp, #76	; 0x4c
 8000250:	af00      	add	r7, sp, #0
 8000252:	6078      	str	r0, [r7, #4]
 8000254:	6879      	ldr	r1, [r7, #4]
 8000256:	22a0      	movs	r2, #160	; 0xa0
 8000258:	05d2      	lsls	r2, r2, #23
 800025a:	4291      	cmp	r1, r2
 800025c:	d10a      	bne.n	8000274 <stm32__device__enable_clock+0x28>
 800025e:	4b7e      	ldr	r3, [pc, #504]	; (8000458 <stm32__device__enable_clock+0x20c>)
 8000260:	334c      	adds	r3, #76	; 0x4c
 8000262:	681b      	ldr	r3, [r3, #0]
 8000264:	001a      	movs	r2, r3
 8000266:	2301      	movs	r3, #1
 8000268:	4313      	orrs	r3, r2
 800026a:	001a      	movs	r2, r3
 800026c:	4b7a      	ldr	r3, [pc, #488]	; (8000458 <stm32__device__enable_clock+0x20c>)
 800026e:	334c      	adds	r3, #76	; 0x4c
 8000270:	601a      	str	r2, [r3, #0]
 8000272:	e0ee      	b.n	8000452 <stm32__device__enable_clock+0x206>
 8000274:	687a      	ldr	r2, [r7, #4]
 8000276:	4979      	ldr	r1, [pc, #484]	; (800045c <stm32__device__enable_clock+0x210>)
 8000278:	428a      	cmp	r2, r1
 800027a:	d10a      	bne.n	8000292 <stm32__device__enable_clock+0x46>
 800027c:	4b76      	ldr	r3, [pc, #472]	; (8000458 <stm32__device__enable_clock+0x20c>)
 800027e:	334c      	adds	r3, #76	; 0x4c
 8000280:	681b      	ldr	r3, [r3, #0]
 8000282:	001a      	movs	r2, r3
 8000284:	2302      	movs	r3, #2
 8000286:	4313      	orrs	r3, r2
 8000288:	001a      	movs	r2, r3
 800028a:	4b73      	ldr	r3, [pc, #460]	; (8000458 <stm32__device__enable_clock+0x20c>)
 800028c:	334c      	adds	r3, #76	; 0x4c
 800028e:	601a      	str	r2, [r3, #0]
 8000290:	e0df      	b.n	8000452 <stm32__device__enable_clock+0x206>
 8000292:	687a      	ldr	r2, [r7, #4]
 8000294:	4972      	ldr	r1, [pc, #456]	; (8000460 <stm32__device__enable_clock+0x214>)
 8000296:	428a      	cmp	r2, r1
 8000298:	d10a      	bne.n	80002b0 <stm32__device__enable_clock+0x64>
 800029a:	4b6f      	ldr	r3, [pc, #444]	; (8000458 <stm32__device__enable_clock+0x20c>)
 800029c:	334c      	adds	r3, #76	; 0x4c
 800029e:	681b      	ldr	r3, [r3, #0]
 80002a0:	001a      	movs	r2, r3
 80002a2:	2304      	movs	r3, #4
 80002a4:	4313      	orrs	r3, r2
 80002a6:	001a      	movs	r2, r3
 80002a8:	4b6b      	ldr	r3, [pc, #428]	; (8000458 <stm32__device__enable_clock+0x20c>)
 80002aa:	334c      	adds	r3, #76	; 0x4c
 80002ac:	601a      	str	r2, [r3, #0]
 80002ae:	e0d0      	b.n	8000452 <stm32__device__enable_clock+0x206>
 80002b0:	687a      	ldr	r2, [r7, #4]
 80002b2:	496c      	ldr	r1, [pc, #432]	; (8000464 <stm32__device__enable_clock+0x218>)
 80002b4:	428a      	cmp	r2, r1
 80002b6:	d10a      	bne.n	80002ce <stm32__device__enable_clock+0x82>
 80002b8:	4b67      	ldr	r3, [pc, #412]	; (8000458 <stm32__device__enable_clock+0x20c>)
 80002ba:	334c      	adds	r3, #76	; 0x4c
 80002bc:	681b      	ldr	r3, [r3, #0]
 80002be:	001a      	movs	r2, r3
 80002c0:	2308      	movs	r3, #8
 80002c2:	4313      	orrs	r3, r2
 80002c4:	001a      	movs	r2, r3
 80002c6:	4b64      	ldr	r3, [pc, #400]	; (8000458 <stm32__device__enable_clock+0x20c>)
 80002c8:	334c      	adds	r3, #76	; 0x4c
 80002ca:	601a      	str	r2, [r3, #0]
 80002cc:	e0c1      	b.n	8000452 <stm32__device__enable_clock+0x206>
 80002ce:	687a      	ldr	r2, [r7, #4]
 80002d0:	4965      	ldr	r1, [pc, #404]	; (8000468 <stm32__device__enable_clock+0x21c>)
 80002d2:	428a      	cmp	r2, r1
 80002d4:	d10a      	bne.n	80002ec <stm32__device__enable_clock+0xa0>
 80002d6:	4b60      	ldr	r3, [pc, #384]	; (8000458 <stm32__device__enable_clock+0x20c>)
 80002d8:	334c      	adds	r3, #76	; 0x4c
 80002da:	681b      	ldr	r3, [r3, #0]
 80002dc:	001a      	movs	r2, r3
 80002de:	2310      	movs	r3, #16
 80002e0:	4313      	orrs	r3, r2
 80002e2:	001a      	movs	r2, r3
 80002e4:	4b5c      	ldr	r3, [pc, #368]	; (8000458 <stm32__device__enable_clock+0x20c>)
 80002e6:	334c      	adds	r3, #76	; 0x4c
 80002e8:	601a      	str	r2, [r3, #0]
 80002ea:	e0b2      	b.n	8000452 <stm32__device__enable_clock+0x206>
 80002ec:	4a5f      	ldr	r2, [pc, #380]	; (800046c <stm32__device__enable_clock+0x220>)
 80002ee:	0013      	movs	r3, r2
 80002f0:	4a5f      	ldr	r2, [pc, #380]	; (8000470 <stm32__device__enable_clock+0x224>)
 80002f2:	0014      	movs	r4, r2
 80002f4:	60bb      	str	r3, [r7, #8]
 80002f6:	60fc      	str	r4, [r7, #12]
 80002f8:	68fb      	ldr	r3, [r7, #12]
 80002fa:	681b      	ldr	r3, [r3, #0]
 80002fc:	68fa      	ldr	r2, [r7, #12]
 80002fe:	6852      	ldr	r2, [r2, #4]
 8000300:	4293      	cmp	r3, r2
 8000302:	dd04      	ble.n	800030e <stm32__device__enable_clock+0xc2>
 8000304:	4b5b      	ldr	r3, [pc, #364]	; (8000474 <stm32__device__enable_clock+0x228>)
 8000306:	2100      	movs	r1, #0
 8000308:	0018      	movs	r0, r3
 800030a:	f008 f9f5 	bl	80086f8 <__gnat_last_chance_handler>
 800030e:	647b      	str	r3, [r7, #68]	; 0x44
 8000310:	4959      	ldr	r1, [pc, #356]	; (8000478 <stm32__device__enable_clock+0x22c>)
 8000312:	428a      	cmp	r2, r1
 8000314:	d104      	bne.n	8000320 <stm32__device__enable_clock+0xd4>
 8000316:	4b59      	ldr	r3, [pc, #356]	; (800047c <stm32__device__enable_clock+0x230>)
 8000318:	2140      	movs	r1, #64	; 0x40
 800031a:	0018      	movs	r0, r3
 800031c:	f008 f9ec 	bl	80086f8 <__gnat_last_chance_handler>
 8000320:	1c51      	adds	r1, r2, #1
 8000322:	6439      	str	r1, [r7, #64]	; 0x40
 8000324:	6c79      	ldr	r1, [r7, #68]	; 0x44
 8000326:	63f9      	str	r1, [r7, #60]	; 0x3c
 8000328:	6c78      	ldr	r0, [r7, #68]	; 0x44
 800032a:	6c39      	ldr	r1, [r7, #64]	; 0x40
 800032c:	4288      	cmp	r0, r1
 800032e:	dd03      	ble.n	8000338 <stm32__device__enable_clock+0xec>
 8000330:	6c79      	ldr	r1, [r7, #68]	; 0x44
 8000332:	3901      	subs	r1, #1
 8000334:	63b9      	str	r1, [r7, #56]	; 0x38
 8000336:	e001      	b.n	800033c <stm32__device__enable_clock+0xf0>
 8000338:	6c39      	ldr	r1, [r7, #64]	; 0x40
 800033a:	63b9      	str	r1, [r7, #56]	; 0x38
 800033c:	3201      	adds	r2, #1
 800033e:	4293      	cmp	r3, r2
 8000340:	dc06      	bgt.n	8000350 <stm32__device__enable_clock+0x104>
 8000342:	2b00      	cmp	r3, #0
 8000344:	dc04      	bgt.n	8000350 <stm32__device__enable_clock+0x104>
 8000346:	4b4d      	ldr	r3, [pc, #308]	; (800047c <stm32__device__enable_clock+0x230>)
 8000348:	2140      	movs	r1, #64	; 0x40
 800034a:	0018      	movs	r0, r3
 800034c:	f008 f9d4 	bl	80086f8 <__gnat_last_chance_handler>
 8000350:	68bb      	ldr	r3, [r7, #8]
 8000352:	637b      	str	r3, [r7, #52]	; 0x34
 8000354:	6c7a      	ldr	r2, [r7, #68]	; 0x44
 8000356:	6c3b      	ldr	r3, [r7, #64]	; 0x40
 8000358:	429a      	cmp	r2, r3
 800035a:	dd04      	ble.n	8000366 <stm32__device__enable_clock+0x11a>
 800035c:	4b47      	ldr	r3, [pc, #284]	; (800047c <stm32__device__enable_clock+0x230>)
 800035e:	2143      	movs	r1, #67	; 0x43
 8000360:	0018      	movs	r0, r3
 8000362:	f008 f9c9 	bl	80086f8 <__gnat_last_chance_handler>
 8000366:	6c39      	ldr	r1, [r7, #64]	; 0x40
 8000368:	6b7a      	ldr	r2, [r7, #52]	; 0x34
 800036a:	6bfb      	ldr	r3, [r7, #60]	; 0x3c
 800036c:	1acb      	subs	r3, r1, r3
 800036e:	5cd3      	ldrb	r3, [r2, r3]
 8000370:	2b00      	cmp	r3, #0
 8000372:	d104      	bne.n	800037e <stm32__device__enable_clock+0x132>
 8000374:	68bb      	ldr	r3, [r7, #8]
 8000376:	2100      	movs	r1, #0
 8000378:	0018      	movs	r0, r3
 800037a:	f008 f9bd 	bl	80086f8 <__gnat_last_chance_handler>
 800037e:	6c7b      	ldr	r3, [r7, #68]	; 0x44
 8000380:	633b      	str	r3, [r7, #48]	; 0x30
 8000382:	6c3b      	ldr	r3, [r7, #64]	; 0x40
 8000384:	62fb      	str	r3, [r7, #44]	; 0x2c
 8000386:	6b3b      	ldr	r3, [r7, #48]	; 0x30
 8000388:	62bb      	str	r3, [r7, #40]	; 0x28
 800038a:	6afb      	ldr	r3, [r7, #44]	; 0x2c
 800038c:	627b      	str	r3, [r7, #36]	; 0x24
 800038e:	6abb      	ldr	r3, [r7, #40]	; 0x28
 8000390:	623b      	str	r3, [r7, #32]
 8000392:	6aba      	ldr	r2, [r7, #40]	; 0x28
 8000394:	6a7b      	ldr	r3, [r7, #36]	; 0x24
 8000396:	429a      	cmp	r2, r3
 8000398:	dd03      	ble.n	80003a2 <stm32__device__enable_clock+0x156>
 800039a:	6abb      	ldr	r3, [r7, #40]	; 0x28
 800039c:	3b01      	subs	r3, #1
 800039e:	61fb      	str	r3, [r7, #28]
 80003a0:	e001      	b.n	80003a6 <stm32__device__enable_clock+0x15a>
 80003a2:	6a7b      	ldr	r3, [r7, #36]	; 0x24
 80003a4:	61fb      	str	r3, [r7, #28]
 80003a6:	6aba      	ldr	r2, [r7, #40]	; 0x28
 80003a8:	6a7b      	ldr	r3, [r7, #36]	; 0x24
 80003aa:	429a      	cmp	r2, r3
 80003ac:	dc04      	bgt.n	80003b8 <stm32__device__enable_clock+0x16c>
 80003ae:	6a7a      	ldr	r2, [r7, #36]	; 0x24
 80003b0:	6abb      	ldr	r3, [r7, #40]	; 0x28
 80003b2:	1ad3      	subs	r3, r2, r3
 80003b4:	1c59      	adds	r1, r3, #1
 80003b6:	e000      	b.n	80003ba <stm32__device__enable_clock+0x16e>
 80003b8:	2100      	movs	r1, #0
 80003ba:	6b3a      	ldr	r2, [r7, #48]	; 0x30
 80003bc:	6afb      	ldr	r3, [r7, #44]	; 0x2c
 80003be:	429a      	cmp	r2, r3
 80003c0:	dc07      	bgt.n	80003d2 <stm32__device__enable_clock+0x186>
 80003c2:	6b3b      	ldr	r3, [r7, #48]	; 0x30
 80003c4:	2b00      	cmp	r3, #0
 80003c6:	dc04      	bgt.n	80003d2 <stm32__device__enable_clock+0x186>
 80003c8:	4b2c      	ldr	r3, [pc, #176]	; (800047c <stm32__device__enable_clock+0x230>)
 80003ca:	214b      	movs	r1, #75	; 0x4b
 80003cc:	0018      	movs	r0, r3
 80003ce:	f008 f993 	bl	80086f8 <__gnat_last_chance_handler>
 80003d2:	6aba      	ldr	r2, [r7, #40]	; 0x28
 80003d4:	6a7b      	ldr	r3, [r7, #36]	; 0x24
 80003d6:	429a      	cmp	r2, r3
 80003d8:	dc06      	bgt.n	80003e8 <stm32__device__enable_clock+0x19c>
 80003da:	6a7a      	ldr	r2, [r7, #36]	; 0x24
 80003dc:	6abb      	ldr	r3, [r7, #40]	; 0x28
 80003de:	1ad3      	subs	r3, r2, r3
 80003e0:	330c      	adds	r3, #12
 80003e2:	2203      	movs	r2, #3
 80003e4:	4393      	bics	r3, r2
 80003e6:	e000      	b.n	80003ea <stm32__device__enable_clock+0x19e>
 80003e8:	2308      	movs	r3, #8
 80003ea:	3303      	adds	r3, #3
 80003ec:	3307      	adds	r3, #7
 80003ee:	08db      	lsrs	r3, r3, #3
 80003f0:	00db      	lsls	r3, r3, #3
 80003f2:	466a      	mov	r2, sp
 80003f4:	1ad3      	subs	r3, r2, r3
 80003f6:	469d      	mov	sp, r3
 80003f8:	466b      	mov	r3, sp
 80003fa:	3303      	adds	r3, #3
 80003fc:	089b      	lsrs	r3, r3, #2
 80003fe:	009b      	lsls	r3, r3, #2
 8000400:	61bb      	str	r3, [r7, #24]
 8000402:	69bb      	ldr	r3, [r7, #24]
 8000404:	6aba      	ldr	r2, [r7, #40]	; 0x28
 8000406:	601a      	str	r2, [r3, #0]
 8000408:	69bb      	ldr	r3, [r7, #24]
 800040a:	6a7a      	ldr	r2, [r7, #36]	; 0x24
 800040c:	605a      	str	r2, [r3, #4]
 800040e:	69bb      	ldr	r3, [r7, #24]
 8000410:	3308      	adds	r3, #8
 8000412:	001a      	movs	r2, r3
 8000414:	6b7b      	ldr	r3, [r7, #52]	; 0x34
 8000416:	0010      	movs	r0, r2
 8000418:	000a      	movs	r2, r1
 800041a:	0019      	movs	r1, r3
 800041c:	f008 fc02 	bl	8008c24 <memcpy>
 8000420:	69bb      	ldr	r3, [r7, #24]
 8000422:	3308      	adds	r3, #8
 8000424:	617b      	str	r3, [r7, #20]
 8000426:	6b3a      	ldr	r2, [r7, #48]	; 0x30
 8000428:	6a7b      	ldr	r3, [r7, #36]	; 0x24
 800042a:	429a      	cmp	r2, r3
 800042c:	dd04      	ble.n	8000438 <stm32__device__enable_clock+0x1ec>
 800042e:	4b13      	ldr	r3, [pc, #76]	; (800047c <stm32__device__enable_clock+0x230>)
 8000430:	214d      	movs	r1, #77	; 0x4d
 8000432:	0018      	movs	r0, r3
 8000434:	f008 f960 	bl	80086f8 <__gnat_last_chance_handler>
 8000438:	6a79      	ldr	r1, [r7, #36]	; 0x24
 800043a:	69ba      	ldr	r2, [r7, #24]
 800043c:	6a3b      	ldr	r3, [r7, #32]
 800043e:	1acb      	subs	r3, r1, r3
 8000440:	18d3      	adds	r3, r2, r3
 8000442:	2200      	movs	r2, #0
 8000444:	721a      	strb	r2, [r3, #8]
 8000446:	69bb      	ldr	r3, [r7, #24]
 8000448:	3308      	adds	r3, #8
 800044a:	2100      	movs	r1, #0
 800044c:	0018      	movs	r0, r3
 800044e:	f008 f953 	bl	80086f8 <__gnat_last_chance_handler>
 8000452:	46bd      	mov	sp, r7
 8000454:	b013      	add	sp, #76	; 0x4c
 8000456:	bd90      	pop	{r4, r7, pc}
 8000458:	40021000 	.word	0x40021000
 800045c:	50000400 	.word	0x50000400
 8000460:	50000800 	.word	0x50000800
 8000464:	50000c00 	.word	0x50000c00
 8000468:	50001000 	.word	0x50001000
 800046c:	08009494 	.word	0x08009494
 8000470:	080094b8 	.word	0x080094b8
 8000474:	08009f3c 	.word	0x08009f3c
 8000478:	7fffffff 	.word	0x7fffffff
 800047c:	080094a8 	.word	0x080094a8

08000480 <stm32__device__enable_clock__2>:
 8000480:	b580      	push	{r7, lr}
 8000482:	b082      	sub	sp, #8
 8000484:	af00      	add	r7, sp, #0
 8000486:	6078      	str	r0, [r7, #4]
 8000488:	687b      	ldr	r3, [r7, #4]
 800048a:	685b      	ldr	r3, [r3, #4]
 800048c:	2b00      	cmp	r3, #0
 800048e:	d104      	bne.n	800049a <stm32__device__enable_clock__2+0x1a>
 8000490:	4b06      	ldr	r3, [pc, #24]	; (80004ac <stm32__device__enable_clock__2+0x2c>)
 8000492:	2151      	movs	r1, #81	; 0x51
 8000494:	0018      	movs	r0, r3
 8000496:	f008 f92f 	bl	80086f8 <__gnat_last_chance_handler>
 800049a:	687b      	ldr	r3, [r7, #4]
 800049c:	685b      	ldr	r3, [r3, #4]
 800049e:	0018      	movs	r0, r3
 80004a0:	f7ff fed4 	bl	800024c <stm32__device__enable_clock>
 80004a4:	46bd      	mov	sp, r7
 80004a6:	b002      	add	sp, #8
 80004a8:	bd80      	pop	{r7, pc}
 80004aa:	46c0      	nop			; (mov r8, r8)
 80004ac:	080094c0 	.word	0x080094c0

080004b0 <stm32__device___elabs>:
 80004b0:	b580      	push	{r7, lr}
 80004b2:	af00      	add	r7, sp, #0
 80004b4:	4bfd      	ldr	r3, [pc, #1012]	; (80008ac <stm32__device___elabs+0x3fc>)
 80004b6:	22a0      	movs	r2, #160	; 0xa0
 80004b8:	05d2      	lsls	r2, r2, #23
 80004ba:	605a      	str	r2, [r3, #4]
 80004bc:	4bfb      	ldr	r3, [pc, #1004]	; (80008ac <stm32__device___elabs+0x3fc>)
 80004be:	2201      	movs	r2, #1
 80004c0:	811a      	strh	r2, [r3, #8]
 80004c2:	4afb      	ldr	r2, [pc, #1004]	; (80008b0 <stm32__device___elabs+0x400>)
 80004c4:	4bf9      	ldr	r3, [pc, #996]	; (80008ac <stm32__device___elabs+0x3fc>)
 80004c6:	601a      	str	r2, [r3, #0]
 80004c8:	4bfa      	ldr	r3, [pc, #1000]	; (80008b4 <stm32__device___elabs+0x404>)
 80004ca:	22a0      	movs	r2, #160	; 0xa0
 80004cc:	05d2      	lsls	r2, r2, #23
 80004ce:	605a      	str	r2, [r3, #4]
 80004d0:	4bf8      	ldr	r3, [pc, #992]	; (80008b4 <stm32__device___elabs+0x404>)
 80004d2:	2202      	movs	r2, #2
 80004d4:	811a      	strh	r2, [r3, #8]
 80004d6:	4af6      	ldr	r2, [pc, #984]	; (80008b0 <stm32__device___elabs+0x400>)
 80004d8:	4bf6      	ldr	r3, [pc, #984]	; (80008b4 <stm32__device___elabs+0x404>)
 80004da:	601a      	str	r2, [r3, #0]
 80004dc:	4bf6      	ldr	r3, [pc, #984]	; (80008b8 <stm32__device___elabs+0x408>)
 80004de:	22a0      	movs	r2, #160	; 0xa0
 80004e0:	05d2      	lsls	r2, r2, #23
 80004e2:	605a      	str	r2, [r3, #4]
 80004e4:	4bf4      	ldr	r3, [pc, #976]	; (80008b8 <stm32__device___elabs+0x408>)
 80004e6:	2204      	movs	r2, #4
 80004e8:	811a      	strh	r2, [r3, #8]
 80004ea:	4af1      	ldr	r2, [pc, #964]	; (80008b0 <stm32__device___elabs+0x400>)
 80004ec:	4bf2      	ldr	r3, [pc, #968]	; (80008b8 <stm32__device___elabs+0x408>)
 80004ee:	601a      	str	r2, [r3, #0]
 80004f0:	4bf2      	ldr	r3, [pc, #968]	; (80008bc <stm32__device___elabs+0x40c>)
 80004f2:	22a0      	movs	r2, #160	; 0xa0
 80004f4:	05d2      	lsls	r2, r2, #23
 80004f6:	605a      	str	r2, [r3, #4]
 80004f8:	4bf0      	ldr	r3, [pc, #960]	; (80008bc <stm32__device___elabs+0x40c>)
 80004fa:	2208      	movs	r2, #8
 80004fc:	811a      	strh	r2, [r3, #8]
 80004fe:	4aec      	ldr	r2, [pc, #944]	; (80008b0 <stm32__device___elabs+0x400>)
 8000500:	4bee      	ldr	r3, [pc, #952]	; (80008bc <stm32__device___elabs+0x40c>)
 8000502:	601a      	str	r2, [r3, #0]
 8000504:	4bee      	ldr	r3, [pc, #952]	; (80008c0 <stm32__device___elabs+0x410>)
 8000506:	22a0      	movs	r2, #160	; 0xa0
 8000508:	05d2      	lsls	r2, r2, #23
 800050a:	605a      	str	r2, [r3, #4]
 800050c:	4bec      	ldr	r3, [pc, #944]	; (80008c0 <stm32__device___elabs+0x410>)
 800050e:	2210      	movs	r2, #16
 8000510:	811a      	strh	r2, [r3, #8]
 8000512:	4ae7      	ldr	r2, [pc, #924]	; (80008b0 <stm32__device___elabs+0x400>)
 8000514:	4bea      	ldr	r3, [pc, #936]	; (80008c0 <stm32__device___elabs+0x410>)
 8000516:	601a      	str	r2, [r3, #0]
 8000518:	4bea      	ldr	r3, [pc, #936]	; (80008c4 <stm32__device___elabs+0x414>)
 800051a:	22a0      	movs	r2, #160	; 0xa0
 800051c:	05d2      	lsls	r2, r2, #23
 800051e:	605a      	str	r2, [r3, #4]
 8000520:	4be8      	ldr	r3, [pc, #928]	; (80008c4 <stm32__device___elabs+0x414>)
 8000522:	2220      	movs	r2, #32
 8000524:	811a      	strh	r2, [r3, #8]
 8000526:	4ae2      	ldr	r2, [pc, #904]	; (80008b0 <stm32__device___elabs+0x400>)
 8000528:	4be6      	ldr	r3, [pc, #920]	; (80008c4 <stm32__device___elabs+0x414>)
 800052a:	601a      	str	r2, [r3, #0]
 800052c:	4be6      	ldr	r3, [pc, #920]	; (80008c8 <stm32__device___elabs+0x418>)
 800052e:	22a0      	movs	r2, #160	; 0xa0
 8000530:	05d2      	lsls	r2, r2, #23
 8000532:	605a      	str	r2, [r3, #4]
 8000534:	4be4      	ldr	r3, [pc, #912]	; (80008c8 <stm32__device___elabs+0x418>)
 8000536:	2240      	movs	r2, #64	; 0x40
 8000538:	811a      	strh	r2, [r3, #8]
 800053a:	4add      	ldr	r2, [pc, #884]	; (80008b0 <stm32__device___elabs+0x400>)
 800053c:	4be2      	ldr	r3, [pc, #904]	; (80008c8 <stm32__device___elabs+0x418>)
 800053e:	601a      	str	r2, [r3, #0]
 8000540:	4be2      	ldr	r3, [pc, #904]	; (80008cc <stm32__device___elabs+0x41c>)
 8000542:	22a0      	movs	r2, #160	; 0xa0
 8000544:	05d2      	lsls	r2, r2, #23
 8000546:	605a      	str	r2, [r3, #4]
 8000548:	4be0      	ldr	r3, [pc, #896]	; (80008cc <stm32__device___elabs+0x41c>)
 800054a:	2280      	movs	r2, #128	; 0x80
 800054c:	811a      	strh	r2, [r3, #8]
 800054e:	4ad8      	ldr	r2, [pc, #864]	; (80008b0 <stm32__device___elabs+0x400>)
 8000550:	4bde      	ldr	r3, [pc, #888]	; (80008cc <stm32__device___elabs+0x41c>)
 8000552:	601a      	str	r2, [r3, #0]
 8000554:	4bde      	ldr	r3, [pc, #888]	; (80008d0 <stm32__device___elabs+0x420>)
 8000556:	22a0      	movs	r2, #160	; 0xa0
 8000558:	05d2      	lsls	r2, r2, #23
 800055a:	605a      	str	r2, [r3, #4]
 800055c:	4bdc      	ldr	r3, [pc, #880]	; (80008d0 <stm32__device___elabs+0x420>)
 800055e:	2280      	movs	r2, #128	; 0x80
 8000560:	0052      	lsls	r2, r2, #1
 8000562:	811a      	strh	r2, [r3, #8]
 8000564:	4ad2      	ldr	r2, [pc, #840]	; (80008b0 <stm32__device___elabs+0x400>)
 8000566:	4bda      	ldr	r3, [pc, #872]	; (80008d0 <stm32__device___elabs+0x420>)
 8000568:	601a      	str	r2, [r3, #0]
 800056a:	4bda      	ldr	r3, [pc, #872]	; (80008d4 <stm32__device___elabs+0x424>)
 800056c:	22a0      	movs	r2, #160	; 0xa0
 800056e:	05d2      	lsls	r2, r2, #23
 8000570:	605a      	str	r2, [r3, #4]
 8000572:	4bd8      	ldr	r3, [pc, #864]	; (80008d4 <stm32__device___elabs+0x424>)
 8000574:	2280      	movs	r2, #128	; 0x80
 8000576:	0092      	lsls	r2, r2, #2
 8000578:	811a      	strh	r2, [r3, #8]
 800057a:	4acd      	ldr	r2, [pc, #820]	; (80008b0 <stm32__device___elabs+0x400>)
 800057c:	4bd5      	ldr	r3, [pc, #852]	; (80008d4 <stm32__device___elabs+0x424>)
 800057e:	601a      	str	r2, [r3, #0]
 8000580:	4bd5      	ldr	r3, [pc, #852]	; (80008d8 <stm32__device___elabs+0x428>)
 8000582:	22a0      	movs	r2, #160	; 0xa0
 8000584:	05d2      	lsls	r2, r2, #23
 8000586:	605a      	str	r2, [r3, #4]
 8000588:	4bd3      	ldr	r3, [pc, #844]	; (80008d8 <stm32__device___elabs+0x428>)
 800058a:	2280      	movs	r2, #128	; 0x80
 800058c:	00d2      	lsls	r2, r2, #3
 800058e:	811a      	strh	r2, [r3, #8]
 8000590:	4ac7      	ldr	r2, [pc, #796]	; (80008b0 <stm32__device___elabs+0x400>)
 8000592:	4bd1      	ldr	r3, [pc, #836]	; (80008d8 <stm32__device___elabs+0x428>)
 8000594:	601a      	str	r2, [r3, #0]
 8000596:	4bd1      	ldr	r3, [pc, #836]	; (80008dc <stm32__device___elabs+0x42c>)
 8000598:	22a0      	movs	r2, #160	; 0xa0
 800059a:	05d2      	lsls	r2, r2, #23
 800059c:	605a      	str	r2, [r3, #4]
 800059e:	4bcf      	ldr	r3, [pc, #828]	; (80008dc <stm32__device___elabs+0x42c>)
 80005a0:	2280      	movs	r2, #128	; 0x80
 80005a2:	0112      	lsls	r2, r2, #4
 80005a4:	811a      	strh	r2, [r3, #8]
 80005a6:	4ac2      	ldr	r2, [pc, #776]	; (80008b0 <stm32__device___elabs+0x400>)
 80005a8:	4bcc      	ldr	r3, [pc, #816]	; (80008dc <stm32__device___elabs+0x42c>)
 80005aa:	601a      	str	r2, [r3, #0]
 80005ac:	4bcc      	ldr	r3, [pc, #816]	; (80008e0 <stm32__device___elabs+0x430>)
 80005ae:	22a0      	movs	r2, #160	; 0xa0
 80005b0:	05d2      	lsls	r2, r2, #23
 80005b2:	605a      	str	r2, [r3, #4]
 80005b4:	4bca      	ldr	r3, [pc, #808]	; (80008e0 <stm32__device___elabs+0x430>)
 80005b6:	2280      	movs	r2, #128	; 0x80
 80005b8:	0152      	lsls	r2, r2, #5
 80005ba:	811a      	strh	r2, [r3, #8]
 80005bc:	4abc      	ldr	r2, [pc, #752]	; (80008b0 <stm32__device___elabs+0x400>)
 80005be:	4bc8      	ldr	r3, [pc, #800]	; (80008e0 <stm32__device___elabs+0x430>)
 80005c0:	601a      	str	r2, [r3, #0]
 80005c2:	4bc8      	ldr	r3, [pc, #800]	; (80008e4 <stm32__device___elabs+0x434>)
 80005c4:	22a0      	movs	r2, #160	; 0xa0
 80005c6:	05d2      	lsls	r2, r2, #23
 80005c8:	605a      	str	r2, [r3, #4]
 80005ca:	4bc6      	ldr	r3, [pc, #792]	; (80008e4 <stm32__device___elabs+0x434>)
 80005cc:	2280      	movs	r2, #128	; 0x80
 80005ce:	0192      	lsls	r2, r2, #6
 80005d0:	811a      	strh	r2, [r3, #8]
 80005d2:	4ab7      	ldr	r2, [pc, #732]	; (80008b0 <stm32__device___elabs+0x400>)
 80005d4:	4bc3      	ldr	r3, [pc, #780]	; (80008e4 <stm32__device___elabs+0x434>)
 80005d6:	601a      	str	r2, [r3, #0]
 80005d8:	4bc3      	ldr	r3, [pc, #780]	; (80008e8 <stm32__device___elabs+0x438>)
 80005da:	22a0      	movs	r2, #160	; 0xa0
 80005dc:	05d2      	lsls	r2, r2, #23
 80005de:	605a      	str	r2, [r3, #4]
 80005e0:	4bc1      	ldr	r3, [pc, #772]	; (80008e8 <stm32__device___elabs+0x438>)
 80005e2:	2280      	movs	r2, #128	; 0x80
 80005e4:	01d2      	lsls	r2, r2, #7
 80005e6:	811a      	strh	r2, [r3, #8]
 80005e8:	4ab1      	ldr	r2, [pc, #708]	; (80008b0 <stm32__device___elabs+0x400>)
 80005ea:	4bbf      	ldr	r3, [pc, #764]	; (80008e8 <stm32__device___elabs+0x438>)
 80005ec:	601a      	str	r2, [r3, #0]
 80005ee:	4bbf      	ldr	r3, [pc, #764]	; (80008ec <stm32__device___elabs+0x43c>)
 80005f0:	22a0      	movs	r2, #160	; 0xa0
 80005f2:	05d2      	lsls	r2, r2, #23
 80005f4:	605a      	str	r2, [r3, #4]
 80005f6:	4bbd      	ldr	r3, [pc, #756]	; (80008ec <stm32__device___elabs+0x43c>)
 80005f8:	4abd      	ldr	r2, [pc, #756]	; (80008f0 <stm32__device___elabs+0x440>)
 80005fa:	811a      	strh	r2, [r3, #8]
 80005fc:	4aac      	ldr	r2, [pc, #688]	; (80008b0 <stm32__device___elabs+0x400>)
 80005fe:	4bbb      	ldr	r3, [pc, #748]	; (80008ec <stm32__device___elabs+0x43c>)
 8000600:	601a      	str	r2, [r3, #0]
 8000602:	4bbc      	ldr	r3, [pc, #752]	; (80008f4 <stm32__device___elabs+0x444>)
 8000604:	4abc      	ldr	r2, [pc, #752]	; (80008f8 <stm32__device___elabs+0x448>)
 8000606:	605a      	str	r2, [r3, #4]
 8000608:	4bba      	ldr	r3, [pc, #744]	; (80008f4 <stm32__device___elabs+0x444>)
 800060a:	2201      	movs	r2, #1
 800060c:	811a      	strh	r2, [r3, #8]
 800060e:	4aa8      	ldr	r2, [pc, #672]	; (80008b0 <stm32__device___elabs+0x400>)
 8000610:	4bb8      	ldr	r3, [pc, #736]	; (80008f4 <stm32__device___elabs+0x444>)
 8000612:	601a      	str	r2, [r3, #0]
 8000614:	4bb9      	ldr	r3, [pc, #740]	; (80008fc <stm32__device___elabs+0x44c>)
 8000616:	4ab8      	ldr	r2, [pc, #736]	; (80008f8 <stm32__device___elabs+0x448>)
 8000618:	605a      	str	r2, [r3, #4]
 800061a:	4bb8      	ldr	r3, [pc, #736]	; (80008fc <stm32__device___elabs+0x44c>)
 800061c:	2202      	movs	r2, #2
 800061e:	811a      	strh	r2, [r3, #8]
 8000620:	4aa3      	ldr	r2, [pc, #652]	; (80008b0 <stm32__device___elabs+0x400>)
 8000622:	4bb6      	ldr	r3, [pc, #728]	; (80008fc <stm32__device___elabs+0x44c>)
 8000624:	601a      	str	r2, [r3, #0]
 8000626:	4bb6      	ldr	r3, [pc, #728]	; (8000900 <stm32__device___elabs+0x450>)
 8000628:	4ab3      	ldr	r2, [pc, #716]	; (80008f8 <stm32__device___elabs+0x448>)
 800062a:	605a      	str	r2, [r3, #4]
 800062c:	4bb4      	ldr	r3, [pc, #720]	; (8000900 <stm32__device___elabs+0x450>)
 800062e:	2204      	movs	r2, #4
 8000630:	811a      	strh	r2, [r3, #8]
 8000632:	4a9f      	ldr	r2, [pc, #636]	; (80008b0 <stm32__device___elabs+0x400>)
 8000634:	4bb2      	ldr	r3, [pc, #712]	; (8000900 <stm32__device___elabs+0x450>)
 8000636:	601a      	str	r2, [r3, #0]
 8000638:	4bb2      	ldr	r3, [pc, #712]	; (8000904 <stm32__device___elabs+0x454>)
 800063a:	4aaf      	ldr	r2, [pc, #700]	; (80008f8 <stm32__device___elabs+0x448>)
 800063c:	605a      	str	r2, [r3, #4]
 800063e:	4bb1      	ldr	r3, [pc, #708]	; (8000904 <stm32__device___elabs+0x454>)
 8000640:	2208      	movs	r2, #8
 8000642:	811a      	strh	r2, [r3, #8]
 8000644:	4a9a      	ldr	r2, [pc, #616]	; (80008b0 <stm32__device___elabs+0x400>)
 8000646:	4baf      	ldr	r3, [pc, #700]	; (8000904 <stm32__device___elabs+0x454>)
 8000648:	601a      	str	r2, [r3, #0]
 800064a:	4baf      	ldr	r3, [pc, #700]	; (8000908 <stm32__device___elabs+0x458>)
 800064c:	4aaa      	ldr	r2, [pc, #680]	; (80008f8 <stm32__device___elabs+0x448>)
 800064e:	605a      	str	r2, [r3, #4]
 8000650:	4bad      	ldr	r3, [pc, #692]	; (8000908 <stm32__device___elabs+0x458>)
 8000652:	2210      	movs	r2, #16
 8000654:	811a      	strh	r2, [r3, #8]
 8000656:	4a96      	ldr	r2, [pc, #600]	; (80008b0 <stm32__device___elabs+0x400>)
 8000658:	4bab      	ldr	r3, [pc, #684]	; (8000908 <stm32__device___elabs+0x458>)
 800065a:	601a      	str	r2, [r3, #0]
 800065c:	4bab      	ldr	r3, [pc, #684]	; (800090c <stm32__device___elabs+0x45c>)
 800065e:	4aa6      	ldr	r2, [pc, #664]	; (80008f8 <stm32__device___elabs+0x448>)
 8000660:	605a      	str	r2, [r3, #4]
 8000662:	4baa      	ldr	r3, [pc, #680]	; (800090c <stm32__device___elabs+0x45c>)
 8000664:	2220      	movs	r2, #32
 8000666:	811a      	strh	r2, [r3, #8]
 8000668:	4a91      	ldr	r2, [pc, #580]	; (80008b0 <stm32__device___elabs+0x400>)
 800066a:	4ba8      	ldr	r3, [pc, #672]	; (800090c <stm32__device___elabs+0x45c>)
 800066c:	601a      	str	r2, [r3, #0]
 800066e:	4ba8      	ldr	r3, [pc, #672]	; (8000910 <stm32__device___elabs+0x460>)
 8000670:	4aa1      	ldr	r2, [pc, #644]	; (80008f8 <stm32__device___elabs+0x448>)
 8000672:	605a      	str	r2, [r3, #4]
 8000674:	4ba6      	ldr	r3, [pc, #664]	; (8000910 <stm32__device___elabs+0x460>)
 8000676:	2240      	movs	r2, #64	; 0x40
 8000678:	811a      	strh	r2, [r3, #8]
 800067a:	4a8d      	ldr	r2, [pc, #564]	; (80008b0 <stm32__device___elabs+0x400>)
 800067c:	4ba4      	ldr	r3, [pc, #656]	; (8000910 <stm32__device___elabs+0x460>)
 800067e:	601a      	str	r2, [r3, #0]
 8000680:	4ba4      	ldr	r3, [pc, #656]	; (8000914 <stm32__device___elabs+0x464>)
 8000682:	4a9d      	ldr	r2, [pc, #628]	; (80008f8 <stm32__device___elabs+0x448>)
 8000684:	605a      	str	r2, [r3, #4]
 8000686:	4ba3      	ldr	r3, [pc, #652]	; (8000914 <stm32__device___elabs+0x464>)
 8000688:	2280      	movs	r2, #128	; 0x80
 800068a:	811a      	strh	r2, [r3, #8]
 800068c:	4a88      	ldr	r2, [pc, #544]	; (80008b0 <stm32__device___elabs+0x400>)
 800068e:	4ba1      	ldr	r3, [pc, #644]	; (8000914 <stm32__device___elabs+0x464>)
 8000690:	601a      	str	r2, [r3, #0]
 8000692:	4ba1      	ldr	r3, [pc, #644]	; (8000918 <stm32__device___elabs+0x468>)
 8000694:	4a98      	ldr	r2, [pc, #608]	; (80008f8 <stm32__device___elabs+0x448>)
 8000696:	605a      	str	r2, [r3, #4]
 8000698:	4b9f      	ldr	r3, [pc, #636]	; (8000918 <stm32__device___elabs+0x468>)
 800069a:	2280      	movs	r2, #128	; 0x80
 800069c:	0052      	lsls	r2, r2, #1
 800069e:	811a      	strh	r2, [r3, #8]
 80006a0:	4a83      	ldr	r2, [pc, #524]	; (80008b0 <stm32__device___elabs+0x400>)
 80006a2:	4b9d      	ldr	r3, [pc, #628]	; (8000918 <stm32__device___elabs+0x468>)
 80006a4:	601a      	str	r2, [r3, #0]
 80006a6:	4b9d      	ldr	r3, [pc, #628]	; (800091c <stm32__device___elabs+0x46c>)
 80006a8:	4a93      	ldr	r2, [pc, #588]	; (80008f8 <stm32__device___elabs+0x448>)
 80006aa:	605a      	str	r2, [r3, #4]
 80006ac:	4b9b      	ldr	r3, [pc, #620]	; (800091c <stm32__device___elabs+0x46c>)
 80006ae:	2280      	movs	r2, #128	; 0x80
 80006b0:	0092      	lsls	r2, r2, #2
 80006b2:	811a      	strh	r2, [r3, #8]
 80006b4:	4a7e      	ldr	r2, [pc, #504]	; (80008b0 <stm32__device___elabs+0x400>)
 80006b6:	4b99      	ldr	r3, [pc, #612]	; (800091c <stm32__device___elabs+0x46c>)
 80006b8:	601a      	str	r2, [r3, #0]
 80006ba:	4b99      	ldr	r3, [pc, #612]	; (8000920 <stm32__device___elabs+0x470>)
 80006bc:	4a8e      	ldr	r2, [pc, #568]	; (80008f8 <stm32__device___elabs+0x448>)
 80006be:	605a      	str	r2, [r3, #4]
 80006c0:	4b97      	ldr	r3, [pc, #604]	; (8000920 <stm32__device___elabs+0x470>)
 80006c2:	2280      	movs	r2, #128	; 0x80
 80006c4:	00d2      	lsls	r2, r2, #3
 80006c6:	811a      	strh	r2, [r3, #8]
 80006c8:	4a79      	ldr	r2, [pc, #484]	; (80008b0 <stm32__device___elabs+0x400>)
 80006ca:	4b95      	ldr	r3, [pc, #596]	; (8000920 <stm32__device___elabs+0x470>)
 80006cc:	601a      	str	r2, [r3, #0]
 80006ce:	4b95      	ldr	r3, [pc, #596]	; (8000924 <stm32__device___elabs+0x474>)
 80006d0:	4a89      	ldr	r2, [pc, #548]	; (80008f8 <stm32__device___elabs+0x448>)
 80006d2:	605a      	str	r2, [r3, #4]
 80006d4:	4b93      	ldr	r3, [pc, #588]	; (8000924 <stm32__device___elabs+0x474>)
 80006d6:	2280      	movs	r2, #128	; 0x80
 80006d8:	0112      	lsls	r2, r2, #4
 80006da:	811a      	strh	r2, [r3, #8]
 80006dc:	4a74      	ldr	r2, [pc, #464]	; (80008b0 <stm32__device___elabs+0x400>)
 80006de:	4b91      	ldr	r3, [pc, #580]	; (8000924 <stm32__device___elabs+0x474>)
 80006e0:	601a      	str	r2, [r3, #0]
 80006e2:	4b91      	ldr	r3, [pc, #580]	; (8000928 <stm32__device___elabs+0x478>)
 80006e4:	4a84      	ldr	r2, [pc, #528]	; (80008f8 <stm32__device___elabs+0x448>)
 80006e6:	605a      	str	r2, [r3, #4]
 80006e8:	4b8f      	ldr	r3, [pc, #572]	; (8000928 <stm32__device___elabs+0x478>)
 80006ea:	2280      	movs	r2, #128	; 0x80
 80006ec:	0152      	lsls	r2, r2, #5
 80006ee:	811a      	strh	r2, [r3, #8]
 80006f0:	4a6f      	ldr	r2, [pc, #444]	; (80008b0 <stm32__device___elabs+0x400>)
 80006f2:	4b8d      	ldr	r3, [pc, #564]	; (8000928 <stm32__device___elabs+0x478>)
 80006f4:	601a      	str	r2, [r3, #0]
 80006f6:	4b8d      	ldr	r3, [pc, #564]	; (800092c <stm32__device___elabs+0x47c>)
 80006f8:	4a7f      	ldr	r2, [pc, #508]	; (80008f8 <stm32__device___elabs+0x448>)
 80006fa:	605a      	str	r2, [r3, #4]
 80006fc:	4b8b      	ldr	r3, [pc, #556]	; (800092c <stm32__device___elabs+0x47c>)
 80006fe:	2280      	movs	r2, #128	; 0x80
 8000700:	0192      	lsls	r2, r2, #6
 8000702:	811a      	strh	r2, [r3, #8]
 8000704:	4a6a      	ldr	r2, [pc, #424]	; (80008b0 <stm32__device___elabs+0x400>)
 8000706:	4b89      	ldr	r3, [pc, #548]	; (800092c <stm32__device___elabs+0x47c>)
 8000708:	601a      	str	r2, [r3, #0]
 800070a:	4b89      	ldr	r3, [pc, #548]	; (8000930 <stm32__device___elabs+0x480>)
 800070c:	4a7a      	ldr	r2, [pc, #488]	; (80008f8 <stm32__device___elabs+0x448>)
 800070e:	605a      	str	r2, [r3, #4]
 8000710:	4b87      	ldr	r3, [pc, #540]	; (8000930 <stm32__device___elabs+0x480>)
 8000712:	2280      	movs	r2, #128	; 0x80
 8000714:	01d2      	lsls	r2, r2, #7
 8000716:	811a      	strh	r2, [r3, #8]
 8000718:	4a65      	ldr	r2, [pc, #404]	; (80008b0 <stm32__device___elabs+0x400>)
 800071a:	4b85      	ldr	r3, [pc, #532]	; (8000930 <stm32__device___elabs+0x480>)
 800071c:	601a      	str	r2, [r3, #0]
 800071e:	4b85      	ldr	r3, [pc, #532]	; (8000934 <stm32__device___elabs+0x484>)
 8000720:	4a75      	ldr	r2, [pc, #468]	; (80008f8 <stm32__device___elabs+0x448>)
 8000722:	605a      	str	r2, [r3, #4]
 8000724:	4b83      	ldr	r3, [pc, #524]	; (8000934 <stm32__device___elabs+0x484>)
 8000726:	4a72      	ldr	r2, [pc, #456]	; (80008f0 <stm32__device___elabs+0x440>)
 8000728:	811a      	strh	r2, [r3, #8]
 800072a:	4a61      	ldr	r2, [pc, #388]	; (80008b0 <stm32__device___elabs+0x400>)
 800072c:	4b81      	ldr	r3, [pc, #516]	; (8000934 <stm32__device___elabs+0x484>)
 800072e:	601a      	str	r2, [r3, #0]
 8000730:	4b81      	ldr	r3, [pc, #516]	; (8000938 <stm32__device___elabs+0x488>)
 8000732:	4a82      	ldr	r2, [pc, #520]	; (800093c <stm32__device___elabs+0x48c>)
 8000734:	605a      	str	r2, [r3, #4]
 8000736:	4b80      	ldr	r3, [pc, #512]	; (8000938 <stm32__device___elabs+0x488>)
 8000738:	2201      	movs	r2, #1
 800073a:	811a      	strh	r2, [r3, #8]
 800073c:	4a5c      	ldr	r2, [pc, #368]	; (80008b0 <stm32__device___elabs+0x400>)
 800073e:	4b7e      	ldr	r3, [pc, #504]	; (8000938 <stm32__device___elabs+0x488>)
 8000740:	601a      	str	r2, [r3, #0]
 8000742:	4b7f      	ldr	r3, [pc, #508]	; (8000940 <stm32__device___elabs+0x490>)
 8000744:	4a7d      	ldr	r2, [pc, #500]	; (800093c <stm32__device___elabs+0x48c>)
 8000746:	605a      	str	r2, [r3, #4]
 8000748:	4b7d      	ldr	r3, [pc, #500]	; (8000940 <stm32__device___elabs+0x490>)
 800074a:	2202      	movs	r2, #2
 800074c:	811a      	strh	r2, [r3, #8]
 800074e:	4a58      	ldr	r2, [pc, #352]	; (80008b0 <stm32__device___elabs+0x400>)
 8000750:	4b7b      	ldr	r3, [pc, #492]	; (8000940 <stm32__device___elabs+0x490>)
 8000752:	601a      	str	r2, [r3, #0]
 8000754:	4b7b      	ldr	r3, [pc, #492]	; (8000944 <stm32__device___elabs+0x494>)
 8000756:	4a79      	ldr	r2, [pc, #484]	; (800093c <stm32__device___elabs+0x48c>)
 8000758:	605a      	str	r2, [r3, #4]
 800075a:	4b7a      	ldr	r3, [pc, #488]	; (8000944 <stm32__device___elabs+0x494>)
 800075c:	2204      	movs	r2, #4
 800075e:	811a      	strh	r2, [r3, #8]
 8000760:	4a53      	ldr	r2, [pc, #332]	; (80008b0 <stm32__device___elabs+0x400>)
 8000762:	4b78      	ldr	r3, [pc, #480]	; (8000944 <stm32__device___elabs+0x494>)
 8000764:	601a      	str	r2, [r3, #0]
 8000766:	4b78      	ldr	r3, [pc, #480]	; (8000948 <stm32__device___elabs+0x498>)
 8000768:	4a74      	ldr	r2, [pc, #464]	; (800093c <stm32__device___elabs+0x48c>)
 800076a:	605a      	str	r2, [r3, #4]
 800076c:	4b76      	ldr	r3, [pc, #472]	; (8000948 <stm32__device___elabs+0x498>)
 800076e:	2208      	movs	r2, #8
 8000770:	811a      	strh	r2, [r3, #8]
 8000772:	4a4f      	ldr	r2, [pc, #316]	; (80008b0 <stm32__device___elabs+0x400>)
 8000774:	4b74      	ldr	r3, [pc, #464]	; (8000948 <stm32__device___elabs+0x498>)
 8000776:	601a      	str	r2, [r3, #0]
 8000778:	4b74      	ldr	r3, [pc, #464]	; (800094c <stm32__device___elabs+0x49c>)
 800077a:	4a70      	ldr	r2, [pc, #448]	; (800093c <stm32__device___elabs+0x48c>)
 800077c:	605a      	str	r2, [r3, #4]
 800077e:	4b73      	ldr	r3, [pc, #460]	; (800094c <stm32__device___elabs+0x49c>)
 8000780:	2210      	movs	r2, #16
 8000782:	811a      	strh	r2, [r3, #8]
 8000784:	4a4a      	ldr	r2, [pc, #296]	; (80008b0 <stm32__device___elabs+0x400>)
 8000786:	4b71      	ldr	r3, [pc, #452]	; (800094c <stm32__device___elabs+0x49c>)
 8000788:	601a      	str	r2, [r3, #0]
 800078a:	4b71      	ldr	r3, [pc, #452]	; (8000950 <stm32__device___elabs+0x4a0>)
 800078c:	4a6b      	ldr	r2, [pc, #428]	; (800093c <stm32__device___elabs+0x48c>)
 800078e:	605a      	str	r2, [r3, #4]
 8000790:	4b6f      	ldr	r3, [pc, #444]	; (8000950 <stm32__device___elabs+0x4a0>)
 8000792:	2220      	movs	r2, #32
 8000794:	811a      	strh	r2, [r3, #8]
 8000796:	4a46      	ldr	r2, [pc, #280]	; (80008b0 <stm32__device___elabs+0x400>)
 8000798:	4b6d      	ldr	r3, [pc, #436]	; (8000950 <stm32__device___elabs+0x4a0>)
 800079a:	601a      	str	r2, [r3, #0]
 800079c:	4b6d      	ldr	r3, [pc, #436]	; (8000954 <stm32__device___elabs+0x4a4>)
 800079e:	4a67      	ldr	r2, [pc, #412]	; (800093c <stm32__device___elabs+0x48c>)
 80007a0:	605a      	str	r2, [r3, #4]
 80007a2:	4b6c      	ldr	r3, [pc, #432]	; (8000954 <stm32__device___elabs+0x4a4>)
 80007a4:	2240      	movs	r2, #64	; 0x40
 80007a6:	811a      	strh	r2, [r3, #8]
 80007a8:	4a41      	ldr	r2, [pc, #260]	; (80008b0 <stm32__device___elabs+0x400>)
 80007aa:	4b6a      	ldr	r3, [pc, #424]	; (8000954 <stm32__device___elabs+0x4a4>)
 80007ac:	601a      	str	r2, [r3, #0]
 80007ae:	4b6a      	ldr	r3, [pc, #424]	; (8000958 <stm32__device___elabs+0x4a8>)
 80007b0:	4a62      	ldr	r2, [pc, #392]	; (800093c <stm32__device___elabs+0x48c>)
 80007b2:	605a      	str	r2, [r3, #4]
 80007b4:	4b68      	ldr	r3, [pc, #416]	; (8000958 <stm32__device___elabs+0x4a8>)
 80007b6:	2280      	movs	r2, #128	; 0x80
 80007b8:	811a      	strh	r2, [r3, #8]
 80007ba:	4a3d      	ldr	r2, [pc, #244]	; (80008b0 <stm32__device___elabs+0x400>)
 80007bc:	4b66      	ldr	r3, [pc, #408]	; (8000958 <stm32__device___elabs+0x4a8>)
 80007be:	601a      	str	r2, [r3, #0]
 80007c0:	4b66      	ldr	r3, [pc, #408]	; (800095c <stm32__device___elabs+0x4ac>)
 80007c2:	4a5e      	ldr	r2, [pc, #376]	; (800093c <stm32__device___elabs+0x48c>)
 80007c4:	605a      	str	r2, [r3, #4]
 80007c6:	4b65      	ldr	r3, [pc, #404]	; (800095c <stm32__device___elabs+0x4ac>)
 80007c8:	2280      	movs	r2, #128	; 0x80
 80007ca:	0052      	lsls	r2, r2, #1
 80007cc:	811a      	strh	r2, [r3, #8]
 80007ce:	4a38      	ldr	r2, [pc, #224]	; (80008b0 <stm32__device___elabs+0x400>)
 80007d0:	4b62      	ldr	r3, [pc, #392]	; (800095c <stm32__device___elabs+0x4ac>)
 80007d2:	601a      	str	r2, [r3, #0]
 80007d4:	4b62      	ldr	r3, [pc, #392]	; (8000960 <stm32__device___elabs+0x4b0>)
 80007d6:	4a59      	ldr	r2, [pc, #356]	; (800093c <stm32__device___elabs+0x48c>)
 80007d8:	605a      	str	r2, [r3, #4]
 80007da:	4b61      	ldr	r3, [pc, #388]	; (8000960 <stm32__device___elabs+0x4b0>)
 80007dc:	2280      	movs	r2, #128	; 0x80
 80007de:	0092      	lsls	r2, r2, #2
 80007e0:	811a      	strh	r2, [r3, #8]
 80007e2:	4a33      	ldr	r2, [pc, #204]	; (80008b0 <stm32__device___elabs+0x400>)
 80007e4:	4b5e      	ldr	r3, [pc, #376]	; (8000960 <stm32__device___elabs+0x4b0>)
 80007e6:	601a      	str	r2, [r3, #0]
 80007e8:	4b5e      	ldr	r3, [pc, #376]	; (8000964 <stm32__device___elabs+0x4b4>)
 80007ea:	4a54      	ldr	r2, [pc, #336]	; (800093c <stm32__device___elabs+0x48c>)
 80007ec:	605a      	str	r2, [r3, #4]
 80007ee:	4b5d      	ldr	r3, [pc, #372]	; (8000964 <stm32__device___elabs+0x4b4>)
 80007f0:	2280      	movs	r2, #128	; 0x80
 80007f2:	00d2      	lsls	r2, r2, #3
 80007f4:	811a      	strh	r2, [r3, #8]
 80007f6:	4a2e      	ldr	r2, [pc, #184]	; (80008b0 <stm32__device___elabs+0x400>)
 80007f8:	4b5a      	ldr	r3, [pc, #360]	; (8000964 <stm32__device___elabs+0x4b4>)
 80007fa:	601a      	str	r2, [r3, #0]
 80007fc:	4b5a      	ldr	r3, [pc, #360]	; (8000968 <stm32__device___elabs+0x4b8>)
 80007fe:	4a4f      	ldr	r2, [pc, #316]	; (800093c <stm32__device___elabs+0x48c>)
 8000800:	605a      	str	r2, [r3, #4]
 8000802:	4b59      	ldr	r3, [pc, #356]	; (8000968 <stm32__device___elabs+0x4b8>)
 8000804:	2280      	movs	r2, #128	; 0x80
 8000806:	0112      	lsls	r2, r2, #4
 8000808:	811a      	strh	r2, [r3, #8]
 800080a:	4a29      	ldr	r2, [pc, #164]	; (80008b0 <stm32__device___elabs+0x400>)
 800080c:	4b56      	ldr	r3, [pc, #344]	; (8000968 <stm32__device___elabs+0x4b8>)
 800080e:	601a      	str	r2, [r3, #0]
 8000810:	4b56      	ldr	r3, [pc, #344]	; (800096c <stm32__device___elabs+0x4bc>)
 8000812:	4a4a      	ldr	r2, [pc, #296]	; (800093c <stm32__device___elabs+0x48c>)
 8000814:	605a      	str	r2, [r3, #4]
 8000816:	4b55      	ldr	r3, [pc, #340]	; (800096c <stm32__device___elabs+0x4bc>)
 8000818:	2280      	movs	r2, #128	; 0x80
 800081a:	0152      	lsls	r2, r2, #5
 800081c:	811a      	strh	r2, [r3, #8]
 800081e:	4a24      	ldr	r2, [pc, #144]	; (80008b0 <stm32__device___elabs+0x400>)
 8000820:	4b52      	ldr	r3, [pc, #328]	; (800096c <stm32__device___elabs+0x4bc>)
 8000822:	601a      	str	r2, [r3, #0]
 8000824:	4b52      	ldr	r3, [pc, #328]	; (8000970 <stm32__device___elabs+0x4c0>)
 8000826:	4a45      	ldr	r2, [pc, #276]	; (800093c <stm32__device___elabs+0x48c>)
 8000828:	605a      	str	r2, [r3, #4]
 800082a:	4b51      	ldr	r3, [pc, #324]	; (8000970 <stm32__device___elabs+0x4c0>)
 800082c:	2280      	movs	r2, #128	; 0x80
 800082e:	0192      	lsls	r2, r2, #6
 8000830:	811a      	strh	r2, [r3, #8]
 8000832:	4a1f      	ldr	r2, [pc, #124]	; (80008b0 <stm32__device___elabs+0x400>)
 8000834:	4b4e      	ldr	r3, [pc, #312]	; (8000970 <stm32__device___elabs+0x4c0>)
 8000836:	601a      	str	r2, [r3, #0]
 8000838:	4b4e      	ldr	r3, [pc, #312]	; (8000974 <stm32__device___elabs+0x4c4>)
 800083a:	4a40      	ldr	r2, [pc, #256]	; (800093c <stm32__device___elabs+0x48c>)
 800083c:	605a      	str	r2, [r3, #4]
 800083e:	4b4d      	ldr	r3, [pc, #308]	; (8000974 <stm32__device___elabs+0x4c4>)
 8000840:	2280      	movs	r2, #128	; 0x80
 8000842:	01d2      	lsls	r2, r2, #7
 8000844:	811a      	strh	r2, [r3, #8]
 8000846:	4a1a      	ldr	r2, [pc, #104]	; (80008b0 <stm32__device___elabs+0x400>)
 8000848:	4b4a      	ldr	r3, [pc, #296]	; (8000974 <stm32__device___elabs+0x4c4>)
 800084a:	601a      	str	r2, [r3, #0]
 800084c:	4b4a      	ldr	r3, [pc, #296]	; (8000978 <stm32__device___elabs+0x4c8>)
 800084e:	4a3b      	ldr	r2, [pc, #236]	; (800093c <stm32__device___elabs+0x48c>)
 8000850:	605a      	str	r2, [r3, #4]
 8000852:	4b49      	ldr	r3, [pc, #292]	; (8000978 <stm32__device___elabs+0x4c8>)
 8000854:	4a26      	ldr	r2, [pc, #152]	; (80008f0 <stm32__device___elabs+0x440>)
 8000856:	811a      	strh	r2, [r3, #8]
 8000858:	4a15      	ldr	r2, [pc, #84]	; (80008b0 <stm32__device___elabs+0x400>)
 800085a:	4b47      	ldr	r3, [pc, #284]	; (8000978 <stm32__device___elabs+0x4c8>)
 800085c:	601a      	str	r2, [r3, #0]
 800085e:	4b47      	ldr	r3, [pc, #284]	; (800097c <stm32__device___elabs+0x4cc>)
 8000860:	4a47      	ldr	r2, [pc, #284]	; (8000980 <stm32__device___elabs+0x4d0>)
 8000862:	605a      	str	r2, [r3, #4]
 8000864:	4b45      	ldr	r3, [pc, #276]	; (800097c <stm32__device___elabs+0x4cc>)
 8000866:	2201      	movs	r2, #1
 8000868:	811a      	strh	r2, [r3, #8]
 800086a:	4a11      	ldr	r2, [pc, #68]	; (80008b0 <stm32__device___elabs+0x400>)
 800086c:	4b43      	ldr	r3, [pc, #268]	; (800097c <stm32__device___elabs+0x4cc>)
 800086e:	601a      	str	r2, [r3, #0]
 8000870:	4b44      	ldr	r3, [pc, #272]	; (8000984 <stm32__device___elabs+0x4d4>)
 8000872:	4a43      	ldr	r2, [pc, #268]	; (8000980 <stm32__device___elabs+0x4d0>)
 8000874:	605a      	str	r2, [r3, #4]
 8000876:	4b43      	ldr	r3, [pc, #268]	; (8000984 <stm32__device___elabs+0x4d4>)
 8000878:	2202      	movs	r2, #2
 800087a:	811a      	strh	r2, [r3, #8]
 800087c:	4a0c      	ldr	r2, [pc, #48]	; (80008b0 <stm32__device___elabs+0x400>)
 800087e:	4b41      	ldr	r3, [pc, #260]	; (8000984 <stm32__device___elabs+0x4d4>)
 8000880:	601a      	str	r2, [r3, #0]
 8000882:	4b41      	ldr	r3, [pc, #260]	; (8000988 <stm32__device___elabs+0x4d8>)
 8000884:	4a3e      	ldr	r2, [pc, #248]	; (8000980 <stm32__device___elabs+0x4d0>)
 8000886:	605a      	str	r2, [r3, #4]
 8000888:	4b3f      	ldr	r3, [pc, #252]	; (8000988 <stm32__device___elabs+0x4d8>)
 800088a:	2204      	movs	r2, #4
 800088c:	811a      	strh	r2, [r3, #8]
 800088e:	4a08      	ldr	r2, [pc, #32]	; (80008b0 <stm32__device___elabs+0x400>)
 8000890:	4b3d      	ldr	r3, [pc, #244]	; (8000988 <stm32__device___elabs+0x4d8>)
 8000892:	601a      	str	r2, [r3, #0]
 8000894:	4b3d      	ldr	r3, [pc, #244]	; (800098c <stm32__device___elabs+0x4dc>)
 8000896:	4a3a      	ldr	r2, [pc, #232]	; (8000980 <stm32__device___elabs+0x4d0>)
 8000898:	605a      	str	r2, [r3, #4]
 800089a:	4b3c      	ldr	r3, [pc, #240]	; (800098c <stm32__device___elabs+0x4dc>)
 800089c:	2208      	movs	r2, #8
 800089e:	811a      	strh	r2, [r3, #8]
 80008a0:	4a03      	ldr	r2, [pc, #12]	; (80008b0 <stm32__device___elabs+0x400>)
 80008a2:	4b3a      	ldr	r3, [pc, #232]	; (800098c <stm32__device___elabs+0x4dc>)
 80008a4:	601a      	str	r2, [r3, #0]
 80008a6:	4b3a      	ldr	r3, [pc, #232]	; (8000990 <stm32__device___elabs+0x4e0>)
 80008a8:	e074      	b.n	8000994 <stm32__device___elabs+0x4e4>
 80008aa:	46c0      	nop			; (mov r8, r8)
 80008ac:	20000290 	.word	0x20000290
 80008b0:	08009730 	.word	0x08009730
 80008b4:	2000029c 	.word	0x2000029c
 80008b8:	200002a8 	.word	0x200002a8
 80008bc:	200002b4 	.word	0x200002b4
 80008c0:	200002c0 	.word	0x200002c0
 80008c4:	200002cc 	.word	0x200002cc
 80008c8:	200002d8 	.word	0x200002d8
 80008cc:	200002e4 	.word	0x200002e4
 80008d0:	200002f0 	.word	0x200002f0
 80008d4:	200002fc 	.word	0x200002fc
 80008d8:	20000308 	.word	0x20000308
 80008dc:	20000314 	.word	0x20000314
 80008e0:	20000320 	.word	0x20000320
 80008e4:	2000032c 	.word	0x2000032c
 80008e8:	20000338 	.word	0x20000338
 80008ec:	20000344 	.word	0x20000344
 80008f0:	ffff8000 	.word	0xffff8000
 80008f4:	20000350 	.word	0x20000350
 80008f8:	50000400 	.word	0x50000400
 80008fc:	2000035c 	.word	0x2000035c
 8000900:	20000368 	.word	0x20000368
 8000904:	20000374 	.word	0x20000374
 8000908:	20000380 	.word	0x20000380
 800090c:	2000038c 	.word	0x2000038c
 8000910:	20000398 	.word	0x20000398
 8000914:	200003a4 	.word	0x200003a4
 8000918:	200003b0 	.word	0x200003b0
 800091c:	200003bc 	.word	0x200003bc
 8000920:	200003c8 	.word	0x200003c8
 8000924:	200003d4 	.word	0x200003d4
 8000928:	200003e0 	.word	0x200003e0
 800092c:	200003ec 	.word	0x200003ec
 8000930:	200003f8 	.word	0x200003f8
 8000934:	20000404 	.word	0x20000404
 8000938:	20000410 	.word	0x20000410
 800093c:	50000800 	.word	0x50000800
 8000940:	2000041c 	.word	0x2000041c
 8000944:	20000428 	.word	0x20000428
 8000948:	20000434 	.word	0x20000434
 800094c:	20000440 	.word	0x20000440
 8000950:	2000044c 	.word	0x2000044c
 8000954:	20000458 	.word	0x20000458
 8000958:	20000464 	.word	0x20000464
 800095c:	20000470 	.word	0x20000470
 8000960:	2000047c 	.word	0x2000047c
 8000964:	20000488 	.word	0x20000488
 8000968:	20000494 	.word	0x20000494
 800096c:	200004a0 	.word	0x200004a0
 8000970:	200004ac 	.word	0x200004ac
 8000974:	200004b8 	.word	0x200004b8
 8000978:	200004c4 	.word	0x200004c4
 800097c:	200004d0 	.word	0x200004d0
 8000980:	50000c00 	.word	0x50000c00
 8000984:	200004dc 	.word	0x200004dc
 8000988:	200004e8 	.word	0x200004e8
 800098c:	200004f4 	.word	0x200004f4
 8000990:	20000500 	.word	0x20000500
 8000994:	4a97      	ldr	r2, [pc, #604]	; (8000bf4 <stm32__device___elabs+0x744>)
 8000996:	605a      	str	r2, [r3, #4]
 8000998:	4b97      	ldr	r3, [pc, #604]	; (8000bf8 <stm32__device___elabs+0x748>)
 800099a:	2210      	movs	r2, #16
 800099c:	811a      	strh	r2, [r3, #8]
 800099e:	4a97      	ldr	r2, [pc, #604]	; (8000bfc <stm32__device___elabs+0x74c>)
 80009a0:	4b95      	ldr	r3, [pc, #596]	; (8000bf8 <stm32__device___elabs+0x748>)
 80009a2:	601a      	str	r2, [r3, #0]
 80009a4:	4b96      	ldr	r3, [pc, #600]	; (8000c00 <stm32__device___elabs+0x750>)
 80009a6:	4a93      	ldr	r2, [pc, #588]	; (8000bf4 <stm32__device___elabs+0x744>)
 80009a8:	605a      	str	r2, [r3, #4]
 80009aa:	4b95      	ldr	r3, [pc, #596]	; (8000c00 <stm32__device___elabs+0x750>)
 80009ac:	2220      	movs	r2, #32
 80009ae:	811a      	strh	r2, [r3, #8]
 80009b0:	4a92      	ldr	r2, [pc, #584]	; (8000bfc <stm32__device___elabs+0x74c>)
 80009b2:	4b93      	ldr	r3, [pc, #588]	; (8000c00 <stm32__device___elabs+0x750>)
 80009b4:	601a      	str	r2, [r3, #0]
 80009b6:	4b93      	ldr	r3, [pc, #588]	; (8000c04 <stm32__device___elabs+0x754>)
 80009b8:	4a8e      	ldr	r2, [pc, #568]	; (8000bf4 <stm32__device___elabs+0x744>)
 80009ba:	605a      	str	r2, [r3, #4]
 80009bc:	4b91      	ldr	r3, [pc, #580]	; (8000c04 <stm32__device___elabs+0x754>)
 80009be:	2240      	movs	r2, #64	; 0x40
 80009c0:	811a      	strh	r2, [r3, #8]
 80009c2:	4a8e      	ldr	r2, [pc, #568]	; (8000bfc <stm32__device___elabs+0x74c>)
 80009c4:	4b8f      	ldr	r3, [pc, #572]	; (8000c04 <stm32__device___elabs+0x754>)
 80009c6:	601a      	str	r2, [r3, #0]
 80009c8:	4b8f      	ldr	r3, [pc, #572]	; (8000c08 <stm32__device___elabs+0x758>)
 80009ca:	4a8a      	ldr	r2, [pc, #552]	; (8000bf4 <stm32__device___elabs+0x744>)
 80009cc:	605a      	str	r2, [r3, #4]
 80009ce:	4b8e      	ldr	r3, [pc, #568]	; (8000c08 <stm32__device___elabs+0x758>)
 80009d0:	2280      	movs	r2, #128	; 0x80
 80009d2:	811a      	strh	r2, [r3, #8]
 80009d4:	4a89      	ldr	r2, [pc, #548]	; (8000bfc <stm32__device___elabs+0x74c>)
 80009d6:	4b8c      	ldr	r3, [pc, #560]	; (8000c08 <stm32__device___elabs+0x758>)
 80009d8:	601a      	str	r2, [r3, #0]
 80009da:	4b8c      	ldr	r3, [pc, #560]	; (8000c0c <stm32__device___elabs+0x75c>)
 80009dc:	4a85      	ldr	r2, [pc, #532]	; (8000bf4 <stm32__device___elabs+0x744>)
 80009de:	605a      	str	r2, [r3, #4]
 80009e0:	4b8a      	ldr	r3, [pc, #552]	; (8000c0c <stm32__device___elabs+0x75c>)
 80009e2:	2280      	movs	r2, #128	; 0x80
 80009e4:	0052      	lsls	r2, r2, #1
 80009e6:	811a      	strh	r2, [r3, #8]
 80009e8:	4a84      	ldr	r2, [pc, #528]	; (8000bfc <stm32__device___elabs+0x74c>)
 80009ea:	4b88      	ldr	r3, [pc, #544]	; (8000c0c <stm32__device___elabs+0x75c>)
 80009ec:	601a      	str	r2, [r3, #0]
 80009ee:	4b88      	ldr	r3, [pc, #544]	; (8000c10 <stm32__device___elabs+0x760>)
 80009f0:	4a80      	ldr	r2, [pc, #512]	; (8000bf4 <stm32__device___elabs+0x744>)
 80009f2:	605a      	str	r2, [r3, #4]
 80009f4:	4b86      	ldr	r3, [pc, #536]	; (8000c10 <stm32__device___elabs+0x760>)
 80009f6:	2280      	movs	r2, #128	; 0x80
 80009f8:	0092      	lsls	r2, r2, #2
 80009fa:	811a      	strh	r2, [r3, #8]
 80009fc:	4a7f      	ldr	r2, [pc, #508]	; (8000bfc <stm32__device___elabs+0x74c>)
 80009fe:	4b84      	ldr	r3, [pc, #528]	; (8000c10 <stm32__device___elabs+0x760>)
 8000a00:	601a      	str	r2, [r3, #0]
 8000a02:	4b84      	ldr	r3, [pc, #528]	; (8000c14 <stm32__device___elabs+0x764>)
 8000a04:	4a7b      	ldr	r2, [pc, #492]	; (8000bf4 <stm32__device___elabs+0x744>)
 8000a06:	605a      	str	r2, [r3, #4]
 8000a08:	4b82      	ldr	r3, [pc, #520]	; (8000c14 <stm32__device___elabs+0x764>)
 8000a0a:	2280      	movs	r2, #128	; 0x80
 8000a0c:	00d2      	lsls	r2, r2, #3
 8000a0e:	811a      	strh	r2, [r3, #8]
 8000a10:	4a7a      	ldr	r2, [pc, #488]	; (8000bfc <stm32__device___elabs+0x74c>)
 8000a12:	4b80      	ldr	r3, [pc, #512]	; (8000c14 <stm32__device___elabs+0x764>)
 8000a14:	601a      	str	r2, [r3, #0]
 8000a16:	4b80      	ldr	r3, [pc, #512]	; (8000c18 <stm32__device___elabs+0x768>)
 8000a18:	4a76      	ldr	r2, [pc, #472]	; (8000bf4 <stm32__device___elabs+0x744>)
 8000a1a:	605a      	str	r2, [r3, #4]
 8000a1c:	4b7e      	ldr	r3, [pc, #504]	; (8000c18 <stm32__device___elabs+0x768>)
 8000a1e:	2280      	movs	r2, #128	; 0x80
 8000a20:	0112      	lsls	r2, r2, #4
 8000a22:	811a      	strh	r2, [r3, #8]
 8000a24:	4a75      	ldr	r2, [pc, #468]	; (8000bfc <stm32__device___elabs+0x74c>)
 8000a26:	4b7c      	ldr	r3, [pc, #496]	; (8000c18 <stm32__device___elabs+0x768>)
 8000a28:	601a      	str	r2, [r3, #0]
 8000a2a:	4b7c      	ldr	r3, [pc, #496]	; (8000c1c <stm32__device___elabs+0x76c>)
 8000a2c:	4a71      	ldr	r2, [pc, #452]	; (8000bf4 <stm32__device___elabs+0x744>)
 8000a2e:	605a      	str	r2, [r3, #4]
 8000a30:	4b7a      	ldr	r3, [pc, #488]	; (8000c1c <stm32__device___elabs+0x76c>)
 8000a32:	2280      	movs	r2, #128	; 0x80
 8000a34:	0152      	lsls	r2, r2, #5
 8000a36:	811a      	strh	r2, [r3, #8]
 8000a38:	4a70      	ldr	r2, [pc, #448]	; (8000bfc <stm32__device___elabs+0x74c>)
 8000a3a:	4b78      	ldr	r3, [pc, #480]	; (8000c1c <stm32__device___elabs+0x76c>)
 8000a3c:	601a      	str	r2, [r3, #0]
 8000a3e:	4b78      	ldr	r3, [pc, #480]	; (8000c20 <stm32__device___elabs+0x770>)
 8000a40:	4a6c      	ldr	r2, [pc, #432]	; (8000bf4 <stm32__device___elabs+0x744>)
 8000a42:	605a      	str	r2, [r3, #4]
 8000a44:	4b76      	ldr	r3, [pc, #472]	; (8000c20 <stm32__device___elabs+0x770>)
 8000a46:	2280      	movs	r2, #128	; 0x80
 8000a48:	0192      	lsls	r2, r2, #6
 8000a4a:	811a      	strh	r2, [r3, #8]
 8000a4c:	4a6b      	ldr	r2, [pc, #428]	; (8000bfc <stm32__device___elabs+0x74c>)
 8000a4e:	4b74      	ldr	r3, [pc, #464]	; (8000c20 <stm32__device___elabs+0x770>)
 8000a50:	601a      	str	r2, [r3, #0]
 8000a52:	4b74      	ldr	r3, [pc, #464]	; (8000c24 <stm32__device___elabs+0x774>)
 8000a54:	4a67      	ldr	r2, [pc, #412]	; (8000bf4 <stm32__device___elabs+0x744>)
 8000a56:	605a      	str	r2, [r3, #4]
 8000a58:	4b72      	ldr	r3, [pc, #456]	; (8000c24 <stm32__device___elabs+0x774>)
 8000a5a:	2280      	movs	r2, #128	; 0x80
 8000a5c:	01d2      	lsls	r2, r2, #7
 8000a5e:	811a      	strh	r2, [r3, #8]
 8000a60:	4a66      	ldr	r2, [pc, #408]	; (8000bfc <stm32__device___elabs+0x74c>)
 8000a62:	4b70      	ldr	r3, [pc, #448]	; (8000c24 <stm32__device___elabs+0x774>)
 8000a64:	601a      	str	r2, [r3, #0]
 8000a66:	4b70      	ldr	r3, [pc, #448]	; (8000c28 <stm32__device___elabs+0x778>)
 8000a68:	4a62      	ldr	r2, [pc, #392]	; (8000bf4 <stm32__device___elabs+0x744>)
 8000a6a:	605a      	str	r2, [r3, #4]
 8000a6c:	4b6e      	ldr	r3, [pc, #440]	; (8000c28 <stm32__device___elabs+0x778>)
 8000a6e:	4a6f      	ldr	r2, [pc, #444]	; (8000c2c <stm32__device___elabs+0x77c>)
 8000a70:	811a      	strh	r2, [r3, #8]
 8000a72:	4a62      	ldr	r2, [pc, #392]	; (8000bfc <stm32__device___elabs+0x74c>)
 8000a74:	4b6c      	ldr	r3, [pc, #432]	; (8000c28 <stm32__device___elabs+0x778>)
 8000a76:	601a      	str	r2, [r3, #0]
 8000a78:	4b6d      	ldr	r3, [pc, #436]	; (8000c30 <stm32__device___elabs+0x780>)
 8000a7a:	4a6e      	ldr	r2, [pc, #440]	; (8000c34 <stm32__device___elabs+0x784>)
 8000a7c:	605a      	str	r2, [r3, #4]
 8000a7e:	4b6c      	ldr	r3, [pc, #432]	; (8000c30 <stm32__device___elabs+0x780>)
 8000a80:	2201      	movs	r2, #1
 8000a82:	811a      	strh	r2, [r3, #8]
 8000a84:	4a5d      	ldr	r2, [pc, #372]	; (8000bfc <stm32__device___elabs+0x74c>)
 8000a86:	4b6a      	ldr	r3, [pc, #424]	; (8000c30 <stm32__device___elabs+0x780>)
 8000a88:	601a      	str	r2, [r3, #0]
 8000a8a:	4b6b      	ldr	r3, [pc, #428]	; (8000c38 <stm32__device___elabs+0x788>)
 8000a8c:	4a69      	ldr	r2, [pc, #420]	; (8000c34 <stm32__device___elabs+0x784>)
 8000a8e:	605a      	str	r2, [r3, #4]
 8000a90:	4b69      	ldr	r3, [pc, #420]	; (8000c38 <stm32__device___elabs+0x788>)
 8000a92:	2202      	movs	r2, #2
 8000a94:	811a      	strh	r2, [r3, #8]
 8000a96:	4a59      	ldr	r2, [pc, #356]	; (8000bfc <stm32__device___elabs+0x74c>)
 8000a98:	4b67      	ldr	r3, [pc, #412]	; (8000c38 <stm32__device___elabs+0x788>)
 8000a9a:	601a      	str	r2, [r3, #0]
 8000a9c:	4b67      	ldr	r3, [pc, #412]	; (8000c3c <stm32__device___elabs+0x78c>)
 8000a9e:	4a65      	ldr	r2, [pc, #404]	; (8000c34 <stm32__device___elabs+0x784>)
 8000aa0:	605a      	str	r2, [r3, #4]
 8000aa2:	4b66      	ldr	r3, [pc, #408]	; (8000c3c <stm32__device___elabs+0x78c>)
 8000aa4:	2204      	movs	r2, #4
 8000aa6:	811a      	strh	r2, [r3, #8]
 8000aa8:	4a54      	ldr	r2, [pc, #336]	; (8000bfc <stm32__device___elabs+0x74c>)
 8000aaa:	4b64      	ldr	r3, [pc, #400]	; (8000c3c <stm32__device___elabs+0x78c>)
 8000aac:	601a      	str	r2, [r3, #0]
 8000aae:	4b64      	ldr	r3, [pc, #400]	; (8000c40 <stm32__device___elabs+0x790>)
 8000ab0:	4a60      	ldr	r2, [pc, #384]	; (8000c34 <stm32__device___elabs+0x784>)
 8000ab2:	605a      	str	r2, [r3, #4]
 8000ab4:	4b62      	ldr	r3, [pc, #392]	; (8000c40 <stm32__device___elabs+0x790>)
 8000ab6:	2208      	movs	r2, #8
 8000ab8:	811a      	strh	r2, [r3, #8]
 8000aba:	4a50      	ldr	r2, [pc, #320]	; (8000bfc <stm32__device___elabs+0x74c>)
 8000abc:	4b60      	ldr	r3, [pc, #384]	; (8000c40 <stm32__device___elabs+0x790>)
 8000abe:	601a      	str	r2, [r3, #0]
 8000ac0:	4b60      	ldr	r3, [pc, #384]	; (8000c44 <stm32__device___elabs+0x794>)
 8000ac2:	4a5c      	ldr	r2, [pc, #368]	; (8000c34 <stm32__device___elabs+0x784>)
 8000ac4:	605a      	str	r2, [r3, #4]
 8000ac6:	4b5f      	ldr	r3, [pc, #380]	; (8000c44 <stm32__device___elabs+0x794>)
 8000ac8:	2210      	movs	r2, #16
 8000aca:	811a      	strh	r2, [r3, #8]
 8000acc:	4a4b      	ldr	r2, [pc, #300]	; (8000bfc <stm32__device___elabs+0x74c>)
 8000ace:	4b5d      	ldr	r3, [pc, #372]	; (8000c44 <stm32__device___elabs+0x794>)
 8000ad0:	601a      	str	r2, [r3, #0]
 8000ad2:	4b5d      	ldr	r3, [pc, #372]	; (8000c48 <stm32__device___elabs+0x798>)
 8000ad4:	4a57      	ldr	r2, [pc, #348]	; (8000c34 <stm32__device___elabs+0x784>)
 8000ad6:	605a      	str	r2, [r3, #4]
 8000ad8:	4b5b      	ldr	r3, [pc, #364]	; (8000c48 <stm32__device___elabs+0x798>)
 8000ada:	2220      	movs	r2, #32
 8000adc:	811a      	strh	r2, [r3, #8]
 8000ade:	4a47      	ldr	r2, [pc, #284]	; (8000bfc <stm32__device___elabs+0x74c>)
 8000ae0:	4b59      	ldr	r3, [pc, #356]	; (8000c48 <stm32__device___elabs+0x798>)
 8000ae2:	601a      	str	r2, [r3, #0]
 8000ae4:	4b59      	ldr	r3, [pc, #356]	; (8000c4c <stm32__device___elabs+0x79c>)
 8000ae6:	4a53      	ldr	r2, [pc, #332]	; (8000c34 <stm32__device___elabs+0x784>)
 8000ae8:	605a      	str	r2, [r3, #4]
 8000aea:	4b58      	ldr	r3, [pc, #352]	; (8000c4c <stm32__device___elabs+0x79c>)
 8000aec:	2240      	movs	r2, #64	; 0x40
 8000aee:	811a      	strh	r2, [r3, #8]
 8000af0:	4a42      	ldr	r2, [pc, #264]	; (8000bfc <stm32__device___elabs+0x74c>)
 8000af2:	4b56      	ldr	r3, [pc, #344]	; (8000c4c <stm32__device___elabs+0x79c>)
 8000af4:	601a      	str	r2, [r3, #0]
 8000af6:	4b56      	ldr	r3, [pc, #344]	; (8000c50 <stm32__device___elabs+0x7a0>)
 8000af8:	4a4e      	ldr	r2, [pc, #312]	; (8000c34 <stm32__device___elabs+0x784>)
 8000afa:	605a      	str	r2, [r3, #4]
 8000afc:	4b54      	ldr	r3, [pc, #336]	; (8000c50 <stm32__device___elabs+0x7a0>)
 8000afe:	2280      	movs	r2, #128	; 0x80
 8000b00:	811a      	strh	r2, [r3, #8]
 8000b02:	4a3e      	ldr	r2, [pc, #248]	; (8000bfc <stm32__device___elabs+0x74c>)
 8000b04:	4b52      	ldr	r3, [pc, #328]	; (8000c50 <stm32__device___elabs+0x7a0>)
 8000b06:	601a      	str	r2, [r3, #0]
 8000b08:	4b52      	ldr	r3, [pc, #328]	; (8000c54 <stm32__device___elabs+0x7a4>)
 8000b0a:	4a4a      	ldr	r2, [pc, #296]	; (8000c34 <stm32__device___elabs+0x784>)
 8000b0c:	605a      	str	r2, [r3, #4]
 8000b0e:	4b51      	ldr	r3, [pc, #324]	; (8000c54 <stm32__device___elabs+0x7a4>)
 8000b10:	2280      	movs	r2, #128	; 0x80
 8000b12:	0052      	lsls	r2, r2, #1
 8000b14:	811a      	strh	r2, [r3, #8]
 8000b16:	4a39      	ldr	r2, [pc, #228]	; (8000bfc <stm32__device___elabs+0x74c>)
 8000b18:	4b4e      	ldr	r3, [pc, #312]	; (8000c54 <stm32__device___elabs+0x7a4>)
 8000b1a:	601a      	str	r2, [r3, #0]
 8000b1c:	4b4e      	ldr	r3, [pc, #312]	; (8000c58 <stm32__device___elabs+0x7a8>)
 8000b1e:	4a45      	ldr	r2, [pc, #276]	; (8000c34 <stm32__device___elabs+0x784>)
 8000b20:	605a      	str	r2, [r3, #4]
 8000b22:	4b4d      	ldr	r3, [pc, #308]	; (8000c58 <stm32__device___elabs+0x7a8>)
 8000b24:	2280      	movs	r2, #128	; 0x80
 8000b26:	0092      	lsls	r2, r2, #2
 8000b28:	811a      	strh	r2, [r3, #8]
 8000b2a:	4a34      	ldr	r2, [pc, #208]	; (8000bfc <stm32__device___elabs+0x74c>)
 8000b2c:	4b4a      	ldr	r3, [pc, #296]	; (8000c58 <stm32__device___elabs+0x7a8>)
 8000b2e:	601a      	str	r2, [r3, #0]
 8000b30:	4b4a      	ldr	r3, [pc, #296]	; (8000c5c <stm32__device___elabs+0x7ac>)
 8000b32:	4a40      	ldr	r2, [pc, #256]	; (8000c34 <stm32__device___elabs+0x784>)
 8000b34:	605a      	str	r2, [r3, #4]
 8000b36:	4b49      	ldr	r3, [pc, #292]	; (8000c5c <stm32__device___elabs+0x7ac>)
 8000b38:	2280      	movs	r2, #128	; 0x80
 8000b3a:	00d2      	lsls	r2, r2, #3
 8000b3c:	811a      	strh	r2, [r3, #8]
 8000b3e:	4a2f      	ldr	r2, [pc, #188]	; (8000bfc <stm32__device___elabs+0x74c>)
 8000b40:	4b46      	ldr	r3, [pc, #280]	; (8000c5c <stm32__device___elabs+0x7ac>)
 8000b42:	601a      	str	r2, [r3, #0]
 8000b44:	4b46      	ldr	r3, [pc, #280]	; (8000c60 <stm32__device___elabs+0x7b0>)
 8000b46:	4a3b      	ldr	r2, [pc, #236]	; (8000c34 <stm32__device___elabs+0x784>)
 8000b48:	605a      	str	r2, [r3, #4]
 8000b4a:	4b45      	ldr	r3, [pc, #276]	; (8000c60 <stm32__device___elabs+0x7b0>)
 8000b4c:	2280      	movs	r2, #128	; 0x80
 8000b4e:	0112      	lsls	r2, r2, #4
 8000b50:	811a      	strh	r2, [r3, #8]
 8000b52:	4a2a      	ldr	r2, [pc, #168]	; (8000bfc <stm32__device___elabs+0x74c>)
 8000b54:	4b42      	ldr	r3, [pc, #264]	; (8000c60 <stm32__device___elabs+0x7b0>)
 8000b56:	601a      	str	r2, [r3, #0]
 8000b58:	4b42      	ldr	r3, [pc, #264]	; (8000c64 <stm32__device___elabs+0x7b4>)
 8000b5a:	4a36      	ldr	r2, [pc, #216]	; (8000c34 <stm32__device___elabs+0x784>)
 8000b5c:	605a      	str	r2, [r3, #4]
 8000b5e:	4b41      	ldr	r3, [pc, #260]	; (8000c64 <stm32__device___elabs+0x7b4>)
 8000b60:	2280      	movs	r2, #128	; 0x80
 8000b62:	0152      	lsls	r2, r2, #5
 8000b64:	811a      	strh	r2, [r3, #8]
 8000b66:	4a25      	ldr	r2, [pc, #148]	; (8000bfc <stm32__device___elabs+0x74c>)
 8000b68:	4b3e      	ldr	r3, [pc, #248]	; (8000c64 <stm32__device___elabs+0x7b4>)
 8000b6a:	601a      	str	r2, [r3, #0]
 8000b6c:	4b3e      	ldr	r3, [pc, #248]	; (8000c68 <stm32__device___elabs+0x7b8>)
 8000b6e:	4a31      	ldr	r2, [pc, #196]	; (8000c34 <stm32__device___elabs+0x784>)
 8000b70:	605a      	str	r2, [r3, #4]
 8000b72:	4b3d      	ldr	r3, [pc, #244]	; (8000c68 <stm32__device___elabs+0x7b8>)
 8000b74:	2280      	movs	r2, #128	; 0x80
 8000b76:	0192      	lsls	r2, r2, #6
 8000b78:	811a      	strh	r2, [r3, #8]
 8000b7a:	4a20      	ldr	r2, [pc, #128]	; (8000bfc <stm32__device___elabs+0x74c>)
 8000b7c:	4b3a      	ldr	r3, [pc, #232]	; (8000c68 <stm32__device___elabs+0x7b8>)
 8000b7e:	601a      	str	r2, [r3, #0]
 8000b80:	4b3a      	ldr	r3, [pc, #232]	; (8000c6c <stm32__device___elabs+0x7bc>)
 8000b82:	4a2c      	ldr	r2, [pc, #176]	; (8000c34 <stm32__device___elabs+0x784>)
 8000b84:	605a      	str	r2, [r3, #4]
 8000b86:	4b39      	ldr	r3, [pc, #228]	; (8000c6c <stm32__device___elabs+0x7bc>)
 8000b88:	2280      	movs	r2, #128	; 0x80
 8000b8a:	01d2      	lsls	r2, r2, #7
 8000b8c:	811a      	strh	r2, [r3, #8]
 8000b8e:	4a1b      	ldr	r2, [pc, #108]	; (8000bfc <stm32__device___elabs+0x74c>)
 8000b90:	4b36      	ldr	r3, [pc, #216]	; (8000c6c <stm32__device___elabs+0x7bc>)
 8000b92:	601a      	str	r2, [r3, #0]
 8000b94:	4b36      	ldr	r3, [pc, #216]	; (8000c70 <stm32__device___elabs+0x7c0>)
 8000b96:	4a27      	ldr	r2, [pc, #156]	; (8000c34 <stm32__device___elabs+0x784>)
 8000b98:	605a      	str	r2, [r3, #4]
 8000b9a:	4b35      	ldr	r3, [pc, #212]	; (8000c70 <stm32__device___elabs+0x7c0>)
 8000b9c:	4a23      	ldr	r2, [pc, #140]	; (8000c2c <stm32__device___elabs+0x77c>)
 8000b9e:	811a      	strh	r2, [r3, #8]
 8000ba0:	4a16      	ldr	r2, [pc, #88]	; (8000bfc <stm32__device___elabs+0x74c>)
 8000ba2:	4b33      	ldr	r3, [pc, #204]	; (8000c70 <stm32__device___elabs+0x7c0>)
 8000ba4:	601a      	str	r2, [r3, #0]
 8000ba6:	4933      	ldr	r1, [pc, #204]	; (8000c74 <stm32__device___elabs+0x7c4>)
 8000ba8:	4b33      	ldr	r3, [pc, #204]	; (8000c78 <stm32__device___elabs+0x7c8>)
 8000baa:	2201      	movs	r2, #1
 8000bac:	0018      	movs	r0, r3
 8000bae:	f000 fff3 	bl	8001b98 <stm32__i2c__i2c_portIP>
 8000bb2:	4932      	ldr	r1, [pc, #200]	; (8000c7c <stm32__device___elabs+0x7cc>)
 8000bb4:	4b32      	ldr	r3, [pc, #200]	; (8000c80 <stm32__device___elabs+0x7d0>)
 8000bb6:	2201      	movs	r2, #1
 8000bb8:	0018      	movs	r0, r3
 8000bba:	f000 ffed 	bl	8001b98 <stm32__i2c__i2c_portIP>
 8000bbe:	4931      	ldr	r1, [pc, #196]	; (8000c84 <stm32__device___elabs+0x7d4>)
 8000bc0:	4b31      	ldr	r3, [pc, #196]	; (8000c88 <stm32__device___elabs+0x7d8>)
 8000bc2:	2201      	movs	r2, #1
 8000bc4:	0018      	movs	r0, r3
 8000bc6:	f000 ffe7 	bl	8001b98 <stm32__i2c__i2c_portIP>
 8000bca:	4930      	ldr	r1, [pc, #192]	; (8000c8c <stm32__device___elabs+0x7dc>)
 8000bcc:	4b30      	ldr	r3, [pc, #192]	; (8000c90 <stm32__device___elabs+0x7e0>)
 8000bce:	2201      	movs	r2, #1
 8000bd0:	0018      	movs	r0, r3
 8000bd2:	f004 f8bd 	bl	8004d50 <stm32__spi__spi_portIP>
 8000bd6:	492f      	ldr	r1, [pc, #188]	; (8000c94 <stm32__device___elabs+0x7e4>)
 8000bd8:	4b2f      	ldr	r3, [pc, #188]	; (8000c98 <stm32__device___elabs+0x7e8>)
 8000bda:	2201      	movs	r2, #1
 8000bdc:	0018      	movs	r0, r3
 8000bde:	f004 f8b7 	bl	8004d50 <stm32__spi__spi_portIP>
 8000be2:	492e      	ldr	r1, [pc, #184]	; (8000c9c <stm32__device___elabs+0x7ec>)
 8000be4:	4b2e      	ldr	r3, [pc, #184]	; (8000ca0 <stm32__device___elabs+0x7f0>)
 8000be6:	2201      	movs	r2, #1
 8000be8:	0018      	movs	r0, r3
 8000bea:	f004 f8b1 	bl	8004d50 <stm32__spi__spi_portIP>
 8000bee:	46bd      	mov	sp, r7
 8000bf0:	bd80      	pop	{r7, pc}
 8000bf2:	46c0      	nop			; (mov r8, r8)
 8000bf4:	50000c00 	.word	0x50000c00
 8000bf8:	20000500 	.word	0x20000500
 8000bfc:	08009730 	.word	0x08009730
 8000c00:	2000050c 	.word	0x2000050c
 8000c04:	20000518 	.word	0x20000518
 8000c08:	20000524 	.word	0x20000524
 8000c0c:	20000530 	.word	0x20000530
 8000c10:	2000053c 	.word	0x2000053c
 8000c14:	20000548 	.word	0x20000548
 8000c18:	20000554 	.word	0x20000554
 8000c1c:	20000560 	.word	0x20000560
 8000c20:	2000056c 	.word	0x2000056c
 8000c24:	20000578 	.word	0x20000578
 8000c28:	20000584 	.word	0x20000584
 8000c2c:	ffff8000 	.word	0xffff8000
 8000c30:	20000590 	.word	0x20000590
 8000c34:	50001000 	.word	0x50001000
 8000c38:	2000059c 	.word	0x2000059c
 8000c3c:	200005a8 	.word	0x200005a8
 8000c40:	200005b4 	.word	0x200005b4
 8000c44:	200005c0 	.word	0x200005c0
 8000c48:	200005cc 	.word	0x200005cc
 8000c4c:	200005d8 	.word	0x200005d8
 8000c50:	200005e4 	.word	0x200005e4
 8000c54:	200005f0 	.word	0x200005f0
 8000c58:	200005fc 	.word	0x200005fc
 8000c5c:	20000608 	.word	0x20000608
 8000c60:	20000614 	.word	0x20000614
 8000c64:	20000620 	.word	0x20000620
 8000c68:	2000062c 	.word	0x2000062c
 8000c6c:	20000638 	.word	0x20000638
 8000c70:	20000644 	.word	0x20000644
 8000c74:	40005400 	.word	0x40005400
 8000c78:	20000650 	.word	0x20000650
 8000c7c:	40005800 	.word	0x40005800
 8000c80:	20000668 	.word	0x20000668
 8000c84:	40008800 	.word	0x40008800
 8000c88:	20000680 	.word	0x20000680
 8000c8c:	40013000 	.word	0x40013000
 8000c90:	20000698 	.word	0x20000698
 8000c94:	40003800 	.word	0x40003800
 8000c98:	200006a0 	.word	0x200006a0
 8000c9c:	40003c00 	.word	0x40003c00
 8000ca0:	200006a8 	.word	0x200006a8

08000ca4 <stm32__exti__enable_external_interrupt>:
 8000ca4:	b580      	push	{r7, lr}
 8000ca6:	b088      	sub	sp, #32
 8000ca8:	af00      	add	r7, sp, #0
 8000caa:	0002      	movs	r2, r0
 8000cac:	1dfb      	adds	r3, r7, #7
 8000cae:	701a      	strb	r2, [r3, #0]
 8000cb0:	1dbb      	adds	r3, r7, #6
 8000cb2:	1c0a      	adds	r2, r1, #0
 8000cb4:	701a      	strb	r2, [r3, #0]
 8000cb6:	1dfb      	adds	r3, r7, #7
 8000cb8:	781b      	ldrb	r3, [r3, #0]
 8000cba:	61fb      	str	r3, [r7, #28]
 8000cbc:	69fb      	ldr	r3, [r7, #28]
 8000cbe:	2b1f      	cmp	r3, #31
 8000cc0:	dd04      	ble.n	8000ccc <stm32__exti__enable_external_interrupt+0x28>
 8000cc2:	4b8b      	ldr	r3, [pc, #556]	; (8000ef0 <stm32__exti__enable_external_interrupt+0x24c>)
 8000cc4:	213b      	movs	r1, #59	; 0x3b
 8000cc6:	0018      	movs	r0, r3
 8000cc8:	f007 fd16 	bl	80086f8 <__gnat_last_chance_handler>
 8000ccc:	4b89      	ldr	r3, [pc, #548]	; (8000ef4 <stm32__exti__enable_external_interrupt+0x250>)
 8000cce:	3380      	adds	r3, #128	; 0x80
 8000cd0:	681b      	ldr	r3, [r3, #0]
 8000cd2:	61bb      	str	r3, [r7, #24]
 8000cd4:	69b9      	ldr	r1, [r7, #24]
 8000cd6:	69fb      	ldr	r3, [r7, #28]
 8000cd8:	2201      	movs	r2, #1
 8000cda:	409a      	lsls	r2, r3
 8000cdc:	4b85      	ldr	r3, [pc, #532]	; (8000ef4 <stm32__exti__enable_external_interrupt+0x250>)
 8000cde:	3380      	adds	r3, #128	; 0x80
 8000ce0:	681b      	ldr	r3, [r3, #0]
 8000ce2:	0018      	movs	r0, r3
 8000ce4:	000b      	movs	r3, r1
 8000ce6:	4313      	orrs	r3, r2
 8000ce8:	0018      	movs	r0, r3
 8000cea:	4b82      	ldr	r3, [pc, #520]	; (8000ef4 <stm32__exti__enable_external_interrupt+0x250>)
 8000cec:	3380      	adds	r3, #128	; 0x80
 8000cee:	0002      	movs	r2, r0
 8000cf0:	601a      	str	r2, [r3, #0]
 8000cf2:	69fb      	ldr	r3, [r7, #28]
 8000cf4:	2b11      	cmp	r3, #17
 8000cf6:	dc00      	bgt.n	8000cfa <stm32__exti__enable_external_interrupt+0x56>
 8000cf8:	e07b      	b.n	8000df2 <stm32__exti__enable_external_interrupt+0x14e>
 8000cfa:	69fb      	ldr	r3, [r7, #28]
 8000cfc:	2b15      	cmp	r3, #21
 8000cfe:	dd04      	ble.n	8000d0a <stm32__exti__enable_external_interrupt+0x66>
 8000d00:	4b7b      	ldr	r3, [pc, #492]	; (8000ef0 <stm32__exti__enable_external_interrupt+0x24c>)
 8000d02:	213d      	movs	r1, #61	; 0x3d
 8000d04:	0018      	movs	r0, r3
 8000d06:	f007 fcf7 	bl	80086f8 <__gnat_last_chance_handler>
 8000d0a:	4b7a      	ldr	r3, [pc, #488]	; (8000ef4 <stm32__exti__enable_external_interrupt+0x250>)
 8000d0c:	681b      	ldr	r3, [r3, #0]
 8000d0e:	029b      	lsls	r3, r3, #10
 8000d10:	0a9b      	lsrs	r3, r3, #10
 8000d12:	029b      	lsls	r3, r3, #10
 8000d14:	0a9b      	lsrs	r3, r3, #10
 8000d16:	697a      	ldr	r2, [r7, #20]
 8000d18:	0d92      	lsrs	r2, r2, #22
 8000d1a:	0592      	lsls	r2, r2, #22
 8000d1c:	4313      	orrs	r3, r2
 8000d1e:	617b      	str	r3, [r7, #20]
 8000d20:	697b      	ldr	r3, [r7, #20]
 8000d22:	029b      	lsls	r3, r3, #10
 8000d24:	0a9b      	lsrs	r3, r3, #10
 8000d26:	0019      	movs	r1, r3
 8000d28:	69fb      	ldr	r3, [r7, #28]
 8000d2a:	2201      	movs	r2, #1
 8000d2c:	409a      	lsls	r2, r3
 8000d2e:	0013      	movs	r3, r2
 8000d30:	43db      	mvns	r3, r3
 8000d32:	400b      	ands	r3, r1
 8000d34:	001a      	movs	r2, r3
 8000d36:	1dbb      	adds	r3, r7, #6
 8000d38:	781b      	ldrb	r3, [r3, #0]
 8000d3a:	2b00      	cmp	r3, #0
 8000d3c:	d003      	beq.n	8000d46 <stm32__exti__enable_external_interrupt+0xa2>
 8000d3e:	1dbb      	adds	r3, r7, #6
 8000d40:	781b      	ldrb	r3, [r3, #0]
 8000d42:	2b02      	cmp	r3, #2
 8000d44:	d101      	bne.n	8000d4a <stm32__exti__enable_external_interrupt+0xa6>
 8000d46:	2301      	movs	r3, #1
 8000d48:	e000      	b.n	8000d4c <stm32__exti__enable_external_interrupt+0xa8>
 8000d4a:	2300      	movs	r3, #0
 8000d4c:	0019      	movs	r1, r3
 8000d4e:	69fb      	ldr	r3, [r7, #28]
 8000d50:	4099      	lsls	r1, r3
 8000d52:	000b      	movs	r3, r1
 8000d54:	431a      	orrs	r2, r3
 8000d56:	0011      	movs	r1, r2
 8000d58:	4b66      	ldr	r3, [pc, #408]	; (8000ef4 <stm32__exti__enable_external_interrupt+0x250>)
 8000d5a:	681b      	ldr	r3, [r3, #0]
 8000d5c:	001a      	movs	r2, r3
 8000d5e:	028b      	lsls	r3, r1, #10
 8000d60:	0a9b      	lsrs	r3, r3, #10
 8000d62:	029b      	lsls	r3, r3, #10
 8000d64:	0a9b      	lsrs	r3, r3, #10
 8000d66:	0d92      	lsrs	r2, r2, #22
 8000d68:	0592      	lsls	r2, r2, #22
 8000d6a:	4313      	orrs	r3, r2
 8000d6c:	001a      	movs	r2, r3
 8000d6e:	4b61      	ldr	r3, [pc, #388]	; (8000ef4 <stm32__exti__enable_external_interrupt+0x250>)
 8000d70:	601a      	str	r2, [r3, #0]
 8000d72:	69fb      	ldr	r3, [r7, #28]
 8000d74:	2b15      	cmp	r3, #21
 8000d76:	dd04      	ble.n	8000d82 <stm32__exti__enable_external_interrupt+0xde>
 8000d78:	4b5d      	ldr	r3, [pc, #372]	; (8000ef0 <stm32__exti__enable_external_interrupt+0x24c>)
 8000d7a:	213f      	movs	r1, #63	; 0x3f
 8000d7c:	0018      	movs	r0, r3
 8000d7e:	f007 fcbb 	bl	80086f8 <__gnat_last_chance_handler>
 8000d82:	4b5c      	ldr	r3, [pc, #368]	; (8000ef4 <stm32__exti__enable_external_interrupt+0x250>)
 8000d84:	3304      	adds	r3, #4
 8000d86:	681b      	ldr	r3, [r3, #0]
 8000d88:	029b      	lsls	r3, r3, #10
 8000d8a:	0a9b      	lsrs	r3, r3, #10
 8000d8c:	029b      	lsls	r3, r3, #10
 8000d8e:	0a9b      	lsrs	r3, r3, #10
 8000d90:	693a      	ldr	r2, [r7, #16]
 8000d92:	0d92      	lsrs	r2, r2, #22
 8000d94:	0592      	lsls	r2, r2, #22
 8000d96:	4313      	orrs	r3, r2
 8000d98:	613b      	str	r3, [r7, #16]
 8000d9a:	693b      	ldr	r3, [r7, #16]
 8000d9c:	029b      	lsls	r3, r3, #10
 8000d9e:	0a9b      	lsrs	r3, r3, #10
 8000da0:	0019      	movs	r1, r3
 8000da2:	69fb      	ldr	r3, [r7, #28]
 8000da4:	2201      	movs	r2, #1
 8000da6:	409a      	lsls	r2, r3
 8000da8:	0013      	movs	r3, r2
 8000daa:	43db      	mvns	r3, r3
 8000dac:	400b      	ands	r3, r1
 8000dae:	001a      	movs	r2, r3
 8000db0:	1dbb      	adds	r3, r7, #6
 8000db2:	781b      	ldrb	r3, [r3, #0]
 8000db4:	2b01      	cmp	r3, #1
 8000db6:	d003      	beq.n	8000dc0 <stm32__exti__enable_external_interrupt+0x11c>
 8000db8:	1dbb      	adds	r3, r7, #6
 8000dba:	781b      	ldrb	r3, [r3, #0]
 8000dbc:	2b02      	cmp	r3, #2
 8000dbe:	d101      	bne.n	8000dc4 <stm32__exti__enable_external_interrupt+0x120>
 8000dc0:	2301      	movs	r3, #1
 8000dc2:	e000      	b.n	8000dc6 <stm32__exti__enable_external_interrupt+0x122>
 8000dc4:	2300      	movs	r3, #0
 8000dc6:	0019      	movs	r1, r3
 8000dc8:	69fb      	ldr	r3, [r7, #28]
 8000dca:	4099      	lsls	r1, r3
 8000dcc:	000b      	movs	r3, r1
 8000dce:	431a      	orrs	r2, r3
 8000dd0:	0011      	movs	r1, r2
 8000dd2:	4b48      	ldr	r3, [pc, #288]	; (8000ef4 <stm32__exti__enable_external_interrupt+0x250>)
 8000dd4:	3304      	adds	r3, #4
 8000dd6:	681b      	ldr	r3, [r3, #0]
 8000dd8:	001a      	movs	r2, r3
 8000dda:	028b      	lsls	r3, r1, #10
 8000ddc:	0a9b      	lsrs	r3, r3, #10
 8000dde:	029b      	lsls	r3, r3, #10
 8000de0:	0a9b      	lsrs	r3, r3, #10
 8000de2:	0d92      	lsrs	r2, r2, #22
 8000de4:	0592      	lsls	r2, r2, #22
 8000de6:	4313      	orrs	r3, r2
 8000de8:	001a      	movs	r2, r3
 8000dea:	4b42      	ldr	r3, [pc, #264]	; (8000ef4 <stm32__exti__enable_external_interrupt+0x250>)
 8000dec:	3304      	adds	r3, #4
 8000dee:	601a      	str	r2, [r3, #0]
 8000df0:	e07a      	b.n	8000ee8 <stm32__exti__enable_external_interrupt+0x244>
 8000df2:	69fb      	ldr	r3, [r7, #28]
 8000df4:	2b15      	cmp	r3, #21
 8000df6:	dd04      	ble.n	8000e02 <stm32__exti__enable_external_interrupt+0x15e>
 8000df8:	4b3d      	ldr	r3, [pc, #244]	; (8000ef0 <stm32__exti__enable_external_interrupt+0x24c>)
 8000dfa:	2142      	movs	r1, #66	; 0x42
 8000dfc:	0018      	movs	r0, r3
 8000dfe:	f007 fc7b 	bl	80086f8 <__gnat_last_chance_handler>
 8000e02:	4b3c      	ldr	r3, [pc, #240]	; (8000ef4 <stm32__exti__enable_external_interrupt+0x250>)
 8000e04:	681b      	ldr	r3, [r3, #0]
 8000e06:	029b      	lsls	r3, r3, #10
 8000e08:	0a9b      	lsrs	r3, r3, #10
 8000e0a:	029b      	lsls	r3, r3, #10
 8000e0c:	0a9b      	lsrs	r3, r3, #10
 8000e0e:	68fa      	ldr	r2, [r7, #12]
 8000e10:	0d92      	lsrs	r2, r2, #22
 8000e12:	0592      	lsls	r2, r2, #22
 8000e14:	4313      	orrs	r3, r2
 8000e16:	60fb      	str	r3, [r7, #12]
 8000e18:	68fb      	ldr	r3, [r7, #12]
 8000e1a:	029b      	lsls	r3, r3, #10
 8000e1c:	0a9b      	lsrs	r3, r3, #10
 8000e1e:	0019      	movs	r1, r3
 8000e20:	69fb      	ldr	r3, [r7, #28]
 8000e22:	2201      	movs	r2, #1
 8000e24:	409a      	lsls	r2, r3
 8000e26:	0013      	movs	r3, r2
 8000e28:	43db      	mvns	r3, r3
 8000e2a:	400b      	ands	r3, r1
 8000e2c:	001a      	movs	r2, r3
 8000e2e:	1dbb      	adds	r3, r7, #6
 8000e30:	781b      	ldrb	r3, [r3, #0]
 8000e32:	2b00      	cmp	r3, #0
 8000e34:	d003      	beq.n	8000e3e <stm32__exti__enable_external_interrupt+0x19a>
 8000e36:	1dbb      	adds	r3, r7, #6
 8000e38:	781b      	ldrb	r3, [r3, #0]
 8000e3a:	2b02      	cmp	r3, #2
 8000e3c:	d101      	bne.n	8000e42 <stm32__exti__enable_external_interrupt+0x19e>
 8000e3e:	2301      	movs	r3, #1
 8000e40:	e000      	b.n	8000e44 <stm32__exti__enable_external_interrupt+0x1a0>
 8000e42:	2300      	movs	r3, #0
 8000e44:	0019      	movs	r1, r3
 8000e46:	69fb      	ldr	r3, [r7, #28]
 8000e48:	4099      	lsls	r1, r3
 8000e4a:	000b      	movs	r3, r1
 8000e4c:	431a      	orrs	r2, r3
 8000e4e:	0011      	movs	r1, r2
 8000e50:	4b28      	ldr	r3, [pc, #160]	; (8000ef4 <stm32__exti__enable_external_interrupt+0x250>)
 8000e52:	681b      	ldr	r3, [r3, #0]
 8000e54:	001a      	movs	r2, r3
 8000e56:	028b      	lsls	r3, r1, #10
 8000e58:	0a9b      	lsrs	r3, r3, #10
 8000e5a:	029b      	lsls	r3, r3, #10
 8000e5c:	0a9b      	lsrs	r3, r3, #10
 8000e5e:	0d92      	lsrs	r2, r2, #22
 8000e60:	0592      	lsls	r2, r2, #22
 8000e62:	4313      	orrs	r3, r2
 8000e64:	001a      	movs	r2, r3
 8000e66:	4b23      	ldr	r3, [pc, #140]	; (8000ef4 <stm32__exti__enable_external_interrupt+0x250>)
 8000e68:	601a      	str	r2, [r3, #0]
 8000e6a:	69fb      	ldr	r3, [r7, #28]
 8000e6c:	2b15      	cmp	r3, #21
 8000e6e:	dd04      	ble.n	8000e7a <stm32__exti__enable_external_interrupt+0x1d6>
 8000e70:	4b1f      	ldr	r3, [pc, #124]	; (8000ef0 <stm32__exti__enable_external_interrupt+0x24c>)
 8000e72:	2144      	movs	r1, #68	; 0x44
 8000e74:	0018      	movs	r0, r3
 8000e76:	f007 fc3f 	bl	80086f8 <__gnat_last_chance_handler>
 8000e7a:	4b1e      	ldr	r3, [pc, #120]	; (8000ef4 <stm32__exti__enable_external_interrupt+0x250>)
 8000e7c:	3304      	adds	r3, #4
 8000e7e:	681b      	ldr	r3, [r3, #0]
 8000e80:	029b      	lsls	r3, r3, #10
 8000e82:	0a9b      	lsrs	r3, r3, #10
 8000e84:	029b      	lsls	r3, r3, #10
 8000e86:	0a9b      	lsrs	r3, r3, #10
 8000e88:	68ba      	ldr	r2, [r7, #8]
 8000e8a:	0d92      	lsrs	r2, r2, #22
 8000e8c:	0592      	lsls	r2, r2, #22
 8000e8e:	4313      	orrs	r3, r2
 8000e90:	60bb      	str	r3, [r7, #8]
 8000e92:	68bb      	ldr	r3, [r7, #8]
 8000e94:	029b      	lsls	r3, r3, #10
 8000e96:	0a9b      	lsrs	r3, r3, #10
 8000e98:	0019      	movs	r1, r3
 8000e9a:	69fb      	ldr	r3, [r7, #28]
 8000e9c:	2201      	movs	r2, #1
 8000e9e:	409a      	lsls	r2, r3
 8000ea0:	0013      	movs	r3, r2
 8000ea2:	43db      	mvns	r3, r3
 8000ea4:	400b      	ands	r3, r1
 8000ea6:	001a      	movs	r2, r3
 8000ea8:	1dbb      	adds	r3, r7, #6
 8000eaa:	781b      	ldrb	r3, [r3, #0]
 8000eac:	2b01      	cmp	r3, #1
 8000eae:	d003      	beq.n	8000eb8 <stm32__exti__enable_external_interrupt+0x214>
 8000eb0:	1dbb      	adds	r3, r7, #6
 8000eb2:	781b      	ldrb	r3, [r3, #0]
 8000eb4:	2b02      	cmp	r3, #2
 8000eb6:	d101      	bne.n	8000ebc <stm32__exti__enable_external_interrupt+0x218>
 8000eb8:	2301      	movs	r3, #1
 8000eba:	e000      	b.n	8000ebe <stm32__exti__enable_external_interrupt+0x21a>
 8000ebc:	2300      	movs	r3, #0
 8000ebe:	0019      	movs	r1, r3
 8000ec0:	69fb      	ldr	r3, [r7, #28]
 8000ec2:	4099      	lsls	r1, r3
 8000ec4:	000b      	movs	r3, r1
 8000ec6:	431a      	orrs	r2, r3
 8000ec8:	0011      	movs	r1, r2
 8000eca:	4b0a      	ldr	r3, [pc, #40]	; (8000ef4 <stm32__exti__enable_external_interrupt+0x250>)
 8000ecc:	3304      	adds	r3, #4
 8000ece:	681b      	ldr	r3, [r3, #0]
 8000ed0:	001a      	movs	r2, r3
 8000ed2:	028b      	lsls	r3, r1, #10
 8000ed4:	0a9b      	lsrs	r3, r3, #10
 8000ed6:	029b      	lsls	r3, r3, #10
 8000ed8:	0a9b      	lsrs	r3, r3, #10
 8000eda:	0d92      	lsrs	r2, r2, #22
 8000edc:	0592      	lsls	r2, r2, #22
 8000ede:	4313      	orrs	r3, r2
 8000ee0:	001a      	movs	r2, r3
 8000ee2:	4b04      	ldr	r3, [pc, #16]	; (8000ef4 <stm32__exti__enable_external_interrupt+0x250>)
 8000ee4:	3304      	adds	r3, #4
 8000ee6:	601a      	str	r2, [r3, #0]
 8000ee8:	46bd      	mov	sp, r7
 8000eea:	b008      	add	sp, #32
 8000eec:	bd80      	pop	{r7, pc}
 8000eee:	46c0      	nop			; (mov r8, r8)
 8000ef0:	08009584 	.word	0x08009584
 8000ef4:	40021800 	.word	0x40021800

08000ef8 <stm32__exti__enable_external_event>:
 8000ef8:	b580      	push	{r7, lr}
 8000efa:	b086      	sub	sp, #24
 8000efc:	af00      	add	r7, sp, #0
 8000efe:	0002      	movs	r2, r0
 8000f00:	1dfb      	adds	r3, r7, #7
 8000f02:	701a      	strb	r2, [r3, #0]
 8000f04:	1dbb      	adds	r3, r7, #6
 8000f06:	1c0a      	adds	r2, r1, #0
 8000f08:	701a      	strb	r2, [r3, #0]
 8000f0a:	1dfb      	adds	r3, r7, #7
 8000f0c:	781b      	ldrb	r3, [r3, #0]
 8000f0e:	617b      	str	r3, [r7, #20]
 8000f10:	697b      	ldr	r3, [r7, #20]
 8000f12:	2b1f      	cmp	r3, #31
 8000f14:	dd04      	ble.n	8000f20 <stm32__exti__enable_external_event+0x28>
 8000f16:	4b4b      	ldr	r3, [pc, #300]	; (8001044 <stm32__exti__enable_external_event+0x14c>)
 8000f18:	215f      	movs	r1, #95	; 0x5f
 8000f1a:	0018      	movs	r0, r3
 8000f1c:	f007 fbec 	bl	80086f8 <__gnat_last_chance_handler>
 8000f20:	4b49      	ldr	r3, [pc, #292]	; (8001048 <stm32__exti__enable_external_event+0x150>)
 8000f22:	3384      	adds	r3, #132	; 0x84
 8000f24:	681b      	ldr	r3, [r3, #0]
 8000f26:	613b      	str	r3, [r7, #16]
 8000f28:	6939      	ldr	r1, [r7, #16]
 8000f2a:	697b      	ldr	r3, [r7, #20]
 8000f2c:	2201      	movs	r2, #1
 8000f2e:	409a      	lsls	r2, r3
 8000f30:	4b45      	ldr	r3, [pc, #276]	; (8001048 <stm32__exti__enable_external_event+0x150>)
 8000f32:	3384      	adds	r3, #132	; 0x84
 8000f34:	681b      	ldr	r3, [r3, #0]
 8000f36:	0018      	movs	r0, r3
 8000f38:	000b      	movs	r3, r1
 8000f3a:	4313      	orrs	r3, r2
 8000f3c:	0018      	movs	r0, r3
 8000f3e:	4b42      	ldr	r3, [pc, #264]	; (8001048 <stm32__exti__enable_external_event+0x150>)
 8000f40:	3384      	adds	r3, #132	; 0x84
 8000f42:	0002      	movs	r2, r0
 8000f44:	601a      	str	r2, [r3, #0]
 8000f46:	697b      	ldr	r3, [r7, #20]
 8000f48:	2b15      	cmp	r3, #21
 8000f4a:	dd04      	ble.n	8000f56 <stm32__exti__enable_external_event+0x5e>
 8000f4c:	4b3d      	ldr	r3, [pc, #244]	; (8001044 <stm32__exti__enable_external_event+0x14c>)
 8000f4e:	2160      	movs	r1, #96	; 0x60
 8000f50:	0018      	movs	r0, r3
 8000f52:	f007 fbd1 	bl	80086f8 <__gnat_last_chance_handler>
 8000f56:	4b3c      	ldr	r3, [pc, #240]	; (8001048 <stm32__exti__enable_external_event+0x150>)
 8000f58:	681b      	ldr	r3, [r3, #0]
 8000f5a:	029b      	lsls	r3, r3, #10
 8000f5c:	0a9b      	lsrs	r3, r3, #10
 8000f5e:	029b      	lsls	r3, r3, #10
 8000f60:	0a9b      	lsrs	r3, r3, #10
 8000f62:	68fa      	ldr	r2, [r7, #12]
 8000f64:	0d92      	lsrs	r2, r2, #22
 8000f66:	0592      	lsls	r2, r2, #22
 8000f68:	4313      	orrs	r3, r2
 8000f6a:	60fb      	str	r3, [r7, #12]
 8000f6c:	68fb      	ldr	r3, [r7, #12]
 8000f6e:	029b      	lsls	r3, r3, #10
 8000f70:	0a9b      	lsrs	r3, r3, #10
 8000f72:	0019      	movs	r1, r3
 8000f74:	697b      	ldr	r3, [r7, #20]
 8000f76:	2201      	movs	r2, #1
 8000f78:	409a      	lsls	r2, r3
 8000f7a:	0013      	movs	r3, r2
 8000f7c:	43db      	mvns	r3, r3
 8000f7e:	400b      	ands	r3, r1
 8000f80:	001a      	movs	r2, r3
 8000f82:	1dbb      	adds	r3, r7, #6
 8000f84:	781b      	ldrb	r3, [r3, #0]
 8000f86:	2b00      	cmp	r3, #0
 8000f88:	d003      	beq.n	8000f92 <stm32__exti__enable_external_event+0x9a>
 8000f8a:	1dbb      	adds	r3, r7, #6
 8000f8c:	781b      	ldrb	r3, [r3, #0]
 8000f8e:	2b02      	cmp	r3, #2
 8000f90:	d101      	bne.n	8000f96 <stm32__exti__enable_external_event+0x9e>
 8000f92:	2301      	movs	r3, #1
 8000f94:	e000      	b.n	8000f98 <stm32__exti__enable_external_event+0xa0>
 8000f96:	2300      	movs	r3, #0
 8000f98:	0019      	movs	r1, r3
 8000f9a:	697b      	ldr	r3, [r7, #20]
 8000f9c:	4099      	lsls	r1, r3
 8000f9e:	000b      	movs	r3, r1
 8000fa0:	431a      	orrs	r2, r3
 8000fa2:	0011      	movs	r1, r2
 8000fa4:	4b28      	ldr	r3, [pc, #160]	; (8001048 <stm32__exti__enable_external_event+0x150>)
 8000fa6:	681b      	ldr	r3, [r3, #0]
 8000fa8:	001a      	movs	r2, r3
 8000faa:	028b      	lsls	r3, r1, #10
 8000fac:	0a9b      	lsrs	r3, r3, #10
 8000fae:	029b      	lsls	r3, r3, #10
 8000fb0:	0a9b      	lsrs	r3, r3, #10
 8000fb2:	0d92      	lsrs	r2, r2, #22
 8000fb4:	0592      	lsls	r2, r2, #22
 8000fb6:	4313      	orrs	r3, r2
 8000fb8:	001a      	movs	r2, r3
 8000fba:	4b23      	ldr	r3, [pc, #140]	; (8001048 <stm32__exti__enable_external_event+0x150>)
 8000fbc:	601a      	str	r2, [r3, #0]
 8000fbe:	697b      	ldr	r3, [r7, #20]
 8000fc0:	2b15      	cmp	r3, #21
 8000fc2:	dd04      	ble.n	8000fce <stm32__exti__enable_external_event+0xd6>
 8000fc4:	4b1f      	ldr	r3, [pc, #124]	; (8001044 <stm32__exti__enable_external_event+0x14c>)
 8000fc6:	2162      	movs	r1, #98	; 0x62
 8000fc8:	0018      	movs	r0, r3
 8000fca:	f007 fb95 	bl	80086f8 <__gnat_last_chance_handler>
 8000fce:	4b1e      	ldr	r3, [pc, #120]	; (8001048 <stm32__exti__enable_external_event+0x150>)
 8000fd0:	3304      	adds	r3, #4
 8000fd2:	681b      	ldr	r3, [r3, #0]
 8000fd4:	029b      	lsls	r3, r3, #10
 8000fd6:	0a9b      	lsrs	r3, r3, #10
 8000fd8:	029b      	lsls	r3, r3, #10
 8000fda:	0a9b      	lsrs	r3, r3, #10
 8000fdc:	68ba      	ldr	r2, [r7, #8]
 8000fde:	0d92      	lsrs	r2, r2, #22
 8000fe0:	0592      	lsls	r2, r2, #22
 8000fe2:	4313      	orrs	r3, r2
 8000fe4:	60bb      	str	r3, [r7, #8]
 8000fe6:	68bb      	ldr	r3, [r7, #8]
 8000fe8:	029b      	lsls	r3, r3, #10
 8000fea:	0a9b      	lsrs	r3, r3, #10
 8000fec:	0019      	movs	r1, r3
 8000fee:	697b      	ldr	r3, [r7, #20]
 8000ff0:	2201      	movs	r2, #1
 8000ff2:	409a      	lsls	r2, r3
 8000ff4:	0013      	movs	r3, r2
 8000ff6:	43db      	mvns	r3, r3
 8000ff8:	400b      	ands	r3, r1
 8000ffa:	001a      	movs	r2, r3
 8000ffc:	1dbb      	adds	r3, r7, #6
 8000ffe:	781b      	ldrb	r3, [r3, #0]
 8001000:	2b01      	cmp	r3, #1
 8001002:	d003      	beq.n	800100c <stm32__exti__enable_external_event+0x114>
 8001004:	1dbb      	adds	r3, r7, #6
 8001006:	781b      	ldrb	r3, [r3, #0]
 8001008:	2b02      	cmp	r3, #2
 800100a:	d101      	bne.n	8001010 <stm32__exti__enable_external_event+0x118>
 800100c:	2301      	movs	r3, #1
 800100e:	e000      	b.n	8001012 <stm32__exti__enable_external_event+0x11a>
 8001010:	2300      	movs	r3, #0
 8001012:	0019      	movs	r1, r3
 8001014:	697b      	ldr	r3, [r7, #20]
 8001016:	4099      	lsls	r1, r3
 8001018:	000b      	movs	r3, r1
 800101a:	431a      	orrs	r2, r3
 800101c:	0011      	movs	r1, r2
 800101e:	4b0a      	ldr	r3, [pc, #40]	; (8001048 <stm32__exti__enable_external_event+0x150>)
 8001020:	3304      	adds	r3, #4
 8001022:	681b      	ldr	r3, [r3, #0]
 8001024:	001a      	movs	r2, r3
 8001026:	028b      	lsls	r3, r1, #10
 8001028:	0a9b      	lsrs	r3, r3, #10
 800102a:	029b      	lsls	r3, r3, #10
 800102c:	0a9b      	lsrs	r3, r3, #10
 800102e:	0d92      	lsrs	r2, r2, #22
 8001030:	0592      	lsls	r2, r2, #22
 8001032:	4313      	orrs	r3, r2
 8001034:	001a      	movs	r2, r3
 8001036:	4b04      	ldr	r3, [pc, #16]	; (8001048 <stm32__exti__enable_external_event+0x150>)
 8001038:	3304      	adds	r3, #4
 800103a:	601a      	str	r2, [r3, #0]
 800103c:	46bd      	mov	sp, r7
 800103e:	b006      	add	sp, #24
 8001040:	bd80      	pop	{r7, pc}
 8001042:	46c0      	nop			; (mov r8, r8)
 8001044:	08009584 	.word	0x08009584
 8001048:	40021800 	.word	0x40021800

0800104c <stm32__gpio__gpio_pinRP>:
 800104c:	b580      	push	{r7, lr}
 800104e:	b082      	sub	sp, #8
 8001050:	af00      	add	r7, sp, #0
 8001052:	0002      	movs	r2, r0
 8001054:	1dbb      	adds	r3, r7, #6
 8001056:	801a      	strh	r2, [r3, #0]
 8001058:	1d7b      	adds	r3, r7, #5
 800105a:	1c0a      	adds	r2, r1, #0
 800105c:	701a      	strb	r2, [r3, #0]
 800105e:	1dbb      	adds	r3, r7, #6
 8001060:	881b      	ldrh	r3, [r3, #0]
 8001062:	2b80      	cmp	r3, #128	; 0x80
 8001064:	d04a      	beq.n	80010fc <stm32__gpio__gpio_pinRP+0xb0>
 8001066:	d810      	bhi.n	800108a <stm32__gpio__gpio_pinRP+0x3e>
 8001068:	2b08      	cmp	r3, #8
 800106a:	d03f      	beq.n	80010ec <stm32__gpio__gpio_pinRP+0xa0>
 800106c:	d806      	bhi.n	800107c <stm32__gpio__gpio_pinRP+0x30>
 800106e:	2b02      	cmp	r3, #2
 8001070:	d038      	beq.n	80010e4 <stm32__gpio__gpio_pinRP+0x98>
 8001072:	2b04      	cmp	r3, #4
 8001074:	d038      	beq.n	80010e8 <stm32__gpio__gpio_pinRP+0x9c>
 8001076:	2b01      	cmp	r3, #1
 8001078:	d032      	beq.n	80010e0 <stm32__gpio__gpio_pinRP+0x94>
 800107a:	e051      	b.n	8001120 <stm32__gpio__gpio_pinRP+0xd4>
 800107c:	2b20      	cmp	r3, #32
 800107e:	d039      	beq.n	80010f4 <stm32__gpio__gpio_pinRP+0xa8>
 8001080:	2b40      	cmp	r3, #64	; 0x40
 8001082:	d039      	beq.n	80010f8 <stm32__gpio__gpio_pinRP+0xac>
 8001084:	2b10      	cmp	r3, #16
 8001086:	d033      	beq.n	80010f0 <stm32__gpio__gpio_pinRP+0xa4>
 8001088:	e04a      	b.n	8001120 <stm32__gpio__gpio_pinRP+0xd4>
 800108a:	2280      	movs	r2, #128	; 0x80
 800108c:	0112      	lsls	r2, r2, #4
 800108e:	4293      	cmp	r3, r2
 8001090:	d03c      	beq.n	800110c <stm32__gpio__gpio_pinRP+0xc0>
 8001092:	2280      	movs	r2, #128	; 0x80
 8001094:	0112      	lsls	r2, r2, #4
 8001096:	4293      	cmp	r3, r2
 8001098:	d80c      	bhi.n	80010b4 <stm32__gpio__gpio_pinRP+0x68>
 800109a:	2280      	movs	r2, #128	; 0x80
 800109c:	0092      	lsls	r2, r2, #2
 800109e:	4293      	cmp	r3, r2
 80010a0:	d030      	beq.n	8001104 <stm32__gpio__gpio_pinRP+0xb8>
 80010a2:	2280      	movs	r2, #128	; 0x80
 80010a4:	00d2      	lsls	r2, r2, #3
 80010a6:	4293      	cmp	r3, r2
 80010a8:	d02e      	beq.n	8001108 <stm32__gpio__gpio_pinRP+0xbc>
 80010aa:	2280      	movs	r2, #128	; 0x80
 80010ac:	0052      	lsls	r2, r2, #1
 80010ae:	4293      	cmp	r3, r2
 80010b0:	d026      	beq.n	8001100 <stm32__gpio__gpio_pinRP+0xb4>
 80010b2:	e035      	b.n	8001120 <stm32__gpio__gpio_pinRP+0xd4>
 80010b4:	2280      	movs	r2, #128	; 0x80
 80010b6:	0192      	lsls	r2, r2, #6
 80010b8:	4293      	cmp	r3, r2
 80010ba:	d02b      	beq.n	8001114 <stm32__gpio__gpio_pinRP+0xc8>
 80010bc:	2280      	movs	r2, #128	; 0x80
 80010be:	0192      	lsls	r2, r2, #6
 80010c0:	4293      	cmp	r3, r2
 80010c2:	d804      	bhi.n	80010ce <stm32__gpio__gpio_pinRP+0x82>
 80010c4:	2280      	movs	r2, #128	; 0x80
 80010c6:	0152      	lsls	r2, r2, #5
 80010c8:	4293      	cmp	r3, r2
 80010ca:	d021      	beq.n	8001110 <stm32__gpio__gpio_pinRP+0xc4>
 80010cc:	e028      	b.n	8001120 <stm32__gpio__gpio_pinRP+0xd4>
 80010ce:	2280      	movs	r2, #128	; 0x80
 80010d0:	01d2      	lsls	r2, r2, #7
 80010d2:	4293      	cmp	r3, r2
 80010d4:	d020      	beq.n	8001118 <stm32__gpio__gpio_pinRP+0xcc>
 80010d6:	2280      	movs	r2, #128	; 0x80
 80010d8:	0212      	lsls	r2, r2, #8
 80010da:	4293      	cmp	r3, r2
 80010dc:	d01e      	beq.n	800111c <stm32__gpio__gpio_pinRP+0xd0>
 80010de:	e01f      	b.n	8001120 <stm32__gpio__gpio_pinRP+0xd4>
 80010e0:	2300      	movs	r3, #0
 80010e2:	e01f      	b.n	8001124 <stm32__gpio__gpio_pinRP+0xd8>
 80010e4:	2301      	movs	r3, #1
 80010e6:	e01d      	b.n	8001124 <stm32__gpio__gpio_pinRP+0xd8>
 80010e8:	2302      	movs	r3, #2
 80010ea:	e01b      	b.n	8001124 <stm32__gpio__gpio_pinRP+0xd8>
 80010ec:	2303      	movs	r3, #3
 80010ee:	e019      	b.n	8001124 <stm32__gpio__gpio_pinRP+0xd8>
 80010f0:	2304      	movs	r3, #4
 80010f2:	e017      	b.n	8001124 <stm32__gpio__gpio_pinRP+0xd8>
 80010f4:	2305      	movs	r3, #5
 80010f6:	e015      	b.n	8001124 <stm32__gpio__gpio_pinRP+0xd8>
 80010f8:	2306      	movs	r3, #6
 80010fa:	e013      	b.n	8001124 <stm32__gpio__gpio_pinRP+0xd8>
 80010fc:	2307      	movs	r3, #7
 80010fe:	e011      	b.n	8001124 <stm32__gpio__gpio_pinRP+0xd8>
 8001100:	2308      	movs	r3, #8
 8001102:	e00f      	b.n	8001124 <stm32__gpio__gpio_pinRP+0xd8>
 8001104:	2309      	movs	r3, #9
 8001106:	e00d      	b.n	8001124 <stm32__gpio__gpio_pinRP+0xd8>
 8001108:	230a      	movs	r3, #10
 800110a:	e00b      	b.n	8001124 <stm32__gpio__gpio_pinRP+0xd8>
 800110c:	230b      	movs	r3, #11
 800110e:	e009      	b.n	8001124 <stm32__gpio__gpio_pinRP+0xd8>
 8001110:	230c      	movs	r3, #12
 8001112:	e007      	b.n	8001124 <stm32__gpio__gpio_pinRP+0xd8>
 8001114:	230d      	movs	r3, #13
 8001116:	e005      	b.n	8001124 <stm32__gpio__gpio_pinRP+0xd8>
 8001118:	230e      	movs	r3, #14
 800111a:	e003      	b.n	8001124 <stm32__gpio__gpio_pinRP+0xd8>
 800111c:	230f      	movs	r3, #15
 800111e:	e001      	b.n	8001124 <stm32__gpio__gpio_pinRP+0xd8>
 8001120:	2301      	movs	r3, #1
 8001122:	425b      	negs	r3, r3
 8001124:	0018      	movs	r0, r3
 8001126:	46bd      	mov	sp, r7
 8001128:	b002      	add	sp, #8
 800112a:	bd80      	pop	{r7, pc}

0800112c <stm32__gpio___size__2>:
 800112c:	b590      	push	{r4, r7, lr}
 800112e:	b083      	sub	sp, #12
 8001130:	af00      	add	r7, sp, #0
 8001132:	6078      	str	r0, [r7, #4]
 8001134:	2360      	movs	r3, #96	; 0x60
 8001136:	2400      	movs	r4, #0
 8001138:	0018      	movs	r0, r3
 800113a:	0021      	movs	r1, r4
 800113c:	46bd      	mov	sp, r7
 800113e:	b003      	add	sp, #12
 8001140:	bd90      	pop	{r4, r7, pc}
 8001142:	46c0      	nop			; (mov r8, r8)

08001144 <stm32__gpio__Oeq>:
 8001144:	b580      	push	{r7, lr}
 8001146:	b082      	sub	sp, #8
 8001148:	af00      	add	r7, sp, #0
 800114a:	6078      	str	r0, [r7, #4]
 800114c:	6039      	str	r1, [r7, #0]
 800114e:	687b      	ldr	r3, [r7, #4]
 8001150:	685a      	ldr	r2, [r3, #4]
 8001152:	683b      	ldr	r3, [r7, #0]
 8001154:	685b      	ldr	r3, [r3, #4]
 8001156:	429a      	cmp	r2, r3
 8001158:	d107      	bne.n	800116a <stm32__gpio__Oeq+0x26>
 800115a:	687b      	ldr	r3, [r7, #4]
 800115c:	891a      	ldrh	r2, [r3, #8]
 800115e:	683b      	ldr	r3, [r7, #0]
 8001160:	891b      	ldrh	r3, [r3, #8]
 8001162:	429a      	cmp	r2, r3
 8001164:	d101      	bne.n	800116a <stm32__gpio__Oeq+0x26>
 8001166:	2301      	movs	r3, #1
 8001168:	e000      	b.n	800116c <stm32__gpio__Oeq+0x28>
 800116a:	2300      	movs	r3, #0
 800116c:	0018      	movs	r0, r3
 800116e:	46bd      	mov	sp, r7
 8001170:	b002      	add	sp, #8
 8001172:	bd80      	pop	{r7, pc}

08001174 <stm32__gpio___assign>:
 8001174:	b5b0      	push	{r4, r5, r7, lr}
 8001176:	b082      	sub	sp, #8
 8001178:	af00      	add	r7, sp, #0
 800117a:	6078      	str	r0, [r7, #4]
 800117c:	6039      	str	r1, [r7, #0]
 800117e:	687b      	ldr	r3, [r7, #4]
 8001180:	6819      	ldr	r1, [r3, #0]
 8001182:	687b      	ldr	r3, [r7, #4]
 8001184:	683a      	ldr	r2, [r7, #0]
 8001186:	ca31      	ldmia	r2!, {r0, r4, r5}
 8001188:	c331      	stmia	r3!, {r0, r4, r5}
 800118a:	687b      	ldr	r3, [r7, #4]
 800118c:	6019      	str	r1, [r3, #0]
 800118e:	46bd      	mov	sp, r7
 8001190:	b002      	add	sp, #8
 8001192:	bdb0      	pop	{r4, r5, r7, pc}

08001194 <stm32__gpio__mode>:
 8001194:	b580      	push	{r7, lr}
 8001196:	b084      	sub	sp, #16
 8001198:	af00      	add	r7, sp, #0
 800119a:	6078      	str	r0, [r7, #4]
 800119c:	687b      	ldr	r3, [r7, #4]
 800119e:	891b      	ldrh	r3, [r3, #8]
 80011a0:	2101      	movs	r1, #1
 80011a2:	0018      	movs	r0, r3
 80011a4:	f7ff ff52 	bl	800104c <stm32__gpio__gpio_pinRP>
 80011a8:	1e03      	subs	r3, r0, #0
 80011aa:	db01      	blt.n	80011b0 <stm32__gpio__mode+0x1c>
 80011ac:	2b0f      	cmp	r3, #15
 80011ae:	dd04      	ble.n	80011ba <stm32__gpio__mode+0x26>
 80011b0:	4b17      	ldr	r3, [pc, #92]	; (8001210 <stm32__gpio__mode+0x7c>)
 80011b2:	2153      	movs	r1, #83	; 0x53
 80011b4:	0018      	movs	r0, r3
 80011b6:	f007 fa9f 	bl	80086f8 <__gnat_last_chance_handler>
 80011ba:	60fb      	str	r3, [r7, #12]
 80011bc:	687b      	ldr	r3, [r7, #4]
 80011be:	685b      	ldr	r3, [r3, #4]
 80011c0:	2b00      	cmp	r3, #0
 80011c2:	d104      	bne.n	80011ce <stm32__gpio__mode+0x3a>
 80011c4:	4b12      	ldr	r3, [pc, #72]	; (8001210 <stm32__gpio__mode+0x7c>)
 80011c6:	2155      	movs	r1, #85	; 0x55
 80011c8:	0018      	movs	r0, r3
 80011ca:	f007 fa95 	bl	80086f8 <__gnat_last_chance_handler>
 80011ce:	687b      	ldr	r3, [r7, #4]
 80011d0:	685b      	ldr	r3, [r3, #4]
 80011d2:	681b      	ldr	r3, [r3, #0]
 80011d4:	001a      	movs	r2, r3
 80011d6:	68fb      	ldr	r3, [r7, #12]
 80011d8:	005b      	lsls	r3, r3, #1
 80011da:	40da      	lsrs	r2, r3
 80011dc:	0013      	movs	r3, r2
 80011de:	b2db      	uxtb	r3, r3
 80011e0:	2203      	movs	r2, #3
 80011e2:	4013      	ands	r3, r2
 80011e4:	b2db      	uxtb	r3, r3
 80011e6:	2b03      	cmp	r3, #3
 80011e8:	d904      	bls.n	80011f4 <stm32__gpio__mode+0x60>
 80011ea:	4b09      	ldr	r3, [pc, #36]	; (8001210 <stm32__gpio__mode+0x7c>)
 80011ec:	2155      	movs	r1, #85	; 0x55
 80011ee:	0018      	movs	r0, r3
 80011f0:	f007 fa82 	bl	80086f8 <__gnat_last_chance_handler>
 80011f4:	2b00      	cmp	r3, #0
 80011f6:	d003      	beq.n	8001200 <stm32__gpio__mode+0x6c>
 80011f8:	2b01      	cmp	r3, #1
 80011fa:	d103      	bne.n	8001204 <stm32__gpio__mode+0x70>
 80011fc:	2302      	movs	r3, #2
 80011fe:	e002      	b.n	8001206 <stm32__gpio__mode+0x72>
 8001200:	2301      	movs	r3, #1
 8001202:	e000      	b.n	8001206 <stm32__gpio__mode+0x72>
 8001204:	2300      	movs	r3, #0
 8001206:	46c0      	nop			; (mov r8, r8)
 8001208:	0018      	movs	r0, r3
 800120a:	46bd      	mov	sp, r7
 800120c:	b004      	add	sp, #16
 800120e:	bd80      	pop	{r7, pc}
 8001210:	080095a4 	.word	0x080095a4

08001214 <stm32__gpio__set_mode>:
 8001214:	b590      	push	{r4, r7, lr}
 8001216:	b087      	sub	sp, #28
 8001218:	af00      	add	r7, sp, #0
 800121a:	6078      	str	r0, [r7, #4]
 800121c:	000a      	movs	r2, r1
 800121e:	1cfb      	adds	r3, r7, #3
 8001220:	701a      	strb	r2, [r3, #0]
 8001222:	687b      	ldr	r3, [r7, #4]
 8001224:	891b      	ldrh	r3, [r3, #8]
 8001226:	2101      	movs	r1, #1
 8001228:	0018      	movs	r0, r3
 800122a:	f7ff ff0f 	bl	800104c <stm32__gpio__gpio_pinRP>
 800122e:	1e03      	subs	r3, r0, #0
 8001230:	db01      	blt.n	8001236 <stm32__gpio__set_mode+0x22>
 8001232:	2b0f      	cmp	r3, #15
 8001234:	dd04      	ble.n	8001240 <stm32__gpio__set_mode+0x2c>
 8001236:	4b31      	ldr	r3, [pc, #196]	; (80012fc <stm32__gpio__set_mode+0xe8>)
 8001238:	2166      	movs	r1, #102	; 0x66
 800123a:	0018      	movs	r0, r3
 800123c:	f007 fa5c 	bl	80086f8 <__gnat_last_chance_handler>
 8001240:	617b      	str	r3, [r7, #20]
 8001242:	1cfb      	adds	r3, r7, #3
 8001244:	781b      	ldrb	r3, [r3, #0]
 8001246:	2b00      	cmp	r3, #0
 8001248:	d003      	beq.n	8001252 <stm32__gpio__set_mode+0x3e>
 800124a:	1cfb      	adds	r3, r7, #3
 800124c:	781b      	ldrb	r3, [r3, #0]
 800124e:	2b02      	cmp	r3, #2
 8001250:	d904      	bls.n	800125c <stm32__gpio__set_mode+0x48>
 8001252:	4b2a      	ldr	r3, [pc, #168]	; (80012fc <stm32__gpio__set_mode+0xe8>)
 8001254:	2168      	movs	r1, #104	; 0x68
 8001256:	0018      	movs	r0, r3
 8001258:	f007 fa4e 	bl	80086f8 <__gnat_last_chance_handler>
 800125c:	1cfb      	adds	r3, r7, #3
 800125e:	781b      	ldrb	r3, [r3, #0]
 8001260:	2b02      	cmp	r3, #2
 8001262:	d126      	bne.n	80012b2 <stm32__gpio__set_mode+0x9e>
 8001264:	687b      	ldr	r3, [r7, #4]
 8001266:	685b      	ldr	r3, [r3, #4]
 8001268:	2b00      	cmp	r3, #0
 800126a:	d104      	bne.n	8001276 <stm32__gpio__set_mode+0x62>
 800126c:	4b23      	ldr	r3, [pc, #140]	; (80012fc <stm32__gpio__set_mode+0xe8>)
 800126e:	216a      	movs	r1, #106	; 0x6a
 8001270:	0018      	movs	r0, r3
 8001272:	f007 fa41 	bl	80086f8 <__gnat_last_chance_handler>
 8001276:	687b      	ldr	r3, [r7, #4]
 8001278:	685a      	ldr	r2, [r3, #4]
 800127a:	0013      	movs	r3, r2
 800127c:	681b      	ldr	r3, [r3, #0]
 800127e:	613b      	str	r3, [r7, #16]
 8001280:	693b      	ldr	r3, [r7, #16]
 8001282:	6979      	ldr	r1, [r7, #20]
 8001284:	0049      	lsls	r1, r1, #1
 8001286:	0008      	movs	r0, r1
 8001288:	2103      	movs	r1, #3
 800128a:	4081      	lsls	r1, r0
 800128c:	43c9      	mvns	r1, r1
 800128e:	4019      	ands	r1, r3
 8001290:	0008      	movs	r0, r1
 8001292:	697b      	ldr	r3, [r7, #20]
 8001294:	005b      	lsls	r3, r3, #1
 8001296:	0019      	movs	r1, r3
 8001298:	2301      	movs	r3, #1
 800129a:	408b      	lsls	r3, r1
 800129c:	0019      	movs	r1, r3
 800129e:	0013      	movs	r3, r2
 80012a0:	681b      	ldr	r3, [r3, #0]
 80012a2:	001c      	movs	r4, r3
 80012a4:	0003      	movs	r3, r0
 80012a6:	430b      	orrs	r3, r1
 80012a8:	001c      	movs	r4, r3
 80012aa:	0013      	movs	r3, r2
 80012ac:	0022      	movs	r2, r4
 80012ae:	601a      	str	r2, [r3, #0]
 80012b0:	e01d      	b.n	80012ee <stm32__gpio__set_mode+0xda>
 80012b2:	687b      	ldr	r3, [r7, #4]
 80012b4:	685b      	ldr	r3, [r3, #4]
 80012b6:	2b00      	cmp	r3, #0
 80012b8:	d104      	bne.n	80012c4 <stm32__gpio__set_mode+0xb0>
 80012ba:	4b10      	ldr	r3, [pc, #64]	; (80012fc <stm32__gpio__set_mode+0xe8>)
 80012bc:	216c      	movs	r1, #108	; 0x6c
 80012be:	0018      	movs	r0, r3
 80012c0:	f007 fa1a 	bl	80086f8 <__gnat_last_chance_handler>
 80012c4:	687b      	ldr	r3, [r7, #4]
 80012c6:	685a      	ldr	r2, [r3, #4]
 80012c8:	0013      	movs	r3, r2
 80012ca:	681b      	ldr	r3, [r3, #0]
 80012cc:	60fb      	str	r3, [r7, #12]
 80012ce:	68f9      	ldr	r1, [r7, #12]
 80012d0:	697b      	ldr	r3, [r7, #20]
 80012d2:	005b      	lsls	r3, r3, #1
 80012d4:	0018      	movs	r0, r3
 80012d6:	2303      	movs	r3, #3
 80012d8:	4083      	lsls	r3, r0
 80012da:	43d8      	mvns	r0, r3
 80012dc:	0013      	movs	r3, r2
 80012de:	681b      	ldr	r3, [r3, #0]
 80012e0:	001c      	movs	r4, r3
 80012e2:	0003      	movs	r3, r0
 80012e4:	400b      	ands	r3, r1
 80012e6:	001c      	movs	r4, r3
 80012e8:	0013      	movs	r3, r2
 80012ea:	0022      	movs	r2, r4
 80012ec:	601a      	str	r2, [r3, #0]
 80012ee:	2301      	movs	r3, #1
 80012f0:	46c0      	nop			; (mov r8, r8)
 80012f2:	0018      	movs	r0, r3
 80012f4:	46bd      	mov	sp, r7
 80012f6:	b007      	add	sp, #28
 80012f8:	bd90      	pop	{r4, r7, pc}
 80012fa:	46c0      	nop			; (mov r8, r8)
 80012fc:	080095a4 	.word	0x080095a4

08001300 <stm32__gpio__pull_resistor>:
 8001300:	b580      	push	{r7, lr}
 8001302:	b084      	sub	sp, #16
 8001304:	af00      	add	r7, sp, #0
 8001306:	6078      	str	r0, [r7, #4]
 8001308:	687b      	ldr	r3, [r7, #4]
 800130a:	891b      	ldrh	r3, [r3, #8]
 800130c:	2101      	movs	r1, #1
 800130e:	0018      	movs	r0, r3
 8001310:	f7ff fe9c 	bl	800104c <stm32__gpio__gpio_pinRP>
 8001314:	1e03      	subs	r3, r0, #0
 8001316:	db01      	blt.n	800131c <stm32__gpio__pull_resistor+0x1c>
 8001318:	2b0f      	cmp	r3, #15
 800131a:	dd04      	ble.n	8001326 <stm32__gpio__pull_resistor+0x26>
 800131c:	4b1f      	ldr	r3, [pc, #124]	; (800139c <stm32__gpio__pull_resistor+0x9c>)
 800131e:	217a      	movs	r1, #122	; 0x7a
 8001320:	0018      	movs	r0, r3
 8001322:	f007 f9e9 	bl	80086f8 <__gnat_last_chance_handler>
 8001326:	60fb      	str	r3, [r7, #12]
 8001328:	687b      	ldr	r3, [r7, #4]
 800132a:	685b      	ldr	r3, [r3, #4]
 800132c:	2b00      	cmp	r3, #0
 800132e:	d104      	bne.n	800133a <stm32__gpio__pull_resistor+0x3a>
 8001330:	4b1a      	ldr	r3, [pc, #104]	; (800139c <stm32__gpio__pull_resistor+0x9c>)
 8001332:	217c      	movs	r1, #124	; 0x7c
 8001334:	0018      	movs	r0, r3
 8001336:	f007 f9df 	bl	80086f8 <__gnat_last_chance_handler>
 800133a:	687b      	ldr	r3, [r7, #4]
 800133c:	685b      	ldr	r3, [r3, #4]
 800133e:	330c      	adds	r3, #12
 8001340:	681b      	ldr	r3, [r3, #0]
 8001342:	001a      	movs	r2, r3
 8001344:	68fb      	ldr	r3, [r7, #12]
 8001346:	005b      	lsls	r3, r3, #1
 8001348:	40da      	lsrs	r2, r3
 800134a:	0013      	movs	r3, r2
 800134c:	b2db      	uxtb	r3, r3
 800134e:	2203      	movs	r2, #3
 8001350:	4013      	ands	r3, r2
 8001352:	b2db      	uxtb	r3, r3
 8001354:	2b00      	cmp	r3, #0
 8001356:	d101      	bne.n	800135c <stm32__gpio__pull_resistor+0x5c>
 8001358:	2300      	movs	r3, #0
 800135a:	e01a      	b.n	8001392 <stm32__gpio__pull_resistor+0x92>
 800135c:	687b      	ldr	r3, [r7, #4]
 800135e:	685b      	ldr	r3, [r3, #4]
 8001360:	2b00      	cmp	r3, #0
 8001362:	d104      	bne.n	800136e <stm32__gpio__pull_resistor+0x6e>
 8001364:	4b0d      	ldr	r3, [pc, #52]	; (800139c <stm32__gpio__pull_resistor+0x9c>)
 8001366:	217e      	movs	r1, #126	; 0x7e
 8001368:	0018      	movs	r0, r3
 800136a:	f007 f9c5 	bl	80086f8 <__gnat_last_chance_handler>
 800136e:	687b      	ldr	r3, [r7, #4]
 8001370:	685b      	ldr	r3, [r3, #4]
 8001372:	330c      	adds	r3, #12
 8001374:	681b      	ldr	r3, [r3, #0]
 8001376:	001a      	movs	r2, r3
 8001378:	68fb      	ldr	r3, [r7, #12]
 800137a:	005b      	lsls	r3, r3, #1
 800137c:	40da      	lsrs	r2, r3
 800137e:	0013      	movs	r3, r2
 8001380:	b2db      	uxtb	r3, r3
 8001382:	2203      	movs	r2, #3
 8001384:	4013      	ands	r3, r2
 8001386:	b2db      	uxtb	r3, r3
 8001388:	2b01      	cmp	r3, #1
 800138a:	d101      	bne.n	8001390 <stm32__gpio__pull_resistor+0x90>
 800138c:	2301      	movs	r3, #1
 800138e:	e000      	b.n	8001392 <stm32__gpio__pull_resistor+0x92>
 8001390:	2302      	movs	r3, #2
 8001392:	46c0      	nop			; (mov r8, r8)
 8001394:	0018      	movs	r0, r3
 8001396:	46bd      	mov	sp, r7
 8001398:	b004      	add	sp, #16
 800139a:	bd80      	pop	{r7, pc}
 800139c:	080095a4 	.word	0x080095a4

080013a0 <stm32__gpio__set_pull_resistor>:
 80013a0:	b580      	push	{r7, lr}
 80013a2:	b086      	sub	sp, #24
 80013a4:	af00      	add	r7, sp, #0
 80013a6:	6078      	str	r0, [r7, #4]
 80013a8:	000a      	movs	r2, r1
 80013aa:	1cfb      	adds	r3, r7, #3
 80013ac:	701a      	strb	r2, [r3, #0]
 80013ae:	687b      	ldr	r3, [r7, #4]
 80013b0:	891b      	ldrh	r3, [r3, #8]
 80013b2:	2101      	movs	r1, #1
 80013b4:	0018      	movs	r0, r3
 80013b6:	f7ff fe49 	bl	800104c <stm32__gpio__gpio_pinRP>
 80013ba:	1e03      	subs	r3, r0, #0
 80013bc:	db01      	blt.n	80013c2 <stm32__gpio__set_pull_resistor+0x22>
 80013be:	2b0f      	cmp	r3, #15
 80013c0:	dd04      	ble.n	80013cc <stm32__gpio__set_pull_resistor+0x2c>
 80013c2:	4b44      	ldr	r3, [pc, #272]	; (80014d4 <stm32__gpio__set_pull_resistor+0x134>)
 80013c4:	218f      	movs	r1, #143	; 0x8f
 80013c6:	0018      	movs	r0, r3
 80013c8:	f007 f996 	bl	80086f8 <__gnat_last_chance_handler>
 80013cc:	617b      	str	r3, [r7, #20]
 80013ce:	1cfb      	adds	r3, r7, #3
 80013d0:	781b      	ldrb	r3, [r3, #0]
 80013d2:	2b02      	cmp	r3, #2
 80013d4:	d904      	bls.n	80013e0 <stm32__gpio__set_pull_resistor+0x40>
 80013d6:	4b3f      	ldr	r3, [pc, #252]	; (80014d4 <stm32__gpio__set_pull_resistor+0x134>)
 80013d8:	2191      	movs	r1, #145	; 0x91
 80013da:	0018      	movs	r0, r3
 80013dc:	f007 f98c 	bl	80086f8 <__gnat_last_chance_handler>
 80013e0:	1cfb      	adds	r3, r7, #3
 80013e2:	781a      	ldrb	r2, [r3, #0]
 80013e4:	b2d3      	uxtb	r3, r2
 80013e6:	2b00      	cmp	r3, #0
 80013e8:	d003      	beq.n	80013f2 <stm32__gpio__set_pull_resistor+0x52>
 80013ea:	b2d3      	uxtb	r3, r2
 80013ec:	2b01      	cmp	r3, #1
 80013ee:	d01e      	beq.n	800142e <stm32__gpio__set_pull_resistor+0x8e>
 80013f0:	e043      	b.n	800147a <stm32__gpio__set_pull_resistor+0xda>
 80013f2:	687b      	ldr	r3, [r7, #4]
 80013f4:	685b      	ldr	r3, [r3, #4]
 80013f6:	2b00      	cmp	r3, #0
 80013f8:	d104      	bne.n	8001404 <stm32__gpio__set_pull_resistor+0x64>
 80013fa:	4b36      	ldr	r3, [pc, #216]	; (80014d4 <stm32__gpio__set_pull_resistor+0x134>)
 80013fc:	2193      	movs	r1, #147	; 0x93
 80013fe:	0018      	movs	r0, r3
 8001400:	f007 f97a 	bl	80086f8 <__gnat_last_chance_handler>
 8001404:	687b      	ldr	r3, [r7, #4]
 8001406:	685b      	ldr	r3, [r3, #4]
 8001408:	001a      	movs	r2, r3
 800140a:	320c      	adds	r2, #12
 800140c:	6812      	ldr	r2, [r2, #0]
 800140e:	613a      	str	r2, [r7, #16]
 8001410:	6939      	ldr	r1, [r7, #16]
 8001412:	697a      	ldr	r2, [r7, #20]
 8001414:	0052      	lsls	r2, r2, #1
 8001416:	0010      	movs	r0, r2
 8001418:	2203      	movs	r2, #3
 800141a:	4082      	lsls	r2, r0
 800141c:	43d0      	mvns	r0, r2
 800141e:	001a      	movs	r2, r3
 8001420:	320c      	adds	r2, #12
 8001422:	6812      	ldr	r2, [r2, #0]
 8001424:	0002      	movs	r2, r0
 8001426:	400a      	ands	r2, r1
 8001428:	330c      	adds	r3, #12
 800142a:	601a      	str	r2, [r3, #0]
 800142c:	e04a      	b.n	80014c4 <stm32__gpio__set_pull_resistor+0x124>
 800142e:	687b      	ldr	r3, [r7, #4]
 8001430:	685b      	ldr	r3, [r3, #4]
 8001432:	2b00      	cmp	r3, #0
 8001434:	d104      	bne.n	8001440 <stm32__gpio__set_pull_resistor+0xa0>
 8001436:	4b27      	ldr	r3, [pc, #156]	; (80014d4 <stm32__gpio__set_pull_resistor+0x134>)
 8001438:	2195      	movs	r1, #149	; 0x95
 800143a:	0018      	movs	r0, r3
 800143c:	f007 f95c 	bl	80086f8 <__gnat_last_chance_handler>
 8001440:	687b      	ldr	r3, [r7, #4]
 8001442:	685b      	ldr	r3, [r3, #4]
 8001444:	001a      	movs	r2, r3
 8001446:	320c      	adds	r2, #12
 8001448:	6812      	ldr	r2, [r2, #0]
 800144a:	60fa      	str	r2, [r7, #12]
 800144c:	68fa      	ldr	r2, [r7, #12]
 800144e:	6979      	ldr	r1, [r7, #20]
 8001450:	0049      	lsls	r1, r1, #1
 8001452:	0008      	movs	r0, r1
 8001454:	2103      	movs	r1, #3
 8001456:	4081      	lsls	r1, r0
 8001458:	43c9      	mvns	r1, r1
 800145a:	4011      	ands	r1, r2
 800145c:	0008      	movs	r0, r1
 800145e:	697a      	ldr	r2, [r7, #20]
 8001460:	0052      	lsls	r2, r2, #1
 8001462:	0011      	movs	r1, r2
 8001464:	2201      	movs	r2, #1
 8001466:	408a      	lsls	r2, r1
 8001468:	0011      	movs	r1, r2
 800146a:	001a      	movs	r2, r3
 800146c:	320c      	adds	r2, #12
 800146e:	6812      	ldr	r2, [r2, #0]
 8001470:	0002      	movs	r2, r0
 8001472:	430a      	orrs	r2, r1
 8001474:	330c      	adds	r3, #12
 8001476:	601a      	str	r2, [r3, #0]
 8001478:	e024      	b.n	80014c4 <stm32__gpio__set_pull_resistor+0x124>
 800147a:	687b      	ldr	r3, [r7, #4]
 800147c:	685b      	ldr	r3, [r3, #4]
 800147e:	2b00      	cmp	r3, #0
 8001480:	d104      	bne.n	800148c <stm32__gpio__set_pull_resistor+0xec>
 8001482:	4b14      	ldr	r3, [pc, #80]	; (80014d4 <stm32__gpio__set_pull_resistor+0x134>)
 8001484:	2197      	movs	r1, #151	; 0x97
 8001486:	0018      	movs	r0, r3
 8001488:	f007 f936 	bl	80086f8 <__gnat_last_chance_handler>
 800148c:	687b      	ldr	r3, [r7, #4]
 800148e:	685b      	ldr	r3, [r3, #4]
 8001490:	001a      	movs	r2, r3
 8001492:	320c      	adds	r2, #12
 8001494:	6812      	ldr	r2, [r2, #0]
 8001496:	60ba      	str	r2, [r7, #8]
 8001498:	68ba      	ldr	r2, [r7, #8]
 800149a:	6979      	ldr	r1, [r7, #20]
 800149c:	0049      	lsls	r1, r1, #1
 800149e:	0008      	movs	r0, r1
 80014a0:	2103      	movs	r1, #3
 80014a2:	4081      	lsls	r1, r0
 80014a4:	43c9      	mvns	r1, r1
 80014a6:	4011      	ands	r1, r2
 80014a8:	0008      	movs	r0, r1
 80014aa:	697a      	ldr	r2, [r7, #20]
 80014ac:	0052      	lsls	r2, r2, #1
 80014ae:	0011      	movs	r1, r2
 80014b0:	2202      	movs	r2, #2
 80014b2:	408a      	lsls	r2, r1
 80014b4:	0011      	movs	r1, r2
 80014b6:	001a      	movs	r2, r3
 80014b8:	320c      	adds	r2, #12
 80014ba:	6812      	ldr	r2, [r2, #0]
 80014bc:	0002      	movs	r2, r0
 80014be:	430a      	orrs	r2, r1
 80014c0:	330c      	adds	r3, #12
 80014c2:	601a      	str	r2, [r3, #0]
 80014c4:	46c0      	nop			; (mov r8, r8)
 80014c6:	2301      	movs	r3, #1
 80014c8:	46c0      	nop			; (mov r8, r8)
 80014ca:	0018      	movs	r0, r3
 80014cc:	46bd      	mov	sp, r7
 80014ce:	b006      	add	sp, #24
 80014d0:	bd80      	pop	{r7, pc}
 80014d2:	46c0      	nop			; (mov r8, r8)
 80014d4:	080095a4 	.word	0x080095a4

080014d8 <stm32__gpio__set>:
 80014d8:	b580      	push	{r7, lr}
 80014da:	b084      	sub	sp, #16
 80014dc:	af00      	add	r7, sp, #0
 80014de:	6078      	str	r0, [r7, #4]
 80014e0:	230e      	movs	r3, #14
 80014e2:	18fb      	adds	r3, r7, r3
 80014e4:	687a      	ldr	r2, [r7, #4]
 80014e6:	8912      	ldrh	r2, [r2, #8]
 80014e8:	801a      	strh	r2, [r3, #0]
 80014ea:	687b      	ldr	r3, [r7, #4]
 80014ec:	685b      	ldr	r3, [r3, #4]
 80014ee:	2b00      	cmp	r3, #0
 80014f0:	d104      	bne.n	80014fc <stm32__gpio__set+0x24>
 80014f2:	4b0d      	ldr	r3, [pc, #52]	; (8001528 <stm32__gpio__set+0x50>)
 80014f4:	21a4      	movs	r1, #164	; 0xa4
 80014f6:	0018      	movs	r0, r3
 80014f8:	f007 f8fe 	bl	80086f8 <__gnat_last_chance_handler>
 80014fc:	687b      	ldr	r3, [r7, #4]
 80014fe:	685b      	ldr	r3, [r3, #4]
 8001500:	3310      	adds	r3, #16
 8001502:	681b      	ldr	r3, [r3, #0]
 8001504:	b29b      	uxth	r3, r3
 8001506:	210e      	movs	r1, #14
 8001508:	187a      	adds	r2, r7, r1
 800150a:	8812      	ldrh	r2, [r2, #0]
 800150c:	4013      	ands	r3, r2
 800150e:	b29b      	uxth	r3, r3
 8001510:	187a      	adds	r2, r7, r1
 8001512:	8812      	ldrh	r2, [r2, #0]
 8001514:	1ad3      	subs	r3, r2, r3
 8001516:	425a      	negs	r2, r3
 8001518:	4153      	adcs	r3, r2
 800151a:	b2db      	uxtb	r3, r3
 800151c:	46c0      	nop			; (mov r8, r8)
 800151e:	0018      	movs	r0, r3
 8001520:	46bd      	mov	sp, r7
 8001522:	b004      	add	sp, #16
 8001524:	bd80      	pop	{r7, pc}
 8001526:	46c0      	nop			; (mov r8, r8)
 8001528:	080095a4 	.word	0x080095a4

0800152c <stm32__gpio__set__2>:
 800152c:	b5b0      	push	{r4, r5, r7, lr}
 800152e:	b082      	sub	sp, #8
 8001530:	af00      	add	r7, sp, #0
 8001532:	6078      	str	r0, [r7, #4]
 8001534:	687b      	ldr	r3, [r7, #4]
 8001536:	0018      	movs	r0, r3
 8001538:	f7ff fe2c 	bl	8001194 <stm32__gpio__mode>
 800153c:	0003      	movs	r3, r0
 800153e:	2b02      	cmp	r3, #2
 8001540:	d007      	beq.n	8001552 <stm32__gpio__set__2+0x26>
 8001542:	4b11      	ldr	r3, [pc, #68]	; (8001588 <stm32__gpio__set__2+0x5c>)
 8001544:	001c      	movs	r4, r3
 8001546:	4b11      	ldr	r3, [pc, #68]	; (800158c <stm32__gpio__set__2+0x60>)
 8001548:	001d      	movs	r5, r3
 800154a:	0020      	movs	r0, r4
 800154c:	0029      	movs	r1, r5
 800154e:	f007 fb21 	bl	8008b94 <system__assertions__raise_assert_failure>
 8001552:	687b      	ldr	r3, [r7, #4]
 8001554:	685b      	ldr	r3, [r3, #4]
 8001556:	2b00      	cmp	r3, #0
 8001558:	d104      	bne.n	8001564 <stm32__gpio__set__2+0x38>
 800155a:	4b0d      	ldr	r3, [pc, #52]	; (8001590 <stm32__gpio__set__2+0x64>)
 800155c:	21bd      	movs	r1, #189	; 0xbd
 800155e:	0018      	movs	r0, r3
 8001560:	f007 f8ca 	bl	80086f8 <__gnat_last_chance_handler>
 8001564:	687b      	ldr	r3, [r7, #4]
 8001566:	685b      	ldr	r3, [r3, #4]
 8001568:	3318      	adds	r3, #24
 800156a:	681b      	ldr	r3, [r3, #0]
 800156c:	001a      	movs	r2, r3
 800156e:	687b      	ldr	r3, [r7, #4]
 8001570:	891b      	ldrh	r3, [r3, #8]
 8001572:	0c12      	lsrs	r2, r2, #16
 8001574:	0412      	lsls	r2, r2, #16
 8001576:	4313      	orrs	r3, r2
 8001578:	001a      	movs	r2, r3
 800157a:	687b      	ldr	r3, [r7, #4]
 800157c:	685b      	ldr	r3, [r3, #4]
 800157e:	3318      	adds	r3, #24
 8001580:	601a      	str	r2, [r3, #0]
 8001582:	46bd      	mov	sp, r7
 8001584:	b002      	add	sp, #8
 8001586:	bdb0      	pop	{r4, r5, r7, pc}
 8001588:	080095b4 	.word	0x080095b4
 800158c:	080095e8 	.word	0x080095e8
 8001590:	080095a4 	.word	0x080095a4

08001594 <stm32__gpio__clear>:
 8001594:	b5b0      	push	{r4, r5, r7, lr}
 8001596:	b082      	sub	sp, #8
 8001598:	af00      	add	r7, sp, #0
 800159a:	6078      	str	r0, [r7, #4]
 800159c:	687b      	ldr	r3, [r7, #4]
 800159e:	0018      	movs	r0, r3
 80015a0:	f7ff fdf8 	bl	8001194 <stm32__gpio__mode>
 80015a4:	0003      	movs	r3, r0
 80015a6:	2b02      	cmp	r3, #2
 80015a8:	d007      	beq.n	80015ba <stm32__gpio__clear+0x26>
 80015aa:	4b12      	ldr	r3, [pc, #72]	; (80015f4 <stm32__gpio__clear+0x60>)
 80015ac:	001c      	movs	r4, r3
 80015ae:	4b12      	ldr	r3, [pc, #72]	; (80015f8 <stm32__gpio__clear+0x64>)
 80015b0:	001d      	movs	r5, r3
 80015b2:	0020      	movs	r0, r4
 80015b4:	0029      	movs	r1, r5
 80015b6:	f007 faed 	bl	8008b94 <system__assertions__raise_assert_failure>
 80015ba:	687b      	ldr	r3, [r7, #4]
 80015bc:	685b      	ldr	r3, [r3, #4]
 80015be:	2b00      	cmp	r3, #0
 80015c0:	d104      	bne.n	80015cc <stm32__gpio__clear+0x38>
 80015c2:	4b0e      	ldr	r3, [pc, #56]	; (80015fc <stm32__gpio__clear+0x68>)
 80015c4:	21d4      	movs	r1, #212	; 0xd4
 80015c6:	0018      	movs	r0, r3
 80015c8:	f007 f896 	bl	80086f8 <__gnat_last_chance_handler>
 80015cc:	687b      	ldr	r3, [r7, #4]
 80015ce:	685b      	ldr	r3, [r3, #4]
 80015d0:	3318      	adds	r3, #24
 80015d2:	681b      	ldr	r3, [r3, #0]
 80015d4:	001a      	movs	r2, r3
 80015d6:	687b      	ldr	r3, [r7, #4]
 80015d8:	891b      	ldrh	r3, [r3, #8]
 80015da:	041b      	lsls	r3, r3, #16
 80015dc:	0412      	lsls	r2, r2, #16
 80015de:	0c12      	lsrs	r2, r2, #16
 80015e0:	4313      	orrs	r3, r2
 80015e2:	001a      	movs	r2, r3
 80015e4:	687b      	ldr	r3, [r7, #4]
 80015e6:	685b      	ldr	r3, [r3, #4]
 80015e8:	3318      	adds	r3, #24
 80015ea:	601a      	str	r2, [r3, #0]
 80015ec:	46bd      	mov	sp, r7
 80015ee:	b002      	add	sp, #8
 80015f0:	bdb0      	pop	{r4, r5, r7, pc}
 80015f2:	46c0      	nop			; (mov r8, r8)
 80015f4:	080095f0 	.word	0x080095f0
 80015f8:	080095e8 	.word	0x080095e8
 80015fc:	080095a4 	.word	0x080095a4

08001600 <stm32__gpio__toggle>:
 8001600:	b5b0      	push	{r4, r5, r7, lr}
 8001602:	b082      	sub	sp, #8
 8001604:	af00      	add	r7, sp, #0
 8001606:	6078      	str	r0, [r7, #4]
 8001608:	687b      	ldr	r3, [r7, #4]
 800160a:	0018      	movs	r0, r3
 800160c:	f7ff fdc2 	bl	8001194 <stm32__gpio__mode>
 8001610:	0003      	movs	r3, r0
 8001612:	2b02      	cmp	r3, #2
 8001614:	d007      	beq.n	8001626 <stm32__gpio__toggle+0x26>
 8001616:	4b1a      	ldr	r3, [pc, #104]	; (8001680 <stm32__gpio__toggle+0x80>)
 8001618:	001c      	movs	r4, r3
 800161a:	4b1a      	ldr	r3, [pc, #104]	; (8001684 <stm32__gpio__toggle+0x84>)
 800161c:	001d      	movs	r5, r3
 800161e:	0020      	movs	r0, r4
 8001620:	0029      	movs	r1, r5
 8001622:	f007 fab7 	bl	8008b94 <system__assertions__raise_assert_failure>
 8001626:	687b      	ldr	r3, [r7, #4]
 8001628:	685b      	ldr	r3, [r3, #4]
 800162a:	2b00      	cmp	r3, #0
 800162c:	d104      	bne.n	8001638 <stm32__gpio__toggle+0x38>
 800162e:	4b16      	ldr	r3, [pc, #88]	; (8001688 <stm32__gpio__toggle+0x88>)
 8001630:	21eb      	movs	r1, #235	; 0xeb
 8001632:	0018      	movs	r0, r3
 8001634:	f007 f860 	bl	80086f8 <__gnat_last_chance_handler>
 8001638:	687b      	ldr	r3, [r7, #4]
 800163a:	685b      	ldr	r3, [r3, #4]
 800163c:	2b00      	cmp	r3, #0
 800163e:	d104      	bne.n	800164a <stm32__gpio__toggle+0x4a>
 8001640:	4b11      	ldr	r3, [pc, #68]	; (8001688 <stm32__gpio__toggle+0x88>)
 8001642:	21eb      	movs	r1, #235	; 0xeb
 8001644:	0018      	movs	r0, r3
 8001646:	f007 f857 	bl	80086f8 <__gnat_last_chance_handler>
 800164a:	687b      	ldr	r3, [r7, #4]
 800164c:	685b      	ldr	r3, [r3, #4]
 800164e:	3314      	adds	r3, #20
 8001650:	681b      	ldr	r3, [r3, #0]
 8001652:	b298      	uxth	r0, r3
 8001654:	687b      	ldr	r3, [r7, #4]
 8001656:	8919      	ldrh	r1, [r3, #8]
 8001658:	687b      	ldr	r3, [r7, #4]
 800165a:	685b      	ldr	r3, [r3, #4]
 800165c:	3314      	adds	r3, #20
 800165e:	681b      	ldr	r3, [r3, #0]
 8001660:	001a      	movs	r2, r3
 8001662:	0003      	movs	r3, r0
 8001664:	404b      	eors	r3, r1
 8001666:	b29b      	uxth	r3, r3
 8001668:	0c12      	lsrs	r2, r2, #16
 800166a:	0412      	lsls	r2, r2, #16
 800166c:	4313      	orrs	r3, r2
 800166e:	001a      	movs	r2, r3
 8001670:	687b      	ldr	r3, [r7, #4]
 8001672:	685b      	ldr	r3, [r3, #4]
 8001674:	3314      	adds	r3, #20
 8001676:	601a      	str	r2, [r3, #0]
 8001678:	46bd      	mov	sp, r7
 800167a:	b002      	add	sp, #8
 800167c:	bdb0      	pop	{r4, r5, r7, pc}
 800167e:	46c0      	nop			; (mov r8, r8)
 8001680:	08009624 	.word	0x08009624
 8001684:	080095e8 	.word	0x080095e8
 8001688:	080095a4 	.word	0x080095a4

0800168c <stm32__gpio__locked>:
 800168c:	b580      	push	{r7, lr}
 800168e:	b084      	sub	sp, #16
 8001690:	af00      	add	r7, sp, #0
 8001692:	6078      	str	r0, [r7, #4]
 8001694:	230e      	movs	r3, #14
 8001696:	18fb      	adds	r3, r7, r3
 8001698:	687a      	ldr	r2, [r7, #4]
 800169a:	8912      	ldrh	r2, [r2, #8]
 800169c:	801a      	strh	r2, [r3, #0]
 800169e:	687b      	ldr	r3, [r7, #4]
 80016a0:	685b      	ldr	r3, [r3, #4]
 80016a2:	2b00      	cmp	r3, #0
 80016a4:	d106      	bne.n	80016b4 <stm32__gpio__locked+0x28>
 80016a6:	2380      	movs	r3, #128	; 0x80
 80016a8:	005a      	lsls	r2, r3, #1
 80016aa:	4b0d      	ldr	r3, [pc, #52]	; (80016e0 <stm32__gpio__locked+0x54>)
 80016ac:	0011      	movs	r1, r2
 80016ae:	0018      	movs	r0, r3
 80016b0:	f007 f822 	bl	80086f8 <__gnat_last_chance_handler>
 80016b4:	687b      	ldr	r3, [r7, #4]
 80016b6:	685b      	ldr	r3, [r3, #4]
 80016b8:	331c      	adds	r3, #28
 80016ba:	681b      	ldr	r3, [r3, #0]
 80016bc:	b29b      	uxth	r3, r3
 80016be:	210e      	movs	r1, #14
 80016c0:	187a      	adds	r2, r7, r1
 80016c2:	8812      	ldrh	r2, [r2, #0]
 80016c4:	4013      	ands	r3, r2
 80016c6:	b29b      	uxth	r3, r3
 80016c8:	187a      	adds	r2, r7, r1
 80016ca:	8812      	ldrh	r2, [r2, #0]
 80016cc:	1ad3      	subs	r3, r2, r3
 80016ce:	425a      	negs	r2, r3
 80016d0:	4153      	adcs	r3, r2
 80016d2:	b2db      	uxtb	r3, r3
 80016d4:	46c0      	nop			; (mov r8, r8)
 80016d6:	0018      	movs	r0, r3
 80016d8:	46bd      	mov	sp, r7
 80016da:	b004      	add	sp, #16
 80016dc:	bd80      	pop	{r7, pc}
 80016de:	46c0      	nop			; (mov r8, r8)
 80016e0:	080095a4 	.word	0x080095a4

080016e4 <stm32__gpio__lock_the_pin>:
 80016e4:	b580      	push	{r7, lr}
 80016e6:	b084      	sub	sp, #16
 80016e8:	af00      	add	r7, sp, #0
 80016ea:	6078      	str	r0, [r7, #4]
 80016ec:	000a      	movs	r2, r1
 80016ee:	1cbb      	adds	r3, r7, #2
 80016f0:	801a      	strh	r2, [r3, #0]
 80016f2:	46c0      	nop			; (mov r8, r8)
 80016f4:	46bd      	mov	sp, r7
 80016f6:	b004      	add	sp, #16
 80016f8:	bd80      	pop	{r7, pc}
 80016fa:	46c0      	nop			; (mov r8, r8)

080016fc <stm32__gpio__lock___postconditions.5513>:
 80016fc:	b5b0      	push	{r4, r5, r7, lr}
 80016fe:	b082      	sub	sp, #8
 8001700:	af00      	add	r7, sp, #0
 8001702:	4663      	mov	r3, ip
 8001704:	4662      	mov	r2, ip
 8001706:	607a      	str	r2, [r7, #4]
 8001708:	681b      	ldr	r3, [r3, #0]
 800170a:	0018      	movs	r0, r3
 800170c:	f7ff ffbe 	bl	800168c <stm32__gpio__locked>
 8001710:	0003      	movs	r3, r0
 8001712:	001a      	movs	r2, r3
 8001714:	2301      	movs	r3, #1
 8001716:	4053      	eors	r3, r2
 8001718:	b2db      	uxtb	r3, r3
 800171a:	2b00      	cmp	r3, #0
 800171c:	d007      	beq.n	800172e <stm32__gpio__lock___postconditions.5513+0x32>
 800171e:	4b05      	ldr	r3, [pc, #20]	; (8001734 <stm32__gpio__lock___postconditions.5513+0x38>)
 8001720:	001c      	movs	r4, r3
 8001722:	4b05      	ldr	r3, [pc, #20]	; (8001738 <stm32__gpio__lock___postconditions.5513+0x3c>)
 8001724:	001d      	movs	r5, r3
 8001726:	0020      	movs	r0, r4
 8001728:	0029      	movs	r1, r5
 800172a:	f007 fa33 	bl	8008b94 <system__assertions__raise_assert_failure>
 800172e:	46bd      	mov	sp, r7
 8001730:	b002      	add	sp, #8
 8001732:	bdb0      	pop	{r4, r5, r7, pc}
 8001734:	08009658 	.word	0x08009658
 8001738:	08009688 	.word	0x08009688

0800173c <stm32__gpio__lock>:
 800173c:	b5b0      	push	{r4, r5, r7, lr}
 800173e:	b084      	sub	sp, #16
 8001740:	af00      	add	r7, sp, #0
 8001742:	6078      	str	r0, [r7, #4]
 8001744:	2320      	movs	r3, #32
 8001746:	18fa      	adds	r2, r7, r3
 8001748:	2108      	movs	r1, #8
 800174a:	187b      	adds	r3, r7, r1
 800174c:	605a      	str	r2, [r3, #4]
 800174e:	187b      	adds	r3, r7, r1
 8001750:	687a      	ldr	r2, [r7, #4]
 8001752:	601a      	str	r2, [r3, #0]
 8001754:	187b      	adds	r3, r7, r1
 8001756:	681b      	ldr	r3, [r3, #0]
 8001758:	0018      	movs	r0, r3
 800175a:	f7ff ff97 	bl	800168c <stm32__gpio__locked>
 800175e:	1e03      	subs	r3, r0, #0
 8001760:	d007      	beq.n	8001772 <stm32__gpio__lock+0x36>
 8001762:	4b14      	ldr	r3, [pc, #80]	; (80017b4 <stm32__gpio__lock+0x78>)
 8001764:	001c      	movs	r4, r3
 8001766:	4b14      	ldr	r3, [pc, #80]	; (80017b8 <stm32__gpio__lock+0x7c>)
 8001768:	001d      	movs	r5, r3
 800176a:	0020      	movs	r0, r4
 800176c:	0029      	movs	r1, r5
 800176e:	f007 fa11 	bl	8008b94 <system__assertions__raise_assert_failure>
 8001772:	2308      	movs	r3, #8
 8001774:	18fb      	adds	r3, r7, r3
 8001776:	681b      	ldr	r3, [r3, #0]
 8001778:	685b      	ldr	r3, [r3, #4]
 800177a:	2b00      	cmp	r3, #0
 800177c:	d107      	bne.n	800178e <stm32__gpio__lock+0x52>
 800177e:	2346      	movs	r3, #70	; 0x46
 8001780:	33ff      	adds	r3, #255	; 0xff
 8001782:	001a      	movs	r2, r3
 8001784:	4b0d      	ldr	r3, [pc, #52]	; (80017bc <stm32__gpio__lock+0x80>)
 8001786:	0011      	movs	r1, r2
 8001788:	0018      	movs	r0, r3
 800178a:	f006 ffb5 	bl	80086f8 <__gnat_last_chance_handler>
 800178e:	2408      	movs	r4, #8
 8001790:	193b      	adds	r3, r7, r4
 8001792:	681b      	ldr	r3, [r3, #0]
 8001794:	685a      	ldr	r2, [r3, #4]
 8001796:	193b      	adds	r3, r7, r4
 8001798:	681b      	ldr	r3, [r3, #0]
 800179a:	891b      	ldrh	r3, [r3, #8]
 800179c:	0019      	movs	r1, r3
 800179e:	0010      	movs	r0, r2
 80017a0:	f7ff ffa0 	bl	80016e4 <stm32__gpio__lock_the_pin>
 80017a4:	193b      	adds	r3, r7, r4
 80017a6:	469c      	mov	ip, r3
 80017a8:	f7ff ffa8 	bl	80016fc <stm32__gpio__lock___postconditions.5513>
 80017ac:	46bd      	mov	sp, r7
 80017ae:	b004      	add	sp, #16
 80017b0:	bdb0      	pop	{r4, r5, r7, pc}
 80017b2:	46c0      	nop			; (mov r8, r8)
 80017b4:	08009690 	.word	0x08009690
 80017b8:	080096bc 	.word	0x080096bc
 80017bc:	080095a4 	.word	0x080095a4

080017c0 <stm32__gpio__configure_io>:
 80017c0:	b580      	push	{r7, lr}
 80017c2:	b088      	sub	sp, #32
 80017c4:	af00      	add	r7, sp, #0
 80017c6:	6078      	str	r0, [r7, #4]
 80017c8:	003b      	movs	r3, r7
 80017ca:	6019      	str	r1, [r3, #0]
 80017cc:	687b      	ldr	r3, [r7, #4]
 80017ce:	891b      	ldrh	r3, [r3, #8]
 80017d0:	2101      	movs	r1, #1
 80017d2:	0018      	movs	r0, r3
 80017d4:	f7ff fc3a 	bl	800104c <stm32__gpio__gpio_pinRP>
 80017d8:	1e03      	subs	r3, r0, #0
 80017da:	db01      	blt.n	80017e0 <stm32__gpio__configure_io+0x20>
 80017dc:	2b0f      	cmp	r3, #15
 80017de:	dd07      	ble.n	80017f0 <stm32__gpio__configure_io+0x30>
 80017e0:	235e      	movs	r3, #94	; 0x5e
 80017e2:	33ff      	adds	r3, #255	; 0xff
 80017e4:	001a      	movs	r2, r3
 80017e6:	4b62      	ldr	r3, [pc, #392]	; (8001970 <stm32__gpio__configure_io+0x1b0>)
 80017e8:	0011      	movs	r1, r2
 80017ea:	0018      	movs	r0, r3
 80017ec:	f006 ff84 	bl	80086f8 <__gnat_last_chance_handler>
 80017f0:	61fb      	str	r3, [r7, #28]
 80017f2:	687b      	ldr	r3, [r7, #4]
 80017f4:	685b      	ldr	r3, [r3, #4]
 80017f6:	2b00      	cmp	r3, #0
 80017f8:	d107      	bne.n	800180a <stm32__gpio__configure_io+0x4a>
 80017fa:	2360      	movs	r3, #96	; 0x60
 80017fc:	33ff      	adds	r3, #255	; 0xff
 80017fe:	001a      	movs	r2, r3
 8001800:	4b5b      	ldr	r3, [pc, #364]	; (8001970 <stm32__gpio__configure_io+0x1b0>)
 8001802:	0011      	movs	r1, r2
 8001804:	0018      	movs	r0, r3
 8001806:	f006 ff77 	bl	80086f8 <__gnat_last_chance_handler>
 800180a:	687b      	ldr	r3, [r7, #4]
 800180c:	685b      	ldr	r3, [r3, #4]
 800180e:	681b      	ldr	r3, [r3, #0]
 8001810:	61bb      	str	r3, [r7, #24]
 8001812:	69bb      	ldr	r3, [r7, #24]
 8001814:	69fa      	ldr	r2, [r7, #28]
 8001816:	0052      	lsls	r2, r2, #1
 8001818:	0011      	movs	r1, r2
 800181a:	2203      	movs	r2, #3
 800181c:	408a      	lsls	r2, r1
 800181e:	43d2      	mvns	r2, r2
 8001820:	401a      	ands	r2, r3
 8001822:	0011      	movs	r1, r2
 8001824:	003b      	movs	r3, r7
 8001826:	781b      	ldrb	r3, [r3, #0]
 8001828:	001a      	movs	r2, r3
 800182a:	69fb      	ldr	r3, [r7, #28]
 800182c:	005b      	lsls	r3, r3, #1
 800182e:	409a      	lsls	r2, r3
 8001830:	687b      	ldr	r3, [r7, #4]
 8001832:	685b      	ldr	r3, [r3, #4]
 8001834:	681b      	ldr	r3, [r3, #0]
 8001836:	0018      	movs	r0, r3
 8001838:	000b      	movs	r3, r1
 800183a:	4313      	orrs	r3, r2
 800183c:	0018      	movs	r0, r3
 800183e:	687b      	ldr	r3, [r7, #4]
 8001840:	685b      	ldr	r3, [r3, #4]
 8001842:	0002      	movs	r2, r0
 8001844:	601a      	str	r2, [r3, #0]
 8001846:	687b      	ldr	r3, [r7, #4]
 8001848:	685b      	ldr	r3, [r3, #4]
 800184a:	2b00      	cmp	r3, #0
 800184c:	d106      	bne.n	800185c <stm32__gpio__configure_io+0x9c>
 800184e:	23b0      	movs	r3, #176	; 0xb0
 8001850:	005a      	lsls	r2, r3, #1
 8001852:	4b47      	ldr	r3, [pc, #284]	; (8001970 <stm32__gpio__configure_io+0x1b0>)
 8001854:	0011      	movs	r1, r2
 8001856:	0018      	movs	r0, r3
 8001858:	f006 ff4e 	bl	80086f8 <__gnat_last_chance_handler>
 800185c:	687b      	ldr	r3, [r7, #4]
 800185e:	685b      	ldr	r3, [r3, #4]
 8001860:	3304      	adds	r3, #4
 8001862:	681b      	ldr	r3, [r3, #0]
 8001864:	b29a      	uxth	r2, r3
 8001866:	2114      	movs	r1, #20
 8001868:	187b      	adds	r3, r7, r1
 800186a:	801a      	strh	r2, [r3, #0]
 800186c:	187b      	adds	r3, r7, r1
 800186e:	881b      	ldrh	r3, [r3, #0]
 8001870:	69fa      	ldr	r2, [r7, #28]
 8001872:	2101      	movs	r1, #1
 8001874:	4091      	lsls	r1, r2
 8001876:	000a      	movs	r2, r1
 8001878:	b292      	uxth	r2, r2
 800187a:	43d2      	mvns	r2, r2
 800187c:	b292      	uxth	r2, r2
 800187e:	4013      	ands	r3, r2
 8001880:	b298      	uxth	r0, r3
 8001882:	003b      	movs	r3, r7
 8001884:	785b      	ldrb	r3, [r3, #1]
 8001886:	3b01      	subs	r3, #1
 8001888:	425a      	negs	r2, r3
 800188a:	4153      	adcs	r3, r2
 800188c:	b2db      	uxtb	r3, r3
 800188e:	b29a      	uxth	r2, r3
 8001890:	69fb      	ldr	r3, [r7, #28]
 8001892:	409a      	lsls	r2, r3
 8001894:	0013      	movs	r3, r2
 8001896:	b299      	uxth	r1, r3
 8001898:	687b      	ldr	r3, [r7, #4]
 800189a:	685b      	ldr	r3, [r3, #4]
 800189c:	3304      	adds	r3, #4
 800189e:	681b      	ldr	r3, [r3, #0]
 80018a0:	001a      	movs	r2, r3
 80018a2:	0003      	movs	r3, r0
 80018a4:	430b      	orrs	r3, r1
 80018a6:	b29b      	uxth	r3, r3
 80018a8:	0c12      	lsrs	r2, r2, #16
 80018aa:	0412      	lsls	r2, r2, #16
 80018ac:	4313      	orrs	r3, r2
 80018ae:	001a      	movs	r2, r3
 80018b0:	687b      	ldr	r3, [r7, #4]
 80018b2:	685b      	ldr	r3, [r3, #4]
 80018b4:	3304      	adds	r3, #4
 80018b6:	601a      	str	r2, [r3, #0]
 80018b8:	687b      	ldr	r3, [r7, #4]
 80018ba:	685b      	ldr	r3, [r3, #4]
 80018bc:	2b00      	cmp	r3, #0
 80018be:	d107      	bne.n	80018d0 <stm32__gpio__configure_io+0x110>
 80018c0:	2362      	movs	r3, #98	; 0x62
 80018c2:	33ff      	adds	r3, #255	; 0xff
 80018c4:	001a      	movs	r2, r3
 80018c6:	4b2a      	ldr	r3, [pc, #168]	; (8001970 <stm32__gpio__configure_io+0x1b0>)
 80018c8:	0011      	movs	r1, r2
 80018ca:	0018      	movs	r0, r3
 80018cc:	f006 ff14 	bl	80086f8 <__gnat_last_chance_handler>
 80018d0:	687b      	ldr	r3, [r7, #4]
 80018d2:	685b      	ldr	r3, [r3, #4]
 80018d4:	3308      	adds	r3, #8
 80018d6:	681b      	ldr	r3, [r3, #0]
 80018d8:	613b      	str	r3, [r7, #16]
 80018da:	693b      	ldr	r3, [r7, #16]
 80018dc:	69fa      	ldr	r2, [r7, #28]
 80018de:	0052      	lsls	r2, r2, #1
 80018e0:	0011      	movs	r1, r2
 80018e2:	2203      	movs	r2, #3
 80018e4:	408a      	lsls	r2, r1
 80018e6:	43d2      	mvns	r2, r2
 80018e8:	401a      	ands	r2, r3
 80018ea:	0011      	movs	r1, r2
 80018ec:	003b      	movs	r3, r7
 80018ee:	789b      	ldrb	r3, [r3, #2]
 80018f0:	001a      	movs	r2, r3
 80018f2:	69fb      	ldr	r3, [r7, #28]
 80018f4:	005b      	lsls	r3, r3, #1
 80018f6:	409a      	lsls	r2, r3
 80018f8:	687b      	ldr	r3, [r7, #4]
 80018fa:	685b      	ldr	r3, [r3, #4]
 80018fc:	3308      	adds	r3, #8
 80018fe:	681b      	ldr	r3, [r3, #0]
 8001900:	0018      	movs	r0, r3
 8001902:	000b      	movs	r3, r1
 8001904:	4313      	orrs	r3, r2
 8001906:	0018      	movs	r0, r3
 8001908:	687b      	ldr	r3, [r7, #4]
 800190a:	685b      	ldr	r3, [r3, #4]
 800190c:	3308      	adds	r3, #8
 800190e:	0002      	movs	r2, r0
 8001910:	601a      	str	r2, [r3, #0]
 8001912:	687b      	ldr	r3, [r7, #4]
 8001914:	685b      	ldr	r3, [r3, #4]
 8001916:	2b00      	cmp	r3, #0
 8001918:	d106      	bne.n	8001928 <stm32__gpio__configure_io+0x168>
 800191a:	23b1      	movs	r3, #177	; 0xb1
 800191c:	005a      	lsls	r2, r3, #1
 800191e:	4b14      	ldr	r3, [pc, #80]	; (8001970 <stm32__gpio__configure_io+0x1b0>)
 8001920:	0011      	movs	r1, r2
 8001922:	0018      	movs	r0, r3
 8001924:	f006 fee8 	bl	80086f8 <__gnat_last_chance_handler>
 8001928:	687b      	ldr	r3, [r7, #4]
 800192a:	685b      	ldr	r3, [r3, #4]
 800192c:	330c      	adds	r3, #12
 800192e:	681b      	ldr	r3, [r3, #0]
 8001930:	60fb      	str	r3, [r7, #12]
 8001932:	68fb      	ldr	r3, [r7, #12]
 8001934:	69fa      	ldr	r2, [r7, #28]
 8001936:	0052      	lsls	r2, r2, #1
 8001938:	0011      	movs	r1, r2
 800193a:	2203      	movs	r2, #3
 800193c:	408a      	lsls	r2, r1
 800193e:	43d2      	mvns	r2, r2
 8001940:	401a      	ands	r2, r3
 8001942:	0011      	movs	r1, r2
 8001944:	003b      	movs	r3, r7
 8001946:	78db      	ldrb	r3, [r3, #3]
 8001948:	001a      	movs	r2, r3
 800194a:	69fb      	ldr	r3, [r7, #28]
 800194c:	005b      	lsls	r3, r3, #1
 800194e:	409a      	lsls	r2, r3
 8001950:	687b      	ldr	r3, [r7, #4]
 8001952:	685b      	ldr	r3, [r3, #4]
 8001954:	330c      	adds	r3, #12
 8001956:	681b      	ldr	r3, [r3, #0]
 8001958:	0018      	movs	r0, r3
 800195a:	000b      	movs	r3, r1
 800195c:	4313      	orrs	r3, r2
 800195e:	0018      	movs	r0, r3
 8001960:	687b      	ldr	r3, [r7, #4]
 8001962:	685b      	ldr	r3, [r3, #4]
 8001964:	330c      	adds	r3, #12
 8001966:	0002      	movs	r2, r0
 8001968:	601a      	str	r2, [r3, #0]
 800196a:	46bd      	mov	sp, r7
 800196c:	b008      	add	sp, #32
 800196e:	bd80      	pop	{r7, pc}
 8001970:	080095a4 	.word	0x080095a4

08001974 <stm32__gpio__configure_alternate_function>:
 8001974:	b580      	push	{r7, lr}
 8001976:	b086      	sub	sp, #24
 8001978:	af00      	add	r7, sp, #0
 800197a:	6078      	str	r0, [r7, #4]
 800197c:	000a      	movs	r2, r1
 800197e:	1cfb      	adds	r3, r7, #3
 8001980:	701a      	strb	r2, [r3, #0]
 8001982:	687b      	ldr	r3, [r7, #4]
 8001984:	891b      	ldrh	r3, [r3, #8]
 8001986:	2101      	movs	r1, #1
 8001988:	0018      	movs	r0, r3
 800198a:	f7ff fb5f 	bl	800104c <stm32__gpio__gpio_pinRP>
 800198e:	1e03      	subs	r3, r0, #0
 8001990:	db01      	blt.n	8001996 <stm32__gpio__configure_alternate_function+0x22>
 8001992:	2b0f      	cmp	r3, #15
 8001994:	dd07      	ble.n	80019a6 <stm32__gpio__configure_alternate_function+0x32>
 8001996:	237c      	movs	r3, #124	; 0x7c
 8001998:	33ff      	adds	r3, #255	; 0xff
 800199a:	001a      	movs	r2, r3
 800199c:	4b3d      	ldr	r3, [pc, #244]	; (8001a94 <stm32__gpio__configure_alternate_function+0x120>)
 800199e:	0011      	movs	r1, r2
 80019a0:	0018      	movs	r0, r3
 80019a2:	f006 fea9 	bl	80086f8 <__gnat_last_chance_handler>
 80019a6:	617b      	str	r3, [r7, #20]
 80019a8:	697b      	ldr	r3, [r7, #20]
 80019aa:	2b07      	cmp	r3, #7
 80019ac:	dc36      	bgt.n	8001a1c <stm32__gpio__configure_alternate_function+0xa8>
 80019ae:	687b      	ldr	r3, [r7, #4]
 80019b0:	685b      	ldr	r3, [r3, #4]
 80019b2:	2b00      	cmp	r3, #0
 80019b4:	d106      	bne.n	80019c4 <stm32__gpio__configure_alternate_function+0x50>
 80019b6:	23bf      	movs	r3, #191	; 0xbf
 80019b8:	005a      	lsls	r2, r3, #1
 80019ba:	4b36      	ldr	r3, [pc, #216]	; (8001a94 <stm32__gpio__configure_alternate_function+0x120>)
 80019bc:	0011      	movs	r1, r2
 80019be:	0018      	movs	r0, r3
 80019c0:	f006 fe9a 	bl	80086f8 <__gnat_last_chance_handler>
 80019c4:	697b      	ldr	r3, [r7, #20]
 80019c6:	2b07      	cmp	r3, #7
 80019c8:	dd06      	ble.n	80019d8 <stm32__gpio__configure_alternate_function+0x64>
 80019ca:	23bf      	movs	r3, #191	; 0xbf
 80019cc:	005a      	lsls	r2, r3, #1
 80019ce:	4b31      	ldr	r3, [pc, #196]	; (8001a94 <stm32__gpio__configure_alternate_function+0x120>)
 80019d0:	0011      	movs	r1, r2
 80019d2:	0018      	movs	r0, r3
 80019d4:	f006 fe90 	bl	80086f8 <__gnat_last_chance_handler>
 80019d8:	687b      	ldr	r3, [r7, #4]
 80019da:	685b      	ldr	r3, [r3, #4]
 80019dc:	3320      	adds	r3, #32
 80019de:	681b      	ldr	r3, [r3, #0]
 80019e0:	613b      	str	r3, [r7, #16]
 80019e2:	693b      	ldr	r3, [r7, #16]
 80019e4:	697a      	ldr	r2, [r7, #20]
 80019e6:	0092      	lsls	r2, r2, #2
 80019e8:	0011      	movs	r1, r2
 80019ea:	220f      	movs	r2, #15
 80019ec:	408a      	lsls	r2, r1
 80019ee:	43d2      	mvns	r2, r2
 80019f0:	401a      	ands	r2, r3
 80019f2:	0011      	movs	r1, r2
 80019f4:	1cfb      	adds	r3, r7, #3
 80019f6:	781b      	ldrb	r3, [r3, #0]
 80019f8:	697a      	ldr	r2, [r7, #20]
 80019fa:	0092      	lsls	r2, r2, #2
 80019fc:	4093      	lsls	r3, r2
 80019fe:	001a      	movs	r2, r3
 8001a00:	687b      	ldr	r3, [r7, #4]
 8001a02:	685b      	ldr	r3, [r3, #4]
 8001a04:	3320      	adds	r3, #32
 8001a06:	681b      	ldr	r3, [r3, #0]
 8001a08:	0018      	movs	r0, r3
 8001a0a:	000b      	movs	r3, r1
 8001a0c:	4313      	orrs	r3, r2
 8001a0e:	0018      	movs	r0, r3
 8001a10:	687b      	ldr	r3, [r7, #4]
 8001a12:	685b      	ldr	r3, [r3, #4]
 8001a14:	3320      	adds	r3, #32
 8001a16:	0002      	movs	r2, r0
 8001a18:	601a      	str	r2, [r3, #0]
 8001a1a:	e037      	b.n	8001a8c <stm32__gpio__configure_alternate_function+0x118>
 8001a1c:	687b      	ldr	r3, [r7, #4]
 8001a1e:	685b      	ldr	r3, [r3, #4]
 8001a20:	2b00      	cmp	r3, #0
 8001a22:	d106      	bne.n	8001a32 <stm32__gpio__configure_alternate_function+0xbe>
 8001a24:	23c0      	movs	r3, #192	; 0xc0
 8001a26:	005a      	lsls	r2, r3, #1
 8001a28:	4b1a      	ldr	r3, [pc, #104]	; (8001a94 <stm32__gpio__configure_alternate_function+0x120>)
 8001a2a:	0011      	movs	r1, r2
 8001a2c:	0018      	movs	r0, r3
 8001a2e:	f006 fe63 	bl	80086f8 <__gnat_last_chance_handler>
 8001a32:	697b      	ldr	r3, [r7, #20]
 8001a34:	2b07      	cmp	r3, #7
 8001a36:	dc06      	bgt.n	8001a46 <stm32__gpio__configure_alternate_function+0xd2>
 8001a38:	23c0      	movs	r3, #192	; 0xc0
 8001a3a:	005a      	lsls	r2, r3, #1
 8001a3c:	4b15      	ldr	r3, [pc, #84]	; (8001a94 <stm32__gpio__configure_alternate_function+0x120>)
 8001a3e:	0011      	movs	r1, r2
 8001a40:	0018      	movs	r0, r3
 8001a42:	f006 fe59 	bl	80086f8 <__gnat_last_chance_handler>
 8001a46:	687b      	ldr	r3, [r7, #4]
 8001a48:	685b      	ldr	r3, [r3, #4]
 8001a4a:	3324      	adds	r3, #36	; 0x24
 8001a4c:	681b      	ldr	r3, [r3, #0]
 8001a4e:	60fb      	str	r3, [r7, #12]
 8001a50:	68fb      	ldr	r3, [r7, #12]
 8001a52:	697a      	ldr	r2, [r7, #20]
 8001a54:	3a08      	subs	r2, #8
 8001a56:	0092      	lsls	r2, r2, #2
 8001a58:	0011      	movs	r1, r2
 8001a5a:	220f      	movs	r2, #15
 8001a5c:	408a      	lsls	r2, r1
 8001a5e:	43d2      	mvns	r2, r2
 8001a60:	401a      	ands	r2, r3
 8001a62:	0011      	movs	r1, r2
 8001a64:	1cfb      	adds	r3, r7, #3
 8001a66:	781b      	ldrb	r3, [r3, #0]
 8001a68:	697a      	ldr	r2, [r7, #20]
 8001a6a:	3a08      	subs	r2, #8
 8001a6c:	0092      	lsls	r2, r2, #2
 8001a6e:	4093      	lsls	r3, r2
 8001a70:	001a      	movs	r2, r3
 8001a72:	687b      	ldr	r3, [r7, #4]
 8001a74:	685b      	ldr	r3, [r3, #4]
 8001a76:	3324      	adds	r3, #36	; 0x24
 8001a78:	681b      	ldr	r3, [r3, #0]
 8001a7a:	0018      	movs	r0, r3
 8001a7c:	000b      	movs	r3, r1
 8001a7e:	4313      	orrs	r3, r2
 8001a80:	0018      	movs	r0, r3
 8001a82:	687b      	ldr	r3, [r7, #4]
 8001a84:	685b      	ldr	r3, [r3, #4]
 8001a86:	3324      	adds	r3, #36	; 0x24
 8001a88:	0002      	movs	r2, r0
 8001a8a:	601a      	str	r2, [r3, #0]
 8001a8c:	46bd      	mov	sp, r7
 8001a8e:	b006      	add	sp, #24
 8001a90:	bd80      	pop	{r7, pc}
 8001a92:	46c0      	nop			; (mov r8, r8)
 8001a94:	080095a4 	.word	0x080095a4

08001a98 <stm32__gpio__interrupt_line_number>:
 8001a98:	b5b0      	push	{r4, r5, r7, lr}
 8001a9a:	b082      	sub	sp, #8
 8001a9c:	af00      	add	r7, sp, #0
 8001a9e:	6078      	str	r0, [r7, #4]
 8001aa0:	687b      	ldr	r3, [r7, #4]
 8001aa2:	891b      	ldrh	r3, [r3, #8]
 8001aa4:	2101      	movs	r1, #1
 8001aa6:	0018      	movs	r0, r3
 8001aa8:	f7ff fad0 	bl	800104c <stm32__gpio__gpio_pinRP>
 8001aac:	0003      	movs	r3, r0
 8001aae:	001c      	movs	r4, r3
 8001ab0:	17db      	asrs	r3, r3, #31
 8001ab2:	1e1d      	subs	r5, r3, #0
 8001ab4:	db03      	blt.n	8001abe <stm32__gpio__interrupt_line_number+0x26>
 8001ab6:	dc02      	bgt.n	8001abe <stm32__gpio__interrupt_line_number+0x26>
 8001ab8:	d108      	bne.n	8001acc <stm32__gpio__interrupt_line_number+0x34>
 8001aba:	2c16      	cmp	r4, #22
 8001abc:	d906      	bls.n	8001acc <stm32__gpio__interrupt_line_number+0x34>
 8001abe:	23cd      	movs	r3, #205	; 0xcd
 8001ac0:	005a      	lsls	r2, r3, #1
 8001ac2:	4b05      	ldr	r3, [pc, #20]	; (8001ad8 <stm32__gpio__interrupt_line_number+0x40>)
 8001ac4:	0011      	movs	r1, r2
 8001ac6:	0018      	movs	r0, r3
 8001ac8:	f006 fe16 	bl	80086f8 <__gnat_last_chance_handler>
 8001acc:	b2e3      	uxtb	r3, r4
 8001ace:	46c0      	nop			; (mov r8, r8)
 8001ad0:	0018      	movs	r0, r3
 8001ad2:	46bd      	mov	sp, r7
 8001ad4:	b002      	add	sp, #8
 8001ad6:	bdb0      	pop	{r4, r5, r7, pc}
 8001ad8:	080095a4 	.word	0x080095a4

08001adc <stm32__gpio__configure_trigger>:
 8001adc:	b5b0      	push	{r4, r5, r7, lr}
 8001ade:	b084      	sub	sp, #16
 8001ae0:	af00      	add	r7, sp, #0
 8001ae2:	6078      	str	r0, [r7, #4]
 8001ae4:	000a      	movs	r2, r1
 8001ae6:	1cfb      	adds	r3, r7, #3
 8001ae8:	701a      	strb	r2, [r3, #0]
 8001aea:	687b      	ldr	r3, [r7, #4]
 8001aec:	891b      	ldrh	r3, [r3, #8]
 8001aee:	2101      	movs	r1, #1
 8001af0:	0018      	movs	r0, r3
 8001af2:	f7ff faab 	bl	800104c <stm32__gpio__gpio_pinRP>
 8001af6:	0003      	movs	r3, r0
 8001af8:	001c      	movs	r4, r3
 8001afa:	17db      	asrs	r3, r3, #31
 8001afc:	1e1d      	subs	r5, r3, #0
 8001afe:	db03      	blt.n	8001b08 <stm32__gpio__configure_trigger+0x2c>
 8001b00:	dc02      	bgt.n	8001b08 <stm32__gpio__configure_trigger+0x2c>
 8001b02:	d108      	bne.n	8001b16 <stm32__gpio__configure_trigger+0x3a>
 8001b04:	2c16      	cmp	r4, #22
 8001b06:	d906      	bls.n	8001b16 <stm32__gpio__configure_trigger+0x3a>
 8001b08:	23d3      	movs	r3, #211	; 0xd3
 8001b0a:	005a      	lsls	r2, r3, #1
 8001b0c:	4b1a      	ldr	r3, [pc, #104]	; (8001b78 <stm32__gpio__configure_trigger+0x9c>)
 8001b0e:	0011      	movs	r1, r2
 8001b10:	0018      	movs	r0, r3
 8001b12:	f006 fdf1 	bl	80086f8 <__gnat_last_chance_handler>
 8001b16:	230f      	movs	r3, #15
 8001b18:	18fb      	adds	r3, r7, r3
 8001b1a:	1c22      	adds	r2, r4, #0
 8001b1c:	701a      	strb	r2, [r3, #0]
 8001b1e:	f003 f907 	bl	8004d30 <stm32__rcc__syscfg_clock_enable>
 8001b22:	687b      	ldr	r3, [r7, #4]
 8001b24:	0018      	movs	r0, r3
 8001b26:	f005 f93b 	bl	8006da0 <stm32__syscfg__connect_external_interrupt__2>
 8001b2a:	1cfb      	adds	r3, r7, #3
 8001b2c:	781b      	ldrb	r3, [r3, #0]
 8001b2e:	2b02      	cmp	r3, #2
 8001b30:	d809      	bhi.n	8001b46 <stm32__gpio__configure_trigger+0x6a>
 8001b32:	1cfb      	adds	r3, r7, #3
 8001b34:	781a      	ldrb	r2, [r3, #0]
 8001b36:	230f      	movs	r3, #15
 8001b38:	18fb      	adds	r3, r7, r3
 8001b3a:	781b      	ldrb	r3, [r3, #0]
 8001b3c:	0011      	movs	r1, r2
 8001b3e:	0018      	movs	r0, r3
 8001b40:	f7ff f8b0 	bl	8000ca4 <stm32__exti__enable_external_interrupt>
 8001b44:	e014      	b.n	8001b70 <stm32__gpio__configure_trigger+0x94>
 8001b46:	1cfb      	adds	r3, r7, #3
 8001b48:	781b      	ldrb	r3, [r3, #0]
 8001b4a:	2b02      	cmp	r3, #2
 8001b4c:	d807      	bhi.n	8001b5e <stm32__gpio__configure_trigger+0x82>
 8001b4e:	23b0      	movs	r3, #176	; 0xb0
 8001b50:	33ff      	adds	r3, #255	; 0xff
 8001b52:	001a      	movs	r2, r3
 8001b54:	4b08      	ldr	r3, [pc, #32]	; (8001b78 <stm32__gpio__configure_trigger+0x9c>)
 8001b56:	0011      	movs	r1, r2
 8001b58:	0018      	movs	r0, r3
 8001b5a:	f006 fdcd 	bl	80086f8 <__gnat_last_chance_handler>
 8001b5e:	1cfb      	adds	r3, r7, #3
 8001b60:	781a      	ldrb	r2, [r3, #0]
 8001b62:	230f      	movs	r3, #15
 8001b64:	18fb      	adds	r3, r7, r3
 8001b66:	781b      	ldrb	r3, [r3, #0]
 8001b68:	0011      	movs	r1, r2
 8001b6a:	0018      	movs	r0, r3
 8001b6c:	f7ff f9c4 	bl	8000ef8 <stm32__exti__enable_external_event>
 8001b70:	46bd      	mov	sp, r7
 8001b72:	b004      	add	sp, #16
 8001b74:	bdb0      	pop	{r4, r5, r7, pc}
 8001b76:	46c0      	nop			; (mov r8, r8)
 8001b78:	080095a4 	.word	0x080095a4

08001b7c <stm32__i2c__i2c_configurationIP>:
 8001b7c:	b580      	push	{r7, lr}
 8001b7e:	b082      	sub	sp, #8
 8001b80:	af00      	add	r7, sp, #0
 8001b82:	6078      	str	r0, [r7, #4]
 8001b84:	687b      	ldr	r3, [r7, #4]
 8001b86:	2200      	movs	r2, #0
 8001b88:	721a      	strb	r2, [r3, #8]
 8001b8a:	687b      	ldr	r3, [r7, #4]
 8001b8c:	2201      	movs	r2, #1
 8001b8e:	725a      	strb	r2, [r3, #9]
 8001b90:	46bd      	mov	sp, r7
 8001b92:	b002      	add	sp, #8
 8001b94:	bd80      	pop	{r7, pc}
 8001b96:	46c0      	nop			; (mov r8, r8)

08001b98 <stm32__i2c__i2c_portIP>:
 8001b98:	b580      	push	{r7, lr}
 8001b9a:	b084      	sub	sp, #16
 8001b9c:	af00      	add	r7, sp, #0
 8001b9e:	60f8      	str	r0, [r7, #12]
 8001ba0:	60b9      	str	r1, [r7, #8]
 8001ba2:	1dfb      	adds	r3, r7, #7
 8001ba4:	701a      	strb	r2, [r3, #0]
 8001ba6:	1dfb      	adds	r3, r7, #7
 8001ba8:	781b      	ldrb	r3, [r3, #0]
 8001baa:	2b00      	cmp	r3, #0
 8001bac:	d002      	beq.n	8001bb4 <stm32__i2c__i2c_portIP+0x1c>
 8001bae:	4a08      	ldr	r2, [pc, #32]	; (8001bd0 <stm32__i2c__i2c_portIP+0x38>)
 8001bb0:	68fb      	ldr	r3, [r7, #12]
 8001bb2:	601a      	str	r2, [r3, #0]
 8001bb4:	68fb      	ldr	r3, [r7, #12]
 8001bb6:	68ba      	ldr	r2, [r7, #8]
 8001bb8:	605a      	str	r2, [r3, #4]
 8001bba:	68fb      	ldr	r3, [r7, #12]
 8001bbc:	3308      	adds	r3, #8
 8001bbe:	0018      	movs	r0, r3
 8001bc0:	f7ff ffdc 	bl	8001b7c <stm32__i2c__i2c_configurationIP>
 8001bc4:	68fb      	ldr	r3, [r7, #12]
 8001bc6:	2200      	movs	r2, #0
 8001bc8:	751a      	strb	r2, [r3, #20]
 8001bca:	46bd      	mov	sp, r7
 8001bcc:	b004      	add	sp, #16
 8001bce:	bd80      	pop	{r7, pc}
 8001bd0:	08009934 	.word	0x08009934

08001bd4 <stm32__i2c___size__2>:
 8001bd4:	b590      	push	{r4, r7, lr}
 8001bd6:	b083      	sub	sp, #12
 8001bd8:	af00      	add	r7, sp, #0
 8001bda:	6078      	str	r0, [r7, #4]
 8001bdc:	23c0      	movs	r3, #192	; 0xc0
 8001bde:	2400      	movs	r4, #0
 8001be0:	0018      	movs	r0, r3
 8001be2:	0021      	movs	r1, r4
 8001be4:	46bd      	mov	sp, r7
 8001be6:	b003      	add	sp, #12
 8001be8:	bd90      	pop	{r4, r7, pc}
 8001bea:	46c0      	nop			; (mov r8, r8)

08001bec <stm32__i2c__Oeq>:
 8001bec:	b580      	push	{r7, lr}
 8001bee:	b082      	sub	sp, #8
 8001bf0:	af00      	add	r7, sp, #0
 8001bf2:	6078      	str	r0, [r7, #4]
 8001bf4:	6039      	str	r1, [r7, #0]
 8001bf6:	687b      	ldr	r3, [r7, #4]
 8001bf8:	685a      	ldr	r2, [r3, #4]
 8001bfa:	683b      	ldr	r3, [r7, #0]
 8001bfc:	685b      	ldr	r3, [r3, #4]
 8001bfe:	429a      	cmp	r2, r3
 8001c00:	d12f      	bne.n	8001c62 <stm32__i2c__Oeq+0x76>
 8001c02:	687b      	ldr	r3, [r7, #4]
 8001c04:	689a      	ldr	r2, [r3, #8]
 8001c06:	683b      	ldr	r3, [r7, #0]
 8001c08:	689b      	ldr	r3, [r3, #8]
 8001c0a:	429a      	cmp	r2, r3
 8001c0c:	d129      	bne.n	8001c62 <stm32__i2c__Oeq+0x76>
 8001c0e:	687b      	ldr	r3, [r7, #4]
 8001c10:	7b1a      	ldrb	r2, [r3, #12]
 8001c12:	683b      	ldr	r3, [r7, #0]
 8001c14:	7b1b      	ldrb	r3, [r3, #12]
 8001c16:	429a      	cmp	r2, r3
 8001c18:	d123      	bne.n	8001c62 <stm32__i2c__Oeq+0x76>
 8001c1a:	687b      	ldr	r3, [r7, #4]
 8001c1c:	89da      	ldrh	r2, [r3, #14]
 8001c1e:	683b      	ldr	r3, [r7, #0]
 8001c20:	89db      	ldrh	r3, [r3, #14]
 8001c22:	429a      	cmp	r2, r3
 8001c24:	d11d      	bne.n	8001c62 <stm32__i2c__Oeq+0x76>
 8001c26:	687b      	ldr	r3, [r7, #4]
 8001c28:	7c1b      	ldrb	r3, [r3, #16]
 8001c2a:	2201      	movs	r2, #1
 8001c2c:	4053      	eors	r3, r2
 8001c2e:	b2da      	uxtb	r2, r3
 8001c30:	683b      	ldr	r3, [r7, #0]
 8001c32:	7c1b      	ldrb	r3, [r3, #16]
 8001c34:	4053      	eors	r3, r2
 8001c36:	b2db      	uxtb	r3, r3
 8001c38:	2b00      	cmp	r3, #0
 8001c3a:	d012      	beq.n	8001c62 <stm32__i2c__Oeq+0x76>
 8001c3c:	687b      	ldr	r3, [r7, #4]
 8001c3e:	7c5b      	ldrb	r3, [r3, #17]
 8001c40:	2201      	movs	r2, #1
 8001c42:	4053      	eors	r3, r2
 8001c44:	b2da      	uxtb	r2, r3
 8001c46:	683b      	ldr	r3, [r7, #0]
 8001c48:	7c5b      	ldrb	r3, [r3, #17]
 8001c4a:	4053      	eors	r3, r2
 8001c4c:	b2db      	uxtb	r3, r3
 8001c4e:	2b00      	cmp	r3, #0
 8001c50:	d007      	beq.n	8001c62 <stm32__i2c__Oeq+0x76>
 8001c52:	687b      	ldr	r3, [r7, #4]
 8001c54:	7d1a      	ldrb	r2, [r3, #20]
 8001c56:	683b      	ldr	r3, [r7, #0]
 8001c58:	7d1b      	ldrb	r3, [r3, #20]
 8001c5a:	429a      	cmp	r2, r3
 8001c5c:	d101      	bne.n	8001c62 <stm32__i2c__Oeq+0x76>
 8001c5e:	2301      	movs	r3, #1
 8001c60:	e000      	b.n	8001c64 <stm32__i2c__Oeq+0x78>
 8001c62:	2300      	movs	r3, #0
 8001c64:	0018      	movs	r0, r3
 8001c66:	46bd      	mov	sp, r7
 8001c68:	b002      	add	sp, #8
 8001c6a:	bd80      	pop	{r7, pc}

08001c6c <stm32__i2c___assign>:
 8001c6c:	b5b0      	push	{r4, r5, r7, lr}
 8001c6e:	b082      	sub	sp, #8
 8001c70:	af00      	add	r7, sp, #0
 8001c72:	6078      	str	r0, [r7, #4]
 8001c74:	6039      	str	r1, [r7, #0]
 8001c76:	687b      	ldr	r3, [r7, #4]
 8001c78:	685a      	ldr	r2, [r3, #4]
 8001c7a:	683b      	ldr	r3, [r7, #0]
 8001c7c:	685b      	ldr	r3, [r3, #4]
 8001c7e:	429a      	cmp	r2, r3
 8001c80:	d004      	beq.n	8001c8c <stm32__i2c___assign+0x20>
 8001c82:	4b09      	ldr	r3, [pc, #36]	; (8001ca8 <stm32__i2c___assign+0x3c>)
 8001c84:	218f      	movs	r1, #143	; 0x8f
 8001c86:	0018      	movs	r0, r3
 8001c88:	f006 fd36 	bl	80086f8 <__gnat_last_chance_handler>
 8001c8c:	687b      	ldr	r3, [r7, #4]
 8001c8e:	6819      	ldr	r1, [r3, #0]
 8001c90:	687b      	ldr	r3, [r7, #4]
 8001c92:	683a      	ldr	r2, [r7, #0]
 8001c94:	ca31      	ldmia	r2!, {r0, r4, r5}
 8001c96:	c331      	stmia	r3!, {r0, r4, r5}
 8001c98:	ca31      	ldmia	r2!, {r0, r4, r5}
 8001c9a:	c331      	stmia	r3!, {r0, r4, r5}
 8001c9c:	687b      	ldr	r3, [r7, #4]
 8001c9e:	6019      	str	r1, [r3, #0]
 8001ca0:	46bd      	mov	sp, r7
 8001ca2:	b002      	add	sp, #8
 8001ca4:	bdb0      	pop	{r4, r5, r7, pc}
 8001ca6:	46c0      	nop			; (mov r8, r8)
 8001ca8:	08009768 	.word	0x08009768

08001cac <stm32__i2c__port_enabled>:
 8001cac:	b580      	push	{r7, lr}
 8001cae:	b082      	sub	sp, #8
 8001cb0:	af00      	add	r7, sp, #0
 8001cb2:	6078      	str	r0, [r7, #4]
 8001cb4:	687b      	ldr	r3, [r7, #4]
 8001cb6:	685b      	ldr	r3, [r3, #4]
 8001cb8:	681b      	ldr	r3, [r3, #0]
 8001cba:	07db      	lsls	r3, r3, #31
 8001cbc:	0fdb      	lsrs	r3, r3, #31
 8001cbe:	b2db      	uxtb	r3, r3
 8001cc0:	46c0      	nop			; (mov r8, r8)
 8001cc2:	0018      	movs	r0, r3
 8001cc4:	46bd      	mov	sp, r7
 8001cc6:	b002      	add	sp, #8
 8001cc8:	bd80      	pop	{r7, pc}
 8001cca:	46c0      	nop			; (mov r8, r8)

08001ccc <stm32__i2c__configure___postconditions.5023>:
 8001ccc:	b5b0      	push	{r4, r5, r7, lr}
 8001cce:	b082      	sub	sp, #8
 8001cd0:	af00      	add	r7, sp, #0
 8001cd2:	4663      	mov	r3, ip
 8001cd4:	4662      	mov	r2, ip
 8001cd6:	607a      	str	r2, [r7, #4]
 8001cd8:	681b      	ldr	r3, [r3, #0]
 8001cda:	0018      	movs	r0, r3
 8001cdc:	f000 f9c4 	bl	8002068 <stm32__i2c__is_configured>
 8001ce0:	0003      	movs	r3, r0
 8001ce2:	001a      	movs	r2, r3
 8001ce4:	2301      	movs	r3, #1
 8001ce6:	4053      	eors	r3, r2
 8001ce8:	b2db      	uxtb	r3, r3
 8001cea:	2b00      	cmp	r3, #0
 8001cec:	d007      	beq.n	8001cfe <stm32__i2c__configure___postconditions.5023+0x32>
 8001cee:	4b05      	ldr	r3, [pc, #20]	; (8001d04 <stm32__i2c__configure___postconditions.5023+0x38>)
 8001cf0:	001c      	movs	r4, r3
 8001cf2:	4b05      	ldr	r3, [pc, #20]	; (8001d08 <stm32__i2c__configure___postconditions.5023+0x3c>)
 8001cf4:	001d      	movs	r5, r3
 8001cf6:	0020      	movs	r0, r4
 8001cf8:	0029      	movs	r1, r5
 8001cfa:	f006 ff4b 	bl	8008b94 <system__assertions__raise_assert_failure>
 8001cfe:	46bd      	mov	sp, r7
 8001d00:	b002      	add	sp, #8
 8001d02:	bdb0      	pop	{r4, r5, r7, pc}
 8001d04:	08009778 	.word	0x08009778
 8001d08:	080097a4 	.word	0x080097a4

08001d0c <stm32__i2c__configure>:
 8001d0c:	b5b0      	push	{r4, r5, r7, lr}
 8001d0e:	b088      	sub	sp, #32
 8001d10:	af00      	add	r7, sp, #0
 8001d12:	6078      	str	r0, [r7, #4]
 8001d14:	6039      	str	r1, [r7, #0]
 8001d16:	2330      	movs	r3, #48	; 0x30
 8001d18:	18fa      	adds	r2, r7, r3
 8001d1a:	2108      	movs	r1, #8
 8001d1c:	187b      	adds	r3, r7, r1
 8001d1e:	605a      	str	r2, [r3, #4]
 8001d20:	187b      	adds	r3, r7, r1
 8001d22:	687a      	ldr	r2, [r7, #4]
 8001d24:	601a      	str	r2, [r3, #0]
 8001d26:	187b      	adds	r3, r7, r1
 8001d28:	681b      	ldr	r3, [r3, #0]
 8001d2a:	0018      	movs	r0, r3
 8001d2c:	f000 f99c 	bl	8002068 <stm32__i2c__is_configured>
 8001d30:	1e03      	subs	r3, r0, #0
 8001d32:	d007      	beq.n	8001d44 <stm32__i2c__configure+0x38>
 8001d34:	4bb6      	ldr	r3, [pc, #728]	; (8002010 <stm32__i2c__configure+0x304>)
 8001d36:	001c      	movs	r4, r3
 8001d38:	4bb6      	ldr	r3, [pc, #728]	; (8002014 <stm32__i2c__configure+0x308>)
 8001d3a:	001d      	movs	r5, r3
 8001d3c:	0020      	movs	r0, r4
 8001d3e:	0029      	movs	r1, r5
 8001d40:	f006 ff28 	bl	8008b94 <system__assertions__raise_assert_failure>
 8001d44:	2308      	movs	r3, #8
 8001d46:	18fb      	adds	r3, r7, r3
 8001d48:	681b      	ldr	r3, [r3, #0]
 8001d4a:	7d1b      	ldrb	r3, [r3, #20]
 8001d4c:	2b00      	cmp	r3, #0
 8001d4e:	d005      	beq.n	8001d5c <stm32__i2c__configure+0x50>
 8001d50:	2308      	movs	r3, #8
 8001d52:	18fb      	adds	r3, r7, r3
 8001d54:	469c      	mov	ip, r3
 8001d56:	f7ff ffb9 	bl	8001ccc <stm32__i2c__configure___postconditions.5023>
 8001d5a:	e156      	b.n	800200a <stm32__i2c__configure+0x2fe>
 8001d5c:	2108      	movs	r1, #8
 8001d5e:	187b      	adds	r3, r7, r1
 8001d60:	681b      	ldr	r3, [r3, #0]
 8001d62:	683a      	ldr	r2, [r7, #0]
 8001d64:	3308      	adds	r3, #8
 8001d66:	ca31      	ldmia	r2!, {r0, r4, r5}
 8001d68:	c331      	stmia	r3!, {r0, r4, r5}
 8001d6a:	187b      	adds	r3, r7, r1
 8001d6c:	681b      	ldr	r3, [r3, #0]
 8001d6e:	685b      	ldr	r3, [r3, #4]
 8001d70:	681b      	ldr	r3, [r3, #0]
 8001d72:	001a      	movs	r2, r3
 8001d74:	2301      	movs	r3, #1
 8001d76:	439a      	bics	r2, r3
 8001d78:	0013      	movs	r3, r2
 8001d7a:	001a      	movs	r2, r3
 8001d7c:	187b      	adds	r3, r7, r1
 8001d7e:	681b      	ldr	r3, [r3, #0]
 8001d80:	685b      	ldr	r3, [r3, #4]
 8001d82:	601a      	str	r2, [r3, #0]
 8001d84:	69fb      	ldr	r3, [r7, #28]
 8001d86:	22ff      	movs	r2, #255	; 0xff
 8001d88:	4393      	bics	r3, r2
 8001d8a:	2232      	movs	r2, #50	; 0x32
 8001d8c:	4313      	orrs	r3, r2
 8001d8e:	61fb      	str	r3, [r7, #28]
 8001d90:	69fb      	ldr	r3, [r7, #28]
 8001d92:	4aa1      	ldr	r2, [pc, #644]	; (8002018 <stm32__i2c__configure+0x30c>)
 8001d94:	4013      	ands	r3, r2
 8001d96:	229c      	movs	r2, #156	; 0x9c
 8001d98:	0192      	lsls	r2, r2, #6
 8001d9a:	4313      	orrs	r3, r2
 8001d9c:	61fb      	str	r3, [r7, #28]
 8001d9e:	69fb      	ldr	r3, [r7, #28]
 8001da0:	4a9e      	ldr	r2, [pc, #632]	; (800201c <stm32__i2c__configure+0x310>)
 8001da2:	4013      	ands	r3, r2
 8001da4:	2280      	movs	r2, #128	; 0x80
 8001da6:	0252      	lsls	r2, r2, #9
 8001da8:	4313      	orrs	r3, r2
 8001daa:	61fb      	str	r3, [r7, #28]
 8001dac:	69fb      	ldr	r3, [r7, #28]
 8001dae:	4a9c      	ldr	r2, [pc, #624]	; (8002020 <stm32__i2c__configure+0x314>)
 8001db0:	4013      	ands	r3, r2
 8001db2:	2290      	movs	r2, #144	; 0x90
 8001db4:	0412      	lsls	r2, r2, #16
 8001db6:	4313      	orrs	r3, r2
 8001db8:	61fb      	str	r3, [r7, #28]
 8001dba:	69fb      	ldr	r3, [r7, #28]
 8001dbc:	4a99      	ldr	r2, [pc, #612]	; (8002024 <stm32__i2c__configure+0x318>)
 8001dbe:	4013      	ands	r3, r2
 8001dc0:	61fb      	str	r3, [r7, #28]
 8001dc2:	69fb      	ldr	r3, [r7, #28]
 8001dc4:	011b      	lsls	r3, r3, #4
 8001dc6:	091b      	lsrs	r3, r3, #4
 8001dc8:	2280      	movs	r2, #128	; 0x80
 8001dca:	05d2      	lsls	r2, r2, #23
 8001dcc:	4313      	orrs	r3, r2
 8001dce:	61fb      	str	r3, [r7, #28]
 8001dd0:	187b      	adds	r3, r7, r1
 8001dd2:	681b      	ldr	r3, [r3, #0]
 8001dd4:	685b      	ldr	r3, [r3, #4]
 8001dd6:	3310      	adds	r3, #16
 8001dd8:	69fa      	ldr	r2, [r7, #28]
 8001dda:	601a      	str	r2, [r3, #0]
 8001ddc:	187b      	adds	r3, r7, r1
 8001dde:	681b      	ldr	r3, [r3, #0]
 8001de0:	685b      	ldr	r3, [r3, #4]
 8001de2:	3308      	adds	r3, #8
 8001de4:	681b      	ldr	r3, [r3, #0]
 8001de6:	001a      	movs	r2, r3
 8001de8:	4b8f      	ldr	r3, [pc, #572]	; (8002028 <stm32__i2c__configure+0x31c>)
 8001dea:	4013      	ands	r3, r2
 8001dec:	001a      	movs	r2, r3
 8001dee:	187b      	adds	r3, r7, r1
 8001df0:	681b      	ldr	r3, [r3, #0]
 8001df2:	685b      	ldr	r3, [r3, #4]
 8001df4:	3308      	adds	r3, #8
 8001df6:	601a      	str	r2, [r3, #0]
 8001df8:	683b      	ldr	r3, [r7, #0]
 8001dfa:	88db      	ldrh	r3, [r3, #6]
 8001dfc:	2b00      	cmp	r3, #0
 8001dfe:	d031      	beq.n	8001e64 <stm32__i2c__configure+0x158>
 8001e00:	683b      	ldr	r3, [r7, #0]
 8001e02:	88da      	ldrh	r2, [r3, #6]
 8001e04:	69bb      	ldr	r3, [r7, #24]
 8001e06:	0592      	lsls	r2, r2, #22
 8001e08:	0d92      	lsrs	r2, r2, #22
 8001e0a:	b292      	uxth	r2, r2
 8001e0c:	0592      	lsls	r2, r2, #22
 8001e0e:	0d92      	lsrs	r2, r2, #22
 8001e10:	0a9b      	lsrs	r3, r3, #10
 8001e12:	029b      	lsls	r3, r3, #10
 8001e14:	4313      	orrs	r3, r2
 8001e16:	61bb      	str	r3, [r7, #24]
 8001e18:	683b      	ldr	r3, [r7, #0]
 8001e1a:	791b      	ldrb	r3, [r3, #4]
 8001e1c:	3b01      	subs	r3, #1
 8001e1e:	425a      	negs	r2, r3
 8001e20:	4153      	adcs	r3, r2
 8001e22:	b2da      	uxtb	r2, r3
 8001e24:	69bb      	ldr	r3, [r7, #24]
 8001e26:	1c11      	adds	r1, r2, #0
 8001e28:	2201      	movs	r2, #1
 8001e2a:	400a      	ands	r2, r1
 8001e2c:	b2d2      	uxtb	r2, r2
 8001e2e:	2101      	movs	r1, #1
 8001e30:	400a      	ands	r2, r1
 8001e32:	0292      	lsls	r2, r2, #10
 8001e34:	497d      	ldr	r1, [pc, #500]	; (800202c <stm32__i2c__configure+0x320>)
 8001e36:	400b      	ands	r3, r1
 8001e38:	4313      	orrs	r3, r2
 8001e3a:	61bb      	str	r3, [r7, #24]
 8001e3c:	69bb      	ldr	r3, [r7, #24]
 8001e3e:	4a7c      	ldr	r2, [pc, #496]	; (8002030 <stm32__i2c__configure+0x324>)
 8001e40:	4013      	ands	r3, r2
 8001e42:	61bb      	str	r3, [r7, #24]
 8001e44:	69bb      	ldr	r3, [r7, #24]
 8001e46:	2280      	movs	r2, #128	; 0x80
 8001e48:	0212      	lsls	r2, r2, #8
 8001e4a:	4313      	orrs	r3, r2
 8001e4c:	61bb      	str	r3, [r7, #24]
 8001e4e:	69bb      	ldr	r3, [r7, #24]
 8001e50:	041b      	lsls	r3, r3, #16
 8001e52:	0c1b      	lsrs	r3, r3, #16
 8001e54:	61bb      	str	r3, [r7, #24]
 8001e56:	2308      	movs	r3, #8
 8001e58:	18fb      	adds	r3, r7, r3
 8001e5a:	681b      	ldr	r3, [r3, #0]
 8001e5c:	685b      	ldr	r3, [r3, #4]
 8001e5e:	3308      	adds	r3, #8
 8001e60:	69ba      	ldr	r2, [r7, #24]
 8001e62:	601a      	str	r2, [r3, #0]
 8001e64:	683b      	ldr	r3, [r7, #0]
 8001e66:	791b      	ldrb	r3, [r3, #4]
 8001e68:	3b01      	subs	r3, #1
 8001e6a:	425a      	negs	r2, r3
 8001e6c:	4153      	adcs	r3, r2
 8001e6e:	b2d9      	uxtb	r1, r3
 8001e70:	2008      	movs	r0, #8
 8001e72:	183b      	adds	r3, r7, r0
 8001e74:	681b      	ldr	r3, [r3, #0]
 8001e76:	685b      	ldr	r3, [r3, #4]
 8001e78:	3304      	adds	r3, #4
 8001e7a:	681b      	ldr	r3, [r3, #0]
 8001e7c:	001a      	movs	r2, r3
 8001e7e:	2301      	movs	r3, #1
 8001e80:	400b      	ands	r3, r1
 8001e82:	b2db      	uxtb	r3, r3
 8001e84:	2101      	movs	r1, #1
 8001e86:	400b      	ands	r3, r1
 8001e88:	02db      	lsls	r3, r3, #11
 8001e8a:	496a      	ldr	r1, [pc, #424]	; (8002034 <stm32__i2c__configure+0x328>)
 8001e8c:	400a      	ands	r2, r1
 8001e8e:	4313      	orrs	r3, r2
 8001e90:	001a      	movs	r2, r3
 8001e92:	183b      	adds	r3, r7, r0
 8001e94:	681b      	ldr	r3, [r3, #0]
 8001e96:	685b      	ldr	r3, [r3, #4]
 8001e98:	3304      	adds	r3, #4
 8001e9a:	601a      	str	r2, [r3, #0]
 8001e9c:	183b      	adds	r3, r7, r0
 8001e9e:	681b      	ldr	r3, [r3, #0]
 8001ea0:	685b      	ldr	r3, [r3, #4]
 8001ea2:	3304      	adds	r3, #4
 8001ea4:	681b      	ldr	r3, [r3, #0]
 8001ea6:	001a      	movs	r2, r3
 8001ea8:	2380      	movs	r3, #128	; 0x80
 8001eaa:	049b      	lsls	r3, r3, #18
 8001eac:	4313      	orrs	r3, r2
 8001eae:	001a      	movs	r2, r3
 8001eb0:	183b      	adds	r3, r7, r0
 8001eb2:	681b      	ldr	r3, [r3, #0]
 8001eb4:	685b      	ldr	r3, [r3, #4]
 8001eb6:	3304      	adds	r3, #4
 8001eb8:	601a      	str	r2, [r3, #0]
 8001eba:	183b      	adds	r3, r7, r0
 8001ebc:	681b      	ldr	r3, [r3, #0]
 8001ebe:	685b      	ldr	r3, [r3, #4]
 8001ec0:	3304      	adds	r3, #4
 8001ec2:	681b      	ldr	r3, [r3, #0]
 8001ec4:	001a      	movs	r2, r3
 8001ec6:	2380      	movs	r3, #128	; 0x80
 8001ec8:	021b      	lsls	r3, r3, #8
 8001eca:	4313      	orrs	r3, r2
 8001ecc:	001a      	movs	r2, r3
 8001ece:	183b      	adds	r3, r7, r0
 8001ed0:	681b      	ldr	r3, [r3, #0]
 8001ed2:	685b      	ldr	r3, [r3, #4]
 8001ed4:	3304      	adds	r3, #4
 8001ed6:	601a      	str	r2, [r3, #0]
 8001ed8:	697b      	ldr	r3, [r7, #20]
 8001eda:	2201      	movs	r2, #1
 8001edc:	4393      	bics	r3, r2
 8001ede:	617b      	str	r3, [r7, #20]
 8001ee0:	697b      	ldr	r3, [r7, #20]
 8001ee2:	22fe      	movs	r2, #254	; 0xfe
 8001ee4:	4393      	bics	r3, r2
 8001ee6:	617b      	str	r3, [r7, #20]
 8001ee8:	697b      	ldr	r3, [r7, #20]
 8001eea:	4a53      	ldr	r2, [pc, #332]	; (8002038 <stm32__i2c__configure+0x32c>)
 8001eec:	4013      	ands	r3, r2
 8001eee:	617b      	str	r3, [r7, #20]
 8001ef0:	697b      	ldr	r3, [r7, #20]
 8001ef2:	4a4f      	ldr	r2, [pc, #316]	; (8002030 <stm32__i2c__configure+0x324>)
 8001ef4:	4013      	ands	r3, r2
 8001ef6:	617b      	str	r3, [r7, #20]
 8001ef8:	697b      	ldr	r3, [r7, #20]
 8001efa:	4a4b      	ldr	r2, [pc, #300]	; (8002028 <stm32__i2c__configure+0x31c>)
 8001efc:	4013      	ands	r3, r2
 8001efe:	617b      	str	r3, [r7, #20]
 8001f00:	697b      	ldr	r3, [r7, #20]
 8001f02:	041b      	lsls	r3, r3, #16
 8001f04:	0c1b      	lsrs	r3, r3, #16
 8001f06:	617b      	str	r3, [r7, #20]
 8001f08:	183b      	adds	r3, r7, r0
 8001f0a:	681b      	ldr	r3, [r3, #0]
 8001f0c:	685b      	ldr	r3, [r3, #4]
 8001f0e:	330c      	adds	r3, #12
 8001f10:	697a      	ldr	r2, [r7, #20]
 8001f12:	601a      	str	r2, [r3, #0]
 8001f14:	693b      	ldr	r3, [r7, #16]
 8001f16:	2201      	movs	r2, #1
 8001f18:	4393      	bics	r3, r2
 8001f1a:	613b      	str	r3, [r7, #16]
 8001f1c:	693b      	ldr	r3, [r7, #16]
 8001f1e:	2202      	movs	r2, #2
 8001f20:	4393      	bics	r3, r2
 8001f22:	613b      	str	r3, [r7, #16]
 8001f24:	693b      	ldr	r3, [r7, #16]
 8001f26:	2204      	movs	r2, #4
 8001f28:	4393      	bics	r3, r2
 8001f2a:	613b      	str	r3, [r7, #16]
 8001f2c:	693b      	ldr	r3, [r7, #16]
 8001f2e:	2208      	movs	r2, #8
 8001f30:	4393      	bics	r3, r2
 8001f32:	613b      	str	r3, [r7, #16]
 8001f34:	693b      	ldr	r3, [r7, #16]
 8001f36:	2210      	movs	r2, #16
 8001f38:	4393      	bics	r3, r2
 8001f3a:	613b      	str	r3, [r7, #16]
 8001f3c:	693b      	ldr	r3, [r7, #16]
 8001f3e:	2220      	movs	r2, #32
 8001f40:	4393      	bics	r3, r2
 8001f42:	613b      	str	r3, [r7, #16]
 8001f44:	693b      	ldr	r3, [r7, #16]
 8001f46:	2240      	movs	r2, #64	; 0x40
 8001f48:	4393      	bics	r3, r2
 8001f4a:	613b      	str	r3, [r7, #16]
 8001f4c:	693b      	ldr	r3, [r7, #16]
 8001f4e:	2280      	movs	r2, #128	; 0x80
 8001f50:	4393      	bics	r3, r2
 8001f52:	613b      	str	r3, [r7, #16]
 8001f54:	693b      	ldr	r3, [r7, #16]
 8001f56:	4a39      	ldr	r2, [pc, #228]	; (800203c <stm32__i2c__configure+0x330>)
 8001f58:	4013      	ands	r3, r2
 8001f5a:	613b      	str	r3, [r7, #16]
 8001f5c:	693b      	ldr	r3, [r7, #16]
 8001f5e:	4a38      	ldr	r2, [pc, #224]	; (8002040 <stm32__i2c__configure+0x334>)
 8001f60:	4013      	ands	r3, r2
 8001f62:	613b      	str	r3, [r7, #16]
 8001f64:	693b      	ldr	r3, [r7, #16]
 8001f66:	4a37      	ldr	r2, [pc, #220]	; (8002044 <stm32__i2c__configure+0x338>)
 8001f68:	4013      	ands	r3, r2
 8001f6a:	613b      	str	r3, [r7, #16]
 8001f6c:	693b      	ldr	r3, [r7, #16]
 8001f6e:	4a36      	ldr	r2, [pc, #216]	; (8002048 <stm32__i2c__configure+0x33c>)
 8001f70:	4013      	ands	r3, r2
 8001f72:	613b      	str	r3, [r7, #16]
 8001f74:	693b      	ldr	r3, [r7, #16]
 8001f76:	4a2c      	ldr	r2, [pc, #176]	; (8002028 <stm32__i2c__configure+0x31c>)
 8001f78:	4013      	ands	r3, r2
 8001f7a:	613b      	str	r3, [r7, #16]
 8001f7c:	693b      	ldr	r3, [r7, #16]
 8001f7e:	4a33      	ldr	r2, [pc, #204]	; (800204c <stm32__i2c__configure+0x340>)
 8001f80:	4013      	ands	r3, r2
 8001f82:	613b      	str	r3, [r7, #16]
 8001f84:	693b      	ldr	r3, [r7, #16]
 8001f86:	4a32      	ldr	r2, [pc, #200]	; (8002050 <stm32__i2c__configure+0x344>)
 8001f88:	4013      	ands	r3, r2
 8001f8a:	613b      	str	r3, [r7, #16]
 8001f8c:	693b      	ldr	r3, [r7, #16]
 8001f8e:	4a31      	ldr	r2, [pc, #196]	; (8002054 <stm32__i2c__configure+0x348>)
 8001f90:	4013      	ands	r3, r2
 8001f92:	613b      	str	r3, [r7, #16]
 8001f94:	683b      	ldr	r3, [r7, #0]
 8001f96:	7a1a      	ldrb	r2, [r3, #8]
 8001f98:	693b      	ldr	r3, [r7, #16]
 8001f9a:	1c11      	adds	r1, r2, #0
 8001f9c:	2201      	movs	r2, #1
 8001f9e:	400a      	ands	r2, r1
 8001fa0:	b2d2      	uxtb	r2, r2
 8001fa2:	2101      	movs	r1, #1
 8001fa4:	400a      	ands	r2, r1
 8001fa6:	04d2      	lsls	r2, r2, #19
 8001fa8:	492b      	ldr	r1, [pc, #172]	; (8002058 <stm32__i2c__configure+0x34c>)
 8001faa:	400b      	ands	r3, r1
 8001fac:	4313      	orrs	r3, r2
 8001fae:	613b      	str	r3, [r7, #16]
 8001fb0:	693b      	ldr	r3, [r7, #16]
 8001fb2:	4a1b      	ldr	r2, [pc, #108]	; (8002020 <stm32__i2c__configure+0x314>)
 8001fb4:	4013      	ands	r3, r2
 8001fb6:	613b      	str	r3, [r7, #16]
 8001fb8:	693b      	ldr	r3, [r7, #16]
 8001fba:	4a28      	ldr	r2, [pc, #160]	; (800205c <stm32__i2c__configure+0x350>)
 8001fbc:	4013      	ands	r3, r2
 8001fbe:	613b      	str	r3, [r7, #16]
 8001fc0:	693b      	ldr	r3, [r7, #16]
 8001fc2:	4a27      	ldr	r2, [pc, #156]	; (8002060 <stm32__i2c__configure+0x354>)
 8001fc4:	4013      	ands	r3, r2
 8001fc6:	613b      	str	r3, [r7, #16]
 8001fc8:	693b      	ldr	r3, [r7, #16]
 8001fca:	4a26      	ldr	r2, [pc, #152]	; (8002064 <stm32__i2c__configure+0x358>)
 8001fcc:	4013      	ands	r3, r2
 8001fce:	613b      	str	r3, [r7, #16]
 8001fd0:	693b      	ldr	r3, [r7, #16]
 8001fd2:	005b      	lsls	r3, r3, #1
 8001fd4:	085b      	lsrs	r3, r3, #1
 8001fd6:	613b      	str	r3, [r7, #16]
 8001fd8:	183b      	adds	r3, r7, r0
 8001fda:	681b      	ldr	r3, [r3, #0]
 8001fdc:	685b      	ldr	r3, [r3, #4]
 8001fde:	693a      	ldr	r2, [r7, #16]
 8001fe0:	601a      	str	r2, [r3, #0]
 8001fe2:	183b      	adds	r3, r7, r0
 8001fe4:	681b      	ldr	r3, [r3, #0]
 8001fe6:	2201      	movs	r2, #1
 8001fe8:	751a      	strb	r2, [r3, #20]
 8001fea:	183b      	adds	r3, r7, r0
 8001fec:	681b      	ldr	r3, [r3, #0]
 8001fee:	685b      	ldr	r3, [r3, #4]
 8001ff0:	681b      	ldr	r3, [r3, #0]
 8001ff2:	001a      	movs	r2, r3
 8001ff4:	2301      	movs	r3, #1
 8001ff6:	4313      	orrs	r3, r2
 8001ff8:	001a      	movs	r2, r3
 8001ffa:	183b      	adds	r3, r7, r0
 8001ffc:	681b      	ldr	r3, [r3, #0]
 8001ffe:	685b      	ldr	r3, [r3, #4]
 8002000:	601a      	str	r2, [r3, #0]
 8002002:	183b      	adds	r3, r7, r0
 8002004:	469c      	mov	ip, r3
 8002006:	f7ff fe61 	bl	8001ccc <stm32__i2c__configure___postconditions.5023>
 800200a:	46bd      	mov	sp, r7
 800200c:	b008      	add	sp, #32
 800200e:	bdb0      	pop	{r4, r5, r7, pc}
 8002010:	080097ac 	.word	0x080097ac
 8002014:	080097d8 	.word	0x080097d8
 8002018:	ffff00ff 	.word	0xffff00ff
 800201c:	fff0ffff 	.word	0xfff0ffff
 8002020:	ff0fffff 	.word	0xff0fffff
 8002024:	f0ffffff 	.word	0xf0ffffff
 8002028:	ffff7fff 	.word	0xffff7fff
 800202c:	fffffbff 	.word	0xfffffbff
 8002030:	ffff87ff 	.word	0xffff87ff
 8002034:	fffff7ff 	.word	0xfffff7ff
 8002038:	fffff8ff 	.word	0xfffff8ff
 800203c:	fffff0ff 	.word	0xfffff0ff
 8002040:	ffffefff 	.word	0xffffefff
 8002044:	ffffdfff 	.word	0xffffdfff
 8002048:	ffffbfff 	.word	0xffffbfff
 800204c:	fffeffff 	.word	0xfffeffff
 8002050:	fffdffff 	.word	0xfffdffff
 8002054:	fffbffff 	.word	0xfffbffff
 8002058:	fff7ffff 	.word	0xfff7ffff
 800205c:	feffffff 	.word	0xfeffffff
 8002060:	c1ffffff 	.word	0xc1ffffff
 8002064:	bfffffff 	.word	0xbfffffff

08002068 <stm32__i2c__is_configured>:
 8002068:	b580      	push	{r7, lr}
 800206a:	b082      	sub	sp, #8
 800206c:	af00      	add	r7, sp, #0
 800206e:	6078      	str	r0, [r7, #4]
 8002070:	687b      	ldr	r3, [r7, #4]
 8002072:	7d1b      	ldrb	r3, [r3, #20]
 8002074:	1e5a      	subs	r2, r3, #1
 8002076:	4193      	sbcs	r3, r2
 8002078:	b2db      	uxtb	r3, r3
 800207a:	46c0      	nop			; (mov r8, r8)
 800207c:	0018      	movs	r0, r3
 800207e:	46bd      	mov	sp, r7
 8002080:	b002      	add	sp, #8
 8002082:	bd80      	pop	{r7, pc}

08002084 <stm32__i2c__config_transfer>:
 8002084:	b5b0      	push	{r4, r5, r7, lr}
 8002086:	b086      	sub	sp, #24
 8002088:	af00      	add	r7, sp, #0
 800208a:	60f8      	str	r0, [r7, #12]
 800208c:	000c      	movs	r4, r1
 800208e:	0010      	movs	r0, r2
 8002090:	0019      	movs	r1, r3
 8002092:	250a      	movs	r5, #10
 8002094:	197b      	adds	r3, r7, r5
 8002096:	1c22      	adds	r2, r4, #0
 8002098:	801a      	strh	r2, [r3, #0]
 800209a:	2409      	movs	r4, #9
 800209c:	193b      	adds	r3, r7, r4
 800209e:	1c02      	adds	r2, r0, #0
 80020a0:	701a      	strb	r2, [r3, #0]
 80020a2:	2008      	movs	r0, #8
 80020a4:	183b      	adds	r3, r7, r0
 80020a6:	1c0a      	adds	r2, r1, #0
 80020a8:	701a      	strb	r2, [r3, #0]
 80020aa:	68fb      	ldr	r3, [r7, #12]
 80020ac:	685b      	ldr	r3, [r3, #4]
 80020ae:	3304      	adds	r3, #4
 80020b0:	681a      	ldr	r2, [r3, #0]
 80020b2:	2314      	movs	r3, #20
 80020b4:	18fb      	adds	r3, r7, r3
 80020b6:	607a      	str	r2, [r7, #4]
 80020b8:	1d3a      	adds	r2, r7, #4
 80020ba:	6812      	ldr	r2, [r2, #0]
 80020bc:	601a      	str	r2, [r3, #0]
 80020be:	697b      	ldr	r3, [r7, #20]
 80020c0:	197a      	adds	r2, r7, r5
 80020c2:	8812      	ldrh	r2, [r2, #0]
 80020c4:	0592      	lsls	r2, r2, #22
 80020c6:	0d92      	lsrs	r2, r2, #22
 80020c8:	b292      	uxth	r2, r2
 80020ca:	0592      	lsls	r2, r2, #22
 80020cc:	0d92      	lsrs	r2, r2, #22
 80020ce:	0a9b      	lsrs	r3, r3, #10
 80020d0:	029b      	lsls	r3, r3, #10
 80020d2:	4313      	orrs	r3, r2
 80020d4:	617b      	str	r3, [r7, #20]
 80020d6:	697b      	ldr	r3, [r7, #20]
 80020d8:	193a      	adds	r2, r7, r4
 80020da:	7812      	ldrb	r2, [r2, #0]
 80020dc:	0412      	lsls	r2, r2, #16
 80020de:	4935      	ldr	r1, [pc, #212]	; (80021b4 <stm32__i2c__config_transfer+0x130>)
 80020e0:	400b      	ands	r3, r1
 80020e2:	4313      	orrs	r3, r2
 80020e4:	617b      	str	r3, [r7, #20]
 80020e6:	183b      	adds	r3, r7, r0
 80020e8:	781b      	ldrb	r3, [r3, #0]
 80020ea:	425a      	negs	r2, r3
 80020ec:	4153      	adcs	r3, r2
 80020ee:	b2da      	uxtb	r2, r3
 80020f0:	697b      	ldr	r3, [r7, #20]
 80020f2:	1c11      	adds	r1, r2, #0
 80020f4:	2201      	movs	r2, #1
 80020f6:	400a      	ands	r2, r1
 80020f8:	b2d2      	uxtb	r2, r2
 80020fa:	2101      	movs	r1, #1
 80020fc:	400a      	ands	r2, r1
 80020fe:	0612      	lsls	r2, r2, #24
 8002100:	492d      	ldr	r1, [pc, #180]	; (80021b8 <stm32__i2c__config_transfer+0x134>)
 8002102:	400b      	ands	r3, r1
 8002104:	4313      	orrs	r3, r2
 8002106:	617b      	str	r3, [r7, #20]
 8002108:	183b      	adds	r3, r7, r0
 800210a:	781b      	ldrb	r3, [r3, #0]
 800210c:	3b01      	subs	r3, #1
 800210e:	425a      	negs	r2, r3
 8002110:	4153      	adcs	r3, r2
 8002112:	b2da      	uxtb	r2, r3
 8002114:	697b      	ldr	r3, [r7, #20]
 8002116:	1c11      	adds	r1, r2, #0
 8002118:	2201      	movs	r2, #1
 800211a:	400a      	ands	r2, r1
 800211c:	b2d2      	uxtb	r2, r2
 800211e:	2101      	movs	r1, #1
 8002120:	400a      	ands	r2, r1
 8002122:	0652      	lsls	r2, r2, #25
 8002124:	4925      	ldr	r1, [pc, #148]	; (80021bc <stm32__i2c__config_transfer+0x138>)
 8002126:	400b      	ands	r3, r1
 8002128:	4313      	orrs	r3, r2
 800212a:	617b      	str	r3, [r7, #20]
 800212c:	697b      	ldr	r3, [r7, #20]
 800212e:	4a24      	ldr	r2, [pc, #144]	; (80021c0 <stm32__i2c__config_transfer+0x13c>)
 8002130:	4013      	ands	r3, r2
 8002132:	617b      	str	r3, [r7, #20]
 8002134:	697b      	ldr	r3, [r7, #20]
 8002136:	4a23      	ldr	r2, [pc, #140]	; (80021c4 <stm32__i2c__config_transfer+0x140>)
 8002138:	4013      	ands	r3, r2
 800213a:	617b      	str	r3, [r7, #20]
 800213c:	697b      	ldr	r3, [r7, #20]
 800213e:	4a22      	ldr	r2, [pc, #136]	; (80021c8 <stm32__i2c__config_transfer+0x144>)
 8002140:	4013      	ands	r3, r2
 8002142:	617b      	str	r3, [r7, #20]
 8002144:	2328      	movs	r3, #40	; 0x28
 8002146:	18fb      	adds	r3, r7, r3
 8002148:	781b      	ldrb	r3, [r3, #0]
 800214a:	2b03      	cmp	r3, #3
 800214c:	d904      	bls.n	8002158 <stm32__i2c__config_transfer+0xd4>
 800214e:	4b1f      	ldr	r3, [pc, #124]	; (80021cc <stm32__i2c__config_transfer+0x148>)
 8002150:	21b8      	movs	r1, #184	; 0xb8
 8002152:	0018      	movs	r0, r3
 8002154:	f006 fad0 	bl	80086f8 <__gnat_last_chance_handler>
 8002158:	2328      	movs	r3, #40	; 0x28
 800215a:	18fb      	adds	r3, r7, r3
 800215c:	781b      	ldrb	r3, [r3, #0]
 800215e:	b2da      	uxtb	r2, r3
 8002160:	2a01      	cmp	r2, #1
 8002162:	d008      	beq.n	8002176 <stm32__i2c__config_transfer+0xf2>
 8002164:	b2da      	uxtb	r2, r3
 8002166:	2a01      	cmp	r2, #1
 8002168:	d303      	bcc.n	8002172 <stm32__i2c__config_transfer+0xee>
 800216a:	b2db      	uxtb	r3, r3
 800216c:	2b02      	cmp	r3, #2
 800216e:	d008      	beq.n	8002182 <stm32__i2c__config_transfer+0xfe>
 8002170:	e012      	b.n	8002198 <stm32__i2c__config_transfer+0x114>
 8002172:	46c0      	nop			; (mov r8, r8)
 8002174:	e015      	b.n	80021a2 <stm32__i2c__config_transfer+0x11e>
 8002176:	697b      	ldr	r3, [r7, #20]
 8002178:	2280      	movs	r2, #128	; 0x80
 800217a:	01d2      	lsls	r2, r2, #7
 800217c:	4313      	orrs	r3, r2
 800217e:	617b      	str	r3, [r7, #20]
 8002180:	e00f      	b.n	80021a2 <stm32__i2c__config_transfer+0x11e>
 8002182:	697b      	ldr	r3, [r7, #20]
 8002184:	2280      	movs	r2, #128	; 0x80
 8002186:	00d2      	lsls	r2, r2, #3
 8002188:	4313      	orrs	r3, r2
 800218a:	617b      	str	r3, [r7, #20]
 800218c:	697b      	ldr	r3, [r7, #20]
 800218e:	2280      	movs	r2, #128	; 0x80
 8002190:	0192      	lsls	r2, r2, #6
 8002192:	4313      	orrs	r3, r2
 8002194:	617b      	str	r3, [r7, #20]
 8002196:	e004      	b.n	80021a2 <stm32__i2c__config_transfer+0x11e>
 8002198:	697b      	ldr	r3, [r7, #20]
 800219a:	2280      	movs	r2, #128	; 0x80
 800219c:	0192      	lsls	r2, r2, #6
 800219e:	4313      	orrs	r3, r2
 80021a0:	617b      	str	r3, [r7, #20]
 80021a2:	46c0      	nop			; (mov r8, r8)
 80021a4:	68fb      	ldr	r3, [r7, #12]
 80021a6:	685b      	ldr	r3, [r3, #4]
 80021a8:	3304      	adds	r3, #4
 80021aa:	697a      	ldr	r2, [r7, #20]
 80021ac:	601a      	str	r2, [r3, #0]
 80021ae:	46bd      	mov	sp, r7
 80021b0:	b006      	add	sp, #24
 80021b2:	bdb0      	pop	{r4, r5, r7, pc}
 80021b4:	ff00ffff 	.word	0xff00ffff
 80021b8:	feffffff 	.word	0xfeffffff
 80021bc:	fdffffff 	.word	0xfdffffff
 80021c0:	fffffbff 	.word	0xfffffbff
 80021c4:	ffffdfff 	.word	0xffffdfff
 80021c8:	ffffbfff 	.word	0xffffbfff
 80021cc:	080097e0 	.word	0x080097e0

080021d0 <stm32__i2c__reset_config>:
 80021d0:	b580      	push	{r7, lr}
 80021d2:	b084      	sub	sp, #16
 80021d4:	af00      	add	r7, sp, #0
 80021d6:	6078      	str	r0, [r7, #4]
 80021d8:	687b      	ldr	r3, [r7, #4]
 80021da:	685b      	ldr	r3, [r3, #4]
 80021dc:	3304      	adds	r3, #4
 80021de:	681a      	ldr	r2, [r3, #0]
 80021e0:	230c      	movs	r3, #12
 80021e2:	18fb      	adds	r3, r7, r3
 80021e4:	603a      	str	r2, [r7, #0]
 80021e6:	003a      	movs	r2, r7
 80021e8:	6812      	ldr	r2, [r2, #0]
 80021ea:	601a      	str	r2, [r3, #0]
 80021ec:	68fb      	ldr	r3, [r7, #12]
 80021ee:	0a9b      	lsrs	r3, r3, #10
 80021f0:	029b      	lsls	r3, r3, #10
 80021f2:	60fb      	str	r3, [r7, #12]
 80021f4:	68fb      	ldr	r3, [r7, #12]
 80021f6:	4a0b      	ldr	r2, [pc, #44]	; (8002224 <stm32__i2c__reset_config+0x54>)
 80021f8:	4013      	ands	r3, r2
 80021fa:	60fb      	str	r3, [r7, #12]
 80021fc:	68fb      	ldr	r3, [r7, #12]
 80021fe:	4a0a      	ldr	r2, [pc, #40]	; (8002228 <stm32__i2c__reset_config+0x58>)
 8002200:	4013      	ands	r3, r2
 8002202:	60fb      	str	r3, [r7, #12]
 8002204:	68fb      	ldr	r3, [r7, #12]
 8002206:	4a09      	ldr	r2, [pc, #36]	; (800222c <stm32__i2c__reset_config+0x5c>)
 8002208:	4013      	ands	r3, r2
 800220a:	60fb      	str	r3, [r7, #12]
 800220c:	68fb      	ldr	r3, [r7, #12]
 800220e:	4a08      	ldr	r2, [pc, #32]	; (8002230 <stm32__i2c__reset_config+0x60>)
 8002210:	4013      	ands	r3, r2
 8002212:	60fb      	str	r3, [r7, #12]
 8002214:	687b      	ldr	r3, [r7, #4]
 8002216:	685b      	ldr	r3, [r3, #4]
 8002218:	3304      	adds	r3, #4
 800221a:	68fa      	ldr	r2, [r7, #12]
 800221c:	601a      	str	r2, [r3, #0]
 800221e:	46bd      	mov	sp, r7
 8002220:	b004      	add	sp, #16
 8002222:	bd80      	pop	{r7, pc}
 8002224:	ffffefff 	.word	0xffffefff
 8002228:	ff00ffff 	.word	0xff00ffff
 800222c:	feffffff 	.word	0xfeffffff
 8002230:	fffffbff 	.word	0xfffffbff

08002234 <stm32__i2c__check_nack>:
 8002234:	b5b0      	push	{r4, r5, r7, lr}
 8002236:	b086      	sub	sp, #24
 8002238:	af00      	add	r7, sp, #0
 800223a:	6078      	str	r0, [r7, #4]
 800223c:	6039      	str	r1, [r7, #0]
 800223e:	f004 fe87 	bl	8006f50 <ada__real_time__clock>
 8002242:	0003      	movs	r3, r0
 8002244:	000c      	movs	r4, r1
 8002246:	613b      	str	r3, [r7, #16]
 8002248:	617c      	str	r4, [r7, #20]
 800224a:	687b      	ldr	r3, [r7, #4]
 800224c:	685b      	ldr	r3, [r3, #4]
 800224e:	3318      	adds	r3, #24
 8002250:	681b      	ldr	r3, [r3, #0]
 8002252:	b2db      	uxtb	r3, r3
 8002254:	2210      	movs	r2, #16
 8002256:	4013      	ands	r3, r2
 8002258:	b2db      	uxtb	r3, r3
 800225a:	2b00      	cmp	r3, #0
 800225c:	d100      	bne.n	8002260 <stm32__i2c__check_nack+0x2c>
 800225e:	e079      	b.n	8002354 <stm32__i2c__check_nack+0x120>
 8002260:	687b      	ldr	r3, [r7, #4]
 8002262:	7d1b      	ldrb	r3, [r3, #20]
 8002264:	2b02      	cmp	r3, #2
 8002266:	d007      	beq.n	8002278 <stm32__i2c__check_nack+0x44>
 8002268:	687b      	ldr	r3, [r7, #4]
 800226a:	7d1b      	ldrb	r3, [r3, #20]
 800226c:	2b04      	cmp	r3, #4
 800226e:	d003      	beq.n	8002278 <stm32__i2c__check_nack+0x44>
 8002270:	687b      	ldr	r3, [r7, #4]
 8002272:	7d1b      	ldrb	r3, [r3, #20]
 8002274:	2b05      	cmp	r3, #5
 8002276:	d117      	bne.n	80022a8 <stm32__i2c__check_nack+0x74>
 8002278:	687b      	ldr	r3, [r7, #4]
 800227a:	685b      	ldr	r3, [r3, #4]
 800227c:	3304      	adds	r3, #4
 800227e:	681b      	ldr	r3, [r3, #0]
 8002280:	0e1b      	lsrs	r3, r3, #24
 8002282:	b2db      	uxtb	r3, r3
 8002284:	2202      	movs	r2, #2
 8002286:	4013      	ands	r3, r2
 8002288:	b2db      	uxtb	r3, r3
 800228a:	2b00      	cmp	r3, #0
 800228c:	d10c      	bne.n	80022a8 <stm32__i2c__check_nack+0x74>
 800228e:	687b      	ldr	r3, [r7, #4]
 8002290:	685b      	ldr	r3, [r3, #4]
 8002292:	3304      	adds	r3, #4
 8002294:	681b      	ldr	r3, [r3, #0]
 8002296:	001a      	movs	r2, r3
 8002298:	2380      	movs	r3, #128	; 0x80
 800229a:	01db      	lsls	r3, r3, #7
 800229c:	4313      	orrs	r3, r2
 800229e:	001a      	movs	r2, r3
 80022a0:	687b      	ldr	r3, [r7, #4]
 80022a2:	685b      	ldr	r3, [r3, #4]
 80022a4:	3304      	adds	r3, #4
 80022a6:	601a      	str	r2, [r3, #0]
 80022a8:	687b      	ldr	r3, [r7, #4]
 80022aa:	685b      	ldr	r3, [r3, #4]
 80022ac:	3318      	adds	r3, #24
 80022ae:	681b      	ldr	r3, [r3, #0]
 80022b0:	b2db      	uxtb	r3, r3
 80022b2:	2220      	movs	r2, #32
 80022b4:	4013      	ands	r3, r2
 80022b6:	b2db      	uxtb	r3, r3
 80022b8:	2b00      	cmp	r3, #0
 80022ba:	d127      	bne.n	800230c <stm32__i2c__check_nack+0xd8>
 80022bc:	683b      	ldr	r3, [r7, #0]
 80022be:	2b00      	cmp	r3, #0
 80022c0:	ddf2      	ble.n	80022a8 <stm32__i2c__check_nack+0x74>
 80022c2:	683b      	ldr	r3, [r7, #0]
 80022c4:	0018      	movs	r0, r3
 80022c6:	f004 fe47 	bl	8006f58 <ada__real_time__milliseconds>
 80022ca:	0003      	movs	r3, r0
 80022cc:	000c      	movs	r4, r1
 80022ce:	6938      	ldr	r0, [r7, #16]
 80022d0:	6979      	ldr	r1, [r7, #20]
 80022d2:	001a      	movs	r2, r3
 80022d4:	0023      	movs	r3, r4
 80022d6:	f004 fde3 	bl	8006ea0 <ada__real_time__Oadd>
 80022da:	0004      	movs	r4, r0
 80022dc:	000d      	movs	r5, r1
 80022de:	f004 fe37 	bl	8006f50 <ada__real_time__clock>
 80022e2:	0002      	movs	r2, r0
 80022e4:	000b      	movs	r3, r1
 80022e6:	2101      	movs	r1, #1
 80022e8:	42ab      	cmp	r3, r5
 80022ea:	d804      	bhi.n	80022f6 <stm32__i2c__check_nack+0xc2>
 80022ec:	d101      	bne.n	80022f2 <stm32__i2c__check_nack+0xbe>
 80022ee:	42a2      	cmp	r2, r4
 80022f0:	d801      	bhi.n	80022f6 <stm32__i2c__check_nack+0xc2>
 80022f2:	2300      	movs	r3, #0
 80022f4:	1c19      	adds	r1, r3, #0
 80022f6:	b2cb      	uxtb	r3, r1
 80022f8:	2b00      	cmp	r3, #0
 80022fa:	d0d5      	beq.n	80022a8 <stm32__i2c__check_nack+0x74>
 80022fc:	687b      	ldr	r3, [r7, #4]
 80022fe:	2201      	movs	r2, #1
 8002300:	751a      	strb	r2, [r3, #20]
 8002302:	230f      	movs	r3, #15
 8002304:	18fb      	adds	r3, r7, r3
 8002306:	2202      	movs	r2, #2
 8002308:	701a      	strb	r2, [r3, #0]
 800230a:	e027      	b.n	800235c <stm32__i2c__check_nack+0x128>
 800230c:	687b      	ldr	r3, [r7, #4]
 800230e:	685b      	ldr	r3, [r3, #4]
 8002310:	331c      	adds	r3, #28
 8002312:	681b      	ldr	r3, [r3, #0]
 8002314:	001a      	movs	r2, r3
 8002316:	2310      	movs	r3, #16
 8002318:	4313      	orrs	r3, r2
 800231a:	001a      	movs	r2, r3
 800231c:	687b      	ldr	r3, [r7, #4]
 800231e:	685b      	ldr	r3, [r3, #4]
 8002320:	331c      	adds	r3, #28
 8002322:	601a      	str	r2, [r3, #0]
 8002324:	687b      	ldr	r3, [r7, #4]
 8002326:	685b      	ldr	r3, [r3, #4]
 8002328:	331c      	adds	r3, #28
 800232a:	681b      	ldr	r3, [r3, #0]
 800232c:	001a      	movs	r2, r3
 800232e:	2320      	movs	r3, #32
 8002330:	4313      	orrs	r3, r2
 8002332:	001a      	movs	r2, r3
 8002334:	687b      	ldr	r3, [r7, #4]
 8002336:	685b      	ldr	r3, [r3, #4]
 8002338:	331c      	adds	r3, #28
 800233a:	601a      	str	r2, [r3, #0]
 800233c:	687b      	ldr	r3, [r7, #4]
 800233e:	0018      	movs	r0, r3
 8002340:	f7ff ff46 	bl	80021d0 <stm32__i2c__reset_config>
 8002344:	687b      	ldr	r3, [r7, #4]
 8002346:	2201      	movs	r2, #1
 8002348:	751a      	strb	r2, [r3, #20]
 800234a:	230f      	movs	r3, #15
 800234c:	18fb      	adds	r3, r7, r3
 800234e:	2201      	movs	r2, #1
 8002350:	701a      	strb	r2, [r3, #0]
 8002352:	e003      	b.n	800235c <stm32__i2c__check_nack+0x128>
 8002354:	230f      	movs	r3, #15
 8002356:	18fb      	adds	r3, r7, r3
 8002358:	2200      	movs	r2, #0
 800235a:	701a      	strb	r2, [r3, #0]
 800235c:	230f      	movs	r3, #15
 800235e:	18fb      	adds	r3, r7, r3
 8002360:	781b      	ldrb	r3, [r3, #0]
 8002362:	46c0      	nop			; (mov r8, r8)
 8002364:	0018      	movs	r0, r3
 8002366:	46bd      	mov	sp, r7
 8002368:	b006      	add	sp, #24
 800236a:	bdb0      	pop	{r4, r5, r7, pc}

0800236c <stm32__i2c__wait_tx_interrupt_status>:
 800236c:	b5b0      	push	{r4, r5, r7, lr}
 800236e:	b086      	sub	sp, #24
 8002370:	af00      	add	r7, sp, #0
 8002372:	6078      	str	r0, [r7, #4]
 8002374:	6039      	str	r1, [r7, #0]
 8002376:	f004 fdeb 	bl	8006f50 <ada__real_time__clock>
 800237a:	0003      	movs	r3, r0
 800237c:	000c      	movs	r4, r1
 800237e:	613b      	str	r3, [r7, #16]
 8002380:	617c      	str	r4, [r7, #20]
 8002382:	687b      	ldr	r3, [r7, #4]
 8002384:	685b      	ldr	r3, [r3, #4]
 8002386:	3318      	adds	r3, #24
 8002388:	681b      	ldr	r3, [r3, #0]
 800238a:	b2db      	uxtb	r3, r3
 800238c:	2202      	movs	r2, #2
 800238e:	4013      	ands	r3, r2
 8002390:	b2db      	uxtb	r3, r3
 8002392:	2b00      	cmp	r3, #0
 8002394:	d142      	bne.n	800241c <stm32__i2c__wait_tx_interrupt_status+0xb0>
 8002396:	683a      	ldr	r2, [r7, #0]
 8002398:	687b      	ldr	r3, [r7, #4]
 800239a:	0011      	movs	r1, r2
 800239c:	0018      	movs	r0, r3
 800239e:	f7ff ff49 	bl	8002234 <stm32__i2c__check_nack>
 80023a2:	0003      	movs	r3, r0
 80023a4:	001a      	movs	r2, r3
 80023a6:	210f      	movs	r1, #15
 80023a8:	187b      	adds	r3, r7, r1
 80023aa:	701a      	strb	r2, [r3, #0]
 80023ac:	187b      	adds	r3, r7, r1
 80023ae:	781b      	ldrb	r3, [r3, #0]
 80023b0:	2b00      	cmp	r3, #0
 80023b2:	d007      	beq.n	80023c4 <stm32__i2c__wait_tx_interrupt_status+0x58>
 80023b4:	687b      	ldr	r3, [r7, #4]
 80023b6:	2201      	movs	r2, #1
 80023b8:	751a      	strb	r2, [r3, #20]
 80023ba:	230f      	movs	r3, #15
 80023bc:	18fb      	adds	r3, r7, r3
 80023be:	2201      	movs	r2, #1
 80023c0:	701a      	strb	r2, [r3, #0]
 80023c2:	e02f      	b.n	8002424 <stm32__i2c__wait_tx_interrupt_status+0xb8>
 80023c4:	683b      	ldr	r3, [r7, #0]
 80023c6:	2b00      	cmp	r3, #0
 80023c8:	dddb      	ble.n	8002382 <stm32__i2c__wait_tx_interrupt_status+0x16>
 80023ca:	683b      	ldr	r3, [r7, #0]
 80023cc:	0018      	movs	r0, r3
 80023ce:	f004 fdc3 	bl	8006f58 <ada__real_time__milliseconds>
 80023d2:	0003      	movs	r3, r0
 80023d4:	000c      	movs	r4, r1
 80023d6:	6938      	ldr	r0, [r7, #16]
 80023d8:	6979      	ldr	r1, [r7, #20]
 80023da:	001a      	movs	r2, r3
 80023dc:	0023      	movs	r3, r4
 80023de:	f004 fd5f 	bl	8006ea0 <ada__real_time__Oadd>
 80023e2:	0004      	movs	r4, r0
 80023e4:	000d      	movs	r5, r1
 80023e6:	f004 fdb3 	bl	8006f50 <ada__real_time__clock>
 80023ea:	0002      	movs	r2, r0
 80023ec:	000b      	movs	r3, r1
 80023ee:	2101      	movs	r1, #1
 80023f0:	42ab      	cmp	r3, r5
 80023f2:	d804      	bhi.n	80023fe <stm32__i2c__wait_tx_interrupt_status+0x92>
 80023f4:	d101      	bne.n	80023fa <stm32__i2c__wait_tx_interrupt_status+0x8e>
 80023f6:	42a2      	cmp	r2, r4
 80023f8:	d801      	bhi.n	80023fe <stm32__i2c__wait_tx_interrupt_status+0x92>
 80023fa:	2300      	movs	r3, #0
 80023fc:	1c19      	adds	r1, r3, #0
 80023fe:	b2cb      	uxtb	r3, r1
 8002400:	2b00      	cmp	r3, #0
 8002402:	d0be      	beq.n	8002382 <stm32__i2c__wait_tx_interrupt_status+0x16>
 8002404:	687b      	ldr	r3, [r7, #4]
 8002406:	0018      	movs	r0, r3
 8002408:	f7ff fee2 	bl	80021d0 <stm32__i2c__reset_config>
 800240c:	687b      	ldr	r3, [r7, #4]
 800240e:	2201      	movs	r2, #1
 8002410:	751a      	strb	r2, [r3, #20]
 8002412:	230f      	movs	r3, #15
 8002414:	18fb      	adds	r3, r7, r3
 8002416:	2202      	movs	r2, #2
 8002418:	701a      	strb	r2, [r3, #0]
 800241a:	e003      	b.n	8002424 <stm32__i2c__wait_tx_interrupt_status+0xb8>
 800241c:	230f      	movs	r3, #15
 800241e:	18fb      	adds	r3, r7, r3
 8002420:	2200      	movs	r2, #0
 8002422:	701a      	strb	r2, [r3, #0]
 8002424:	230f      	movs	r3, #15
 8002426:	18fb      	adds	r3, r7, r3
 8002428:	781b      	ldrb	r3, [r3, #0]
 800242a:	46c0      	nop			; (mov r8, r8)
 800242c:	0018      	movs	r0, r3
 800242e:	46bd      	mov	sp, r7
 8002430:	b006      	add	sp, #24
 8002432:	bdb0      	pop	{r4, r5, r7, pc}

08002434 <stm32__i2c__wait_transfer_complete_reset_flag>:
 8002434:	b5b0      	push	{r4, r5, r7, lr}
 8002436:	b086      	sub	sp, #24
 8002438:	af00      	add	r7, sp, #0
 800243a:	6078      	str	r0, [r7, #4]
 800243c:	6039      	str	r1, [r7, #0]
 800243e:	f004 fd87 	bl	8006f50 <ada__real_time__clock>
 8002442:	0003      	movs	r3, r0
 8002444:	000c      	movs	r4, r1
 8002446:	613b      	str	r3, [r7, #16]
 8002448:	617c      	str	r4, [r7, #20]
 800244a:	687b      	ldr	r3, [r7, #4]
 800244c:	685b      	ldr	r3, [r3, #4]
 800244e:	3318      	adds	r3, #24
 8002450:	681b      	ldr	r3, [r3, #0]
 8002452:	b2db      	uxtb	r3, r3
 8002454:	b25b      	sxtb	r3, r3
 8002456:	2b00      	cmp	r3, #0
 8002458:	db2b      	blt.n	80024b2 <stm32__i2c__wait_transfer_complete_reset_flag+0x7e>
 800245a:	683b      	ldr	r3, [r7, #0]
 800245c:	2b00      	cmp	r3, #0
 800245e:	ddf4      	ble.n	800244a <stm32__i2c__wait_transfer_complete_reset_flag+0x16>
 8002460:	683b      	ldr	r3, [r7, #0]
 8002462:	0018      	movs	r0, r3
 8002464:	f004 fd78 	bl	8006f58 <ada__real_time__milliseconds>
 8002468:	0003      	movs	r3, r0
 800246a:	000c      	movs	r4, r1
 800246c:	6938      	ldr	r0, [r7, #16]
 800246e:	6979      	ldr	r1, [r7, #20]
 8002470:	001a      	movs	r2, r3
 8002472:	0023      	movs	r3, r4
 8002474:	f004 fd14 	bl	8006ea0 <ada__real_time__Oadd>
 8002478:	0004      	movs	r4, r0
 800247a:	000d      	movs	r5, r1
 800247c:	f004 fd68 	bl	8006f50 <ada__real_time__clock>
 8002480:	0002      	movs	r2, r0
 8002482:	000b      	movs	r3, r1
 8002484:	2101      	movs	r1, #1
 8002486:	42ab      	cmp	r3, r5
 8002488:	d804      	bhi.n	8002494 <stm32__i2c__wait_transfer_complete_reset_flag+0x60>
 800248a:	d101      	bne.n	8002490 <stm32__i2c__wait_transfer_complete_reset_flag+0x5c>
 800248c:	42a2      	cmp	r2, r4
 800248e:	d801      	bhi.n	8002494 <stm32__i2c__wait_transfer_complete_reset_flag+0x60>
 8002490:	2300      	movs	r3, #0
 8002492:	1c19      	adds	r1, r3, #0
 8002494:	b2cb      	uxtb	r3, r1
 8002496:	2b00      	cmp	r3, #0
 8002498:	d0d7      	beq.n	800244a <stm32__i2c__wait_transfer_complete_reset_flag+0x16>
 800249a:	687b      	ldr	r3, [r7, #4]
 800249c:	0018      	movs	r0, r3
 800249e:	f7ff fe97 	bl	80021d0 <stm32__i2c__reset_config>
 80024a2:	230f      	movs	r3, #15
 80024a4:	18fb      	adds	r3, r7, r3
 80024a6:	2202      	movs	r2, #2
 80024a8:	701a      	strb	r2, [r3, #0]
 80024aa:	687b      	ldr	r3, [r7, #4]
 80024ac:	2201      	movs	r2, #1
 80024ae:	751a      	strb	r2, [r3, #20]
 80024b0:	e003      	b.n	80024ba <stm32__i2c__wait_transfer_complete_reset_flag+0x86>
 80024b2:	230f      	movs	r3, #15
 80024b4:	18fb      	adds	r3, r7, r3
 80024b6:	2200      	movs	r2, #0
 80024b8:	701a      	strb	r2, [r3, #0]
 80024ba:	230f      	movs	r3, #15
 80024bc:	18fb      	adds	r3, r7, r3
 80024be:	781b      	ldrb	r3, [r3, #0]
 80024c0:	46c0      	nop			; (mov r8, r8)
 80024c2:	0018      	movs	r0, r3
 80024c4:	46bd      	mov	sp, r7
 80024c6:	b006      	add	sp, #24
 80024c8:	bdb0      	pop	{r4, r5, r7, pc}
 80024ca:	46c0      	nop			; (mov r8, r8)

080024cc <stm32__i2c__wait_stop_flag>:
 80024cc:	b5b0      	push	{r4, r5, r7, lr}
 80024ce:	b086      	sub	sp, #24
 80024d0:	af00      	add	r7, sp, #0
 80024d2:	6078      	str	r0, [r7, #4]
 80024d4:	6039      	str	r1, [r7, #0]
 80024d6:	f004 fd3b 	bl	8006f50 <ada__real_time__clock>
 80024da:	0003      	movs	r3, r0
 80024dc:	000c      	movs	r4, r1
 80024de:	613b      	str	r3, [r7, #16]
 80024e0:	617c      	str	r4, [r7, #20]
 80024e2:	687b      	ldr	r3, [r7, #4]
 80024e4:	685b      	ldr	r3, [r3, #4]
 80024e6:	3318      	adds	r3, #24
 80024e8:	681b      	ldr	r3, [r3, #0]
 80024ea:	b2db      	uxtb	r3, r3
 80024ec:	2220      	movs	r2, #32
 80024ee:	4013      	ands	r3, r2
 80024f0:	b2db      	uxtb	r3, r3
 80024f2:	2b00      	cmp	r3, #0
 80024f4:	d142      	bne.n	800257c <stm32__i2c__wait_stop_flag+0xb0>
 80024f6:	683a      	ldr	r2, [r7, #0]
 80024f8:	687b      	ldr	r3, [r7, #4]
 80024fa:	0011      	movs	r1, r2
 80024fc:	0018      	movs	r0, r3
 80024fe:	f7ff fe99 	bl	8002234 <stm32__i2c__check_nack>
 8002502:	0003      	movs	r3, r0
 8002504:	001a      	movs	r2, r3
 8002506:	210f      	movs	r1, #15
 8002508:	187b      	adds	r3, r7, r1
 800250a:	701a      	strb	r2, [r3, #0]
 800250c:	187b      	adds	r3, r7, r1
 800250e:	781b      	ldrb	r3, [r3, #0]
 8002510:	2b00      	cmp	r3, #0
 8002512:	d007      	beq.n	8002524 <stm32__i2c__wait_stop_flag+0x58>
 8002514:	687b      	ldr	r3, [r7, #4]
 8002516:	2201      	movs	r2, #1
 8002518:	751a      	strb	r2, [r3, #20]
 800251a:	230f      	movs	r3, #15
 800251c:	18fb      	adds	r3, r7, r3
 800251e:	2201      	movs	r2, #1
 8002520:	701a      	strb	r2, [r3, #0]
 8002522:	e03b      	b.n	800259c <stm32__i2c__wait_stop_flag+0xd0>
 8002524:	683b      	ldr	r3, [r7, #0]
 8002526:	2b00      	cmp	r3, #0
 8002528:	dddb      	ble.n	80024e2 <stm32__i2c__wait_stop_flag+0x16>
 800252a:	683b      	ldr	r3, [r7, #0]
 800252c:	0018      	movs	r0, r3
 800252e:	f004 fd13 	bl	8006f58 <ada__real_time__milliseconds>
 8002532:	0003      	movs	r3, r0
 8002534:	000c      	movs	r4, r1
 8002536:	6938      	ldr	r0, [r7, #16]
 8002538:	6979      	ldr	r1, [r7, #20]
 800253a:	001a      	movs	r2, r3
 800253c:	0023      	movs	r3, r4
 800253e:	f004 fcaf 	bl	8006ea0 <ada__real_time__Oadd>
 8002542:	0004      	movs	r4, r0
 8002544:	000d      	movs	r5, r1
 8002546:	f004 fd03 	bl	8006f50 <ada__real_time__clock>
 800254a:	0002      	movs	r2, r0
 800254c:	000b      	movs	r3, r1
 800254e:	2101      	movs	r1, #1
 8002550:	42ab      	cmp	r3, r5
 8002552:	d804      	bhi.n	800255e <stm32__i2c__wait_stop_flag+0x92>
 8002554:	d101      	bne.n	800255a <stm32__i2c__wait_stop_flag+0x8e>
 8002556:	42a2      	cmp	r2, r4
 8002558:	d801      	bhi.n	800255e <stm32__i2c__wait_stop_flag+0x92>
 800255a:	2300      	movs	r3, #0
 800255c:	1c19      	adds	r1, r3, #0
 800255e:	b2cb      	uxtb	r3, r1
 8002560:	2b00      	cmp	r3, #0
 8002562:	d0be      	beq.n	80024e2 <stm32__i2c__wait_stop_flag+0x16>
 8002564:	687b      	ldr	r3, [r7, #4]
 8002566:	0018      	movs	r0, r3
 8002568:	f7ff fe32 	bl	80021d0 <stm32__i2c__reset_config>
 800256c:	230f      	movs	r3, #15
 800256e:	18fb      	adds	r3, r7, r3
 8002570:	2202      	movs	r2, #2
 8002572:	701a      	strb	r2, [r3, #0]
 8002574:	687b      	ldr	r3, [r7, #4]
 8002576:	2201      	movs	r2, #1
 8002578:	751a      	strb	r2, [r3, #20]
 800257a:	e00f      	b.n	800259c <stm32__i2c__wait_stop_flag+0xd0>
 800257c:	687b      	ldr	r3, [r7, #4]
 800257e:	685b      	ldr	r3, [r3, #4]
 8002580:	331c      	adds	r3, #28
 8002582:	681b      	ldr	r3, [r3, #0]
 8002584:	001a      	movs	r2, r3
 8002586:	2320      	movs	r3, #32
 8002588:	4313      	orrs	r3, r2
 800258a:	001a      	movs	r2, r3
 800258c:	687b      	ldr	r3, [r7, #4]
 800258e:	685b      	ldr	r3, [r3, #4]
 8002590:	331c      	adds	r3, #28
 8002592:	601a      	str	r2, [r3, #0]
 8002594:	230f      	movs	r3, #15
 8002596:	18fb      	adds	r3, r7, r3
 8002598:	2200      	movs	r2, #0
 800259a:	701a      	strb	r2, [r3, #0]
 800259c:	230f      	movs	r3, #15
 800259e:	18fb      	adds	r3, r7, r3
 80025a0:	781b      	ldrb	r3, [r3, #0]
 80025a2:	46c0      	nop			; (mov r8, r8)
 80025a4:	0018      	movs	r0, r3
 80025a6:	46bd      	mov	sp, r7
 80025a8:	b006      	add	sp, #24
 80025aa:	bdb0      	pop	{r4, r5, r7, pc}

080025ac <stm32__i2c__master_transmit>:
 80025ac:	b5f0      	push	{r4, r5, r6, r7, lr}
 80025ae:	46c6      	mov	lr, r8
 80025b0:	b500      	push	{lr}
 80025b2:	b0ae      	sub	sp, #184	; 0xb8
 80025b4:	af02      	add	r7, sp, #8
 80025b6:	269c      	movs	r6, #156	; 0x9c
 80025b8:	19be      	adds	r6, r7, r6
 80025ba:	6030      	str	r0, [r6, #0]
 80025bc:	2090      	movs	r0, #144	; 0x90
 80025be:	183e      	adds	r6, r7, r0
 80025c0:	6032      	str	r2, [r6, #0]
 80025c2:	6073      	str	r3, [r6, #4]
 80025c4:	230a      	movs	r3, #10
 80025c6:	183a      	adds	r2, r7, r0
 80025c8:	18d2      	adds	r2, r2, r3
 80025ca:	1c0b      	adds	r3, r1, #0
 80025cc:	8013      	strh	r3, [r2, #0]
 80025ce:	2294      	movs	r2, #148	; 0x94
 80025d0:	18bb      	adds	r3, r7, r2
 80025d2:	681b      	ldr	r3, [r3, #0]
 80025d4:	681e      	ldr	r6, [r3, #0]
 80025d6:	18bb      	adds	r3, r7, r2
 80025d8:	681b      	ldr	r3, [r3, #0]
 80025da:	685b      	ldr	r3, [r3, #4]
 80025dc:	4698      	mov	r8, r3
 80025de:	45b0      	cmp	r8, r6
 80025e0:	db19      	blt.n	8002616 <stm32__i2c__master_transmit+0x6a>
 80025e2:	4643      	mov	r3, r8
 80025e4:	2288      	movs	r2, #136	; 0x88
 80025e6:	18b9      	adds	r1, r7, r2
 80025e8:	600b      	str	r3, [r1, #0]
 80025ea:	4643      	mov	r3, r8
 80025ec:	17db      	asrs	r3, r3, #31
 80025ee:	218c      	movs	r1, #140	; 0x8c
 80025f0:	1879      	adds	r1, r7, r1
 80025f2:	600b      	str	r3, [r1, #0]
 80025f4:	0034      	movs	r4, r6
 80025f6:	17f3      	asrs	r3, r6, #31
 80025f8:	001d      	movs	r5, r3
 80025fa:	0010      	movs	r0, r2
 80025fc:	18bb      	adds	r3, r7, r2
 80025fe:	6819      	ldr	r1, [r3, #0]
 8002600:	685a      	ldr	r2, [r3, #4]
 8002602:	1b09      	subs	r1, r1, r4
 8002604:	41aa      	sbcs	r2, r5
 8002606:	2301      	movs	r3, #1
 8002608:	2400      	movs	r4, #0
 800260a:	18c9      	adds	r1, r1, r3
 800260c:	4162      	adcs	r2, r4
 800260e:	183b      	adds	r3, r7, r0
 8002610:	6019      	str	r1, [r3, #0]
 8002612:	605a      	str	r2, [r3, #4]
 8002614:	e005      	b.n	8002622 <stm32__i2c__master_transmit+0x76>
 8002616:	2300      	movs	r3, #0
 8002618:	2400      	movs	r4, #0
 800261a:	2288      	movs	r2, #136	; 0x88
 800261c:	18ba      	adds	r2, r7, r2
 800261e:	6013      	str	r3, [r2, #0]
 8002620:	6054      	str	r4, [r2, #4]
 8002622:	239c      	movs	r3, #156	; 0x9c
 8002624:	18fb      	adds	r3, r7, r3
 8002626:	681b      	ldr	r3, [r3, #0]
 8002628:	0018      	movs	r0, r3
 800262a:	f7ff fd1d 	bl	8002068 <stm32__i2c__is_configured>
 800262e:	0003      	movs	r3, r0
 8002630:	001a      	movs	r2, r3
 8002632:	2301      	movs	r3, #1
 8002634:	4053      	eors	r3, r2
 8002636:	b2db      	uxtb	r3, r3
 8002638:	2b00      	cmp	r3, #0
 800263a:	d007      	beq.n	800264c <stm32__i2c__master_transmit+0xa0>
 800263c:	4bd0      	ldr	r3, [pc, #832]	; (8002980 <stm32__i2c__master_transmit+0x3d4>)
 800263e:	603b      	str	r3, [r7, #0]
 8002640:	4bd0      	ldr	r3, [pc, #832]	; (8002984 <stm32__i2c__master_transmit+0x3d8>)
 8002642:	607b      	str	r3, [r7, #4]
 8002644:	6838      	ldr	r0, [r7, #0]
 8002646:	6879      	ldr	r1, [r7, #4]
 8002648:	f006 faa4 	bl	8008b94 <system__assertions__raise_assert_failure>
 800264c:	0035      	movs	r5, r6
 800264e:	2300      	movs	r3, #0
 8002650:	22ac      	movs	r2, #172	; 0xac
 8002652:	18ba      	adds	r2, r7, r2
 8002654:	6013      	str	r3, [r2, #0]
 8002656:	2300      	movs	r3, #0
 8002658:	22a8      	movs	r2, #168	; 0xa8
 800265a:	18ba      	adds	r2, r7, r2
 800265c:	6013      	str	r3, [r2, #0]
 800265e:	2300      	movs	r3, #0
 8002660:	22a4      	movs	r2, #164	; 0xa4
 8002662:	18ba      	adds	r2, r7, r2
 8002664:	6013      	str	r3, [r2, #0]
 8002666:	239c      	movs	r3, #156	; 0x9c
 8002668:	18fb      	adds	r3, r7, r3
 800266a:	681b      	ldr	r3, [r3, #0]
 800266c:	685b      	ldr	r3, [r3, #4]
 800266e:	3318      	adds	r3, #24
 8002670:	681b      	ldr	r3, [r3, #0]
 8002672:	041b      	lsls	r3, r3, #16
 8002674:	0e1b      	lsrs	r3, r3, #24
 8002676:	b2da      	uxtb	r2, r3
 8002678:	237f      	movs	r3, #127	; 0x7f
 800267a:	439a      	bics	r2, r3
 800267c:	0013      	movs	r3, r2
 800267e:	b2db      	uxtb	r3, r3
 8002680:	2b00      	cmp	r3, #0
 8002682:	d007      	beq.n	8002694 <stm32__i2c__master_transmit+0xe8>
 8002684:	2313      	movs	r3, #19
 8002686:	2290      	movs	r2, #144	; 0x90
 8002688:	4694      	mov	ip, r2
 800268a:	44bc      	add	ip, r7
 800268c:	4463      	add	r3, ip
 800268e:	2203      	movs	r2, #3
 8002690:	701a      	strb	r2, [r3, #0]
 8002692:	e2c6      	b.n	8002c22 <stm32__i2c__master_transmit+0x676>
 8002694:	4546      	cmp	r6, r8
 8002696:	dd07      	ble.n	80026a8 <stm32__i2c__master_transmit+0xfc>
 8002698:	2313      	movs	r3, #19
 800269a:	2290      	movs	r2, #144	; 0x90
 800269c:	4694      	mov	ip, r2
 800269e:	44bc      	add	ip, r7
 80026a0:	4463      	add	r3, ip
 80026a2:	2201      	movs	r2, #1
 80026a4:	701a      	strb	r2, [r3, #0]
 80026a6:	e2bc      	b.n	8002c22 <stm32__i2c__master_transmit+0x676>
 80026a8:	239c      	movs	r3, #156	; 0x9c
 80026aa:	18fb      	adds	r3, r7, r3
 80026ac:	681b      	ldr	r3, [r3, #0]
 80026ae:	7d1b      	ldrb	r3, [r3, #20]
 80026b0:	2b01      	cmp	r3, #1
 80026b2:	d007      	beq.n	80026c4 <stm32__i2c__master_transmit+0x118>
 80026b4:	2313      	movs	r3, #19
 80026b6:	2290      	movs	r2, #144	; 0x90
 80026b8:	4694      	mov	ip, r2
 80026ba:	44bc      	add	ip, r7
 80026bc:	4463      	add	r3, ip
 80026be:	2203      	movs	r2, #3
 80026c0:	701a      	strb	r2, [r3, #0]
 80026c2:	e2ae      	b.n	8002c22 <stm32__i2c__master_transmit+0x676>
 80026c4:	239c      	movs	r3, #156	; 0x9c
 80026c6:	18fb      	adds	r3, r7, r3
 80026c8:	681a      	ldr	r2, [r3, #0]
 80026ca:	2302      	movs	r3, #2
 80026cc:	7513      	strb	r3, [r2, #20]
 80026ce:	643e      	str	r6, [r7, #64]	; 0x40
 80026d0:	17f3      	asrs	r3, r6, #31
 80026d2:	647b      	str	r3, [r7, #68]	; 0x44
 80026d4:	23fe      	movs	r3, #254	; 0xfe
 80026d6:	2400      	movs	r4, #0
 80026d8:	6c39      	ldr	r1, [r7, #64]	; 0x40
 80026da:	6c7a      	ldr	r2, [r7, #68]	; 0x44
 80026dc:	18c9      	adds	r1, r1, r3
 80026de:	4162      	adcs	r2, r4
 80026e0:	000b      	movs	r3, r1
 80026e2:	0014      	movs	r4, r2
 80026e4:	4642      	mov	r2, r8
 80026e6:	2180      	movs	r1, #128	; 0x80
 80026e8:	1879      	adds	r1, r7, r1
 80026ea:	600a      	str	r2, [r1, #0]
 80026ec:	4642      	mov	r2, r8
 80026ee:	17d2      	asrs	r2, r2, #31
 80026f0:	2184      	movs	r1, #132	; 0x84
 80026f2:	1878      	adds	r0, r7, r1
 80026f4:	6002      	str	r2, [r0, #0]
 80026f6:	187a      	adds	r2, r7, r1
 80026f8:	6812      	ldr	r2, [r2, #0]
 80026fa:	42a2      	cmp	r2, r4
 80026fc:	dc09      	bgt.n	8002712 <stm32__i2c__master_transmit+0x166>
 80026fe:	2284      	movs	r2, #132	; 0x84
 8002700:	18ba      	adds	r2, r7, r2
 8002702:	6812      	ldr	r2, [r2, #0]
 8002704:	42a2      	cmp	r2, r4
 8002706:	d118      	bne.n	800273a <stm32__i2c__master_transmit+0x18e>
 8002708:	2280      	movs	r2, #128	; 0x80
 800270a:	18ba      	adds	r2, r7, r2
 800270c:	6812      	ldr	r2, [r2, #0]
 800270e:	429a      	cmp	r2, r3
 8002710:	d913      	bls.n	800273a <stm32__i2c__master_transmit+0x18e>
 8002712:	230a      	movs	r3, #10
 8002714:	2290      	movs	r2, #144	; 0x90
 8002716:	4694      	mov	ip, r2
 8002718:	44bc      	add	ip, r7
 800271a:	4463      	add	r3, ip
 800271c:	8819      	ldrh	r1, [r3, #0]
 800271e:	239c      	movs	r3, #156	; 0x9c
 8002720:	18fb      	adds	r3, r7, r3
 8002722:	6818      	ldr	r0, [r3, #0]
 8002724:	2303      	movs	r3, #3
 8002726:	9300      	str	r3, [sp, #0]
 8002728:	2300      	movs	r3, #0
 800272a:	22ff      	movs	r2, #255	; 0xff
 800272c:	f7ff fcaa 	bl	8002084 <stm32__i2c__config_transfer>
 8002730:	23ff      	movs	r3, #255	; 0xff
 8002732:	22ac      	movs	r2, #172	; 0xac
 8002734:	18ba      	adds	r2, r7, r2
 8002736:	6013      	str	r3, [r2, #0]
 8002738:	e057      	b.n	80027ea <stm32__i2c__master_transmit+0x23e>
 800273a:	63be      	str	r6, [r7, #56]	; 0x38
 800273c:	17f3      	asrs	r3, r6, #31
 800273e:	63fb      	str	r3, [r7, #60]	; 0x3c
 8002740:	23fe      	movs	r3, #254	; 0xfe
 8002742:	2400      	movs	r4, #0
 8002744:	6bb9      	ldr	r1, [r7, #56]	; 0x38
 8002746:	6bfa      	ldr	r2, [r7, #60]	; 0x3c
 8002748:	18c9      	adds	r1, r1, r3
 800274a:	4162      	adcs	r2, r4
 800274c:	000b      	movs	r3, r1
 800274e:	0014      	movs	r4, r2
 8002750:	4642      	mov	r2, r8
 8002752:	67ba      	str	r2, [r7, #120]	; 0x78
 8002754:	4642      	mov	r2, r8
 8002756:	17d2      	asrs	r2, r2, #31
 8002758:	67fa      	str	r2, [r7, #124]	; 0x7c
 800275a:	6ffa      	ldr	r2, [r7, #124]	; 0x7c
 800275c:	42a2      	cmp	r2, r4
 800275e:	dc05      	bgt.n	800276c <stm32__i2c__master_transmit+0x1c0>
 8002760:	6ffa      	ldr	r2, [r7, #124]	; 0x7c
 8002762:	42a2      	cmp	r2, r4
 8002764:	d10a      	bne.n	800277c <stm32__i2c__master_transmit+0x1d0>
 8002766:	6fba      	ldr	r2, [r7, #120]	; 0x78
 8002768:	429a      	cmp	r2, r3
 800276a:	d907      	bls.n	800277c <stm32__i2c__master_transmit+0x1d0>
 800276c:	2396      	movs	r3, #150	; 0x96
 800276e:	33ff      	adds	r3, #255	; 0xff
 8002770:	001a      	movs	r2, r3
 8002772:	4b85      	ldr	r3, [pc, #532]	; (8002988 <stm32__i2c__master_transmit+0x3dc>)
 8002774:	0011      	movs	r1, r2
 8002776:	0018      	movs	r0, r3
 8002778:	f005 ffbe 	bl	80086f8 <__gnat_last_chance_handler>
 800277c:	2388      	movs	r3, #136	; 0x88
 800277e:	18fb      	adds	r3, r7, r3
 8002780:	781a      	ldrb	r2, [r3, #0]
 8002782:	230a      	movs	r3, #10
 8002784:	2190      	movs	r1, #144	; 0x90
 8002786:	468c      	mov	ip, r1
 8002788:	44bc      	add	ip, r7
 800278a:	4463      	add	r3, ip
 800278c:	8819      	ldrh	r1, [r3, #0]
 800278e:	239c      	movs	r3, #156	; 0x9c
 8002790:	18fb      	adds	r3, r7, r3
 8002792:	6818      	ldr	r0, [r3, #0]
 8002794:	2303      	movs	r3, #3
 8002796:	9300      	str	r3, [sp, #0]
 8002798:	2301      	movs	r3, #1
 800279a:	f7ff fc73 	bl	8002084 <stm32__i2c__config_transfer>
 800279e:	633e      	str	r6, [r7, #48]	; 0x30
 80027a0:	17f3      	asrs	r3, r6, #31
 80027a2:	637b      	str	r3, [r7, #52]	; 0x34
 80027a4:	4b79      	ldr	r3, [pc, #484]	; (800298c <stm32__i2c__master_transmit+0x3e0>)
 80027a6:	2400      	movs	r4, #0
 80027a8:	6b39      	ldr	r1, [r7, #48]	; 0x30
 80027aa:	6b7a      	ldr	r2, [r7, #52]	; 0x34
 80027ac:	18c9      	adds	r1, r1, r3
 80027ae:	4162      	adcs	r2, r4
 80027b0:	000b      	movs	r3, r1
 80027b2:	0014      	movs	r4, r2
 80027b4:	4642      	mov	r2, r8
 80027b6:	673a      	str	r2, [r7, #112]	; 0x70
 80027b8:	4642      	mov	r2, r8
 80027ba:	17d2      	asrs	r2, r2, #31
 80027bc:	677a      	str	r2, [r7, #116]	; 0x74
 80027be:	6f7a      	ldr	r2, [r7, #116]	; 0x74
 80027c0:	42a2      	cmp	r2, r4
 80027c2:	dc05      	bgt.n	80027d0 <stm32__i2c__master_transmit+0x224>
 80027c4:	6f7a      	ldr	r2, [r7, #116]	; 0x74
 80027c6:	42a2      	cmp	r2, r4
 80027c8:	d109      	bne.n	80027de <stm32__i2c__master_transmit+0x232>
 80027ca:	6f3a      	ldr	r2, [r7, #112]	; 0x70
 80027cc:	429a      	cmp	r2, r3
 80027ce:	d906      	bls.n	80027de <stm32__i2c__master_transmit+0x232>
 80027d0:	23cb      	movs	r3, #203	; 0xcb
 80027d2:	005a      	lsls	r2, r3, #1
 80027d4:	4b6c      	ldr	r3, [pc, #432]	; (8002988 <stm32__i2c__master_transmit+0x3dc>)
 80027d6:	0011      	movs	r1, r2
 80027d8:	0018      	movs	r0, r3
 80027da:	f005 ff8d 	bl	80086f8 <__gnat_last_chance_handler>
 80027de:	2388      	movs	r3, #136	; 0x88
 80027e0:	18fb      	adds	r3, r7, r3
 80027e2:	681b      	ldr	r3, [r3, #0]
 80027e4:	22ac      	movs	r2, #172	; 0xac
 80027e6:	18ba      	adds	r2, r7, r2
 80027e8:	6013      	str	r3, [r2, #0]
 80027ea:	62be      	str	r6, [r7, #40]	; 0x28
 80027ec:	17f3      	asrs	r3, r6, #31
 80027ee:	62fb      	str	r3, [r7, #44]	; 0x2c
 80027f0:	4b66      	ldr	r3, [pc, #408]	; (800298c <stm32__i2c__master_transmit+0x3e0>)
 80027f2:	2400      	movs	r4, #0
 80027f4:	6ab9      	ldr	r1, [r7, #40]	; 0x28
 80027f6:	6afa      	ldr	r2, [r7, #44]	; 0x2c
 80027f8:	185b      	adds	r3, r3, r1
 80027fa:	4154      	adcs	r4, r2
 80027fc:	4642      	mov	r2, r8
 80027fe:	66ba      	str	r2, [r7, #104]	; 0x68
 8002800:	4642      	mov	r2, r8
 8002802:	17d2      	asrs	r2, r2, #31
 8002804:	66fa      	str	r2, [r7, #108]	; 0x6c
 8002806:	6efa      	ldr	r2, [r7, #108]	; 0x6c
 8002808:	42a2      	cmp	r2, r4
 800280a:	dc05      	bgt.n	8002818 <stm32__i2c__master_transmit+0x26c>
 800280c:	6efa      	ldr	r2, [r7, #108]	; 0x6c
 800280e:	42a2      	cmp	r2, r4
 8002810:	d109      	bne.n	8002826 <stm32__i2c__master_transmit+0x27a>
 8002812:	6eba      	ldr	r2, [r7, #104]	; 0x68
 8002814:	429a      	cmp	r2, r3
 8002816:	d906      	bls.n	8002826 <stm32__i2c__master_transmit+0x27a>
 8002818:	23cd      	movs	r3, #205	; 0xcd
 800281a:	005a      	lsls	r2, r3, #1
 800281c:	4b5a      	ldr	r3, [pc, #360]	; (8002988 <stm32__i2c__master_transmit+0x3dc>)
 800281e:	0011      	movs	r1, r2
 8002820:	0018      	movs	r0, r3
 8002822:	f005 ff69 	bl	80086f8 <__gnat_last_chance_handler>
 8002826:	2388      	movs	r3, #136	; 0x88
 8002828:	18fb      	adds	r3, r7, r3
 800282a:	681a      	ldr	r2, [r3, #0]
 800282c:	23a8      	movs	r3, #168	; 0xa8
 800282e:	18fb      	adds	r3, r7, r3
 8002830:	681b      	ldr	r3, [r3, #0]
 8002832:	4293      	cmp	r3, r2
 8002834:	db00      	blt.n	8002838 <stm32__i2c__master_transmit+0x28c>
 8002836:	e1c7      	b.n	8002bc8 <stm32__i2c__master_transmit+0x61c>
 8002838:	23c8      	movs	r3, #200	; 0xc8
 800283a:	18fb      	adds	r3, r7, r3
 800283c:	681a      	ldr	r2, [r3, #0]
 800283e:	239c      	movs	r3, #156	; 0x9c
 8002840:	18fb      	adds	r3, r7, r3
 8002842:	681b      	ldr	r3, [r3, #0]
 8002844:	0011      	movs	r1, r2
 8002846:	0018      	movs	r0, r3
 8002848:	f7ff fd90 	bl	800236c <stm32__i2c__wait_tx_interrupt_status>
 800284c:	0003      	movs	r3, r0
 800284e:	2113      	movs	r1, #19
 8002850:	2090      	movs	r0, #144	; 0x90
 8002852:	183a      	adds	r2, r7, r0
 8002854:	1852      	adds	r2, r2, r1
 8002856:	7013      	strb	r3, [r2, #0]
 8002858:	183b      	adds	r3, r7, r0
 800285a:	185b      	adds	r3, r3, r1
 800285c:	781b      	ldrb	r3, [r3, #0]
 800285e:	2b00      	cmp	r3, #0
 8002860:	d000      	beq.n	8002864 <stm32__i2c__master_transmit+0x2b8>
 8002862:	e1d9      	b.n	8002c18 <stm32__i2c__master_transmit+0x66c>
 8002864:	2400      	movs	r4, #0
 8002866:	22a8      	movs	r2, #168	; 0xa8
 8002868:	18bb      	adds	r3, r7, r2
 800286a:	681b      	ldr	r3, [r3, #0]
 800286c:	18f0      	adds	r0, r6, r3
 800286e:	18bb      	adds	r3, r7, r2
 8002870:	681b      	ldr	r3, [r3, #0]
 8002872:	4073      	eors	r3, r6
 8002874:	0019      	movs	r1, r3
 8002876:	18bb      	adds	r3, r7, r2
 8002878:	681b      	ldr	r3, [r3, #0]
 800287a:	4043      	eors	r3, r0
 800287c:	001a      	movs	r2, r3
 800287e:	43cb      	mvns	r3, r1
 8002880:	4013      	ands	r3, r2
 8002882:	d500      	bpl.n	8002886 <stm32__i2c__master_transmit+0x2da>
 8002884:	2401      	movs	r4, #1
 8002886:	0002      	movs	r2, r0
 8002888:	1e23      	subs	r3, r4, #0
 800288a:	d007      	beq.n	800289c <stm32__i2c__master_transmit+0x2f0>
 800288c:	23a2      	movs	r3, #162	; 0xa2
 800288e:	33ff      	adds	r3, #255	; 0xff
 8002890:	001a      	movs	r2, r3
 8002892:	4b3d      	ldr	r3, [pc, #244]	; (8002988 <stm32__i2c__master_transmit+0x3dc>)
 8002894:	0011      	movs	r1, r2
 8002896:	0018      	movs	r0, r3
 8002898:	f005 ff2e 	bl	80086f8 <__gnat_last_chance_handler>
 800289c:	0013      	movs	r3, r2
 800289e:	429e      	cmp	r6, r3
 80028a0:	dc01      	bgt.n	80028a6 <stm32__i2c__master_transmit+0x2fa>
 80028a2:	4598      	cmp	r8, r3
 80028a4:	da07      	bge.n	80028b6 <stm32__i2c__master_transmit+0x30a>
 80028a6:	23a2      	movs	r3, #162	; 0xa2
 80028a8:	33ff      	adds	r3, #255	; 0xff
 80028aa:	001a      	movs	r2, r3
 80028ac:	4b36      	ldr	r3, [pc, #216]	; (8002988 <stm32__i2c__master_transmit+0x3dc>)
 80028ae:	0011      	movs	r1, r2
 80028b0:	0018      	movs	r0, r3
 80028b2:	f005 ff21 	bl	80086f8 <__gnat_last_chance_handler>
 80028b6:	2290      	movs	r2, #144	; 0x90
 80028b8:	18ba      	adds	r2, r7, r2
 80028ba:	6812      	ldr	r2, [r2, #0]
 80028bc:	0018      	movs	r0, r3
 80028be:	249c      	movs	r4, #156	; 0x9c
 80028c0:	193b      	adds	r3, r7, r4
 80028c2:	681b      	ldr	r3, [r3, #0]
 80028c4:	685b      	ldr	r3, [r3, #4]
 80028c6:	3328      	adds	r3, #40	; 0x28
 80028c8:	681b      	ldr	r3, [r3, #0]
 80028ca:	0019      	movs	r1, r3
 80028cc:	1b43      	subs	r3, r0, r5
 80028ce:	5cd2      	ldrb	r2, [r2, r3]
 80028d0:	23ff      	movs	r3, #255	; 0xff
 80028d2:	4399      	bics	r1, r3
 80028d4:	000b      	movs	r3, r1
 80028d6:	4313      	orrs	r3, r2
 80028d8:	0019      	movs	r1, r3
 80028da:	193b      	adds	r3, r7, r4
 80028dc:	681b      	ldr	r3, [r3, #0]
 80028de:	685b      	ldr	r3, [r3, #4]
 80028e0:	3328      	adds	r3, #40	; 0x28
 80028e2:	000a      	movs	r2, r1
 80028e4:	601a      	str	r2, [r3, #0]
 80028e6:	23a8      	movs	r3, #168	; 0xa8
 80028e8:	18fb      	adds	r3, r7, r3
 80028ea:	681a      	ldr	r2, [r3, #0]
 80028ec:	4b28      	ldr	r3, [pc, #160]	; (8002990 <stm32__i2c__master_transmit+0x3e4>)
 80028ee:	429a      	cmp	r2, r3
 80028f0:	d106      	bne.n	8002900 <stm32__i2c__master_transmit+0x354>
 80028f2:	23d1      	movs	r3, #209	; 0xd1
 80028f4:	005a      	lsls	r2, r3, #1
 80028f6:	4b24      	ldr	r3, [pc, #144]	; (8002988 <stm32__i2c__master_transmit+0x3dc>)
 80028f8:	0011      	movs	r1, r2
 80028fa:	0018      	movs	r0, r3
 80028fc:	f005 fefc 	bl	80086f8 <__gnat_last_chance_handler>
 8002900:	22a8      	movs	r2, #168	; 0xa8
 8002902:	18bb      	adds	r3, r7, r2
 8002904:	681b      	ldr	r3, [r3, #0]
 8002906:	3301      	adds	r3, #1
 8002908:	18ba      	adds	r2, r7, r2
 800290a:	6013      	str	r3, [r2, #0]
 800290c:	23a4      	movs	r3, #164	; 0xa4
 800290e:	18fb      	adds	r3, r7, r3
 8002910:	681a      	ldr	r2, [r3, #0]
 8002912:	4b1f      	ldr	r3, [pc, #124]	; (8002990 <stm32__i2c__master_transmit+0x3e4>)
 8002914:	429a      	cmp	r2, r3
 8002916:	d107      	bne.n	8002928 <stm32__i2c__master_transmit+0x37c>
 8002918:	23a4      	movs	r3, #164	; 0xa4
 800291a:	33ff      	adds	r3, #255	; 0xff
 800291c:	001a      	movs	r2, r3
 800291e:	4b1a      	ldr	r3, [pc, #104]	; (8002988 <stm32__i2c__master_transmit+0x3dc>)
 8002920:	0011      	movs	r1, r2
 8002922:	0018      	movs	r0, r3
 8002924:	f005 fee8 	bl	80086f8 <__gnat_last_chance_handler>
 8002928:	22a4      	movs	r2, #164	; 0xa4
 800292a:	18bb      	adds	r3, r7, r2
 800292c:	681b      	ldr	r3, [r3, #0]
 800292e:	3301      	adds	r3, #1
 8002930:	18b9      	adds	r1, r7, r2
 8002932:	600b      	str	r3, [r1, #0]
 8002934:	18bb      	adds	r3, r7, r2
 8002936:	681a      	ldr	r2, [r3, #0]
 8002938:	23ac      	movs	r3, #172	; 0xac
 800293a:	18fb      	adds	r3, r7, r3
 800293c:	681b      	ldr	r3, [r3, #0]
 800293e:	429a      	cmp	r2, r3
 8002940:	d000      	beq.n	8002944 <stm32__i2c__master_transmit+0x398>
 8002942:	e752      	b.n	80027ea <stm32__i2c__master_transmit+0x23e>
 8002944:	623e      	str	r6, [r7, #32]
 8002946:	17f3      	asrs	r3, r6, #31
 8002948:	627b      	str	r3, [r7, #36]	; 0x24
 800294a:	4b10      	ldr	r3, [pc, #64]	; (800298c <stm32__i2c__master_transmit+0x3e0>)
 800294c:	2400      	movs	r4, #0
 800294e:	6a39      	ldr	r1, [r7, #32]
 8002950:	6a7a      	ldr	r2, [r7, #36]	; 0x24
 8002952:	185b      	adds	r3, r3, r1
 8002954:	4154      	adcs	r4, r2
 8002956:	4642      	mov	r2, r8
 8002958:	663a      	str	r2, [r7, #96]	; 0x60
 800295a:	4642      	mov	r2, r8
 800295c:	17d2      	asrs	r2, r2, #31
 800295e:	667a      	str	r2, [r7, #100]	; 0x64
 8002960:	6e7a      	ldr	r2, [r7, #100]	; 0x64
 8002962:	42a2      	cmp	r2, r4
 8002964:	dc05      	bgt.n	8002972 <stm32__i2c__master_transmit+0x3c6>
 8002966:	6e7a      	ldr	r2, [r7, #100]	; 0x64
 8002968:	42a2      	cmp	r2, r4
 800296a:	d113      	bne.n	8002994 <stm32__i2c__master_transmit+0x3e8>
 800296c:	6e3a      	ldr	r2, [r7, #96]	; 0x60
 800296e:	429a      	cmp	r2, r3
 8002970:	d910      	bls.n	8002994 <stm32__i2c__master_transmit+0x3e8>
 8002972:	23d3      	movs	r3, #211	; 0xd3
 8002974:	005a      	lsls	r2, r3, #1
 8002976:	4b04      	ldr	r3, [pc, #16]	; (8002988 <stm32__i2c__master_transmit+0x3dc>)
 8002978:	0011      	movs	r1, r2
 800297a:	0018      	movs	r0, r3
 800297c:	f005 febc 	bl	80086f8 <__gnat_last_chance_handler>
 8002980:	080097f0 	.word	0x080097f0
 8002984:	080097d8 	.word	0x080097d8
 8002988:	080097e0 	.word	0x080097e0
 800298c:	7ffffffe 	.word	0x7ffffffe
 8002990:	7fffffff 	.word	0x7fffffff
 8002994:	2388      	movs	r3, #136	; 0x88
 8002996:	18fb      	adds	r3, r7, r3
 8002998:	681a      	ldr	r2, [r3, #0]
 800299a:	2301      	movs	r3, #1
 800299c:	1c19      	adds	r1, r3, #0
 800299e:	23a8      	movs	r3, #168	; 0xa8
 80029a0:	18fb      	adds	r3, r7, r3
 80029a2:	681b      	ldr	r3, [r3, #0]
 80029a4:	4293      	cmp	r3, r2
 80029a6:	db01      	blt.n	80029ac <stm32__i2c__master_transmit+0x400>
 80029a8:	2300      	movs	r3, #0
 80029aa:	1c19      	adds	r1, r3, #0
 80029ac:	b2cb      	uxtb	r3, r1
 80029ae:	2b00      	cmp	r3, #0
 80029b0:	d100      	bne.n	80029b4 <stm32__i2c__master_transmit+0x408>
 80029b2:	e71a      	b.n	80027ea <stm32__i2c__master_transmit+0x23e>
 80029b4:	23c8      	movs	r3, #200	; 0xc8
 80029b6:	18fb      	adds	r3, r7, r3
 80029b8:	681a      	ldr	r2, [r3, #0]
 80029ba:	239c      	movs	r3, #156	; 0x9c
 80029bc:	18fb      	adds	r3, r7, r3
 80029be:	681b      	ldr	r3, [r3, #0]
 80029c0:	0011      	movs	r1, r2
 80029c2:	0018      	movs	r0, r3
 80029c4:	f7ff fd36 	bl	8002434 <stm32__i2c__wait_transfer_complete_reset_flag>
 80029c8:	0003      	movs	r3, r0
 80029ca:	2113      	movs	r1, #19
 80029cc:	2090      	movs	r0, #144	; 0x90
 80029ce:	183a      	adds	r2, r7, r0
 80029d0:	1852      	adds	r2, r2, r1
 80029d2:	7013      	strb	r3, [r2, #0]
 80029d4:	183b      	adds	r3, r7, r0
 80029d6:	185b      	adds	r3, r3, r1
 80029d8:	781b      	ldrb	r3, [r3, #0]
 80029da:	2b00      	cmp	r3, #0
 80029dc:	d000      	beq.n	80029e0 <stm32__i2c__master_transmit+0x434>
 80029de:	e11d      	b.n	8002c1c <stm32__i2c__master_transmit+0x670>
 80029e0:	2300      	movs	r3, #0
 80029e2:	22a4      	movs	r2, #164	; 0xa4
 80029e4:	18ba      	adds	r2, r7, r2
 80029e6:	6013      	str	r3, [r2, #0]
 80029e8:	61be      	str	r6, [r7, #24]
 80029ea:	17f3      	asrs	r3, r6, #31
 80029ec:	61fb      	str	r3, [r7, #28]
 80029ee:	4b93      	ldr	r3, [pc, #588]	; (8002c3c <stm32__i2c__master_transmit+0x690>)
 80029f0:	2400      	movs	r4, #0
 80029f2:	69b9      	ldr	r1, [r7, #24]
 80029f4:	69fa      	ldr	r2, [r7, #28]
 80029f6:	185b      	adds	r3, r3, r1
 80029f8:	4154      	adcs	r4, r2
 80029fa:	4642      	mov	r2, r8
 80029fc:	65ba      	str	r2, [r7, #88]	; 0x58
 80029fe:	4642      	mov	r2, r8
 8002a00:	17d2      	asrs	r2, r2, #31
 8002a02:	65fa      	str	r2, [r7, #92]	; 0x5c
 8002a04:	6dfa      	ldr	r2, [r7, #92]	; 0x5c
 8002a06:	42a2      	cmp	r2, r4
 8002a08:	dc05      	bgt.n	8002a16 <stm32__i2c__master_transmit+0x46a>
 8002a0a:	6dfa      	ldr	r2, [r7, #92]	; 0x5c
 8002a0c:	42a2      	cmp	r2, r4
 8002a0e:	d109      	bne.n	8002a24 <stm32__i2c__master_transmit+0x478>
 8002a10:	6dba      	ldr	r2, [r7, #88]	; 0x58
 8002a12:	429a      	cmp	r2, r3
 8002a14:	d906      	bls.n	8002a24 <stm32__i2c__master_transmit+0x478>
 8002a16:	23d7      	movs	r3, #215	; 0xd7
 8002a18:	005a      	lsls	r2, r3, #1
 8002a1a:	4b89      	ldr	r3, [pc, #548]	; (8002c40 <stm32__i2c__master_transmit+0x694>)
 8002a1c:	0011      	movs	r1, r2
 8002a1e:	0018      	movs	r0, r3
 8002a20:	f005 fe6a 	bl	80086f8 <__gnat_last_chance_handler>
 8002a24:	2388      	movs	r3, #136	; 0x88
 8002a26:	18fb      	adds	r3, r7, r3
 8002a28:	681a      	ldr	r2, [r3, #0]
 8002a2a:	2000      	movs	r0, #0
 8002a2c:	24a8      	movs	r4, #168	; 0xa8
 8002a2e:	193b      	adds	r3, r7, r4
 8002a30:	681b      	ldr	r3, [r3, #0]
 8002a32:	1ad1      	subs	r1, r2, r3
 8002a34:	193b      	adds	r3, r7, r4
 8002a36:	681b      	ldr	r3, [r3, #0]
 8002a38:	405a      	eors	r2, r3
 8002a3a:	193b      	adds	r3, r7, r4
 8002a3c:	681b      	ldr	r3, [r3, #0]
 8002a3e:	404b      	eors	r3, r1
 8002a40:	43db      	mvns	r3, r3
 8002a42:	4013      	ands	r3, r2
 8002a44:	d500      	bpl.n	8002a48 <stm32__i2c__master_transmit+0x49c>
 8002a46:	2001      	movs	r0, #1
 8002a48:	000a      	movs	r2, r1
 8002a4a:	1e03      	subs	r3, r0, #0
 8002a4c:	d006      	beq.n	8002a5c <stm32__i2c__master_transmit+0x4b0>
 8002a4e:	23d7      	movs	r3, #215	; 0xd7
 8002a50:	005a      	lsls	r2, r3, #1
 8002a52:	4b7b      	ldr	r3, [pc, #492]	; (8002c40 <stm32__i2c__master_transmit+0x694>)
 8002a54:	0011      	movs	r1, r2
 8002a56:	0018      	movs	r0, r3
 8002a58:	f005 fe4e 	bl	80086f8 <__gnat_last_chance_handler>
 8002a5c:	2301      	movs	r3, #1
 8002a5e:	2aff      	cmp	r2, #255	; 0xff
 8002a60:	dc00      	bgt.n	8002a64 <stm32__i2c__master_transmit+0x4b8>
 8002a62:	2300      	movs	r3, #0
 8002a64:	b2db      	uxtb	r3, r3
 8002a66:	2b00      	cmp	r3, #0
 8002a68:	d013      	beq.n	8002a92 <stm32__i2c__master_transmit+0x4e6>
 8002a6a:	230a      	movs	r3, #10
 8002a6c:	2290      	movs	r2, #144	; 0x90
 8002a6e:	4694      	mov	ip, r2
 8002a70:	44bc      	add	ip, r7
 8002a72:	4463      	add	r3, ip
 8002a74:	8819      	ldrh	r1, [r3, #0]
 8002a76:	239c      	movs	r3, #156	; 0x9c
 8002a78:	18fb      	adds	r3, r7, r3
 8002a7a:	6818      	ldr	r0, [r3, #0]
 8002a7c:	2300      	movs	r3, #0
 8002a7e:	9300      	str	r3, [sp, #0]
 8002a80:	2300      	movs	r3, #0
 8002a82:	22ff      	movs	r2, #255	; 0xff
 8002a84:	f7ff fafe 	bl	8002084 <stm32__i2c__config_transfer>
 8002a88:	23ff      	movs	r3, #255	; 0xff
 8002a8a:	22ac      	movs	r2, #172	; 0xac
 8002a8c:	18ba      	adds	r2, r7, r2
 8002a8e:	6013      	str	r3, [r2, #0]
 8002a90:	e6ab      	b.n	80027ea <stm32__i2c__master_transmit+0x23e>
 8002a92:	613e      	str	r6, [r7, #16]
 8002a94:	17f3      	asrs	r3, r6, #31
 8002a96:	617b      	str	r3, [r7, #20]
 8002a98:	4b68      	ldr	r3, [pc, #416]	; (8002c3c <stm32__i2c__master_transmit+0x690>)
 8002a9a:	2400      	movs	r4, #0
 8002a9c:	6939      	ldr	r1, [r7, #16]
 8002a9e:	697a      	ldr	r2, [r7, #20]
 8002aa0:	185b      	adds	r3, r3, r1
 8002aa2:	4154      	adcs	r4, r2
 8002aa4:	4642      	mov	r2, r8
 8002aa6:	653a      	str	r2, [r7, #80]	; 0x50
 8002aa8:	4642      	mov	r2, r8
 8002aaa:	17d2      	asrs	r2, r2, #31
 8002aac:	657a      	str	r2, [r7, #84]	; 0x54
 8002aae:	6d7a      	ldr	r2, [r7, #84]	; 0x54
 8002ab0:	42a2      	cmp	r2, r4
 8002ab2:	dc05      	bgt.n	8002ac0 <stm32__i2c__master_transmit+0x514>
 8002ab4:	6d7a      	ldr	r2, [r7, #84]	; 0x54
 8002ab6:	42a2      	cmp	r2, r4
 8002ab8:	d109      	bne.n	8002ace <stm32__i2c__master_transmit+0x522>
 8002aba:	6d3a      	ldr	r2, [r7, #80]	; 0x50
 8002abc:	429a      	cmp	r2, r3
 8002abe:	d906      	bls.n	8002ace <stm32__i2c__master_transmit+0x522>
 8002ac0:	23da      	movs	r3, #218	; 0xda
 8002ac2:	005a      	lsls	r2, r3, #1
 8002ac4:	4b5e      	ldr	r3, [pc, #376]	; (8002c40 <stm32__i2c__master_transmit+0x694>)
 8002ac6:	0011      	movs	r1, r2
 8002ac8:	0018      	movs	r0, r3
 8002aca:	f005 fe15 	bl	80086f8 <__gnat_last_chance_handler>
 8002ace:	2388      	movs	r3, #136	; 0x88
 8002ad0:	18fb      	adds	r3, r7, r3
 8002ad2:	681a      	ldr	r2, [r3, #0]
 8002ad4:	2000      	movs	r0, #0
 8002ad6:	24a8      	movs	r4, #168	; 0xa8
 8002ad8:	193b      	adds	r3, r7, r4
 8002ada:	681b      	ldr	r3, [r3, #0]
 8002adc:	1ad1      	subs	r1, r2, r3
 8002ade:	193b      	adds	r3, r7, r4
 8002ae0:	681b      	ldr	r3, [r3, #0]
 8002ae2:	405a      	eors	r2, r3
 8002ae4:	193b      	adds	r3, r7, r4
 8002ae6:	681b      	ldr	r3, [r3, #0]
 8002ae8:	404b      	eors	r3, r1
 8002aea:	43db      	mvns	r3, r3
 8002aec:	4013      	ands	r3, r2
 8002aee:	d500      	bpl.n	8002af2 <stm32__i2c__master_transmit+0x546>
 8002af0:	2001      	movs	r0, #1
 8002af2:	000a      	movs	r2, r1
 8002af4:	1e03      	subs	r3, r0, #0
 8002af6:	d006      	beq.n	8002b06 <stm32__i2c__master_transmit+0x55a>
 8002af8:	23da      	movs	r3, #218	; 0xda
 8002afa:	005a      	lsls	r2, r3, #1
 8002afc:	4b50      	ldr	r3, [pc, #320]	; (8002c40 <stm32__i2c__master_transmit+0x694>)
 8002afe:	0011      	movs	r1, r2
 8002b00:	0018      	movs	r0, r3
 8002b02:	f005 fdf9 	bl	80086f8 <__gnat_last_chance_handler>
 8002b06:	1e13      	subs	r3, r2, #0
 8002b08:	db01      	blt.n	8002b0e <stm32__i2c__master_transmit+0x562>
 8002b0a:	2bff      	cmp	r3, #255	; 0xff
 8002b0c:	dd06      	ble.n	8002b1c <stm32__i2c__master_transmit+0x570>
 8002b0e:	23da      	movs	r3, #218	; 0xda
 8002b10:	005a      	lsls	r2, r3, #1
 8002b12:	4b4b      	ldr	r3, [pc, #300]	; (8002c40 <stm32__i2c__master_transmit+0x694>)
 8002b14:	0011      	movs	r1, r2
 8002b16:	0018      	movs	r0, r3
 8002b18:	f005 fdee 	bl	80086f8 <__gnat_last_chance_handler>
 8002b1c:	b2da      	uxtb	r2, r3
 8002b1e:	230a      	movs	r3, #10
 8002b20:	2190      	movs	r1, #144	; 0x90
 8002b22:	468c      	mov	ip, r1
 8002b24:	44bc      	add	ip, r7
 8002b26:	4463      	add	r3, ip
 8002b28:	8819      	ldrh	r1, [r3, #0]
 8002b2a:	239c      	movs	r3, #156	; 0x9c
 8002b2c:	18fb      	adds	r3, r7, r3
 8002b2e:	6818      	ldr	r0, [r3, #0]
 8002b30:	2300      	movs	r3, #0
 8002b32:	9300      	str	r3, [sp, #0]
 8002b34:	2301      	movs	r3, #1
 8002b36:	f7ff faa5 	bl	8002084 <stm32__i2c__config_transfer>
 8002b3a:	60be      	str	r6, [r7, #8]
 8002b3c:	17f3      	asrs	r3, r6, #31
 8002b3e:	60fb      	str	r3, [r7, #12]
 8002b40:	4b3e      	ldr	r3, [pc, #248]	; (8002c3c <stm32__i2c__master_transmit+0x690>)
 8002b42:	2400      	movs	r4, #0
 8002b44:	68b9      	ldr	r1, [r7, #8]
 8002b46:	68fa      	ldr	r2, [r7, #12]
 8002b48:	185b      	adds	r3, r3, r1
 8002b4a:	4154      	adcs	r4, r2
 8002b4c:	4642      	mov	r2, r8
 8002b4e:	64ba      	str	r2, [r7, #72]	; 0x48
 8002b50:	4642      	mov	r2, r8
 8002b52:	17d2      	asrs	r2, r2, #31
 8002b54:	64fa      	str	r2, [r7, #76]	; 0x4c
 8002b56:	6cfa      	ldr	r2, [r7, #76]	; 0x4c
 8002b58:	42a2      	cmp	r2, r4
 8002b5a:	dc05      	bgt.n	8002b68 <stm32__i2c__master_transmit+0x5bc>
 8002b5c:	6cfa      	ldr	r2, [r7, #76]	; 0x4c
 8002b5e:	42a2      	cmp	r2, r4
 8002b60:	d109      	bne.n	8002b76 <stm32__i2c__master_transmit+0x5ca>
 8002b62:	6cba      	ldr	r2, [r7, #72]	; 0x48
 8002b64:	429a      	cmp	r2, r3
 8002b66:	d906      	bls.n	8002b76 <stm32__i2c__master_transmit+0x5ca>
 8002b68:	23db      	movs	r3, #219	; 0xdb
 8002b6a:	005a      	lsls	r2, r3, #1
 8002b6c:	4b34      	ldr	r3, [pc, #208]	; (8002c40 <stm32__i2c__master_transmit+0x694>)
 8002b6e:	0011      	movs	r1, r2
 8002b70:	0018      	movs	r0, r3
 8002b72:	f005 fdc1 	bl	80086f8 <__gnat_last_chance_handler>
 8002b76:	2388      	movs	r3, #136	; 0x88
 8002b78:	18fb      	adds	r3, r7, r3
 8002b7a:	681a      	ldr	r2, [r3, #0]
 8002b7c:	2000      	movs	r0, #0
 8002b7e:	24a8      	movs	r4, #168	; 0xa8
 8002b80:	193b      	adds	r3, r7, r4
 8002b82:	681b      	ldr	r3, [r3, #0]
 8002b84:	1ad1      	subs	r1, r2, r3
 8002b86:	193b      	adds	r3, r7, r4
 8002b88:	681b      	ldr	r3, [r3, #0]
 8002b8a:	405a      	eors	r2, r3
 8002b8c:	193b      	adds	r3, r7, r4
 8002b8e:	681b      	ldr	r3, [r3, #0]
 8002b90:	404b      	eors	r3, r1
 8002b92:	43db      	mvns	r3, r3
 8002b94:	4013      	ands	r3, r2
 8002b96:	d500      	bpl.n	8002b9a <stm32__i2c__master_transmit+0x5ee>
 8002b98:	2001      	movs	r0, #1
 8002b9a:	000a      	movs	r2, r1
 8002b9c:	1e03      	subs	r3, r0, #0
 8002b9e:	d006      	beq.n	8002bae <stm32__i2c__master_transmit+0x602>
 8002ba0:	23db      	movs	r3, #219	; 0xdb
 8002ba2:	005a      	lsls	r2, r3, #1
 8002ba4:	4b26      	ldr	r3, [pc, #152]	; (8002c40 <stm32__i2c__master_transmit+0x694>)
 8002ba6:	0011      	movs	r1, r2
 8002ba8:	0018      	movs	r0, r3
 8002baa:	f005 fda5 	bl	80086f8 <__gnat_last_chance_handler>
 8002bae:	1e13      	subs	r3, r2, #0
 8002bb0:	da06      	bge.n	8002bc0 <stm32__i2c__master_transmit+0x614>
 8002bb2:	23db      	movs	r3, #219	; 0xdb
 8002bb4:	005a      	lsls	r2, r3, #1
 8002bb6:	4b22      	ldr	r3, [pc, #136]	; (8002c40 <stm32__i2c__master_transmit+0x694>)
 8002bb8:	0011      	movs	r1, r2
 8002bba:	0018      	movs	r0, r3
 8002bbc:	f005 fd9c 	bl	80086f8 <__gnat_last_chance_handler>
 8002bc0:	22ac      	movs	r2, #172	; 0xac
 8002bc2:	18ba      	adds	r2, r7, r2
 8002bc4:	6013      	str	r3, [r2, #0]
 8002bc6:	e610      	b.n	80027ea <stm32__i2c__master_transmit+0x23e>
 8002bc8:	23c8      	movs	r3, #200	; 0xc8
 8002bca:	18fb      	adds	r3, r7, r3
 8002bcc:	681a      	ldr	r2, [r3, #0]
 8002bce:	239c      	movs	r3, #156	; 0x9c
 8002bd0:	18fb      	adds	r3, r7, r3
 8002bd2:	681b      	ldr	r3, [r3, #0]
 8002bd4:	0011      	movs	r1, r2
 8002bd6:	0018      	movs	r0, r3
 8002bd8:	f7ff fc78 	bl	80024cc <stm32__i2c__wait_stop_flag>
 8002bdc:	0003      	movs	r3, r0
 8002bde:	001a      	movs	r2, r3
 8002be0:	2113      	movs	r1, #19
 8002be2:	2090      	movs	r0, #144	; 0x90
 8002be4:	183b      	adds	r3, r7, r0
 8002be6:	185b      	adds	r3, r3, r1
 8002be8:	701a      	strb	r2, [r3, #0]
 8002bea:	183b      	adds	r3, r7, r0
 8002bec:	185b      	adds	r3, r3, r1
 8002bee:	781b      	ldrb	r3, [r3, #0]
 8002bf0:	2b00      	cmp	r3, #0
 8002bf2:	d115      	bne.n	8002c20 <stm32__i2c__master_transmit+0x674>
 8002bf4:	249c      	movs	r4, #156	; 0x9c
 8002bf6:	193b      	adds	r3, r7, r4
 8002bf8:	681b      	ldr	r3, [r3, #0]
 8002bfa:	0018      	movs	r0, r3
 8002bfc:	f7ff fae8 	bl	80021d0 <stm32__i2c__reset_config>
 8002c00:	193b      	adds	r3, r7, r4
 8002c02:	681b      	ldr	r3, [r3, #0]
 8002c04:	2201      	movs	r2, #1
 8002c06:	751a      	strb	r2, [r3, #20]
 8002c08:	2313      	movs	r3, #19
 8002c0a:	2290      	movs	r2, #144	; 0x90
 8002c0c:	4694      	mov	ip, r2
 8002c0e:	44bc      	add	ip, r7
 8002c10:	4463      	add	r3, ip
 8002c12:	2200      	movs	r2, #0
 8002c14:	701a      	strb	r2, [r3, #0]
 8002c16:	e004      	b.n	8002c22 <stm32__i2c__master_transmit+0x676>
 8002c18:	46c0      	nop			; (mov r8, r8)
 8002c1a:	e002      	b.n	8002c22 <stm32__i2c__master_transmit+0x676>
 8002c1c:	46c0      	nop			; (mov r8, r8)
 8002c1e:	e000      	b.n	8002c22 <stm32__i2c__master_transmit+0x676>
 8002c20:	46c0      	nop			; (mov r8, r8)
 8002c22:	2313      	movs	r3, #19
 8002c24:	2290      	movs	r2, #144	; 0x90
 8002c26:	4694      	mov	ip, r2
 8002c28:	44bc      	add	ip, r7
 8002c2a:	4463      	add	r3, ip
 8002c2c:	781b      	ldrb	r3, [r3, #0]
 8002c2e:	46c0      	nop			; (mov r8, r8)
 8002c30:	0018      	movs	r0, r3
 8002c32:	46bd      	mov	sp, r7
 8002c34:	b02c      	add	sp, #176	; 0xb0
 8002c36:	bc04      	pop	{r2}
 8002c38:	4690      	mov	r8, r2
 8002c3a:	bdf0      	pop	{r4, r5, r6, r7, pc}
 8002c3c:	7ffffffe 	.word	0x7ffffffe
 8002c40:	080097e0 	.word	0x080097e0

08002c44 <stm32__i2c__master_transmit__2>:
 8002c44:	b5f0      	push	{r4, r5, r6, r7, lr}
 8002c46:	46de      	mov	lr, fp
 8002c48:	4657      	mov	r7, sl
 8002c4a:	464e      	mov	r6, r9
 8002c4c:	4645      	mov	r5, r8
 8002c4e:	b5e0      	push	{r5, r6, r7, lr}
 8002c50:	b0a7      	sub	sp, #156	; 0x9c
 8002c52:	af02      	add	r7, sp, #8
 8002c54:	6778      	str	r0, [r7, #116]	; 0x74
 8002c56:	66ba      	str	r2, [r7, #104]	; 0x68
 8002c58:	66fb      	str	r3, [r7, #108]	; 0x6c
 8002c5a:	2312      	movs	r3, #18
 8002c5c:	2060      	movs	r0, #96	; 0x60
 8002c5e:	183a      	adds	r2, r7, r0
 8002c60:	18d2      	adds	r2, r2, r3
 8002c62:	1c0b      	adds	r3, r1, #0
 8002c64:	8013      	strh	r3, [r2, #0]
 8002c66:	183b      	adds	r3, r7, r0
 8002c68:	2258      	movs	r2, #88	; 0x58
 8002c6a:	1839      	adds	r1, r7, r0
 8002c6c:	1889      	adds	r1, r1, r2
 8002c6e:	001a      	movs	r2, r3
 8002c70:	000b      	movs	r3, r1
 8002c72:	cb03      	ldmia	r3!, {r0, r1}
 8002c74:	c203      	stmia	r2!, {r0, r1}
 8002c76:	6e7b      	ldr	r3, [r7, #100]	; 0x64
 8002c78:	681b      	ldr	r3, [r3, #0]
 8002c7a:	469a      	mov	sl, r3
 8002c7c:	6e7b      	ldr	r3, [r7, #100]	; 0x64
 8002c7e:	685b      	ldr	r3, [r3, #4]
 8002c80:	469b      	mov	fp, r3
 8002c82:	45d3      	cmp	fp, sl
 8002c84:	db13      	blt.n	8002cae <stm32__i2c__master_transmit__2+0x6a>
 8002c86:	465b      	mov	r3, fp
 8002c88:	63bb      	str	r3, [r7, #56]	; 0x38
 8002c8a:	465b      	mov	r3, fp
 8002c8c:	17db      	asrs	r3, r3, #31
 8002c8e:	63fb      	str	r3, [r7, #60]	; 0x3c
 8002c90:	4654      	mov	r4, sl
 8002c92:	4653      	mov	r3, sl
 8002c94:	17db      	asrs	r3, r3, #31
 8002c96:	001d      	movs	r5, r3
 8002c98:	6bb9      	ldr	r1, [r7, #56]	; 0x38
 8002c9a:	6bfa      	ldr	r2, [r7, #60]	; 0x3c
 8002c9c:	1b09      	subs	r1, r1, r4
 8002c9e:	41aa      	sbcs	r2, r5
 8002ca0:	2301      	movs	r3, #1
 8002ca2:	2400      	movs	r4, #0
 8002ca4:	18c9      	adds	r1, r1, r3
 8002ca6:	4162      	adcs	r2, r4
 8002ca8:	000d      	movs	r5, r1
 8002caa:	0016      	movs	r6, r2
 8002cac:	e001      	b.n	8002cb2 <stm32__i2c__master_transmit__2+0x6e>
 8002cae:	2500      	movs	r5, #0
 8002cb0:	2600      	movs	r6, #0
 8002cb2:	6efb      	ldr	r3, [r7, #108]	; 0x6c
 8002cb4:	681b      	ldr	r3, [r3, #0]
 8002cb6:	4698      	mov	r8, r3
 8002cb8:	6efb      	ldr	r3, [r7, #108]	; 0x6c
 8002cba:	685b      	ldr	r3, [r3, #4]
 8002cbc:	4699      	mov	r9, r3
 8002cbe:	45c1      	cmp	r9, r8
 8002cc0:	db16      	blt.n	8002cf0 <stm32__i2c__master_transmit__2+0xac>
 8002cc2:	464b      	mov	r3, r9
 8002cc4:	633b      	str	r3, [r7, #48]	; 0x30
 8002cc6:	464b      	mov	r3, r9
 8002cc8:	17db      	asrs	r3, r3, #31
 8002cca:	637b      	str	r3, [r7, #52]	; 0x34
 8002ccc:	4643      	mov	r3, r8
 8002cce:	62bb      	str	r3, [r7, #40]	; 0x28
 8002cd0:	4643      	mov	r3, r8
 8002cd2:	17db      	asrs	r3, r3, #31
 8002cd4:	62fb      	str	r3, [r7, #44]	; 0x2c
 8002cd6:	6b39      	ldr	r1, [r7, #48]	; 0x30
 8002cd8:	6b7a      	ldr	r2, [r7, #52]	; 0x34
 8002cda:	6abb      	ldr	r3, [r7, #40]	; 0x28
 8002cdc:	6afc      	ldr	r4, [r7, #44]	; 0x2c
 8002cde:	1ac9      	subs	r1, r1, r3
 8002ce0:	41a2      	sbcs	r2, r4
 8002ce2:	2301      	movs	r3, #1
 8002ce4:	2400      	movs	r4, #0
 8002ce6:	18c9      	adds	r1, r1, r3
 8002ce8:	4162      	adcs	r2, r4
 8002cea:	63b9      	str	r1, [r7, #56]	; 0x38
 8002cec:	63fa      	str	r2, [r7, #60]	; 0x3c
 8002cee:	e003      	b.n	8002cf8 <stm32__i2c__master_transmit__2+0xb4>
 8002cf0:	2300      	movs	r3, #0
 8002cf2:	2400      	movs	r4, #0
 8002cf4:	63bb      	str	r3, [r7, #56]	; 0x38
 8002cf6:	63fc      	str	r4, [r7, #60]	; 0x3c
 8002cf8:	6f7b      	ldr	r3, [r7, #116]	; 0x74
 8002cfa:	0018      	movs	r0, r3
 8002cfc:	f7ff f9b4 	bl	8002068 <stm32__i2c__is_configured>
 8002d00:	0003      	movs	r3, r0
 8002d02:	001a      	movs	r2, r3
 8002d04:	2301      	movs	r3, #1
 8002d06:	4053      	eors	r3, r2
 8002d08:	b2db      	uxtb	r3, r3
 8002d0a:	2b00      	cmp	r3, #0
 8002d0c:	d007      	beq.n	8002d1e <stm32__i2c__master_transmit__2+0xda>
 8002d0e:	4bd2      	ldr	r3, [pc, #840]	; (8003058 <stm32__i2c__master_transmit__2+0x414>)
 8002d10:	603b      	str	r3, [r7, #0]
 8002d12:	4bd2      	ldr	r3, [pc, #840]	; (800305c <stm32__i2c__master_transmit__2+0x418>)
 8002d14:	607b      	str	r3, [r7, #4]
 8002d16:	6838      	ldr	r0, [r7, #0]
 8002d18:	6879      	ldr	r1, [r7, #4]
 8002d1a:	f005 ff3b 	bl	8008b94 <system__assertions__raise_assert_failure>
 8002d1e:	4653      	mov	r3, sl
 8002d20:	633b      	str	r3, [r7, #48]	; 0x30
 8002d22:	4643      	mov	r3, r8
 8002d24:	62bb      	str	r3, [r7, #40]	; 0x28
 8002d26:	2300      	movs	r3, #0
 8002d28:	228c      	movs	r2, #140	; 0x8c
 8002d2a:	18ba      	adds	r2, r7, r2
 8002d2c:	6013      	str	r3, [r2, #0]
 8002d2e:	2300      	movs	r3, #0
 8002d30:	2288      	movs	r2, #136	; 0x88
 8002d32:	18ba      	adds	r2, r7, r2
 8002d34:	6013      	str	r3, [r2, #0]
 8002d36:	2300      	movs	r3, #0
 8002d38:	2284      	movs	r2, #132	; 0x84
 8002d3a:	18ba      	adds	r2, r7, r2
 8002d3c:	6013      	str	r3, [r2, #0]
 8002d3e:	4643      	mov	r3, r8
 8002d40:	623b      	str	r3, [r7, #32]
 8002d42:	4643      	mov	r3, r8
 8002d44:	17db      	asrs	r3, r3, #31
 8002d46:	627b      	str	r3, [r7, #36]	; 0x24
 8002d48:	4bc5      	ldr	r3, [pc, #788]	; (8003060 <stm32__i2c__master_transmit__2+0x41c>)
 8002d4a:	2400      	movs	r4, #0
 8002d4c:	6a39      	ldr	r1, [r7, #32]
 8002d4e:	6a7a      	ldr	r2, [r7, #36]	; 0x24
 8002d50:	18c9      	adds	r1, r1, r3
 8002d52:	4162      	adcs	r2, r4
 8002d54:	000b      	movs	r3, r1
 8002d56:	0014      	movs	r4, r2
 8002d58:	464a      	mov	r2, r9
 8002d5a:	65ba      	str	r2, [r7, #88]	; 0x58
 8002d5c:	464a      	mov	r2, r9
 8002d5e:	17d2      	asrs	r2, r2, #31
 8002d60:	65fa      	str	r2, [r7, #92]	; 0x5c
 8002d62:	6dfa      	ldr	r2, [r7, #92]	; 0x5c
 8002d64:	42a2      	cmp	r2, r4
 8002d66:	dc05      	bgt.n	8002d74 <stm32__i2c__master_transmit__2+0x130>
 8002d68:	6dfa      	ldr	r2, [r7, #92]	; 0x5c
 8002d6a:	42a2      	cmp	r2, r4
 8002d6c:	d109      	bne.n	8002d82 <stm32__i2c__master_transmit__2+0x13e>
 8002d6e:	6dba      	ldr	r2, [r7, #88]	; 0x58
 8002d70:	429a      	cmp	r2, r3
 8002d72:	d906      	bls.n	8002d82 <stm32__i2c__master_transmit__2+0x13e>
 8002d74:	23eb      	movs	r3, #235	; 0xeb
 8002d76:	005a      	lsls	r2, r3, #1
 8002d78:	4bba      	ldr	r3, [pc, #744]	; (8003064 <stm32__i2c__master_transmit__2+0x420>)
 8002d7a:	0011      	movs	r1, r2
 8002d7c:	0018      	movs	r0, r3
 8002d7e:	f005 fcbb 	bl	80086f8 <__gnat_last_chance_handler>
 8002d82:	4653      	mov	r3, sl
 8002d84:	61bb      	str	r3, [r7, #24]
 8002d86:	4653      	mov	r3, sl
 8002d88:	17db      	asrs	r3, r3, #31
 8002d8a:	61fb      	str	r3, [r7, #28]
 8002d8c:	4bb4      	ldr	r3, [pc, #720]	; (8003060 <stm32__i2c__master_transmit__2+0x41c>)
 8002d8e:	2400      	movs	r4, #0
 8002d90:	69b9      	ldr	r1, [r7, #24]
 8002d92:	69fa      	ldr	r2, [r7, #28]
 8002d94:	18c9      	adds	r1, r1, r3
 8002d96:	4162      	adcs	r2, r4
 8002d98:	000b      	movs	r3, r1
 8002d9a:	0014      	movs	r4, r2
 8002d9c:	465a      	mov	r2, fp
 8002d9e:	653a      	str	r2, [r7, #80]	; 0x50
 8002da0:	465a      	mov	r2, fp
 8002da2:	17d2      	asrs	r2, r2, #31
 8002da4:	657a      	str	r2, [r7, #84]	; 0x54
 8002da6:	6d7a      	ldr	r2, [r7, #84]	; 0x54
 8002da8:	42a2      	cmp	r2, r4
 8002daa:	dc05      	bgt.n	8002db8 <stm32__i2c__master_transmit__2+0x174>
 8002dac:	6d7a      	ldr	r2, [r7, #84]	; 0x54
 8002dae:	42a2      	cmp	r2, r4
 8002db0:	d109      	bne.n	8002dc6 <stm32__i2c__master_transmit__2+0x182>
 8002db2:	6d3a      	ldr	r2, [r7, #80]	; 0x50
 8002db4:	429a      	cmp	r2, r3
 8002db6:	d906      	bls.n	8002dc6 <stm32__i2c__master_transmit__2+0x182>
 8002db8:	23eb      	movs	r3, #235	; 0xeb
 8002dba:	005a      	lsls	r2, r3, #1
 8002dbc:	4ba9      	ldr	r3, [pc, #676]	; (8003064 <stm32__i2c__master_transmit__2+0x420>)
 8002dbe:	0011      	movs	r1, r2
 8002dc0:	0018      	movs	r0, r3
 8002dc2:	f005 fc99 	bl	80086f8 <__gnat_last_chance_handler>
 8002dc6:	6bba      	ldr	r2, [r7, #56]	; 0x38
 8002dc8:	002b      	movs	r3, r5
 8002dca:	2400      	movs	r4, #0
 8002dcc:	18d0      	adds	r0, r2, r3
 8002dce:	405a      	eors	r2, r3
 8002dd0:	0011      	movs	r1, r2
 8002dd2:	4043      	eors	r3, r0
 8002dd4:	001a      	movs	r2, r3
 8002dd6:	43cb      	mvns	r3, r1
 8002dd8:	4013      	ands	r3, r2
 8002dda:	d500      	bpl.n	8002dde <stm32__i2c__master_transmit__2+0x19a>
 8002ddc:	2401      	movs	r4, #1
 8002dde:	0002      	movs	r2, r0
 8002de0:	1e23      	subs	r3, r4, #0
 8002de2:	d006      	beq.n	8002df2 <stm32__i2c__master_transmit__2+0x1ae>
 8002de4:	23eb      	movs	r3, #235	; 0xeb
 8002de6:	005a      	lsls	r2, r3, #1
 8002de8:	4b9e      	ldr	r3, [pc, #632]	; (8003064 <stm32__i2c__master_transmit__2+0x420>)
 8002dea:	0011      	movs	r1, r2
 8002dec:	0018      	movs	r0, r3
 8002dee:	f005 fc83 	bl	80086f8 <__gnat_last_chance_handler>
 8002df2:	0013      	movs	r3, r2
 8002df4:	67fb      	str	r3, [r7, #124]	; 0x7c
 8002df6:	6f7b      	ldr	r3, [r7, #116]	; 0x74
 8002df8:	685b      	ldr	r3, [r3, #4]
 8002dfa:	3318      	adds	r3, #24
 8002dfc:	681b      	ldr	r3, [r3, #0]
 8002dfe:	041b      	lsls	r3, r3, #16
 8002e00:	0e1b      	lsrs	r3, r3, #24
 8002e02:	b2da      	uxtb	r2, r3
 8002e04:	237f      	movs	r3, #127	; 0x7f
 8002e06:	439a      	bics	r2, r3
 8002e08:	0013      	movs	r3, r2
 8002e0a:	b2db      	uxtb	r3, r3
 8002e0c:	2b00      	cmp	r3, #0
 8002e0e:	d007      	beq.n	8002e20 <stm32__i2c__master_transmit__2+0x1dc>
 8002e10:	231b      	movs	r3, #27
 8002e12:	2260      	movs	r2, #96	; 0x60
 8002e14:	4694      	mov	ip, r2
 8002e16:	44bc      	add	ip, r7
 8002e18:	4463      	add	r3, ip
 8002e1a:	2203      	movs	r2, #3
 8002e1c:	701a      	strb	r2, [r3, #0]
 8002e1e:	e24f      	b.n	80032c0 <stm32__i2c__master_transmit__2+0x67c>
 8002e20:	2301      	movs	r3, #1
 8002e22:	45c8      	cmp	r8, r9
 8002e24:	dc00      	bgt.n	8002e28 <stm32__i2c__master_transmit__2+0x1e4>
 8002e26:	2300      	movs	r3, #0
 8002e28:	b2da      	uxtb	r2, r3
 8002e2a:	2301      	movs	r3, #1
 8002e2c:	45da      	cmp	sl, fp
 8002e2e:	dc00      	bgt.n	8002e32 <stm32__i2c__master_transmit__2+0x1ee>
 8002e30:	2300      	movs	r3, #0
 8002e32:	b2db      	uxtb	r3, r3
 8002e34:	4313      	orrs	r3, r2
 8002e36:	b2db      	uxtb	r3, r3
 8002e38:	2b00      	cmp	r3, #0
 8002e3a:	d007      	beq.n	8002e4c <stm32__i2c__master_transmit__2+0x208>
 8002e3c:	231b      	movs	r3, #27
 8002e3e:	2260      	movs	r2, #96	; 0x60
 8002e40:	4694      	mov	ip, r2
 8002e42:	44bc      	add	ip, r7
 8002e44:	4463      	add	r3, ip
 8002e46:	2201      	movs	r2, #1
 8002e48:	701a      	strb	r2, [r3, #0]
 8002e4a:	e239      	b.n	80032c0 <stm32__i2c__master_transmit__2+0x67c>
 8002e4c:	6f7b      	ldr	r3, [r7, #116]	; 0x74
 8002e4e:	7d1b      	ldrb	r3, [r3, #20]
 8002e50:	2b01      	cmp	r3, #1
 8002e52:	d007      	beq.n	8002e64 <stm32__i2c__master_transmit__2+0x220>
 8002e54:	231b      	movs	r3, #27
 8002e56:	2260      	movs	r2, #96	; 0x60
 8002e58:	4694      	mov	ip, r2
 8002e5a:	44bc      	add	ip, r7
 8002e5c:	4463      	add	r3, ip
 8002e5e:	2203      	movs	r2, #3
 8002e60:	701a      	strb	r2, [r3, #0]
 8002e62:	e22d      	b.n	80032c0 <stm32__i2c__master_transmit__2+0x67c>
 8002e64:	6f7a      	ldr	r2, [r7, #116]	; 0x74
 8002e66:	2302      	movs	r3, #2
 8002e68:	7513      	strb	r3, [r2, #20]
 8002e6a:	6ffb      	ldr	r3, [r7, #124]	; 0x7c
 8002e6c:	2bff      	cmp	r3, #255	; 0xff
 8002e6e:	dd11      	ble.n	8002e94 <stm32__i2c__master_transmit__2+0x250>
 8002e70:	2312      	movs	r3, #18
 8002e72:	2260      	movs	r2, #96	; 0x60
 8002e74:	4694      	mov	ip, r2
 8002e76:	44bc      	add	ip, r7
 8002e78:	4463      	add	r3, ip
 8002e7a:	8819      	ldrh	r1, [r3, #0]
 8002e7c:	6f78      	ldr	r0, [r7, #116]	; 0x74
 8002e7e:	2303      	movs	r3, #3
 8002e80:	9300      	str	r3, [sp, #0]
 8002e82:	2300      	movs	r3, #0
 8002e84:	22ff      	movs	r2, #255	; 0xff
 8002e86:	f7ff f8fd 	bl	8002084 <stm32__i2c__config_transfer>
 8002e8a:	23ff      	movs	r3, #255	; 0xff
 8002e8c:	228c      	movs	r2, #140	; 0x8c
 8002e8e:	18ba      	adds	r2, r7, r2
 8002e90:	6013      	str	r3, [r2, #0]
 8002e92:	e01c      	b.n	8002ece <stm32__i2c__master_transmit__2+0x28a>
 8002e94:	6ffb      	ldr	r3, [r7, #124]	; 0x7c
 8002e96:	2bff      	cmp	r3, #255	; 0xff
 8002e98:	dd07      	ble.n	8002eaa <stm32__i2c__master_transmit__2+0x266>
 8002e9a:	23f2      	movs	r3, #242	; 0xf2
 8002e9c:	33ff      	adds	r3, #255	; 0xff
 8002e9e:	001a      	movs	r2, r3
 8002ea0:	4b70      	ldr	r3, [pc, #448]	; (8003064 <stm32__i2c__master_transmit__2+0x420>)
 8002ea2:	0011      	movs	r1, r2
 8002ea4:	0018      	movs	r0, r3
 8002ea6:	f005 fc27 	bl	80086f8 <__gnat_last_chance_handler>
 8002eaa:	6ffb      	ldr	r3, [r7, #124]	; 0x7c
 8002eac:	b2da      	uxtb	r2, r3
 8002eae:	2312      	movs	r3, #18
 8002eb0:	2160      	movs	r1, #96	; 0x60
 8002eb2:	468c      	mov	ip, r1
 8002eb4:	44bc      	add	ip, r7
 8002eb6:	4463      	add	r3, ip
 8002eb8:	8819      	ldrh	r1, [r3, #0]
 8002eba:	6f78      	ldr	r0, [r7, #116]	; 0x74
 8002ebc:	2303      	movs	r3, #3
 8002ebe:	9300      	str	r3, [sp, #0]
 8002ec0:	2301      	movs	r3, #1
 8002ec2:	f7ff f8df 	bl	8002084 <stm32__i2c__config_transfer>
 8002ec6:	6ffb      	ldr	r3, [r7, #124]	; 0x7c
 8002ec8:	228c      	movs	r2, #140	; 0x8c
 8002eca:	18ba      	adds	r2, r7, r2
 8002ecc:	6013      	str	r3, [r2, #0]
 8002ece:	2388      	movs	r3, #136	; 0x88
 8002ed0:	18fb      	adds	r3, r7, r3
 8002ed2:	681a      	ldr	r2, [r3, #0]
 8002ed4:	6ffb      	ldr	r3, [r7, #124]	; 0x7c
 8002ed6:	429a      	cmp	r2, r3
 8002ed8:	db00      	blt.n	8002edc <stm32__i2c__master_transmit__2+0x298>
 8002eda:	e1c9      	b.n	8003270 <stm32__i2c__master_transmit__2+0x62c>
 8002edc:	23c0      	movs	r3, #192	; 0xc0
 8002ede:	18fb      	adds	r3, r7, r3
 8002ee0:	681a      	ldr	r2, [r3, #0]
 8002ee2:	6f7b      	ldr	r3, [r7, #116]	; 0x74
 8002ee4:	0011      	movs	r1, r2
 8002ee6:	0018      	movs	r0, r3
 8002ee8:	f7ff fa40 	bl	800236c <stm32__i2c__wait_tx_interrupt_status>
 8002eec:	0003      	movs	r3, r0
 8002eee:	211b      	movs	r1, #27
 8002ef0:	2060      	movs	r0, #96	; 0x60
 8002ef2:	183a      	adds	r2, r7, r0
 8002ef4:	1852      	adds	r2, r2, r1
 8002ef6:	7013      	strb	r3, [r2, #0]
 8002ef8:	183b      	adds	r3, r7, r0
 8002efa:	185b      	adds	r3, r3, r1
 8002efc:	781b      	ldrb	r3, [r3, #0]
 8002efe:	2b00      	cmp	r3, #0
 8002f00:	d000      	beq.n	8002f04 <stm32__i2c__master_transmit__2+0x2c0>
 8002f02:	e1d8      	b.n	80032b6 <stm32__i2c__master_transmit__2+0x672>
 8002f04:	4643      	mov	r3, r8
 8002f06:	613b      	str	r3, [r7, #16]
 8002f08:	4643      	mov	r3, r8
 8002f0a:	17db      	asrs	r3, r3, #31
 8002f0c:	617b      	str	r3, [r7, #20]
 8002f0e:	4b54      	ldr	r3, [pc, #336]	; (8003060 <stm32__i2c__master_transmit__2+0x41c>)
 8002f10:	2400      	movs	r4, #0
 8002f12:	6939      	ldr	r1, [r7, #16]
 8002f14:	697a      	ldr	r2, [r7, #20]
 8002f16:	185b      	adds	r3, r3, r1
 8002f18:	4154      	adcs	r4, r2
 8002f1a:	464a      	mov	r2, r9
 8002f1c:	64ba      	str	r2, [r7, #72]	; 0x48
 8002f1e:	464a      	mov	r2, r9
 8002f20:	17d2      	asrs	r2, r2, #31
 8002f22:	64fa      	str	r2, [r7, #76]	; 0x4c
 8002f24:	6cfa      	ldr	r2, [r7, #76]	; 0x4c
 8002f26:	42a2      	cmp	r2, r4
 8002f28:	dc05      	bgt.n	8002f36 <stm32__i2c__master_transmit__2+0x2f2>
 8002f2a:	6cfa      	ldr	r2, [r7, #76]	; 0x4c
 8002f2c:	42a2      	cmp	r2, r4
 8002f2e:	d10a      	bne.n	8002f46 <stm32__i2c__master_transmit__2+0x302>
 8002f30:	6cba      	ldr	r2, [r7, #72]	; 0x48
 8002f32:	429a      	cmp	r2, r3
 8002f34:	d907      	bls.n	8002f46 <stm32__i2c__master_transmit__2+0x302>
 8002f36:	23fe      	movs	r3, #254	; 0xfe
 8002f38:	33ff      	adds	r3, #255	; 0xff
 8002f3a:	001a      	movs	r2, r3
 8002f3c:	4b49      	ldr	r3, [pc, #292]	; (8003064 <stm32__i2c__master_transmit__2+0x420>)
 8002f3e:	0011      	movs	r1, r2
 8002f40:	0018      	movs	r0, r3
 8002f42:	f005 fbd9 	bl	80086f8 <__gnat_last_chance_handler>
 8002f46:	6bba      	ldr	r2, [r7, #56]	; 0x38
 8002f48:	2388      	movs	r3, #136	; 0x88
 8002f4a:	18fb      	adds	r3, r7, r3
 8002f4c:	681b      	ldr	r3, [r3, #0]
 8002f4e:	4293      	cmp	r3, r2
 8002f50:	da32      	bge.n	8002fb8 <stm32__i2c__master_transmit__2+0x374>
 8002f52:	2400      	movs	r4, #0
 8002f54:	2288      	movs	r2, #136	; 0x88
 8002f56:	18bb      	adds	r3, r7, r2
 8002f58:	681b      	ldr	r3, [r3, #0]
 8002f5a:	4443      	add	r3, r8
 8002f5c:	0018      	movs	r0, r3
 8002f5e:	18bb      	adds	r3, r7, r2
 8002f60:	681b      	ldr	r3, [r3, #0]
 8002f62:	4641      	mov	r1, r8
 8002f64:	4059      	eors	r1, r3
 8002f66:	18bb      	adds	r3, r7, r2
 8002f68:	681b      	ldr	r3, [r3, #0]
 8002f6a:	4043      	eors	r3, r0
 8002f6c:	001a      	movs	r2, r3
 8002f6e:	43cb      	mvns	r3, r1
 8002f70:	4013      	ands	r3, r2
 8002f72:	d500      	bpl.n	8002f76 <stm32__i2c__master_transmit__2+0x332>
 8002f74:	2401      	movs	r4, #1
 8002f76:	0002      	movs	r2, r0
 8002f78:	1e23      	subs	r3, r4, #0
 8002f7a:	d006      	beq.n	8002f8a <stm32__i2c__master_transmit__2+0x346>
 8002f7c:	23ff      	movs	r3, #255	; 0xff
 8002f7e:	005a      	lsls	r2, r3, #1
 8002f80:	4b38      	ldr	r3, [pc, #224]	; (8003064 <stm32__i2c__master_transmit__2+0x420>)
 8002f82:	0011      	movs	r1, r2
 8002f84:	0018      	movs	r0, r3
 8002f86:	f005 fbb7 	bl	80086f8 <__gnat_last_chance_handler>
 8002f8a:	0013      	movs	r3, r2
 8002f8c:	4598      	cmp	r8, r3
 8002f8e:	dc01      	bgt.n	8002f94 <stm32__i2c__master_transmit__2+0x350>
 8002f90:	4599      	cmp	r9, r3
 8002f92:	da06      	bge.n	8002fa2 <stm32__i2c__master_transmit__2+0x35e>
 8002f94:	23ff      	movs	r3, #255	; 0xff
 8002f96:	005a      	lsls	r2, r3, #1
 8002f98:	4b32      	ldr	r3, [pc, #200]	; (8003064 <stm32__i2c__master_transmit__2+0x420>)
 8002f9a:	0011      	movs	r1, r2
 8002f9c:	0018      	movs	r0, r3
 8002f9e:	f005 fbab 	bl	80086f8 <__gnat_last_chance_handler>
 8002fa2:	6eb9      	ldr	r1, [r7, #104]	; 0x68
 8002fa4:	2223      	movs	r2, #35	; 0x23
 8002fa6:	2060      	movs	r0, #96	; 0x60
 8002fa8:	4684      	mov	ip, r0
 8002faa:	44bc      	add	ip, r7
 8002fac:	4462      	add	r2, ip
 8002fae:	6ab8      	ldr	r0, [r7, #40]	; 0x28
 8002fb0:	1a1b      	subs	r3, r3, r0
 8002fb2:	5ccb      	ldrb	r3, [r1, r3]
 8002fb4:	7013      	strb	r3, [r2, #0]
 8002fb6:	e06d      	b.n	8003094 <stm32__i2c__master_transmit__2+0x450>
 8002fb8:	4643      	mov	r3, r8
 8002fba:	60bb      	str	r3, [r7, #8]
 8002fbc:	4643      	mov	r3, r8
 8002fbe:	17db      	asrs	r3, r3, #31
 8002fc0:	60fb      	str	r3, [r7, #12]
 8002fc2:	4b27      	ldr	r3, [pc, #156]	; (8003060 <stm32__i2c__master_transmit__2+0x41c>)
 8002fc4:	2400      	movs	r4, #0
 8002fc6:	68b9      	ldr	r1, [r7, #8]
 8002fc8:	68fa      	ldr	r2, [r7, #12]
 8002fca:	185b      	adds	r3, r3, r1
 8002fcc:	4154      	adcs	r4, r2
 8002fce:	464a      	mov	r2, r9
 8002fd0:	643a      	str	r2, [r7, #64]	; 0x40
 8002fd2:	464a      	mov	r2, r9
 8002fd4:	17d2      	asrs	r2, r2, #31
 8002fd6:	647a      	str	r2, [r7, #68]	; 0x44
 8002fd8:	6c7a      	ldr	r2, [r7, #68]	; 0x44
 8002fda:	42a2      	cmp	r2, r4
 8002fdc:	dc05      	bgt.n	8002fea <stm32__i2c__master_transmit__2+0x3a6>
 8002fde:	6c7a      	ldr	r2, [r7, #68]	; 0x44
 8002fe0:	42a2      	cmp	r2, r4
 8002fe2:	d109      	bne.n	8002ff8 <stm32__i2c__master_transmit__2+0x3b4>
 8002fe4:	6c3a      	ldr	r2, [r7, #64]	; 0x40
 8002fe6:	429a      	cmp	r2, r3
 8002fe8:	d906      	bls.n	8002ff8 <stm32__i2c__master_transmit__2+0x3b4>
 8002fea:	2380      	movs	r3, #128	; 0x80
 8002fec:	009a      	lsls	r2, r3, #2
 8002fee:	4b1d      	ldr	r3, [pc, #116]	; (8003064 <stm32__i2c__master_transmit__2+0x420>)
 8002ff0:	0011      	movs	r1, r2
 8002ff2:	0018      	movs	r0, r3
 8002ff4:	f005 fb80 	bl	80086f8 <__gnat_last_chance_handler>
 8002ff8:	6bba      	ldr	r2, [r7, #56]	; 0x38
 8002ffa:	2400      	movs	r4, #0
 8002ffc:	2188      	movs	r1, #136	; 0x88
 8002ffe:	187b      	adds	r3, r7, r1
 8003000:	681b      	ldr	r3, [r3, #0]
 8003002:	1a98      	subs	r0, r3, r2
 8003004:	187b      	adds	r3, r7, r1
 8003006:	681b      	ldr	r3, [r3, #0]
 8003008:	4053      	eors	r3, r2
 800300a:	0019      	movs	r1, r3
 800300c:	0013      	movs	r3, r2
 800300e:	4043      	eors	r3, r0
 8003010:	43db      	mvns	r3, r3
 8003012:	400b      	ands	r3, r1
 8003014:	d500      	bpl.n	8003018 <stm32__i2c__master_transmit__2+0x3d4>
 8003016:	2401      	movs	r4, #1
 8003018:	0002      	movs	r2, r0
 800301a:	1e23      	subs	r3, r4, #0
 800301c:	d006      	beq.n	800302c <stm32__i2c__master_transmit__2+0x3e8>
 800301e:	2380      	movs	r3, #128	; 0x80
 8003020:	009a      	lsls	r2, r3, #2
 8003022:	4b10      	ldr	r3, [pc, #64]	; (8003064 <stm32__i2c__master_transmit__2+0x420>)
 8003024:	0011      	movs	r1, r2
 8003026:	0018      	movs	r0, r3
 8003028:	f005 fb66 	bl	80086f8 <__gnat_last_chance_handler>
 800302c:	0013      	movs	r3, r2
 800302e:	2400      	movs	r4, #0
 8003030:	4652      	mov	r2, sl
 8003032:	18d0      	adds	r0, r2, r3
 8003034:	4651      	mov	r1, sl
 8003036:	4059      	eors	r1, r3
 8003038:	4043      	eors	r3, r0
 800303a:	001a      	movs	r2, r3
 800303c:	43cb      	mvns	r3, r1
 800303e:	4013      	ands	r3, r2
 8003040:	d500      	bpl.n	8003044 <stm32__i2c__master_transmit__2+0x400>
 8003042:	2401      	movs	r4, #1
 8003044:	0002      	movs	r2, r0
 8003046:	1e23      	subs	r3, r4, #0
 8003048:	d00e      	beq.n	8003068 <stm32__i2c__master_transmit__2+0x424>
 800304a:	2380      	movs	r3, #128	; 0x80
 800304c:	009a      	lsls	r2, r3, #2
 800304e:	4b05      	ldr	r3, [pc, #20]	; (8003064 <stm32__i2c__master_transmit__2+0x420>)
 8003050:	0011      	movs	r1, r2
 8003052:	0018      	movs	r0, r3
 8003054:	f005 fb50 	bl	80086f8 <__gnat_last_chance_handler>
 8003058:	0800981c 	.word	0x0800981c
 800305c:	080097d8 	.word	0x080097d8
 8003060:	7ffffffe 	.word	0x7ffffffe
 8003064:	080097e0 	.word	0x080097e0
 8003068:	0013      	movs	r3, r2
 800306a:	459a      	cmp	sl, r3
 800306c:	dc01      	bgt.n	8003072 <stm32__i2c__master_transmit__2+0x42e>
 800306e:	459b      	cmp	fp, r3
 8003070:	da06      	bge.n	8003080 <stm32__i2c__master_transmit__2+0x43c>
 8003072:	2380      	movs	r3, #128	; 0x80
 8003074:	009a      	lsls	r2, r3, #2
 8003076:	4b9a      	ldr	r3, [pc, #616]	; (80032e0 <stm32__i2c__master_transmit__2+0x69c>)
 8003078:	0011      	movs	r1, r2
 800307a:	0018      	movs	r0, r3
 800307c:	f005 fb3c 	bl	80086f8 <__gnat_last_chance_handler>
 8003080:	6e39      	ldr	r1, [r7, #96]	; 0x60
 8003082:	2223      	movs	r2, #35	; 0x23
 8003084:	2060      	movs	r0, #96	; 0x60
 8003086:	4684      	mov	ip, r0
 8003088:	44bc      	add	ip, r7
 800308a:	4462      	add	r2, ip
 800308c:	6b38      	ldr	r0, [r7, #48]	; 0x30
 800308e:	1a1b      	subs	r3, r3, r0
 8003090:	5ccb      	ldrb	r3, [r1, r3]
 8003092:	7013      	strb	r3, [r2, #0]
 8003094:	6f7b      	ldr	r3, [r7, #116]	; 0x74
 8003096:	685b      	ldr	r3, [r3, #4]
 8003098:	3328      	adds	r3, #40	; 0x28
 800309a:	681b      	ldr	r3, [r3, #0]
 800309c:	0019      	movs	r1, r3
 800309e:	2323      	movs	r3, #35	; 0x23
 80030a0:	2260      	movs	r2, #96	; 0x60
 80030a2:	4694      	mov	ip, r2
 80030a4:	44bc      	add	ip, r7
 80030a6:	4463      	add	r3, ip
 80030a8:	781a      	ldrb	r2, [r3, #0]
 80030aa:	23ff      	movs	r3, #255	; 0xff
 80030ac:	4399      	bics	r1, r3
 80030ae:	000b      	movs	r3, r1
 80030b0:	4313      	orrs	r3, r2
 80030b2:	0019      	movs	r1, r3
 80030b4:	6f7b      	ldr	r3, [r7, #116]	; 0x74
 80030b6:	685b      	ldr	r3, [r3, #4]
 80030b8:	3328      	adds	r3, #40	; 0x28
 80030ba:	000a      	movs	r2, r1
 80030bc:	601a      	str	r2, [r3, #0]
 80030be:	2388      	movs	r3, #136	; 0x88
 80030c0:	18fb      	adds	r3, r7, r3
 80030c2:	681a      	ldr	r2, [r3, #0]
 80030c4:	4b87      	ldr	r3, [pc, #540]	; (80032e4 <stm32__i2c__master_transmit__2+0x6a0>)
 80030c6:	429a      	cmp	r2, r3
 80030c8:	d106      	bne.n	80030d8 <stm32__i2c__master_transmit__2+0x494>
 80030ca:	2381      	movs	r3, #129	; 0x81
 80030cc:	009a      	lsls	r2, r3, #2
 80030ce:	4b84      	ldr	r3, [pc, #528]	; (80032e0 <stm32__i2c__master_transmit__2+0x69c>)
 80030d0:	0011      	movs	r1, r2
 80030d2:	0018      	movs	r0, r3
 80030d4:	f005 fb10 	bl	80086f8 <__gnat_last_chance_handler>
 80030d8:	2288      	movs	r2, #136	; 0x88
 80030da:	18bb      	adds	r3, r7, r2
 80030dc:	681b      	ldr	r3, [r3, #0]
 80030de:	3301      	adds	r3, #1
 80030e0:	18ba      	adds	r2, r7, r2
 80030e2:	6013      	str	r3, [r2, #0]
 80030e4:	2384      	movs	r3, #132	; 0x84
 80030e6:	18fb      	adds	r3, r7, r3
 80030e8:	681a      	ldr	r2, [r3, #0]
 80030ea:	4b7e      	ldr	r3, [pc, #504]	; (80032e4 <stm32__i2c__master_transmit__2+0x6a0>)
 80030ec:	429a      	cmp	r2, r3
 80030ee:	d105      	bne.n	80030fc <stm32__i2c__master_transmit__2+0x4b8>
 80030f0:	4a7d      	ldr	r2, [pc, #500]	; (80032e8 <stm32__i2c__master_transmit__2+0x6a4>)
 80030f2:	4b7b      	ldr	r3, [pc, #492]	; (80032e0 <stm32__i2c__master_transmit__2+0x69c>)
 80030f4:	0011      	movs	r1, r2
 80030f6:	0018      	movs	r0, r3
 80030f8:	f005 fafe 	bl	80086f8 <__gnat_last_chance_handler>
 80030fc:	2284      	movs	r2, #132	; 0x84
 80030fe:	18bb      	adds	r3, r7, r2
 8003100:	681b      	ldr	r3, [r3, #0]
 8003102:	3301      	adds	r3, #1
 8003104:	18b9      	adds	r1, r7, r2
 8003106:	600b      	str	r3, [r1, #0]
 8003108:	18bb      	adds	r3, r7, r2
 800310a:	681a      	ldr	r2, [r3, #0]
 800310c:	238c      	movs	r3, #140	; 0x8c
 800310e:	18fb      	adds	r3, r7, r3
 8003110:	681b      	ldr	r3, [r3, #0]
 8003112:	429a      	cmp	r2, r3
 8003114:	d000      	beq.n	8003118 <stm32__i2c__master_transmit__2+0x4d4>
 8003116:	e6da      	b.n	8002ece <stm32__i2c__master_transmit__2+0x28a>
 8003118:	2388      	movs	r3, #136	; 0x88
 800311a:	18fb      	adds	r3, r7, r3
 800311c:	681a      	ldr	r2, [r3, #0]
 800311e:	6ffb      	ldr	r3, [r7, #124]	; 0x7c
 8003120:	429a      	cmp	r2, r3
 8003122:	db00      	blt.n	8003126 <stm32__i2c__master_transmit__2+0x4e2>
 8003124:	e6d3      	b.n	8002ece <stm32__i2c__master_transmit__2+0x28a>
 8003126:	23c0      	movs	r3, #192	; 0xc0
 8003128:	18fb      	adds	r3, r7, r3
 800312a:	681a      	ldr	r2, [r3, #0]
 800312c:	6f7b      	ldr	r3, [r7, #116]	; 0x74
 800312e:	0011      	movs	r1, r2
 8003130:	0018      	movs	r0, r3
 8003132:	f7ff f97f 	bl	8002434 <stm32__i2c__wait_transfer_complete_reset_flag>
 8003136:	0003      	movs	r3, r0
 8003138:	211b      	movs	r1, #27
 800313a:	2060      	movs	r0, #96	; 0x60
 800313c:	183a      	adds	r2, r7, r0
 800313e:	1852      	adds	r2, r2, r1
 8003140:	7013      	strb	r3, [r2, #0]
 8003142:	183b      	adds	r3, r7, r0
 8003144:	185b      	adds	r3, r3, r1
 8003146:	781b      	ldrb	r3, [r3, #0]
 8003148:	2b00      	cmp	r3, #0
 800314a:	d000      	beq.n	800314e <stm32__i2c__master_transmit__2+0x50a>
 800314c:	e0b5      	b.n	80032ba <stm32__i2c__master_transmit__2+0x676>
 800314e:	2300      	movs	r3, #0
 8003150:	2284      	movs	r2, #132	; 0x84
 8003152:	18ba      	adds	r2, r7, r2
 8003154:	6013      	str	r3, [r2, #0]
 8003156:	2000      	movs	r0, #0
 8003158:	6ffa      	ldr	r2, [r7, #124]	; 0x7c
 800315a:	2488      	movs	r4, #136	; 0x88
 800315c:	193b      	adds	r3, r7, r4
 800315e:	681b      	ldr	r3, [r3, #0]
 8003160:	1ad1      	subs	r1, r2, r3
 8003162:	6ffa      	ldr	r2, [r7, #124]	; 0x7c
 8003164:	193b      	adds	r3, r7, r4
 8003166:	681b      	ldr	r3, [r3, #0]
 8003168:	405a      	eors	r2, r3
 800316a:	193b      	adds	r3, r7, r4
 800316c:	681b      	ldr	r3, [r3, #0]
 800316e:	404b      	eors	r3, r1
 8003170:	43db      	mvns	r3, r3
 8003172:	4013      	ands	r3, r2
 8003174:	d500      	bpl.n	8003178 <stm32__i2c__master_transmit__2+0x534>
 8003176:	2001      	movs	r0, #1
 8003178:	000a      	movs	r2, r1
 800317a:	1e03      	subs	r3, r0, #0
 800317c:	d006      	beq.n	800318c <stm32__i2c__master_transmit__2+0x548>
 800317e:	2384      	movs	r3, #132	; 0x84
 8003180:	009a      	lsls	r2, r3, #2
 8003182:	4b57      	ldr	r3, [pc, #348]	; (80032e0 <stm32__i2c__master_transmit__2+0x69c>)
 8003184:	0011      	movs	r1, r2
 8003186:	0018      	movs	r0, r3
 8003188:	f005 fab6 	bl	80086f8 <__gnat_last_chance_handler>
 800318c:	2301      	movs	r3, #1
 800318e:	2aff      	cmp	r2, #255	; 0xff
 8003190:	dc00      	bgt.n	8003194 <stm32__i2c__master_transmit__2+0x550>
 8003192:	2300      	movs	r3, #0
 8003194:	b2db      	uxtb	r3, r3
 8003196:	2b00      	cmp	r3, #0
 8003198:	d011      	beq.n	80031be <stm32__i2c__master_transmit__2+0x57a>
 800319a:	2312      	movs	r3, #18
 800319c:	2260      	movs	r2, #96	; 0x60
 800319e:	4694      	mov	ip, r2
 80031a0:	44bc      	add	ip, r7
 80031a2:	4463      	add	r3, ip
 80031a4:	8819      	ldrh	r1, [r3, #0]
 80031a6:	6f78      	ldr	r0, [r7, #116]	; 0x74
 80031a8:	2300      	movs	r3, #0
 80031aa:	9300      	str	r3, [sp, #0]
 80031ac:	2300      	movs	r3, #0
 80031ae:	22ff      	movs	r2, #255	; 0xff
 80031b0:	f7fe ff68 	bl	8002084 <stm32__i2c__config_transfer>
 80031b4:	23ff      	movs	r3, #255	; 0xff
 80031b6:	228c      	movs	r2, #140	; 0x8c
 80031b8:	18ba      	adds	r2, r7, r2
 80031ba:	6013      	str	r3, [r2, #0]
 80031bc:	e687      	b.n	8002ece <stm32__i2c__master_transmit__2+0x28a>
 80031be:	2000      	movs	r0, #0
 80031c0:	6ffa      	ldr	r2, [r7, #124]	; 0x7c
 80031c2:	2488      	movs	r4, #136	; 0x88
 80031c4:	193b      	adds	r3, r7, r4
 80031c6:	681b      	ldr	r3, [r3, #0]
 80031c8:	1ad1      	subs	r1, r2, r3
 80031ca:	6ffa      	ldr	r2, [r7, #124]	; 0x7c
 80031cc:	193b      	adds	r3, r7, r4
 80031ce:	681b      	ldr	r3, [r3, #0]
 80031d0:	405a      	eors	r2, r3
 80031d2:	193b      	adds	r3, r7, r4
 80031d4:	681b      	ldr	r3, [r3, #0]
 80031d6:	404b      	eors	r3, r1
 80031d8:	43db      	mvns	r3, r3
 80031da:	4013      	ands	r3, r2
 80031dc:	d500      	bpl.n	80031e0 <stm32__i2c__master_transmit__2+0x59c>
 80031de:	2001      	movs	r0, #1
 80031e0:	000a      	movs	r2, r1
 80031e2:	1e03      	subs	r3, r0, #0
 80031e4:	d005      	beq.n	80031f2 <stm32__i2c__master_transmit__2+0x5ae>
 80031e6:	4a41      	ldr	r2, [pc, #260]	; (80032ec <stm32__i2c__master_transmit__2+0x6a8>)
 80031e8:	4b3d      	ldr	r3, [pc, #244]	; (80032e0 <stm32__i2c__master_transmit__2+0x69c>)
 80031ea:	0011      	movs	r1, r2
 80031ec:	0018      	movs	r0, r3
 80031ee:	f005 fa83 	bl	80086f8 <__gnat_last_chance_handler>
 80031f2:	1e13      	subs	r3, r2, #0
 80031f4:	db01      	blt.n	80031fa <stm32__i2c__master_transmit__2+0x5b6>
 80031f6:	2bff      	cmp	r3, #255	; 0xff
 80031f8:	dd05      	ble.n	8003206 <stm32__i2c__master_transmit__2+0x5c2>
 80031fa:	4a3c      	ldr	r2, [pc, #240]	; (80032ec <stm32__i2c__master_transmit__2+0x6a8>)
 80031fc:	4b38      	ldr	r3, [pc, #224]	; (80032e0 <stm32__i2c__master_transmit__2+0x69c>)
 80031fe:	0011      	movs	r1, r2
 8003200:	0018      	movs	r0, r3
 8003202:	f005 fa79 	bl	80086f8 <__gnat_last_chance_handler>
 8003206:	b2da      	uxtb	r2, r3
 8003208:	2312      	movs	r3, #18
 800320a:	2160      	movs	r1, #96	; 0x60
 800320c:	468c      	mov	ip, r1
 800320e:	44bc      	add	ip, r7
 8003210:	4463      	add	r3, ip
 8003212:	8819      	ldrh	r1, [r3, #0]
 8003214:	6f78      	ldr	r0, [r7, #116]	; 0x74
 8003216:	2300      	movs	r3, #0
 8003218:	9300      	str	r3, [sp, #0]
 800321a:	2301      	movs	r3, #1
 800321c:	f7fe ff32 	bl	8002084 <stm32__i2c__config_transfer>
 8003220:	2000      	movs	r0, #0
 8003222:	6ffa      	ldr	r2, [r7, #124]	; 0x7c
 8003224:	2488      	movs	r4, #136	; 0x88
 8003226:	193b      	adds	r3, r7, r4
 8003228:	681b      	ldr	r3, [r3, #0]
 800322a:	1ad1      	subs	r1, r2, r3
 800322c:	6ffa      	ldr	r2, [r7, #124]	; 0x7c
 800322e:	193b      	adds	r3, r7, r4
 8003230:	681b      	ldr	r3, [r3, #0]
 8003232:	405a      	eors	r2, r3
 8003234:	193b      	adds	r3, r7, r4
 8003236:	681b      	ldr	r3, [r3, #0]
 8003238:	404b      	eors	r3, r1
 800323a:	43db      	mvns	r3, r3
 800323c:	4013      	ands	r3, r2
 800323e:	d500      	bpl.n	8003242 <stm32__i2c__master_transmit__2+0x5fe>
 8003240:	2001      	movs	r0, #1
 8003242:	000a      	movs	r2, r1
 8003244:	1e03      	subs	r3, r0, #0
 8003246:	d006      	beq.n	8003256 <stm32__i2c__master_transmit__2+0x612>
 8003248:	2386      	movs	r3, #134	; 0x86
 800324a:	009a      	lsls	r2, r3, #2
 800324c:	4b24      	ldr	r3, [pc, #144]	; (80032e0 <stm32__i2c__master_transmit__2+0x69c>)
 800324e:	0011      	movs	r1, r2
 8003250:	0018      	movs	r0, r3
 8003252:	f005 fa51 	bl	80086f8 <__gnat_last_chance_handler>
 8003256:	1e13      	subs	r3, r2, #0
 8003258:	da06      	bge.n	8003268 <stm32__i2c__master_transmit__2+0x624>
 800325a:	2386      	movs	r3, #134	; 0x86
 800325c:	009a      	lsls	r2, r3, #2
 800325e:	4b20      	ldr	r3, [pc, #128]	; (80032e0 <stm32__i2c__master_transmit__2+0x69c>)
 8003260:	0011      	movs	r1, r2
 8003262:	0018      	movs	r0, r3
 8003264:	f005 fa48 	bl	80086f8 <__gnat_last_chance_handler>
 8003268:	228c      	movs	r2, #140	; 0x8c
 800326a:	18ba      	adds	r2, r7, r2
 800326c:	6013      	str	r3, [r2, #0]
 800326e:	e62e      	b.n	8002ece <stm32__i2c__master_transmit__2+0x28a>
 8003270:	23c0      	movs	r3, #192	; 0xc0
 8003272:	18fb      	adds	r3, r7, r3
 8003274:	681a      	ldr	r2, [r3, #0]
 8003276:	6f7b      	ldr	r3, [r7, #116]	; 0x74
 8003278:	0011      	movs	r1, r2
 800327a:	0018      	movs	r0, r3
 800327c:	f7ff f926 	bl	80024cc <stm32__i2c__wait_stop_flag>
 8003280:	0003      	movs	r3, r0
 8003282:	001a      	movs	r2, r3
 8003284:	211b      	movs	r1, #27
 8003286:	2060      	movs	r0, #96	; 0x60
 8003288:	183b      	adds	r3, r7, r0
 800328a:	185b      	adds	r3, r3, r1
 800328c:	701a      	strb	r2, [r3, #0]
 800328e:	183b      	adds	r3, r7, r0
 8003290:	185b      	adds	r3, r3, r1
 8003292:	781b      	ldrb	r3, [r3, #0]
 8003294:	2b00      	cmp	r3, #0
 8003296:	d112      	bne.n	80032be <stm32__i2c__master_transmit__2+0x67a>
 8003298:	6f7b      	ldr	r3, [r7, #116]	; 0x74
 800329a:	0018      	movs	r0, r3
 800329c:	f7fe ff98 	bl	80021d0 <stm32__i2c__reset_config>
 80032a0:	6f7b      	ldr	r3, [r7, #116]	; 0x74
 80032a2:	2201      	movs	r2, #1
 80032a4:	751a      	strb	r2, [r3, #20]
 80032a6:	231b      	movs	r3, #27
 80032a8:	2260      	movs	r2, #96	; 0x60
 80032aa:	4694      	mov	ip, r2
 80032ac:	44bc      	add	ip, r7
 80032ae:	4463      	add	r3, ip
 80032b0:	2200      	movs	r2, #0
 80032b2:	701a      	strb	r2, [r3, #0]
 80032b4:	e004      	b.n	80032c0 <stm32__i2c__master_transmit__2+0x67c>
 80032b6:	46c0      	nop			; (mov r8, r8)
 80032b8:	e002      	b.n	80032c0 <stm32__i2c__master_transmit__2+0x67c>
 80032ba:	46c0      	nop			; (mov r8, r8)
 80032bc:	e000      	b.n	80032c0 <stm32__i2c__master_transmit__2+0x67c>
 80032be:	46c0      	nop			; (mov r8, r8)
 80032c0:	231b      	movs	r3, #27
 80032c2:	2260      	movs	r2, #96	; 0x60
 80032c4:	4694      	mov	ip, r2
 80032c6:	44bc      	add	ip, r7
 80032c8:	4463      	add	r3, ip
 80032ca:	781b      	ldrb	r3, [r3, #0]
 80032cc:	46c0      	nop			; (mov r8, r8)
 80032ce:	0018      	movs	r0, r3
 80032d0:	46bd      	mov	sp, r7
 80032d2:	b025      	add	sp, #148	; 0x94
 80032d4:	bc3c      	pop	{r2, r3, r4, r5}
 80032d6:	4690      	mov	r8, r2
 80032d8:	4699      	mov	r9, r3
 80032da:	46a2      	mov	sl, r4
 80032dc:	46ab      	mov	fp, r5
 80032de:	bdf0      	pop	{r4, r5, r6, r7, pc}
 80032e0:	080097e0 	.word	0x080097e0
 80032e4:	7fffffff 	.word	0x7fffffff
 80032e8:	00000205 	.word	0x00000205
 80032ec:	00000216 	.word	0x00000216

080032f0 <stm32__i2c__master_receive>:
 80032f0:	b5f0      	push	{r4, r5, r6, r7, lr}
 80032f2:	46c6      	mov	lr, r8
 80032f4:	b500      	push	{lr}
 80032f6:	b0aa      	sub	sp, #168	; 0xa8
 80032f8:	af02      	add	r7, sp, #8
 80032fa:	248c      	movs	r4, #140	; 0x8c
 80032fc:	193c      	adds	r4, r7, r4
 80032fe:	6020      	str	r0, [r4, #0]
 8003300:	2080      	movs	r0, #128	; 0x80
 8003302:	183c      	adds	r4, r7, r0
 8003304:	6022      	str	r2, [r4, #0]
 8003306:	6063      	str	r3, [r4, #4]
 8003308:	230a      	movs	r3, #10
 800330a:	183a      	adds	r2, r7, r0
 800330c:	18d2      	adds	r2, r2, r3
 800330e:	1c0b      	adds	r3, r1, #0
 8003310:	8013      	strh	r3, [r2, #0]
 8003312:	248c      	movs	r4, #140	; 0x8c
 8003314:	193b      	adds	r3, r7, r4
 8003316:	681b      	ldr	r3, [r3, #0]
 8003318:	0018      	movs	r0, r3
 800331a:	f7fe fea5 	bl	8002068 <stm32__i2c__is_configured>
 800331e:	0003      	movs	r3, r0
 8003320:	001a      	movs	r2, r3
 8003322:	2301      	movs	r3, #1
 8003324:	4053      	eors	r3, r2
 8003326:	b2db      	uxtb	r3, r3
 8003328:	2b00      	cmp	r3, #0
 800332a:	d007      	beq.n	800333c <stm32__i2c__master_receive+0x4c>
 800332c:	4bd3      	ldr	r3, [pc, #844]	; (800367c <stm32__i2c__master_receive+0x38c>)
 800332e:	603b      	str	r3, [r7, #0]
 8003330:	4bd3      	ldr	r3, [pc, #844]	; (8003680 <stm32__i2c__master_receive+0x390>)
 8003332:	607b      	str	r3, [r7, #4]
 8003334:	6838      	ldr	r0, [r7, #0]
 8003336:	6879      	ldr	r1, [r7, #4]
 8003338:	f005 fc2c 	bl	8008b94 <system__assertions__raise_assert_failure>
 800333c:	2384      	movs	r3, #132	; 0x84
 800333e:	18fb      	adds	r3, r7, r3
 8003340:	681b      	ldr	r3, [r3, #0]
 8003342:	681b      	ldr	r3, [r3, #0]
 8003344:	4698      	mov	r8, r3
 8003346:	2300      	movs	r3, #0
 8003348:	2298      	movs	r2, #152	; 0x98
 800334a:	18ba      	adds	r2, r7, r2
 800334c:	6013      	str	r3, [r2, #0]
 800334e:	2300      	movs	r3, #0
 8003350:	229c      	movs	r2, #156	; 0x9c
 8003352:	18ba      	adds	r2, r7, r2
 8003354:	6013      	str	r3, [r2, #0]
 8003356:	238c      	movs	r3, #140	; 0x8c
 8003358:	18fb      	adds	r3, r7, r3
 800335a:	681b      	ldr	r3, [r3, #0]
 800335c:	685b      	ldr	r3, [r3, #4]
 800335e:	3318      	adds	r3, #24
 8003360:	681b      	ldr	r3, [r3, #0]
 8003362:	041b      	lsls	r3, r3, #16
 8003364:	0e1b      	lsrs	r3, r3, #24
 8003366:	b2da      	uxtb	r2, r3
 8003368:	237f      	movs	r3, #127	; 0x7f
 800336a:	439a      	bics	r2, r3
 800336c:	0013      	movs	r3, r2
 800336e:	b2db      	uxtb	r3, r3
 8003370:	2b00      	cmp	r3, #0
 8003372:	d007      	beq.n	8003384 <stm32__i2c__master_receive+0x94>
 8003374:	2317      	movs	r3, #23
 8003376:	2280      	movs	r2, #128	; 0x80
 8003378:	4694      	mov	ip, r2
 800337a:	44bc      	add	ip, r7
 800337c:	4463      	add	r3, ip
 800337e:	2203      	movs	r2, #3
 8003380:	701a      	strb	r2, [r3, #0]
 8003382:	e34c      	b.n	8003a1e <stm32__i2c__master_receive+0x72e>
 8003384:	238c      	movs	r3, #140	; 0x8c
 8003386:	18fb      	adds	r3, r7, r3
 8003388:	681b      	ldr	r3, [r3, #0]
 800338a:	7d1b      	ldrb	r3, [r3, #20]
 800338c:	2b01      	cmp	r3, #1
 800338e:	d007      	beq.n	80033a0 <stm32__i2c__master_receive+0xb0>
 8003390:	2317      	movs	r3, #23
 8003392:	2280      	movs	r2, #128	; 0x80
 8003394:	4694      	mov	ip, r2
 8003396:	44bc      	add	ip, r7
 8003398:	4463      	add	r3, ip
 800339a:	2203      	movs	r2, #3
 800339c:	701a      	strb	r2, [r3, #0]
 800339e:	e33e      	b.n	8003a1e <stm32__i2c__master_receive+0x72e>
 80033a0:	238c      	movs	r3, #140	; 0x8c
 80033a2:	18fb      	adds	r3, r7, r3
 80033a4:	681a      	ldr	r2, [r3, #0]
 80033a6:	2303      	movs	r3, #3
 80033a8:	7513      	strb	r3, [r2, #20]
 80033aa:	2184      	movs	r1, #132	; 0x84
 80033ac:	187b      	adds	r3, r7, r1
 80033ae:	681b      	ldr	r3, [r3, #0]
 80033b0:	681a      	ldr	r2, [r3, #0]
 80033b2:	187b      	adds	r3, r7, r1
 80033b4:	681b      	ldr	r3, [r3, #0]
 80033b6:	685b      	ldr	r3, [r3, #4]
 80033b8:	429a      	cmp	r2, r3
 80033ba:	dd07      	ble.n	80033cc <stm32__i2c__master_receive+0xdc>
 80033bc:	2317      	movs	r3, #23
 80033be:	2280      	movs	r2, #128	; 0x80
 80033c0:	4694      	mov	ip, r2
 80033c2:	44bc      	add	ip, r7
 80033c4:	4463      	add	r3, ip
 80033c6:	2201      	movs	r2, #1
 80033c8:	701a      	strb	r2, [r3, #0]
 80033ca:	e328      	b.n	8003a1e <stm32__i2c__master_receive+0x72e>
 80033cc:	2084      	movs	r0, #132	; 0x84
 80033ce:	183b      	adds	r3, r7, r0
 80033d0:	681b      	ldr	r3, [r3, #0]
 80033d2:	681b      	ldr	r3, [r3, #0]
 80033d4:	643b      	str	r3, [r7, #64]	; 0x40
 80033d6:	17db      	asrs	r3, r3, #31
 80033d8:	647b      	str	r3, [r7, #68]	; 0x44
 80033da:	23fe      	movs	r3, #254	; 0xfe
 80033dc:	2400      	movs	r4, #0
 80033de:	6c39      	ldr	r1, [r7, #64]	; 0x40
 80033e0:	6c7a      	ldr	r2, [r7, #68]	; 0x44
 80033e2:	18c9      	adds	r1, r1, r3
 80033e4:	4162      	adcs	r2, r4
 80033e6:	183b      	adds	r3, r7, r0
 80033e8:	681b      	ldr	r3, [r3, #0]
 80033ea:	685b      	ldr	r3, [r3, #4]
 80033ec:	001d      	movs	r5, r3
 80033ee:	17db      	asrs	r3, r3, #31
 80033f0:	001e      	movs	r6, r3
 80033f2:	4296      	cmp	r6, r2
 80033f4:	dc02      	bgt.n	80033fc <stm32__i2c__master_receive+0x10c>
 80033f6:	d115      	bne.n	8003424 <stm32__i2c__master_receive+0x134>
 80033f8:	428d      	cmp	r5, r1
 80033fa:	d913      	bls.n	8003424 <stm32__i2c__master_receive+0x134>
 80033fc:	230a      	movs	r3, #10
 80033fe:	2280      	movs	r2, #128	; 0x80
 8003400:	4694      	mov	ip, r2
 8003402:	44bc      	add	ip, r7
 8003404:	4463      	add	r3, ip
 8003406:	8819      	ldrh	r1, [r3, #0]
 8003408:	238c      	movs	r3, #140	; 0x8c
 800340a:	18fb      	adds	r3, r7, r3
 800340c:	6818      	ldr	r0, [r3, #0]
 800340e:	2302      	movs	r3, #2
 8003410:	9300      	str	r3, [sp, #0]
 8003412:	2300      	movs	r3, #0
 8003414:	22ff      	movs	r2, #255	; 0xff
 8003416:	f7fe fe35 	bl	8002084 <stm32__i2c__config_transfer>
 800341a:	23ff      	movs	r3, #255	; 0xff
 800341c:	2298      	movs	r2, #152	; 0x98
 800341e:	18ba      	adds	r2, r7, r2
 8003420:	6013      	str	r3, [r2, #0]
 8003422:	e082      	b.n	800352a <stm32__i2c__master_receive+0x23a>
 8003424:	2084      	movs	r0, #132	; 0x84
 8003426:	183b      	adds	r3, r7, r0
 8003428:	681b      	ldr	r3, [r3, #0]
 800342a:	681b      	ldr	r3, [r3, #0]
 800342c:	63bb      	str	r3, [r7, #56]	; 0x38
 800342e:	17db      	asrs	r3, r3, #31
 8003430:	63fb      	str	r3, [r7, #60]	; 0x3c
 8003432:	23fe      	movs	r3, #254	; 0xfe
 8003434:	2400      	movs	r4, #0
 8003436:	6bb9      	ldr	r1, [r7, #56]	; 0x38
 8003438:	6bfa      	ldr	r2, [r7, #60]	; 0x3c
 800343a:	18c9      	adds	r1, r1, r3
 800343c:	4162      	adcs	r2, r4
 800343e:	183b      	adds	r3, r7, r0
 8003440:	681b      	ldr	r3, [r3, #0]
 8003442:	685b      	ldr	r3, [r3, #4]
 8003444:	67bb      	str	r3, [r7, #120]	; 0x78
 8003446:	17db      	asrs	r3, r3, #31
 8003448:	67fb      	str	r3, [r7, #124]	; 0x7c
 800344a:	6ffb      	ldr	r3, [r7, #124]	; 0x7c
 800344c:	4293      	cmp	r3, r2
 800344e:	dc05      	bgt.n	800345c <stm32__i2c__master_receive+0x16c>
 8003450:	6ffb      	ldr	r3, [r7, #124]	; 0x7c
 8003452:	4293      	cmp	r3, r2
 8003454:	d108      	bne.n	8003468 <stm32__i2c__master_receive+0x178>
 8003456:	6fbb      	ldr	r3, [r7, #120]	; 0x78
 8003458:	428b      	cmp	r3, r1
 800345a:	d905      	bls.n	8003468 <stm32__i2c__master_receive+0x178>
 800345c:	4a89      	ldr	r2, [pc, #548]	; (8003684 <stm32__i2c__master_receive+0x394>)
 800345e:	4b8a      	ldr	r3, [pc, #552]	; (8003688 <stm32__i2c__master_receive+0x398>)
 8003460:	0011      	movs	r1, r2
 8003462:	0018      	movs	r0, r3
 8003464:	f005 f948 	bl	80086f8 <__gnat_last_chance_handler>
 8003468:	2184      	movs	r1, #132	; 0x84
 800346a:	187b      	adds	r3, r7, r1
 800346c:	681b      	ldr	r3, [r3, #0]
 800346e:	685a      	ldr	r2, [r3, #4]
 8003470:	187b      	adds	r3, r7, r1
 8003472:	681b      	ldr	r3, [r3, #0]
 8003474:	681b      	ldr	r3, [r3, #0]
 8003476:	429a      	cmp	r2, r3
 8003478:	db0d      	blt.n	8003496 <stm32__i2c__master_receive+0x1a6>
 800347a:	2184      	movs	r1, #132	; 0x84
 800347c:	187b      	adds	r3, r7, r1
 800347e:	681b      	ldr	r3, [r3, #0]
 8003480:	685b      	ldr	r3, [r3, #4]
 8003482:	b2da      	uxtb	r2, r3
 8003484:	187b      	adds	r3, r7, r1
 8003486:	681b      	ldr	r3, [r3, #0]
 8003488:	681b      	ldr	r3, [r3, #0]
 800348a:	b2db      	uxtb	r3, r3
 800348c:	1ad3      	subs	r3, r2, r3
 800348e:	b2db      	uxtb	r3, r3
 8003490:	3301      	adds	r3, #1
 8003492:	b2da      	uxtb	r2, r3
 8003494:	e000      	b.n	8003498 <stm32__i2c__master_receive+0x1a8>
 8003496:	2200      	movs	r2, #0
 8003498:	230a      	movs	r3, #10
 800349a:	2180      	movs	r1, #128	; 0x80
 800349c:	468c      	mov	ip, r1
 800349e:	44bc      	add	ip, r7
 80034a0:	4463      	add	r3, ip
 80034a2:	8819      	ldrh	r1, [r3, #0]
 80034a4:	238c      	movs	r3, #140	; 0x8c
 80034a6:	18fb      	adds	r3, r7, r3
 80034a8:	6818      	ldr	r0, [r3, #0]
 80034aa:	2302      	movs	r3, #2
 80034ac:	9300      	str	r3, [sp, #0]
 80034ae:	2301      	movs	r3, #1
 80034b0:	f7fe fde8 	bl	8002084 <stm32__i2c__config_transfer>
 80034b4:	2084      	movs	r0, #132	; 0x84
 80034b6:	183b      	adds	r3, r7, r0
 80034b8:	681b      	ldr	r3, [r3, #0]
 80034ba:	681b      	ldr	r3, [r3, #0]
 80034bc:	633b      	str	r3, [r7, #48]	; 0x30
 80034be:	17db      	asrs	r3, r3, #31
 80034c0:	637b      	str	r3, [r7, #52]	; 0x34
 80034c2:	4b72      	ldr	r3, [pc, #456]	; (800368c <stm32__i2c__master_receive+0x39c>)
 80034c4:	2400      	movs	r4, #0
 80034c6:	6b39      	ldr	r1, [r7, #48]	; 0x30
 80034c8:	6b7a      	ldr	r2, [r7, #52]	; 0x34
 80034ca:	18c9      	adds	r1, r1, r3
 80034cc:	4162      	adcs	r2, r4
 80034ce:	183b      	adds	r3, r7, r0
 80034d0:	681b      	ldr	r3, [r3, #0]
 80034d2:	685b      	ldr	r3, [r3, #4]
 80034d4:	673b      	str	r3, [r7, #112]	; 0x70
 80034d6:	17db      	asrs	r3, r3, #31
 80034d8:	677b      	str	r3, [r7, #116]	; 0x74
 80034da:	6f7b      	ldr	r3, [r7, #116]	; 0x74
 80034dc:	4293      	cmp	r3, r2
 80034de:	dc05      	bgt.n	80034ec <stm32__i2c__master_receive+0x1fc>
 80034e0:	6f7b      	ldr	r3, [r7, #116]	; 0x74
 80034e2:	4293      	cmp	r3, r2
 80034e4:	d109      	bne.n	80034fa <stm32__i2c__master_receive+0x20a>
 80034e6:	6f3b      	ldr	r3, [r7, #112]	; 0x70
 80034e8:	428b      	cmp	r3, r1
 80034ea:	d906      	bls.n	80034fa <stm32__i2c__master_receive+0x20a>
 80034ec:	2394      	movs	r3, #148	; 0x94
 80034ee:	009a      	lsls	r2, r3, #2
 80034f0:	4b65      	ldr	r3, [pc, #404]	; (8003688 <stm32__i2c__master_receive+0x398>)
 80034f2:	0011      	movs	r1, r2
 80034f4:	0018      	movs	r0, r3
 80034f6:	f005 f8ff 	bl	80086f8 <__gnat_last_chance_handler>
 80034fa:	2184      	movs	r1, #132	; 0x84
 80034fc:	187b      	adds	r3, r7, r1
 80034fe:	681b      	ldr	r3, [r3, #0]
 8003500:	685a      	ldr	r2, [r3, #4]
 8003502:	187b      	adds	r3, r7, r1
 8003504:	681b      	ldr	r3, [r3, #0]
 8003506:	681b      	ldr	r3, [r3, #0]
 8003508:	429a      	cmp	r2, r3
 800350a:	db0a      	blt.n	8003522 <stm32__i2c__master_receive+0x232>
 800350c:	2184      	movs	r1, #132	; 0x84
 800350e:	187b      	adds	r3, r7, r1
 8003510:	681b      	ldr	r3, [r3, #0]
 8003512:	685b      	ldr	r3, [r3, #4]
 8003514:	001a      	movs	r2, r3
 8003516:	187b      	adds	r3, r7, r1
 8003518:	681b      	ldr	r3, [r3, #0]
 800351a:	681b      	ldr	r3, [r3, #0]
 800351c:	1ad3      	subs	r3, r2, r3
 800351e:	3301      	adds	r3, #1
 8003520:	e000      	b.n	8003524 <stm32__i2c__master_receive+0x234>
 8003522:	2300      	movs	r3, #0
 8003524:	2298      	movs	r2, #152	; 0x98
 8003526:	18ba      	adds	r2, r7, r2
 8003528:	6013      	str	r3, [r2, #0]
 800352a:	2084      	movs	r0, #132	; 0x84
 800352c:	183b      	adds	r3, r7, r0
 800352e:	681b      	ldr	r3, [r3, #0]
 8003530:	681b      	ldr	r3, [r3, #0]
 8003532:	62bb      	str	r3, [r7, #40]	; 0x28
 8003534:	17db      	asrs	r3, r3, #31
 8003536:	62fb      	str	r3, [r7, #44]	; 0x2c
 8003538:	4b54      	ldr	r3, [pc, #336]	; (800368c <stm32__i2c__master_receive+0x39c>)
 800353a:	2400      	movs	r4, #0
 800353c:	6ab9      	ldr	r1, [r7, #40]	; 0x28
 800353e:	6afa      	ldr	r2, [r7, #44]	; 0x2c
 8003540:	18c9      	adds	r1, r1, r3
 8003542:	4162      	adcs	r2, r4
 8003544:	183b      	adds	r3, r7, r0
 8003546:	681b      	ldr	r3, [r3, #0]
 8003548:	685b      	ldr	r3, [r3, #4]
 800354a:	66bb      	str	r3, [r7, #104]	; 0x68
 800354c:	17db      	asrs	r3, r3, #31
 800354e:	66fb      	str	r3, [r7, #108]	; 0x6c
 8003550:	6efb      	ldr	r3, [r7, #108]	; 0x6c
 8003552:	4293      	cmp	r3, r2
 8003554:	dc05      	bgt.n	8003562 <stm32__i2c__master_receive+0x272>
 8003556:	6efb      	ldr	r3, [r7, #108]	; 0x6c
 8003558:	4293      	cmp	r3, r2
 800355a:	d109      	bne.n	8003570 <stm32__i2c__master_receive+0x280>
 800355c:	6ebb      	ldr	r3, [r7, #104]	; 0x68
 800355e:	428b      	cmp	r3, r1
 8003560:	d906      	bls.n	8003570 <stm32__i2c__master_receive+0x280>
 8003562:	2395      	movs	r3, #149	; 0x95
 8003564:	009a      	lsls	r2, r3, #2
 8003566:	4b48      	ldr	r3, [pc, #288]	; (8003688 <stm32__i2c__master_receive+0x398>)
 8003568:	0011      	movs	r1, r2
 800356a:	0018      	movs	r0, r3
 800356c:	f005 f8c4 	bl	80086f8 <__gnat_last_chance_handler>
 8003570:	2184      	movs	r1, #132	; 0x84
 8003572:	187b      	adds	r3, r7, r1
 8003574:	681b      	ldr	r3, [r3, #0]
 8003576:	685a      	ldr	r2, [r3, #4]
 8003578:	187b      	adds	r3, r7, r1
 800357a:	681b      	ldr	r3, [r3, #0]
 800357c:	681b      	ldr	r3, [r3, #0]
 800357e:	429a      	cmp	r2, r3
 8003580:	db0b      	blt.n	800359a <stm32__i2c__master_receive+0x2aa>
 8003582:	2184      	movs	r1, #132	; 0x84
 8003584:	187b      	adds	r3, r7, r1
 8003586:	681b      	ldr	r3, [r3, #0]
 8003588:	685b      	ldr	r3, [r3, #4]
 800358a:	001a      	movs	r2, r3
 800358c:	187b      	adds	r3, r7, r1
 800358e:	681b      	ldr	r3, [r3, #0]
 8003590:	681b      	ldr	r3, [r3, #0]
 8003592:	1ad3      	subs	r3, r2, r3
 8003594:	3301      	adds	r3, #1
 8003596:	001a      	movs	r2, r3
 8003598:	e000      	b.n	800359c <stm32__i2c__master_receive+0x2ac>
 800359a:	2200      	movs	r2, #0
 800359c:	239c      	movs	r3, #156	; 0x9c
 800359e:	18fb      	adds	r3, r7, r3
 80035a0:	681b      	ldr	r3, [r3, #0]
 80035a2:	429a      	cmp	r2, r3
 80035a4:	dc00      	bgt.n	80035a8 <stm32__i2c__master_receive+0x2b8>
 80035a6:	e204      	b.n	80039b2 <stm32__i2c__master_receive+0x6c2>
 80035a8:	238c      	movs	r3, #140	; 0x8c
 80035aa:	18fb      	adds	r3, r7, r3
 80035ac:	681b      	ldr	r3, [r3, #0]
 80035ae:	685b      	ldr	r3, [r3, #4]
 80035b0:	3318      	adds	r3, #24
 80035b2:	681b      	ldr	r3, [r3, #0]
 80035b4:	b2da      	uxtb	r2, r3
 80035b6:	2304      	movs	r3, #4
 80035b8:	4013      	ands	r3, r2
 80035ba:	b2db      	uxtb	r3, r3
 80035bc:	2b00      	cmp	r3, #0
 80035be:	d101      	bne.n	80035c4 <stm32__i2c__master_receive+0x2d4>
 80035c0:	46c0      	nop			; (mov r8, r8)
 80035c2:	e7f1      	b.n	80035a8 <stm32__i2c__master_receive+0x2b8>
 80035c4:	2384      	movs	r3, #132	; 0x84
 80035c6:	18fb      	adds	r3, r7, r3
 80035c8:	681b      	ldr	r3, [r3, #0]
 80035ca:	681a      	ldr	r2, [r3, #0]
 80035cc:	2400      	movs	r4, #0
 80035ce:	259c      	movs	r5, #156	; 0x9c
 80035d0:	197b      	adds	r3, r7, r5
 80035d2:	681b      	ldr	r3, [r3, #0]
 80035d4:	18d0      	adds	r0, r2, r3
 80035d6:	197b      	adds	r3, r7, r5
 80035d8:	681b      	ldr	r3, [r3, #0]
 80035da:	405a      	eors	r2, r3
 80035dc:	0011      	movs	r1, r2
 80035de:	197b      	adds	r3, r7, r5
 80035e0:	681b      	ldr	r3, [r3, #0]
 80035e2:	4043      	eors	r3, r0
 80035e4:	001a      	movs	r2, r3
 80035e6:	43cb      	mvns	r3, r1
 80035e8:	4013      	ands	r3, r2
 80035ea:	d500      	bpl.n	80035ee <stm32__i2c__master_receive+0x2fe>
 80035ec:	2401      	movs	r4, #1
 80035ee:	0002      	movs	r2, r0
 80035f0:	1e23      	subs	r3, r4, #0
 80035f2:	d005      	beq.n	8003600 <stm32__i2c__master_receive+0x310>
 80035f4:	4a26      	ldr	r2, [pc, #152]	; (8003690 <stm32__i2c__master_receive+0x3a0>)
 80035f6:	4b24      	ldr	r3, [pc, #144]	; (8003688 <stm32__i2c__master_receive+0x398>)
 80035f8:	0011      	movs	r1, r2
 80035fa:	0018      	movs	r0, r3
 80035fc:	f005 f87c 	bl	80086f8 <__gnat_last_chance_handler>
 8003600:	2384      	movs	r3, #132	; 0x84
 8003602:	18fb      	adds	r3, r7, r3
 8003604:	681b      	ldr	r3, [r3, #0]
 8003606:	681b      	ldr	r3, [r3, #0]
 8003608:	429a      	cmp	r2, r3
 800360a:	db05      	blt.n	8003618 <stm32__i2c__master_receive+0x328>
 800360c:	2384      	movs	r3, #132	; 0x84
 800360e:	18fb      	adds	r3, r7, r3
 8003610:	681b      	ldr	r3, [r3, #0]
 8003612:	685b      	ldr	r3, [r3, #4]
 8003614:	429a      	cmp	r2, r3
 8003616:	dd05      	ble.n	8003624 <stm32__i2c__master_receive+0x334>
 8003618:	4a1d      	ldr	r2, [pc, #116]	; (8003690 <stm32__i2c__master_receive+0x3a0>)
 800361a:	4b1b      	ldr	r3, [pc, #108]	; (8003688 <stm32__i2c__master_receive+0x398>)
 800361c:	0011      	movs	r1, r2
 800361e:	0018      	movs	r0, r3
 8003620:	f005 f86a 	bl	80086f8 <__gnat_last_chance_handler>
 8003624:	238c      	movs	r3, #140	; 0x8c
 8003626:	18fb      	adds	r3, r7, r3
 8003628:	681b      	ldr	r3, [r3, #0]
 800362a:	685b      	ldr	r3, [r3, #4]
 800362c:	3324      	adds	r3, #36	; 0x24
 800362e:	681b      	ldr	r3, [r3, #0]
 8003630:	2180      	movs	r1, #128	; 0x80
 8003632:	1879      	adds	r1, r7, r1
 8003634:	6809      	ldr	r1, [r1, #0]
 8003636:	b2db      	uxtb	r3, r3
 8003638:	4640      	mov	r0, r8
 800363a:	1a12      	subs	r2, r2, r0
 800363c:	548b      	strb	r3, [r1, r2]
 800363e:	239c      	movs	r3, #156	; 0x9c
 8003640:	18fb      	adds	r3, r7, r3
 8003642:	681a      	ldr	r2, [r3, #0]
 8003644:	4b13      	ldr	r3, [pc, #76]	; (8003694 <stm32__i2c__master_receive+0x3a4>)
 8003646:	429a      	cmp	r2, r3
 8003648:	d105      	bne.n	8003656 <stm32__i2c__master_receive+0x366>
 800364a:	4a13      	ldr	r2, [pc, #76]	; (8003698 <stm32__i2c__master_receive+0x3a8>)
 800364c:	4b0e      	ldr	r3, [pc, #56]	; (8003688 <stm32__i2c__master_receive+0x398>)
 800364e:	0011      	movs	r1, r2
 8003650:	0018      	movs	r0, r3
 8003652:	f005 f851 	bl	80086f8 <__gnat_last_chance_handler>
 8003656:	229c      	movs	r2, #156	; 0x9c
 8003658:	18bb      	adds	r3, r7, r2
 800365a:	681b      	ldr	r3, [r3, #0]
 800365c:	3301      	adds	r3, #1
 800365e:	18ba      	adds	r2, r7, r2
 8003660:	6013      	str	r3, [r2, #0]
 8003662:	2398      	movs	r3, #152	; 0x98
 8003664:	18fb      	adds	r3, r7, r3
 8003666:	681b      	ldr	r3, [r3, #0]
 8003668:	3b01      	subs	r3, #1
 800366a:	2b00      	cmp	r3, #0
 800366c:	da18      	bge.n	80036a0 <stm32__i2c__master_receive+0x3b0>
 800366e:	4a0b      	ldr	r2, [pc, #44]	; (800369c <stm32__i2c__master_receive+0x3ac>)
 8003670:	4b05      	ldr	r3, [pc, #20]	; (8003688 <stm32__i2c__master_receive+0x398>)
 8003672:	0011      	movs	r1, r2
 8003674:	0018      	movs	r0, r3
 8003676:	f005 f83f 	bl	80086f8 <__gnat_last_chance_handler>
 800367a:	46c0      	nop			; (mov r8, r8)
 800367c:	08009848 	.word	0x08009848
 8003680:	080097a4 	.word	0x080097a4
 8003684:	0000024f 	.word	0x0000024f
 8003688:	080097e0 	.word	0x080097e0
 800368c:	7ffffffe 	.word	0x7ffffffe
 8003690:	00000259 	.word	0x00000259
 8003694:	7fffffff 	.word	0x7fffffff
 8003698:	0000025a 	.word	0x0000025a
 800369c:	0000025b 	.word	0x0000025b
 80036a0:	2298      	movs	r2, #152	; 0x98
 80036a2:	18b9      	adds	r1, r7, r2
 80036a4:	600b      	str	r3, [r1, #0]
 80036a6:	18bb      	adds	r3, r7, r2
 80036a8:	681b      	ldr	r3, [r3, #0]
 80036aa:	2b00      	cmp	r3, #0
 80036ac:	d000      	beq.n	80036b0 <stm32__i2c__master_receive+0x3c0>
 80036ae:	e73c      	b.n	800352a <stm32__i2c__master_receive+0x23a>
 80036b0:	2084      	movs	r0, #132	; 0x84
 80036b2:	183b      	adds	r3, r7, r0
 80036b4:	681b      	ldr	r3, [r3, #0]
 80036b6:	681b      	ldr	r3, [r3, #0]
 80036b8:	623b      	str	r3, [r7, #32]
 80036ba:	17db      	asrs	r3, r3, #31
 80036bc:	627b      	str	r3, [r7, #36]	; 0x24
 80036be:	4bd1      	ldr	r3, [pc, #836]	; (8003a04 <stm32__i2c__master_receive+0x714>)
 80036c0:	2400      	movs	r4, #0
 80036c2:	6a39      	ldr	r1, [r7, #32]
 80036c4:	6a7a      	ldr	r2, [r7, #36]	; 0x24
 80036c6:	18c9      	adds	r1, r1, r3
 80036c8:	4162      	adcs	r2, r4
 80036ca:	183b      	adds	r3, r7, r0
 80036cc:	681b      	ldr	r3, [r3, #0]
 80036ce:	685b      	ldr	r3, [r3, #4]
 80036d0:	663b      	str	r3, [r7, #96]	; 0x60
 80036d2:	17db      	asrs	r3, r3, #31
 80036d4:	667b      	str	r3, [r7, #100]	; 0x64
 80036d6:	6e7b      	ldr	r3, [r7, #100]	; 0x64
 80036d8:	4293      	cmp	r3, r2
 80036da:	dc05      	bgt.n	80036e8 <stm32__i2c__master_receive+0x3f8>
 80036dc:	6e7b      	ldr	r3, [r7, #100]	; 0x64
 80036de:	4293      	cmp	r3, r2
 80036e0:	d108      	bne.n	80036f4 <stm32__i2c__master_receive+0x404>
 80036e2:	6e3b      	ldr	r3, [r7, #96]	; 0x60
 80036e4:	428b      	cmp	r3, r1
 80036e6:	d905      	bls.n	80036f4 <stm32__i2c__master_receive+0x404>
 80036e8:	4ac7      	ldr	r2, [pc, #796]	; (8003a08 <stm32__i2c__master_receive+0x718>)
 80036ea:	4bc8      	ldr	r3, [pc, #800]	; (8003a0c <stm32__i2c__master_receive+0x71c>)
 80036ec:	0011      	movs	r1, r2
 80036ee:	0018      	movs	r0, r3
 80036f0:	f005 f802 	bl	80086f8 <__gnat_last_chance_handler>
 80036f4:	2184      	movs	r1, #132	; 0x84
 80036f6:	187b      	adds	r3, r7, r1
 80036f8:	681b      	ldr	r3, [r3, #0]
 80036fa:	685a      	ldr	r2, [r3, #4]
 80036fc:	187b      	adds	r3, r7, r1
 80036fe:	681b      	ldr	r3, [r3, #0]
 8003700:	681b      	ldr	r3, [r3, #0]
 8003702:	429a      	cmp	r2, r3
 8003704:	db0b      	blt.n	800371e <stm32__i2c__master_receive+0x42e>
 8003706:	2184      	movs	r1, #132	; 0x84
 8003708:	187b      	adds	r3, r7, r1
 800370a:	681b      	ldr	r3, [r3, #0]
 800370c:	685b      	ldr	r3, [r3, #4]
 800370e:	001a      	movs	r2, r3
 8003710:	187b      	adds	r3, r7, r1
 8003712:	681b      	ldr	r3, [r3, #0]
 8003714:	681b      	ldr	r3, [r3, #0]
 8003716:	1ad3      	subs	r3, r2, r3
 8003718:	3301      	adds	r3, #1
 800371a:	001a      	movs	r2, r3
 800371c:	e000      	b.n	8003720 <stm32__i2c__master_receive+0x430>
 800371e:	2200      	movs	r2, #0
 8003720:	2301      	movs	r3, #1
 8003722:	1c19      	adds	r1, r3, #0
 8003724:	239c      	movs	r3, #156	; 0x9c
 8003726:	18fb      	adds	r3, r7, r3
 8003728:	681b      	ldr	r3, [r3, #0]
 800372a:	429a      	cmp	r2, r3
 800372c:	dc01      	bgt.n	8003732 <stm32__i2c__master_receive+0x442>
 800372e:	2300      	movs	r3, #0
 8003730:	1c19      	adds	r1, r3, #0
 8003732:	b2cb      	uxtb	r3, r1
 8003734:	2b00      	cmp	r3, #0
 8003736:	d100      	bne.n	800373a <stm32__i2c__master_receive+0x44a>
 8003738:	e6f7      	b.n	800352a <stm32__i2c__master_receive+0x23a>
 800373a:	238c      	movs	r3, #140	; 0x8c
 800373c:	18fb      	adds	r3, r7, r3
 800373e:	681b      	ldr	r3, [r3, #0]
 8003740:	685b      	ldr	r3, [r3, #4]
 8003742:	3318      	adds	r3, #24
 8003744:	681b      	ldr	r3, [r3, #0]
 8003746:	b2db      	uxtb	r3, r3
 8003748:	b25b      	sxtb	r3, r3
 800374a:	2b00      	cmp	r3, #0
 800374c:	db01      	blt.n	8003752 <stm32__i2c__master_receive+0x462>
 800374e:	46c0      	nop			; (mov r8, r8)
 8003750:	e7f3      	b.n	800373a <stm32__i2c__master_receive+0x44a>
 8003752:	2084      	movs	r0, #132	; 0x84
 8003754:	183b      	adds	r3, r7, r0
 8003756:	681b      	ldr	r3, [r3, #0]
 8003758:	681b      	ldr	r3, [r3, #0]
 800375a:	61bb      	str	r3, [r7, #24]
 800375c:	17db      	asrs	r3, r3, #31
 800375e:	61fb      	str	r3, [r7, #28]
 8003760:	4ba8      	ldr	r3, [pc, #672]	; (8003a04 <stm32__i2c__master_receive+0x714>)
 8003762:	2400      	movs	r4, #0
 8003764:	69b9      	ldr	r1, [r7, #24]
 8003766:	69fa      	ldr	r2, [r7, #28]
 8003768:	18c9      	adds	r1, r1, r3
 800376a:	4162      	adcs	r2, r4
 800376c:	183b      	adds	r3, r7, r0
 800376e:	681b      	ldr	r3, [r3, #0]
 8003770:	685b      	ldr	r3, [r3, #4]
 8003772:	65bb      	str	r3, [r7, #88]	; 0x58
 8003774:	17db      	asrs	r3, r3, #31
 8003776:	65fb      	str	r3, [r7, #92]	; 0x5c
 8003778:	6dfb      	ldr	r3, [r7, #92]	; 0x5c
 800377a:	4293      	cmp	r3, r2
 800377c:	dc05      	bgt.n	800378a <stm32__i2c__master_receive+0x49a>
 800377e:	6dfb      	ldr	r3, [r7, #92]	; 0x5c
 8003780:	4293      	cmp	r3, r2
 8003782:	d108      	bne.n	8003796 <stm32__i2c__master_receive+0x4a6>
 8003784:	6dbb      	ldr	r3, [r7, #88]	; 0x58
 8003786:	428b      	cmp	r3, r1
 8003788:	d905      	bls.n	8003796 <stm32__i2c__master_receive+0x4a6>
 800378a:	4aa1      	ldr	r2, [pc, #644]	; (8003a10 <stm32__i2c__master_receive+0x720>)
 800378c:	4b9f      	ldr	r3, [pc, #636]	; (8003a0c <stm32__i2c__master_receive+0x71c>)
 800378e:	0011      	movs	r1, r2
 8003790:	0018      	movs	r0, r3
 8003792:	f004 ffb1 	bl	80086f8 <__gnat_last_chance_handler>
 8003796:	2184      	movs	r1, #132	; 0x84
 8003798:	187b      	adds	r3, r7, r1
 800379a:	681b      	ldr	r3, [r3, #0]
 800379c:	685a      	ldr	r2, [r3, #4]
 800379e:	187b      	adds	r3, r7, r1
 80037a0:	681b      	ldr	r3, [r3, #0]
 80037a2:	681b      	ldr	r3, [r3, #0]
 80037a4:	429a      	cmp	r2, r3
 80037a6:	db0b      	blt.n	80037c0 <stm32__i2c__master_receive+0x4d0>
 80037a8:	2184      	movs	r1, #132	; 0x84
 80037aa:	187b      	adds	r3, r7, r1
 80037ac:	681b      	ldr	r3, [r3, #0]
 80037ae:	685b      	ldr	r3, [r3, #4]
 80037b0:	001a      	movs	r2, r3
 80037b2:	187b      	adds	r3, r7, r1
 80037b4:	681b      	ldr	r3, [r3, #0]
 80037b6:	681b      	ldr	r3, [r3, #0]
 80037b8:	1ad3      	subs	r3, r2, r3
 80037ba:	3301      	adds	r3, #1
 80037bc:	001a      	movs	r2, r3
 80037be:	e000      	b.n	80037c2 <stm32__i2c__master_receive+0x4d2>
 80037c0:	2200      	movs	r2, #0
 80037c2:	2000      	movs	r0, #0
 80037c4:	249c      	movs	r4, #156	; 0x9c
 80037c6:	193b      	adds	r3, r7, r4
 80037c8:	681b      	ldr	r3, [r3, #0]
 80037ca:	1ad1      	subs	r1, r2, r3
 80037cc:	193b      	adds	r3, r7, r4
 80037ce:	681b      	ldr	r3, [r3, #0]
 80037d0:	405a      	eors	r2, r3
 80037d2:	193b      	adds	r3, r7, r4
 80037d4:	681b      	ldr	r3, [r3, #0]
 80037d6:	404b      	eors	r3, r1
 80037d8:	43db      	mvns	r3, r3
 80037da:	4013      	ands	r3, r2
 80037dc:	d500      	bpl.n	80037e0 <stm32__i2c__master_receive+0x4f0>
 80037de:	2001      	movs	r0, #1
 80037e0:	000a      	movs	r2, r1
 80037e2:	1e03      	subs	r3, r0, #0
 80037e4:	d005      	beq.n	80037f2 <stm32__i2c__master_receive+0x502>
 80037e6:	4a8a      	ldr	r2, [pc, #552]	; (8003a10 <stm32__i2c__master_receive+0x720>)
 80037e8:	4b88      	ldr	r3, [pc, #544]	; (8003a0c <stm32__i2c__master_receive+0x71c>)
 80037ea:	0011      	movs	r1, r2
 80037ec:	0018      	movs	r0, r3
 80037ee:	f004 ff83 	bl	80086f8 <__gnat_last_chance_handler>
 80037f2:	2301      	movs	r3, #1
 80037f4:	2aff      	cmp	r2, #255	; 0xff
 80037f6:	dc00      	bgt.n	80037fa <stm32__i2c__master_receive+0x50a>
 80037f8:	2300      	movs	r3, #0
 80037fa:	b2db      	uxtb	r3, r3
 80037fc:	2b00      	cmp	r3, #0
 80037fe:	d013      	beq.n	8003828 <stm32__i2c__master_receive+0x538>
 8003800:	230a      	movs	r3, #10
 8003802:	2280      	movs	r2, #128	; 0x80
 8003804:	4694      	mov	ip, r2
 8003806:	44bc      	add	ip, r7
 8003808:	4463      	add	r3, ip
 800380a:	8819      	ldrh	r1, [r3, #0]
 800380c:	238c      	movs	r3, #140	; 0x8c
 800380e:	18fb      	adds	r3, r7, r3
 8003810:	6818      	ldr	r0, [r3, #0]
 8003812:	2300      	movs	r3, #0
 8003814:	9300      	str	r3, [sp, #0]
 8003816:	2300      	movs	r3, #0
 8003818:	22ff      	movs	r2, #255	; 0xff
 800381a:	f7fe fc33 	bl	8002084 <stm32__i2c__config_transfer>
 800381e:	23ff      	movs	r3, #255	; 0xff
 8003820:	2298      	movs	r2, #152	; 0x98
 8003822:	18ba      	adds	r2, r7, r2
 8003824:	6013      	str	r3, [r2, #0]
 8003826:	e680      	b.n	800352a <stm32__i2c__master_receive+0x23a>
 8003828:	2084      	movs	r0, #132	; 0x84
 800382a:	183b      	adds	r3, r7, r0
 800382c:	681b      	ldr	r3, [r3, #0]
 800382e:	681b      	ldr	r3, [r3, #0]
 8003830:	613b      	str	r3, [r7, #16]
 8003832:	17db      	asrs	r3, r3, #31
 8003834:	617b      	str	r3, [r7, #20]
 8003836:	4b73      	ldr	r3, [pc, #460]	; (8003a04 <stm32__i2c__master_receive+0x714>)
 8003838:	2400      	movs	r4, #0
 800383a:	6939      	ldr	r1, [r7, #16]
 800383c:	697a      	ldr	r2, [r7, #20]
 800383e:	18c9      	adds	r1, r1, r3
 8003840:	4162      	adcs	r2, r4
 8003842:	183b      	adds	r3, r7, r0
 8003844:	681b      	ldr	r3, [r3, #0]
 8003846:	685b      	ldr	r3, [r3, #4]
 8003848:	653b      	str	r3, [r7, #80]	; 0x50
 800384a:	17db      	asrs	r3, r3, #31
 800384c:	657b      	str	r3, [r7, #84]	; 0x54
 800384e:	6d7b      	ldr	r3, [r7, #84]	; 0x54
 8003850:	4293      	cmp	r3, r2
 8003852:	dc05      	bgt.n	8003860 <stm32__i2c__master_receive+0x570>
 8003854:	6d7b      	ldr	r3, [r7, #84]	; 0x54
 8003856:	4293      	cmp	r3, r2
 8003858:	d108      	bne.n	800386c <stm32__i2c__master_receive+0x57c>
 800385a:	6d3b      	ldr	r3, [r7, #80]	; 0x50
 800385c:	428b      	cmp	r3, r1
 800385e:	d905      	bls.n	800386c <stm32__i2c__master_receive+0x57c>
 8003860:	4a6c      	ldr	r2, [pc, #432]	; (8003a14 <stm32__i2c__master_receive+0x724>)
 8003862:	4b6a      	ldr	r3, [pc, #424]	; (8003a0c <stm32__i2c__master_receive+0x71c>)
 8003864:	0011      	movs	r1, r2
 8003866:	0018      	movs	r0, r3
 8003868:	f004 ff46 	bl	80086f8 <__gnat_last_chance_handler>
 800386c:	2184      	movs	r1, #132	; 0x84
 800386e:	187b      	adds	r3, r7, r1
 8003870:	681b      	ldr	r3, [r3, #0]
 8003872:	685a      	ldr	r2, [r3, #4]
 8003874:	187b      	adds	r3, r7, r1
 8003876:	681b      	ldr	r3, [r3, #0]
 8003878:	681b      	ldr	r3, [r3, #0]
 800387a:	429a      	cmp	r2, r3
 800387c:	db0b      	blt.n	8003896 <stm32__i2c__master_receive+0x5a6>
 800387e:	2184      	movs	r1, #132	; 0x84
 8003880:	187b      	adds	r3, r7, r1
 8003882:	681b      	ldr	r3, [r3, #0]
 8003884:	685b      	ldr	r3, [r3, #4]
 8003886:	001a      	movs	r2, r3
 8003888:	187b      	adds	r3, r7, r1
 800388a:	681b      	ldr	r3, [r3, #0]
 800388c:	681b      	ldr	r3, [r3, #0]
 800388e:	1ad3      	subs	r3, r2, r3
 8003890:	3301      	adds	r3, #1
 8003892:	001a      	movs	r2, r3
 8003894:	e000      	b.n	8003898 <stm32__i2c__master_receive+0x5a8>
 8003896:	2200      	movs	r2, #0
 8003898:	2000      	movs	r0, #0
 800389a:	249c      	movs	r4, #156	; 0x9c
 800389c:	193b      	adds	r3, r7, r4
 800389e:	681b      	ldr	r3, [r3, #0]
 80038a0:	1ad1      	subs	r1, r2, r3
 80038a2:	193b      	adds	r3, r7, r4
 80038a4:	681b      	ldr	r3, [r3, #0]
 80038a6:	405a      	eors	r2, r3
 80038a8:	193b      	adds	r3, r7, r4
 80038aa:	681b      	ldr	r3, [r3, #0]
 80038ac:	404b      	eors	r3, r1
 80038ae:	43db      	mvns	r3, r3
 80038b0:	4013      	ands	r3, r2
 80038b2:	d500      	bpl.n	80038b6 <stm32__i2c__master_receive+0x5c6>
 80038b4:	2001      	movs	r0, #1
 80038b6:	000a      	movs	r2, r1
 80038b8:	1e03      	subs	r3, r0, #0
 80038ba:	d005      	beq.n	80038c8 <stm32__i2c__master_receive+0x5d8>
 80038bc:	4a55      	ldr	r2, [pc, #340]	; (8003a14 <stm32__i2c__master_receive+0x724>)
 80038be:	4b53      	ldr	r3, [pc, #332]	; (8003a0c <stm32__i2c__master_receive+0x71c>)
 80038c0:	0011      	movs	r1, r2
 80038c2:	0018      	movs	r0, r3
 80038c4:	f004 ff18 	bl	80086f8 <__gnat_last_chance_handler>
 80038c8:	1e13      	subs	r3, r2, #0
 80038ca:	db01      	blt.n	80038d0 <stm32__i2c__master_receive+0x5e0>
 80038cc:	2bff      	cmp	r3, #255	; 0xff
 80038ce:	dd05      	ble.n	80038dc <stm32__i2c__master_receive+0x5ec>
 80038d0:	4a50      	ldr	r2, [pc, #320]	; (8003a14 <stm32__i2c__master_receive+0x724>)
 80038d2:	4b4e      	ldr	r3, [pc, #312]	; (8003a0c <stm32__i2c__master_receive+0x71c>)
 80038d4:	0011      	movs	r1, r2
 80038d6:	0018      	movs	r0, r3
 80038d8:	f004 ff0e 	bl	80086f8 <__gnat_last_chance_handler>
 80038dc:	b2da      	uxtb	r2, r3
 80038de:	230a      	movs	r3, #10
 80038e0:	2180      	movs	r1, #128	; 0x80
 80038e2:	468c      	mov	ip, r1
 80038e4:	44bc      	add	ip, r7
 80038e6:	4463      	add	r3, ip
 80038e8:	8819      	ldrh	r1, [r3, #0]
 80038ea:	238c      	movs	r3, #140	; 0x8c
 80038ec:	18fb      	adds	r3, r7, r3
 80038ee:	6818      	ldr	r0, [r3, #0]
 80038f0:	2300      	movs	r3, #0
 80038f2:	9300      	str	r3, [sp, #0]
 80038f4:	2301      	movs	r3, #1
 80038f6:	f7fe fbc5 	bl	8002084 <stm32__i2c__config_transfer>
 80038fa:	2084      	movs	r0, #132	; 0x84
 80038fc:	183b      	adds	r3, r7, r0
 80038fe:	681b      	ldr	r3, [r3, #0]
 8003900:	681b      	ldr	r3, [r3, #0]
 8003902:	60bb      	str	r3, [r7, #8]
 8003904:	17db      	asrs	r3, r3, #31
 8003906:	60fb      	str	r3, [r7, #12]
 8003908:	4b3e      	ldr	r3, [pc, #248]	; (8003a04 <stm32__i2c__master_receive+0x714>)
 800390a:	2400      	movs	r4, #0
 800390c:	68b9      	ldr	r1, [r7, #8]
 800390e:	68fa      	ldr	r2, [r7, #12]
 8003910:	18c9      	adds	r1, r1, r3
 8003912:	4162      	adcs	r2, r4
 8003914:	183b      	adds	r3, r7, r0
 8003916:	681b      	ldr	r3, [r3, #0]
 8003918:	685b      	ldr	r3, [r3, #4]
 800391a:	64bb      	str	r3, [r7, #72]	; 0x48
 800391c:	17db      	asrs	r3, r3, #31
 800391e:	64fb      	str	r3, [r7, #76]	; 0x4c
 8003920:	6cfb      	ldr	r3, [r7, #76]	; 0x4c
 8003922:	4293      	cmp	r3, r2
 8003924:	dc05      	bgt.n	8003932 <stm32__i2c__master_receive+0x642>
 8003926:	6cfb      	ldr	r3, [r7, #76]	; 0x4c
 8003928:	4293      	cmp	r3, r2
 800392a:	d108      	bne.n	800393e <stm32__i2c__master_receive+0x64e>
 800392c:	6cbb      	ldr	r3, [r7, #72]	; 0x48
 800392e:	428b      	cmp	r3, r1
 8003930:	d905      	bls.n	800393e <stm32__i2c__master_receive+0x64e>
 8003932:	4a39      	ldr	r2, [pc, #228]	; (8003a18 <stm32__i2c__master_receive+0x728>)
 8003934:	4b35      	ldr	r3, [pc, #212]	; (8003a0c <stm32__i2c__master_receive+0x71c>)
 8003936:	0011      	movs	r1, r2
 8003938:	0018      	movs	r0, r3
 800393a:	f004 fedd 	bl	80086f8 <__gnat_last_chance_handler>
 800393e:	2184      	movs	r1, #132	; 0x84
 8003940:	187b      	adds	r3, r7, r1
 8003942:	681b      	ldr	r3, [r3, #0]
 8003944:	685a      	ldr	r2, [r3, #4]
 8003946:	187b      	adds	r3, r7, r1
 8003948:	681b      	ldr	r3, [r3, #0]
 800394a:	681b      	ldr	r3, [r3, #0]
 800394c:	429a      	cmp	r2, r3
 800394e:	db0b      	blt.n	8003968 <stm32__i2c__master_receive+0x678>
 8003950:	2184      	movs	r1, #132	; 0x84
 8003952:	187b      	adds	r3, r7, r1
 8003954:	681b      	ldr	r3, [r3, #0]
 8003956:	685b      	ldr	r3, [r3, #4]
 8003958:	001a      	movs	r2, r3
 800395a:	187b      	adds	r3, r7, r1
 800395c:	681b      	ldr	r3, [r3, #0]
 800395e:	681b      	ldr	r3, [r3, #0]
 8003960:	1ad3      	subs	r3, r2, r3
 8003962:	3301      	adds	r3, #1
 8003964:	001a      	movs	r2, r3
 8003966:	e000      	b.n	800396a <stm32__i2c__master_receive+0x67a>
 8003968:	2200      	movs	r2, #0
 800396a:	2000      	movs	r0, #0
 800396c:	249c      	movs	r4, #156	; 0x9c
 800396e:	193b      	adds	r3, r7, r4
 8003970:	681b      	ldr	r3, [r3, #0]
 8003972:	1ad1      	subs	r1, r2, r3
 8003974:	193b      	adds	r3, r7, r4
 8003976:	681b      	ldr	r3, [r3, #0]
 8003978:	405a      	eors	r2, r3
 800397a:	193b      	adds	r3, r7, r4
 800397c:	681b      	ldr	r3, [r3, #0]
 800397e:	404b      	eors	r3, r1
 8003980:	43db      	mvns	r3, r3
 8003982:	4013      	ands	r3, r2
 8003984:	d500      	bpl.n	8003988 <stm32__i2c__master_receive+0x698>
 8003986:	2001      	movs	r0, #1
 8003988:	000a      	movs	r2, r1
 800398a:	1e03      	subs	r3, r0, #0
 800398c:	d005      	beq.n	800399a <stm32__i2c__master_receive+0x6aa>
 800398e:	4a22      	ldr	r2, [pc, #136]	; (8003a18 <stm32__i2c__master_receive+0x728>)
 8003990:	4b1e      	ldr	r3, [pc, #120]	; (8003a0c <stm32__i2c__master_receive+0x71c>)
 8003992:	0011      	movs	r1, r2
 8003994:	0018      	movs	r0, r3
 8003996:	f004 feaf 	bl	80086f8 <__gnat_last_chance_handler>
 800399a:	1e13      	subs	r3, r2, #0
 800399c:	da05      	bge.n	80039aa <stm32__i2c__master_receive+0x6ba>
 800399e:	4a1e      	ldr	r2, [pc, #120]	; (8003a18 <stm32__i2c__master_receive+0x728>)
 80039a0:	4b1a      	ldr	r3, [pc, #104]	; (8003a0c <stm32__i2c__master_receive+0x71c>)
 80039a2:	0011      	movs	r1, r2
 80039a4:	0018      	movs	r0, r3
 80039a6:	f004 fea7 	bl	80086f8 <__gnat_last_chance_handler>
 80039aa:	2298      	movs	r2, #152	; 0x98
 80039ac:	18ba      	adds	r2, r7, r2
 80039ae:	6013      	str	r3, [r2, #0]
 80039b0:	e5bb      	b.n	800352a <stm32__i2c__master_receive+0x23a>
 80039b2:	23b8      	movs	r3, #184	; 0xb8
 80039b4:	18fb      	adds	r3, r7, r3
 80039b6:	681a      	ldr	r2, [r3, #0]
 80039b8:	238c      	movs	r3, #140	; 0x8c
 80039ba:	18fb      	adds	r3, r7, r3
 80039bc:	681b      	ldr	r3, [r3, #0]
 80039be:	0011      	movs	r1, r2
 80039c0:	0018      	movs	r0, r3
 80039c2:	f7fe fd83 	bl	80024cc <stm32__i2c__wait_stop_flag>
 80039c6:	0003      	movs	r3, r0
 80039c8:	001a      	movs	r2, r3
 80039ca:	2117      	movs	r1, #23
 80039cc:	2080      	movs	r0, #128	; 0x80
 80039ce:	183b      	adds	r3, r7, r0
 80039d0:	185b      	adds	r3, r3, r1
 80039d2:	701a      	strb	r2, [r3, #0]
 80039d4:	183b      	adds	r3, r7, r0
 80039d6:	185b      	adds	r3, r3, r1
 80039d8:	781b      	ldrb	r3, [r3, #0]
 80039da:	2b00      	cmp	r3, #0
 80039dc:	d11e      	bne.n	8003a1c <stm32__i2c__master_receive+0x72c>
 80039de:	248c      	movs	r4, #140	; 0x8c
 80039e0:	193b      	adds	r3, r7, r4
 80039e2:	681b      	ldr	r3, [r3, #0]
 80039e4:	0018      	movs	r0, r3
 80039e6:	f7fe fbf3 	bl	80021d0 <stm32__i2c__reset_config>
 80039ea:	193b      	adds	r3, r7, r4
 80039ec:	681b      	ldr	r3, [r3, #0]
 80039ee:	2201      	movs	r2, #1
 80039f0:	751a      	strb	r2, [r3, #20]
 80039f2:	2317      	movs	r3, #23
 80039f4:	2280      	movs	r2, #128	; 0x80
 80039f6:	4694      	mov	ip, r2
 80039f8:	44bc      	add	ip, r7
 80039fa:	4463      	add	r3, ip
 80039fc:	2200      	movs	r2, #0
 80039fe:	701a      	strb	r2, [r3, #0]
 8003a00:	e00d      	b.n	8003a1e <stm32__i2c__master_receive+0x72e>
 8003a02:	46c0      	nop			; (mov r8, r8)
 8003a04:	7ffffffe 	.word	0x7ffffffe
 8003a08:	0000025e 	.word	0x0000025e
 8003a0c:	080097e0 	.word	0x080097e0
 8003a10:	00000265 	.word	0x00000265
 8003a14:	0000026b 	.word	0x0000026b
 8003a18:	0000026d 	.word	0x0000026d
 8003a1c:	46c0      	nop			; (mov r8, r8)
 8003a1e:	2317      	movs	r3, #23
 8003a20:	2280      	movs	r2, #128	; 0x80
 8003a22:	4694      	mov	ip, r2
 8003a24:	44bc      	add	ip, r7
 8003a26:	4463      	add	r3, ip
 8003a28:	781b      	ldrb	r3, [r3, #0]
 8003a2a:	46c0      	nop			; (mov r8, r8)
 8003a2c:	0018      	movs	r0, r3
 8003a2e:	46bd      	mov	sp, r7
 8003a30:	b028      	add	sp, #160	; 0xa0
 8003a32:	bc04      	pop	{r2}
 8003a34:	4690      	mov	r8, r2
 8003a36:	bdf0      	pop	{r4, r5, r6, r7, pc}

08003a38 <stm32__i2c__mem_write>:
 8003a38:	b5f0      	push	{r4, r5, r6, r7, lr}
 8003a3a:	46d6      	mov	lr, sl
 8003a3c:	464f      	mov	r7, r9
 8003a3e:	4646      	mov	r6, r8
 8003a40:	b5c0      	push	{r6, r7, lr}
 8003a42:	b0b2      	sub	sp, #200	; 0xc8
 8003a44:	af02      	add	r7, sp, #8
 8003a46:	26a4      	movs	r6, #164	; 0xa4
 8003a48:	19be      	adds	r6, r7, r6
 8003a4a:	6030      	str	r0, [r6, #0]
 8003a4c:	0010      	movs	r0, r2
 8003a4e:	001e      	movs	r6, r3
 8003a50:	2312      	movs	r3, #18
 8003a52:	2290      	movs	r2, #144	; 0x90
 8003a54:	18ba      	adds	r2, r7, r2
 8003a56:	18d2      	adds	r2, r2, r3
 8003a58:	1c0b      	adds	r3, r1, #0
 8003a5a:	8013      	strh	r3, [r2, #0]
 8003a5c:	2310      	movs	r3, #16
 8003a5e:	2190      	movs	r1, #144	; 0x90
 8003a60:	187a      	adds	r2, r7, r1
 8003a62:	18d2      	adds	r2, r2, r3
 8003a64:	1c03      	adds	r3, r0, #0
 8003a66:	8013      	strh	r3, [r2, #0]
 8003a68:	230f      	movs	r3, #15
 8003a6a:	187a      	adds	r2, r7, r1
 8003a6c:	18d2      	adds	r2, r2, r3
 8003a6e:	1c33      	adds	r3, r6, #0
 8003a70:	7013      	strb	r3, [r2, #0]
 8003a72:	187b      	adds	r3, r7, r1
 8003a74:	2250      	movs	r2, #80	; 0x50
 8003a76:	1879      	adds	r1, r7, r1
 8003a78:	1889      	adds	r1, r1, r2
 8003a7a:	001a      	movs	r2, r3
 8003a7c:	000b      	movs	r3, r1
 8003a7e:	cb03      	ldmia	r3!, {r0, r1}
 8003a80:	c203      	stmia	r2!, {r0, r1}
 8003a82:	2294      	movs	r2, #148	; 0x94
 8003a84:	18bb      	adds	r3, r7, r2
 8003a86:	681b      	ldr	r3, [r3, #0]
 8003a88:	681b      	ldr	r3, [r3, #0]
 8003a8a:	4698      	mov	r8, r3
 8003a8c:	18bb      	adds	r3, r7, r2
 8003a8e:	681b      	ldr	r3, [r3, #0]
 8003a90:	685b      	ldr	r3, [r3, #4]
 8003a92:	4699      	mov	r9, r3
 8003a94:	45c1      	cmp	r9, r8
 8003a96:	db1a      	blt.n	8003ace <stm32__i2c__mem_write+0x96>
 8003a98:	464b      	mov	r3, r9
 8003a9a:	2288      	movs	r2, #136	; 0x88
 8003a9c:	18b9      	adds	r1, r7, r2
 8003a9e:	600b      	str	r3, [r1, #0]
 8003aa0:	464b      	mov	r3, r9
 8003aa2:	17db      	asrs	r3, r3, #31
 8003aa4:	218c      	movs	r1, #140	; 0x8c
 8003aa6:	1879      	adds	r1, r7, r1
 8003aa8:	600b      	str	r3, [r1, #0]
 8003aaa:	4644      	mov	r4, r8
 8003aac:	4643      	mov	r3, r8
 8003aae:	17db      	asrs	r3, r3, #31
 8003ab0:	001d      	movs	r5, r3
 8003ab2:	0010      	movs	r0, r2
 8003ab4:	18bb      	adds	r3, r7, r2
 8003ab6:	6819      	ldr	r1, [r3, #0]
 8003ab8:	685a      	ldr	r2, [r3, #4]
 8003aba:	1b09      	subs	r1, r1, r4
 8003abc:	41aa      	sbcs	r2, r5
 8003abe:	2301      	movs	r3, #1
 8003ac0:	2400      	movs	r4, #0
 8003ac2:	18c9      	adds	r1, r1, r3
 8003ac4:	4162      	adcs	r2, r4
 8003ac6:	183b      	adds	r3, r7, r0
 8003ac8:	6019      	str	r1, [r3, #0]
 8003aca:	605a      	str	r2, [r3, #4]
 8003acc:	e005      	b.n	8003ada <stm32__i2c__mem_write+0xa2>
 8003ace:	2300      	movs	r3, #0
 8003ad0:	2400      	movs	r4, #0
 8003ad2:	2288      	movs	r2, #136	; 0x88
 8003ad4:	18ba      	adds	r2, r7, r2
 8003ad6:	6013      	str	r3, [r2, #0]
 8003ad8:	6054      	str	r4, [r2, #4]
 8003ada:	23a4      	movs	r3, #164	; 0xa4
 8003adc:	18fb      	adds	r3, r7, r3
 8003ade:	681b      	ldr	r3, [r3, #0]
 8003ae0:	0018      	movs	r0, r3
 8003ae2:	f7fe fac1 	bl	8002068 <stm32__i2c__is_configured>
 8003ae6:	0003      	movs	r3, r0
 8003ae8:	001a      	movs	r2, r3
 8003aea:	2301      	movs	r3, #1
 8003aec:	4053      	eors	r3, r2
 8003aee:	b2db      	uxtb	r3, r3
 8003af0:	2b00      	cmp	r3, #0
 8003af2:	d007      	beq.n	8003b04 <stm32__i2c__mem_write+0xcc>
 8003af4:	4bd5      	ldr	r3, [pc, #852]	; (8003e4c <stm32__i2c__mem_write+0x414>)
 8003af6:	603b      	str	r3, [r7, #0]
 8003af8:	4bd5      	ldr	r3, [pc, #852]	; (8003e50 <stm32__i2c__mem_write+0x418>)
 8003afa:	607b      	str	r3, [r7, #4]
 8003afc:	6838      	ldr	r0, [r7, #0]
 8003afe:	6879      	ldr	r1, [r7, #4]
 8003b00:	f005 f848 	bl	8008b94 <system__assertions__raise_assert_failure>
 8003b04:	46c2      	mov	sl, r8
 8003b06:	2300      	movs	r3, #0
 8003b08:	22bc      	movs	r2, #188	; 0xbc
 8003b0a:	18ba      	adds	r2, r7, r2
 8003b0c:	6013      	str	r3, [r2, #0]
 8003b0e:	2300      	movs	r3, #0
 8003b10:	22b8      	movs	r2, #184	; 0xb8
 8003b12:	18ba      	adds	r2, r7, r2
 8003b14:	6013      	str	r3, [r2, #0]
 8003b16:	f003 fa1b 	bl	8006f50 <ada__real_time__clock>
 8003b1a:	0003      	movs	r3, r0
 8003b1c:	000c      	movs	r4, r1
 8003b1e:	22b0      	movs	r2, #176	; 0xb0
 8003b20:	18ba      	adds	r2, r7, r2
 8003b22:	6013      	str	r3, [r2, #0]
 8003b24:	6054      	str	r4, [r2, #4]
 8003b26:	23a4      	movs	r3, #164	; 0xa4
 8003b28:	18fb      	adds	r3, r7, r3
 8003b2a:	681b      	ldr	r3, [r3, #0]
 8003b2c:	685b      	ldr	r3, [r3, #4]
 8003b2e:	3318      	adds	r3, #24
 8003b30:	681b      	ldr	r3, [r3, #0]
 8003b32:	041b      	lsls	r3, r3, #16
 8003b34:	0e1b      	lsrs	r3, r3, #24
 8003b36:	b2da      	uxtb	r2, r3
 8003b38:	237f      	movs	r3, #127	; 0x7f
 8003b3a:	439a      	bics	r2, r3
 8003b3c:	0013      	movs	r3, r2
 8003b3e:	b2db      	uxtb	r3, r3
 8003b40:	2b00      	cmp	r3, #0
 8003b42:	d021      	beq.n	8003b88 <stm32__i2c__mem_write+0x150>
 8003b44:	f003 fa04 	bl	8006f50 <ada__real_time__clock>
 8003b48:	23b0      	movs	r3, #176	; 0xb0
 8003b4a:	18fb      	adds	r3, r7, r3
 8003b4c:	685c      	ldr	r4, [r3, #4]
 8003b4e:	681b      	ldr	r3, [r3, #0]
 8003b50:	001a      	movs	r2, r3
 8003b52:	0023      	movs	r3, r4
 8003b54:	f003 f9dc 	bl	8006f10 <ada__real_time__Osubtract__2>
 8003b58:	0005      	movs	r5, r0
 8003b5a:	000e      	movs	r6, r1
 8003b5c:	23e8      	movs	r3, #232	; 0xe8
 8003b5e:	18fb      	adds	r3, r7, r3
 8003b60:	681b      	ldr	r3, [r3, #0]
 8003b62:	0018      	movs	r0, r3
 8003b64:	f003 f9f8 	bl	8006f58 <ada__real_time__milliseconds>
 8003b68:	0003      	movs	r3, r0
 8003b6a:	000c      	movs	r4, r1
 8003b6c:	42a6      	cmp	r6, r4
 8003b6e:	dc02      	bgt.n	8003b76 <stm32__i2c__mem_write+0x13e>
 8003b70:	d1d9      	bne.n	8003b26 <stm32__i2c__mem_write+0xee>
 8003b72:	429d      	cmp	r5, r3
 8003b74:	d9d7      	bls.n	8003b26 <stm32__i2c__mem_write+0xee>
 8003b76:	231d      	movs	r3, #29
 8003b78:	2290      	movs	r2, #144	; 0x90
 8003b7a:	4694      	mov	ip, r2
 8003b7c:	44bc      	add	ip, r7
 8003b7e:	4463      	add	r3, ip
 8003b80:	2203      	movs	r2, #3
 8003b82:	701a      	strb	r2, [r3, #0]
 8003b84:	f000 fbd4 	bl	8004330 <stm32__i2c__mem_write+0x8f8>
 8003b88:	45c8      	cmp	r8, r9
 8003b8a:	dd08      	ble.n	8003b9e <stm32__i2c__mem_write+0x166>
 8003b8c:	231d      	movs	r3, #29
 8003b8e:	2290      	movs	r2, #144	; 0x90
 8003b90:	4694      	mov	ip, r2
 8003b92:	44bc      	add	ip, r7
 8003b94:	4463      	add	r3, ip
 8003b96:	2201      	movs	r2, #1
 8003b98:	701a      	strb	r2, [r3, #0]
 8003b9a:	f000 fbc9 	bl	8004330 <stm32__i2c__mem_write+0x8f8>
 8003b9e:	23a4      	movs	r3, #164	; 0xa4
 8003ba0:	18fb      	adds	r3, r7, r3
 8003ba2:	681b      	ldr	r3, [r3, #0]
 8003ba4:	7d1b      	ldrb	r3, [r3, #20]
 8003ba6:	2b01      	cmp	r3, #1
 8003ba8:	d008      	beq.n	8003bbc <stm32__i2c__mem_write+0x184>
 8003baa:	231d      	movs	r3, #29
 8003bac:	2290      	movs	r2, #144	; 0x90
 8003bae:	4694      	mov	ip, r2
 8003bb0:	44bc      	add	ip, r7
 8003bb2:	4463      	add	r3, ip
 8003bb4:	2203      	movs	r2, #3
 8003bb6:	701a      	strb	r2, [r3, #0]
 8003bb8:	f000 fbba 	bl	8004330 <stm32__i2c__mem_write+0x8f8>
 8003bbc:	23a4      	movs	r3, #164	; 0xa4
 8003bbe:	18fb      	adds	r3, r7, r3
 8003bc0:	681a      	ldr	r2, [r3, #0]
 8003bc2:	2304      	movs	r3, #4
 8003bc4:	7513      	strb	r3, [r2, #20]
 8003bc6:	230f      	movs	r3, #15
 8003bc8:	2290      	movs	r2, #144	; 0x90
 8003bca:	4694      	mov	ip, r2
 8003bcc:	44bc      	add	ip, r7
 8003bce:	4463      	add	r3, ip
 8003bd0:	781b      	ldrb	r3, [r3, #0]
 8003bd2:	2b01      	cmp	r3, #1
 8003bd4:	d906      	bls.n	8003be4 <stm32__i2c__mem_write+0x1ac>
 8003bd6:	23aa      	movs	r3, #170	; 0xaa
 8003bd8:	009a      	lsls	r2, r3, #2
 8003bda:	4b9e      	ldr	r3, [pc, #632]	; (8003e54 <stm32__i2c__mem_write+0x41c>)
 8003bdc:	0011      	movs	r1, r2
 8003bde:	0018      	movs	r0, r3
 8003be0:	f004 fd8a 	bl	80086f8 <__gnat_last_chance_handler>
 8003be4:	230f      	movs	r3, #15
 8003be6:	2290      	movs	r2, #144	; 0x90
 8003be8:	4694      	mov	ip, r2
 8003bea:	44bc      	add	ip, r7
 8003bec:	4463      	add	r3, ip
 8003bee:	781b      	ldrb	r3, [r3, #0]
 8003bf0:	2b00      	cmp	r3, #0
 8003bf2:	d101      	bne.n	8003bf8 <stm32__i2c__mem_write+0x1c0>
 8003bf4:	2201      	movs	r2, #1
 8003bf6:	e000      	b.n	8003bfa <stm32__i2c__mem_write+0x1c2>
 8003bf8:	2202      	movs	r2, #2
 8003bfa:	2312      	movs	r3, #18
 8003bfc:	2190      	movs	r1, #144	; 0x90
 8003bfe:	468c      	mov	ip, r1
 8003c00:	44bc      	add	ip, r7
 8003c02:	4463      	add	r3, ip
 8003c04:	8819      	ldrh	r1, [r3, #0]
 8003c06:	24a4      	movs	r4, #164	; 0xa4
 8003c08:	193b      	adds	r3, r7, r4
 8003c0a:	6818      	ldr	r0, [r3, #0]
 8003c0c:	2303      	movs	r3, #3
 8003c0e:	9300      	str	r3, [sp, #0]
 8003c10:	2300      	movs	r3, #0
 8003c12:	f7fe fa37 	bl	8002084 <stm32__i2c__config_transfer>
 8003c16:	23e8      	movs	r3, #232	; 0xe8
 8003c18:	18fb      	adds	r3, r7, r3
 8003c1a:	681a      	ldr	r2, [r3, #0]
 8003c1c:	193b      	adds	r3, r7, r4
 8003c1e:	681b      	ldr	r3, [r3, #0]
 8003c20:	0011      	movs	r1, r2
 8003c22:	0018      	movs	r0, r3
 8003c24:	f7fe fba2 	bl	800236c <stm32__i2c__wait_tx_interrupt_status>
 8003c28:	0003      	movs	r3, r0
 8003c2a:	211d      	movs	r1, #29
 8003c2c:	2090      	movs	r0, #144	; 0x90
 8003c2e:	183a      	adds	r2, r7, r0
 8003c30:	1852      	adds	r2, r2, r1
 8003c32:	7013      	strb	r3, [r2, #0]
 8003c34:	183b      	adds	r3, r7, r0
 8003c36:	185b      	adds	r3, r3, r1
 8003c38:	781b      	ldrb	r3, [r3, #0]
 8003c3a:	2b00      	cmp	r3, #0
 8003c3c:	d006      	beq.n	8003c4c <stm32__i2c__mem_write+0x214>
 8003c3e:	23a4      	movs	r3, #164	; 0xa4
 8003c40:	18fb      	adds	r3, r7, r3
 8003c42:	681b      	ldr	r3, [r3, #0]
 8003c44:	2201      	movs	r2, #1
 8003c46:	751a      	strb	r2, [r3, #20]
 8003c48:	f000 fb72 	bl	8004330 <stm32__i2c__mem_write+0x8f8>
 8003c4c:	230f      	movs	r3, #15
 8003c4e:	2290      	movs	r2, #144	; 0x90
 8003c50:	4694      	mov	ip, r2
 8003c52:	44bc      	add	ip, r7
 8003c54:	4463      	add	r3, ip
 8003c56:	781b      	ldrb	r3, [r3, #0]
 8003c58:	2b01      	cmp	r3, #1
 8003c5a:	d905      	bls.n	8003c68 <stm32__i2c__mem_write+0x230>
 8003c5c:	4a7e      	ldr	r2, [pc, #504]	; (8003e58 <stm32__i2c__mem_write+0x420>)
 8003c5e:	4b7d      	ldr	r3, [pc, #500]	; (8003e54 <stm32__i2c__mem_write+0x41c>)
 8003c60:	0011      	movs	r1, r2
 8003c62:	0018      	movs	r0, r3
 8003c64:	f004 fd48 	bl	80086f8 <__gnat_last_chance_handler>
 8003c68:	230f      	movs	r3, #15
 8003c6a:	2290      	movs	r2, #144	; 0x90
 8003c6c:	4694      	mov	ip, r2
 8003c6e:	44bc      	add	ip, r7
 8003c70:	4463      	add	r3, ip
 8003c72:	781b      	ldrb	r3, [r3, #0]
 8003c74:	2b00      	cmp	r3, #0
 8003c76:	d128      	bne.n	8003cca <stm32__i2c__mem_write+0x292>
 8003c78:	2310      	movs	r3, #16
 8003c7a:	2290      	movs	r2, #144	; 0x90
 8003c7c:	4694      	mov	ip, r2
 8003c7e:	44bc      	add	ip, r7
 8003c80:	4463      	add	r3, ip
 8003c82:	881b      	ldrh	r3, [r3, #0]
 8003c84:	2bff      	cmp	r3, #255	; 0xff
 8003c86:	d906      	bls.n	8003c96 <stm32__i2c__mem_write+0x25e>
 8003c88:	23ae      	movs	r3, #174	; 0xae
 8003c8a:	009a      	lsls	r2, r3, #2
 8003c8c:	4b71      	ldr	r3, [pc, #452]	; (8003e54 <stm32__i2c__mem_write+0x41c>)
 8003c8e:	0011      	movs	r1, r2
 8003c90:	0018      	movs	r0, r3
 8003c92:	f004 fd31 	bl	80086f8 <__gnat_last_chance_handler>
 8003c96:	20a4      	movs	r0, #164	; 0xa4
 8003c98:	183b      	adds	r3, r7, r0
 8003c9a:	681b      	ldr	r3, [r3, #0]
 8003c9c:	685b      	ldr	r3, [r3, #4]
 8003c9e:	3328      	adds	r3, #40	; 0x28
 8003ca0:	681b      	ldr	r3, [r3, #0]
 8003ca2:	0019      	movs	r1, r3
 8003ca4:	2310      	movs	r3, #16
 8003ca6:	2290      	movs	r2, #144	; 0x90
 8003ca8:	4694      	mov	ip, r2
 8003caa:	44bc      	add	ip, r7
 8003cac:	4463      	add	r3, ip
 8003cae:	881b      	ldrh	r3, [r3, #0]
 8003cb0:	b2da      	uxtb	r2, r3
 8003cb2:	23ff      	movs	r3, #255	; 0xff
 8003cb4:	4399      	bics	r1, r3
 8003cb6:	000b      	movs	r3, r1
 8003cb8:	4313      	orrs	r3, r2
 8003cba:	0019      	movs	r1, r3
 8003cbc:	183b      	adds	r3, r7, r0
 8003cbe:	681b      	ldr	r3, [r3, #0]
 8003cc0:	685b      	ldr	r3, [r3, #4]
 8003cc2:	3328      	adds	r3, #40	; 0x28
 8003cc4:	000a      	movs	r2, r1
 8003cc6:	601a      	str	r2, [r3, #0]
 8003cc8:	e072      	b.n	8003db0 <stm32__i2c__mem_write+0x378>
 8003cca:	2310      	movs	r3, #16
 8003ccc:	2290      	movs	r2, #144	; 0x90
 8003cce:	4694      	mov	ip, r2
 8003cd0:	44bc      	add	ip, r7
 8003cd2:	4463      	add	r3, ip
 8003cd4:	881b      	ldrh	r3, [r3, #0]
 8003cd6:	0a1b      	lsrs	r3, r3, #8
 8003cd8:	b29b      	uxth	r3, r3
 8003cda:	2bff      	cmp	r3, #255	; 0xff
 8003cdc:	d906      	bls.n	8003cec <stm32__i2c__mem_write+0x2b4>
 8003cde:	23af      	movs	r3, #175	; 0xaf
 8003ce0:	009a      	lsls	r2, r3, #2
 8003ce2:	4b5c      	ldr	r3, [pc, #368]	; (8003e54 <stm32__i2c__mem_write+0x41c>)
 8003ce4:	0011      	movs	r1, r2
 8003ce6:	0018      	movs	r0, r3
 8003ce8:	f004 fd06 	bl	80086f8 <__gnat_last_chance_handler>
 8003cec:	221f      	movs	r2, #31
 8003cee:	2190      	movs	r1, #144	; 0x90
 8003cf0:	468c      	mov	ip, r1
 8003cf2:	44bc      	add	ip, r7
 8003cf4:	4462      	add	r2, ip
 8003cf6:	7013      	strb	r3, [r2, #0]
 8003cf8:	2310      	movs	r3, #16
 8003cfa:	2290      	movs	r2, #144	; 0x90
 8003cfc:	4694      	mov	ip, r2
 8003cfe:	44bc      	add	ip, r7
 8003d00:	4463      	add	r3, ip
 8003d02:	881a      	ldrh	r2, [r3, #0]
 8003d04:	23ff      	movs	r3, #255	; 0xff
 8003d06:	4013      	ands	r3, r2
 8003d08:	b29b      	uxth	r3, r3
 8003d0a:	2bff      	cmp	r3, #255	; 0xff
 8003d0c:	d905      	bls.n	8003d1a <stm32__i2c__mem_write+0x2e2>
 8003d0e:	4a53      	ldr	r2, [pc, #332]	; (8003e5c <stm32__i2c__mem_write+0x424>)
 8003d10:	4b50      	ldr	r3, [pc, #320]	; (8003e54 <stm32__i2c__mem_write+0x41c>)
 8003d12:	0011      	movs	r1, r2
 8003d14:	0018      	movs	r0, r3
 8003d16:	f004 fcef 	bl	80086f8 <__gnat_last_chance_handler>
 8003d1a:	221e      	movs	r2, #30
 8003d1c:	2190      	movs	r1, #144	; 0x90
 8003d1e:	468c      	mov	ip, r1
 8003d20:	44bc      	add	ip, r7
 8003d22:	4462      	add	r2, ip
 8003d24:	7013      	strb	r3, [r2, #0]
 8003d26:	20a4      	movs	r0, #164	; 0xa4
 8003d28:	183b      	adds	r3, r7, r0
 8003d2a:	681b      	ldr	r3, [r3, #0]
 8003d2c:	685b      	ldr	r3, [r3, #4]
 8003d2e:	3328      	adds	r3, #40	; 0x28
 8003d30:	681b      	ldr	r3, [r3, #0]
 8003d32:	0019      	movs	r1, r3
 8003d34:	231f      	movs	r3, #31
 8003d36:	2290      	movs	r2, #144	; 0x90
 8003d38:	4694      	mov	ip, r2
 8003d3a:	44bc      	add	ip, r7
 8003d3c:	4463      	add	r3, ip
 8003d3e:	781a      	ldrb	r2, [r3, #0]
 8003d40:	23ff      	movs	r3, #255	; 0xff
 8003d42:	4399      	bics	r1, r3
 8003d44:	000b      	movs	r3, r1
 8003d46:	4313      	orrs	r3, r2
 8003d48:	0019      	movs	r1, r3
 8003d4a:	183b      	adds	r3, r7, r0
 8003d4c:	681b      	ldr	r3, [r3, #0]
 8003d4e:	685b      	ldr	r3, [r3, #4]
 8003d50:	3328      	adds	r3, #40	; 0x28
 8003d52:	000a      	movs	r2, r1
 8003d54:	601a      	str	r2, [r3, #0]
 8003d56:	23e8      	movs	r3, #232	; 0xe8
 8003d58:	18fb      	adds	r3, r7, r3
 8003d5a:	681a      	ldr	r2, [r3, #0]
 8003d5c:	183b      	adds	r3, r7, r0
 8003d5e:	681b      	ldr	r3, [r3, #0]
 8003d60:	0011      	movs	r1, r2
 8003d62:	0018      	movs	r0, r3
 8003d64:	f7fe fb02 	bl	800236c <stm32__i2c__wait_tx_interrupt_status>
 8003d68:	0003      	movs	r3, r0
 8003d6a:	211d      	movs	r1, #29
 8003d6c:	2090      	movs	r0, #144	; 0x90
 8003d6e:	183a      	adds	r2, r7, r0
 8003d70:	1852      	adds	r2, r2, r1
 8003d72:	7013      	strb	r3, [r2, #0]
 8003d74:	183b      	adds	r3, r7, r0
 8003d76:	185b      	adds	r3, r3, r1
 8003d78:	781b      	ldrb	r3, [r3, #0]
 8003d7a:	2b00      	cmp	r3, #0
 8003d7c:	d000      	beq.n	8003d80 <stm32__i2c__mem_write+0x348>
 8003d7e:	e2ce      	b.n	800431e <stm32__i2c__mem_write+0x8e6>
 8003d80:	20a4      	movs	r0, #164	; 0xa4
 8003d82:	183b      	adds	r3, r7, r0
 8003d84:	681b      	ldr	r3, [r3, #0]
 8003d86:	685b      	ldr	r3, [r3, #4]
 8003d88:	3328      	adds	r3, #40	; 0x28
 8003d8a:	681b      	ldr	r3, [r3, #0]
 8003d8c:	0019      	movs	r1, r3
 8003d8e:	231e      	movs	r3, #30
 8003d90:	2290      	movs	r2, #144	; 0x90
 8003d92:	4694      	mov	ip, r2
 8003d94:	44bc      	add	ip, r7
 8003d96:	4463      	add	r3, ip
 8003d98:	781a      	ldrb	r2, [r3, #0]
 8003d9a:	23ff      	movs	r3, #255	; 0xff
 8003d9c:	4399      	bics	r1, r3
 8003d9e:	000b      	movs	r3, r1
 8003da0:	4313      	orrs	r3, r2
 8003da2:	0019      	movs	r1, r3
 8003da4:	183b      	adds	r3, r7, r0
 8003da6:	681b      	ldr	r3, [r3, #0]
 8003da8:	685b      	ldr	r3, [r3, #4]
 8003daa:	3328      	adds	r3, #40	; 0x28
 8003dac:	000a      	movs	r2, r1
 8003dae:	601a      	str	r2, [r3, #0]
 8003db0:	23e8      	movs	r3, #232	; 0xe8
 8003db2:	18fb      	adds	r3, r7, r3
 8003db4:	681a      	ldr	r2, [r3, #0]
 8003db6:	23a4      	movs	r3, #164	; 0xa4
 8003db8:	18fb      	adds	r3, r7, r3
 8003dba:	681b      	ldr	r3, [r3, #0]
 8003dbc:	0011      	movs	r1, r2
 8003dbe:	0018      	movs	r0, r3
 8003dc0:	f7fe fb38 	bl	8002434 <stm32__i2c__wait_transfer_complete_reset_flag>
 8003dc4:	0003      	movs	r3, r0
 8003dc6:	211d      	movs	r1, #29
 8003dc8:	2090      	movs	r0, #144	; 0x90
 8003dca:	183a      	adds	r2, r7, r0
 8003dcc:	1852      	adds	r2, r2, r1
 8003dce:	7013      	strb	r3, [r2, #0]
 8003dd0:	183b      	adds	r3, r7, r0
 8003dd2:	185b      	adds	r3, r3, r1
 8003dd4:	781b      	ldrb	r3, [r3, #0]
 8003dd6:	2b00      	cmp	r3, #0
 8003dd8:	d000      	beq.n	8003ddc <stm32__i2c__mem_write+0x3a4>
 8003dda:	e2a2      	b.n	8004322 <stm32__i2c__mem_write+0x8ea>
 8003ddc:	4643      	mov	r3, r8
 8003dde:	643b      	str	r3, [r7, #64]	; 0x40
 8003de0:	4643      	mov	r3, r8
 8003de2:	17db      	asrs	r3, r3, #31
 8003de4:	647b      	str	r3, [r7, #68]	; 0x44
 8003de6:	23fe      	movs	r3, #254	; 0xfe
 8003de8:	2400      	movs	r4, #0
 8003dea:	6c39      	ldr	r1, [r7, #64]	; 0x40
 8003dec:	6c7a      	ldr	r2, [r7, #68]	; 0x44
 8003dee:	18c9      	adds	r1, r1, r3
 8003df0:	4162      	adcs	r2, r4
 8003df2:	000b      	movs	r3, r1
 8003df4:	0014      	movs	r4, r2
 8003df6:	464a      	mov	r2, r9
 8003df8:	2180      	movs	r1, #128	; 0x80
 8003dfa:	1879      	adds	r1, r7, r1
 8003dfc:	600a      	str	r2, [r1, #0]
 8003dfe:	464a      	mov	r2, r9
 8003e00:	17d2      	asrs	r2, r2, #31
 8003e02:	2184      	movs	r1, #132	; 0x84
 8003e04:	1878      	adds	r0, r7, r1
 8003e06:	6002      	str	r2, [r0, #0]
 8003e08:	187a      	adds	r2, r7, r1
 8003e0a:	6812      	ldr	r2, [r2, #0]
 8003e0c:	42a2      	cmp	r2, r4
 8003e0e:	dc09      	bgt.n	8003e24 <stm32__i2c__mem_write+0x3ec>
 8003e10:	2284      	movs	r2, #132	; 0x84
 8003e12:	18ba      	adds	r2, r7, r2
 8003e14:	6812      	ldr	r2, [r2, #0]
 8003e16:	42a2      	cmp	r2, r4
 8003e18:	d122      	bne.n	8003e60 <stm32__i2c__mem_write+0x428>
 8003e1a:	2280      	movs	r2, #128	; 0x80
 8003e1c:	18ba      	adds	r2, r7, r2
 8003e1e:	6812      	ldr	r2, [r2, #0]
 8003e20:	429a      	cmp	r2, r3
 8003e22:	d91d      	bls.n	8003e60 <stm32__i2c__mem_write+0x428>
 8003e24:	2312      	movs	r3, #18
 8003e26:	2290      	movs	r2, #144	; 0x90
 8003e28:	4694      	mov	ip, r2
 8003e2a:	44bc      	add	ip, r7
 8003e2c:	4463      	add	r3, ip
 8003e2e:	8819      	ldrh	r1, [r3, #0]
 8003e30:	23a4      	movs	r3, #164	; 0xa4
 8003e32:	18fb      	adds	r3, r7, r3
 8003e34:	6818      	ldr	r0, [r3, #0]
 8003e36:	2300      	movs	r3, #0
 8003e38:	9300      	str	r3, [sp, #0]
 8003e3a:	2300      	movs	r3, #0
 8003e3c:	22ff      	movs	r2, #255	; 0xff
 8003e3e:	f7fe f921 	bl	8002084 <stm32__i2c__config_transfer>
 8003e42:	23ff      	movs	r3, #255	; 0xff
 8003e44:	22bc      	movs	r2, #188	; 0xbc
 8003e46:	18ba      	adds	r2, r7, r2
 8003e48:	6013      	str	r3, [r2, #0]
 8003e4a:	e063      	b.n	8003f14 <stm32__i2c__mem_write+0x4dc>
 8003e4c:	08009874 	.word	0x08009874
 8003e50:	080097a4 	.word	0x080097a4
 8003e54:	080097e0 	.word	0x080097e0
 8003e58:	000002b6 	.word	0x000002b6
 8003e5c:	000002bd 	.word	0x000002bd
 8003e60:	4643      	mov	r3, r8
 8003e62:	63bb      	str	r3, [r7, #56]	; 0x38
 8003e64:	4643      	mov	r3, r8
 8003e66:	17db      	asrs	r3, r3, #31
 8003e68:	63fb      	str	r3, [r7, #60]	; 0x3c
 8003e6a:	23fe      	movs	r3, #254	; 0xfe
 8003e6c:	2400      	movs	r4, #0
 8003e6e:	6bb9      	ldr	r1, [r7, #56]	; 0x38
 8003e70:	6bfa      	ldr	r2, [r7, #60]	; 0x3c
 8003e72:	18c9      	adds	r1, r1, r3
 8003e74:	4162      	adcs	r2, r4
 8003e76:	000b      	movs	r3, r1
 8003e78:	0014      	movs	r4, r2
 8003e7a:	464a      	mov	r2, r9
 8003e7c:	67ba      	str	r2, [r7, #120]	; 0x78
 8003e7e:	464a      	mov	r2, r9
 8003e80:	17d2      	asrs	r2, r2, #31
 8003e82:	67fa      	str	r2, [r7, #124]	; 0x7c
 8003e84:	6ffa      	ldr	r2, [r7, #124]	; 0x7c
 8003e86:	42a2      	cmp	r2, r4
 8003e88:	dc05      	bgt.n	8003e96 <stm32__i2c__mem_write+0x45e>
 8003e8a:	6ffa      	ldr	r2, [r7, #124]	; 0x7c
 8003e8c:	42a2      	cmp	r2, r4
 8003e8e:	d108      	bne.n	8003ea2 <stm32__i2c__mem_write+0x46a>
 8003e90:	6fba      	ldr	r2, [r7, #120]	; 0x78
 8003e92:	429a      	cmp	r2, r3
 8003e94:	d905      	bls.n	8003ea2 <stm32__i2c__mem_write+0x46a>
 8003e96:	4ad7      	ldr	r2, [pc, #860]	; (80041f4 <stm32__i2c__mem_write+0x7bc>)
 8003e98:	4bd7      	ldr	r3, [pc, #860]	; (80041f8 <stm32__i2c__mem_write+0x7c0>)
 8003e9a:	0011      	movs	r1, r2
 8003e9c:	0018      	movs	r0, r3
 8003e9e:	f004 fc2b 	bl	80086f8 <__gnat_last_chance_handler>
 8003ea2:	2388      	movs	r3, #136	; 0x88
 8003ea4:	18fb      	adds	r3, r7, r3
 8003ea6:	781a      	ldrb	r2, [r3, #0]
 8003ea8:	2312      	movs	r3, #18
 8003eaa:	2190      	movs	r1, #144	; 0x90
 8003eac:	468c      	mov	ip, r1
 8003eae:	44bc      	add	ip, r7
 8003eb0:	4463      	add	r3, ip
 8003eb2:	8819      	ldrh	r1, [r3, #0]
 8003eb4:	23a4      	movs	r3, #164	; 0xa4
 8003eb6:	18fb      	adds	r3, r7, r3
 8003eb8:	6818      	ldr	r0, [r3, #0]
 8003eba:	2300      	movs	r3, #0
 8003ebc:	9300      	str	r3, [sp, #0]
 8003ebe:	2301      	movs	r3, #1
 8003ec0:	f7fe f8e0 	bl	8002084 <stm32__i2c__config_transfer>
 8003ec4:	4643      	mov	r3, r8
 8003ec6:	633b      	str	r3, [r7, #48]	; 0x30
 8003ec8:	4643      	mov	r3, r8
 8003eca:	17db      	asrs	r3, r3, #31
 8003ecc:	637b      	str	r3, [r7, #52]	; 0x34
 8003ece:	4bcb      	ldr	r3, [pc, #812]	; (80041fc <stm32__i2c__mem_write+0x7c4>)
 8003ed0:	2400      	movs	r4, #0
 8003ed2:	6b39      	ldr	r1, [r7, #48]	; 0x30
 8003ed4:	6b7a      	ldr	r2, [r7, #52]	; 0x34
 8003ed6:	18c9      	adds	r1, r1, r3
 8003ed8:	4162      	adcs	r2, r4
 8003eda:	000b      	movs	r3, r1
 8003edc:	0014      	movs	r4, r2
 8003ede:	464a      	mov	r2, r9
 8003ee0:	673a      	str	r2, [r7, #112]	; 0x70
 8003ee2:	464a      	mov	r2, r9
 8003ee4:	17d2      	asrs	r2, r2, #31
 8003ee6:	677a      	str	r2, [r7, #116]	; 0x74
 8003ee8:	6f7a      	ldr	r2, [r7, #116]	; 0x74
 8003eea:	42a2      	cmp	r2, r4
 8003eec:	dc05      	bgt.n	8003efa <stm32__i2c__mem_write+0x4c2>
 8003eee:	6f7a      	ldr	r2, [r7, #116]	; 0x74
 8003ef0:	42a2      	cmp	r2, r4
 8003ef2:	d109      	bne.n	8003f08 <stm32__i2c__mem_write+0x4d0>
 8003ef4:	6f3a      	ldr	r2, [r7, #112]	; 0x70
 8003ef6:	429a      	cmp	r2, r3
 8003ef8:	d906      	bls.n	8003f08 <stm32__i2c__mem_write+0x4d0>
 8003efa:	23b6      	movs	r3, #182	; 0xb6
 8003efc:	009a      	lsls	r2, r3, #2
 8003efe:	4bbe      	ldr	r3, [pc, #760]	; (80041f8 <stm32__i2c__mem_write+0x7c0>)
 8003f00:	0011      	movs	r1, r2
 8003f02:	0018      	movs	r0, r3
 8003f04:	f004 fbf8 	bl	80086f8 <__gnat_last_chance_handler>
 8003f08:	2388      	movs	r3, #136	; 0x88
 8003f0a:	18fb      	adds	r3, r7, r3
 8003f0c:	681b      	ldr	r3, [r3, #0]
 8003f0e:	22bc      	movs	r2, #188	; 0xbc
 8003f10:	18ba      	adds	r2, r7, r2
 8003f12:	6013      	str	r3, [r2, #0]
 8003f14:	4643      	mov	r3, r8
 8003f16:	62bb      	str	r3, [r7, #40]	; 0x28
 8003f18:	4643      	mov	r3, r8
 8003f1a:	17db      	asrs	r3, r3, #31
 8003f1c:	62fb      	str	r3, [r7, #44]	; 0x2c
 8003f1e:	4bb7      	ldr	r3, [pc, #732]	; (80041fc <stm32__i2c__mem_write+0x7c4>)
 8003f20:	2400      	movs	r4, #0
 8003f22:	6ab9      	ldr	r1, [r7, #40]	; 0x28
 8003f24:	6afa      	ldr	r2, [r7, #44]	; 0x2c
 8003f26:	185b      	adds	r3, r3, r1
 8003f28:	4154      	adcs	r4, r2
 8003f2a:	464a      	mov	r2, r9
 8003f2c:	66ba      	str	r2, [r7, #104]	; 0x68
 8003f2e:	464a      	mov	r2, r9
 8003f30:	17d2      	asrs	r2, r2, #31
 8003f32:	66fa      	str	r2, [r7, #108]	; 0x6c
 8003f34:	6efa      	ldr	r2, [r7, #108]	; 0x6c
 8003f36:	42a2      	cmp	r2, r4
 8003f38:	dc05      	bgt.n	8003f46 <stm32__i2c__mem_write+0x50e>
 8003f3a:	6efa      	ldr	r2, [r7, #108]	; 0x6c
 8003f3c:	42a2      	cmp	r2, r4
 8003f3e:	d109      	bne.n	8003f54 <stm32__i2c__mem_write+0x51c>
 8003f40:	6eba      	ldr	r2, [r7, #104]	; 0x68
 8003f42:	429a      	cmp	r2, r3
 8003f44:	d906      	bls.n	8003f54 <stm32__i2c__mem_write+0x51c>
 8003f46:	23b7      	movs	r3, #183	; 0xb7
 8003f48:	009a      	lsls	r2, r3, #2
 8003f4a:	4bab      	ldr	r3, [pc, #684]	; (80041f8 <stm32__i2c__mem_write+0x7c0>)
 8003f4c:	0011      	movs	r1, r2
 8003f4e:	0018      	movs	r0, r3
 8003f50:	f004 fbd2 	bl	80086f8 <__gnat_last_chance_handler>
 8003f54:	2388      	movs	r3, #136	; 0x88
 8003f56:	18fb      	adds	r3, r7, r3
 8003f58:	681a      	ldr	r2, [r3, #0]
 8003f5a:	23b8      	movs	r3, #184	; 0xb8
 8003f5c:	18fb      	adds	r3, r7, r3
 8003f5e:	681b      	ldr	r3, [r3, #0]
 8003f60:	4293      	cmp	r3, r2
 8003f62:	db00      	blt.n	8003f66 <stm32__i2c__mem_write+0x52e>
 8003f64:	e1b3      	b.n	80042ce <stm32__i2c__mem_write+0x896>
 8003f66:	23e8      	movs	r3, #232	; 0xe8
 8003f68:	18fb      	adds	r3, r7, r3
 8003f6a:	681a      	ldr	r2, [r3, #0]
 8003f6c:	23a4      	movs	r3, #164	; 0xa4
 8003f6e:	18fb      	adds	r3, r7, r3
 8003f70:	681b      	ldr	r3, [r3, #0]
 8003f72:	0011      	movs	r1, r2
 8003f74:	0018      	movs	r0, r3
 8003f76:	f7fe f9f9 	bl	800236c <stm32__i2c__wait_tx_interrupt_status>
 8003f7a:	0003      	movs	r3, r0
 8003f7c:	211d      	movs	r1, #29
 8003f7e:	2090      	movs	r0, #144	; 0x90
 8003f80:	183a      	adds	r2, r7, r0
 8003f82:	1852      	adds	r2, r2, r1
 8003f84:	7013      	strb	r3, [r2, #0]
 8003f86:	183b      	adds	r3, r7, r0
 8003f88:	185b      	adds	r3, r3, r1
 8003f8a:	781b      	ldrb	r3, [r3, #0]
 8003f8c:	2b00      	cmp	r3, #0
 8003f8e:	d000      	beq.n	8003f92 <stm32__i2c__mem_write+0x55a>
 8003f90:	e1c9      	b.n	8004326 <stm32__i2c__mem_write+0x8ee>
 8003f92:	2400      	movs	r4, #0
 8003f94:	22b8      	movs	r2, #184	; 0xb8
 8003f96:	18bb      	adds	r3, r7, r2
 8003f98:	681b      	ldr	r3, [r3, #0]
 8003f9a:	4443      	add	r3, r8
 8003f9c:	0018      	movs	r0, r3
 8003f9e:	18bb      	adds	r3, r7, r2
 8003fa0:	681b      	ldr	r3, [r3, #0]
 8003fa2:	4641      	mov	r1, r8
 8003fa4:	4059      	eors	r1, r3
 8003fa6:	18bb      	adds	r3, r7, r2
 8003fa8:	681b      	ldr	r3, [r3, #0]
 8003faa:	4043      	eors	r3, r0
 8003fac:	001a      	movs	r2, r3
 8003fae:	43cb      	mvns	r3, r1
 8003fb0:	4013      	ands	r3, r2
 8003fb2:	d500      	bpl.n	8003fb6 <stm32__i2c__mem_write+0x57e>
 8003fb4:	2401      	movs	r4, #1
 8003fb6:	0002      	movs	r2, r0
 8003fb8:	1e23      	subs	r3, r4, #0
 8003fba:	d005      	beq.n	8003fc8 <stm32__i2c__mem_write+0x590>
 8003fbc:	4a90      	ldr	r2, [pc, #576]	; (8004200 <stm32__i2c__mem_write+0x7c8>)
 8003fbe:	4b8e      	ldr	r3, [pc, #568]	; (80041f8 <stm32__i2c__mem_write+0x7c0>)
 8003fc0:	0011      	movs	r1, r2
 8003fc2:	0018      	movs	r0, r3
 8003fc4:	f004 fb98 	bl	80086f8 <__gnat_last_chance_handler>
 8003fc8:	0013      	movs	r3, r2
 8003fca:	4598      	cmp	r8, r3
 8003fcc:	dc01      	bgt.n	8003fd2 <stm32__i2c__mem_write+0x59a>
 8003fce:	4599      	cmp	r9, r3
 8003fd0:	da05      	bge.n	8003fde <stm32__i2c__mem_write+0x5a6>
 8003fd2:	4a8b      	ldr	r2, [pc, #556]	; (8004200 <stm32__i2c__mem_write+0x7c8>)
 8003fd4:	4b88      	ldr	r3, [pc, #544]	; (80041f8 <stm32__i2c__mem_write+0x7c0>)
 8003fd6:	0011      	movs	r1, r2
 8003fd8:	0018      	movs	r0, r3
 8003fda:	f004 fb8d 	bl	80086f8 <__gnat_last_chance_handler>
 8003fde:	2290      	movs	r2, #144	; 0x90
 8003fe0:	18ba      	adds	r2, r7, r2
 8003fe2:	6812      	ldr	r2, [r2, #0]
 8003fe4:	0018      	movs	r0, r3
 8003fe6:	24a4      	movs	r4, #164	; 0xa4
 8003fe8:	193b      	adds	r3, r7, r4
 8003fea:	681b      	ldr	r3, [r3, #0]
 8003fec:	685b      	ldr	r3, [r3, #4]
 8003fee:	3328      	adds	r3, #40	; 0x28
 8003ff0:	681b      	ldr	r3, [r3, #0]
 8003ff2:	0019      	movs	r1, r3
 8003ff4:	4653      	mov	r3, sl
 8003ff6:	1ac3      	subs	r3, r0, r3
 8003ff8:	5cd2      	ldrb	r2, [r2, r3]
 8003ffa:	23ff      	movs	r3, #255	; 0xff
 8003ffc:	4399      	bics	r1, r3
 8003ffe:	000b      	movs	r3, r1
 8004000:	4313      	orrs	r3, r2
 8004002:	0019      	movs	r1, r3
 8004004:	193b      	adds	r3, r7, r4
 8004006:	681b      	ldr	r3, [r3, #0]
 8004008:	685b      	ldr	r3, [r3, #4]
 800400a:	3328      	adds	r3, #40	; 0x28
 800400c:	000a      	movs	r2, r1
 800400e:	601a      	str	r2, [r3, #0]
 8004010:	23b8      	movs	r3, #184	; 0xb8
 8004012:	18fb      	adds	r3, r7, r3
 8004014:	681a      	ldr	r2, [r3, #0]
 8004016:	4b7b      	ldr	r3, [pc, #492]	; (8004204 <stm32__i2c__mem_write+0x7cc>)
 8004018:	429a      	cmp	r2, r3
 800401a:	d106      	bne.n	800402a <stm32__i2c__mem_write+0x5f2>
 800401c:	23b9      	movs	r3, #185	; 0xb9
 800401e:	009a      	lsls	r2, r3, #2
 8004020:	4b75      	ldr	r3, [pc, #468]	; (80041f8 <stm32__i2c__mem_write+0x7c0>)
 8004022:	0011      	movs	r1, r2
 8004024:	0018      	movs	r0, r3
 8004026:	f004 fb67 	bl	80086f8 <__gnat_last_chance_handler>
 800402a:	22b8      	movs	r2, #184	; 0xb8
 800402c:	18bb      	adds	r3, r7, r2
 800402e:	681b      	ldr	r3, [r3, #0]
 8004030:	3301      	adds	r3, #1
 8004032:	18b9      	adds	r1, r7, r2
 8004034:	600b      	str	r3, [r1, #0]
 8004036:	18bb      	adds	r3, r7, r2
 8004038:	681a      	ldr	r2, [r3, #0]
 800403a:	23bc      	movs	r3, #188	; 0xbc
 800403c:	18fb      	adds	r3, r7, r3
 800403e:	681b      	ldr	r3, [r3, #0]
 8004040:	429a      	cmp	r2, r3
 8004042:	d000      	beq.n	8004046 <stm32__i2c__mem_write+0x60e>
 8004044:	e766      	b.n	8003f14 <stm32__i2c__mem_write+0x4dc>
 8004046:	4643      	mov	r3, r8
 8004048:	623b      	str	r3, [r7, #32]
 800404a:	4643      	mov	r3, r8
 800404c:	17db      	asrs	r3, r3, #31
 800404e:	627b      	str	r3, [r7, #36]	; 0x24
 8004050:	4b6a      	ldr	r3, [pc, #424]	; (80041fc <stm32__i2c__mem_write+0x7c4>)
 8004052:	2400      	movs	r4, #0
 8004054:	6a39      	ldr	r1, [r7, #32]
 8004056:	6a7a      	ldr	r2, [r7, #36]	; 0x24
 8004058:	185b      	adds	r3, r3, r1
 800405a:	4154      	adcs	r4, r2
 800405c:	464a      	mov	r2, r9
 800405e:	663a      	str	r2, [r7, #96]	; 0x60
 8004060:	464a      	mov	r2, r9
 8004062:	17d2      	asrs	r2, r2, #31
 8004064:	667a      	str	r2, [r7, #100]	; 0x64
 8004066:	6e7a      	ldr	r2, [r7, #100]	; 0x64
 8004068:	42a2      	cmp	r2, r4
 800406a:	dc05      	bgt.n	8004078 <stm32__i2c__mem_write+0x640>
 800406c:	6e7a      	ldr	r2, [r7, #100]	; 0x64
 800406e:	42a2      	cmp	r2, r4
 8004070:	d108      	bne.n	8004084 <stm32__i2c__mem_write+0x64c>
 8004072:	6e3a      	ldr	r2, [r7, #96]	; 0x60
 8004074:	429a      	cmp	r2, r3
 8004076:	d905      	bls.n	8004084 <stm32__i2c__mem_write+0x64c>
 8004078:	4a63      	ldr	r2, [pc, #396]	; (8004208 <stm32__i2c__mem_write+0x7d0>)
 800407a:	4b5f      	ldr	r3, [pc, #380]	; (80041f8 <stm32__i2c__mem_write+0x7c0>)
 800407c:	0011      	movs	r1, r2
 800407e:	0018      	movs	r0, r3
 8004080:	f004 fb3a 	bl	80086f8 <__gnat_last_chance_handler>
 8004084:	2388      	movs	r3, #136	; 0x88
 8004086:	18fb      	adds	r3, r7, r3
 8004088:	681a      	ldr	r2, [r3, #0]
 800408a:	2301      	movs	r3, #1
 800408c:	1c19      	adds	r1, r3, #0
 800408e:	23b8      	movs	r3, #184	; 0xb8
 8004090:	18fb      	adds	r3, r7, r3
 8004092:	681b      	ldr	r3, [r3, #0]
 8004094:	4293      	cmp	r3, r2
 8004096:	db01      	blt.n	800409c <stm32__i2c__mem_write+0x664>
 8004098:	2300      	movs	r3, #0
 800409a:	1c19      	adds	r1, r3, #0
 800409c:	b2cb      	uxtb	r3, r1
 800409e:	2b00      	cmp	r3, #0
 80040a0:	d100      	bne.n	80040a4 <stm32__i2c__mem_write+0x66c>
 80040a2:	e737      	b.n	8003f14 <stm32__i2c__mem_write+0x4dc>
 80040a4:	23e8      	movs	r3, #232	; 0xe8
 80040a6:	18fb      	adds	r3, r7, r3
 80040a8:	681a      	ldr	r2, [r3, #0]
 80040aa:	23a4      	movs	r3, #164	; 0xa4
 80040ac:	18fb      	adds	r3, r7, r3
 80040ae:	681b      	ldr	r3, [r3, #0]
 80040b0:	0011      	movs	r1, r2
 80040b2:	0018      	movs	r0, r3
 80040b4:	f7fe f9be 	bl	8002434 <stm32__i2c__wait_transfer_complete_reset_flag>
 80040b8:	0003      	movs	r3, r0
 80040ba:	211d      	movs	r1, #29
 80040bc:	2090      	movs	r0, #144	; 0x90
 80040be:	183a      	adds	r2, r7, r0
 80040c0:	1852      	adds	r2, r2, r1
 80040c2:	7013      	strb	r3, [r2, #0]
 80040c4:	183b      	adds	r3, r7, r0
 80040c6:	185b      	adds	r3, r3, r1
 80040c8:	781b      	ldrb	r3, [r3, #0]
 80040ca:	2b00      	cmp	r3, #0
 80040cc:	d000      	beq.n	80040d0 <stm32__i2c__mem_write+0x698>
 80040ce:	e12c      	b.n	800432a <stm32__i2c__mem_write+0x8f2>
 80040d0:	4643      	mov	r3, r8
 80040d2:	61bb      	str	r3, [r7, #24]
 80040d4:	4643      	mov	r3, r8
 80040d6:	17db      	asrs	r3, r3, #31
 80040d8:	61fb      	str	r3, [r7, #28]
 80040da:	4b48      	ldr	r3, [pc, #288]	; (80041fc <stm32__i2c__mem_write+0x7c4>)
 80040dc:	2400      	movs	r4, #0
 80040de:	69b9      	ldr	r1, [r7, #24]
 80040e0:	69fa      	ldr	r2, [r7, #28]
 80040e2:	185b      	adds	r3, r3, r1
 80040e4:	4154      	adcs	r4, r2
 80040e6:	464a      	mov	r2, r9
 80040e8:	65ba      	str	r2, [r7, #88]	; 0x58
 80040ea:	464a      	mov	r2, r9
 80040ec:	17d2      	asrs	r2, r2, #31
 80040ee:	65fa      	str	r2, [r7, #92]	; 0x5c
 80040f0:	6dfa      	ldr	r2, [r7, #92]	; 0x5c
 80040f2:	42a2      	cmp	r2, r4
 80040f4:	dc05      	bgt.n	8004102 <stm32__i2c__mem_write+0x6ca>
 80040f6:	6dfa      	ldr	r2, [r7, #92]	; 0x5c
 80040f8:	42a2      	cmp	r2, r4
 80040fa:	d109      	bne.n	8004110 <stm32__i2c__mem_write+0x6d8>
 80040fc:	6dba      	ldr	r2, [r7, #88]	; 0x58
 80040fe:	429a      	cmp	r2, r3
 8004100:	d906      	bls.n	8004110 <stm32__i2c__mem_write+0x6d8>
 8004102:	23bc      	movs	r3, #188	; 0xbc
 8004104:	009a      	lsls	r2, r3, #2
 8004106:	4b3c      	ldr	r3, [pc, #240]	; (80041f8 <stm32__i2c__mem_write+0x7c0>)
 8004108:	0011      	movs	r1, r2
 800410a:	0018      	movs	r0, r3
 800410c:	f004 faf4 	bl	80086f8 <__gnat_last_chance_handler>
 8004110:	2388      	movs	r3, #136	; 0x88
 8004112:	18fb      	adds	r3, r7, r3
 8004114:	681a      	ldr	r2, [r3, #0]
 8004116:	2000      	movs	r0, #0
 8004118:	24b8      	movs	r4, #184	; 0xb8
 800411a:	193b      	adds	r3, r7, r4
 800411c:	681b      	ldr	r3, [r3, #0]
 800411e:	1ad1      	subs	r1, r2, r3
 8004120:	193b      	adds	r3, r7, r4
 8004122:	681b      	ldr	r3, [r3, #0]
 8004124:	405a      	eors	r2, r3
 8004126:	193b      	adds	r3, r7, r4
 8004128:	681b      	ldr	r3, [r3, #0]
 800412a:	404b      	eors	r3, r1
 800412c:	43db      	mvns	r3, r3
 800412e:	4013      	ands	r3, r2
 8004130:	d500      	bpl.n	8004134 <stm32__i2c__mem_write+0x6fc>
 8004132:	2001      	movs	r0, #1
 8004134:	000a      	movs	r2, r1
 8004136:	1e03      	subs	r3, r0, #0
 8004138:	d006      	beq.n	8004148 <stm32__i2c__mem_write+0x710>
 800413a:	23bc      	movs	r3, #188	; 0xbc
 800413c:	009a      	lsls	r2, r3, #2
 800413e:	4b2e      	ldr	r3, [pc, #184]	; (80041f8 <stm32__i2c__mem_write+0x7c0>)
 8004140:	0011      	movs	r1, r2
 8004142:	0018      	movs	r0, r3
 8004144:	f004 fad8 	bl	80086f8 <__gnat_last_chance_handler>
 8004148:	2301      	movs	r3, #1
 800414a:	2aff      	cmp	r2, #255	; 0xff
 800414c:	dc00      	bgt.n	8004150 <stm32__i2c__mem_write+0x718>
 800414e:	2300      	movs	r3, #0
 8004150:	b2db      	uxtb	r3, r3
 8004152:	2b00      	cmp	r3, #0
 8004154:	d013      	beq.n	800417e <stm32__i2c__mem_write+0x746>
 8004156:	2312      	movs	r3, #18
 8004158:	2290      	movs	r2, #144	; 0x90
 800415a:	4694      	mov	ip, r2
 800415c:	44bc      	add	ip, r7
 800415e:	4463      	add	r3, ip
 8004160:	8819      	ldrh	r1, [r3, #0]
 8004162:	23a4      	movs	r3, #164	; 0xa4
 8004164:	18fb      	adds	r3, r7, r3
 8004166:	6818      	ldr	r0, [r3, #0]
 8004168:	2300      	movs	r3, #0
 800416a:	9300      	str	r3, [sp, #0]
 800416c:	2300      	movs	r3, #0
 800416e:	22ff      	movs	r2, #255	; 0xff
 8004170:	f7fd ff88 	bl	8002084 <stm32__i2c__config_transfer>
 8004174:	23ff      	movs	r3, #255	; 0xff
 8004176:	22bc      	movs	r2, #188	; 0xbc
 8004178:	18ba      	adds	r2, r7, r2
 800417a:	6013      	str	r3, [r2, #0]
 800417c:	e6ca      	b.n	8003f14 <stm32__i2c__mem_write+0x4dc>
 800417e:	4643      	mov	r3, r8
 8004180:	613b      	str	r3, [r7, #16]
 8004182:	4643      	mov	r3, r8
 8004184:	17db      	asrs	r3, r3, #31
 8004186:	617b      	str	r3, [r7, #20]
 8004188:	4b1c      	ldr	r3, [pc, #112]	; (80041fc <stm32__i2c__mem_write+0x7c4>)
 800418a:	2400      	movs	r4, #0
 800418c:	6939      	ldr	r1, [r7, #16]
 800418e:	697a      	ldr	r2, [r7, #20]
 8004190:	185b      	adds	r3, r3, r1
 8004192:	4154      	adcs	r4, r2
 8004194:	464a      	mov	r2, r9
 8004196:	653a      	str	r2, [r7, #80]	; 0x50
 8004198:	464a      	mov	r2, r9
 800419a:	17d2      	asrs	r2, r2, #31
 800419c:	657a      	str	r2, [r7, #84]	; 0x54
 800419e:	6d7a      	ldr	r2, [r7, #84]	; 0x54
 80041a0:	42a2      	cmp	r2, r4
 80041a2:	dc05      	bgt.n	80041b0 <stm32__i2c__mem_write+0x778>
 80041a4:	6d7a      	ldr	r2, [r7, #84]	; 0x54
 80041a6:	42a2      	cmp	r2, r4
 80041a8:	d108      	bne.n	80041bc <stm32__i2c__mem_write+0x784>
 80041aa:	6d3a      	ldr	r2, [r7, #80]	; 0x50
 80041ac:	429a      	cmp	r2, r3
 80041ae:	d905      	bls.n	80041bc <stm32__i2c__mem_write+0x784>
 80041b0:	4a16      	ldr	r2, [pc, #88]	; (800420c <stm32__i2c__mem_write+0x7d4>)
 80041b2:	4b11      	ldr	r3, [pc, #68]	; (80041f8 <stm32__i2c__mem_write+0x7c0>)
 80041b4:	0011      	movs	r1, r2
 80041b6:	0018      	movs	r0, r3
 80041b8:	f004 fa9e 	bl	80086f8 <__gnat_last_chance_handler>
 80041bc:	2388      	movs	r3, #136	; 0x88
 80041be:	18fb      	adds	r3, r7, r3
 80041c0:	681a      	ldr	r2, [r3, #0]
 80041c2:	2000      	movs	r0, #0
 80041c4:	24b8      	movs	r4, #184	; 0xb8
 80041c6:	193b      	adds	r3, r7, r4
 80041c8:	681b      	ldr	r3, [r3, #0]
 80041ca:	1ad1      	subs	r1, r2, r3
 80041cc:	193b      	adds	r3, r7, r4
 80041ce:	681b      	ldr	r3, [r3, #0]
 80041d0:	405a      	eors	r2, r3
 80041d2:	193b      	adds	r3, r7, r4
 80041d4:	681b      	ldr	r3, [r3, #0]
 80041d6:	404b      	eors	r3, r1
 80041d8:	43db      	mvns	r3, r3
 80041da:	4013      	ands	r3, r2
 80041dc:	d500      	bpl.n	80041e0 <stm32__i2c__mem_write+0x7a8>
 80041de:	2001      	movs	r0, #1
 80041e0:	000a      	movs	r2, r1
 80041e2:	1e03      	subs	r3, r0, #0
 80041e4:	d014      	beq.n	8004210 <stm32__i2c__mem_write+0x7d8>
 80041e6:	4a09      	ldr	r2, [pc, #36]	; (800420c <stm32__i2c__mem_write+0x7d4>)
 80041e8:	4b03      	ldr	r3, [pc, #12]	; (80041f8 <stm32__i2c__mem_write+0x7c0>)
 80041ea:	0011      	movs	r1, r2
 80041ec:	0018      	movs	r0, r3
 80041ee:	f004 fa83 	bl	80086f8 <__gnat_last_chance_handler>
 80041f2:	46c0      	nop			; (mov r8, r8)
 80041f4:	000002d7 	.word	0x000002d7
 80041f8:	080097e0 	.word	0x080097e0
 80041fc:	7ffffffe 	.word	0x7ffffffe
 8004200:	000002e3 	.word	0x000002e3
 8004204:	7fffffff 	.word	0x7fffffff
 8004208:	000002e7 	.word	0x000002e7
 800420c:	000002f7 	.word	0x000002f7
 8004210:	1e13      	subs	r3, r2, #0
 8004212:	db01      	blt.n	8004218 <stm32__i2c__mem_write+0x7e0>
 8004214:	2bff      	cmp	r3, #255	; 0xff
 8004216:	dd05      	ble.n	8004224 <stm32__i2c__mem_write+0x7ec>
 8004218:	4a4d      	ldr	r2, [pc, #308]	; (8004350 <stm32__i2c__mem_write+0x918>)
 800421a:	4b4e      	ldr	r3, [pc, #312]	; (8004354 <stm32__i2c__mem_write+0x91c>)
 800421c:	0011      	movs	r1, r2
 800421e:	0018      	movs	r0, r3
 8004220:	f004 fa6a 	bl	80086f8 <__gnat_last_chance_handler>
 8004224:	b2da      	uxtb	r2, r3
 8004226:	2312      	movs	r3, #18
 8004228:	2190      	movs	r1, #144	; 0x90
 800422a:	468c      	mov	ip, r1
 800422c:	44bc      	add	ip, r7
 800422e:	4463      	add	r3, ip
 8004230:	8819      	ldrh	r1, [r3, #0]
 8004232:	23a4      	movs	r3, #164	; 0xa4
 8004234:	18fb      	adds	r3, r7, r3
 8004236:	6818      	ldr	r0, [r3, #0]
 8004238:	2300      	movs	r3, #0
 800423a:	9300      	str	r3, [sp, #0]
 800423c:	2301      	movs	r3, #1
 800423e:	f7fd ff21 	bl	8002084 <stm32__i2c__config_transfer>
 8004242:	4643      	mov	r3, r8
 8004244:	60bb      	str	r3, [r7, #8]
 8004246:	4643      	mov	r3, r8
 8004248:	17db      	asrs	r3, r3, #31
 800424a:	60fb      	str	r3, [r7, #12]
 800424c:	4b42      	ldr	r3, [pc, #264]	; (8004358 <stm32__i2c__mem_write+0x920>)
 800424e:	2400      	movs	r4, #0
 8004250:	68b9      	ldr	r1, [r7, #8]
 8004252:	68fa      	ldr	r2, [r7, #12]
 8004254:	185b      	adds	r3, r3, r1
 8004256:	4154      	adcs	r4, r2
 8004258:	464a      	mov	r2, r9
 800425a:	64ba      	str	r2, [r7, #72]	; 0x48
 800425c:	464a      	mov	r2, r9
 800425e:	17d2      	asrs	r2, r2, #31
 8004260:	64fa      	str	r2, [r7, #76]	; 0x4c
 8004262:	6cfa      	ldr	r2, [r7, #76]	; 0x4c
 8004264:	42a2      	cmp	r2, r4
 8004266:	dc05      	bgt.n	8004274 <stm32__i2c__mem_write+0x83c>
 8004268:	6cfa      	ldr	r2, [r7, #76]	; 0x4c
 800426a:	42a2      	cmp	r2, r4
 800426c:	d108      	bne.n	8004280 <stm32__i2c__mem_write+0x848>
 800426e:	6cba      	ldr	r2, [r7, #72]	; 0x48
 8004270:	429a      	cmp	r2, r3
 8004272:	d905      	bls.n	8004280 <stm32__i2c__mem_write+0x848>
 8004274:	4a39      	ldr	r2, [pc, #228]	; (800435c <stm32__i2c__mem_write+0x924>)
 8004276:	4b37      	ldr	r3, [pc, #220]	; (8004354 <stm32__i2c__mem_write+0x91c>)
 8004278:	0011      	movs	r1, r2
 800427a:	0018      	movs	r0, r3
 800427c:	f004 fa3c 	bl	80086f8 <__gnat_last_chance_handler>
 8004280:	2388      	movs	r3, #136	; 0x88
 8004282:	18fb      	adds	r3, r7, r3
 8004284:	681a      	ldr	r2, [r3, #0]
 8004286:	2000      	movs	r0, #0
 8004288:	24b8      	movs	r4, #184	; 0xb8
 800428a:	193b      	adds	r3, r7, r4
 800428c:	681b      	ldr	r3, [r3, #0]
 800428e:	1ad1      	subs	r1, r2, r3
 8004290:	193b      	adds	r3, r7, r4
 8004292:	681b      	ldr	r3, [r3, #0]
 8004294:	405a      	eors	r2, r3
 8004296:	193b      	adds	r3, r7, r4
 8004298:	681b      	ldr	r3, [r3, #0]
 800429a:	404b      	eors	r3, r1
 800429c:	43db      	mvns	r3, r3
 800429e:	4013      	ands	r3, r2
 80042a0:	d500      	bpl.n	80042a4 <stm32__i2c__mem_write+0x86c>
 80042a2:	2001      	movs	r0, #1
 80042a4:	000a      	movs	r2, r1
 80042a6:	1e03      	subs	r3, r0, #0
 80042a8:	d005      	beq.n	80042b6 <stm32__i2c__mem_write+0x87e>
 80042aa:	4a2c      	ldr	r2, [pc, #176]	; (800435c <stm32__i2c__mem_write+0x924>)
 80042ac:	4b29      	ldr	r3, [pc, #164]	; (8004354 <stm32__i2c__mem_write+0x91c>)
 80042ae:	0011      	movs	r1, r2
 80042b0:	0018      	movs	r0, r3
 80042b2:	f004 fa21 	bl	80086f8 <__gnat_last_chance_handler>
 80042b6:	1e13      	subs	r3, r2, #0
 80042b8:	da05      	bge.n	80042c6 <stm32__i2c__mem_write+0x88e>
 80042ba:	4a28      	ldr	r2, [pc, #160]	; (800435c <stm32__i2c__mem_write+0x924>)
 80042bc:	4b25      	ldr	r3, [pc, #148]	; (8004354 <stm32__i2c__mem_write+0x91c>)
 80042be:	0011      	movs	r1, r2
 80042c0:	0018      	movs	r0, r3
 80042c2:	f004 fa19 	bl	80086f8 <__gnat_last_chance_handler>
 80042c6:	22bc      	movs	r2, #188	; 0xbc
 80042c8:	18ba      	adds	r2, r7, r2
 80042ca:	6013      	str	r3, [r2, #0]
 80042cc:	e622      	b.n	8003f14 <stm32__i2c__mem_write+0x4dc>
 80042ce:	23e8      	movs	r3, #232	; 0xe8
 80042d0:	18fb      	adds	r3, r7, r3
 80042d2:	681a      	ldr	r2, [r3, #0]
 80042d4:	23a4      	movs	r3, #164	; 0xa4
 80042d6:	18fb      	adds	r3, r7, r3
 80042d8:	681b      	ldr	r3, [r3, #0]
 80042da:	0011      	movs	r1, r2
 80042dc:	0018      	movs	r0, r3
 80042de:	f7fe f8f5 	bl	80024cc <stm32__i2c__wait_stop_flag>
 80042e2:	0003      	movs	r3, r0
 80042e4:	001a      	movs	r2, r3
 80042e6:	211d      	movs	r1, #29
 80042e8:	2090      	movs	r0, #144	; 0x90
 80042ea:	183b      	adds	r3, r7, r0
 80042ec:	185b      	adds	r3, r3, r1
 80042ee:	701a      	strb	r2, [r3, #0]
 80042f0:	183b      	adds	r3, r7, r0
 80042f2:	185b      	adds	r3, r3, r1
 80042f4:	781b      	ldrb	r3, [r3, #0]
 80042f6:	2b00      	cmp	r3, #0
 80042f8:	d119      	bne.n	800432e <stm32__i2c__mem_write+0x8f6>
 80042fa:	24a4      	movs	r4, #164	; 0xa4
 80042fc:	193b      	adds	r3, r7, r4
 80042fe:	681b      	ldr	r3, [r3, #0]
 8004300:	0018      	movs	r0, r3
 8004302:	f7fd ff65 	bl	80021d0 <stm32__i2c__reset_config>
 8004306:	193b      	adds	r3, r7, r4
 8004308:	681b      	ldr	r3, [r3, #0]
 800430a:	2201      	movs	r2, #1
 800430c:	751a      	strb	r2, [r3, #20]
 800430e:	231d      	movs	r3, #29
 8004310:	2290      	movs	r2, #144	; 0x90
 8004312:	4694      	mov	ip, r2
 8004314:	44bc      	add	ip, r7
 8004316:	4463      	add	r3, ip
 8004318:	2200      	movs	r2, #0
 800431a:	701a      	strb	r2, [r3, #0]
 800431c:	e008      	b.n	8004330 <stm32__i2c__mem_write+0x8f8>
 800431e:	46c0      	nop			; (mov r8, r8)
 8004320:	e006      	b.n	8004330 <stm32__i2c__mem_write+0x8f8>
 8004322:	46c0      	nop			; (mov r8, r8)
 8004324:	e004      	b.n	8004330 <stm32__i2c__mem_write+0x8f8>
 8004326:	46c0      	nop			; (mov r8, r8)
 8004328:	e002      	b.n	8004330 <stm32__i2c__mem_write+0x8f8>
 800432a:	46c0      	nop			; (mov r8, r8)
 800432c:	e000      	b.n	8004330 <stm32__i2c__mem_write+0x8f8>
 800432e:	46c0      	nop			; (mov r8, r8)
 8004330:	231d      	movs	r3, #29
 8004332:	2290      	movs	r2, #144	; 0x90
 8004334:	4694      	mov	ip, r2
 8004336:	44bc      	add	ip, r7
 8004338:	4463      	add	r3, ip
 800433a:	781b      	ldrb	r3, [r3, #0]
 800433c:	46c0      	nop			; (mov r8, r8)
 800433e:	0018      	movs	r0, r3
 8004340:	46bd      	mov	sp, r7
 8004342:	b030      	add	sp, #192	; 0xc0
 8004344:	bc1c      	pop	{r2, r3, r4}
 8004346:	4690      	mov	r8, r2
 8004348:	4699      	mov	r9, r3
 800434a:	46a2      	mov	sl, r4
 800434c:	bdf0      	pop	{r4, r5, r6, r7, pc}
 800434e:	46c0      	nop			; (mov r8, r8)
 8004350:	000002f7 	.word	0x000002f7
 8004354:	080097e0 	.word	0x080097e0
 8004358:	7ffffffe 	.word	0x7ffffffe
 800435c:	000002fa 	.word	0x000002fa

08004360 <stm32__i2c__mem_read>:
 8004360:	b5f0      	push	{r4, r5, r6, r7, lr}
 8004362:	46c6      	mov	lr, r8
 8004364:	b500      	push	{lr}
 8004366:	b0ae      	sub	sp, #184	; 0xb8
 8004368:	af02      	add	r7, sp, #8
 800436a:	2494      	movs	r4, #148	; 0x94
 800436c:	193c      	adds	r4, r7, r4
 800436e:	6020      	str	r0, [r4, #0]
 8004370:	0010      	movs	r0, r2
 8004372:	001c      	movs	r4, r3
 8004374:	2312      	movs	r3, #18
 8004376:	2280      	movs	r2, #128	; 0x80
 8004378:	18ba      	adds	r2, r7, r2
 800437a:	18d2      	adds	r2, r2, r3
 800437c:	1c0b      	adds	r3, r1, #0
 800437e:	8013      	strh	r3, [r2, #0]
 8004380:	2310      	movs	r3, #16
 8004382:	2180      	movs	r1, #128	; 0x80
 8004384:	187a      	adds	r2, r7, r1
 8004386:	18d2      	adds	r2, r2, r3
 8004388:	1c03      	adds	r3, r0, #0
 800438a:	8013      	strh	r3, [r2, #0]
 800438c:	230f      	movs	r3, #15
 800438e:	187a      	adds	r2, r7, r1
 8004390:	18d2      	adds	r2, r2, r3
 8004392:	1c23      	adds	r3, r4, #0
 8004394:	7013      	strb	r3, [r2, #0]
 8004396:	187b      	adds	r3, r7, r1
 8004398:	2248      	movs	r2, #72	; 0x48
 800439a:	1879      	adds	r1, r7, r1
 800439c:	1889      	adds	r1, r1, r2
 800439e:	001a      	movs	r2, r3
 80043a0:	000b      	movs	r3, r1
 80043a2:	cb03      	ldmia	r3!, {r0, r1}
 80043a4:	c203      	stmia	r2!, {r0, r1}
 80043a6:	2394      	movs	r3, #148	; 0x94
 80043a8:	18fb      	adds	r3, r7, r3
 80043aa:	681b      	ldr	r3, [r3, #0]
 80043ac:	0018      	movs	r0, r3
 80043ae:	f7fd fe5b 	bl	8002068 <stm32__i2c__is_configured>
 80043b2:	0003      	movs	r3, r0
 80043b4:	001a      	movs	r2, r3
 80043b6:	2301      	movs	r3, #1
 80043b8:	4053      	eors	r3, r2
 80043ba:	b2db      	uxtb	r3, r3
 80043bc:	2b00      	cmp	r3, #0
 80043be:	d007      	beq.n	80043d0 <stm32__i2c__mem_read+0x70>
 80043c0:	4be1      	ldr	r3, [pc, #900]	; (8004748 <stm32__i2c__mem_read+0x3e8>)
 80043c2:	001d      	movs	r5, r3
 80043c4:	4be1      	ldr	r3, [pc, #900]	; (800474c <stm32__i2c__mem_read+0x3ec>)
 80043c6:	001e      	movs	r6, r3
 80043c8:	0028      	movs	r0, r5
 80043ca:	0031      	movs	r1, r6
 80043cc:	f004 fbe2 	bl	8008b94 <system__assertions__raise_assert_failure>
 80043d0:	2384      	movs	r3, #132	; 0x84
 80043d2:	18fb      	adds	r3, r7, r3
 80043d4:	681b      	ldr	r3, [r3, #0]
 80043d6:	681b      	ldr	r3, [r3, #0]
 80043d8:	4698      	mov	r8, r3
 80043da:	2300      	movs	r3, #0
 80043dc:	22a8      	movs	r2, #168	; 0xa8
 80043de:	18ba      	adds	r2, r7, r2
 80043e0:	6013      	str	r3, [r2, #0]
 80043e2:	2300      	movs	r3, #0
 80043e4:	22ac      	movs	r2, #172	; 0xac
 80043e6:	18ba      	adds	r2, r7, r2
 80043e8:	6013      	str	r3, [r2, #0]
 80043ea:	f002 fdb1 	bl	8006f50 <ada__real_time__clock>
 80043ee:	0003      	movs	r3, r0
 80043f0:	000c      	movs	r4, r1
 80043f2:	22a0      	movs	r2, #160	; 0xa0
 80043f4:	18ba      	adds	r2, r7, r2
 80043f6:	6013      	str	r3, [r2, #0]
 80043f8:	6054      	str	r4, [r2, #4]
 80043fa:	2394      	movs	r3, #148	; 0x94
 80043fc:	18fb      	adds	r3, r7, r3
 80043fe:	681b      	ldr	r3, [r3, #0]
 8004400:	685b      	ldr	r3, [r3, #4]
 8004402:	3318      	adds	r3, #24
 8004404:	681b      	ldr	r3, [r3, #0]
 8004406:	041b      	lsls	r3, r3, #16
 8004408:	0e1b      	lsrs	r3, r3, #24
 800440a:	b2da      	uxtb	r2, r3
 800440c:	237f      	movs	r3, #127	; 0x7f
 800440e:	439a      	bics	r2, r3
 8004410:	0013      	movs	r3, r2
 8004412:	b2db      	uxtb	r3, r3
 8004414:	2b00      	cmp	r3, #0
 8004416:	d021      	beq.n	800445c <stm32__i2c__mem_read+0xfc>
 8004418:	f002 fd9a 	bl	8006f50 <ada__real_time__clock>
 800441c:	23a0      	movs	r3, #160	; 0xa0
 800441e:	18fb      	adds	r3, r7, r3
 8004420:	685c      	ldr	r4, [r3, #4]
 8004422:	681b      	ldr	r3, [r3, #0]
 8004424:	001a      	movs	r2, r3
 8004426:	0023      	movs	r3, r4
 8004428:	f002 fd72 	bl	8006f10 <ada__real_time__Osubtract__2>
 800442c:	0005      	movs	r5, r0
 800442e:	000e      	movs	r6, r1
 8004430:	23d0      	movs	r3, #208	; 0xd0
 8004432:	18fb      	adds	r3, r7, r3
 8004434:	681b      	ldr	r3, [r3, #0]
 8004436:	0018      	movs	r0, r3
 8004438:	f002 fd8e 	bl	8006f58 <ada__real_time__milliseconds>
 800443c:	0003      	movs	r3, r0
 800443e:	000c      	movs	r4, r1
 8004440:	42a6      	cmp	r6, r4
 8004442:	dc02      	bgt.n	800444a <stm32__i2c__mem_read+0xea>
 8004444:	d1d9      	bne.n	80043fa <stm32__i2c__mem_read+0x9a>
 8004446:	429d      	cmp	r5, r3
 8004448:	d9d7      	bls.n	80043fa <stm32__i2c__mem_read+0x9a>
 800444a:	231d      	movs	r3, #29
 800444c:	2280      	movs	r2, #128	; 0x80
 800444e:	4694      	mov	ip, r2
 8004450:	44bc      	add	ip, r7
 8004452:	4463      	add	r3, ip
 8004454:	2203      	movs	r2, #3
 8004456:	701a      	strb	r2, [r3, #0]
 8004458:	f000 fc57 	bl	8004d0a <stm32__i2c__mem_read+0x9aa>
 800445c:	2184      	movs	r1, #132	; 0x84
 800445e:	187b      	adds	r3, r7, r1
 8004460:	681b      	ldr	r3, [r3, #0]
 8004462:	681a      	ldr	r2, [r3, #0]
 8004464:	187b      	adds	r3, r7, r1
 8004466:	681b      	ldr	r3, [r3, #0]
 8004468:	685b      	ldr	r3, [r3, #4]
 800446a:	429a      	cmp	r2, r3
 800446c:	dd08      	ble.n	8004480 <stm32__i2c__mem_read+0x120>
 800446e:	231d      	movs	r3, #29
 8004470:	2280      	movs	r2, #128	; 0x80
 8004472:	4694      	mov	ip, r2
 8004474:	44bc      	add	ip, r7
 8004476:	4463      	add	r3, ip
 8004478:	2201      	movs	r2, #1
 800447a:	701a      	strb	r2, [r3, #0]
 800447c:	f000 fc45 	bl	8004d0a <stm32__i2c__mem_read+0x9aa>
 8004480:	2394      	movs	r3, #148	; 0x94
 8004482:	18fb      	adds	r3, r7, r3
 8004484:	681b      	ldr	r3, [r3, #0]
 8004486:	7d1b      	ldrb	r3, [r3, #20]
 8004488:	2b01      	cmp	r3, #1
 800448a:	d008      	beq.n	800449e <stm32__i2c__mem_read+0x13e>
 800448c:	231d      	movs	r3, #29
 800448e:	2280      	movs	r2, #128	; 0x80
 8004490:	4694      	mov	ip, r2
 8004492:	44bc      	add	ip, r7
 8004494:	4463      	add	r3, ip
 8004496:	2203      	movs	r2, #3
 8004498:	701a      	strb	r2, [r3, #0]
 800449a:	f000 fc36 	bl	8004d0a <stm32__i2c__mem_read+0x9aa>
 800449e:	2394      	movs	r3, #148	; 0x94
 80044a0:	18fb      	adds	r3, r7, r3
 80044a2:	681a      	ldr	r2, [r3, #0]
 80044a4:	2305      	movs	r3, #5
 80044a6:	7513      	strb	r3, [r2, #20]
 80044a8:	230f      	movs	r3, #15
 80044aa:	2280      	movs	r2, #128	; 0x80
 80044ac:	4694      	mov	ip, r2
 80044ae:	44bc      	add	ip, r7
 80044b0:	4463      	add	r3, ip
 80044b2:	781b      	ldrb	r3, [r3, #0]
 80044b4:	2b01      	cmp	r3, #1
 80044b6:	d905      	bls.n	80044c4 <stm32__i2c__mem_read+0x164>
 80044b8:	4aa5      	ldr	r2, [pc, #660]	; (8004750 <stm32__i2c__mem_read+0x3f0>)
 80044ba:	4ba6      	ldr	r3, [pc, #664]	; (8004754 <stm32__i2c__mem_read+0x3f4>)
 80044bc:	0011      	movs	r1, r2
 80044be:	0018      	movs	r0, r3
 80044c0:	f004 f91a 	bl	80086f8 <__gnat_last_chance_handler>
 80044c4:	230f      	movs	r3, #15
 80044c6:	2280      	movs	r2, #128	; 0x80
 80044c8:	4694      	mov	ip, r2
 80044ca:	44bc      	add	ip, r7
 80044cc:	4463      	add	r3, ip
 80044ce:	781b      	ldrb	r3, [r3, #0]
 80044d0:	2b00      	cmp	r3, #0
 80044d2:	d101      	bne.n	80044d8 <stm32__i2c__mem_read+0x178>
 80044d4:	2201      	movs	r2, #1
 80044d6:	e000      	b.n	80044da <stm32__i2c__mem_read+0x17a>
 80044d8:	2202      	movs	r2, #2
 80044da:	2312      	movs	r3, #18
 80044dc:	2180      	movs	r1, #128	; 0x80
 80044de:	468c      	mov	ip, r1
 80044e0:	44bc      	add	ip, r7
 80044e2:	4463      	add	r3, ip
 80044e4:	8819      	ldrh	r1, [r3, #0]
 80044e6:	2494      	movs	r4, #148	; 0x94
 80044e8:	193b      	adds	r3, r7, r4
 80044ea:	6818      	ldr	r0, [r3, #0]
 80044ec:	2303      	movs	r3, #3
 80044ee:	9300      	str	r3, [sp, #0]
 80044f0:	2302      	movs	r3, #2
 80044f2:	f7fd fdc7 	bl	8002084 <stm32__i2c__config_transfer>
 80044f6:	23d0      	movs	r3, #208	; 0xd0
 80044f8:	18fb      	adds	r3, r7, r3
 80044fa:	681a      	ldr	r2, [r3, #0]
 80044fc:	193b      	adds	r3, r7, r4
 80044fe:	681b      	ldr	r3, [r3, #0]
 8004500:	0011      	movs	r1, r2
 8004502:	0018      	movs	r0, r3
 8004504:	f7fd ff32 	bl	800236c <stm32__i2c__wait_tx_interrupt_status>
 8004508:	0003      	movs	r3, r0
 800450a:	211d      	movs	r1, #29
 800450c:	2080      	movs	r0, #128	; 0x80
 800450e:	183a      	adds	r2, r7, r0
 8004510:	1852      	adds	r2, r2, r1
 8004512:	7013      	strb	r3, [r2, #0]
 8004514:	183b      	adds	r3, r7, r0
 8004516:	185b      	adds	r3, r3, r1
 8004518:	781b      	ldrb	r3, [r3, #0]
 800451a:	2b00      	cmp	r3, #0
 800451c:	d001      	beq.n	8004522 <stm32__i2c__mem_read+0x1c2>
 800451e:	f000 fbef 	bl	8004d00 <stm32__i2c__mem_read+0x9a0>
 8004522:	230f      	movs	r3, #15
 8004524:	2280      	movs	r2, #128	; 0x80
 8004526:	4694      	mov	ip, r2
 8004528:	44bc      	add	ip, r7
 800452a:	4463      	add	r3, ip
 800452c:	781b      	ldrb	r3, [r3, #0]
 800452e:	2b01      	cmp	r3, #1
 8004530:	d905      	bls.n	800453e <stm32__i2c__mem_read+0x1de>
 8004532:	4a89      	ldr	r2, [pc, #548]	; (8004758 <stm32__i2c__mem_read+0x3f8>)
 8004534:	4b87      	ldr	r3, [pc, #540]	; (8004754 <stm32__i2c__mem_read+0x3f4>)
 8004536:	0011      	movs	r1, r2
 8004538:	0018      	movs	r0, r3
 800453a:	f004 f8dd 	bl	80086f8 <__gnat_last_chance_handler>
 800453e:	230f      	movs	r3, #15
 8004540:	2280      	movs	r2, #128	; 0x80
 8004542:	4694      	mov	ip, r2
 8004544:	44bc      	add	ip, r7
 8004546:	4463      	add	r3, ip
 8004548:	781b      	ldrb	r3, [r3, #0]
 800454a:	2b00      	cmp	r3, #0
 800454c:	d128      	bne.n	80045a0 <stm32__i2c__mem_read+0x240>
 800454e:	2310      	movs	r3, #16
 8004550:	2280      	movs	r2, #128	; 0x80
 8004552:	4694      	mov	ip, r2
 8004554:	44bc      	add	ip, r7
 8004556:	4463      	add	r3, ip
 8004558:	881b      	ldrh	r3, [r3, #0]
 800455a:	2bff      	cmp	r3, #255	; 0xff
 800455c:	d906      	bls.n	800456c <stm32__i2c__mem_read+0x20c>
 800455e:	23d1      	movs	r3, #209	; 0xd1
 8004560:	009a      	lsls	r2, r3, #2
 8004562:	4b7c      	ldr	r3, [pc, #496]	; (8004754 <stm32__i2c__mem_read+0x3f4>)
 8004564:	0011      	movs	r1, r2
 8004566:	0018      	movs	r0, r3
 8004568:	f004 f8c6 	bl	80086f8 <__gnat_last_chance_handler>
 800456c:	2094      	movs	r0, #148	; 0x94
 800456e:	183b      	adds	r3, r7, r0
 8004570:	681b      	ldr	r3, [r3, #0]
 8004572:	685b      	ldr	r3, [r3, #4]
 8004574:	3328      	adds	r3, #40	; 0x28
 8004576:	681b      	ldr	r3, [r3, #0]
 8004578:	0019      	movs	r1, r3
 800457a:	2310      	movs	r3, #16
 800457c:	2280      	movs	r2, #128	; 0x80
 800457e:	4694      	mov	ip, r2
 8004580:	44bc      	add	ip, r7
 8004582:	4463      	add	r3, ip
 8004584:	881b      	ldrh	r3, [r3, #0]
 8004586:	b2da      	uxtb	r2, r3
 8004588:	23ff      	movs	r3, #255	; 0xff
 800458a:	4399      	bics	r1, r3
 800458c:	000b      	movs	r3, r1
 800458e:	4313      	orrs	r3, r2
 8004590:	0019      	movs	r1, r3
 8004592:	183b      	adds	r3, r7, r0
 8004594:	681b      	ldr	r3, [r3, #0]
 8004596:	685b      	ldr	r3, [r3, #4]
 8004598:	3328      	adds	r3, #40	; 0x28
 800459a:	000a      	movs	r2, r1
 800459c:	601a      	str	r2, [r3, #0]
 800459e:	e072      	b.n	8004686 <stm32__i2c__mem_read+0x326>
 80045a0:	2310      	movs	r3, #16
 80045a2:	2280      	movs	r2, #128	; 0x80
 80045a4:	4694      	mov	ip, r2
 80045a6:	44bc      	add	ip, r7
 80045a8:	4463      	add	r3, ip
 80045aa:	881b      	ldrh	r3, [r3, #0]
 80045ac:	0a1b      	lsrs	r3, r3, #8
 80045ae:	b29b      	uxth	r3, r3
 80045b0:	2bff      	cmp	r3, #255	; 0xff
 80045b2:	d906      	bls.n	80045c2 <stm32__i2c__mem_read+0x262>
 80045b4:	23d2      	movs	r3, #210	; 0xd2
 80045b6:	009a      	lsls	r2, r3, #2
 80045b8:	4b66      	ldr	r3, [pc, #408]	; (8004754 <stm32__i2c__mem_read+0x3f4>)
 80045ba:	0011      	movs	r1, r2
 80045bc:	0018      	movs	r0, r3
 80045be:	f004 f89b 	bl	80086f8 <__gnat_last_chance_handler>
 80045c2:	221f      	movs	r2, #31
 80045c4:	2180      	movs	r1, #128	; 0x80
 80045c6:	468c      	mov	ip, r1
 80045c8:	44bc      	add	ip, r7
 80045ca:	4462      	add	r2, ip
 80045cc:	7013      	strb	r3, [r2, #0]
 80045ce:	2310      	movs	r3, #16
 80045d0:	2280      	movs	r2, #128	; 0x80
 80045d2:	4694      	mov	ip, r2
 80045d4:	44bc      	add	ip, r7
 80045d6:	4463      	add	r3, ip
 80045d8:	881a      	ldrh	r2, [r3, #0]
 80045da:	23ff      	movs	r3, #255	; 0xff
 80045dc:	4013      	ands	r3, r2
 80045de:	b29b      	uxth	r3, r3
 80045e0:	2bff      	cmp	r3, #255	; 0xff
 80045e2:	d905      	bls.n	80045f0 <stm32__i2c__mem_read+0x290>
 80045e4:	4a5d      	ldr	r2, [pc, #372]	; (800475c <stm32__i2c__mem_read+0x3fc>)
 80045e6:	4b5b      	ldr	r3, [pc, #364]	; (8004754 <stm32__i2c__mem_read+0x3f4>)
 80045e8:	0011      	movs	r1, r2
 80045ea:	0018      	movs	r0, r3
 80045ec:	f004 f884 	bl	80086f8 <__gnat_last_chance_handler>
 80045f0:	221e      	movs	r2, #30
 80045f2:	2180      	movs	r1, #128	; 0x80
 80045f4:	468c      	mov	ip, r1
 80045f6:	44bc      	add	ip, r7
 80045f8:	4462      	add	r2, ip
 80045fa:	7013      	strb	r3, [r2, #0]
 80045fc:	2094      	movs	r0, #148	; 0x94
 80045fe:	183b      	adds	r3, r7, r0
 8004600:	681b      	ldr	r3, [r3, #0]
 8004602:	685b      	ldr	r3, [r3, #4]
 8004604:	3328      	adds	r3, #40	; 0x28
 8004606:	681b      	ldr	r3, [r3, #0]
 8004608:	0019      	movs	r1, r3
 800460a:	231f      	movs	r3, #31
 800460c:	2280      	movs	r2, #128	; 0x80
 800460e:	4694      	mov	ip, r2
 8004610:	44bc      	add	ip, r7
 8004612:	4463      	add	r3, ip
 8004614:	781a      	ldrb	r2, [r3, #0]
 8004616:	23ff      	movs	r3, #255	; 0xff
 8004618:	4399      	bics	r1, r3
 800461a:	000b      	movs	r3, r1
 800461c:	4313      	orrs	r3, r2
 800461e:	0019      	movs	r1, r3
 8004620:	183b      	adds	r3, r7, r0
 8004622:	681b      	ldr	r3, [r3, #0]
 8004624:	685b      	ldr	r3, [r3, #4]
 8004626:	3328      	adds	r3, #40	; 0x28
 8004628:	000a      	movs	r2, r1
 800462a:	601a      	str	r2, [r3, #0]
 800462c:	23d0      	movs	r3, #208	; 0xd0
 800462e:	18fb      	adds	r3, r7, r3
 8004630:	681a      	ldr	r2, [r3, #0]
 8004632:	183b      	adds	r3, r7, r0
 8004634:	681b      	ldr	r3, [r3, #0]
 8004636:	0011      	movs	r1, r2
 8004638:	0018      	movs	r0, r3
 800463a:	f7fd fe97 	bl	800236c <stm32__i2c__wait_tx_interrupt_status>
 800463e:	0003      	movs	r3, r0
 8004640:	211d      	movs	r1, #29
 8004642:	2080      	movs	r0, #128	; 0x80
 8004644:	183a      	adds	r2, r7, r0
 8004646:	1852      	adds	r2, r2, r1
 8004648:	7013      	strb	r3, [r2, #0]
 800464a:	183b      	adds	r3, r7, r0
 800464c:	185b      	adds	r3, r3, r1
 800464e:	781b      	ldrb	r3, [r3, #0]
 8004650:	2b00      	cmp	r3, #0
 8004652:	d000      	beq.n	8004656 <stm32__i2c__mem_read+0x2f6>
 8004654:	e356      	b.n	8004d04 <stm32__i2c__mem_read+0x9a4>
 8004656:	2094      	movs	r0, #148	; 0x94
 8004658:	183b      	adds	r3, r7, r0
 800465a:	681b      	ldr	r3, [r3, #0]
 800465c:	685b      	ldr	r3, [r3, #4]
 800465e:	3328      	adds	r3, #40	; 0x28
 8004660:	681b      	ldr	r3, [r3, #0]
 8004662:	0019      	movs	r1, r3
 8004664:	231e      	movs	r3, #30
 8004666:	2280      	movs	r2, #128	; 0x80
 8004668:	4694      	mov	ip, r2
 800466a:	44bc      	add	ip, r7
 800466c:	4463      	add	r3, ip
 800466e:	781a      	ldrb	r2, [r3, #0]
 8004670:	23ff      	movs	r3, #255	; 0xff
 8004672:	4399      	bics	r1, r3
 8004674:	000b      	movs	r3, r1
 8004676:	4313      	orrs	r3, r2
 8004678:	0019      	movs	r1, r3
 800467a:	183b      	adds	r3, r7, r0
 800467c:	681b      	ldr	r3, [r3, #0]
 800467e:	685b      	ldr	r3, [r3, #4]
 8004680:	3328      	adds	r3, #40	; 0x28
 8004682:	000a      	movs	r2, r1
 8004684:	601a      	str	r2, [r3, #0]
 8004686:	2394      	movs	r3, #148	; 0x94
 8004688:	18fb      	adds	r3, r7, r3
 800468a:	681b      	ldr	r3, [r3, #0]
 800468c:	685b      	ldr	r3, [r3, #4]
 800468e:	3318      	adds	r3, #24
 8004690:	681b      	ldr	r3, [r3, #0]
 8004692:	b2da      	uxtb	r2, r3
 8004694:	2340      	movs	r3, #64	; 0x40
 8004696:	4013      	ands	r3, r2
 8004698:	b2db      	uxtb	r3, r3
 800469a:	2b00      	cmp	r3, #0
 800469c:	d101      	bne.n	80046a2 <stm32__i2c__mem_read+0x342>
 800469e:	46c0      	nop			; (mov r8, r8)
 80046a0:	e7f1      	b.n	8004686 <stm32__i2c__mem_read+0x326>
 80046a2:	2084      	movs	r0, #132	; 0x84
 80046a4:	183b      	adds	r3, r7, r0
 80046a6:	681b      	ldr	r3, [r3, #0]
 80046a8:	681b      	ldr	r3, [r3, #0]
 80046aa:	63bb      	str	r3, [r7, #56]	; 0x38
 80046ac:	17db      	asrs	r3, r3, #31
 80046ae:	63fb      	str	r3, [r7, #60]	; 0x3c
 80046b0:	23fe      	movs	r3, #254	; 0xfe
 80046b2:	2400      	movs	r4, #0
 80046b4:	6bb9      	ldr	r1, [r7, #56]	; 0x38
 80046b6:	6bfa      	ldr	r2, [r7, #60]	; 0x3c
 80046b8:	18c9      	adds	r1, r1, r3
 80046ba:	4162      	adcs	r2, r4
 80046bc:	183b      	adds	r3, r7, r0
 80046be:	681b      	ldr	r3, [r3, #0]
 80046c0:	685b      	ldr	r3, [r3, #4]
 80046c2:	67bb      	str	r3, [r7, #120]	; 0x78
 80046c4:	17db      	asrs	r3, r3, #31
 80046c6:	67fb      	str	r3, [r7, #124]	; 0x7c
 80046c8:	6ffb      	ldr	r3, [r7, #124]	; 0x7c
 80046ca:	4293      	cmp	r3, r2
 80046cc:	dc05      	bgt.n	80046da <stm32__i2c__mem_read+0x37a>
 80046ce:	6ffb      	ldr	r3, [r7, #124]	; 0x7c
 80046d0:	4293      	cmp	r3, r2
 80046d2:	d116      	bne.n	8004702 <stm32__i2c__mem_read+0x3a2>
 80046d4:	6fbb      	ldr	r3, [r7, #120]	; 0x78
 80046d6:	428b      	cmp	r3, r1
 80046d8:	d913      	bls.n	8004702 <stm32__i2c__mem_read+0x3a2>
 80046da:	2312      	movs	r3, #18
 80046dc:	2280      	movs	r2, #128	; 0x80
 80046de:	4694      	mov	ip, r2
 80046e0:	44bc      	add	ip, r7
 80046e2:	4463      	add	r3, ip
 80046e4:	8819      	ldrh	r1, [r3, #0]
 80046e6:	2394      	movs	r3, #148	; 0x94
 80046e8:	18fb      	adds	r3, r7, r3
 80046ea:	6818      	ldr	r0, [r3, #0]
 80046ec:	2302      	movs	r3, #2
 80046ee:	9300      	str	r3, [sp, #0]
 80046f0:	2300      	movs	r3, #0
 80046f2:	22ff      	movs	r2, #255	; 0xff
 80046f4:	f7fd fcc6 	bl	8002084 <stm32__i2c__config_transfer>
 80046f8:	23ff      	movs	r3, #255	; 0xff
 80046fa:	22a8      	movs	r2, #168	; 0xa8
 80046fc:	18ba      	adds	r2, r7, r2
 80046fe:	6013      	str	r3, [r2, #0]
 8004700:	e091      	b.n	8004826 <stm32__i2c__mem_read+0x4c6>
 8004702:	2084      	movs	r0, #132	; 0x84
 8004704:	183b      	adds	r3, r7, r0
 8004706:	681b      	ldr	r3, [r3, #0]
 8004708:	681b      	ldr	r3, [r3, #0]
 800470a:	633b      	str	r3, [r7, #48]	; 0x30
 800470c:	17db      	asrs	r3, r3, #31
 800470e:	637b      	str	r3, [r7, #52]	; 0x34
 8004710:	23fe      	movs	r3, #254	; 0xfe
 8004712:	2400      	movs	r4, #0
 8004714:	6b39      	ldr	r1, [r7, #48]	; 0x30
 8004716:	6b7a      	ldr	r2, [r7, #52]	; 0x34
 8004718:	18c9      	adds	r1, r1, r3
 800471a:	4162      	adcs	r2, r4
 800471c:	183b      	adds	r3, r7, r0
 800471e:	681b      	ldr	r3, [r3, #0]
 8004720:	685b      	ldr	r3, [r3, #4]
 8004722:	673b      	str	r3, [r7, #112]	; 0x70
 8004724:	17db      	asrs	r3, r3, #31
 8004726:	677b      	str	r3, [r7, #116]	; 0x74
 8004728:	6f7b      	ldr	r3, [r7, #116]	; 0x74
 800472a:	4293      	cmp	r3, r2
 800472c:	dc05      	bgt.n	800473a <stm32__i2c__mem_read+0x3da>
 800472e:	6f7b      	ldr	r3, [r7, #116]	; 0x74
 8004730:	4293      	cmp	r3, r2
 8004732:	d117      	bne.n	8004764 <stm32__i2c__mem_read+0x404>
 8004734:	6f3b      	ldr	r3, [r7, #112]	; 0x70
 8004736:	428b      	cmp	r3, r1
 8004738:	d914      	bls.n	8004764 <stm32__i2c__mem_read+0x404>
 800473a:	4a09      	ldr	r2, [pc, #36]	; (8004760 <stm32__i2c__mem_read+0x400>)
 800473c:	4b05      	ldr	r3, [pc, #20]	; (8004754 <stm32__i2c__mem_read+0x3f4>)
 800473e:	0011      	movs	r1, r2
 8004740:	0018      	movs	r0, r3
 8004742:	f003 ffd9 	bl	80086f8 <__gnat_last_chance_handler>
 8004746:	46c0      	nop			; (mov r8, r8)
 8004748:	080098a0 	.word	0x080098a0
 800474c:	080097a4 	.word	0x080097a4
 8004750:	00000336 	.word	0x00000336
 8004754:	080097e0 	.word	0x080097e0
 8004758:	00000342 	.word	0x00000342
 800475c:	00000349 	.word	0x00000349
 8004760:	00000363 	.word	0x00000363
 8004764:	2184      	movs	r1, #132	; 0x84
 8004766:	187b      	adds	r3, r7, r1
 8004768:	681b      	ldr	r3, [r3, #0]
 800476a:	685a      	ldr	r2, [r3, #4]
 800476c:	187b      	adds	r3, r7, r1
 800476e:	681b      	ldr	r3, [r3, #0]
 8004770:	681b      	ldr	r3, [r3, #0]
 8004772:	429a      	cmp	r2, r3
 8004774:	db0d      	blt.n	8004792 <stm32__i2c__mem_read+0x432>
 8004776:	2184      	movs	r1, #132	; 0x84
 8004778:	187b      	adds	r3, r7, r1
 800477a:	681b      	ldr	r3, [r3, #0]
 800477c:	685b      	ldr	r3, [r3, #4]
 800477e:	b2da      	uxtb	r2, r3
 8004780:	187b      	adds	r3, r7, r1
 8004782:	681b      	ldr	r3, [r3, #0]
 8004784:	681b      	ldr	r3, [r3, #0]
 8004786:	b2db      	uxtb	r3, r3
 8004788:	1ad3      	subs	r3, r2, r3
 800478a:	b2db      	uxtb	r3, r3
 800478c:	3301      	adds	r3, #1
 800478e:	b2da      	uxtb	r2, r3
 8004790:	e000      	b.n	8004794 <stm32__i2c__mem_read+0x434>
 8004792:	2200      	movs	r2, #0
 8004794:	2312      	movs	r3, #18
 8004796:	2180      	movs	r1, #128	; 0x80
 8004798:	468c      	mov	ip, r1
 800479a:	44bc      	add	ip, r7
 800479c:	4463      	add	r3, ip
 800479e:	8819      	ldrh	r1, [r3, #0]
 80047a0:	2394      	movs	r3, #148	; 0x94
 80047a2:	18fb      	adds	r3, r7, r3
 80047a4:	6818      	ldr	r0, [r3, #0]
 80047a6:	2302      	movs	r3, #2
 80047a8:	9300      	str	r3, [sp, #0]
 80047aa:	2301      	movs	r3, #1
 80047ac:	f7fd fc6a 	bl	8002084 <stm32__i2c__config_transfer>
 80047b0:	2084      	movs	r0, #132	; 0x84
 80047b2:	183b      	adds	r3, r7, r0
 80047b4:	681b      	ldr	r3, [r3, #0]
 80047b6:	681b      	ldr	r3, [r3, #0]
 80047b8:	62bb      	str	r3, [r7, #40]	; 0x28
 80047ba:	17db      	asrs	r3, r3, #31
 80047bc:	62fb      	str	r3, [r7, #44]	; 0x2c
 80047be:	4bd0      	ldr	r3, [pc, #832]	; (8004b00 <stm32__i2c__mem_read+0x7a0>)
 80047c0:	2400      	movs	r4, #0
 80047c2:	6ab9      	ldr	r1, [r7, #40]	; 0x28
 80047c4:	6afa      	ldr	r2, [r7, #44]	; 0x2c
 80047c6:	18c9      	adds	r1, r1, r3
 80047c8:	4162      	adcs	r2, r4
 80047ca:	183b      	adds	r3, r7, r0
 80047cc:	681b      	ldr	r3, [r3, #0]
 80047ce:	685b      	ldr	r3, [r3, #4]
 80047d0:	66bb      	str	r3, [r7, #104]	; 0x68
 80047d2:	17db      	asrs	r3, r3, #31
 80047d4:	66fb      	str	r3, [r7, #108]	; 0x6c
 80047d6:	6efb      	ldr	r3, [r7, #108]	; 0x6c
 80047d8:	4293      	cmp	r3, r2
 80047da:	dc05      	bgt.n	80047e8 <stm32__i2c__mem_read+0x488>
 80047dc:	6efb      	ldr	r3, [r7, #108]	; 0x6c
 80047de:	4293      	cmp	r3, r2
 80047e0:	d109      	bne.n	80047f6 <stm32__i2c__mem_read+0x496>
 80047e2:	6ebb      	ldr	r3, [r7, #104]	; 0x68
 80047e4:	428b      	cmp	r3, r1
 80047e6:	d906      	bls.n	80047f6 <stm32__i2c__mem_read+0x496>
 80047e8:	23d9      	movs	r3, #217	; 0xd9
 80047ea:	009a      	lsls	r2, r3, #2
 80047ec:	4bc5      	ldr	r3, [pc, #788]	; (8004b04 <stm32__i2c__mem_read+0x7a4>)
 80047ee:	0011      	movs	r1, r2
 80047f0:	0018      	movs	r0, r3
 80047f2:	f003 ff81 	bl	80086f8 <__gnat_last_chance_handler>
 80047f6:	2184      	movs	r1, #132	; 0x84
 80047f8:	187b      	adds	r3, r7, r1
 80047fa:	681b      	ldr	r3, [r3, #0]
 80047fc:	685a      	ldr	r2, [r3, #4]
 80047fe:	187b      	adds	r3, r7, r1
 8004800:	681b      	ldr	r3, [r3, #0]
 8004802:	681b      	ldr	r3, [r3, #0]
 8004804:	429a      	cmp	r2, r3
 8004806:	db0a      	blt.n	800481e <stm32__i2c__mem_read+0x4be>
 8004808:	2184      	movs	r1, #132	; 0x84
 800480a:	187b      	adds	r3, r7, r1
 800480c:	681b      	ldr	r3, [r3, #0]
 800480e:	685b      	ldr	r3, [r3, #4]
 8004810:	001a      	movs	r2, r3
 8004812:	187b      	adds	r3, r7, r1
 8004814:	681b      	ldr	r3, [r3, #0]
 8004816:	681b      	ldr	r3, [r3, #0]
 8004818:	1ad3      	subs	r3, r2, r3
 800481a:	3301      	adds	r3, #1
 800481c:	e000      	b.n	8004820 <stm32__i2c__mem_read+0x4c0>
 800481e:	2300      	movs	r3, #0
 8004820:	22a8      	movs	r2, #168	; 0xa8
 8004822:	18ba      	adds	r2, r7, r2
 8004824:	6013      	str	r3, [r2, #0]
 8004826:	2084      	movs	r0, #132	; 0x84
 8004828:	183b      	adds	r3, r7, r0
 800482a:	681b      	ldr	r3, [r3, #0]
 800482c:	681b      	ldr	r3, [r3, #0]
 800482e:	623b      	str	r3, [r7, #32]
 8004830:	17db      	asrs	r3, r3, #31
 8004832:	627b      	str	r3, [r7, #36]	; 0x24
 8004834:	4bb2      	ldr	r3, [pc, #712]	; (8004b00 <stm32__i2c__mem_read+0x7a0>)
 8004836:	2400      	movs	r4, #0
 8004838:	6a39      	ldr	r1, [r7, #32]
 800483a:	6a7a      	ldr	r2, [r7, #36]	; 0x24
 800483c:	18c9      	adds	r1, r1, r3
 800483e:	4162      	adcs	r2, r4
 8004840:	183b      	adds	r3, r7, r0
 8004842:	681b      	ldr	r3, [r3, #0]
 8004844:	685b      	ldr	r3, [r3, #4]
 8004846:	663b      	str	r3, [r7, #96]	; 0x60
 8004848:	17db      	asrs	r3, r3, #31
 800484a:	667b      	str	r3, [r7, #100]	; 0x64
 800484c:	6e7b      	ldr	r3, [r7, #100]	; 0x64
 800484e:	4293      	cmp	r3, r2
 8004850:	dc05      	bgt.n	800485e <stm32__i2c__mem_read+0x4fe>
 8004852:	6e7b      	ldr	r3, [r7, #100]	; 0x64
 8004854:	4293      	cmp	r3, r2
 8004856:	d109      	bne.n	800486c <stm32__i2c__mem_read+0x50c>
 8004858:	6e3b      	ldr	r3, [r7, #96]	; 0x60
 800485a:	428b      	cmp	r3, r1
 800485c:	d906      	bls.n	800486c <stm32__i2c__mem_read+0x50c>
 800485e:	23da      	movs	r3, #218	; 0xda
 8004860:	009a      	lsls	r2, r3, #2
 8004862:	4ba8      	ldr	r3, [pc, #672]	; (8004b04 <stm32__i2c__mem_read+0x7a4>)
 8004864:	0011      	movs	r1, r2
 8004866:	0018      	movs	r0, r3
 8004868:	f003 ff46 	bl	80086f8 <__gnat_last_chance_handler>
 800486c:	2184      	movs	r1, #132	; 0x84
 800486e:	187b      	adds	r3, r7, r1
 8004870:	681b      	ldr	r3, [r3, #0]
 8004872:	685a      	ldr	r2, [r3, #4]
 8004874:	187b      	adds	r3, r7, r1
 8004876:	681b      	ldr	r3, [r3, #0]
 8004878:	681b      	ldr	r3, [r3, #0]
 800487a:	429a      	cmp	r2, r3
 800487c:	db0b      	blt.n	8004896 <stm32__i2c__mem_read+0x536>
 800487e:	2184      	movs	r1, #132	; 0x84
 8004880:	187b      	adds	r3, r7, r1
 8004882:	681b      	ldr	r3, [r3, #0]
 8004884:	685b      	ldr	r3, [r3, #4]
 8004886:	001a      	movs	r2, r3
 8004888:	187b      	adds	r3, r7, r1
 800488a:	681b      	ldr	r3, [r3, #0]
 800488c:	681b      	ldr	r3, [r3, #0]
 800488e:	1ad3      	subs	r3, r2, r3
 8004890:	3301      	adds	r3, #1
 8004892:	001a      	movs	r2, r3
 8004894:	e000      	b.n	8004898 <stm32__i2c__mem_read+0x538>
 8004896:	2200      	movs	r2, #0
 8004898:	23ac      	movs	r3, #172	; 0xac
 800489a:	18fb      	adds	r3, r7, r3
 800489c:	681b      	ldr	r3, [r3, #0]
 800489e:	429a      	cmp	r2, r3
 80048a0:	dc00      	bgt.n	80048a4 <stm32__i2c__mem_read+0x544>
 80048a2:	e205      	b.n	8004cb0 <stm32__i2c__mem_read+0x950>
 80048a4:	2394      	movs	r3, #148	; 0x94
 80048a6:	18fb      	adds	r3, r7, r3
 80048a8:	681b      	ldr	r3, [r3, #0]
 80048aa:	685b      	ldr	r3, [r3, #4]
 80048ac:	3318      	adds	r3, #24
 80048ae:	681b      	ldr	r3, [r3, #0]
 80048b0:	b2da      	uxtb	r2, r3
 80048b2:	2304      	movs	r3, #4
 80048b4:	4013      	ands	r3, r2
 80048b6:	b2db      	uxtb	r3, r3
 80048b8:	2b00      	cmp	r3, #0
 80048ba:	d101      	bne.n	80048c0 <stm32__i2c__mem_read+0x560>
 80048bc:	46c0      	nop			; (mov r8, r8)
 80048be:	e7f1      	b.n	80048a4 <stm32__i2c__mem_read+0x544>
 80048c0:	2384      	movs	r3, #132	; 0x84
 80048c2:	18fb      	adds	r3, r7, r3
 80048c4:	681b      	ldr	r3, [r3, #0]
 80048c6:	681a      	ldr	r2, [r3, #0]
 80048c8:	2400      	movs	r4, #0
 80048ca:	25ac      	movs	r5, #172	; 0xac
 80048cc:	197b      	adds	r3, r7, r5
 80048ce:	681b      	ldr	r3, [r3, #0]
 80048d0:	18d0      	adds	r0, r2, r3
 80048d2:	197b      	adds	r3, r7, r5
 80048d4:	681b      	ldr	r3, [r3, #0]
 80048d6:	405a      	eors	r2, r3
 80048d8:	0011      	movs	r1, r2
 80048da:	197b      	adds	r3, r7, r5
 80048dc:	681b      	ldr	r3, [r3, #0]
 80048de:	4043      	eors	r3, r0
 80048e0:	001a      	movs	r2, r3
 80048e2:	43cb      	mvns	r3, r1
 80048e4:	4013      	ands	r3, r2
 80048e6:	d500      	bpl.n	80048ea <stm32__i2c__mem_read+0x58a>
 80048e8:	2401      	movs	r4, #1
 80048ea:	0002      	movs	r2, r0
 80048ec:	1e23      	subs	r3, r4, #0
 80048ee:	d005      	beq.n	80048fc <stm32__i2c__mem_read+0x59c>
 80048f0:	4a85      	ldr	r2, [pc, #532]	; (8004b08 <stm32__i2c__mem_read+0x7a8>)
 80048f2:	4b84      	ldr	r3, [pc, #528]	; (8004b04 <stm32__i2c__mem_read+0x7a4>)
 80048f4:	0011      	movs	r1, r2
 80048f6:	0018      	movs	r0, r3
 80048f8:	f003 fefe 	bl	80086f8 <__gnat_last_chance_handler>
 80048fc:	2384      	movs	r3, #132	; 0x84
 80048fe:	18fb      	adds	r3, r7, r3
 8004900:	681b      	ldr	r3, [r3, #0]
 8004902:	681b      	ldr	r3, [r3, #0]
 8004904:	429a      	cmp	r2, r3
 8004906:	db05      	blt.n	8004914 <stm32__i2c__mem_read+0x5b4>
 8004908:	2384      	movs	r3, #132	; 0x84
 800490a:	18fb      	adds	r3, r7, r3
 800490c:	681b      	ldr	r3, [r3, #0]
 800490e:	685b      	ldr	r3, [r3, #4]
 8004910:	429a      	cmp	r2, r3
 8004912:	dd05      	ble.n	8004920 <stm32__i2c__mem_read+0x5c0>
 8004914:	4a7c      	ldr	r2, [pc, #496]	; (8004b08 <stm32__i2c__mem_read+0x7a8>)
 8004916:	4b7b      	ldr	r3, [pc, #492]	; (8004b04 <stm32__i2c__mem_read+0x7a4>)
 8004918:	0011      	movs	r1, r2
 800491a:	0018      	movs	r0, r3
 800491c:	f003 feec 	bl	80086f8 <__gnat_last_chance_handler>
 8004920:	2394      	movs	r3, #148	; 0x94
 8004922:	18fb      	adds	r3, r7, r3
 8004924:	681b      	ldr	r3, [r3, #0]
 8004926:	685b      	ldr	r3, [r3, #4]
 8004928:	3324      	adds	r3, #36	; 0x24
 800492a:	681b      	ldr	r3, [r3, #0]
 800492c:	2180      	movs	r1, #128	; 0x80
 800492e:	1879      	adds	r1, r7, r1
 8004930:	6809      	ldr	r1, [r1, #0]
 8004932:	b2db      	uxtb	r3, r3
 8004934:	4640      	mov	r0, r8
 8004936:	1a12      	subs	r2, r2, r0
 8004938:	548b      	strb	r3, [r1, r2]
 800493a:	23ac      	movs	r3, #172	; 0xac
 800493c:	18fb      	adds	r3, r7, r3
 800493e:	681a      	ldr	r2, [r3, #0]
 8004940:	4b72      	ldr	r3, [pc, #456]	; (8004b0c <stm32__i2c__mem_read+0x7ac>)
 8004942:	429a      	cmp	r2, r3
 8004944:	d105      	bne.n	8004952 <stm32__i2c__mem_read+0x5f2>
 8004946:	4a72      	ldr	r2, [pc, #456]	; (8004b10 <stm32__i2c__mem_read+0x7b0>)
 8004948:	4b6e      	ldr	r3, [pc, #440]	; (8004b04 <stm32__i2c__mem_read+0x7a4>)
 800494a:	0011      	movs	r1, r2
 800494c:	0018      	movs	r0, r3
 800494e:	f003 fed3 	bl	80086f8 <__gnat_last_chance_handler>
 8004952:	22ac      	movs	r2, #172	; 0xac
 8004954:	18bb      	adds	r3, r7, r2
 8004956:	681b      	ldr	r3, [r3, #0]
 8004958:	3301      	adds	r3, #1
 800495a:	18ba      	adds	r2, r7, r2
 800495c:	6013      	str	r3, [r2, #0]
 800495e:	23a8      	movs	r3, #168	; 0xa8
 8004960:	18fb      	adds	r3, r7, r3
 8004962:	681b      	ldr	r3, [r3, #0]
 8004964:	3b01      	subs	r3, #1
 8004966:	2b00      	cmp	r3, #0
 8004968:	da05      	bge.n	8004976 <stm32__i2c__mem_read+0x616>
 800496a:	4a6a      	ldr	r2, [pc, #424]	; (8004b14 <stm32__i2c__mem_read+0x7b4>)
 800496c:	4b65      	ldr	r3, [pc, #404]	; (8004b04 <stm32__i2c__mem_read+0x7a4>)
 800496e:	0011      	movs	r1, r2
 8004970:	0018      	movs	r0, r3
 8004972:	f003 fec1 	bl	80086f8 <__gnat_last_chance_handler>
 8004976:	22a8      	movs	r2, #168	; 0xa8
 8004978:	18b9      	adds	r1, r7, r2
 800497a:	600b      	str	r3, [r1, #0]
 800497c:	18bb      	adds	r3, r7, r2
 800497e:	681b      	ldr	r3, [r3, #0]
 8004980:	2b00      	cmp	r3, #0
 8004982:	d000      	beq.n	8004986 <stm32__i2c__mem_read+0x626>
 8004984:	e74f      	b.n	8004826 <stm32__i2c__mem_read+0x4c6>
 8004986:	2084      	movs	r0, #132	; 0x84
 8004988:	183b      	adds	r3, r7, r0
 800498a:	681b      	ldr	r3, [r3, #0]
 800498c:	681b      	ldr	r3, [r3, #0]
 800498e:	61bb      	str	r3, [r7, #24]
 8004990:	17db      	asrs	r3, r3, #31
 8004992:	61fb      	str	r3, [r7, #28]
 8004994:	4b5a      	ldr	r3, [pc, #360]	; (8004b00 <stm32__i2c__mem_read+0x7a0>)
 8004996:	2400      	movs	r4, #0
 8004998:	69b9      	ldr	r1, [r7, #24]
 800499a:	69fa      	ldr	r2, [r7, #28]
 800499c:	18c9      	adds	r1, r1, r3
 800499e:	4162      	adcs	r2, r4
 80049a0:	183b      	adds	r3, r7, r0
 80049a2:	681b      	ldr	r3, [r3, #0]
 80049a4:	685b      	ldr	r3, [r3, #4]
 80049a6:	65bb      	str	r3, [r7, #88]	; 0x58
 80049a8:	17db      	asrs	r3, r3, #31
 80049aa:	65fb      	str	r3, [r7, #92]	; 0x5c
 80049ac:	6dfb      	ldr	r3, [r7, #92]	; 0x5c
 80049ae:	4293      	cmp	r3, r2
 80049b0:	dc05      	bgt.n	80049be <stm32__i2c__mem_read+0x65e>
 80049b2:	6dfb      	ldr	r3, [r7, #92]	; 0x5c
 80049b4:	4293      	cmp	r3, r2
 80049b6:	d108      	bne.n	80049ca <stm32__i2c__mem_read+0x66a>
 80049b8:	6dbb      	ldr	r3, [r7, #88]	; 0x58
 80049ba:	428b      	cmp	r3, r1
 80049bc:	d905      	bls.n	80049ca <stm32__i2c__mem_read+0x66a>
 80049be:	4a56      	ldr	r2, [pc, #344]	; (8004b18 <stm32__i2c__mem_read+0x7b8>)
 80049c0:	4b50      	ldr	r3, [pc, #320]	; (8004b04 <stm32__i2c__mem_read+0x7a4>)
 80049c2:	0011      	movs	r1, r2
 80049c4:	0018      	movs	r0, r3
 80049c6:	f003 fe97 	bl	80086f8 <__gnat_last_chance_handler>
 80049ca:	2184      	movs	r1, #132	; 0x84
 80049cc:	187b      	adds	r3, r7, r1
 80049ce:	681b      	ldr	r3, [r3, #0]
 80049d0:	685a      	ldr	r2, [r3, #4]
 80049d2:	187b      	adds	r3, r7, r1
 80049d4:	681b      	ldr	r3, [r3, #0]
 80049d6:	681b      	ldr	r3, [r3, #0]
 80049d8:	429a      	cmp	r2, r3
 80049da:	db0b      	blt.n	80049f4 <stm32__i2c__mem_read+0x694>
 80049dc:	2184      	movs	r1, #132	; 0x84
 80049de:	187b      	adds	r3, r7, r1
 80049e0:	681b      	ldr	r3, [r3, #0]
 80049e2:	685b      	ldr	r3, [r3, #4]
 80049e4:	001a      	movs	r2, r3
 80049e6:	187b      	adds	r3, r7, r1
 80049e8:	681b      	ldr	r3, [r3, #0]
 80049ea:	681b      	ldr	r3, [r3, #0]
 80049ec:	1ad3      	subs	r3, r2, r3
 80049ee:	3301      	adds	r3, #1
 80049f0:	001a      	movs	r2, r3
 80049f2:	e000      	b.n	80049f6 <stm32__i2c__mem_read+0x696>
 80049f4:	2200      	movs	r2, #0
 80049f6:	2301      	movs	r3, #1
 80049f8:	1c19      	adds	r1, r3, #0
 80049fa:	23ac      	movs	r3, #172	; 0xac
 80049fc:	18fb      	adds	r3, r7, r3
 80049fe:	681b      	ldr	r3, [r3, #0]
 8004a00:	429a      	cmp	r2, r3
 8004a02:	dc01      	bgt.n	8004a08 <stm32__i2c__mem_read+0x6a8>
 8004a04:	2300      	movs	r3, #0
 8004a06:	1c19      	adds	r1, r3, #0
 8004a08:	b2cb      	uxtb	r3, r1
 8004a0a:	2b00      	cmp	r3, #0
 8004a0c:	d100      	bne.n	8004a10 <stm32__i2c__mem_read+0x6b0>
 8004a0e:	e70a      	b.n	8004826 <stm32__i2c__mem_read+0x4c6>
 8004a10:	2394      	movs	r3, #148	; 0x94
 8004a12:	18fb      	adds	r3, r7, r3
 8004a14:	681b      	ldr	r3, [r3, #0]
 8004a16:	685b      	ldr	r3, [r3, #4]
 8004a18:	3318      	adds	r3, #24
 8004a1a:	681b      	ldr	r3, [r3, #0]
 8004a1c:	b2db      	uxtb	r3, r3
 8004a1e:	b25b      	sxtb	r3, r3
 8004a20:	2b00      	cmp	r3, #0
 8004a22:	db01      	blt.n	8004a28 <stm32__i2c__mem_read+0x6c8>
 8004a24:	46c0      	nop			; (mov r8, r8)
 8004a26:	e7f3      	b.n	8004a10 <stm32__i2c__mem_read+0x6b0>
 8004a28:	2084      	movs	r0, #132	; 0x84
 8004a2a:	183b      	adds	r3, r7, r0
 8004a2c:	681b      	ldr	r3, [r3, #0]
 8004a2e:	681b      	ldr	r3, [r3, #0]
 8004a30:	613b      	str	r3, [r7, #16]
 8004a32:	17db      	asrs	r3, r3, #31
 8004a34:	617b      	str	r3, [r7, #20]
 8004a36:	4b32      	ldr	r3, [pc, #200]	; (8004b00 <stm32__i2c__mem_read+0x7a0>)
 8004a38:	2400      	movs	r4, #0
 8004a3a:	6939      	ldr	r1, [r7, #16]
 8004a3c:	697a      	ldr	r2, [r7, #20]
 8004a3e:	18c9      	adds	r1, r1, r3
 8004a40:	4162      	adcs	r2, r4
 8004a42:	183b      	adds	r3, r7, r0
 8004a44:	681b      	ldr	r3, [r3, #0]
 8004a46:	685b      	ldr	r3, [r3, #4]
 8004a48:	653b      	str	r3, [r7, #80]	; 0x50
 8004a4a:	17db      	asrs	r3, r3, #31
 8004a4c:	657b      	str	r3, [r7, #84]	; 0x54
 8004a4e:	6d7b      	ldr	r3, [r7, #84]	; 0x54
 8004a50:	4293      	cmp	r3, r2
 8004a52:	dc05      	bgt.n	8004a60 <stm32__i2c__mem_read+0x700>
 8004a54:	6d7b      	ldr	r3, [r7, #84]	; 0x54
 8004a56:	4293      	cmp	r3, r2
 8004a58:	d108      	bne.n	8004a6c <stm32__i2c__mem_read+0x70c>
 8004a5a:	6d3b      	ldr	r3, [r7, #80]	; 0x50
 8004a5c:	428b      	cmp	r3, r1
 8004a5e:	d905      	bls.n	8004a6c <stm32__i2c__mem_read+0x70c>
 8004a60:	4a2e      	ldr	r2, [pc, #184]	; (8004b1c <stm32__i2c__mem_read+0x7bc>)
 8004a62:	4b28      	ldr	r3, [pc, #160]	; (8004b04 <stm32__i2c__mem_read+0x7a4>)
 8004a64:	0011      	movs	r1, r2
 8004a66:	0018      	movs	r0, r3
 8004a68:	f003 fe46 	bl	80086f8 <__gnat_last_chance_handler>
 8004a6c:	2184      	movs	r1, #132	; 0x84
 8004a6e:	187b      	adds	r3, r7, r1
 8004a70:	681b      	ldr	r3, [r3, #0]
 8004a72:	685a      	ldr	r2, [r3, #4]
 8004a74:	187b      	adds	r3, r7, r1
 8004a76:	681b      	ldr	r3, [r3, #0]
 8004a78:	681b      	ldr	r3, [r3, #0]
 8004a7a:	429a      	cmp	r2, r3
 8004a7c:	db0b      	blt.n	8004a96 <stm32__i2c__mem_read+0x736>
 8004a7e:	2184      	movs	r1, #132	; 0x84
 8004a80:	187b      	adds	r3, r7, r1
 8004a82:	681b      	ldr	r3, [r3, #0]
 8004a84:	685b      	ldr	r3, [r3, #4]
 8004a86:	001a      	movs	r2, r3
 8004a88:	187b      	adds	r3, r7, r1
 8004a8a:	681b      	ldr	r3, [r3, #0]
 8004a8c:	681b      	ldr	r3, [r3, #0]
 8004a8e:	1ad3      	subs	r3, r2, r3
 8004a90:	3301      	adds	r3, #1
 8004a92:	001a      	movs	r2, r3
 8004a94:	e000      	b.n	8004a98 <stm32__i2c__mem_read+0x738>
 8004a96:	2200      	movs	r2, #0
 8004a98:	2000      	movs	r0, #0
 8004a9a:	24ac      	movs	r4, #172	; 0xac
 8004a9c:	193b      	adds	r3, r7, r4
 8004a9e:	681b      	ldr	r3, [r3, #0]
 8004aa0:	1ad1      	subs	r1, r2, r3
 8004aa2:	193b      	adds	r3, r7, r4
 8004aa4:	681b      	ldr	r3, [r3, #0]
 8004aa6:	405a      	eors	r2, r3
 8004aa8:	193b      	adds	r3, r7, r4
 8004aaa:	681b      	ldr	r3, [r3, #0]
 8004aac:	404b      	eors	r3, r1
 8004aae:	43db      	mvns	r3, r3
 8004ab0:	4013      	ands	r3, r2
 8004ab2:	d500      	bpl.n	8004ab6 <stm32__i2c__mem_read+0x756>
 8004ab4:	2001      	movs	r0, #1
 8004ab6:	000a      	movs	r2, r1
 8004ab8:	1e03      	subs	r3, r0, #0
 8004aba:	d005      	beq.n	8004ac8 <stm32__i2c__mem_read+0x768>
 8004abc:	4a17      	ldr	r2, [pc, #92]	; (8004b1c <stm32__i2c__mem_read+0x7bc>)
 8004abe:	4b11      	ldr	r3, [pc, #68]	; (8004b04 <stm32__i2c__mem_read+0x7a4>)
 8004ac0:	0011      	movs	r1, r2
 8004ac2:	0018      	movs	r0, r3
 8004ac4:	f003 fe18 	bl	80086f8 <__gnat_last_chance_handler>
 8004ac8:	2301      	movs	r3, #1
 8004aca:	2aff      	cmp	r2, #255	; 0xff
 8004acc:	dc00      	bgt.n	8004ad0 <stm32__i2c__mem_read+0x770>
 8004ace:	2300      	movs	r3, #0
 8004ad0:	b2db      	uxtb	r3, r3
 8004ad2:	2b00      	cmp	r3, #0
 8004ad4:	d024      	beq.n	8004b20 <stm32__i2c__mem_read+0x7c0>
 8004ad6:	2312      	movs	r3, #18
 8004ad8:	2280      	movs	r2, #128	; 0x80
 8004ada:	4694      	mov	ip, r2
 8004adc:	44bc      	add	ip, r7
 8004ade:	4463      	add	r3, ip
 8004ae0:	8819      	ldrh	r1, [r3, #0]
 8004ae2:	2394      	movs	r3, #148	; 0x94
 8004ae4:	18fb      	adds	r3, r7, r3
 8004ae6:	6818      	ldr	r0, [r3, #0]
 8004ae8:	2300      	movs	r3, #0
 8004aea:	9300      	str	r3, [sp, #0]
 8004aec:	2300      	movs	r3, #0
 8004aee:	22ff      	movs	r2, #255	; 0xff
 8004af0:	f7fd fac8 	bl	8002084 <stm32__i2c__config_transfer>
 8004af4:	23ff      	movs	r3, #255	; 0xff
 8004af6:	22a8      	movs	r2, #168	; 0xa8
 8004af8:	18ba      	adds	r2, r7, r2
 8004afa:	6013      	str	r3, [r2, #0]
 8004afc:	e693      	b.n	8004826 <stm32__i2c__mem_read+0x4c6>
 8004afe:	46c0      	nop			; (mov r8, r8)
 8004b00:	7ffffffe 	.word	0x7ffffffe
 8004b04:	080097e0 	.word	0x080097e0
 8004b08:	0000036d 	.word	0x0000036d
 8004b0c:	7fffffff 	.word	0x7fffffff
 8004b10:	0000036e 	.word	0x0000036e
 8004b14:	0000036f 	.word	0x0000036f
 8004b18:	00000372 	.word	0x00000372
 8004b1c:	00000379 	.word	0x00000379
 8004b20:	2084      	movs	r0, #132	; 0x84
 8004b22:	183b      	adds	r3, r7, r0
 8004b24:	681b      	ldr	r3, [r3, #0]
 8004b26:	681b      	ldr	r3, [r3, #0]
 8004b28:	60bb      	str	r3, [r7, #8]
 8004b2a:	17db      	asrs	r3, r3, #31
 8004b2c:	60fb      	str	r3, [r7, #12]
 8004b2e:	4b7d      	ldr	r3, [pc, #500]	; (8004d24 <stm32__i2c__mem_read+0x9c4>)
 8004b30:	2400      	movs	r4, #0
 8004b32:	68b9      	ldr	r1, [r7, #8]
 8004b34:	68fa      	ldr	r2, [r7, #12]
 8004b36:	18c9      	adds	r1, r1, r3
 8004b38:	4162      	adcs	r2, r4
 8004b3a:	183b      	adds	r3, r7, r0
 8004b3c:	681b      	ldr	r3, [r3, #0]
 8004b3e:	685b      	ldr	r3, [r3, #4]
 8004b40:	64bb      	str	r3, [r7, #72]	; 0x48
 8004b42:	17db      	asrs	r3, r3, #31
 8004b44:	64fb      	str	r3, [r7, #76]	; 0x4c
 8004b46:	6cfb      	ldr	r3, [r7, #76]	; 0x4c
 8004b48:	4293      	cmp	r3, r2
 8004b4a:	dc05      	bgt.n	8004b58 <stm32__i2c__mem_read+0x7f8>
 8004b4c:	6cfb      	ldr	r3, [r7, #76]	; 0x4c
 8004b4e:	4293      	cmp	r3, r2
 8004b50:	d109      	bne.n	8004b66 <stm32__i2c__mem_read+0x806>
 8004b52:	6cbb      	ldr	r3, [r7, #72]	; 0x48
 8004b54:	428b      	cmp	r3, r1
 8004b56:	d906      	bls.n	8004b66 <stm32__i2c__mem_read+0x806>
 8004b58:	23e0      	movs	r3, #224	; 0xe0
 8004b5a:	009a      	lsls	r2, r3, #2
 8004b5c:	4b72      	ldr	r3, [pc, #456]	; (8004d28 <stm32__i2c__mem_read+0x9c8>)
 8004b5e:	0011      	movs	r1, r2
 8004b60:	0018      	movs	r0, r3
 8004b62:	f003 fdc9 	bl	80086f8 <__gnat_last_chance_handler>
 8004b66:	2184      	movs	r1, #132	; 0x84
 8004b68:	187b      	adds	r3, r7, r1
 8004b6a:	681b      	ldr	r3, [r3, #0]
 8004b6c:	685a      	ldr	r2, [r3, #4]
 8004b6e:	187b      	adds	r3, r7, r1
 8004b70:	681b      	ldr	r3, [r3, #0]
 8004b72:	681b      	ldr	r3, [r3, #0]
 8004b74:	429a      	cmp	r2, r3
 8004b76:	db0b      	blt.n	8004b90 <stm32__i2c__mem_read+0x830>
 8004b78:	2184      	movs	r1, #132	; 0x84
 8004b7a:	187b      	adds	r3, r7, r1
 8004b7c:	681b      	ldr	r3, [r3, #0]
 8004b7e:	685b      	ldr	r3, [r3, #4]
 8004b80:	001a      	movs	r2, r3
 8004b82:	187b      	adds	r3, r7, r1
 8004b84:	681b      	ldr	r3, [r3, #0]
 8004b86:	681b      	ldr	r3, [r3, #0]
 8004b88:	1ad3      	subs	r3, r2, r3
 8004b8a:	3301      	adds	r3, #1
 8004b8c:	001a      	movs	r2, r3
 8004b8e:	e000      	b.n	8004b92 <stm32__i2c__mem_read+0x832>
 8004b90:	2200      	movs	r2, #0
 8004b92:	2000      	movs	r0, #0
 8004b94:	24ac      	movs	r4, #172	; 0xac
 8004b96:	193b      	adds	r3, r7, r4
 8004b98:	681b      	ldr	r3, [r3, #0]
 8004b9a:	1ad1      	subs	r1, r2, r3
 8004b9c:	193b      	adds	r3, r7, r4
 8004b9e:	681b      	ldr	r3, [r3, #0]
 8004ba0:	405a      	eors	r2, r3
 8004ba2:	193b      	adds	r3, r7, r4
 8004ba4:	681b      	ldr	r3, [r3, #0]
 8004ba6:	404b      	eors	r3, r1
 8004ba8:	43db      	mvns	r3, r3
 8004baa:	4013      	ands	r3, r2
 8004bac:	d500      	bpl.n	8004bb0 <stm32__i2c__mem_read+0x850>
 8004bae:	2001      	movs	r0, #1
 8004bb0:	000a      	movs	r2, r1
 8004bb2:	1e03      	subs	r3, r0, #0
 8004bb4:	d006      	beq.n	8004bc4 <stm32__i2c__mem_read+0x864>
 8004bb6:	23e0      	movs	r3, #224	; 0xe0
 8004bb8:	009a      	lsls	r2, r3, #2
 8004bba:	4b5b      	ldr	r3, [pc, #364]	; (8004d28 <stm32__i2c__mem_read+0x9c8>)
 8004bbc:	0011      	movs	r1, r2
 8004bbe:	0018      	movs	r0, r3
 8004bc0:	f003 fd9a 	bl	80086f8 <__gnat_last_chance_handler>
 8004bc4:	1e13      	subs	r3, r2, #0
 8004bc6:	db01      	blt.n	8004bcc <stm32__i2c__mem_read+0x86c>
 8004bc8:	2bff      	cmp	r3, #255	; 0xff
 8004bca:	dd06      	ble.n	8004bda <stm32__i2c__mem_read+0x87a>
 8004bcc:	23e0      	movs	r3, #224	; 0xe0
 8004bce:	009a      	lsls	r2, r3, #2
 8004bd0:	4b55      	ldr	r3, [pc, #340]	; (8004d28 <stm32__i2c__mem_read+0x9c8>)
 8004bd2:	0011      	movs	r1, r2
 8004bd4:	0018      	movs	r0, r3
 8004bd6:	f003 fd8f 	bl	80086f8 <__gnat_last_chance_handler>
 8004bda:	b2da      	uxtb	r2, r3
 8004bdc:	2312      	movs	r3, #18
 8004bde:	2180      	movs	r1, #128	; 0x80
 8004be0:	468c      	mov	ip, r1
 8004be2:	44bc      	add	ip, r7
 8004be4:	4463      	add	r3, ip
 8004be6:	8819      	ldrh	r1, [r3, #0]
 8004be8:	2394      	movs	r3, #148	; 0x94
 8004bea:	18fb      	adds	r3, r7, r3
 8004bec:	6818      	ldr	r0, [r3, #0]
 8004bee:	2300      	movs	r3, #0
 8004bf0:	9300      	str	r3, [sp, #0]
 8004bf2:	2301      	movs	r3, #1
 8004bf4:	f7fd fa46 	bl	8002084 <stm32__i2c__config_transfer>
 8004bf8:	2084      	movs	r0, #132	; 0x84
 8004bfa:	183b      	adds	r3, r7, r0
 8004bfc:	681b      	ldr	r3, [r3, #0]
 8004bfe:	681b      	ldr	r3, [r3, #0]
 8004c00:	603b      	str	r3, [r7, #0]
 8004c02:	17db      	asrs	r3, r3, #31
 8004c04:	607b      	str	r3, [r7, #4]
 8004c06:	4b47      	ldr	r3, [pc, #284]	; (8004d24 <stm32__i2c__mem_read+0x9c4>)
 8004c08:	2400      	movs	r4, #0
 8004c0a:	6839      	ldr	r1, [r7, #0]
 8004c0c:	687a      	ldr	r2, [r7, #4]
 8004c0e:	18c9      	adds	r1, r1, r3
 8004c10:	4162      	adcs	r2, r4
 8004c12:	183b      	adds	r3, r7, r0
 8004c14:	681b      	ldr	r3, [r3, #0]
 8004c16:	685b      	ldr	r3, [r3, #4]
 8004c18:	643b      	str	r3, [r7, #64]	; 0x40
 8004c1a:	17db      	asrs	r3, r3, #31
 8004c1c:	647b      	str	r3, [r7, #68]	; 0x44
 8004c1e:	6c7b      	ldr	r3, [r7, #68]	; 0x44
 8004c20:	4293      	cmp	r3, r2
 8004c22:	dc05      	bgt.n	8004c30 <stm32__i2c__mem_read+0x8d0>
 8004c24:	6c7b      	ldr	r3, [r7, #68]	; 0x44
 8004c26:	4293      	cmp	r3, r2
 8004c28:	d108      	bne.n	8004c3c <stm32__i2c__mem_read+0x8dc>
 8004c2a:	6c3b      	ldr	r3, [r7, #64]	; 0x40
 8004c2c:	428b      	cmp	r3, r1
 8004c2e:	d905      	bls.n	8004c3c <stm32__i2c__mem_read+0x8dc>
 8004c30:	4a3e      	ldr	r2, [pc, #248]	; (8004d2c <stm32__i2c__mem_read+0x9cc>)
 8004c32:	4b3d      	ldr	r3, [pc, #244]	; (8004d28 <stm32__i2c__mem_read+0x9c8>)
 8004c34:	0011      	movs	r1, r2
 8004c36:	0018      	movs	r0, r3
 8004c38:	f003 fd5e 	bl	80086f8 <__gnat_last_chance_handler>
 8004c3c:	2184      	movs	r1, #132	; 0x84
 8004c3e:	187b      	adds	r3, r7, r1
 8004c40:	681b      	ldr	r3, [r3, #0]
 8004c42:	685a      	ldr	r2, [r3, #4]
 8004c44:	187b      	adds	r3, r7, r1
 8004c46:	681b      	ldr	r3, [r3, #0]
 8004c48:	681b      	ldr	r3, [r3, #0]
 8004c4a:	429a      	cmp	r2, r3
 8004c4c:	db0b      	blt.n	8004c66 <stm32__i2c__mem_read+0x906>
 8004c4e:	2184      	movs	r1, #132	; 0x84
 8004c50:	187b      	adds	r3, r7, r1
 8004c52:	681b      	ldr	r3, [r3, #0]
 8004c54:	685b      	ldr	r3, [r3, #4]
 8004c56:	001a      	movs	r2, r3
 8004c58:	187b      	adds	r3, r7, r1
 8004c5a:	681b      	ldr	r3, [r3, #0]
 8004c5c:	681b      	ldr	r3, [r3, #0]
 8004c5e:	1ad3      	subs	r3, r2, r3
 8004c60:	3301      	adds	r3, #1
 8004c62:	001a      	movs	r2, r3
 8004c64:	e000      	b.n	8004c68 <stm32__i2c__mem_read+0x908>
 8004c66:	2200      	movs	r2, #0
 8004c68:	2000      	movs	r0, #0
 8004c6a:	24ac      	movs	r4, #172	; 0xac
 8004c6c:	193b      	adds	r3, r7, r4
 8004c6e:	681b      	ldr	r3, [r3, #0]
 8004c70:	1ad1      	subs	r1, r2, r3
 8004c72:	193b      	adds	r3, r7, r4
 8004c74:	681b      	ldr	r3, [r3, #0]
 8004c76:	405a      	eors	r2, r3
 8004c78:	193b      	adds	r3, r7, r4
 8004c7a:	681b      	ldr	r3, [r3, #0]
 8004c7c:	404b      	eors	r3, r1
 8004c7e:	43db      	mvns	r3, r3
 8004c80:	4013      	ands	r3, r2
 8004c82:	d500      	bpl.n	8004c86 <stm32__i2c__mem_read+0x926>
 8004c84:	2001      	movs	r0, #1
 8004c86:	000a      	movs	r2, r1
 8004c88:	1e03      	subs	r3, r0, #0
 8004c8a:	d005      	beq.n	8004c98 <stm32__i2c__mem_read+0x938>
 8004c8c:	4a27      	ldr	r2, [pc, #156]	; (8004d2c <stm32__i2c__mem_read+0x9cc>)
 8004c8e:	4b26      	ldr	r3, [pc, #152]	; (8004d28 <stm32__i2c__mem_read+0x9c8>)
 8004c90:	0011      	movs	r1, r2
 8004c92:	0018      	movs	r0, r3
 8004c94:	f003 fd30 	bl	80086f8 <__gnat_last_chance_handler>
 8004c98:	1e13      	subs	r3, r2, #0
 8004c9a:	da05      	bge.n	8004ca8 <stm32__i2c__mem_read+0x948>
 8004c9c:	4a23      	ldr	r2, [pc, #140]	; (8004d2c <stm32__i2c__mem_read+0x9cc>)
 8004c9e:	4b22      	ldr	r3, [pc, #136]	; (8004d28 <stm32__i2c__mem_read+0x9c8>)
 8004ca0:	0011      	movs	r1, r2
 8004ca2:	0018      	movs	r0, r3
 8004ca4:	f003 fd28 	bl	80086f8 <__gnat_last_chance_handler>
 8004ca8:	22a8      	movs	r2, #168	; 0xa8
 8004caa:	18ba      	adds	r2, r7, r2
 8004cac:	6013      	str	r3, [r2, #0]
 8004cae:	e5ba      	b.n	8004826 <stm32__i2c__mem_read+0x4c6>
 8004cb0:	23d0      	movs	r3, #208	; 0xd0
 8004cb2:	18fb      	adds	r3, r7, r3
 8004cb4:	681a      	ldr	r2, [r3, #0]
 8004cb6:	2394      	movs	r3, #148	; 0x94
 8004cb8:	18fb      	adds	r3, r7, r3
 8004cba:	681b      	ldr	r3, [r3, #0]
 8004cbc:	0011      	movs	r1, r2
 8004cbe:	0018      	movs	r0, r3
 8004cc0:	f7fd fc04 	bl	80024cc <stm32__i2c__wait_stop_flag>
 8004cc4:	0003      	movs	r3, r0
 8004cc6:	001a      	movs	r2, r3
 8004cc8:	211d      	movs	r1, #29
 8004cca:	2080      	movs	r0, #128	; 0x80
 8004ccc:	183b      	adds	r3, r7, r0
 8004cce:	185b      	adds	r3, r3, r1
 8004cd0:	701a      	strb	r2, [r3, #0]
 8004cd2:	183b      	adds	r3, r7, r0
 8004cd4:	185b      	adds	r3, r3, r1
 8004cd6:	781b      	ldrb	r3, [r3, #0]
 8004cd8:	2b00      	cmp	r3, #0
 8004cda:	d115      	bne.n	8004d08 <stm32__i2c__mem_read+0x9a8>
 8004cdc:	2494      	movs	r4, #148	; 0x94
 8004cde:	193b      	adds	r3, r7, r4
 8004ce0:	681b      	ldr	r3, [r3, #0]
 8004ce2:	0018      	movs	r0, r3
 8004ce4:	f7fd fa74 	bl	80021d0 <stm32__i2c__reset_config>
 8004ce8:	193b      	adds	r3, r7, r4
 8004cea:	681b      	ldr	r3, [r3, #0]
 8004cec:	2201      	movs	r2, #1
 8004cee:	751a      	strb	r2, [r3, #20]
 8004cf0:	231d      	movs	r3, #29
 8004cf2:	2280      	movs	r2, #128	; 0x80
 8004cf4:	4694      	mov	ip, r2
 8004cf6:	44bc      	add	ip, r7
 8004cf8:	4463      	add	r3, ip
 8004cfa:	2200      	movs	r2, #0
 8004cfc:	701a      	strb	r2, [r3, #0]
 8004cfe:	e004      	b.n	8004d0a <stm32__i2c__mem_read+0x9aa>
 8004d00:	46c0      	nop			; (mov r8, r8)
 8004d02:	e002      	b.n	8004d0a <stm32__i2c__mem_read+0x9aa>
 8004d04:	46c0      	nop			; (mov r8, r8)
 8004d06:	e000      	b.n	8004d0a <stm32__i2c__mem_read+0x9aa>
 8004d08:	46c0      	nop			; (mov r8, r8)
 8004d0a:	231d      	movs	r3, #29
 8004d0c:	2280      	movs	r2, #128	; 0x80
 8004d0e:	4694      	mov	ip, r2
 8004d10:	44bc      	add	ip, r7
 8004d12:	4463      	add	r3, ip
 8004d14:	781b      	ldrb	r3, [r3, #0]
 8004d16:	46c0      	nop			; (mov r8, r8)
 8004d18:	0018      	movs	r0, r3
 8004d1a:	46bd      	mov	sp, r7
 8004d1c:	b02c      	add	sp, #176	; 0xb0
 8004d1e:	bc04      	pop	{r2}
 8004d20:	4690      	mov	r8, r2
 8004d22:	bdf0      	pop	{r4, r5, r6, r7, pc}
 8004d24:	7ffffffe 	.word	0x7ffffffe
 8004d28:	080097e0 	.word	0x080097e0
 8004d2c:	00000383 	.word	0x00000383

08004d30 <stm32__rcc__syscfg_clock_enable>:
 8004d30:	b580      	push	{r7, lr}
 8004d32:	af00      	add	r7, sp, #0
 8004d34:	4b05      	ldr	r3, [pc, #20]	; (8004d4c <stm32__rcc__syscfg_clock_enable+0x1c>)
 8004d36:	3360      	adds	r3, #96	; 0x60
 8004d38:	681b      	ldr	r3, [r3, #0]
 8004d3a:	001a      	movs	r2, r3
 8004d3c:	2301      	movs	r3, #1
 8004d3e:	4313      	orrs	r3, r2
 8004d40:	001a      	movs	r2, r3
 8004d42:	4b02      	ldr	r3, [pc, #8]	; (8004d4c <stm32__rcc__syscfg_clock_enable+0x1c>)
 8004d44:	3360      	adds	r3, #96	; 0x60
 8004d46:	601a      	str	r2, [r3, #0]
 8004d48:	46bd      	mov	sp, r7
 8004d4a:	bd80      	pop	{r7, pc}
 8004d4c:	40021000 	.word	0x40021000

08004d50 <stm32__spi__spi_portIP>:
 8004d50:	b580      	push	{r7, lr}
 8004d52:	b084      	sub	sp, #16
 8004d54:	af00      	add	r7, sp, #0
 8004d56:	60f8      	str	r0, [r7, #12]
 8004d58:	60b9      	str	r1, [r7, #8]
 8004d5a:	1dfb      	adds	r3, r7, #7
 8004d5c:	701a      	strb	r2, [r3, #0]
 8004d5e:	1dfb      	adds	r3, r7, #7
 8004d60:	781b      	ldrb	r3, [r3, #0]
 8004d62:	2b00      	cmp	r3, #0
 8004d64:	d002      	beq.n	8004d6c <stm32__spi__spi_portIP+0x1c>
 8004d66:	4a04      	ldr	r2, [pc, #16]	; (8004d78 <stm32__spi__spi_portIP+0x28>)
 8004d68:	68fb      	ldr	r3, [r7, #12]
 8004d6a:	601a      	str	r2, [r3, #0]
 8004d6c:	68fb      	ldr	r3, [r7, #12]
 8004d6e:	68ba      	ldr	r2, [r7, #8]
 8004d70:	605a      	str	r2, [r3, #4]
 8004d72:	46bd      	mov	sp, r7
 8004d74:	b004      	add	sp, #16
 8004d76:	bd80      	pop	{r7, pc}
 8004d78:	08009ac0 	.word	0x08009ac0

08004d7c <stm32__spi___size__2>:
 8004d7c:	b590      	push	{r4, r7, lr}
 8004d7e:	b083      	sub	sp, #12
 8004d80:	af00      	add	r7, sp, #0
 8004d82:	6078      	str	r0, [r7, #4]
 8004d84:	2340      	movs	r3, #64	; 0x40
 8004d86:	2400      	movs	r4, #0
 8004d88:	0018      	movs	r0, r3
 8004d8a:	0021      	movs	r1, r4
 8004d8c:	46bd      	mov	sp, r7
 8004d8e:	b003      	add	sp, #12
 8004d90:	bd90      	pop	{r4, r7, pc}
 8004d92:	46c0      	nop			; (mov r8, r8)

08004d94 <stm32__spi__configure>:
 8004d94:	b580      	push	{r7, lr}
 8004d96:	b082      	sub	sp, #8
 8004d98:	af00      	add	r7, sp, #0
 8004d9a:	6078      	str	r0, [r7, #4]
 8004d9c:	6039      	str	r1, [r7, #0]
 8004d9e:	683b      	ldr	r3, [r7, #0]
 8004da0:	785b      	ldrb	r3, [r3, #1]
 8004da2:	2b01      	cmp	r3, #1
 8004da4:	d904      	bls.n	8004db0 <stm32__spi__configure+0x1c>
 8004da6:	4b5e      	ldr	r3, [pc, #376]	; (8004f20 <stm32__spi__configure+0x18c>)
 8004da8:	214a      	movs	r1, #74	; 0x4a
 8004daa:	0018      	movs	r0, r3
 8004dac:	f003 fca4 	bl	80086f8 <__gnat_last_chance_handler>
 8004db0:	683b      	ldr	r3, [r7, #0]
 8004db2:	785b      	ldrb	r3, [r3, #1]
 8004db4:	2b00      	cmp	r3, #0
 8004db6:	d119      	bne.n	8004dec <stm32__spi__configure+0x58>
 8004db8:	687b      	ldr	r3, [r7, #4]
 8004dba:	685b      	ldr	r3, [r3, #4]
 8004dbc:	881b      	ldrh	r3, [r3, #0]
 8004dbe:	b29b      	uxth	r3, r3
 8004dc0:	1c1a      	adds	r2, r3, #0
 8004dc2:	2304      	movs	r3, #4
 8004dc4:	4313      	orrs	r3, r2
 8004dc6:	1c1a      	adds	r2, r3, #0
 8004dc8:	687b      	ldr	r3, [r7, #4]
 8004dca:	685b      	ldr	r3, [r3, #4]
 8004dcc:	b292      	uxth	r2, r2
 8004dce:	801a      	strh	r2, [r3, #0]
 8004dd0:	687b      	ldr	r3, [r7, #4]
 8004dd2:	685b      	ldr	r3, [r3, #4]
 8004dd4:	881b      	ldrh	r3, [r3, #0]
 8004dd6:	b29b      	uxth	r3, r3
 8004dd8:	1c1a      	adds	r2, r3, #0
 8004dda:	2380      	movs	r3, #128	; 0x80
 8004ddc:	005b      	lsls	r3, r3, #1
 8004dde:	4313      	orrs	r3, r2
 8004de0:	1c1a      	adds	r2, r3, #0
 8004de2:	687b      	ldr	r3, [r7, #4]
 8004de4:	685b      	ldr	r3, [r3, #4]
 8004de6:	b292      	uxth	r2, r2
 8004de8:	801a      	strh	r2, [r3, #0]
 8004dea:	e018      	b.n	8004e1e <stm32__spi__configure+0x8a>
 8004dec:	687b      	ldr	r3, [r7, #4]
 8004dee:	685b      	ldr	r3, [r3, #4]
 8004df0:	881b      	ldrh	r3, [r3, #0]
 8004df2:	b29b      	uxth	r3, r3
 8004df4:	1c1a      	adds	r2, r3, #0
 8004df6:	2304      	movs	r3, #4
 8004df8:	439a      	bics	r2, r3
 8004dfa:	0013      	movs	r3, r2
 8004dfc:	1c1a      	adds	r2, r3, #0
 8004dfe:	687b      	ldr	r3, [r7, #4]
 8004e00:	685b      	ldr	r3, [r3, #4]
 8004e02:	b292      	uxth	r2, r2
 8004e04:	801a      	strh	r2, [r3, #0]
 8004e06:	687b      	ldr	r3, [r7, #4]
 8004e08:	685b      	ldr	r3, [r3, #4]
 8004e0a:	881b      	ldrh	r3, [r3, #0]
 8004e0c:	b29b      	uxth	r3, r3
 8004e0e:	1c1a      	adds	r2, r3, #0
 8004e10:	4b44      	ldr	r3, [pc, #272]	; (8004f24 <stm32__spi__configure+0x190>)
 8004e12:	4013      	ands	r3, r2
 8004e14:	1c1a      	adds	r2, r3, #0
 8004e16:	687b      	ldr	r3, [r7, #4]
 8004e18:	685b      	ldr	r3, [r3, #4]
 8004e1a:	b292      	uxth	r2, r2
 8004e1c:	801a      	strh	r2, [r3, #0]
 8004e1e:	683b      	ldr	r3, [r7, #0]
 8004e20:	781b      	ldrb	r3, [r3, #0]
 8004e22:	2b03      	cmp	r3, #3
 8004e24:	d904      	bls.n	8004e30 <stm32__spi__configure+0x9c>
 8004e26:	4b3e      	ldr	r3, [pc, #248]	; (8004f20 <stm32__spi__configure+0x18c>)
 8004e28:	2153      	movs	r1, #83	; 0x53
 8004e2a:	0018      	movs	r0, r3
 8004e2c:	f003 fc64 	bl	80086f8 <__gnat_last_chance_handler>
 8004e30:	683b      	ldr	r3, [r7, #0]
 8004e32:	781b      	ldrb	r3, [r3, #0]
 8004e34:	2b01      	cmp	r3, #1
 8004e36:	d028      	beq.n	8004e8a <stm32__spi__configure+0xf6>
 8004e38:	d302      	bcc.n	8004e40 <stm32__spi__configure+0xac>
 8004e3a:	2b02      	cmp	r3, #2
 8004e3c:	d04b      	beq.n	8004ed6 <stm32__spi__configure+0x142>
 8004e3e:	e079      	b.n	8004f34 <stm32__spi__configure+0x1a0>
 8004e40:	687b      	ldr	r3, [r7, #4]
 8004e42:	685b      	ldr	r3, [r3, #4]
 8004e44:	881b      	ldrh	r3, [r3, #0]
 8004e46:	b29b      	uxth	r3, r3
 8004e48:	1c1a      	adds	r2, r3, #0
 8004e4a:	0453      	lsls	r3, r2, #17
 8004e4c:	0c5b      	lsrs	r3, r3, #17
 8004e4e:	1c1a      	adds	r2, r3, #0
 8004e50:	687b      	ldr	r3, [r7, #4]
 8004e52:	685b      	ldr	r3, [r3, #4]
 8004e54:	b292      	uxth	r2, r2
 8004e56:	801a      	strh	r2, [r3, #0]
 8004e58:	687b      	ldr	r3, [r7, #4]
 8004e5a:	685b      	ldr	r3, [r3, #4]
 8004e5c:	881b      	ldrh	r3, [r3, #0]
 8004e5e:	b29b      	uxth	r3, r3
 8004e60:	1c1a      	adds	r2, r3, #0
 8004e62:	4b31      	ldr	r3, [pc, #196]	; (8004f28 <stm32__spi__configure+0x194>)
 8004e64:	4013      	ands	r3, r2
 8004e66:	1c1a      	adds	r2, r3, #0
 8004e68:	687b      	ldr	r3, [r7, #4]
 8004e6a:	685b      	ldr	r3, [r3, #4]
 8004e6c:	b292      	uxth	r2, r2
 8004e6e:	801a      	strh	r2, [r3, #0]
 8004e70:	687b      	ldr	r3, [r7, #4]
 8004e72:	685b      	ldr	r3, [r3, #4]
 8004e74:	881b      	ldrh	r3, [r3, #0]
 8004e76:	b29b      	uxth	r3, r3
 8004e78:	1c1a      	adds	r2, r3, #0
 8004e7a:	4b2c      	ldr	r3, [pc, #176]	; (8004f2c <stm32__spi__configure+0x198>)
 8004e7c:	4013      	ands	r3, r2
 8004e7e:	1c1a      	adds	r2, r3, #0
 8004e80:	687b      	ldr	r3, [r7, #4]
 8004e82:	685b      	ldr	r3, [r3, #4]
 8004e84:	b292      	uxth	r2, r2
 8004e86:	801a      	strh	r2, [r3, #0]
 8004e88:	e079      	b.n	8004f7e <stm32__spi__configure+0x1ea>
 8004e8a:	687b      	ldr	r3, [r7, #4]
 8004e8c:	685b      	ldr	r3, [r3, #4]
 8004e8e:	881b      	ldrh	r3, [r3, #0]
 8004e90:	b29b      	uxth	r3, r3
 8004e92:	1c1a      	adds	r2, r3, #0
 8004e94:	0453      	lsls	r3, r2, #17
 8004e96:	0c5b      	lsrs	r3, r3, #17
 8004e98:	1c1a      	adds	r2, r3, #0
 8004e9a:	687b      	ldr	r3, [r7, #4]
 8004e9c:	685b      	ldr	r3, [r3, #4]
 8004e9e:	b292      	uxth	r2, r2
 8004ea0:	801a      	strh	r2, [r3, #0]
 8004ea2:	687b      	ldr	r3, [r7, #4]
 8004ea4:	685b      	ldr	r3, [r3, #4]
 8004ea6:	881b      	ldrh	r3, [r3, #0]
 8004ea8:	b29b      	uxth	r3, r3
 8004eaa:	1c1a      	adds	r2, r3, #0
 8004eac:	4b1e      	ldr	r3, [pc, #120]	; (8004f28 <stm32__spi__configure+0x194>)
 8004eae:	4013      	ands	r3, r2
 8004eb0:	1c1a      	adds	r2, r3, #0
 8004eb2:	687b      	ldr	r3, [r7, #4]
 8004eb4:	685b      	ldr	r3, [r3, #4]
 8004eb6:	b292      	uxth	r2, r2
 8004eb8:	801a      	strh	r2, [r3, #0]
 8004eba:	687b      	ldr	r3, [r7, #4]
 8004ebc:	685b      	ldr	r3, [r3, #4]
 8004ebe:	881b      	ldrh	r3, [r3, #0]
 8004ec0:	b29b      	uxth	r3, r3
 8004ec2:	1c1a      	adds	r2, r3, #0
 8004ec4:	2380      	movs	r3, #128	; 0x80
 8004ec6:	00db      	lsls	r3, r3, #3
 8004ec8:	4313      	orrs	r3, r2
 8004eca:	1c1a      	adds	r2, r3, #0
 8004ecc:	687b      	ldr	r3, [r7, #4]
 8004ece:	685b      	ldr	r3, [r3, #4]
 8004ed0:	b292      	uxth	r2, r2
 8004ed2:	801a      	strh	r2, [r3, #0]
 8004ed4:	e053      	b.n	8004f7e <stm32__spi__configure+0x1ea>
 8004ed6:	687b      	ldr	r3, [r7, #4]
 8004ed8:	685b      	ldr	r3, [r3, #4]
 8004eda:	881b      	ldrh	r3, [r3, #0]
 8004edc:	b29b      	uxth	r3, r3
 8004ede:	1c1a      	adds	r2, r3, #0
 8004ee0:	4b13      	ldr	r3, [pc, #76]	; (8004f30 <stm32__spi__configure+0x19c>)
 8004ee2:	4313      	orrs	r3, r2
 8004ee4:	1c1a      	adds	r2, r3, #0
 8004ee6:	687b      	ldr	r3, [r7, #4]
 8004ee8:	685b      	ldr	r3, [r3, #4]
 8004eea:	b292      	uxth	r2, r2
 8004eec:	801a      	strh	r2, [r3, #0]
 8004eee:	687b      	ldr	r3, [r7, #4]
 8004ef0:	685b      	ldr	r3, [r3, #4]
 8004ef2:	881b      	ldrh	r3, [r3, #0]
 8004ef4:	b29b      	uxth	r3, r3
 8004ef6:	1c1a      	adds	r2, r3, #0
 8004ef8:	4b0b      	ldr	r3, [pc, #44]	; (8004f28 <stm32__spi__configure+0x194>)
 8004efa:	4013      	ands	r3, r2
 8004efc:	1c1a      	adds	r2, r3, #0
 8004efe:	687b      	ldr	r3, [r7, #4]
 8004f00:	685b      	ldr	r3, [r3, #4]
 8004f02:	b292      	uxth	r2, r2
 8004f04:	801a      	strh	r2, [r3, #0]
 8004f06:	687b      	ldr	r3, [r7, #4]
 8004f08:	685b      	ldr	r3, [r3, #4]
 8004f0a:	881b      	ldrh	r3, [r3, #0]
 8004f0c:	b29b      	uxth	r3, r3
 8004f0e:	1c1a      	adds	r2, r3, #0
 8004f10:	4b06      	ldr	r3, [pc, #24]	; (8004f2c <stm32__spi__configure+0x198>)
 8004f12:	4013      	ands	r3, r2
 8004f14:	1c1a      	adds	r2, r3, #0
 8004f16:	687b      	ldr	r3, [r7, #4]
 8004f18:	685b      	ldr	r3, [r3, #4]
 8004f1a:	b292      	uxth	r2, r2
 8004f1c:	801a      	strh	r2, [r3, #0]
 8004f1e:	e02e      	b.n	8004f7e <stm32__spi__configure+0x1ea>
 8004f20:	08009954 	.word	0x08009954
 8004f24:	fffffeff 	.word	0xfffffeff
 8004f28:	ffffbfff 	.word	0xffffbfff
 8004f2c:	fffffbff 	.word	0xfffffbff
 8004f30:	ffff8000 	.word	0xffff8000
 8004f34:	687b      	ldr	r3, [r7, #4]
 8004f36:	685b      	ldr	r3, [r3, #4]
 8004f38:	881b      	ldrh	r3, [r3, #0]
 8004f3a:	b29b      	uxth	r3, r3
 8004f3c:	1c1a      	adds	r2, r3, #0
 8004f3e:	4bab      	ldr	r3, [pc, #684]	; (80051ec <stm32__spi__configure+0x458>)
 8004f40:	4313      	orrs	r3, r2
 8004f42:	1c1a      	adds	r2, r3, #0
 8004f44:	687b      	ldr	r3, [r7, #4]
 8004f46:	685b      	ldr	r3, [r3, #4]
 8004f48:	b292      	uxth	r2, r2
 8004f4a:	801a      	strh	r2, [r3, #0]
 8004f4c:	687b      	ldr	r3, [r7, #4]
 8004f4e:	685b      	ldr	r3, [r3, #4]
 8004f50:	881b      	ldrh	r3, [r3, #0]
 8004f52:	b29b      	uxth	r3, r3
 8004f54:	1c1a      	adds	r2, r3, #0
 8004f56:	2380      	movs	r3, #128	; 0x80
 8004f58:	01db      	lsls	r3, r3, #7
 8004f5a:	4313      	orrs	r3, r2
 8004f5c:	1c1a      	adds	r2, r3, #0
 8004f5e:	687b      	ldr	r3, [r7, #4]
 8004f60:	685b      	ldr	r3, [r3, #4]
 8004f62:	b292      	uxth	r2, r2
 8004f64:	801a      	strh	r2, [r3, #0]
 8004f66:	687b      	ldr	r3, [r7, #4]
 8004f68:	685b      	ldr	r3, [r3, #4]
 8004f6a:	881b      	ldrh	r3, [r3, #0]
 8004f6c:	b29b      	uxth	r3, r3
 8004f6e:	1c1a      	adds	r2, r3, #0
 8004f70:	4b9f      	ldr	r3, [pc, #636]	; (80051f0 <stm32__spi__configure+0x45c>)
 8004f72:	4013      	ands	r3, r2
 8004f74:	1c1a      	adds	r2, r3, #0
 8004f76:	687b      	ldr	r3, [r7, #4]
 8004f78:	685b      	ldr	r3, [r3, #4]
 8004f7a:	b292      	uxth	r2, r2
 8004f7c:	801a      	strh	r2, [r3, #0]
 8004f7e:	46c0      	nop			; (mov r8, r8)
 8004f80:	683b      	ldr	r3, [r7, #0]
 8004f82:	789b      	ldrb	r3, [r3, #2]
 8004f84:	3b01      	subs	r3, #1
 8004f86:	425a      	negs	r2, r3
 8004f88:	4153      	adcs	r3, r2
 8004f8a:	b2d9      	uxtb	r1, r3
 8004f8c:	687b      	ldr	r3, [r7, #4]
 8004f8e:	685b      	ldr	r3, [r3, #4]
 8004f90:	881b      	ldrh	r3, [r3, #0]
 8004f92:	b29b      	uxth	r3, r3
 8004f94:	1c1a      	adds	r2, r3, #0
 8004f96:	2301      	movs	r3, #1
 8004f98:	400b      	ands	r3, r1
 8004f9a:	b2db      	uxtb	r3, r3
 8004f9c:	1c19      	adds	r1, r3, #0
 8004f9e:	2301      	movs	r3, #1
 8004fa0:	400b      	ands	r3, r1
 8004fa2:	02d9      	lsls	r1, r3, #11
 8004fa4:	4b93      	ldr	r3, [pc, #588]	; (80051f4 <stm32__spi__configure+0x460>)
 8004fa6:	4013      	ands	r3, r2
 8004fa8:	1c1a      	adds	r2, r3, #0
 8004faa:	1c0b      	adds	r3, r1, #0
 8004fac:	4313      	orrs	r3, r2
 8004fae:	1c1a      	adds	r2, r3, #0
 8004fb0:	687b      	ldr	r3, [r7, #4]
 8004fb2:	685b      	ldr	r3, [r3, #4]
 8004fb4:	b292      	uxth	r2, r2
 8004fb6:	801a      	strh	r2, [r3, #0]
 8004fb8:	683b      	ldr	r3, [r7, #0]
 8004fba:	78db      	ldrb	r3, [r3, #3]
 8004fbc:	425a      	negs	r2, r3
 8004fbe:	4153      	adcs	r3, r2
 8004fc0:	b2d9      	uxtb	r1, r3
 8004fc2:	687b      	ldr	r3, [r7, #4]
 8004fc4:	685b      	ldr	r3, [r3, #4]
 8004fc6:	881b      	ldrh	r3, [r3, #0]
 8004fc8:	b29b      	uxth	r3, r3
 8004fca:	1c1a      	adds	r2, r3, #0
 8004fcc:	2301      	movs	r3, #1
 8004fce:	400b      	ands	r3, r1
 8004fd0:	b2db      	uxtb	r3, r3
 8004fd2:	1c19      	adds	r1, r3, #0
 8004fd4:	2301      	movs	r3, #1
 8004fd6:	400b      	ands	r3, r1
 8004fd8:	18d9      	adds	r1, r3, r3
 8004fda:	2302      	movs	r3, #2
 8004fdc:	439a      	bics	r2, r3
 8004fde:	0013      	movs	r3, r2
 8004fe0:	1c1a      	adds	r2, r3, #0
 8004fe2:	1c0b      	adds	r3, r1, #0
 8004fe4:	4313      	orrs	r3, r2
 8004fe6:	1c1a      	adds	r2, r3, #0
 8004fe8:	687b      	ldr	r3, [r7, #4]
 8004fea:	685b      	ldr	r3, [r3, #4]
 8004fec:	b292      	uxth	r2, r2
 8004fee:	801a      	strh	r2, [r3, #0]
 8004ff0:	683b      	ldr	r3, [r7, #0]
 8004ff2:	791b      	ldrb	r3, [r3, #4]
 8004ff4:	3b01      	subs	r3, #1
 8004ff6:	425a      	negs	r2, r3
 8004ff8:	4153      	adcs	r3, r2
 8004ffa:	b2d9      	uxtb	r1, r3
 8004ffc:	687b      	ldr	r3, [r7, #4]
 8004ffe:	685b      	ldr	r3, [r3, #4]
 8005000:	881b      	ldrh	r3, [r3, #0]
 8005002:	b29b      	uxth	r3, r3
 8005004:	1c1a      	adds	r2, r3, #0
 8005006:	2301      	movs	r3, #1
 8005008:	400b      	ands	r3, r1
 800500a:	b2db      	uxtb	r3, r3
 800500c:	1c19      	adds	r1, r3, #0
 800500e:	2301      	movs	r3, #1
 8005010:	4019      	ands	r1, r3
 8005012:	2301      	movs	r3, #1
 8005014:	439a      	bics	r2, r3
 8005016:	0013      	movs	r3, r2
 8005018:	1c1a      	adds	r2, r3, #0
 800501a:	1c0b      	adds	r3, r1, #0
 800501c:	4313      	orrs	r3, r2
 800501e:	1c1a      	adds	r2, r3, #0
 8005020:	687b      	ldr	r3, [r7, #4]
 8005022:	685b      	ldr	r3, [r3, #4]
 8005024:	b292      	uxth	r2, r2
 8005026:	801a      	strh	r2, [r3, #0]
 8005028:	683b      	ldr	r3, [r7, #0]
 800502a:	795b      	ldrb	r3, [r3, #5]
 800502c:	425a      	negs	r2, r3
 800502e:	4153      	adcs	r3, r2
 8005030:	b2d9      	uxtb	r1, r3
 8005032:	687b      	ldr	r3, [r7, #4]
 8005034:	685b      	ldr	r3, [r3, #4]
 8005036:	881b      	ldrh	r3, [r3, #0]
 8005038:	b29b      	uxth	r3, r3
 800503a:	1c1a      	adds	r2, r3, #0
 800503c:	2301      	movs	r3, #1
 800503e:	400b      	ands	r3, r1
 8005040:	b2db      	uxtb	r3, r3
 8005042:	1c19      	adds	r1, r3, #0
 8005044:	2301      	movs	r3, #1
 8005046:	400b      	ands	r3, r1
 8005048:	0259      	lsls	r1, r3, #9
 800504a:	4b6b      	ldr	r3, [pc, #428]	; (80051f8 <stm32__spi__configure+0x464>)
 800504c:	4013      	ands	r3, r2
 800504e:	1c1a      	adds	r2, r3, #0
 8005050:	1c0b      	adds	r3, r1, #0
 8005052:	4313      	orrs	r3, r2
 8005054:	1c1a      	adds	r2, r3, #0
 8005056:	687b      	ldr	r3, [r7, #4]
 8005058:	685b      	ldr	r3, [r3, #4]
 800505a:	b292      	uxth	r2, r2
 800505c:	801a      	strh	r2, [r3, #0]
 800505e:	683b      	ldr	r3, [r7, #0]
 8005060:	799b      	ldrb	r3, [r3, #6]
 8005062:	001a      	movs	r2, r3
 8005064:	4b65      	ldr	r3, [pc, #404]	; (80051fc <stm32__spi__configure+0x468>)
 8005066:	5c99      	ldrb	r1, [r3, r2]
 8005068:	687b      	ldr	r3, [r7, #4]
 800506a:	685b      	ldr	r3, [r3, #4]
 800506c:	881b      	ldrh	r3, [r3, #0]
 800506e:	b29b      	uxth	r3, r3
 8005070:	1c1a      	adds	r2, r3, #0
 8005072:	2307      	movs	r3, #7
 8005074:	400b      	ands	r3, r1
 8005076:	b2db      	uxtb	r3, r3
 8005078:	1c19      	adds	r1, r3, #0
 800507a:	2307      	movs	r3, #7
 800507c:	400b      	ands	r3, r1
 800507e:	00d9      	lsls	r1, r3, #3
 8005080:	2338      	movs	r3, #56	; 0x38
 8005082:	439a      	bics	r2, r3
 8005084:	0013      	movs	r3, r2
 8005086:	1c1a      	adds	r2, r3, #0
 8005088:	1c0b      	adds	r3, r1, #0
 800508a:	4313      	orrs	r3, r2
 800508c:	1c1a      	adds	r2, r3, #0
 800508e:	687b      	ldr	r3, [r7, #4]
 8005090:	685b      	ldr	r3, [r3, #4]
 8005092:	b292      	uxth	r2, r2
 8005094:	801a      	strh	r2, [r3, #0]
 8005096:	683b      	ldr	r3, [r7, #0]
 8005098:	79db      	ldrb	r3, [r3, #7]
 800509a:	3b01      	subs	r3, #1
 800509c:	425a      	negs	r2, r3
 800509e:	4153      	adcs	r3, r2
 80050a0:	b2d9      	uxtb	r1, r3
 80050a2:	687b      	ldr	r3, [r7, #4]
 80050a4:	685b      	ldr	r3, [r3, #4]
 80050a6:	881b      	ldrh	r3, [r3, #0]
 80050a8:	b29b      	uxth	r3, r3
 80050aa:	1c1a      	adds	r2, r3, #0
 80050ac:	2301      	movs	r3, #1
 80050ae:	400b      	ands	r3, r1
 80050b0:	b2db      	uxtb	r3, r3
 80050b2:	1c19      	adds	r1, r3, #0
 80050b4:	2301      	movs	r3, #1
 80050b6:	400b      	ands	r3, r1
 80050b8:	01d9      	lsls	r1, r3, #7
 80050ba:	2380      	movs	r3, #128	; 0x80
 80050bc:	439a      	bics	r2, r3
 80050be:	0013      	movs	r3, r2
 80050c0:	1c1a      	adds	r2, r3, #0
 80050c2:	1c0b      	adds	r3, r1, #0
 80050c4:	4313      	orrs	r3, r2
 80050c6:	1c1a      	adds	r2, r3, #0
 80050c8:	687b      	ldr	r3, [r7, #4]
 80050ca:	685b      	ldr	r3, [r3, #4]
 80050cc:	b292      	uxth	r2, r2
 80050ce:	801a      	strh	r2, [r3, #0]
 80050d0:	683b      	ldr	r3, [r7, #0]
 80050d2:	7a99      	ldrb	r1, [r3, #10]
 80050d4:	687b      	ldr	r3, [r7, #4]
 80050d6:	685b      	ldr	r3, [r3, #4]
 80050d8:	3304      	adds	r3, #4
 80050da:	881b      	ldrh	r3, [r3, #0]
 80050dc:	b29b      	uxth	r3, r3
 80050de:	1c1a      	adds	r2, r3, #0
 80050e0:	2301      	movs	r3, #1
 80050e2:	400b      	ands	r3, r1
 80050e4:	b2db      	uxtb	r3, r3
 80050e6:	1c19      	adds	r1, r3, #0
 80050e8:	2301      	movs	r3, #1
 80050ea:	400b      	ands	r3, r1
 80050ec:	18d9      	adds	r1, r3, r3
 80050ee:	2302      	movs	r3, #2
 80050f0:	439a      	bics	r2, r3
 80050f2:	0013      	movs	r3, r2
 80050f4:	1c1a      	adds	r2, r3, #0
 80050f6:	1c0b      	adds	r3, r1, #0
 80050f8:	4313      	orrs	r3, r2
 80050fa:	1c1a      	adds	r2, r3, #0
 80050fc:	687b      	ldr	r3, [r7, #4]
 80050fe:	685b      	ldr	r3, [r3, #4]
 8005100:	3304      	adds	r3, #4
 8005102:	b292      	uxth	r2, r2
 8005104:	801a      	strh	r2, [r3, #0]
 8005106:	683b      	ldr	r3, [r7, #0]
 8005108:	7a99      	ldrb	r1, [r3, #10]
 800510a:	687b      	ldr	r3, [r7, #4]
 800510c:	685b      	ldr	r3, [r3, #4]
 800510e:	3304      	adds	r3, #4
 8005110:	881b      	ldrh	r3, [r3, #0]
 8005112:	b29b      	uxth	r3, r3
 8005114:	1c1a      	adds	r2, r3, #0
 8005116:	2301      	movs	r3, #1
 8005118:	400b      	ands	r3, r1
 800511a:	b2db      	uxtb	r3, r3
 800511c:	1c19      	adds	r1, r3, #0
 800511e:	2301      	movs	r3, #1
 8005120:	400b      	ands	r3, r1
 8005122:	01d9      	lsls	r1, r3, #7
 8005124:	2380      	movs	r3, #128	; 0x80
 8005126:	439a      	bics	r2, r3
 8005128:	0013      	movs	r3, r2
 800512a:	1c1a      	adds	r2, r3, #0
 800512c:	1c0b      	adds	r3, r1, #0
 800512e:	4313      	orrs	r3, r2
 8005130:	1c1a      	adds	r2, r3, #0
 8005132:	687b      	ldr	r3, [r7, #4]
 8005134:	685b      	ldr	r3, [r3, #4]
 8005136:	3304      	adds	r3, #4
 8005138:	b292      	uxth	r2, r2
 800513a:	801a      	strh	r2, [r3, #0]
 800513c:	683b      	ldr	r3, [r7, #0]
 800513e:	7ad9      	ldrb	r1, [r3, #11]
 8005140:	687b      	ldr	r3, [r7, #4]
 8005142:	685b      	ldr	r3, [r3, #4]
 8005144:	3304      	adds	r3, #4
 8005146:	881b      	ldrh	r3, [r3, #0]
 8005148:	b29b      	uxth	r3, r3
 800514a:	1c1a      	adds	r2, r3, #0
 800514c:	2301      	movs	r3, #1
 800514e:	400b      	ands	r3, r1
 8005150:	b2db      	uxtb	r3, r3
 8005152:	1c19      	adds	r1, r3, #0
 8005154:	2301      	movs	r3, #1
 8005156:	4019      	ands	r1, r3
 8005158:	2301      	movs	r3, #1
 800515a:	439a      	bics	r2, r3
 800515c:	0013      	movs	r3, r2
 800515e:	1c1a      	adds	r2, r3, #0
 8005160:	1c0b      	adds	r3, r1, #0
 8005162:	4313      	orrs	r3, r2
 8005164:	1c1a      	adds	r2, r3, #0
 8005166:	687b      	ldr	r3, [r7, #4]
 8005168:	685b      	ldr	r3, [r3, #4]
 800516a:	3304      	adds	r3, #4
 800516c:	b292      	uxth	r2, r2
 800516e:	801a      	strh	r2, [r3, #0]
 8005170:	683b      	ldr	r3, [r7, #0]
 8005172:	7ad9      	ldrb	r1, [r3, #11]
 8005174:	687b      	ldr	r3, [r7, #4]
 8005176:	685b      	ldr	r3, [r3, #4]
 8005178:	3304      	adds	r3, #4
 800517a:	881b      	ldrh	r3, [r3, #0]
 800517c:	b29b      	uxth	r3, r3
 800517e:	1c1a      	adds	r2, r3, #0
 8005180:	2301      	movs	r3, #1
 8005182:	400b      	ands	r3, r1
 8005184:	b2db      	uxtb	r3, r3
 8005186:	1c19      	adds	r1, r3, #0
 8005188:	2301      	movs	r3, #1
 800518a:	400b      	ands	r3, r1
 800518c:	0199      	lsls	r1, r3, #6
 800518e:	2340      	movs	r3, #64	; 0x40
 8005190:	439a      	bics	r2, r3
 8005192:	0013      	movs	r3, r2
 8005194:	1c1a      	adds	r2, r3, #0
 8005196:	1c0b      	adds	r3, r1, #0
 8005198:	4313      	orrs	r3, r2
 800519a:	1c1a      	adds	r2, r3, #0
 800519c:	687b      	ldr	r3, [r7, #4]
 800519e:	685b      	ldr	r3, [r3, #4]
 80051a0:	3304      	adds	r3, #4
 80051a2:	b292      	uxth	r2, r2
 80051a4:	801a      	strh	r2, [r3, #0]
 80051a6:	683b      	ldr	r3, [r7, #0]
 80051a8:	7b19      	ldrb	r1, [r3, #12]
 80051aa:	687b      	ldr	r3, [r7, #4]
 80051ac:	685b      	ldr	r3, [r3, #4]
 80051ae:	3304      	adds	r3, #4
 80051b0:	881b      	ldrh	r3, [r3, #0]
 80051b2:	b29b      	uxth	r3, r3
 80051b4:	1c1a      	adds	r2, r3, #0
 80051b6:	2301      	movs	r3, #1
 80051b8:	400b      	ands	r3, r1
 80051ba:	b2db      	uxtb	r3, r3
 80051bc:	1c19      	adds	r1, r3, #0
 80051be:	2301      	movs	r3, #1
 80051c0:	400b      	ands	r3, r1
 80051c2:	0319      	lsls	r1, r3, #12
 80051c4:	4b0e      	ldr	r3, [pc, #56]	; (8005200 <stm32__spi__configure+0x46c>)
 80051c6:	4013      	ands	r3, r2
 80051c8:	1c1a      	adds	r2, r3, #0
 80051ca:	1c0b      	adds	r3, r1, #0
 80051cc:	4313      	orrs	r3, r2
 80051ce:	1c1a      	adds	r2, r3, #0
 80051d0:	687b      	ldr	r3, [r7, #4]
 80051d2:	685b      	ldr	r3, [r3, #4]
 80051d4:	3304      	adds	r3, #4
 80051d6:	b292      	uxth	r2, r2
 80051d8:	801a      	strh	r2, [r3, #0]
 80051da:	687b      	ldr	r3, [r7, #4]
 80051dc:	685b      	ldr	r3, [r3, #4]
 80051de:	683a      	ldr	r2, [r7, #0]
 80051e0:	8912      	ldrh	r2, [r2, #8]
 80051e2:	821a      	strh	r2, [r3, #16]
 80051e4:	46bd      	mov	sp, r7
 80051e6:	b002      	add	sp, #8
 80051e8:	bd80      	pop	{r7, pc}
 80051ea:	46c0      	nop			; (mov r8, r8)
 80051ec:	ffff8000 	.word	0xffff8000
 80051f0:	fffffbff 	.word	0xfffffbff
 80051f4:	fffff7ff 	.word	0xfffff7ff
 80051f8:	fffffdff 	.word	0xfffffdff
 80051fc:	08009b58 	.word	0x08009b58
 8005200:	ffffefff 	.word	0xffffefff

08005204 <stm32__spi__enable>:
 8005204:	b580      	push	{r7, lr}
 8005206:	b082      	sub	sp, #8
 8005208:	af00      	add	r7, sp, #0
 800520a:	6078      	str	r0, [r7, #4]
 800520c:	687b      	ldr	r3, [r7, #4]
 800520e:	685b      	ldr	r3, [r3, #4]
 8005210:	881b      	ldrh	r3, [r3, #0]
 8005212:	b29b      	uxth	r3, r3
 8005214:	1c1a      	adds	r2, r3, #0
 8005216:	2340      	movs	r3, #64	; 0x40
 8005218:	4313      	orrs	r3, r2
 800521a:	1c1a      	adds	r2, r3, #0
 800521c:	687b      	ldr	r3, [r7, #4]
 800521e:	685b      	ldr	r3, [r3, #4]
 8005220:	b292      	uxth	r2, r2
 8005222:	801a      	strh	r2, [r3, #0]
 8005224:	46bd      	mov	sp, r7
 8005226:	b002      	add	sp, #8
 8005228:	bd80      	pop	{r7, pc}
 800522a:	46c0      	nop			; (mov r8, r8)

0800522c <stm32__spi__disable>:
 800522c:	b580      	push	{r7, lr}
 800522e:	b082      	sub	sp, #8
 8005230:	af00      	add	r7, sp, #0
 8005232:	6078      	str	r0, [r7, #4]
 8005234:	687b      	ldr	r3, [r7, #4]
 8005236:	685b      	ldr	r3, [r3, #4]
 8005238:	881b      	ldrh	r3, [r3, #0]
 800523a:	b29b      	uxth	r3, r3
 800523c:	1c1a      	adds	r2, r3, #0
 800523e:	2340      	movs	r3, #64	; 0x40
 8005240:	439a      	bics	r2, r3
 8005242:	0013      	movs	r3, r2
 8005244:	1c1a      	adds	r2, r3, #0
 8005246:	687b      	ldr	r3, [r7, #4]
 8005248:	685b      	ldr	r3, [r3, #4]
 800524a:	b292      	uxth	r2, r2
 800524c:	801a      	strh	r2, [r3, #0]
 800524e:	46bd      	mov	sp, r7
 8005250:	b002      	add	sp, #8
 8005252:	bd80      	pop	{r7, pc}

08005254 <stm32__spi__enabled>:
 8005254:	b580      	push	{r7, lr}
 8005256:	b082      	sub	sp, #8
 8005258:	af00      	add	r7, sp, #0
 800525a:	6078      	str	r0, [r7, #4]
 800525c:	687b      	ldr	r3, [r7, #4]
 800525e:	685b      	ldr	r3, [r3, #4]
 8005260:	881b      	ldrh	r3, [r3, #0]
 8005262:	b29b      	uxth	r3, r3
 8005264:	065b      	lsls	r3, r3, #25
 8005266:	0fdb      	lsrs	r3, r3, #31
 8005268:	b2db      	uxtb	r3, r3
 800526a:	46c0      	nop			; (mov r8, r8)
 800526c:	0018      	movs	r0, r3
 800526e:	46bd      	mov	sp, r7
 8005270:	b002      	add	sp, #8
 8005272:	bd80      	pop	{r7, pc}

08005274 <stm32__spi__send>:
 8005274:	b580      	push	{r7, lr}
 8005276:	b082      	sub	sp, #8
 8005278:	af00      	add	r7, sp, #0
 800527a:	6078      	str	r0, [r7, #4]
 800527c:	000a      	movs	r2, r1
 800527e:	1cbb      	adds	r3, r7, #2
 8005280:	801a      	strh	r2, [r3, #0]
 8005282:	687b      	ldr	r3, [r7, #4]
 8005284:	685b      	ldr	r3, [r3, #4]
 8005286:	1cba      	adds	r2, r7, #2
 8005288:	8812      	ldrh	r2, [r2, #0]
 800528a:	819a      	strh	r2, [r3, #12]
 800528c:	46bd      	mov	sp, r7
 800528e:	b002      	add	sp, #8
 8005290:	bd80      	pop	{r7, pc}
 8005292:	46c0      	nop			; (mov r8, r8)

08005294 <stm32__spi__data>:
 8005294:	b580      	push	{r7, lr}
 8005296:	b082      	sub	sp, #8
 8005298:	af00      	add	r7, sp, #0
 800529a:	6078      	str	r0, [r7, #4]
 800529c:	687b      	ldr	r3, [r7, #4]
 800529e:	685b      	ldr	r3, [r3, #4]
 80052a0:	899b      	ldrh	r3, [r3, #12]
 80052a2:	b29b      	uxth	r3, r3
 80052a4:	46c0      	nop			; (mov r8, r8)
 80052a6:	0018      	movs	r0, r3
 80052a8:	46bd      	mov	sp, r7
 80052aa:	b002      	add	sp, #8
 80052ac:	bd80      	pop	{r7, pc}
 80052ae:	46c0      	nop			; (mov r8, r8)

080052b0 <stm32__spi__send__2>:
 80052b0:	b580      	push	{r7, lr}
 80052b2:	b084      	sub	sp, #16
 80052b4:	af00      	add	r7, sp, #0
 80052b6:	6078      	str	r0, [r7, #4]
 80052b8:	000a      	movs	r2, r1
 80052ba:	1cfb      	adds	r3, r7, #3
 80052bc:	701a      	strb	r2, [r3, #0]
 80052be:	687b      	ldr	r3, [r7, #4]
 80052c0:	685b      	ldr	r3, [r3, #4]
 80052c2:	330c      	adds	r3, #12
 80052c4:	60fb      	str	r3, [r7, #12]
 80052c6:	68fb      	ldr	r3, [r7, #12]
 80052c8:	1cfa      	adds	r2, r7, #3
 80052ca:	7812      	ldrb	r2, [r2, #0]
 80052cc:	701a      	strb	r2, [r3, #0]
 80052ce:	46bd      	mov	sp, r7
 80052d0:	b004      	add	sp, #16
 80052d2:	bd80      	pop	{r7, pc}

080052d4 <stm32__spi__data__2>:
 80052d4:	b580      	push	{r7, lr}
 80052d6:	b082      	sub	sp, #8
 80052d8:	af00      	add	r7, sp, #0
 80052da:	6078      	str	r0, [r7, #4]
 80052dc:	687b      	ldr	r3, [r7, #4]
 80052de:	0018      	movs	r0, r3
 80052e0:	f7ff ffd8 	bl	8005294 <stm32__spi__data>
 80052e4:	0003      	movs	r3, r0
 80052e6:	2bff      	cmp	r3, #255	; 0xff
 80052e8:	d904      	bls.n	80052f4 <stm32__spi__data__2+0x20>
 80052ea:	4b05      	ldr	r3, [pc, #20]	; (8005300 <stm32__spi__data__2+0x2c>)
 80052ec:	21b9      	movs	r1, #185	; 0xb9
 80052ee:	0018      	movs	r0, r3
 80052f0:	f003 fa02 	bl	80086f8 <__gnat_last_chance_handler>
 80052f4:	b2db      	uxtb	r3, r3
 80052f6:	46c0      	nop			; (mov r8, r8)
 80052f8:	0018      	movs	r0, r3
 80052fa:	46bd      	mov	sp, r7
 80052fc:	b002      	add	sp, #8
 80052fe:	bd80      	pop	{r7, pc}
 8005300:	08009954 	.word	0x08009954

08005304 <stm32__spi__is_busy>:
 8005304:	b580      	push	{r7, lr}
 8005306:	b082      	sub	sp, #8
 8005308:	af00      	add	r7, sp, #0
 800530a:	6078      	str	r0, [r7, #4]
 800530c:	687b      	ldr	r3, [r7, #4]
 800530e:	0018      	movs	r0, r3
 8005310:	f000 f82e 	bl	8005370 <stm32__spi__rx_is_empty>
 8005314:	1e03      	subs	r3, r0, #0
 8005316:	d00a      	beq.n	800532e <stm32__spi__is_busy+0x2a>
 8005318:	687b      	ldr	r3, [r7, #4]
 800531a:	0018      	movs	r0, r3
 800531c:	f000 f816 	bl	800534c <stm32__spi__tx_is_empty>
 8005320:	0003      	movs	r3, r0
 8005322:	001a      	movs	r2, r3
 8005324:	2301      	movs	r3, #1
 8005326:	4053      	eors	r3, r2
 8005328:	b2db      	uxtb	r3, r3
 800532a:	2b00      	cmp	r3, #0
 800532c:	d105      	bne.n	800533a <stm32__spi__is_busy+0x36>
 800532e:	687b      	ldr	r3, [r7, #4]
 8005330:	0018      	movs	r0, r3
 8005332:	f000 f833 	bl	800539c <stm32__spi__busy>
 8005336:	1e03      	subs	r3, r0, #0
 8005338:	d001      	beq.n	800533e <stm32__spi__is_busy+0x3a>
 800533a:	2301      	movs	r3, #1
 800533c:	e000      	b.n	8005340 <stm32__spi__is_busy+0x3c>
 800533e:	2300      	movs	r3, #0
 8005340:	46c0      	nop			; (mov r8, r8)
 8005342:	0018      	movs	r0, r3
 8005344:	46bd      	mov	sp, r7
 8005346:	b002      	add	sp, #8
 8005348:	bd80      	pop	{r7, pc}
 800534a:	46c0      	nop			; (mov r8, r8)

0800534c <stm32__spi__tx_is_empty>:
 800534c:	b580      	push	{r7, lr}
 800534e:	b082      	sub	sp, #8
 8005350:	af00      	add	r7, sp, #0
 8005352:	6078      	str	r0, [r7, #4]
 8005354:	687b      	ldr	r3, [r7, #4]
 8005356:	685b      	ldr	r3, [r3, #4]
 8005358:	3308      	adds	r3, #8
 800535a:	881b      	ldrh	r3, [r3, #0]
 800535c:	b29b      	uxth	r3, r3
 800535e:	079b      	lsls	r3, r3, #30
 8005360:	0fdb      	lsrs	r3, r3, #31
 8005362:	b2db      	uxtb	r3, r3
 8005364:	46c0      	nop			; (mov r8, r8)
 8005366:	0018      	movs	r0, r3
 8005368:	46bd      	mov	sp, r7
 800536a:	b002      	add	sp, #8
 800536c:	bd80      	pop	{r7, pc}
 800536e:	46c0      	nop			; (mov r8, r8)

08005370 <stm32__spi__rx_is_empty>:
 8005370:	b580      	push	{r7, lr}
 8005372:	b082      	sub	sp, #8
 8005374:	af00      	add	r7, sp, #0
 8005376:	6078      	str	r0, [r7, #4]
 8005378:	687b      	ldr	r3, [r7, #4]
 800537a:	685b      	ldr	r3, [r3, #4]
 800537c:	3308      	adds	r3, #8
 800537e:	881b      	ldrh	r3, [r3, #0]
 8005380:	b29b      	uxth	r3, r3
 8005382:	b2db      	uxtb	r3, r3
 8005384:	2201      	movs	r2, #1
 8005386:	4013      	ands	r3, r2
 8005388:	b2db      	uxtb	r3, r3
 800538a:	425a      	negs	r2, r3
 800538c:	4153      	adcs	r3, r2
 800538e:	b2db      	uxtb	r3, r3
 8005390:	46c0      	nop			; (mov r8, r8)
 8005392:	0018      	movs	r0, r3
 8005394:	46bd      	mov	sp, r7
 8005396:	b002      	add	sp, #8
 8005398:	bd80      	pop	{r7, pc}
 800539a:	46c0      	nop			; (mov r8, r8)

0800539c <stm32__spi__busy>:
 800539c:	b580      	push	{r7, lr}
 800539e:	b082      	sub	sp, #8
 80053a0:	af00      	add	r7, sp, #0
 80053a2:	6078      	str	r0, [r7, #4]
 80053a4:	687b      	ldr	r3, [r7, #4]
 80053a6:	685b      	ldr	r3, [r3, #4]
 80053a8:	3308      	adds	r3, #8
 80053aa:	881b      	ldrh	r3, [r3, #0]
 80053ac:	b29b      	uxth	r3, r3
 80053ae:	061b      	lsls	r3, r3, #24
 80053b0:	0fdb      	lsrs	r3, r3, #31
 80053b2:	b2db      	uxtb	r3, r3
 80053b4:	46c0      	nop			; (mov r8, r8)
 80053b6:	0018      	movs	r0, r3
 80053b8:	46bd      	mov	sp, r7
 80053ba:	b002      	add	sp, #8
 80053bc:	bd80      	pop	{r7, pc}
 80053be:	46c0      	nop			; (mov r8, r8)

080053c0 <stm32__spi__current_mode>:
 80053c0:	b580      	push	{r7, lr}
 80053c2:	b082      	sub	sp, #8
 80053c4:	af00      	add	r7, sp, #0
 80053c6:	6078      	str	r0, [r7, #4]
 80053c8:	687b      	ldr	r3, [r7, #4]
 80053ca:	685b      	ldr	r3, [r3, #4]
 80053cc:	881b      	ldrh	r3, [r3, #0]
 80053ce:	b29b      	uxth	r3, r3
 80053d0:	b2db      	uxtb	r3, r3
 80053d2:	2204      	movs	r2, #4
 80053d4:	4013      	ands	r3, r2
 80053d6:	b2db      	uxtb	r3, r3
 80053d8:	1e5a      	subs	r2, r3, #1
 80053da:	4193      	sbcs	r3, r2
 80053dc:	b2da      	uxtb	r2, r3
 80053de:	687b      	ldr	r3, [r7, #4]
 80053e0:	685b      	ldr	r3, [r3, #4]
 80053e2:	881b      	ldrh	r3, [r3, #0]
 80053e4:	b29b      	uxth	r3, r3
 80053e6:	041b      	lsls	r3, r3, #16
 80053e8:	0e1b      	lsrs	r3, r3, #24
 80053ea:	b2db      	uxtb	r3, r3
 80053ec:	2101      	movs	r1, #1
 80053ee:	400b      	ands	r3, r1
 80053f0:	b2db      	uxtb	r3, r3
 80053f2:	1e59      	subs	r1, r3, #1
 80053f4:	418b      	sbcs	r3, r1
 80053f6:	b2db      	uxtb	r3, r3
 80053f8:	4013      	ands	r3, r2
 80053fa:	b2db      	uxtb	r3, r3
 80053fc:	2b00      	cmp	r3, #0
 80053fe:	d001      	beq.n	8005404 <stm32__spi__current_mode+0x44>
 8005400:	2300      	movs	r3, #0
 8005402:	e000      	b.n	8005406 <stm32__spi__current_mode+0x46>
 8005404:	2301      	movs	r3, #1
 8005406:	46c0      	nop			; (mov r8, r8)
 8005408:	0018      	movs	r0, r3
 800540a:	46bd      	mov	sp, r7
 800540c:	b002      	add	sp, #8
 800540e:	bd80      	pop	{r7, pc}

08005410 <stm32__spi__current_data_direction>:
 8005410:	b580      	push	{r7, lr}
 8005412:	b082      	sub	sp, #8
 8005414:	af00      	add	r7, sp, #0
 8005416:	6078      	str	r0, [r7, #4]
 8005418:	687b      	ldr	r3, [r7, #4]
 800541a:	685b      	ldr	r3, [r3, #4]
 800541c:	881b      	ldrh	r3, [r3, #0]
 800541e:	b29b      	uxth	r3, r3
 8005420:	041b      	lsls	r3, r3, #16
 8005422:	0e1b      	lsrs	r3, r3, #24
 8005424:	b2db      	uxtb	r3, r3
 8005426:	b25b      	sxtb	r3, r3
 8005428:	2b00      	cmp	r3, #0
 800542a:	db0f      	blt.n	800544c <stm32__spi__current_data_direction+0x3c>
 800542c:	687b      	ldr	r3, [r7, #4]
 800542e:	685b      	ldr	r3, [r3, #4]
 8005430:	881b      	ldrh	r3, [r3, #0]
 8005432:	b29b      	uxth	r3, r3
 8005434:	041b      	lsls	r3, r3, #16
 8005436:	0e1b      	lsrs	r3, r3, #24
 8005438:	b2db      	uxtb	r3, r3
 800543a:	2204      	movs	r2, #4
 800543c:	4013      	ands	r3, r2
 800543e:	b2db      	uxtb	r3, r3
 8005440:	2b00      	cmp	r3, #0
 8005442:	d101      	bne.n	8005448 <stm32__spi__current_data_direction+0x38>
 8005444:	2300      	movs	r3, #0
 8005446:	e010      	b.n	800546a <stm32__spi__current_data_direction+0x5a>
 8005448:	2301      	movs	r3, #1
 800544a:	e00e      	b.n	800546a <stm32__spi__current_data_direction+0x5a>
 800544c:	687b      	ldr	r3, [r7, #4]
 800544e:	685b      	ldr	r3, [r3, #4]
 8005450:	881b      	ldrh	r3, [r3, #0]
 8005452:	b29b      	uxth	r3, r3
 8005454:	041b      	lsls	r3, r3, #16
 8005456:	0e1b      	lsrs	r3, r3, #24
 8005458:	b2db      	uxtb	r3, r3
 800545a:	2240      	movs	r2, #64	; 0x40
 800545c:	4013      	ands	r3, r2
 800545e:	b2db      	uxtb	r3, r3
 8005460:	2b00      	cmp	r3, #0
 8005462:	d101      	bne.n	8005468 <stm32__spi__current_data_direction+0x58>
 8005464:	2302      	movs	r3, #2
 8005466:	e000      	b.n	800546a <stm32__spi__current_data_direction+0x5a>
 8005468:	2303      	movs	r3, #3
 800546a:	46c0      	nop			; (mov r8, r8)
 800546c:	0018      	movs	r0, r3
 800546e:	46bd      	mov	sp, r7
 8005470:	b002      	add	sp, #8
 8005472:	bd80      	pop	{r7, pc}

08005474 <stm32__spi__crc_enabled>:
 8005474:	b580      	push	{r7, lr}
 8005476:	b082      	sub	sp, #8
 8005478:	af00      	add	r7, sp, #0
 800547a:	6078      	str	r0, [r7, #4]
 800547c:	687b      	ldr	r3, [r7, #4]
 800547e:	685b      	ldr	r3, [r3, #4]
 8005480:	881b      	ldrh	r3, [r3, #0]
 8005482:	b29b      	uxth	r3, r3
 8005484:	049b      	lsls	r3, r3, #18
 8005486:	0fdb      	lsrs	r3, r3, #31
 8005488:	b2db      	uxtb	r3, r3
 800548a:	46c0      	nop			; (mov r8, r8)
 800548c:	0018      	movs	r0, r3
 800548e:	46bd      	mov	sp, r7
 8005490:	b002      	add	sp, #8
 8005492:	bd80      	pop	{r7, pc}

08005494 <stm32__spi__crc_error_indicated>:
 8005494:	b580      	push	{r7, lr}
 8005496:	b082      	sub	sp, #8
 8005498:	af00      	add	r7, sp, #0
 800549a:	6078      	str	r0, [r7, #4]
 800549c:	687b      	ldr	r3, [r7, #4]
 800549e:	685b      	ldr	r3, [r3, #4]
 80054a0:	3308      	adds	r3, #8
 80054a2:	881b      	ldrh	r3, [r3, #0]
 80054a4:	b29b      	uxth	r3, r3
 80054a6:	06db      	lsls	r3, r3, #27
 80054a8:	0fdb      	lsrs	r3, r3, #31
 80054aa:	b2db      	uxtb	r3, r3
 80054ac:	46c0      	nop			; (mov r8, r8)
 80054ae:	0018      	movs	r0, r3
 80054b0:	46bd      	mov	sp, r7
 80054b2:	b002      	add	sp, #8
 80054b4:	bd80      	pop	{r7, pc}
 80054b6:	46c0      	nop			; (mov r8, r8)

080054b8 <stm32__spi__mode_fault_indicated>:
 80054b8:	b580      	push	{r7, lr}
 80054ba:	b082      	sub	sp, #8
 80054bc:	af00      	add	r7, sp, #0
 80054be:	6078      	str	r0, [r7, #4]
 80054c0:	687b      	ldr	r3, [r7, #4]
 80054c2:	685b      	ldr	r3, [r3, #4]
 80054c4:	3308      	adds	r3, #8
 80054c6:	881b      	ldrh	r3, [r3, #0]
 80054c8:	b29b      	uxth	r3, r3
 80054ca:	069b      	lsls	r3, r3, #26
 80054cc:	0fdb      	lsrs	r3, r3, #31
 80054ce:	b2db      	uxtb	r3, r3
 80054d0:	46c0      	nop			; (mov r8, r8)
 80054d2:	0018      	movs	r0, r3
 80054d4:	46bd      	mov	sp, r7
 80054d6:	b002      	add	sp, #8
 80054d8:	bd80      	pop	{r7, pc}
 80054da:	46c0      	nop			; (mov r8, r8)

080054dc <stm32__spi__overrun_indicated>:
 80054dc:	b580      	push	{r7, lr}
 80054de:	b082      	sub	sp, #8
 80054e0:	af00      	add	r7, sp, #0
 80054e2:	6078      	str	r0, [r7, #4]
 80054e4:	687b      	ldr	r3, [r7, #4]
 80054e6:	685b      	ldr	r3, [r3, #4]
 80054e8:	3308      	adds	r3, #8
 80054ea:	881b      	ldrh	r3, [r3, #0]
 80054ec:	b29b      	uxth	r3, r3
 80054ee:	065b      	lsls	r3, r3, #25
 80054f0:	0fdb      	lsrs	r3, r3, #31
 80054f2:	b2db      	uxtb	r3, r3
 80054f4:	46c0      	nop			; (mov r8, r8)
 80054f6:	0018      	movs	r0, r3
 80054f8:	46bd      	mov	sp, r7
 80054fa:	b002      	add	sp, #8
 80054fc:	bd80      	pop	{r7, pc}
 80054fe:	46c0      	nop			; (mov r8, r8)

08005500 <stm32__spi__frame_fmt_error_indicated>:
 8005500:	b580      	push	{r7, lr}
 8005502:	b082      	sub	sp, #8
 8005504:	af00      	add	r7, sp, #0
 8005506:	6078      	str	r0, [r7, #4]
 8005508:	687b      	ldr	r3, [r7, #4]
 800550a:	685b      	ldr	r3, [r3, #4]
 800550c:	3308      	adds	r3, #8
 800550e:	881b      	ldrh	r3, [r3, #0]
 8005510:	b29b      	uxth	r3, r3
 8005512:	05db      	lsls	r3, r3, #23
 8005514:	0fdb      	lsrs	r3, r3, #31
 8005516:	b2db      	uxtb	r3, r3
 8005518:	46c0      	nop			; (mov r8, r8)
 800551a:	0018      	movs	r0, r3
 800551c:	46bd      	mov	sp, r7
 800551e:	b002      	add	sp, #8
 8005520:	bd80      	pop	{r7, pc}
 8005522:	46c0      	nop			; (mov r8, r8)

08005524 <stm32__spi__clear_overrun>:
 8005524:	b590      	push	{r4, r7, lr}
 8005526:	b085      	sub	sp, #20
 8005528:	af00      	add	r7, sp, #0
 800552a:	6078      	str	r0, [r7, #4]
 800552c:	240c      	movs	r4, #12
 800552e:	193b      	adds	r3, r7, r4
 8005530:	0018      	movs	r0, r3
 8005532:	f001 fc4f 	bl	8006dd4 <stm32_svd__spi__spi_sr_registerIP>
 8005536:	687b      	ldr	r3, [r7, #4]
 8005538:	685a      	ldr	r2, [r3, #4]
 800553a:	230e      	movs	r3, #14
 800553c:	18fb      	adds	r3, r7, r3
 800553e:	8992      	ldrh	r2, [r2, #12]
 8005540:	801a      	strh	r2, [r3, #0]
 8005542:	687b      	ldr	r3, [r7, #4]
 8005544:	685b      	ldr	r3, [r3, #4]
 8005546:	3308      	adds	r3, #8
 8005548:	881b      	ldrh	r3, [r3, #0]
 800554a:	b29a      	uxth	r2, r3
 800554c:	193b      	adds	r3, r7, r4
 800554e:	801a      	strh	r2, [r3, #0]
 8005550:	46bd      	mov	sp, r7
 8005552:	b005      	add	sp, #20
 8005554:	bd90      	pop	{r4, r7, pc}
 8005556:	46c0      	nop			; (mov r8, r8)

08005558 <stm32__spi__reset_crc>:
 8005558:	b580      	push	{r7, lr}
 800555a:	b082      	sub	sp, #8
 800555c:	af00      	add	r7, sp, #0
 800555e:	6078      	str	r0, [r7, #4]
 8005560:	687b      	ldr	r3, [r7, #4]
 8005562:	685b      	ldr	r3, [r3, #4]
 8005564:	881b      	ldrh	r3, [r3, #0]
 8005566:	b29b      	uxth	r3, r3
 8005568:	1c1a      	adds	r2, r3, #0
 800556a:	4b0b      	ldr	r3, [pc, #44]	; (8005598 <stm32__spi__reset_crc+0x40>)
 800556c:	4013      	ands	r3, r2
 800556e:	1c1a      	adds	r2, r3, #0
 8005570:	687b      	ldr	r3, [r7, #4]
 8005572:	685b      	ldr	r3, [r3, #4]
 8005574:	b292      	uxth	r2, r2
 8005576:	801a      	strh	r2, [r3, #0]
 8005578:	687b      	ldr	r3, [r7, #4]
 800557a:	685b      	ldr	r3, [r3, #4]
 800557c:	881b      	ldrh	r3, [r3, #0]
 800557e:	b29b      	uxth	r3, r3
 8005580:	1c1a      	adds	r2, r3, #0
 8005582:	2380      	movs	r3, #128	; 0x80
 8005584:	019b      	lsls	r3, r3, #6
 8005586:	4313      	orrs	r3, r2
 8005588:	1c1a      	adds	r2, r3, #0
 800558a:	687b      	ldr	r3, [r7, #4]
 800558c:	685b      	ldr	r3, [r3, #4]
 800558e:	b292      	uxth	r2, r2
 8005590:	801a      	strh	r2, [r3, #0]
 8005592:	46bd      	mov	sp, r7
 8005594:	b002      	add	sp, #8
 8005596:	bd80      	pop	{r7, pc}
 8005598:	ffffdfff 	.word	0xffffdfff

0800559c <stm32__spi__is_data_frame_16bit>:
 800559c:	b580      	push	{r7, lr}
 800559e:	b082      	sub	sp, #8
 80055a0:	af00      	add	r7, sp, #0
 80055a2:	6078      	str	r0, [r7, #4]
 80055a4:	687b      	ldr	r3, [r7, #4]
 80055a6:	685b      	ldr	r3, [r3, #4]
 80055a8:	881b      	ldrh	r3, [r3, #0]
 80055aa:	b29b      	uxth	r3, r3
 80055ac:	051b      	lsls	r3, r3, #20
 80055ae:	0fdb      	lsrs	r3, r3, #31
 80055b0:	b2db      	uxtb	r3, r3
 80055b2:	46c0      	nop			; (mov r8, r8)
 80055b4:	0018      	movs	r0, r3
 80055b6:	46bd      	mov	sp, r7
 80055b8:	b002      	add	sp, #8
 80055ba:	bd80      	pop	{r7, pc}

080055bc <stm32__spi__data_size>:
 80055bc:	b580      	push	{r7, lr}
 80055be:	b082      	sub	sp, #8
 80055c0:	af00      	add	r7, sp, #0
 80055c2:	6078      	str	r0, [r7, #4]
 80055c4:	687b      	ldr	r3, [r7, #4]
 80055c6:	685b      	ldr	r3, [r3, #4]
 80055c8:	881b      	ldrh	r3, [r3, #0]
 80055ca:	b29b      	uxth	r3, r3
 80055cc:	041b      	lsls	r3, r3, #16
 80055ce:	0e1b      	lsrs	r3, r3, #24
 80055d0:	b2db      	uxtb	r3, r3
 80055d2:	2208      	movs	r2, #8
 80055d4:	4013      	ands	r3, r2
 80055d6:	b2db      	uxtb	r3, r3
 80055d8:	2b00      	cmp	r3, #0
 80055da:	d001      	beq.n	80055e0 <stm32__spi__data_size+0x24>
 80055dc:	2301      	movs	r3, #1
 80055de:	e000      	b.n	80055e2 <stm32__spi__data_size+0x26>
 80055e0:	2300      	movs	r3, #0
 80055e2:	46c0      	nop			; (mov r8, r8)
 80055e4:	0018      	movs	r0, r3
 80055e6:	46bd      	mov	sp, r7
 80055e8:	b002      	add	sp, #8
 80055ea:	bd80      	pop	{r7, pc}

080055ec <stm32__spi__transmit>:
 80055ec:	b5b0      	push	{r4, r5, r7, lr}
 80055ee:	b086      	sub	sp, #24
 80055f0:	af00      	add	r7, sp, #0
 80055f2:	60f8      	str	r0, [r7, #12]
 80055f4:	6039      	str	r1, [r7, #0]
 80055f6:	607a      	str	r2, [r7, #4]
 80055f8:	60bb      	str	r3, [r7, #8]
 80055fa:	68fb      	ldr	r3, [r7, #12]
 80055fc:	0018      	movs	r0, r3
 80055fe:	f7ff ffdd 	bl	80055bc <stm32__spi__data_size>
 8005602:	1e03      	subs	r3, r0, #0
 8005604:	d007      	beq.n	8005616 <stm32__spi__transmit+0x2a>
 8005606:	4b36      	ldr	r3, [pc, #216]	; (80056e0 <stm32__spi__transmit+0xf4>)
 8005608:	001c      	movs	r4, r3
 800560a:	4b36      	ldr	r3, [pc, #216]	; (80056e4 <stm32__spi__transmit+0xf8>)
 800560c:	001d      	movs	r5, r3
 800560e:	0020      	movs	r0, r4
 8005610:	0029      	movs	r1, r5
 8005612:	f003 fabf 	bl	8008b94 <system__assertions__raise_assert_failure>
 8005616:	68fb      	ldr	r3, [r7, #12]
 8005618:	0018      	movs	r0, r3
 800561a:	f7ff ff2b 	bl	8005474 <stm32__spi__crc_enabled>
 800561e:	1e03      	subs	r3, r0, #0
 8005620:	d003      	beq.n	800562a <stm32__spi__transmit+0x3e>
 8005622:	68fb      	ldr	r3, [r7, #12]
 8005624:	0018      	movs	r0, r3
 8005626:	f7ff ff97 	bl	8005558 <stm32__spi__reset_crc>
 800562a:	68fb      	ldr	r3, [r7, #12]
 800562c:	0018      	movs	r0, r3
 800562e:	f7ff feef 	bl	8005410 <stm32__spi__current_data_direction>
 8005632:	0003      	movs	r3, r0
 8005634:	2b03      	cmp	r3, #3
 8005636:	d10c      	bne.n	8005652 <stm32__spi__transmit+0x66>
 8005638:	68fb      	ldr	r3, [r7, #12]
 800563a:	685b      	ldr	r3, [r3, #4]
 800563c:	881b      	ldrh	r3, [r3, #0]
 800563e:	b29b      	uxth	r3, r3
 8005640:	1c1a      	adds	r2, r3, #0
 8005642:	2380      	movs	r3, #128	; 0x80
 8005644:	01db      	lsls	r3, r3, #7
 8005646:	4313      	orrs	r3, r2
 8005648:	1c1a      	adds	r2, r3, #0
 800564a:	68fb      	ldr	r3, [r7, #12]
 800564c:	685b      	ldr	r3, [r3, #4]
 800564e:	b292      	uxth	r2, r2
 8005650:	801a      	strh	r2, [r3, #0]
 8005652:	68fb      	ldr	r3, [r7, #12]
 8005654:	0018      	movs	r0, r3
 8005656:	f7ff ff65 	bl	8005524 <stm32__spi__clear_overrun>
 800565a:	68fb      	ldr	r3, [r7, #12]
 800565c:	0018      	movs	r0, r3
 800565e:	f7ff fdf9 	bl	8005254 <stm32__spi__enabled>
 8005662:	0003      	movs	r3, r0
 8005664:	001a      	movs	r2, r3
 8005666:	2301      	movs	r3, #1
 8005668:	4053      	eors	r3, r2
 800566a:	b2db      	uxtb	r3, r3
 800566c:	2b00      	cmp	r3, #0
 800566e:	d003      	beq.n	8005678 <stm32__spi__transmit+0x8c>
 8005670:	68fb      	ldr	r3, [r7, #12]
 8005672:	0018      	movs	r0, r3
 8005674:	f7ff fdc6 	bl	8005204 <stm32__spi__enable>
 8005678:	683b      	ldr	r3, [r7, #0]
 800567a:	687c      	ldr	r4, [r7, #4]
 800567c:	68f8      	ldr	r0, [r7, #12]
 800567e:	0019      	movs	r1, r3
 8005680:	0022      	movs	r2, r4
 8005682:	f001 f8a7 	bl	80067d4 <stm32__spi__send_8bit_mode>
 8005686:	68fb      	ldr	r3, [r7, #12]
 8005688:	0018      	movs	r0, r3
 800568a:	f7ff fe5f 	bl	800534c <stm32__spi__tx_is_empty>
 800568e:	1e03      	subs	r3, r0, #0
 8005690:	d101      	bne.n	8005696 <stm32__spi__transmit+0xaa>
 8005692:	46c0      	nop			; (mov r8, r8)
 8005694:	e7f7      	b.n	8005686 <stm32__spi__transmit+0x9a>
 8005696:	68fb      	ldr	r3, [r7, #12]
 8005698:	0018      	movs	r0, r3
 800569a:	f7ff fe7f 	bl	800539c <stm32__spi__busy>
 800569e:	0003      	movs	r3, r0
 80056a0:	001a      	movs	r2, r3
 80056a2:	2301      	movs	r3, #1
 80056a4:	4053      	eors	r3, r2
 80056a6:	b2db      	uxtb	r3, r3
 80056a8:	2b00      	cmp	r3, #0
 80056aa:	d101      	bne.n	80056b0 <stm32__spi__transmit+0xc4>
 80056ac:	46c0      	nop			; (mov r8, r8)
 80056ae:	e7f2      	b.n	8005696 <stm32__spi__transmit+0xaa>
 80056b0:	68fb      	ldr	r3, [r7, #12]
 80056b2:	0018      	movs	r0, r3
 80056b4:	f7ff feac 	bl	8005410 <stm32__spi__current_data_direction>
 80056b8:	0003      	movs	r3, r0
 80056ba:	2b01      	cmp	r3, #1
 80056bc:	d001      	beq.n	80056c2 <stm32__spi__transmit+0xd6>
 80056be:	2b00      	cmp	r3, #0
 80056c0:	d103      	bne.n	80056ca <stm32__spi__transmit+0xde>
 80056c2:	68fb      	ldr	r3, [r7, #12]
 80056c4:	0018      	movs	r0, r3
 80056c6:	f7ff ff2d 	bl	8005524 <stm32__spi__clear_overrun>
 80056ca:	2117      	movs	r1, #23
 80056cc:	187b      	adds	r3, r7, r1
 80056ce:	2200      	movs	r2, #0
 80056d0:	701a      	strb	r2, [r3, #0]
 80056d2:	187b      	adds	r3, r7, r1
 80056d4:	781b      	ldrb	r3, [r3, #0]
 80056d6:	46c0      	nop			; (mov r8, r8)
 80056d8:	0018      	movs	r0, r3
 80056da:	46bd      	mov	sp, r7
 80056dc:	b006      	add	sp, #24
 80056de:	bdb0      	pop	{r4, r5, r7, pc}
 80056e0:	08009964 	.word	0x08009964
 80056e4:	08009998 	.word	0x08009998

080056e8 <stm32__spi__transmit__2>:
 80056e8:	b5b0      	push	{r4, r5, r7, lr}
 80056ea:	b086      	sub	sp, #24
 80056ec:	af00      	add	r7, sp, #0
 80056ee:	60f8      	str	r0, [r7, #12]
 80056f0:	6039      	str	r1, [r7, #0]
 80056f2:	607a      	str	r2, [r7, #4]
 80056f4:	60bb      	str	r3, [r7, #8]
 80056f6:	68fb      	ldr	r3, [r7, #12]
 80056f8:	0018      	movs	r0, r3
 80056fa:	f7ff ff5f 	bl	80055bc <stm32__spi__data_size>
 80056fe:	0003      	movs	r3, r0
 8005700:	2b01      	cmp	r3, #1
 8005702:	d007      	beq.n	8005714 <stm32__spi__transmit__2+0x2c>
 8005704:	4b38      	ldr	r3, [pc, #224]	; (80057e8 <stm32__spi__transmit__2+0x100>)
 8005706:	001c      	movs	r4, r3
 8005708:	4b38      	ldr	r3, [pc, #224]	; (80057ec <stm32__spi__transmit__2+0x104>)
 800570a:	001d      	movs	r5, r3
 800570c:	0020      	movs	r0, r4
 800570e:	0029      	movs	r1, r5
 8005710:	f003 fa40 	bl	8008b94 <system__assertions__raise_assert_failure>
 8005714:	68fb      	ldr	r3, [r7, #12]
 8005716:	0018      	movs	r0, r3
 8005718:	f7ff feac 	bl	8005474 <stm32__spi__crc_enabled>
 800571c:	1e03      	subs	r3, r0, #0
 800571e:	d003      	beq.n	8005728 <stm32__spi__transmit__2+0x40>
 8005720:	68fb      	ldr	r3, [r7, #12]
 8005722:	0018      	movs	r0, r3
 8005724:	f7ff ff18 	bl	8005558 <stm32__spi__reset_crc>
 8005728:	68fb      	ldr	r3, [r7, #12]
 800572a:	0018      	movs	r0, r3
 800572c:	f7ff fe70 	bl	8005410 <stm32__spi__current_data_direction>
 8005730:	0003      	movs	r3, r0
 8005732:	2b03      	cmp	r3, #3
 8005734:	d10c      	bne.n	8005750 <stm32__spi__transmit__2+0x68>
 8005736:	68fb      	ldr	r3, [r7, #12]
 8005738:	685b      	ldr	r3, [r3, #4]
 800573a:	881b      	ldrh	r3, [r3, #0]
 800573c:	b29b      	uxth	r3, r3
 800573e:	1c1a      	adds	r2, r3, #0
 8005740:	2380      	movs	r3, #128	; 0x80
 8005742:	01db      	lsls	r3, r3, #7
 8005744:	4313      	orrs	r3, r2
 8005746:	1c1a      	adds	r2, r3, #0
 8005748:	68fb      	ldr	r3, [r7, #12]
 800574a:	685b      	ldr	r3, [r3, #4]
 800574c:	b292      	uxth	r2, r2
 800574e:	801a      	strh	r2, [r3, #0]
 8005750:	68fb      	ldr	r3, [r7, #12]
 8005752:	0018      	movs	r0, r3
 8005754:	f7ff fee6 	bl	8005524 <stm32__spi__clear_overrun>
 8005758:	68fb      	ldr	r3, [r7, #12]
 800575a:	0018      	movs	r0, r3
 800575c:	f7ff fd7a 	bl	8005254 <stm32__spi__enabled>
 8005760:	0003      	movs	r3, r0
 8005762:	001a      	movs	r2, r3
 8005764:	2301      	movs	r3, #1
 8005766:	4053      	eors	r3, r2
 8005768:	b2db      	uxtb	r3, r3
 800576a:	2b00      	cmp	r3, #0
 800576c:	d003      	beq.n	8005776 <stm32__spi__transmit__2+0x8e>
 800576e:	68fb      	ldr	r3, [r7, #12]
 8005770:	0018      	movs	r0, r3
 8005772:	f7ff fd47 	bl	8005204 <stm32__spi__enable>
 8005776:	683b      	ldr	r3, [r7, #0]
 8005778:	687c      	ldr	r4, [r7, #4]
 800577a:	68f8      	ldr	r0, [r7, #12]
 800577c:	0019      	movs	r1, r3
 800577e:	0022      	movs	r2, r4
 8005780:	f000 ff20 	bl	80065c4 <stm32__spi__send_16bit_mode>
 8005784:	68fb      	ldr	r3, [r7, #12]
 8005786:	0018      	movs	r0, r3
 8005788:	f7ff fde0 	bl	800534c <stm32__spi__tx_is_empty>
 800578c:	1e03      	subs	r3, r0, #0
 800578e:	d101      	bne.n	8005794 <stm32__spi__transmit__2+0xac>
 8005790:	46c0      	nop			; (mov r8, r8)
 8005792:	e7f7      	b.n	8005784 <stm32__spi__transmit__2+0x9c>
 8005794:	68fb      	ldr	r3, [r7, #12]
 8005796:	0018      	movs	r0, r3
 8005798:	f7ff fe00 	bl	800539c <stm32__spi__busy>
 800579c:	0003      	movs	r3, r0
 800579e:	001a      	movs	r2, r3
 80057a0:	2301      	movs	r3, #1
 80057a2:	4053      	eors	r3, r2
 80057a4:	b2db      	uxtb	r3, r3
 80057a6:	2b00      	cmp	r3, #0
 80057a8:	d101      	bne.n	80057ae <stm32__spi__transmit__2+0xc6>
 80057aa:	46c0      	nop			; (mov r8, r8)
 80057ac:	e7f2      	b.n	8005794 <stm32__spi__transmit__2+0xac>
 80057ae:	68fb      	ldr	r3, [r7, #12]
 80057b0:	0018      	movs	r0, r3
 80057b2:	f7ff fe2d 	bl	8005410 <stm32__spi__current_data_direction>
 80057b6:	0003      	movs	r3, r0
 80057b8:	2b01      	cmp	r3, #1
 80057ba:	d001      	beq.n	80057c0 <stm32__spi__transmit__2+0xd8>
 80057bc:	2b00      	cmp	r3, #0
 80057be:	d107      	bne.n	80057d0 <stm32__spi__transmit__2+0xe8>
 80057c0:	68fb      	ldr	r3, [r7, #12]
 80057c2:	0018      	movs	r0, r3
 80057c4:	f7ff feae 	bl	8005524 <stm32__spi__clear_overrun>
 80057c8:	2317      	movs	r3, #23
 80057ca:	18fb      	adds	r3, r7, r3
 80057cc:	2201      	movs	r2, #1
 80057ce:	701a      	strb	r2, [r3, #0]
 80057d0:	2117      	movs	r1, #23
 80057d2:	187b      	adds	r3, r7, r1
 80057d4:	2200      	movs	r2, #0
 80057d6:	701a      	strb	r2, [r3, #0]
 80057d8:	187b      	adds	r3, r7, r1
 80057da:	781b      	ldrb	r3, [r3, #0]
 80057dc:	46c0      	nop			; (mov r8, r8)
 80057de:	0018      	movs	r0, r3
 80057e0:	46bd      	mov	sp, r7
 80057e2:	b006      	add	sp, #24
 80057e4:	bdb0      	pop	{r4, r5, r7, pc}
 80057e6:	46c0      	nop			; (mov r8, r8)
 80057e8:	080099a0 	.word	0x080099a0
 80057ec:	08009998 	.word	0x08009998

080057f0 <stm32__spi__transmit__3>:
 80057f0:	b580      	push	{r7, lr}
 80057f2:	b084      	sub	sp, #16
 80057f4:	af00      	add	r7, sp, #0
 80057f6:	6078      	str	r0, [r7, #4]
 80057f8:	000a      	movs	r2, r1
 80057fa:	1cfb      	adds	r3, r7, #3
 80057fc:	701a      	strb	r2, [r3, #0]
 80057fe:	687b      	ldr	r3, [r7, #4]
 8005800:	685b      	ldr	r3, [r3, #4]
 8005802:	330c      	adds	r3, #12
 8005804:	60fb      	str	r3, [r7, #12]
 8005806:	687b      	ldr	r3, [r7, #4]
 8005808:	0018      	movs	r0, r3
 800580a:	f7ff fe33 	bl	8005474 <stm32__spi__crc_enabled>
 800580e:	1e03      	subs	r3, r0, #0
 8005810:	d003      	beq.n	800581a <stm32__spi__transmit__3+0x2a>
 8005812:	687b      	ldr	r3, [r7, #4]
 8005814:	0018      	movs	r0, r3
 8005816:	f7ff fe9f 	bl	8005558 <stm32__spi__reset_crc>
 800581a:	687b      	ldr	r3, [r7, #4]
 800581c:	0018      	movs	r0, r3
 800581e:	f7ff fdf7 	bl	8005410 <stm32__spi__current_data_direction>
 8005822:	0003      	movs	r3, r0
 8005824:	2b03      	cmp	r3, #3
 8005826:	d10c      	bne.n	8005842 <stm32__spi__transmit__3+0x52>
 8005828:	687b      	ldr	r3, [r7, #4]
 800582a:	685b      	ldr	r3, [r3, #4]
 800582c:	881b      	ldrh	r3, [r3, #0]
 800582e:	b29b      	uxth	r3, r3
 8005830:	1c1a      	adds	r2, r3, #0
 8005832:	2380      	movs	r3, #128	; 0x80
 8005834:	01db      	lsls	r3, r3, #7
 8005836:	4313      	orrs	r3, r2
 8005838:	1c1a      	adds	r2, r3, #0
 800583a:	687b      	ldr	r3, [r7, #4]
 800583c:	685b      	ldr	r3, [r3, #4]
 800583e:	b292      	uxth	r2, r2
 8005840:	801a      	strh	r2, [r3, #0]
 8005842:	687b      	ldr	r3, [r7, #4]
 8005844:	0018      	movs	r0, r3
 8005846:	f7ff fd05 	bl	8005254 <stm32__spi__enabled>
 800584a:	0003      	movs	r3, r0
 800584c:	001a      	movs	r2, r3
 800584e:	2301      	movs	r3, #1
 8005850:	4053      	eors	r3, r2
 8005852:	b2db      	uxtb	r3, r3
 8005854:	2b00      	cmp	r3, #0
 8005856:	d003      	beq.n	8005860 <stm32__spi__transmit__3+0x70>
 8005858:	687b      	ldr	r3, [r7, #4]
 800585a:	0018      	movs	r0, r3
 800585c:	f7ff fcd2 	bl	8005204 <stm32__spi__enable>
 8005860:	687b      	ldr	r3, [r7, #4]
 8005862:	685b      	ldr	r3, [r3, #4]
 8005864:	881b      	ldrh	r3, [r3, #0]
 8005866:	b29b      	uxth	r3, r3
 8005868:	041b      	lsls	r3, r3, #16
 800586a:	0e1b      	lsrs	r3, r3, #24
 800586c:	b2db      	uxtb	r3, r3
 800586e:	227f      	movs	r2, #127	; 0x7f
 8005870:	4393      	bics	r3, r2
 8005872:	b2db      	uxtb	r3, r3
 8005874:	2b00      	cmp	r3, #0
 8005876:	d00c      	beq.n	8005892 <stm32__spi__transmit__3+0xa2>
 8005878:	687b      	ldr	r3, [r7, #4]
 800587a:	685b      	ldr	r3, [r3, #4]
 800587c:	881b      	ldrh	r3, [r3, #0]
 800587e:	b29b      	uxth	r3, r3
 8005880:	1c1a      	adds	r2, r3, #0
 8005882:	2380      	movs	r3, #128	; 0x80
 8005884:	01db      	lsls	r3, r3, #7
 8005886:	4313      	orrs	r3, r2
 8005888:	1c1a      	adds	r2, r3, #0
 800588a:	687b      	ldr	r3, [r7, #4]
 800588c:	685b      	ldr	r3, [r3, #4]
 800588e:	b292      	uxth	r2, r2
 8005890:	801a      	strh	r2, [r3, #0]
 8005892:	68fb      	ldr	r3, [r7, #12]
 8005894:	1cfa      	adds	r2, r7, #3
 8005896:	7812      	ldrb	r2, [r2, #0]
 8005898:	701a      	strb	r2, [r3, #0]
 800589a:	687b      	ldr	r3, [r7, #4]
 800589c:	0018      	movs	r0, r3
 800589e:	f7ff fd55 	bl	800534c <stm32__spi__tx_is_empty>
 80058a2:	1e03      	subs	r3, r0, #0
 80058a4:	d101      	bne.n	80058aa <stm32__spi__transmit__3+0xba>
 80058a6:	46c0      	nop			; (mov r8, r8)
 80058a8:	e7f7      	b.n	800589a <stm32__spi__transmit__3+0xaa>
 80058aa:	687b      	ldr	r3, [r7, #4]
 80058ac:	0018      	movs	r0, r3
 80058ae:	f7ff fd75 	bl	800539c <stm32__spi__busy>
 80058b2:	0003      	movs	r3, r0
 80058b4:	001a      	movs	r2, r3
 80058b6:	2301      	movs	r3, #1
 80058b8:	4053      	eors	r3, r2
 80058ba:	b2db      	uxtb	r3, r3
 80058bc:	2b00      	cmp	r3, #0
 80058be:	d101      	bne.n	80058c4 <stm32__spi__transmit__3+0xd4>
 80058c0:	46c0      	nop			; (mov r8, r8)
 80058c2:	e7f2      	b.n	80058aa <stm32__spi__transmit__3+0xba>
 80058c4:	687b      	ldr	r3, [r7, #4]
 80058c6:	0018      	movs	r0, r3
 80058c8:	f7ff fda2 	bl	8005410 <stm32__spi__current_data_direction>
 80058cc:	0003      	movs	r3, r0
 80058ce:	2b01      	cmp	r3, #1
 80058d0:	d001      	beq.n	80058d6 <stm32__spi__transmit__3+0xe6>
 80058d2:	2b00      	cmp	r3, #0
 80058d4:	d103      	bne.n	80058de <stm32__spi__transmit__3+0xee>
 80058d6:	687b      	ldr	r3, [r7, #4]
 80058d8:	0018      	movs	r0, r3
 80058da:	f7ff fe23 	bl	8005524 <stm32__spi__clear_overrun>
 80058de:	46bd      	mov	sp, r7
 80058e0:	b004      	add	sp, #16
 80058e2:	bd80      	pop	{r7, pc}

080058e4 <stm32__spi__receive>:
 80058e4:	b5b0      	push	{r4, r5, r7, lr}
 80058e6:	b086      	sub	sp, #24
 80058e8:	af00      	add	r7, sp, #0
 80058ea:	60f8      	str	r0, [r7, #12]
 80058ec:	6039      	str	r1, [r7, #0]
 80058ee:	607a      	str	r2, [r7, #4]
 80058f0:	60bb      	str	r3, [r7, #8]
 80058f2:	68fb      	ldr	r3, [r7, #12]
 80058f4:	0018      	movs	r0, r3
 80058f6:	f7ff fe61 	bl	80055bc <stm32__spi__data_size>
 80058fa:	1e03      	subs	r3, r0, #0
 80058fc:	d007      	beq.n	800590e <stm32__spi__receive+0x2a>
 80058fe:	4b54      	ldr	r3, [pc, #336]	; (8005a50 <stm32__spi__receive+0x16c>)
 8005900:	001c      	movs	r4, r3
 8005902:	4b54      	ldr	r3, [pc, #336]	; (8005a54 <stm32__spi__receive+0x170>)
 8005904:	001d      	movs	r5, r3
 8005906:	0020      	movs	r0, r4
 8005908:	0029      	movs	r1, r5
 800590a:	f003 f943 	bl	8008b94 <system__assertions__raise_assert_failure>
 800590e:	68fb      	ldr	r3, [r7, #12]
 8005910:	0018      	movs	r0, r3
 8005912:	f7ff fdaf 	bl	8005474 <stm32__spi__crc_enabled>
 8005916:	1e03      	subs	r3, r0, #0
 8005918:	d003      	beq.n	8005922 <stm32__spi__receive+0x3e>
 800591a:	68fb      	ldr	r3, [r7, #12]
 800591c:	0018      	movs	r0, r3
 800591e:	f7ff fe1b 	bl	8005558 <stm32__spi__reset_crc>
 8005922:	68fb      	ldr	r3, [r7, #12]
 8005924:	0018      	movs	r0, r3
 8005926:	f7ff fc95 	bl	8005254 <stm32__spi__enabled>
 800592a:	0003      	movs	r3, r0
 800592c:	001a      	movs	r2, r3
 800592e:	2301      	movs	r3, #1
 8005930:	4053      	eors	r3, r2
 8005932:	b2db      	uxtb	r3, r3
 8005934:	2b00      	cmp	r3, #0
 8005936:	d003      	beq.n	8005940 <stm32__spi__receive+0x5c>
 8005938:	68fb      	ldr	r3, [r7, #12]
 800593a:	0018      	movs	r0, r3
 800593c:	f7ff fc62 	bl	8005204 <stm32__spi__enable>
 8005940:	68fb      	ldr	r3, [r7, #12]
 8005942:	685b      	ldr	r3, [r3, #4]
 8005944:	881b      	ldrh	r3, [r3, #0]
 8005946:	b29b      	uxth	r3, r3
 8005948:	041b      	lsls	r3, r3, #16
 800594a:	0e1b      	lsrs	r3, r3, #24
 800594c:	b2db      	uxtb	r3, r3
 800594e:	227f      	movs	r2, #127	; 0x7f
 8005950:	4393      	bics	r3, r2
 8005952:	b2db      	uxtb	r3, r3
 8005954:	2b00      	cmp	r3, #0
 8005956:	d013      	beq.n	8005980 <stm32__spi__receive+0x9c>
 8005958:	68fb      	ldr	r3, [r7, #12]
 800595a:	0018      	movs	r0, r3
 800595c:	f7ff fc66 	bl	800522c <stm32__spi__disable>
 8005960:	68fb      	ldr	r3, [r7, #12]
 8005962:	685b      	ldr	r3, [r3, #4]
 8005964:	881b      	ldrh	r3, [r3, #0]
 8005966:	b29b      	uxth	r3, r3
 8005968:	1c1a      	adds	r2, r3, #0
 800596a:	4b3b      	ldr	r3, [pc, #236]	; (8005a58 <stm32__spi__receive+0x174>)
 800596c:	4013      	ands	r3, r2
 800596e:	1c1a      	adds	r2, r3, #0
 8005970:	68fb      	ldr	r3, [r7, #12]
 8005972:	685b      	ldr	r3, [r3, #4]
 8005974:	b292      	uxth	r2, r2
 8005976:	801a      	strh	r2, [r3, #0]
 8005978:	68fb      	ldr	r3, [r7, #12]
 800597a:	0018      	movs	r0, r3
 800597c:	f7ff fc42 	bl	8005204 <stm32__spi__enable>
 8005980:	683b      	ldr	r3, [r7, #0]
 8005982:	687c      	ldr	r4, [r7, #4]
 8005984:	68f8      	ldr	r0, [r7, #12]
 8005986:	0019      	movs	r1, r3
 8005988:	0022      	movs	r2, r4
 800598a:	f001 f85b 	bl	8006a44 <stm32__spi__receive_8bit_mode>
 800598e:	68fb      	ldr	r3, [r7, #12]
 8005990:	685b      	ldr	r3, [r3, #4]
 8005992:	881b      	ldrh	r3, [r3, #0]
 8005994:	b29b      	uxth	r3, r3
 8005996:	041b      	lsls	r3, r3, #16
 8005998:	0e1b      	lsrs	r3, r3, #24
 800599a:	b2db      	uxtb	r3, r3
 800599c:	227f      	movs	r2, #127	; 0x7f
 800599e:	4393      	bics	r3, r2
 80059a0:	b2db      	uxtb	r3, r3
 80059a2:	2b00      	cmp	r3, #0
 80059a4:	d024      	beq.n	80059f0 <stm32__spi__receive+0x10c>
 80059a6:	68fb      	ldr	r3, [r7, #12]
 80059a8:	0018      	movs	r0, r3
 80059aa:	f7ff fc3f 	bl	800522c <stm32__spi__disable>
 80059ae:	68fb      	ldr	r3, [r7, #12]
 80059b0:	685b      	ldr	r3, [r3, #4]
 80059b2:	881b      	ldrh	r3, [r3, #0]
 80059b4:	b29b      	uxth	r3, r3
 80059b6:	1c1a      	adds	r2, r3, #0
 80059b8:	2380      	movs	r3, #128	; 0x80
 80059ba:	01db      	lsls	r3, r3, #7
 80059bc:	4313      	orrs	r3, r2
 80059be:	1c1a      	adds	r2, r3, #0
 80059c0:	68fb      	ldr	r3, [r7, #12]
 80059c2:	685b      	ldr	r3, [r3, #4]
 80059c4:	b292      	uxth	r2, r2
 80059c6:	801a      	strh	r2, [r3, #0]
 80059c8:	68fb      	ldr	r3, [r7, #12]
 80059ca:	0018      	movs	r0, r3
 80059cc:	f7ff fc1a 	bl	8005204 <stm32__spi__enable>
 80059d0:	68fb      	ldr	r3, [r7, #12]
 80059d2:	685b      	ldr	r3, [r3, #4]
 80059d4:	330c      	adds	r3, #12
 80059d6:	617b      	str	r3, [r7, #20]
 80059d8:	68fb      	ldr	r3, [r7, #12]
 80059da:	0018      	movs	r0, r3
 80059dc:	f7ff fcc8 	bl	8005370 <stm32__spi__rx_is_empty>
 80059e0:	1e03      	subs	r3, r0, #0
 80059e2:	d105      	bne.n	80059f0 <stm32__spi__receive+0x10c>
 80059e4:	2313      	movs	r3, #19
 80059e6:	18fb      	adds	r3, r7, r3
 80059e8:	697a      	ldr	r2, [r7, #20]
 80059ea:	7812      	ldrb	r2, [r2, #0]
 80059ec:	701a      	strb	r2, [r3, #0]
 80059ee:	e7f3      	b.n	80059d8 <stm32__spi__receive+0xf4>
 80059f0:	68fb      	ldr	r3, [r7, #12]
 80059f2:	0018      	movs	r0, r3
 80059f4:	f7ff fcd2 	bl	800539c <stm32__spi__busy>
 80059f8:	0003      	movs	r3, r0
 80059fa:	001a      	movs	r2, r3
 80059fc:	2301      	movs	r3, #1
 80059fe:	4053      	eors	r3, r2
 8005a00:	b2db      	uxtb	r3, r3
 8005a02:	2b00      	cmp	r3, #0
 8005a04:	d101      	bne.n	8005a0a <stm32__spi__receive+0x126>
 8005a06:	46c0      	nop			; (mov r8, r8)
 8005a08:	e7f2      	b.n	80059f0 <stm32__spi__receive+0x10c>
 8005a0a:	68fb      	ldr	r3, [r7, #12]
 8005a0c:	0018      	movs	r0, r3
 8005a0e:	f7ff fd31 	bl	8005474 <stm32__spi__crc_enabled>
 8005a12:	0003      	movs	r3, r0
 8005a14:	001c      	movs	r4, r3
 8005a16:	68fb      	ldr	r3, [r7, #12]
 8005a18:	0018      	movs	r0, r3
 8005a1a:	f7ff fd3b 	bl	8005494 <stm32__spi__crc_error_indicated>
 8005a1e:	0003      	movs	r3, r0
 8005a20:	4023      	ands	r3, r4
 8005a22:	b2db      	uxtb	r3, r3
 8005a24:	2b00      	cmp	r3, #0
 8005a26:	d007      	beq.n	8005a38 <stm32__spi__receive+0x154>
 8005a28:	68fb      	ldr	r3, [r7, #12]
 8005a2a:	0018      	movs	r0, r3
 8005a2c:	f7ff fd94 	bl	8005558 <stm32__spi__reset_crc>
 8005a30:	2312      	movs	r3, #18
 8005a32:	18fb      	adds	r3, r7, r3
 8005a34:	2201      	movs	r2, #1
 8005a36:	701a      	strb	r2, [r3, #0]
 8005a38:	2112      	movs	r1, #18
 8005a3a:	187b      	adds	r3, r7, r1
 8005a3c:	2200      	movs	r2, #0
 8005a3e:	701a      	strb	r2, [r3, #0]
 8005a40:	187b      	adds	r3, r7, r1
 8005a42:	781b      	ldrb	r3, [r3, #0]
 8005a44:	46c0      	nop			; (mov r8, r8)
 8005a46:	0018      	movs	r0, r3
 8005a48:	46bd      	mov	sp, r7
 8005a4a:	b006      	add	sp, #24
 8005a4c:	bdb0      	pop	{r4, r5, r7, pc}
 8005a4e:	46c0      	nop			; (mov r8, r8)
 8005a50:	080099d4 	.word	0x080099d4
 8005a54:	08009998 	.word	0x08009998
 8005a58:	ffffbfff 	.word	0xffffbfff

08005a5c <stm32__spi__receive__2>:
 8005a5c:	b5b0      	push	{r4, r5, r7, lr}
 8005a5e:	b086      	sub	sp, #24
 8005a60:	af00      	add	r7, sp, #0
 8005a62:	60f8      	str	r0, [r7, #12]
 8005a64:	6039      	str	r1, [r7, #0]
 8005a66:	607a      	str	r2, [r7, #4]
 8005a68:	60bb      	str	r3, [r7, #8]
 8005a6a:	68fb      	ldr	r3, [r7, #12]
 8005a6c:	0018      	movs	r0, r3
 8005a6e:	f7ff fda5 	bl	80055bc <stm32__spi__data_size>
 8005a72:	0003      	movs	r3, r0
 8005a74:	2b01      	cmp	r3, #1
 8005a76:	d007      	beq.n	8005a88 <stm32__spi__receive__2+0x2c>
 8005a78:	4b2b      	ldr	r3, [pc, #172]	; (8005b28 <stm32__spi__receive__2+0xcc>)
 8005a7a:	001c      	movs	r4, r3
 8005a7c:	4b2b      	ldr	r3, [pc, #172]	; (8005b2c <stm32__spi__receive__2+0xd0>)
 8005a7e:	001d      	movs	r5, r3
 8005a80:	0020      	movs	r0, r4
 8005a82:	0029      	movs	r1, r5
 8005a84:	f003 f886 	bl	8008b94 <system__assertions__raise_assert_failure>
 8005a88:	68fb      	ldr	r3, [r7, #12]
 8005a8a:	0018      	movs	r0, r3
 8005a8c:	f7ff fcf2 	bl	8005474 <stm32__spi__crc_enabled>
 8005a90:	1e03      	subs	r3, r0, #0
 8005a92:	d003      	beq.n	8005a9c <stm32__spi__receive__2+0x40>
 8005a94:	68fb      	ldr	r3, [r7, #12]
 8005a96:	0018      	movs	r0, r3
 8005a98:	f7ff fd5e 	bl	8005558 <stm32__spi__reset_crc>
 8005a9c:	68fb      	ldr	r3, [r7, #12]
 8005a9e:	0018      	movs	r0, r3
 8005aa0:	f7ff fbd8 	bl	8005254 <stm32__spi__enabled>
 8005aa4:	0003      	movs	r3, r0
 8005aa6:	001a      	movs	r2, r3
 8005aa8:	2301      	movs	r3, #1
 8005aaa:	4053      	eors	r3, r2
 8005aac:	b2db      	uxtb	r3, r3
 8005aae:	2b00      	cmp	r3, #0
 8005ab0:	d003      	beq.n	8005aba <stm32__spi__receive__2+0x5e>
 8005ab2:	68fb      	ldr	r3, [r7, #12]
 8005ab4:	0018      	movs	r0, r3
 8005ab6:	f7ff fba5 	bl	8005204 <stm32__spi__enable>
 8005aba:	683b      	ldr	r3, [r7, #0]
 8005abc:	687c      	ldr	r4, [r7, #4]
 8005abe:	68f8      	ldr	r0, [r7, #12]
 8005ac0:	0019      	movs	r1, r3
 8005ac2:	0022      	movs	r2, r4
 8005ac4:	f000 ff72 	bl	80069ac <stm32__spi__receive_16bit_mode>
 8005ac8:	68fb      	ldr	r3, [r7, #12]
 8005aca:	0018      	movs	r0, r3
 8005acc:	f7ff fc66 	bl	800539c <stm32__spi__busy>
 8005ad0:	0003      	movs	r3, r0
 8005ad2:	001a      	movs	r2, r3
 8005ad4:	2301      	movs	r3, #1
 8005ad6:	4053      	eors	r3, r2
 8005ad8:	b2db      	uxtb	r3, r3
 8005ada:	2b00      	cmp	r3, #0
 8005adc:	d101      	bne.n	8005ae2 <stm32__spi__receive__2+0x86>
 8005ade:	46c0      	nop			; (mov r8, r8)
 8005ae0:	e7f2      	b.n	8005ac8 <stm32__spi__receive__2+0x6c>
 8005ae2:	68fb      	ldr	r3, [r7, #12]
 8005ae4:	0018      	movs	r0, r3
 8005ae6:	f7ff fcc5 	bl	8005474 <stm32__spi__crc_enabled>
 8005aea:	0003      	movs	r3, r0
 8005aec:	001c      	movs	r4, r3
 8005aee:	68fb      	ldr	r3, [r7, #12]
 8005af0:	0018      	movs	r0, r3
 8005af2:	f7ff fccf 	bl	8005494 <stm32__spi__crc_error_indicated>
 8005af6:	0003      	movs	r3, r0
 8005af8:	4023      	ands	r3, r4
 8005afa:	b2db      	uxtb	r3, r3
 8005afc:	2b00      	cmp	r3, #0
 8005afe:	d007      	beq.n	8005b10 <stm32__spi__receive__2+0xb4>
 8005b00:	68fb      	ldr	r3, [r7, #12]
 8005b02:	0018      	movs	r0, r3
 8005b04:	f7ff fd28 	bl	8005558 <stm32__spi__reset_crc>
 8005b08:	2317      	movs	r3, #23
 8005b0a:	18fb      	adds	r3, r7, r3
 8005b0c:	2201      	movs	r2, #1
 8005b0e:	701a      	strb	r2, [r3, #0]
 8005b10:	2117      	movs	r1, #23
 8005b12:	187b      	adds	r3, r7, r1
 8005b14:	2200      	movs	r2, #0
 8005b16:	701a      	strb	r2, [r3, #0]
 8005b18:	187b      	adds	r3, r7, r1
 8005b1a:	781b      	ldrb	r3, [r3, #0]
 8005b1c:	46c0      	nop			; (mov r8, r8)
 8005b1e:	0018      	movs	r0, r3
 8005b20:	46bd      	mov	sp, r7
 8005b22:	b006      	add	sp, #24
 8005b24:	bdb0      	pop	{r4, r5, r7, pc}
 8005b26:	46c0      	nop			; (mov r8, r8)
 8005b28:	08009a08 	.word	0x08009a08
 8005b2c:	08009998 	.word	0x08009998

08005b30 <stm32__spi__receive__3>:
 8005b30:	b590      	push	{r4, r7, lr}
 8005b32:	b085      	sub	sp, #20
 8005b34:	af00      	add	r7, sp, #0
 8005b36:	6078      	str	r0, [r7, #4]
 8005b38:	687b      	ldr	r3, [r7, #4]
 8005b3a:	685b      	ldr	r3, [r3, #4]
 8005b3c:	330c      	adds	r3, #12
 8005b3e:	60fb      	str	r3, [r7, #12]
 8005b40:	687b      	ldr	r3, [r7, #4]
 8005b42:	0018      	movs	r0, r3
 8005b44:	f7ff fc96 	bl	8005474 <stm32__spi__crc_enabled>
 8005b48:	1e03      	subs	r3, r0, #0
 8005b4a:	d003      	beq.n	8005b54 <stm32__spi__receive__3+0x24>
 8005b4c:	687b      	ldr	r3, [r7, #4]
 8005b4e:	0018      	movs	r0, r3
 8005b50:	f7ff fd02 	bl	8005558 <stm32__spi__reset_crc>
 8005b54:	687b      	ldr	r3, [r7, #4]
 8005b56:	0018      	movs	r0, r3
 8005b58:	f7ff fb7c 	bl	8005254 <stm32__spi__enabled>
 8005b5c:	0003      	movs	r3, r0
 8005b5e:	001a      	movs	r2, r3
 8005b60:	2301      	movs	r3, #1
 8005b62:	4053      	eors	r3, r2
 8005b64:	b2db      	uxtb	r3, r3
 8005b66:	2b00      	cmp	r3, #0
 8005b68:	d003      	beq.n	8005b72 <stm32__spi__receive__3+0x42>
 8005b6a:	687b      	ldr	r3, [r7, #4]
 8005b6c:	0018      	movs	r0, r3
 8005b6e:	f7ff fb49 	bl	8005204 <stm32__spi__enable>
 8005b72:	68fb      	ldr	r3, [r7, #12]
 8005b74:	2200      	movs	r2, #0
 8005b76:	701a      	strb	r2, [r3, #0]
 8005b78:	687b      	ldr	r3, [r7, #4]
 8005b7a:	0018      	movs	r0, r3
 8005b7c:	f7ff fbf8 	bl	8005370 <stm32__spi__rx_is_empty>
 8005b80:	0003      	movs	r3, r0
 8005b82:	001a      	movs	r2, r3
 8005b84:	2301      	movs	r3, #1
 8005b86:	4053      	eors	r3, r2
 8005b88:	b2db      	uxtb	r3, r3
 8005b8a:	2b00      	cmp	r3, #0
 8005b8c:	d101      	bne.n	8005b92 <stm32__spi__receive__3+0x62>
 8005b8e:	46c0      	nop			; (mov r8, r8)
 8005b90:	e7f2      	b.n	8005b78 <stm32__spi__receive__3+0x48>
 8005b92:	68fb      	ldr	r3, [r7, #12]
 8005b94:	781b      	ldrb	r3, [r3, #0]
 8005b96:	b2da      	uxtb	r2, r3
 8005b98:	2309      	movs	r3, #9
 8005b9a:	18fb      	adds	r3, r7, r3
 8005b9c:	701a      	strb	r2, [r3, #0]
 8005b9e:	687b      	ldr	r3, [r7, #4]
 8005ba0:	0018      	movs	r0, r3
 8005ba2:	f7ff fc67 	bl	8005474 <stm32__spi__crc_enabled>
 8005ba6:	1e03      	subs	r3, r0, #0
 8005ba8:	d012      	beq.n	8005bd0 <stm32__spi__receive__3+0xa0>
 8005baa:	687b      	ldr	r3, [r7, #4]
 8005bac:	0018      	movs	r0, r3
 8005bae:	f7ff fbdf 	bl	8005370 <stm32__spi__rx_is_empty>
 8005bb2:	0003      	movs	r3, r0
 8005bb4:	001a      	movs	r2, r3
 8005bb6:	2301      	movs	r3, #1
 8005bb8:	4053      	eors	r3, r2
 8005bba:	b2db      	uxtb	r3, r3
 8005bbc:	2b00      	cmp	r3, #0
 8005bbe:	d101      	bne.n	8005bc4 <stm32__spi__receive__3+0x94>
 8005bc0:	46c0      	nop			; (mov r8, r8)
 8005bc2:	e7f2      	b.n	8005baa <stm32__spi__receive__3+0x7a>
 8005bc4:	687b      	ldr	r3, [r7, #4]
 8005bc6:	685a      	ldr	r2, [r3, #4]
 8005bc8:	230a      	movs	r3, #10
 8005bca:	18fb      	adds	r3, r7, r3
 8005bcc:	8992      	ldrh	r2, [r2, #12]
 8005bce:	801a      	strh	r2, [r3, #0]
 8005bd0:	687b      	ldr	r3, [r7, #4]
 8005bd2:	0018      	movs	r0, r3
 8005bd4:	f7ff fbe2 	bl	800539c <stm32__spi__busy>
 8005bd8:	0003      	movs	r3, r0
 8005bda:	001a      	movs	r2, r3
 8005bdc:	2301      	movs	r3, #1
 8005bde:	4053      	eors	r3, r2
 8005be0:	b2db      	uxtb	r3, r3
 8005be2:	2b00      	cmp	r3, #0
 8005be4:	d101      	bne.n	8005bea <stm32__spi__receive__3+0xba>
 8005be6:	46c0      	nop			; (mov r8, r8)
 8005be8:	e7f2      	b.n	8005bd0 <stm32__spi__receive__3+0xa0>
 8005bea:	687b      	ldr	r3, [r7, #4]
 8005bec:	0018      	movs	r0, r3
 8005bee:	f7ff fc41 	bl	8005474 <stm32__spi__crc_enabled>
 8005bf2:	0003      	movs	r3, r0
 8005bf4:	001c      	movs	r4, r3
 8005bf6:	687b      	ldr	r3, [r7, #4]
 8005bf8:	0018      	movs	r0, r3
 8005bfa:	f7ff fc4b 	bl	8005494 <stm32__spi__crc_error_indicated>
 8005bfe:	0003      	movs	r3, r0
 8005c00:	4023      	ands	r3, r4
 8005c02:	b2db      	uxtb	r3, r3
 8005c04:	2b00      	cmp	r3, #0
 8005c06:	d003      	beq.n	8005c10 <stm32__spi__receive__3+0xe0>
 8005c08:	687b      	ldr	r3, [r7, #4]
 8005c0a:	0018      	movs	r0, r3
 8005c0c:	f7ff fca4 	bl	8005558 <stm32__spi__reset_crc>
 8005c10:	2309      	movs	r3, #9
 8005c12:	18fb      	adds	r3, r7, r3
 8005c14:	781b      	ldrb	r3, [r3, #0]
 8005c16:	46c0      	nop			; (mov r8, r8)
 8005c18:	0018      	movs	r0, r3
 8005c1a:	46bd      	mov	sp, r7
 8005c1c:	b005      	add	sp, #20
 8005c1e:	bd90      	pop	{r4, r7, pc}

08005c20 <stm32__spi__transmit_receive__2>:
 8005c20:	b082      	sub	sp, #8
 8005c22:	b5f0      	push	{r4, r5, r6, r7, lr}
 8005c24:	b091      	sub	sp, #68	; 0x44
 8005c26:	af02      	add	r7, sp, #8
 8005c28:	61f8      	str	r0, [r7, #28]
 8005c2a:	6139      	str	r1, [r7, #16]
 8005c2c:	617a      	str	r2, [r7, #20]
 8005c2e:	657b      	str	r3, [r7, #84]	; 0x54
 8005c30:	2308      	movs	r3, #8
 8005c32:	18f9      	adds	r1, r7, r3
 8005c34:	2304      	movs	r3, #4
 8005c36:	2250      	movs	r2, #80	; 0x50
 8005c38:	18ba      	adds	r2, r7, r2
 8005c3a:	18d2      	adds	r2, r2, r3
 8005c3c:	000b      	movs	r3, r1
 8005c3e:	ca03      	ldmia	r2!, {r0, r1}
 8005c40:	c303      	stmia	r3!, {r0, r1}
 8005c42:	697b      	ldr	r3, [r7, #20]
 8005c44:	681b      	ldr	r3, [r3, #0]
 8005c46:	697a      	ldr	r2, [r7, #20]
 8005c48:	6852      	ldr	r2, [r2, #4]
 8005c4a:	68f9      	ldr	r1, [r7, #12]
 8005c4c:	6809      	ldr	r1, [r1, #0]
 8005c4e:	6379      	str	r1, [r7, #52]	; 0x34
 8005c50:	68f9      	ldr	r1, [r7, #12]
 8005c52:	6848      	ldr	r0, [r1, #4]
 8005c54:	68f9      	ldr	r1, [r7, #12]
 8005c56:	6809      	ldr	r1, [r1, #0]
 8005c58:	4288      	cmp	r0, r1
 8005c5a:	db03      	blt.n	8005c64 <stm32__spi__transmit_receive__2+0x44>
 8005c5c:	68f9      	ldr	r1, [r7, #12]
 8005c5e:	6849      	ldr	r1, [r1, #4]
 8005c60:	6339      	str	r1, [r7, #48]	; 0x30
 8005c62:	e003      	b.n	8005c6c <stm32__spi__transmit_receive__2+0x4c>
 8005c64:	68f9      	ldr	r1, [r7, #12]
 8005c66:	6809      	ldr	r1, [r1, #0]
 8005c68:	3901      	subs	r1, #1
 8005c6a:	6339      	str	r1, [r7, #48]	; 0x30
 8005c6c:	62fb      	str	r3, [r7, #44]	; 0x2c
 8005c6e:	429a      	cmp	r2, r3
 8005c70:	db01      	blt.n	8005c76 <stm32__spi__transmit_receive__2+0x56>
 8005c72:	62ba      	str	r2, [r7, #40]	; 0x28
 8005c74:	e001      	b.n	8005c7a <stm32__spi__transmit_receive__2+0x5a>
 8005c76:	3b01      	subs	r3, #1
 8005c78:	62bb      	str	r3, [r7, #40]	; 0x28
 8005c7a:	69fb      	ldr	r3, [r7, #28]
 8005c7c:	0018      	movs	r0, r3
 8005c7e:	f7ff fbf9 	bl	8005474 <stm32__spi__crc_enabled>
 8005c82:	1e03      	subs	r3, r0, #0
 8005c84:	d003      	beq.n	8005c8e <stm32__spi__transmit_receive__2+0x6e>
 8005c86:	69fb      	ldr	r3, [r7, #28]
 8005c88:	0018      	movs	r0, r3
 8005c8a:	f7ff fc65 	bl	8005558 <stm32__spi__reset_crc>
 8005c8e:	69fb      	ldr	r3, [r7, #28]
 8005c90:	0018      	movs	r0, r3
 8005c92:	f7ff fadf 	bl	8005254 <stm32__spi__enabled>
 8005c96:	0003      	movs	r3, r0
 8005c98:	001a      	movs	r2, r3
 8005c9a:	2301      	movs	r3, #1
 8005c9c:	4053      	eors	r3, r2
 8005c9e:	b2db      	uxtb	r3, r3
 8005ca0:	2b00      	cmp	r3, #0
 8005ca2:	d003      	beq.n	8005cac <stm32__spi__transmit_receive__2+0x8c>
 8005ca4:	69fb      	ldr	r3, [r7, #28]
 8005ca6:	0018      	movs	r0, r3
 8005ca8:	f7ff faac 	bl	8005204 <stm32__spi__enable>
 8005cac:	69fb      	ldr	r3, [r7, #28]
 8005cae:	0018      	movs	r0, r3
 8005cb0:	f7ff fc74 	bl	800559c <stm32__spi__is_data_frame_16bit>
 8005cb4:	1e03      	subs	r3, r0, #0
 8005cb6:	d010      	beq.n	8005cda <stm32__spi__transmit_receive__2+0xba>
 8005cb8:	68bb      	ldr	r3, [r7, #8]
 8005cba:	68fc      	ldr	r4, [r7, #12]
 8005cbc:	6939      	ldr	r1, [r7, #16]
 8005cbe:	697a      	ldr	r2, [r7, #20]
 8005cc0:	69fe      	ldr	r6, [r7, #28]
 8005cc2:	6df8      	ldr	r0, [r7, #92]	; 0x5c
 8005cc4:	9001      	str	r0, [sp, #4]
 8005cc6:	603b      	str	r3, [r7, #0]
 8005cc8:	607c      	str	r4, [r7, #4]
 8005cca:	1d38      	adds	r0, r7, #4
 8005ccc:	466d      	mov	r5, sp
 8005cce:	6800      	ldr	r0, [r0, #0]
 8005cd0:	6028      	str	r0, [r5, #0]
 8005cd2:	0030      	movs	r0, r6
 8005cd4:	f000 f8ee 	bl	8005eb4 <stm32__spi__send_receive_16bit_mode>
 8005cd8:	e00f      	b.n	8005cfa <stm32__spi__transmit_receive__2+0xda>
 8005cda:	68bb      	ldr	r3, [r7, #8]
 8005cdc:	68fc      	ldr	r4, [r7, #12]
 8005cde:	6939      	ldr	r1, [r7, #16]
 8005ce0:	697a      	ldr	r2, [r7, #20]
 8005ce2:	69fe      	ldr	r6, [r7, #28]
 8005ce4:	6df8      	ldr	r0, [r7, #92]	; 0x5c
 8005ce6:	9001      	str	r0, [sp, #4]
 8005ce8:	603b      	str	r3, [r7, #0]
 8005cea:	607c      	str	r4, [r7, #4]
 8005cec:	1d38      	adds	r0, r7, #4
 8005cee:	466d      	mov	r5, sp
 8005cf0:	6800      	ldr	r0, [r0, #0]
 8005cf2:	6028      	str	r0, [r5, #0]
 8005cf4:	0030      	movs	r0, r6
 8005cf6:	f000 fab9 	bl	800626c <stm32__spi__send_receive_8bit_mode>
 8005cfa:	69fb      	ldr	r3, [r7, #28]
 8005cfc:	0018      	movs	r0, r3
 8005cfe:	f7ff fbb9 	bl	8005474 <stm32__spi__crc_enabled>
 8005d02:	1e03      	subs	r3, r0, #0
 8005d04:	d012      	beq.n	8005d2c <stm32__spi__transmit_receive__2+0x10c>
 8005d06:	69fb      	ldr	r3, [r7, #28]
 8005d08:	0018      	movs	r0, r3
 8005d0a:	f7ff fb31 	bl	8005370 <stm32__spi__rx_is_empty>
 8005d0e:	0003      	movs	r3, r0
 8005d10:	001a      	movs	r2, r3
 8005d12:	2301      	movs	r3, #1
 8005d14:	4053      	eors	r3, r2
 8005d16:	b2db      	uxtb	r3, r3
 8005d18:	2b00      	cmp	r3, #0
 8005d1a:	d101      	bne.n	8005d20 <stm32__spi__transmit_receive__2+0x100>
 8005d1c:	46c0      	nop			; (mov r8, r8)
 8005d1e:	e7f2      	b.n	8005d06 <stm32__spi__transmit_receive__2+0xe6>
 8005d20:	69fb      	ldr	r3, [r7, #28]
 8005d22:	685a      	ldr	r2, [r3, #4]
 8005d24:	2326      	movs	r3, #38	; 0x26
 8005d26:	18fb      	adds	r3, r7, r3
 8005d28:	8992      	ldrh	r2, [r2, #12]
 8005d2a:	801a      	strh	r2, [r3, #0]
 8005d2c:	69fb      	ldr	r3, [r7, #28]
 8005d2e:	0018      	movs	r0, r3
 8005d30:	f7ff fb34 	bl	800539c <stm32__spi__busy>
 8005d34:	0003      	movs	r3, r0
 8005d36:	001a      	movs	r2, r3
 8005d38:	2301      	movs	r3, #1
 8005d3a:	4053      	eors	r3, r2
 8005d3c:	b2db      	uxtb	r3, r3
 8005d3e:	2b00      	cmp	r3, #0
 8005d40:	d101      	bne.n	8005d46 <stm32__spi__transmit_receive__2+0x126>
 8005d42:	46c0      	nop			; (mov r8, r8)
 8005d44:	e7f2      	b.n	8005d2c <stm32__spi__transmit_receive__2+0x10c>
 8005d46:	69fb      	ldr	r3, [r7, #28]
 8005d48:	0018      	movs	r0, r3
 8005d4a:	f7ff fb93 	bl	8005474 <stm32__spi__crc_enabled>
 8005d4e:	0003      	movs	r3, r0
 8005d50:	001c      	movs	r4, r3
 8005d52:	69fb      	ldr	r3, [r7, #28]
 8005d54:	0018      	movs	r0, r3
 8005d56:	f7ff fb9d 	bl	8005494 <stm32__spi__crc_error_indicated>
 8005d5a:	0003      	movs	r3, r0
 8005d5c:	4023      	ands	r3, r4
 8005d5e:	b2db      	uxtb	r3, r3
 8005d60:	2b00      	cmp	r3, #0
 8005d62:	d003      	beq.n	8005d6c <stm32__spi__transmit_receive__2+0x14c>
 8005d64:	69fb      	ldr	r3, [r7, #28]
 8005d66:	0018      	movs	r0, r3
 8005d68:	f7ff fbf6 	bl	8005558 <stm32__spi__reset_crc>
 8005d6c:	46bd      	mov	sp, r7
 8005d6e:	b00f      	add	sp, #60	; 0x3c
 8005d70:	bcf0      	pop	{r4, r5, r6, r7}
 8005d72:	bc08      	pop	{r3}
 8005d74:	b002      	add	sp, #8
 8005d76:	4718      	bx	r3

08005d78 <stm32__spi__transmit_receive__3>:
 8005d78:	b590      	push	{r4, r7, lr}
 8005d7a:	b085      	sub	sp, #20
 8005d7c:	af00      	add	r7, sp, #0
 8005d7e:	6078      	str	r0, [r7, #4]
 8005d80:	000a      	movs	r2, r1
 8005d82:	1cfb      	adds	r3, r7, #3
 8005d84:	701a      	strb	r2, [r3, #0]
 8005d86:	687b      	ldr	r3, [r7, #4]
 8005d88:	685b      	ldr	r3, [r3, #4]
 8005d8a:	330c      	adds	r3, #12
 8005d8c:	60fb      	str	r3, [r7, #12]
 8005d8e:	687b      	ldr	r3, [r7, #4]
 8005d90:	0018      	movs	r0, r3
 8005d92:	f7ff fb6f 	bl	8005474 <stm32__spi__crc_enabled>
 8005d96:	1e03      	subs	r3, r0, #0
 8005d98:	d003      	beq.n	8005da2 <stm32__spi__transmit_receive__3+0x2a>
 8005d9a:	687b      	ldr	r3, [r7, #4]
 8005d9c:	0018      	movs	r0, r3
 8005d9e:	f7ff fbdb 	bl	8005558 <stm32__spi__reset_crc>
 8005da2:	687b      	ldr	r3, [r7, #4]
 8005da4:	0018      	movs	r0, r3
 8005da6:	f7ff fa55 	bl	8005254 <stm32__spi__enabled>
 8005daa:	0003      	movs	r3, r0
 8005dac:	001a      	movs	r2, r3
 8005dae:	2301      	movs	r3, #1
 8005db0:	4053      	eors	r3, r2
 8005db2:	b2db      	uxtb	r3, r3
 8005db4:	2b00      	cmp	r3, #0
 8005db6:	d003      	beq.n	8005dc0 <stm32__spi__transmit_receive__3+0x48>
 8005db8:	687b      	ldr	r3, [r7, #4]
 8005dba:	0018      	movs	r0, r3
 8005dbc:	f7ff fa22 	bl	8005204 <stm32__spi__enable>
 8005dc0:	687b      	ldr	r3, [r7, #4]
 8005dc2:	0018      	movs	r0, r3
 8005dc4:	f7ff fbea 	bl	800559c <stm32__spi__is_data_frame_16bit>
 8005dc8:	1e03      	subs	r3, r0, #0
 8005dca:	d006      	beq.n	8005dda <stm32__spi__transmit_receive__3+0x62>
 8005dcc:	23b1      	movs	r3, #177	; 0xb1
 8005dce:	009a      	lsls	r2, r3, #2
 8005dd0:	4b37      	ldr	r3, [pc, #220]	; (8005eb0 <stm32__spi__transmit_receive__3+0x138>)
 8005dd2:	0011      	movs	r1, r2
 8005dd4:	0018      	movs	r0, r3
 8005dd6:	f002 fc8f 	bl	80086f8 <__gnat_last_chance_handler>
 8005dda:	68fb      	ldr	r3, [r7, #12]
 8005ddc:	1cfa      	adds	r2, r7, #3
 8005dde:	7812      	ldrb	r2, [r2, #0]
 8005de0:	701a      	strb	r2, [r3, #0]
 8005de2:	687b      	ldr	r3, [r7, #4]
 8005de4:	0018      	movs	r0, r3
 8005de6:	f7ff fb45 	bl	8005474 <stm32__spi__crc_enabled>
 8005dea:	1e03      	subs	r3, r0, #0
 8005dec:	d00c      	beq.n	8005e08 <stm32__spi__transmit_receive__3+0x90>
 8005dee:	687b      	ldr	r3, [r7, #4]
 8005df0:	685b      	ldr	r3, [r3, #4]
 8005df2:	881b      	ldrh	r3, [r3, #0]
 8005df4:	b29b      	uxth	r3, r3
 8005df6:	1c1a      	adds	r2, r3, #0
 8005df8:	2380      	movs	r3, #128	; 0x80
 8005dfa:	015b      	lsls	r3, r3, #5
 8005dfc:	4313      	orrs	r3, r2
 8005dfe:	1c1a      	adds	r2, r3, #0
 8005e00:	687b      	ldr	r3, [r7, #4]
 8005e02:	685b      	ldr	r3, [r3, #4]
 8005e04:	b292      	uxth	r2, r2
 8005e06:	801a      	strh	r2, [r3, #0]
 8005e08:	687b      	ldr	r3, [r7, #4]
 8005e0a:	0018      	movs	r0, r3
 8005e0c:	f7ff fab0 	bl	8005370 <stm32__spi__rx_is_empty>
 8005e10:	0003      	movs	r3, r0
 8005e12:	001a      	movs	r2, r3
 8005e14:	2301      	movs	r3, #1
 8005e16:	4053      	eors	r3, r2
 8005e18:	b2db      	uxtb	r3, r3
 8005e1a:	2b00      	cmp	r3, #0
 8005e1c:	d101      	bne.n	8005e22 <stm32__spi__transmit_receive__3+0xaa>
 8005e1e:	46c0      	nop			; (mov r8, r8)
 8005e20:	e7f2      	b.n	8005e08 <stm32__spi__transmit_receive__3+0x90>
 8005e22:	68fb      	ldr	r3, [r7, #12]
 8005e24:	781b      	ldrb	r3, [r3, #0]
 8005e26:	b2da      	uxtb	r2, r3
 8005e28:	2309      	movs	r3, #9
 8005e2a:	18fb      	adds	r3, r7, r3
 8005e2c:	701a      	strb	r2, [r3, #0]
 8005e2e:	687b      	ldr	r3, [r7, #4]
 8005e30:	0018      	movs	r0, r3
 8005e32:	f7ff fb1f 	bl	8005474 <stm32__spi__crc_enabled>
 8005e36:	1e03      	subs	r3, r0, #0
 8005e38:	d012      	beq.n	8005e60 <stm32__spi__transmit_receive__3+0xe8>
 8005e3a:	687b      	ldr	r3, [r7, #4]
 8005e3c:	0018      	movs	r0, r3
 8005e3e:	f7ff fa97 	bl	8005370 <stm32__spi__rx_is_empty>
 8005e42:	0003      	movs	r3, r0
 8005e44:	001a      	movs	r2, r3
 8005e46:	2301      	movs	r3, #1
 8005e48:	4053      	eors	r3, r2
 8005e4a:	b2db      	uxtb	r3, r3
 8005e4c:	2b00      	cmp	r3, #0
 8005e4e:	d101      	bne.n	8005e54 <stm32__spi__transmit_receive__3+0xdc>
 8005e50:	46c0      	nop			; (mov r8, r8)
 8005e52:	e7f2      	b.n	8005e3a <stm32__spi__transmit_receive__3+0xc2>
 8005e54:	687b      	ldr	r3, [r7, #4]
 8005e56:	685a      	ldr	r2, [r3, #4]
 8005e58:	230a      	movs	r3, #10
 8005e5a:	18fb      	adds	r3, r7, r3
 8005e5c:	8992      	ldrh	r2, [r2, #12]
 8005e5e:	801a      	strh	r2, [r3, #0]
 8005e60:	687b      	ldr	r3, [r7, #4]
 8005e62:	0018      	movs	r0, r3
 8005e64:	f7ff fa9a 	bl	800539c <stm32__spi__busy>
 8005e68:	0003      	movs	r3, r0
 8005e6a:	001a      	movs	r2, r3
 8005e6c:	2301      	movs	r3, #1
 8005e6e:	4053      	eors	r3, r2
 8005e70:	b2db      	uxtb	r3, r3
 8005e72:	2b00      	cmp	r3, #0
 8005e74:	d101      	bne.n	8005e7a <stm32__spi__transmit_receive__3+0x102>
 8005e76:	46c0      	nop			; (mov r8, r8)
 8005e78:	e7f2      	b.n	8005e60 <stm32__spi__transmit_receive__3+0xe8>
 8005e7a:	687b      	ldr	r3, [r7, #4]
 8005e7c:	0018      	movs	r0, r3
 8005e7e:	f7ff faf9 	bl	8005474 <stm32__spi__crc_enabled>
 8005e82:	0003      	movs	r3, r0
 8005e84:	001c      	movs	r4, r3
 8005e86:	687b      	ldr	r3, [r7, #4]
 8005e88:	0018      	movs	r0, r3
 8005e8a:	f7ff fb03 	bl	8005494 <stm32__spi__crc_error_indicated>
 8005e8e:	0003      	movs	r3, r0
 8005e90:	4023      	ands	r3, r4
 8005e92:	b2db      	uxtb	r3, r3
 8005e94:	2b00      	cmp	r3, #0
 8005e96:	d003      	beq.n	8005ea0 <stm32__spi__transmit_receive__3+0x128>
 8005e98:	687b      	ldr	r3, [r7, #4]
 8005e9a:	0018      	movs	r0, r3
 8005e9c:	f7ff fb5c 	bl	8005558 <stm32__spi__reset_crc>
 8005ea0:	2309      	movs	r3, #9
 8005ea2:	18fb      	adds	r3, r7, r3
 8005ea4:	781b      	ldrb	r3, [r3, #0]
 8005ea6:	46c0      	nop			; (mov r8, r8)
 8005ea8:	0018      	movs	r0, r3
 8005eaa:	46bd      	mov	sp, r7
 8005eac:	b005      	add	sp, #20
 8005eae:	bd90      	pop	{r4, r7, pc}
 8005eb0:	08009954 	.word	0x08009954

08005eb4 <stm32__spi__send_receive_16bit_mode>:
 8005eb4:	b082      	sub	sp, #8
 8005eb6:	b5f0      	push	{r4, r5, r6, r7, lr}
 8005eb8:	b08f      	sub	sp, #60	; 0x3c
 8005eba:	af00      	add	r7, sp, #0
 8005ebc:	6178      	str	r0, [r7, #20]
 8005ebe:	60b9      	str	r1, [r7, #8]
 8005ec0:	60fa      	str	r2, [r7, #12]
 8005ec2:	657b      	str	r3, [r7, #84]	; 0x54
 8005ec4:	0039      	movs	r1, r7
 8005ec6:	2304      	movs	r3, #4
 8005ec8:	2250      	movs	r2, #80	; 0x50
 8005eca:	18ba      	adds	r2, r7, r2
 8005ecc:	18d2      	adds	r2, r2, r3
 8005ece:	000b      	movs	r3, r1
 8005ed0:	ca03      	ldmia	r2!, {r0, r1}
 8005ed2:	c303      	stmia	r3!, {r0, r1}
 8005ed4:	68fb      	ldr	r3, [r7, #12]
 8005ed6:	681c      	ldr	r4, [r3, #0]
 8005ed8:	68fb      	ldr	r3, [r7, #12]
 8005eda:	685d      	ldr	r5, [r3, #4]
 8005edc:	687b      	ldr	r3, [r7, #4]
 8005ede:	681b      	ldr	r3, [r3, #0]
 8005ee0:	62bb      	str	r3, [r7, #40]	; 0x28
 8005ee2:	687b      	ldr	r3, [r7, #4]
 8005ee4:	685a      	ldr	r2, [r3, #4]
 8005ee6:	687b      	ldr	r3, [r7, #4]
 8005ee8:	681b      	ldr	r3, [r3, #0]
 8005eea:	429a      	cmp	r2, r3
 8005eec:	db03      	blt.n	8005ef6 <stm32__spi__send_receive_16bit_mode+0x42>
 8005eee:	687b      	ldr	r3, [r7, #4]
 8005ef0:	685b      	ldr	r3, [r3, #4]
 8005ef2:	627b      	str	r3, [r7, #36]	; 0x24
 8005ef4:	e003      	b.n	8005efe <stm32__spi__send_receive_16bit_mode+0x4a>
 8005ef6:	687b      	ldr	r3, [r7, #4]
 8005ef8:	681b      	ldr	r3, [r3, #0]
 8005efa:	3b01      	subs	r3, #1
 8005efc:	627b      	str	r3, [r7, #36]	; 0x24
 8005efe:	623c      	str	r4, [r7, #32]
 8005f00:	42a5      	cmp	r5, r4
 8005f02:	db01      	blt.n	8005f08 <stm32__spi__send_receive_16bit_mode+0x54>
 8005f04:	61fd      	str	r5, [r7, #28]
 8005f06:	e002      	b.n	8005f0e <stm32__spi__send_receive_16bit_mode+0x5a>
 8005f08:	0023      	movs	r3, r4
 8005f0a:	3b01      	subs	r3, #1
 8005f0c:	61fb      	str	r3, [r7, #28]
 8005f0e:	6dfb      	ldr	r3, [r7, #92]	; 0x5c
 8005f10:	633b      	str	r3, [r7, #48]	; 0x30
 8005f12:	2c00      	cmp	r4, #0
 8005f14:	da05      	bge.n	8005f22 <stm32__spi__send_receive_16bit_mode+0x6e>
 8005f16:	4ac9      	ldr	r2, [pc, #804]	; (800623c <stm32__spi__send_receive_16bit_mode+0x388>)
 8005f18:	4bc9      	ldr	r3, [pc, #804]	; (8006240 <stm32__spi__send_receive_16bit_mode+0x38c>)
 8005f1a:	0011      	movs	r1, r2
 8005f1c:	0018      	movs	r0, r3
 8005f1e:	f002 fbeb 	bl	80086f8 <__gnat_last_chance_handler>
 8005f22:	637c      	str	r4, [r7, #52]	; 0x34
 8005f24:	687b      	ldr	r3, [r7, #4]
 8005f26:	681b      	ldr	r3, [r3, #0]
 8005f28:	2b00      	cmp	r3, #0
 8005f2a:	da05      	bge.n	8005f38 <stm32__spi__send_receive_16bit_mode+0x84>
 8005f2c:	4ac5      	ldr	r2, [pc, #788]	; (8006244 <stm32__spi__send_receive_16bit_mode+0x390>)
 8005f2e:	4bc4      	ldr	r3, [pc, #784]	; (8006240 <stm32__spi__send_receive_16bit_mode+0x38c>)
 8005f30:	0011      	movs	r1, r2
 8005f32:	0018      	movs	r0, r3
 8005f34:	f002 fbe0 	bl	80086f8 <__gnat_last_chance_handler>
 8005f38:	687b      	ldr	r3, [r7, #4]
 8005f3a:	681b      	ldr	r3, [r3, #0]
 8005f3c:	62fb      	str	r3, [r7, #44]	; 0x2c
 8005f3e:	697b      	ldr	r3, [r7, #20]
 8005f40:	0018      	movs	r0, r3
 8005f42:	f7ff fa3d 	bl	80053c0 <stm32__spi__current_mode>
 8005f46:	0003      	movs	r3, r0
 8005f48:	3b01      	subs	r3, #1
 8005f4a:	425a      	negs	r2, r3
 8005f4c:	4153      	adcs	r3, r2
 8005f4e:	b2db      	uxtb	r3, r3
 8005f50:	2b00      	cmp	r3, #0
 8005f52:	d102      	bne.n	8005f5a <stm32__spi__send_receive_16bit_mode+0xa6>
 8005f54:	6b3b      	ldr	r3, [r7, #48]	; 0x30
 8005f56:	2b01      	cmp	r3, #1
 8005f58:	d13a      	bne.n	8005fd0 <stm32__spi__send_receive_16bit_mode+0x11c>
 8005f5a:	6b7b      	ldr	r3, [r7, #52]	; 0x34
 8005f5c:	429c      	cmp	r4, r3
 8005f5e:	dc02      	bgt.n	8005f66 <stm32__spi__send_receive_16bit_mode+0xb2>
 8005f60:	6b7b      	ldr	r3, [r7, #52]	; 0x34
 8005f62:	429d      	cmp	r5, r3
 8005f64:	da05      	bge.n	8005f72 <stm32__spi__send_receive_16bit_mode+0xbe>
 8005f66:	4ab8      	ldr	r2, [pc, #736]	; (8006248 <stm32__spi__send_receive_16bit_mode+0x394>)
 8005f68:	4bb5      	ldr	r3, [pc, #724]	; (8006240 <stm32__spi__send_receive_16bit_mode+0x38c>)
 8005f6a:	0011      	movs	r1, r2
 8005f6c:	0018      	movs	r0, r3
 8005f6e:	f002 fbc3 	bl	80086f8 <__gnat_last_chance_handler>
 8005f72:	68ba      	ldr	r2, [r7, #8]
 8005f74:	6b7b      	ldr	r3, [r7, #52]	; 0x34
 8005f76:	0021      	movs	r1, r4
 8005f78:	1a5b      	subs	r3, r3, r1
 8005f7a:	18d3      	adds	r3, r2, r3
 8005f7c:	2b00      	cmp	r3, #0
 8005f7e:	d105      	bne.n	8005f8c <stm32__spi__send_receive_16bit_mode+0xd8>
 8005f80:	4ab1      	ldr	r2, [pc, #708]	; (8006248 <stm32__spi__send_receive_16bit_mode+0x394>)
 8005f82:	4baf      	ldr	r3, [pc, #700]	; (8006240 <stm32__spi__send_receive_16bit_mode+0x38c>)
 8005f84:	0011      	movs	r1, r2
 8005f86:	0018      	movs	r0, r3
 8005f88:	f002 fbb6 	bl	80086f8 <__gnat_last_chance_handler>
 8005f8c:	68ba      	ldr	r2, [r7, #8]
 8005f8e:	6b7b      	ldr	r3, [r7, #52]	; 0x34
 8005f90:	0021      	movs	r1, r4
 8005f92:	1a5b      	subs	r3, r3, r1
 8005f94:	18d2      	adds	r2, r2, r3
 8005f96:	697b      	ldr	r3, [r7, #20]
 8005f98:	685b      	ldr	r3, [r3, #4]
 8005f9a:	8812      	ldrh	r2, [r2, #0]
 8005f9c:	819a      	strh	r2, [r3, #12]
 8005f9e:	6b7b      	ldr	r3, [r7, #52]	; 0x34
 8005fa0:	4aaa      	ldr	r2, [pc, #680]	; (800624c <stm32__spi__send_receive_16bit_mode+0x398>)
 8005fa2:	4293      	cmp	r3, r2
 8005fa4:	dd06      	ble.n	8005fb4 <stm32__spi__send_receive_16bit_mode+0x100>
 8005fa6:	23bf      	movs	r3, #191	; 0xbf
 8005fa8:	009a      	lsls	r2, r3, #2
 8005faa:	4ba5      	ldr	r3, [pc, #660]	; (8006240 <stm32__spi__send_receive_16bit_mode+0x38c>)
 8005fac:	0011      	movs	r1, r2
 8005fae:	0018      	movs	r0, r3
 8005fb0:	f002 fba2 	bl	80086f8 <__gnat_last_chance_handler>
 8005fb4:	6b7b      	ldr	r3, [r7, #52]	; 0x34
 8005fb6:	3302      	adds	r3, #2
 8005fb8:	637b      	str	r3, [r7, #52]	; 0x34
 8005fba:	6b3b      	ldr	r3, [r7, #48]	; 0x30
 8005fbc:	3b01      	subs	r3, #1
 8005fbe:	2b00      	cmp	r3, #0
 8005fc0:	da05      	bge.n	8005fce <stm32__spi__send_receive_16bit_mode+0x11a>
 8005fc2:	4aa3      	ldr	r2, [pc, #652]	; (8006250 <stm32__spi__send_receive_16bit_mode+0x39c>)
 8005fc4:	4b9e      	ldr	r3, [pc, #632]	; (8006240 <stm32__spi__send_receive_16bit_mode+0x38c>)
 8005fc6:	0011      	movs	r1, r2
 8005fc8:	0018      	movs	r0, r3
 8005fca:	f002 fb95 	bl	80086f8 <__gnat_last_chance_handler>
 8005fce:	633b      	str	r3, [r7, #48]	; 0x30
 8005fd0:	6b3b      	ldr	r3, [r7, #48]	; 0x30
 8005fd2:	2b00      	cmp	r3, #0
 8005fd4:	d14b      	bne.n	800606e <stm32__spi__send_receive_16bit_mode+0x1ba>
 8005fd6:	697b      	ldr	r3, [r7, #20]
 8005fd8:	0018      	movs	r0, r3
 8005fda:	f7ff fa4b 	bl	8005474 <stm32__spi__crc_enabled>
 8005fde:	1e03      	subs	r3, r0, #0
 8005fe0:	d00c      	beq.n	8005ffc <stm32__spi__send_receive_16bit_mode+0x148>
 8005fe2:	697b      	ldr	r3, [r7, #20]
 8005fe4:	685b      	ldr	r3, [r3, #4]
 8005fe6:	881b      	ldrh	r3, [r3, #0]
 8005fe8:	b29b      	uxth	r3, r3
 8005fea:	1c1a      	adds	r2, r3, #0
 8005fec:	2380      	movs	r3, #128	; 0x80
 8005fee:	015b      	lsls	r3, r3, #5
 8005ff0:	4313      	orrs	r3, r2
 8005ff2:	1c1a      	adds	r2, r3, #0
 8005ff4:	697b      	ldr	r3, [r7, #20]
 8005ff6:	685b      	ldr	r3, [r3, #4]
 8005ff8:	b292      	uxth	r2, r2
 8005ffa:	801a      	strh	r2, [r3, #0]
 8005ffc:	697b      	ldr	r3, [r7, #20]
 8005ffe:	0018      	movs	r0, r3
 8006000:	f7ff f9b6 	bl	8005370 <stm32__spi__rx_is_empty>
 8006004:	0003      	movs	r3, r0
 8006006:	001a      	movs	r2, r3
 8006008:	2301      	movs	r3, #1
 800600a:	4053      	eors	r3, r2
 800600c:	b2db      	uxtb	r3, r3
 800600e:	2b00      	cmp	r3, #0
 8006010:	d101      	bne.n	8006016 <stm32__spi__send_receive_16bit_mode+0x162>
 8006012:	46c0      	nop			; (mov r8, r8)
 8006014:	e7f2      	b.n	8005ffc <stm32__spi__send_receive_16bit_mode+0x148>
 8006016:	687b      	ldr	r3, [r7, #4]
 8006018:	681b      	ldr	r3, [r3, #0]
 800601a:	6afa      	ldr	r2, [r7, #44]	; 0x2c
 800601c:	429a      	cmp	r2, r3
 800601e:	db04      	blt.n	800602a <stm32__spi__send_receive_16bit_mode+0x176>
 8006020:	687b      	ldr	r3, [r7, #4]
 8006022:	685b      	ldr	r3, [r3, #4]
 8006024:	6afa      	ldr	r2, [r7, #44]	; 0x2c
 8006026:	429a      	cmp	r2, r3
 8006028:	dd06      	ble.n	8006038 <stm32__spi__send_receive_16bit_mode+0x184>
 800602a:	23c3      	movs	r3, #195	; 0xc3
 800602c:	009a      	lsls	r2, r3, #2
 800602e:	4b84      	ldr	r3, [pc, #528]	; (8006240 <stm32__spi__send_receive_16bit_mode+0x38c>)
 8006030:	0011      	movs	r1, r2
 8006032:	0018      	movs	r0, r3
 8006034:	f002 fb60 	bl	80086f8 <__gnat_last_chance_handler>
 8006038:	683a      	ldr	r2, [r7, #0]
 800603a:	6af9      	ldr	r1, [r7, #44]	; 0x2c
 800603c:	687b      	ldr	r3, [r7, #4]
 800603e:	681b      	ldr	r3, [r3, #0]
 8006040:	1acb      	subs	r3, r1, r3
 8006042:	18d3      	adds	r3, r2, r3
 8006044:	2b00      	cmp	r3, #0
 8006046:	d106      	bne.n	8006056 <stm32__spi__send_receive_16bit_mode+0x1a2>
 8006048:	23c3      	movs	r3, #195	; 0xc3
 800604a:	009a      	lsls	r2, r3, #2
 800604c:	4b7c      	ldr	r3, [pc, #496]	; (8006240 <stm32__spi__send_receive_16bit_mode+0x38c>)
 800604e:	0011      	movs	r1, r2
 8006050:	0018      	movs	r0, r3
 8006052:	f002 fb51 	bl	80086f8 <__gnat_last_chance_handler>
 8006056:	697b      	ldr	r3, [r7, #20]
 8006058:	685a      	ldr	r2, [r3, #4]
 800605a:	6839      	ldr	r1, [r7, #0]
 800605c:	6af8      	ldr	r0, [r7, #44]	; 0x2c
 800605e:	687b      	ldr	r3, [r7, #4]
 8006060:	681b      	ldr	r3, [r3, #0]
 8006062:	1ac3      	subs	r3, r0, r3
 8006064:	18cb      	adds	r3, r1, r3
 8006066:	8992      	ldrh	r2, [r2, #12]
 8006068:	b292      	uxth	r2, r2
 800606a:	801a      	strh	r2, [r3, #0]
 800606c:	e0e0      	b.n	8006230 <stm32__spi__send_receive_16bit_mode+0x37c>
 800606e:	6b3b      	ldr	r3, [r7, #48]	; 0x30
 8006070:	2b00      	cmp	r3, #0
 8006072:	dc00      	bgt.n	8006076 <stm32__spi__send_receive_16bit_mode+0x1c2>
 8006074:	e09f      	b.n	80061b6 <stm32__spi__send_receive_16bit_mode+0x302>
 8006076:	697b      	ldr	r3, [r7, #20]
 8006078:	0018      	movs	r0, r3
 800607a:	f7ff f967 	bl	800534c <stm32__spi__tx_is_empty>
 800607e:	1e03      	subs	r3, r0, #0
 8006080:	d101      	bne.n	8006086 <stm32__spi__send_receive_16bit_mode+0x1d2>
 8006082:	46c0      	nop			; (mov r8, r8)
 8006084:	e7f7      	b.n	8006076 <stm32__spi__send_receive_16bit_mode+0x1c2>
 8006086:	6b7b      	ldr	r3, [r7, #52]	; 0x34
 8006088:	429c      	cmp	r4, r3
 800608a:	dc02      	bgt.n	8006092 <stm32__spi__send_receive_16bit_mode+0x1de>
 800608c:	6b7b      	ldr	r3, [r7, #52]	; 0x34
 800608e:	429d      	cmp	r5, r3
 8006090:	da05      	bge.n	800609e <stm32__spi__send_receive_16bit_mode+0x1ea>
 8006092:	4a70      	ldr	r2, [pc, #448]	; (8006254 <stm32__spi__send_receive_16bit_mode+0x3a0>)
 8006094:	4b6a      	ldr	r3, [pc, #424]	; (8006240 <stm32__spi__send_receive_16bit_mode+0x38c>)
 8006096:	0011      	movs	r1, r2
 8006098:	0018      	movs	r0, r3
 800609a:	f002 fb2d 	bl	80086f8 <__gnat_last_chance_handler>
 800609e:	68ba      	ldr	r2, [r7, #8]
 80060a0:	6b7b      	ldr	r3, [r7, #52]	; 0x34
 80060a2:	0021      	movs	r1, r4
 80060a4:	1a5b      	subs	r3, r3, r1
 80060a6:	18d3      	adds	r3, r2, r3
 80060a8:	2b00      	cmp	r3, #0
 80060aa:	d105      	bne.n	80060b8 <stm32__spi__send_receive_16bit_mode+0x204>
 80060ac:	4a69      	ldr	r2, [pc, #420]	; (8006254 <stm32__spi__send_receive_16bit_mode+0x3a0>)
 80060ae:	4b64      	ldr	r3, [pc, #400]	; (8006240 <stm32__spi__send_receive_16bit_mode+0x38c>)
 80060b0:	0011      	movs	r1, r2
 80060b2:	0018      	movs	r0, r3
 80060b4:	f002 fb20 	bl	80086f8 <__gnat_last_chance_handler>
 80060b8:	68ba      	ldr	r2, [r7, #8]
 80060ba:	6b7b      	ldr	r3, [r7, #52]	; 0x34
 80060bc:	0021      	movs	r1, r4
 80060be:	1a5b      	subs	r3, r3, r1
 80060c0:	18d2      	adds	r2, r2, r3
 80060c2:	697b      	ldr	r3, [r7, #20]
 80060c4:	685b      	ldr	r3, [r3, #4]
 80060c6:	8812      	ldrh	r2, [r2, #0]
 80060c8:	819a      	strh	r2, [r3, #12]
 80060ca:	6b7b      	ldr	r3, [r7, #52]	; 0x34
 80060cc:	4a5f      	ldr	r2, [pc, #380]	; (800624c <stm32__spi__send_receive_16bit_mode+0x398>)
 80060ce:	4293      	cmp	r3, r2
 80060d0:	dd05      	ble.n	80060de <stm32__spi__send_receive_16bit_mode+0x22a>
 80060d2:	4a61      	ldr	r2, [pc, #388]	; (8006258 <stm32__spi__send_receive_16bit_mode+0x3a4>)
 80060d4:	4b5a      	ldr	r3, [pc, #360]	; (8006240 <stm32__spi__send_receive_16bit_mode+0x38c>)
 80060d6:	0011      	movs	r1, r2
 80060d8:	0018      	movs	r0, r3
 80060da:	f002 fb0d 	bl	80086f8 <__gnat_last_chance_handler>
 80060de:	6b7b      	ldr	r3, [r7, #52]	; 0x34
 80060e0:	3302      	adds	r3, #2
 80060e2:	637b      	str	r3, [r7, #52]	; 0x34
 80060e4:	6b3b      	ldr	r3, [r7, #48]	; 0x30
 80060e6:	3b01      	subs	r3, #1
 80060e8:	2b00      	cmp	r3, #0
 80060ea:	da05      	bge.n	80060f8 <stm32__spi__send_receive_16bit_mode+0x244>
 80060ec:	4a5b      	ldr	r2, [pc, #364]	; (800625c <stm32__spi__send_receive_16bit_mode+0x3a8>)
 80060ee:	4b54      	ldr	r3, [pc, #336]	; (8006240 <stm32__spi__send_receive_16bit_mode+0x38c>)
 80060f0:	0011      	movs	r1, r2
 80060f2:	0018      	movs	r0, r3
 80060f4:	f002 fb00 	bl	80086f8 <__gnat_last_chance_handler>
 80060f8:	633b      	str	r3, [r7, #48]	; 0x30
 80060fa:	6b3b      	ldr	r3, [r7, #48]	; 0x30
 80060fc:	425a      	negs	r2, r3
 80060fe:	4153      	adcs	r3, r2
 8006100:	b2de      	uxtb	r6, r3
 8006102:	697b      	ldr	r3, [r7, #20]
 8006104:	0018      	movs	r0, r3
 8006106:	f7ff f9b5 	bl	8005474 <stm32__spi__crc_enabled>
 800610a:	0003      	movs	r3, r0
 800610c:	4033      	ands	r3, r6
 800610e:	b2db      	uxtb	r3, r3
 8006110:	2b00      	cmp	r3, #0
 8006112:	d00c      	beq.n	800612e <stm32__spi__send_receive_16bit_mode+0x27a>
 8006114:	697b      	ldr	r3, [r7, #20]
 8006116:	685b      	ldr	r3, [r3, #4]
 8006118:	881b      	ldrh	r3, [r3, #0]
 800611a:	b29b      	uxth	r3, r3
 800611c:	1c1a      	adds	r2, r3, #0
 800611e:	2380      	movs	r3, #128	; 0x80
 8006120:	015b      	lsls	r3, r3, #5
 8006122:	4313      	orrs	r3, r2
 8006124:	1c1a      	adds	r2, r3, #0
 8006126:	697b      	ldr	r3, [r7, #20]
 8006128:	685b      	ldr	r3, [r3, #4]
 800612a:	b292      	uxth	r2, r2
 800612c:	801a      	strh	r2, [r3, #0]
 800612e:	697b      	ldr	r3, [r7, #20]
 8006130:	0018      	movs	r0, r3
 8006132:	f7ff f91d 	bl	8005370 <stm32__spi__rx_is_empty>
 8006136:	0003      	movs	r3, r0
 8006138:	001a      	movs	r2, r3
 800613a:	2301      	movs	r3, #1
 800613c:	4053      	eors	r3, r2
 800613e:	b2db      	uxtb	r3, r3
 8006140:	2b00      	cmp	r3, #0
 8006142:	d101      	bne.n	8006148 <stm32__spi__send_receive_16bit_mode+0x294>
 8006144:	46c0      	nop			; (mov r8, r8)
 8006146:	e7f2      	b.n	800612e <stm32__spi__send_receive_16bit_mode+0x27a>
 8006148:	687b      	ldr	r3, [r7, #4]
 800614a:	681b      	ldr	r3, [r3, #0]
 800614c:	6afa      	ldr	r2, [r7, #44]	; 0x2c
 800614e:	429a      	cmp	r2, r3
 8006150:	db04      	blt.n	800615c <stm32__spi__send_receive_16bit_mode+0x2a8>
 8006152:	687b      	ldr	r3, [r7, #4]
 8006154:	685b      	ldr	r3, [r3, #4]
 8006156:	6afa      	ldr	r2, [r7, #44]	; 0x2c
 8006158:	429a      	cmp	r2, r3
 800615a:	dd05      	ble.n	8006168 <stm32__spi__send_receive_16bit_mode+0x2b4>
 800615c:	4a40      	ldr	r2, [pc, #256]	; (8006260 <stm32__spi__send_receive_16bit_mode+0x3ac>)
 800615e:	4b38      	ldr	r3, [pc, #224]	; (8006240 <stm32__spi__send_receive_16bit_mode+0x38c>)
 8006160:	0011      	movs	r1, r2
 8006162:	0018      	movs	r0, r3
 8006164:	f002 fac8 	bl	80086f8 <__gnat_last_chance_handler>
 8006168:	683a      	ldr	r2, [r7, #0]
 800616a:	6af9      	ldr	r1, [r7, #44]	; 0x2c
 800616c:	687b      	ldr	r3, [r7, #4]
 800616e:	681b      	ldr	r3, [r3, #0]
 8006170:	1acb      	subs	r3, r1, r3
 8006172:	18d3      	adds	r3, r2, r3
 8006174:	2b00      	cmp	r3, #0
 8006176:	d105      	bne.n	8006184 <stm32__spi__send_receive_16bit_mode+0x2d0>
 8006178:	4a39      	ldr	r2, [pc, #228]	; (8006260 <stm32__spi__send_receive_16bit_mode+0x3ac>)
 800617a:	4b31      	ldr	r3, [pc, #196]	; (8006240 <stm32__spi__send_receive_16bit_mode+0x38c>)
 800617c:	0011      	movs	r1, r2
 800617e:	0018      	movs	r0, r3
 8006180:	f002 faba 	bl	80086f8 <__gnat_last_chance_handler>
 8006184:	697b      	ldr	r3, [r7, #20]
 8006186:	685a      	ldr	r2, [r3, #4]
 8006188:	6839      	ldr	r1, [r7, #0]
 800618a:	6af8      	ldr	r0, [r7, #44]	; 0x2c
 800618c:	687b      	ldr	r3, [r7, #4]
 800618e:	681b      	ldr	r3, [r3, #0]
 8006190:	1ac3      	subs	r3, r0, r3
 8006192:	18cb      	adds	r3, r1, r3
 8006194:	8992      	ldrh	r2, [r2, #12]
 8006196:	b292      	uxth	r2, r2
 8006198:	801a      	strh	r2, [r3, #0]
 800619a:	6afb      	ldr	r3, [r7, #44]	; 0x2c
 800619c:	4a2b      	ldr	r2, [pc, #172]	; (800624c <stm32__spi__send_receive_16bit_mode+0x398>)
 800619e:	4293      	cmp	r3, r2
 80061a0:	dd05      	ble.n	80061ae <stm32__spi__send_receive_16bit_mode+0x2fa>
 80061a2:	4a30      	ldr	r2, [pc, #192]	; (8006264 <stm32__spi__send_receive_16bit_mode+0x3b0>)
 80061a4:	4b26      	ldr	r3, [pc, #152]	; (8006240 <stm32__spi__send_receive_16bit_mode+0x38c>)
 80061a6:	0011      	movs	r1, r2
 80061a8:	0018      	movs	r0, r3
 80061aa:	f002 faa5 	bl	80086f8 <__gnat_last_chance_handler>
 80061ae:	6afb      	ldr	r3, [r7, #44]	; 0x2c
 80061b0:	3302      	adds	r3, #2
 80061b2:	62fb      	str	r3, [r7, #44]	; 0x2c
 80061b4:	e75b      	b.n	800606e <stm32__spi__send_receive_16bit_mode+0x1ba>
 80061b6:	697b      	ldr	r3, [r7, #20]
 80061b8:	0018      	movs	r0, r3
 80061ba:	f7ff f901 	bl	80053c0 <stm32__spi__current_mode>
 80061be:	0003      	movs	r3, r0
 80061c0:	2b01      	cmp	r3, #1
 80061c2:	d135      	bne.n	8006230 <stm32__spi__send_receive_16bit_mode+0x37c>
 80061c4:	697b      	ldr	r3, [r7, #20]
 80061c6:	0018      	movs	r0, r3
 80061c8:	f7ff f8d2 	bl	8005370 <stm32__spi__rx_is_empty>
 80061cc:	0003      	movs	r3, r0
 80061ce:	001a      	movs	r2, r3
 80061d0:	2301      	movs	r3, #1
 80061d2:	4053      	eors	r3, r2
 80061d4:	b2db      	uxtb	r3, r3
 80061d6:	2b00      	cmp	r3, #0
 80061d8:	d101      	bne.n	80061de <stm32__spi__send_receive_16bit_mode+0x32a>
 80061da:	46c0      	nop			; (mov r8, r8)
 80061dc:	e7f2      	b.n	80061c4 <stm32__spi__send_receive_16bit_mode+0x310>
 80061de:	687b      	ldr	r3, [r7, #4]
 80061e0:	681b      	ldr	r3, [r3, #0]
 80061e2:	6afa      	ldr	r2, [r7, #44]	; 0x2c
 80061e4:	429a      	cmp	r2, r3
 80061e6:	db04      	blt.n	80061f2 <stm32__spi__send_receive_16bit_mode+0x33e>
 80061e8:	687b      	ldr	r3, [r7, #4]
 80061ea:	685b      	ldr	r3, [r3, #4]
 80061ec:	6afa      	ldr	r2, [r7, #44]	; 0x2c
 80061ee:	429a      	cmp	r2, r3
 80061f0:	dd05      	ble.n	80061fe <stm32__spi__send_receive_16bit_mode+0x34a>
 80061f2:	4a1d      	ldr	r2, [pc, #116]	; (8006268 <stm32__spi__send_receive_16bit_mode+0x3b4>)
 80061f4:	4b12      	ldr	r3, [pc, #72]	; (8006240 <stm32__spi__send_receive_16bit_mode+0x38c>)
 80061f6:	0011      	movs	r1, r2
 80061f8:	0018      	movs	r0, r3
 80061fa:	f002 fa7d 	bl	80086f8 <__gnat_last_chance_handler>
 80061fe:	683a      	ldr	r2, [r7, #0]
 8006200:	6af9      	ldr	r1, [r7, #44]	; 0x2c
 8006202:	687b      	ldr	r3, [r7, #4]
 8006204:	681b      	ldr	r3, [r3, #0]
 8006206:	1acb      	subs	r3, r1, r3
 8006208:	18d3      	adds	r3, r2, r3
 800620a:	2b00      	cmp	r3, #0
 800620c:	d105      	bne.n	800621a <stm32__spi__send_receive_16bit_mode+0x366>
 800620e:	4a16      	ldr	r2, [pc, #88]	; (8006268 <stm32__spi__send_receive_16bit_mode+0x3b4>)
 8006210:	4b0b      	ldr	r3, [pc, #44]	; (8006240 <stm32__spi__send_receive_16bit_mode+0x38c>)
 8006212:	0011      	movs	r1, r2
 8006214:	0018      	movs	r0, r3
 8006216:	f002 fa6f 	bl	80086f8 <__gnat_last_chance_handler>
 800621a:	697b      	ldr	r3, [r7, #20]
 800621c:	685a      	ldr	r2, [r3, #4]
 800621e:	6839      	ldr	r1, [r7, #0]
 8006220:	6af8      	ldr	r0, [r7, #44]	; 0x2c
 8006222:	687b      	ldr	r3, [r7, #4]
 8006224:	681b      	ldr	r3, [r3, #0]
 8006226:	1ac3      	subs	r3, r0, r3
 8006228:	18cb      	adds	r3, r1, r3
 800622a:	8992      	ldrh	r2, [r2, #12]
 800622c:	b292      	uxth	r2, r2
 800622e:	801a      	strh	r2, [r3, #0]
 8006230:	46bd      	mov	sp, r7
 8006232:	b00f      	add	sp, #60	; 0x3c
 8006234:	bcf0      	pop	{r4, r5, r6, r7}
 8006236:	bc08      	pop	{r3}
 8006238:	b002      	add	sp, #8
 800623a:	4718      	bx	r3
 800623c:	000002f6 	.word	0x000002f6
 8006240:	08009954 	.word	0x08009954
 8006244:	000002f7 	.word	0x000002f7
 8006248:	000002fb 	.word	0x000002fb
 800624c:	7ffffffd 	.word	0x7ffffffd
 8006250:	000002fd 	.word	0x000002fd
 8006254:	00000319 	.word	0x00000319
 8006258:	0000031a 	.word	0x0000031a
 800625c:	0000031b 	.word	0x0000031b
 8006260:	00000327 	.word	0x00000327
 8006264:	00000329 	.word	0x00000329
 8006268:	00000333 	.word	0x00000333

0800626c <stm32__spi__send_receive_8bit_mode>:
 800626c:	b082      	sub	sp, #8
 800626e:	b5f0      	push	{r4, r5, r6, r7, lr}
 8006270:	b08f      	sub	sp, #60	; 0x3c
 8006272:	af00      	add	r7, sp, #0
 8006274:	6178      	str	r0, [r7, #20]
 8006276:	60b9      	str	r1, [r7, #8]
 8006278:	60fa      	str	r2, [r7, #12]
 800627a:	657b      	str	r3, [r7, #84]	; 0x54
 800627c:	0039      	movs	r1, r7
 800627e:	2304      	movs	r3, #4
 8006280:	2250      	movs	r2, #80	; 0x50
 8006282:	18ba      	adds	r2, r7, r2
 8006284:	18d2      	adds	r2, r2, r3
 8006286:	000b      	movs	r3, r1
 8006288:	ca03      	ldmia	r2!, {r0, r1}
 800628a:	c303      	stmia	r3!, {r0, r1}
 800628c:	68fb      	ldr	r3, [r7, #12]
 800628e:	681c      	ldr	r4, [r3, #0]
 8006290:	68fb      	ldr	r3, [r7, #12]
 8006292:	685d      	ldr	r5, [r3, #4]
 8006294:	687b      	ldr	r3, [r7, #4]
 8006296:	681b      	ldr	r3, [r3, #0]
 8006298:	62bb      	str	r3, [r7, #40]	; 0x28
 800629a:	687b      	ldr	r3, [r7, #4]
 800629c:	685a      	ldr	r2, [r3, #4]
 800629e:	687b      	ldr	r3, [r7, #4]
 80062a0:	681b      	ldr	r3, [r3, #0]
 80062a2:	429a      	cmp	r2, r3
 80062a4:	db03      	blt.n	80062ae <stm32__spi__send_receive_8bit_mode+0x42>
 80062a6:	687b      	ldr	r3, [r7, #4]
 80062a8:	685b      	ldr	r3, [r3, #4]
 80062aa:	627b      	str	r3, [r7, #36]	; 0x24
 80062ac:	e003      	b.n	80062b6 <stm32__spi__send_receive_8bit_mode+0x4a>
 80062ae:	687b      	ldr	r3, [r7, #4]
 80062b0:	681b      	ldr	r3, [r3, #0]
 80062b2:	3b01      	subs	r3, #1
 80062b4:	627b      	str	r3, [r7, #36]	; 0x24
 80062b6:	623c      	str	r4, [r7, #32]
 80062b8:	42a5      	cmp	r5, r4
 80062ba:	db01      	blt.n	80062c0 <stm32__spi__send_receive_8bit_mode+0x54>
 80062bc:	61fd      	str	r5, [r7, #28]
 80062be:	e002      	b.n	80062c6 <stm32__spi__send_receive_8bit_mode+0x5a>
 80062c0:	0023      	movs	r3, r4
 80062c2:	3b01      	subs	r3, #1
 80062c4:	61fb      	str	r3, [r7, #28]
 80062c6:	6dfb      	ldr	r3, [r7, #92]	; 0x5c
 80062c8:	633b      	str	r3, [r7, #48]	; 0x30
 80062ca:	2c00      	cmp	r4, #0
 80062cc:	da05      	bge.n	80062da <stm32__spi__send_receive_8bit_mode+0x6e>
 80062ce:	4ab4      	ldr	r2, [pc, #720]	; (80065a0 <stm32__spi__send_receive_8bit_mode+0x334>)
 80062d0:	4bb4      	ldr	r3, [pc, #720]	; (80065a4 <stm32__spi__send_receive_8bit_mode+0x338>)
 80062d2:	0011      	movs	r1, r2
 80062d4:	0018      	movs	r0, r3
 80062d6:	f002 fa0f 	bl	80086f8 <__gnat_last_chance_handler>
 80062da:	637c      	str	r4, [r7, #52]	; 0x34
 80062dc:	687b      	ldr	r3, [r7, #4]
 80062de:	681b      	ldr	r3, [r3, #0]
 80062e0:	2b00      	cmp	r3, #0
 80062e2:	da06      	bge.n	80062f2 <stm32__spi__send_receive_8bit_mode+0x86>
 80062e4:	23d1      	movs	r3, #209	; 0xd1
 80062e6:	009a      	lsls	r2, r3, #2
 80062e8:	4bae      	ldr	r3, [pc, #696]	; (80065a4 <stm32__spi__send_receive_8bit_mode+0x338>)
 80062ea:	0011      	movs	r1, r2
 80062ec:	0018      	movs	r0, r3
 80062ee:	f002 fa03 	bl	80086f8 <__gnat_last_chance_handler>
 80062f2:	687b      	ldr	r3, [r7, #4]
 80062f4:	681b      	ldr	r3, [r3, #0]
 80062f6:	62fb      	str	r3, [r7, #44]	; 0x2c
 80062f8:	697b      	ldr	r3, [r7, #20]
 80062fa:	685b      	ldr	r3, [r3, #4]
 80062fc:	330c      	adds	r3, #12
 80062fe:	61bb      	str	r3, [r7, #24]
 8006300:	697b      	ldr	r3, [r7, #20]
 8006302:	0018      	movs	r0, r3
 8006304:	f7ff f85c 	bl	80053c0 <stm32__spi__current_mode>
 8006308:	0003      	movs	r3, r0
 800630a:	3b01      	subs	r3, #1
 800630c:	425a      	negs	r2, r3
 800630e:	4153      	adcs	r3, r2
 8006310:	b2db      	uxtb	r3, r3
 8006312:	2b00      	cmp	r3, #0
 8006314:	d102      	bne.n	800631c <stm32__spi__send_receive_8bit_mode+0xb0>
 8006316:	6b3b      	ldr	r3, [r7, #48]	; 0x30
 8006318:	2b01      	cmp	r3, #1
 800631a:	d12b      	bne.n	8006374 <stm32__spi__send_receive_8bit_mode+0x108>
 800631c:	6b7b      	ldr	r3, [r7, #52]	; 0x34
 800631e:	429c      	cmp	r4, r3
 8006320:	dc02      	bgt.n	8006328 <stm32__spi__send_receive_8bit_mode+0xbc>
 8006322:	6b7b      	ldr	r3, [r7, #52]	; 0x34
 8006324:	429d      	cmp	r5, r3
 8006326:	da06      	bge.n	8006336 <stm32__spi__send_receive_8bit_mode+0xca>
 8006328:	23d2      	movs	r3, #210	; 0xd2
 800632a:	009a      	lsls	r2, r3, #2
 800632c:	4b9d      	ldr	r3, [pc, #628]	; (80065a4 <stm32__spi__send_receive_8bit_mode+0x338>)
 800632e:	0011      	movs	r1, r2
 8006330:	0018      	movs	r0, r3
 8006332:	f002 f9e1 	bl	80086f8 <__gnat_last_chance_handler>
 8006336:	68ba      	ldr	r2, [r7, #8]
 8006338:	6b79      	ldr	r1, [r7, #52]	; 0x34
 800633a:	6a3b      	ldr	r3, [r7, #32]
 800633c:	1acb      	subs	r3, r1, r3
 800633e:	5cd2      	ldrb	r2, [r2, r3]
 8006340:	69bb      	ldr	r3, [r7, #24]
 8006342:	701a      	strb	r2, [r3, #0]
 8006344:	6b7b      	ldr	r3, [r7, #52]	; 0x34
 8006346:	4a98      	ldr	r2, [pc, #608]	; (80065a8 <stm32__spi__send_receive_8bit_mode+0x33c>)
 8006348:	4293      	cmp	r3, r2
 800634a:	d105      	bne.n	8006358 <stm32__spi__send_receive_8bit_mode+0xec>
 800634c:	4a97      	ldr	r2, [pc, #604]	; (80065ac <stm32__spi__send_receive_8bit_mode+0x340>)
 800634e:	4b95      	ldr	r3, [pc, #596]	; (80065a4 <stm32__spi__send_receive_8bit_mode+0x338>)
 8006350:	0011      	movs	r1, r2
 8006352:	0018      	movs	r0, r3
 8006354:	f002 f9d0 	bl	80086f8 <__gnat_last_chance_handler>
 8006358:	6b7b      	ldr	r3, [r7, #52]	; 0x34
 800635a:	3301      	adds	r3, #1
 800635c:	637b      	str	r3, [r7, #52]	; 0x34
 800635e:	6b3b      	ldr	r3, [r7, #48]	; 0x30
 8006360:	3b01      	subs	r3, #1
 8006362:	2b00      	cmp	r3, #0
 8006364:	da05      	bge.n	8006372 <stm32__spi__send_receive_8bit_mode+0x106>
 8006366:	4a92      	ldr	r2, [pc, #584]	; (80065b0 <stm32__spi__send_receive_8bit_mode+0x344>)
 8006368:	4b8e      	ldr	r3, [pc, #568]	; (80065a4 <stm32__spi__send_receive_8bit_mode+0x338>)
 800636a:	0011      	movs	r1, r2
 800636c:	0018      	movs	r0, r3
 800636e:	f002 f9c3 	bl	80086f8 <__gnat_last_chance_handler>
 8006372:	633b      	str	r3, [r7, #48]	; 0x30
 8006374:	6b3b      	ldr	r3, [r7, #48]	; 0x30
 8006376:	2b00      	cmp	r3, #0
 8006378:	d143      	bne.n	8006402 <stm32__spi__send_receive_8bit_mode+0x196>
 800637a:	697b      	ldr	r3, [r7, #20]
 800637c:	0018      	movs	r0, r3
 800637e:	f7ff f879 	bl	8005474 <stm32__spi__crc_enabled>
 8006382:	1e03      	subs	r3, r0, #0
 8006384:	d00c      	beq.n	80063a0 <stm32__spi__send_receive_8bit_mode+0x134>
 8006386:	697b      	ldr	r3, [r7, #20]
 8006388:	685b      	ldr	r3, [r3, #4]
 800638a:	881b      	ldrh	r3, [r3, #0]
 800638c:	b29b      	uxth	r3, r3
 800638e:	1c1a      	adds	r2, r3, #0
 8006390:	2380      	movs	r3, #128	; 0x80
 8006392:	015b      	lsls	r3, r3, #5
 8006394:	4313      	orrs	r3, r2
 8006396:	1c1a      	adds	r2, r3, #0
 8006398:	697b      	ldr	r3, [r7, #20]
 800639a:	685b      	ldr	r3, [r3, #4]
 800639c:	b292      	uxth	r2, r2
 800639e:	801a      	strh	r2, [r3, #0]
 80063a0:	697b      	ldr	r3, [r7, #20]
 80063a2:	0018      	movs	r0, r3
 80063a4:	f7fe ffe4 	bl	8005370 <stm32__spi__rx_is_empty>
 80063a8:	0003      	movs	r3, r0
 80063aa:	001a      	movs	r2, r3
 80063ac:	2301      	movs	r3, #1
 80063ae:	4053      	eors	r3, r2
 80063b0:	b2db      	uxtb	r3, r3
 80063b2:	2b00      	cmp	r3, #0
 80063b4:	d101      	bne.n	80063ba <stm32__spi__send_receive_8bit_mode+0x14e>
 80063b6:	46c0      	nop			; (mov r8, r8)
 80063b8:	e7f2      	b.n	80063a0 <stm32__spi__send_receive_8bit_mode+0x134>
 80063ba:	687b      	ldr	r3, [r7, #4]
 80063bc:	681b      	ldr	r3, [r3, #0]
 80063be:	6afa      	ldr	r2, [r7, #44]	; 0x2c
 80063c0:	429a      	cmp	r2, r3
 80063c2:	db04      	blt.n	80063ce <stm32__spi__send_receive_8bit_mode+0x162>
 80063c4:	687b      	ldr	r3, [r7, #4]
 80063c6:	685b      	ldr	r3, [r3, #4]
 80063c8:	6afa      	ldr	r2, [r7, #44]	; 0x2c
 80063ca:	429a      	cmp	r2, r3
 80063cc:	dd06      	ble.n	80063dc <stm32__spi__send_receive_8bit_mode+0x170>
 80063ce:	23d6      	movs	r3, #214	; 0xd6
 80063d0:	009a      	lsls	r2, r3, #2
 80063d2:	4b74      	ldr	r3, [pc, #464]	; (80065a4 <stm32__spi__send_receive_8bit_mode+0x338>)
 80063d4:	0011      	movs	r1, r2
 80063d6:	0018      	movs	r0, r3
 80063d8:	f002 f98e 	bl	80086f8 <__gnat_last_chance_handler>
 80063dc:	6afb      	ldr	r3, [r7, #44]	; 0x2c
 80063de:	2b00      	cmp	r3, #0
 80063e0:	da06      	bge.n	80063f0 <stm32__spi__send_receive_8bit_mode+0x184>
 80063e2:	23d6      	movs	r3, #214	; 0xd6
 80063e4:	009a      	lsls	r2, r3, #2
 80063e6:	4b6f      	ldr	r3, [pc, #444]	; (80065a4 <stm32__spi__send_receive_8bit_mode+0x338>)
 80063e8:	0011      	movs	r1, r2
 80063ea:	0018      	movs	r0, r3
 80063ec:	f002 f984 	bl	80086f8 <__gnat_last_chance_handler>
 80063f0:	683a      	ldr	r2, [r7, #0]
 80063f2:	0018      	movs	r0, r3
 80063f4:	69bb      	ldr	r3, [r7, #24]
 80063f6:	781b      	ldrb	r3, [r3, #0]
 80063f8:	b2d9      	uxtb	r1, r3
 80063fa:	6abb      	ldr	r3, [r7, #40]	; 0x28
 80063fc:	1ac3      	subs	r3, r0, r3
 80063fe:	54d1      	strb	r1, [r2, r3]
 8006400:	e0c7      	b.n	8006592 <stm32__spi__send_receive_8bit_mode+0x326>
 8006402:	6b3b      	ldr	r3, [r7, #48]	; 0x30
 8006404:	2b00      	cmp	r3, #0
 8006406:	dc00      	bgt.n	800640a <stm32__spi__send_receive_8bit_mode+0x19e>
 8006408:	e08b      	b.n	8006522 <stm32__spi__send_receive_8bit_mode+0x2b6>
 800640a:	697b      	ldr	r3, [r7, #20]
 800640c:	0018      	movs	r0, r3
 800640e:	f7fe ff9d 	bl	800534c <stm32__spi__tx_is_empty>
 8006412:	1e03      	subs	r3, r0, #0
 8006414:	d101      	bne.n	800641a <stm32__spi__send_receive_8bit_mode+0x1ae>
 8006416:	46c0      	nop			; (mov r8, r8)
 8006418:	e7f7      	b.n	800640a <stm32__spi__send_receive_8bit_mode+0x19e>
 800641a:	6b7b      	ldr	r3, [r7, #52]	; 0x34
 800641c:	429c      	cmp	r4, r3
 800641e:	dc02      	bgt.n	8006426 <stm32__spi__send_receive_8bit_mode+0x1ba>
 8006420:	6b7b      	ldr	r3, [r7, #52]	; 0x34
 8006422:	429d      	cmp	r5, r3
 8006424:	da05      	bge.n	8006432 <stm32__spi__send_receive_8bit_mode+0x1c6>
 8006426:	4a63      	ldr	r2, [pc, #396]	; (80065b4 <stm32__spi__send_receive_8bit_mode+0x348>)
 8006428:	4b5e      	ldr	r3, [pc, #376]	; (80065a4 <stm32__spi__send_receive_8bit_mode+0x338>)
 800642a:	0011      	movs	r1, r2
 800642c:	0018      	movs	r0, r3
 800642e:	f002 f963 	bl	80086f8 <__gnat_last_chance_handler>
 8006432:	68ba      	ldr	r2, [r7, #8]
 8006434:	6b79      	ldr	r1, [r7, #52]	; 0x34
 8006436:	6a3b      	ldr	r3, [r7, #32]
 8006438:	1acb      	subs	r3, r1, r3
 800643a:	5cd2      	ldrb	r2, [r2, r3]
 800643c:	69bb      	ldr	r3, [r7, #24]
 800643e:	701a      	strb	r2, [r3, #0]
 8006440:	6b7b      	ldr	r3, [r7, #52]	; 0x34
 8006442:	4a59      	ldr	r2, [pc, #356]	; (80065a8 <stm32__spi__send_receive_8bit_mode+0x33c>)
 8006444:	4293      	cmp	r3, r2
 8006446:	d105      	bne.n	8006454 <stm32__spi__send_receive_8bit_mode+0x1e8>
 8006448:	4a5b      	ldr	r2, [pc, #364]	; (80065b8 <stm32__spi__send_receive_8bit_mode+0x34c>)
 800644a:	4b56      	ldr	r3, [pc, #344]	; (80065a4 <stm32__spi__send_receive_8bit_mode+0x338>)
 800644c:	0011      	movs	r1, r2
 800644e:	0018      	movs	r0, r3
 8006450:	f002 f952 	bl	80086f8 <__gnat_last_chance_handler>
 8006454:	6b7b      	ldr	r3, [r7, #52]	; 0x34
 8006456:	3301      	adds	r3, #1
 8006458:	637b      	str	r3, [r7, #52]	; 0x34
 800645a:	6b3b      	ldr	r3, [r7, #48]	; 0x30
 800645c:	3b01      	subs	r3, #1
 800645e:	2b00      	cmp	r3, #0
 8006460:	da06      	bge.n	8006470 <stm32__spi__send_receive_8bit_mode+0x204>
 8006462:	23d9      	movs	r3, #217	; 0xd9
 8006464:	009a      	lsls	r2, r3, #2
 8006466:	4b4f      	ldr	r3, [pc, #316]	; (80065a4 <stm32__spi__send_receive_8bit_mode+0x338>)
 8006468:	0011      	movs	r1, r2
 800646a:	0018      	movs	r0, r3
 800646c:	f002 f944 	bl	80086f8 <__gnat_last_chance_handler>
 8006470:	633b      	str	r3, [r7, #48]	; 0x30
 8006472:	6b3b      	ldr	r3, [r7, #48]	; 0x30
 8006474:	425a      	negs	r2, r3
 8006476:	4153      	adcs	r3, r2
 8006478:	b2de      	uxtb	r6, r3
 800647a:	697b      	ldr	r3, [r7, #20]
 800647c:	0018      	movs	r0, r3
 800647e:	f7fe fff9 	bl	8005474 <stm32__spi__crc_enabled>
 8006482:	0003      	movs	r3, r0
 8006484:	4033      	ands	r3, r6
 8006486:	b2db      	uxtb	r3, r3
 8006488:	2b00      	cmp	r3, #0
 800648a:	d00c      	beq.n	80064a6 <stm32__spi__send_receive_8bit_mode+0x23a>
 800648c:	697b      	ldr	r3, [r7, #20]
 800648e:	685b      	ldr	r3, [r3, #4]
 8006490:	881b      	ldrh	r3, [r3, #0]
 8006492:	b29b      	uxth	r3, r3
 8006494:	1c1a      	adds	r2, r3, #0
 8006496:	2380      	movs	r3, #128	; 0x80
 8006498:	015b      	lsls	r3, r3, #5
 800649a:	4313      	orrs	r3, r2
 800649c:	1c1a      	adds	r2, r3, #0
 800649e:	697b      	ldr	r3, [r7, #20]
 80064a0:	685b      	ldr	r3, [r3, #4]
 80064a2:	b292      	uxth	r2, r2
 80064a4:	801a      	strh	r2, [r3, #0]
 80064a6:	697b      	ldr	r3, [r7, #20]
 80064a8:	0018      	movs	r0, r3
 80064aa:	f7fe ff61 	bl	8005370 <stm32__spi__rx_is_empty>
 80064ae:	0003      	movs	r3, r0
 80064b0:	001a      	movs	r2, r3
 80064b2:	2301      	movs	r3, #1
 80064b4:	4053      	eors	r3, r2
 80064b6:	b2db      	uxtb	r3, r3
 80064b8:	2b00      	cmp	r3, #0
 80064ba:	d101      	bne.n	80064c0 <stm32__spi__send_receive_8bit_mode+0x254>
 80064bc:	46c0      	nop			; (mov r8, r8)
 80064be:	e7f2      	b.n	80064a6 <stm32__spi__send_receive_8bit_mode+0x23a>
 80064c0:	687b      	ldr	r3, [r7, #4]
 80064c2:	681b      	ldr	r3, [r3, #0]
 80064c4:	6afa      	ldr	r2, [r7, #44]	; 0x2c
 80064c6:	429a      	cmp	r2, r3
 80064c8:	db04      	blt.n	80064d4 <stm32__spi__send_receive_8bit_mode+0x268>
 80064ca:	687b      	ldr	r3, [r7, #4]
 80064cc:	685b      	ldr	r3, [r3, #4]
 80064ce:	6afa      	ldr	r2, [r7, #44]	; 0x2c
 80064d0:	429a      	cmp	r2, r3
 80064d2:	dd06      	ble.n	80064e2 <stm32__spi__send_receive_8bit_mode+0x276>
 80064d4:	23dc      	movs	r3, #220	; 0xdc
 80064d6:	009a      	lsls	r2, r3, #2
 80064d8:	4b32      	ldr	r3, [pc, #200]	; (80065a4 <stm32__spi__send_receive_8bit_mode+0x338>)
 80064da:	0011      	movs	r1, r2
 80064dc:	0018      	movs	r0, r3
 80064de:	f002 f90b 	bl	80086f8 <__gnat_last_chance_handler>
 80064e2:	6afb      	ldr	r3, [r7, #44]	; 0x2c
 80064e4:	2b00      	cmp	r3, #0
 80064e6:	da06      	bge.n	80064f6 <stm32__spi__send_receive_8bit_mode+0x28a>
 80064e8:	23dc      	movs	r3, #220	; 0xdc
 80064ea:	009a      	lsls	r2, r3, #2
 80064ec:	4b2d      	ldr	r3, [pc, #180]	; (80065a4 <stm32__spi__send_receive_8bit_mode+0x338>)
 80064ee:	0011      	movs	r1, r2
 80064f0:	0018      	movs	r0, r3
 80064f2:	f002 f901 	bl	80086f8 <__gnat_last_chance_handler>
 80064f6:	683a      	ldr	r2, [r7, #0]
 80064f8:	0018      	movs	r0, r3
 80064fa:	69bb      	ldr	r3, [r7, #24]
 80064fc:	781b      	ldrb	r3, [r3, #0]
 80064fe:	b2d9      	uxtb	r1, r3
 8006500:	6abb      	ldr	r3, [r7, #40]	; 0x28
 8006502:	1ac3      	subs	r3, r0, r3
 8006504:	54d1      	strb	r1, [r2, r3]
 8006506:	6afb      	ldr	r3, [r7, #44]	; 0x2c
 8006508:	4a27      	ldr	r2, [pc, #156]	; (80065a8 <stm32__spi__send_receive_8bit_mode+0x33c>)
 800650a:	4293      	cmp	r3, r2
 800650c:	d105      	bne.n	800651a <stm32__spi__send_receive_8bit_mode+0x2ae>
 800650e:	4a2b      	ldr	r2, [pc, #172]	; (80065bc <stm32__spi__send_receive_8bit_mode+0x350>)
 8006510:	4b24      	ldr	r3, [pc, #144]	; (80065a4 <stm32__spi__send_receive_8bit_mode+0x338>)
 8006512:	0011      	movs	r1, r2
 8006514:	0018      	movs	r0, r3
 8006516:	f002 f8ef 	bl	80086f8 <__gnat_last_chance_handler>
 800651a:	6afb      	ldr	r3, [r7, #44]	; 0x2c
 800651c:	3301      	adds	r3, #1
 800651e:	62fb      	str	r3, [r7, #44]	; 0x2c
 8006520:	e76f      	b.n	8006402 <stm32__spi__send_receive_8bit_mode+0x196>
 8006522:	697b      	ldr	r3, [r7, #20]
 8006524:	0018      	movs	r0, r3
 8006526:	f7fe ff4b 	bl	80053c0 <stm32__spi__current_mode>
 800652a:	0003      	movs	r3, r0
 800652c:	2b01      	cmp	r3, #1
 800652e:	d130      	bne.n	8006592 <stm32__spi__send_receive_8bit_mode+0x326>
 8006530:	697b      	ldr	r3, [r7, #20]
 8006532:	0018      	movs	r0, r3
 8006534:	f7fe ff1c 	bl	8005370 <stm32__spi__rx_is_empty>
 8006538:	0003      	movs	r3, r0
 800653a:	001a      	movs	r2, r3
 800653c:	2301      	movs	r3, #1
 800653e:	4053      	eors	r3, r2
 8006540:	b2db      	uxtb	r3, r3
 8006542:	2b00      	cmp	r3, #0
 8006544:	d101      	bne.n	800654a <stm32__spi__send_receive_8bit_mode+0x2de>
 8006546:	46c0      	nop			; (mov r8, r8)
 8006548:	e7f2      	b.n	8006530 <stm32__spi__send_receive_8bit_mode+0x2c4>
 800654a:	687b      	ldr	r3, [r7, #4]
 800654c:	681b      	ldr	r3, [r3, #0]
 800654e:	6afa      	ldr	r2, [r7, #44]	; 0x2c
 8006550:	429a      	cmp	r2, r3
 8006552:	db04      	blt.n	800655e <stm32__spi__send_receive_8bit_mode+0x2f2>
 8006554:	687b      	ldr	r3, [r7, #4]
 8006556:	685b      	ldr	r3, [r3, #4]
 8006558:	6afa      	ldr	r2, [r7, #44]	; 0x2c
 800655a:	429a      	cmp	r2, r3
 800655c:	dd05      	ble.n	800656a <stm32__spi__send_receive_8bit_mode+0x2fe>
 800655e:	4a18      	ldr	r2, [pc, #96]	; (80065c0 <stm32__spi__send_receive_8bit_mode+0x354>)
 8006560:	4b10      	ldr	r3, [pc, #64]	; (80065a4 <stm32__spi__send_receive_8bit_mode+0x338>)
 8006562:	0011      	movs	r1, r2
 8006564:	0018      	movs	r0, r3
 8006566:	f002 f8c7 	bl	80086f8 <__gnat_last_chance_handler>
 800656a:	6afb      	ldr	r3, [r7, #44]	; 0x2c
 800656c:	2b00      	cmp	r3, #0
 800656e:	da05      	bge.n	800657c <stm32__spi__send_receive_8bit_mode+0x310>
 8006570:	4a13      	ldr	r2, [pc, #76]	; (80065c0 <stm32__spi__send_receive_8bit_mode+0x354>)
 8006572:	4b0c      	ldr	r3, [pc, #48]	; (80065a4 <stm32__spi__send_receive_8bit_mode+0x338>)
 8006574:	0011      	movs	r1, r2
 8006576:	0018      	movs	r0, r3
 8006578:	f002 f8be 	bl	80086f8 <__gnat_last_chance_handler>
 800657c:	683c      	ldr	r4, [r7, #0]
 800657e:	001d      	movs	r5, r3
 8006580:	697b      	ldr	r3, [r7, #20]
 8006582:	0018      	movs	r0, r3
 8006584:	f7fe fea6 	bl	80052d4 <stm32__spi__data__2>
 8006588:	0003      	movs	r3, r0
 800658a:	001a      	movs	r2, r3
 800658c:	6abb      	ldr	r3, [r7, #40]	; 0x28
 800658e:	1aeb      	subs	r3, r5, r3
 8006590:	54e2      	strb	r2, [r4, r3]
 8006592:	46bd      	mov	sp, r7
 8006594:	b00f      	add	sp, #60	; 0x3c
 8006596:	bcf0      	pop	{r4, r5, r6, r7}
 8006598:	bc08      	pop	{r3}
 800659a:	b002      	add	sp, #8
 800659c:	4718      	bx	r3
 800659e:	46c0      	nop			; (mov r8, r8)
 80065a0:	00000343 	.word	0x00000343
 80065a4:	08009954 	.word	0x08009954
 80065a8:	7fffffff 	.word	0x7fffffff
 80065ac:	00000349 	.word	0x00000349
 80065b0:	0000034a 	.word	0x0000034a
 80065b4:	00000362 	.word	0x00000362
 80065b8:	00000363 	.word	0x00000363
 80065bc:	00000371 	.word	0x00000371
 80065c0:	0000037a 	.word	0x0000037a

080065c4 <stm32__spi__send_16bit_mode>:
 80065c4:	b5f0      	push	{r4, r5, r6, r7, lr}
 80065c6:	b08f      	sub	sp, #60	; 0x3c
 80065c8:	af00      	add	r7, sp, #0
 80065ca:	62f8      	str	r0, [r7, #44]	; 0x2c
 80065cc:	6239      	str	r1, [r7, #32]
 80065ce:	627a      	str	r2, [r7, #36]	; 0x24
 80065d0:	6a7b      	ldr	r3, [r7, #36]	; 0x24
 80065d2:	681c      	ldr	r4, [r3, #0]
 80065d4:	6a7b      	ldr	r3, [r7, #36]	; 0x24
 80065d6:	685d      	ldr	r5, [r3, #4]
 80065d8:	42a5      	cmp	r5, r4
 80065da:	db12      	blt.n	8006602 <stm32__spi__send_16bit_mode+0x3e>
 80065dc:	613d      	str	r5, [r7, #16]
 80065de:	17eb      	asrs	r3, r5, #31
 80065e0:	617b      	str	r3, [r7, #20]
 80065e2:	60bc      	str	r4, [r7, #8]
 80065e4:	17e3      	asrs	r3, r4, #31
 80065e6:	60fb      	str	r3, [r7, #12]
 80065e8:	693a      	ldr	r2, [r7, #16]
 80065ea:	697b      	ldr	r3, [r7, #20]
 80065ec:	68b8      	ldr	r0, [r7, #8]
 80065ee:	68f9      	ldr	r1, [r7, #12]
 80065f0:	1a12      	subs	r2, r2, r0
 80065f2:	418b      	sbcs	r3, r1
 80065f4:	2001      	movs	r0, #1
 80065f6:	2100      	movs	r1, #0
 80065f8:	1880      	adds	r0, r0, r2
 80065fa:	4159      	adcs	r1, r3
 80065fc:	6138      	str	r0, [r7, #16]
 80065fe:	6179      	str	r1, [r7, #20]
 8006600:	e003      	b.n	800660a <stm32__spi__send_16bit_mode+0x46>
 8006602:	2200      	movs	r2, #0
 8006604:	2300      	movs	r3, #0
 8006606:	613a      	str	r2, [r7, #16]
 8006608:	617b      	str	r3, [r7, #20]
 800660a:	603c      	str	r4, [r7, #0]
 800660c:	17e3      	asrs	r3, r4, #31
 800660e:	607b      	str	r3, [r7, #4]
 8006610:	4a67      	ldr	r2, [pc, #412]	; (80067b0 <stm32__spi__send_16bit_mode+0x1ec>)
 8006612:	2300      	movs	r3, #0
 8006614:	6838      	ldr	r0, [r7, #0]
 8006616:	6879      	ldr	r1, [r7, #4]
 8006618:	1880      	adds	r0, r0, r2
 800661a:	4159      	adcs	r1, r3
 800661c:	0002      	movs	r2, r0
 800661e:	000b      	movs	r3, r1
 8006620:	61bd      	str	r5, [r7, #24]
 8006622:	17ee      	asrs	r6, r5, #31
 8006624:	61fe      	str	r6, [r7, #28]
 8006626:	69f9      	ldr	r1, [r7, #28]
 8006628:	4299      	cmp	r1, r3
 800662a:	dc05      	bgt.n	8006638 <stm32__spi__send_16bit_mode+0x74>
 800662c:	69f9      	ldr	r1, [r7, #28]
 800662e:	4299      	cmp	r1, r3
 8006630:	d108      	bne.n	8006644 <stm32__spi__send_16bit_mode+0x80>
 8006632:	69b9      	ldr	r1, [r7, #24]
 8006634:	4291      	cmp	r1, r2
 8006636:	d905      	bls.n	8006644 <stm32__spi__send_16bit_mode+0x80>
 8006638:	4a5e      	ldr	r2, [pc, #376]	; (80067b4 <stm32__spi__send_16bit_mode+0x1f0>)
 800663a:	4b5f      	ldr	r3, [pc, #380]	; (80067b8 <stm32__spi__send_16bit_mode+0x1f4>)
 800663c:	0011      	movs	r1, r2
 800663e:	0018      	movs	r0, r3
 8006640:	f002 f85a 	bl	80086f8 <__gnat_last_chance_handler>
 8006644:	693b      	ldr	r3, [r7, #16]
 8006646:	637b      	str	r3, [r7, #52]	; 0x34
 8006648:	2c00      	cmp	r4, #0
 800664a:	da05      	bge.n	8006658 <stm32__spi__send_16bit_mode+0x94>
 800664c:	4a5b      	ldr	r2, [pc, #364]	; (80067bc <stm32__spi__send_16bit_mode+0x1f8>)
 800664e:	4b5a      	ldr	r3, [pc, #360]	; (80067b8 <stm32__spi__send_16bit_mode+0x1f4>)
 8006650:	0011      	movs	r1, r2
 8006652:	0018      	movs	r0, r3
 8006654:	f002 f850 	bl	80086f8 <__gnat_last_chance_handler>
 8006658:	633c      	str	r4, [r7, #48]	; 0x30
 800665a:	6afb      	ldr	r3, [r7, #44]	; 0x2c
 800665c:	0018      	movs	r0, r3
 800665e:	f7fe feaf 	bl	80053c0 <stm32__spi__current_mode>
 8006662:	0003      	movs	r3, r0
 8006664:	3b01      	subs	r3, #1
 8006666:	425a      	negs	r2, r3
 8006668:	4153      	adcs	r3, r2
 800666a:	b2db      	uxtb	r3, r3
 800666c:	2b00      	cmp	r3, #0
 800666e:	d102      	bne.n	8006676 <stm32__spi__send_16bit_mode+0xb2>
 8006670:	6b7b      	ldr	r3, [r7, #52]	; 0x34
 8006672:	2b01      	cmp	r3, #1
 8006674:	d13c      	bne.n	80066f0 <stm32__spi__send_16bit_mode+0x12c>
 8006676:	6b3b      	ldr	r3, [r7, #48]	; 0x30
 8006678:	429c      	cmp	r4, r3
 800667a:	dc02      	bgt.n	8006682 <stm32__spi__send_16bit_mode+0xbe>
 800667c:	6b3b      	ldr	r3, [r7, #48]	; 0x30
 800667e:	429d      	cmp	r5, r3
 8006680:	da05      	bge.n	800668e <stm32__spi__send_16bit_mode+0xca>
 8006682:	4a4f      	ldr	r2, [pc, #316]	; (80067c0 <stm32__spi__send_16bit_mode+0x1fc>)
 8006684:	4b4c      	ldr	r3, [pc, #304]	; (80067b8 <stm32__spi__send_16bit_mode+0x1f4>)
 8006686:	0011      	movs	r1, r2
 8006688:	0018      	movs	r0, r3
 800668a:	f002 f835 	bl	80086f8 <__gnat_last_chance_handler>
 800668e:	6a3a      	ldr	r2, [r7, #32]
 8006690:	6b3b      	ldr	r3, [r7, #48]	; 0x30
 8006692:	0021      	movs	r1, r4
 8006694:	1a5b      	subs	r3, r3, r1
 8006696:	005b      	lsls	r3, r3, #1
 8006698:	18d3      	adds	r3, r2, r3
 800669a:	2b00      	cmp	r3, #0
 800669c:	d105      	bne.n	80066aa <stm32__spi__send_16bit_mode+0xe6>
 800669e:	4a48      	ldr	r2, [pc, #288]	; (80067c0 <stm32__spi__send_16bit_mode+0x1fc>)
 80066a0:	4b45      	ldr	r3, [pc, #276]	; (80067b8 <stm32__spi__send_16bit_mode+0x1f4>)
 80066a2:	0011      	movs	r1, r2
 80066a4:	0018      	movs	r0, r3
 80066a6:	f002 f827 	bl	80086f8 <__gnat_last_chance_handler>
 80066aa:	6a3a      	ldr	r2, [r7, #32]
 80066ac:	6b3b      	ldr	r3, [r7, #48]	; 0x30
 80066ae:	0021      	movs	r1, r4
 80066b0:	1a5b      	subs	r3, r3, r1
 80066b2:	005b      	lsls	r3, r3, #1
 80066b4:	18d2      	adds	r2, r2, r3
 80066b6:	6afb      	ldr	r3, [r7, #44]	; 0x2c
 80066b8:	685b      	ldr	r3, [r3, #4]
 80066ba:	8812      	ldrh	r2, [r2, #0]
 80066bc:	819a      	strh	r2, [r3, #12]
 80066be:	6b3b      	ldr	r3, [r7, #48]	; 0x30
 80066c0:	4a40      	ldr	r2, [pc, #256]	; (80067c4 <stm32__spi__send_16bit_mode+0x200>)
 80066c2:	4293      	cmp	r3, r2
 80066c4:	dd06      	ble.n	80066d4 <stm32__spi__send_16bit_mode+0x110>
 80066c6:	23e3      	movs	r3, #227	; 0xe3
 80066c8:	009a      	lsls	r2, r3, #2
 80066ca:	4b3b      	ldr	r3, [pc, #236]	; (80067b8 <stm32__spi__send_16bit_mode+0x1f4>)
 80066cc:	0011      	movs	r1, r2
 80066ce:	0018      	movs	r0, r3
 80066d0:	f002 f812 	bl	80086f8 <__gnat_last_chance_handler>
 80066d4:	6b3b      	ldr	r3, [r7, #48]	; 0x30
 80066d6:	3302      	adds	r3, #2
 80066d8:	633b      	str	r3, [r7, #48]	; 0x30
 80066da:	6b7b      	ldr	r3, [r7, #52]	; 0x34
 80066dc:	3b01      	subs	r3, #1
 80066de:	2b00      	cmp	r3, #0
 80066e0:	da05      	bge.n	80066ee <stm32__spi__send_16bit_mode+0x12a>
 80066e2:	4a39      	ldr	r2, [pc, #228]	; (80067c8 <stm32__spi__send_16bit_mode+0x204>)
 80066e4:	4b34      	ldr	r3, [pc, #208]	; (80067b8 <stm32__spi__send_16bit_mode+0x1f4>)
 80066e6:	0011      	movs	r1, r2
 80066e8:	0018      	movs	r0, r3
 80066ea:	f002 f805 	bl	80086f8 <__gnat_last_chance_handler>
 80066ee:	637b      	str	r3, [r7, #52]	; 0x34
 80066f0:	6b7b      	ldr	r3, [r7, #52]	; 0x34
 80066f2:	2b00      	cmp	r3, #0
 80066f4:	dd45      	ble.n	8006782 <stm32__spi__send_16bit_mode+0x1be>
 80066f6:	6afb      	ldr	r3, [r7, #44]	; 0x2c
 80066f8:	0018      	movs	r0, r3
 80066fa:	f7fe fe27 	bl	800534c <stm32__spi__tx_is_empty>
 80066fe:	1e03      	subs	r3, r0, #0
 8006700:	d101      	bne.n	8006706 <stm32__spi__send_16bit_mode+0x142>
 8006702:	46c0      	nop			; (mov r8, r8)
 8006704:	e7f7      	b.n	80066f6 <stm32__spi__send_16bit_mode+0x132>
 8006706:	6b3b      	ldr	r3, [r7, #48]	; 0x30
 8006708:	429c      	cmp	r4, r3
 800670a:	dc02      	bgt.n	8006712 <stm32__spi__send_16bit_mode+0x14e>
 800670c:	6b3b      	ldr	r3, [r7, #48]	; 0x30
 800670e:	429d      	cmp	r5, r3
 8006710:	da05      	bge.n	800671e <stm32__spi__send_16bit_mode+0x15a>
 8006712:	4a2e      	ldr	r2, [pc, #184]	; (80067cc <stm32__spi__send_16bit_mode+0x208>)
 8006714:	4b28      	ldr	r3, [pc, #160]	; (80067b8 <stm32__spi__send_16bit_mode+0x1f4>)
 8006716:	0011      	movs	r1, r2
 8006718:	0018      	movs	r0, r3
 800671a:	f001 ffed 	bl	80086f8 <__gnat_last_chance_handler>
 800671e:	6a3a      	ldr	r2, [r7, #32]
 8006720:	6b3b      	ldr	r3, [r7, #48]	; 0x30
 8006722:	0021      	movs	r1, r4
 8006724:	1a5b      	subs	r3, r3, r1
 8006726:	005b      	lsls	r3, r3, #1
 8006728:	18d3      	adds	r3, r2, r3
 800672a:	2b00      	cmp	r3, #0
 800672c:	d105      	bne.n	800673a <stm32__spi__send_16bit_mode+0x176>
 800672e:	4a27      	ldr	r2, [pc, #156]	; (80067cc <stm32__spi__send_16bit_mode+0x208>)
 8006730:	4b21      	ldr	r3, [pc, #132]	; (80067b8 <stm32__spi__send_16bit_mode+0x1f4>)
 8006732:	0011      	movs	r1, r2
 8006734:	0018      	movs	r0, r3
 8006736:	f001 ffdf 	bl	80086f8 <__gnat_last_chance_handler>
 800673a:	6a3a      	ldr	r2, [r7, #32]
 800673c:	6b3b      	ldr	r3, [r7, #48]	; 0x30
 800673e:	0021      	movs	r1, r4
 8006740:	1a5b      	subs	r3, r3, r1
 8006742:	005b      	lsls	r3, r3, #1
 8006744:	18d2      	adds	r2, r2, r3
 8006746:	6afb      	ldr	r3, [r7, #44]	; 0x2c
 8006748:	685b      	ldr	r3, [r3, #4]
 800674a:	8812      	ldrh	r2, [r2, #0]
 800674c:	819a      	strh	r2, [r3, #12]
 800674e:	6b3b      	ldr	r3, [r7, #48]	; 0x30
 8006750:	4a1c      	ldr	r2, [pc, #112]	; (80067c4 <stm32__spi__send_16bit_mode+0x200>)
 8006752:	4293      	cmp	r3, r2
 8006754:	dd06      	ble.n	8006764 <stm32__spi__send_16bit_mode+0x1a0>
 8006756:	23e6      	movs	r3, #230	; 0xe6
 8006758:	009a      	lsls	r2, r3, #2
 800675a:	4b17      	ldr	r3, [pc, #92]	; (80067b8 <stm32__spi__send_16bit_mode+0x1f4>)
 800675c:	0011      	movs	r1, r2
 800675e:	0018      	movs	r0, r3
 8006760:	f001 ffca 	bl	80086f8 <__gnat_last_chance_handler>
 8006764:	6b3b      	ldr	r3, [r7, #48]	; 0x30
 8006766:	3302      	adds	r3, #2
 8006768:	633b      	str	r3, [r7, #48]	; 0x30
 800676a:	6b7b      	ldr	r3, [r7, #52]	; 0x34
 800676c:	3b01      	subs	r3, #1
 800676e:	2b00      	cmp	r3, #0
 8006770:	da05      	bge.n	800677e <stm32__spi__send_16bit_mode+0x1ba>
 8006772:	4a17      	ldr	r2, [pc, #92]	; (80067d0 <stm32__spi__send_16bit_mode+0x20c>)
 8006774:	4b10      	ldr	r3, [pc, #64]	; (80067b8 <stm32__spi__send_16bit_mode+0x1f4>)
 8006776:	0011      	movs	r1, r2
 8006778:	0018      	movs	r0, r3
 800677a:	f001 ffbd 	bl	80086f8 <__gnat_last_chance_handler>
 800677e:	637b      	str	r3, [r7, #52]	; 0x34
 8006780:	e7b6      	b.n	80066f0 <stm32__spi__send_16bit_mode+0x12c>
 8006782:	6afb      	ldr	r3, [r7, #44]	; 0x2c
 8006784:	0018      	movs	r0, r3
 8006786:	f7fe fe75 	bl	8005474 <stm32__spi__crc_enabled>
 800678a:	1e03      	subs	r3, r0, #0
 800678c:	d00c      	beq.n	80067a8 <stm32__spi__send_16bit_mode+0x1e4>
 800678e:	6afb      	ldr	r3, [r7, #44]	; 0x2c
 8006790:	685b      	ldr	r3, [r3, #4]
 8006792:	881b      	ldrh	r3, [r3, #0]
 8006794:	b29b      	uxth	r3, r3
 8006796:	1c1a      	adds	r2, r3, #0
 8006798:	2380      	movs	r3, #128	; 0x80
 800679a:	015b      	lsls	r3, r3, #5
 800679c:	4313      	orrs	r3, r2
 800679e:	1c1a      	adds	r2, r3, #0
 80067a0:	6afb      	ldr	r3, [r7, #44]	; 0x2c
 80067a2:	685b      	ldr	r3, [r3, #4]
 80067a4:	b292      	uxth	r2, r2
 80067a6:	801a      	strh	r2, [r3, #0]
 80067a8:	46bd      	mov	sp, r7
 80067aa:	b00f      	add	sp, #60	; 0x3c
 80067ac:	bdf0      	pop	{r4, r5, r6, r7, pc}
 80067ae:	46c0      	nop			; (mov r8, r8)
 80067b0:	7ffffffe 	.word	0x7ffffffe
 80067b4:	00000386 	.word	0x00000386
 80067b8:	08009954 	.word	0x08009954
 80067bc:	00000387 	.word	0x00000387
 80067c0:	0000038b 	.word	0x0000038b
 80067c4:	7ffffffd 	.word	0x7ffffffd
 80067c8:	0000038d 	.word	0x0000038d
 80067cc:	00000397 	.word	0x00000397
 80067d0:	00000399 	.word	0x00000399

080067d4 <stm32__spi__send_8bit_mode>:
 80067d4:	b5f0      	push	{r4, r5, r6, r7, lr}
 80067d6:	b091      	sub	sp, #68	; 0x44
 80067d8:	af00      	add	r7, sp, #0
 80067da:	62f8      	str	r0, [r7, #44]	; 0x2c
 80067dc:	6239      	str	r1, [r7, #32]
 80067de:	627a      	str	r2, [r7, #36]	; 0x24
 80067e0:	6a7b      	ldr	r3, [r7, #36]	; 0x24
 80067e2:	681c      	ldr	r4, [r3, #0]
 80067e4:	6a7b      	ldr	r3, [r7, #36]	; 0x24
 80067e6:	685d      	ldr	r5, [r3, #4]
 80067e8:	42a5      	cmp	r5, r4
 80067ea:	db12      	blt.n	8006812 <stm32__spi__send_8bit_mode+0x3e>
 80067ec:	613d      	str	r5, [r7, #16]
 80067ee:	17eb      	asrs	r3, r5, #31
 80067f0:	617b      	str	r3, [r7, #20]
 80067f2:	60bc      	str	r4, [r7, #8]
 80067f4:	17e3      	asrs	r3, r4, #31
 80067f6:	60fb      	str	r3, [r7, #12]
 80067f8:	693a      	ldr	r2, [r7, #16]
 80067fa:	697b      	ldr	r3, [r7, #20]
 80067fc:	68b8      	ldr	r0, [r7, #8]
 80067fe:	68f9      	ldr	r1, [r7, #12]
 8006800:	1a12      	subs	r2, r2, r0
 8006802:	418b      	sbcs	r3, r1
 8006804:	2001      	movs	r0, #1
 8006806:	2100      	movs	r1, #0
 8006808:	1880      	adds	r0, r0, r2
 800680a:	4159      	adcs	r1, r3
 800680c:	6138      	str	r0, [r7, #16]
 800680e:	6179      	str	r1, [r7, #20]
 8006810:	e003      	b.n	800681a <stm32__spi__send_8bit_mode+0x46>
 8006812:	2200      	movs	r2, #0
 8006814:	2300      	movs	r3, #0
 8006816:	613a      	str	r2, [r7, #16]
 8006818:	617b      	str	r3, [r7, #20]
 800681a:	0026      	movs	r6, r4
 800681c:	603c      	str	r4, [r7, #0]
 800681e:	17e3      	asrs	r3, r4, #31
 8006820:	607b      	str	r3, [r7, #4]
 8006822:	4a58      	ldr	r2, [pc, #352]	; (8006984 <stm32__spi__send_8bit_mode+0x1b0>)
 8006824:	2300      	movs	r3, #0
 8006826:	6838      	ldr	r0, [r7, #0]
 8006828:	6879      	ldr	r1, [r7, #4]
 800682a:	1880      	adds	r0, r0, r2
 800682c:	4159      	adcs	r1, r3
 800682e:	0002      	movs	r2, r0
 8006830:	000b      	movs	r3, r1
 8006832:	61bd      	str	r5, [r7, #24]
 8006834:	17e9      	asrs	r1, r5, #31
 8006836:	468c      	mov	ip, r1
 8006838:	4661      	mov	r1, ip
 800683a:	61f9      	str	r1, [r7, #28]
 800683c:	69f9      	ldr	r1, [r7, #28]
 800683e:	4299      	cmp	r1, r3
 8006840:	dc05      	bgt.n	800684e <stm32__spi__send_8bit_mode+0x7a>
 8006842:	69f9      	ldr	r1, [r7, #28]
 8006844:	4299      	cmp	r1, r3
 8006846:	d108      	bne.n	800685a <stm32__spi__send_8bit_mode+0x86>
 8006848:	69b9      	ldr	r1, [r7, #24]
 800684a:	4291      	cmp	r1, r2
 800684c:	d905      	bls.n	800685a <stm32__spi__send_8bit_mode+0x86>
 800684e:	4a4e      	ldr	r2, [pc, #312]	; (8006988 <stm32__spi__send_8bit_mode+0x1b4>)
 8006850:	4b4e      	ldr	r3, [pc, #312]	; (800698c <stm32__spi__send_8bit_mode+0x1b8>)
 8006852:	0011      	movs	r1, r2
 8006854:	0018      	movs	r0, r3
 8006856:	f001 ff4f 	bl	80086f8 <__gnat_last_chance_handler>
 800685a:	693b      	ldr	r3, [r7, #16]
 800685c:	63fb      	str	r3, [r7, #60]	; 0x3c
 800685e:	2c00      	cmp	r4, #0
 8006860:	da05      	bge.n	800686e <stm32__spi__send_8bit_mode+0x9a>
 8006862:	4a4b      	ldr	r2, [pc, #300]	; (8006990 <stm32__spi__send_8bit_mode+0x1bc>)
 8006864:	4b49      	ldr	r3, [pc, #292]	; (800698c <stm32__spi__send_8bit_mode+0x1b8>)
 8006866:	0011      	movs	r1, r2
 8006868:	0018      	movs	r0, r3
 800686a:	f001 ff45 	bl	80086f8 <__gnat_last_chance_handler>
 800686e:	63bc      	str	r4, [r7, #56]	; 0x38
 8006870:	6afb      	ldr	r3, [r7, #44]	; 0x2c
 8006872:	685b      	ldr	r3, [r3, #4]
 8006874:	330c      	adds	r3, #12
 8006876:	637b      	str	r3, [r7, #52]	; 0x34
 8006878:	6afb      	ldr	r3, [r7, #44]	; 0x2c
 800687a:	0018      	movs	r0, r3
 800687c:	f7fe fda0 	bl	80053c0 <stm32__spi__current_mode>
 8006880:	0003      	movs	r3, r0
 8006882:	3b01      	subs	r3, #1
 8006884:	425a      	negs	r2, r3
 8006886:	4153      	adcs	r3, r2
 8006888:	b2db      	uxtb	r3, r3
 800688a:	2b00      	cmp	r3, #0
 800688c:	d102      	bne.n	8006894 <stm32__spi__send_8bit_mode+0xc0>
 800688e:	6bfb      	ldr	r3, [r7, #60]	; 0x3c
 8006890:	2b01      	cmp	r3, #1
 8006892:	d12a      	bne.n	80068ea <stm32__spi__send_8bit_mode+0x116>
 8006894:	6bbb      	ldr	r3, [r7, #56]	; 0x38
 8006896:	429c      	cmp	r4, r3
 8006898:	dc02      	bgt.n	80068a0 <stm32__spi__send_8bit_mode+0xcc>
 800689a:	6bbb      	ldr	r3, [r7, #56]	; 0x38
 800689c:	429d      	cmp	r5, r3
 800689e:	da05      	bge.n	80068ac <stm32__spi__send_8bit_mode+0xd8>
 80068a0:	4a3c      	ldr	r2, [pc, #240]	; (8006994 <stm32__spi__send_8bit_mode+0x1c0>)
 80068a2:	4b3a      	ldr	r3, [pc, #232]	; (800698c <stm32__spi__send_8bit_mode+0x1b8>)
 80068a4:	0011      	movs	r1, r2
 80068a6:	0018      	movs	r0, r3
 80068a8:	f001 ff26 	bl	80086f8 <__gnat_last_chance_handler>
 80068ac:	6a3a      	ldr	r2, [r7, #32]
 80068ae:	6bbb      	ldr	r3, [r7, #56]	; 0x38
 80068b0:	1b9b      	subs	r3, r3, r6
 80068b2:	5cd2      	ldrb	r2, [r2, r3]
 80068b4:	6b7b      	ldr	r3, [r7, #52]	; 0x34
 80068b6:	701a      	strb	r2, [r3, #0]
 80068b8:	6bbb      	ldr	r3, [r7, #56]	; 0x38
 80068ba:	4a37      	ldr	r2, [pc, #220]	; (8006998 <stm32__spi__send_8bit_mode+0x1c4>)
 80068bc:	4293      	cmp	r3, r2
 80068be:	d105      	bne.n	80068cc <stm32__spi__send_8bit_mode+0xf8>
 80068c0:	4a36      	ldr	r2, [pc, #216]	; (800699c <stm32__spi__send_8bit_mode+0x1c8>)
 80068c2:	4b32      	ldr	r3, [pc, #200]	; (800698c <stm32__spi__send_8bit_mode+0x1b8>)
 80068c4:	0011      	movs	r1, r2
 80068c6:	0018      	movs	r0, r3
 80068c8:	f001 ff16 	bl	80086f8 <__gnat_last_chance_handler>
 80068cc:	6bbb      	ldr	r3, [r7, #56]	; 0x38
 80068ce:	3301      	adds	r3, #1
 80068d0:	63bb      	str	r3, [r7, #56]	; 0x38
 80068d2:	6bfb      	ldr	r3, [r7, #60]	; 0x3c
 80068d4:	3b01      	subs	r3, #1
 80068d6:	2b00      	cmp	r3, #0
 80068d8:	da06      	bge.n	80068e8 <stm32__spi__send_8bit_mode+0x114>
 80068da:	23ec      	movs	r3, #236	; 0xec
 80068dc:	009a      	lsls	r2, r3, #2
 80068de:	4b2b      	ldr	r3, [pc, #172]	; (800698c <stm32__spi__send_8bit_mode+0x1b8>)
 80068e0:	0011      	movs	r1, r2
 80068e2:	0018      	movs	r0, r3
 80068e4:	f001 ff08 	bl	80086f8 <__gnat_last_chance_handler>
 80068e8:	63fb      	str	r3, [r7, #60]	; 0x3c
 80068ea:	6bfb      	ldr	r3, [r7, #60]	; 0x3c
 80068ec:	2b00      	cmp	r3, #0
 80068ee:	dd32      	ble.n	8006956 <stm32__spi__send_8bit_mode+0x182>
 80068f0:	6afb      	ldr	r3, [r7, #44]	; 0x2c
 80068f2:	0018      	movs	r0, r3
 80068f4:	f7fe fd2a 	bl	800534c <stm32__spi__tx_is_empty>
 80068f8:	1e03      	subs	r3, r0, #0
 80068fa:	d101      	bne.n	8006900 <stm32__spi__send_8bit_mode+0x12c>
 80068fc:	46c0      	nop			; (mov r8, r8)
 80068fe:	e7f7      	b.n	80068f0 <stm32__spi__send_8bit_mode+0x11c>
 8006900:	6bbb      	ldr	r3, [r7, #56]	; 0x38
 8006902:	429c      	cmp	r4, r3
 8006904:	dc02      	bgt.n	800690c <stm32__spi__send_8bit_mode+0x138>
 8006906:	6bbb      	ldr	r3, [r7, #56]	; 0x38
 8006908:	429d      	cmp	r5, r3
 800690a:	da05      	bge.n	8006918 <stm32__spi__send_8bit_mode+0x144>
 800690c:	4a24      	ldr	r2, [pc, #144]	; (80069a0 <stm32__spi__send_8bit_mode+0x1cc>)
 800690e:	4b1f      	ldr	r3, [pc, #124]	; (800698c <stm32__spi__send_8bit_mode+0x1b8>)
 8006910:	0011      	movs	r1, r2
 8006912:	0018      	movs	r0, r3
 8006914:	f001 fef0 	bl	80086f8 <__gnat_last_chance_handler>
 8006918:	6a3a      	ldr	r2, [r7, #32]
 800691a:	6bbb      	ldr	r3, [r7, #56]	; 0x38
 800691c:	1b9b      	subs	r3, r3, r6
 800691e:	5cd2      	ldrb	r2, [r2, r3]
 8006920:	6b7b      	ldr	r3, [r7, #52]	; 0x34
 8006922:	701a      	strb	r2, [r3, #0]
 8006924:	6bbb      	ldr	r3, [r7, #56]	; 0x38
 8006926:	4a1c      	ldr	r2, [pc, #112]	; (8006998 <stm32__spi__send_8bit_mode+0x1c4>)
 8006928:	4293      	cmp	r3, r2
 800692a:	d105      	bne.n	8006938 <stm32__spi__send_8bit_mode+0x164>
 800692c:	4a1d      	ldr	r2, [pc, #116]	; (80069a4 <stm32__spi__send_8bit_mode+0x1d0>)
 800692e:	4b17      	ldr	r3, [pc, #92]	; (800698c <stm32__spi__send_8bit_mode+0x1b8>)
 8006930:	0011      	movs	r1, r2
 8006932:	0018      	movs	r0, r3
 8006934:	f001 fee0 	bl	80086f8 <__gnat_last_chance_handler>
 8006938:	6bbb      	ldr	r3, [r7, #56]	; 0x38
 800693a:	3301      	adds	r3, #1
 800693c:	63bb      	str	r3, [r7, #56]	; 0x38
 800693e:	6bfb      	ldr	r3, [r7, #60]	; 0x3c
 8006940:	3b01      	subs	r3, #1
 8006942:	2b00      	cmp	r3, #0
 8006944:	da05      	bge.n	8006952 <stm32__spi__send_8bit_mode+0x17e>
 8006946:	4a18      	ldr	r2, [pc, #96]	; (80069a8 <stm32__spi__send_8bit_mode+0x1d4>)
 8006948:	4b10      	ldr	r3, [pc, #64]	; (800698c <stm32__spi__send_8bit_mode+0x1b8>)
 800694a:	0011      	movs	r1, r2
 800694c:	0018      	movs	r0, r3
 800694e:	f001 fed3 	bl	80086f8 <__gnat_last_chance_handler>
 8006952:	63fb      	str	r3, [r7, #60]	; 0x3c
 8006954:	e7c9      	b.n	80068ea <stm32__spi__send_8bit_mode+0x116>
 8006956:	6afb      	ldr	r3, [r7, #44]	; 0x2c
 8006958:	0018      	movs	r0, r3
 800695a:	f7fe fd8b 	bl	8005474 <stm32__spi__crc_enabled>
 800695e:	1e03      	subs	r3, r0, #0
 8006960:	d00c      	beq.n	800697c <stm32__spi__send_8bit_mode+0x1a8>
 8006962:	6afb      	ldr	r3, [r7, #44]	; 0x2c
 8006964:	685b      	ldr	r3, [r3, #4]
 8006966:	881b      	ldrh	r3, [r3, #0]
 8006968:	b29b      	uxth	r3, r3
 800696a:	1c1a      	adds	r2, r3, #0
 800696c:	2380      	movs	r3, #128	; 0x80
 800696e:	015b      	lsls	r3, r3, #5
 8006970:	4313      	orrs	r3, r2
 8006972:	1c1a      	adds	r2, r3, #0
 8006974:	6afb      	ldr	r3, [r7, #44]	; 0x2c
 8006976:	685b      	ldr	r3, [r3, #4]
 8006978:	b292      	uxth	r2, r2
 800697a:	801a      	strh	r2, [r3, #0]
 800697c:	46bd      	mov	sp, r7
 800697e:	b011      	add	sp, #68	; 0x44
 8006980:	bdf0      	pop	{r4, r5, r6, r7, pc}
 8006982:	46c0      	nop			; (mov r8, r8)
 8006984:	7ffffffe 	.word	0x7ffffffe
 8006988:	000003a9 	.word	0x000003a9
 800698c:	08009954 	.word	0x08009954
 8006990:	000003aa 	.word	0x000003aa
 8006994:	000003ae 	.word	0x000003ae
 8006998:	7fffffff 	.word	0x7fffffff
 800699c:	000003af 	.word	0x000003af
 80069a0:	000003b9 	.word	0x000003b9
 80069a4:	000003ba 	.word	0x000003ba
 80069a8:	000003bb 	.word	0x000003bb

080069ac <stm32__spi__receive_16bit_mode>:
 80069ac:	b5f0      	push	{r4, r5, r6, r7, lr}
 80069ae:	46c6      	mov	lr, r8
 80069b0:	b500      	push	{lr}
 80069b2:	b086      	sub	sp, #24
 80069b4:	af00      	add	r7, sp, #0
 80069b6:	60f8      	str	r0, [r7, #12]
 80069b8:	6039      	str	r1, [r7, #0]
 80069ba:	607a      	str	r2, [r7, #4]
 80069bc:	687b      	ldr	r3, [r7, #4]
 80069be:	681b      	ldr	r3, [r3, #0]
 80069c0:	001e      	movs	r6, r3
 80069c2:	68fb      	ldr	r3, [r7, #12]
 80069c4:	0018      	movs	r0, r3
 80069c6:	f7fe fcfb 	bl	80053c0 <stm32__spi__current_mode>
 80069ca:	0003      	movs	r3, r0
 80069cc:	001a      	movs	r2, r3
 80069ce:	2317      	movs	r3, #23
 80069d0:	18fb      	adds	r3, r7, r3
 80069d2:	4251      	negs	r1, r2
 80069d4:	414a      	adcs	r2, r1
 80069d6:	701a      	strb	r2, [r3, #0]
 80069d8:	687b      	ldr	r3, [r7, #4]
 80069da:	681c      	ldr	r4, [r3, #0]
 80069dc:	687b      	ldr	r3, [r7, #4]
 80069de:	685d      	ldr	r5, [r3, #4]
 80069e0:	42ac      	cmp	r4, r5
 80069e2:	dc29      	bgt.n	8006a38 <stm32__spi__receive_16bit_mode+0x8c>
 80069e4:	683a      	ldr	r2, [r7, #0]
 80069e6:	46a0      	mov	r8, r4
 80069e8:	4643      	mov	r3, r8
 80069ea:	1b9b      	subs	r3, r3, r6
 80069ec:	005b      	lsls	r3, r3, #1
 80069ee:	18d3      	adds	r3, r2, r3
 80069f0:	613b      	str	r3, [r7, #16]
 80069f2:	2317      	movs	r3, #23
 80069f4:	18fb      	adds	r3, r7, r3
 80069f6:	781b      	ldrb	r3, [r3, #0]
 80069f8:	2b00      	cmp	r3, #0
 80069fa:	d003      	beq.n	8006a04 <stm32__spi__receive_16bit_mode+0x58>
 80069fc:	68fb      	ldr	r3, [r7, #12]
 80069fe:	685b      	ldr	r3, [r3, #4]
 8006a00:	2200      	movs	r2, #0
 8006a02:	819a      	strh	r2, [r3, #12]
 8006a04:	68fb      	ldr	r3, [r7, #12]
 8006a06:	0018      	movs	r0, r3
 8006a08:	f7fe fcb2 	bl	8005370 <stm32__spi__rx_is_empty>
 8006a0c:	0003      	movs	r3, r0
 8006a0e:	001a      	movs	r2, r3
 8006a10:	2301      	movs	r3, #1
 8006a12:	4053      	eors	r3, r2
 8006a14:	b2db      	uxtb	r3, r3
 8006a16:	2b00      	cmp	r3, #0
 8006a18:	d101      	bne.n	8006a1e <stm32__spi__receive_16bit_mode+0x72>
 8006a1a:	46c0      	nop			; (mov r8, r8)
 8006a1c:	e7f2      	b.n	8006a04 <stm32__spi__receive_16bit_mode+0x58>
 8006a1e:	68fb      	ldr	r3, [r7, #12]
 8006a20:	685a      	ldr	r2, [r3, #4]
 8006a22:	683b      	ldr	r3, [r7, #0]
 8006a24:	8992      	ldrh	r2, [r2, #12]
 8006a26:	b291      	uxth	r1, r2
 8006a28:	4642      	mov	r2, r8
 8006a2a:	1b92      	subs	r2, r2, r6
 8006a2c:	0052      	lsls	r2, r2, #1
 8006a2e:	52d1      	strh	r1, [r2, r3]
 8006a30:	42ac      	cmp	r4, r5
 8006a32:	d001      	beq.n	8006a38 <stm32__spi__receive_16bit_mode+0x8c>
 8006a34:	3401      	adds	r4, #1
 8006a36:	e7d5      	b.n	80069e4 <stm32__spi__receive_16bit_mode+0x38>
 8006a38:	46bd      	mov	sp, r7
 8006a3a:	b006      	add	sp, #24
 8006a3c:	bc04      	pop	{r2}
 8006a3e:	4690      	mov	r8, r2
 8006a40:	bdf0      	pop	{r4, r5, r6, r7, pc}
 8006a42:	46c0      	nop			; (mov r8, r8)

08006a44 <stm32__spi__receive_8bit_mode>:
 8006a44:	b5f0      	push	{r4, r5, r6, r7, lr}
 8006a46:	46c6      	mov	lr, r8
 8006a48:	b500      	push	{lr}
 8006a4a:	b088      	sub	sp, #32
 8006a4c:	af00      	add	r7, sp, #0
 8006a4e:	60f8      	str	r0, [r7, #12]
 8006a50:	6039      	str	r1, [r7, #0]
 8006a52:	607a      	str	r2, [r7, #4]
 8006a54:	687b      	ldr	r3, [r7, #4]
 8006a56:	681b      	ldr	r3, [r3, #0]
 8006a58:	001e      	movs	r6, r3
 8006a5a:	68fb      	ldr	r3, [r7, #12]
 8006a5c:	0018      	movs	r0, r3
 8006a5e:	f7fe fcaf 	bl	80053c0 <stm32__spi__current_mode>
 8006a62:	0003      	movs	r3, r0
 8006a64:	425a      	negs	r2, r3
 8006a66:	4153      	adcs	r3, r2
 8006a68:	b2da      	uxtb	r2, r3
 8006a6a:	68fb      	ldr	r3, [r7, #12]
 8006a6c:	685b      	ldr	r3, [r3, #4]
 8006a6e:	881b      	ldrh	r3, [r3, #0]
 8006a70:	b29b      	uxth	r3, r3
 8006a72:	041b      	lsls	r3, r3, #16
 8006a74:	0e1b      	lsrs	r3, r3, #24
 8006a76:	b2db      	uxtb	r3, r3
 8006a78:	b25b      	sxtb	r3, r3
 8006a7a:	43db      	mvns	r3, r3
 8006a7c:	b2db      	uxtb	r3, r3
 8006a7e:	09db      	lsrs	r3, r3, #7
 8006a80:	b2d9      	uxtb	r1, r3
 8006a82:	231f      	movs	r3, #31
 8006a84:	18fb      	adds	r3, r7, r3
 8006a86:	400a      	ands	r2, r1
 8006a88:	701a      	strb	r2, [r3, #0]
 8006a8a:	68fb      	ldr	r3, [r7, #12]
 8006a8c:	685b      	ldr	r3, [r3, #4]
 8006a8e:	330c      	adds	r3, #12
 8006a90:	61bb      	str	r3, [r7, #24]
 8006a92:	687b      	ldr	r3, [r7, #4]
 8006a94:	681c      	ldr	r4, [r3, #0]
 8006a96:	687b      	ldr	r3, [r7, #4]
 8006a98:	685d      	ldr	r5, [r3, #4]
 8006a9a:	42ac      	cmp	r4, r5
 8006a9c:	dc25      	bgt.n	8006aea <stm32__spi__receive_8bit_mode+0xa6>
 8006a9e:	683a      	ldr	r2, [r7, #0]
 8006aa0:	46a0      	mov	r8, r4
 8006aa2:	4643      	mov	r3, r8
 8006aa4:	1b9b      	subs	r3, r3, r6
 8006aa6:	18d3      	adds	r3, r2, r3
 8006aa8:	617b      	str	r3, [r7, #20]
 8006aaa:	231f      	movs	r3, #31
 8006aac:	18fb      	adds	r3, r7, r3
 8006aae:	781b      	ldrb	r3, [r3, #0]
 8006ab0:	2b00      	cmp	r3, #0
 8006ab2:	d002      	beq.n	8006aba <stm32__spi__receive_8bit_mode+0x76>
 8006ab4:	69bb      	ldr	r3, [r7, #24]
 8006ab6:	2200      	movs	r2, #0
 8006ab8:	701a      	strb	r2, [r3, #0]
 8006aba:	68fb      	ldr	r3, [r7, #12]
 8006abc:	0018      	movs	r0, r3
 8006abe:	f7fe fc57 	bl	8005370 <stm32__spi__rx_is_empty>
 8006ac2:	0003      	movs	r3, r0
 8006ac4:	001a      	movs	r2, r3
 8006ac6:	2301      	movs	r3, #1
 8006ac8:	4053      	eors	r3, r2
 8006aca:	b2db      	uxtb	r3, r3
 8006acc:	2b00      	cmp	r3, #0
 8006ace:	d101      	bne.n	8006ad4 <stm32__spi__receive_8bit_mode+0x90>
 8006ad0:	46c0      	nop			; (mov r8, r8)
 8006ad2:	e7f2      	b.n	8006aba <stm32__spi__receive_8bit_mode+0x76>
 8006ad4:	683a      	ldr	r2, [r7, #0]
 8006ad6:	69bb      	ldr	r3, [r7, #24]
 8006ad8:	781b      	ldrb	r3, [r3, #0]
 8006ada:	b2d9      	uxtb	r1, r3
 8006adc:	4643      	mov	r3, r8
 8006ade:	1b9b      	subs	r3, r3, r6
 8006ae0:	54d1      	strb	r1, [r2, r3]
 8006ae2:	42ac      	cmp	r4, r5
 8006ae4:	d001      	beq.n	8006aea <stm32__spi__receive_8bit_mode+0xa6>
 8006ae6:	3401      	adds	r4, #1
 8006ae8:	e7d9      	b.n	8006a9e <stm32__spi__receive_8bit_mode+0x5a>
 8006aea:	46bd      	mov	sp, r7
 8006aec:	b008      	add	sp, #32
 8006aee:	bc04      	pop	{r2}
 8006af0:	4690      	mov	r8, r2
 8006af2:	bdf0      	pop	{r4, r5, r6, r7, pc}

08006af4 <stm32__spi__transmit_receive>:
 8006af4:	b082      	sub	sp, #8
 8006af6:	b5f0      	push	{r4, r5, r6, r7, lr}
 8006af8:	46ce      	mov	lr, r9
 8006afa:	4647      	mov	r7, r8
 8006afc:	b580      	push	{r7, lr}
 8006afe:	b0a5      	sub	sp, #148	; 0x94
 8006b00:	af02      	add	r7, sp, #8
 8006b02:	66f8      	str	r0, [r7, #108]	; 0x6c
 8006b04:	6639      	str	r1, [r7, #96]	; 0x60
 8006b06:	667a      	str	r2, [r7, #100]	; 0x64
 8006b08:	22ac      	movs	r2, #172	; 0xac
 8006b0a:	18ba      	adds	r2, r7, r2
 8006b0c:	6013      	str	r3, [r2, #0]
 8006b0e:	2308      	movs	r3, #8
 8006b10:	2250      	movs	r2, #80	; 0x50
 8006b12:	18ba      	adds	r2, r7, r2
 8006b14:	18d2      	adds	r2, r2, r3
 8006b16:	2304      	movs	r3, #4
 8006b18:	2158      	movs	r1, #88	; 0x58
 8006b1a:	468c      	mov	ip, r1
 8006b1c:	2150      	movs	r1, #80	; 0x50
 8006b1e:	4688      	mov	r8, r1
 8006b20:	44b8      	add	r8, r7
 8006b22:	44c4      	add	ip, r8
 8006b24:	4463      	add	r3, ip
 8006b26:	cb03      	ldmia	r3!, {r0, r1}
 8006b28:	c203      	stmia	r2!, {r0, r1}
 8006b2a:	6e7b      	ldr	r3, [r7, #100]	; 0x64
 8006b2c:	681b      	ldr	r3, [r3, #0]
 8006b2e:	4698      	mov	r8, r3
 8006b30:	6e7b      	ldr	r3, [r7, #100]	; 0x64
 8006b32:	685b      	ldr	r3, [r3, #4]
 8006b34:	4699      	mov	r9, r3
 8006b36:	6e7b      	ldr	r3, [r7, #100]	; 0x64
 8006b38:	685a      	ldr	r2, [r3, #4]
 8006b3a:	6e7b      	ldr	r3, [r7, #100]	; 0x64
 8006b3c:	681b      	ldr	r3, [r3, #0]
 8006b3e:	429a      	cmp	r2, r3
 8006b40:	db14      	blt.n	8006b6c <stm32__spi__transmit_receive+0x78>
 8006b42:	6e7b      	ldr	r3, [r7, #100]	; 0x64
 8006b44:	685b      	ldr	r3, [r3, #4]
 8006b46:	64bb      	str	r3, [r7, #72]	; 0x48
 8006b48:	17db      	asrs	r3, r3, #31
 8006b4a:	64fb      	str	r3, [r7, #76]	; 0x4c
 8006b4c:	6e7b      	ldr	r3, [r7, #100]	; 0x64
 8006b4e:	681b      	ldr	r3, [r3, #0]
 8006b50:	001c      	movs	r4, r3
 8006b52:	17db      	asrs	r3, r3, #31
 8006b54:	001d      	movs	r5, r3
 8006b56:	6cb9      	ldr	r1, [r7, #72]	; 0x48
 8006b58:	6cfa      	ldr	r2, [r7, #76]	; 0x4c
 8006b5a:	1b09      	subs	r1, r1, r4
 8006b5c:	41aa      	sbcs	r2, r5
 8006b5e:	2301      	movs	r3, #1
 8006b60:	2400      	movs	r4, #0
 8006b62:	18c9      	adds	r1, r1, r3
 8006b64:	4162      	adcs	r2, r4
 8006b66:	000d      	movs	r5, r1
 8006b68:	0016      	movs	r6, r2
 8006b6a:	e001      	b.n	8006b70 <stm32__spi__transmit_receive+0x7c>
 8006b6c:	2500      	movs	r5, #0
 8006b6e:	2600      	movs	r6, #0
 8006b70:	6efb      	ldr	r3, [r7, #108]	; 0x6c
 8006b72:	0018      	movs	r0, r3
 8006b74:	f7fe fd22 	bl	80055bc <stm32__spi__data_size>
 8006b78:	0003      	movs	r3, r0
 8006b7a:	1e5a      	subs	r2, r3, #1
 8006b7c:	4193      	sbcs	r3, r2
 8006b7e:	b2d8      	uxtb	r0, r3
 8006b80:	6dfb      	ldr	r3, [r7, #92]	; 0x5c
 8006b82:	685a      	ldr	r2, [r3, #4]
 8006b84:	6dfb      	ldr	r3, [r7, #92]	; 0x5c
 8006b86:	681b      	ldr	r3, [r3, #0]
 8006b88:	429a      	cmp	r2, r3
 8006b8a:	db14      	blt.n	8006bb6 <stm32__spi__transmit_receive+0xc2>
 8006b8c:	6dfb      	ldr	r3, [r7, #92]	; 0x5c
 8006b8e:	685b      	ldr	r3, [r3, #4]
 8006b90:	643b      	str	r3, [r7, #64]	; 0x40
 8006b92:	17db      	asrs	r3, r3, #31
 8006b94:	647b      	str	r3, [r7, #68]	; 0x44
 8006b96:	6dfb      	ldr	r3, [r7, #92]	; 0x5c
 8006b98:	681b      	ldr	r3, [r3, #0]
 8006b9a:	63bb      	str	r3, [r7, #56]	; 0x38
 8006b9c:	17db      	asrs	r3, r3, #31
 8006b9e:	63fb      	str	r3, [r7, #60]	; 0x3c
 8006ba0:	6c39      	ldr	r1, [r7, #64]	; 0x40
 8006ba2:	6c7a      	ldr	r2, [r7, #68]	; 0x44
 8006ba4:	6bbb      	ldr	r3, [r7, #56]	; 0x38
 8006ba6:	6bfc      	ldr	r4, [r7, #60]	; 0x3c
 8006ba8:	1ac9      	subs	r1, r1, r3
 8006baa:	41a2      	sbcs	r2, r4
 8006bac:	2301      	movs	r3, #1
 8006bae:	2400      	movs	r4, #0
 8006bb0:	185b      	adds	r3, r3, r1
 8006bb2:	4154      	adcs	r4, r2
 8006bb4:	e001      	b.n	8006bba <stm32__spi__transmit_receive+0xc6>
 8006bb6:	2300      	movs	r3, #0
 8006bb8:	2400      	movs	r4, #0
 8006bba:	2201      	movs	r2, #1
 8006bbc:	429d      	cmp	r5, r3
 8006bbe:	d103      	bne.n	8006bc8 <stm32__spi__transmit_receive+0xd4>
 8006bc0:	42a6      	cmp	r6, r4
 8006bc2:	d101      	bne.n	8006bc8 <stm32__spi__transmit_receive+0xd4>
 8006bc4:	2300      	movs	r3, #0
 8006bc6:	1c1a      	adds	r2, r3, #0
 8006bc8:	b2d3      	uxtb	r3, r2
 8006bca:	4303      	orrs	r3, r0
 8006bcc:	b2db      	uxtb	r3, r3
 8006bce:	2b00      	cmp	r3, #0
 8006bd0:	d007      	beq.n	8006be2 <stm32__spi__transmit_receive+0xee>
 8006bd2:	4b5a      	ldr	r3, [pc, #360]	; (8006d3c <stm32__spi__transmit_receive+0x248>)
 8006bd4:	603b      	str	r3, [r7, #0]
 8006bd6:	4b5a      	ldr	r3, [pc, #360]	; (8006d40 <stm32__spi__transmit_receive+0x24c>)
 8006bd8:	607b      	str	r3, [r7, #4]
 8006bda:	6838      	ldr	r0, [r7, #0]
 8006bdc:	6879      	ldr	r1, [r7, #4]
 8006bde:	f001 ffd9 	bl	8008b94 <system__assertions__raise_assert_failure>
 8006be2:	4643      	mov	r3, r8
 8006be4:	2b00      	cmp	r3, #0
 8006be6:	da06      	bge.n	8006bf6 <stm32__spi__transmit_receive+0x102>
 8006be8:	23fe      	movs	r3, #254	; 0xfe
 8006bea:	009a      	lsls	r2, r3, #2
 8006bec:	4b55      	ldr	r3, [pc, #340]	; (8006d44 <stm32__spi__transmit_receive+0x250>)
 8006bee:	0011      	movs	r1, r2
 8006bf0:	0018      	movs	r0, r3
 8006bf2:	f001 fd81 	bl	80086f8 <__gnat_last_chance_handler>
 8006bf6:	6dfb      	ldr	r3, [r7, #92]	; 0x5c
 8006bf8:	681b      	ldr	r3, [r3, #0]
 8006bfa:	2b00      	cmp	r3, #0
 8006bfc:	da06      	bge.n	8006c0c <stm32__spi__transmit_receive+0x118>
 8006bfe:	23fe      	movs	r3, #254	; 0xfe
 8006c00:	009a      	lsls	r2, r3, #2
 8006c02:	4b50      	ldr	r3, [pc, #320]	; (8006d44 <stm32__spi__transmit_receive+0x250>)
 8006c04:	0011      	movs	r1, r2
 8006c06:	0018      	movs	r0, r3
 8006c08:	f001 fd76 	bl	80086f8 <__gnat_last_chance_handler>
 8006c0c:	6dfb      	ldr	r3, [r7, #92]	; 0x5c
 8006c0e:	685a      	ldr	r2, [r3, #4]
 8006c10:	6dfb      	ldr	r3, [r7, #92]	; 0x5c
 8006c12:	681b      	ldr	r3, [r3, #0]
 8006c14:	429a      	cmp	r2, r3
 8006c16:	db2d      	blt.n	8006c74 <stm32__spi__transmit_receive+0x180>
 8006c18:	6dfb      	ldr	r3, [r7, #92]	; 0x5c
 8006c1a:	685b      	ldr	r3, [r3, #4]
 8006c1c:	633b      	str	r3, [r7, #48]	; 0x30
 8006c1e:	17db      	asrs	r3, r3, #31
 8006c20:	637b      	str	r3, [r7, #52]	; 0x34
 8006c22:	6dfb      	ldr	r3, [r7, #92]	; 0x5c
 8006c24:	681b      	ldr	r3, [r3, #0]
 8006c26:	62bb      	str	r3, [r7, #40]	; 0x28
 8006c28:	17db      	asrs	r3, r3, #31
 8006c2a:	62fb      	str	r3, [r7, #44]	; 0x2c
 8006c2c:	6b3b      	ldr	r3, [r7, #48]	; 0x30
 8006c2e:	6b7c      	ldr	r4, [r7, #52]	; 0x34
 8006c30:	6ab9      	ldr	r1, [r7, #40]	; 0x28
 8006c32:	6afa      	ldr	r2, [r7, #44]	; 0x2c
 8006c34:	1a5b      	subs	r3, r3, r1
 8006c36:	4194      	sbcs	r4, r2
 8006c38:	2c00      	cmp	r4, #0
 8006c3a:	db1b      	blt.n	8006c74 <stm32__spi__transmit_receive+0x180>
 8006c3c:	6dfb      	ldr	r3, [r7, #92]	; 0x5c
 8006c3e:	685a      	ldr	r2, [r3, #4]
 8006c40:	6dfb      	ldr	r3, [r7, #92]	; 0x5c
 8006c42:	681b      	ldr	r3, [r3, #0]
 8006c44:	429a      	cmp	r2, r3
 8006c46:	db1c      	blt.n	8006c82 <stm32__spi__transmit_receive+0x18e>
 8006c48:	6dfb      	ldr	r3, [r7, #92]	; 0x5c
 8006c4a:	685b      	ldr	r3, [r3, #4]
 8006c4c:	623b      	str	r3, [r7, #32]
 8006c4e:	17db      	asrs	r3, r3, #31
 8006c50:	627b      	str	r3, [r7, #36]	; 0x24
 8006c52:	6dfb      	ldr	r3, [r7, #92]	; 0x5c
 8006c54:	681b      	ldr	r3, [r3, #0]
 8006c56:	61bb      	str	r3, [r7, #24]
 8006c58:	17db      	asrs	r3, r3, #31
 8006c5a:	61fb      	str	r3, [r7, #28]
 8006c5c:	6a3b      	ldr	r3, [r7, #32]
 8006c5e:	6a7c      	ldr	r4, [r7, #36]	; 0x24
 8006c60:	69b9      	ldr	r1, [r7, #24]
 8006c62:	69fa      	ldr	r2, [r7, #28]
 8006c64:	1a5b      	subs	r3, r3, r1
 8006c66:	4194      	sbcs	r4, r2
 8006c68:	2c00      	cmp	r4, #0
 8006c6a:	dc03      	bgt.n	8006c74 <stm32__spi__transmit_receive+0x180>
 8006c6c:	d109      	bne.n	8006c82 <stm32__spi__transmit_receive+0x18e>
 8006c6e:	4a36      	ldr	r2, [pc, #216]	; (8006d48 <stm32__spi__transmit_receive+0x254>)
 8006c70:	4293      	cmp	r3, r2
 8006c72:	d906      	bls.n	8006c82 <stm32__spi__transmit_receive+0x18e>
 8006c74:	23fe      	movs	r3, #254	; 0xfe
 8006c76:	009a      	lsls	r2, r3, #2
 8006c78:	4b32      	ldr	r3, [pc, #200]	; (8006d44 <stm32__spi__transmit_receive+0x250>)
 8006c7a:	0011      	movs	r1, r2
 8006c7c:	0018      	movs	r0, r3
 8006c7e:	f001 fd3b 	bl	80086f8 <__gnat_last_chance_handler>
 8006c82:	6dfb      	ldr	r3, [r7, #92]	; 0x5c
 8006c84:	681b      	ldr	r3, [r3, #0]
 8006c86:	2b00      	cmp	r3, #0
 8006c88:	da06      	bge.n	8006c98 <stm32__spi__transmit_receive+0x1a4>
 8006c8a:	23fe      	movs	r3, #254	; 0xfe
 8006c8c:	009a      	lsls	r2, r3, #2
 8006c8e:	4b2d      	ldr	r3, [pc, #180]	; (8006d44 <stm32__spi__transmit_receive+0x250>)
 8006c90:	0011      	movs	r1, r2
 8006c92:	0018      	movs	r0, r3
 8006c94:	f001 fd30 	bl	80086f8 <__gnat_last_chance_handler>
 8006c98:	6e3b      	ldr	r3, [r7, #96]	; 0x60
 8006c9a:	60bb      	str	r3, [r7, #8]
 8006c9c:	2228      	movs	r2, #40	; 0x28
 8006c9e:	2050      	movs	r0, #80	; 0x50
 8006ca0:	183b      	adds	r3, r7, r0
 8006ca2:	189b      	adds	r3, r3, r2
 8006ca4:	4641      	mov	r1, r8
 8006ca6:	6019      	str	r1, [r3, #0]
 8006ca8:	183b      	adds	r3, r7, r0
 8006caa:	189b      	adds	r3, r3, r2
 8006cac:	4649      	mov	r1, r9
 8006cae:	6059      	str	r1, [r3, #4]
 8006cb0:	183b      	adds	r3, r7, r0
 8006cb2:	189b      	adds	r3, r3, r2
 8006cb4:	60fb      	str	r3, [r7, #12]
 8006cb6:	6dbb      	ldr	r3, [r7, #88]	; 0x58
 8006cb8:	613b      	str	r3, [r7, #16]
 8006cba:	6dfb      	ldr	r3, [r7, #92]	; 0x5c
 8006cbc:	681a      	ldr	r2, [r3, #0]
 8006cbe:	2130      	movs	r1, #48	; 0x30
 8006cc0:	183b      	adds	r3, r7, r0
 8006cc2:	185b      	adds	r3, r3, r1
 8006cc4:	601a      	str	r2, [r3, #0]
 8006cc6:	6dfb      	ldr	r3, [r7, #92]	; 0x5c
 8006cc8:	685a      	ldr	r2, [r3, #4]
 8006cca:	183b      	adds	r3, r7, r0
 8006ccc:	185b      	adds	r3, r3, r1
 8006cce:	605a      	str	r2, [r3, #4]
 8006cd0:	183b      	adds	r3, r7, r0
 8006cd2:	185b      	adds	r3, r3, r1
 8006cd4:	617b      	str	r3, [r7, #20]
 8006cd6:	6dfb      	ldr	r3, [r7, #92]	; 0x5c
 8006cd8:	685a      	ldr	r2, [r3, #4]
 8006cda:	6dfb      	ldr	r3, [r7, #92]	; 0x5c
 8006cdc:	681b      	ldr	r3, [r3, #0]
 8006cde:	429a      	cmp	r2, r3
 8006ce0:	db07      	blt.n	8006cf2 <stm32__spi__transmit_receive+0x1fe>
 8006ce2:	6dfb      	ldr	r3, [r7, #92]	; 0x5c
 8006ce4:	685b      	ldr	r3, [r3, #4]
 8006ce6:	001a      	movs	r2, r3
 8006ce8:	6dfb      	ldr	r3, [r7, #92]	; 0x5c
 8006cea:	681b      	ldr	r3, [r3, #0]
 8006cec:	1ad3      	subs	r3, r2, r3
 8006cee:	3301      	adds	r3, #1
 8006cf0:	e000      	b.n	8006cf4 <stm32__spi__transmit_receive+0x200>
 8006cf2:	2300      	movs	r3, #0
 8006cf4:	6ef8      	ldr	r0, [r7, #108]	; 0x6c
 8006cf6:	9301      	str	r3, [sp, #4]
 8006cf8:	693c      	ldr	r4, [r7, #16]
 8006cfa:	697d      	ldr	r5, [r7, #20]
 8006cfc:	653c      	str	r4, [r7, #80]	; 0x50
 8006cfe:	657d      	str	r5, [r7, #84]	; 0x54
 8006d00:	2354      	movs	r3, #84	; 0x54
 8006d02:	18fb      	adds	r3, r7, r3
 8006d04:	466a      	mov	r2, sp
 8006d06:	681b      	ldr	r3, [r3, #0]
 8006d08:	6013      	str	r3, [r2, #0]
 8006d0a:	0023      	movs	r3, r4
 8006d0c:	68b9      	ldr	r1, [r7, #8]
 8006d0e:	68fa      	ldr	r2, [r7, #12]
 8006d10:	f7ff faac 	bl	800626c <stm32__spi__send_receive_8bit_mode>
 8006d14:	2127      	movs	r1, #39	; 0x27
 8006d16:	2050      	movs	r0, #80	; 0x50
 8006d18:	183b      	adds	r3, r7, r0
 8006d1a:	185b      	adds	r3, r3, r1
 8006d1c:	2200      	movs	r2, #0
 8006d1e:	701a      	strb	r2, [r3, #0]
 8006d20:	183b      	adds	r3, r7, r0
 8006d22:	185b      	adds	r3, r3, r1
 8006d24:	781b      	ldrb	r3, [r3, #0]
 8006d26:	46c0      	nop			; (mov r8, r8)
 8006d28:	0018      	movs	r0, r3
 8006d2a:	46bd      	mov	sp, r7
 8006d2c:	b023      	add	sp, #140	; 0x8c
 8006d2e:	bc0c      	pop	{r2, r3}
 8006d30:	4690      	mov	r8, r2
 8006d32:	4699      	mov	r9, r3
 8006d34:	bcf0      	pop	{r4, r5, r6, r7}
 8006d36:	bc08      	pop	{r3}
 8006d38:	b002      	add	sp, #8
 8006d3a:	4718      	bx	r3
 8006d3c:	08009a3c 	.word	0x08009a3c
 8006d40:	08009998 	.word	0x08009998
 8006d44:	08009954 	.word	0x08009954
 8006d48:	7ffffffe 	.word	0x7ffffffe

08006d4c <stm32__syscfg__connect_external_interrupt__4>:
 8006d4c:	b580      	push	{r7, lr}
 8006d4e:	b082      	sub	sp, #8
 8006d50:	af00      	add	r7, sp, #0
 8006d52:	6078      	str	r0, [r7, #4]
 8006d54:	6039      	str	r1, [r7, #0]
 8006d56:	46c0      	nop			; (mov r8, r8)
 8006d58:	46bd      	mov	sp, r7
 8006d5a:	b002      	add	sp, #8
 8006d5c:	bd80      	pop	{r7, pc}
 8006d5e:	46c0      	nop			; (mov r8, r8)

08006d60 <stm32__syscfg__connect_external_interrupt>:
 8006d60:	b580      	push	{r7, lr}
 8006d62:	b082      	sub	sp, #8
 8006d64:	af00      	add	r7, sp, #0
 8006d66:	6078      	str	r0, [r7, #4]
 8006d68:	000a      	movs	r2, r1
 8006d6a:	1cbb      	adds	r3, r7, #2
 8006d6c:	801a      	strh	r2, [r3, #0]
 8006d6e:	1cbb      	adds	r3, r7, #2
 8006d70:	881b      	ldrh	r3, [r3, #0]
 8006d72:	2101      	movs	r1, #1
 8006d74:	0018      	movs	r0, r3
 8006d76:	f7fa f969 	bl	800104c <stm32__gpio__gpio_pinRP>
 8006d7a:	1e03      	subs	r3, r0, #0
 8006d7c:	db01      	blt.n	8006d82 <stm32__syscfg__connect_external_interrupt+0x22>
 8006d7e:	2b0f      	cmp	r3, #15
 8006d80:	dd04      	ble.n	8006d8c <stm32__syscfg__connect_external_interrupt+0x2c>
 8006d82:	4b06      	ldr	r3, [pc, #24]	; (8006d9c <stm32__syscfg__connect_external_interrupt+0x3c>)
 8006d84:	2152      	movs	r1, #82	; 0x52
 8006d86:	0018      	movs	r0, r3
 8006d88:	f001 fcb6 	bl	80086f8 <__gnat_last_chance_handler>
 8006d8c:	687a      	ldr	r2, [r7, #4]
 8006d8e:	0019      	movs	r1, r3
 8006d90:	0010      	movs	r0, r2
 8006d92:	f7ff ffdb 	bl	8006d4c <stm32__syscfg__connect_external_interrupt__4>
 8006d96:	46bd      	mov	sp, r7
 8006d98:	b002      	add	sp, #8
 8006d9a:	bd80      	pop	{r7, pc}
 8006d9c:	08009b60 	.word	0x08009b60

08006da0 <stm32__syscfg__connect_external_interrupt__2>:
 8006da0:	b580      	push	{r7, lr}
 8006da2:	b082      	sub	sp, #8
 8006da4:	af00      	add	r7, sp, #0
 8006da6:	6078      	str	r0, [r7, #4]
 8006da8:	687b      	ldr	r3, [r7, #4]
 8006daa:	685b      	ldr	r3, [r3, #4]
 8006dac:	2b00      	cmp	r3, #0
 8006dae:	d104      	bne.n	8006dba <stm32__syscfg__connect_external_interrupt__2+0x1a>
 8006db0:	4b07      	ldr	r3, [pc, #28]	; (8006dd0 <stm32__syscfg__connect_external_interrupt__2+0x30>)
 8006db2:	215d      	movs	r1, #93	; 0x5d
 8006db4:	0018      	movs	r0, r3
 8006db6:	f001 fc9f 	bl	80086f8 <__gnat_last_chance_handler>
 8006dba:	687b      	ldr	r3, [r7, #4]
 8006dbc:	685a      	ldr	r2, [r3, #4]
 8006dbe:	687b      	ldr	r3, [r7, #4]
 8006dc0:	891b      	ldrh	r3, [r3, #8]
 8006dc2:	0019      	movs	r1, r3
 8006dc4:	0010      	movs	r0, r2
 8006dc6:	f7ff ffcb 	bl	8006d60 <stm32__syscfg__connect_external_interrupt>
 8006dca:	46bd      	mov	sp, r7
 8006dcc:	b002      	add	sp, #8
 8006dce:	bd80      	pop	{r7, pc}
 8006dd0:	08009b60 	.word	0x08009b60

08006dd4 <stm32_svd__spi__spi_sr_registerIP>:
 8006dd4:	b580      	push	{r7, lr}
 8006dd6:	b082      	sub	sp, #8
 8006dd8:	af00      	add	r7, sp, #0
 8006dda:	6078      	str	r0, [r7, #4]
 8006ddc:	687b      	ldr	r3, [r7, #4]
 8006dde:	881b      	ldrh	r3, [r3, #0]
 8006de0:	b29b      	uxth	r3, r3
 8006de2:	2201      	movs	r2, #1
 8006de4:	4393      	bics	r3, r2
 8006de6:	b29a      	uxth	r2, r3
 8006de8:	687b      	ldr	r3, [r7, #4]
 8006dea:	801a      	strh	r2, [r3, #0]
 8006dec:	687b      	ldr	r3, [r7, #4]
 8006dee:	881b      	ldrh	r3, [r3, #0]
 8006df0:	b29b      	uxth	r3, r3
 8006df2:	2202      	movs	r2, #2
 8006df4:	4313      	orrs	r3, r2
 8006df6:	b29a      	uxth	r2, r3
 8006df8:	687b      	ldr	r3, [r7, #4]
 8006dfa:	801a      	strh	r2, [r3, #0]
 8006dfc:	687b      	ldr	r3, [r7, #4]
 8006dfe:	881b      	ldrh	r3, [r3, #0]
 8006e00:	b29b      	uxth	r3, r3
 8006e02:	220c      	movs	r2, #12
 8006e04:	4393      	bics	r3, r2
 8006e06:	b29a      	uxth	r2, r3
 8006e08:	687b      	ldr	r3, [r7, #4]
 8006e0a:	801a      	strh	r2, [r3, #0]
 8006e0c:	687b      	ldr	r3, [r7, #4]
 8006e0e:	881b      	ldrh	r3, [r3, #0]
 8006e10:	b29b      	uxth	r3, r3
 8006e12:	2210      	movs	r2, #16
 8006e14:	4393      	bics	r3, r2
 8006e16:	b29a      	uxth	r2, r3
 8006e18:	687b      	ldr	r3, [r7, #4]
 8006e1a:	801a      	strh	r2, [r3, #0]
 8006e1c:	687b      	ldr	r3, [r7, #4]
 8006e1e:	881b      	ldrh	r3, [r3, #0]
 8006e20:	b29b      	uxth	r3, r3
 8006e22:	2220      	movs	r2, #32
 8006e24:	4393      	bics	r3, r2
 8006e26:	b29a      	uxth	r2, r3
 8006e28:	687b      	ldr	r3, [r7, #4]
 8006e2a:	801a      	strh	r2, [r3, #0]
 8006e2c:	687b      	ldr	r3, [r7, #4]
 8006e2e:	881b      	ldrh	r3, [r3, #0]
 8006e30:	b29b      	uxth	r3, r3
 8006e32:	2240      	movs	r2, #64	; 0x40
 8006e34:	4393      	bics	r3, r2
 8006e36:	b29a      	uxth	r2, r3
 8006e38:	687b      	ldr	r3, [r7, #4]
 8006e3a:	801a      	strh	r2, [r3, #0]
 8006e3c:	687b      	ldr	r3, [r7, #4]
 8006e3e:	881b      	ldrh	r3, [r3, #0]
 8006e40:	b29b      	uxth	r3, r3
 8006e42:	2280      	movs	r2, #128	; 0x80
 8006e44:	4393      	bics	r3, r2
 8006e46:	b29a      	uxth	r2, r3
 8006e48:	687b      	ldr	r3, [r7, #4]
 8006e4a:	801a      	strh	r2, [r3, #0]
 8006e4c:	687b      	ldr	r3, [r7, #4]
 8006e4e:	881b      	ldrh	r3, [r3, #0]
 8006e50:	b29b      	uxth	r3, r3
 8006e52:	4a10      	ldr	r2, [pc, #64]	; (8006e94 <stm32_svd__spi__spi_sr_registerIP+0xc0>)
 8006e54:	4013      	ands	r3, r2
 8006e56:	b29a      	uxth	r2, r3
 8006e58:	687b      	ldr	r3, [r7, #4]
 8006e5a:	801a      	strh	r2, [r3, #0]
 8006e5c:	687b      	ldr	r3, [r7, #4]
 8006e5e:	881b      	ldrh	r3, [r3, #0]
 8006e60:	b29b      	uxth	r3, r3
 8006e62:	4a0d      	ldr	r2, [pc, #52]	; (8006e98 <stm32_svd__spi__spi_sr_registerIP+0xc4>)
 8006e64:	4013      	ands	r3, r2
 8006e66:	b29a      	uxth	r2, r3
 8006e68:	687b      	ldr	r3, [r7, #4]
 8006e6a:	801a      	strh	r2, [r3, #0]
 8006e6c:	687b      	ldr	r3, [r7, #4]
 8006e6e:	881b      	ldrh	r3, [r3, #0]
 8006e70:	b29b      	uxth	r3, r3
 8006e72:	4a0a      	ldr	r2, [pc, #40]	; (8006e9c <stm32_svd__spi__spi_sr_registerIP+0xc8>)
 8006e74:	4013      	ands	r3, r2
 8006e76:	b29a      	uxth	r2, r3
 8006e78:	687b      	ldr	r3, [r7, #4]
 8006e7a:	801a      	strh	r2, [r3, #0]
 8006e7c:	687b      	ldr	r3, [r7, #4]
 8006e7e:	881b      	ldrh	r3, [r3, #0]
 8006e80:	b29b      	uxth	r3, r3
 8006e82:	04db      	lsls	r3, r3, #19
 8006e84:	0cdb      	lsrs	r3, r3, #19
 8006e86:	b29a      	uxth	r2, r3
 8006e88:	687b      	ldr	r3, [r7, #4]
 8006e8a:	801a      	strh	r2, [r3, #0]
 8006e8c:	46bd      	mov	sp, r7
 8006e8e:	b002      	add	sp, #8
 8006e90:	bd80      	pop	{r7, pc}
 8006e92:	46c0      	nop			; (mov r8, r8)
 8006e94:	fffffeff 	.word	0xfffffeff
 8006e98:	fffff9ff 	.word	0xfffff9ff
 8006e9c:	ffffe7ff 	.word	0xffffe7ff

08006ea0 <ada__real_time__Oadd>:
 8006ea0:	b570      	push	{r4, r5, r6, lr}
 8006ea2:	2b00      	cmp	r3, #0
 8006ea4:	db1a      	blt.n	8006edc <ada__real_time__Oadd+0x3c>
 8006ea6:	43cc      	mvns	r4, r1
 8006ea8:	43c5      	mvns	r5, r0
 8006eaa:	42a3      	cmp	r3, r4
 8006eac:	d911      	bls.n	8006ed2 <ada__real_time__Oadd+0x32>
 8006eae:	2401      	movs	r4, #1
 8006eb0:	4d15      	ldr	r5, [pc, #84]	; (8006f08 <ada__real_time__Oadd+0x68>)
 8006eb2:	4264      	negs	r4, r4
 8006eb4:	18a4      	adds	r4, r4, r2
 8006eb6:	415d      	adcs	r5, r3
 8006eb8:	4e13      	ldr	r6, [pc, #76]	; (8006f08 <ada__real_time__Oadd+0x68>)
 8006eba:	42b5      	cmp	r5, r6
 8006ebc:	d816      	bhi.n	8006eec <ada__real_time__Oadd+0x4c>
 8006ebe:	d020      	beq.n	8006f02 <ada__real_time__Oadd+0x62>
 8006ec0:	2500      	movs	r5, #0
 8006ec2:	4254      	negs	r4, r2
 8006ec4:	419d      	sbcs	r5, r3
 8006ec6:	428d      	cmp	r5, r1
 8006ec8:	d810      	bhi.n	8006eec <ada__real_time__Oadd+0x4c>
 8006eca:	d017      	beq.n	8006efc <ada__real_time__Oadd+0x5c>
 8006ecc:	1880      	adds	r0, r0, r2
 8006ece:	4159      	adcs	r1, r3
 8006ed0:	bd70      	pop	{r4, r5, r6, pc}
 8006ed2:	42a3      	cmp	r3, r4
 8006ed4:	d1fa      	bne.n	8006ecc <ada__real_time__Oadd+0x2c>
 8006ed6:	42aa      	cmp	r2, r5
 8006ed8:	d8e9      	bhi.n	8006eae <ada__real_time__Oadd+0xe>
 8006eda:	e7f7      	b.n	8006ecc <ada__real_time__Oadd+0x2c>
 8006edc:	2a00      	cmp	r2, #0
 8006ede:	d1e6      	bne.n	8006eae <ada__real_time__Oadd+0xe>
 8006ee0:	2480      	movs	r4, #128	; 0x80
 8006ee2:	0624      	lsls	r4, r4, #24
 8006ee4:	42a3      	cmp	r3, r4
 8006ee6:	d1e2      	bne.n	8006eae <ada__real_time__Oadd+0xe>
 8006ee8:	2900      	cmp	r1, #0
 8006eea:	db03      	blt.n	8006ef4 <ada__real_time__Oadd+0x54>
 8006eec:	21d4      	movs	r1, #212	; 0xd4
 8006eee:	4807      	ldr	r0, [pc, #28]	; (8006f0c <ada__real_time__Oadd+0x6c>)
 8006ef0:	f001 fc02 	bl	80086f8 <__gnat_last_chance_handler>
 8006ef4:	2380      	movs	r3, #128	; 0x80
 8006ef6:	2200      	movs	r2, #0
 8006ef8:	061b      	lsls	r3, r3, #24
 8006efa:	e7e7      	b.n	8006ecc <ada__real_time__Oadd+0x2c>
 8006efc:	4284      	cmp	r4, r0
 8006efe:	d9e5      	bls.n	8006ecc <ada__real_time__Oadd+0x2c>
 8006f00:	e7f4      	b.n	8006eec <ada__real_time__Oadd+0x4c>
 8006f02:	3402      	adds	r4, #2
 8006f04:	d9dc      	bls.n	8006ec0 <ada__real_time__Oadd+0x20>
 8006f06:	e7f1      	b.n	8006eec <ada__real_time__Oadd+0x4c>
 8006f08:	7fffffff 	.word	0x7fffffff
 8006f0c:	08009c1c 	.word	0x08009c1c

08006f10 <ada__real_time__Osubtract__2>:
 8006f10:	b510      	push	{r4, lr}
 8006f12:	428b      	cmp	r3, r1
 8006f14:	d807      	bhi.n	8006f26 <ada__real_time__Osubtract__2+0x16>
 8006f16:	d004      	beq.n	8006f22 <ada__real_time__Osubtract__2+0x12>
 8006f18:	1a80      	subs	r0, r0, r2
 8006f1a:	4199      	sbcs	r1, r3
 8006f1c:	2900      	cmp	r1, #0
 8006f1e:	db0f      	blt.n	8006f40 <ada__real_time__Osubtract__2+0x30>
 8006f20:	bd10      	pop	{r4, pc}
 8006f22:	4282      	cmp	r2, r0
 8006f24:	d9f8      	bls.n	8006f18 <ada__real_time__Osubtract__2+0x8>
 8006f26:	1a12      	subs	r2, r2, r0
 8006f28:	418b      	sbcs	r3, r1
 8006f2a:	2180      	movs	r1, #128	; 0x80
 8006f2c:	0609      	lsls	r1, r1, #24
 8006f2e:	428b      	cmp	r3, r1
 8006f30:	d806      	bhi.n	8006f40 <ada__real_time__Osubtract__2+0x30>
 8006f32:	d003      	beq.n	8006f3c <ada__real_time__Osubtract__2+0x2c>
 8006f34:	2100      	movs	r1, #0
 8006f36:	4250      	negs	r0, r2
 8006f38:	4199      	sbcs	r1, r3
 8006f3a:	e7f1      	b.n	8006f20 <ada__real_time__Osubtract__2+0x10>
 8006f3c:	2a00      	cmp	r2, #0
 8006f3e:	d0f9      	beq.n	8006f34 <ada__real_time__Osubtract__2+0x24>
 8006f40:	2112      	movs	r1, #18
 8006f42:	4802      	ldr	r0, [pc, #8]	; (8006f4c <ada__real_time__Osubtract__2+0x3c>)
 8006f44:	31ff      	adds	r1, #255	; 0xff
 8006f46:	f001 fbd7 	bl	80086f8 <__gnat_last_chance_handler>
 8006f4a:	46c0      	nop			; (mov r8, r8)
 8006f4c:	08009c1c 	.word	0x08009c1c

08006f50 <ada__real_time__clock>:
 8006f50:	b510      	push	{r4, lr}
 8006f52:	f000 f875 	bl	8007040 <system__task_primitives__operations__monotonic_clock>
 8006f56:	bd10      	pop	{r4, pc}

08006f58 <ada__real_time__milliseconds>:
 8006f58:	b5f8      	push	{r3, r4, r5, r6, r7, lr}
 8006f5a:	0006      	movs	r6, r0
 8006f5c:	17c0      	asrs	r0, r0, #31
 8006f5e:	0007      	movs	r7, r0
 8006f60:	0ef3      	lsrs	r3, r6, #27
 8006f62:	0145      	lsls	r5, r0, #5
 8006f64:	431d      	orrs	r5, r3
 8006f66:	0174      	lsls	r4, r6, #5
 8006f68:	1ba4      	subs	r4, r4, r6
 8006f6a:	41bd      	sbcs	r5, r7
 8006f6c:	0fa1      	lsrs	r1, r4, #30
 8006f6e:	00ab      	lsls	r3, r5, #2
 8006f70:	430b      	orrs	r3, r1
 8006f72:	00a2      	lsls	r2, r4, #2
 8006f74:	1992      	adds	r2, r2, r6
 8006f76:	417b      	adcs	r3, r7
 8006f78:	0f94      	lsrs	r4, r2, #30
 8006f7a:	0099      	lsls	r1, r3, #2
 8006f7c:	4321      	orrs	r1, r4
 8006f7e:	0090      	lsls	r0, r2, #2
 8006f80:	1812      	adds	r2, r2, r0
 8006f82:	414b      	adcs	r3, r1
 8006f84:	0f94      	lsrs	r4, r2, #30
 8006f86:	0099      	lsls	r1, r3, #2
 8006f88:	4321      	orrs	r1, r4
 8006f8a:	0090      	lsls	r0, r2, #2
 8006f8c:	1812      	adds	r2, r2, r0
 8006f8e:	414b      	adcs	r3, r1
 8006f90:	0f14      	lsrs	r4, r2, #28
 8006f92:	0119      	lsls	r1, r3, #4
 8006f94:	4321      	orrs	r1, r4
 8006f96:	0110      	lsls	r0, r2, #4
 8006f98:	1a80      	subs	r0, r0, r2
 8006f9a:	4199      	sbcs	r1, r3
 8006f9c:	0d82      	lsrs	r2, r0, #22
 8006f9e:	028b      	lsls	r3, r1, #10
 8006fa0:	0284      	lsls	r4, r0, #10
 8006fa2:	431a      	orrs	r2, r3
 8006fa4:	0020      	movs	r0, r4
 8006fa6:	1e11      	subs	r1, r2, #0
 8006fa8:	db0a      	blt.n	8006fc0 <ada__real_time__milliseconds+0x68>
 8006faa:	22fa      	movs	r2, #250	; 0xfa
 8006fac:	2300      	movs	r3, #0
 8006fae:	0052      	lsls	r2, r2, #1
 8006fb0:	1880      	adds	r0, r0, r2
 8006fb2:	4159      	adcs	r1, r3
 8006fb4:	22fa      	movs	r2, #250	; 0xfa
 8006fb6:	2300      	movs	r3, #0
 8006fb8:	0092      	lsls	r2, r2, #2
 8006fba:	f002 f8ef 	bl	800919c <__aeabi_ldivmod>
 8006fbe:	bdf8      	pop	{r3, r4, r5, r6, r7, pc}
 8006fc0:	2301      	movs	r3, #1
 8006fc2:	4a02      	ldr	r2, [pc, #8]	; (8006fcc <ada__real_time__milliseconds+0x74>)
 8006fc4:	425b      	negs	r3, r3
 8006fc6:	1880      	adds	r0, r0, r2
 8006fc8:	4159      	adcs	r1, r3
 8006fca:	e7f3      	b.n	8006fb4 <ada__real_time__milliseconds+0x5c>
 8006fcc:	fffffe0c 	.word	0xfffffe0c

08006fd0 <ada__real_time___elabb>:
 8006fd0:	b510      	push	{r4, lr}
 8006fd2:	f000 f943 	bl	800725c <system__tasking__initialize>
 8006fd6:	bd10      	pop	{r4, pc}

08006fd8 <ada__real_time__delays__delay_until>:
 8006fd8:	b570      	push	{r4, r5, r6, lr}
 8006fda:	0004      	movs	r4, r0
 8006fdc:	000d      	movs	r5, r1
 8006fde:	f000 f815 	bl	800700c <system__task_primitives__operations__self>
 8006fe2:	2800      	cmp	r0, #0
 8006fe4:	d007      	beq.n	8006ff6 <ada__real_time__delays__delay_until+0x1e>
 8006fe6:	6903      	ldr	r3, [r0, #16]
 8006fe8:	2b00      	cmp	r3, #0
 8006fea:	dc08      	bgt.n	8006ffe <ada__real_time__delays__delay_until+0x26>
 8006fec:	0029      	movs	r1, r5
 8006fee:	0020      	movs	r0, r4
 8006ff0:	f000 f810 	bl	8007014 <system__task_primitives__operations__delay_until>
 8006ff4:	bd70      	pop	{r4, r5, r6, pc}
 8006ff6:	2132      	movs	r1, #50	; 0x32
 8006ff8:	4803      	ldr	r0, [pc, #12]	; (8007008 <ada__real_time__delays__delay_until+0x30>)
 8006ffa:	f001 fb7d 	bl	80086f8 <__gnat_last_chance_handler>
 8006ffe:	2133      	movs	r1, #51	; 0x33
 8007000:	4801      	ldr	r0, [pc, #4]	; (8007008 <ada__real_time__delays__delay_until+0x30>)
 8007002:	f001 fb79 	bl	80086f8 <__gnat_last_chance_handler>
 8007006:	46c0      	nop			; (mov r8, r8)
 8007008:	08009c2c 	.word	0x08009c2c

0800700c <system__task_primitives__operations__self>:
 800700c:	b510      	push	{r4, lr}
 800700e:	f000 ff93 	bl	8007f38 <system__bb__threads__get_atcb>
 8007012:	bd10      	pop	{r4, pc}

08007014 <system__task_primitives__operations__delay_until>:
 8007014:	b5d0      	push	{r4, r6, r7, lr}
 8007016:	0006      	movs	r6, r0
 8007018:	000f      	movs	r7, r1
 800701a:	f000 ff8d 	bl	8007f38 <system__bb__threads__get_atcb>
 800701e:	1e04      	subs	r4, r0, #0
 8007020:	d008      	beq.n	8007034 <system__task_primitives__operations__delay_until+0x20>
 8007022:	2307      	movs	r3, #7
 8007024:	0039      	movs	r1, r7
 8007026:	7203      	strb	r3, [r0, #8]
 8007028:	0030      	movs	r0, r6
 800702a:	f001 f991 	bl	8008350 <system__bb__time__delay_until>
 800702e:	2301      	movs	r3, #1
 8007030:	7223      	strb	r3, [r4, #8]
 8007032:	bdd0      	pop	{r4, r6, r7, pc}
 8007034:	2180      	movs	r1, #128	; 0x80
 8007036:	4801      	ldr	r0, [pc, #4]	; (800703c <system__task_primitives__operations__delay_until+0x28>)
 8007038:	f001 fb5e 	bl	80086f8 <__gnat_last_chance_handler>
 800703c:	08009c3c 	.word	0x08009c3c

08007040 <system__task_primitives__operations__monotonic_clock>:
 8007040:	b510      	push	{r4, lr}
 8007042:	f001 f809 	bl	8008058 <system__bb__time__clock>
 8007046:	bd10      	pop	{r4, pc}

08007048 <system__task_primitives__operations__enter_task>:
 8007048:	b510      	push	{r4, lr}
 800704a:	1e04      	subs	r4, r0, #0
 800704c:	d008      	beq.n	8007060 <system__task_primitives__operations__enter_task+0x18>
 800704e:	2384      	movs	r3, #132	; 0x84
 8007050:	2200      	movs	r2, #0
 8007052:	50c2      	str	r2, [r0, r3]
 8007054:	f000 f8a2 	bl	800719c <system__tasking__debug__add_task_id>
 8007058:	68e0      	ldr	r0, [r4, #12]
 800705a:	f000 ffc7 	bl	8007fec <system__bb__threads__set_priority>
 800705e:	bd10      	pop	{r4, pc}
 8007060:	21d8      	movs	r1, #216	; 0xd8
 8007062:	4801      	ldr	r0, [pc, #4]	; (8007068 <system__task_primitives__operations__enter_task+0x20>)
 8007064:	f001 fb48 	bl	80086f8 <__gnat_last_chance_handler>
 8007068:	08009c3c 	.word	0x08009c3c

0800706c <system__task_primitives__operations__idle>:
 800706c:	b510      	push	{r4, lr}
 800706e:	f000 ff63 	bl	8007f38 <system__bb__threads__get_atcb>
 8007072:	f7ff ffe9 	bl	8007048 <system__task_primitives__operations__enter_task>
 8007076:	f000 fa09 	bl	800748c <system__bb__board_support__interrupts__power_down>
 800707a:	e7fc      	b.n	8007076 <system__task_primitives__operations__idle+0xa>

0800707c <system__task_primitives__operations__initialize_tcb>:
 800707c:	2001      	movs	r0, #1
 800707e:	4770      	bx	lr

08007080 <system__task_primitives__operations__initialize_idle>:
 8007080:	2180      	movs	r1, #128	; 0x80
 8007082:	b570      	push	{r4, r5, r6, lr}
 8007084:	0044      	lsls	r4, r0, #1
 8007086:	b084      	sub	sp, #16
 8007088:	1824      	adds	r4, r4, r0
 800708a:	0109      	lsls	r1, r1, #4
 800708c:	9102      	str	r1, [sp, #8]
 800708e:	00e4      	lsls	r4, r4, #3
 8007090:	4912      	ldr	r1, [pc, #72]	; (80070dc <system__task_primitives__operations__initialize_idle+0x5c>)
 8007092:	1a24      	subs	r4, r4, r0
 8007094:	00e4      	lsls	r4, r4, #3
 8007096:	0003      	movs	r3, r0
 8007098:	1841      	adds	r1, r0, r1
 800709a:	4811      	ldr	r0, [pc, #68]	; (80070e0 <system__task_primitives__operations__initialize_idle+0x60>)
 800709c:	0026      	movs	r6, r4
 800709e:	02c9      	lsls	r1, r1, #11
 80070a0:	1809      	adds	r1, r1, r0
 80070a2:	9101      	str	r1, [sp, #4]
 80070a4:	2201      	movs	r2, #1
 80070a6:	2102      	movs	r1, #2
 80070a8:	4d0e      	ldr	r5, [pc, #56]	; (80070e4 <system__task_primitives__operations__initialize_idle+0x64>)
 80070aa:	3eb8      	subs	r6, #184	; 0xb8
 80070ac:	1976      	adds	r6, r6, r5
 80070ae:	9100      	str	r1, [sp, #0]
 80070b0:	9603      	str	r6, [sp, #12]
 80070b2:	4252      	negs	r2, r2
 80070b4:	2100      	movs	r1, #0
 80070b6:	480c      	ldr	r0, [pc, #48]	; (80070e8 <system__task_primitives__operations__initialize_idle+0x68>)
 80070b8:	f000 f896 	bl	80071e8 <system__tasking__initialize_atcb>
 80070bc:	002b      	movs	r3, r5
 80070be:	0022      	movs	r2, r4
 80070c0:	3b38      	subs	r3, #56	; 0x38
 80070c2:	3aa0      	subs	r2, #160	; 0xa0
 80070c4:	18e3      	adds	r3, r4, r3
 80070c6:	1952      	adds	r2, r2, r5
 80070c8:	601a      	str	r2, [r3, #0]
 80070ca:	192b      	adds	r3, r5, r4
 80070cc:	3b10      	subs	r3, #16
 80070ce:	601e      	str	r6, [r3, #0]
 80070d0:	2301      	movs	r3, #1
 80070d2:	3db0      	subs	r5, #176	; 0xb0
 80070d4:	1964      	adds	r4, r4, r5
 80070d6:	7023      	strb	r3, [r4, #0]
 80070d8:	b004      	add	sp, #16
 80070da:	bd70      	pop	{r4, r5, r6, pc}
 80070dc:	001fffff 	.word	0x001fffff
 80070e0:	200006b8 	.word	0x200006b8
 80070e4:	20000eb8 	.word	0x20000eb8
 80070e8:	0800706d 	.word	0x0800706d

080070ec <system__task_primitives__operations__initialize>:
 80070ec:	b570      	push	{r4, r5, r6, lr}
 80070ee:	0004      	movs	r4, r0
 80070f0:	b084      	sub	sp, #16
 80070f2:	2800      	cmp	r0, #0
 80070f4:	d03c      	beq.n	8007170 <system__task_primitives__operations__initialize+0x84>
 80070f6:	0003      	movs	r3, r0
 80070f8:	2580      	movs	r5, #128	; 0x80
 80070fa:	3318      	adds	r3, #24
 80070fc:	5143      	str	r3, [r0, r5]
 80070fe:	2600      	movs	r6, #0
 8007100:	239c      	movs	r3, #156	; 0x9c
 8007102:	50c6      	str	r6, [r0, r3]
 8007104:	68c1      	ldr	r1, [r0, #12]
 8007106:	29ff      	cmp	r1, #255	; 0xff
 8007108:	d837      	bhi.n	800717a <system__task_primitives__operations__initialize+0x8e>
 800710a:	5940      	ldr	r0, [r0, r5]
 800710c:	f000 ff2e 	bl	8007f6c <system__bb__threads__initialize>
 8007110:	0021      	movs	r1, r4
 8007112:	5960      	ldr	r0, [r4, r5]
 8007114:	f000 ff5e 	bl	8007fd4 <system__bb__threads__set_atcb>
 8007118:	2384      	movs	r3, #132	; 0x84
 800711a:	0020      	movs	r0, r4
 800711c:	50e6      	str	r6, [r4, r3]
 800711e:	f000 f83d 	bl	800719c <system__tasking__debug__add_task_id>
 8007122:	68e0      	ldr	r0, [r4, #12]
 8007124:	f000 ff62 	bl	8007fec <system__bb__threads__set_priority>
 8007128:	2280      	movs	r2, #128	; 0x80
 800712a:	0112      	lsls	r2, r2, #4
 800712c:	4694      	mov	ip, r2
 800712e:	4b15      	ldr	r3, [pc, #84]	; (8007184 <system__task_primitives__operations__initialize+0x98>)
 8007130:	4a15      	ldr	r2, [pc, #84]	; (8007188 <system__task_primitives__operations__initialize+0x9c>)
 8007132:	601c      	str	r4, [r3, #0]
 8007134:	4b15      	ldr	r3, [pc, #84]	; (800718c <system__task_primitives__operations__initialize+0xa0>)
 8007136:	2001      	movs	r0, #1
 8007138:	4463      	add	r3, ip
 800713a:	6013      	str	r3, [r2, #0]
 800713c:	f7ff ffa0 	bl	8007080 <system__task_primitives__operations__initialize_idle>
 8007140:	4c13      	ldr	r4, [pc, #76]	; (8007190 <system__task_primitives__operations__initialize+0xa4>)
 8007142:	0023      	movs	r3, r4
 8007144:	3b68      	subs	r3, #104	; 0x68
 8007146:	6023      	str	r3, [r4, #0]
 8007148:	6820      	ldr	r0, [r4, #0]
 800714a:	6963      	ldr	r3, [r4, #20]
 800714c:	0025      	movs	r5, r4
 800714e:	9302      	str	r3, [sp, #8]
 8007150:	6923      	ldr	r3, [r4, #16]
 8007152:	3d80      	subs	r5, #128	; 0x80
 8007154:	9301      	str	r3, [sp, #4]
 8007156:	2301      	movs	r3, #1
 8007158:	002a      	movs	r2, r5
 800715a:	9300      	str	r3, [sp, #0]
 800715c:	490d      	ldr	r1, [pc, #52]	; (8007194 <system__task_primitives__operations__initialize+0xa8>)
 800715e:	3b02      	subs	r3, #2
 8007160:	f000 ff50 	bl	8008004 <system__bb__threads__thread_create>
 8007164:	6820      	ldr	r0, [r4, #0]
 8007166:	0029      	movs	r1, r5
 8007168:	f000 ff34 	bl	8007fd4 <system__bb__threads__set_atcb>
 800716c:	b004      	add	sp, #16
 800716e:	bd70      	pop	{r4, r5, r6, pc}
 8007170:	21a7      	movs	r1, #167	; 0xa7
 8007172:	4809      	ldr	r0, [pc, #36]	; (8007198 <system__task_primitives__operations__initialize+0xac>)
 8007174:	0049      	lsls	r1, r1, #1
 8007176:	f001 fabf 	bl	80086f8 <__gnat_last_chance_handler>
 800717a:	21ae      	movs	r1, #174	; 0xae
 800717c:	4806      	ldr	r0, [pc, #24]	; (8007198 <system__task_primitives__operations__initialize+0xac>)
 800717e:	0049      	lsls	r1, r1, #1
 8007180:	f001 faba 	bl	80086f8 <__gnat_last_chance_handler>
 8007184:	20000014 	.word	0x20000014
 8007188:	200006b0 	.word	0x200006b0
 800718c:	200006b8 	.word	0x200006b8
 8007190:	20000f38 	.word	0x20000f38
 8007194:	0800706d 	.word	0x0800706d
 8007198:	08009c3c 	.word	0x08009c3c

0800719c <system__tasking__debug__add_task_id>:
 800719c:	b580      	push	{r7, lr}
 800719e:	b082      	sub	sp, #8
 80071a0:	af00      	add	r7, sp, #0
 80071a2:	6078      	str	r0, [r7, #4]
 80071a4:	4b0d      	ldr	r3, [pc, #52]	; (80071dc <system__tasking__debug__add_task_id+0x40>)
 80071a6:	681b      	ldr	r3, [r3, #0]
 80071a8:	2b00      	cmp	r3, #0
 80071aa:	d00e      	beq.n	80071ca <system__tasking__debug__add_task_id+0x2e>
 80071ac:	4b0b      	ldr	r3, [pc, #44]	; (80071dc <system__tasking__debug__add_task_id+0x40>)
 80071ae:	681b      	ldr	r3, [r3, #0]
 80071b0:	2b00      	cmp	r3, #0
 80071b2:	d104      	bne.n	80071be <system__tasking__debug__add_task_id+0x22>
 80071b4:	4b0a      	ldr	r3, [pc, #40]	; (80071e0 <system__tasking__debug__add_task_id+0x44>)
 80071b6:	213b      	movs	r1, #59	; 0x3b
 80071b8:	0018      	movs	r0, r3
 80071ba:	f001 fa9d 	bl	80086f8 <__gnat_last_chance_handler>
 80071be:	4b07      	ldr	r3, [pc, #28]	; (80071dc <system__tasking__debug__add_task_id+0x40>)
 80071c0:	681b      	ldr	r3, [r3, #0]
 80071c2:	219c      	movs	r1, #156	; 0x9c
 80071c4:	687a      	ldr	r2, [r7, #4]
 80071c6:	505a      	str	r2, [r3, r1]
 80071c8:	e002      	b.n	80071d0 <system__tasking__debug__add_task_id+0x34>
 80071ca:	4b06      	ldr	r3, [pc, #24]	; (80071e4 <system__tasking__debug__add_task_id+0x48>)
 80071cc:	687a      	ldr	r2, [r7, #4]
 80071ce:	601a      	str	r2, [r3, #0]
 80071d0:	4b02      	ldr	r3, [pc, #8]	; (80071dc <system__tasking__debug__add_task_id+0x40>)
 80071d2:	687a      	ldr	r2, [r7, #4]
 80071d4:	601a      	str	r2, [r3, #0]
 80071d6:	46bd      	mov	sp, r7
 80071d8:	b002      	add	sp, #8
 80071da:	bd80      	pop	{r7, pc}
 80071dc:	2000001c 	.word	0x2000001c
 80071e0:	08009c4c 	.word	0x08009c4c
 80071e4:	20000018 	.word	0x20000018

080071e8 <system__tasking__initialize_atcb>:
 80071e8:	b5f8      	push	{r3, r4, r5, r6, r7, lr}
 80071ea:	4657      	mov	r7, sl
 80071ec:	46de      	mov	lr, fp
 80071ee:	464e      	mov	r6, r9
 80071f0:	4645      	mov	r5, r8
 80071f2:	b5e0      	push	{r5, r6, r7, lr}
 80071f4:	4699      	mov	r9, r3
 80071f6:	ab0a      	add	r3, sp, #40	; 0x28
 80071f8:	781b      	ldrb	r3, [r3, #0]
 80071fa:	9c0d      	ldr	r4, [sp, #52]	; 0x34
 80071fc:	0007      	movs	r7, r0
 80071fe:	4688      	mov	r8, r1
 8007200:	4692      	mov	sl, r2
 8007202:	469b      	mov	fp, r3
 8007204:	2c00      	cmp	r4, #0
 8007206:	d022      	beq.n	800724e <system__tasking__initialize_atcb+0x66>
 8007208:	2600      	movs	r6, #0
 800720a:	0020      	movs	r0, r4
 800720c:	7226      	strb	r6, [r4, #8]
 800720e:	f7ff ff35 	bl	800707c <system__task_primitives__operations__initialize_tcb>
 8007212:	1e05      	subs	r5, r0, #0
 8007214:	d014      	beq.n	8007240 <system__tasking__initialize_atcb+0x58>
 8007216:	4653      	mov	r3, sl
 8007218:	60e3      	str	r3, [r4, #12]
 800721a:	464b      	mov	r3, r9
 800721c:	4642      	mov	r2, r8
 800721e:	7263      	strb	r3, [r4, #9]
 8007220:	2388      	movs	r3, #136	; 0x88
 8007222:	6126      	str	r6, [r4, #16]
 8007224:	50e2      	str	r2, [r4, r3]
 8007226:	465a      	mov	r2, fp
 8007228:	3304      	adds	r3, #4
 800722a:	50e7      	str	r7, [r4, r3]
 800722c:	3314      	adds	r3, #20
 800722e:	54e2      	strb	r2, [r4, r3]
 8007230:	9a0b      	ldr	r2, [sp, #44]	; 0x2c
 8007232:	3b10      	subs	r3, #16
 8007234:	50e2      	str	r2, [r4, r3]
 8007236:	980c      	ldr	r0, [sp, #48]	; 0x30
 8007238:	f001 fd54 	bl	8008ce4 <system__parameters__adjust_storage_size>
 800723c:	2394      	movs	r3, #148	; 0x94
 800723e:	50e0      	str	r0, [r4, r3]
 8007240:	0028      	movs	r0, r5
 8007242:	bc3c      	pop	{r2, r3, r4, r5}
 8007244:	4690      	mov	r8, r2
 8007246:	4699      	mov	r9, r3
 8007248:	46a2      	mov	sl, r4
 800724a:	46ab      	mov	fp, r5
 800724c:	bdf8      	pop	{r3, r4, r5, r6, r7, pc}
 800724e:	215f      	movs	r1, #95	; 0x5f
 8007250:	4801      	ldr	r0, [pc, #4]	; (8007258 <system__tasking__initialize_atcb+0x70>)
 8007252:	f001 fa51 	bl	80086f8 <__gnat_last_chance_handler>
 8007256:	46c0      	nop			; (mov r8, r8)
 8007258:	08009c5c 	.word	0x08009c5c

0800725c <system__tasking__initialize>:
 800725c:	b5f0      	push	{r4, r5, r6, r7, lr}
 800725e:	46c6      	mov	lr, r8
 8007260:	b500      	push	{lr}
 8007262:	4b2d      	ldr	r3, [pc, #180]	; (8007318 <system__tasking__initialize+0xbc>)
 8007264:	b084      	sub	sp, #16
 8007266:	781a      	ldrb	r2, [r3, #0]
 8007268:	af04      	add	r7, sp, #16
 800726a:	2a00      	cmp	r2, #0
 800726c:	d137      	bne.n	80072de <system__tasking__initialize+0x82>
 800726e:	3201      	adds	r2, #1
 8007270:	701a      	strb	r2, [r3, #0]
 8007272:	4b2a      	ldr	r3, [pc, #168]	; (800731c <system__tasking__initialize+0xc0>)
 8007274:	681a      	ldr	r2, [r3, #0]
 8007276:	3201      	adds	r2, #1
 8007278:	d048      	beq.n	800730c <system__tasking__initialize+0xb0>
 800727a:	681a      	ldr	r2, [r3, #0]
 800727c:	2aff      	cmp	r2, #255	; 0xff
 800727e:	d847      	bhi.n	8007310 <system__tasking__initialize+0xb4>
 8007280:	681a      	ldr	r2, [r3, #0]
 8007282:	2500      	movs	r5, #0
 8007284:	2302      	movs	r3, #2
 8007286:	4c26      	ldr	r4, [pc, #152]	; (8007320 <system__tasking__initialize+0xc4>)
 8007288:	2100      	movs	r1, #0
 800728a:	9300      	str	r3, [sp, #0]
 800728c:	9403      	str	r4, [sp, #12]
 800728e:	3b01      	subs	r3, #1
 8007290:	9502      	str	r5, [sp, #8]
 8007292:	9501      	str	r5, [sp, #4]
 8007294:	2000      	movs	r0, #0
 8007296:	f7ff ffa7 	bl	80071e8 <system__tasking__initialize_atcb>
 800729a:	0020      	movs	r0, r4
 800729c:	f7ff ff26 	bl	80070ec <system__task_primitives__operations__initialize>
 80072a0:	2301      	movs	r3, #1
 80072a2:	2180      	movs	r1, #128	; 0x80
 80072a4:	2698      	movs	r6, #152	; 0x98
 80072a6:	7223      	strb	r3, [r4, #8]
 80072a8:	4698      	mov	r8, r3
 80072aa:	0609      	lsls	r1, r1, #24
 80072ac:	33a7      	adds	r3, #167	; 0xa7
 80072ae:	2000      	movs	r0, #0
 80072b0:	50e4      	str	r4, [r4, r3]
 80072b2:	51a5      	str	r5, [r4, r6]
 80072b4:	f001 fd20 	bl	8008cf8 <system__secondary_stack__ss_init>
 80072b8:	4b1a      	ldr	r3, [pc, #104]	; (8007324 <system__tasking__initialize+0xc8>)
 80072ba:	51a0      	str	r0, [r4, r6]
 80072bc:	601d      	str	r5, [r3, #0]
 80072be:	605d      	str	r5, [r3, #4]
 80072c0:	4b19      	ldr	r3, [pc, #100]	; (8007328 <system__tasking__initialize+0xcc>)
 80072c2:	681a      	ldr	r2, [r3, #0]
 80072c4:	3201      	adds	r2, #1
 80072c6:	d00a      	beq.n	80072de <system__tasking__initialize+0x82>
 80072c8:	681b      	ldr	r3, [r3, #0]
 80072ca:	2b01      	cmp	r3, #1
 80072cc:	d007      	beq.n	80072de <system__tasking__initialize+0x82>
 80072ce:	2339      	movs	r3, #57	; 0x39
 80072d0:	4816      	ldr	r0, [pc, #88]	; (800732c <system__tasking__initialize+0xd0>)
 80072d2:	5cc3      	ldrb	r3, [r0, r3]
 80072d4:	2b00      	cmp	r3, #0
 80072d6:	d106      	bne.n	80072e6 <system__tasking__initialize+0x8a>
 80072d8:	2100      	movs	r1, #0
 80072da:	f001 fa0d 	bl	80086f8 <__gnat_last_chance_handler>
 80072de:	46bd      	mov	sp, r7
 80072e0:	bc04      	pop	{r2}
 80072e2:	4690      	mov	r8, r2
 80072e4:	bdf0      	pop	{r4, r5, r6, r7, pc}
 80072e6:	4643      	mov	r3, r8
 80072e8:	b092      	sub	sp, #72	; 0x48
 80072ea:	ac04      	add	r4, sp, #16
 80072ec:	0026      	movs	r6, r4
 80072ee:	9304      	str	r3, [sp, #16]
 80072f0:	233a      	movs	r3, #58	; 0x3a
 80072f2:	3608      	adds	r6, #8
 80072f4:	0001      	movs	r1, r0
 80072f6:	223a      	movs	r2, #58	; 0x3a
 80072f8:	0030      	movs	r0, r6
 80072fa:	9305      	str	r3, [sp, #20]
 80072fc:	f001 fc92 	bl	8008c24 <memcpy>
 8007300:	2341      	movs	r3, #65	; 0x41
 8007302:	2100      	movs	r1, #0
 8007304:	54e5      	strb	r5, [r4, r3]
 8007306:	0030      	movs	r0, r6
 8007308:	f001 f9f6 	bl	80086f8 <__gnat_last_chance_handler>
 800730c:	2278      	movs	r2, #120	; 0x78
 800730e:	e7b8      	b.n	8007282 <system__tasking__initialize+0x26>
 8007310:	2191      	movs	r1, #145	; 0x91
 8007312:	4807      	ldr	r0, [pc, #28]	; (8007330 <system__tasking__initialize+0xd4>)
 8007314:	f001 f9f0 	bl	80086f8 <__gnat_last_chance_handler>
 8007318:	20000030 	.word	0x20000030
 800731c:	20000024 	.word	0x20000024
 8007320:	20000f70 	.word	0x20000f70
 8007324:	20000028 	.word	0x20000028
 8007328:	20000020 	.word	0x20000020
 800732c:	08009c6c 	.word	0x08009c6c
 8007330:	08009c5c 	.word	0x08009c5c

08007334 <system__bb__board_support__timer_interrupt_handler>:
 8007334:	2001      	movs	r0, #1
 8007336:	b510      	push	{r4, lr}
 8007338:	4240      	negs	r0, r0
 800733a:	f000 faf5 	bl	8007928 <system__bb__interrupts__interrupt_wrapper>
 800733e:	bd10      	pop	{r4, pc}

08007340 <system__bb__board_support__interrupt_handler>:
 8007340:	b510      	push	{r4, lr}
 8007342:	f3ef 8205 	mrs	r2, IPSR
 8007346:	23ff      	movs	r3, #255	; 0xff
 8007348:	4013      	ands	r3, r2
 800734a:	0018      	movs	r0, r3
 800734c:	3b0f      	subs	r3, #15
 800734e:	3810      	subs	r0, #16
 8007350:	2b52      	cmp	r3, #82	; 0x52
 8007352:	d802      	bhi.n	800735a <system__bb__board_support__interrupt_handler+0x1a>
 8007354:	f000 fae8 	bl	8007928 <system__bb__interrupts__interrupt_wrapper>
 8007358:	bd10      	pop	{r4, pc}
 800735a:	2146      	movs	r1, #70	; 0x46
 800735c:	4801      	ldr	r0, [pc, #4]	; (8007364 <system__bb__board_support__interrupt_handler+0x24>)
 800735e:	31ff      	adds	r1, #255	; 0xff
 8007360:	f001 f9ca 	bl	80086f8 <__gnat_last_chance_handler>
 8007364:	08009ca8 	.word	0x08009ca8

08007368 <system__bb__board_support__time__max_timer_interval>:
 8007368:	2001      	movs	r0, #1
 800736a:	4240      	negs	r0, r0
 800736c:	4770      	bx	lr
 800736e:	46c0      	nop			; (mov r8, r8)

08007370 <system__bb__board_support__time__read_clock>:
 8007370:	b510      	push	{r4, lr}
 8007372:	f3ef 8210 	mrs	r2, PRIMASK
 8007376:	2301      	movs	r3, #1
 8007378:	f383 8810 	msr	PRIMASK, r3
 800737c:	4b09      	ldr	r3, [pc, #36]	; (80073a4 <system__bb__board_support__time__read_clock+0x34>)
 800737e:	6899      	ldr	r1, [r3, #8]
 8007380:	681b      	ldr	r3, [r3, #0]
 8007382:	03db      	lsls	r3, r3, #15
 8007384:	d406      	bmi.n	8007394 <system__bb__board_support__time__read_clock+0x24>
 8007386:	4b08      	ldr	r3, [pc, #32]	; (80073a8 <system__bb__board_support__time__read_clock+0x38>)
 8007388:	6818      	ldr	r0, [r3, #0]
 800738a:	1a40      	subs	r0, r0, r1
 800738c:	f382 8810 	msr	PRIMASK, r2
 8007390:	2100      	movs	r1, #0
 8007392:	bd10      	pop	{r4, pc}
 8007394:	4c05      	ldr	r4, [pc, #20]	; (80073ac <system__bb__board_support__time__read_clock+0x3c>)
 8007396:	4b04      	ldr	r3, [pc, #16]	; (80073a8 <system__bb__board_support__time__read_clock+0x38>)
 8007398:	46a4      	mov	ip, r4
 800739a:	6818      	ldr	r0, [r3, #0]
 800739c:	6819      	ldr	r1, [r3, #0]
 800739e:	4461      	add	r1, ip
 80073a0:	6019      	str	r1, [r3, #0]
 80073a2:	e7f3      	b.n	800738c <system__bb__board_support__time__read_clock+0x1c>
 80073a4:	e000e010 	.word	0xe000e010
 80073a8:	2000102c 	.word	0x2000102c
 80073ac:	0000bb80 	.word	0x0000bb80

080073b0 <system__bb__board_support__time__clear_alarm_interrupt>:
 80073b0:	2280      	movs	r2, #128	; 0x80
 80073b2:	4b02      	ldr	r3, [pc, #8]	; (80073bc <system__bb__board_support__time__clear_alarm_interrupt+0xc>)
 80073b4:	0492      	lsls	r2, r2, #18
 80073b6:	601a      	str	r2, [r3, #0]
 80073b8:	4770      	bx	lr
 80073ba:	46c0      	nop			; (mov r8, r8)
 80073bc:	e000ed04 	.word	0xe000ed04

080073c0 <system__bb__board_support__time__set_alarm>:
 80073c0:	b530      	push	{r4, r5, lr}
 80073c2:	f3ef 8410 	mrs	r4, PRIMASK
 80073c6:	2301      	movs	r3, #1
 80073c8:	f383 8810 	msr	PRIMASK, r3
 80073cc:	4910      	ldr	r1, [pc, #64]	; (8007410 <system__bb__board_support__time__set_alarm+0x50>)
 80073ce:	688a      	ldr	r2, [r1, #8]
 80073d0:	6809      	ldr	r1, [r1, #0]
 80073d2:	03cb      	lsls	r3, r1, #15
 80073d4:	d517      	bpl.n	8007406 <system__bb__board_support__time__set_alarm+0x46>
 80073d6:	4d0f      	ldr	r5, [pc, #60]	; (8007414 <system__bb__board_support__time__set_alarm+0x54>)
 80073d8:	4b0f      	ldr	r3, [pc, #60]	; (8007418 <system__bb__board_support__time__set_alarm+0x58>)
 80073da:	46ac      	mov	ip, r5
 80073dc:	681a      	ldr	r2, [r3, #0]
 80073de:	6819      	ldr	r1, [r3, #0]
 80073e0:	4461      	add	r1, ip
 80073e2:	6019      	str	r1, [r3, #0]
 80073e4:	f384 8810 	msr	PRIMASK, r4
 80073e8:	490c      	ldr	r1, [pc, #48]	; (800741c <system__bb__board_support__time__set_alarm+0x5c>)
 80073ea:	0003      	movs	r3, r0
 80073ec:	4288      	cmp	r0, r1
 80073ee:	d900      	bls.n	80073f2 <system__bb__board_support__time__set_alarm+0x32>
 80073f0:	000b      	movs	r3, r1
 80073f2:	189b      	adds	r3, r3, r2
 80073f4:	4a0a      	ldr	r2, [pc, #40]	; (8007420 <system__bb__board_support__time__set_alarm+0x60>)
 80073f6:	6013      	str	r3, [r2, #0]
 80073f8:	2800      	cmp	r0, #0
 80073fa:	d103      	bne.n	8007404 <system__bb__board_support__time__set_alarm+0x44>
 80073fc:	2280      	movs	r2, #128	; 0x80
 80073fe:	4b09      	ldr	r3, [pc, #36]	; (8007424 <system__bb__board_support__time__set_alarm+0x64>)
 8007400:	04d2      	lsls	r2, r2, #19
 8007402:	601a      	str	r2, [r3, #0]
 8007404:	bd30      	pop	{r4, r5, pc}
 8007406:	4b04      	ldr	r3, [pc, #16]	; (8007418 <system__bb__board_support__time__set_alarm+0x58>)
 8007408:	681b      	ldr	r3, [r3, #0]
 800740a:	1a9a      	subs	r2, r3, r2
 800740c:	e7ea      	b.n	80073e4 <system__bb__board_support__time__set_alarm+0x24>
 800740e:	46c0      	nop			; (mov r8, r8)
 8007410:	e000e010 	.word	0xe000e010
 8007414:	0000bb80 	.word	0x0000bb80
 8007418:	2000102c 	.word	0x2000102c
 800741c:	7fffffff 	.word	0x7fffffff
 8007420:	20001028 	.word	0x20001028
 8007424:	e000ed04 	.word	0xe000ed04

08007428 <system__bb__board_support__time__install_alarm_handler>:
 8007428:	b510      	push	{r4, lr}
 800742a:	2800      	cmp	r0, #0
 800742c:	d005      	beq.n	800743a <system__bb__board_support__time__install_alarm_handler+0x12>
 800742e:	2101      	movs	r1, #1
 8007430:	22ff      	movs	r2, #255	; 0xff
 8007432:	4249      	negs	r1, r1
 8007434:	f000 fa62 	bl	80078fc <system__bb__interrupts__attach_handler>
 8007438:	bd10      	pop	{r4, pc}
 800743a:	2122      	movs	r1, #34	; 0x22
 800743c:	4801      	ldr	r0, [pc, #4]	; (8007444 <system__bb__board_support__time__install_alarm_handler+0x1c>)
 800743e:	31ff      	adds	r1, #255	; 0xff
 8007440:	f001 f95a 	bl	80086f8 <__gnat_last_chance_handler>
 8007444:	08009ca8 	.word	0x08009ca8

08007448 <system__bb__board_support__multiprocessors__current_cpu>:
 8007448:	2001      	movs	r0, #1
 800744a:	4770      	bx	lr

0800744c <system__bb__board_support__interrupts__priority_of_interrupt>:
 800744c:	b510      	push	{r4, lr}
 800744e:	1c43      	adds	r3, r0, #1
 8007450:	d00d      	beq.n	800746e <system__bb__board_support__interrupts__priority_of_interrupt+0x22>
 8007452:	2851      	cmp	r0, #81	; 0x51
 8007454:	d80d      	bhi.n	8007472 <system__bb__board_support__interrupts__priority_of_interrupt+0x26>
 8007456:	4b0b      	ldr	r3, [pc, #44]	; (8007484 <system__bb__board_support__interrupts__priority_of_interrupt+0x38>)
 8007458:	5c18      	ldrb	r0, [r3, r0]
 800745a:	b2c0      	uxtb	r0, r0
 800745c:	2800      	cmp	r0, #0
 800745e:	d006      	beq.n	800746e <system__bb__board_support__interrupts__priority_of_interrupt+0x22>
 8007460:	2380      	movs	r3, #128	; 0x80
 8007462:	0900      	lsrs	r0, r0, #4
 8007464:	005b      	lsls	r3, r3, #1
 8007466:	1a18      	subs	r0, r3, r0
 8007468:	4298      	cmp	r0, r3
 800746a:	d007      	beq.n	800747c <system__bb__board_support__interrupts__priority_of_interrupt+0x30>
 800746c:	bd10      	pop	{r4, pc}
 800746e:	20ff      	movs	r0, #255	; 0xff
 8007470:	e7fc      	b.n	800746c <system__bb__board_support__interrupts__priority_of_interrupt+0x20>
 8007472:	21c5      	movs	r1, #197	; 0xc5
 8007474:	4804      	ldr	r0, [pc, #16]	; (8007488 <system__bb__board_support__interrupts__priority_of_interrupt+0x3c>)
 8007476:	0049      	lsls	r1, r1, #1
 8007478:	f001 f93e 	bl	80086f8 <__gnat_last_chance_handler>
 800747c:	217e      	movs	r1, #126	; 0x7e
 800747e:	4802      	ldr	r0, [pc, #8]	; (8007488 <system__bb__board_support__interrupts__priority_of_interrupt+0x3c>)
 8007480:	f001 f93a 	bl	80086f8 <__gnat_last_chance_handler>
 8007484:	e000e400 	.word	0xe000e400
 8007488:	08009ca8 	.word	0x08009ca8

0800748c <system__bb__board_support__interrupts__power_down>:
 800748c:	bf30      	wfi
 800748e:	4770      	bx	lr

08007490 <system__bb__board_support__interrupts__set_current_priority>:
 8007490:	0002      	movs	r2, r0
 8007492:	3af1      	subs	r2, #241	; 0xf1
 8007494:	2300      	movs	r3, #0
 8007496:	2a0e      	cmp	r2, #14
 8007498:	d804      	bhi.n	80074a4 <system__bb__board_support__interrupts__set_current_priority+0x14>
 800749a:	3301      	adds	r3, #1
 800749c:	33ff      	adds	r3, #255	; 0xff
 800749e:	1a1b      	subs	r3, r3, r0
 80074a0:	011b      	lsls	r3, r3, #4
 80074a2:	b2db      	uxtb	r3, r3
 80074a4:	f383 8811 	msr	BASEPRI, r3
 80074a8:	4770      	bx	lr
 80074aa:	46c0      	nop			; (mov r8, r8)

080074ac <system__bb__board_support__initialize_board>:
 80074ac:	b510      	push	{r4, lr}
 80074ae:	f000 fa1d 	bl	80078ec <system__bb__cpu_primitives__disable_interrupts>
 80074b2:	2204      	movs	r2, #4
 80074b4:	4b1a      	ldr	r3, [pc, #104]	; (8007520 <system__bb__board_support__initialize_board+0x74>)
 80074b6:	491b      	ldr	r1, [pc, #108]	; (8007524 <system__bb__board_support__initialize_board+0x78>)
 80074b8:	601a      	str	r2, [r3, #0]
 80074ba:	4a1b      	ldr	r2, [pc, #108]	; (8007528 <system__bb__board_support__initialize_board+0x7c>)
 80074bc:	605a      	str	r2, [r3, #4]
 80074be:	2200      	movs	r2, #0
 80074c0:	609a      	str	r2, [r3, #8]
 80074c2:	3205      	adds	r2, #5
 80074c4:	601a      	str	r2, [r3, #0]
 80074c6:	4a19      	ldr	r2, [pc, #100]	; (800752c <system__bb__board_support__initialize_board+0x80>)
 80074c8:	6011      	str	r1, [r2, #0]
 80074ca:	f3ef 8110 	mrs	r1, PRIMASK
 80074ce:	2001      	movs	r0, #1
 80074d0:	f380 8810 	msr	PRIMASK, r0
 80074d4:	689c      	ldr	r4, [r3, #8]
 80074d6:	6818      	ldr	r0, [r3, #0]
 80074d8:	03c3      	lsls	r3, r0, #15
 80074da:	d41a      	bmi.n	8007512 <system__bb__board_support__initialize_board+0x66>
 80074dc:	6813      	ldr	r3, [r2, #0]
 80074de:	1b1b      	subs	r3, r3, r4
 80074e0:	f381 8810 	msr	PRIMASK, r1
 80074e4:	4a12      	ldr	r2, [pc, #72]	; (8007530 <system__bb__board_support__initialize_board+0x84>)
 80074e6:	210f      	movs	r1, #15
 80074e8:	4694      	mov	ip, r2
 80074ea:	4a12      	ldr	r2, [pc, #72]	; (8007534 <system__bb__board_support__initialize_board+0x88>)
 80074ec:	4463      	add	r3, ip
 80074ee:	6013      	str	r3, [r2, #0]
 80074f0:	2280      	movs	r2, #128	; 0x80
 80074f2:	4b11      	ldr	r3, [pc, #68]	; (8007538 <system__bb__board_support__initialize_board+0x8c>)
 80074f4:	0492      	lsls	r2, r2, #18
 80074f6:	601a      	str	r2, [r3, #0]
 80074f8:	4810      	ldr	r0, [pc, #64]	; (800753c <system__bb__board_support__initialize_board+0x90>)
 80074fa:	2200      	movs	r2, #0
 80074fc:	f000 f9e6 	bl	80078cc <system__bb__cpu_primitives__install_trap_handler>
 8007500:	2200      	movs	r2, #0
 8007502:	2110      	movs	r1, #16
 8007504:	480e      	ldr	r0, [pc, #56]	; (8007540 <system__bb__board_support__initialize_board+0x94>)
 8007506:	f000 f9e1 	bl	80078cc <system__bb__cpu_primitives__install_trap_handler>
 800750a:	20f0      	movs	r0, #240	; 0xf0
 800750c:	f000 f9f0 	bl	80078f0 <system__bb__cpu_primitives__enable_interrupts>
 8007510:	bd10      	pop	{r4, pc}
 8007512:	4c04      	ldr	r4, [pc, #16]	; (8007524 <system__bb__board_support__initialize_board+0x78>)
 8007514:	6813      	ldr	r3, [r2, #0]
 8007516:	46a4      	mov	ip, r4
 8007518:	6810      	ldr	r0, [r2, #0]
 800751a:	4460      	add	r0, ip
 800751c:	6010      	str	r0, [r2, #0]
 800751e:	e7df      	b.n	80074e0 <system__bb__board_support__initialize_board+0x34>
 8007520:	e000e010 	.word	0xe000e010
 8007524:	0000bb80 	.word	0x0000bb80
 8007528:	0000bb7f 	.word	0x0000bb7f
 800752c:	2000102c 	.word	0x2000102c
 8007530:	7fffffff 	.word	0x7fffffff
 8007534:	20001028 	.word	0x20001028
 8007538:	e000ed04 	.word	0xe000ed04
 800753c:	08007335 	.word	0x08007335
 8007540:	08007341 	.word	0x08007341

08007544 <system__bb__board_support__enable_interrupt_request>:
 8007544:	b510      	push	{r4, lr}
 8007546:	1c43      	adds	r3, r0, #1
 8007548:	d00c      	beq.n	8007564 <system__bb__board_support__enable_interrupt_request+0x20>
 800754a:	2800      	cmp	r0, #0
 800754c:	db19      	blt.n	8007582 <system__bb__board_support__enable_interrupt_request+0x3e>
 800754e:	221f      	movs	r2, #31
 8007550:	1143      	asrs	r3, r0, #5
 8007552:	4010      	ands	r0, r2
 8007554:	3a1e      	subs	r2, #30
 8007556:	4082      	lsls	r2, r0
 8007558:	2b0f      	cmp	r3, #15
 800755a:	dc0d      	bgt.n	8007578 <system__bb__board_support__enable_interrupt_request+0x34>
 800755c:	490b      	ldr	r1, [pc, #44]	; (800758c <system__bb__board_support__enable_interrupt_request+0x48>)
 800755e:	009b      	lsls	r3, r3, #2
 8007560:	505a      	str	r2, [r3, r1]
 8007562:	bd10      	pop	{r4, pc}
 8007564:	2280      	movs	r2, #128	; 0x80
 8007566:	2102      	movs	r1, #2
 8007568:	4b09      	ldr	r3, [pc, #36]	; (8007590 <system__bb__board_support__enable_interrupt_request+0x4c>)
 800756a:	0492      	lsls	r2, r2, #18
 800756c:	601a      	str	r2, [r3, #0]
 800756e:	4a09      	ldr	r2, [pc, #36]	; (8007594 <system__bb__board_support__enable_interrupt_request+0x50>)
 8007570:	6813      	ldr	r3, [r2, #0]
 8007572:	430b      	orrs	r3, r1
 8007574:	6013      	str	r3, [r2, #0]
 8007576:	e7f4      	b.n	8007562 <system__bb__board_support__enable_interrupt_request+0x1e>
 8007578:	21b6      	movs	r1, #182	; 0xb6
 800757a:	4807      	ldr	r0, [pc, #28]	; (8007598 <system__bb__board_support__enable_interrupt_request+0x54>)
 800757c:	0049      	lsls	r1, r1, #1
 800757e:	f001 f8bb 	bl	80086f8 <__gnat_last_chance_handler>
 8007582:	21b0      	movs	r1, #176	; 0xb0
 8007584:	4804      	ldr	r0, [pc, #16]	; (8007598 <system__bb__board_support__enable_interrupt_request+0x54>)
 8007586:	0049      	lsls	r1, r1, #1
 8007588:	f001 f8b6 	bl	80086f8 <__gnat_last_chance_handler>
 800758c:	e000e100 	.word	0xe000e100
 8007590:	e000ed04 	.word	0xe000ed04
 8007594:	e000e010 	.word	0xe000e010
 8007598:	08009ca8 	.word	0x08009ca8

0800759c <system__bb__board_support__interrupts__install_interrupt_handler>:
 800759c:	b510      	push	{r4, lr}
 800759e:	1c43      	adds	r3, r0, #1
 80075a0:	d008      	beq.n	80075b4 <system__bb__board_support__interrupts__install_interrupt_handler+0x18>
 80075a2:	2851      	cmp	r0, #81	; 0x51
 80075a4:	d80f      	bhi.n	80075c6 <system__bb__board_support__interrupts__install_interrupt_handler+0x2a>
 80075a6:	000a      	movs	r2, r1
 80075a8:	3af1      	subs	r2, #241	; 0xf1
 80075aa:	2300      	movs	r3, #0
 80075ac:	2a0e      	cmp	r2, #14
 80075ae:	d904      	bls.n	80075ba <system__bb__board_support__interrupts__install_interrupt_handler+0x1e>
 80075b0:	4a07      	ldr	r2, [pc, #28]	; (80075d0 <system__bb__board_support__interrupts__install_interrupt_handler+0x34>)
 80075b2:	5413      	strb	r3, [r2, r0]
 80075b4:	f7ff ffc6 	bl	8007544 <system__bb__board_support__enable_interrupt_request>
 80075b8:	bd10      	pop	{r4, pc}
 80075ba:	3301      	adds	r3, #1
 80075bc:	33ff      	adds	r3, #255	; 0xff
 80075be:	1a5b      	subs	r3, r3, r1
 80075c0:	011b      	lsls	r3, r3, #4
 80075c2:	b2db      	uxtb	r3, r3
 80075c4:	e7f4      	b.n	80075b0 <system__bb__board_support__interrupts__install_interrupt_handler+0x14>
 80075c6:	21be      	movs	r1, #190	; 0xbe
 80075c8:	4802      	ldr	r0, [pc, #8]	; (80075d4 <system__bb__board_support__interrupts__install_interrupt_handler+0x38>)
 80075ca:	0049      	lsls	r1, r1, #1
 80075cc:	f001 f894 	bl	80086f8 <__gnat_last_chance_handler>
 80075d0:	e000e400 	.word	0xe000e400
 80075d4:	08009ca8 	.word	0x08009ca8

080075d8 <system__bb__cpu_primitives__gnat_error_handler>:
 80075d8:	b5b0      	push	{r4, r5, r7, lr}
 80075da:	af00      	add	r7, sp, #0
 80075dc:	2810      	cmp	r0, #16
 80075de:	d806      	bhi.n	80075ee <system__bb__cpu_primitives__gnat_error_handler+0x16>
 80075e0:	b2c0      	uxtb	r0, r0
 80075e2:	2806      	cmp	r0, #6
 80075e4:	d87b      	bhi.n	80076de <system__bb__cpu_primitives__gnat_error_handler+0x106>
 80075e6:	4b49      	ldr	r3, [pc, #292]	; (800770c <system__bb__cpu_primitives__gnat_error_handler+0x134>)
 80075e8:	0080      	lsls	r0, r0, #2
 80075ea:	581b      	ldr	r3, [r3, r0]
 80075ec:	469f      	mov	pc, r3
 80075ee:	2188      	movs	r1, #136	; 0x88
 80075f0:	4847      	ldr	r0, [pc, #284]	; (8007710 <system__bb__cpu_primitives__gnat_error_handler+0x138>)
 80075f2:	0049      	lsls	r1, r1, #1
 80075f4:	f001 f880 	bl	80086f8 <__gnat_last_chance_handler>
 80075f8:	2338      	movs	r3, #56	; 0x38
 80075fa:	4846      	ldr	r0, [pc, #280]	; (8007714 <system__bb__cpu_primitives__gnat_error_handler+0x13c>)
 80075fc:	5cc1      	ldrb	r1, [r0, r3]
 80075fe:	2900      	cmp	r1, #0
 8007600:	d026      	beq.n	8007650 <system__bb__cpu_primitives__gnat_error_handler+0x78>
 8007602:	b092      	sub	sp, #72	; 0x48
 8007604:	466c      	mov	r4, sp
 8007606:	0025      	movs	r5, r4
 8007608:	2301      	movs	r3, #1
 800760a:	2239      	movs	r2, #57	; 0x39
 800760c:	3508      	adds	r5, #8
 800760e:	0001      	movs	r1, r0
 8007610:	0028      	movs	r0, r5
 8007612:	6023      	str	r3, [r4, #0]
 8007614:	6062      	str	r2, [r4, #4]
 8007616:	f001 fb05 	bl	8008c24 <memcpy>
 800761a:	2100      	movs	r1, #0
 800761c:	2340      	movs	r3, #64	; 0x40
 800761e:	0028      	movs	r0, r5
 8007620:	54e1      	strb	r1, [r4, r3]
 8007622:	f001 f869 	bl	80086f8 <__gnat_last_chance_handler>
 8007626:	233d      	movs	r3, #61	; 0x3d
 8007628:	483b      	ldr	r0, [pc, #236]	; (8007718 <system__bb__cpu_primitives__gnat_error_handler+0x140>)
 800762a:	5cc1      	ldrb	r1, [r0, r3]
 800762c:	2900      	cmp	r1, #0
 800762e:	d00f      	beq.n	8007650 <system__bb__cpu_primitives__gnat_error_handler+0x78>
 8007630:	b094      	sub	sp, #80	; 0x50
 8007632:	466c      	mov	r4, sp
 8007634:	0025      	movs	r5, r4
 8007636:	2301      	movs	r3, #1
 8007638:	223e      	movs	r2, #62	; 0x3e
 800763a:	3508      	adds	r5, #8
 800763c:	0001      	movs	r1, r0
 800763e:	0028      	movs	r0, r5
 8007640:	6023      	str	r3, [r4, #0]
 8007642:	6062      	str	r2, [r4, #4]
 8007644:	f001 faee 	bl	8008c24 <memcpy>
 8007648:	2100      	movs	r1, #0
 800764a:	2345      	movs	r3, #69	; 0x45
 800764c:	0028      	movs	r0, r5
 800764e:	54e1      	strb	r1, [r4, r3]
 8007650:	f001 f852 	bl	80086f8 <__gnat_last_chance_handler>
 8007654:	2337      	movs	r3, #55	; 0x37
 8007656:	4831      	ldr	r0, [pc, #196]	; (800771c <system__bb__cpu_primitives__gnat_error_handler+0x144>)
 8007658:	5cc1      	ldrb	r1, [r0, r3]
 800765a:	2900      	cmp	r1, #0
 800765c:	d0f8      	beq.n	8007650 <system__bb__cpu_primitives__gnat_error_handler+0x78>
 800765e:	b092      	sub	sp, #72	; 0x48
 8007660:	466c      	mov	r4, sp
 8007662:	0025      	movs	r5, r4
 8007664:	2301      	movs	r3, #1
 8007666:	2238      	movs	r2, #56	; 0x38
 8007668:	3508      	adds	r5, #8
 800766a:	0001      	movs	r1, r0
 800766c:	0028      	movs	r0, r5
 800766e:	6023      	str	r3, [r4, #0]
 8007670:	6062      	str	r2, [r4, #4]
 8007672:	f001 fad7 	bl	8008c24 <memcpy>
 8007676:	2100      	movs	r1, #0
 8007678:	233f      	movs	r3, #63	; 0x3f
 800767a:	0028      	movs	r0, r5
 800767c:	54e1      	strb	r1, [r4, r3]
 800767e:	f001 f83b 	bl	80086f8 <__gnat_last_chance_handler>
 8007682:	2343      	movs	r3, #67	; 0x43
 8007684:	4826      	ldr	r0, [pc, #152]	; (8007720 <system__bb__cpu_primitives__gnat_error_handler+0x148>)
 8007686:	5cc1      	ldrb	r1, [r0, r3]
 8007688:	2900      	cmp	r1, #0
 800768a:	d0e1      	beq.n	8007650 <system__bb__cpu_primitives__gnat_error_handler+0x78>
 800768c:	b094      	sub	sp, #80	; 0x50
 800768e:	466c      	mov	r4, sp
 8007690:	0025      	movs	r5, r4
 8007692:	2301      	movs	r3, #1
 8007694:	2244      	movs	r2, #68	; 0x44
 8007696:	3508      	adds	r5, #8
 8007698:	0001      	movs	r1, r0
 800769a:	0028      	movs	r0, r5
 800769c:	6023      	str	r3, [r4, #0]
 800769e:	6062      	str	r2, [r4, #4]
 80076a0:	f001 fac0 	bl	8008c24 <memcpy>
 80076a4:	2100      	movs	r1, #0
 80076a6:	234b      	movs	r3, #75	; 0x4b
 80076a8:	0028      	movs	r0, r5
 80076aa:	54e1      	strb	r1, [r4, r3]
 80076ac:	f001 f824 	bl	80086f8 <__gnat_last_chance_handler>
 80076b0:	2336      	movs	r3, #54	; 0x36
 80076b2:	481c      	ldr	r0, [pc, #112]	; (8007724 <system__bb__cpu_primitives__gnat_error_handler+0x14c>)
 80076b4:	5cc1      	ldrb	r1, [r0, r3]
 80076b6:	2900      	cmp	r1, #0
 80076b8:	d0ca      	beq.n	8007650 <system__bb__cpu_primitives__gnat_error_handler+0x78>
 80076ba:	b092      	sub	sp, #72	; 0x48
 80076bc:	466c      	mov	r4, sp
 80076be:	0025      	movs	r5, r4
 80076c0:	2301      	movs	r3, #1
 80076c2:	2237      	movs	r2, #55	; 0x37
 80076c4:	3508      	adds	r5, #8
 80076c6:	0001      	movs	r1, r0
 80076c8:	0028      	movs	r0, r5
 80076ca:	6023      	str	r3, [r4, #0]
 80076cc:	6062      	str	r2, [r4, #4]
 80076ce:	f001 faa9 	bl	8008c24 <memcpy>
 80076d2:	2100      	movs	r1, #0
 80076d4:	233e      	movs	r3, #62	; 0x3e
 80076d6:	0028      	movs	r0, r5
 80076d8:	54e1      	strb	r1, [r4, r3]
 80076da:	f001 f80d 	bl	80086f8 <__gnat_last_chance_handler>
 80076de:	233b      	movs	r3, #59	; 0x3b
 80076e0:	4811      	ldr	r0, [pc, #68]	; (8007728 <system__bb__cpu_primitives__gnat_error_handler+0x150>)
 80076e2:	5cc1      	ldrb	r1, [r0, r3]
 80076e4:	2900      	cmp	r1, #0
 80076e6:	d0b3      	beq.n	8007650 <system__bb__cpu_primitives__gnat_error_handler+0x78>
 80076e8:	b092      	sub	sp, #72	; 0x48
 80076ea:	466c      	mov	r4, sp
 80076ec:	0025      	movs	r5, r4
 80076ee:	2301      	movs	r3, #1
 80076f0:	223c      	movs	r2, #60	; 0x3c
 80076f2:	3508      	adds	r5, #8
 80076f4:	0001      	movs	r1, r0
 80076f6:	0028      	movs	r0, r5
 80076f8:	6023      	str	r3, [r4, #0]
 80076fa:	6062      	str	r2, [r4, #4]
 80076fc:	f001 fa92 	bl	8008c24 <memcpy>
 8007700:	2100      	movs	r1, #0
 8007702:	2343      	movs	r3, #67	; 0x43
 8007704:	0028      	movs	r0, r5
 8007706:	54e1      	strb	r1, [r4, r3]
 8007708:	e7a2      	b.n	8007650 <system__bb__cpu_primitives__gnat_error_handler+0x78>
 800770a:	46c0      	nop			; (mov r8, r8)
 800770c:	08009cb8 	.word	0x08009cb8
 8007710:	08009cd4 	.word	0x08009cd4
 8007714:	08009dd8 	.word	0x08009dd8
 8007718:	08009ce4 	.word	0x08009ce4
 800771c:	08009d68 	.word	0x08009d68
 8007720:	08009d24 	.word	0x08009d24
 8007724:	08009da0 	.word	0x08009da0
 8007728:	08009e14 	.word	0x08009e14

0800772c <system__bb__cpu_primitives__initialize_cpu>:
 800772c:	b510      	push	{r4, lr}
 800772e:	f3ef 8008 	mrs	r0, MSP
 8007732:	f380 8809 	msr	PSP, r0
 8007736:	f3ef 8014 	mrs	r0, CONTROL
 800773a:	2102      	movs	r1, #2
 800773c:	4308      	orrs	r0, r1
 800773e:	f380 8814 	msr	CONTROL, r0
 8007742:	f3ef 8014 	mrs	r0, CONTROL
 8007746:	4b0f      	ldr	r3, [pc, #60]	; (8007784 <system__bb__cpu_primitives__initialize_cpu+0x58>)
 8007748:	681b      	ldr	r3, [r3, #0]
 800774a:	f383 8808 	msr	MSP, r3
 800774e:	4a0e      	ldr	r2, [pc, #56]	; (8007788 <system__bb__cpu_primitives__initialize_cpu+0x5c>)
 8007750:	4b0e      	ldr	r3, [pc, #56]	; (800778c <system__bb__cpu_primitives__initialize_cpu+0x60>)
 8007752:	601a      	str	r2, [r3, #0]
 8007754:	4a0e      	ldr	r2, [pc, #56]	; (8007790 <system__bb__cpu_primitives__initialize_cpu+0x64>)
 8007756:	4b0f      	ldr	r3, [pc, #60]	; (8007794 <system__bb__cpu_primitives__initialize_cpu+0x68>)
 8007758:	6811      	ldr	r1, [r2, #0]
 800775a:	430b      	orrs	r3, r1
 800775c:	6013      	str	r3, [r2, #0]
 800775e:	2300      	movs	r3, #0
 8007760:	4a0d      	ldr	r2, [pc, #52]	; (8007798 <system__bb__cpu_primitives__initialize_cpu+0x6c>)
 8007762:	6013      	str	r3, [r2, #0]
 8007764:	4a0d      	ldr	r2, [pc, #52]	; (800779c <system__bb__cpu_primitives__initialize_cpu+0x70>)
 8007766:	6013      	str	r3, [r2, #0]
 8007768:	22ff      	movs	r2, #255	; 0xff
 800776a:	4b0d      	ldr	r3, [pc, #52]	; (80077a0 <system__bb__cpu_primitives__initialize_cpu+0x74>)
 800776c:	0412      	lsls	r2, r2, #16
 800776e:	601a      	str	r2, [r3, #0]
 8007770:	23e0      	movs	r3, #224	; 0xe0
 8007772:	4a0c      	ldr	r2, [pc, #48]	; (80077a4 <system__bb__cpu_primitives__initialize_cpu+0x78>)
 8007774:	02db      	lsls	r3, r3, #11
 8007776:	6811      	ldr	r1, [r2, #0]
 8007778:	430b      	orrs	r3, r1
 800777a:	6013      	str	r3, [r2, #0]
 800777c:	f000 fec6 	bl	800850c <system__bb__cpu_primitives__context_switch_trigger__initialize_context_switch>
 8007780:	b661      	cpsie	f
 8007782:	bd10      	pop	{r4, pc}
 8007784:	20001074 	.word	0x20001074
 8007788:	08008a00 	.word	0x08008a00
 800778c:	e000ed08 	.word	0xe000ed08
 8007790:	e000ed14 	.word	0xe000ed14
 8007794:	00000211 	.word	0x00000211
 8007798:	e000ed18 	.word	0xe000ed18
 800779c:	e000ed1c 	.word	0xe000ed1c
 80077a0:	e000ed20 	.word	0xe000ed20
 80077a4:	e000ed24 	.word	0xe000ed24

080077a8 <system__bb__cpu_primitives__context_switch>:
 80077a8:	b510      	push	{r4, lr}
 80077aa:	f000 feb1 	bl	8008510 <system__bb__cpu_primitives__context_switch_trigger__trigger_context_switch>
 80077ae:	bd10      	pop	{r4, pc}

080077b0 <__gnat_irq_trap>:
 80077b0:	4b11      	ldr	r3, [pc, #68]	; (80077f8 <__gnat_irq_trap+0x48>)
 80077b2:	b510      	push	{r4, lr}
 80077b4:	6c1a      	ldr	r2, [r3, #64]	; 0x40
 80077b6:	2a00      	cmp	r2, #0
 80077b8:	d014      	beq.n	80077e4 <__gnat_irq_trap+0x34>
 80077ba:	6c1b      	ldr	r3, [r3, #64]	; 0x40
 80077bc:	2010      	movs	r0, #16
 80077be:	4798      	blx	r3
 80077c0:	f000 f97e 	bl	8007ac0 <__gnat_context_switch_needed>
 80077c4:	2800      	cmp	r0, #0
 80077c6:	d10a      	bne.n	80077de <__gnat_irq_trap+0x2e>
 80077c8:	f000 fa6e 	bl	8007ca8 <system__bb__threads__queues__running_thread>
 80077cc:	2800      	cmp	r0, #0
 80077ce:	d00e      	beq.n	80077ee <__gnat_irq_trap+0x3e>
 80077d0:	6b43      	ldr	r3, [r0, #52]	; 0x34
 80077d2:	b662      	cpsie	i
 80077d4:	f3bf 8f4f 	dsb	sy
 80077d8:	f3bf 8f6f 	isb	sy
 80077dc:	bd10      	pop	{r4, pc}
 80077de:	f000 fe97 	bl	8008510 <system__bb__cpu_primitives__context_switch_trigger__trigger_context_switch>
 80077e2:	e7f1      	b.n	80077c8 <__gnat_irq_trap+0x18>
 80077e4:	2194      	movs	r1, #148	; 0x94
 80077e6:	4805      	ldr	r0, [pc, #20]	; (80077fc <__gnat_irq_trap+0x4c>)
 80077e8:	0049      	lsls	r1, r1, #1
 80077ea:	f000 ff85 	bl	80086f8 <__gnat_last_chance_handler>
 80077ee:	21a3      	movs	r1, #163	; 0xa3
 80077f0:	4802      	ldr	r0, [pc, #8]	; (80077fc <__gnat_irq_trap+0x4c>)
 80077f2:	0049      	lsls	r1, r1, #1
 80077f4:	f000 ff80 	bl	80086f8 <__gnat_last_chance_handler>
 80077f8:	20001030 	.word	0x20001030
 80077fc:	08009cd4 	.word	0x08009cd4

08007800 <__gnat_sv_call_trap>:
 8007800:	b510      	push	{r4, lr}
 8007802:	200b      	movs	r0, #11
 8007804:	f7ff fee8 	bl	80075d8 <system__bb__cpu_primitives__gnat_error_handler>

08007808 <__gnat_sys_tick_trap>:
 8007808:	b510      	push	{r4, lr}
 800780a:	f7ff fdb1 	bl	8007370 <system__bb__board_support__time__read_clock>
 800780e:	2900      	cmp	r1, #0
 8007810:	d121      	bne.n	8007856 <__gnat_sys_tick_trap+0x4e>
 8007812:	4a18      	ldr	r2, [pc, #96]	; (8007874 <__gnat_sys_tick_trap+0x6c>)
 8007814:	6813      	ldr	r3, [r2, #0]
 8007816:	1a1b      	subs	r3, r3, r0
 8007818:	d400      	bmi.n	800781c <__gnat_sys_tick_trap+0x14>
 800781a:	bd10      	pop	{r4, pc}
 800781c:	4b16      	ldr	r3, [pc, #88]	; (8007878 <__gnat_sys_tick_trap+0x70>)
 800781e:	469c      	mov	ip, r3
 8007820:	4b16      	ldr	r3, [pc, #88]	; (800787c <__gnat_sys_tick_trap+0x74>)
 8007822:	4460      	add	r0, ip
 8007824:	6010      	str	r0, [r2, #0]
 8007826:	6bda      	ldr	r2, [r3, #60]	; 0x3c
 8007828:	2a00      	cmp	r2, #0
 800782a:	d01e      	beq.n	800786a <__gnat_sys_tick_trap+0x62>
 800782c:	6bdb      	ldr	r3, [r3, #60]	; 0x3c
 800782e:	200f      	movs	r0, #15
 8007830:	4798      	blx	r3
 8007832:	f000 f945 	bl	8007ac0 <__gnat_context_switch_needed>
 8007836:	2800      	cmp	r0, #0
 8007838:	d10a      	bne.n	8007850 <__gnat_sys_tick_trap+0x48>
 800783a:	f000 fa35 	bl	8007ca8 <system__bb__threads__queues__running_thread>
 800783e:	2800      	cmp	r0, #0
 8007840:	d00e      	beq.n	8007860 <__gnat_sys_tick_trap+0x58>
 8007842:	6b43      	ldr	r3, [r0, #52]	; 0x34
 8007844:	b662      	cpsie	i
 8007846:	f3bf 8f4f 	dsb	sy
 800784a:	f3bf 8f6f 	isb	sy
 800784e:	e7e4      	b.n	800781a <__gnat_sys_tick_trap+0x12>
 8007850:	f000 fe5e 	bl	8008510 <system__bb__cpu_primitives__context_switch_trigger__trigger_context_switch>
 8007854:	e7f1      	b.n	800783a <__gnat_sys_tick_trap+0x32>
 8007856:	21b2      	movs	r1, #178	; 0xb2
 8007858:	4809      	ldr	r0, [pc, #36]	; (8007880 <__gnat_sys_tick_trap+0x78>)
 800785a:	0049      	lsls	r1, r1, #1
 800785c:	f000 ff4c 	bl	80086f8 <__gnat_last_chance_handler>
 8007860:	21be      	movs	r1, #190	; 0xbe
 8007862:	4807      	ldr	r0, [pc, #28]	; (8007880 <__gnat_sys_tick_trap+0x78>)
 8007864:	0049      	lsls	r1, r1, #1
 8007866:	f000 ff47 	bl	80086f8 <__gnat_last_chance_handler>
 800786a:	21ba      	movs	r1, #186	; 0xba
 800786c:	4804      	ldr	r0, [pc, #16]	; (8007880 <__gnat_sys_tick_trap+0x78>)
 800786e:	0049      	lsls	r1, r1, #1
 8007870:	f000 ff42 	bl	80086f8 <__gnat_last_chance_handler>
 8007874:	20001028 	.word	0x20001028
 8007878:	7fffffff 	.word	0x7fffffff
 800787c:	20001030 	.word	0x20001030
 8007880:	08009cd4 	.word	0x08009cd4

08007884 <system__bb__cpu_primitives__initialize_context>:
 8007884:	b570      	push	{r4, r5, r6, lr}
 8007886:	0005      	movs	r5, r0
 8007888:	b088      	sub	sp, #32
 800788a:	2900      	cmp	r1, #0
 800788c:	d01c      	beq.n	80078c8 <system__bb__cpu_primitives__initialize_context+0x44>
 800788e:	3b20      	subs	r3, #32
 8007890:	001c      	movs	r4, r3
 8007892:	2304      	movs	r3, #4
 8007894:	439c      	bics	r4, r3
 8007896:	2300      	movs	r3, #0
 8007898:	9301      	str	r3, [sp, #4]
 800789a:	9302      	str	r3, [sp, #8]
 800789c:	9303      	str	r3, [sp, #12]
 800789e:	9304      	str	r3, [sp, #16]
 80078a0:	9305      	str	r3, [sp, #20]
 80078a2:	2380      	movs	r3, #128	; 0x80
 80078a4:	045b      	lsls	r3, r3, #17
 80078a6:	9200      	str	r2, [sp, #0]
 80078a8:	9307      	str	r3, [sp, #28]
 80078aa:	466a      	mov	r2, sp
 80078ac:	0023      	movs	r3, r4
 80078ae:	9106      	str	r1, [sp, #24]
 80078b0:	ca43      	ldmia	r2!, {r0, r1, r6}
 80078b2:	c343      	stmia	r3!, {r0, r1, r6}
 80078b4:	ca43      	ldmia	r2!, {r0, r1, r6}
 80078b6:	c343      	stmia	r3!, {r0, r1, r6}
 80078b8:	ca03      	ldmia	r2!, {r0, r1}
 80078ba:	c303      	stmia	r3!, {r0, r1}
 80078bc:	2228      	movs	r2, #40	; 0x28
 80078be:	2100      	movs	r1, #0
 80078c0:	0028      	movs	r0, r5
 80078c2:	f001 f9e1 	bl	8008c88 <memset>
 80078c6:	622c      	str	r4, [r5, #32]
 80078c8:	b008      	add	sp, #32
 80078ca:	bd70      	pop	{r4, r5, r6, pc}

080078cc <system__bb__cpu_primitives__install_trap_handler>:
 80078cc:	b510      	push	{r4, lr}
 80078ce:	2910      	cmp	r1, #16
 80078d0:	d803      	bhi.n	80078da <system__bb__cpu_primitives__install_trap_handler+0xe>
 80078d2:	4b04      	ldr	r3, [pc, #16]	; (80078e4 <system__bb__cpu_primitives__install_trap_handler+0x18>)
 80078d4:	0089      	lsls	r1, r1, #2
 80078d6:	50c8      	str	r0, [r1, r3]
 80078d8:	bd10      	pop	{r4, pc}
 80078da:	21de      	movs	r1, #222	; 0xde
 80078dc:	4802      	ldr	r0, [pc, #8]	; (80078e8 <system__bb__cpu_primitives__install_trap_handler+0x1c>)
 80078de:	0049      	lsls	r1, r1, #1
 80078e0:	f000 ff0a 	bl	80086f8 <__gnat_last_chance_handler>
 80078e4:	20001030 	.word	0x20001030
 80078e8:	08009cd4 	.word	0x08009cd4

080078ec <system__bb__cpu_primitives__disable_interrupts>:
 80078ec:	b672      	cpsid	i
 80078ee:	4770      	bx	lr

080078f0 <system__bb__cpu_primitives__enable_interrupts>:
 80078f0:	b662      	cpsie	i
 80078f2:	f3bf 8f4f 	dsb	sy
 80078f6:	f3bf 8f6f 	isb	sy
 80078fa:	4770      	bx	lr

080078fc <system__bb__interrupts__attach_handler>:
 80078fc:	1c4b      	adds	r3, r1, #1
 80078fe:	b510      	push	{r4, lr}
 8007900:	000c      	movs	r4, r1
 8007902:	2b52      	cmp	r3, #82	; 0x52
 8007904:	d807      	bhi.n	8007916 <system__bb__interrupts__attach_handler+0x1a>
 8007906:	4906      	ldr	r1, [pc, #24]	; (8007920 <system__bb__interrupts__attach_handler+0x24>)
 8007908:	009b      	lsls	r3, r3, #2
 800790a:	5058      	str	r0, [r3, r1]
 800790c:	0011      	movs	r1, r2
 800790e:	0020      	movs	r0, r4
 8007910:	f7ff fe44 	bl	800759c <system__bb__board_support__interrupts__install_interrupt_handler>
 8007914:	bd10      	pop	{r4, pc}
 8007916:	2180      	movs	r1, #128	; 0x80
 8007918:	4802      	ldr	r0, [pc, #8]	; (8007924 <system__bb__interrupts__attach_handler+0x28>)
 800791a:	f000 feed 	bl	80086f8 <__gnat_last_chance_handler>
 800791e:	46c0      	nop			; (mov r8, r8)
 8007920:	20001078 	.word	0x20001078
 8007924:	08009e50 	.word	0x08009e50

08007928 <system__bb__interrupts__interrupt_wrapper>:
 8007928:	b5f0      	push	{r4, r5, r6, r7, lr}
 800792a:	46de      	mov	lr, fp
 800792c:	464e      	mov	r6, r9
 800792e:	4645      	mov	r5, r8
 8007930:	4657      	mov	r7, sl
 8007932:	b5e0      	push	{r5, r6, r7, lr}
 8007934:	b083      	sub	sp, #12
 8007936:	0005      	movs	r5, r0
 8007938:	f000 fb8a 	bl	8008050 <system__bb__threads__thread_self>
 800793c:	0004      	movs	r4, r0
 800793e:	f000 fb09 	bl	8007f54 <system__bb__threads__get_priority>
 8007942:	4681      	mov	r9, r0
 8007944:	0028      	movs	r0, r5
 8007946:	f7ff fd81 	bl	800744c <system__bb__board_support__interrupts__priority_of_interrupt>
 800794a:	0003      	movs	r3, r0
 800794c:	3bf1      	subs	r3, #241	; 0xf1
 800794e:	0006      	movs	r6, r0
 8007950:	2b0e      	cmp	r3, #14
 8007952:	d846      	bhi.n	80079e2 <system__bb__interrupts__interrupt_wrapper+0xba>
 8007954:	f7ff fd78 	bl	8007448 <system__bb__board_support__multiprocessors__current_cpu>
 8007958:	4b2a      	ldr	r3, [pc, #168]	; (8007a04 <system__bb__interrupts__interrupt_wrapper+0xdc>)
 800795a:	0007      	movs	r7, r0
 800795c:	4698      	mov	r8, r3
 800795e:	4642      	mov	r2, r8
 8007960:	4b29      	ldr	r3, [pc, #164]	; (8007a08 <system__bb__interrupts__interrupt_wrapper+0xe0>)
 8007962:	18c3      	adds	r3, r0, r3
 8007964:	009b      	lsls	r3, r3, #2
 8007966:	58d3      	ldr	r3, [r2, r3]
 8007968:	469b      	mov	fp, r3
 800796a:	2c00      	cmp	r4, #0
 800796c:	d045      	beq.n	80079fa <system__bb__interrupts__interrupt_wrapper+0xd2>
 800796e:	2355      	movs	r3, #85	; 0x55
 8007970:	5ce3      	ldrb	r3, [r4, r3]
 8007972:	b2db      	uxtb	r3, r3
 8007974:	9301      	str	r3, [sp, #4]
 8007976:	4b25      	ldr	r3, [pc, #148]	; (8007a0c <system__bb__interrupts__interrupt_wrapper+0xe4>)
 8007978:	469a      	mov	sl, r3
 800797a:	681b      	ldr	r3, [r3, #0]
 800797c:	2b00      	cmp	r3, #0
 800797e:	d000      	beq.n	8007982 <system__bb__interrupts__interrupt_wrapper+0x5a>
 8007980:	4798      	blx	r3
 8007982:	2f01      	cmp	r7, #1
 8007984:	d135      	bne.n	80079f2 <system__bb__interrupts__interrupt_wrapper+0xca>
 8007986:	4643      	mov	r3, r8
 8007988:	601d      	str	r5, [r3, #0]
 800798a:	2355      	movs	r3, #85	; 0x55
 800798c:	0031      	movs	r1, r6
 800798e:	54e7      	strb	r7, [r4, r3]
 8007990:	0020      	movs	r0, r4
 8007992:	f000 f849 	bl	8007a28 <system__bb__threads__queues__change_priority>
 8007996:	0030      	movs	r0, r6
 8007998:	f7ff ffaa 	bl	80078f0 <system__bb__cpu_primitives__enable_interrupts>
 800799c:	1c6b      	adds	r3, r5, #1
 800799e:	4a1c      	ldr	r2, [pc, #112]	; (8007a10 <system__bb__interrupts__interrupt_wrapper+0xe8>)
 80079a0:	009b      	lsls	r3, r3, #2
 80079a2:	589b      	ldr	r3, [r3, r2]
 80079a4:	2b00      	cmp	r3, #0
 80079a6:	d020      	beq.n	80079ea <system__bb__interrupts__interrupt_wrapper+0xc2>
 80079a8:	0028      	movs	r0, r5
 80079aa:	4798      	blx	r3
 80079ac:	f7ff ff9e 	bl	80078ec <system__bb__cpu_primitives__disable_interrupts>
 80079b0:	4653      	mov	r3, sl
 80079b2:	681b      	ldr	r3, [r3, #0]
 80079b4:	2b00      	cmp	r3, #0
 80079b6:	d000      	beq.n	80079ba <system__bb__interrupts__interrupt_wrapper+0x92>
 80079b8:	4798      	blx	r3
 80079ba:	4649      	mov	r1, r9
 80079bc:	0020      	movs	r0, r4
 80079be:	f000 f833 	bl	8007a28 <system__bb__threads__queues__change_priority>
 80079c2:	4643      	mov	r3, r8
 80079c4:	465a      	mov	r2, fp
 80079c6:	601a      	str	r2, [r3, #0]
 80079c8:	2355      	movs	r3, #85	; 0x55
 80079ca:	9a01      	ldr	r2, [sp, #4]
 80079cc:	4648      	mov	r0, r9
 80079ce:	54e2      	strb	r2, [r4, r3]
 80079d0:	f7ff fd5e 	bl	8007490 <system__bb__board_support__interrupts__set_current_priority>
 80079d4:	b003      	add	sp, #12
 80079d6:	bc3c      	pop	{r2, r3, r4, r5}
 80079d8:	4690      	mov	r8, r2
 80079da:	4699      	mov	r9, r3
 80079dc:	46a2      	mov	sl, r4
 80079de:	46ab      	mov	fp, r5
 80079e0:	bdf0      	pop	{r4, r5, r6, r7, pc}
 80079e2:	21a4      	movs	r1, #164	; 0xa4
 80079e4:	480b      	ldr	r0, [pc, #44]	; (8007a14 <system__bb__interrupts__interrupt_wrapper+0xec>)
 80079e6:	f000 fe87 	bl	80086f8 <__gnat_last_chance_handler>
 80079ea:	21cc      	movs	r1, #204	; 0xcc
 80079ec:	4809      	ldr	r0, [pc, #36]	; (8007a14 <system__bb__interrupts__interrupt_wrapper+0xec>)
 80079ee:	f000 fe83 	bl	80086f8 <__gnat_last_chance_handler>
 80079f2:	21b3      	movs	r1, #179	; 0xb3
 80079f4:	4807      	ldr	r0, [pc, #28]	; (8007a14 <system__bb__interrupts__interrupt_wrapper+0xec>)
 80079f6:	f000 fe7f 	bl	80086f8 <__gnat_last_chance_handler>
 80079fa:	21a8      	movs	r1, #168	; 0xa8
 80079fc:	4805      	ldr	r0, [pc, #20]	; (8007a14 <system__bb__interrupts__interrupt_wrapper+0xec>)
 80079fe:	f000 fe7b 	bl	80086f8 <__gnat_last_chance_handler>
 8007a02:	46c0      	nop			; (mov r8, r8)
 8007a04:	20000034 	.word	0x20000034
 8007a08:	3fffffff 	.word	0x3fffffff
 8007a0c:	20000060 	.word	0x20000060
 8007a10:	20001078 	.word	0x20001078
 8007a14:	08009e50 	.word	0x08009e50

08007a18 <system__bb__interrupts__initialize_interrupts>:
 8007a18:	4a01      	ldr	r2, [pc, #4]	; (8007a20 <system__bb__interrupts__initialize_interrupts+0x8>)
 8007a1a:	4b02      	ldr	r3, [pc, #8]	; (8007a24 <system__bb__interrupts__initialize_interrupts+0xc>)
 8007a1c:	601a      	str	r2, [r3, #0]
 8007a1e:	4770      	bx	lr
 8007a20:	200015c8 	.word	0x200015c8
 8007a24:	20001074 	.word	0x20001074

08007a28 <system__bb__threads__queues__change_priority>:
 8007a28:	b5f8      	push	{r3, r4, r5, r6, r7, lr}
 8007a2a:	0004      	movs	r4, r0
 8007a2c:	000d      	movs	r5, r1
 8007a2e:	f7ff fd0b 	bl	8007448 <system__bb__board_support__multiprocessors__current_cpu>
 8007a32:	2c00      	cmp	r4, #0
 8007a34:	d036      	beq.n	8007aa4 <system__bb__threads__queues__change_priority+0x7c>
 8007a36:	6b63      	ldr	r3, [r4, #52]	; 0x34
 8007a38:	42ab      	cmp	r3, r5
 8007a3a:	d013      	beq.n	8007a64 <system__bb__threads__queues__change_priority+0x3c>
 8007a3c:	4b1d      	ldr	r3, [pc, #116]	; (8007ab4 <system__bb__threads__queues__change_priority+0x8c>)
 8007a3e:	4f1e      	ldr	r7, [pc, #120]	; (8007ab8 <system__bb__threads__queues__change_priority+0x90>)
 8007a40:	18c3      	adds	r3, r0, r3
 8007a42:	6365      	str	r5, [r4, #52]	; 0x34
 8007a44:	009b      	lsls	r3, r3, #2
 8007a46:	58f9      	ldr	r1, [r7, r3]
 8007a48:	428c      	cmp	r4, r1
 8007a4a:	d00c      	beq.n	8007a66 <system__bb__threads__queues__change_priority+0x3e>
 8007a4c:	2900      	cmp	r1, #0
 8007a4e:	d009      	beq.n	8007a64 <system__bb__threads__queues__change_priority+0x3c>
 8007a50:	6c0b      	ldr	r3, [r1, #64]	; 0x40
 8007a52:	429c      	cmp	r4, r3
 8007a54:	d104      	bne.n	8007a60 <system__bb__threads__queues__change_priority+0x38>
 8007a56:	e00d      	b.n	8007a74 <system__bb__threads__queues__change_priority+0x4c>
 8007a58:	6c1a      	ldr	r2, [r3, #64]	; 0x40
 8007a5a:	42a2      	cmp	r2, r4
 8007a5c:	d00b      	beq.n	8007a76 <system__bb__threads__queues__change_priority+0x4e>
 8007a5e:	0013      	movs	r3, r2
 8007a60:	2b00      	cmp	r3, #0
 8007a62:	d1f9      	bne.n	8007a58 <system__bb__threads__queues__change_priority+0x30>
 8007a64:	bdf8      	pop	{r3, r4, r5, r6, r7, pc}
 8007a66:	6c21      	ldr	r1, [r4, #64]	; 0x40
 8007a68:	2900      	cmp	r1, #0
 8007a6a:	d0fb      	beq.n	8007a64 <system__bb__threads__queues__change_priority+0x3c>
 8007a6c:	6b4b      	ldr	r3, [r1, #52]	; 0x34
 8007a6e:	42ab      	cmp	r3, r5
 8007a70:	dc03      	bgt.n	8007a7a <system__bb__threads__queues__change_priority+0x52>
 8007a72:	e7f7      	b.n	8007a64 <system__bb__threads__queues__change_priority+0x3c>
 8007a74:	000b      	movs	r3, r1
 8007a76:	6c22      	ldr	r2, [r4, #64]	; 0x40
 8007a78:	641a      	str	r2, [r3, #64]	; 0x40
 8007a7a:	6b4b      	ldr	r3, [r1, #52]	; 0x34
 8007a7c:	42ab      	cmp	r3, r5
 8007a7e:	dd0c      	ble.n	8007a9a <system__bb__threads__queues__change_priority+0x72>
 8007a80:	000a      	movs	r2, r1
 8007a82:	e003      	b.n	8007a8c <system__bb__threads__queues__change_priority+0x64>
 8007a84:	6b5e      	ldr	r6, [r3, #52]	; 0x34
 8007a86:	42ae      	cmp	r6, r5
 8007a88:	dd03      	ble.n	8007a92 <system__bb__threads__queues__change_priority+0x6a>
 8007a8a:	001a      	movs	r2, r3
 8007a8c:	6c13      	ldr	r3, [r2, #64]	; 0x40
 8007a8e:	2b00      	cmp	r3, #0
 8007a90:	d1f8      	bne.n	8007a84 <system__bb__threads__queues__change_priority+0x5c>
 8007a92:	6423      	str	r3, [r4, #64]	; 0x40
 8007a94:	6414      	str	r4, [r2, #64]	; 0x40
 8007a96:	000c      	movs	r4, r1
 8007a98:	e000      	b.n	8007a9c <system__bb__threads__queues__change_priority+0x74>
 8007a9a:	6421      	str	r1, [r4, #64]	; 0x40
 8007a9c:	2801      	cmp	r0, #1
 8007a9e:	d105      	bne.n	8007aac <system__bb__threads__queues__change_priority+0x84>
 8007aa0:	603c      	str	r4, [r7, #0]
 8007aa2:	e7df      	b.n	8007a64 <system__bb__threads__queues__change_priority+0x3c>
 8007aa4:	2148      	movs	r1, #72	; 0x48
 8007aa6:	4805      	ldr	r0, [pc, #20]	; (8007abc <system__bb__threads__queues__change_priority+0x94>)
 8007aa8:	f000 fe26 	bl	80086f8 <__gnat_last_chance_handler>
 8007aac:	21b0      	movs	r1, #176	; 0xb0
 8007aae:	4803      	ldr	r0, [pc, #12]	; (8007abc <system__bb__threads__queues__change_priority+0x94>)
 8007ab0:	f000 fe22 	bl	80086f8 <__gnat_last_chance_handler>
 8007ab4:	3fffffff 	.word	0x3fffffff
 8007ab8:	2000003c 	.word	0x2000003c
 8007abc:	08009e60 	.word	0x08009e60

08007ac0 <__gnat_context_switch_needed>:
 8007ac0:	b510      	push	{r4, lr}
 8007ac2:	f7ff fcc1 	bl	8007448 <system__bb__board_support__multiprocessors__current_cpu>
 8007ac6:	4b09      	ldr	r3, [pc, #36]	; (8007aec <__gnat_context_switch_needed+0x2c>)
 8007ac8:	469c      	mov	ip, r3
 8007aca:	4b09      	ldr	r3, [pc, #36]	; (8007af0 <__gnat_context_switch_needed+0x30>)
 8007acc:	4460      	add	r0, ip
 8007ace:	0080      	lsls	r0, r0, #2
 8007ad0:	58c4      	ldr	r4, [r0, r3]
 8007ad2:	f7ff fcb9 	bl	8007448 <system__bb__board_support__multiprocessors__current_cpu>
 8007ad6:	4b05      	ldr	r3, [pc, #20]	; (8007aec <__gnat_context_switch_needed+0x2c>)
 8007ad8:	469c      	mov	ip, r3
 8007ada:	4b06      	ldr	r3, [pc, #24]	; (8007af4 <__gnat_context_switch_needed+0x34>)
 8007adc:	4460      	add	r0, ip
 8007ade:	0080      	lsls	r0, r0, #2
 8007ae0:	58c0      	ldr	r0, [r0, r3]
 8007ae2:	1b00      	subs	r0, r0, r4
 8007ae4:	1e43      	subs	r3, r0, #1
 8007ae6:	4198      	sbcs	r0, r3
 8007ae8:	b2c0      	uxtb	r0, r0
 8007aea:	bd10      	pop	{r4, pc}
 8007aec:	3fffffff 	.word	0x3fffffff
 8007af0:	2000003c 	.word	0x2000003c
 8007af4:	20000038 	.word	0x20000038

08007af8 <system__bb__threads__queues__extract>:
 8007af8:	b510      	push	{r4, lr}
 8007afa:	0004      	movs	r4, r0
 8007afc:	f000 fa08 	bl	8007f10 <system__bb__threads__get_cpu>
 8007b00:	2c00      	cmp	r4, #0
 8007b02:	d007      	beq.n	8007b14 <system__bb__threads__queues__extract+0x1c>
 8007b04:	2801      	cmp	r0, #1
 8007b06:	d105      	bne.n	8007b14 <system__bb__threads__queues__extract+0x1c>
 8007b08:	4b04      	ldr	r3, [pc, #16]	; (8007b1c <system__bb__threads__queues__extract+0x24>)
 8007b0a:	6c22      	ldr	r2, [r4, #64]	; 0x40
 8007b0c:	601a      	str	r2, [r3, #0]
 8007b0e:	2300      	movs	r3, #0
 8007b10:	6423      	str	r3, [r4, #64]	; 0x40
 8007b12:	bd10      	pop	{r4, pc}
 8007b14:	21dc      	movs	r1, #220	; 0xdc
 8007b16:	4802      	ldr	r0, [pc, #8]	; (8007b20 <system__bb__threads__queues__extract+0x28>)
 8007b18:	f000 fdee 	bl	80086f8 <__gnat_last_chance_handler>
 8007b1c:	2000003c 	.word	0x2000003c
 8007b20:	08009e60 	.word	0x08009e60

08007b24 <system__bb__threads__queues__get_next_alarm_time>:
 8007b24:	4b07      	ldr	r3, [pc, #28]	; (8007b44 <system__bb__threads__queues__get_next_alarm_time+0x20>)
 8007b26:	469c      	mov	ip, r3
 8007b28:	4b07      	ldr	r3, [pc, #28]	; (8007b48 <system__bb__threads__queues__get_next_alarm_time+0x24>)
 8007b2a:	4460      	add	r0, ip
 8007b2c:	0080      	lsls	r0, r0, #2
 8007b2e:	58c3      	ldr	r3, [r0, r3]
 8007b30:	2b00      	cmp	r3, #0
 8007b32:	d002      	beq.n	8007b3a <system__bb__threads__queues__get_next_alarm_time+0x16>
 8007b34:	6c98      	ldr	r0, [r3, #72]	; 0x48
 8007b36:	6cd9      	ldr	r1, [r3, #76]	; 0x4c
 8007b38:	4770      	bx	lr
 8007b3a:	2001      	movs	r0, #1
 8007b3c:	4240      	negs	r0, r0
 8007b3e:	17c1      	asrs	r1, r0, #31
 8007b40:	e7fa      	b.n	8007b38 <system__bb__threads__queues__get_next_alarm_time+0x14>
 8007b42:	46c0      	nop			; (mov r8, r8)
 8007b44:	3fffffff 	.word	0x3fffffff
 8007b48:	20000040 	.word	0x20000040

08007b4c <system__bb__threads__queues__insert>:
 8007b4c:	b570      	push	{r4, r5, r6, lr}
 8007b4e:	0004      	movs	r4, r0
 8007b50:	f000 f9de 	bl	8007f10 <system__bb__threads__get_cpu>
 8007b54:	4a2e      	ldr	r2, [pc, #184]	; (8007c10 <system__bb__threads__queues__insert+0xc4>)
 8007b56:	4b2f      	ldr	r3, [pc, #188]	; (8007c14 <system__bb__threads__queues__insert+0xc8>)
 8007b58:	1881      	adds	r1, r0, r2
 8007b5a:	008a      	lsls	r2, r1, #2
 8007b5c:	589d      	ldr	r5, [r3, r2]
 8007b5e:	42a5      	cmp	r5, r4
 8007b60:	d025      	beq.n	8007bae <system__bb__threads__queues__insert+0x62>
 8007b62:	589d      	ldr	r5, [r3, r2]
 8007b64:	2d00      	cmp	r5, #0
 8007b66:	d023      	beq.n	8007bb0 <system__bb__threads__queues__insert+0x64>
 8007b68:	2c00      	cmp	r4, #0
 8007b6a:	d047      	beq.n	8007bfc <system__bb__threads__queues__insert+0xb0>
 8007b6c:	589d      	ldr	r5, [r3, r2]
 8007b6e:	2d00      	cmp	r5, #0
 8007b70:	d044      	beq.n	8007bfc <system__bb__threads__queues__insert+0xb0>
 8007b72:	6b66      	ldr	r6, [r4, #52]	; 0x34
 8007b74:	6b6d      	ldr	r5, [r5, #52]	; 0x34
 8007b76:	42ae      	cmp	r6, r5
 8007b78:	dc1c      	bgt.n	8007bb4 <system__bb__threads__queues__insert+0x68>
 8007b7a:	5899      	ldr	r1, [r3, r2]
 8007b7c:	2900      	cmp	r1, #0
 8007b7e:	d038      	beq.n	8007bf2 <system__bb__threads__queues__insert+0xa6>
 8007b80:	6c0a      	ldr	r2, [r1, #64]	; 0x40
 8007b82:	2a00      	cmp	r2, #0
 8007b84:	d02f      	beq.n	8007be6 <system__bb__threads__queues__insert+0x9a>
 8007b86:	4294      	cmp	r4, r2
 8007b88:	d01b      	beq.n	8007bc2 <system__bb__threads__queues__insert+0x76>
 8007b8a:	6b50      	ldr	r0, [r2, #52]	; 0x34
 8007b8c:	6b63      	ldr	r3, [r4, #52]	; 0x34
 8007b8e:	4298      	cmp	r0, r3
 8007b90:	da07      	bge.n	8007ba2 <system__bb__threads__queues__insert+0x56>
 8007b92:	e02b      	b.n	8007bec <system__bb__threads__queues__insert+0xa0>
 8007b94:	42a3      	cmp	r3, r4
 8007b96:	d015      	beq.n	8007bc4 <system__bb__threads__queues__insert+0x78>
 8007b98:	6b58      	ldr	r0, [r3, #52]	; 0x34
 8007b9a:	6b61      	ldr	r1, [r4, #52]	; 0x34
 8007b9c:	4288      	cmp	r0, r1
 8007b9e:	db04      	blt.n	8007baa <system__bb__threads__queues__insert+0x5e>
 8007ba0:	001a      	movs	r2, r3
 8007ba2:	6c13      	ldr	r3, [r2, #64]	; 0x40
 8007ba4:	2b00      	cmp	r3, #0
 8007ba6:	d1f5      	bne.n	8007b94 <system__bb__threads__queues__insert+0x48>
 8007ba8:	2300      	movs	r3, #0
 8007baa:	6423      	str	r3, [r4, #64]	; 0x40
 8007bac:	6414      	str	r4, [r2, #64]	; 0x40
 8007bae:	bd70      	pop	{r4, r5, r6, pc}
 8007bb0:	2c00      	cmp	r4, #0
 8007bb2:	d013      	beq.n	8007bdc <system__bb__threads__queues__insert+0x90>
 8007bb4:	0089      	lsls	r1, r1, #2
 8007bb6:	585a      	ldr	r2, [r3, r1]
 8007bb8:	6422      	str	r2, [r4, #64]	; 0x40
 8007bba:	2801      	cmp	r0, #1
 8007bbc:	d123      	bne.n	8007c06 <system__bb__threads__queues__insert+0xba>
 8007bbe:	601c      	str	r4, [r3, #0]
 8007bc0:	e7f5      	b.n	8007bae <system__bb__threads__queues__insert+0x62>
 8007bc2:	000a      	movs	r2, r1
 8007bc4:	6c23      	ldr	r3, [r4, #64]	; 0x40
 8007bc6:	6413      	str	r3, [r2, #64]	; 0x40
 8007bc8:	e005      	b.n	8007bd6 <system__bb__threads__queues__insert+0x8a>
 8007bca:	6b58      	ldr	r0, [r3, #52]	; 0x34
 8007bcc:	6b61      	ldr	r1, [r4, #52]	; 0x34
 8007bce:	4288      	cmp	r0, r1
 8007bd0:	dbeb      	blt.n	8007baa <system__bb__threads__queues__insert+0x5e>
 8007bd2:	001a      	movs	r2, r3
 8007bd4:	6c1b      	ldr	r3, [r3, #64]	; 0x40
 8007bd6:	2b00      	cmp	r3, #0
 8007bd8:	d1f7      	bne.n	8007bca <system__bb__threads__queues__insert+0x7e>
 8007bda:	e7e6      	b.n	8007baa <system__bb__threads__queues__insert+0x5e>
 8007bdc:	219b      	movs	r1, #155	; 0x9b
 8007bde:	480e      	ldr	r0, [pc, #56]	; (8007c18 <system__bb__threads__queues__insert+0xcc>)
 8007be0:	0049      	lsls	r1, r1, #1
 8007be2:	f000 fd89 	bl	80086f8 <__gnat_last_chance_handler>
 8007be6:	000a      	movs	r2, r1
 8007be8:	2300      	movs	r3, #0
 8007bea:	e7de      	b.n	8007baa <system__bb__threads__queues__insert+0x5e>
 8007bec:	0013      	movs	r3, r2
 8007bee:	000a      	movs	r2, r1
 8007bf0:	e7db      	b.n	8007baa <system__bb__threads__queues__insert+0x5e>
 8007bf2:	2140      	movs	r1, #64	; 0x40
 8007bf4:	4808      	ldr	r0, [pc, #32]	; (8007c18 <system__bb__threads__queues__insert+0xcc>)
 8007bf6:	31ff      	adds	r1, #255	; 0xff
 8007bf8:	f000 fd7e 	bl	80086f8 <__gnat_last_chance_handler>
 8007bfc:	219a      	movs	r1, #154	; 0x9a
 8007bfe:	4806      	ldr	r0, [pc, #24]	; (8007c18 <system__bb__threads__queues__insert+0xcc>)
 8007c00:	0049      	lsls	r1, r1, #1
 8007c02:	f000 fd79 	bl	80086f8 <__gnat_last_chance_handler>
 8007c06:	2138      	movs	r1, #56	; 0x38
 8007c08:	4803      	ldr	r0, [pc, #12]	; (8007c18 <system__bb__threads__queues__insert+0xcc>)
 8007c0a:	31ff      	adds	r1, #255	; 0xff
 8007c0c:	f000 fd74 	bl	80086f8 <__gnat_last_chance_handler>
 8007c10:	3fffffff 	.word	0x3fffffff
 8007c14:	2000003c 	.word	0x2000003c
 8007c18:	08009e60 	.word	0x08009e60

08007c1c <system__bb__threads__queues__insert_alarm>:
 8007c1c:	b570      	push	{r4, r5, r6, lr}
 8007c1e:	0006      	movs	r6, r0
 8007c20:	0010      	movs	r0, r2
 8007c22:	0014      	movs	r4, r2
 8007c24:	000d      	movs	r5, r1
 8007c26:	f000 f973 	bl	8007f10 <system__bb__threads__get_cpu>
 8007c2a:	2c00      	cmp	r4, #0
 8007c2c:	d031      	beq.n	8007c92 <system__bb__threads__queues__insert_alarm+0x76>
 8007c2e:	4b1b      	ldr	r3, [pc, #108]	; (8007c9c <system__bb__threads__queues__insert_alarm+0x80>)
 8007c30:	491b      	ldr	r1, [pc, #108]	; (8007ca0 <system__bb__threads__queues__insert_alarm+0x84>)
 8007c32:	18c3      	adds	r3, r0, r3
 8007c34:	009b      	lsls	r3, r3, #2
 8007c36:	58ca      	ldr	r2, [r1, r3]
 8007c38:	64a6      	str	r6, [r4, #72]	; 0x48
 8007c3a:	64e5      	str	r5, [r4, #76]	; 0x4c
 8007c3c:	2a00      	cmp	r2, #0
 8007c3e:	d002      	beq.n	8007c46 <system__bb__threads__queues__insert_alarm+0x2a>
 8007c40:	6cd3      	ldr	r3, [r2, #76]	; 0x4c
 8007c42:	42ab      	cmp	r3, r5
 8007c44:	d905      	bls.n	8007c52 <system__bb__threads__queues__insert_alarm+0x36>
 8007c46:	6522      	str	r2, [r4, #80]	; 0x50
 8007c48:	2801      	cmp	r0, #1
 8007c4a:	d11d      	bne.n	8007c88 <system__bb__threads__queues__insert_alarm+0x6c>
 8007c4c:	2001      	movs	r0, #1
 8007c4e:	600c      	str	r4, [r1, #0]
 8007c50:	bd70      	pop	{r4, r5, r6, pc}
 8007c52:	42ab      	cmp	r3, r5
 8007c54:	d00e      	beq.n	8007c74 <system__bb__threads__queues__insert_alarm+0x58>
 8007c56:	6d13      	ldr	r3, [r2, #80]	; 0x50
 8007c58:	2b00      	cmp	r3, #0
 8007c5a:	d007      	beq.n	8007c6c <system__bb__threads__queues__insert_alarm+0x50>
 8007c5c:	6cd9      	ldr	r1, [r3, #76]	; 0x4c
 8007c5e:	6c98      	ldr	r0, [r3, #72]	; 0x48
 8007c60:	428d      	cmp	r5, r1
 8007c62:	d90b      	bls.n	8007c7c <system__bb__threads__queues__insert_alarm+0x60>
 8007c64:	001a      	movs	r2, r3
 8007c66:	6d13      	ldr	r3, [r2, #80]	; 0x50
 8007c68:	2b00      	cmp	r3, #0
 8007c6a:	d1f7      	bne.n	8007c5c <system__bb__threads__queues__insert_alarm+0x40>
 8007c6c:	6523      	str	r3, [r4, #80]	; 0x50
 8007c6e:	2000      	movs	r0, #0
 8007c70:	6514      	str	r4, [r2, #80]	; 0x50
 8007c72:	e7ed      	b.n	8007c50 <system__bb__threads__queues__insert_alarm+0x34>
 8007c74:	6c93      	ldr	r3, [r2, #72]	; 0x48
 8007c76:	42b3      	cmp	r3, r6
 8007c78:	d9ed      	bls.n	8007c56 <system__bb__threads__queues__insert_alarm+0x3a>
 8007c7a:	e7e4      	b.n	8007c46 <system__bb__threads__queues__insert_alarm+0x2a>
 8007c7c:	428d      	cmp	r5, r1
 8007c7e:	d1f5      	bne.n	8007c6c <system__bb__threads__queues__insert_alarm+0x50>
 8007c80:	4286      	cmp	r6, r0
 8007c82:	d9f3      	bls.n	8007c6c <system__bb__threads__queues__insert_alarm+0x50>
 8007c84:	001a      	movs	r2, r3
 8007c86:	e7ee      	b.n	8007c66 <system__bb__threads__queues__insert_alarm+0x4a>
 8007c88:	21be      	movs	r1, #190	; 0xbe
 8007c8a:	4806      	ldr	r0, [pc, #24]	; (8007ca4 <system__bb__threads__queues__insert_alarm+0x88>)
 8007c8c:	0049      	lsls	r1, r1, #1
 8007c8e:	f000 fd33 	bl	80086f8 <__gnat_last_chance_handler>
 8007c92:	2174      	movs	r1, #116	; 0x74
 8007c94:	4803      	ldr	r0, [pc, #12]	; (8007ca4 <system__bb__threads__queues__insert_alarm+0x88>)
 8007c96:	31ff      	adds	r1, #255	; 0xff
 8007c98:	f000 fd2e 	bl	80086f8 <__gnat_last_chance_handler>
 8007c9c:	3fffffff 	.word	0x3fffffff
 8007ca0:	20000040 	.word	0x20000040
 8007ca4:	08009e60 	.word	0x08009e60

08007ca8 <system__bb__threads__queues__running_thread>:
 8007ca8:	b510      	push	{r4, lr}
 8007caa:	f7ff fbcd 	bl	8007448 <system__bb__board_support__multiprocessors__current_cpu>
 8007cae:	4b03      	ldr	r3, [pc, #12]	; (8007cbc <system__bb__threads__queues__running_thread+0x14>)
 8007cb0:	469c      	mov	ip, r3
 8007cb2:	4b03      	ldr	r3, [pc, #12]	; (8007cc0 <system__bb__threads__queues__running_thread+0x18>)
 8007cb4:	4460      	add	r0, ip
 8007cb6:	0080      	lsls	r0, r0, #2
 8007cb8:	58c0      	ldr	r0, [r0, r3]
 8007cba:	bd10      	pop	{r4, pc}
 8007cbc:	3fffffff 	.word	0x3fffffff
 8007cc0:	20000038 	.word	0x20000038

08007cc4 <system__bb__threads__queues__wakeup_expired_alarms>:
 8007cc4:	b5f8      	push	{r3, r4, r5, r6, r7, lr}
 8007cc6:	46de      	mov	lr, fp
 8007cc8:	4645      	mov	r5, r8
 8007cca:	4657      	mov	r7, sl
 8007ccc:	464e      	mov	r6, r9
 8007cce:	b5e0      	push	{r5, r6, r7, lr}
 8007cd0:	4683      	mov	fp, r0
 8007cd2:	4689      	mov	r9, r1
 8007cd4:	f7ff fbb8 	bl	8007448 <system__bb__board_support__multiprocessors__current_cpu>
 8007cd8:	4b4d      	ldr	r3, [pc, #308]	; (8007e10 <system__bb__threads__queues__wakeup_expired_alarms+0x14c>)
 8007cda:	4d4e      	ldr	r5, [pc, #312]	; (8007e14 <system__bb__threads__queues__wakeup_expired_alarms+0x150>)
 8007cdc:	4698      	mov	r8, r3
 8007cde:	4b4e      	ldr	r3, [pc, #312]	; (8007e18 <system__bb__threads__queues__wakeup_expired_alarms+0x154>)
 8007ce0:	469c      	mov	ip, r3
 8007ce2:	4460      	add	r0, ip
 8007ce4:	0083      	lsls	r3, r0, #2
 8007ce6:	469a      	mov	sl, r3
 8007ce8:	4643      	mov	r3, r8
 8007cea:	4652      	mov	r2, sl
 8007cec:	589b      	ldr	r3, [r3, r2]
 8007cee:	2b00      	cmp	r3, #0
 8007cf0:	d04d      	beq.n	8007d8e <system__bb__threads__queues__wakeup_expired_alarms+0xca>
 8007cf2:	6c9a      	ldr	r2, [r3, #72]	; 0x48
 8007cf4:	6cdb      	ldr	r3, [r3, #76]	; 0x4c
 8007cf6:	454b      	cmp	r3, r9
 8007cf8:	d84e      	bhi.n	8007d98 <system__bb__threads__queues__wakeup_expired_alarms+0xd4>
 8007cfa:	454b      	cmp	r3, r9
 8007cfc:	d068      	beq.n	8007dd0 <system__bb__threads__queues__wakeup_expired_alarms+0x10c>
 8007cfe:	f7ff fba3 	bl	8007448 <system__bb__board_support__multiprocessors__current_cpu>
 8007d02:	4642      	mov	r2, r8
 8007d04:	4b44      	ldr	r3, [pc, #272]	; (8007e18 <system__bb__threads__queues__wakeup_expired_alarms+0x154>)
 8007d06:	18c3      	adds	r3, r0, r3
 8007d08:	009b      	lsls	r3, r3, #2
 8007d0a:	58d4      	ldr	r4, [r2, r3]
 8007d0c:	2c00      	cmp	r4, #0
 8007d0e:	d06c      	beq.n	8007dea <system__bb__threads__queues__wakeup_expired_alarms+0x126>
 8007d10:	2801      	cmp	r0, #1
 8007d12:	d16a      	bne.n	8007dea <system__bb__threads__queues__wakeup_expired_alarms+0x126>
 8007d14:	4643      	mov	r3, r8
 8007d16:	6d22      	ldr	r2, [r4, #80]	; 0x50
 8007d18:	0020      	movs	r0, r4
 8007d1a:	601a      	str	r2, [r3, #0]
 8007d1c:	2201      	movs	r2, #1
 8007d1e:	4252      	negs	r2, r2
 8007d20:	17d3      	asrs	r3, r2, #31
 8007d22:	64a2      	str	r2, [r4, #72]	; 0x48
 8007d24:	64e3      	str	r3, [r4, #76]	; 0x4c
 8007d26:	2300      	movs	r3, #0
 8007d28:	3255      	adds	r2, #85	; 0x55
 8007d2a:	6523      	str	r3, [r4, #80]	; 0x50
 8007d2c:	54a3      	strb	r3, [r4, r2]
 8007d2e:	f000 f8ef 	bl	8007f10 <system__bb__threads__get_cpu>
 8007d32:	4b39      	ldr	r3, [pc, #228]	; (8007e18 <system__bb__threads__queues__wakeup_expired_alarms+0x154>)
 8007d34:	18c2      	adds	r2, r0, r3
 8007d36:	0093      	lsls	r3, r2, #2
 8007d38:	58e9      	ldr	r1, [r5, r3]
 8007d3a:	428c      	cmp	r4, r1
 8007d3c:	d0d4      	beq.n	8007ce8 <system__bb__threads__queues__wakeup_expired_alarms+0x24>
 8007d3e:	58e9      	ldr	r1, [r5, r3]
 8007d40:	2900      	cmp	r1, #0
 8007d42:	d02f      	beq.n	8007da4 <system__bb__threads__queues__wakeup_expired_alarms+0xe0>
 8007d44:	58e9      	ldr	r1, [r5, r3]
 8007d46:	2900      	cmp	r1, #0
 8007d48:	d058      	beq.n	8007dfc <system__bb__threads__queues__wakeup_expired_alarms+0x138>
 8007d4a:	6b66      	ldr	r6, [r4, #52]	; 0x34
 8007d4c:	6b49      	ldr	r1, [r1, #52]	; 0x34
 8007d4e:	428e      	cmp	r6, r1
 8007d50:	dc28      	bgt.n	8007da4 <system__bb__threads__queues__wakeup_expired_alarms+0xe0>
 8007d52:	58e9      	ldr	r1, [r5, r3]
 8007d54:	2900      	cmp	r1, #0
 8007d56:	d04c      	beq.n	8007df2 <system__bb__threads__queues__wakeup_expired_alarms+0x12e>
 8007d58:	6c0a      	ldr	r2, [r1, #64]	; 0x40
 8007d5a:	2a00      	cmp	r2, #0
 8007d5c:	d03b      	beq.n	8007dd6 <system__bb__threads__queues__wakeup_expired_alarms+0x112>
 8007d5e:	4294      	cmp	r4, r2
 8007d60:	d027      	beq.n	8007db2 <system__bb__threads__queues__wakeup_expired_alarms+0xee>
 8007d62:	6b50      	ldr	r0, [r2, #52]	; 0x34
 8007d64:	6b63      	ldr	r3, [r4, #52]	; 0x34
 8007d66:	4298      	cmp	r0, r3
 8007d68:	da07      	bge.n	8007d7a <system__bb__threads__queues__wakeup_expired_alarms+0xb6>
 8007d6a:	e039      	b.n	8007de0 <system__bb__threads__queues__wakeup_expired_alarms+0x11c>
 8007d6c:	429c      	cmp	r4, r3
 8007d6e:	d021      	beq.n	8007db4 <system__bb__threads__queues__wakeup_expired_alarms+0xf0>
 8007d70:	6b58      	ldr	r0, [r3, #52]	; 0x34
 8007d72:	6b61      	ldr	r1, [r4, #52]	; 0x34
 8007d74:	4288      	cmp	r0, r1
 8007d76:	db03      	blt.n	8007d80 <system__bb__threads__queues__wakeup_expired_alarms+0xbc>
 8007d78:	001a      	movs	r2, r3
 8007d7a:	6c13      	ldr	r3, [r2, #64]	; 0x40
 8007d7c:	2b00      	cmp	r3, #0
 8007d7e:	d1f5      	bne.n	8007d6c <system__bb__threads__queues__wakeup_expired_alarms+0xa8>
 8007d80:	6423      	str	r3, [r4, #64]	; 0x40
 8007d82:	6414      	str	r4, [r2, #64]	; 0x40
 8007d84:	4643      	mov	r3, r8
 8007d86:	4652      	mov	r2, sl
 8007d88:	589b      	ldr	r3, [r3, r2]
 8007d8a:	2b00      	cmp	r3, #0
 8007d8c:	d1b1      	bne.n	8007cf2 <system__bb__threads__queues__wakeup_expired_alarms+0x2e>
 8007d8e:	2201      	movs	r2, #1
 8007d90:	4252      	negs	r2, r2
 8007d92:	0013      	movs	r3, r2
 8007d94:	454b      	cmp	r3, r9
 8007d96:	d9b0      	bls.n	8007cfa <system__bb__threads__queues__wakeup_expired_alarms+0x36>
 8007d98:	bc3c      	pop	{r2, r3, r4, r5}
 8007d9a:	4690      	mov	r8, r2
 8007d9c:	4699      	mov	r9, r3
 8007d9e:	46a2      	mov	sl, r4
 8007da0:	46ab      	mov	fp, r5
 8007da2:	bdf8      	pop	{r3, r4, r5, r6, r7, pc}
 8007da4:	0092      	lsls	r2, r2, #2
 8007da6:	58ab      	ldr	r3, [r5, r2]
 8007da8:	6423      	str	r3, [r4, #64]	; 0x40
 8007daa:	2801      	cmp	r0, #1
 8007dac:	d12b      	bne.n	8007e06 <system__bb__threads__queues__wakeup_expired_alarms+0x142>
 8007dae:	602c      	str	r4, [r5, #0]
 8007db0:	e79a      	b.n	8007ce8 <system__bb__threads__queues__wakeup_expired_alarms+0x24>
 8007db2:	000a      	movs	r2, r1
 8007db4:	6c23      	ldr	r3, [r4, #64]	; 0x40
 8007db6:	6413      	str	r3, [r2, #64]	; 0x40
 8007db8:	e005      	b.n	8007dc6 <system__bb__threads__queues__wakeup_expired_alarms+0x102>
 8007dba:	6b58      	ldr	r0, [r3, #52]	; 0x34
 8007dbc:	6b61      	ldr	r1, [r4, #52]	; 0x34
 8007dbe:	4288      	cmp	r0, r1
 8007dc0:	dbde      	blt.n	8007d80 <system__bb__threads__queues__wakeup_expired_alarms+0xbc>
 8007dc2:	001a      	movs	r2, r3
 8007dc4:	6c1b      	ldr	r3, [r3, #64]	; 0x40
 8007dc6:	2b00      	cmp	r3, #0
 8007dc8:	d1f7      	bne.n	8007dba <system__bb__threads__queues__wakeup_expired_alarms+0xf6>
 8007dca:	6423      	str	r3, [r4, #64]	; 0x40
 8007dcc:	6414      	str	r4, [r2, #64]	; 0x40
 8007dce:	e7d9      	b.n	8007d84 <system__bb__threads__queues__wakeup_expired_alarms+0xc0>
 8007dd0:	455a      	cmp	r2, fp
 8007dd2:	d994      	bls.n	8007cfe <system__bb__threads__queues__wakeup_expired_alarms+0x3a>
 8007dd4:	e7e0      	b.n	8007d98 <system__bb__threads__queues__wakeup_expired_alarms+0xd4>
 8007dd6:	2300      	movs	r3, #0
 8007dd8:	000a      	movs	r2, r1
 8007dda:	6423      	str	r3, [r4, #64]	; 0x40
 8007ddc:	6414      	str	r4, [r2, #64]	; 0x40
 8007dde:	e7d1      	b.n	8007d84 <system__bb__threads__queues__wakeup_expired_alarms+0xc0>
 8007de0:	0013      	movs	r3, r2
 8007de2:	000a      	movs	r2, r1
 8007de4:	6423      	str	r3, [r4, #64]	; 0x40
 8007de6:	6414      	str	r4, [r2, #64]	; 0x40
 8007de8:	e7cc      	b.n	8007d84 <system__bb__threads__queues__wakeup_expired_alarms+0xc0>
 8007dea:	21ed      	movs	r1, #237	; 0xed
 8007dec:	480b      	ldr	r0, [pc, #44]	; (8007e1c <system__bb__threads__queues__wakeup_expired_alarms+0x158>)
 8007dee:	f000 fc83 	bl	80086f8 <__gnat_last_chance_handler>
 8007df2:	2140      	movs	r1, #64	; 0x40
 8007df4:	4809      	ldr	r0, [pc, #36]	; (8007e1c <system__bb__threads__queues__wakeup_expired_alarms+0x158>)
 8007df6:	31ff      	adds	r1, #255	; 0xff
 8007df8:	f000 fc7e 	bl	80086f8 <__gnat_last_chance_handler>
 8007dfc:	3135      	adds	r1, #53	; 0x35
 8007dfe:	31ff      	adds	r1, #255	; 0xff
 8007e00:	4806      	ldr	r0, [pc, #24]	; (8007e1c <system__bb__threads__queues__wakeup_expired_alarms+0x158>)
 8007e02:	f000 fc79 	bl	80086f8 <__gnat_last_chance_handler>
 8007e06:	2138      	movs	r1, #56	; 0x38
 8007e08:	4804      	ldr	r0, [pc, #16]	; (8007e1c <system__bb__threads__queues__wakeup_expired_alarms+0x158>)
 8007e0a:	31ff      	adds	r1, #255	; 0xff
 8007e0c:	f000 fc74 	bl	80086f8 <__gnat_last_chance_handler>
 8007e10:	20000040 	.word	0x20000040
 8007e14:	2000003c 	.word	0x2000003c
 8007e18:	3fffffff 	.word	0x3fffffff
 8007e1c:	08009e60 	.word	0x08009e60

08007e20 <system__bb__threads__queues__yield>:
 8007e20:	b570      	push	{r4, r5, r6, lr}
 8007e22:	0004      	movs	r4, r0
 8007e24:	f000 f874 	bl	8007f10 <system__bb__threads__get_cpu>
 8007e28:	2c00      	cmp	r4, #0
 8007e2a:	d02a      	beq.n	8007e82 <system__bb__threads__queues__yield+0x62>
 8007e2c:	6c23      	ldr	r3, [r4, #64]	; 0x40
 8007e2e:	6b62      	ldr	r2, [r4, #52]	; 0x34
 8007e30:	2b00      	cmp	r3, #0
 8007e32:	d002      	beq.n	8007e3a <system__bb__threads__queues__yield+0x1a>
 8007e34:	6b5d      	ldr	r5, [r3, #52]	; 0x34
 8007e36:	4295      	cmp	r5, r2
 8007e38:	d000      	beq.n	8007e3c <system__bb__threads__queues__yield+0x1c>
 8007e3a:	bd70      	pop	{r4, r5, r6, pc}
 8007e3c:	2801      	cmp	r0, #1
 8007e3e:	d125      	bne.n	8007e8c <system__bb__threads__queues__yield+0x6c>
 8007e40:	4a15      	ldr	r2, [pc, #84]	; (8007e98 <system__bb__threads__queues__yield+0x78>)
 8007e42:	6013      	str	r3, [r2, #0]
 8007e44:	6811      	ldr	r1, [r2, #0]
 8007e46:	2900      	cmp	r1, #0
 8007e48:	d016      	beq.n	8007e78 <system__bb__threads__queues__yield+0x58>
 8007e4a:	6c0a      	ldr	r2, [r1, #64]	; 0x40
 8007e4c:	2a00      	cmp	r2, #0
 8007e4e:	d00d      	beq.n	8007e6c <system__bb__threads__queues__yield+0x4c>
 8007e50:	6b53      	ldr	r3, [r2, #52]	; 0x34
 8007e52:	429d      	cmp	r5, r3
 8007e54:	d004      	beq.n	8007e60 <system__bb__threads__queues__yield+0x40>
 8007e56:	e00c      	b.n	8007e72 <system__bb__threads__queues__yield+0x52>
 8007e58:	6b59      	ldr	r1, [r3, #52]	; 0x34
 8007e5a:	428d      	cmp	r5, r1
 8007e5c:	d103      	bne.n	8007e66 <system__bb__threads__queues__yield+0x46>
 8007e5e:	001a      	movs	r2, r3
 8007e60:	6c13      	ldr	r3, [r2, #64]	; 0x40
 8007e62:	2b00      	cmp	r3, #0
 8007e64:	d1f8      	bne.n	8007e58 <system__bb__threads__queues__yield+0x38>
 8007e66:	6423      	str	r3, [r4, #64]	; 0x40
 8007e68:	6414      	str	r4, [r2, #64]	; 0x40
 8007e6a:	e7e6      	b.n	8007e3a <system__bb__threads__queues__yield+0x1a>
 8007e6c:	2300      	movs	r3, #0
 8007e6e:	000a      	movs	r2, r1
 8007e70:	e7f9      	b.n	8007e66 <system__bb__threads__queues__yield+0x46>
 8007e72:	0013      	movs	r3, r2
 8007e74:	000a      	movs	r2, r1
 8007e76:	e7f6      	b.n	8007e66 <system__bb__threads__queues__yield+0x46>
 8007e78:	21d2      	movs	r1, #210	; 0xd2
 8007e7a:	4808      	ldr	r0, [pc, #32]	; (8007e9c <system__bb__threads__queues__yield+0x7c>)
 8007e7c:	31ff      	adds	r1, #255	; 0xff
 8007e7e:	f000 fc3b 	bl	80086f8 <__gnat_last_chance_handler>
 8007e82:	21c2      	movs	r1, #194	; 0xc2
 8007e84:	4805      	ldr	r0, [pc, #20]	; (8007e9c <system__bb__threads__queues__yield+0x7c>)
 8007e86:	31ff      	adds	r1, #255	; 0xff
 8007e88:	f000 fc36 	bl	80086f8 <__gnat_last_chance_handler>
 8007e8c:	21e6      	movs	r1, #230	; 0xe6
 8007e8e:	4803      	ldr	r0, [pc, #12]	; (8007e9c <system__bb__threads__queues__yield+0x7c>)
 8007e90:	0049      	lsls	r1, r1, #1
 8007e92:	f000 fc31 	bl	80086f8 <__gnat_last_chance_handler>
 8007e96:	46c0      	nop			; (mov r8, r8)
 8007e98:	2000003c 	.word	0x2000003c
 8007e9c:	08009e60 	.word	0x08009e60

08007ea0 <system__bb__threads__initialize_thread>:
 8007ea0:	b570      	push	{r4, r5, r6, lr}
 8007ea2:	b082      	sub	sp, #8
 8007ea4:	0016      	movs	r6, r2
 8007ea6:	aa06      	add	r2, sp, #24
 8007ea8:	7812      	ldrb	r2, [r2, #0]
 8007eaa:	0004      	movs	r4, r0
 8007eac:	000d      	movs	r5, r1
 8007eae:	b252      	sxtb	r2, r2
 8007eb0:	2800      	cmp	r0, #0
 8007eb2:	d025      	beq.n	8007f00 <system__bb__threads__initialize_thread+0x60>
 8007eb4:	212c      	movs	r1, #44	; 0x2c
 8007eb6:	5442      	strb	r2, [r0, r1]
 8007eb8:	6303      	str	r3, [r0, #48]	; 0x30
 8007eba:	6343      	str	r3, [r0, #52]	; 0x34
 8007ebc:	4b12      	ldr	r3, [pc, #72]	; (8007f08 <system__bb__threads__initialize_thread+0x68>)
 8007ebe:	681a      	ldr	r2, [r3, #0]
 8007ec0:	6018      	str	r0, [r3, #0]
 8007ec2:	6582      	str	r2, [r0, #88]	; 0x58
 8007ec4:	f7ff fe42 	bl	8007b4c <system__bb__threads__queues__insert>
 8007ec8:	9b07      	ldr	r3, [sp, #28]
 8007eca:	2254      	movs	r2, #84	; 0x54
 8007ecc:	63a3      	str	r3, [r4, #56]	; 0x38
 8007ece:	9b08      	ldr	r3, [sp, #32]
 8007ed0:	2001      	movs	r0, #1
 8007ed2:	4240      	negs	r0, r0
 8007ed4:	17c1      	asrs	r1, r0, #31
 8007ed6:	63e3      	str	r3, [r4, #60]	; 0x3c
 8007ed8:	2300      	movs	r3, #0
 8007eda:	54a3      	strb	r3, [r4, r2]
 8007edc:	3201      	adds	r2, #1
 8007ede:	54a3      	strb	r3, [r4, r2]
 8007ee0:	3201      	adds	r2, #1
 8007ee2:	54a3      	strb	r3, [r4, r2]
 8007ee4:	9300      	str	r3, [sp, #0]
 8007ee6:	64a0      	str	r0, [r4, #72]	; 0x48
 8007ee8:	64e1      	str	r1, [r4, #76]	; 0x4c
 8007eea:	6523      	str	r3, [r4, #80]	; 0x50
 8007eec:	65e3      	str	r3, [r4, #92]	; 0x5c
 8007eee:	6623      	str	r3, [r4, #96]	; 0x60
 8007ef0:	0032      	movs	r2, r6
 8007ef2:	9b07      	ldr	r3, [sp, #28]
 8007ef4:	0029      	movs	r1, r5
 8007ef6:	0020      	movs	r0, r4
 8007ef8:	f7ff fcc4 	bl	8007884 <system__bb__cpu_primitives__initialize_context>
 8007efc:	b002      	add	sp, #8
 8007efe:	bd70      	pop	{r4, r5, r6, pc}
 8007f00:	2191      	movs	r1, #145	; 0x91
 8007f02:	4802      	ldr	r0, [pc, #8]	; (8007f0c <system__bb__threads__initialize_thread+0x6c>)
 8007f04:	f000 fbf8 	bl	80086f8 <__gnat_last_chance_handler>
 8007f08:	20000044 	.word	0x20000044
 8007f0c:	08009e70 	.word	0x08009e70

08007f10 <system__bb__threads__get_cpu>:
 8007f10:	b510      	push	{r4, lr}
 8007f12:	2800      	cmp	r0, #0
 8007f14:	d009      	beq.n	8007f2a <system__bb__threads__get_cpu+0x1a>
 8007f16:	232c      	movs	r3, #44	; 0x2c
 8007f18:	5cc3      	ldrb	r3, [r0, r3]
 8007f1a:	2b01      	cmp	r3, #1
 8007f1c:	d903      	bls.n	8007f26 <system__bb__threads__get_cpu+0x16>
 8007f1e:	2163      	movs	r1, #99	; 0x63
 8007f20:	4804      	ldr	r0, [pc, #16]	; (8007f34 <system__bb__threads__get_cpu+0x24>)
 8007f22:	f000 fbe9 	bl	80086f8 <__gnat_last_chance_handler>
 8007f26:	2001      	movs	r0, #1
 8007f28:	bd10      	pop	{r4, pc}
 8007f2a:	215d      	movs	r1, #93	; 0x5d
 8007f2c:	4801      	ldr	r0, [pc, #4]	; (8007f34 <system__bb__threads__get_cpu+0x24>)
 8007f2e:	f000 fbe3 	bl	80086f8 <__gnat_last_chance_handler>
 8007f32:	46c0      	nop			; (mov r8, r8)
 8007f34:	08009e70 	.word	0x08009e70

08007f38 <system__bb__threads__get_atcb>:
 8007f38:	b510      	push	{r4, lr}
 8007f3a:	f7ff feb5 	bl	8007ca8 <system__bb__threads__queues__running_thread>
 8007f3e:	2800      	cmp	r0, #0
 8007f40:	d001      	beq.n	8007f46 <system__bb__threads__get_atcb+0xe>
 8007f42:	6a80      	ldr	r0, [r0, #40]	; 0x28
 8007f44:	bd10      	pop	{r4, pc}
 8007f46:	216f      	movs	r1, #111	; 0x6f
 8007f48:	4801      	ldr	r0, [pc, #4]	; (8007f50 <system__bb__threads__get_atcb+0x18>)
 8007f4a:	f000 fbd5 	bl	80086f8 <__gnat_last_chance_handler>
 8007f4e:	46c0      	nop			; (mov r8, r8)
 8007f50:	08009e70 	.word	0x08009e70

08007f54 <system__bb__threads__get_priority>:
 8007f54:	b510      	push	{r4, lr}
 8007f56:	2800      	cmp	r0, #0
 8007f58:	d001      	beq.n	8007f5e <system__bb__threads__get_priority+0xa>
 8007f5a:	6b40      	ldr	r0, [r0, #52]	; 0x34
 8007f5c:	bd10      	pop	{r4, pc}
 8007f5e:	217d      	movs	r1, #125	; 0x7d
 8007f60:	4801      	ldr	r0, [pc, #4]	; (8007f68 <system__bb__threads__get_priority+0x14>)
 8007f62:	f000 fbc9 	bl	80086f8 <__gnat_last_chance_handler>
 8007f66:	46c0      	nop			; (mov r8, r8)
 8007f68:	08009e70 	.word	0x08009e70

08007f6c <system__bb__threads__initialize>:
 8007f6c:	b570      	push	{r4, r5, r6, lr}
 8007f6e:	b084      	sub	sp, #16
 8007f70:	000e      	movs	r6, r1
 8007f72:	0005      	movs	r5, r0
 8007f74:	f7ff fa68 	bl	8007448 <system__bb__board_support__multiprocessors__current_cpu>
 8007f78:	0004      	movs	r4, r0
 8007f7a:	f7ff fd4d 	bl	8007a18 <system__bb__interrupts__initialize_interrupts>
 8007f7e:	f7ff fbd5 	bl	800772c <system__bb__cpu_primitives__initialize_cpu>
 8007f82:	f7ff fa93 	bl	80074ac <system__bb__board_support__initialize_board>
 8007f86:	f000 f8cb 	bl	8008120 <system__bb__time__initialize_timers>
 8007f8a:	f000 faed 	bl	8008568 <system__bb__protection__enter_kernel>
 8007f8e:	4b0c      	ldr	r3, [pc, #48]	; (8007fc0 <system__bb__threads__initialize+0x54>)
 8007f90:	9400      	str	r4, [sp, #0]
 8007f92:	9302      	str	r3, [sp, #8]
 8007f94:	4b0b      	ldr	r3, [pc, #44]	; (8007fc4 <system__bb__threads__initialize+0x58>)
 8007f96:	2200      	movs	r2, #0
 8007f98:	9301      	str	r3, [sp, #4]
 8007f9a:	2100      	movs	r1, #0
 8007f9c:	0033      	movs	r3, r6
 8007f9e:	0028      	movs	r0, r5
 8007fa0:	f7ff ff7e 	bl	8007ea0 <system__bb__threads__initialize_thread>
 8007fa4:	2c01      	cmp	r4, #1
 8007fa6:	d107      	bne.n	8007fb8 <system__bb__threads__initialize+0x4c>
 8007fa8:	4b07      	ldr	r3, [pc, #28]	; (8007fc8 <system__bb__threads__initialize+0x5c>)
 8007faa:	601d      	str	r5, [r3, #0]
 8007fac:	4b07      	ldr	r3, [pc, #28]	; (8007fcc <system__bb__threads__initialize+0x60>)
 8007fae:	701c      	strb	r4, [r3, #0]
 8007fb0:	f000 fade 	bl	8008570 <system__bb__protection__leave_kernel>
 8007fb4:	b004      	add	sp, #16
 8007fb6:	bd70      	pop	{r4, r5, r6, pc}
 8007fb8:	21f2      	movs	r1, #242	; 0xf2
 8007fba:	4805      	ldr	r0, [pc, #20]	; (8007fd0 <system__bb__threads__initialize+0x64>)
 8007fbc:	f000 fb9c 	bl	80086f8 <__gnat_last_chance_handler>
 8007fc0:	200015d0 	.word	0x200015d0
 8007fc4:	200025d0 	.word	0x200025d0
 8007fc8:	20000038 	.word	0x20000038
 8007fcc:	20000048 	.word	0x20000048
 8007fd0:	08009e70 	.word	0x08009e70

08007fd4 <system__bb__threads__set_atcb>:
 8007fd4:	b510      	push	{r4, lr}
 8007fd6:	2800      	cmp	r0, #0
 8007fd8:	d001      	beq.n	8007fde <system__bb__threads__set_atcb+0xa>
 8007fda:	6281      	str	r1, [r0, #40]	; 0x28
 8007fdc:	bd10      	pop	{r4, pc}
 8007fde:	218c      	movs	r1, #140	; 0x8c
 8007fe0:	4801      	ldr	r0, [pc, #4]	; (8007fe8 <system__bb__threads__set_atcb+0x14>)
 8007fe2:	0049      	lsls	r1, r1, #1
 8007fe4:	f000 fb88 	bl	80086f8 <__gnat_last_chance_handler>
 8007fe8:	08009e70 	.word	0x08009e70

08007fec <system__bb__threads__set_priority>:
 8007fec:	b510      	push	{r4, lr}
 8007fee:	0004      	movs	r4, r0
 8007ff0:	f000 faba 	bl	8008568 <system__bb__protection__enter_kernel>
 8007ff4:	f7ff fe58 	bl	8007ca8 <system__bb__threads__queues__running_thread>
 8007ff8:	0021      	movs	r1, r4
 8007ffa:	f7ff fd15 	bl	8007a28 <system__bb__threads__queues__change_priority>
 8007ffe:	f000 fab7 	bl	8008570 <system__bb__protection__leave_kernel>
 8008002:	bd10      	pop	{r4, pc}

08008004 <system__bb__threads__thread_create>:
 8008004:	b5f0      	push	{r4, r5, r6, r7, lr}
 8008006:	46ce      	mov	lr, r9
 8008008:	b500      	push	{lr}
 800800a:	b084      	sub	sp, #16
 800800c:	001c      	movs	r4, r3
 800800e:	ab0a      	add	r3, sp, #40	; 0x28
 8008010:	781b      	ldrb	r3, [r3, #0]
 8008012:	0017      	movs	r7, r2
 8008014:	b25b      	sxtb	r3, r3
 8008016:	4699      	mov	r9, r3
 8008018:	0005      	movs	r5, r0
 800801a:	000e      	movs	r6, r1
 800801c:	f000 faa4 	bl	8008568 <system__bb__protection__enter_kernel>
 8008020:	9a0b      	ldr	r2, [sp, #44]	; 0x2c
 8008022:	9b0b      	ldr	r3, [sp, #44]	; 0x2c
 8008024:	4694      	mov	ip, r2
 8008026:	2207      	movs	r2, #7
 8008028:	9302      	str	r3, [sp, #8]
 800802a:	9b0c      	ldr	r3, [sp, #48]	; 0x30
 800802c:	0031      	movs	r1, r6
 800802e:	4463      	add	r3, ip
 8008030:	4393      	bics	r3, r2
 8008032:	9301      	str	r3, [sp, #4]
 8008034:	464b      	mov	r3, r9
 8008036:	003a      	movs	r2, r7
 8008038:	9300      	str	r3, [sp, #0]
 800803a:	0028      	movs	r0, r5
 800803c:	0023      	movs	r3, r4
 800803e:	f7ff ff2f 	bl	8007ea0 <system__bb__threads__initialize_thread>
 8008042:	f000 fa95 	bl	8008570 <system__bb__protection__leave_kernel>
 8008046:	b004      	add	sp, #16
 8008048:	bc04      	pop	{r2}
 800804a:	4691      	mov	r9, r2
 800804c:	bdf0      	pop	{r4, r5, r6, r7, pc}
 800804e:	46c0      	nop			; (mov r8, r8)

08008050 <system__bb__threads__thread_self>:
 8008050:	b510      	push	{r4, lr}
 8008052:	f7ff fe29 	bl	8007ca8 <system__bb__threads__queues__running_thread>
 8008056:	bd10      	pop	{r4, pc}

08008058 <system__bb__time__clock>:
 8008058:	b5f0      	push	{r4, r5, r6, r7, lr}
 800805a:	46d6      	mov	lr, sl
 800805c:	464f      	mov	r7, r9
 800805e:	4646      	mov	r6, r8
 8008060:	2400      	movs	r4, #0
 8008062:	b5c0      	push	{r6, r7, lr}
 8008064:	4d21      	ldr	r5, [pc, #132]	; (80080ec <system__bb__time__clock+0x94>)
 8008066:	682b      	ldr	r3, [r5, #0]
 8008068:	3401      	adds	r4, #1
 800806a:	4698      	mov	r8, r3
 800806c:	686b      	ldr	r3, [r5, #4]
 800806e:	469a      	mov	sl, r3
 8008070:	f7ff f97e 	bl	8007370 <system__bb__board_support__time__read_clock>
 8008074:	0006      	movs	r6, r0
 8008076:	1e0f      	subs	r7, r1, #0
 8008078:	d132      	bne.n	80080e0 <system__bb__time__clock+0x88>
 800807a:	682b      	ldr	r3, [r5, #0]
 800807c:	4598      	cmp	r8, r3
 800807e:	d01c      	beq.n	80080ba <system__bb__time__clock+0x62>
 8008080:	2c01      	cmp	r4, #1
 8008082:	d018      	beq.n	80080b6 <system__bb__time__clock+0x5e>
 8008084:	4643      	mov	r3, r8
 8008086:	464a      	mov	r2, r9
 8008088:	1a9b      	subs	r3, r3, r2
 800808a:	2b01      	cmp	r3, #1
 800808c:	d803      	bhi.n	8008096 <system__bb__time__clock+0x3e>
 800808e:	2c03      	cmp	r4, #3
 8008090:	d001      	beq.n	8008096 <system__bb__time__clock+0x3e>
 8008092:	2402      	movs	r4, #2
 8008094:	e7e7      	b.n	8008066 <system__bb__time__clock+0xe>
 8008096:	f7ff f967 	bl	8007368 <system__bb__board_support__time__max_timer_interval>
 800809a:	2300      	movs	r3, #0
 800809c:	0002      	movs	r2, r0
 800809e:	2100      	movs	r1, #0
 80080a0:	2001      	movs	r0, #1
 80080a2:	1880      	adds	r0, r0, r2
 80080a4:	4159      	adcs	r1, r3
 80080a6:	4642      	mov	r2, r8
 80080a8:	f001 f89c 	bl	80091e4 <__aeabi_lmul>
 80080ac:	bc1c      	pop	{r2, r3, r4}
 80080ae:	4690      	mov	r8, r2
 80080b0:	4699      	mov	r9, r3
 80080b2:	46a2      	mov	sl, r4
 80080b4:	bdf0      	pop	{r4, r5, r6, r7, pc}
 80080b6:	46c1      	mov	r9, r8
 80080b8:	e7d5      	b.n	8008066 <system__bb__time__clock+0xe>
 80080ba:	f7ff f955 	bl	8007368 <system__bb__board_support__time__max_timer_interval>
 80080be:	0001      	movs	r1, r0
 80080c0:	4556      	cmp	r6, sl
 80080c2:	4180      	sbcs	r0, r0
 80080c4:	000a      	movs	r2, r1
 80080c6:	2300      	movs	r3, #0
 80080c8:	2401      	movs	r4, #1
 80080ca:	2500      	movs	r5, #0
 80080cc:	4240      	negs	r0, r0
 80080ce:	4440      	add	r0, r8
 80080d0:	1912      	adds	r2, r2, r4
 80080d2:	416b      	adcs	r3, r5
 80080d4:	2100      	movs	r1, #0
 80080d6:	f001 f885 	bl	80091e4 <__aeabi_lmul>
 80080da:	1980      	adds	r0, r0, r6
 80080dc:	4179      	adcs	r1, r7
 80080de:	e7e5      	b.n	80080ac <system__bb__time__clock+0x54>
 80080e0:	210e      	movs	r1, #14
 80080e2:	4803      	ldr	r0, [pc, #12]	; (80080f0 <system__bb__time__clock+0x98>)
 80080e4:	31ff      	adds	r1, #255	; 0xff
 80080e6:	f000 fb07 	bl	80086f8 <__gnat_last_chance_handler>
 80080ea:	46c0      	nop			; (mov r8, r8)
 80080ec:	20000064 	.word	0x20000064
 80080f0:	08009e80 	.word	0x08009e80

080080f4 <system__bb__time__get_next_timeout>:
 80080f4:	b570      	push	{r4, r5, r6, lr}
 80080f6:	0006      	movs	r6, r0
 80080f8:	f7ff fd14 	bl	8007b24 <system__bb__threads__queues__get_next_alarm_time>
 80080fc:	0005      	movs	r5, r0
 80080fe:	0030      	movs	r0, r6
 8008100:	000c      	movs	r4, r1
 8008102:	f000 facd 	bl	80086a0 <system__bb__timing_events__get_next_timeout>
 8008106:	0002      	movs	r2, r0
 8008108:	000b      	movs	r3, r1
 800810a:	0028      	movs	r0, r5
 800810c:	0021      	movs	r1, r4
 800810e:	429c      	cmp	r4, r3
 8008110:	d803      	bhi.n	800811a <system__bb__time__get_next_timeout+0x26>
 8008112:	d000      	beq.n	8008116 <system__bb__time__get_next_timeout+0x22>
 8008114:	bd70      	pop	{r4, r5, r6, pc}
 8008116:	4295      	cmp	r5, r2
 8008118:	d9fc      	bls.n	8008114 <system__bb__time__get_next_timeout+0x20>
 800811a:	0010      	movs	r0, r2
 800811c:	0019      	movs	r1, r3
 800811e:	e7f9      	b.n	8008114 <system__bb__time__get_next_timeout+0x20>

08008120 <system__bb__time__initialize_timers>:
 8008120:	b5f8      	push	{r3, r4, r5, r6, r7, lr}
 8008122:	46de      	mov	lr, fp
 8008124:	4645      	mov	r5, r8
 8008126:	4657      	mov	r7, sl
 8008128:	464e      	mov	r6, r9
 800812a:	b5e0      	push	{r5, r6, r7, lr}
 800812c:	f7ff f91c 	bl	8007368 <system__bb__board_support__time__max_timer_interval>
 8008130:	4b37      	ldr	r3, [pc, #220]	; (8008210 <system__bb__time__initialize_timers+0xf0>)
 8008132:	08c0      	lsrs	r0, r0, #3
 8008134:	4698      	mov	r8, r3
 8008136:	00c3      	lsls	r3, r0, #3
 8008138:	1a18      	subs	r0, r3, r0
 800813a:	4643      	mov	r3, r8
 800813c:	4642      	mov	r2, r8
 800813e:	6018      	str	r0, [r3, #0]
 8008140:	2300      	movs	r3, #0
 8008142:	4834      	ldr	r0, [pc, #208]	; (8008214 <system__bb__time__initialize_timers+0xf4>)
 8008144:	6053      	str	r3, [r2, #4]
 8008146:	f7ff f96f 	bl	8007428 <system__bb__board_support__time__install_alarm_handler>
 800814a:	f7ff f911 	bl	8007370 <system__bb__board_support__time__read_clock>
 800814e:	2900      	cmp	r1, #0
 8008150:	d154      	bne.n	80081fc <system__bb__time__initialize_timers+0xdc>
 8008152:	4b31      	ldr	r3, [pc, #196]	; (8008218 <system__bb__time__initialize_timers+0xf8>)
 8008154:	2700      	movs	r7, #0
 8008156:	4699      	mov	r9, r3
 8008158:	6058      	str	r0, [r3, #4]
 800815a:	464b      	mov	r3, r9
 800815c:	681e      	ldr	r6, [r3, #0]
 800815e:	685b      	ldr	r3, [r3, #4]
 8008160:	3701      	adds	r7, #1
 8008162:	469a      	mov	sl, r3
 8008164:	f7ff f904 	bl	8007370 <system__bb__board_support__time__read_clock>
 8008168:	0004      	movs	r4, r0
 800816a:	1e0d      	subs	r5, r1, #0
 800816c:	d141      	bne.n	80081f2 <system__bb__time__initialize_timers+0xd2>
 800816e:	464b      	mov	r3, r9
 8008170:	681b      	ldr	r3, [r3, #0]
 8008172:	429e      	cmp	r6, r3
 8008174:	d02a      	beq.n	80081cc <system__bb__time__initialize_timers+0xac>
 8008176:	2f01      	cmp	r7, #1
 8008178:	d026      	beq.n	80081c8 <system__bb__time__initialize_timers+0xa8>
 800817a:	465b      	mov	r3, fp
 800817c:	1af3      	subs	r3, r6, r3
 800817e:	2b01      	cmp	r3, #1
 8008180:	d803      	bhi.n	800818a <system__bb__time__initialize_timers+0x6a>
 8008182:	2f03      	cmp	r7, #3
 8008184:	d001      	beq.n	800818a <system__bb__time__initialize_timers+0x6a>
 8008186:	2702      	movs	r7, #2
 8008188:	e7e7      	b.n	800815a <system__bb__time__initialize_timers+0x3a>
 800818a:	f7ff f8ed 	bl	8007368 <system__bb__board_support__time__max_timer_interval>
 800818e:	2300      	movs	r3, #0
 8008190:	0002      	movs	r2, r0
 8008192:	2100      	movs	r1, #0
 8008194:	2001      	movs	r0, #1
 8008196:	1880      	adds	r0, r0, r2
 8008198:	4159      	adcs	r1, r3
 800819a:	0032      	movs	r2, r6
 800819c:	f001 f822 	bl	80091e4 <__aeabi_lmul>
 80081a0:	0004      	movs	r4, r0
 80081a2:	000d      	movs	r5, r1
 80081a4:	4643      	mov	r3, r8
 80081a6:	6818      	ldr	r0, [r3, #0]
 80081a8:	6859      	ldr	r1, [r3, #4]
 80081aa:	1824      	adds	r4, r4, r0
 80081ac:	414d      	adcs	r5, r1
 80081ae:	4b1b      	ldr	r3, [pc, #108]	; (800821c <system__bb__time__initialize_timers+0xfc>)
 80081b0:	601c      	str	r4, [r3, #0]
 80081b2:	605d      	str	r5, [r3, #4]
 80081b4:	2900      	cmp	r1, #0
 80081b6:	d126      	bne.n	8008206 <system__bb__time__initialize_timers+0xe6>
 80081b8:	f7ff f902 	bl	80073c0 <system__bb__board_support__time__set_alarm>
 80081bc:	bc3c      	pop	{r2, r3, r4, r5}
 80081be:	4690      	mov	r8, r2
 80081c0:	4699      	mov	r9, r3
 80081c2:	46a2      	mov	sl, r4
 80081c4:	46ab      	mov	fp, r5
 80081c6:	bdf8      	pop	{r3, r4, r5, r6, r7, pc}
 80081c8:	46b3      	mov	fp, r6
 80081ca:	e7c6      	b.n	800815a <system__bb__time__initialize_timers+0x3a>
 80081cc:	f7ff f8cc 	bl	8007368 <system__bb__board_support__time__max_timer_interval>
 80081d0:	0001      	movs	r1, r0
 80081d2:	4554      	cmp	r4, sl
 80081d4:	4180      	sbcs	r0, r0
 80081d6:	4240      	negs	r0, r0
 80081d8:	1980      	adds	r0, r0, r6
 80081da:	000a      	movs	r2, r1
 80081dc:	2300      	movs	r3, #0
 80081de:	2601      	movs	r6, #1
 80081e0:	2700      	movs	r7, #0
 80081e2:	2100      	movs	r1, #0
 80081e4:	1992      	adds	r2, r2, r6
 80081e6:	417b      	adcs	r3, r7
 80081e8:	f000 fffc 	bl	80091e4 <__aeabi_lmul>
 80081ec:	1824      	adds	r4, r4, r0
 80081ee:	414d      	adcs	r5, r1
 80081f0:	e7d8      	b.n	80081a4 <system__bb__time__initialize_timers+0x84>
 80081f2:	210e      	movs	r1, #14
 80081f4:	480a      	ldr	r0, [pc, #40]	; (8008220 <system__bb__time__initialize_timers+0x100>)
 80081f6:	31ff      	adds	r1, #255	; 0xff
 80081f8:	f000 fa7e 	bl	80086f8 <__gnat_last_chance_handler>
 80081fc:	219e      	movs	r1, #158	; 0x9e
 80081fe:	4808      	ldr	r0, [pc, #32]	; (8008220 <system__bb__time__initialize_timers+0x100>)
 8008200:	31ff      	adds	r1, #255	; 0xff
 8008202:	f000 fa79 	bl	80086f8 <__gnat_last_chance_handler>
 8008206:	21a4      	movs	r1, #164	; 0xa4
 8008208:	4805      	ldr	r0, [pc, #20]	; (8008220 <system__bb__time__initialize_timers+0x100>)
 800820a:	31ff      	adds	r1, #255	; 0xff
 800820c:	f000 fa74 	bl	80086f8 <__gnat_last_chance_handler>
 8008210:	20000050 	.word	0x20000050
 8008214:	08008459 	.word	0x08008459
 8008218:	20000064 	.word	0x20000064
 800821c:	20000058 	.word	0x20000058
 8008220:	08009e80 	.word	0x08009e80

08008224 <system__bb__time__update_alarm>:
 8008224:	2300      	movs	r3, #0
 8008226:	b5f0      	push	{r4, r5, r6, r7, lr}
 8008228:	4657      	mov	r7, sl
 800822a:	464e      	mov	r6, r9
 800822c:	46de      	mov	lr, fp
 800822e:	4645      	mov	r5, r8
 8008230:	4699      	mov	r9, r3
 8008232:	4b43      	ldr	r3, [pc, #268]	; (8008340 <system__bb__time__update_alarm+0x11c>)
 8008234:	b5e0      	push	{r5, r6, r7, lr}
 8008236:	469a      	mov	sl, r3
 8008238:	0006      	movs	r6, r0
 800823a:	000f      	movs	r7, r1
 800823c:	b083      	sub	sp, #12
 800823e:	2301      	movs	r3, #1
 8008240:	469c      	mov	ip, r3
 8008242:	4653      	mov	r3, sl
 8008244:	681b      	ldr	r3, [r3, #0]
 8008246:	44e1      	add	r9, ip
 8008248:	4698      	mov	r8, r3
 800824a:	4653      	mov	r3, sl
 800824c:	685b      	ldr	r3, [r3, #4]
 800824e:	469b      	mov	fp, r3
 8008250:	f7ff f88e 	bl	8007370 <system__bb__board_support__time__read_clock>
 8008254:	0004      	movs	r4, r0
 8008256:	1e0d      	subs	r5, r1, #0
 8008258:	d168      	bne.n	800832c <system__bb__time__update_alarm+0x108>
 800825a:	4653      	mov	r3, sl
 800825c:	681b      	ldr	r3, [r3, #0]
 800825e:	4598      	cmp	r8, r3
 8008260:	d053      	beq.n	800830a <system__bb__time__update_alarm+0xe6>
 8008262:	464b      	mov	r3, r9
 8008264:	2b01      	cmp	r3, #1
 8008266:	d033      	beq.n	80082d0 <system__bb__time__update_alarm+0xac>
 8008268:	4643      	mov	r3, r8
 800826a:	9a01      	ldr	r2, [sp, #4]
 800826c:	1a9b      	subs	r3, r3, r2
 800826e:	2b01      	cmp	r3, #1
 8008270:	d805      	bhi.n	800827e <system__bb__time__update_alarm+0x5a>
 8008272:	464b      	mov	r3, r9
 8008274:	2b03      	cmp	r3, #3
 8008276:	d002      	beq.n	800827e <system__bb__time__update_alarm+0x5a>
 8008278:	2302      	movs	r3, #2
 800827a:	4699      	mov	r9, r3
 800827c:	e7df      	b.n	800823e <system__bb__time__update_alarm+0x1a>
 800827e:	f7ff f873 	bl	8007368 <system__bb__board_support__time__max_timer_interval>
 8008282:	2300      	movs	r3, #0
 8008284:	0002      	movs	r2, r0
 8008286:	2100      	movs	r1, #0
 8008288:	2001      	movs	r0, #1
 800828a:	1880      	adds	r0, r0, r2
 800828c:	4159      	adcs	r1, r3
 800828e:	4642      	mov	r2, r8
 8008290:	f000 ffa8 	bl	80091e4 <__aeabi_lmul>
 8008294:	428f      	cmp	r7, r1
 8008296:	d91e      	bls.n	80082d6 <system__bb__time__update_alarm+0xb2>
 8008298:	0032      	movs	r2, r6
 800829a:	003b      	movs	r3, r7
 800829c:	4c29      	ldr	r4, [pc, #164]	; (8008344 <system__bb__time__update_alarm+0x120>)
 800829e:	1a12      	subs	r2, r2, r0
 80082a0:	418b      	sbcs	r3, r1
 80082a2:	6861      	ldr	r1, [r4, #4]
 80082a4:	42b9      	cmp	r1, r7
 80082a6:	d920      	bls.n	80082ea <system__bb__time__update_alarm+0xc6>
 80082a8:	4927      	ldr	r1, [pc, #156]	; (8008348 <system__bb__time__update_alarm+0x124>)
 80082aa:	6808      	ldr	r0, [r1, #0]
 80082ac:	6849      	ldr	r1, [r1, #4]
 80082ae:	4299      	cmp	r1, r3
 80082b0:	d825      	bhi.n	80082fe <system__bb__time__update_alarm+0xda>
 80082b2:	4299      	cmp	r1, r3
 80082b4:	d026      	beq.n	8008304 <system__bb__time__update_alarm+0xe0>
 80082b6:	2900      	cmp	r1, #0
 80082b8:	d13d      	bne.n	8008336 <system__bb__time__update_alarm+0x112>
 80082ba:	f7ff f881 	bl	80073c0 <system__bb__board_support__time__set_alarm>
 80082be:	6026      	str	r6, [r4, #0]
 80082c0:	6067      	str	r7, [r4, #4]
 80082c2:	b003      	add	sp, #12
 80082c4:	bc3c      	pop	{r2, r3, r4, r5}
 80082c6:	4690      	mov	r8, r2
 80082c8:	4699      	mov	r9, r3
 80082ca:	46a2      	mov	sl, r4
 80082cc:	46ab      	mov	fp, r5
 80082ce:	bdf0      	pop	{r4, r5, r6, r7, pc}
 80082d0:	4643      	mov	r3, r8
 80082d2:	9301      	str	r3, [sp, #4]
 80082d4:	e7b3      	b.n	800823e <system__bb__time__update_alarm+0x1a>
 80082d6:	428f      	cmp	r7, r1
 80082d8:	d101      	bne.n	80082de <system__bb__time__update_alarm+0xba>
 80082da:	4286      	cmp	r6, r0
 80082dc:	d8dc      	bhi.n	8008298 <system__bb__time__update_alarm+0x74>
 80082de:	4c19      	ldr	r4, [pc, #100]	; (8008344 <system__bb__time__update_alarm+0x120>)
 80082e0:	2201      	movs	r2, #1
 80082e2:	6861      	ldr	r1, [r4, #4]
 80082e4:	2300      	movs	r3, #0
 80082e6:	42b9      	cmp	r1, r7
 80082e8:	d8de      	bhi.n	80082a8 <system__bb__time__update_alarm+0x84>
 80082ea:	42b9      	cmp	r1, r7
 80082ec:	d1e9      	bne.n	80082c2 <system__bb__time__update_alarm+0x9e>
 80082ee:	6821      	ldr	r1, [r4, #0]
 80082f0:	42b1      	cmp	r1, r6
 80082f2:	d9e6      	bls.n	80082c2 <system__bb__time__update_alarm+0x9e>
 80082f4:	4914      	ldr	r1, [pc, #80]	; (8008348 <system__bb__time__update_alarm+0x124>)
 80082f6:	6808      	ldr	r0, [r1, #0]
 80082f8:	6849      	ldr	r1, [r1, #4]
 80082fa:	4299      	cmp	r1, r3
 80082fc:	d9d9      	bls.n	80082b2 <system__bb__time__update_alarm+0x8e>
 80082fe:	0010      	movs	r0, r2
 8008300:	0019      	movs	r1, r3
 8008302:	e7d8      	b.n	80082b6 <system__bb__time__update_alarm+0x92>
 8008304:	4290      	cmp	r0, r2
 8008306:	d9d6      	bls.n	80082b6 <system__bb__time__update_alarm+0x92>
 8008308:	e7f9      	b.n	80082fe <system__bb__time__update_alarm+0xda>
 800830a:	f7ff f82d 	bl	8007368 <system__bb__board_support__time__max_timer_interval>
 800830e:	455c      	cmp	r4, fp
 8008310:	419b      	sbcs	r3, r3
 8008312:	425b      	negs	r3, r3
 8008314:	4498      	add	r8, r3
 8008316:	2100      	movs	r1, #0
 8008318:	2201      	movs	r2, #1
 800831a:	2300      	movs	r3, #0
 800831c:	1812      	adds	r2, r2, r0
 800831e:	414b      	adcs	r3, r1
 8008320:	4640      	mov	r0, r8
 8008322:	f000 ff5f 	bl	80091e4 <__aeabi_lmul>
 8008326:	1900      	adds	r0, r0, r4
 8008328:	4169      	adcs	r1, r5
 800832a:	e7b3      	b.n	8008294 <system__bb__time__update_alarm+0x70>
 800832c:	210e      	movs	r1, #14
 800832e:	4807      	ldr	r0, [pc, #28]	; (800834c <system__bb__time__update_alarm+0x128>)
 8008330:	31ff      	adds	r1, #255	; 0xff
 8008332:	f000 f9e1 	bl	80086f8 <__gnat_last_chance_handler>
 8008336:	21e5      	movs	r1, #229	; 0xe5
 8008338:	4804      	ldr	r0, [pc, #16]	; (800834c <system__bb__time__update_alarm+0x128>)
 800833a:	0049      	lsls	r1, r1, #1
 800833c:	f000 f9dc 	bl	80086f8 <__gnat_last_chance_handler>
 8008340:	20000064 	.word	0x20000064
 8008344:	20000058 	.word	0x20000058
 8008348:	20000050 	.word	0x20000050
 800834c:	08009e80 	.word	0x08009e80

08008350 <system__bb__time__delay_until>:
 8008350:	b5f0      	push	{r4, r5, r6, r7, lr}
 8008352:	4645      	mov	r5, r8
 8008354:	46de      	mov	lr, fp
 8008356:	464e      	mov	r6, r9
 8008358:	4657      	mov	r7, sl
 800835a:	b5e0      	push	{r5, r6, r7, lr}
 800835c:	b083      	sub	sp, #12
 800835e:	4680      	mov	r8, r0
 8008360:	9101      	str	r1, [sp, #4]
 8008362:	f000 f901 	bl	8008568 <system__bb__protection__enter_kernel>
 8008366:	2300      	movs	r3, #0
 8008368:	4699      	mov	r9, r3
 800836a:	4d39      	ldr	r5, [pc, #228]	; (8008450 <system__bb__time__delay_until+0x100>)
 800836c:	2301      	movs	r3, #1
 800836e:	469c      	mov	ip, r3
 8008370:	682c      	ldr	r4, [r5, #0]
 8008372:	686b      	ldr	r3, [r5, #4]
 8008374:	44e1      	add	r9, ip
 8008376:	469b      	mov	fp, r3
 8008378:	f7fe fffa 	bl	8007370 <system__bb__board_support__time__read_clock>
 800837c:	0006      	movs	r6, r0
 800837e:	1e0f      	subs	r7, r1, #0
 8008380:	d15c      	bne.n	800843c <system__bb__time__delay_until+0xec>
 8008382:	682b      	ldr	r3, [r5, #0]
 8008384:	429c      	cmp	r4, r3
 8008386:	d048      	beq.n	800841a <system__bb__time__delay_until+0xca>
 8008388:	464b      	mov	r3, r9
 800838a:	2b01      	cmp	r3, #1
 800838c:	d034      	beq.n	80083f8 <system__bb__time__delay_until+0xa8>
 800838e:	4653      	mov	r3, sl
 8008390:	1ae3      	subs	r3, r4, r3
 8008392:	2b01      	cmp	r3, #1
 8008394:	d805      	bhi.n	80083a2 <system__bb__time__delay_until+0x52>
 8008396:	464b      	mov	r3, r9
 8008398:	2b03      	cmp	r3, #3
 800839a:	d002      	beq.n	80083a2 <system__bb__time__delay_until+0x52>
 800839c:	2302      	movs	r3, #2
 800839e:	4699      	mov	r9, r3
 80083a0:	e7e4      	b.n	800836c <system__bb__time__delay_until+0x1c>
 80083a2:	f7fe ffe1 	bl	8007368 <system__bb__board_support__time__max_timer_interval>
 80083a6:	2300      	movs	r3, #0
 80083a8:	0002      	movs	r2, r0
 80083aa:	2100      	movs	r1, #0
 80083ac:	2001      	movs	r0, #1
 80083ae:	1880      	adds	r0, r0, r2
 80083b0:	4159      	adcs	r1, r3
 80083b2:	0022      	movs	r2, r4
 80083b4:	f000 ff16 	bl	80091e4 <__aeabi_lmul>
 80083b8:	0006      	movs	r6, r0
 80083ba:	000f      	movs	r7, r1
 80083bc:	f7ff fe48 	bl	8008050 <system__bb__threads__thread_self>
 80083c0:	9b01      	ldr	r3, [sp, #4]
 80083c2:	0004      	movs	r4, r0
 80083c4:	42bb      	cmp	r3, r7
 80083c6:	d920      	bls.n	800840a <system__bb__time__delay_until+0xba>
 80083c8:	2c00      	cmp	r4, #0
 80083ca:	d03c      	beq.n	8008446 <system__bb__time__delay_until+0xf6>
 80083cc:	2202      	movs	r2, #2
 80083ce:	2354      	movs	r3, #84	; 0x54
 80083d0:	0020      	movs	r0, r4
 80083d2:	54e2      	strb	r2, [r4, r3]
 80083d4:	f7ff fb90 	bl	8007af8 <system__bb__threads__queues__extract>
 80083d8:	0022      	movs	r2, r4
 80083da:	4640      	mov	r0, r8
 80083dc:	9901      	ldr	r1, [sp, #4]
 80083de:	f7ff fc1d 	bl	8007c1c <system__bb__threads__queues__insert_alarm>
 80083e2:	2800      	cmp	r0, #0
 80083e4:	d10a      	bne.n	80083fc <system__bb__time__delay_until+0xac>
 80083e6:	f000 f8c3 	bl	8008570 <system__bb__protection__leave_kernel>
 80083ea:	b003      	add	sp, #12
 80083ec:	bc3c      	pop	{r2, r3, r4, r5}
 80083ee:	4690      	mov	r8, r2
 80083f0:	4699      	mov	r9, r3
 80083f2:	46a2      	mov	sl, r4
 80083f4:	46ab      	mov	fp, r5
 80083f6:	bdf0      	pop	{r4, r5, r6, r7, pc}
 80083f8:	46a2      	mov	sl, r4
 80083fa:	e7b7      	b.n	800836c <system__bb__time__delay_until+0x1c>
 80083fc:	f7ff f824 	bl	8007448 <system__bb__board_support__multiprocessors__current_cpu>
 8008400:	f7ff fe78 	bl	80080f4 <system__bb__time__get_next_timeout>
 8008404:	f7ff ff0e 	bl	8008224 <system__bb__time__update_alarm>
 8008408:	e7ed      	b.n	80083e6 <system__bb__time__delay_until+0x96>
 800840a:	42bb      	cmp	r3, r7
 800840c:	d101      	bne.n	8008412 <system__bb__time__delay_until+0xc2>
 800840e:	45b0      	cmp	r8, r6
 8008410:	d8da      	bhi.n	80083c8 <system__bb__time__delay_until+0x78>
 8008412:	0020      	movs	r0, r4
 8008414:	f7ff fd04 	bl	8007e20 <system__bb__threads__queues__yield>
 8008418:	e7e5      	b.n	80083e6 <system__bb__time__delay_until+0x96>
 800841a:	f7fe ffa5 	bl	8007368 <system__bb__board_support__time__max_timer_interval>
 800841e:	455e      	cmp	r6, fp
 8008420:	419b      	sbcs	r3, r3
 8008422:	425b      	negs	r3, r3
 8008424:	191c      	adds	r4, r3, r4
 8008426:	2100      	movs	r1, #0
 8008428:	2201      	movs	r2, #1
 800842a:	2300      	movs	r3, #0
 800842c:	1812      	adds	r2, r2, r0
 800842e:	414b      	adcs	r3, r1
 8008430:	0020      	movs	r0, r4
 8008432:	f000 fed7 	bl	80091e4 <__aeabi_lmul>
 8008436:	1836      	adds	r6, r6, r0
 8008438:	414f      	adcs	r7, r1
 800843a:	e7bf      	b.n	80083bc <system__bb__time__delay_until+0x6c>
 800843c:	210e      	movs	r1, #14
 800843e:	4805      	ldr	r0, [pc, #20]	; (8008454 <system__bb__time__delay_until+0x104>)
 8008440:	31ff      	adds	r1, #255	; 0xff
 8008442:	f000 f959 	bl	80086f8 <__gnat_last_chance_handler>
 8008446:	21ac      	movs	r1, #172	; 0xac
 8008448:	4802      	ldr	r0, [pc, #8]	; (8008454 <system__bb__time__delay_until+0x104>)
 800844a:	0049      	lsls	r1, r1, #1
 800844c:	f000 f954 	bl	80086f8 <__gnat_last_chance_handler>
 8008450:	20000064 	.word	0x20000064
 8008454:	08009e80 	.word	0x08009e80

08008458 <system__bb__time__alarm_handler>:
 8008458:	b5f0      	push	{r4, r5, r6, r7, lr}
 800845a:	46c6      	mov	lr, r8
 800845c:	b500      	push	{lr}
 800845e:	f7fe ffa7 	bl	80073b0 <system__bb__board_support__time__clear_alarm_interrupt>
 8008462:	f000 f881 	bl	8008568 <system__bb__protection__enter_kernel>
 8008466:	2001      	movs	r0, #1
 8008468:	4240      	negs	r0, r0
 800846a:	17c1      	asrs	r1, r0, #31
 800846c:	4b23      	ldr	r3, [pc, #140]	; (80084fc <system__bb__time__alarm_handler+0xa4>)
 800846e:	4c24      	ldr	r4, [pc, #144]	; (8008500 <system__bb__time__alarm_handler+0xa8>)
 8008470:	6018      	str	r0, [r3, #0]
 8008472:	6059      	str	r1, [r3, #4]
 8008474:	6825      	ldr	r5, [r4, #0]
 8008476:	6863      	ldr	r3, [r4, #4]
 8008478:	4698      	mov	r8, r3
 800847a:	f7fe ff79 	bl	8007370 <system__bb__board_support__time__read_clock>
 800847e:	0006      	movs	r6, r0
 8008480:	1e0f      	subs	r7, r1, #0
 8008482:	d136      	bne.n	80084f2 <system__bb__time__alarm_handler+0x9a>
 8008484:	4580      	cmp	r8, r0
 8008486:	d82e      	bhi.n	80084e6 <system__bb__time__alarm_handler+0x8e>
 8008488:	6060      	str	r0, [r4, #4]
 800848a:	f7fe ff6d 	bl	8007368 <system__bb__board_support__time__max_timer_interval>
 800848e:	2300      	movs	r3, #0
 8008490:	0002      	movs	r2, r0
 8008492:	2100      	movs	r1, #0
 8008494:	2001      	movs	r0, #1
 8008496:	1880      	adds	r0, r0, r2
 8008498:	4159      	adcs	r1, r3
 800849a:	002a      	movs	r2, r5
 800849c:	f000 fea2 	bl	80091e4 <__aeabi_lmul>
 80084a0:	1836      	adds	r6, r6, r0
 80084a2:	414f      	adcs	r7, r1
 80084a4:	4b17      	ldr	r3, [pc, #92]	; (8008504 <system__bb__time__alarm_handler+0xac>)
 80084a6:	0030      	movs	r0, r6
 80084a8:	681c      	ldr	r4, [r3, #0]
 80084aa:	685d      	ldr	r5, [r3, #4]
 80084ac:	0039      	movs	r1, r7
 80084ae:	f000 f8ab 	bl	8008608 <system__bb__timing_events__execute_expired_timing_events>
 80084b2:	0039      	movs	r1, r7
 80084b4:	0030      	movs	r0, r6
 80084b6:	19a4      	adds	r4, r4, r6
 80084b8:	417d      	adcs	r5, r7
 80084ba:	f7ff fc03 	bl	8007cc4 <system__bb__threads__queues__wakeup_expired_alarms>
 80084be:	f7fe ffc3 	bl	8007448 <system__bb__board_support__multiprocessors__current_cpu>
 80084c2:	f7ff fe17 	bl	80080f4 <system__bb__time__get_next_timeout>
 80084c6:	42a9      	cmp	r1, r5
 80084c8:	d908      	bls.n	80084dc <system__bb__time__alarm_handler+0x84>
 80084ca:	0020      	movs	r0, r4
 80084cc:	0029      	movs	r1, r5
 80084ce:	f7ff fea9 	bl	8008224 <system__bb__time__update_alarm>
 80084d2:	f000 f84d 	bl	8008570 <system__bb__protection__leave_kernel>
 80084d6:	bc04      	pop	{r2}
 80084d8:	4690      	mov	r8, r2
 80084da:	bdf0      	pop	{r4, r5, r6, r7, pc}
 80084dc:	42a9      	cmp	r1, r5
 80084de:	d1f6      	bne.n	80084ce <system__bb__time__alarm_handler+0x76>
 80084e0:	42a0      	cmp	r0, r4
 80084e2:	d9f4      	bls.n	80084ce <system__bb__time__alarm_handler+0x76>
 80084e4:	e7f1      	b.n	80084ca <system__bb__time__alarm_handler+0x72>
 80084e6:	2300      	movs	r3, #0
 80084e8:	3501      	adds	r5, #1
 80084ea:	6023      	str	r3, [r4, #0]
 80084ec:	6060      	str	r0, [r4, #4]
 80084ee:	6025      	str	r5, [r4, #0]
 80084f0:	e7cb      	b.n	800848a <system__bb__time__alarm_handler+0x32>
 80084f2:	21de      	movs	r1, #222	; 0xde
 80084f4:	4804      	ldr	r0, [pc, #16]	; (8008508 <system__bb__time__alarm_handler+0xb0>)
 80084f6:	31ff      	adds	r1, #255	; 0xff
 80084f8:	f000 f8fe 	bl	80086f8 <__gnat_last_chance_handler>
 80084fc:	20000058 	.word	0x20000058
 8008500:	20000064 	.word	0x20000064
 8008504:	20000050 	.word	0x20000050
 8008508:	08009e80 	.word	0x08009e80

0800850c <system__bb__cpu_primitives__context_switch_trigger__initialize_context_switch>:
 800850c:	4770      	bx	lr
 800850e:	46c0      	nop			; (mov r8, r8)

08008510 <system__bb__cpu_primitives__context_switch_trigger__trigger_context_switch>:
 8008510:	2280      	movs	r2, #128	; 0x80
 8008512:	4b02      	ldr	r3, [pc, #8]	; (800851c <system__bb__cpu_primitives__context_switch_trigger__trigger_context_switch+0xc>)
 8008514:	0552      	lsls	r2, r2, #21
 8008516:	601a      	str	r2, [r3, #0]
 8008518:	4770      	bx	lr
 800851a:	46c0      	nop			; (mov r8, r8)
 800851c:	e000ed04 	.word	0xe000ed04

08008520 <__gnat_pend_sv_trap>:
 8008520:	4a0f      	ldr	r2, [pc, #60]	; (8008560 <__gnat_pend_sv_trap+0x40>)
 8008522:	f3ef 8c09 	mrs	ip, PSP
 8008526:	6813      	ldr	r3, [r2, #0]
 8008528:	c3f0      	stmia	r3!, {r4, r5, r6, r7}
 800852a:	4644      	mov	r4, r8
 800852c:	464d      	mov	r5, r9
 800852e:	4656      	mov	r6, sl
 8008530:	465f      	mov	r7, fp
 8008532:	c3f0      	stmia	r3!, {r4, r5, r6, r7}
 8008534:	4664      	mov	r4, ip
 8008536:	c310      	stmia	r3!, {r4}
 8008538:	4b0a      	ldr	r3, [pc, #40]	; (8008564 <__gnat_pend_sv_trap+0x44>)
 800853a:	681b      	ldr	r3, [r3, #0]
 800853c:	6013      	str	r3, [r2, #0]
 800853e:	2220      	movs	r2, #32
 8008540:	189a      	adds	r2, r3, r2
 8008542:	6814      	ldr	r4, [r2, #0]
 8008544:	46a4      	mov	ip, r4
 8008546:	2210      	movs	r2, #16
 8008548:	189a      	adds	r2, r3, r2
 800854a:	caf0      	ldmia	r2!, {r4, r5, r6, r7}
 800854c:	46a0      	mov	r8, r4
 800854e:	46a9      	mov	r9, r5
 8008550:	46b2      	mov	sl, r6
 8008552:	46bb      	mov	fp, r7
 8008554:	1c1a      	adds	r2, r3, #0
 8008556:	caf0      	ldmia	r2!, {r4, r5, r6, r7}
 8008558:	f38c 8809 	msr	PSP, ip
 800855c:	4770      	bx	lr
 800855e:	0000      	.short	0x0000
 8008560:	20000038 	.word	0x20000038
 8008564:	2000003c 	.word	0x2000003c

08008568 <system__bb__protection__enter_kernel>:
 8008568:	b510      	push	{r4, lr}
 800856a:	f7ff f9bf 	bl	80078ec <system__bb__cpu_primitives__disable_interrupts>
 800856e:	bd10      	pop	{r4, pc}

08008570 <system__bb__protection__leave_kernel>:
 8008570:	b510      	push	{r4, lr}
 8008572:	f7ff faa5 	bl	8007ac0 <__gnat_context_switch_needed>
 8008576:	2800      	cmp	r0, #0
 8008578:	d006      	beq.n	8008588 <system__bb__protection__leave_kernel+0x18>
 800857a:	4b09      	ldr	r3, [pc, #36]	; (80085a0 <system__bb__protection__leave_kernel+0x30>)
 800857c:	681b      	ldr	r3, [r3, #0]
 800857e:	2b00      	cmp	r3, #0
 8008580:	d000      	beq.n	8008584 <system__bb__protection__leave_kernel+0x14>
 8008582:	4798      	blx	r3
 8008584:	f7ff f910 	bl	80077a8 <system__bb__cpu_primitives__context_switch>
 8008588:	f7ff fb8e 	bl	8007ca8 <system__bb__threads__queues__running_thread>
 800858c:	2800      	cmp	r0, #0
 800858e:	d003      	beq.n	8008598 <system__bb__protection__leave_kernel+0x28>
 8008590:	6b40      	ldr	r0, [r0, #52]	; 0x34
 8008592:	f7ff f9ad 	bl	80078f0 <system__bb__cpu_primitives__enable_interrupts>
 8008596:	bd10      	pop	{r4, pc}
 8008598:	2174      	movs	r1, #116	; 0x74
 800859a:	4802      	ldr	r0, [pc, #8]	; (80085a4 <system__bb__protection__leave_kernel+0x34>)
 800859c:	f000 f8ac 	bl	80086f8 <__gnat_last_chance_handler>
 80085a0:	20000060 	.word	0x20000060
 80085a4:	08009e90 	.word	0x08009e90

080085a8 <system__bb__timing_events__extract>:
 80085a8:	b510      	push	{r4, lr}
 80085aa:	0004      	movs	r4, r0
 80085ac:	f7fe ff4c 	bl	8007448 <system__bb__board_support__multiprocessors__current_cpu>
 80085b0:	4b12      	ldr	r3, [pc, #72]	; (80085fc <system__bb__timing_events__extract+0x54>)
 80085b2:	4a13      	ldr	r2, [pc, #76]	; (8008600 <system__bb__timing_events__extract+0x58>)
 80085b4:	18c3      	adds	r3, r0, r3
 80085b6:	009b      	lsls	r3, r3, #2
 80085b8:	589b      	ldr	r3, [r3, r2]
 80085ba:	42a3      	cmp	r3, r4
 80085bc:	d00e      	beq.n	80085dc <system__bb__timing_events__extract+0x34>
 80085be:	69a3      	ldr	r3, [r4, #24]
 80085c0:	2b00      	cmp	r3, #0
 80085c2:	d011      	beq.n	80085e8 <system__bb__timing_events__extract+0x40>
 80085c4:	2000      	movs	r0, #0
 80085c6:	6962      	ldr	r2, [r4, #20]
 80085c8:	615a      	str	r2, [r3, #20]
 80085ca:	6963      	ldr	r3, [r4, #20]
 80085cc:	2b00      	cmp	r3, #0
 80085ce:	d001      	beq.n	80085d4 <system__bb__timing_events__extract+0x2c>
 80085d0:	69a2      	ldr	r2, [r4, #24]
 80085d2:	619a      	str	r2, [r3, #24]
 80085d4:	2300      	movs	r3, #0
 80085d6:	6163      	str	r3, [r4, #20]
 80085d8:	61a3      	str	r3, [r4, #24]
 80085da:	bd10      	pop	{r4, pc}
 80085dc:	2801      	cmp	r0, #1
 80085de:	d108      	bne.n	80085f2 <system__bb__timing_events__extract+0x4a>
 80085e0:	6963      	ldr	r3, [r4, #20]
 80085e2:	2001      	movs	r0, #1
 80085e4:	6013      	str	r3, [r2, #0]
 80085e6:	e7f1      	b.n	80085cc <system__bb__timing_events__extract+0x24>
 80085e8:	217a      	movs	r1, #122	; 0x7a
 80085ea:	4806      	ldr	r0, [pc, #24]	; (8008604 <system__bb__timing_events__extract+0x5c>)
 80085ec:	31ff      	adds	r1, #255	; 0xff
 80085ee:	f000 f883 	bl	80086f8 <__gnat_last_chance_handler>
 80085f2:	2172      	movs	r1, #114	; 0x72
 80085f4:	4803      	ldr	r0, [pc, #12]	; (8008604 <system__bb__timing_events__extract+0x5c>)
 80085f6:	31ff      	adds	r1, #255	; 0xff
 80085f8:	f000 f87e 	bl	80086f8 <__gnat_last_chance_handler>
 80085fc:	3fffffff 	.word	0x3fffffff
 8008600:	2000006c 	.word	0x2000006c
 8008604:	08009ea0 	.word	0x08009ea0

08008608 <system__bb__timing_events__execute_expired_timing_events>:
 8008608:	b5f0      	push	{r4, r5, r6, r7, lr}
 800860a:	46de      	mov	lr, fp
 800860c:	4657      	mov	r7, sl
 800860e:	464e      	mov	r6, r9
 8008610:	4645      	mov	r5, r8
 8008612:	b5e0      	push	{r5, r6, r7, lr}
 8008614:	b083      	sub	sp, #12
 8008616:	4683      	mov	fp, r0
 8008618:	000f      	movs	r7, r1
 800861a:	f7fe ff15 	bl	8007448 <system__bb__board_support__multiprocessors__current_cpu>
 800861e:	4b1d      	ldr	r3, [pc, #116]	; (8008694 <system__bb__timing_events__execute_expired_timing_events+0x8c>)
 8008620:	4698      	mov	r8, r3
 8008622:	4b1d      	ldr	r3, [pc, #116]	; (8008698 <system__bb__timing_events__execute_expired_timing_events+0x90>)
 8008624:	18c6      	adds	r6, r0, r3
 8008626:	4643      	mov	r3, r8
 8008628:	00b6      	lsls	r6, r6, #2
 800862a:	599c      	ldr	r4, [r3, r6]
 800862c:	2c00      	cmp	r4, #0
 800862e:	d021      	beq.n	8008674 <system__bb__timing_events__execute_expired_timing_events+0x6c>
 8008630:	f7ff fd0e 	bl	8008050 <system__bb__threads__thread_self>
 8008634:	4682      	mov	sl, r0
 8008636:	f7ff fc8d 	bl	8007f54 <system__bb__threads__get_priority>
 800863a:	21ff      	movs	r1, #255	; 0xff
 800863c:	9001      	str	r0, [sp, #4]
 800863e:	4650      	mov	r0, sl
 8008640:	f7ff f9f2 	bl	8007a28 <system__bb__threads__queues__change_priority>
 8008644:	2300      	movs	r3, #0
 8008646:	4699      	mov	r9, r3
 8008648:	68e3      	ldr	r3, [r4, #12]
 800864a:	42bb      	cmp	r3, r7
 800864c:	d80e      	bhi.n	800866c <system__bb__timing_events__execute_expired_timing_events+0x64>
 800864e:	d018      	beq.n	8008682 <system__bb__timing_events__execute_expired_timing_events+0x7a>
 8008650:	0020      	movs	r0, r4
 8008652:	6925      	ldr	r5, [r4, #16]
 8008654:	f7ff ffa8 	bl	80085a8 <system__bb__timing_events__extract>
 8008658:	464b      	mov	r3, r9
 800865a:	6123      	str	r3, [r4, #16]
 800865c:	2d00      	cmp	r5, #0
 800865e:	d014      	beq.n	800868a <system__bb__timing_events__execute_expired_timing_events+0x82>
 8008660:	0020      	movs	r0, r4
 8008662:	47a8      	blx	r5
 8008664:	4643      	mov	r3, r8
 8008666:	599c      	ldr	r4, [r3, r6]
 8008668:	2c00      	cmp	r4, #0
 800866a:	d1ed      	bne.n	8008648 <system__bb__timing_events__execute_expired_timing_events+0x40>
 800866c:	9901      	ldr	r1, [sp, #4]
 800866e:	4650      	mov	r0, sl
 8008670:	f7ff f9da 	bl	8007a28 <system__bb__threads__queues__change_priority>
 8008674:	b003      	add	sp, #12
 8008676:	bc3c      	pop	{r2, r3, r4, r5}
 8008678:	4690      	mov	r8, r2
 800867a:	4699      	mov	r9, r3
 800867c:	46a2      	mov	sl, r4
 800867e:	46ab      	mov	fp, r5
 8008680:	bdf0      	pop	{r4, r5, r6, r7, pc}
 8008682:	68a3      	ldr	r3, [r4, #8]
 8008684:	455b      	cmp	r3, fp
 8008686:	d9e3      	bls.n	8008650 <system__bb__timing_events__execute_expired_timing_events+0x48>
 8008688:	e7f0      	b.n	800866c <system__bb__timing_events__execute_expired_timing_events+0x64>
 800868a:	213a      	movs	r1, #58	; 0x3a
 800868c:	4803      	ldr	r0, [pc, #12]	; (800869c <system__bb__timing_events__execute_expired_timing_events+0x94>)
 800868e:	31ff      	adds	r1, #255	; 0xff
 8008690:	f000 f832 	bl	80086f8 <__gnat_last_chance_handler>
 8008694:	2000006c 	.word	0x2000006c
 8008698:	3fffffff 	.word	0x3fffffff
 800869c:	08009ea0 	.word	0x08009ea0

080086a0 <system__bb__timing_events__get_next_timeout>:
 80086a0:	4b07      	ldr	r3, [pc, #28]	; (80086c0 <system__bb__timing_events__get_next_timeout+0x20>)
 80086a2:	469c      	mov	ip, r3
 80086a4:	4b07      	ldr	r3, [pc, #28]	; (80086c4 <system__bb__timing_events__get_next_timeout+0x24>)
 80086a6:	4460      	add	r0, ip
 80086a8:	0080      	lsls	r0, r0, #2
 80086aa:	58c3      	ldr	r3, [r0, r3]
 80086ac:	2b00      	cmp	r3, #0
 80086ae:	d002      	beq.n	80086b6 <system__bb__timing_events__get_next_timeout+0x16>
 80086b0:	6898      	ldr	r0, [r3, #8]
 80086b2:	68d9      	ldr	r1, [r3, #12]
 80086b4:	4770      	bx	lr
 80086b6:	2001      	movs	r0, #1
 80086b8:	4240      	negs	r0, r0
 80086ba:	17c1      	asrs	r1, r0, #31
 80086bc:	e7fa      	b.n	80086b4 <system__bb__timing_events__get_next_timeout+0x14>
 80086be:	46c0      	nop			; (mov r8, r8)
 80086c0:	3fffffff 	.word	0x3fffffff
 80086c4:	2000006c 	.word	0x2000006c

080086c8 <ada__exceptions__last_chance_handler__put.4173>:
 80086c8:	4b09      	ldr	r3, [pc, #36]	; (80086f0 <ada__exceptions__last_chance_handler__put.4173+0x28>)
 80086ca:	b570      	push	{r4, r5, r6, lr}
 80086cc:	0004      	movs	r4, r0
 80086ce:	18c5      	adds	r5, r0, r3
 80086d0:	2800      	cmp	r0, #0
 80086d2:	d105      	bne.n	80086e0 <ada__exceptions__last_chance_handler__put.4173+0x18>
 80086d4:	e008      	b.n	80086e8 <ada__exceptions__last_chance_handler__put.4173+0x20>
 80086d6:	3401      	adds	r4, #1
 80086d8:	f000 f846 	bl	8008768 <gnat__io__put__2>
 80086dc:	42ac      	cmp	r4, r5
 80086de:	d002      	beq.n	80086e6 <ada__exceptions__last_chance_handler__put.4173+0x1e>
 80086e0:	7820      	ldrb	r0, [r4, #0]
 80086e2:	2800      	cmp	r0, #0
 80086e4:	d1f7      	bne.n	80086d6 <ada__exceptions__last_chance_handler__put.4173+0xe>
 80086e6:	bd70      	pop	{r4, r5, r6, pc}
 80086e8:	213d      	movs	r1, #61	; 0x3d
 80086ea:	4802      	ldr	r0, [pc, #8]	; (80086f4 <ada__exceptions__last_chance_handler__put.4173+0x2c>)
 80086ec:	f000 f804 	bl	80086f8 <__gnat_last_chance_handler>
 80086f0:	7fffffff 	.word	0x7fffffff
 80086f4:	08009eb0 	.word	0x08009eb0

080086f8 <__gnat_last_chance_handler>:
 80086f8:	b570      	push	{r4, r5, r6, lr}
 80086fa:	4c12      	ldr	r4, [pc, #72]	; (8008744 <__gnat_last_chance_handler+0x4c>)
 80086fc:	000d      	movs	r5, r1
 80086fe:	0021      	movs	r1, r4
 8008700:	0006      	movs	r6, r0
 8008702:	3110      	adds	r1, #16
 8008704:	4810      	ldr	r0, [pc, #64]	; (8008748 <__gnat_last_chance_handler+0x50>)
 8008706:	f000 f8b7 	bl	8008878 <gnat__io__put_line>
 800870a:	0021      	movs	r1, r4
 800870c:	2d00      	cmp	r5, #0
 800870e:	d011      	beq.n	8008734 <__gnat_last_chance_handler+0x3c>
 8008710:	3118      	adds	r1, #24
 8008712:	480e      	ldr	r0, [pc, #56]	; (800874c <__gnat_last_chance_handler+0x54>)
 8008714:	f000 f854 	bl	80087c0 <gnat__io__put__3>
 8008718:	0030      	movs	r0, r6
 800871a:	f7ff ffd5 	bl	80086c8 <ada__exceptions__last_chance_handler__put.4173>
 800871e:	203a      	movs	r0, #58	; 0x3a
 8008720:	f000 f822 	bl	8008768 <gnat__io__put__2>
 8008724:	0028      	movs	r0, r5
 8008726:	f000 f85b 	bl	80087e0 <gnat__io__put>
 800872a:	2001      	movs	r0, #1
 800872c:	f000 f83e 	bl	80087ac <gnat__io__new_line>
 8008730:	f000 fa70 	bl	8008c14 <system__machine_reset__stop>
 8008734:	3120      	adds	r1, #32
 8008736:	4806      	ldr	r0, [pc, #24]	; (8008750 <__gnat_last_chance_handler+0x58>)
 8008738:	f000 f842 	bl	80087c0 <gnat__io__put__3>
 800873c:	0030      	movs	r0, r6
 800873e:	f7ff ffc3 	bl	80086c8 <ada__exceptions__last_chance_handler__put.4173>
 8008742:	e7f2      	b.n	800872a <__gnat_last_chance_handler+0x32>
 8008744:	08009eb0 	.word	0x08009eb0
 8008748:	08009ed8 	.word	0x08009ed8
 800874c:	08009ef0 	.word	0x08009ef0
 8008750:	08009f10 	.word	0x08009f10

08008754 <ada__text_io___elabb>:
 8008754:	4b03      	ldr	r3, [pc, #12]	; (8008764 <ada__text_io___elabb+0x10>)
 8008756:	b510      	push	{r4, lr}
 8008758:	781b      	ldrb	r3, [r3, #0]
 800875a:	2b00      	cmp	r3, #0
 800875c:	d101      	bne.n	8008762 <ada__text_io___elabb+0xe>
 800875e:	f000 fb19 	bl	8008d94 <system__text_io__initialize>
 8008762:	bd10      	pop	{r4, pc}
 8008764:	20000078 	.word	0x20000078

08008768 <gnat__io__put__2>:
 8008768:	4b0f      	ldr	r3, [pc, #60]	; (80087a8 <gnat__io__put__2+0x40>)
 800876a:	b510      	push	{r4, lr}
 800876c:	781b      	ldrb	r3, [r3, #0]
 800876e:	0004      	movs	r4, r0
 8008770:	2b00      	cmp	r3, #0
 8008772:	d009      	beq.n	8008788 <gnat__io__put__2+0x20>
 8008774:	2c0a      	cmp	r4, #10
 8008776:	d00b      	beq.n	8008790 <gnat__io__put__2+0x28>
 8008778:	f000 fb20 	bl	8008dbc <system__text_io__is_tx_ready>
 800877c:	2800      	cmp	r0, #0
 800877e:	d0fb      	beq.n	8008778 <gnat__io__put__2+0x10>
 8008780:	0020      	movs	r0, r4
 8008782:	f000 fb1d 	bl	8008dc0 <system__text_io__put>
 8008786:	bd10      	pop	{r4, pc}
 8008788:	f000 fb04 	bl	8008d94 <system__text_io__initialize>
 800878c:	2c0a      	cmp	r4, #10
 800878e:	d1f3      	bne.n	8008778 <gnat__io__put__2+0x10>
 8008790:	f000 fb18 	bl	8008dc4 <system__text_io__use_cr_lf_for_new_line>
 8008794:	2800      	cmp	r0, #0
 8008796:	d0ef      	beq.n	8008778 <gnat__io__put__2+0x10>
 8008798:	f000 fb10 	bl	8008dbc <system__text_io__is_tx_ready>
 800879c:	2800      	cmp	r0, #0
 800879e:	d0fb      	beq.n	8008798 <gnat__io__put__2+0x30>
 80087a0:	200d      	movs	r0, #13
 80087a2:	f000 fb0d 	bl	8008dc0 <system__text_io__put>
 80087a6:	e7e7      	b.n	8008778 <gnat__io__put__2+0x10>
 80087a8:	20000078 	.word	0x20000078

080087ac <gnat__io__new_line>:
 80087ac:	b570      	push	{r4, r5, r6, lr}
 80087ae:	0005      	movs	r5, r0
 80087b0:	2400      	movs	r4, #0
 80087b2:	3401      	adds	r4, #1
 80087b4:	200a      	movs	r0, #10
 80087b6:	f7ff ffd7 	bl	8008768 <gnat__io__put__2>
 80087ba:	42a5      	cmp	r5, r4
 80087bc:	d1f9      	bne.n	80087b2 <gnat__io__new_line+0x6>
 80087be:	bd70      	pop	{r4, r5, r6, pc}

080087c0 <gnat__io__put__3>:
 80087c0:	680b      	ldr	r3, [r1, #0]
 80087c2:	684a      	ldr	r2, [r1, #4]
 80087c4:	b570      	push	{r4, r5, r6, lr}
 80087c6:	4293      	cmp	r3, r2
 80087c8:	dc09      	bgt.n	80087de <gnat__io__put__3+0x1e>
 80087ca:	0004      	movs	r4, r0
 80087cc:	1c45      	adds	r5, r0, #1
 80087ce:	18ad      	adds	r5, r5, r2
 80087d0:	1aed      	subs	r5, r5, r3
 80087d2:	7820      	ldrb	r0, [r4, #0]
 80087d4:	3401      	adds	r4, #1
 80087d6:	f7ff ffc7 	bl	8008768 <gnat__io__put__2>
 80087da:	42ac      	cmp	r4, r5
 80087dc:	d1f9      	bne.n	80087d2 <gnat__io__put__3+0x12>
 80087de:	bd70      	pop	{r4, r5, r6, pc}

080087e0 <gnat__io__put>:
 80087e0:	b5f0      	push	{r4, r5, r6, r7, lr}
 80087e2:	46c6      	mov	lr, r8
 80087e4:	b500      	push	{lr}
 80087e6:	17c2      	asrs	r2, r0, #31
 80087e8:	1a14      	subs	r4, r2, r0
 80087ea:	4054      	eors	r4, r2
 80087ec:	b086      	sub	sp, #24
 80087ee:	4680      	mov	r8, r0
 80087f0:	210a      	movs	r1, #10
 80087f2:	0020      	movs	r0, r4
 80087f4:	f000 fccc 	bl	8009190 <__aeabi_idivmod>
 80087f8:	1a60      	subs	r0, r4, r1
 80087fa:	000d      	movs	r5, r1
 80087fc:	210a      	movs	r1, #10
 80087fe:	f000 fbe1 	bl	8008fc4 <__divsi3>
 8008802:	2730      	movs	r7, #48	; 0x30
 8008804:	0004      	movs	r4, r0
 8008806:	200b      	movs	r0, #11
 8008808:	1e46      	subs	r6, r0, #1
 800880a:	aa03      	add	r2, sp, #12
 800880c:	1992      	adds	r2, r2, r6
 800880e:	1b7d      	subs	r5, r7, r5
 8008810:	0003      	movs	r3, r0
 8008812:	7015      	strb	r5, [r2, #0]
 8008814:	2c00      	cmp	r4, #0
 8008816:	d00f      	beq.n	8008838 <gnat__io__put+0x58>
 8008818:	0020      	movs	r0, r4
 800881a:	210a      	movs	r1, #10
 800881c:	f000 fcb8 	bl	8009190 <__aeabi_idivmod>
 8008820:	1a60      	subs	r0, r4, r1
 8008822:	000d      	movs	r5, r1
 8008824:	210a      	movs	r1, #10
 8008826:	f000 fbcd 	bl	8008fc4 <__divsi3>
 800882a:	0004      	movs	r4, r0
 800882c:	1e30      	subs	r0, r6, #0
 800882e:	d1eb      	bne.n	8008808 <gnat__io__put+0x28>
 8008830:	2143      	movs	r1, #67	; 0x43
 8008832:	4810      	ldr	r0, [pc, #64]	; (8008874 <gnat__io__put+0x94>)
 8008834:	f7ff ff60 	bl	80086f8 <__gnat_last_chance_handler>
 8008838:	4641      	mov	r1, r8
 800883a:	2900      	cmp	r1, #0
 800883c:	db0d      	blt.n	800885a <gnat__io__put+0x7a>
 800883e:	0030      	movs	r0, r6
 8008840:	aa03      	add	r2, sp, #12
 8008842:	4694      	mov	ip, r2
 8008844:	9301      	str	r3, [sp, #4]
 8008846:	230b      	movs	r3, #11
 8008848:	4460      	add	r0, ip
 800884a:	a901      	add	r1, sp, #4
 800884c:	9302      	str	r3, [sp, #8]
 800884e:	f7ff ffb7 	bl	80087c0 <gnat__io__put__3>
 8008852:	b006      	add	sp, #24
 8008854:	bc04      	pop	{r2}
 8008856:	4690      	mov	r8, r2
 8008858:	bdf0      	pop	{r4, r5, r6, r7, pc}
 800885a:	3802      	subs	r0, #2
 800885c:	0033      	movs	r3, r6
 800885e:	280a      	cmp	r0, #10
 8008860:	d803      	bhi.n	800886a <gnat__io__put+0x8a>
 8008862:	212d      	movs	r1, #45	; 0x2d
 8008864:	3a01      	subs	r2, #1
 8008866:	7011      	strb	r1, [r2, #0]
 8008868:	e7ea      	b.n	8008840 <gnat__io__put+0x60>
 800886a:	2149      	movs	r1, #73	; 0x49
 800886c:	4801      	ldr	r0, [pc, #4]	; (8008874 <gnat__io__put+0x94>)
 800886e:	f7ff ff43 	bl	80086f8 <__gnat_last_chance_handler>
 8008872:	46c0      	nop			; (mov r8, r8)
 8008874:	08009f40 	.word	0x08009f40

08008878 <gnat__io__put_line>:
 8008878:	b510      	push	{r4, lr}
 800887a:	f7ff ffa1 	bl	80087c0 <gnat__io__put__3>
 800887e:	200a      	movs	r0, #10
 8008880:	f7ff ff72 	bl	8008768 <gnat__io__put__2>
 8008884:	bd10      	pop	{r4, pc}
 8008886:	46c0      	nop			; (mov r8, r8)
	...

08008a00 <__vectors>:
 8008a00:	00000000 	.word	0x00000000
 8008a04:	08008b91 	.word	0x08008b91
 8008a08:	08008b91 	.word	0x08008b91
 8008a0c:	08008b91 	.word	0x08008b91
 8008a10:	08008b91 	.word	0x08008b91
 8008a14:	08008b91 	.word	0x08008b91
 8008a18:	08008b91 	.word	0x08008b91
 8008a1c:	08008b91 	.word	0x08008b91
 8008a20:	08008b91 	.word	0x08008b91
 8008a24:	08008b91 	.word	0x08008b91
 8008a28:	08008b91 	.word	0x08008b91
 8008a2c:	08007801 	.word	0x08007801
 8008a30:	08008b91 	.word	0x08008b91
 8008a34:	08008b91 	.word	0x08008b91
 8008a38:	08008521 	.word	0x08008521
 8008a3c:	08007809 	.word	0x08007809
 8008a40:	080077b1 	.word	0x080077b1
 8008a44:	080077b1 	.word	0x080077b1
 8008a48:	080077b1 	.word	0x080077b1
 8008a4c:	080077b1 	.word	0x080077b1
 8008a50:	080077b1 	.word	0x080077b1
 8008a54:	080077b1 	.word	0x080077b1
 8008a58:	080077b1 	.word	0x080077b1
 8008a5c:	080077b1 	.word	0x080077b1
 8008a60:	080077b1 	.word	0x080077b1
 8008a64:	080077b1 	.word	0x080077b1
 8008a68:	080077b1 	.word	0x080077b1
 8008a6c:	080077b1 	.word	0x080077b1
 8008a70:	080077b1 	.word	0x080077b1
 8008a74:	080077b1 	.word	0x080077b1
 8008a78:	080077b1 	.word	0x080077b1
 8008a7c:	080077b1 	.word	0x080077b1
 8008a80:	080077b1 	.word	0x080077b1
 8008a84:	080077b1 	.word	0x080077b1
 8008a88:	080077b1 	.word	0x080077b1
 8008a8c:	080077b1 	.word	0x080077b1
 8008a90:	080077b1 	.word	0x080077b1
 8008a94:	080077b1 	.word	0x080077b1
 8008a98:	080077b1 	.word	0x080077b1
 8008a9c:	080077b1 	.word	0x080077b1
 8008aa0:	080077b1 	.word	0x080077b1
 8008aa4:	080077b1 	.word	0x080077b1
 8008aa8:	080077b1 	.word	0x080077b1
 8008aac:	080077b1 	.word	0x080077b1
 8008ab0:	080077b1 	.word	0x080077b1
 8008ab4:	080077b1 	.word	0x080077b1
 8008ab8:	080077b1 	.word	0x080077b1
 8008abc:	080077b1 	.word	0x080077b1
 8008ac0:	080077b1 	.word	0x080077b1
 8008ac4:	080077b1 	.word	0x080077b1
 8008ac8:	080077b1 	.word	0x080077b1
 8008acc:	080077b1 	.word	0x080077b1
 8008ad0:	080077b1 	.word	0x080077b1
 8008ad4:	080077b1 	.word	0x080077b1
 8008ad8:	080077b1 	.word	0x080077b1
 8008adc:	080077b1 	.word	0x080077b1
 8008ae0:	080077b1 	.word	0x080077b1
 8008ae4:	080077b1 	.word	0x080077b1
 8008ae8:	080077b1 	.word	0x080077b1
 8008aec:	080077b1 	.word	0x080077b1
 8008af0:	080077b1 	.word	0x080077b1
 8008af4:	080077b1 	.word	0x080077b1
 8008af8:	080077b1 	.word	0x080077b1
 8008afc:	080077b1 	.word	0x080077b1
 8008b00:	080077b1 	.word	0x080077b1
 8008b04:	080077b1 	.word	0x080077b1
 8008b08:	080077b1 	.word	0x080077b1
 8008b0c:	080077b1 	.word	0x080077b1
 8008b10:	080077b1 	.word	0x080077b1
 8008b14:	080077b1 	.word	0x080077b1
 8008b18:	080077b1 	.word	0x080077b1
 8008b1c:	080077b1 	.word	0x080077b1
 8008b20:	080077b1 	.word	0x080077b1
 8008b24:	080077b1 	.word	0x080077b1
 8008b28:	080077b1 	.word	0x080077b1
 8008b2c:	080077b1 	.word	0x080077b1
 8008b30:	080077b1 	.word	0x080077b1
 8008b34:	080077b1 	.word	0x080077b1
 8008b38:	080077b1 	.word	0x080077b1
 8008b3c:	080077b1 	.word	0x080077b1
 8008b40:	080077b1 	.word	0x080077b1
 8008b44:	080077b1 	.word	0x080077b1
 8008b48:	080077b1 	.word	0x080077b1
 8008b4c:	080077b1 	.word	0x080077b1
 8008b50:	080077b1 	.word	0x080077b1
 8008b54:	080077b1 	.word	0x080077b1
 8008b58:	080077b1 	.word	0x080077b1
 8008b5c:	080077b1 	.word	0x080077b1
 8008b60:	080077b1 	.word	0x080077b1
 8008b64:	080077b1 	.word	0x080077b1
 8008b68:	080077b1 	.word	0x080077b1
 8008b6c:	080077b1 	.word	0x080077b1
 8008b70:	080077b1 	.word	0x080077b1
 8008b74:	080077b1 	.word	0x080077b1
 8008b78:	080077b1 	.word	0x080077b1
 8008b7c:	080077b1 	.word	0x080077b1
 8008b80:	080077b1 	.word	0x080077b1
 8008b84:	080077b1 	.word	0x080077b1
 8008b88:	e7fe      	b.n	8008b88 <__vectors+0x188>
 8008b8a:	e7fe      	b.n	8008b8a <__vectors+0x18a>
 8008b8c:	e7fe      	b.n	8008b8c <__vectors+0x18c>
 8008b8e:	e7fe      	b.n	8008b8e <__vectors+0x18e>

08008b90 <fault>:
 8008b90:	e7fe      	b.n	8008b90 <fault>
 8008b92:	46c0      	nop			; (mov r8, r8)

08008b94 <system__assertions__raise_assert_failure>:
 8008b94:	b5f8      	push	{r3, r4, r5, r6, r7, lr}
 8008b96:	c90c      	ldmia	r1!, {r2, r3}
 8008b98:	af00      	add	r7, sp, #0
 8008b9a:	4293      	cmp	r3, r2
 8008b9c:	db22      	blt.n	8008be4 <system__assertions__raise_assert_failure+0x50>
 8008b9e:	3301      	adds	r3, #1
 8008ba0:	429a      	cmp	r2, r3
 8008ba2:	dc23      	bgt.n	8008bec <system__assertions__raise_assert_failure+0x58>
 8008ba4:	2a00      	cmp	r2, #0
 8008ba6:	dd25      	ble.n	8008bf4 <system__assertions__raise_assert_failure+0x60>
 8008ba8:	1a9c      	subs	r4, r3, r2
 8008baa:	5d01      	ldrb	r1, [r0, r4]
 8008bac:	2900      	cmp	r1, #0
 8008bae:	d017      	beq.n	8008be0 <system__assertions__raise_assert_failure+0x4c>
 8008bb0:	0021      	movs	r1, r4
 8008bb2:	2503      	movs	r5, #3
 8008bb4:	310c      	adds	r1, #12
 8008bb6:	43a9      	bics	r1, r5
 8008bb8:	310a      	adds	r1, #10
 8008bba:	40e9      	lsrs	r1, r5
 8008bbc:	40a9      	lsls	r1, r5
 8008bbe:	466d      	mov	r5, sp
 8008bc0:	1a69      	subs	r1, r5, r1
 8008bc2:	468d      	mov	sp, r1
 8008bc4:	466d      	mov	r5, sp
 8008bc6:	002e      	movs	r6, r5
 8008bc8:	3608      	adds	r6, #8
 8008bca:	0001      	movs	r1, r0
 8008bcc:	602a      	str	r2, [r5, #0]
 8008bce:	606b      	str	r3, [r5, #4]
 8008bd0:	1c62      	adds	r2, r4, #1
 8008bd2:	0030      	movs	r0, r6
 8008bd4:	f000 f826 	bl	8008c24 <memcpy>
 8008bd8:	2100      	movs	r1, #0
 8008bda:	0030      	movs	r0, r6
 8008bdc:	192c      	adds	r4, r5, r4
 8008bde:	7221      	strb	r1, [r4, #8]
 8008be0:	f7ff fd8a 	bl	80086f8 <__gnat_last_chance_handler>
 8008be4:	2100      	movs	r1, #0
 8008be6:	4805      	ldr	r0, [pc, #20]	; (8008bfc <system__assertions__raise_assert_failure+0x68>)
 8008be8:	f7ff fd86 	bl	80086f8 <__gnat_last_chance_handler>
 8008bec:	2143      	movs	r1, #67	; 0x43
 8008bee:	4804      	ldr	r0, [pc, #16]	; (8008c00 <system__assertions__raise_assert_failure+0x6c>)
 8008bf0:	f7ff fd82 	bl	80086f8 <__gnat_last_chance_handler>
 8008bf4:	2140      	movs	r1, #64	; 0x40
 8008bf6:	4802      	ldr	r0, [pc, #8]	; (8008c00 <system__assertions__raise_assert_failure+0x6c>)
 8008bf8:	f7ff fd7e 	bl	80086f8 <__gnat_last_chance_handler>
 8008bfc:	08009f3c 	.word	0x08009f3c
 8008c00:	08009f4c 	.word	0x08009f4c

08008c04 <_exit>:
 8008c04:	4b01      	ldr	r3, [pc, #4]	; (8008c0c <_exit+0x8>)
 8008c06:	4a02      	ldr	r2, [pc, #8]	; (8008c10 <_exit+0xc>)
 8008c08:	601a      	str	r2, [r3, #0]
 8008c0a:	e7fe      	b.n	8008c0a <_exit+0x6>
 8008c0c:	e000ed0c 	.word	0xe000ed0c
 8008c10:	05fa0004 	.word	0x05fa0004

08008c14 <system__machine_reset__stop>:
 8008c14:	4b01      	ldr	r3, [pc, #4]	; (8008c1c <system__machine_reset__stop+0x8>)
 8008c16:	4a02      	ldr	r2, [pc, #8]	; (8008c20 <system__machine_reset__stop+0xc>)
 8008c18:	601a      	str	r2, [r3, #0]
 8008c1a:	e7fe      	b.n	8008c1a <system__machine_reset__stop+0x6>
 8008c1c:	e000ed0c 	.word	0xe000ed0c
 8008c20:	05fa0004 	.word	0x05fa0004

08008c24 <memcpy>:
 8008c24:	b510      	push	{r4, lr}
 8008c26:	0004      	movs	r4, r0
 8008c28:	430c      	orrs	r4, r1
 8008c2a:	0003      	movs	r3, r0
 8008c2c:	07a4      	lsls	r4, r4, #30
 8008c2e:	d10d      	bne.n	8008c4c <memcpy+0x28>
 8008c30:	2a03      	cmp	r2, #3
 8008c32:	d90b      	bls.n	8008c4c <memcpy+0x28>
 8008c34:	2800      	cmp	r0, #0
 8008c36:	d102      	bne.n	8008c3e <memcpy+0x1a>
 8008c38:	e01f      	b.n	8008c7a <memcpy+0x56>
 8008c3a:	2b00      	cmp	r3, #0
 8008c3c:	d01d      	beq.n	8008c7a <memcpy+0x56>
 8008c3e:	2900      	cmp	r1, #0
 8008c40:	d01b      	beq.n	8008c7a <memcpy+0x56>
 8008c42:	c910      	ldmia	r1!, {r4}
 8008c44:	3a04      	subs	r2, #4
 8008c46:	c310      	stmia	r3!, {r4}
 8008c48:	2a03      	cmp	r2, #3
 8008c4a:	d8f6      	bhi.n	8008c3a <memcpy+0x16>
 8008c4c:	2a00      	cmp	r2, #0
 8008c4e:	d00f      	beq.n	8008c70 <memcpy+0x4c>
 8008c50:	2b00      	cmp	r3, #0
 8008c52:	d00e      	beq.n	8008c72 <memcpy+0x4e>
 8008c54:	2900      	cmp	r1, #0
 8008c56:	d00c      	beq.n	8008c72 <memcpy+0x4e>
 8008c58:	1852      	adds	r2, r2, r1
 8008c5a:	e003      	b.n	8008c64 <memcpy+0x40>
 8008c5c:	2b00      	cmp	r3, #0
 8008c5e:	d008      	beq.n	8008c72 <memcpy+0x4e>
 8008c60:	2900      	cmp	r1, #0
 8008c62:	d006      	beq.n	8008c72 <memcpy+0x4e>
 8008c64:	780c      	ldrb	r4, [r1, #0]
 8008c66:	3101      	adds	r1, #1
 8008c68:	701c      	strb	r4, [r3, #0]
 8008c6a:	3301      	adds	r3, #1
 8008c6c:	4291      	cmp	r1, r2
 8008c6e:	d1f5      	bne.n	8008c5c <memcpy+0x38>
 8008c70:	bd10      	pop	{r4, pc}
 8008c72:	213e      	movs	r1, #62	; 0x3e
 8008c74:	4803      	ldr	r0, [pc, #12]	; (8008c84 <memcpy+0x60>)
 8008c76:	f7ff fd3f 	bl	80086f8 <__gnat_last_chance_handler>
 8008c7a:	2134      	movs	r1, #52	; 0x34
 8008c7c:	4801      	ldr	r0, [pc, #4]	; (8008c84 <memcpy+0x60>)
 8008c7e:	f7ff fd3b 	bl	80086f8 <__gnat_last_chance_handler>
 8008c82:	46c0      	nop			; (mov r8, r8)
 8008c84:	08009f5c 	.word	0x08009f5c

08008c88 <memset>:
 8008c88:	23ff      	movs	r3, #255	; 0xff
 8008c8a:	4019      	ands	r1, r3
 8008c8c:	b570      	push	{r4, r5, r6, lr}
 8008c8e:	0003      	movs	r3, r0
 8008c90:	b2cc      	uxtb	r4, r1
 8008c92:	0785      	lsls	r5, r0, #30
 8008c94:	d10e      	bne.n	8008cb4 <memset+0x2c>
 8008c96:	020d      	lsls	r5, r1, #8
 8008c98:	430d      	orrs	r5, r1
 8008c9a:	0429      	lsls	r1, r5, #16
 8008c9c:	4329      	orrs	r1, r5
 8008c9e:	2a03      	cmp	r2, #3
 8008ca0:	d908      	bls.n	8008cb4 <memset+0x2c>
 8008ca2:	2800      	cmp	r0, #0
 8008ca4:	d102      	bne.n	8008cac <memset+0x24>
 8008ca6:	e016      	b.n	8008cd6 <memset+0x4e>
 8008ca8:	2b00      	cmp	r3, #0
 8008caa:	d014      	beq.n	8008cd6 <memset+0x4e>
 8008cac:	3a04      	subs	r2, #4
 8008cae:	c302      	stmia	r3!, {r1}
 8008cb0:	2a03      	cmp	r2, #3
 8008cb2:	d8f9      	bhi.n	8008ca8 <memset+0x20>
 8008cb4:	2a00      	cmp	r2, #0
 8008cb6:	d009      	beq.n	8008ccc <memset+0x44>
 8008cb8:	18d2      	adds	r2, r2, r3
 8008cba:	2b00      	cmp	r3, #0
 8008cbc:	d102      	bne.n	8008cc4 <memset+0x3c>
 8008cbe:	e006      	b.n	8008cce <memset+0x46>
 8008cc0:	2b00      	cmp	r3, #0
 8008cc2:	d004      	beq.n	8008cce <memset+0x46>
 8008cc4:	701c      	strb	r4, [r3, #0]
 8008cc6:	3301      	adds	r3, #1
 8008cc8:	4293      	cmp	r3, r2
 8008cca:	d1f9      	bne.n	8008cc0 <memset+0x38>
 8008ccc:	bd70      	pop	{r4, r5, r6, pc}
 8008cce:	214b      	movs	r1, #75	; 0x4b
 8008cd0:	4803      	ldr	r0, [pc, #12]	; (8008ce0 <memset+0x58>)
 8008cd2:	f7ff fd11 	bl	80086f8 <__gnat_last_chance_handler>
 8008cd6:	2142      	movs	r1, #66	; 0x42
 8008cd8:	4801      	ldr	r0, [pc, #4]	; (8008ce0 <memset+0x58>)
 8008cda:	f7ff fd0d 	bl	80086f8 <__gnat_last_chance_handler>
 8008cde:	46c0      	nop			; (mov r8, r8)
 8008ce0:	08009f6c 	.word	0x08009f6c

08008ce4 <system__parameters__adjust_storage_size>:
 8008ce4:	2380      	movs	r3, #128	; 0x80
 8008ce6:	061b      	lsls	r3, r3, #24
 8008ce8:	4298      	cmp	r0, r3
 8008cea:	d000      	beq.n	8008cee <system__parameters__adjust_storage_size+0xa>
 8008cec:	4770      	bx	lr
 8008cee:	2080      	movs	r0, #128	; 0x80
 8008cf0:	00c0      	lsls	r0, r0, #3
 8008cf2:	e7fb      	b.n	8008cec <system__parameters__adjust_storage_size+0x8>

08008cf4 <system__secondary_stack__ss_stackIP>:
 8008cf4:	6001      	str	r1, [r0, #0]
 8008cf6:	4770      	bx	lr

08008cf8 <system__secondary_stack__ss_init>:
 8008cf8:	b570      	push	{r4, r5, r6, lr}
 8008cfa:	2800      	cmp	r0, #0
 8008cfc:	d003      	beq.n	8008d06 <system__secondary_stack__ss_init+0xe>
 8008cfe:	2301      	movs	r3, #1
 8008d00:	6043      	str	r3, [r0, #4]
 8008d02:	6083      	str	r3, [r0, #8]
 8008d04:	bd70      	pop	{r4, r5, r6, pc}
 8008d06:	2380      	movs	r3, #128	; 0x80
 8008d08:	061b      	lsls	r3, r3, #24
 8008d0a:	4299      	cmp	r1, r3
 8008d0c:	d007      	beq.n	8008d1e <system__secondary_stack__ss_init+0x26>
 8008d0e:	4b1c      	ldr	r3, [pc, #112]	; (8008d80 <system__secondary_stack__ss_init+0x88>)
 8008d10:	681b      	ldr	r3, [r3, #0]
 8008d12:	2b00      	cmp	r3, #0
 8008d14:	d0f6      	beq.n	8008d04 <system__secondary_stack__ss_init+0xc>
 8008d16:	21ea      	movs	r1, #234	; 0xea
 8008d18:	481a      	ldr	r0, [pc, #104]	; (8008d84 <system__secondary_stack__ss_init+0x8c>)
 8008d1a:	f7ff fced 	bl	80086f8 <__gnat_last_chance_handler>
 8008d1e:	4b18      	ldr	r3, [pc, #96]	; (8008d80 <system__secondary_stack__ss_init+0x88>)
 8008d20:	681a      	ldr	r2, [r3, #0]
 8008d22:	2a00      	cmp	r2, #0
 8008d24:	ddf4      	ble.n	8008d10 <system__secondary_stack__ss_init+0x18>
 8008d26:	4918      	ldr	r1, [pc, #96]	; (8008d88 <system__secondary_stack__ss_init+0x90>)
 8008d28:	681c      	ldr	r4, [r3, #0]
 8008d2a:	680a      	ldr	r2, [r1, #0]
 8008d2c:	42a2      	cmp	r2, r4
 8008d2e:	daef      	bge.n	8008d10 <system__secondary_stack__ss_init+0x18>
 8008d30:	681d      	ldr	r5, [r3, #0]
 8008d32:	4b16      	ldr	r3, [pc, #88]	; (8008d8c <system__secondary_stack__ss_init+0x94>)
 8008d34:	1c54      	adds	r4, r2, #1
 8008d36:	681b      	ldr	r3, [r3, #0]
 8008d38:	600c      	str	r4, [r1, #0]
 8008d3a:	43d8      	mvns	r0, r3
 8008d3c:	17c0      	asrs	r0, r0, #31
 8008d3e:	4003      	ands	r3, r0
 8008d40:	0f58      	lsrs	r0, r3, #29
 8008d42:	00db      	lsls	r3, r3, #3
 8008d44:	0740      	lsls	r0, r0, #29
 8008d46:	08db      	lsrs	r3, r3, #3
 8008d48:	4303      	orrs	r3, r0
 8008d4a:	2007      	movs	r0, #7
 8008d4c:	3307      	adds	r3, #7
 8008d4e:	4383      	bics	r3, r0
 8008d50:	3310      	adds	r3, #16
 8008d52:	0018      	movs	r0, r3
 8008d54:	4b0e      	ldr	r3, [pc, #56]	; (8008d90 <system__secondary_stack__ss_init+0x98>)
 8008d56:	6819      	ldr	r1, [r3, #0]
 8008d58:	2900      	cmp	r1, #0
 8008d5a:	d00d      	beq.n	8008d78 <system__secondary_stack__ss_init+0x80>
 8008d5c:	6819      	ldr	r1, [r3, #0]
 8008d5e:	2c00      	cmp	r4, #0
 8008d60:	dd0a      	ble.n	8008d78 <system__secondary_stack__ss_init+0x80>
 8008d62:	42a5      	cmp	r5, r4
 8008d64:	db08      	blt.n	8008d78 <system__secondary_stack__ss_init+0x80>
 8008d66:	4350      	muls	r0, r2
 8008d68:	681b      	ldr	r3, [r3, #0]
 8008d6a:	18c0      	adds	r0, r0, r3
 8008d6c:	2800      	cmp	r0, #0
 8008d6e:	d1c6      	bne.n	8008cfe <system__secondary_stack__ss_init+0x6>
 8008d70:	21ee      	movs	r1, #238	; 0xee
 8008d72:	4804      	ldr	r0, [pc, #16]	; (8008d84 <system__secondary_stack__ss_init+0x8c>)
 8008d74:	f7ff fcc0 	bl	80086f8 <__gnat_last_chance_handler>
 8008d78:	21dc      	movs	r1, #220	; 0xdc
 8008d7a:	4802      	ldr	r0, [pc, #8]	; (8008d84 <system__secondary_stack__ss_init+0x8c>)
 8008d7c:	f7ff fcbc 	bl	80086f8 <__gnat_last_chance_handler>
 8008d80:	200011c4 	.word	0x200011c4
 8008d84:	08009f7c 	.word	0x08009f7c
 8008d88:	20000074 	.word	0x20000074
 8008d8c:	200011cc 	.word	0x200011cc
 8008d90:	200011c8 	.word	0x200011c8

08008d94 <system__text_io__initialize>:
 8008d94:	2101      	movs	r1, #1
 8008d96:	2280      	movs	r2, #128	; 0x80
 8008d98:	4b05      	ldr	r3, [pc, #20]	; (8008db0 <system__text_io__initialize+0x1c>)
 8008d9a:	01d2      	lsls	r2, r2, #7
 8008d9c:	7019      	strb	r1, [r3, #0]
 8008d9e:	4b05      	ldr	r3, [pc, #20]	; (8008db4 <system__text_io__initialize+0x20>)
 8008da0:	6818      	ldr	r0, [r3, #0]
 8008da2:	4302      	orrs	r2, r0
 8008da4:	601a      	str	r2, [r3, #0]
 8008da6:	4a04      	ldr	r2, [pc, #16]	; (8008db8 <system__text_io__initialize+0x24>)
 8008da8:	6813      	ldr	r3, [r2, #0]
 8008daa:	430b      	orrs	r3, r1
 8008dac:	6013      	str	r3, [r2, #0]
 8008dae:	4770      	bx	lr
 8008db0:	20000078 	.word	0x20000078
 8008db4:	40021060 	.word	0x40021060
 8008db8:	4002104c 	.word	0x4002104c

08008dbc <system__text_io__is_tx_ready>:
 8008dbc:	2001      	movs	r0, #1
 8008dbe:	4770      	bx	lr

08008dc0 <system__text_io__put>:
 8008dc0:	4770      	bx	lr
 8008dc2:	46c0      	nop			; (mov r8, r8)

08008dc4 <system__text_io__use_cr_lf_for_new_line>:
 8008dc4:	2001      	movs	r0, #1
 8008dc6:	4770      	bx	lr

08008dc8 <_start_rom>:
 8008dc8:	4829      	ldr	r0, [pc, #164]	; (8008e70 <hang+0x2>)
 8008dca:	492a      	ldr	r1, [pc, #168]	; (8008e74 <hang+0x6>)
 8008dcc:	4a2a      	ldr	r2, [pc, #168]	; (8008e78 <hang+0xa>)
 8008dce:	2900      	cmp	r1, #0
 8008dd0:	d005      	beq.n	8008dde <_start_rom+0x16>
 8008dd2:	6814      	ldr	r4, [r2, #0]
 8008dd4:	3204      	adds	r2, #4
 8008dd6:	6004      	str	r4, [r0, #0]
 8008dd8:	3004      	adds	r0, #4
 8008dda:	3901      	subs	r1, #1
 8008ddc:	d1f9      	bne.n	8008dd2 <_start_rom+0xa>
 8008dde:	4827      	ldr	r0, [pc, #156]	; (8008e7c <hang+0xe>)
 8008de0:	4827      	ldr	r0, [pc, #156]	; (8008e80 <hang+0x12>)
 8008de2:	4a28      	ldr	r2, [pc, #160]	; (8008e84 <hang+0x16>)
 8008de4:	2900      	cmp	r1, #0
 8008de6:	d005      	beq.n	8008df4 <_start_rom+0x2c>
 8008de8:	6814      	ldr	r4, [r2, #0]
 8008dea:	3204      	adds	r2, #4
 8008dec:	6004      	str	r4, [r0, #0]
 8008dee:	3004      	adds	r0, #4
 8008df0:	3901      	subs	r1, #1
 8008df2:	d1f9      	bne.n	8008de8 <_start_rom+0x20>
 8008df4:	4824      	ldr	r0, [pc, #144]	; (8008e88 <hang+0x1a>)
 8008df6:	4925      	ldr	r1, [pc, #148]	; (8008e8c <hang+0x1e>)
 8008df8:	2200      	movs	r2, #0
 8008dfa:	2900      	cmp	r1, #0
 8008dfc:	d003      	beq.n	8008e06 <_start_rom+0x3e>
 8008dfe:	6002      	str	r2, [r0, #0]
 8008e00:	3004      	adds	r0, #4
 8008e02:	3901      	subs	r1, #1
 8008e04:	d1fb      	bne.n	8008dfe <_start_rom+0x36>
 8008e06:	4922      	ldr	r1, [pc, #136]	; (8008e90 <hang+0x22>)
 8008e08:	4b22      	ldr	r3, [pc, #136]	; (8008e94 <hang+0x26>)
 8008e0a:	4c23      	ldr	r4, [pc, #140]	; (8008e98 <hang+0x2a>)
 8008e0c:	4d23      	ldr	r5, [pc, #140]	; (8008e9c <hang+0x2e>)
 8008e0e:	2200      	movs	r2, #0
 8008e10:	600a      	str	r2, [r1, #0]
 8008e12:	4a23      	ldr	r2, [pc, #140]	; (8008ea0 <hang+0x32>)
 8008e14:	601a      	str	r2, [r3, #0]
 8008e16:	4a23      	ldr	r2, [pc, #140]	; (8008ea4 <hang+0x36>)
 8008e18:	6022      	str	r2, [r4, #0]
 8008e1a:	2201      	movs	r2, #1
 8008e1c:	600a      	str	r2, [r1, #0]
 8008e1e:	4a22      	ldr	r2, [pc, #136]	; (8008ea8 <hang+0x3a>)
 8008e20:	601a      	str	r2, [r3, #0]
 8008e22:	4a22      	ldr	r2, [pc, #136]	; (8008eac <hang+0x3e>)
 8008e24:	6022      	str	r2, [r4, #0]
 8008e26:	2202      	movs	r2, #2
 8008e28:	600a      	str	r2, [r1, #0]
 8008e2a:	4a21      	ldr	r2, [pc, #132]	; (8008eb0 <hang+0x42>)
 8008e2c:	601a      	str	r2, [r3, #0]
 8008e2e:	4a21      	ldr	r2, [pc, #132]	; (8008eb4 <hang+0x46>)
 8008e30:	6022      	str	r2, [r4, #0]
 8008e32:	2203      	movs	r2, #3
 8008e34:	600a      	str	r2, [r1, #0]
 8008e36:	4a20      	ldr	r2, [pc, #128]	; (8008eb8 <hang+0x4a>)
 8008e38:	601a      	str	r2, [r3, #0]
 8008e3a:	4a20      	ldr	r2, [pc, #128]	; (8008ebc <hang+0x4e>)
 8008e3c:	6022      	str	r2, [r4, #0]
 8008e3e:	2204      	movs	r2, #4
 8008e40:	600a      	str	r2, [r1, #0]
 8008e42:	4a1f      	ldr	r2, [pc, #124]	; (8008ec0 <hang+0x52>)
 8008e44:	601a      	str	r2, [r3, #0]
 8008e46:	4a1f      	ldr	r2, [pc, #124]	; (8008ec4 <hang+0x56>)
 8008e48:	6022      	str	r2, [r4, #0]
 8008e4a:	2205      	movs	r2, #5
 8008e4c:	600a      	str	r2, [r1, #0]
 8008e4e:	4a1e      	ldr	r2, [pc, #120]	; (8008ec8 <hang+0x5a>)
 8008e50:	601a      	str	r2, [r3, #0]
 8008e52:	4a1e      	ldr	r2, [pc, #120]	; (8008ecc <hang+0x5e>)
 8008e54:	6022      	str	r2, [r4, #0]
 8008e56:	2201      	movs	r2, #1
 8008e58:	f3bf 8f4f 	dsb	sy
 8008e5c:	602a      	str	r2, [r5, #0]
 8008e5e:	f3bf 8f6f 	isb	sy
 8008e62:	f000 f835 	bl	8008ed0 <_ada_setup_pll>
 8008e66:	f7f7 f9af 	bl	80001c8 <main>
 8008e6a:	f7ff fecb 	bl	8008c04 <_exit>

08008e6e <hang>:
 8008e6e:	e7fe      	b.n	8008e6e <hang>
 8008e70:	20000000 	.word	0x20000000
 8008e74:	0000001f 	.word	0x0000001f
 8008e78:	08009f8c 	.word	0x08009f8c
 8008e7c:	2000007c 	.word	0x2000007c
 8008e80:	00000000 	.word	0x00000000
 8008e84:	0800a008 	.word	0x0800a008
 8008e88:	20000080 	.word	0x20000080
 8008e8c:	00000454 	.word	0x00000454
 8008e90:	e000ed98 	.word	0xe000ed98
 8008e94:	e000ed9c 	.word	0xe000ed9c
 8008e98:	e000eda0 	.word	0xe000eda0
 8008e9c:	e000ed94 	.word	0xe000ed94
 8008ea0:	00000000 	.word	0x00000000
 8008ea4:	1000003f 	.word	0x1000003f
 8008ea8:	08000000 	.word	0x08000000
 8008eac:	06000021 	.word	0x06000021
 8008eb0:	20000000 	.word	0x20000000
 8008eb4:	1300001d 	.word	0x1300001d
 8008eb8:	40000000 	.word	0x40000000
 8008ebc:	03020039 	.word	0x03020039
 8008ec0:	50000000 	.word	0x50000000
 8008ec4:	03020025 	.word	0x03020025
 8008ec8:	e0000000 	.word	0xe0000000
 8008ecc:	0302001f 	.word	0x0302001f

08008ed0 <_ada_setup_pll>:
 8008ed0:	2280      	movs	r2, #128	; 0x80
 8008ed2:	b510      	push	{r4, lr}
 8008ed4:	4b31      	ldr	r3, [pc, #196]	; (8008f9c <_ada_setup_pll+0xcc>)
 8008ed6:	0052      	lsls	r2, r2, #1
 8008ed8:	6819      	ldr	r1, [r3, #0]
 8008eda:	b082      	sub	sp, #8
 8008edc:	430a      	orrs	r2, r1
 8008ede:	601a      	str	r2, [r3, #0]
 8008ee0:	681a      	ldr	r2, [r3, #0]
 8008ee2:	0552      	lsls	r2, r2, #21
 8008ee4:	d5fc      	bpl.n	8008ee0 <_ada_setup_pll+0x10>
 8008ee6:	2103      	movs	r1, #3
 8008ee8:	681a      	ldr	r2, [r3, #0]
 8008eea:	4c2d      	ldr	r4, [pc, #180]	; (8008fa0 <_ada_setup_pll+0xd0>)
 8008eec:	482d      	ldr	r0, [pc, #180]	; (8008fa4 <_ada_setup_pll+0xd4>)
 8008eee:	4022      	ands	r2, r4
 8008ef0:	601a      	str	r2, [r3, #0]
 8008ef2:	9a01      	ldr	r2, [sp, #4]
 8008ef4:	438a      	bics	r2, r1
 8008ef6:	3901      	subs	r1, #1
 8008ef8:	430a      	orrs	r2, r1
 8008efa:	9201      	str	r2, [sp, #4]
 8008efc:	9a01      	ldr	r2, [sp, #4]
 8008efe:	310a      	adds	r1, #10
 8008f00:	438a      	bics	r2, r1
 8008f02:	9201      	str	r2, [sp, #4]
 8008f04:	9a01      	ldr	r2, [sp, #4]
 8008f06:	3164      	adds	r1, #100	; 0x64
 8008f08:	438a      	bics	r2, r1
 8008f0a:	9201      	str	r2, [sp, #4]
 8008f0c:	9a01      	ldr	r2, [sp, #4]
 8008f0e:	3110      	adds	r1, #16
 8008f10:	438a      	bics	r2, r1
 8008f12:	9201      	str	r2, [sp, #4]
 8008f14:	9a01      	ldr	r2, [sp, #4]
 8008f16:	4924      	ldr	r1, [pc, #144]	; (8008fa8 <_ada_setup_pll+0xd8>)
 8008f18:	4011      	ands	r1, r2
 8008f1a:	22c0      	movs	r2, #192	; 0xc0
 8008f1c:	00d2      	lsls	r2, r2, #3
 8008f1e:	430a      	orrs	r2, r1
 8008f20:	9201      	str	r2, [sp, #4]
 8008f22:	9a01      	ldr	r2, [sp, #4]
 8008f24:	4921      	ldr	r1, [pc, #132]	; (8008fac <_ada_setup_pll+0xdc>)
 8008f26:	400a      	ands	r2, r1
 8008f28:	9201      	str	r2, [sp, #4]
 8008f2a:	9901      	ldr	r1, [sp, #4]
 8008f2c:	4a20      	ldr	r2, [pc, #128]	; (8008fb0 <_ada_setup_pll+0xe0>)
 8008f2e:	4011      	ands	r1, r2
 8008f30:	9101      	str	r1, [sp, #4]
 8008f32:	9901      	ldr	r1, [sp, #4]
 8008f34:	4a1f      	ldr	r2, [pc, #124]	; (8008fb4 <_ada_setup_pll+0xe4>)
 8008f36:	4008      	ands	r0, r1
 8008f38:	2180      	movs	r1, #128	; 0x80
 8008f3a:	0289      	lsls	r1, r1, #10
 8008f3c:	4301      	orrs	r1, r0
 8008f3e:	9101      	str	r1, [sp, #4]
 8008f40:	9901      	ldr	r1, [sp, #4]
 8008f42:	4011      	ands	r1, r2
 8008f44:	9101      	str	r1, [sp, #4]
 8008f46:	9a01      	ldr	r2, [sp, #4]
 8008f48:	491b      	ldr	r1, [pc, #108]	; (8008fb8 <_ada_setup_pll+0xe8>)
 8008f4a:	4022      	ands	r2, r4
 8008f4c:	9201      	str	r2, [sp, #4]
 8008f4e:	9a01      	ldr	r2, [sp, #4]
 8008f50:	4011      	ands	r1, r2
 8008f52:	2280      	movs	r2, #128	; 0x80
 8008f54:	0492      	lsls	r2, r2, #18
 8008f56:	430a      	orrs	r2, r1
 8008f58:	9201      	str	r2, [sp, #4]
 8008f5a:	2280      	movs	r2, #128	; 0x80
 8008f5c:	9901      	ldr	r1, [sp, #4]
 8008f5e:	0552      	lsls	r2, r2, #21
 8008f60:	430a      	orrs	r2, r1
 8008f62:	2180      	movs	r1, #128	; 0x80
 8008f64:	9201      	str	r2, [sp, #4]
 8008f66:	9a01      	ldr	r2, [sp, #4]
 8008f68:	0589      	lsls	r1, r1, #22
 8008f6a:	00d2      	lsls	r2, r2, #3
 8008f6c:	08d2      	lsrs	r2, r2, #3
 8008f6e:	430a      	orrs	r2, r1
 8008f70:	9201      	str	r2, [sp, #4]
 8008f72:	9901      	ldr	r1, [sp, #4]
 8008f74:	4a11      	ldr	r2, [pc, #68]	; (8008fbc <_ada_setup_pll+0xec>)
 8008f76:	6011      	str	r1, [r2, #0]
 8008f78:	2280      	movs	r2, #128	; 0x80
 8008f7a:	6819      	ldr	r1, [r3, #0]
 8008f7c:	0452      	lsls	r2, r2, #17
 8008f7e:	430a      	orrs	r2, r1
 8008f80:	601a      	str	r2, [r3, #0]
 8008f82:	681a      	ldr	r2, [r3, #0]
 8008f84:	0192      	lsls	r2, r2, #6
 8008f86:	d5fc      	bpl.n	8008f82 <_ada_setup_pll+0xb2>
 8008f88:	2107      	movs	r1, #7
 8008f8a:	4a0d      	ldr	r2, [pc, #52]	; (8008fc0 <_ada_setup_pll+0xf0>)
 8008f8c:	6813      	ldr	r3, [r2, #0]
 8008f8e:	438b      	bics	r3, r1
 8008f90:	3904      	subs	r1, #4
 8008f92:	430b      	orrs	r3, r1
 8008f94:	6013      	str	r3, [r2, #0]
 8008f96:	b002      	add	sp, #8
 8008f98:	bd10      	pop	{r4, pc}
 8008f9a:	46c0      	nop			; (mov r8, r8)
 8008f9c:	40021000 	.word	0x40021000
 8008fa0:	feffffff 	.word	0xfeffffff
 8008fa4:	ffc1ffff 	.word	0xffc1ffff
 8008fa8:	ffff80ff 	.word	0xffff80ff
 8008fac:	ffff7fff 	.word	0xffff7fff
 8008fb0:	fffeffff 	.word	0xfffeffff
 8008fb4:	ff3fffff 	.word	0xff3fffff
 8008fb8:	f1ffffff 	.word	0xf1ffffff
 8008fbc:	4002100c 	.word	0x4002100c
 8008fc0:	40021008 	.word	0x40021008

08008fc4 <__divsi3>:
 8008fc4:	4603      	mov	r3, r0
 8008fc6:	430b      	orrs	r3, r1
 8008fc8:	d47f      	bmi.n	80090ca <__divsi3+0x106>
 8008fca:	2200      	movs	r2, #0
 8008fcc:	0843      	lsrs	r3, r0, #1
 8008fce:	428b      	cmp	r3, r1
 8008fd0:	d374      	bcc.n	80090bc <__divsi3+0xf8>
 8008fd2:	0903      	lsrs	r3, r0, #4
 8008fd4:	428b      	cmp	r3, r1
 8008fd6:	d35f      	bcc.n	8009098 <__divsi3+0xd4>
 8008fd8:	0a03      	lsrs	r3, r0, #8
 8008fda:	428b      	cmp	r3, r1
 8008fdc:	d344      	bcc.n	8009068 <__divsi3+0xa4>
 8008fde:	0b03      	lsrs	r3, r0, #12
 8008fe0:	428b      	cmp	r3, r1
 8008fe2:	d328      	bcc.n	8009036 <__divsi3+0x72>
 8008fe4:	0c03      	lsrs	r3, r0, #16
 8008fe6:	428b      	cmp	r3, r1
 8008fe8:	d30d      	bcc.n	8009006 <__divsi3+0x42>
 8008fea:	22ff      	movs	r2, #255	; 0xff
 8008fec:	0209      	lsls	r1, r1, #8
 8008fee:	ba12      	rev	r2, r2
 8008ff0:	0c03      	lsrs	r3, r0, #16
 8008ff2:	428b      	cmp	r3, r1
 8008ff4:	d302      	bcc.n	8008ffc <__divsi3+0x38>
 8008ff6:	1212      	asrs	r2, r2, #8
 8008ff8:	0209      	lsls	r1, r1, #8
 8008ffa:	d065      	beq.n	80090c8 <__divsi3+0x104>
 8008ffc:	0b03      	lsrs	r3, r0, #12
 8008ffe:	428b      	cmp	r3, r1
 8009000:	d319      	bcc.n	8009036 <__divsi3+0x72>
 8009002:	e000      	b.n	8009006 <__divsi3+0x42>
 8009004:	0a09      	lsrs	r1, r1, #8
 8009006:	0bc3      	lsrs	r3, r0, #15
 8009008:	428b      	cmp	r3, r1
 800900a:	d301      	bcc.n	8009010 <__divsi3+0x4c>
 800900c:	03cb      	lsls	r3, r1, #15
 800900e:	1ac0      	subs	r0, r0, r3
 8009010:	4152      	adcs	r2, r2
 8009012:	0b83      	lsrs	r3, r0, #14
 8009014:	428b      	cmp	r3, r1
 8009016:	d301      	bcc.n	800901c <__divsi3+0x58>
 8009018:	038b      	lsls	r3, r1, #14
 800901a:	1ac0      	subs	r0, r0, r3
 800901c:	4152      	adcs	r2, r2
 800901e:	0b43      	lsrs	r3, r0, #13
 8009020:	428b      	cmp	r3, r1
 8009022:	d301      	bcc.n	8009028 <__divsi3+0x64>
 8009024:	034b      	lsls	r3, r1, #13
 8009026:	1ac0      	subs	r0, r0, r3
 8009028:	4152      	adcs	r2, r2
 800902a:	0b03      	lsrs	r3, r0, #12
 800902c:	428b      	cmp	r3, r1
 800902e:	d301      	bcc.n	8009034 <__divsi3+0x70>
 8009030:	030b      	lsls	r3, r1, #12
 8009032:	1ac0      	subs	r0, r0, r3
 8009034:	4152      	adcs	r2, r2
 8009036:	0ac3      	lsrs	r3, r0, #11
 8009038:	428b      	cmp	r3, r1
 800903a:	d301      	bcc.n	8009040 <__divsi3+0x7c>
 800903c:	02cb      	lsls	r3, r1, #11
 800903e:	1ac0      	subs	r0, r0, r3
 8009040:	4152      	adcs	r2, r2
 8009042:	0a83      	lsrs	r3, r0, #10
 8009044:	428b      	cmp	r3, r1
 8009046:	d301      	bcc.n	800904c <__divsi3+0x88>
 8009048:	028b      	lsls	r3, r1, #10
 800904a:	1ac0      	subs	r0, r0, r3
 800904c:	4152      	adcs	r2, r2
 800904e:	0a43      	lsrs	r3, r0, #9
 8009050:	428b      	cmp	r3, r1
 8009052:	d301      	bcc.n	8009058 <__divsi3+0x94>
 8009054:	024b      	lsls	r3, r1, #9
 8009056:	1ac0      	subs	r0, r0, r3
 8009058:	4152      	adcs	r2, r2
 800905a:	0a03      	lsrs	r3, r0, #8
 800905c:	428b      	cmp	r3, r1
 800905e:	d301      	bcc.n	8009064 <__divsi3+0xa0>
 8009060:	020b      	lsls	r3, r1, #8
 8009062:	1ac0      	subs	r0, r0, r3
 8009064:	4152      	adcs	r2, r2
 8009066:	d2cd      	bcs.n	8009004 <__divsi3+0x40>
 8009068:	09c3      	lsrs	r3, r0, #7
 800906a:	428b      	cmp	r3, r1
 800906c:	d301      	bcc.n	8009072 <__divsi3+0xae>
 800906e:	01cb      	lsls	r3, r1, #7
 8009070:	1ac0      	subs	r0, r0, r3
 8009072:	4152      	adcs	r2, r2
 8009074:	0983      	lsrs	r3, r0, #6
 8009076:	428b      	cmp	r3, r1
 8009078:	d301      	bcc.n	800907e <__divsi3+0xba>
 800907a:	018b      	lsls	r3, r1, #6
 800907c:	1ac0      	subs	r0, r0, r3
 800907e:	4152      	adcs	r2, r2
 8009080:	0943      	lsrs	r3, r0, #5
 8009082:	428b      	cmp	r3, r1
 8009084:	d301      	bcc.n	800908a <__divsi3+0xc6>
 8009086:	014b      	lsls	r3, r1, #5
 8009088:	1ac0      	subs	r0, r0, r3
 800908a:	4152      	adcs	r2, r2
 800908c:	0903      	lsrs	r3, r0, #4
 800908e:	428b      	cmp	r3, r1
 8009090:	d301      	bcc.n	8009096 <__divsi3+0xd2>
 8009092:	010b      	lsls	r3, r1, #4
 8009094:	1ac0      	subs	r0, r0, r3
 8009096:	4152      	adcs	r2, r2
 8009098:	08c3      	lsrs	r3, r0, #3
 800909a:	428b      	cmp	r3, r1
 800909c:	d301      	bcc.n	80090a2 <__divsi3+0xde>
 800909e:	00cb      	lsls	r3, r1, #3
 80090a0:	1ac0      	subs	r0, r0, r3
 80090a2:	4152      	adcs	r2, r2
 80090a4:	0883      	lsrs	r3, r0, #2
 80090a6:	428b      	cmp	r3, r1
 80090a8:	d301      	bcc.n	80090ae <__divsi3+0xea>
 80090aa:	008b      	lsls	r3, r1, #2
 80090ac:	1ac0      	subs	r0, r0, r3
 80090ae:	4152      	adcs	r2, r2
 80090b0:	0843      	lsrs	r3, r0, #1
 80090b2:	428b      	cmp	r3, r1
 80090b4:	d301      	bcc.n	80090ba <__divsi3+0xf6>
 80090b6:	004b      	lsls	r3, r1, #1
 80090b8:	1ac0      	subs	r0, r0, r3
 80090ba:	4152      	adcs	r2, r2
 80090bc:	1a41      	subs	r1, r0, r1
 80090be:	d200      	bcs.n	80090c2 <__divsi3+0xfe>
 80090c0:	4601      	mov	r1, r0
 80090c2:	4152      	adcs	r2, r2
 80090c4:	4610      	mov	r0, r2
 80090c6:	4770      	bx	lr
 80090c8:	e05d      	b.n	8009186 <__divsi3+0x1c2>
 80090ca:	0fca      	lsrs	r2, r1, #31
 80090cc:	d000      	beq.n	80090d0 <__divsi3+0x10c>
 80090ce:	4249      	negs	r1, r1
 80090d0:	1003      	asrs	r3, r0, #32
 80090d2:	d300      	bcc.n	80090d6 <__divsi3+0x112>
 80090d4:	4240      	negs	r0, r0
 80090d6:	4053      	eors	r3, r2
 80090d8:	2200      	movs	r2, #0
 80090da:	469c      	mov	ip, r3
 80090dc:	0903      	lsrs	r3, r0, #4
 80090de:	428b      	cmp	r3, r1
 80090e0:	d32d      	bcc.n	800913e <__divsi3+0x17a>
 80090e2:	0a03      	lsrs	r3, r0, #8
 80090e4:	428b      	cmp	r3, r1
 80090e6:	d312      	bcc.n	800910e <__divsi3+0x14a>
 80090e8:	22fc      	movs	r2, #252	; 0xfc
 80090ea:	0189      	lsls	r1, r1, #6
 80090ec:	ba12      	rev	r2, r2
 80090ee:	0a03      	lsrs	r3, r0, #8
 80090f0:	428b      	cmp	r3, r1
 80090f2:	d30c      	bcc.n	800910e <__divsi3+0x14a>
 80090f4:	0189      	lsls	r1, r1, #6
 80090f6:	1192      	asrs	r2, r2, #6
 80090f8:	428b      	cmp	r3, r1
 80090fa:	d308      	bcc.n	800910e <__divsi3+0x14a>
 80090fc:	0189      	lsls	r1, r1, #6
 80090fe:	1192      	asrs	r2, r2, #6
 8009100:	428b      	cmp	r3, r1
 8009102:	d304      	bcc.n	800910e <__divsi3+0x14a>
 8009104:	0189      	lsls	r1, r1, #6
 8009106:	d03a      	beq.n	800917e <__divsi3+0x1ba>
 8009108:	1192      	asrs	r2, r2, #6
 800910a:	e000      	b.n	800910e <__divsi3+0x14a>
 800910c:	0989      	lsrs	r1, r1, #6
 800910e:	09c3      	lsrs	r3, r0, #7
 8009110:	428b      	cmp	r3, r1
 8009112:	d301      	bcc.n	8009118 <__divsi3+0x154>
 8009114:	01cb      	lsls	r3, r1, #7
 8009116:	1ac0      	subs	r0, r0, r3
 8009118:	4152      	adcs	r2, r2
 800911a:	0983      	lsrs	r3, r0, #6
 800911c:	428b      	cmp	r3, r1
 800911e:	d301      	bcc.n	8009124 <__divsi3+0x160>
 8009120:	018b      	lsls	r3, r1, #6
 8009122:	1ac0      	subs	r0, r0, r3
 8009124:	4152      	adcs	r2, r2
 8009126:	0943      	lsrs	r3, r0, #5
 8009128:	428b      	cmp	r3, r1
 800912a:	d301      	bcc.n	8009130 <__divsi3+0x16c>
 800912c:	014b      	lsls	r3, r1, #5
 800912e:	1ac0      	subs	r0, r0, r3
 8009130:	4152      	adcs	r2, r2
 8009132:	0903      	lsrs	r3, r0, #4
 8009134:	428b      	cmp	r3, r1
 8009136:	d301      	bcc.n	800913c <__divsi3+0x178>
 8009138:	010b      	lsls	r3, r1, #4
 800913a:	1ac0      	subs	r0, r0, r3
 800913c:	4152      	adcs	r2, r2
 800913e:	08c3      	lsrs	r3, r0, #3
 8009140:	428b      	cmp	r3, r1
 8009142:	d301      	bcc.n	8009148 <__divsi3+0x184>
 8009144:	00cb      	lsls	r3, r1, #3
 8009146:	1ac0      	subs	r0, r0, r3
 8009148:	4152      	adcs	r2, r2
 800914a:	0883      	lsrs	r3, r0, #2
 800914c:	428b      	cmp	r3, r1
 800914e:	d301      	bcc.n	8009154 <__divsi3+0x190>
 8009150:	008b      	lsls	r3, r1, #2
 8009152:	1ac0      	subs	r0, r0, r3
 8009154:	4152      	adcs	r2, r2
 8009156:	d2d9      	bcs.n	800910c <__divsi3+0x148>
 8009158:	0843      	lsrs	r3, r0, #1
 800915a:	428b      	cmp	r3, r1
 800915c:	d301      	bcc.n	8009162 <__divsi3+0x19e>
 800915e:	004b      	lsls	r3, r1, #1
 8009160:	1ac0      	subs	r0, r0, r3
 8009162:	4152      	adcs	r2, r2
 8009164:	1a41      	subs	r1, r0, r1
 8009166:	d200      	bcs.n	800916a <__divsi3+0x1a6>
 8009168:	4601      	mov	r1, r0
 800916a:	4663      	mov	r3, ip
 800916c:	4152      	adcs	r2, r2
 800916e:	105b      	asrs	r3, r3, #1
 8009170:	4610      	mov	r0, r2
 8009172:	d301      	bcc.n	8009178 <__divsi3+0x1b4>
 8009174:	4240      	negs	r0, r0
 8009176:	2b00      	cmp	r3, #0
 8009178:	d500      	bpl.n	800917c <__divsi3+0x1b8>
 800917a:	4249      	negs	r1, r1
 800917c:	4770      	bx	lr
 800917e:	4663      	mov	r3, ip
 8009180:	105b      	asrs	r3, r3, #1
 8009182:	d300      	bcc.n	8009186 <__divsi3+0x1c2>
 8009184:	4240      	negs	r0, r0
 8009186:	b501      	push	{r0, lr}
 8009188:	2000      	movs	r0, #0
 800918a:	f000 f805 	bl	8009198 <__aeabi_idiv0>
 800918e:	bd02      	pop	{r1, pc}

08009190 <__aeabi_idivmod>:
 8009190:	2900      	cmp	r1, #0
 8009192:	d0f8      	beq.n	8009186 <__divsi3+0x1c2>
 8009194:	e716      	b.n	8008fc4 <__divsi3>
 8009196:	4770      	bx	lr

08009198 <__aeabi_idiv0>:
 8009198:	4770      	bx	lr
 800919a:	46c0      	nop			; (mov r8, r8)

0800919c <__aeabi_ldivmod>:
 800919c:	2b00      	cmp	r3, #0
 800919e:	d115      	bne.n	80091cc <__aeabi_ldivmod+0x30>
 80091a0:	2a00      	cmp	r2, #0
 80091a2:	d113      	bne.n	80091cc <__aeabi_ldivmod+0x30>
 80091a4:	2900      	cmp	r1, #0
 80091a6:	db06      	blt.n	80091b6 <__aeabi_ldivmod+0x1a>
 80091a8:	dc01      	bgt.n	80091ae <__aeabi_ldivmod+0x12>
 80091aa:	2800      	cmp	r0, #0
 80091ac:	d006      	beq.n	80091bc <__aeabi_ldivmod+0x20>
 80091ae:	2000      	movs	r0, #0
 80091b0:	43c0      	mvns	r0, r0
 80091b2:	0841      	lsrs	r1, r0, #1
 80091b4:	e002      	b.n	80091bc <__aeabi_ldivmod+0x20>
 80091b6:	2180      	movs	r1, #128	; 0x80
 80091b8:	0609      	lsls	r1, r1, #24
 80091ba:	2000      	movs	r0, #0
 80091bc:	b407      	push	{r0, r1, r2}
 80091be:	4802      	ldr	r0, [pc, #8]	; (80091c8 <__aeabi_ldivmod+0x2c>)
 80091c0:	a101      	add	r1, pc, #4	; (adr r1, 80091c8 <__aeabi_ldivmod+0x2c>)
 80091c2:	1840      	adds	r0, r0, r1
 80091c4:	9002      	str	r0, [sp, #8]
 80091c6:	bd03      	pop	{r0, r1, pc}
 80091c8:	ffffffd1 	.word	0xffffffd1
 80091cc:	b403      	push	{r0, r1}
 80091ce:	4668      	mov	r0, sp
 80091d0:	b501      	push	{r0, lr}
 80091d2:	9802      	ldr	r0, [sp, #8]
 80091d4:	f000 f830 	bl	8009238 <__gnu_ldivmod_helper>
 80091d8:	9b01      	ldr	r3, [sp, #4]
 80091da:	469e      	mov	lr, r3
 80091dc:	b002      	add	sp, #8
 80091de:	bc0c      	pop	{r2, r3}
 80091e0:	4770      	bx	lr
 80091e2:	46c0      	nop			; (mov r8, r8)

080091e4 <__aeabi_lmul>:
 80091e4:	b5f0      	push	{r4, r5, r6, r7, lr}
 80091e6:	46ce      	mov	lr, r9
 80091e8:	4647      	mov	r7, r8
 80091ea:	0415      	lsls	r5, r2, #16
 80091ec:	0c2d      	lsrs	r5, r5, #16
 80091ee:	002e      	movs	r6, r5
 80091f0:	b580      	push	{r7, lr}
 80091f2:	0407      	lsls	r7, r0, #16
 80091f4:	0c14      	lsrs	r4, r2, #16
 80091f6:	0c3f      	lsrs	r7, r7, #16
 80091f8:	4699      	mov	r9, r3
 80091fa:	0c03      	lsrs	r3, r0, #16
 80091fc:	437e      	muls	r6, r7
 80091fe:	435d      	muls	r5, r3
 8009200:	4367      	muls	r7, r4
 8009202:	4363      	muls	r3, r4
 8009204:	197f      	adds	r7, r7, r5
 8009206:	0c34      	lsrs	r4, r6, #16
 8009208:	19e4      	adds	r4, r4, r7
 800920a:	469c      	mov	ip, r3
 800920c:	42a5      	cmp	r5, r4
 800920e:	d903      	bls.n	8009218 <__aeabi_lmul+0x34>
 8009210:	2380      	movs	r3, #128	; 0x80
 8009212:	025b      	lsls	r3, r3, #9
 8009214:	4698      	mov	r8, r3
 8009216:	44c4      	add	ip, r8
 8009218:	464b      	mov	r3, r9
 800921a:	4343      	muls	r3, r0
 800921c:	4351      	muls	r1, r2
 800921e:	0c25      	lsrs	r5, r4, #16
 8009220:	0436      	lsls	r6, r6, #16
 8009222:	4465      	add	r5, ip
 8009224:	0c36      	lsrs	r6, r6, #16
 8009226:	0424      	lsls	r4, r4, #16
 8009228:	19a4      	adds	r4, r4, r6
 800922a:	195b      	adds	r3, r3, r5
 800922c:	1859      	adds	r1, r3, r1
 800922e:	0020      	movs	r0, r4
 8009230:	bc0c      	pop	{r2, r3}
 8009232:	4690      	mov	r8, r2
 8009234:	4699      	mov	r9, r3
 8009236:	bdf0      	pop	{r4, r5, r6, r7, pc}

08009238 <__gnu_ldivmod_helper>:
 8009238:	b5f0      	push	{r4, r5, r6, r7, lr}
 800923a:	b083      	sub	sp, #12
 800923c:	0016      	movs	r6, r2
 800923e:	001f      	movs	r7, r3
 8009240:	9000      	str	r0, [sp, #0]
 8009242:	9101      	str	r1, [sp, #4]
 8009244:	f000 f820 	bl	8009288 <__divdi3>
 8009248:	0004      	movs	r4, r0
 800924a:	000d      	movs	r5, r1
 800924c:	0002      	movs	r2, r0
 800924e:	000b      	movs	r3, r1
 8009250:	0030      	movs	r0, r6
 8009252:	0039      	movs	r1, r7
 8009254:	f7ff ffc6 	bl	80091e4 <__aeabi_lmul>
 8009258:	9a00      	ldr	r2, [sp, #0]
 800925a:	9b01      	ldr	r3, [sp, #4]
 800925c:	1a12      	subs	r2, r2, r0
 800925e:	418b      	sbcs	r3, r1
 8009260:	9908      	ldr	r1, [sp, #32]
 8009262:	0020      	movs	r0, r4
 8009264:	600a      	str	r2, [r1, #0]
 8009266:	604b      	str	r3, [r1, #4]
 8009268:	0029      	movs	r1, r5
 800926a:	b003      	add	sp, #12
 800926c:	bdf0      	pop	{r4, r5, r6, r7, pc}
 800926e:	46c0      	nop			; (mov r8, r8)

08009270 <__clzdi2>:
 8009270:	b510      	push	{r4, lr}
 8009272:	2900      	cmp	r1, #0
 8009274:	d103      	bne.n	800927e <__clzdi2+0xe>
 8009276:	f000 f8df 	bl	8009438 <__clzsi2>
 800927a:	3020      	adds	r0, #32
 800927c:	e002      	b.n	8009284 <__clzdi2+0x14>
 800927e:	1c08      	adds	r0, r1, #0
 8009280:	f000 f8da 	bl	8009438 <__clzsi2>
 8009284:	bd10      	pop	{r4, pc}
 8009286:	46c0      	nop			; (mov r8, r8)

08009288 <__divdi3>:
 8009288:	b5f0      	push	{r4, r5, r6, r7, lr}
 800928a:	464e      	mov	r6, r9
 800928c:	4657      	mov	r7, sl
 800928e:	46de      	mov	lr, fp
 8009290:	4645      	mov	r5, r8
 8009292:	b5e0      	push	{r5, r6, r7, lr}
 8009294:	000f      	movs	r7, r1
 8009296:	2100      	movs	r1, #0
 8009298:	b083      	sub	sp, #12
 800929a:	0006      	movs	r6, r0
 800929c:	4689      	mov	r9, r1
 800929e:	2f00      	cmp	r7, #0
 80092a0:	da06      	bge.n	80092b0 <__divdi3+0x28>
 80092a2:	0039      	movs	r1, r7
 80092a4:	2700      	movs	r7, #0
 80092a6:	4246      	negs	r6, r0
 80092a8:	418f      	sbcs	r7, r1
 80092aa:	2101      	movs	r1, #1
 80092ac:	4249      	negs	r1, r1
 80092ae:	4689      	mov	r9, r1
 80092b0:	2b00      	cmp	r3, #0
 80092b2:	da07      	bge.n	80092c4 <__divdi3+0x3c>
 80092b4:	4649      	mov	r1, r9
 80092b6:	43c9      	mvns	r1, r1
 80092b8:	0010      	movs	r0, r2
 80092ba:	4689      	mov	r9, r1
 80092bc:	0019      	movs	r1, r3
 80092be:	2300      	movs	r3, #0
 80092c0:	4242      	negs	r2, r0
 80092c2:	418b      	sbcs	r3, r1
 80092c4:	0034      	movs	r4, r6
 80092c6:	003d      	movs	r5, r7
 80092c8:	4692      	mov	sl, r2
 80092ca:	4698      	mov	r8, r3
 80092cc:	42bb      	cmp	r3, r7
 80092ce:	d869      	bhi.n	80093a4 <__divdi3+0x11c>
 80092d0:	d066      	beq.n	80093a0 <__divdi3+0x118>
 80092d2:	4641      	mov	r1, r8
 80092d4:	4650      	mov	r0, sl
 80092d6:	f7ff ffcb 	bl	8009270 <__clzdi2>
 80092da:	4683      	mov	fp, r0
 80092dc:	0039      	movs	r1, r7
 80092de:	0030      	movs	r0, r6
 80092e0:	f7ff ffc6 	bl	8009270 <__clzdi2>
 80092e4:	465b      	mov	r3, fp
 80092e6:	1a1b      	subs	r3, r3, r0
 80092e8:	469c      	mov	ip, r3
 80092ea:	3b20      	subs	r3, #32
 80092ec:	469b      	mov	fp, r3
 80092ee:	d500      	bpl.n	80092f2 <__divdi3+0x6a>
 80092f0:	e075      	b.n	80093de <__divdi3+0x156>
 80092f2:	4651      	mov	r1, sl
 80092f4:	4658      	mov	r0, fp
 80092f6:	4081      	lsls	r1, r0
 80092f8:	000b      	movs	r3, r1
 80092fa:	4651      	mov	r1, sl
 80092fc:	4660      	mov	r0, ip
 80092fe:	4081      	lsls	r1, r0
 8009300:	000a      	movs	r2, r1
 8009302:	42bb      	cmp	r3, r7
 8009304:	d861      	bhi.n	80093ca <__divdi3+0x142>
 8009306:	d05e      	beq.n	80093c6 <__divdi3+0x13e>
 8009308:	0034      	movs	r4, r6
 800930a:	003d      	movs	r5, r7
 800930c:	4659      	mov	r1, fp
 800930e:	1aa4      	subs	r4, r4, r2
 8009310:	419d      	sbcs	r5, r3
 8009312:	2900      	cmp	r1, #0
 8009314:	da00      	bge.n	8009318 <__divdi3+0x90>
 8009316:	e07a      	b.n	800940e <__divdi3+0x186>
 8009318:	2100      	movs	r1, #0
 800931a:	2000      	movs	r0, #0
 800931c:	2601      	movs	r6, #1
 800931e:	9000      	str	r0, [sp, #0]
 8009320:	9101      	str	r1, [sp, #4]
 8009322:	4659      	mov	r1, fp
 8009324:	408e      	lsls	r6, r1
 8009326:	9601      	str	r6, [sp, #4]
 8009328:	4661      	mov	r1, ip
 800932a:	2601      	movs	r6, #1
 800932c:	408e      	lsls	r6, r1
 800932e:	4661      	mov	r1, ip
 8009330:	9600      	str	r6, [sp, #0]
 8009332:	2900      	cmp	r1, #0
 8009334:	d050      	beq.n	80093d8 <__divdi3+0x150>
 8009336:	07d9      	lsls	r1, r3, #31
 8009338:	0856      	lsrs	r6, r2, #1
 800933a:	085f      	lsrs	r7, r3, #1
 800933c:	430e      	orrs	r6, r1
 800933e:	4663      	mov	r3, ip
 8009340:	e00e      	b.n	8009360 <__divdi3+0xd8>
 8009342:	42af      	cmp	r7, r5
 8009344:	d101      	bne.n	800934a <__divdi3+0xc2>
 8009346:	42a6      	cmp	r6, r4
 8009348:	d80c      	bhi.n	8009364 <__divdi3+0xdc>
 800934a:	1ba4      	subs	r4, r4, r6
 800934c:	41bd      	sbcs	r5, r7
 800934e:	2101      	movs	r1, #1
 8009350:	1924      	adds	r4, r4, r4
 8009352:	416d      	adcs	r5, r5
 8009354:	2200      	movs	r2, #0
 8009356:	3b01      	subs	r3, #1
 8009358:	1864      	adds	r4, r4, r1
 800935a:	4155      	adcs	r5, r2
 800935c:	2b00      	cmp	r3, #0
 800935e:	d006      	beq.n	800936e <__divdi3+0xe6>
 8009360:	42af      	cmp	r7, r5
 8009362:	d9ee      	bls.n	8009342 <__divdi3+0xba>
 8009364:	3b01      	subs	r3, #1
 8009366:	1924      	adds	r4, r4, r4
 8009368:	416d      	adcs	r5, r5
 800936a:	2b00      	cmp	r3, #0
 800936c:	d1f8      	bne.n	8009360 <__divdi3+0xd8>
 800936e:	9800      	ldr	r0, [sp, #0]
 8009370:	9901      	ldr	r1, [sp, #4]
 8009372:	465b      	mov	r3, fp
 8009374:	1900      	adds	r0, r0, r4
 8009376:	4169      	adcs	r1, r5
 8009378:	2b00      	cmp	r3, #0
 800937a:	db3d      	blt.n	80093f8 <__divdi3+0x170>
 800937c:	002e      	movs	r6, r5
 800937e:	40de      	lsrs	r6, r3
 8009380:	4663      	mov	r3, ip
 8009382:	002c      	movs	r4, r5
 8009384:	40dc      	lsrs	r4, r3
 8009386:	465b      	mov	r3, fp
 8009388:	2b00      	cmp	r3, #0
 800938a:	db4b      	blt.n	8009424 <__divdi3+0x19c>
 800938c:	0034      	movs	r4, r6
 800938e:	465d      	mov	r5, fp
 8009390:	40ac      	lsls	r4, r5
 8009392:	0023      	movs	r3, r4
 8009394:	4664      	mov	r4, ip
 8009396:	40a6      	lsls	r6, r4
 8009398:	0032      	movs	r2, r6
 800939a:	1a80      	subs	r0, r0, r2
 800939c:	4199      	sbcs	r1, r3
 800939e:	e003      	b.n	80093a8 <__divdi3+0x120>
 80093a0:	42b2      	cmp	r2, r6
 80093a2:	d996      	bls.n	80092d2 <__divdi3+0x4a>
 80093a4:	2000      	movs	r0, #0
 80093a6:	2100      	movs	r1, #0
 80093a8:	464b      	mov	r3, r9
 80093aa:	2b00      	cmp	r3, #0
 80093ac:	d004      	beq.n	80093b8 <__divdi3+0x130>
 80093ae:	0003      	movs	r3, r0
 80093b0:	000c      	movs	r4, r1
 80093b2:	2100      	movs	r1, #0
 80093b4:	4258      	negs	r0, r3
 80093b6:	41a1      	sbcs	r1, r4
 80093b8:	b003      	add	sp, #12
 80093ba:	bc3c      	pop	{r2, r3, r4, r5}
 80093bc:	4690      	mov	r8, r2
 80093be:	4699      	mov	r9, r3
 80093c0:	46a2      	mov	sl, r4
 80093c2:	46ab      	mov	fp, r5
 80093c4:	bdf0      	pop	{r4, r5, r6, r7, pc}
 80093c6:	42b1      	cmp	r1, r6
 80093c8:	d99e      	bls.n	8009308 <__divdi3+0x80>
 80093ca:	2100      	movs	r1, #0
 80093cc:	2000      	movs	r0, #0
 80093ce:	9000      	str	r0, [sp, #0]
 80093d0:	9101      	str	r1, [sp, #4]
 80093d2:	4661      	mov	r1, ip
 80093d4:	2900      	cmp	r1, #0
 80093d6:	d1ae      	bne.n	8009336 <__divdi3+0xae>
 80093d8:	9800      	ldr	r0, [sp, #0]
 80093da:	9901      	ldr	r1, [sp, #4]
 80093dc:	e7e4      	b.n	80093a8 <__divdi3+0x120>
 80093de:	2320      	movs	r3, #32
 80093e0:	4662      	mov	r2, ip
 80093e2:	4651      	mov	r1, sl
 80093e4:	1a9b      	subs	r3, r3, r2
 80093e6:	40d9      	lsrs	r1, r3
 80093e8:	4640      	mov	r0, r8
 80093ea:	9100      	str	r1, [sp, #0]
 80093ec:	4661      	mov	r1, ip
 80093ee:	4088      	lsls	r0, r1
 80093f0:	0003      	movs	r3, r0
 80093f2:	9900      	ldr	r1, [sp, #0]
 80093f4:	430b      	orrs	r3, r1
 80093f6:	e780      	b.n	80092fa <__divdi3+0x72>
 80093f8:	4662      	mov	r2, ip
 80093fa:	2320      	movs	r3, #32
 80093fc:	1a9b      	subs	r3, r3, r2
 80093fe:	002a      	movs	r2, r5
 8009400:	409a      	lsls	r2, r3
 8009402:	0026      	movs	r6, r4
 8009404:	0013      	movs	r3, r2
 8009406:	4662      	mov	r2, ip
 8009408:	40d6      	lsrs	r6, r2
 800940a:	431e      	orrs	r6, r3
 800940c:	e7b8      	b.n	8009380 <__divdi3+0xf8>
 800940e:	4661      	mov	r1, ip
 8009410:	2620      	movs	r6, #32
 8009412:	2701      	movs	r7, #1
 8009414:	1a76      	subs	r6, r6, r1
 8009416:	2000      	movs	r0, #0
 8009418:	2100      	movs	r1, #0
 800941a:	40f7      	lsrs	r7, r6
 800941c:	9000      	str	r0, [sp, #0]
 800941e:	9101      	str	r1, [sp, #4]
 8009420:	9701      	str	r7, [sp, #4]
 8009422:	e781      	b.n	8009328 <__divdi3+0xa0>
 8009424:	4667      	mov	r7, ip
 8009426:	2320      	movs	r3, #32
 8009428:	4662      	mov	r2, ip
 800942a:	0035      	movs	r5, r6
 800942c:	40bc      	lsls	r4, r7
 800942e:	1a9b      	subs	r3, r3, r2
 8009430:	40dd      	lsrs	r5, r3
 8009432:	0023      	movs	r3, r4
 8009434:	432b      	orrs	r3, r5
 8009436:	e7ad      	b.n	8009394 <__divdi3+0x10c>

08009438 <__clzsi2>:
 8009438:	211c      	movs	r1, #28
 800943a:	2301      	movs	r3, #1
 800943c:	041b      	lsls	r3, r3, #16
 800943e:	4298      	cmp	r0, r3
 8009440:	d301      	bcc.n	8009446 <__clzsi2+0xe>
 8009442:	0c00      	lsrs	r0, r0, #16
 8009444:	3910      	subs	r1, #16
 8009446:	0a1b      	lsrs	r3, r3, #8
 8009448:	4298      	cmp	r0, r3
 800944a:	d301      	bcc.n	8009450 <__clzsi2+0x18>
 800944c:	0a00      	lsrs	r0, r0, #8
 800944e:	3908      	subs	r1, #8
 8009450:	091b      	lsrs	r3, r3, #4
 8009452:	4298      	cmp	r0, r3
 8009454:	d301      	bcc.n	800945a <__clzsi2+0x22>
 8009456:	0900      	lsrs	r0, r0, #4
 8009458:	3904      	subs	r1, #4
 800945a:	a202      	add	r2, pc, #8	; (adr r2, 8009464 <__clzsi2+0x2c>)
 800945c:	5c10      	ldrb	r0, [r2, r0]
 800945e:	1840      	adds	r0, r0, r1
 8009460:	4770      	bx	lr
 8009462:	46c0      	nop			; (mov r8, r8)
 8009464:	02020304 	.word	0x02020304
 8009468:	01010101 	.word	0x01010101
	...
